ARM GAS  C:\Users\17832\AppData\Local\Temp\ccxoZ2T5.s 			page 1


   1              		.cpu cortex-m4
   2              		.arch armv7e-m
   3              		.fpu fpv4-sp-d16
   4              		.eabi_attribute 27, 1
   5              		.eabi_attribute 28, 1
   6              		.eabi_attribute 20, 1
   7              		.eabi_attribute 21, 1
   8              		.eabi_attribute 23, 3
   9              		.eabi_attribute 24, 1
  10              		.eabi_attribute 25, 1
  11              		.eabi_attribute 26, 1
  12              		.eabi_attribute 30, 1
  13              		.eabi_attribute 34, 1
  14              		.eabi_attribute 18, 4
  15              		.file	"arm_cfft_radix4_f32.c"
  16              		.text
  17              	.Ltext0:
  18              		.cfi_sections	.debug_frame
  19              		.section	.text.arm_radix4_butterfly_f32,"ax",%progbits
  20              		.align	1
  21              		.global	arm_radix4_butterfly_f32
  22              		.syntax unified
  23              		.thumb
  24              		.thumb_func
  26              	arm_radix4_butterfly_f32:
  27              	.LVL0:
  28              	.LFB136:
  29              		.file 1 "Drivers/CMSIS/DSP/Source/TransformFunctions/arm_cfft_radix4_f32.c"
   1:Drivers/CMSIS/DSP/Source/TransformFunctions/arm_cfft_radix4_f32.c **** /* ----------------------------------------------------------------------
   2:Drivers/CMSIS/DSP/Source/TransformFunctions/arm_cfft_radix4_f32.c ****  * Project:      CMSIS DSP Library
   3:Drivers/CMSIS/DSP/Source/TransformFunctions/arm_cfft_radix4_f32.c ****  * Title:        arm_cfft_radix4_f32.c
   4:Drivers/CMSIS/DSP/Source/TransformFunctions/arm_cfft_radix4_f32.c ****  * Description:  Radix-4 Decimation in Frequency CFFT & CIFFT Floating point processing function
   5:Drivers/CMSIS/DSP/Source/TransformFunctions/arm_cfft_radix4_f32.c ****  *
   6:Drivers/CMSIS/DSP/Source/TransformFunctions/arm_cfft_radix4_f32.c ****  * $Date:        27. January 2017
   7:Drivers/CMSIS/DSP/Source/TransformFunctions/arm_cfft_radix4_f32.c ****  * $Revision:    V.1.5.1
   8:Drivers/CMSIS/DSP/Source/TransformFunctions/arm_cfft_radix4_f32.c ****  *
   9:Drivers/CMSIS/DSP/Source/TransformFunctions/arm_cfft_radix4_f32.c ****  * Target Processor: Cortex-M cores
  10:Drivers/CMSIS/DSP/Source/TransformFunctions/arm_cfft_radix4_f32.c ****  * -------------------------------------------------------------------- */
  11:Drivers/CMSIS/DSP/Source/TransformFunctions/arm_cfft_radix4_f32.c **** /*
  12:Drivers/CMSIS/DSP/Source/TransformFunctions/arm_cfft_radix4_f32.c ****  * Copyright (C) 2010-2017 ARM Limited or its affiliates. All rights reserved.
  13:Drivers/CMSIS/DSP/Source/TransformFunctions/arm_cfft_radix4_f32.c ****  *
  14:Drivers/CMSIS/DSP/Source/TransformFunctions/arm_cfft_radix4_f32.c ****  * SPDX-License-Identifier: Apache-2.0
  15:Drivers/CMSIS/DSP/Source/TransformFunctions/arm_cfft_radix4_f32.c ****  *
  16:Drivers/CMSIS/DSP/Source/TransformFunctions/arm_cfft_radix4_f32.c ****  * Licensed under the Apache License, Version 2.0 (the License); you may
  17:Drivers/CMSIS/DSP/Source/TransformFunctions/arm_cfft_radix4_f32.c ****  * not use this file except in compliance with the License.
  18:Drivers/CMSIS/DSP/Source/TransformFunctions/arm_cfft_radix4_f32.c ****  * You may obtain a copy of the License at
  19:Drivers/CMSIS/DSP/Source/TransformFunctions/arm_cfft_radix4_f32.c ****  *
  20:Drivers/CMSIS/DSP/Source/TransformFunctions/arm_cfft_radix4_f32.c ****  * www.apache.org/licenses/LICENSE-2.0
  21:Drivers/CMSIS/DSP/Source/TransformFunctions/arm_cfft_radix4_f32.c ****  *
  22:Drivers/CMSIS/DSP/Source/TransformFunctions/arm_cfft_radix4_f32.c ****  * Unless required by applicable law or agreed to in writing, software
  23:Drivers/CMSIS/DSP/Source/TransformFunctions/arm_cfft_radix4_f32.c ****  * distributed under the License is distributed on an AS IS BASIS, WITHOUT
  24:Drivers/CMSIS/DSP/Source/TransformFunctions/arm_cfft_radix4_f32.c ****  * WARRANTIES OR CONDITIONS OF ANY KIND, either express or implied.
  25:Drivers/CMSIS/DSP/Source/TransformFunctions/arm_cfft_radix4_f32.c ****  * See the License for the specific language governing permissions and
  26:Drivers/CMSIS/DSP/Source/TransformFunctions/arm_cfft_radix4_f32.c ****  * limitations under the License.
  27:Drivers/CMSIS/DSP/Source/TransformFunctions/arm_cfft_radix4_f32.c ****  */
  28:Drivers/CMSIS/DSP/Source/TransformFunctions/arm_cfft_radix4_f32.c **** 
  29:Drivers/CMSIS/DSP/Source/TransformFunctions/arm_cfft_radix4_f32.c **** #include "arm_math.h"
ARM GAS  C:\Users\17832\AppData\Local\Temp\ccxoZ2T5.s 			page 2


  30:Drivers/CMSIS/DSP/Source/TransformFunctions/arm_cfft_radix4_f32.c **** 
  31:Drivers/CMSIS/DSP/Source/TransformFunctions/arm_cfft_radix4_f32.c **** extern void arm_bitreversal_f32(
  32:Drivers/CMSIS/DSP/Source/TransformFunctions/arm_cfft_radix4_f32.c **** float32_t * pSrc,
  33:Drivers/CMSIS/DSP/Source/TransformFunctions/arm_cfft_radix4_f32.c **** uint16_t fftSize,
  34:Drivers/CMSIS/DSP/Source/TransformFunctions/arm_cfft_radix4_f32.c **** uint16_t bitRevFactor,
  35:Drivers/CMSIS/DSP/Source/TransformFunctions/arm_cfft_radix4_f32.c **** uint16_t * pBitRevTab);
  36:Drivers/CMSIS/DSP/Source/TransformFunctions/arm_cfft_radix4_f32.c **** 
  37:Drivers/CMSIS/DSP/Source/TransformFunctions/arm_cfft_radix4_f32.c **** void arm_radix4_butterfly_f32(
  38:Drivers/CMSIS/DSP/Source/TransformFunctions/arm_cfft_radix4_f32.c **** float32_t * pSrc,
  39:Drivers/CMSIS/DSP/Source/TransformFunctions/arm_cfft_radix4_f32.c **** uint16_t fftLen,
  40:Drivers/CMSIS/DSP/Source/TransformFunctions/arm_cfft_radix4_f32.c **** float32_t * pCoef,
  41:Drivers/CMSIS/DSP/Source/TransformFunctions/arm_cfft_radix4_f32.c **** uint16_t twidCoefModifier);
  42:Drivers/CMSIS/DSP/Source/TransformFunctions/arm_cfft_radix4_f32.c **** 
  43:Drivers/CMSIS/DSP/Source/TransformFunctions/arm_cfft_radix4_f32.c **** void arm_radix4_butterfly_inverse_f32(
  44:Drivers/CMSIS/DSP/Source/TransformFunctions/arm_cfft_radix4_f32.c **** float32_t * pSrc,
  45:Drivers/CMSIS/DSP/Source/TransformFunctions/arm_cfft_radix4_f32.c **** uint16_t fftLen,
  46:Drivers/CMSIS/DSP/Source/TransformFunctions/arm_cfft_radix4_f32.c **** float32_t * pCoef,
  47:Drivers/CMSIS/DSP/Source/TransformFunctions/arm_cfft_radix4_f32.c **** uint16_t twidCoefModifier,
  48:Drivers/CMSIS/DSP/Source/TransformFunctions/arm_cfft_radix4_f32.c **** float32_t onebyfftLen);
  49:Drivers/CMSIS/DSP/Source/TransformFunctions/arm_cfft_radix4_f32.c **** 
  50:Drivers/CMSIS/DSP/Source/TransformFunctions/arm_cfft_radix4_f32.c **** 
  51:Drivers/CMSIS/DSP/Source/TransformFunctions/arm_cfft_radix4_f32.c **** /**
  52:Drivers/CMSIS/DSP/Source/TransformFunctions/arm_cfft_radix4_f32.c **** * @ingroup groupTransforms
  53:Drivers/CMSIS/DSP/Source/TransformFunctions/arm_cfft_radix4_f32.c **** */
  54:Drivers/CMSIS/DSP/Source/TransformFunctions/arm_cfft_radix4_f32.c **** 
  55:Drivers/CMSIS/DSP/Source/TransformFunctions/arm_cfft_radix4_f32.c **** /**
  56:Drivers/CMSIS/DSP/Source/TransformFunctions/arm_cfft_radix4_f32.c **** * @addtogroup ComplexFFT
  57:Drivers/CMSIS/DSP/Source/TransformFunctions/arm_cfft_radix4_f32.c **** * @{
  58:Drivers/CMSIS/DSP/Source/TransformFunctions/arm_cfft_radix4_f32.c **** */
  59:Drivers/CMSIS/DSP/Source/TransformFunctions/arm_cfft_radix4_f32.c **** 
  60:Drivers/CMSIS/DSP/Source/TransformFunctions/arm_cfft_radix4_f32.c **** /**
  61:Drivers/CMSIS/DSP/Source/TransformFunctions/arm_cfft_radix4_f32.c **** * @details
  62:Drivers/CMSIS/DSP/Source/TransformFunctions/arm_cfft_radix4_f32.c **** * @brief Processing function for the floating-point Radix-4 CFFT/CIFFT.
  63:Drivers/CMSIS/DSP/Source/TransformFunctions/arm_cfft_radix4_f32.c **** * @deprecated Do not use this function.  It has been superseded by \ref arm_cfft_f32 and will be re
  64:Drivers/CMSIS/DSP/Source/TransformFunctions/arm_cfft_radix4_f32.c **** * in the future.
  65:Drivers/CMSIS/DSP/Source/TransformFunctions/arm_cfft_radix4_f32.c **** * @param[in]      *S    points to an instance of the floating-point Radix-4 CFFT/CIFFT structure.
  66:Drivers/CMSIS/DSP/Source/TransformFunctions/arm_cfft_radix4_f32.c **** * @param[in, out] *pSrc points to the complex data buffer of size <code>2*fftLen</code>. Processing
  67:Drivers/CMSIS/DSP/Source/TransformFunctions/arm_cfft_radix4_f32.c **** * @return none.
  68:Drivers/CMSIS/DSP/Source/TransformFunctions/arm_cfft_radix4_f32.c **** */
  69:Drivers/CMSIS/DSP/Source/TransformFunctions/arm_cfft_radix4_f32.c **** 
  70:Drivers/CMSIS/DSP/Source/TransformFunctions/arm_cfft_radix4_f32.c **** void arm_cfft_radix4_f32(
  71:Drivers/CMSIS/DSP/Source/TransformFunctions/arm_cfft_radix4_f32.c ****   const arm_cfft_radix4_instance_f32 * S,
  72:Drivers/CMSIS/DSP/Source/TransformFunctions/arm_cfft_radix4_f32.c ****   float32_t * pSrc)
  73:Drivers/CMSIS/DSP/Source/TransformFunctions/arm_cfft_radix4_f32.c **** {
  74:Drivers/CMSIS/DSP/Source/TransformFunctions/arm_cfft_radix4_f32.c ****    if (S->ifftFlag == 1U)
  75:Drivers/CMSIS/DSP/Source/TransformFunctions/arm_cfft_radix4_f32.c ****    {
  76:Drivers/CMSIS/DSP/Source/TransformFunctions/arm_cfft_radix4_f32.c ****       /*  Complex IFFT radix-4  */
  77:Drivers/CMSIS/DSP/Source/TransformFunctions/arm_cfft_radix4_f32.c ****       arm_radix4_butterfly_inverse_f32(pSrc, S->fftLen, S->pTwiddle, S->twidCoefModifier, S->onebyf
  78:Drivers/CMSIS/DSP/Source/TransformFunctions/arm_cfft_radix4_f32.c ****    }
  79:Drivers/CMSIS/DSP/Source/TransformFunctions/arm_cfft_radix4_f32.c ****    else
  80:Drivers/CMSIS/DSP/Source/TransformFunctions/arm_cfft_radix4_f32.c ****    {
  81:Drivers/CMSIS/DSP/Source/TransformFunctions/arm_cfft_radix4_f32.c ****       /*  Complex FFT radix-4  */
  82:Drivers/CMSIS/DSP/Source/TransformFunctions/arm_cfft_radix4_f32.c ****       arm_radix4_butterfly_f32(pSrc, S->fftLen, S->pTwiddle, S->twidCoefModifier);
  83:Drivers/CMSIS/DSP/Source/TransformFunctions/arm_cfft_radix4_f32.c ****    }
  84:Drivers/CMSIS/DSP/Source/TransformFunctions/arm_cfft_radix4_f32.c **** 
  85:Drivers/CMSIS/DSP/Source/TransformFunctions/arm_cfft_radix4_f32.c ****    if (S->bitReverseFlag == 1U)
  86:Drivers/CMSIS/DSP/Source/TransformFunctions/arm_cfft_radix4_f32.c ****    {
ARM GAS  C:\Users\17832\AppData\Local\Temp\ccxoZ2T5.s 			page 3


  87:Drivers/CMSIS/DSP/Source/TransformFunctions/arm_cfft_radix4_f32.c ****       /*  Bit Reversal */
  88:Drivers/CMSIS/DSP/Source/TransformFunctions/arm_cfft_radix4_f32.c ****       arm_bitreversal_f32(pSrc, S->fftLen, S->bitRevFactor, S->pBitRevTable);
  89:Drivers/CMSIS/DSP/Source/TransformFunctions/arm_cfft_radix4_f32.c ****    }
  90:Drivers/CMSIS/DSP/Source/TransformFunctions/arm_cfft_radix4_f32.c **** 
  91:Drivers/CMSIS/DSP/Source/TransformFunctions/arm_cfft_radix4_f32.c **** }
  92:Drivers/CMSIS/DSP/Source/TransformFunctions/arm_cfft_radix4_f32.c **** 
  93:Drivers/CMSIS/DSP/Source/TransformFunctions/arm_cfft_radix4_f32.c **** /**
  94:Drivers/CMSIS/DSP/Source/TransformFunctions/arm_cfft_radix4_f32.c **** * @} end of ComplexFFT group
  95:Drivers/CMSIS/DSP/Source/TransformFunctions/arm_cfft_radix4_f32.c **** */
  96:Drivers/CMSIS/DSP/Source/TransformFunctions/arm_cfft_radix4_f32.c **** 
  97:Drivers/CMSIS/DSP/Source/TransformFunctions/arm_cfft_radix4_f32.c **** /* ----------------------------------------------------------------------
  98:Drivers/CMSIS/DSP/Source/TransformFunctions/arm_cfft_radix4_f32.c ****  * Internal helper function used by the FFTs
  99:Drivers/CMSIS/DSP/Source/TransformFunctions/arm_cfft_radix4_f32.c ****  * ---------------------------------------------------------------------- */
 100:Drivers/CMSIS/DSP/Source/TransformFunctions/arm_cfft_radix4_f32.c **** 
 101:Drivers/CMSIS/DSP/Source/TransformFunctions/arm_cfft_radix4_f32.c **** /*
 102:Drivers/CMSIS/DSP/Source/TransformFunctions/arm_cfft_radix4_f32.c **** * @brief  Core function for the floating-point CFFT butterfly process.
 103:Drivers/CMSIS/DSP/Source/TransformFunctions/arm_cfft_radix4_f32.c **** * @param[in, out] *pSrc            points to the in-place buffer of floating-point data type.
 104:Drivers/CMSIS/DSP/Source/TransformFunctions/arm_cfft_radix4_f32.c **** * @param[in]      fftLen           length of the FFT.
 105:Drivers/CMSIS/DSP/Source/TransformFunctions/arm_cfft_radix4_f32.c **** * @param[in]      *pCoef           points to the twiddle coefficient buffer.
 106:Drivers/CMSIS/DSP/Source/TransformFunctions/arm_cfft_radix4_f32.c **** * @param[in]      twidCoefModifier twiddle coefficient modifier that supports different size FFTs w
 107:Drivers/CMSIS/DSP/Source/TransformFunctions/arm_cfft_radix4_f32.c **** * @return none.
 108:Drivers/CMSIS/DSP/Source/TransformFunctions/arm_cfft_radix4_f32.c **** */
 109:Drivers/CMSIS/DSP/Source/TransformFunctions/arm_cfft_radix4_f32.c **** 
 110:Drivers/CMSIS/DSP/Source/TransformFunctions/arm_cfft_radix4_f32.c **** void arm_radix4_butterfly_f32(
 111:Drivers/CMSIS/DSP/Source/TransformFunctions/arm_cfft_radix4_f32.c **** float32_t * pSrc,
 112:Drivers/CMSIS/DSP/Source/TransformFunctions/arm_cfft_radix4_f32.c **** uint16_t fftLen,
 113:Drivers/CMSIS/DSP/Source/TransformFunctions/arm_cfft_radix4_f32.c **** float32_t * pCoef,
 114:Drivers/CMSIS/DSP/Source/TransformFunctions/arm_cfft_radix4_f32.c **** uint16_t twidCoefModifier)
 115:Drivers/CMSIS/DSP/Source/TransformFunctions/arm_cfft_radix4_f32.c **** {
  30              		.loc 1 115 1 view -0
  31              		.cfi_startproc
  32              		@ args = 0, pretend = 0, frame = 24
  33              		@ frame_needed = 0, uses_anonymous_args = 0
  34              		.loc 1 115 1 is_stmt 0 view .LVU1
  35 0000 2DE9F04F 		push	{r4, r5, r6, r7, r8, r9, r10, fp, lr}
  36              	.LCFI0:
  37              		.cfi_def_cfa_offset 36
  38              		.cfi_offset 4, -36
  39              		.cfi_offset 5, -32
  40              		.cfi_offset 6, -28
  41              		.cfi_offset 7, -24
  42              		.cfi_offset 8, -20
  43              		.cfi_offset 9, -16
  44              		.cfi_offset 10, -12
  45              		.cfi_offset 11, -8
  46              		.cfi_offset 14, -4
  47 0004 2DED028B 		vpush.64	{d8}
  48              	.LCFI1:
  49              		.cfi_def_cfa_offset 44
  50              		.cfi_offset 80, -44
  51              		.cfi_offset 81, -40
  52 0008 87B0     		sub	sp, sp, #28
  53              	.LCFI2:
  54              		.cfi_def_cfa_offset 72
  55 000a 0292     		str	r2, [sp, #8]
  56 000c 0193     		str	r3, [sp, #4]
 116:Drivers/CMSIS/DSP/Source/TransformFunctions/arm_cfft_radix4_f32.c **** 
ARM GAS  C:\Users\17832\AppData\Local\Temp\ccxoZ2T5.s 			page 4


 117:Drivers/CMSIS/DSP/Source/TransformFunctions/arm_cfft_radix4_f32.c ****    float32_t co1, co2, co3, si1, si2, si3;
  57              		.loc 1 117 4 is_stmt 1 view .LVU2
 118:Drivers/CMSIS/DSP/Source/TransformFunctions/arm_cfft_radix4_f32.c ****    uint32_t ia1, ia2, ia3;
  58              		.loc 1 118 4 view .LVU3
 119:Drivers/CMSIS/DSP/Source/TransformFunctions/arm_cfft_radix4_f32.c ****    uint32_t i0, i1, i2, i3;
  59              		.loc 1 119 4 view .LVU4
 120:Drivers/CMSIS/DSP/Source/TransformFunctions/arm_cfft_radix4_f32.c ****    uint32_t n1, n2, j, k;
  60              		.loc 1 120 4 view .LVU5
 121:Drivers/CMSIS/DSP/Source/TransformFunctions/arm_cfft_radix4_f32.c **** 
 122:Drivers/CMSIS/DSP/Source/TransformFunctions/arm_cfft_radix4_f32.c **** #if defined (ARM_MATH_DSP)
 123:Drivers/CMSIS/DSP/Source/TransformFunctions/arm_cfft_radix4_f32.c **** 
 124:Drivers/CMSIS/DSP/Source/TransformFunctions/arm_cfft_radix4_f32.c ****    /* Run the below code for Cortex-M4 and Cortex-M3 */
 125:Drivers/CMSIS/DSP/Source/TransformFunctions/arm_cfft_radix4_f32.c **** 
 126:Drivers/CMSIS/DSP/Source/TransformFunctions/arm_cfft_radix4_f32.c ****    float32_t xaIn, yaIn, xbIn, ybIn, xcIn, ycIn, xdIn, ydIn;
  61              		.loc 1 126 4 view .LVU6
 127:Drivers/CMSIS/DSP/Source/TransformFunctions/arm_cfft_radix4_f32.c ****    float32_t Xaplusc, Xbplusd, Yaplusc, Ybplusd, Xaminusc, Xbminusd, Yaminusc,
  62              		.loc 1 127 4 view .LVU7
 128:Drivers/CMSIS/DSP/Source/TransformFunctions/arm_cfft_radix4_f32.c ****    Ybminusd;
 129:Drivers/CMSIS/DSP/Source/TransformFunctions/arm_cfft_radix4_f32.c ****    float32_t Xb12C_out, Yb12C_out, Xc12C_out, Yc12C_out, Xd12C_out, Yd12C_out;
  63              		.loc 1 129 4 view .LVU8
 130:Drivers/CMSIS/DSP/Source/TransformFunctions/arm_cfft_radix4_f32.c ****    float32_t Xb12_out, Yb12_out, Xc12_out, Yc12_out, Xd12_out, Yd12_out;
  64              		.loc 1 130 4 view .LVU9
 131:Drivers/CMSIS/DSP/Source/TransformFunctions/arm_cfft_radix4_f32.c ****    float32_t *ptr1;
  65              		.loc 1 131 4 view .LVU10
 132:Drivers/CMSIS/DSP/Source/TransformFunctions/arm_cfft_radix4_f32.c ****    float32_t p0,p1,p2,p3,p4,p5;
  66              		.loc 1 132 4 view .LVU11
 133:Drivers/CMSIS/DSP/Source/TransformFunctions/arm_cfft_radix4_f32.c ****    float32_t a0,a1,a2,a3,a4,a5,a6,a7;
  67              		.loc 1 133 4 view .LVU12
 134:Drivers/CMSIS/DSP/Source/TransformFunctions/arm_cfft_radix4_f32.c **** 
 135:Drivers/CMSIS/DSP/Source/TransformFunctions/arm_cfft_radix4_f32.c ****    /*  Initializations for the first stage */
 136:Drivers/CMSIS/DSP/Source/TransformFunctions/arm_cfft_radix4_f32.c ****    n2 = fftLen;
  68              		.loc 1 136 4 view .LVU13
  69              	.LVL1:
 137:Drivers/CMSIS/DSP/Source/TransformFunctions/arm_cfft_radix4_f32.c ****    n1 = n2;
  70              		.loc 1 137 4 view .LVU14
 138:Drivers/CMSIS/DSP/Source/TransformFunctions/arm_cfft_radix4_f32.c **** 
 139:Drivers/CMSIS/DSP/Source/TransformFunctions/arm_cfft_radix4_f32.c ****    /* n2 = fftLen/4 */
 140:Drivers/CMSIS/DSP/Source/TransformFunctions/arm_cfft_radix4_f32.c ****    n2 >>= 2U;
  71              		.loc 1 140 4 view .LVU15
  72              		.loc 1 140 7 is_stmt 0 view .LVU16
  73 000e 4FEA9109 		lsr	r9, r1, #2
  74              	.LVL2:
 141:Drivers/CMSIS/DSP/Source/TransformFunctions/arm_cfft_radix4_f32.c ****    i0 = 0U;
  75              		.loc 1 141 4 is_stmt 1 view .LVU17
 142:Drivers/CMSIS/DSP/Source/TransformFunctions/arm_cfft_radix4_f32.c ****    ia1 = 0U;
  76              		.loc 1 142 4 view .LVU18
 143:Drivers/CMSIS/DSP/Source/TransformFunctions/arm_cfft_radix4_f32.c **** 
 144:Drivers/CMSIS/DSP/Source/TransformFunctions/arm_cfft_radix4_f32.c ****    j = n2;
  77              		.loc 1 144 4 view .LVU19
  78              		.loc 1 144 6 is_stmt 0 view .LVU20
  79 0012 CDF80C90 		str	r9, [sp, #12]
 141:Drivers/CMSIS/DSP/Source/TransformFunctions/arm_cfft_radix4_f32.c ****    ia1 = 0U;
  80              		.loc 1 141 7 view .LVU21
  81 0016 4FF00008 		mov	r8, #0
 142:Drivers/CMSIS/DSP/Source/TransformFunctions/arm_cfft_radix4_f32.c ****    ia1 = 0U;
  82              		.loc 1 142 8 view .LVU22
  83 001a C246     		mov	r10, r8
ARM GAS  C:\Users\17832\AppData\Local\Temp\ccxoZ2T5.s 			page 5


  84 001c 0491     		str	r1, [sp, #16]
  85 001e CB46     		mov	fp, r9
  86 0020 1646     		mov	r6, r2
  87              	.LVL3:
  88              	.L2:
 145:Drivers/CMSIS/DSP/Source/TransformFunctions/arm_cfft_radix4_f32.c **** 
 146:Drivers/CMSIS/DSP/Source/TransformFunctions/arm_cfft_radix4_f32.c ****    /*  Calculation of first stage */
 147:Drivers/CMSIS/DSP/Source/TransformFunctions/arm_cfft_radix4_f32.c ****    do
  89              		.loc 1 147 4 is_stmt 1 discriminator 1 view .LVU23
 148:Drivers/CMSIS/DSP/Source/TransformFunctions/arm_cfft_radix4_f32.c ****    {
 149:Drivers/CMSIS/DSP/Source/TransformFunctions/arm_cfft_radix4_f32.c ****       /*  index calculation for the input as, */
 150:Drivers/CMSIS/DSP/Source/TransformFunctions/arm_cfft_radix4_f32.c ****       /*  pSrc[i0 + 0], pSrc[i0 + fftLen/4], pSrc[i0 + fftLen/2], pSrc[i0 + 3fftLen/4] */
 151:Drivers/CMSIS/DSP/Source/TransformFunctions/arm_cfft_radix4_f32.c ****       i1 = i0 + n2;
  90              		.loc 1 151 7 discriminator 1 view .LVU24
  91              		.loc 1 151 10 is_stmt 0 discriminator 1 view .LVU25
  92 0022 08EB0B0C 		add	ip, r8, fp
  93              	.LVL4:
 152:Drivers/CMSIS/DSP/Source/TransformFunctions/arm_cfft_radix4_f32.c ****       i2 = i1 + n2;
  94              		.loc 1 152 7 is_stmt 1 discriminator 1 view .LVU26
  95              		.loc 1 152 10 is_stmt 0 discriminator 1 view .LVU27
  96 0026 08EB4B01 		add	r1, r8, fp, lsl #1
  97              	.LVL5:
 153:Drivers/CMSIS/DSP/Source/TransformFunctions/arm_cfft_radix4_f32.c ****       i3 = i2 + n2;
  98              		.loc 1 153 7 is_stmt 1 discriminator 1 view .LVU28
  99              		.loc 1 153 10 is_stmt 0 discriminator 1 view .LVU29
 100 002a 0BEB0107 		add	r7, fp, r1
 101              	.LVL6:
 154:Drivers/CMSIS/DSP/Source/TransformFunctions/arm_cfft_radix4_f32.c **** 
 155:Drivers/CMSIS/DSP/Source/TransformFunctions/arm_cfft_radix4_f32.c ****       xaIn = pSrc[(2U * i0)];
 102              		.loc 1 155 7 is_stmt 1 discriminator 1 view .LVU30
 103              		.loc 1 155 18 is_stmt 0 discriminator 1 view .LVU31
 104 002e 4FEAC805 		lsl	r5, r8, #3
 105 0032 00EBC809 		add	r9, r0, r8, lsl #3
 106              		.loc 1 155 12 discriminator 1 view .LVU32
 107 0036 D9ED007A 		vldr.32	s15, [r9]
 108              	.LVL7:
 156:Drivers/CMSIS/DSP/Source/TransformFunctions/arm_cfft_radix4_f32.c ****       yaIn = pSrc[(2U * i0) + 1U];
 109              		.loc 1 156 7 is_stmt 1 discriminator 1 view .LVU33
 110              		.loc 1 156 18 is_stmt 0 discriminator 1 view .LVU34
 111 003a 0435     		adds	r5, r5, #4
 112 003c 0544     		add	r5, r5, r0
 113              		.loc 1 156 12 discriminator 1 view .LVU35
 114 003e 95ED006A 		vldr.32	s12, [r5]
 115              	.LVL8:
 157:Drivers/CMSIS/DSP/Source/TransformFunctions/arm_cfft_radix4_f32.c **** 
 158:Drivers/CMSIS/DSP/Source/TransformFunctions/arm_cfft_radix4_f32.c ****       xbIn = pSrc[(2U * i1)];
 116              		.loc 1 158 7 is_stmt 1 discriminator 1 view .LVU36
 117              		.loc 1 158 18 is_stmt 0 discriminator 1 view .LVU37
 118 0042 4FEACC04 		lsl	r4, ip, #3
 119 0046 00EBCC0C 		add	ip, r0, ip, lsl #3
 120              	.LVL9:
 121              		.loc 1 158 12 discriminator 1 view .LVU38
 122 004a 9CED007A 		vldr.32	s14, [ip]
 123              	.LVL10:
 159:Drivers/CMSIS/DSP/Source/TransformFunctions/arm_cfft_radix4_f32.c ****       ybIn = pSrc[(2U * i1) + 1U];
 124              		.loc 1 159 7 is_stmt 1 discriminator 1 view .LVU39
 125              		.loc 1 159 18 is_stmt 0 discriminator 1 view .LVU40
ARM GAS  C:\Users\17832\AppData\Local\Temp\ccxoZ2T5.s 			page 6


 126 004e 0434     		adds	r4, r4, #4
 127 0050 0444     		add	r4, r4, r0
 128              		.loc 1 159 12 discriminator 1 view .LVU41
 129 0052 D4ED005A 		vldr.32	s11, [r4]
 130              	.LVL11:
 160:Drivers/CMSIS/DSP/Source/TransformFunctions/arm_cfft_radix4_f32.c **** 
 161:Drivers/CMSIS/DSP/Source/TransformFunctions/arm_cfft_radix4_f32.c ****       xcIn = pSrc[(2U * i2)];
 131              		.loc 1 161 7 is_stmt 1 discriminator 1 view .LVU42
 132              		.loc 1 161 18 is_stmt 0 discriminator 1 view .LVU43
 133 0056 CA00     		lsls	r2, r1, #3
 134 0058 00EBC101 		add	r1, r0, r1, lsl #3
 135              	.LVL12:
 136              		.loc 1 161 12 discriminator 1 view .LVU44
 137 005c 91ED001A 		vldr.32	s2, [r1]
 138              	.LVL13:
 162:Drivers/CMSIS/DSP/Source/TransformFunctions/arm_cfft_radix4_f32.c ****       ycIn = pSrc[(2U * i2) + 1U];
 139              		.loc 1 162 7 is_stmt 1 discriminator 1 view .LVU45
 140              		.loc 1 162 18 is_stmt 0 discriminator 1 view .LVU46
 141 0060 0432     		adds	r2, r2, #4
 142 0062 0244     		add	r2, r2, r0
 143              		.loc 1 162 12 discriminator 1 view .LVU47
 144 0064 92ED003A 		vldr.32	s6, [r2]
 145              	.LVL14:
 163:Drivers/CMSIS/DSP/Source/TransformFunctions/arm_cfft_radix4_f32.c **** 
 164:Drivers/CMSIS/DSP/Source/TransformFunctions/arm_cfft_radix4_f32.c ****       xdIn = pSrc[(2U * i3)];
 146              		.loc 1 164 7 is_stmt 1 discriminator 1 view .LVU48
 147              		.loc 1 164 18 is_stmt 0 discriminator 1 view .LVU49
 148 0068 FB00     		lsls	r3, r7, #3
 149 006a 00EBC707 		add	r7, r0, r7, lsl #3
 150              	.LVL15:
 151              		.loc 1 164 12 discriminator 1 view .LVU50
 152 006e D7ED001A 		vldr.32	s3, [r7]
 153              	.LVL16:
 165:Drivers/CMSIS/DSP/Source/TransformFunctions/arm_cfft_radix4_f32.c ****       ydIn = pSrc[(2U * i3) + 1U];
 154              		.loc 1 165 7 is_stmt 1 discriminator 1 view .LVU51
 155              		.loc 1 165 18 is_stmt 0 discriminator 1 view .LVU52
 156 0072 0433     		adds	r3, r3, #4
 157 0074 0344     		add	r3, r3, r0
 158              		.loc 1 165 12 discriminator 1 view .LVU53
 159 0076 0093     		str	r3, [sp]
 160 0078 D3ED003A 		vldr.32	s7, [r3]
 161              	.LVL17:
 166:Drivers/CMSIS/DSP/Source/TransformFunctions/arm_cfft_radix4_f32.c **** 
 167:Drivers/CMSIS/DSP/Source/TransformFunctions/arm_cfft_radix4_f32.c ****       /* xa + xc */
 168:Drivers/CMSIS/DSP/Source/TransformFunctions/arm_cfft_radix4_f32.c ****       Xaplusc = xaIn + xcIn;
 162              		.loc 1 168 7 is_stmt 1 discriminator 1 view .LVU54
 163              		.loc 1 168 15 is_stmt 0 discriminator 1 view .LVU55
 164 007c 77EE814A 		vadd.f32	s9, s15, s2
 165              	.LVL18:
 169:Drivers/CMSIS/DSP/Source/TransformFunctions/arm_cfft_radix4_f32.c ****       /* xb + xd */
 170:Drivers/CMSIS/DSP/Source/TransformFunctions/arm_cfft_radix4_f32.c ****       Xbplusd = xbIn + xdIn;
 166              		.loc 1 170 7 is_stmt 1 discriminator 1 view .LVU56
 167              		.loc 1 170 15 is_stmt 0 discriminator 1 view .LVU57
 168 0080 37EE212A 		vadd.f32	s4, s14, s3
 169              	.LVL19:
 171:Drivers/CMSIS/DSP/Source/TransformFunctions/arm_cfft_radix4_f32.c ****       /* ya + yc */
 172:Drivers/CMSIS/DSP/Source/TransformFunctions/arm_cfft_radix4_f32.c ****       Yaplusc = yaIn + ycIn;
ARM GAS  C:\Users\17832\AppData\Local\Temp\ccxoZ2T5.s 			page 7


 170              		.loc 1 172 7 is_stmt 1 discriminator 1 view .LVU58
 171              		.loc 1 172 15 is_stmt 0 discriminator 1 view .LVU59
 172 0084 76EE036A 		vadd.f32	s13, s12, s6
 173              	.LVL20:
 173:Drivers/CMSIS/DSP/Source/TransformFunctions/arm_cfft_radix4_f32.c ****       /* yb + yd */
 174:Drivers/CMSIS/DSP/Source/TransformFunctions/arm_cfft_radix4_f32.c ****       Ybplusd = ybIn + ydIn;
 174              		.loc 1 174 7 is_stmt 1 discriminator 1 view .LVU60
 175              		.loc 1 174 15 is_stmt 0 discriminator 1 view .LVU61
 176 0088 75EEA32A 		vadd.f32	s5, s11, s7
 177              	.LVL21:
 175:Drivers/CMSIS/DSP/Source/TransformFunctions/arm_cfft_radix4_f32.c **** 
 176:Drivers/CMSIS/DSP/Source/TransformFunctions/arm_cfft_radix4_f32.c ****       /*  index calculation for the coefficients */
 177:Drivers/CMSIS/DSP/Source/TransformFunctions/arm_cfft_radix4_f32.c ****       ia2 = ia1 + ia1;
 178              		.loc 1 177 7 is_stmt 1 discriminator 1 view .LVU62
 178:Drivers/CMSIS/DSP/Source/TransformFunctions/arm_cfft_radix4_f32.c ****       co2 = pCoef[ia2 * 2U];
 179              		.loc 1 178 7 discriminator 1 view .LVU63
 180              		.loc 1 178 18 is_stmt 0 discriminator 1 view .LVU64
 181 008c 4FEA0A1E 		lsl	lr, r10, #4
 182 0090 06EB0A13 		add	r3, r6, r10, lsl #4
 183              		.loc 1 178 11 discriminator 1 view .LVU65
 184 0094 93ED005A 		vldr.32	s10, [r3]
 185              	.LVL22:
 179:Drivers/CMSIS/DSP/Source/TransformFunctions/arm_cfft_radix4_f32.c ****       si2 = pCoef[(ia2 * 2U) + 1U];
 186              		.loc 1 179 7 is_stmt 1 discriminator 1 view .LVU66
 187              		.loc 1 179 18 is_stmt 0 discriminator 1 view .LVU67
 188 0098 0EF1040E 		add	lr, lr, #4
 189 009c B644     		add	lr, lr, r6
 190              		.loc 1 179 11 discriminator 1 view .LVU68
 191 009e 9EED004A 		vldr.32	s8, [lr]
 192              	.LVL23:
 180:Drivers/CMSIS/DSP/Source/TransformFunctions/arm_cfft_radix4_f32.c **** 
 181:Drivers/CMSIS/DSP/Source/TransformFunctions/arm_cfft_radix4_f32.c ****       /* xa - xc */
 182:Drivers/CMSIS/DSP/Source/TransformFunctions/arm_cfft_radix4_f32.c ****       Xaminusc = xaIn - xcIn;
 193              		.loc 1 182 7 is_stmt 1 discriminator 1 view .LVU69
 194              		.loc 1 182 16 is_stmt 0 discriminator 1 view .LVU70
 195 00a2 77EEC17A 		vsub.f32	s15, s15, s2
 196              	.LVL24:
 183:Drivers/CMSIS/DSP/Source/TransformFunctions/arm_cfft_radix4_f32.c ****       /* xb - xd */
 184:Drivers/CMSIS/DSP/Source/TransformFunctions/arm_cfft_radix4_f32.c ****       Xbminusd = xbIn - xdIn;
 197              		.loc 1 184 7 is_stmt 1 discriminator 1 view .LVU71
 198              		.loc 1 184 16 is_stmt 0 discriminator 1 view .LVU72
 199 00a6 37EE617A 		vsub.f32	s14, s14, s3
 200              	.LVL25:
 185:Drivers/CMSIS/DSP/Source/TransformFunctions/arm_cfft_radix4_f32.c ****       /* ya - yc */
 186:Drivers/CMSIS/DSP/Source/TransformFunctions/arm_cfft_radix4_f32.c ****       Yaminusc = yaIn - ycIn;
 201              		.loc 1 186 7 is_stmt 1 discriminator 1 view .LVU73
 202              		.loc 1 186 16 is_stmt 0 discriminator 1 view .LVU74
 203 00aa 36EE436A 		vsub.f32	s12, s12, s6
 204              	.LVL26:
 187:Drivers/CMSIS/DSP/Source/TransformFunctions/arm_cfft_radix4_f32.c ****       /* yb - yd */
 188:Drivers/CMSIS/DSP/Source/TransformFunctions/arm_cfft_radix4_f32.c ****       Ybminusd = ybIn - ydIn;
 205              		.loc 1 188 7 is_stmt 1 discriminator 1 view .LVU75
 206              		.loc 1 188 16 is_stmt 0 discriminator 1 view .LVU76
 207 00ae 75EEE35A 		vsub.f32	s11, s11, s7
 208              	.LVL27:
 189:Drivers/CMSIS/DSP/Source/TransformFunctions/arm_cfft_radix4_f32.c **** 
 190:Drivers/CMSIS/DSP/Source/TransformFunctions/arm_cfft_radix4_f32.c ****       /* xa' = xa + xb + xc + xd */
ARM GAS  C:\Users\17832\AppData\Local\Temp\ccxoZ2T5.s 			page 8


 191:Drivers/CMSIS/DSP/Source/TransformFunctions/arm_cfft_radix4_f32.c ****       pSrc[(2U * i0)] = Xaplusc + Xbplusd;
 209              		.loc 1 191 7 is_stmt 1 discriminator 1 view .LVU77
 210              		.loc 1 191 33 is_stmt 0 discriminator 1 view .LVU78
 211 00b2 74EE823A 		vadd.f32	s7, s9, s4
 212              	.LVL28:
 213              		.loc 1 191 23 discriminator 1 view .LVU79
 214 00b6 C9ED003A 		vstr.32	s7, [r9]
 215              	.LVL29:
 192:Drivers/CMSIS/DSP/Source/TransformFunctions/arm_cfft_radix4_f32.c ****       /* ya' = ya + yb + yc + yd */
 193:Drivers/CMSIS/DSP/Source/TransformFunctions/arm_cfft_radix4_f32.c ****       pSrc[(2U * i0) + 1U] = Yaplusc + Ybplusd;
 216              		.loc 1 193 7 is_stmt 1 discriminator 1 view .LVU80
 217              		.loc 1 193 38 is_stmt 0 discriminator 1 view .LVU81
 218 00ba 76EEA23A 		vadd.f32	s7, s13, s5
 219              		.loc 1 193 28 discriminator 1 view .LVU82
 220 00be C5ED003A 		vstr.32	s7, [r5]
 221              	.LVL30:
 194:Drivers/CMSIS/DSP/Source/TransformFunctions/arm_cfft_radix4_f32.c **** 
 195:Drivers/CMSIS/DSP/Source/TransformFunctions/arm_cfft_radix4_f32.c ****       /* (xa - xc) + (yb - yd) */
 196:Drivers/CMSIS/DSP/Source/TransformFunctions/arm_cfft_radix4_f32.c ****       Xb12C_out = (Xaminusc + Ybminusd);
 222              		.loc 1 196 7 is_stmt 1 discriminator 1 view .LVU83
 223              		.loc 1 196 17 is_stmt 0 discriminator 1 view .LVU84
 224 00c2 77EEA53A 		vadd.f32	s7, s15, s11
 225              	.LVL31:
 197:Drivers/CMSIS/DSP/Source/TransformFunctions/arm_cfft_radix4_f32.c ****       /* (ya - yc) + (xb - xd) */
 198:Drivers/CMSIS/DSP/Source/TransformFunctions/arm_cfft_radix4_f32.c ****       Yb12C_out = (Yaminusc - Xbminusd);
 226              		.loc 1 198 7 is_stmt 1 discriminator 1 view .LVU85
 227              		.loc 1 198 17 is_stmt 0 discriminator 1 view .LVU86
 228 00c6 36EE473A 		vsub.f32	s6, s12, s14
 229              	.LVL32:
 199:Drivers/CMSIS/DSP/Source/TransformFunctions/arm_cfft_radix4_f32.c ****       /* (xa + xc) - (xb + xd) */
 200:Drivers/CMSIS/DSP/Source/TransformFunctions/arm_cfft_radix4_f32.c ****       Xc12C_out = (Xaplusc - Xbplusd);
 230              		.loc 1 200 7 is_stmt 1 discriminator 1 view .LVU87
 231              		.loc 1 200 17 is_stmt 0 discriminator 1 view .LVU88
 232 00ca 74EEC24A 		vsub.f32	s9, s9, s4
 233              	.LVL33:
 201:Drivers/CMSIS/DSP/Source/TransformFunctions/arm_cfft_radix4_f32.c ****       /* (ya + yc) - (yb + yd) */
 202:Drivers/CMSIS/DSP/Source/TransformFunctions/arm_cfft_radix4_f32.c ****       Yc12C_out = (Yaplusc - Ybplusd);
 234              		.loc 1 202 7 is_stmt 1 discriminator 1 view .LVU89
 235              		.loc 1 202 17 is_stmt 0 discriminator 1 view .LVU90
 236 00ce 76EEE26A 		vsub.f32	s13, s13, s5
 237              	.LVL34:
 203:Drivers/CMSIS/DSP/Source/TransformFunctions/arm_cfft_radix4_f32.c ****       /* (xa - xc) - (yb - yd) */
 204:Drivers/CMSIS/DSP/Source/TransformFunctions/arm_cfft_radix4_f32.c ****       Xd12C_out = (Xaminusc - Ybminusd);
 238              		.loc 1 204 7 is_stmt 1 discriminator 1 view .LVU91
 239              		.loc 1 204 17 is_stmt 0 discriminator 1 view .LVU92
 240 00d2 77EEE57A 		vsub.f32	s15, s15, s11
 241              	.LVL35:
 205:Drivers/CMSIS/DSP/Source/TransformFunctions/arm_cfft_radix4_f32.c ****       /* (ya - yc) + (xb - xd) */
 206:Drivers/CMSIS/DSP/Source/TransformFunctions/arm_cfft_radix4_f32.c ****       Yd12C_out = (Xbminusd + Yaminusc);
 242              		.loc 1 206 7 is_stmt 1 discriminator 1 view .LVU93
 243              		.loc 1 206 17 is_stmt 0 discriminator 1 view .LVU94
 244 00d6 37EE067A 		vadd.f32	s14, s14, s12
 245              	.LVL36:
 207:Drivers/CMSIS/DSP/Source/TransformFunctions/arm_cfft_radix4_f32.c **** 
 208:Drivers/CMSIS/DSP/Source/TransformFunctions/arm_cfft_radix4_f32.c ****       co1 = pCoef[ia1 * 2U];
 246              		.loc 1 208 7 is_stmt 1 discriminator 1 view .LVU95
 247              		.loc 1 208 18 is_stmt 0 discriminator 1 view .LVU96
ARM GAS  C:\Users\17832\AppData\Local\Temp\ccxoZ2T5.s 			page 9


 248 00da 4FEACA05 		lsl	r5, r10, #3
 249 00de 06EBCA0E 		add	lr, r6, r10, lsl #3
 250              		.loc 1 208 11 discriminator 1 view .LVU97
 251 00e2 DEED005A 		vldr.32	s11, [lr]
 252              	.LVL37:
 209:Drivers/CMSIS/DSP/Source/TransformFunctions/arm_cfft_radix4_f32.c ****       si1 = pCoef[(ia1 * 2U) + 1U];
 253              		.loc 1 209 7 is_stmt 1 discriminator 1 view .LVU98
 254              		.loc 1 209 18 is_stmt 0 discriminator 1 view .LVU99
 255 00e6 0435     		adds	r5, r5, #4
 256 00e8 3544     		add	r5, r5, r6
 257              		.loc 1 209 11 discriminator 1 view .LVU100
 258 00ea D5ED000A 		vldr.32	s1, [r5]
 259              	.LVL38:
 210:Drivers/CMSIS/DSP/Source/TransformFunctions/arm_cfft_radix4_f32.c **** 
 211:Drivers/CMSIS/DSP/Source/TransformFunctions/arm_cfft_radix4_f32.c ****       /*  index calculation for the coefficients */
 212:Drivers/CMSIS/DSP/Source/TransformFunctions/arm_cfft_radix4_f32.c ****       ia3 = ia2 + ia1;
 260              		.loc 1 212 7 is_stmt 1 discriminator 1 view .LVU101
 213:Drivers/CMSIS/DSP/Source/TransformFunctions/arm_cfft_radix4_f32.c ****       co3 = pCoef[ia3 * 2U];
 261              		.loc 1 213 7 discriminator 1 view .LVU102
 262              		.loc 1 213 18 is_stmt 0 discriminator 1 view .LVU103
 263 00ee 0AEB4A0E 		add	lr, r10, r10, lsl #1
 264 00f2 4FEACE05 		lsl	r5, lr, #3
 265 00f6 06EBCE0E 		add	lr, r6, lr, lsl #3
 266              		.loc 1 213 11 discriminator 1 view .LVU104
 267 00fa 9EED006A 		vldr.32	s12, [lr]
 268              	.LVL39:
 214:Drivers/CMSIS/DSP/Source/TransformFunctions/arm_cfft_radix4_f32.c ****       si3 = pCoef[(ia3 * 2U) + 1U];
 269              		.loc 1 214 7 is_stmt 1 discriminator 1 view .LVU105
 270              		.loc 1 214 18 is_stmt 0 discriminator 1 view .LVU106
 271 00fe 0435     		adds	r5, r5, #4
 272 0100 3544     		add	r5, r5, r6
 273              		.loc 1 214 11 discriminator 1 view .LVU107
 274 0102 95ED001A 		vldr.32	s2, [r5]
 275              	.LVL40:
 215:Drivers/CMSIS/DSP/Source/TransformFunctions/arm_cfft_radix4_f32.c **** 
 216:Drivers/CMSIS/DSP/Source/TransformFunctions/arm_cfft_radix4_f32.c ****       Xb12_out = Xb12C_out * co1;
 276              		.loc 1 216 7 is_stmt 1 discriminator 1 view .LVU108
 277              		.loc 1 216 16 is_stmt 0 discriminator 1 view .LVU109
 278 0106 23EEA52A 		vmul.f32	s4, s7, s11
 279              	.LVL41:
 217:Drivers/CMSIS/DSP/Source/TransformFunctions/arm_cfft_radix4_f32.c ****       Yb12_out = Yb12C_out * co1;
 280              		.loc 1 217 7 is_stmt 1 discriminator 1 view .LVU110
 281              		.loc 1 217 16 is_stmt 0 discriminator 1 view .LVU111
 282 010a 63EE255A 		vmul.f32	s11, s6, s11
 283              	.LVL42:
 218:Drivers/CMSIS/DSP/Source/TransformFunctions/arm_cfft_radix4_f32.c ****       Xc12_out = Xc12C_out * co2;
 284              		.loc 1 218 7 is_stmt 1 discriminator 1 view .LVU112
 285              		.loc 1 218 16 is_stmt 0 discriminator 1 view .LVU113
 286 010e 65EE241A 		vmul.f32	s3, s10, s9
 287              	.LVL43:
 219:Drivers/CMSIS/DSP/Source/TransformFunctions/arm_cfft_radix4_f32.c ****       Yc12_out = Yc12C_out * co2;
 288              		.loc 1 219 7 is_stmt 1 discriminator 1 view .LVU114
 289              		.loc 1 219 16 is_stmt 0 discriminator 1 view .LVU115
 290 0112 25EE265A 		vmul.f32	s10, s10, s13
 291              	.LVL44:
 220:Drivers/CMSIS/DSP/Source/TransformFunctions/arm_cfft_radix4_f32.c ****       Xd12_out = Xd12C_out * co3;
 292              		.loc 1 220 7 is_stmt 1 discriminator 1 view .LVU116
ARM GAS  C:\Users\17832\AppData\Local\Temp\ccxoZ2T5.s 			page 10


 293              		.loc 1 220 16 is_stmt 0 discriminator 1 view .LVU117
 294 0116 67EE862A 		vmul.f32	s5, s15, s12
 295              	.LVL45:
 221:Drivers/CMSIS/DSP/Source/TransformFunctions/arm_cfft_radix4_f32.c ****       Yd12_out = Yd12C_out * co3;
 296              		.loc 1 221 7 is_stmt 1 discriminator 1 view .LVU118
 297              		.loc 1 221 16 is_stmt 0 discriminator 1 view .LVU119
 298 011a 27EE066A 		vmul.f32	s12, s14, s12
 299              	.LVL46:
 222:Drivers/CMSIS/DSP/Source/TransformFunctions/arm_cfft_radix4_f32.c **** 
 223:Drivers/CMSIS/DSP/Source/TransformFunctions/arm_cfft_radix4_f32.c ****       /* xb' = (xa+yb-xc-yd)co1 - (ya-xb-yc+xd)(si1) */
 224:Drivers/CMSIS/DSP/Source/TransformFunctions/arm_cfft_radix4_f32.c ****       //Xb12_out -= Yb12C_out * si1;
 225:Drivers/CMSIS/DSP/Source/TransformFunctions/arm_cfft_radix4_f32.c ****       p0 = Yb12C_out * si1;
 300              		.loc 1 225 7 is_stmt 1 discriminator 1 view .LVU120
 301              		.loc 1 225 10 is_stmt 0 discriminator 1 view .LVU121
 302 011e 23EE203A 		vmul.f32	s6, s6, s1
 303              	.LVL47:
 226:Drivers/CMSIS/DSP/Source/TransformFunctions/arm_cfft_radix4_f32.c ****       /* yb' = (ya-xb-yc+xd)co1 + (xa+yb-xc-yd)(si1) */
 227:Drivers/CMSIS/DSP/Source/TransformFunctions/arm_cfft_radix4_f32.c ****       //Yb12_out += Xb12C_out * si1;
 228:Drivers/CMSIS/DSP/Source/TransformFunctions/arm_cfft_radix4_f32.c ****       p1 = Xb12C_out * si1;
 304              		.loc 1 228 7 is_stmt 1 discriminator 1 view .LVU122
 305              		.loc 1 228 10 is_stmt 0 discriminator 1 view .LVU123
 306 0122 63EEA03A 		vmul.f32	s7, s7, s1
 307              	.LVL48:
 229:Drivers/CMSIS/DSP/Source/TransformFunctions/arm_cfft_radix4_f32.c ****       /* xc' = (xa-xb+xc-xd)co2 - (ya-yb+yc-yd)(si2) */
 230:Drivers/CMSIS/DSP/Source/TransformFunctions/arm_cfft_radix4_f32.c ****       //Xc12_out -= Yc12C_out * si2;
 231:Drivers/CMSIS/DSP/Source/TransformFunctions/arm_cfft_radix4_f32.c ****       p2 = Yc12C_out * si2;
 308              		.loc 1 231 7 is_stmt 1 discriminator 1 view .LVU124
 309              		.loc 1 231 10 is_stmt 0 discriminator 1 view .LVU125
 310 0126 64EE266A 		vmul.f32	s13, s8, s13
 311              	.LVL49:
 232:Drivers/CMSIS/DSP/Source/TransformFunctions/arm_cfft_radix4_f32.c ****       /* yc' = (ya-yb+yc-yd)co2 + (xa-xb+xc-xd)(si2) */
 233:Drivers/CMSIS/DSP/Source/TransformFunctions/arm_cfft_radix4_f32.c ****       //Yc12_out += Xc12C_out * si2;
 234:Drivers/CMSIS/DSP/Source/TransformFunctions/arm_cfft_radix4_f32.c ****       p3 = Xc12C_out * si2;
 312              		.loc 1 234 7 is_stmt 1 discriminator 1 view .LVU126
 313              		.loc 1 234 10 is_stmt 0 discriminator 1 view .LVU127
 314 012a 64EE244A 		vmul.f32	s9, s8, s9
 315              	.LVL50:
 235:Drivers/CMSIS/DSP/Source/TransformFunctions/arm_cfft_radix4_f32.c ****       /* xd' = (xa-yb-xc+yd)co3 - (ya+xb-yc-xd)(si3) */
 236:Drivers/CMSIS/DSP/Source/TransformFunctions/arm_cfft_radix4_f32.c ****       //Xd12_out -= Yd12C_out * si3;
 237:Drivers/CMSIS/DSP/Source/TransformFunctions/arm_cfft_radix4_f32.c ****       p4 = Yd12C_out * si3;
 316              		.loc 1 237 7 is_stmt 1 discriminator 1 view .LVU128
 317              		.loc 1 237 10 is_stmt 0 discriminator 1 view .LVU129
 318 012e 27EE017A 		vmul.f32	s14, s14, s2
 319              	.LVL51:
 238:Drivers/CMSIS/DSP/Source/TransformFunctions/arm_cfft_radix4_f32.c ****       /* yd' = (ya+xb-yc-xd)co3 + (xa-yb-xc+yd)(si3) */
 239:Drivers/CMSIS/DSP/Source/TransformFunctions/arm_cfft_radix4_f32.c ****       //Yd12_out += Xd12C_out * si3;
 240:Drivers/CMSIS/DSP/Source/TransformFunctions/arm_cfft_radix4_f32.c ****       p5 = Xd12C_out * si3;
 320              		.loc 1 240 7 is_stmt 1 discriminator 1 view .LVU130
 321              		.loc 1 240 10 is_stmt 0 discriminator 1 view .LVU131
 322 0132 67EE817A 		vmul.f32	s15, s15, s2
 323              	.LVL52:
 241:Drivers/CMSIS/DSP/Source/TransformFunctions/arm_cfft_radix4_f32.c **** 
 242:Drivers/CMSIS/DSP/Source/TransformFunctions/arm_cfft_radix4_f32.c ****       Xb12_out += p0;
 324              		.loc 1 242 7 is_stmt 1 discriminator 1 view .LVU132
 325              		.loc 1 242 16 is_stmt 0 discriminator 1 view .LVU133
 326 0136 32EE033A 		vadd.f32	s6, s4, s6
 327              	.LVL53:
ARM GAS  C:\Users\17832\AppData\Local\Temp\ccxoZ2T5.s 			page 11


 243:Drivers/CMSIS/DSP/Source/TransformFunctions/arm_cfft_radix4_f32.c ****       Yb12_out -= p1;
 328              		.loc 1 243 7 is_stmt 1 discriminator 1 view .LVU134
 329              		.loc 1 243 16 is_stmt 0 discriminator 1 view .LVU135
 330 013a 75EEE35A 		vsub.f32	s11, s11, s7
 331              	.LVL54:
 244:Drivers/CMSIS/DSP/Source/TransformFunctions/arm_cfft_radix4_f32.c ****       Xc12_out += p2;
 332              		.loc 1 244 7 is_stmt 1 discriminator 1 view .LVU136
 333              		.loc 1 244 16 is_stmt 0 discriminator 1 view .LVU137
 334 013e 31EEA64A 		vadd.f32	s8, s3, s13
 335              	.LVL55:
 245:Drivers/CMSIS/DSP/Source/TransformFunctions/arm_cfft_radix4_f32.c ****       Yc12_out -= p3;
 336              		.loc 1 245 7 is_stmt 1 discriminator 1 view .LVU138
 337              		.loc 1 245 16 is_stmt 0 discriminator 1 view .LVU139
 338 0142 75EE646A 		vsub.f32	s13, s10, s9
 339              	.LVL56:
 246:Drivers/CMSIS/DSP/Source/TransformFunctions/arm_cfft_radix4_f32.c ****       Xd12_out += p4;
 340              		.loc 1 246 7 is_stmt 1 discriminator 1 view .LVU140
 341              		.loc 1 246 16 is_stmt 0 discriminator 1 view .LVU141
 342 0146 32EE877A 		vadd.f32	s14, s5, s14
 343              	.LVL57:
 247:Drivers/CMSIS/DSP/Source/TransformFunctions/arm_cfft_radix4_f32.c ****       Yd12_out -= p5;
 344              		.loc 1 247 7 is_stmt 1 discriminator 1 view .LVU142
 345              		.loc 1 247 16 is_stmt 0 discriminator 1 view .LVU143
 346 014a 76EE677A 		vsub.f32	s15, s12, s15
 347              	.LVL58:
 248:Drivers/CMSIS/DSP/Source/TransformFunctions/arm_cfft_radix4_f32.c **** 
 249:Drivers/CMSIS/DSP/Source/TransformFunctions/arm_cfft_radix4_f32.c ****       /* xc' = (xa-xb+xc-xd)co2 + (ya-yb+yc-yd)(si2) */
 250:Drivers/CMSIS/DSP/Source/TransformFunctions/arm_cfft_radix4_f32.c ****       pSrc[2U * i1] = Xc12_out;
 348              		.loc 1 250 7 is_stmt 1 discriminator 1 view .LVU144
 349              		.loc 1 250 21 is_stmt 0 discriminator 1 view .LVU145
 350 014e 8CED004A 		vstr.32	s8, [ip]
 351              	.LVL59:
 251:Drivers/CMSIS/DSP/Source/TransformFunctions/arm_cfft_radix4_f32.c **** 
 252:Drivers/CMSIS/DSP/Source/TransformFunctions/arm_cfft_radix4_f32.c ****       /* yc' = (ya-yb+yc-yd)co2 - (xa-xb+xc-xd)(si2) */
 253:Drivers/CMSIS/DSP/Source/TransformFunctions/arm_cfft_radix4_f32.c ****       pSrc[(2U * i1) + 1U] = Yc12_out;
 352              		.loc 1 253 7 is_stmt 1 discriminator 1 view .LVU146
 353              		.loc 1 253 28 is_stmt 0 discriminator 1 view .LVU147
 354 0152 C4ED006A 		vstr.32	s13, [r4]
 254:Drivers/CMSIS/DSP/Source/TransformFunctions/arm_cfft_radix4_f32.c **** 
 255:Drivers/CMSIS/DSP/Source/TransformFunctions/arm_cfft_radix4_f32.c ****       /* xb' = (xa+yb-xc-yd)co1 + (ya-xb-yc+xd)(si1) */
 256:Drivers/CMSIS/DSP/Source/TransformFunctions/arm_cfft_radix4_f32.c ****       pSrc[2U * i2] = Xb12_out;
 355              		.loc 1 256 7 is_stmt 1 discriminator 1 view .LVU148
 356              		.loc 1 256 21 is_stmt 0 discriminator 1 view .LVU149
 357 0156 81ED003A 		vstr.32	s6, [r1]
 257:Drivers/CMSIS/DSP/Source/TransformFunctions/arm_cfft_radix4_f32.c **** 
 258:Drivers/CMSIS/DSP/Source/TransformFunctions/arm_cfft_radix4_f32.c ****       /* yb' = (ya-xb-yc+xd)co1 - (xa+yb-xc-yd)(si1) */
 259:Drivers/CMSIS/DSP/Source/TransformFunctions/arm_cfft_radix4_f32.c ****       pSrc[(2U * i2) + 1U] = Yb12_out;
 358              		.loc 1 259 7 is_stmt 1 discriminator 1 view .LVU150
 359              		.loc 1 259 28 is_stmt 0 discriminator 1 view .LVU151
 360 015a C2ED005A 		vstr.32	s11, [r2]
 260:Drivers/CMSIS/DSP/Source/TransformFunctions/arm_cfft_radix4_f32.c **** 
 261:Drivers/CMSIS/DSP/Source/TransformFunctions/arm_cfft_radix4_f32.c ****       /* xd' = (xa-yb-xc+yd)co3 + (ya+xb-yc-xd)(si3) */
 262:Drivers/CMSIS/DSP/Source/TransformFunctions/arm_cfft_radix4_f32.c ****       pSrc[2U * i3] = Xd12_out;
 361              		.loc 1 262 7 is_stmt 1 discriminator 1 view .LVU152
 362              		.loc 1 262 21 is_stmt 0 discriminator 1 view .LVU153
 363 015e 87ED007A 		vstr.32	s14, [r7]
 263:Drivers/CMSIS/DSP/Source/TransformFunctions/arm_cfft_radix4_f32.c **** 
ARM GAS  C:\Users\17832\AppData\Local\Temp\ccxoZ2T5.s 			page 12


 264:Drivers/CMSIS/DSP/Source/TransformFunctions/arm_cfft_radix4_f32.c ****       /* yd' = (ya+xb-yc-xd)co3 - (xa-yb-xc+yd)(si3) */
 265:Drivers/CMSIS/DSP/Source/TransformFunctions/arm_cfft_radix4_f32.c ****       pSrc[(2U * i3) + 1U] = Yd12_out;
 364              		.loc 1 265 7 is_stmt 1 discriminator 1 view .LVU154
 365              		.loc 1 265 28 is_stmt 0 discriminator 1 view .LVU155
 366 0162 009B     		ldr	r3, [sp]
 367 0164 C3ED007A 		vstr.32	s15, [r3]
 266:Drivers/CMSIS/DSP/Source/TransformFunctions/arm_cfft_radix4_f32.c **** 
 267:Drivers/CMSIS/DSP/Source/TransformFunctions/arm_cfft_radix4_f32.c ****       /*  Twiddle coefficients index modifier */
 268:Drivers/CMSIS/DSP/Source/TransformFunctions/arm_cfft_radix4_f32.c ****       ia1 += twidCoefModifier;
 368              		.loc 1 268 7 is_stmt 1 discriminator 1 view .LVU156
 369              		.loc 1 268 11 is_stmt 0 discriminator 1 view .LVU157
 370 0168 019B     		ldr	r3, [sp, #4]
 371 016a 9A44     		add	r10, r10, r3
 372              	.LVL60:
 269:Drivers/CMSIS/DSP/Source/TransformFunctions/arm_cfft_radix4_f32.c **** 
 270:Drivers/CMSIS/DSP/Source/TransformFunctions/arm_cfft_radix4_f32.c ****       /*  Updating input index */
 271:Drivers/CMSIS/DSP/Source/TransformFunctions/arm_cfft_radix4_f32.c ****       i0++;
 373              		.loc 1 271 7 is_stmt 1 discriminator 1 view .LVU158
 374              		.loc 1 271 9 is_stmt 0 discriminator 1 view .LVU159
 375 016c 08F10108 		add	r8, r8, #1
 376              	.LVL61:
 272:Drivers/CMSIS/DSP/Source/TransformFunctions/arm_cfft_radix4_f32.c **** 
 273:Drivers/CMSIS/DSP/Source/TransformFunctions/arm_cfft_radix4_f32.c ****    }
 274:Drivers/CMSIS/DSP/Source/TransformFunctions/arm_cfft_radix4_f32.c ****    while (--j);
 377              		.loc 1 274 10 is_stmt 1 discriminator 1 view .LVU160
 378              		.loc 1 274 4 is_stmt 0 discriminator 1 view .LVU161
 379 0170 039B     		ldr	r3, [sp, #12]
 380 0172 013B     		subs	r3, r3, #1
 381              	.LVL62:
 382              		.loc 1 274 4 discriminator 1 view .LVU162
 383 0174 0393     		str	r3, [sp, #12]
 384 0176 7FF454AF 		bne	.L2
 275:Drivers/CMSIS/DSP/Source/TransformFunctions/arm_cfft_radix4_f32.c **** 
 276:Drivers/CMSIS/DSP/Source/TransformFunctions/arm_cfft_radix4_f32.c ****    twidCoefModifier <<= 2U;
 385              		.loc 1 276 21 view .LVU163
 386 017a D946     		mov	r9, fp
 387 017c DDF810B0 		ldr	fp, [sp, #16]
 388              	.LVL63:
 389              		.loc 1 276 4 is_stmt 1 view .LVU164
 390              		.loc 1 276 21 is_stmt 0 view .LVU165
 391 0180 019B     		ldr	r3, [sp, #4]
 392              	.LVL64:
 393              		.loc 1 276 21 view .LVU166
 394 0182 9B00     		lsls	r3, r3, #2
 395 0184 9BB2     		uxth	r3, r3
 396 0186 0193     		str	r3, [sp, #4]
 397              	.LVL65:
 277:Drivers/CMSIS/DSP/Source/TransformFunctions/arm_cfft_radix4_f32.c **** 
 278:Drivers/CMSIS/DSP/Source/TransformFunctions/arm_cfft_radix4_f32.c ****    /*  Calculation of second stage to excluding last stage */
 279:Drivers/CMSIS/DSP/Source/TransformFunctions/arm_cfft_radix4_f32.c ****    for (k = fftLen >> 2U; k > 4U; k >>= 2U)
 398              		.loc 1 279 4 is_stmt 1 view .LVU167
 399              		.loc 1 279 20 is_stmt 0 view .LVU168
 400 0188 4FEA9B03 		lsr	r3, fp, #2
 401 018c 0593     		str	r3, [sp, #20]
 402              	.LVL66:
 403              		.loc 1 279 11 view .LVU169
 404 018e 0493     		str	r3, [sp, #16]
ARM GAS  C:\Users\17832\AppData\Local\Temp\ccxoZ2T5.s 			page 13


 405              	.LVL67:
 406              		.loc 1 279 4 view .LVU170
 407 0190 BBE0     		b	.L3
 408              	.LVL68:
 409              	.L6:
 280:Drivers/CMSIS/DSP/Source/TransformFunctions/arm_cfft_radix4_f32.c ****    {
 281:Drivers/CMSIS/DSP/Source/TransformFunctions/arm_cfft_radix4_f32.c ****       /*  Initializations for the first stage */
 282:Drivers/CMSIS/DSP/Source/TransformFunctions/arm_cfft_radix4_f32.c ****       n1 = n2;
 410              		.loc 1 282 7 is_stmt 1 view .LVU171
 283:Drivers/CMSIS/DSP/Source/TransformFunctions/arm_cfft_radix4_f32.c ****       n2 >>= 2U;
 411              		.loc 1 283 7 view .LVU172
 412              		.loc 1 283 10 is_stmt 0 view .LVU173
 413 0192 4FEA990E 		lsr	lr, r9, #2
 414              	.LVL69:
 284:Drivers/CMSIS/DSP/Source/TransformFunctions/arm_cfft_radix4_f32.c ****       ia1 = 0U;
 415              		.loc 1 284 7 is_stmt 1 view .LVU174
 285:Drivers/CMSIS/DSP/Source/TransformFunctions/arm_cfft_radix4_f32.c **** 
 286:Drivers/CMSIS/DSP/Source/TransformFunctions/arm_cfft_radix4_f32.c ****       /*  Calculation of first stage */
 287:Drivers/CMSIS/DSP/Source/TransformFunctions/arm_cfft_radix4_f32.c ****       j = 0;
 416              		.loc 1 287 7 view .LVU175
 417              		.loc 1 287 9 is_stmt 0 view .LVU176
 418 0196 039B     		ldr	r3, [sp, #12]
 419              	.LVL70:
 420              		.loc 1 287 9 view .LVU177
 421 0198 0093     		str	r3, [sp]
 284:Drivers/CMSIS/DSP/Source/TransformFunctions/arm_cfft_radix4_f32.c ****       ia1 = 0U;
 422              		.loc 1 284 11 view .LVU178
 423 019a 9A46     		mov	r10, r3
 424              	.LVL71:
 425              	.L5:
 288:Drivers/CMSIS/DSP/Source/TransformFunctions/arm_cfft_radix4_f32.c ****       do
 426              		.loc 1 288 7 is_stmt 1 view .LVU179
 289:Drivers/CMSIS/DSP/Source/TransformFunctions/arm_cfft_radix4_f32.c ****       {
 290:Drivers/CMSIS/DSP/Source/TransformFunctions/arm_cfft_radix4_f32.c ****          /*  index calculation for the coefficients */
 291:Drivers/CMSIS/DSP/Source/TransformFunctions/arm_cfft_radix4_f32.c ****          ia2 = ia1 + ia1;
 427              		.loc 1 291 10 view .LVU180
 292:Drivers/CMSIS/DSP/Source/TransformFunctions/arm_cfft_radix4_f32.c ****          ia3 = ia2 + ia1;
 428              		.loc 1 292 10 view .LVU181
 429              		.loc 1 292 14 is_stmt 0 view .LVU182
 430 019c 0AEB4A02 		add	r2, r10, r10, lsl #1
 431              	.LVL72:
 293:Drivers/CMSIS/DSP/Source/TransformFunctions/arm_cfft_radix4_f32.c ****          co1 = pCoef[ia1 * 2U];
 432              		.loc 1 293 10 is_stmt 1 view .LVU183
 433              		.loc 1 293 21 is_stmt 0 view .LVU184
 434 01a0 4FEACA03 		lsl	r3, r10, #3
 435 01a4 029C     		ldr	r4, [sp, #8]
 436 01a6 04EBCA01 		add	r1, r4, r10, lsl #3
 437              		.loc 1 293 14 view .LVU185
 438 01aa 91ED000A 		vldr.32	s0, [r1]
 439              	.LVL73:
 294:Drivers/CMSIS/DSP/Source/TransformFunctions/arm_cfft_radix4_f32.c ****          si1 = pCoef[(ia1 * 2U) + 1U];
 440              		.loc 1 294 10 is_stmt 1 view .LVU186
 441              		.loc 1 294 21 is_stmt 0 view .LVU187
 442 01ae 0433     		adds	r3, r3, #4
 443 01b0 2344     		add	r3, r3, r4
 444              		.loc 1 294 14 view .LVU188
 445 01b2 D3ED000A 		vldr.32	s1, [r3]
ARM GAS  C:\Users\17832\AppData\Local\Temp\ccxoZ2T5.s 			page 14


 446              	.LVL74:
 295:Drivers/CMSIS/DSP/Source/TransformFunctions/arm_cfft_radix4_f32.c ****          co2 = pCoef[ia2 * 2U];
 447              		.loc 1 295 10 is_stmt 1 view .LVU189
 448              		.loc 1 295 21 is_stmt 0 view .LVU190
 449 01b6 4FEA0A13 		lsl	r3, r10, #4
 450 01ba 04EB0A11 		add	r1, r4, r10, lsl #4
 451              		.loc 1 295 14 view .LVU191
 452 01be 91ED001A 		vldr.32	s2, [r1]
 453              	.LVL75:
 296:Drivers/CMSIS/DSP/Source/TransformFunctions/arm_cfft_radix4_f32.c ****          si2 = pCoef[(ia2 * 2U) + 1U];
 454              		.loc 1 296 10 is_stmt 1 view .LVU192
 455              		.loc 1 296 21 is_stmt 0 view .LVU193
 456 01c2 0433     		adds	r3, r3, #4
 457 01c4 2344     		add	r3, r3, r4
 458              		.loc 1 296 14 view .LVU194
 459 01c6 D3ED001A 		vldr.32	s3, [r3]
 460              	.LVL76:
 297:Drivers/CMSIS/DSP/Source/TransformFunctions/arm_cfft_radix4_f32.c ****          co3 = pCoef[ia3 * 2U];
 461              		.loc 1 297 10 is_stmt 1 view .LVU195
 462              		.loc 1 297 21 is_stmt 0 view .LVU196
 463 01ca D300     		lsls	r3, r2, #3
 464 01cc 04EBC202 		add	r2, r4, r2, lsl #3
 465              	.LVL77:
 466              		.loc 1 297 14 view .LVU197
 467 01d0 92ED002A 		vldr.32	s4, [r2]
 468              	.LVL78:
 298:Drivers/CMSIS/DSP/Source/TransformFunctions/arm_cfft_radix4_f32.c ****          si3 = pCoef[(ia3 * 2U) + 1U];
 469              		.loc 1 298 10 is_stmt 1 view .LVU198
 470              		.loc 1 298 21 is_stmt 0 view .LVU199
 471 01d4 0433     		adds	r3, r3, #4
 472 01d6 2344     		add	r3, r3, r4
 473              		.loc 1 298 14 view .LVU200
 474 01d8 D3ED002A 		vldr.32	s5, [r3]
 475              	.LVL79:
 299:Drivers/CMSIS/DSP/Source/TransformFunctions/arm_cfft_radix4_f32.c **** 
 300:Drivers/CMSIS/DSP/Source/TransformFunctions/arm_cfft_radix4_f32.c ****          /*  Twiddle coefficients index modifier */
 301:Drivers/CMSIS/DSP/Source/TransformFunctions/arm_cfft_radix4_f32.c ****          ia1 += twidCoefModifier;
 476              		.loc 1 301 10 is_stmt 1 view .LVU201
 477              		.loc 1 301 14 is_stmt 0 view .LVU202
 478 01dc 019B     		ldr	r3, [sp, #4]
 479 01de 9A44     		add	r10, r10, r3
 480              	.LVL80:
 302:Drivers/CMSIS/DSP/Source/TransformFunctions/arm_cfft_radix4_f32.c **** 
 303:Drivers/CMSIS/DSP/Source/TransformFunctions/arm_cfft_radix4_f32.c ****          i0 = j;
 481              		.loc 1 303 10 is_stmt 1 view .LVU203
 482              		.loc 1 303 13 is_stmt 0 view .LVU204
 483 01e0 009B     		ldr	r3, [sp]
 484              	.LVL81:
 485              	.L4:
 304:Drivers/CMSIS/DSP/Source/TransformFunctions/arm_cfft_radix4_f32.c ****          do
 486              		.loc 1 304 10 is_stmt 1 discriminator 1 view .LVU205
 305:Drivers/CMSIS/DSP/Source/TransformFunctions/arm_cfft_radix4_f32.c ****          {
 306:Drivers/CMSIS/DSP/Source/TransformFunctions/arm_cfft_radix4_f32.c ****             /*  index calculation for the input as, */
 307:Drivers/CMSIS/DSP/Source/TransformFunctions/arm_cfft_radix4_f32.c ****             /*  pSrc[i0 + 0], pSrc[i0 + fftLen/4], pSrc[i0 + fftLen/2], pSrc[i0 + 3fftLen/4] */
 308:Drivers/CMSIS/DSP/Source/TransformFunctions/arm_cfft_radix4_f32.c ****             i1 = i0 + n2;
 487              		.loc 1 308 13 discriminator 1 view .LVU206
 488              		.loc 1 308 16 is_stmt 0 discriminator 1 view .LVU207
ARM GAS  C:\Users\17832\AppData\Local\Temp\ccxoZ2T5.s 			page 15


 489 01e2 03EB0E0C 		add	ip, r3, lr
 490              	.LVL82:
 309:Drivers/CMSIS/DSP/Source/TransformFunctions/arm_cfft_radix4_f32.c ****             i2 = i1 + n2;
 491              		.loc 1 309 13 is_stmt 1 discriminator 1 view .LVU208
 492              		.loc 1 309 16 is_stmt 0 discriminator 1 view .LVU209
 493 01e6 03EB4E04 		add	r4, r3, lr, lsl #1
 494              	.LVL83:
 310:Drivers/CMSIS/DSP/Source/TransformFunctions/arm_cfft_radix4_f32.c ****             i3 = i2 + n2;
 495              		.loc 1 310 13 is_stmt 1 discriminator 1 view .LVU210
 496              		.loc 1 310 16 is_stmt 0 discriminator 1 view .LVU211
 497 01ea 0EEB0407 		add	r7, lr, r4
 498              	.LVL84:
 311:Drivers/CMSIS/DSP/Source/TransformFunctions/arm_cfft_radix4_f32.c **** 
 312:Drivers/CMSIS/DSP/Source/TransformFunctions/arm_cfft_radix4_f32.c ****             xaIn = pSrc[(2U * i0)];
 499              		.loc 1 312 13 is_stmt 1 discriminator 1 view .LVU212
 500              		.loc 1 312 24 is_stmt 0 discriminator 1 view .LVU213
 501 01ee DE00     		lsls	r6, r3, #3
 502 01f0 00EBC308 		add	r8, r0, r3, lsl #3
 503              		.loc 1 312 18 discriminator 1 view .LVU214
 504 01f4 98ED006A 		vldr.32	s12, [r8]
 505              	.LVL85:
 313:Drivers/CMSIS/DSP/Source/TransformFunctions/arm_cfft_radix4_f32.c ****             yaIn = pSrc[(2U * i0) + 1U];
 506              		.loc 1 313 13 is_stmt 1 discriminator 1 view .LVU215
 507              		.loc 1 313 24 is_stmt 0 discriminator 1 view .LVU216
 508 01f8 0436     		adds	r6, r6, #4
 509 01fa 0644     		add	r6, r6, r0
 510              		.loc 1 313 18 discriminator 1 view .LVU217
 511 01fc D6ED006A 		vldr.32	s13, [r6]
 512              	.LVL86:
 314:Drivers/CMSIS/DSP/Source/TransformFunctions/arm_cfft_radix4_f32.c **** 
 315:Drivers/CMSIS/DSP/Source/TransformFunctions/arm_cfft_radix4_f32.c ****             xbIn = pSrc[(2U * i1)];
 513              		.loc 1 315 13 is_stmt 1 discriminator 1 view .LVU218
 514              		.loc 1 315 24 is_stmt 0 discriminator 1 view .LVU219
 515 0200 4FEACC05 		lsl	r5, ip, #3
 516 0204 00EBCC0C 		add	ip, r0, ip, lsl #3
 517              	.LVL87:
 518              		.loc 1 315 18 discriminator 1 view .LVU220
 519 0208 9CED005A 		vldr.32	s10, [ip]
 520              	.LVL88:
 316:Drivers/CMSIS/DSP/Source/TransformFunctions/arm_cfft_radix4_f32.c ****             ybIn = pSrc[(2U * i1) + 1U];
 521              		.loc 1 316 13 is_stmt 1 discriminator 1 view .LVU221
 522              		.loc 1 316 24 is_stmt 0 discriminator 1 view .LVU222
 523 020c 0435     		adds	r5, r5, #4
 524 020e 0544     		add	r5, r5, r0
 525              		.loc 1 316 18 discriminator 1 view .LVU223
 526 0210 D5ED005A 		vldr.32	s11, [r5]
 527              	.LVL89:
 317:Drivers/CMSIS/DSP/Source/TransformFunctions/arm_cfft_radix4_f32.c **** 
 318:Drivers/CMSIS/DSP/Source/TransformFunctions/arm_cfft_radix4_f32.c ****             xcIn = pSrc[(2U * i2)];
 528              		.loc 1 318 13 is_stmt 1 discriminator 1 view .LVU224
 529              		.loc 1 318 24 is_stmt 0 discriminator 1 view .LVU225
 530 0214 E100     		lsls	r1, r4, #3
 531 0216 00EBC404 		add	r4, r0, r4, lsl #3
 532              	.LVL90:
 533              		.loc 1 318 18 discriminator 1 view .LVU226
 534 021a 94ED003A 		vldr.32	s6, [r4]
 535              	.LVL91:
ARM GAS  C:\Users\17832\AppData\Local\Temp\ccxoZ2T5.s 			page 16


 319:Drivers/CMSIS/DSP/Source/TransformFunctions/arm_cfft_radix4_f32.c ****             ycIn = pSrc[(2U * i2) + 1U];
 536              		.loc 1 319 13 is_stmt 1 discriminator 1 view .LVU227
 537              		.loc 1 319 24 is_stmt 0 discriminator 1 view .LVU228
 538 021e 0431     		adds	r1, r1, #4
 539 0220 0144     		add	r1, r1, r0
 540              		.loc 1 319 18 discriminator 1 view .LVU229
 541 0222 91ED004A 		vldr.32	s8, [r1]
 542              	.LVL92:
 320:Drivers/CMSIS/DSP/Source/TransformFunctions/arm_cfft_radix4_f32.c **** 
 321:Drivers/CMSIS/DSP/Source/TransformFunctions/arm_cfft_radix4_f32.c ****             xdIn = pSrc[(2U * i3)];
 543              		.loc 1 321 13 is_stmt 1 discriminator 1 view .LVU230
 544              		.loc 1 321 24 is_stmt 0 discriminator 1 view .LVU231
 545 0226 FA00     		lsls	r2, r7, #3
 546 0228 00EBC707 		add	r7, r0, r7, lsl #3
 547              	.LVL93:
 548              		.loc 1 321 18 discriminator 1 view .LVU232
 549 022c D7ED003A 		vldr.32	s7, [r7]
 550              	.LVL94:
 322:Drivers/CMSIS/DSP/Source/TransformFunctions/arm_cfft_radix4_f32.c ****             ydIn = pSrc[(2U * i3) + 1U];
 551              		.loc 1 322 13 is_stmt 1 discriminator 1 view .LVU233
 552              		.loc 1 322 24 is_stmt 0 discriminator 1 view .LVU234
 553 0230 0432     		adds	r2, r2, #4
 554 0232 0244     		add	r2, r2, r0
 555              		.loc 1 322 18 discriminator 1 view .LVU235
 556 0234 D2ED004A 		vldr.32	s9, [r2]
 557              	.LVL95:
 323:Drivers/CMSIS/DSP/Source/TransformFunctions/arm_cfft_radix4_f32.c **** 
 324:Drivers/CMSIS/DSP/Source/TransformFunctions/arm_cfft_radix4_f32.c ****             /* xa - xc */
 325:Drivers/CMSIS/DSP/Source/TransformFunctions/arm_cfft_radix4_f32.c ****             Xaminusc = xaIn - xcIn;
 558              		.loc 1 325 13 is_stmt 1 discriminator 1 view .LVU236
 559              		.loc 1 325 22 is_stmt 0 discriminator 1 view .LVU237
 560 0238 76EE437A 		vsub.f32	s15, s12, s6
 561              	.LVL96:
 326:Drivers/CMSIS/DSP/Source/TransformFunctions/arm_cfft_radix4_f32.c ****             /* (xb - xd) */
 327:Drivers/CMSIS/DSP/Source/TransformFunctions/arm_cfft_radix4_f32.c ****             Xbminusd = xbIn - xdIn;
 562              		.loc 1 327 13 is_stmt 1 discriminator 1 view .LVU238
 563              		.loc 1 327 22 is_stmt 0 discriminator 1 view .LVU239
 564 023c 35EE637A 		vsub.f32	s14, s10, s7
 565              	.LVL97:
 328:Drivers/CMSIS/DSP/Source/TransformFunctions/arm_cfft_radix4_f32.c ****             /* ya - yc */
 329:Drivers/CMSIS/DSP/Source/TransformFunctions/arm_cfft_radix4_f32.c ****             Yaminusc = yaIn - ycIn;
 566              		.loc 1 329 13 is_stmt 1 discriminator 1 view .LVU240
 567              		.loc 1 329 22 is_stmt 0 discriminator 1 view .LVU241
 568 0240 36EEC48A 		vsub.f32	s16, s13, s8
 569              	.LVL98:
 330:Drivers/CMSIS/DSP/Source/TransformFunctions/arm_cfft_radix4_f32.c ****             /* (yb - yd) */
 331:Drivers/CMSIS/DSP/Source/TransformFunctions/arm_cfft_radix4_f32.c ****             Ybminusd = ybIn - ydIn;
 570              		.loc 1 331 13 is_stmt 1 discriminator 1 view .LVU242
 571              		.loc 1 331 22 is_stmt 0 discriminator 1 view .LVU243
 572 0244 75EEE48A 		vsub.f32	s17, s11, s9
 573              	.LVL99:
 332:Drivers/CMSIS/DSP/Source/TransformFunctions/arm_cfft_radix4_f32.c **** 
 333:Drivers/CMSIS/DSP/Source/TransformFunctions/arm_cfft_radix4_f32.c ****             /* xa + xc */
 334:Drivers/CMSIS/DSP/Source/TransformFunctions/arm_cfft_radix4_f32.c ****             Xaplusc = xaIn + xcIn;
 574              		.loc 1 334 13 is_stmt 1 discriminator 1 view .LVU244
 575              		.loc 1 334 21 is_stmt 0 discriminator 1 view .LVU245
 576 0248 36EE036A 		vadd.f32	s12, s12, s6
ARM GAS  C:\Users\17832\AppData\Local\Temp\ccxoZ2T5.s 			page 17


 577              	.LVL100:
 335:Drivers/CMSIS/DSP/Source/TransformFunctions/arm_cfft_radix4_f32.c ****             /* xb + xd */
 336:Drivers/CMSIS/DSP/Source/TransformFunctions/arm_cfft_radix4_f32.c ****             Xbplusd = xbIn + xdIn;
 578              		.loc 1 336 13 is_stmt 1 discriminator 1 view .LVU246
 579              		.loc 1 336 21 is_stmt 0 discriminator 1 view .LVU247
 580 024c 35EE235A 		vadd.f32	s10, s10, s7
 581              	.LVL101:
 337:Drivers/CMSIS/DSP/Source/TransformFunctions/arm_cfft_radix4_f32.c ****             /* ya + yc */
 338:Drivers/CMSIS/DSP/Source/TransformFunctions/arm_cfft_radix4_f32.c ****             Yaplusc = yaIn + ycIn;
 582              		.loc 1 338 13 is_stmt 1 discriminator 1 view .LVU248
 583              		.loc 1 338 21 is_stmt 0 discriminator 1 view .LVU249
 584 0250 76EE846A 		vadd.f32	s13, s13, s8
 585              	.LVL102:
 339:Drivers/CMSIS/DSP/Source/TransformFunctions/arm_cfft_radix4_f32.c ****             /* yb + yd */
 340:Drivers/CMSIS/DSP/Source/TransformFunctions/arm_cfft_radix4_f32.c ****             Ybplusd = ybIn + ydIn;
 586              		.loc 1 340 13 is_stmt 1 discriminator 1 view .LVU250
 587              		.loc 1 340 21 is_stmt 0 discriminator 1 view .LVU251
 588 0254 75EEA45A 		vadd.f32	s11, s11, s9
 589              	.LVL103:
 341:Drivers/CMSIS/DSP/Source/TransformFunctions/arm_cfft_radix4_f32.c **** 
 342:Drivers/CMSIS/DSP/Source/TransformFunctions/arm_cfft_radix4_f32.c ****             /* (xa - xc) + (yb - yd) */
 343:Drivers/CMSIS/DSP/Source/TransformFunctions/arm_cfft_radix4_f32.c ****             Xb12C_out = (Xaminusc + Ybminusd);
 590              		.loc 1 343 13 is_stmt 1 discriminator 1 view .LVU252
 591              		.loc 1 343 23 is_stmt 0 discriminator 1 view .LVU253
 592 0258 77EEA83A 		vadd.f32	s7, s15, s17
 593              	.LVL104:
 344:Drivers/CMSIS/DSP/Source/TransformFunctions/arm_cfft_radix4_f32.c ****             /* (ya - yc) -  (xb - xd) */
 345:Drivers/CMSIS/DSP/Source/TransformFunctions/arm_cfft_radix4_f32.c ****             Yb12C_out = (Yaminusc - Xbminusd);
 594              		.loc 1 345 13 is_stmt 1 discriminator 1 view .LVU254
 595              		.loc 1 345 23 is_stmt 0 discriminator 1 view .LVU255
 596 025c 38EE473A 		vsub.f32	s6, s16, s14
 597              	.LVL105:
 346:Drivers/CMSIS/DSP/Source/TransformFunctions/arm_cfft_radix4_f32.c ****             /* xa + xc -(xb + xd) */
 347:Drivers/CMSIS/DSP/Source/TransformFunctions/arm_cfft_radix4_f32.c ****             Xc12C_out = (Xaplusc - Xbplusd);
 598              		.loc 1 347 13 is_stmt 1 discriminator 1 view .LVU256
 599              		.loc 1 347 23 is_stmt 0 discriminator 1 view .LVU257
 600 0260 76EE454A 		vsub.f32	s9, s12, s10
 601              	.LVL106:
 348:Drivers/CMSIS/DSP/Source/TransformFunctions/arm_cfft_radix4_f32.c ****             /* (ya + yc) - (yb + yd) */
 349:Drivers/CMSIS/DSP/Source/TransformFunctions/arm_cfft_radix4_f32.c ****             Yc12C_out = (Yaplusc - Ybplusd);
 602              		.loc 1 349 13 is_stmt 1 discriminator 1 view .LVU258
 603              		.loc 1 349 23 is_stmt 0 discriminator 1 view .LVU259
 604 0264 36EEE54A 		vsub.f32	s8, s13, s11
 605              	.LVL107:
 350:Drivers/CMSIS/DSP/Source/TransformFunctions/arm_cfft_radix4_f32.c ****             /* (xa - xc) - (yb - yd) */
 351:Drivers/CMSIS/DSP/Source/TransformFunctions/arm_cfft_radix4_f32.c ****             Xd12C_out = (Xaminusc - Ybminusd);
 606              		.loc 1 351 13 is_stmt 1 discriminator 1 view .LVU260
 607              		.loc 1 351 23 is_stmt 0 discriminator 1 view .LVU261
 608 0268 77EEE87A 		vsub.f32	s15, s15, s17
 609              	.LVL108:
 352:Drivers/CMSIS/DSP/Source/TransformFunctions/arm_cfft_radix4_f32.c ****             /* (ya - yc) +  (xb - xd) */
 353:Drivers/CMSIS/DSP/Source/TransformFunctions/arm_cfft_radix4_f32.c ****             Yd12C_out = (Xbminusd + Yaminusc);
 610              		.loc 1 353 13 is_stmt 1 discriminator 1 view .LVU262
 611              		.loc 1 353 23 is_stmt 0 discriminator 1 view .LVU263
 612 026c 37EE087A 		vadd.f32	s14, s14, s16
 613              	.LVL109:
 354:Drivers/CMSIS/DSP/Source/TransformFunctions/arm_cfft_radix4_f32.c **** 
ARM GAS  C:\Users\17832\AppData\Local\Temp\ccxoZ2T5.s 			page 18


 355:Drivers/CMSIS/DSP/Source/TransformFunctions/arm_cfft_radix4_f32.c ****             pSrc[(2U * i0)] = Xaplusc + Xbplusd;
 614              		.loc 1 355 13 is_stmt 1 discriminator 1 view .LVU264
 615              		.loc 1 355 39 is_stmt 0 discriminator 1 view .LVU265
 616 0270 36EE056A 		vadd.f32	s12, s12, s10
 617              	.LVL110:
 618              		.loc 1 355 29 discriminator 1 view .LVU266
 619 0274 88ED006A 		vstr.32	s12, [r8]
 620              	.LVL111:
 356:Drivers/CMSIS/DSP/Source/TransformFunctions/arm_cfft_radix4_f32.c ****             pSrc[(2U * i0) + 1U] = Yaplusc + Ybplusd;
 621              		.loc 1 356 13 is_stmt 1 discriminator 1 view .LVU267
 622              		.loc 1 356 44 is_stmt 0 discriminator 1 view .LVU268
 623 0278 76EEA56A 		vadd.f32	s13, s13, s11
 624              	.LVL112:
 625              		.loc 1 356 34 discriminator 1 view .LVU269
 626 027c C6ED006A 		vstr.32	s13, [r6]
 627              	.LVL113:
 357:Drivers/CMSIS/DSP/Source/TransformFunctions/arm_cfft_radix4_f32.c **** 
 358:Drivers/CMSIS/DSP/Source/TransformFunctions/arm_cfft_radix4_f32.c ****             Xb12_out = Xb12C_out * co1;
 628              		.loc 1 358 13 is_stmt 1 discriminator 1 view .LVU270
 629              		.loc 1 358 22 is_stmt 0 discriminator 1 view .LVU271
 630 0280 20EE235A 		vmul.f32	s10, s0, s7
 631              	.LVL114:
 359:Drivers/CMSIS/DSP/Source/TransformFunctions/arm_cfft_radix4_f32.c ****             Yb12_out = Yb12C_out * co1;
 632              		.loc 1 359 13 is_stmt 1 discriminator 1 view .LVU272
 633              		.loc 1 359 22 is_stmt 0 discriminator 1 view .LVU273
 634 0284 60EE035A 		vmul.f32	s11, s0, s6
 635              	.LVL115:
 360:Drivers/CMSIS/DSP/Source/TransformFunctions/arm_cfft_radix4_f32.c ****             Xc12_out = Xc12C_out * co2;
 636              		.loc 1 360 13 is_stmt 1 discriminator 1 view .LVU274
 637              		.loc 1 360 22 is_stmt 0 discriminator 1 view .LVU275
 638 0288 61EE248A 		vmul.f32	s17, s2, s9
 639              	.LVL116:
 361:Drivers/CMSIS/DSP/Source/TransformFunctions/arm_cfft_radix4_f32.c ****             Yc12_out = Yc12C_out * co2;
 640              		.loc 1 361 13 is_stmt 1 discriminator 1 view .LVU276
 641              		.loc 1 361 22 is_stmt 0 discriminator 1 view .LVU277
 642 028c 21EE048A 		vmul.f32	s16, s2, s8
 643              	.LVL117:
 362:Drivers/CMSIS/DSP/Source/TransformFunctions/arm_cfft_radix4_f32.c ****             Xd12_out = Xd12C_out * co3;
 644              		.loc 1 362 13 is_stmt 1 discriminator 1 view .LVU278
 645              		.loc 1 362 22 is_stmt 0 discriminator 1 view .LVU279
 646 0290 22EE276A 		vmul.f32	s12, s4, s15
 647              	.LVL118:
 363:Drivers/CMSIS/DSP/Source/TransformFunctions/arm_cfft_radix4_f32.c ****             Yd12_out = Yd12C_out * co3;
 648              		.loc 1 363 13 is_stmt 1 discriminator 1 view .LVU280
 649              		.loc 1 363 22 is_stmt 0 discriminator 1 view .LVU281
 650 0294 62EE076A 		vmul.f32	s13, s4, s14
 651              	.LVL119:
 364:Drivers/CMSIS/DSP/Source/TransformFunctions/arm_cfft_radix4_f32.c **** 
 365:Drivers/CMSIS/DSP/Source/TransformFunctions/arm_cfft_radix4_f32.c ****             /* xb' = (xa+yb-xc-yd)co1 - (ya-xb-yc+xd)(si1) */
 366:Drivers/CMSIS/DSP/Source/TransformFunctions/arm_cfft_radix4_f32.c ****             //Xb12_out -= Yb12C_out * si1;
 367:Drivers/CMSIS/DSP/Source/TransformFunctions/arm_cfft_radix4_f32.c ****             p0 = Yb12C_out * si1;
 652              		.loc 1 367 13 is_stmt 1 discriminator 1 view .LVU282
 653              		.loc 1 367 16 is_stmt 0 discriminator 1 view .LVU283
 654 0298 20EE833A 		vmul.f32	s6, s1, s6
 655              	.LVL120:
 368:Drivers/CMSIS/DSP/Source/TransformFunctions/arm_cfft_radix4_f32.c ****             /* yb' = (ya-xb-yc+xd)co1 + (xa+yb-xc-yd)(si1) */
 369:Drivers/CMSIS/DSP/Source/TransformFunctions/arm_cfft_radix4_f32.c ****             //Yb12_out += Xb12C_out * si1;
ARM GAS  C:\Users\17832\AppData\Local\Temp\ccxoZ2T5.s 			page 19


 370:Drivers/CMSIS/DSP/Source/TransformFunctions/arm_cfft_radix4_f32.c ****             p1 = Xb12C_out * si1;
 656              		.loc 1 370 13 is_stmt 1 discriminator 1 view .LVU284
 657              		.loc 1 370 16 is_stmt 0 discriminator 1 view .LVU285
 658 029c 60EEA33A 		vmul.f32	s7, s1, s7
 659              	.LVL121:
 371:Drivers/CMSIS/DSP/Source/TransformFunctions/arm_cfft_radix4_f32.c ****             /* xc' = (xa-xb+xc-xd)co2 - (ya-yb+yc-yd)(si2) */
 372:Drivers/CMSIS/DSP/Source/TransformFunctions/arm_cfft_radix4_f32.c ****             //Xc12_out -= Yc12C_out * si2;
 373:Drivers/CMSIS/DSP/Source/TransformFunctions/arm_cfft_radix4_f32.c ****             p2 = Yc12C_out * si2;
 660              		.loc 1 373 13 is_stmt 1 discriminator 1 view .LVU286
 661              		.loc 1 373 16 is_stmt 0 discriminator 1 view .LVU287
 662 02a0 21EE844A 		vmul.f32	s8, s3, s8
 663              	.LVL122:
 374:Drivers/CMSIS/DSP/Source/TransformFunctions/arm_cfft_radix4_f32.c ****             /* yc' = (ya-yb+yc-yd)co2 + (xa-xb+xc-xd)(si2) */
 375:Drivers/CMSIS/DSP/Source/TransformFunctions/arm_cfft_radix4_f32.c ****             //Yc12_out += Xc12C_out * si2;
 376:Drivers/CMSIS/DSP/Source/TransformFunctions/arm_cfft_radix4_f32.c ****             p3 = Xc12C_out * si2;
 664              		.loc 1 376 13 is_stmt 1 discriminator 1 view .LVU288
 665              		.loc 1 376 16 is_stmt 0 discriminator 1 view .LVU289
 666 02a4 61EEA44A 		vmul.f32	s9, s3, s9
 667              	.LVL123:
 377:Drivers/CMSIS/DSP/Source/TransformFunctions/arm_cfft_radix4_f32.c ****             /* xd' = (xa-yb-xc+yd)co3 - (ya+xb-yc-xd)(si3) */
 378:Drivers/CMSIS/DSP/Source/TransformFunctions/arm_cfft_radix4_f32.c ****             //Xd12_out -= Yd12C_out * si3;
 379:Drivers/CMSIS/DSP/Source/TransformFunctions/arm_cfft_radix4_f32.c ****             p4 = Yd12C_out * si3;
 668              		.loc 1 379 13 is_stmt 1 discriminator 1 view .LVU290
 669              		.loc 1 379 16 is_stmt 0 discriminator 1 view .LVU291
 670 02a8 22EE877A 		vmul.f32	s14, s5, s14
 671              	.LVL124:
 380:Drivers/CMSIS/DSP/Source/TransformFunctions/arm_cfft_radix4_f32.c ****             /* yd' = (ya+xb-yc-xd)co3 + (xa-yb-xc+yd)(si3) */
 381:Drivers/CMSIS/DSP/Source/TransformFunctions/arm_cfft_radix4_f32.c ****             //Yd12_out += Xd12C_out * si3;
 382:Drivers/CMSIS/DSP/Source/TransformFunctions/arm_cfft_radix4_f32.c ****             p5 = Xd12C_out * si3;
 672              		.loc 1 382 13 is_stmt 1 discriminator 1 view .LVU292
 673              		.loc 1 382 16 is_stmt 0 discriminator 1 view .LVU293
 674 02ac 62EEA77A 		vmul.f32	s15, s5, s15
 675              	.LVL125:
 383:Drivers/CMSIS/DSP/Source/TransformFunctions/arm_cfft_radix4_f32.c **** 
 384:Drivers/CMSIS/DSP/Source/TransformFunctions/arm_cfft_radix4_f32.c ****             Xb12_out += p0;
 676              		.loc 1 384 13 is_stmt 1 discriminator 1 view .LVU294
 677              		.loc 1 384 22 is_stmt 0 discriminator 1 view .LVU295
 678 02b0 35EE033A 		vadd.f32	s6, s10, s6
 679              	.LVL126:
 385:Drivers/CMSIS/DSP/Source/TransformFunctions/arm_cfft_radix4_f32.c ****             Yb12_out -= p1;
 680              		.loc 1 385 13 is_stmt 1 discriminator 1 view .LVU296
 681              		.loc 1 385 22 is_stmt 0 discriminator 1 view .LVU297
 682 02b4 75EEE33A 		vsub.f32	s7, s11, s7
 683              	.LVL127:
 386:Drivers/CMSIS/DSP/Source/TransformFunctions/arm_cfft_radix4_f32.c ****             Xc12_out += p2;
 684              		.loc 1 386 13 is_stmt 1 discriminator 1 view .LVU298
 685              		.loc 1 386 22 is_stmt 0 discriminator 1 view .LVU299
 686 02b8 38EE844A 		vadd.f32	s8, s17, s8
 687              	.LVL128:
 387:Drivers/CMSIS/DSP/Source/TransformFunctions/arm_cfft_radix4_f32.c ****             Yc12_out -= p3;
 688              		.loc 1 387 13 is_stmt 1 discriminator 1 view .LVU300
 689              		.loc 1 387 22 is_stmt 0 discriminator 1 view .LVU301
 690 02bc 78EE644A 		vsub.f32	s9, s16, s9
 691              	.LVL129:
 388:Drivers/CMSIS/DSP/Source/TransformFunctions/arm_cfft_radix4_f32.c ****             Xd12_out += p4;
 692              		.loc 1 388 13 is_stmt 1 discriminator 1 view .LVU302
 693              		.loc 1 388 22 is_stmt 0 discriminator 1 view .LVU303
ARM GAS  C:\Users\17832\AppData\Local\Temp\ccxoZ2T5.s 			page 20


 694 02c0 36EE077A 		vadd.f32	s14, s12, s14
 695              	.LVL130:
 389:Drivers/CMSIS/DSP/Source/TransformFunctions/arm_cfft_radix4_f32.c ****             Yd12_out -= p5;
 696              		.loc 1 389 13 is_stmt 1 discriminator 1 view .LVU304
 697              		.loc 1 389 22 is_stmt 0 discriminator 1 view .LVU305
 698 02c4 76EEE77A 		vsub.f32	s15, s13, s15
 699              	.LVL131:
 390:Drivers/CMSIS/DSP/Source/TransformFunctions/arm_cfft_radix4_f32.c **** 
 391:Drivers/CMSIS/DSP/Source/TransformFunctions/arm_cfft_radix4_f32.c ****             /* xc' = (xa-xb+xc-xd)co2 + (ya-yb+yc-yd)(si2) */
 392:Drivers/CMSIS/DSP/Source/TransformFunctions/arm_cfft_radix4_f32.c ****             pSrc[2U * i1] = Xc12_out;
 700              		.loc 1 392 13 is_stmt 1 discriminator 1 view .LVU306
 701              		.loc 1 392 27 is_stmt 0 discriminator 1 view .LVU307
 702 02c8 8CED004A 		vstr.32	s8, [ip]
 393:Drivers/CMSIS/DSP/Source/TransformFunctions/arm_cfft_radix4_f32.c **** 
 394:Drivers/CMSIS/DSP/Source/TransformFunctions/arm_cfft_radix4_f32.c ****             /* yc' = (ya-yb+yc-yd)co2 - (xa-xb+xc-xd)(si2) */
 395:Drivers/CMSIS/DSP/Source/TransformFunctions/arm_cfft_radix4_f32.c ****             pSrc[(2U * i1) + 1U] = Yc12_out;
 703              		.loc 1 395 13 is_stmt 1 discriminator 1 view .LVU308
 704              		.loc 1 395 34 is_stmt 0 discriminator 1 view .LVU309
 705 02cc C5ED004A 		vstr.32	s9, [r5]
 396:Drivers/CMSIS/DSP/Source/TransformFunctions/arm_cfft_radix4_f32.c **** 
 397:Drivers/CMSIS/DSP/Source/TransformFunctions/arm_cfft_radix4_f32.c ****             /* xb' = (xa+yb-xc-yd)co1 + (ya-xb-yc+xd)(si1) */
 398:Drivers/CMSIS/DSP/Source/TransformFunctions/arm_cfft_radix4_f32.c ****             pSrc[2U * i2] = Xb12_out;
 706              		.loc 1 398 13 is_stmt 1 discriminator 1 view .LVU310
 707              		.loc 1 398 27 is_stmt 0 discriminator 1 view .LVU311
 708 02d0 84ED003A 		vstr.32	s6, [r4]
 399:Drivers/CMSIS/DSP/Source/TransformFunctions/arm_cfft_radix4_f32.c **** 
 400:Drivers/CMSIS/DSP/Source/TransformFunctions/arm_cfft_radix4_f32.c ****             /* yb' = (ya-xb-yc+xd)co1 - (xa+yb-xc-yd)(si1) */
 401:Drivers/CMSIS/DSP/Source/TransformFunctions/arm_cfft_radix4_f32.c ****             pSrc[(2U * i2) + 1U] = Yb12_out;
 709              		.loc 1 401 13 is_stmt 1 discriminator 1 view .LVU312
 710              		.loc 1 401 34 is_stmt 0 discriminator 1 view .LVU313
 711 02d4 C1ED003A 		vstr.32	s7, [r1]
 402:Drivers/CMSIS/DSP/Source/TransformFunctions/arm_cfft_radix4_f32.c **** 
 403:Drivers/CMSIS/DSP/Source/TransformFunctions/arm_cfft_radix4_f32.c ****             /* xd' = (xa-yb-xc+yd)co3 + (ya+xb-yc-xd)(si3) */
 404:Drivers/CMSIS/DSP/Source/TransformFunctions/arm_cfft_radix4_f32.c ****             pSrc[2U * i3] = Xd12_out;
 712              		.loc 1 404 13 is_stmt 1 discriminator 1 view .LVU314
 713              		.loc 1 404 27 is_stmt 0 discriminator 1 view .LVU315
 714 02d8 87ED007A 		vstr.32	s14, [r7]
 405:Drivers/CMSIS/DSP/Source/TransformFunctions/arm_cfft_radix4_f32.c **** 
 406:Drivers/CMSIS/DSP/Source/TransformFunctions/arm_cfft_radix4_f32.c ****             /* yd' = (ya+xb-yc-xd)co3 - (xa-yb-xc+yd)(si3) */
 407:Drivers/CMSIS/DSP/Source/TransformFunctions/arm_cfft_radix4_f32.c ****             pSrc[(2U * i3) + 1U] = Yd12_out;
 715              		.loc 1 407 13 is_stmt 1 discriminator 1 view .LVU316
 716              		.loc 1 407 34 is_stmt 0 discriminator 1 view .LVU317
 717 02dc C2ED007A 		vstr.32	s15, [r2]
 408:Drivers/CMSIS/DSP/Source/TransformFunctions/arm_cfft_radix4_f32.c **** 
 409:Drivers/CMSIS/DSP/Source/TransformFunctions/arm_cfft_radix4_f32.c ****             i0 += n1;
 718              		.loc 1 409 13 is_stmt 1 discriminator 1 view .LVU318
 719              		.loc 1 409 16 is_stmt 0 discriminator 1 view .LVU319
 720 02e0 4B44     		add	r3, r3, r9
 721              	.LVL132:
 410:Drivers/CMSIS/DSP/Source/TransformFunctions/arm_cfft_radix4_f32.c ****          } while (i0 < fftLen);
 722              		.loc 1 410 18 is_stmt 1 discriminator 1 view .LVU320
 723              		.loc 1 410 10 is_stmt 0 discriminator 1 view .LVU321
 724 02e2 9B45     		cmp	fp, r3
 725 02e4 3FF67DAF 		bhi	.L4
 411:Drivers/CMSIS/DSP/Source/TransformFunctions/arm_cfft_radix4_f32.c ****          j++;
 726              		.loc 1 411 10 is_stmt 1 view .LVU322
 727              		.loc 1 411 11 is_stmt 0 view .LVU323
ARM GAS  C:\Users\17832\AppData\Local\Temp\ccxoZ2T5.s 			page 21


 728 02e8 009B     		ldr	r3, [sp]
 729              	.LVL133:
 730              		.loc 1 411 11 view .LVU324
 731 02ea 0133     		adds	r3, r3, #1
 732 02ec 1A46     		mov	r2, r3
 733 02ee 0093     		str	r3, [sp]
 734              	.LVL134:
 412:Drivers/CMSIS/DSP/Source/TransformFunctions/arm_cfft_radix4_f32.c ****       } while (j <= (n2 - 1U));
 735              		.loc 1 412 15 is_stmt 1 view .LVU325
 736              		.loc 1 412 25 is_stmt 0 view .LVU326
 737 02f0 0EF1FF33 		add	r3, lr, #-1
 738              		.loc 1 412 7 view .LVU327
 739 02f4 9342     		cmp	r3, r2
 740 02f6 BFF451AF 		bcs	.L5
 413:Drivers/CMSIS/DSP/Source/TransformFunctions/arm_cfft_radix4_f32.c ****       twidCoefModifier <<= 2U;
 741              		.loc 1 413 7 is_stmt 1 discriminator 2 view .LVU328
 742              		.loc 1 413 24 is_stmt 0 discriminator 2 view .LVU329
 743 02fa 019B     		ldr	r3, [sp, #4]
 744 02fc 9B00     		lsls	r3, r3, #2
 745 02fe 9BB2     		uxth	r3, r3
 746 0300 0193     		str	r3, [sp, #4]
 747              	.LVL135:
 279:Drivers/CMSIS/DSP/Source/TransformFunctions/arm_cfft_radix4_f32.c ****    {
 748              		.loc 1 279 35 is_stmt 1 discriminator 2 view .LVU330
 279:Drivers/CMSIS/DSP/Source/TransformFunctions/arm_cfft_radix4_f32.c ****    {
 749              		.loc 1 279 37 is_stmt 0 discriminator 2 view .LVU331
 750 0302 049B     		ldr	r3, [sp, #16]
 751 0304 9B08     		lsrs	r3, r3, #2
 752 0306 0493     		str	r3, [sp, #16]
 753              	.LVL136:
 283:Drivers/CMSIS/DSP/Source/TransformFunctions/arm_cfft_radix4_f32.c ****       ia1 = 0U;
 754              		.loc 1 283 10 discriminator 2 view .LVU332
 755 0308 F146     		mov	r9, lr
 756              	.LVL137:
 757              	.L3:
 279:Drivers/CMSIS/DSP/Source/TransformFunctions/arm_cfft_radix4_f32.c ****    {
 758              		.loc 1 279 27 is_stmt 1 discriminator 1 view .LVU333
 279:Drivers/CMSIS/DSP/Source/TransformFunctions/arm_cfft_radix4_f32.c ****    {
 759              		.loc 1 279 4 is_stmt 0 discriminator 1 view .LVU334
 760 030a 049B     		ldr	r3, [sp, #16]
 761 030c 042B     		cmp	r3, #4
 762 030e 3FF640AF 		bhi	.L6
 279:Drivers/CMSIS/DSP/Source/TransformFunctions/arm_cfft_radix4_f32.c ****    {
 763              		.loc 1 279 4 discriminator 1 view .LVU335
 764 0312 059B     		ldr	r3, [sp, #20]
 765              	.LVL138:
 766              	.L7:
 414:Drivers/CMSIS/DSP/Source/TransformFunctions/arm_cfft_radix4_f32.c ****    }
 415:Drivers/CMSIS/DSP/Source/TransformFunctions/arm_cfft_radix4_f32.c **** 
 416:Drivers/CMSIS/DSP/Source/TransformFunctions/arm_cfft_radix4_f32.c ****    j = fftLen >> 2;
 417:Drivers/CMSIS/DSP/Source/TransformFunctions/arm_cfft_radix4_f32.c ****    ptr1 = &pSrc[0];
 418:Drivers/CMSIS/DSP/Source/TransformFunctions/arm_cfft_radix4_f32.c **** 
 419:Drivers/CMSIS/DSP/Source/TransformFunctions/arm_cfft_radix4_f32.c ****    /*  Calculations of last stage */
 420:Drivers/CMSIS/DSP/Source/TransformFunctions/arm_cfft_radix4_f32.c ****    do
 767              		.loc 1 420 4 is_stmt 1 discriminator 1 view .LVU336
 421:Drivers/CMSIS/DSP/Source/TransformFunctions/arm_cfft_radix4_f32.c ****    {
 422:Drivers/CMSIS/DSP/Source/TransformFunctions/arm_cfft_radix4_f32.c ****       xaIn = ptr1[0];
ARM GAS  C:\Users\17832\AppData\Local\Temp\ccxoZ2T5.s 			page 22


 768              		.loc 1 422 7 discriminator 1 view .LVU337
 769              		.loc 1 422 12 is_stmt 0 discriminator 1 view .LVU338
 770 0314 90ED007A 		vldr.32	s14, [r0]
 771              	.LVL139:
 423:Drivers/CMSIS/DSP/Source/TransformFunctions/arm_cfft_radix4_f32.c ****       yaIn = ptr1[1];
 772              		.loc 1 423 7 is_stmt 1 discriminator 1 view .LVU339
 773              		.loc 1 423 12 is_stmt 0 discriminator 1 view .LVU340
 774 0318 D0ED017A 		vldr.32	s15, [r0, #4]
 775              	.LVL140:
 424:Drivers/CMSIS/DSP/Source/TransformFunctions/arm_cfft_radix4_f32.c ****       xbIn = ptr1[2];
 776              		.loc 1 424 7 is_stmt 1 discriminator 1 view .LVU341
 777              		.loc 1 424 12 is_stmt 0 discriminator 1 view .LVU342
 778 031c D0ED026A 		vldr.32	s13, [r0, #8]
 779              	.LVL141:
 425:Drivers/CMSIS/DSP/Source/TransformFunctions/arm_cfft_radix4_f32.c ****       ybIn = ptr1[3];
 780              		.loc 1 425 7 is_stmt 1 discriminator 1 view .LVU343
 781              		.loc 1 425 12 is_stmt 0 discriminator 1 view .LVU344
 782 0320 90ED036A 		vldr.32	s12, [r0, #12]
 783              	.LVL142:
 426:Drivers/CMSIS/DSP/Source/TransformFunctions/arm_cfft_radix4_f32.c ****       xcIn = ptr1[4];
 784              		.loc 1 426 7 is_stmt 1 discriminator 1 view .LVU345
 785              		.loc 1 426 12 is_stmt 0 discriminator 1 view .LVU346
 786 0324 D0ED045A 		vldr.32	s11, [r0, #16]
 787              	.LVL143:
 427:Drivers/CMSIS/DSP/Source/TransformFunctions/arm_cfft_radix4_f32.c ****       ycIn = ptr1[5];
 788              		.loc 1 427 7 is_stmt 1 discriminator 1 view .LVU347
 789              		.loc 1 427 12 is_stmt 0 discriminator 1 view .LVU348
 790 0328 D0ED054A 		vldr.32	s9, [r0, #20]
 791              	.LVL144:
 428:Drivers/CMSIS/DSP/Source/TransformFunctions/arm_cfft_radix4_f32.c ****       xdIn = ptr1[6];
 792              		.loc 1 428 7 is_stmt 1 discriminator 1 view .LVU349
 793              		.loc 1 428 12 is_stmt 0 discriminator 1 view .LVU350
 794 032c 90ED063A 		vldr.32	s6, [r0, #24]
 795              	.LVL145:
 429:Drivers/CMSIS/DSP/Source/TransformFunctions/arm_cfft_radix4_f32.c ****       ydIn = ptr1[7];
 796              		.loc 1 429 7 is_stmt 1 discriminator 1 view .LVU351
 797              		.loc 1 429 12 is_stmt 0 discriminator 1 view .LVU352
 798 0330 D0ED073A 		vldr.32	s7, [r0, #28]
 799              	.LVL146:
 430:Drivers/CMSIS/DSP/Source/TransformFunctions/arm_cfft_radix4_f32.c **** 
 431:Drivers/CMSIS/DSP/Source/TransformFunctions/arm_cfft_radix4_f32.c ****       /* xa + xc */
 432:Drivers/CMSIS/DSP/Source/TransformFunctions/arm_cfft_radix4_f32.c ****       Xaplusc = xaIn + xcIn;
 800              		.loc 1 432 7 is_stmt 1 discriminator 1 view .LVU353
 801              		.loc 1 432 15 is_stmt 0 discriminator 1 view .LVU354
 802 0334 37EE255A 		vadd.f32	s10, s14, s11
 803              	.LVL147:
 433:Drivers/CMSIS/DSP/Source/TransformFunctions/arm_cfft_radix4_f32.c **** 
 434:Drivers/CMSIS/DSP/Source/TransformFunctions/arm_cfft_radix4_f32.c ****       /* xa - xc */
 435:Drivers/CMSIS/DSP/Source/TransformFunctions/arm_cfft_radix4_f32.c ****       Xaminusc = xaIn - xcIn;
 804              		.loc 1 435 7 is_stmt 1 discriminator 1 view .LVU355
 805              		.loc 1 435 16 is_stmt 0 discriminator 1 view .LVU356
 806 0338 37EE657A 		vsub.f32	s14, s14, s11
 807              	.LVL148:
 436:Drivers/CMSIS/DSP/Source/TransformFunctions/arm_cfft_radix4_f32.c **** 
 437:Drivers/CMSIS/DSP/Source/TransformFunctions/arm_cfft_radix4_f32.c ****       /* ya + yc */
 438:Drivers/CMSIS/DSP/Source/TransformFunctions/arm_cfft_radix4_f32.c ****       Yaplusc = yaIn + ycIn;
 808              		.loc 1 438 7 is_stmt 1 discriminator 1 view .LVU357
ARM GAS  C:\Users\17832\AppData\Local\Temp\ccxoZ2T5.s 			page 23


 809              		.loc 1 438 15 is_stmt 0 discriminator 1 view .LVU358
 810 033c 77EEA45A 		vadd.f32	s11, s15, s9
 811              	.LVL149:
 439:Drivers/CMSIS/DSP/Source/TransformFunctions/arm_cfft_radix4_f32.c **** 
 440:Drivers/CMSIS/DSP/Source/TransformFunctions/arm_cfft_radix4_f32.c ****       /* ya - yc */
 441:Drivers/CMSIS/DSP/Source/TransformFunctions/arm_cfft_radix4_f32.c ****       Yaminusc = yaIn - ycIn;
 812              		.loc 1 441 7 is_stmt 1 discriminator 1 view .LVU359
 813              		.loc 1 441 16 is_stmt 0 discriminator 1 view .LVU360
 814 0340 77EEE47A 		vsub.f32	s15, s15, s9
 815              	.LVL150:
 442:Drivers/CMSIS/DSP/Source/TransformFunctions/arm_cfft_radix4_f32.c **** 
 443:Drivers/CMSIS/DSP/Source/TransformFunctions/arm_cfft_radix4_f32.c ****       /* xb + xd */
 444:Drivers/CMSIS/DSP/Source/TransformFunctions/arm_cfft_radix4_f32.c ****       Xbplusd = xbIn + xdIn;
 816              		.loc 1 444 7 is_stmt 1 discriminator 1 view .LVU361
 817              		.loc 1 444 15 is_stmt 0 discriminator 1 view .LVU362
 818 0344 36EE834A 		vadd.f32	s8, s13, s6
 819              	.LVL151:
 445:Drivers/CMSIS/DSP/Source/TransformFunctions/arm_cfft_radix4_f32.c **** 
 446:Drivers/CMSIS/DSP/Source/TransformFunctions/arm_cfft_radix4_f32.c ****       /* yb + yd */
 447:Drivers/CMSIS/DSP/Source/TransformFunctions/arm_cfft_radix4_f32.c ****       Ybplusd = ybIn + ydIn;
 820              		.loc 1 447 7 is_stmt 1 discriminator 1 view .LVU363
 821              		.loc 1 447 15 is_stmt 0 discriminator 1 view .LVU364
 822 0348 76EE234A 		vadd.f32	s9, s12, s7
 823              	.LVL152:
 448:Drivers/CMSIS/DSP/Source/TransformFunctions/arm_cfft_radix4_f32.c **** 
 449:Drivers/CMSIS/DSP/Source/TransformFunctions/arm_cfft_radix4_f32.c ****       /* (xb-xd) */
 450:Drivers/CMSIS/DSP/Source/TransformFunctions/arm_cfft_radix4_f32.c ****       Xbminusd = xbIn - xdIn;
 824              		.loc 1 450 7 is_stmt 1 discriminator 1 view .LVU365
 825              		.loc 1 450 16 is_stmt 0 discriminator 1 view .LVU366
 826 034c 76EEC36A 		vsub.f32	s13, s13, s6
 827              	.LVL153:
 451:Drivers/CMSIS/DSP/Source/TransformFunctions/arm_cfft_radix4_f32.c **** 
 452:Drivers/CMSIS/DSP/Source/TransformFunctions/arm_cfft_radix4_f32.c ****       /* (yb-yd) */
 453:Drivers/CMSIS/DSP/Source/TransformFunctions/arm_cfft_radix4_f32.c ****       Ybminusd = ybIn - ydIn;
 828              		.loc 1 453 7 is_stmt 1 discriminator 1 view .LVU367
 829              		.loc 1 453 16 is_stmt 0 discriminator 1 view .LVU368
 830 0350 36EE636A 		vsub.f32	s12, s12, s7
 831              	.LVL154:
 454:Drivers/CMSIS/DSP/Source/TransformFunctions/arm_cfft_radix4_f32.c **** 
 455:Drivers/CMSIS/DSP/Source/TransformFunctions/arm_cfft_radix4_f32.c ****       /* xa' = xa + xb + xc + xd */
 456:Drivers/CMSIS/DSP/Source/TransformFunctions/arm_cfft_radix4_f32.c ****       a0 = (Xaplusc + Xbplusd);
 832              		.loc 1 456 7 is_stmt 1 discriminator 1 view .LVU369
 833              		.loc 1 456 10 is_stmt 0 discriminator 1 view .LVU370
 834 0354 35EE043A 		vadd.f32	s6, s10, s8
 835              	.LVL155:
 457:Drivers/CMSIS/DSP/Source/TransformFunctions/arm_cfft_radix4_f32.c ****       /* ya' = ya + yb + yc + yd */
 458:Drivers/CMSIS/DSP/Source/TransformFunctions/arm_cfft_radix4_f32.c ****       a1 = (Yaplusc + Ybplusd);
 836              		.loc 1 458 7 is_stmt 1 discriminator 1 view .LVU371
 837              		.loc 1 458 10 is_stmt 0 discriminator 1 view .LVU372
 838 0358 75EEA43A 		vadd.f32	s7, s11, s9
 839              	.LVL156:
 459:Drivers/CMSIS/DSP/Source/TransformFunctions/arm_cfft_radix4_f32.c ****       /* xc' = (xa-xb+xc-xd) */
 460:Drivers/CMSIS/DSP/Source/TransformFunctions/arm_cfft_radix4_f32.c ****       a2 = (Xaplusc - Xbplusd);
 840              		.loc 1 460 7 is_stmt 1 discriminator 1 view .LVU373
 841              		.loc 1 460 10 is_stmt 0 discriminator 1 view .LVU374
 842 035c 35EE445A 		vsub.f32	s10, s10, s8
 843              	.LVL157:
ARM GAS  C:\Users\17832\AppData\Local\Temp\ccxoZ2T5.s 			page 24


 461:Drivers/CMSIS/DSP/Source/TransformFunctions/arm_cfft_radix4_f32.c ****       /* yc' = (ya-yb+yc-yd) */
 462:Drivers/CMSIS/DSP/Source/TransformFunctions/arm_cfft_radix4_f32.c ****       a3 = (Yaplusc - Ybplusd);
 844              		.loc 1 462 7 is_stmt 1 discriminator 1 view .LVU375
 845              		.loc 1 462 10 is_stmt 0 discriminator 1 view .LVU376
 846 0360 75EEE45A 		vsub.f32	s11, s11, s9
 847              	.LVL158:
 463:Drivers/CMSIS/DSP/Source/TransformFunctions/arm_cfft_radix4_f32.c ****       /* xb' = (xa+yb-xc-yd) */
 464:Drivers/CMSIS/DSP/Source/TransformFunctions/arm_cfft_radix4_f32.c ****       a4 = (Xaminusc + Ybminusd);
 848              		.loc 1 464 7 is_stmt 1 discriminator 1 view .LVU377
 849              		.loc 1 464 10 is_stmt 0 discriminator 1 view .LVU378
 850 0364 37EE064A 		vadd.f32	s8, s14, s12
 851              	.LVL159:
 465:Drivers/CMSIS/DSP/Source/TransformFunctions/arm_cfft_radix4_f32.c ****       /* yb' = (ya-xb-yc+xd) */
 466:Drivers/CMSIS/DSP/Source/TransformFunctions/arm_cfft_radix4_f32.c ****       a5 = (Yaminusc - Xbminusd);
 852              		.loc 1 466 7 is_stmt 1 discriminator 1 view .LVU379
 853              		.loc 1 466 10 is_stmt 0 discriminator 1 view .LVU380
 854 0368 77EEE64A 		vsub.f32	s9, s15, s13
 855              	.LVL160:
 467:Drivers/CMSIS/DSP/Source/TransformFunctions/arm_cfft_radix4_f32.c ****       /* xd' = (xa-yb-xc+yd)) */
 468:Drivers/CMSIS/DSP/Source/TransformFunctions/arm_cfft_radix4_f32.c ****       a6 = (Xaminusc - Ybminusd);
 856              		.loc 1 468 7 is_stmt 1 discriminator 1 view .LVU381
 857              		.loc 1 468 10 is_stmt 0 discriminator 1 view .LVU382
 858 036c 37EE467A 		vsub.f32	s14, s14, s12
 859              	.LVL161:
 469:Drivers/CMSIS/DSP/Source/TransformFunctions/arm_cfft_radix4_f32.c ****       /* yd' = (ya+xb-yc-xd) */
 470:Drivers/CMSIS/DSP/Source/TransformFunctions/arm_cfft_radix4_f32.c ****       a7 = (Xbminusd + Yaminusc);
 860              		.loc 1 470 7 is_stmt 1 discriminator 1 view .LVU383
 861              		.loc 1 470 10 is_stmt 0 discriminator 1 view .LVU384
 862 0370 77EEA67A 		vadd.f32	s15, s15, s13
 863              	.LVL162:
 471:Drivers/CMSIS/DSP/Source/TransformFunctions/arm_cfft_radix4_f32.c **** 
 472:Drivers/CMSIS/DSP/Source/TransformFunctions/arm_cfft_radix4_f32.c ****       ptr1[0] = a0;
 864              		.loc 1 472 7 is_stmt 1 discriminator 1 view .LVU385
 865              		.loc 1 472 15 is_stmt 0 discriminator 1 view .LVU386
 866 0374 80ED003A 		vstr.32	s6, [r0]
 867              	.LVL163:
 473:Drivers/CMSIS/DSP/Source/TransformFunctions/arm_cfft_radix4_f32.c ****       ptr1[1] = a1;
 868              		.loc 1 473 7 is_stmt 1 discriminator 1 view .LVU387
 869              		.loc 1 473 15 is_stmt 0 discriminator 1 view .LVU388
 870 0378 C0ED013A 		vstr.32	s7, [r0, #4]
 871              	.LVL164:
 474:Drivers/CMSIS/DSP/Source/TransformFunctions/arm_cfft_radix4_f32.c ****       ptr1[2] = a2;
 872              		.loc 1 474 7 is_stmt 1 discriminator 1 view .LVU389
 873              		.loc 1 474 15 is_stmt 0 discriminator 1 view .LVU390
 874 037c 80ED025A 		vstr.32	s10, [r0, #8]
 875              	.LVL165:
 475:Drivers/CMSIS/DSP/Source/TransformFunctions/arm_cfft_radix4_f32.c ****       ptr1[3] = a3;
 876              		.loc 1 475 7 is_stmt 1 discriminator 1 view .LVU391
 877              		.loc 1 475 15 is_stmt 0 discriminator 1 view .LVU392
 878 0380 C0ED035A 		vstr.32	s11, [r0, #12]
 879              	.LVL166:
 476:Drivers/CMSIS/DSP/Source/TransformFunctions/arm_cfft_radix4_f32.c ****       ptr1[4] = a4;
 880              		.loc 1 476 7 is_stmt 1 discriminator 1 view .LVU393
 881              		.loc 1 476 15 is_stmt 0 discriminator 1 view .LVU394
 882 0384 80ED044A 		vstr.32	s8, [r0, #16]
 883              	.LVL167:
 477:Drivers/CMSIS/DSP/Source/TransformFunctions/arm_cfft_radix4_f32.c ****       ptr1[5] = a5;
ARM GAS  C:\Users\17832\AppData\Local\Temp\ccxoZ2T5.s 			page 25


 884              		.loc 1 477 7 is_stmt 1 discriminator 1 view .LVU395
 885              		.loc 1 477 15 is_stmt 0 discriminator 1 view .LVU396
 886 0388 C0ED054A 		vstr.32	s9, [r0, #20]
 887              	.LVL168:
 478:Drivers/CMSIS/DSP/Source/TransformFunctions/arm_cfft_radix4_f32.c ****       ptr1[6] = a6;
 888              		.loc 1 478 7 is_stmt 1 discriminator 1 view .LVU397
 889              		.loc 1 478 15 is_stmt 0 discriminator 1 view .LVU398
 890 038c 80ED067A 		vstr.32	s14, [r0, #24]
 891              	.LVL169:
 479:Drivers/CMSIS/DSP/Source/TransformFunctions/arm_cfft_radix4_f32.c ****       ptr1[7] = a7;
 892              		.loc 1 479 7 is_stmt 1 discriminator 1 view .LVU399
 893              		.loc 1 479 15 is_stmt 0 discriminator 1 view .LVU400
 894 0390 C0ED077A 		vstr.32	s15, [r0, #28]
 895              	.LVL170:
 480:Drivers/CMSIS/DSP/Source/TransformFunctions/arm_cfft_radix4_f32.c **** 
 481:Drivers/CMSIS/DSP/Source/TransformFunctions/arm_cfft_radix4_f32.c ****       /* increment pointer by 8 */
 482:Drivers/CMSIS/DSP/Source/TransformFunctions/arm_cfft_radix4_f32.c ****       ptr1 += 8U;
 896              		.loc 1 482 7 is_stmt 1 discriminator 1 view .LVU401
 897              		.loc 1 482 12 is_stmt 0 discriminator 1 view .LVU402
 898 0394 2030     		adds	r0, r0, #32
 899              	.LVL171:
 483:Drivers/CMSIS/DSP/Source/TransformFunctions/arm_cfft_radix4_f32.c ****    } while (--j);
 900              		.loc 1 483 12 is_stmt 1 discriminator 1 view .LVU403
 901              		.loc 1 483 4 is_stmt 0 discriminator 1 view .LVU404
 902 0396 013B     		subs	r3, r3, #1
 903              	.LVL172:
 904              		.loc 1 483 4 discriminator 1 view .LVU405
 905 0398 BCD1     		bne	.L7
 484:Drivers/CMSIS/DSP/Source/TransformFunctions/arm_cfft_radix4_f32.c **** 
 485:Drivers/CMSIS/DSP/Source/TransformFunctions/arm_cfft_radix4_f32.c **** #else
 486:Drivers/CMSIS/DSP/Source/TransformFunctions/arm_cfft_radix4_f32.c **** 
 487:Drivers/CMSIS/DSP/Source/TransformFunctions/arm_cfft_radix4_f32.c ****    float32_t t1, t2, r1, r2, s1, s2;
 488:Drivers/CMSIS/DSP/Source/TransformFunctions/arm_cfft_radix4_f32.c **** 
 489:Drivers/CMSIS/DSP/Source/TransformFunctions/arm_cfft_radix4_f32.c ****    /* Run the below code for Cortex-M0 */
 490:Drivers/CMSIS/DSP/Source/TransformFunctions/arm_cfft_radix4_f32.c **** 
 491:Drivers/CMSIS/DSP/Source/TransformFunctions/arm_cfft_radix4_f32.c ****    /*  Initializations for the fft calculation */
 492:Drivers/CMSIS/DSP/Source/TransformFunctions/arm_cfft_radix4_f32.c ****    n2 = fftLen;
 493:Drivers/CMSIS/DSP/Source/TransformFunctions/arm_cfft_radix4_f32.c ****    n1 = n2;
 494:Drivers/CMSIS/DSP/Source/TransformFunctions/arm_cfft_radix4_f32.c ****    for (k = fftLen; k > 1U; k >>= 2U)
 495:Drivers/CMSIS/DSP/Source/TransformFunctions/arm_cfft_radix4_f32.c ****    {
 496:Drivers/CMSIS/DSP/Source/TransformFunctions/arm_cfft_radix4_f32.c ****       /*  Initializations for the fft calculation */
 497:Drivers/CMSIS/DSP/Source/TransformFunctions/arm_cfft_radix4_f32.c ****       n1 = n2;
 498:Drivers/CMSIS/DSP/Source/TransformFunctions/arm_cfft_radix4_f32.c ****       n2 >>= 2U;
 499:Drivers/CMSIS/DSP/Source/TransformFunctions/arm_cfft_radix4_f32.c ****       ia1 = 0U;
 500:Drivers/CMSIS/DSP/Source/TransformFunctions/arm_cfft_radix4_f32.c **** 
 501:Drivers/CMSIS/DSP/Source/TransformFunctions/arm_cfft_radix4_f32.c ****       /*  FFT Calculation */
 502:Drivers/CMSIS/DSP/Source/TransformFunctions/arm_cfft_radix4_f32.c ****       j = 0;
 503:Drivers/CMSIS/DSP/Source/TransformFunctions/arm_cfft_radix4_f32.c ****       do
 504:Drivers/CMSIS/DSP/Source/TransformFunctions/arm_cfft_radix4_f32.c ****       {
 505:Drivers/CMSIS/DSP/Source/TransformFunctions/arm_cfft_radix4_f32.c ****          /*  index calculation for the coefficients */
 506:Drivers/CMSIS/DSP/Source/TransformFunctions/arm_cfft_radix4_f32.c ****          ia2 = ia1 + ia1;
 507:Drivers/CMSIS/DSP/Source/TransformFunctions/arm_cfft_radix4_f32.c ****          ia3 = ia2 + ia1;
 508:Drivers/CMSIS/DSP/Source/TransformFunctions/arm_cfft_radix4_f32.c ****          co1 = pCoef[ia1 * 2U];
 509:Drivers/CMSIS/DSP/Source/TransformFunctions/arm_cfft_radix4_f32.c ****          si1 = pCoef[(ia1 * 2U) + 1U];
 510:Drivers/CMSIS/DSP/Source/TransformFunctions/arm_cfft_radix4_f32.c ****          co2 = pCoef[ia2 * 2U];
 511:Drivers/CMSIS/DSP/Source/TransformFunctions/arm_cfft_radix4_f32.c ****          si2 = pCoef[(ia2 * 2U) + 1U];
 512:Drivers/CMSIS/DSP/Source/TransformFunctions/arm_cfft_radix4_f32.c ****          co3 = pCoef[ia3 * 2U];
ARM GAS  C:\Users\17832\AppData\Local\Temp\ccxoZ2T5.s 			page 26


 513:Drivers/CMSIS/DSP/Source/TransformFunctions/arm_cfft_radix4_f32.c ****          si3 = pCoef[(ia3 * 2U) + 1U];
 514:Drivers/CMSIS/DSP/Source/TransformFunctions/arm_cfft_radix4_f32.c **** 
 515:Drivers/CMSIS/DSP/Source/TransformFunctions/arm_cfft_radix4_f32.c ****          /*  Twiddle coefficients index modifier */
 516:Drivers/CMSIS/DSP/Source/TransformFunctions/arm_cfft_radix4_f32.c ****          ia1 = ia1 + twidCoefModifier;
 517:Drivers/CMSIS/DSP/Source/TransformFunctions/arm_cfft_radix4_f32.c **** 
 518:Drivers/CMSIS/DSP/Source/TransformFunctions/arm_cfft_radix4_f32.c ****          i0 = j;
 519:Drivers/CMSIS/DSP/Source/TransformFunctions/arm_cfft_radix4_f32.c ****          do
 520:Drivers/CMSIS/DSP/Source/TransformFunctions/arm_cfft_radix4_f32.c ****          {
 521:Drivers/CMSIS/DSP/Source/TransformFunctions/arm_cfft_radix4_f32.c ****             /*  index calculation for the input as, */
 522:Drivers/CMSIS/DSP/Source/TransformFunctions/arm_cfft_radix4_f32.c ****             /*  pSrc[i0 + 0], pSrc[i0 + fftLen/4], pSrc[i0 + fftLen/2], pSrc[i0 + 3fftLen/4] */
 523:Drivers/CMSIS/DSP/Source/TransformFunctions/arm_cfft_radix4_f32.c ****             i1 = i0 + n2;
 524:Drivers/CMSIS/DSP/Source/TransformFunctions/arm_cfft_radix4_f32.c ****             i2 = i1 + n2;
 525:Drivers/CMSIS/DSP/Source/TransformFunctions/arm_cfft_radix4_f32.c ****             i3 = i2 + n2;
 526:Drivers/CMSIS/DSP/Source/TransformFunctions/arm_cfft_radix4_f32.c **** 
 527:Drivers/CMSIS/DSP/Source/TransformFunctions/arm_cfft_radix4_f32.c ****             /* xa + xc */
 528:Drivers/CMSIS/DSP/Source/TransformFunctions/arm_cfft_radix4_f32.c ****             r1 = pSrc[(2U * i0)] + pSrc[(2U * i2)];
 529:Drivers/CMSIS/DSP/Source/TransformFunctions/arm_cfft_radix4_f32.c **** 
 530:Drivers/CMSIS/DSP/Source/TransformFunctions/arm_cfft_radix4_f32.c ****             /* xa - xc */
 531:Drivers/CMSIS/DSP/Source/TransformFunctions/arm_cfft_radix4_f32.c ****             r2 = pSrc[(2U * i0)] - pSrc[(2U * i2)];
 532:Drivers/CMSIS/DSP/Source/TransformFunctions/arm_cfft_radix4_f32.c **** 
 533:Drivers/CMSIS/DSP/Source/TransformFunctions/arm_cfft_radix4_f32.c ****             /* ya + yc */
 534:Drivers/CMSIS/DSP/Source/TransformFunctions/arm_cfft_radix4_f32.c ****             s1 = pSrc[(2U * i0) + 1U] + pSrc[(2U * i2) + 1U];
 535:Drivers/CMSIS/DSP/Source/TransformFunctions/arm_cfft_radix4_f32.c **** 
 536:Drivers/CMSIS/DSP/Source/TransformFunctions/arm_cfft_radix4_f32.c ****             /* ya - yc */
 537:Drivers/CMSIS/DSP/Source/TransformFunctions/arm_cfft_radix4_f32.c ****             s2 = pSrc[(2U * i0) + 1U] - pSrc[(2U * i2) + 1U];
 538:Drivers/CMSIS/DSP/Source/TransformFunctions/arm_cfft_radix4_f32.c **** 
 539:Drivers/CMSIS/DSP/Source/TransformFunctions/arm_cfft_radix4_f32.c ****             /* xb + xd */
 540:Drivers/CMSIS/DSP/Source/TransformFunctions/arm_cfft_radix4_f32.c ****             t1 = pSrc[2U * i1] + pSrc[2U * i3];
 541:Drivers/CMSIS/DSP/Source/TransformFunctions/arm_cfft_radix4_f32.c **** 
 542:Drivers/CMSIS/DSP/Source/TransformFunctions/arm_cfft_radix4_f32.c ****             /* xa' = xa + xb + xc + xd */
 543:Drivers/CMSIS/DSP/Source/TransformFunctions/arm_cfft_radix4_f32.c ****             pSrc[2U * i0] = r1 + t1;
 544:Drivers/CMSIS/DSP/Source/TransformFunctions/arm_cfft_radix4_f32.c **** 
 545:Drivers/CMSIS/DSP/Source/TransformFunctions/arm_cfft_radix4_f32.c ****             /* xa + xc -(xb + xd) */
 546:Drivers/CMSIS/DSP/Source/TransformFunctions/arm_cfft_radix4_f32.c ****             r1 = r1 - t1;
 547:Drivers/CMSIS/DSP/Source/TransformFunctions/arm_cfft_radix4_f32.c **** 
 548:Drivers/CMSIS/DSP/Source/TransformFunctions/arm_cfft_radix4_f32.c ****             /* yb + yd */
 549:Drivers/CMSIS/DSP/Source/TransformFunctions/arm_cfft_radix4_f32.c ****             t2 = pSrc[(2U * i1) + 1U] + pSrc[(2U * i3) + 1U];
 550:Drivers/CMSIS/DSP/Source/TransformFunctions/arm_cfft_radix4_f32.c **** 
 551:Drivers/CMSIS/DSP/Source/TransformFunctions/arm_cfft_radix4_f32.c ****             /* ya' = ya + yb + yc + yd */
 552:Drivers/CMSIS/DSP/Source/TransformFunctions/arm_cfft_radix4_f32.c ****             pSrc[(2U * i0) + 1U] = s1 + t2;
 553:Drivers/CMSIS/DSP/Source/TransformFunctions/arm_cfft_radix4_f32.c **** 
 554:Drivers/CMSIS/DSP/Source/TransformFunctions/arm_cfft_radix4_f32.c ****             /* (ya + yc) - (yb + yd) */
 555:Drivers/CMSIS/DSP/Source/TransformFunctions/arm_cfft_radix4_f32.c ****             s1 = s1 - t2;
 556:Drivers/CMSIS/DSP/Source/TransformFunctions/arm_cfft_radix4_f32.c **** 
 557:Drivers/CMSIS/DSP/Source/TransformFunctions/arm_cfft_radix4_f32.c ****             /* (yb - yd) */
 558:Drivers/CMSIS/DSP/Source/TransformFunctions/arm_cfft_radix4_f32.c ****             t1 = pSrc[(2U * i1) + 1U] - pSrc[(2U * i3) + 1U];
 559:Drivers/CMSIS/DSP/Source/TransformFunctions/arm_cfft_radix4_f32.c **** 
 560:Drivers/CMSIS/DSP/Source/TransformFunctions/arm_cfft_radix4_f32.c ****             /* (xb - xd) */
 561:Drivers/CMSIS/DSP/Source/TransformFunctions/arm_cfft_radix4_f32.c ****             t2 = pSrc[2U * i1] - pSrc[2U * i3];
 562:Drivers/CMSIS/DSP/Source/TransformFunctions/arm_cfft_radix4_f32.c **** 
 563:Drivers/CMSIS/DSP/Source/TransformFunctions/arm_cfft_radix4_f32.c ****             /* xc' = (xa-xb+xc-xd)co2 + (ya-yb+yc-yd)(si2) */
 564:Drivers/CMSIS/DSP/Source/TransformFunctions/arm_cfft_radix4_f32.c ****             pSrc[2U * i1] = (r1 * co2) + (s1 * si2);
 565:Drivers/CMSIS/DSP/Source/TransformFunctions/arm_cfft_radix4_f32.c **** 
 566:Drivers/CMSIS/DSP/Source/TransformFunctions/arm_cfft_radix4_f32.c ****             /* yc' = (ya-yb+yc-yd)co2 - (xa-xb+xc-xd)(si2) */
 567:Drivers/CMSIS/DSP/Source/TransformFunctions/arm_cfft_radix4_f32.c ****             pSrc[(2U * i1) + 1U] = (s1 * co2) - (r1 * si2);
 568:Drivers/CMSIS/DSP/Source/TransformFunctions/arm_cfft_radix4_f32.c **** 
 569:Drivers/CMSIS/DSP/Source/TransformFunctions/arm_cfft_radix4_f32.c ****             /* (xa - xc) + (yb - yd) */
ARM GAS  C:\Users\17832\AppData\Local\Temp\ccxoZ2T5.s 			page 27


 570:Drivers/CMSIS/DSP/Source/TransformFunctions/arm_cfft_radix4_f32.c ****             r1 = r2 + t1;
 571:Drivers/CMSIS/DSP/Source/TransformFunctions/arm_cfft_radix4_f32.c **** 
 572:Drivers/CMSIS/DSP/Source/TransformFunctions/arm_cfft_radix4_f32.c ****             /* (xa - xc) - (yb - yd) */
 573:Drivers/CMSIS/DSP/Source/TransformFunctions/arm_cfft_radix4_f32.c ****             r2 = r2 - t1;
 574:Drivers/CMSIS/DSP/Source/TransformFunctions/arm_cfft_radix4_f32.c **** 
 575:Drivers/CMSIS/DSP/Source/TransformFunctions/arm_cfft_radix4_f32.c ****             /* (ya - yc) -  (xb - xd) */
 576:Drivers/CMSIS/DSP/Source/TransformFunctions/arm_cfft_radix4_f32.c ****             s1 = s2 - t2;
 577:Drivers/CMSIS/DSP/Source/TransformFunctions/arm_cfft_radix4_f32.c **** 
 578:Drivers/CMSIS/DSP/Source/TransformFunctions/arm_cfft_radix4_f32.c ****             /* (ya - yc) +  (xb - xd) */
 579:Drivers/CMSIS/DSP/Source/TransformFunctions/arm_cfft_radix4_f32.c ****             s2 = s2 + t2;
 580:Drivers/CMSIS/DSP/Source/TransformFunctions/arm_cfft_radix4_f32.c **** 
 581:Drivers/CMSIS/DSP/Source/TransformFunctions/arm_cfft_radix4_f32.c ****             /* xb' = (xa+yb-xc-yd)co1 + (ya-xb-yc+xd)(si1) */
 582:Drivers/CMSIS/DSP/Source/TransformFunctions/arm_cfft_radix4_f32.c ****             pSrc[2U * i2] = (r1 * co1) + (s1 * si1);
 583:Drivers/CMSIS/DSP/Source/TransformFunctions/arm_cfft_radix4_f32.c **** 
 584:Drivers/CMSIS/DSP/Source/TransformFunctions/arm_cfft_radix4_f32.c ****             /* yb' = (ya-xb-yc+xd)co1 - (xa+yb-xc-yd)(si1) */
 585:Drivers/CMSIS/DSP/Source/TransformFunctions/arm_cfft_radix4_f32.c ****             pSrc[(2U * i2) + 1U] = (s1 * co1) - (r1 * si1);
 586:Drivers/CMSIS/DSP/Source/TransformFunctions/arm_cfft_radix4_f32.c **** 
 587:Drivers/CMSIS/DSP/Source/TransformFunctions/arm_cfft_radix4_f32.c ****             /* xd' = (xa-yb-xc+yd)co3 + (ya+xb-yc-xd)(si3) */
 588:Drivers/CMSIS/DSP/Source/TransformFunctions/arm_cfft_radix4_f32.c ****             pSrc[2U * i3] = (r2 * co3) + (s2 * si3);
 589:Drivers/CMSIS/DSP/Source/TransformFunctions/arm_cfft_radix4_f32.c **** 
 590:Drivers/CMSIS/DSP/Source/TransformFunctions/arm_cfft_radix4_f32.c ****             /* yd' = (ya+xb-yc-xd)co3 - (xa-yb-xc+yd)(si3) */
 591:Drivers/CMSIS/DSP/Source/TransformFunctions/arm_cfft_radix4_f32.c ****             pSrc[(2U * i3) + 1U] = (s2 * co3) - (r2 * si3);
 592:Drivers/CMSIS/DSP/Source/TransformFunctions/arm_cfft_radix4_f32.c **** 
 593:Drivers/CMSIS/DSP/Source/TransformFunctions/arm_cfft_radix4_f32.c ****             i0 += n1;
 594:Drivers/CMSIS/DSP/Source/TransformFunctions/arm_cfft_radix4_f32.c ****          } while ( i0 < fftLen);
 595:Drivers/CMSIS/DSP/Source/TransformFunctions/arm_cfft_radix4_f32.c ****          j++;
 596:Drivers/CMSIS/DSP/Source/TransformFunctions/arm_cfft_radix4_f32.c ****       } while (j <= (n2 - 1U));
 597:Drivers/CMSIS/DSP/Source/TransformFunctions/arm_cfft_radix4_f32.c ****       twidCoefModifier <<= 2U;
 598:Drivers/CMSIS/DSP/Source/TransformFunctions/arm_cfft_radix4_f32.c ****    }
 599:Drivers/CMSIS/DSP/Source/TransformFunctions/arm_cfft_radix4_f32.c **** 
 600:Drivers/CMSIS/DSP/Source/TransformFunctions/arm_cfft_radix4_f32.c **** #endif /* #if defined (ARM_MATH_DSP) */
 601:Drivers/CMSIS/DSP/Source/TransformFunctions/arm_cfft_radix4_f32.c **** 
 602:Drivers/CMSIS/DSP/Source/TransformFunctions/arm_cfft_radix4_f32.c **** }
 906              		.loc 1 602 1 view .LVU406
 907 039a 07B0     		add	sp, sp, #28
 908              	.LCFI3:
 909              		.cfi_def_cfa_offset 44
 910              		@ sp needed
 911 039c BDEC028B 		vldm	sp!, {d8}
 912              	.LCFI4:
 913              		.cfi_restore 80
 914              		.cfi_restore 81
 915              		.cfi_def_cfa_offset 36
 916 03a0 BDE8F08F 		pop	{r4, r5, r6, r7, r8, r9, r10, fp, pc}
 917              		.loc 1 602 1 view .LVU407
 918              		.cfi_endproc
 919              	.LFE136:
 921              		.section	.text.arm_radix4_butterfly_inverse_f32,"ax",%progbits
 922              		.align	1
 923              		.global	arm_radix4_butterfly_inverse_f32
 924              		.syntax unified
 925              		.thumb
 926              		.thumb_func
 928              	arm_radix4_butterfly_inverse_f32:
 929              	.LVL173:
 930              	.LFB137:
 603:Drivers/CMSIS/DSP/Source/TransformFunctions/arm_cfft_radix4_f32.c **** 
ARM GAS  C:\Users\17832\AppData\Local\Temp\ccxoZ2T5.s 			page 28


 604:Drivers/CMSIS/DSP/Source/TransformFunctions/arm_cfft_radix4_f32.c **** /*
 605:Drivers/CMSIS/DSP/Source/TransformFunctions/arm_cfft_radix4_f32.c **** * @brief  Core function for the floating-point CIFFT butterfly process.
 606:Drivers/CMSIS/DSP/Source/TransformFunctions/arm_cfft_radix4_f32.c **** * @param[in, out] *pSrc            points to the in-place buffer of floating-point data type.
 607:Drivers/CMSIS/DSP/Source/TransformFunctions/arm_cfft_radix4_f32.c **** * @param[in]      fftLen           length of the FFT.
 608:Drivers/CMSIS/DSP/Source/TransformFunctions/arm_cfft_radix4_f32.c **** * @param[in]      *pCoef           points to twiddle coefficient buffer.
 609:Drivers/CMSIS/DSP/Source/TransformFunctions/arm_cfft_radix4_f32.c **** * @param[in]      twidCoefModifier twiddle coefficient modifier that supports different size FFTs w
 610:Drivers/CMSIS/DSP/Source/TransformFunctions/arm_cfft_radix4_f32.c **** * @param[in]      onebyfftLen      value of 1/fftLen.
 611:Drivers/CMSIS/DSP/Source/TransformFunctions/arm_cfft_radix4_f32.c **** * @return none.
 612:Drivers/CMSIS/DSP/Source/TransformFunctions/arm_cfft_radix4_f32.c **** */
 613:Drivers/CMSIS/DSP/Source/TransformFunctions/arm_cfft_radix4_f32.c **** 
 614:Drivers/CMSIS/DSP/Source/TransformFunctions/arm_cfft_radix4_f32.c **** void arm_radix4_butterfly_inverse_f32(
 615:Drivers/CMSIS/DSP/Source/TransformFunctions/arm_cfft_radix4_f32.c **** float32_t * pSrc,
 616:Drivers/CMSIS/DSP/Source/TransformFunctions/arm_cfft_radix4_f32.c **** uint16_t fftLen,
 617:Drivers/CMSIS/DSP/Source/TransformFunctions/arm_cfft_radix4_f32.c **** float32_t * pCoef,
 618:Drivers/CMSIS/DSP/Source/TransformFunctions/arm_cfft_radix4_f32.c **** uint16_t twidCoefModifier,
 619:Drivers/CMSIS/DSP/Source/TransformFunctions/arm_cfft_radix4_f32.c **** float32_t onebyfftLen)
 620:Drivers/CMSIS/DSP/Source/TransformFunctions/arm_cfft_radix4_f32.c **** {
 931              		.loc 1 620 1 is_stmt 1 view -0
 932              		.cfi_startproc
 933              		@ args = 0, pretend = 0, frame = 24
 934              		@ frame_needed = 0, uses_anonymous_args = 0
 935              		.loc 1 620 1 is_stmt 0 view .LVU409
 936 0000 2DE9F04F 		push	{r4, r5, r6, r7, r8, r9, r10, fp, lr}
 937              	.LCFI5:
 938              		.cfi_def_cfa_offset 36
 939              		.cfi_offset 4, -36
 940              		.cfi_offset 5, -32
 941              		.cfi_offset 6, -28
 942              		.cfi_offset 7, -24
 943              		.cfi_offset 8, -20
 944              		.cfi_offset 9, -16
 945              		.cfi_offset 10, -12
 946              		.cfi_offset 11, -8
 947              		.cfi_offset 14, -4
 948 0004 2DED048B 		vpush.64	{d8, d9}
 949              	.LCFI6:
 950              		.cfi_def_cfa_offset 52
 951              		.cfi_offset 80, -52
 952              		.cfi_offset 81, -48
 953              		.cfi_offset 82, -44
 954              		.cfi_offset 83, -40
 955 0008 87B0     		sub	sp, sp, #28
 956              	.LCFI7:
 957              		.cfi_def_cfa_offset 80
 958 000a 0292     		str	r2, [sp, #8]
 959 000c 0193     		str	r3, [sp, #4]
 960 000e B0EE408A 		vmov.f32	s16, s0
 621:Drivers/CMSIS/DSP/Source/TransformFunctions/arm_cfft_radix4_f32.c ****    float32_t co1, co2, co3, si1, si2, si3;
 961              		.loc 1 621 4 is_stmt 1 view .LVU410
 622:Drivers/CMSIS/DSP/Source/TransformFunctions/arm_cfft_radix4_f32.c ****    uint32_t ia1, ia2, ia3;
 962              		.loc 1 622 4 view .LVU411
 623:Drivers/CMSIS/DSP/Source/TransformFunctions/arm_cfft_radix4_f32.c ****    uint32_t i0, i1, i2, i3;
 963              		.loc 1 623 4 view .LVU412
 624:Drivers/CMSIS/DSP/Source/TransformFunctions/arm_cfft_radix4_f32.c ****    uint32_t n1, n2, j, k;
 964              		.loc 1 624 4 view .LVU413
 625:Drivers/CMSIS/DSP/Source/TransformFunctions/arm_cfft_radix4_f32.c **** 
 626:Drivers/CMSIS/DSP/Source/TransformFunctions/arm_cfft_radix4_f32.c **** #if defined (ARM_MATH_DSP)
ARM GAS  C:\Users\17832\AppData\Local\Temp\ccxoZ2T5.s 			page 29


 627:Drivers/CMSIS/DSP/Source/TransformFunctions/arm_cfft_radix4_f32.c **** 
 628:Drivers/CMSIS/DSP/Source/TransformFunctions/arm_cfft_radix4_f32.c ****    float32_t xaIn, yaIn, xbIn, ybIn, xcIn, ycIn, xdIn, ydIn;
 965              		.loc 1 628 4 view .LVU414
 629:Drivers/CMSIS/DSP/Source/TransformFunctions/arm_cfft_radix4_f32.c ****    float32_t Xaplusc, Xbplusd, Yaplusc, Ybplusd, Xaminusc, Xbminusd, Yaminusc,
 966              		.loc 1 629 4 view .LVU415
 630:Drivers/CMSIS/DSP/Source/TransformFunctions/arm_cfft_radix4_f32.c ****    Ybminusd;
 631:Drivers/CMSIS/DSP/Source/TransformFunctions/arm_cfft_radix4_f32.c ****    float32_t Xb12C_out, Yb12C_out, Xc12C_out, Yc12C_out, Xd12C_out, Yd12C_out;
 967              		.loc 1 631 4 view .LVU416
 632:Drivers/CMSIS/DSP/Source/TransformFunctions/arm_cfft_radix4_f32.c ****    float32_t Xb12_out, Yb12_out, Xc12_out, Yc12_out, Xd12_out, Yd12_out;
 968              		.loc 1 632 4 view .LVU417
 633:Drivers/CMSIS/DSP/Source/TransformFunctions/arm_cfft_radix4_f32.c ****    float32_t *ptr1;
 969              		.loc 1 633 4 view .LVU418
 634:Drivers/CMSIS/DSP/Source/TransformFunctions/arm_cfft_radix4_f32.c ****    float32_t p0,p1,p2,p3,p4,p5,p6,p7;
 970              		.loc 1 634 4 view .LVU419
 635:Drivers/CMSIS/DSP/Source/TransformFunctions/arm_cfft_radix4_f32.c ****    float32_t a0,a1,a2,a3,a4,a5,a6,a7;
 971              		.loc 1 635 4 view .LVU420
 636:Drivers/CMSIS/DSP/Source/TransformFunctions/arm_cfft_radix4_f32.c **** 
 637:Drivers/CMSIS/DSP/Source/TransformFunctions/arm_cfft_radix4_f32.c **** 
 638:Drivers/CMSIS/DSP/Source/TransformFunctions/arm_cfft_radix4_f32.c ****    /*  Initializations for the first stage */
 639:Drivers/CMSIS/DSP/Source/TransformFunctions/arm_cfft_radix4_f32.c ****    n2 = fftLen;
 972              		.loc 1 639 4 view .LVU421
 973              	.LVL174:
 640:Drivers/CMSIS/DSP/Source/TransformFunctions/arm_cfft_radix4_f32.c ****    n1 = n2;
 974              		.loc 1 640 4 view .LVU422
 641:Drivers/CMSIS/DSP/Source/TransformFunctions/arm_cfft_radix4_f32.c **** 
 642:Drivers/CMSIS/DSP/Source/TransformFunctions/arm_cfft_radix4_f32.c ****    /* n2 = fftLen/4 */
 643:Drivers/CMSIS/DSP/Source/TransformFunctions/arm_cfft_radix4_f32.c ****    n2 >>= 2U;
 975              		.loc 1 643 4 view .LVU423
 976              		.loc 1 643 7 is_stmt 0 view .LVU424
 977 0012 4FEA9109 		lsr	r9, r1, #2
 978              	.LVL175:
 644:Drivers/CMSIS/DSP/Source/TransformFunctions/arm_cfft_radix4_f32.c ****    i0 = 0U;
 979              		.loc 1 644 4 is_stmt 1 view .LVU425
 645:Drivers/CMSIS/DSP/Source/TransformFunctions/arm_cfft_radix4_f32.c ****    ia1 = 0U;
 980              		.loc 1 645 4 view .LVU426
 646:Drivers/CMSIS/DSP/Source/TransformFunctions/arm_cfft_radix4_f32.c **** 
 647:Drivers/CMSIS/DSP/Source/TransformFunctions/arm_cfft_radix4_f32.c ****    j = n2;
 981              		.loc 1 647 4 view .LVU427
 982              		.loc 1 647 6 is_stmt 0 view .LVU428
 983 0016 CDF80C90 		str	r9, [sp, #12]
 644:Drivers/CMSIS/DSP/Source/TransformFunctions/arm_cfft_radix4_f32.c ****    ia1 = 0U;
 984              		.loc 1 644 7 view .LVU429
 985 001a 4FF00008 		mov	r8, #0
 645:Drivers/CMSIS/DSP/Source/TransformFunctions/arm_cfft_radix4_f32.c ****    ia1 = 0U;
 986              		.loc 1 645 8 view .LVU430
 987 001e C246     		mov	r10, r8
 988 0020 0491     		str	r1, [sp, #16]
 989 0022 CB46     		mov	fp, r9
 990 0024 1646     		mov	r6, r2
 991              	.LVL176:
 992              	.L10:
 648:Drivers/CMSIS/DSP/Source/TransformFunctions/arm_cfft_radix4_f32.c **** 
 649:Drivers/CMSIS/DSP/Source/TransformFunctions/arm_cfft_radix4_f32.c ****    /*  Calculation of first stage */
 650:Drivers/CMSIS/DSP/Source/TransformFunctions/arm_cfft_radix4_f32.c ****    do
 993              		.loc 1 650 4 is_stmt 1 discriminator 1 view .LVU431
 651:Drivers/CMSIS/DSP/Source/TransformFunctions/arm_cfft_radix4_f32.c ****    {
 652:Drivers/CMSIS/DSP/Source/TransformFunctions/arm_cfft_radix4_f32.c ****       /*  index calculation for the input as, */
ARM GAS  C:\Users\17832\AppData\Local\Temp\ccxoZ2T5.s 			page 30


 653:Drivers/CMSIS/DSP/Source/TransformFunctions/arm_cfft_radix4_f32.c ****       /*  pSrc[i0 + 0], pSrc[i0 + fftLen/4], pSrc[i0 + fftLen/2], pSrc[i0 + 3fftLen/4] */
 654:Drivers/CMSIS/DSP/Source/TransformFunctions/arm_cfft_radix4_f32.c ****       i1 = i0 + n2;
 994              		.loc 1 654 7 discriminator 1 view .LVU432
 995              		.loc 1 654 10 is_stmt 0 discriminator 1 view .LVU433
 996 0026 08EB0B0C 		add	ip, r8, fp
 997              	.LVL177:
 655:Drivers/CMSIS/DSP/Source/TransformFunctions/arm_cfft_radix4_f32.c ****       i2 = i1 + n2;
 998              		.loc 1 655 7 is_stmt 1 discriminator 1 view .LVU434
 999              		.loc 1 655 10 is_stmt 0 discriminator 1 view .LVU435
 1000 002a 08EB4B01 		add	r1, r8, fp, lsl #1
 1001              	.LVL178:
 656:Drivers/CMSIS/DSP/Source/TransformFunctions/arm_cfft_radix4_f32.c ****       i3 = i2 + n2;
 1002              		.loc 1 656 7 is_stmt 1 discriminator 1 view .LVU436
 1003              		.loc 1 656 10 is_stmt 0 discriminator 1 view .LVU437
 1004 002e 0BEB0107 		add	r7, fp, r1
 1005              	.LVL179:
 657:Drivers/CMSIS/DSP/Source/TransformFunctions/arm_cfft_radix4_f32.c **** 
 658:Drivers/CMSIS/DSP/Source/TransformFunctions/arm_cfft_radix4_f32.c ****       /*  Butterfly implementation */
 659:Drivers/CMSIS/DSP/Source/TransformFunctions/arm_cfft_radix4_f32.c ****       xaIn = pSrc[(2U * i0)];
 1006              		.loc 1 659 7 is_stmt 1 discriminator 1 view .LVU438
 1007              		.loc 1 659 18 is_stmt 0 discriminator 1 view .LVU439
 1008 0032 4FEAC805 		lsl	r5, r8, #3
 1009 0036 00EBC809 		add	r9, r0, r8, lsl #3
 1010              		.loc 1 659 12 discriminator 1 view .LVU440
 1011 003a D9ED007A 		vldr.32	s15, [r9]
 1012              	.LVL180:
 660:Drivers/CMSIS/DSP/Source/TransformFunctions/arm_cfft_radix4_f32.c ****       yaIn = pSrc[(2U * i0) + 1U];
 1013              		.loc 1 660 7 is_stmt 1 discriminator 1 view .LVU441
 1014              		.loc 1 660 18 is_stmt 0 discriminator 1 view .LVU442
 1015 003e 0435     		adds	r5, r5, #4
 1016 0040 0544     		add	r5, r5, r0
 1017              		.loc 1 660 12 discriminator 1 view .LVU443
 1018 0042 95ED007A 		vldr.32	s14, [r5]
 1019              	.LVL181:
 661:Drivers/CMSIS/DSP/Source/TransformFunctions/arm_cfft_radix4_f32.c **** 
 662:Drivers/CMSIS/DSP/Source/TransformFunctions/arm_cfft_radix4_f32.c ****       xcIn = pSrc[(2U * i2)];
 1020              		.loc 1 662 7 is_stmt 1 discriminator 1 view .LVU444
 1021              		.loc 1 662 18 is_stmt 0 discriminator 1 view .LVU445
 1022 0046 CA00     		lsls	r2, r1, #3
 1023 0048 00EBC101 		add	r1, r0, r1, lsl #3
 1024              	.LVL182:
 1025              		.loc 1 662 12 discriminator 1 view .LVU446
 1026 004c 91ED001A 		vldr.32	s2, [r1]
 1027              	.LVL183:
 663:Drivers/CMSIS/DSP/Source/TransformFunctions/arm_cfft_radix4_f32.c ****       ycIn = pSrc[(2U * i2) + 1U];
 1028              		.loc 1 663 7 is_stmt 1 discriminator 1 view .LVU447
 1029              		.loc 1 663 18 is_stmt 0 discriminator 1 view .LVU448
 1030 0050 0432     		adds	r2, r2, #4
 1031 0052 0244     		add	r2, r2, r0
 1032              		.loc 1 663 12 discriminator 1 view .LVU449
 1033 0054 92ED003A 		vldr.32	s6, [r2]
 1034              	.LVL184:
 664:Drivers/CMSIS/DSP/Source/TransformFunctions/arm_cfft_radix4_f32.c **** 
 665:Drivers/CMSIS/DSP/Source/TransformFunctions/arm_cfft_radix4_f32.c ****       xbIn = pSrc[(2U * i1)];
 1035              		.loc 1 665 7 is_stmt 1 discriminator 1 view .LVU450
 1036              		.loc 1 665 18 is_stmt 0 discriminator 1 view .LVU451
 1037 0058 4FEACC04 		lsl	r4, ip, #3
ARM GAS  C:\Users\17832\AppData\Local\Temp\ccxoZ2T5.s 			page 31


 1038 005c 00EBCC0C 		add	ip, r0, ip, lsl #3
 1039              	.LVL185:
 1040              		.loc 1 665 12 discriminator 1 view .LVU452
 1041 0060 9CED006A 		vldr.32	s12, [ip]
 1042              	.LVL186:
 666:Drivers/CMSIS/DSP/Source/TransformFunctions/arm_cfft_radix4_f32.c ****       ybIn = pSrc[(2U * i1) + 1U];
 1043              		.loc 1 666 7 is_stmt 1 discriminator 1 view .LVU453
 1044              		.loc 1 666 18 is_stmt 0 discriminator 1 view .LVU454
 1045 0064 0434     		adds	r4, r4, #4
 1046 0066 0444     		add	r4, r4, r0
 1047              		.loc 1 666 12 discriminator 1 view .LVU455
 1048 0068 D4ED005A 		vldr.32	s11, [r4]
 1049              	.LVL187:
 667:Drivers/CMSIS/DSP/Source/TransformFunctions/arm_cfft_radix4_f32.c **** 
 668:Drivers/CMSIS/DSP/Source/TransformFunctions/arm_cfft_radix4_f32.c ****       xdIn = pSrc[(2U * i3)];
 1050              		.loc 1 668 7 is_stmt 1 discriminator 1 view .LVU456
 1051              		.loc 1 668 18 is_stmt 0 discriminator 1 view .LVU457
 1052 006c FB00     		lsls	r3, r7, #3
 1053 006e 00EBC707 		add	r7, r0, r7, lsl #3
 1054              	.LVL188:
 1055              		.loc 1 668 12 discriminator 1 view .LVU458
 1056 0072 D7ED001A 		vldr.32	s3, [r7]
 1057              	.LVL189:
 669:Drivers/CMSIS/DSP/Source/TransformFunctions/arm_cfft_radix4_f32.c ****       ydIn = pSrc[(2U * i3) + 1U];
 1058              		.loc 1 669 7 is_stmt 1 discriminator 1 view .LVU459
 1059              		.loc 1 669 18 is_stmt 0 discriminator 1 view .LVU460
 1060 0076 0433     		adds	r3, r3, #4
 1061 0078 0344     		add	r3, r3, r0
 1062              		.loc 1 669 12 discriminator 1 view .LVU461
 1063 007a 0093     		str	r3, [sp]
 1064 007c D3ED003A 		vldr.32	s7, [r3]
 1065              	.LVL190:
 670:Drivers/CMSIS/DSP/Source/TransformFunctions/arm_cfft_radix4_f32.c **** 
 671:Drivers/CMSIS/DSP/Source/TransformFunctions/arm_cfft_radix4_f32.c ****       /* xa + xc */
 672:Drivers/CMSIS/DSP/Source/TransformFunctions/arm_cfft_radix4_f32.c ****       Xaplusc = xaIn + xcIn;
 1066              		.loc 1 672 7 is_stmt 1 discriminator 1 view .LVU462
 1067              		.loc 1 672 15 is_stmt 0 discriminator 1 view .LVU463
 1068 0080 77EE814A 		vadd.f32	s9, s15, s2
 1069              	.LVL191:
 673:Drivers/CMSIS/DSP/Source/TransformFunctions/arm_cfft_radix4_f32.c ****       /* xb + xd */
 674:Drivers/CMSIS/DSP/Source/TransformFunctions/arm_cfft_radix4_f32.c ****       Xbplusd = xbIn + xdIn;
 1070              		.loc 1 674 7 is_stmt 1 discriminator 1 view .LVU464
 1071              		.loc 1 674 15 is_stmt 0 discriminator 1 view .LVU465
 1072 0084 36EE212A 		vadd.f32	s4, s12, s3
 1073              	.LVL192:
 675:Drivers/CMSIS/DSP/Source/TransformFunctions/arm_cfft_radix4_f32.c ****       /* ya + yc */
 676:Drivers/CMSIS/DSP/Source/TransformFunctions/arm_cfft_radix4_f32.c ****       Yaplusc = yaIn + ycIn;
 1074              		.loc 1 676 7 is_stmt 1 discriminator 1 view .LVU466
 1075              		.loc 1 676 15 is_stmt 0 discriminator 1 view .LVU467
 1076 0088 77EE036A 		vadd.f32	s13, s14, s6
 1077              	.LVL193:
 677:Drivers/CMSIS/DSP/Source/TransformFunctions/arm_cfft_radix4_f32.c ****       /* yb + yd */
 678:Drivers/CMSIS/DSP/Source/TransformFunctions/arm_cfft_radix4_f32.c ****       Ybplusd = ybIn + ydIn;
 1078              		.loc 1 678 7 is_stmt 1 discriminator 1 view .LVU468
 1079              		.loc 1 678 15 is_stmt 0 discriminator 1 view .LVU469
 1080 008c 75EEA32A 		vadd.f32	s5, s11, s7
 1081              	.LVL194:
ARM GAS  C:\Users\17832\AppData\Local\Temp\ccxoZ2T5.s 			page 32


 679:Drivers/CMSIS/DSP/Source/TransformFunctions/arm_cfft_radix4_f32.c **** 
 680:Drivers/CMSIS/DSP/Source/TransformFunctions/arm_cfft_radix4_f32.c ****       /*  index calculation for the coefficients */
 681:Drivers/CMSIS/DSP/Source/TransformFunctions/arm_cfft_radix4_f32.c ****       ia2 = ia1 + ia1;
 1082              		.loc 1 681 7 is_stmt 1 discriminator 1 view .LVU470
 682:Drivers/CMSIS/DSP/Source/TransformFunctions/arm_cfft_radix4_f32.c ****       co2 = pCoef[ia2 * 2U];
 1083              		.loc 1 682 7 discriminator 1 view .LVU471
 1084              		.loc 1 682 18 is_stmt 0 discriminator 1 view .LVU472
 1085 0090 4FEA0A1E 		lsl	lr, r10, #4
 1086 0094 06EB0A13 		add	r3, r6, r10, lsl #4
 1087              		.loc 1 682 11 discriminator 1 view .LVU473
 1088 0098 93ED005A 		vldr.32	s10, [r3]
 1089              	.LVL195:
 683:Drivers/CMSIS/DSP/Source/TransformFunctions/arm_cfft_radix4_f32.c ****       si2 = pCoef[(ia2 * 2U) + 1U];
 1090              		.loc 1 683 7 is_stmt 1 discriminator 1 view .LVU474
 1091              		.loc 1 683 18 is_stmt 0 discriminator 1 view .LVU475
 1092 009c 0EF1040E 		add	lr, lr, #4
 1093 00a0 B644     		add	lr, lr, r6
 1094              		.loc 1 683 11 discriminator 1 view .LVU476
 1095 00a2 9EED004A 		vldr.32	s8, [lr]
 1096              	.LVL196:
 684:Drivers/CMSIS/DSP/Source/TransformFunctions/arm_cfft_radix4_f32.c **** 
 685:Drivers/CMSIS/DSP/Source/TransformFunctions/arm_cfft_radix4_f32.c ****       /* xa - xc */
 686:Drivers/CMSIS/DSP/Source/TransformFunctions/arm_cfft_radix4_f32.c ****       Xaminusc = xaIn - xcIn;
 1097              		.loc 1 686 7 is_stmt 1 discriminator 1 view .LVU477
 1098              		.loc 1 686 16 is_stmt 0 discriminator 1 view .LVU478
 1099 00a6 77EEC17A 		vsub.f32	s15, s15, s2
 1100              	.LVL197:
 687:Drivers/CMSIS/DSP/Source/TransformFunctions/arm_cfft_radix4_f32.c ****       /* xb - xd */
 688:Drivers/CMSIS/DSP/Source/TransformFunctions/arm_cfft_radix4_f32.c ****       Xbminusd = xbIn - xdIn;
 1101              		.loc 1 688 7 is_stmt 1 discriminator 1 view .LVU479
 1102              		.loc 1 688 16 is_stmt 0 discriminator 1 view .LVU480
 1103 00aa 36EE616A 		vsub.f32	s12, s12, s3
 1104              	.LVL198:
 689:Drivers/CMSIS/DSP/Source/TransformFunctions/arm_cfft_radix4_f32.c ****       /* ya - yc */
 690:Drivers/CMSIS/DSP/Source/TransformFunctions/arm_cfft_radix4_f32.c ****       Yaminusc = yaIn - ycIn;
 1105              		.loc 1 690 7 is_stmt 1 discriminator 1 view .LVU481
 1106              		.loc 1 690 16 is_stmt 0 discriminator 1 view .LVU482
 1107 00ae 37EE437A 		vsub.f32	s14, s14, s6
 1108              	.LVL199:
 691:Drivers/CMSIS/DSP/Source/TransformFunctions/arm_cfft_radix4_f32.c ****       /* yb - yd */
 692:Drivers/CMSIS/DSP/Source/TransformFunctions/arm_cfft_radix4_f32.c ****       Ybminusd = ybIn - ydIn;
 1109              		.loc 1 692 7 is_stmt 1 discriminator 1 view .LVU483
 1110              		.loc 1 692 16 is_stmt 0 discriminator 1 view .LVU484
 1111 00b2 75EEE35A 		vsub.f32	s11, s11, s7
 1112              	.LVL200:
 693:Drivers/CMSIS/DSP/Source/TransformFunctions/arm_cfft_radix4_f32.c **** 
 694:Drivers/CMSIS/DSP/Source/TransformFunctions/arm_cfft_radix4_f32.c ****       /* xa' = xa + xb + xc + xd */
 695:Drivers/CMSIS/DSP/Source/TransformFunctions/arm_cfft_radix4_f32.c ****       pSrc[(2U * i0)] = Xaplusc + Xbplusd;
 1113              		.loc 1 695 7 is_stmt 1 discriminator 1 view .LVU485
 1114              		.loc 1 695 33 is_stmt 0 discriminator 1 view .LVU486
 1115 00b6 74EE823A 		vadd.f32	s7, s9, s4
 1116              	.LVL201:
 1117              		.loc 1 695 23 discriminator 1 view .LVU487
 1118 00ba C9ED003A 		vstr.32	s7, [r9]
 1119              	.LVL202:
 696:Drivers/CMSIS/DSP/Source/TransformFunctions/arm_cfft_radix4_f32.c **** 
 697:Drivers/CMSIS/DSP/Source/TransformFunctions/arm_cfft_radix4_f32.c ****       /* ya' = ya + yb + yc + yd */
ARM GAS  C:\Users\17832\AppData\Local\Temp\ccxoZ2T5.s 			page 33


 698:Drivers/CMSIS/DSP/Source/TransformFunctions/arm_cfft_radix4_f32.c ****       pSrc[(2U * i0) + 1U] = Yaplusc + Ybplusd;
 1120              		.loc 1 698 7 is_stmt 1 discriminator 1 view .LVU488
 1121              		.loc 1 698 38 is_stmt 0 discriminator 1 view .LVU489
 1122 00be 76EEA23A 		vadd.f32	s7, s13, s5
 1123              		.loc 1 698 28 discriminator 1 view .LVU490
 1124 00c2 C5ED003A 		vstr.32	s7, [r5]
 1125              	.LVL203:
 699:Drivers/CMSIS/DSP/Source/TransformFunctions/arm_cfft_radix4_f32.c **** 
 700:Drivers/CMSIS/DSP/Source/TransformFunctions/arm_cfft_radix4_f32.c ****       /* (xa - xc) - (yb - yd) */
 701:Drivers/CMSIS/DSP/Source/TransformFunctions/arm_cfft_radix4_f32.c ****       Xb12C_out = (Xaminusc - Ybminusd);
 1126              		.loc 1 701 7 is_stmt 1 discriminator 1 view .LVU491
 1127              		.loc 1 701 17 is_stmt 0 discriminator 1 view .LVU492
 1128 00c6 77EEE53A 		vsub.f32	s7, s15, s11
 1129              	.LVL204:
 702:Drivers/CMSIS/DSP/Source/TransformFunctions/arm_cfft_radix4_f32.c ****       /* (ya - yc) + (xb - xd) */
 703:Drivers/CMSIS/DSP/Source/TransformFunctions/arm_cfft_radix4_f32.c ****       Yb12C_out = (Yaminusc + Xbminusd);
 1130              		.loc 1 703 7 is_stmt 1 discriminator 1 view .LVU493
 1131              		.loc 1 703 17 is_stmt 0 discriminator 1 view .LVU494
 1132 00ca 36EE073A 		vadd.f32	s6, s12, s14
 1133              	.LVL205:
 704:Drivers/CMSIS/DSP/Source/TransformFunctions/arm_cfft_radix4_f32.c ****       /* (xa + xc) - (xb + xd) */
 705:Drivers/CMSIS/DSP/Source/TransformFunctions/arm_cfft_radix4_f32.c ****       Xc12C_out = (Xaplusc - Xbplusd);
 1134              		.loc 1 705 7 is_stmt 1 discriminator 1 view .LVU495
 1135              		.loc 1 705 17 is_stmt 0 discriminator 1 view .LVU496
 1136 00ce 74EEC24A 		vsub.f32	s9, s9, s4
 1137              	.LVL206:
 706:Drivers/CMSIS/DSP/Source/TransformFunctions/arm_cfft_radix4_f32.c ****       /* (ya + yc) - (yb + yd) */
 707:Drivers/CMSIS/DSP/Source/TransformFunctions/arm_cfft_radix4_f32.c ****       Yc12C_out = (Yaplusc - Ybplusd);
 1138              		.loc 1 707 7 is_stmt 1 discriminator 1 view .LVU497
 1139              		.loc 1 707 17 is_stmt 0 discriminator 1 view .LVU498
 1140 00d2 76EEE26A 		vsub.f32	s13, s13, s5
 1141              	.LVL207:
 708:Drivers/CMSIS/DSP/Source/TransformFunctions/arm_cfft_radix4_f32.c ****       /* (xa - xc) + (yb - yd) */
 709:Drivers/CMSIS/DSP/Source/TransformFunctions/arm_cfft_radix4_f32.c ****       Xd12C_out = (Xaminusc + Ybminusd);
 1142              		.loc 1 709 7 is_stmt 1 discriminator 1 view .LVU499
 1143              		.loc 1 709 17 is_stmt 0 discriminator 1 view .LVU500
 1144 00d6 77EEA57A 		vadd.f32	s15, s15, s11
 1145              	.LVL208:
 710:Drivers/CMSIS/DSP/Source/TransformFunctions/arm_cfft_radix4_f32.c ****       /* (ya - yc) - (xb - xd) */
 711:Drivers/CMSIS/DSP/Source/TransformFunctions/arm_cfft_radix4_f32.c ****       Yd12C_out = (Yaminusc - Xbminusd);
 1146              		.loc 1 711 7 is_stmt 1 discriminator 1 view .LVU501
 1147              		.loc 1 711 17 is_stmt 0 discriminator 1 view .LVU502
 1148 00da 37EE467A 		vsub.f32	s14, s14, s12
 1149              	.LVL209:
 712:Drivers/CMSIS/DSP/Source/TransformFunctions/arm_cfft_radix4_f32.c **** 
 713:Drivers/CMSIS/DSP/Source/TransformFunctions/arm_cfft_radix4_f32.c ****       co1 = pCoef[ia1 * 2U];
 1150              		.loc 1 713 7 is_stmt 1 discriminator 1 view .LVU503
 1151              		.loc 1 713 18 is_stmt 0 discriminator 1 view .LVU504
 1152 00de 4FEACA05 		lsl	r5, r10, #3
 1153 00e2 06EBCA0E 		add	lr, r6, r10, lsl #3
 1154              		.loc 1 713 11 discriminator 1 view .LVU505
 1155 00e6 DEED005A 		vldr.32	s11, [lr]
 1156              	.LVL210:
 714:Drivers/CMSIS/DSP/Source/TransformFunctions/arm_cfft_radix4_f32.c ****       si1 = pCoef[(ia1 * 2U) + 1U];
 1157              		.loc 1 714 7 is_stmt 1 discriminator 1 view .LVU506
 1158              		.loc 1 714 18 is_stmt 0 discriminator 1 view .LVU507
 1159 00ea 0435     		adds	r5, r5, #4
ARM GAS  C:\Users\17832\AppData\Local\Temp\ccxoZ2T5.s 			page 34


 1160 00ec 3544     		add	r5, r5, r6
 1161              		.loc 1 714 11 discriminator 1 view .LVU508
 1162 00ee D5ED000A 		vldr.32	s1, [r5]
 1163              	.LVL211:
 715:Drivers/CMSIS/DSP/Source/TransformFunctions/arm_cfft_radix4_f32.c **** 
 716:Drivers/CMSIS/DSP/Source/TransformFunctions/arm_cfft_radix4_f32.c ****       /*  index calculation for the coefficients */
 717:Drivers/CMSIS/DSP/Source/TransformFunctions/arm_cfft_radix4_f32.c ****       ia3 = ia2 + ia1;
 1164              		.loc 1 717 7 is_stmt 1 discriminator 1 view .LVU509
 718:Drivers/CMSIS/DSP/Source/TransformFunctions/arm_cfft_radix4_f32.c ****       co3 = pCoef[ia3 * 2U];
 1165              		.loc 1 718 7 discriminator 1 view .LVU510
 1166              		.loc 1 718 18 is_stmt 0 discriminator 1 view .LVU511
 1167 00f2 0AEB4A0E 		add	lr, r10, r10, lsl #1
 1168 00f6 4FEACE05 		lsl	r5, lr, #3
 1169 00fa 06EBCE0E 		add	lr, r6, lr, lsl #3
 1170              		.loc 1 718 11 discriminator 1 view .LVU512
 1171 00fe 9EED006A 		vldr.32	s12, [lr]
 1172              	.LVL212:
 719:Drivers/CMSIS/DSP/Source/TransformFunctions/arm_cfft_radix4_f32.c ****       si3 = pCoef[(ia3 * 2U) + 1U];
 1173              		.loc 1 719 7 is_stmt 1 discriminator 1 view .LVU513
 1174              		.loc 1 719 18 is_stmt 0 discriminator 1 view .LVU514
 1175 0102 0435     		adds	r5, r5, #4
 1176 0104 3544     		add	r5, r5, r6
 1177              		.loc 1 719 11 discriminator 1 view .LVU515
 1178 0106 95ED001A 		vldr.32	s2, [r5]
 1179              	.LVL213:
 720:Drivers/CMSIS/DSP/Source/TransformFunctions/arm_cfft_radix4_f32.c **** 
 721:Drivers/CMSIS/DSP/Source/TransformFunctions/arm_cfft_radix4_f32.c ****       Xb12_out = Xb12C_out * co1;
 1180              		.loc 1 721 7 is_stmt 1 discriminator 1 view .LVU516
 1181              		.loc 1 721 16 is_stmt 0 discriminator 1 view .LVU517
 1182 010a 23EEA52A 		vmul.f32	s4, s7, s11
 1183              	.LVL214:
 722:Drivers/CMSIS/DSP/Source/TransformFunctions/arm_cfft_radix4_f32.c ****       Yb12_out = Yb12C_out * co1;
 1184              		.loc 1 722 7 is_stmt 1 discriminator 1 view .LVU518
 1185              		.loc 1 722 16 is_stmt 0 discriminator 1 view .LVU519
 1186 010e 63EE255A 		vmul.f32	s11, s6, s11
 1187              	.LVL215:
 723:Drivers/CMSIS/DSP/Source/TransformFunctions/arm_cfft_radix4_f32.c ****       Xc12_out = Xc12C_out * co2;
 1188              		.loc 1 723 7 is_stmt 1 discriminator 1 view .LVU520
 1189              		.loc 1 723 16 is_stmt 0 discriminator 1 view .LVU521
 1190 0112 65EE241A 		vmul.f32	s3, s10, s9
 1191              	.LVL216:
 724:Drivers/CMSIS/DSP/Source/TransformFunctions/arm_cfft_radix4_f32.c ****       Yc12_out = Yc12C_out * co2;
 1192              		.loc 1 724 7 is_stmt 1 discriminator 1 view .LVU522
 1193              		.loc 1 724 16 is_stmt 0 discriminator 1 view .LVU523
 1194 0116 25EE265A 		vmul.f32	s10, s10, s13
 1195              	.LVL217:
 725:Drivers/CMSIS/DSP/Source/TransformFunctions/arm_cfft_radix4_f32.c ****       Xd12_out = Xd12C_out * co3;
 1196              		.loc 1 725 7 is_stmt 1 discriminator 1 view .LVU524
 1197              		.loc 1 725 16 is_stmt 0 discriminator 1 view .LVU525
 1198 011a 67EE862A 		vmul.f32	s5, s15, s12
 1199              	.LVL218:
 726:Drivers/CMSIS/DSP/Source/TransformFunctions/arm_cfft_radix4_f32.c ****       Yd12_out = Yd12C_out * co3;
 1200              		.loc 1 726 7 is_stmt 1 discriminator 1 view .LVU526
 1201              		.loc 1 726 16 is_stmt 0 discriminator 1 view .LVU527
 1202 011e 27EE066A 		vmul.f32	s12, s14, s12
 1203              	.LVL219:
 727:Drivers/CMSIS/DSP/Source/TransformFunctions/arm_cfft_radix4_f32.c **** 
ARM GAS  C:\Users\17832\AppData\Local\Temp\ccxoZ2T5.s 			page 35


 728:Drivers/CMSIS/DSP/Source/TransformFunctions/arm_cfft_radix4_f32.c ****       /* xb' = (xa+yb-xc-yd)co1 - (ya-xb-yc+xd)(si1) */
 729:Drivers/CMSIS/DSP/Source/TransformFunctions/arm_cfft_radix4_f32.c ****       //Xb12_out -= Yb12C_out * si1;
 730:Drivers/CMSIS/DSP/Source/TransformFunctions/arm_cfft_radix4_f32.c ****       p0 = Yb12C_out * si1;
 1204              		.loc 1 730 7 is_stmt 1 discriminator 1 view .LVU528
 1205              		.loc 1 730 10 is_stmt 0 discriminator 1 view .LVU529
 1206 0122 23EE203A 		vmul.f32	s6, s6, s1
 1207              	.LVL220:
 731:Drivers/CMSIS/DSP/Source/TransformFunctions/arm_cfft_radix4_f32.c ****       /* yb' = (ya-xb-yc+xd)co1 + (xa+yb-xc-yd)(si1) */
 732:Drivers/CMSIS/DSP/Source/TransformFunctions/arm_cfft_radix4_f32.c ****       //Yb12_out += Xb12C_out * si1;
 733:Drivers/CMSIS/DSP/Source/TransformFunctions/arm_cfft_radix4_f32.c ****       p1 = Xb12C_out * si1;
 1208              		.loc 1 733 7 is_stmt 1 discriminator 1 view .LVU530
 1209              		.loc 1 733 10 is_stmt 0 discriminator 1 view .LVU531
 1210 0126 63EEA03A 		vmul.f32	s7, s7, s1
 1211              	.LVL221:
 734:Drivers/CMSIS/DSP/Source/TransformFunctions/arm_cfft_radix4_f32.c ****       /* xc' = (xa-xb+xc-xd)co2 - (ya-yb+yc-yd)(si2) */
 735:Drivers/CMSIS/DSP/Source/TransformFunctions/arm_cfft_radix4_f32.c ****       //Xc12_out -= Yc12C_out * si2;
 736:Drivers/CMSIS/DSP/Source/TransformFunctions/arm_cfft_radix4_f32.c ****       p2 = Yc12C_out * si2;
 1212              		.loc 1 736 7 is_stmt 1 discriminator 1 view .LVU532
 1213              		.loc 1 736 10 is_stmt 0 discriminator 1 view .LVU533
 1214 012a 64EE266A 		vmul.f32	s13, s8, s13
 1215              	.LVL222:
 737:Drivers/CMSIS/DSP/Source/TransformFunctions/arm_cfft_radix4_f32.c ****       /* yc' = (ya-yb+yc-yd)co2 + (xa-xb+xc-xd)(si2) */
 738:Drivers/CMSIS/DSP/Source/TransformFunctions/arm_cfft_radix4_f32.c ****       //Yc12_out += Xc12C_out * si2;
 739:Drivers/CMSIS/DSP/Source/TransformFunctions/arm_cfft_radix4_f32.c ****       p3 = Xc12C_out * si2;
 1216              		.loc 1 739 7 is_stmt 1 discriminator 1 view .LVU534
 1217              		.loc 1 739 10 is_stmt 0 discriminator 1 view .LVU535
 1218 012e 64EE244A 		vmul.f32	s9, s8, s9
 1219              	.LVL223:
 740:Drivers/CMSIS/DSP/Source/TransformFunctions/arm_cfft_radix4_f32.c ****       /* xd' = (xa-yb-xc+yd)co3 - (ya+xb-yc-xd)(si3) */
 741:Drivers/CMSIS/DSP/Source/TransformFunctions/arm_cfft_radix4_f32.c ****       //Xd12_out -= Yd12C_out * si3;
 742:Drivers/CMSIS/DSP/Source/TransformFunctions/arm_cfft_radix4_f32.c ****       p4 = Yd12C_out * si3;
 1220              		.loc 1 742 7 is_stmt 1 discriminator 1 view .LVU536
 1221              		.loc 1 742 10 is_stmt 0 discriminator 1 view .LVU537
 1222 0132 27EE017A 		vmul.f32	s14, s14, s2
 1223              	.LVL224:
 743:Drivers/CMSIS/DSP/Source/TransformFunctions/arm_cfft_radix4_f32.c ****       /* yd' = (ya+xb-yc-xd)co3 + (xa-yb-xc+yd)(si3) */
 744:Drivers/CMSIS/DSP/Source/TransformFunctions/arm_cfft_radix4_f32.c ****       //Yd12_out += Xd12C_out * si3;
 745:Drivers/CMSIS/DSP/Source/TransformFunctions/arm_cfft_radix4_f32.c ****       p5 = Xd12C_out * si3;
 1224              		.loc 1 745 7 is_stmt 1 discriminator 1 view .LVU538
 1225              		.loc 1 745 10 is_stmt 0 discriminator 1 view .LVU539
 1226 0136 67EE817A 		vmul.f32	s15, s15, s2
 1227              	.LVL225:
 746:Drivers/CMSIS/DSP/Source/TransformFunctions/arm_cfft_radix4_f32.c **** 
 747:Drivers/CMSIS/DSP/Source/TransformFunctions/arm_cfft_radix4_f32.c ****       Xb12_out -= p0;
 1228              		.loc 1 747 7 is_stmt 1 discriminator 1 view .LVU540
 1229              		.loc 1 747 16 is_stmt 0 discriminator 1 view .LVU541
 1230 013a 32EE433A 		vsub.f32	s6, s4, s6
 1231              	.LVL226:
 748:Drivers/CMSIS/DSP/Source/TransformFunctions/arm_cfft_radix4_f32.c ****       Yb12_out += p1;
 1232              		.loc 1 748 7 is_stmt 1 discriminator 1 view .LVU542
 1233              		.loc 1 748 16 is_stmt 0 discriminator 1 view .LVU543
 1234 013e 75EEA35A 		vadd.f32	s11, s11, s7
 1235              	.LVL227:
 749:Drivers/CMSIS/DSP/Source/TransformFunctions/arm_cfft_radix4_f32.c ****       Xc12_out -= p2;
 1236              		.loc 1 749 7 is_stmt 1 discriminator 1 view .LVU544
 1237              		.loc 1 749 16 is_stmt 0 discriminator 1 view .LVU545
 1238 0142 31EEE64A 		vsub.f32	s8, s3, s13
ARM GAS  C:\Users\17832\AppData\Local\Temp\ccxoZ2T5.s 			page 36


 1239              	.LVL228:
 750:Drivers/CMSIS/DSP/Source/TransformFunctions/arm_cfft_radix4_f32.c ****       Yc12_out += p3;
 1240              		.loc 1 750 7 is_stmt 1 discriminator 1 view .LVU546
 1241              		.loc 1 750 16 is_stmt 0 discriminator 1 view .LVU547
 1242 0146 75EE246A 		vadd.f32	s13, s10, s9
 1243              	.LVL229:
 751:Drivers/CMSIS/DSP/Source/TransformFunctions/arm_cfft_radix4_f32.c ****       Xd12_out -= p4;
 1244              		.loc 1 751 7 is_stmt 1 discriminator 1 view .LVU548
 1245              		.loc 1 751 16 is_stmt 0 discriminator 1 view .LVU549
 1246 014a 32EEC77A 		vsub.f32	s14, s5, s14
 1247              	.LVL230:
 752:Drivers/CMSIS/DSP/Source/TransformFunctions/arm_cfft_radix4_f32.c ****       Yd12_out += p5;
 1248              		.loc 1 752 7 is_stmt 1 discriminator 1 view .LVU550
 1249              		.loc 1 752 16 is_stmt 0 discriminator 1 view .LVU551
 1250 014e 76EE277A 		vadd.f32	s15, s12, s15
 1251              	.LVL231:
 753:Drivers/CMSIS/DSP/Source/TransformFunctions/arm_cfft_radix4_f32.c **** 
 754:Drivers/CMSIS/DSP/Source/TransformFunctions/arm_cfft_radix4_f32.c ****       /* xc' = (xa-xb+xc-xd)co2 - (ya-yb+yc-yd)(si2) */
 755:Drivers/CMSIS/DSP/Source/TransformFunctions/arm_cfft_radix4_f32.c ****       pSrc[2U * i1] = Xc12_out;
 1252              		.loc 1 755 7 is_stmt 1 discriminator 1 view .LVU552
 1253              		.loc 1 755 21 is_stmt 0 discriminator 1 view .LVU553
 1254 0152 8CED004A 		vstr.32	s8, [ip]
 1255              	.LVL232:
 756:Drivers/CMSIS/DSP/Source/TransformFunctions/arm_cfft_radix4_f32.c **** 
 757:Drivers/CMSIS/DSP/Source/TransformFunctions/arm_cfft_radix4_f32.c ****       /* yc' = (ya-yb+yc-yd)co2 + (xa-xb+xc-xd)(si2) */
 758:Drivers/CMSIS/DSP/Source/TransformFunctions/arm_cfft_radix4_f32.c ****       pSrc[(2U * i1) + 1U] = Yc12_out;
 1256              		.loc 1 758 7 is_stmt 1 discriminator 1 view .LVU554
 1257              		.loc 1 758 28 is_stmt 0 discriminator 1 view .LVU555
 1258 0156 C4ED006A 		vstr.32	s13, [r4]
 759:Drivers/CMSIS/DSP/Source/TransformFunctions/arm_cfft_radix4_f32.c **** 
 760:Drivers/CMSIS/DSP/Source/TransformFunctions/arm_cfft_radix4_f32.c ****       /* xb' = (xa+yb-xc-yd)co1 - (ya-xb-yc+xd)(si1) */
 761:Drivers/CMSIS/DSP/Source/TransformFunctions/arm_cfft_radix4_f32.c ****       pSrc[2U * i2] = Xb12_out;
 1259              		.loc 1 761 7 is_stmt 1 discriminator 1 view .LVU556
 1260              		.loc 1 761 21 is_stmt 0 discriminator 1 view .LVU557
 1261 015a 81ED003A 		vstr.32	s6, [r1]
 762:Drivers/CMSIS/DSP/Source/TransformFunctions/arm_cfft_radix4_f32.c **** 
 763:Drivers/CMSIS/DSP/Source/TransformFunctions/arm_cfft_radix4_f32.c ****       /* yb' = (ya-xb-yc+xd)co1 + (xa+yb-xc-yd)(si1) */
 764:Drivers/CMSIS/DSP/Source/TransformFunctions/arm_cfft_radix4_f32.c ****       pSrc[(2U * i2) + 1U] = Yb12_out;
 1262              		.loc 1 764 7 is_stmt 1 discriminator 1 view .LVU558
 1263              		.loc 1 764 28 is_stmt 0 discriminator 1 view .LVU559
 1264 015e C2ED005A 		vstr.32	s11, [r2]
 765:Drivers/CMSIS/DSP/Source/TransformFunctions/arm_cfft_radix4_f32.c **** 
 766:Drivers/CMSIS/DSP/Source/TransformFunctions/arm_cfft_radix4_f32.c ****       /* xd' = (xa-yb-xc+yd)co3 - (ya+xb-yc-xd)(si3) */
 767:Drivers/CMSIS/DSP/Source/TransformFunctions/arm_cfft_radix4_f32.c ****       pSrc[2U * i3] = Xd12_out;
 1265              		.loc 1 767 7 is_stmt 1 discriminator 1 view .LVU560
 1266              		.loc 1 767 21 is_stmt 0 discriminator 1 view .LVU561
 1267 0162 87ED007A 		vstr.32	s14, [r7]
 768:Drivers/CMSIS/DSP/Source/TransformFunctions/arm_cfft_radix4_f32.c **** 
 769:Drivers/CMSIS/DSP/Source/TransformFunctions/arm_cfft_radix4_f32.c ****       /* yd' = (ya+xb-yc-xd)co3 + (xa-yb-xc+yd)(si3) */
 770:Drivers/CMSIS/DSP/Source/TransformFunctions/arm_cfft_radix4_f32.c ****       pSrc[(2U * i3) + 1U] = Yd12_out;
 1268              		.loc 1 770 7 is_stmt 1 discriminator 1 view .LVU562
 1269              		.loc 1 770 28 is_stmt 0 discriminator 1 view .LVU563
 1270 0166 009B     		ldr	r3, [sp]
 1271 0168 C3ED007A 		vstr.32	s15, [r3]
 771:Drivers/CMSIS/DSP/Source/TransformFunctions/arm_cfft_radix4_f32.c **** 
 772:Drivers/CMSIS/DSP/Source/TransformFunctions/arm_cfft_radix4_f32.c ****       /*  Twiddle coefficients index modifier */
 773:Drivers/CMSIS/DSP/Source/TransformFunctions/arm_cfft_radix4_f32.c ****       ia1 = ia1 + twidCoefModifier;
ARM GAS  C:\Users\17832\AppData\Local\Temp\ccxoZ2T5.s 			page 37


 1272              		.loc 1 773 7 is_stmt 1 discriminator 1 view .LVU564
 1273              		.loc 1 773 11 is_stmt 0 discriminator 1 view .LVU565
 1274 016c 019B     		ldr	r3, [sp, #4]
 1275 016e 9A44     		add	r10, r10, r3
 1276              	.LVL233:
 774:Drivers/CMSIS/DSP/Source/TransformFunctions/arm_cfft_radix4_f32.c **** 
 775:Drivers/CMSIS/DSP/Source/TransformFunctions/arm_cfft_radix4_f32.c ****       /*  Updating input index */
 776:Drivers/CMSIS/DSP/Source/TransformFunctions/arm_cfft_radix4_f32.c ****       i0 = i0 + 1U;
 1277              		.loc 1 776 7 is_stmt 1 discriminator 1 view .LVU566
 1278              		.loc 1 776 10 is_stmt 0 discriminator 1 view .LVU567
 1279 0170 08F10108 		add	r8, r8, #1
 1280              	.LVL234:
 777:Drivers/CMSIS/DSP/Source/TransformFunctions/arm_cfft_radix4_f32.c **** 
 778:Drivers/CMSIS/DSP/Source/TransformFunctions/arm_cfft_radix4_f32.c ****    } while (--j);
 1281              		.loc 1 778 12 is_stmt 1 discriminator 1 view .LVU568
 1282              		.loc 1 778 4 is_stmt 0 discriminator 1 view .LVU569
 1283 0174 039B     		ldr	r3, [sp, #12]
 1284 0176 013B     		subs	r3, r3, #1
 1285              	.LVL235:
 1286              		.loc 1 778 4 discriminator 1 view .LVU570
 1287 0178 0393     		str	r3, [sp, #12]
 1288 017a 7FF454AF 		bne	.L10
 779:Drivers/CMSIS/DSP/Source/TransformFunctions/arm_cfft_radix4_f32.c **** 
 780:Drivers/CMSIS/DSP/Source/TransformFunctions/arm_cfft_radix4_f32.c ****    twidCoefModifier <<= 2U;
 1289              		.loc 1 780 21 view .LVU571
 1290 017e D946     		mov	r9, fp
 1291 0180 DDF810B0 		ldr	fp, [sp, #16]
 1292              	.LVL236:
 1293              		.loc 1 780 4 is_stmt 1 view .LVU572
 1294              		.loc 1 780 21 is_stmt 0 view .LVU573
 1295 0184 019B     		ldr	r3, [sp, #4]
 1296              	.LVL237:
 1297              		.loc 1 780 21 view .LVU574
 1298 0186 9B00     		lsls	r3, r3, #2
 1299 0188 9BB2     		uxth	r3, r3
 1300 018a 0193     		str	r3, [sp, #4]
 1301              	.LVL238:
 781:Drivers/CMSIS/DSP/Source/TransformFunctions/arm_cfft_radix4_f32.c **** 
 782:Drivers/CMSIS/DSP/Source/TransformFunctions/arm_cfft_radix4_f32.c ****    /*  Calculation of second stage to excluding last stage */
 783:Drivers/CMSIS/DSP/Source/TransformFunctions/arm_cfft_radix4_f32.c ****    for (k = fftLen >> 2U; k > 4U; k >>= 2U)
 1302              		.loc 1 783 4 is_stmt 1 view .LVU575
 1303              		.loc 1 783 20 is_stmt 0 view .LVU576
 1304 018c 4FEA9B03 		lsr	r3, fp, #2
 1305 0190 0593     		str	r3, [sp, #20]
 1306              	.LVL239:
 1307              		.loc 1 783 11 view .LVU577
 1308 0192 0493     		str	r3, [sp, #16]
 1309              	.LVL240:
 1310              		.loc 1 783 4 view .LVU578
 1311 0194 BBE0     		b	.L11
 1312              	.LVL241:
 1313              	.L14:
 784:Drivers/CMSIS/DSP/Source/TransformFunctions/arm_cfft_radix4_f32.c ****    {
 785:Drivers/CMSIS/DSP/Source/TransformFunctions/arm_cfft_radix4_f32.c ****       /*  Initializations for the first stage */
 786:Drivers/CMSIS/DSP/Source/TransformFunctions/arm_cfft_radix4_f32.c ****       n1 = n2;
 1314              		.loc 1 786 7 is_stmt 1 view .LVU579
 787:Drivers/CMSIS/DSP/Source/TransformFunctions/arm_cfft_radix4_f32.c ****       n2 >>= 2U;
ARM GAS  C:\Users\17832\AppData\Local\Temp\ccxoZ2T5.s 			page 38


 1315              		.loc 1 787 7 view .LVU580
 1316              		.loc 1 787 10 is_stmt 0 view .LVU581
 1317 0196 4FEA990E 		lsr	lr, r9, #2
 1318              	.LVL242:
 788:Drivers/CMSIS/DSP/Source/TransformFunctions/arm_cfft_radix4_f32.c ****       ia1 = 0U;
 1319              		.loc 1 788 7 is_stmt 1 view .LVU582
 789:Drivers/CMSIS/DSP/Source/TransformFunctions/arm_cfft_radix4_f32.c **** 
 790:Drivers/CMSIS/DSP/Source/TransformFunctions/arm_cfft_radix4_f32.c ****       /*  Calculation of first stage */
 791:Drivers/CMSIS/DSP/Source/TransformFunctions/arm_cfft_radix4_f32.c ****       j = 0;
 1320              		.loc 1 791 7 view .LVU583
 1321              		.loc 1 791 9 is_stmt 0 view .LVU584
 1322 019a 039B     		ldr	r3, [sp, #12]
 1323              	.LVL243:
 1324              		.loc 1 791 9 view .LVU585
 1325 019c 0093     		str	r3, [sp]
 788:Drivers/CMSIS/DSP/Source/TransformFunctions/arm_cfft_radix4_f32.c ****       ia1 = 0U;
 1326              		.loc 1 788 11 view .LVU586
 1327 019e 9A46     		mov	r10, r3
 1328              	.LVL244:
 1329              	.L13:
 792:Drivers/CMSIS/DSP/Source/TransformFunctions/arm_cfft_radix4_f32.c ****       do
 1330              		.loc 1 792 7 is_stmt 1 view .LVU587
 793:Drivers/CMSIS/DSP/Source/TransformFunctions/arm_cfft_radix4_f32.c ****       {
 794:Drivers/CMSIS/DSP/Source/TransformFunctions/arm_cfft_radix4_f32.c ****          /*  index calculation for the coefficients */
 795:Drivers/CMSIS/DSP/Source/TransformFunctions/arm_cfft_radix4_f32.c ****          ia2 = ia1 + ia1;
 1331              		.loc 1 795 10 view .LVU588
 796:Drivers/CMSIS/DSP/Source/TransformFunctions/arm_cfft_radix4_f32.c ****          ia3 = ia2 + ia1;
 1332              		.loc 1 796 10 view .LVU589
 1333              		.loc 1 796 14 is_stmt 0 view .LVU590
 1334 01a0 0AEB4A02 		add	r2, r10, r10, lsl #1
 1335              	.LVL245:
 797:Drivers/CMSIS/DSP/Source/TransformFunctions/arm_cfft_radix4_f32.c ****          co1 = pCoef[ia1 * 2U];
 1336              		.loc 1 797 10 is_stmt 1 view .LVU591
 1337              		.loc 1 797 21 is_stmt 0 view .LVU592
 1338 01a4 4FEACA03 		lsl	r3, r10, #3
 1339 01a8 029C     		ldr	r4, [sp, #8]
 1340 01aa 04EBCA01 		add	r1, r4, r10, lsl #3
 1341              		.loc 1 797 14 view .LVU593
 1342 01ae 91ED000A 		vldr.32	s0, [r1]
 1343              	.LVL246:
 798:Drivers/CMSIS/DSP/Source/TransformFunctions/arm_cfft_radix4_f32.c ****          si1 = pCoef[(ia1 * 2U) + 1U];
 1344              		.loc 1 798 10 is_stmt 1 view .LVU594
 1345              		.loc 1 798 21 is_stmt 0 view .LVU595
 1346 01b2 0433     		adds	r3, r3, #4
 1347 01b4 2344     		add	r3, r3, r4
 1348              		.loc 1 798 14 view .LVU596
 1349 01b6 D3ED000A 		vldr.32	s1, [r3]
 1350              	.LVL247:
 799:Drivers/CMSIS/DSP/Source/TransformFunctions/arm_cfft_radix4_f32.c ****          co2 = pCoef[ia2 * 2U];
 1351              		.loc 1 799 10 is_stmt 1 view .LVU597
 1352              		.loc 1 799 21 is_stmt 0 view .LVU598
 1353 01ba 4FEA0A13 		lsl	r3, r10, #4
 1354 01be 04EB0A11 		add	r1, r4, r10, lsl #4
 1355              		.loc 1 799 14 view .LVU599
 1356 01c2 91ED001A 		vldr.32	s2, [r1]
 1357              	.LVL248:
 800:Drivers/CMSIS/DSP/Source/TransformFunctions/arm_cfft_radix4_f32.c ****          si2 = pCoef[(ia2 * 2U) + 1U];
ARM GAS  C:\Users\17832\AppData\Local\Temp\ccxoZ2T5.s 			page 39


 1358              		.loc 1 800 10 is_stmt 1 view .LVU600
 1359              		.loc 1 800 21 is_stmt 0 view .LVU601
 1360 01c6 0433     		adds	r3, r3, #4
 1361 01c8 2344     		add	r3, r3, r4
 1362              		.loc 1 800 14 view .LVU602
 1363 01ca D3ED001A 		vldr.32	s3, [r3]
 1364              	.LVL249:
 801:Drivers/CMSIS/DSP/Source/TransformFunctions/arm_cfft_radix4_f32.c ****          co3 = pCoef[ia3 * 2U];
 1365              		.loc 1 801 10 is_stmt 1 view .LVU603
 1366              		.loc 1 801 21 is_stmt 0 view .LVU604
 1367 01ce D300     		lsls	r3, r2, #3
 1368 01d0 04EBC202 		add	r2, r4, r2, lsl #3
 1369              	.LVL250:
 1370              		.loc 1 801 14 view .LVU605
 1371 01d4 92ED002A 		vldr.32	s4, [r2]
 1372              	.LVL251:
 802:Drivers/CMSIS/DSP/Source/TransformFunctions/arm_cfft_radix4_f32.c ****          si3 = pCoef[(ia3 * 2U) + 1U];
 1373              		.loc 1 802 10 is_stmt 1 view .LVU606
 1374              		.loc 1 802 21 is_stmt 0 view .LVU607
 1375 01d8 0433     		adds	r3, r3, #4
 1376 01da 2344     		add	r3, r3, r4
 1377              		.loc 1 802 14 view .LVU608
 1378 01dc D3ED002A 		vldr.32	s5, [r3]
 1379              	.LVL252:
 803:Drivers/CMSIS/DSP/Source/TransformFunctions/arm_cfft_radix4_f32.c **** 
 804:Drivers/CMSIS/DSP/Source/TransformFunctions/arm_cfft_radix4_f32.c ****          /*  Twiddle coefficients index modifier */
 805:Drivers/CMSIS/DSP/Source/TransformFunctions/arm_cfft_radix4_f32.c ****          ia1 = ia1 + twidCoefModifier;
 1380              		.loc 1 805 10 is_stmt 1 view .LVU609
 1381              		.loc 1 805 14 is_stmt 0 view .LVU610
 1382 01e0 019B     		ldr	r3, [sp, #4]
 1383 01e2 9A44     		add	r10, r10, r3
 1384              	.LVL253:
 806:Drivers/CMSIS/DSP/Source/TransformFunctions/arm_cfft_radix4_f32.c **** 
 807:Drivers/CMSIS/DSP/Source/TransformFunctions/arm_cfft_radix4_f32.c ****          i0 = j;
 1385              		.loc 1 807 10 is_stmt 1 view .LVU611
 1386              		.loc 1 807 13 is_stmt 0 view .LVU612
 1387 01e4 009B     		ldr	r3, [sp]
 1388              	.LVL254:
 1389              	.L12:
 808:Drivers/CMSIS/DSP/Source/TransformFunctions/arm_cfft_radix4_f32.c ****          do
 1390              		.loc 1 808 10 is_stmt 1 discriminator 1 view .LVU613
 809:Drivers/CMSIS/DSP/Source/TransformFunctions/arm_cfft_radix4_f32.c ****          {
 810:Drivers/CMSIS/DSP/Source/TransformFunctions/arm_cfft_radix4_f32.c ****             /*  index calculation for the input as, */
 811:Drivers/CMSIS/DSP/Source/TransformFunctions/arm_cfft_radix4_f32.c ****             /*  pSrc[i0 + 0], pSrc[i0 + fftLen/4], pSrc[i0 + fftLen/2], pSrc[i0 + 3fftLen/4] */
 812:Drivers/CMSIS/DSP/Source/TransformFunctions/arm_cfft_radix4_f32.c ****             i1 = i0 + n2;
 1391              		.loc 1 812 13 discriminator 1 view .LVU614
 1392              		.loc 1 812 16 is_stmt 0 discriminator 1 view .LVU615
 1393 01e6 03EB0E0C 		add	ip, r3, lr
 1394              	.LVL255:
 813:Drivers/CMSIS/DSP/Source/TransformFunctions/arm_cfft_radix4_f32.c ****             i2 = i1 + n2;
 1395              		.loc 1 813 13 is_stmt 1 discriminator 1 view .LVU616
 1396              		.loc 1 813 16 is_stmt 0 discriminator 1 view .LVU617
 1397 01ea 03EB4E04 		add	r4, r3, lr, lsl #1
 1398              	.LVL256:
 814:Drivers/CMSIS/DSP/Source/TransformFunctions/arm_cfft_radix4_f32.c ****             i3 = i2 + n2;
 1399              		.loc 1 814 13 is_stmt 1 discriminator 1 view .LVU618
 1400              		.loc 1 814 16 is_stmt 0 discriminator 1 view .LVU619
ARM GAS  C:\Users\17832\AppData\Local\Temp\ccxoZ2T5.s 			page 40


 1401 01ee 0EEB0407 		add	r7, lr, r4
 1402              	.LVL257:
 815:Drivers/CMSIS/DSP/Source/TransformFunctions/arm_cfft_radix4_f32.c **** 
 816:Drivers/CMSIS/DSP/Source/TransformFunctions/arm_cfft_radix4_f32.c ****             xaIn = pSrc[(2U * i0)];
 1403              		.loc 1 816 13 is_stmt 1 discriminator 1 view .LVU620
 1404              		.loc 1 816 24 is_stmt 0 discriminator 1 view .LVU621
 1405 01f2 DE00     		lsls	r6, r3, #3
 1406 01f4 00EBC308 		add	r8, r0, r3, lsl #3
 1407              		.loc 1 816 18 discriminator 1 view .LVU622
 1408 01f8 98ED006A 		vldr.32	s12, [r8]
 1409              	.LVL258:
 817:Drivers/CMSIS/DSP/Source/TransformFunctions/arm_cfft_radix4_f32.c ****             yaIn = pSrc[(2U * i0) + 1U];
 1410              		.loc 1 817 13 is_stmt 1 discriminator 1 view .LVU623
 1411              		.loc 1 817 24 is_stmt 0 discriminator 1 view .LVU624
 1412 01fc 0436     		adds	r6, r6, #4
 1413 01fe 0644     		add	r6, r6, r0
 1414              		.loc 1 817 18 discriminator 1 view .LVU625
 1415 0200 D6ED006A 		vldr.32	s13, [r6]
 1416              	.LVL259:
 818:Drivers/CMSIS/DSP/Source/TransformFunctions/arm_cfft_radix4_f32.c **** 
 819:Drivers/CMSIS/DSP/Source/TransformFunctions/arm_cfft_radix4_f32.c ****             xbIn = pSrc[(2U * i1)];
 1417              		.loc 1 819 13 is_stmt 1 discriminator 1 view .LVU626
 1418              		.loc 1 819 24 is_stmt 0 discriminator 1 view .LVU627
 1419 0204 4FEACC05 		lsl	r5, ip, #3
 1420 0208 00EBCC0C 		add	ip, r0, ip, lsl #3
 1421              	.LVL260:
 1422              		.loc 1 819 18 discriminator 1 view .LVU628
 1423 020c 9CED005A 		vldr.32	s10, [ip]
 1424              	.LVL261:
 820:Drivers/CMSIS/DSP/Source/TransformFunctions/arm_cfft_radix4_f32.c ****             ybIn = pSrc[(2U * i1) + 1U];
 1425              		.loc 1 820 13 is_stmt 1 discriminator 1 view .LVU629
 1426              		.loc 1 820 24 is_stmt 0 discriminator 1 view .LVU630
 1427 0210 0435     		adds	r5, r5, #4
 1428 0212 0544     		add	r5, r5, r0
 1429              		.loc 1 820 18 discriminator 1 view .LVU631
 1430 0214 D5ED005A 		vldr.32	s11, [r5]
 1431              	.LVL262:
 821:Drivers/CMSIS/DSP/Source/TransformFunctions/arm_cfft_radix4_f32.c **** 
 822:Drivers/CMSIS/DSP/Source/TransformFunctions/arm_cfft_radix4_f32.c ****             xcIn = pSrc[(2U * i2)];
 1432              		.loc 1 822 13 is_stmt 1 discriminator 1 view .LVU632
 1433              		.loc 1 822 24 is_stmt 0 discriminator 1 view .LVU633
 1434 0218 E100     		lsls	r1, r4, #3
 1435 021a 00EBC404 		add	r4, r0, r4, lsl #3
 1436              	.LVL263:
 1437              		.loc 1 822 18 discriminator 1 view .LVU634
 1438 021e 94ED003A 		vldr.32	s6, [r4]
 1439              	.LVL264:
 823:Drivers/CMSIS/DSP/Source/TransformFunctions/arm_cfft_radix4_f32.c ****             ycIn = pSrc[(2U * i2) + 1U];
 1440              		.loc 1 823 13 is_stmt 1 discriminator 1 view .LVU635
 1441              		.loc 1 823 24 is_stmt 0 discriminator 1 view .LVU636
 1442 0222 0431     		adds	r1, r1, #4
 1443 0224 0144     		add	r1, r1, r0
 1444              		.loc 1 823 18 discriminator 1 view .LVU637
 1445 0226 91ED004A 		vldr.32	s8, [r1]
 1446              	.LVL265:
 824:Drivers/CMSIS/DSP/Source/TransformFunctions/arm_cfft_radix4_f32.c **** 
 825:Drivers/CMSIS/DSP/Source/TransformFunctions/arm_cfft_radix4_f32.c ****             xdIn = pSrc[(2U * i3)];
ARM GAS  C:\Users\17832\AppData\Local\Temp\ccxoZ2T5.s 			page 41


 1447              		.loc 1 825 13 is_stmt 1 discriminator 1 view .LVU638
 1448              		.loc 1 825 24 is_stmt 0 discriminator 1 view .LVU639
 1449 022a FA00     		lsls	r2, r7, #3
 1450 022c 00EBC707 		add	r7, r0, r7, lsl #3
 1451              	.LVL266:
 1452              		.loc 1 825 18 discriminator 1 view .LVU640
 1453 0230 D7ED003A 		vldr.32	s7, [r7]
 1454              	.LVL267:
 826:Drivers/CMSIS/DSP/Source/TransformFunctions/arm_cfft_radix4_f32.c ****             ydIn = pSrc[(2U * i3) + 1U];
 1455              		.loc 1 826 13 is_stmt 1 discriminator 1 view .LVU641
 1456              		.loc 1 826 24 is_stmt 0 discriminator 1 view .LVU642
 1457 0234 0432     		adds	r2, r2, #4
 1458 0236 0244     		add	r2, r2, r0
 1459              		.loc 1 826 18 discriminator 1 view .LVU643
 1460 0238 D2ED004A 		vldr.32	s9, [r2]
 1461              	.LVL268:
 827:Drivers/CMSIS/DSP/Source/TransformFunctions/arm_cfft_radix4_f32.c **** 
 828:Drivers/CMSIS/DSP/Source/TransformFunctions/arm_cfft_radix4_f32.c ****             /* xa - xc */
 829:Drivers/CMSIS/DSP/Source/TransformFunctions/arm_cfft_radix4_f32.c ****             Xaminusc = xaIn - xcIn;
 1462              		.loc 1 829 13 is_stmt 1 discriminator 1 view .LVU644
 1463              		.loc 1 829 22 is_stmt 0 discriminator 1 view .LVU645
 1464 023c 76EE437A 		vsub.f32	s15, s12, s6
 1465              	.LVL269:
 830:Drivers/CMSIS/DSP/Source/TransformFunctions/arm_cfft_radix4_f32.c ****             /* (xb - xd) */
 831:Drivers/CMSIS/DSP/Source/TransformFunctions/arm_cfft_radix4_f32.c ****             Xbminusd = xbIn - xdIn;
 1466              		.loc 1 831 13 is_stmt 1 discriminator 1 view .LVU646
 1467              		.loc 1 831 22 is_stmt 0 discriminator 1 view .LVU647
 1468 0240 75EE638A 		vsub.f32	s17, s10, s7
 1469              	.LVL270:
 832:Drivers/CMSIS/DSP/Source/TransformFunctions/arm_cfft_radix4_f32.c ****             /* ya - yc */
 833:Drivers/CMSIS/DSP/Source/TransformFunctions/arm_cfft_radix4_f32.c ****             Yaminusc = yaIn - ycIn;
 1470              		.loc 1 833 13 is_stmt 1 discriminator 1 view .LVU648
 1471              		.loc 1 833 22 is_stmt 0 discriminator 1 view .LVU649
 1472 0244 36EEC47A 		vsub.f32	s14, s13, s8
 1473              	.LVL271:
 834:Drivers/CMSIS/DSP/Source/TransformFunctions/arm_cfft_radix4_f32.c ****             /* (yb - yd) */
 835:Drivers/CMSIS/DSP/Source/TransformFunctions/arm_cfft_radix4_f32.c ****             Ybminusd = ybIn - ydIn;
 1474              		.loc 1 835 13 is_stmt 1 discriminator 1 view .LVU650
 1475              		.loc 1 835 22 is_stmt 0 discriminator 1 view .LVU651
 1476 0248 35EEE49A 		vsub.f32	s18, s11, s9
 1477              	.LVL272:
 836:Drivers/CMSIS/DSP/Source/TransformFunctions/arm_cfft_radix4_f32.c **** 
 837:Drivers/CMSIS/DSP/Source/TransformFunctions/arm_cfft_radix4_f32.c ****             /* xa + xc */
 838:Drivers/CMSIS/DSP/Source/TransformFunctions/arm_cfft_radix4_f32.c ****             Xaplusc = xaIn + xcIn;
 1478              		.loc 1 838 13 is_stmt 1 discriminator 1 view .LVU652
 1479              		.loc 1 838 21 is_stmt 0 discriminator 1 view .LVU653
 1480 024c 36EE036A 		vadd.f32	s12, s12, s6
 1481              	.LVL273:
 839:Drivers/CMSIS/DSP/Source/TransformFunctions/arm_cfft_radix4_f32.c ****             /* xb + xd */
 840:Drivers/CMSIS/DSP/Source/TransformFunctions/arm_cfft_radix4_f32.c ****             Xbplusd = xbIn + xdIn;
 1482              		.loc 1 840 13 is_stmt 1 discriminator 1 view .LVU654
 1483              		.loc 1 840 21 is_stmt 0 discriminator 1 view .LVU655
 1484 0250 35EE235A 		vadd.f32	s10, s10, s7
 1485              	.LVL274:
 841:Drivers/CMSIS/DSP/Source/TransformFunctions/arm_cfft_radix4_f32.c ****             /* ya + yc */
 842:Drivers/CMSIS/DSP/Source/TransformFunctions/arm_cfft_radix4_f32.c ****             Yaplusc = yaIn + ycIn;
 1486              		.loc 1 842 13 is_stmt 1 discriminator 1 view .LVU656
ARM GAS  C:\Users\17832\AppData\Local\Temp\ccxoZ2T5.s 			page 42


 1487              		.loc 1 842 21 is_stmt 0 discriminator 1 view .LVU657
 1488 0254 76EE846A 		vadd.f32	s13, s13, s8
 1489              	.LVL275:
 843:Drivers/CMSIS/DSP/Source/TransformFunctions/arm_cfft_radix4_f32.c ****             /* yb + yd */
 844:Drivers/CMSIS/DSP/Source/TransformFunctions/arm_cfft_radix4_f32.c ****             Ybplusd = ybIn + ydIn;
 1490              		.loc 1 844 13 is_stmt 1 discriminator 1 view .LVU658
 1491              		.loc 1 844 21 is_stmt 0 discriminator 1 view .LVU659
 1492 0258 75EEA45A 		vadd.f32	s11, s11, s9
 1493              	.LVL276:
 845:Drivers/CMSIS/DSP/Source/TransformFunctions/arm_cfft_radix4_f32.c **** 
 846:Drivers/CMSIS/DSP/Source/TransformFunctions/arm_cfft_radix4_f32.c ****             /* (xa - xc) - (yb - yd) */
 847:Drivers/CMSIS/DSP/Source/TransformFunctions/arm_cfft_radix4_f32.c ****             Xb12C_out = (Xaminusc - Ybminusd);
 1494              		.loc 1 847 13 is_stmt 1 discriminator 1 view .LVU660
 1495              		.loc 1 847 23 is_stmt 0 discriminator 1 view .LVU661
 1496 025c 77EEC93A 		vsub.f32	s7, s15, s18
 1497              	.LVL277:
 848:Drivers/CMSIS/DSP/Source/TransformFunctions/arm_cfft_radix4_f32.c ****             /* (ya - yc) +  (xb - xd) */
 849:Drivers/CMSIS/DSP/Source/TransformFunctions/arm_cfft_radix4_f32.c ****             Yb12C_out = (Yaminusc + Xbminusd);
 1498              		.loc 1 849 13 is_stmt 1 discriminator 1 view .LVU662
 1499              		.loc 1 849 23 is_stmt 0 discriminator 1 view .LVU663
 1500 0260 38EE873A 		vadd.f32	s6, s17, s14
 1501              	.LVL278:
 850:Drivers/CMSIS/DSP/Source/TransformFunctions/arm_cfft_radix4_f32.c ****             /* xa + xc -(xb + xd) */
 851:Drivers/CMSIS/DSP/Source/TransformFunctions/arm_cfft_radix4_f32.c ****             Xc12C_out = (Xaplusc - Xbplusd);
 1502              		.loc 1 851 13 is_stmt 1 discriminator 1 view .LVU664
 1503              		.loc 1 851 23 is_stmt 0 discriminator 1 view .LVU665
 1504 0264 76EE454A 		vsub.f32	s9, s12, s10
 1505              	.LVL279:
 852:Drivers/CMSIS/DSP/Source/TransformFunctions/arm_cfft_radix4_f32.c ****             /* (ya + yc) - (yb + yd) */
 853:Drivers/CMSIS/DSP/Source/TransformFunctions/arm_cfft_radix4_f32.c ****             Yc12C_out = (Yaplusc - Ybplusd);
 1506              		.loc 1 853 13 is_stmt 1 discriminator 1 view .LVU666
 1507              		.loc 1 853 23 is_stmt 0 discriminator 1 view .LVU667
 1508 0268 36EEE54A 		vsub.f32	s8, s13, s11
 1509              	.LVL280:
 854:Drivers/CMSIS/DSP/Source/TransformFunctions/arm_cfft_radix4_f32.c ****             /* (xa - xc) + (yb - yd) */
 855:Drivers/CMSIS/DSP/Source/TransformFunctions/arm_cfft_radix4_f32.c ****             Xd12C_out = (Xaminusc + Ybminusd);
 1510              		.loc 1 855 13 is_stmt 1 discriminator 1 view .LVU668
 1511              		.loc 1 855 23 is_stmt 0 discriminator 1 view .LVU669
 1512 026c 77EE897A 		vadd.f32	s15, s15, s18
 1513              	.LVL281:
 856:Drivers/CMSIS/DSP/Source/TransformFunctions/arm_cfft_radix4_f32.c ****             /* (ya - yc) -  (xb - xd) */
 857:Drivers/CMSIS/DSP/Source/TransformFunctions/arm_cfft_radix4_f32.c ****             Yd12C_out = (Yaminusc - Xbminusd);
 1514              		.loc 1 857 13 is_stmt 1 discriminator 1 view .LVU670
 1515              		.loc 1 857 23 is_stmt 0 discriminator 1 view .LVU671
 1516 0270 37EE687A 		vsub.f32	s14, s14, s17
 1517              	.LVL282:
 858:Drivers/CMSIS/DSP/Source/TransformFunctions/arm_cfft_radix4_f32.c **** 
 859:Drivers/CMSIS/DSP/Source/TransformFunctions/arm_cfft_radix4_f32.c ****             pSrc[(2U * i0)] = Xaplusc + Xbplusd;
 1518              		.loc 1 859 13 is_stmt 1 discriminator 1 view .LVU672
 1519              		.loc 1 859 39 is_stmt 0 discriminator 1 view .LVU673
 1520 0274 36EE056A 		vadd.f32	s12, s12, s10
 1521              	.LVL283:
 1522              		.loc 1 859 29 discriminator 1 view .LVU674
 1523 0278 88ED006A 		vstr.32	s12, [r8]
 1524              	.LVL284:
 860:Drivers/CMSIS/DSP/Source/TransformFunctions/arm_cfft_radix4_f32.c ****             pSrc[(2U * i0) + 1U] = Yaplusc + Ybplusd;
 1525              		.loc 1 860 13 is_stmt 1 discriminator 1 view .LVU675
ARM GAS  C:\Users\17832\AppData\Local\Temp\ccxoZ2T5.s 			page 43


 1526              		.loc 1 860 44 is_stmt 0 discriminator 1 view .LVU676
 1527 027c 76EEA56A 		vadd.f32	s13, s13, s11
 1528              	.LVL285:
 1529              		.loc 1 860 34 discriminator 1 view .LVU677
 1530 0280 C6ED006A 		vstr.32	s13, [r6]
 1531              	.LVL286:
 861:Drivers/CMSIS/DSP/Source/TransformFunctions/arm_cfft_radix4_f32.c **** 
 862:Drivers/CMSIS/DSP/Source/TransformFunctions/arm_cfft_radix4_f32.c ****             Xb12_out = Xb12C_out * co1;
 1532              		.loc 1 862 13 is_stmt 1 discriminator 1 view .LVU678
 1533              		.loc 1 862 22 is_stmt 0 discriminator 1 view .LVU679
 1534 0284 20EE235A 		vmul.f32	s10, s0, s7
 1535              	.LVL287:
 863:Drivers/CMSIS/DSP/Source/TransformFunctions/arm_cfft_radix4_f32.c ****             Yb12_out = Yb12C_out * co1;
 1536              		.loc 1 863 13 is_stmt 1 discriminator 1 view .LVU680
 1537              		.loc 1 863 22 is_stmt 0 discriminator 1 view .LVU681
 1538 0288 60EE035A 		vmul.f32	s11, s0, s6
 1539              	.LVL288:
 864:Drivers/CMSIS/DSP/Source/TransformFunctions/arm_cfft_radix4_f32.c ****             Xc12_out = Xc12C_out * co2;
 1540              		.loc 1 864 13 is_stmt 1 discriminator 1 view .LVU682
 1541              		.loc 1 864 22 is_stmt 0 discriminator 1 view .LVU683
 1542 028c 21EE249A 		vmul.f32	s18, s2, s9
 1543              	.LVL289:
 865:Drivers/CMSIS/DSP/Source/TransformFunctions/arm_cfft_radix4_f32.c ****             Yc12_out = Yc12C_out * co2;
 1544              		.loc 1 865 13 is_stmt 1 discriminator 1 view .LVU684
 1545              		.loc 1 865 22 is_stmt 0 discriminator 1 view .LVU685
 1546 0290 61EE048A 		vmul.f32	s17, s2, s8
 1547              	.LVL290:
 866:Drivers/CMSIS/DSP/Source/TransformFunctions/arm_cfft_radix4_f32.c ****             Xd12_out = Xd12C_out * co3;
 1548              		.loc 1 866 13 is_stmt 1 discriminator 1 view .LVU686
 1549              		.loc 1 866 22 is_stmt 0 discriminator 1 view .LVU687
 1550 0294 22EE276A 		vmul.f32	s12, s4, s15
 1551              	.LVL291:
 867:Drivers/CMSIS/DSP/Source/TransformFunctions/arm_cfft_radix4_f32.c ****             Yd12_out = Yd12C_out * co3;
 1552              		.loc 1 867 13 is_stmt 1 discriminator 1 view .LVU688
 1553              		.loc 1 867 22 is_stmt 0 discriminator 1 view .LVU689
 1554 0298 62EE076A 		vmul.f32	s13, s4, s14
 1555              	.LVL292:
 868:Drivers/CMSIS/DSP/Source/TransformFunctions/arm_cfft_radix4_f32.c **** 
 869:Drivers/CMSIS/DSP/Source/TransformFunctions/arm_cfft_radix4_f32.c ****             /* xb' = (xa+yb-xc-yd)co1 - (ya-xb-yc+xd)(si1) */
 870:Drivers/CMSIS/DSP/Source/TransformFunctions/arm_cfft_radix4_f32.c ****             //Xb12_out -= Yb12C_out * si1;
 871:Drivers/CMSIS/DSP/Source/TransformFunctions/arm_cfft_radix4_f32.c ****             p0 = Yb12C_out * si1;
 1556              		.loc 1 871 13 is_stmt 1 discriminator 1 view .LVU690
 1557              		.loc 1 871 16 is_stmt 0 discriminator 1 view .LVU691
 1558 029c 20EE833A 		vmul.f32	s6, s1, s6
 1559              	.LVL293:
 872:Drivers/CMSIS/DSP/Source/TransformFunctions/arm_cfft_radix4_f32.c ****             /* yb' = (ya-xb-yc+xd)co1 + (xa+yb-xc-yd)(si1) */
 873:Drivers/CMSIS/DSP/Source/TransformFunctions/arm_cfft_radix4_f32.c ****             //Yb12_out += Xb12C_out * si1;
 874:Drivers/CMSIS/DSP/Source/TransformFunctions/arm_cfft_radix4_f32.c ****             p1 = Xb12C_out * si1;
 1560              		.loc 1 874 13 is_stmt 1 discriminator 1 view .LVU692
 1561              		.loc 1 874 16 is_stmt 0 discriminator 1 view .LVU693
 1562 02a0 60EEA33A 		vmul.f32	s7, s1, s7
 1563              	.LVL294:
 875:Drivers/CMSIS/DSP/Source/TransformFunctions/arm_cfft_radix4_f32.c ****             /* xc' = (xa-xb+xc-xd)co2 - (ya-yb+yc-yd)(si2) */
 876:Drivers/CMSIS/DSP/Source/TransformFunctions/arm_cfft_radix4_f32.c ****             //Xc12_out -= Yc12C_out * si2;
 877:Drivers/CMSIS/DSP/Source/TransformFunctions/arm_cfft_radix4_f32.c ****             p2 = Yc12C_out * si2;
 1564              		.loc 1 877 13 is_stmt 1 discriminator 1 view .LVU694
 1565              		.loc 1 877 16 is_stmt 0 discriminator 1 view .LVU695
ARM GAS  C:\Users\17832\AppData\Local\Temp\ccxoZ2T5.s 			page 44


 1566 02a4 21EE844A 		vmul.f32	s8, s3, s8
 1567              	.LVL295:
 878:Drivers/CMSIS/DSP/Source/TransformFunctions/arm_cfft_radix4_f32.c ****             /* yc' = (ya-yb+yc-yd)co2 + (xa-xb+xc-xd)(si2) */
 879:Drivers/CMSIS/DSP/Source/TransformFunctions/arm_cfft_radix4_f32.c ****             //Yc12_out += Xc12C_out * si2;
 880:Drivers/CMSIS/DSP/Source/TransformFunctions/arm_cfft_radix4_f32.c ****             p3 = Xc12C_out * si2;
 1568              		.loc 1 880 13 is_stmt 1 discriminator 1 view .LVU696
 1569              		.loc 1 880 16 is_stmt 0 discriminator 1 view .LVU697
 1570 02a8 61EEA44A 		vmul.f32	s9, s3, s9
 1571              	.LVL296:
 881:Drivers/CMSIS/DSP/Source/TransformFunctions/arm_cfft_radix4_f32.c ****             /* xd' = (xa-yb-xc+yd)co3 - (ya+xb-yc-xd)(si3) */
 882:Drivers/CMSIS/DSP/Source/TransformFunctions/arm_cfft_radix4_f32.c ****             //Xd12_out -= Yd12C_out * si3;
 883:Drivers/CMSIS/DSP/Source/TransformFunctions/arm_cfft_radix4_f32.c ****             p4 = Yd12C_out * si3;
 1572              		.loc 1 883 13 is_stmt 1 discriminator 1 view .LVU698
 1573              		.loc 1 883 16 is_stmt 0 discriminator 1 view .LVU699
 1574 02ac 22EE877A 		vmul.f32	s14, s5, s14
 1575              	.LVL297:
 884:Drivers/CMSIS/DSP/Source/TransformFunctions/arm_cfft_radix4_f32.c ****             /* yd' = (ya+xb-yc-xd)co3 + (xa-yb-xc+yd)(si3) */
 885:Drivers/CMSIS/DSP/Source/TransformFunctions/arm_cfft_radix4_f32.c ****             //Yd12_out += Xd12C_out * si3;
 886:Drivers/CMSIS/DSP/Source/TransformFunctions/arm_cfft_radix4_f32.c ****             p5 = Xd12C_out * si3;
 1576              		.loc 1 886 13 is_stmt 1 discriminator 1 view .LVU700
 1577              		.loc 1 886 16 is_stmt 0 discriminator 1 view .LVU701
 1578 02b0 62EEA77A 		vmul.f32	s15, s5, s15
 1579              	.LVL298:
 887:Drivers/CMSIS/DSP/Source/TransformFunctions/arm_cfft_radix4_f32.c **** 
 888:Drivers/CMSIS/DSP/Source/TransformFunctions/arm_cfft_radix4_f32.c ****             Xb12_out -= p0;
 1580              		.loc 1 888 13 is_stmt 1 discriminator 1 view .LVU702
 1581              		.loc 1 888 22 is_stmt 0 discriminator 1 view .LVU703
 1582 02b4 35EE433A 		vsub.f32	s6, s10, s6
 1583              	.LVL299:
 889:Drivers/CMSIS/DSP/Source/TransformFunctions/arm_cfft_radix4_f32.c ****             Yb12_out += p1;
 1584              		.loc 1 889 13 is_stmt 1 discriminator 1 view .LVU704
 1585              		.loc 1 889 22 is_stmt 0 discriminator 1 view .LVU705
 1586 02b8 75EEA33A 		vadd.f32	s7, s11, s7
 1587              	.LVL300:
 890:Drivers/CMSIS/DSP/Source/TransformFunctions/arm_cfft_radix4_f32.c ****             Xc12_out -= p2;
 1588              		.loc 1 890 13 is_stmt 1 discriminator 1 view .LVU706
 1589              		.loc 1 890 22 is_stmt 0 discriminator 1 view .LVU707
 1590 02bc 39EE444A 		vsub.f32	s8, s18, s8
 1591              	.LVL301:
 891:Drivers/CMSIS/DSP/Source/TransformFunctions/arm_cfft_radix4_f32.c ****             Yc12_out += p3;
 1592              		.loc 1 891 13 is_stmt 1 discriminator 1 view .LVU708
 1593              		.loc 1 891 22 is_stmt 0 discriminator 1 view .LVU709
 1594 02c0 78EEA44A 		vadd.f32	s9, s17, s9
 1595              	.LVL302:
 892:Drivers/CMSIS/DSP/Source/TransformFunctions/arm_cfft_radix4_f32.c ****             Xd12_out -= p4;
 1596              		.loc 1 892 13 is_stmt 1 discriminator 1 view .LVU710
 1597              		.loc 1 892 22 is_stmt 0 discriminator 1 view .LVU711
 1598 02c4 36EE477A 		vsub.f32	s14, s12, s14
 1599              	.LVL303:
 893:Drivers/CMSIS/DSP/Source/TransformFunctions/arm_cfft_radix4_f32.c ****             Yd12_out += p5;
 1600              		.loc 1 893 13 is_stmt 1 discriminator 1 view .LVU712
 1601              		.loc 1 893 22 is_stmt 0 discriminator 1 view .LVU713
 1602 02c8 76EEA77A 		vadd.f32	s15, s13, s15
 1603              	.LVL304:
 894:Drivers/CMSIS/DSP/Source/TransformFunctions/arm_cfft_radix4_f32.c **** 
 895:Drivers/CMSIS/DSP/Source/TransformFunctions/arm_cfft_radix4_f32.c ****             /* xc' = (xa-xb+xc-xd)co2 - (ya-yb+yc-yd)(si2) */
 896:Drivers/CMSIS/DSP/Source/TransformFunctions/arm_cfft_radix4_f32.c ****             pSrc[2U * i1] = Xc12_out;
ARM GAS  C:\Users\17832\AppData\Local\Temp\ccxoZ2T5.s 			page 45


 1604              		.loc 1 896 13 is_stmt 1 discriminator 1 view .LVU714
 1605              		.loc 1 896 27 is_stmt 0 discriminator 1 view .LVU715
 1606 02cc 8CED004A 		vstr.32	s8, [ip]
 897:Drivers/CMSIS/DSP/Source/TransformFunctions/arm_cfft_radix4_f32.c **** 
 898:Drivers/CMSIS/DSP/Source/TransformFunctions/arm_cfft_radix4_f32.c ****             /* yc' = (ya-yb+yc-yd)co2 + (xa-xb+xc-xd)(si2) */
 899:Drivers/CMSIS/DSP/Source/TransformFunctions/arm_cfft_radix4_f32.c ****             pSrc[(2U * i1) + 1U] = Yc12_out;
 1607              		.loc 1 899 13 is_stmt 1 discriminator 1 view .LVU716
 1608              		.loc 1 899 34 is_stmt 0 discriminator 1 view .LVU717
 1609 02d0 C5ED004A 		vstr.32	s9, [r5]
 900:Drivers/CMSIS/DSP/Source/TransformFunctions/arm_cfft_radix4_f32.c **** 
 901:Drivers/CMSIS/DSP/Source/TransformFunctions/arm_cfft_radix4_f32.c ****             /* xb' = (xa+yb-xc-yd)co1 - (ya-xb-yc+xd)(si1) */
 902:Drivers/CMSIS/DSP/Source/TransformFunctions/arm_cfft_radix4_f32.c ****             pSrc[2U * i2] = Xb12_out;
 1610              		.loc 1 902 13 is_stmt 1 discriminator 1 view .LVU718
 1611              		.loc 1 902 27 is_stmt 0 discriminator 1 view .LVU719
 1612 02d4 84ED003A 		vstr.32	s6, [r4]
 903:Drivers/CMSIS/DSP/Source/TransformFunctions/arm_cfft_radix4_f32.c **** 
 904:Drivers/CMSIS/DSP/Source/TransformFunctions/arm_cfft_radix4_f32.c ****             /* yb' = (ya-xb-yc+xd)co1 + (xa+yb-xc-yd)(si1) */
 905:Drivers/CMSIS/DSP/Source/TransformFunctions/arm_cfft_radix4_f32.c ****             pSrc[(2U * i2) + 1U] = Yb12_out;
 1613              		.loc 1 905 13 is_stmt 1 discriminator 1 view .LVU720
 1614              		.loc 1 905 34 is_stmt 0 discriminator 1 view .LVU721
 1615 02d8 C1ED003A 		vstr.32	s7, [r1]
 906:Drivers/CMSIS/DSP/Source/TransformFunctions/arm_cfft_radix4_f32.c **** 
 907:Drivers/CMSIS/DSP/Source/TransformFunctions/arm_cfft_radix4_f32.c ****             /* xd' = (xa-yb-xc+yd)co3 - (ya+xb-yc-xd)(si3) */
 908:Drivers/CMSIS/DSP/Source/TransformFunctions/arm_cfft_radix4_f32.c ****             pSrc[2U * i3] = Xd12_out;
 1616              		.loc 1 908 13 is_stmt 1 discriminator 1 view .LVU722
 1617              		.loc 1 908 27 is_stmt 0 discriminator 1 view .LVU723
 1618 02dc 87ED007A 		vstr.32	s14, [r7]
 909:Drivers/CMSIS/DSP/Source/TransformFunctions/arm_cfft_radix4_f32.c **** 
 910:Drivers/CMSIS/DSP/Source/TransformFunctions/arm_cfft_radix4_f32.c ****             /* yd' = (ya+xb-yc-xd)co3 + (xa-yb-xc+yd)(si3) */
 911:Drivers/CMSIS/DSP/Source/TransformFunctions/arm_cfft_radix4_f32.c ****             pSrc[(2U * i3) + 1U] = Yd12_out;
 1619              		.loc 1 911 13 is_stmt 1 discriminator 1 view .LVU724
 1620              		.loc 1 911 34 is_stmt 0 discriminator 1 view .LVU725
 1621 02e0 C2ED007A 		vstr.32	s15, [r2]
 912:Drivers/CMSIS/DSP/Source/TransformFunctions/arm_cfft_radix4_f32.c **** 
 913:Drivers/CMSIS/DSP/Source/TransformFunctions/arm_cfft_radix4_f32.c ****             i0 += n1;
 1622              		.loc 1 913 13 is_stmt 1 discriminator 1 view .LVU726
 1623              		.loc 1 913 16 is_stmt 0 discriminator 1 view .LVU727
 1624 02e4 4B44     		add	r3, r3, r9
 1625              	.LVL305:
 914:Drivers/CMSIS/DSP/Source/TransformFunctions/arm_cfft_radix4_f32.c ****          } while (i0 < fftLen);
 1626              		.loc 1 914 18 is_stmt 1 discriminator 1 view .LVU728
 1627              		.loc 1 914 10 is_stmt 0 discriminator 1 view .LVU729
 1628 02e6 9B45     		cmp	fp, r3
 1629 02e8 3FF67DAF 		bhi	.L12
 915:Drivers/CMSIS/DSP/Source/TransformFunctions/arm_cfft_radix4_f32.c ****          j++;
 1630              		.loc 1 915 10 is_stmt 1 view .LVU730
 1631              		.loc 1 915 11 is_stmt 0 view .LVU731
 1632 02ec 009B     		ldr	r3, [sp]
 1633              	.LVL306:
 1634              		.loc 1 915 11 view .LVU732
 1635 02ee 0133     		adds	r3, r3, #1
 1636 02f0 1A46     		mov	r2, r3
 1637 02f2 0093     		str	r3, [sp]
 1638              	.LVL307:
 916:Drivers/CMSIS/DSP/Source/TransformFunctions/arm_cfft_radix4_f32.c ****       } while (j <= (n2 - 1U));
 1639              		.loc 1 916 15 is_stmt 1 view .LVU733
 1640              		.loc 1 916 25 is_stmt 0 view .LVU734
ARM GAS  C:\Users\17832\AppData\Local\Temp\ccxoZ2T5.s 			page 46


 1641 02f4 0EF1FF33 		add	r3, lr, #-1
 1642              		.loc 1 916 7 view .LVU735
 1643 02f8 9342     		cmp	r3, r2
 1644 02fa BFF451AF 		bcs	.L13
 917:Drivers/CMSIS/DSP/Source/TransformFunctions/arm_cfft_radix4_f32.c ****       twidCoefModifier <<= 2U;
 1645              		.loc 1 917 7 is_stmt 1 discriminator 2 view .LVU736
 1646              		.loc 1 917 24 is_stmt 0 discriminator 2 view .LVU737
 1647 02fe 019B     		ldr	r3, [sp, #4]
 1648 0300 9B00     		lsls	r3, r3, #2
 1649 0302 9BB2     		uxth	r3, r3
 1650 0304 0193     		str	r3, [sp, #4]
 1651              	.LVL308:
 783:Drivers/CMSIS/DSP/Source/TransformFunctions/arm_cfft_radix4_f32.c ****    {
 1652              		.loc 1 783 35 is_stmt 1 discriminator 2 view .LVU738
 783:Drivers/CMSIS/DSP/Source/TransformFunctions/arm_cfft_radix4_f32.c ****    {
 1653              		.loc 1 783 37 is_stmt 0 discriminator 2 view .LVU739
 1654 0306 049B     		ldr	r3, [sp, #16]
 1655 0308 9B08     		lsrs	r3, r3, #2
 1656 030a 0493     		str	r3, [sp, #16]
 1657              	.LVL309:
 787:Drivers/CMSIS/DSP/Source/TransformFunctions/arm_cfft_radix4_f32.c ****       ia1 = 0U;
 1658              		.loc 1 787 10 discriminator 2 view .LVU740
 1659 030c F146     		mov	r9, lr
 1660              	.LVL310:
 1661              	.L11:
 783:Drivers/CMSIS/DSP/Source/TransformFunctions/arm_cfft_radix4_f32.c ****    {
 1662              		.loc 1 783 27 is_stmt 1 discriminator 1 view .LVU741
 783:Drivers/CMSIS/DSP/Source/TransformFunctions/arm_cfft_radix4_f32.c ****    {
 1663              		.loc 1 783 4 is_stmt 0 discriminator 1 view .LVU742
 1664 030e 049B     		ldr	r3, [sp, #16]
 1665 0310 042B     		cmp	r3, #4
 1666 0312 3FF640AF 		bhi	.L14
 783:Drivers/CMSIS/DSP/Source/TransformFunctions/arm_cfft_radix4_f32.c ****    {
 1667              		.loc 1 783 4 discriminator 1 view .LVU743
 1668 0316 059B     		ldr	r3, [sp, #20]
 1669              	.LVL311:
 1670              	.L15:
 918:Drivers/CMSIS/DSP/Source/TransformFunctions/arm_cfft_radix4_f32.c ****    }
 919:Drivers/CMSIS/DSP/Source/TransformFunctions/arm_cfft_radix4_f32.c ****    /*  Initializations of last stage */
 920:Drivers/CMSIS/DSP/Source/TransformFunctions/arm_cfft_radix4_f32.c **** 
 921:Drivers/CMSIS/DSP/Source/TransformFunctions/arm_cfft_radix4_f32.c ****    j = fftLen >> 2;
 922:Drivers/CMSIS/DSP/Source/TransformFunctions/arm_cfft_radix4_f32.c ****    ptr1 = &pSrc[0];
 923:Drivers/CMSIS/DSP/Source/TransformFunctions/arm_cfft_radix4_f32.c **** 
 924:Drivers/CMSIS/DSP/Source/TransformFunctions/arm_cfft_radix4_f32.c ****    /*  Calculations of last stage */
 925:Drivers/CMSIS/DSP/Source/TransformFunctions/arm_cfft_radix4_f32.c ****    do
 1671              		.loc 1 925 4 is_stmt 1 discriminator 1 view .LVU744
 926:Drivers/CMSIS/DSP/Source/TransformFunctions/arm_cfft_radix4_f32.c ****    {
 927:Drivers/CMSIS/DSP/Source/TransformFunctions/arm_cfft_radix4_f32.c ****       xaIn = ptr1[0];
 1672              		.loc 1 927 7 discriminator 1 view .LVU745
 1673              		.loc 1 927 12 is_stmt 0 discriminator 1 view .LVU746
 1674 0318 90ED007A 		vldr.32	s14, [r0]
 1675              	.LVL312:
 928:Drivers/CMSIS/DSP/Source/TransformFunctions/arm_cfft_radix4_f32.c ****       yaIn = ptr1[1];
 1676              		.loc 1 928 7 is_stmt 1 discriminator 1 view .LVU747
 1677              		.loc 1 928 12 is_stmt 0 discriminator 1 view .LVU748
 1678 031c D0ED017A 		vldr.32	s15, [r0, #4]
 1679              	.LVL313:
ARM GAS  C:\Users\17832\AppData\Local\Temp\ccxoZ2T5.s 			page 47


 929:Drivers/CMSIS/DSP/Source/TransformFunctions/arm_cfft_radix4_f32.c ****       xbIn = ptr1[2];
 1680              		.loc 1 929 7 is_stmt 1 discriminator 1 view .LVU749
 1681              		.loc 1 929 12 is_stmt 0 discriminator 1 view .LVU750
 1682 0320 D0ED025A 		vldr.32	s11, [r0, #8]
 1683              	.LVL314:
 930:Drivers/CMSIS/DSP/Source/TransformFunctions/arm_cfft_radix4_f32.c ****       ybIn = ptr1[3];
 1684              		.loc 1 930 7 is_stmt 1 discriminator 1 view .LVU751
 1685              		.loc 1 930 12 is_stmt 0 discriminator 1 view .LVU752
 1686 0324 90ED035A 		vldr.32	s10, [r0, #12]
 1687              	.LVL315:
 931:Drivers/CMSIS/DSP/Source/TransformFunctions/arm_cfft_radix4_f32.c ****       xcIn = ptr1[4];
 1688              		.loc 1 931 7 is_stmt 1 discriminator 1 view .LVU753
 1689              		.loc 1 931 12 is_stmt 0 discriminator 1 view .LVU754
 1690 0328 D0ED046A 		vldr.32	s13, [r0, #16]
 1691              	.LVL316:
 932:Drivers/CMSIS/DSP/Source/TransformFunctions/arm_cfft_radix4_f32.c ****       ycIn = ptr1[5];
 1692              		.loc 1 932 7 is_stmt 1 discriminator 1 view .LVU755
 1693              		.loc 1 932 12 is_stmt 0 discriminator 1 view .LVU756
 1694 032c D0ED054A 		vldr.32	s9, [r0, #20]
 1695              	.LVL317:
 933:Drivers/CMSIS/DSP/Source/TransformFunctions/arm_cfft_radix4_f32.c ****       xdIn = ptr1[6];
 1696              		.loc 1 933 7 is_stmt 1 discriminator 1 view .LVU757
 1697              		.loc 1 933 12 is_stmt 0 discriminator 1 view .LVU758
 1698 0330 90ED063A 		vldr.32	s6, [r0, #24]
 1699              	.LVL318:
 934:Drivers/CMSIS/DSP/Source/TransformFunctions/arm_cfft_radix4_f32.c ****       ydIn = ptr1[7];
 1700              		.loc 1 934 7 is_stmt 1 discriminator 1 view .LVU759
 1701              		.loc 1 934 12 is_stmt 0 discriminator 1 view .LVU760
 1702 0334 D0ED073A 		vldr.32	s7, [r0, #28]
 1703              	.LVL319:
 935:Drivers/CMSIS/DSP/Source/TransformFunctions/arm_cfft_radix4_f32.c **** 
 936:Drivers/CMSIS/DSP/Source/TransformFunctions/arm_cfft_radix4_f32.c ****       /*  Butterfly implementation */
 937:Drivers/CMSIS/DSP/Source/TransformFunctions/arm_cfft_radix4_f32.c ****       /* xa + xc */
 938:Drivers/CMSIS/DSP/Source/TransformFunctions/arm_cfft_radix4_f32.c ****       Xaplusc = xaIn + xcIn;
 1704              		.loc 1 938 7 is_stmt 1 discriminator 1 view .LVU761
 1705              		.loc 1 938 15 is_stmt 0 discriminator 1 view .LVU762
 1706 0338 37EE266A 		vadd.f32	s12, s14, s13
 1707              	.LVL320:
 939:Drivers/CMSIS/DSP/Source/TransformFunctions/arm_cfft_radix4_f32.c **** 
 940:Drivers/CMSIS/DSP/Source/TransformFunctions/arm_cfft_radix4_f32.c ****       /* xa - xc */
 941:Drivers/CMSIS/DSP/Source/TransformFunctions/arm_cfft_radix4_f32.c ****       Xaminusc = xaIn - xcIn;
 1708              		.loc 1 941 7 is_stmt 1 discriminator 1 view .LVU763
 1709              		.loc 1 941 16 is_stmt 0 discriminator 1 view .LVU764
 1710 033c 37EE667A 		vsub.f32	s14, s14, s13
 1711              	.LVL321:
 942:Drivers/CMSIS/DSP/Source/TransformFunctions/arm_cfft_radix4_f32.c **** 
 943:Drivers/CMSIS/DSP/Source/TransformFunctions/arm_cfft_radix4_f32.c ****       /* ya + yc */
 944:Drivers/CMSIS/DSP/Source/TransformFunctions/arm_cfft_radix4_f32.c ****       Yaplusc = yaIn + ycIn;
 1712              		.loc 1 944 7 is_stmt 1 discriminator 1 view .LVU765
 1713              		.loc 1 944 15 is_stmt 0 discriminator 1 view .LVU766
 1714 0340 77EEA46A 		vadd.f32	s13, s15, s9
 1715              	.LVL322:
 945:Drivers/CMSIS/DSP/Source/TransformFunctions/arm_cfft_radix4_f32.c **** 
 946:Drivers/CMSIS/DSP/Source/TransformFunctions/arm_cfft_radix4_f32.c ****       /* ya - yc */
 947:Drivers/CMSIS/DSP/Source/TransformFunctions/arm_cfft_radix4_f32.c ****       Yaminusc = yaIn - ycIn;
 1716              		.loc 1 947 7 is_stmt 1 discriminator 1 view .LVU767
 1717              		.loc 1 947 16 is_stmt 0 discriminator 1 view .LVU768
ARM GAS  C:\Users\17832\AppData\Local\Temp\ccxoZ2T5.s 			page 48


 1718 0344 77EEE47A 		vsub.f32	s15, s15, s9
 1719              	.LVL323:
 948:Drivers/CMSIS/DSP/Source/TransformFunctions/arm_cfft_radix4_f32.c **** 
 949:Drivers/CMSIS/DSP/Source/TransformFunctions/arm_cfft_radix4_f32.c ****       /* xb + xd */
 950:Drivers/CMSIS/DSP/Source/TransformFunctions/arm_cfft_radix4_f32.c ****       Xbplusd = xbIn + xdIn;
 1720              		.loc 1 950 7 is_stmt 1 discriminator 1 view .LVU769
 1721              		.loc 1 950 15 is_stmt 0 discriminator 1 view .LVU770
 1722 0348 35EE834A 		vadd.f32	s8, s11, s6
 1723              	.LVL324:
 951:Drivers/CMSIS/DSP/Source/TransformFunctions/arm_cfft_radix4_f32.c **** 
 952:Drivers/CMSIS/DSP/Source/TransformFunctions/arm_cfft_radix4_f32.c ****       /* yb + yd */
 953:Drivers/CMSIS/DSP/Source/TransformFunctions/arm_cfft_radix4_f32.c ****       Ybplusd = ybIn + ydIn;
 1724              		.loc 1 953 7 is_stmt 1 discriminator 1 view .LVU771
 1725              		.loc 1 953 15 is_stmt 0 discriminator 1 view .LVU772
 1726 034c 75EE234A 		vadd.f32	s9, s10, s7
 1727              	.LVL325:
 954:Drivers/CMSIS/DSP/Source/TransformFunctions/arm_cfft_radix4_f32.c **** 
 955:Drivers/CMSIS/DSP/Source/TransformFunctions/arm_cfft_radix4_f32.c ****       /* (xb-xd) */
 956:Drivers/CMSIS/DSP/Source/TransformFunctions/arm_cfft_radix4_f32.c ****       Xbminusd = xbIn - xdIn;
 1728              		.loc 1 956 7 is_stmt 1 discriminator 1 view .LVU773
 1729              		.loc 1 956 16 is_stmt 0 discriminator 1 view .LVU774
 1730 0350 75EEC35A 		vsub.f32	s11, s11, s6
 1731              	.LVL326:
 957:Drivers/CMSIS/DSP/Source/TransformFunctions/arm_cfft_radix4_f32.c **** 
 958:Drivers/CMSIS/DSP/Source/TransformFunctions/arm_cfft_radix4_f32.c ****       /* (yb-yd) */
 959:Drivers/CMSIS/DSP/Source/TransformFunctions/arm_cfft_radix4_f32.c ****       Ybminusd = ybIn - ydIn;
 1732              		.loc 1 959 7 is_stmt 1 discriminator 1 view .LVU775
 1733              		.loc 1 959 16 is_stmt 0 discriminator 1 view .LVU776
 1734 0354 35EE635A 		vsub.f32	s10, s10, s7
 1735              	.LVL327:
 960:Drivers/CMSIS/DSP/Source/TransformFunctions/arm_cfft_radix4_f32.c **** 
 961:Drivers/CMSIS/DSP/Source/TransformFunctions/arm_cfft_radix4_f32.c ****       /* xa' = (xa+xb+xc+xd) * onebyfftLen */
 962:Drivers/CMSIS/DSP/Source/TransformFunctions/arm_cfft_radix4_f32.c ****       a0 = (Xaplusc + Xbplusd);
 1736              		.loc 1 962 7 is_stmt 1 discriminator 1 view .LVU777
 1737              		.loc 1 962 10 is_stmt 0 discriminator 1 view .LVU778
 1738 0358 36EE043A 		vadd.f32	s6, s12, s8
 1739              	.LVL328:
 963:Drivers/CMSIS/DSP/Source/TransformFunctions/arm_cfft_radix4_f32.c ****       /* ya' = (ya+yb+yc+yd) * onebyfftLen */
 964:Drivers/CMSIS/DSP/Source/TransformFunctions/arm_cfft_radix4_f32.c ****       a1 = (Yaplusc + Ybplusd);
 1740              		.loc 1 964 7 is_stmt 1 discriminator 1 view .LVU779
 1741              		.loc 1 964 10 is_stmt 0 discriminator 1 view .LVU780
 1742 035c 76EEA43A 		vadd.f32	s7, s13, s9
 1743              	.LVL329:
 965:Drivers/CMSIS/DSP/Source/TransformFunctions/arm_cfft_radix4_f32.c ****       /* xc' = (xa-xb+xc-xd) * onebyfftLen */
 966:Drivers/CMSIS/DSP/Source/TransformFunctions/arm_cfft_radix4_f32.c ****       a2 = (Xaplusc - Xbplusd);
 1744              		.loc 1 966 7 is_stmt 1 discriminator 1 view .LVU781
 1745              		.loc 1 966 10 is_stmt 0 discriminator 1 view .LVU782
 1746 0360 36EE446A 		vsub.f32	s12, s12, s8
 1747              	.LVL330:
 967:Drivers/CMSIS/DSP/Source/TransformFunctions/arm_cfft_radix4_f32.c ****       /* yc' = (ya-yb+yc-yd) * onebyfftLen  */
 968:Drivers/CMSIS/DSP/Source/TransformFunctions/arm_cfft_radix4_f32.c ****       a3 = (Yaplusc - Ybplusd);
 1748              		.loc 1 968 7 is_stmt 1 discriminator 1 view .LVU783
 1749              		.loc 1 968 10 is_stmt 0 discriminator 1 view .LVU784
 1750 0364 76EEE46A 		vsub.f32	s13, s13, s9
 1751              	.LVL331:
 969:Drivers/CMSIS/DSP/Source/TransformFunctions/arm_cfft_radix4_f32.c ****       /* xb' = (xa-yb-xc+yd) * onebyfftLen */
 970:Drivers/CMSIS/DSP/Source/TransformFunctions/arm_cfft_radix4_f32.c ****       a4 = (Xaminusc - Ybminusd);
ARM GAS  C:\Users\17832\AppData\Local\Temp\ccxoZ2T5.s 			page 49


 1752              		.loc 1 970 7 is_stmt 1 discriminator 1 view .LVU785
 1753              		.loc 1 970 10 is_stmt 0 discriminator 1 view .LVU786
 1754 0368 37EE454A 		vsub.f32	s8, s14, s10
 1755              	.LVL332:
 971:Drivers/CMSIS/DSP/Source/TransformFunctions/arm_cfft_radix4_f32.c ****       /* yb' = (ya+xb-yc-xd) * onebyfftLen */
 972:Drivers/CMSIS/DSP/Source/TransformFunctions/arm_cfft_radix4_f32.c ****       a5 = (Yaminusc + Xbminusd);
 1756              		.loc 1 972 7 is_stmt 1 discriminator 1 view .LVU787
 1757              		.loc 1 972 10 is_stmt 0 discriminator 1 view .LVU788
 1758 036c 77EEA54A 		vadd.f32	s9, s15, s11
 1759              	.LVL333:
 973:Drivers/CMSIS/DSP/Source/TransformFunctions/arm_cfft_radix4_f32.c ****       /* xd' = (xa-yb-xc+yd) * onebyfftLen */
 974:Drivers/CMSIS/DSP/Source/TransformFunctions/arm_cfft_radix4_f32.c ****       a6 = (Xaminusc + Ybminusd);
 1760              		.loc 1 974 7 is_stmt 1 discriminator 1 view .LVU789
 1761              		.loc 1 974 10 is_stmt 0 discriminator 1 view .LVU790
 1762 0370 37EE057A 		vadd.f32	s14, s14, s10
 1763              	.LVL334:
 975:Drivers/CMSIS/DSP/Source/TransformFunctions/arm_cfft_radix4_f32.c ****       /* yd' = (ya-xb-yc+xd) * onebyfftLen */
 976:Drivers/CMSIS/DSP/Source/TransformFunctions/arm_cfft_radix4_f32.c ****       a7 = (Yaminusc - Xbminusd);
 1764              		.loc 1 976 7 is_stmt 1 discriminator 1 view .LVU791
 1765              		.loc 1 976 10 is_stmt 0 discriminator 1 view .LVU792
 1766 0374 77EEE57A 		vsub.f32	s15, s15, s11
 1767              	.LVL335:
 977:Drivers/CMSIS/DSP/Source/TransformFunctions/arm_cfft_radix4_f32.c **** 
 978:Drivers/CMSIS/DSP/Source/TransformFunctions/arm_cfft_radix4_f32.c ****       p0 = a0 * onebyfftLen;
 1768              		.loc 1 978 7 is_stmt 1 discriminator 1 view .LVU793
 1769              		.loc 1 978 10 is_stmt 0 discriminator 1 view .LVU794
 1770 0378 23EE083A 		vmul.f32	s6, s6, s16
 1771              	.LVL336:
 979:Drivers/CMSIS/DSP/Source/TransformFunctions/arm_cfft_radix4_f32.c ****       p1 = a1 * onebyfftLen;
 1772              		.loc 1 979 7 is_stmt 1 discriminator 1 view .LVU795
 1773              		.loc 1 979 10 is_stmt 0 discriminator 1 view .LVU796
 1774 037c 63EE883A 		vmul.f32	s7, s7, s16
 1775              	.LVL337:
 980:Drivers/CMSIS/DSP/Source/TransformFunctions/arm_cfft_radix4_f32.c ****       p2 = a2 * onebyfftLen;
 1776              		.loc 1 980 7 is_stmt 1 discriminator 1 view .LVU797
 1777              		.loc 1 980 10 is_stmt 0 discriminator 1 view .LVU798
 1778 0380 26EE086A 		vmul.f32	s12, s12, s16
 1779              	.LVL338:
 981:Drivers/CMSIS/DSP/Source/TransformFunctions/arm_cfft_radix4_f32.c ****       p3 = a3 * onebyfftLen;
 1780              		.loc 1 981 7 is_stmt 1 discriminator 1 view .LVU799
 1781              		.loc 1 981 10 is_stmt 0 discriminator 1 view .LVU800
 1782 0384 66EE886A 		vmul.f32	s13, s13, s16
 1783              	.LVL339:
 982:Drivers/CMSIS/DSP/Source/TransformFunctions/arm_cfft_radix4_f32.c ****       p4 = a4 * onebyfftLen;
 1784              		.loc 1 982 7 is_stmt 1 discriminator 1 view .LVU801
 1785              		.loc 1 982 10 is_stmt 0 discriminator 1 view .LVU802
 1786 0388 24EE085A 		vmul.f32	s10, s8, s16
 1787              	.LVL340:
 983:Drivers/CMSIS/DSP/Source/TransformFunctions/arm_cfft_radix4_f32.c ****       p5 = a5 * onebyfftLen;
 1788              		.loc 1 983 7 is_stmt 1 discriminator 1 view .LVU803
 1789              		.loc 1 983 10 is_stmt 0 discriminator 1 view .LVU804
 1790 038c 64EE885A 		vmul.f32	s11, s9, s16
 1791              	.LVL341:
 984:Drivers/CMSIS/DSP/Source/TransformFunctions/arm_cfft_radix4_f32.c ****       p6 = a6 * onebyfftLen;
 1792              		.loc 1 984 7 is_stmt 1 discriminator 1 view .LVU805
 1793              		.loc 1 984 10 is_stmt 0 discriminator 1 view .LVU806
 1794 0390 27EE087A 		vmul.f32	s14, s14, s16
ARM GAS  C:\Users\17832\AppData\Local\Temp\ccxoZ2T5.s 			page 50


 1795              	.LVL342:
 985:Drivers/CMSIS/DSP/Source/TransformFunctions/arm_cfft_radix4_f32.c ****       p7 = a7 * onebyfftLen;
 1796              		.loc 1 985 7 is_stmt 1 discriminator 1 view .LVU807
 1797              		.loc 1 985 10 is_stmt 0 discriminator 1 view .LVU808
 1798 0394 67EE887A 		vmul.f32	s15, s15, s16
 1799              	.LVL343:
 986:Drivers/CMSIS/DSP/Source/TransformFunctions/arm_cfft_radix4_f32.c **** 
 987:Drivers/CMSIS/DSP/Source/TransformFunctions/arm_cfft_radix4_f32.c ****       /* xa' = (xa+xb+xc+xd) * onebyfftLen */
 988:Drivers/CMSIS/DSP/Source/TransformFunctions/arm_cfft_radix4_f32.c ****       ptr1[0] = p0;
 1800              		.loc 1 988 7 is_stmt 1 discriminator 1 view .LVU809
 1801              		.loc 1 988 15 is_stmt 0 discriminator 1 view .LVU810
 1802 0398 80ED003A 		vstr.32	s6, [r0]
 1803              	.LVL344:
 989:Drivers/CMSIS/DSP/Source/TransformFunctions/arm_cfft_radix4_f32.c ****       /* ya' = (ya+yb+yc+yd) * onebyfftLen */
 990:Drivers/CMSIS/DSP/Source/TransformFunctions/arm_cfft_radix4_f32.c ****       ptr1[1] = p1;
 1804              		.loc 1 990 7 is_stmt 1 discriminator 1 view .LVU811
 1805              		.loc 1 990 15 is_stmt 0 discriminator 1 view .LVU812
 1806 039c C0ED013A 		vstr.32	s7, [r0, #4]
 1807              	.LVL345:
 991:Drivers/CMSIS/DSP/Source/TransformFunctions/arm_cfft_radix4_f32.c ****       /* xc' = (xa-xb+xc-xd) * onebyfftLen */
 992:Drivers/CMSIS/DSP/Source/TransformFunctions/arm_cfft_radix4_f32.c ****       ptr1[2] = p2;
 1808              		.loc 1 992 7 is_stmt 1 discriminator 1 view .LVU813
 1809              		.loc 1 992 15 is_stmt 0 discriminator 1 view .LVU814
 1810 03a0 80ED026A 		vstr.32	s12, [r0, #8]
 1811              	.LVL346:
 993:Drivers/CMSIS/DSP/Source/TransformFunctions/arm_cfft_radix4_f32.c ****       /* yc' = (ya-yb+yc-yd) * onebyfftLen  */
 994:Drivers/CMSIS/DSP/Source/TransformFunctions/arm_cfft_radix4_f32.c ****       ptr1[3] = p3;
 1812              		.loc 1 994 7 is_stmt 1 discriminator 1 view .LVU815
 1813              		.loc 1 994 15 is_stmt 0 discriminator 1 view .LVU816
 1814 03a4 C0ED036A 		vstr.32	s13, [r0, #12]
 1815              	.LVL347:
 995:Drivers/CMSIS/DSP/Source/TransformFunctions/arm_cfft_radix4_f32.c ****       /* xb' = (xa-yb-xc+yd) * onebyfftLen */
 996:Drivers/CMSIS/DSP/Source/TransformFunctions/arm_cfft_radix4_f32.c ****       ptr1[4] = p4;
 1816              		.loc 1 996 7 is_stmt 1 discriminator 1 view .LVU817
 1817              		.loc 1 996 15 is_stmt 0 discriminator 1 view .LVU818
 1818 03a8 80ED045A 		vstr.32	s10, [r0, #16]
 1819              	.LVL348:
 997:Drivers/CMSIS/DSP/Source/TransformFunctions/arm_cfft_radix4_f32.c ****       /* yb' = (ya+xb-yc-xd) * onebyfftLen */
 998:Drivers/CMSIS/DSP/Source/TransformFunctions/arm_cfft_radix4_f32.c ****       ptr1[5] = p5;
 1820              		.loc 1 998 7 is_stmt 1 discriminator 1 view .LVU819
 1821              		.loc 1 998 15 is_stmt 0 discriminator 1 view .LVU820
 1822 03ac C0ED055A 		vstr.32	s11, [r0, #20]
 1823              	.LVL349:
 999:Drivers/CMSIS/DSP/Source/TransformFunctions/arm_cfft_radix4_f32.c ****       /* xd' = (xa-yb-xc+yd) * onebyfftLen */
1000:Drivers/CMSIS/DSP/Source/TransformFunctions/arm_cfft_radix4_f32.c ****       ptr1[6] = p6;
 1824              		.loc 1 1000 7 is_stmt 1 discriminator 1 view .LVU821
 1825              		.loc 1 1000 15 is_stmt 0 discriminator 1 view .LVU822
 1826 03b0 80ED067A 		vstr.32	s14, [r0, #24]
 1827              	.LVL350:
1001:Drivers/CMSIS/DSP/Source/TransformFunctions/arm_cfft_radix4_f32.c ****       /* yd' = (ya-xb-yc+xd) * onebyfftLen */
1002:Drivers/CMSIS/DSP/Source/TransformFunctions/arm_cfft_radix4_f32.c ****       ptr1[7] = p7;
 1828              		.loc 1 1002 7 is_stmt 1 discriminator 1 view .LVU823
 1829              		.loc 1 1002 15 is_stmt 0 discriminator 1 view .LVU824
 1830 03b4 C0ED077A 		vstr.32	s15, [r0, #28]
 1831              	.LVL351:
1003:Drivers/CMSIS/DSP/Source/TransformFunctions/arm_cfft_radix4_f32.c **** 
1004:Drivers/CMSIS/DSP/Source/TransformFunctions/arm_cfft_radix4_f32.c ****       /* increment source pointer by 8 for next calculations */
ARM GAS  C:\Users\17832\AppData\Local\Temp\ccxoZ2T5.s 			page 51


1005:Drivers/CMSIS/DSP/Source/TransformFunctions/arm_cfft_radix4_f32.c ****       ptr1 = ptr1 + 8U;
 1832              		.loc 1 1005 7 is_stmt 1 discriminator 1 view .LVU825
 1833              		.loc 1 1005 12 is_stmt 0 discriminator 1 view .LVU826
 1834 03b8 2030     		adds	r0, r0, #32
 1835              	.LVL352:
1006:Drivers/CMSIS/DSP/Source/TransformFunctions/arm_cfft_radix4_f32.c **** 
1007:Drivers/CMSIS/DSP/Source/TransformFunctions/arm_cfft_radix4_f32.c ****    } while (--j);
 1836              		.loc 1 1007 12 is_stmt 1 discriminator 1 view .LVU827
 1837              		.loc 1 1007 4 is_stmt 0 discriminator 1 view .LVU828
 1838 03ba 013B     		subs	r3, r3, #1
 1839              	.LVL353:
 1840              		.loc 1 1007 4 discriminator 1 view .LVU829
 1841 03bc ACD1     		bne	.L15
1008:Drivers/CMSIS/DSP/Source/TransformFunctions/arm_cfft_radix4_f32.c **** 
1009:Drivers/CMSIS/DSP/Source/TransformFunctions/arm_cfft_radix4_f32.c **** #else
1010:Drivers/CMSIS/DSP/Source/TransformFunctions/arm_cfft_radix4_f32.c **** 
1011:Drivers/CMSIS/DSP/Source/TransformFunctions/arm_cfft_radix4_f32.c ****    float32_t t1, t2, r1, r2, s1, s2;
1012:Drivers/CMSIS/DSP/Source/TransformFunctions/arm_cfft_radix4_f32.c **** 
1013:Drivers/CMSIS/DSP/Source/TransformFunctions/arm_cfft_radix4_f32.c ****    /* Run the below code for Cortex-M0 */
1014:Drivers/CMSIS/DSP/Source/TransformFunctions/arm_cfft_radix4_f32.c **** 
1015:Drivers/CMSIS/DSP/Source/TransformFunctions/arm_cfft_radix4_f32.c ****    /*  Initializations for the first stage */
1016:Drivers/CMSIS/DSP/Source/TransformFunctions/arm_cfft_radix4_f32.c ****    n2 = fftLen;
1017:Drivers/CMSIS/DSP/Source/TransformFunctions/arm_cfft_radix4_f32.c ****    n1 = n2;
1018:Drivers/CMSIS/DSP/Source/TransformFunctions/arm_cfft_radix4_f32.c **** 
1019:Drivers/CMSIS/DSP/Source/TransformFunctions/arm_cfft_radix4_f32.c ****    /*  Calculation of first stage */
1020:Drivers/CMSIS/DSP/Source/TransformFunctions/arm_cfft_radix4_f32.c ****    for (k = fftLen; k > 4U; k >>= 2U)
1021:Drivers/CMSIS/DSP/Source/TransformFunctions/arm_cfft_radix4_f32.c ****    {
1022:Drivers/CMSIS/DSP/Source/TransformFunctions/arm_cfft_radix4_f32.c ****       /*  Initializations for the first stage */
1023:Drivers/CMSIS/DSP/Source/TransformFunctions/arm_cfft_radix4_f32.c ****       n1 = n2;
1024:Drivers/CMSIS/DSP/Source/TransformFunctions/arm_cfft_radix4_f32.c ****       n2 >>= 2U;
1025:Drivers/CMSIS/DSP/Source/TransformFunctions/arm_cfft_radix4_f32.c ****       ia1 = 0U;
1026:Drivers/CMSIS/DSP/Source/TransformFunctions/arm_cfft_radix4_f32.c **** 
1027:Drivers/CMSIS/DSP/Source/TransformFunctions/arm_cfft_radix4_f32.c ****       /*  Calculation of first stage */
1028:Drivers/CMSIS/DSP/Source/TransformFunctions/arm_cfft_radix4_f32.c ****       j = 0;
1029:Drivers/CMSIS/DSP/Source/TransformFunctions/arm_cfft_radix4_f32.c ****       do
1030:Drivers/CMSIS/DSP/Source/TransformFunctions/arm_cfft_radix4_f32.c ****       {
1031:Drivers/CMSIS/DSP/Source/TransformFunctions/arm_cfft_radix4_f32.c ****          /*  index calculation for the coefficients */
1032:Drivers/CMSIS/DSP/Source/TransformFunctions/arm_cfft_radix4_f32.c ****          ia2 = ia1 + ia1;
1033:Drivers/CMSIS/DSP/Source/TransformFunctions/arm_cfft_radix4_f32.c ****          ia3 = ia2 + ia1;
1034:Drivers/CMSIS/DSP/Source/TransformFunctions/arm_cfft_radix4_f32.c ****          co1 = pCoef[ia1 * 2U];
1035:Drivers/CMSIS/DSP/Source/TransformFunctions/arm_cfft_radix4_f32.c ****          si1 = pCoef[(ia1 * 2U) + 1U];
1036:Drivers/CMSIS/DSP/Source/TransformFunctions/arm_cfft_radix4_f32.c ****          co2 = pCoef[ia2 * 2U];
1037:Drivers/CMSIS/DSP/Source/TransformFunctions/arm_cfft_radix4_f32.c ****          si2 = pCoef[(ia2 * 2U) + 1U];
1038:Drivers/CMSIS/DSP/Source/TransformFunctions/arm_cfft_radix4_f32.c ****          co3 = pCoef[ia3 * 2U];
1039:Drivers/CMSIS/DSP/Source/TransformFunctions/arm_cfft_radix4_f32.c ****          si3 = pCoef[(ia3 * 2U) + 1U];
1040:Drivers/CMSIS/DSP/Source/TransformFunctions/arm_cfft_radix4_f32.c **** 
1041:Drivers/CMSIS/DSP/Source/TransformFunctions/arm_cfft_radix4_f32.c ****          /*  Twiddle coefficients index modifier */
1042:Drivers/CMSIS/DSP/Source/TransformFunctions/arm_cfft_radix4_f32.c ****          ia1 = ia1 + twidCoefModifier;
1043:Drivers/CMSIS/DSP/Source/TransformFunctions/arm_cfft_radix4_f32.c **** 
1044:Drivers/CMSIS/DSP/Source/TransformFunctions/arm_cfft_radix4_f32.c ****          i0 = j;
1045:Drivers/CMSIS/DSP/Source/TransformFunctions/arm_cfft_radix4_f32.c ****          do
1046:Drivers/CMSIS/DSP/Source/TransformFunctions/arm_cfft_radix4_f32.c ****          {
1047:Drivers/CMSIS/DSP/Source/TransformFunctions/arm_cfft_radix4_f32.c ****             /*  index calculation for the input as, */
1048:Drivers/CMSIS/DSP/Source/TransformFunctions/arm_cfft_radix4_f32.c ****             /*  pSrc[i0 + 0], pSrc[i0 + fftLen/4], pSrc[i0 + fftLen/2], pSrc[i0 + 3fftLen/4] */
1049:Drivers/CMSIS/DSP/Source/TransformFunctions/arm_cfft_radix4_f32.c ****             i1 = i0 + n2;
1050:Drivers/CMSIS/DSP/Source/TransformFunctions/arm_cfft_radix4_f32.c ****             i2 = i1 + n2;
1051:Drivers/CMSIS/DSP/Source/TransformFunctions/arm_cfft_radix4_f32.c ****             i3 = i2 + n2;
ARM GAS  C:\Users\17832\AppData\Local\Temp\ccxoZ2T5.s 			page 52


1052:Drivers/CMSIS/DSP/Source/TransformFunctions/arm_cfft_radix4_f32.c **** 
1053:Drivers/CMSIS/DSP/Source/TransformFunctions/arm_cfft_radix4_f32.c ****             /* xa + xc */
1054:Drivers/CMSIS/DSP/Source/TransformFunctions/arm_cfft_radix4_f32.c ****             r1 = pSrc[(2U * i0)] + pSrc[(2U * i2)];
1055:Drivers/CMSIS/DSP/Source/TransformFunctions/arm_cfft_radix4_f32.c **** 
1056:Drivers/CMSIS/DSP/Source/TransformFunctions/arm_cfft_radix4_f32.c ****             /* xa - xc */
1057:Drivers/CMSIS/DSP/Source/TransformFunctions/arm_cfft_radix4_f32.c ****             r2 = pSrc[(2U * i0)] - pSrc[(2U * i2)];
1058:Drivers/CMSIS/DSP/Source/TransformFunctions/arm_cfft_radix4_f32.c **** 
1059:Drivers/CMSIS/DSP/Source/TransformFunctions/arm_cfft_radix4_f32.c ****             /* ya + yc */
1060:Drivers/CMSIS/DSP/Source/TransformFunctions/arm_cfft_radix4_f32.c ****             s1 = pSrc[(2U * i0) + 1U] + pSrc[(2U * i2) + 1U];
1061:Drivers/CMSIS/DSP/Source/TransformFunctions/arm_cfft_radix4_f32.c **** 
1062:Drivers/CMSIS/DSP/Source/TransformFunctions/arm_cfft_radix4_f32.c ****             /* ya - yc */
1063:Drivers/CMSIS/DSP/Source/TransformFunctions/arm_cfft_radix4_f32.c ****             s2 = pSrc[(2U * i0) + 1U] - pSrc[(2U * i2) + 1U];
1064:Drivers/CMSIS/DSP/Source/TransformFunctions/arm_cfft_radix4_f32.c **** 
1065:Drivers/CMSIS/DSP/Source/TransformFunctions/arm_cfft_radix4_f32.c ****             /* xb + xd */
1066:Drivers/CMSIS/DSP/Source/TransformFunctions/arm_cfft_radix4_f32.c ****             t1 = pSrc[2U * i1] + pSrc[2U * i3];
1067:Drivers/CMSIS/DSP/Source/TransformFunctions/arm_cfft_radix4_f32.c **** 
1068:Drivers/CMSIS/DSP/Source/TransformFunctions/arm_cfft_radix4_f32.c ****             /* xa' = xa + xb + xc + xd */
1069:Drivers/CMSIS/DSP/Source/TransformFunctions/arm_cfft_radix4_f32.c ****             pSrc[2U * i0] = r1 + t1;
1070:Drivers/CMSIS/DSP/Source/TransformFunctions/arm_cfft_radix4_f32.c **** 
1071:Drivers/CMSIS/DSP/Source/TransformFunctions/arm_cfft_radix4_f32.c ****             /* xa + xc -(xb + xd) */
1072:Drivers/CMSIS/DSP/Source/TransformFunctions/arm_cfft_radix4_f32.c ****             r1 = r1 - t1;
1073:Drivers/CMSIS/DSP/Source/TransformFunctions/arm_cfft_radix4_f32.c **** 
1074:Drivers/CMSIS/DSP/Source/TransformFunctions/arm_cfft_radix4_f32.c ****             /* yb + yd */
1075:Drivers/CMSIS/DSP/Source/TransformFunctions/arm_cfft_radix4_f32.c ****             t2 = pSrc[(2U * i1) + 1U] + pSrc[(2U * i3) + 1U];
1076:Drivers/CMSIS/DSP/Source/TransformFunctions/arm_cfft_radix4_f32.c **** 
1077:Drivers/CMSIS/DSP/Source/TransformFunctions/arm_cfft_radix4_f32.c ****             /* ya' = ya + yb + yc + yd */
1078:Drivers/CMSIS/DSP/Source/TransformFunctions/arm_cfft_radix4_f32.c ****             pSrc[(2U * i0) + 1U] = s1 + t2;
1079:Drivers/CMSIS/DSP/Source/TransformFunctions/arm_cfft_radix4_f32.c **** 
1080:Drivers/CMSIS/DSP/Source/TransformFunctions/arm_cfft_radix4_f32.c ****             /* (ya + yc) - (yb + yd) */
1081:Drivers/CMSIS/DSP/Source/TransformFunctions/arm_cfft_radix4_f32.c ****             s1 = s1 - t2;
1082:Drivers/CMSIS/DSP/Source/TransformFunctions/arm_cfft_radix4_f32.c **** 
1083:Drivers/CMSIS/DSP/Source/TransformFunctions/arm_cfft_radix4_f32.c ****             /* (yb - yd) */
1084:Drivers/CMSIS/DSP/Source/TransformFunctions/arm_cfft_radix4_f32.c ****             t1 = pSrc[(2U * i1) + 1U] - pSrc[(2U * i3) + 1U];
1085:Drivers/CMSIS/DSP/Source/TransformFunctions/arm_cfft_radix4_f32.c **** 
1086:Drivers/CMSIS/DSP/Source/TransformFunctions/arm_cfft_radix4_f32.c ****             /* (xb - xd) */
1087:Drivers/CMSIS/DSP/Source/TransformFunctions/arm_cfft_radix4_f32.c ****             t2 = pSrc[2U * i1] - pSrc[2U * i3];
1088:Drivers/CMSIS/DSP/Source/TransformFunctions/arm_cfft_radix4_f32.c **** 
1089:Drivers/CMSIS/DSP/Source/TransformFunctions/arm_cfft_radix4_f32.c ****             /* xc' = (xa-xb+xc-xd)co2 - (ya-yb+yc-yd)(si2) */
1090:Drivers/CMSIS/DSP/Source/TransformFunctions/arm_cfft_radix4_f32.c ****             pSrc[2U * i1] = (r1 * co2) - (s1 * si2);
1091:Drivers/CMSIS/DSP/Source/TransformFunctions/arm_cfft_radix4_f32.c **** 
1092:Drivers/CMSIS/DSP/Source/TransformFunctions/arm_cfft_radix4_f32.c ****             /* yc' = (ya-yb+yc-yd)co2 + (xa-xb+xc-xd)(si2) */
1093:Drivers/CMSIS/DSP/Source/TransformFunctions/arm_cfft_radix4_f32.c ****             pSrc[(2U * i1) + 1U] = (s1 * co2) + (r1 * si2);
1094:Drivers/CMSIS/DSP/Source/TransformFunctions/arm_cfft_radix4_f32.c **** 
1095:Drivers/CMSIS/DSP/Source/TransformFunctions/arm_cfft_radix4_f32.c ****             /* (xa - xc) - (yb - yd) */
1096:Drivers/CMSIS/DSP/Source/TransformFunctions/arm_cfft_radix4_f32.c ****             r1 = r2 - t1;
1097:Drivers/CMSIS/DSP/Source/TransformFunctions/arm_cfft_radix4_f32.c **** 
1098:Drivers/CMSIS/DSP/Source/TransformFunctions/arm_cfft_radix4_f32.c ****             /* (xa - xc) + (yb - yd) */
1099:Drivers/CMSIS/DSP/Source/TransformFunctions/arm_cfft_radix4_f32.c ****             r2 = r2 + t1;
1100:Drivers/CMSIS/DSP/Source/TransformFunctions/arm_cfft_radix4_f32.c **** 
1101:Drivers/CMSIS/DSP/Source/TransformFunctions/arm_cfft_radix4_f32.c ****             /* (ya - yc) +  (xb - xd) */
1102:Drivers/CMSIS/DSP/Source/TransformFunctions/arm_cfft_radix4_f32.c ****             s1 = s2 + t2;
1103:Drivers/CMSIS/DSP/Source/TransformFunctions/arm_cfft_radix4_f32.c **** 
1104:Drivers/CMSIS/DSP/Source/TransformFunctions/arm_cfft_radix4_f32.c ****             /* (ya - yc) -  (xb - xd) */
1105:Drivers/CMSIS/DSP/Source/TransformFunctions/arm_cfft_radix4_f32.c ****             s2 = s2 - t2;
1106:Drivers/CMSIS/DSP/Source/TransformFunctions/arm_cfft_radix4_f32.c **** 
1107:Drivers/CMSIS/DSP/Source/TransformFunctions/arm_cfft_radix4_f32.c ****             /* xb' = (xa+yb-xc-yd)co1 - (ya-xb-yc+xd)(si1) */
1108:Drivers/CMSIS/DSP/Source/TransformFunctions/arm_cfft_radix4_f32.c ****             pSrc[2U * i2] = (r1 * co1) - (s1 * si1);
ARM GAS  C:\Users\17832\AppData\Local\Temp\ccxoZ2T5.s 			page 53


1109:Drivers/CMSIS/DSP/Source/TransformFunctions/arm_cfft_radix4_f32.c **** 
1110:Drivers/CMSIS/DSP/Source/TransformFunctions/arm_cfft_radix4_f32.c ****             /* yb' = (ya-xb-yc+xd)co1 + (xa+yb-xc-yd)(si1) */
1111:Drivers/CMSIS/DSP/Source/TransformFunctions/arm_cfft_radix4_f32.c ****             pSrc[(2U * i2) + 1U] = (s1 * co1) + (r1 * si1);
1112:Drivers/CMSIS/DSP/Source/TransformFunctions/arm_cfft_radix4_f32.c **** 
1113:Drivers/CMSIS/DSP/Source/TransformFunctions/arm_cfft_radix4_f32.c ****             /* xd' = (xa-yb-xc+yd)co3 - (ya+xb-yc-xd)(si3) */
1114:Drivers/CMSIS/DSP/Source/TransformFunctions/arm_cfft_radix4_f32.c ****             pSrc[2U * i3] = (r2 * co3) - (s2 * si3);
1115:Drivers/CMSIS/DSP/Source/TransformFunctions/arm_cfft_radix4_f32.c **** 
1116:Drivers/CMSIS/DSP/Source/TransformFunctions/arm_cfft_radix4_f32.c ****             /* yd' = (ya+xb-yc-xd)co3 + (xa-yb-xc+yd)(si3) */
1117:Drivers/CMSIS/DSP/Source/TransformFunctions/arm_cfft_radix4_f32.c ****             pSrc[(2U * i3) + 1U] = (s2 * co3) + (r2 * si3);
1118:Drivers/CMSIS/DSP/Source/TransformFunctions/arm_cfft_radix4_f32.c **** 
1119:Drivers/CMSIS/DSP/Source/TransformFunctions/arm_cfft_radix4_f32.c ****             i0 += n1;
1120:Drivers/CMSIS/DSP/Source/TransformFunctions/arm_cfft_radix4_f32.c ****          } while ( i0 < fftLen);
1121:Drivers/CMSIS/DSP/Source/TransformFunctions/arm_cfft_radix4_f32.c ****          j++;
1122:Drivers/CMSIS/DSP/Source/TransformFunctions/arm_cfft_radix4_f32.c ****       } while (j <= (n2 - 1U));
1123:Drivers/CMSIS/DSP/Source/TransformFunctions/arm_cfft_radix4_f32.c ****       twidCoefModifier <<= 2U;
1124:Drivers/CMSIS/DSP/Source/TransformFunctions/arm_cfft_radix4_f32.c ****    }
1125:Drivers/CMSIS/DSP/Source/TransformFunctions/arm_cfft_radix4_f32.c ****    /*  Initializations of last stage */
1126:Drivers/CMSIS/DSP/Source/TransformFunctions/arm_cfft_radix4_f32.c ****    n1 = n2;
1127:Drivers/CMSIS/DSP/Source/TransformFunctions/arm_cfft_radix4_f32.c ****    n2 >>= 2U;
1128:Drivers/CMSIS/DSP/Source/TransformFunctions/arm_cfft_radix4_f32.c **** 
1129:Drivers/CMSIS/DSP/Source/TransformFunctions/arm_cfft_radix4_f32.c ****    /*  Calculations of last stage */
1130:Drivers/CMSIS/DSP/Source/TransformFunctions/arm_cfft_radix4_f32.c ****    for (i0 = 0U; i0 <= (fftLen - n1); i0 += n1)
1131:Drivers/CMSIS/DSP/Source/TransformFunctions/arm_cfft_radix4_f32.c ****    {
1132:Drivers/CMSIS/DSP/Source/TransformFunctions/arm_cfft_radix4_f32.c ****       /*  index calculation for the input as, */
1133:Drivers/CMSIS/DSP/Source/TransformFunctions/arm_cfft_radix4_f32.c ****       /*  pSrc[i0 + 0], pSrc[i0 + fftLen/4], pSrc[i0 + fftLen/2], pSrc[i0 + 3fftLen/4] */
1134:Drivers/CMSIS/DSP/Source/TransformFunctions/arm_cfft_radix4_f32.c ****       i1 = i0 + n2;
1135:Drivers/CMSIS/DSP/Source/TransformFunctions/arm_cfft_radix4_f32.c ****       i2 = i1 + n2;
1136:Drivers/CMSIS/DSP/Source/TransformFunctions/arm_cfft_radix4_f32.c ****       i3 = i2 + n2;
1137:Drivers/CMSIS/DSP/Source/TransformFunctions/arm_cfft_radix4_f32.c **** 
1138:Drivers/CMSIS/DSP/Source/TransformFunctions/arm_cfft_radix4_f32.c ****       /*  Butterfly implementation */
1139:Drivers/CMSIS/DSP/Source/TransformFunctions/arm_cfft_radix4_f32.c ****       /* xa + xc */
1140:Drivers/CMSIS/DSP/Source/TransformFunctions/arm_cfft_radix4_f32.c ****       r1 = pSrc[2U * i0] + pSrc[2U * i2];
1141:Drivers/CMSIS/DSP/Source/TransformFunctions/arm_cfft_radix4_f32.c **** 
1142:Drivers/CMSIS/DSP/Source/TransformFunctions/arm_cfft_radix4_f32.c ****       /* xa - xc */
1143:Drivers/CMSIS/DSP/Source/TransformFunctions/arm_cfft_radix4_f32.c ****       r2 = pSrc[2U * i0] - pSrc[2U * i2];
1144:Drivers/CMSIS/DSP/Source/TransformFunctions/arm_cfft_radix4_f32.c **** 
1145:Drivers/CMSIS/DSP/Source/TransformFunctions/arm_cfft_radix4_f32.c ****       /* ya + yc */
1146:Drivers/CMSIS/DSP/Source/TransformFunctions/arm_cfft_radix4_f32.c ****       s1 = pSrc[(2U * i0) + 1U] + pSrc[(2U * i2) + 1U];
1147:Drivers/CMSIS/DSP/Source/TransformFunctions/arm_cfft_radix4_f32.c **** 
1148:Drivers/CMSIS/DSP/Source/TransformFunctions/arm_cfft_radix4_f32.c ****       /* ya - yc */
1149:Drivers/CMSIS/DSP/Source/TransformFunctions/arm_cfft_radix4_f32.c ****       s2 = pSrc[(2U * i0) + 1U] - pSrc[(2U * i2) + 1U];
1150:Drivers/CMSIS/DSP/Source/TransformFunctions/arm_cfft_radix4_f32.c **** 
1151:Drivers/CMSIS/DSP/Source/TransformFunctions/arm_cfft_radix4_f32.c ****       /* xc + xd */
1152:Drivers/CMSIS/DSP/Source/TransformFunctions/arm_cfft_radix4_f32.c ****       t1 = pSrc[2U * i1] + pSrc[2U * i3];
1153:Drivers/CMSIS/DSP/Source/TransformFunctions/arm_cfft_radix4_f32.c **** 
1154:Drivers/CMSIS/DSP/Source/TransformFunctions/arm_cfft_radix4_f32.c ****       /* xa' = xa + xb + xc + xd */
1155:Drivers/CMSIS/DSP/Source/TransformFunctions/arm_cfft_radix4_f32.c ****       pSrc[2U * i0] = (r1 + t1) * onebyfftLen;
1156:Drivers/CMSIS/DSP/Source/TransformFunctions/arm_cfft_radix4_f32.c **** 
1157:Drivers/CMSIS/DSP/Source/TransformFunctions/arm_cfft_radix4_f32.c ****       /* (xa + xb) - (xc + xd) */
1158:Drivers/CMSIS/DSP/Source/TransformFunctions/arm_cfft_radix4_f32.c ****       r1 = r1 - t1;
1159:Drivers/CMSIS/DSP/Source/TransformFunctions/arm_cfft_radix4_f32.c **** 
1160:Drivers/CMSIS/DSP/Source/TransformFunctions/arm_cfft_radix4_f32.c ****       /* yb + yd */
1161:Drivers/CMSIS/DSP/Source/TransformFunctions/arm_cfft_radix4_f32.c ****       t2 = pSrc[(2U * i1) + 1U] + pSrc[(2U * i3) + 1U];
1162:Drivers/CMSIS/DSP/Source/TransformFunctions/arm_cfft_radix4_f32.c **** 
1163:Drivers/CMSIS/DSP/Source/TransformFunctions/arm_cfft_radix4_f32.c ****       /* ya' = ya + yb + yc + yd */
1164:Drivers/CMSIS/DSP/Source/TransformFunctions/arm_cfft_radix4_f32.c ****       pSrc[(2U * i0) + 1U] = (s1 + t2) * onebyfftLen;
1165:Drivers/CMSIS/DSP/Source/TransformFunctions/arm_cfft_radix4_f32.c **** 
ARM GAS  C:\Users\17832\AppData\Local\Temp\ccxoZ2T5.s 			page 54


1166:Drivers/CMSIS/DSP/Source/TransformFunctions/arm_cfft_radix4_f32.c ****       /* (ya + yc) - (yb + yd) */
1167:Drivers/CMSIS/DSP/Source/TransformFunctions/arm_cfft_radix4_f32.c ****       s1 = s1 - t2;
1168:Drivers/CMSIS/DSP/Source/TransformFunctions/arm_cfft_radix4_f32.c **** 
1169:Drivers/CMSIS/DSP/Source/TransformFunctions/arm_cfft_radix4_f32.c ****       /* (yb-yd) */
1170:Drivers/CMSIS/DSP/Source/TransformFunctions/arm_cfft_radix4_f32.c ****       t1 = pSrc[(2U * i1) + 1U] - pSrc[(2U * i3) + 1U];
1171:Drivers/CMSIS/DSP/Source/TransformFunctions/arm_cfft_radix4_f32.c **** 
1172:Drivers/CMSIS/DSP/Source/TransformFunctions/arm_cfft_radix4_f32.c ****       /* (xb-xd) */
1173:Drivers/CMSIS/DSP/Source/TransformFunctions/arm_cfft_radix4_f32.c ****       t2 = pSrc[2U * i1] - pSrc[2U * i3];
1174:Drivers/CMSIS/DSP/Source/TransformFunctions/arm_cfft_radix4_f32.c **** 
1175:Drivers/CMSIS/DSP/Source/TransformFunctions/arm_cfft_radix4_f32.c ****       /* xc' = (xa-xb+xc-xd)co2 - (ya-yb+yc-yd)(si2) */
1176:Drivers/CMSIS/DSP/Source/TransformFunctions/arm_cfft_radix4_f32.c ****       pSrc[2U * i1] = r1 * onebyfftLen;
1177:Drivers/CMSIS/DSP/Source/TransformFunctions/arm_cfft_radix4_f32.c **** 
1178:Drivers/CMSIS/DSP/Source/TransformFunctions/arm_cfft_radix4_f32.c ****       /* yc' = (ya-yb+yc-yd)co2 + (xa-xb+xc-xd)(si2) */
1179:Drivers/CMSIS/DSP/Source/TransformFunctions/arm_cfft_radix4_f32.c ****       pSrc[(2U * i1) + 1U] = s1 * onebyfftLen;
1180:Drivers/CMSIS/DSP/Source/TransformFunctions/arm_cfft_radix4_f32.c **** 
1181:Drivers/CMSIS/DSP/Source/TransformFunctions/arm_cfft_radix4_f32.c ****       /* (xa - xc) - (yb-yd) */
1182:Drivers/CMSIS/DSP/Source/TransformFunctions/arm_cfft_radix4_f32.c ****       r1 = r2 - t1;
1183:Drivers/CMSIS/DSP/Source/TransformFunctions/arm_cfft_radix4_f32.c **** 
1184:Drivers/CMSIS/DSP/Source/TransformFunctions/arm_cfft_radix4_f32.c ****       /* (xa - xc) + (yb-yd) */
1185:Drivers/CMSIS/DSP/Source/TransformFunctions/arm_cfft_radix4_f32.c ****       r2 = r2 + t1;
1186:Drivers/CMSIS/DSP/Source/TransformFunctions/arm_cfft_radix4_f32.c **** 
1187:Drivers/CMSIS/DSP/Source/TransformFunctions/arm_cfft_radix4_f32.c ****       /* (ya - yc) + (xb-xd) */
1188:Drivers/CMSIS/DSP/Source/TransformFunctions/arm_cfft_radix4_f32.c ****       s1 = s2 + t2;
1189:Drivers/CMSIS/DSP/Source/TransformFunctions/arm_cfft_radix4_f32.c **** 
1190:Drivers/CMSIS/DSP/Source/TransformFunctions/arm_cfft_radix4_f32.c ****       /* (ya - yc) - (xb-xd) */
1191:Drivers/CMSIS/DSP/Source/TransformFunctions/arm_cfft_radix4_f32.c ****       s2 = s2 - t2;
1192:Drivers/CMSIS/DSP/Source/TransformFunctions/arm_cfft_radix4_f32.c **** 
1193:Drivers/CMSIS/DSP/Source/TransformFunctions/arm_cfft_radix4_f32.c ****       /* xb' = (xa+yb-xc-yd)co1 - (ya-xb-yc+xd)(si1) */
1194:Drivers/CMSIS/DSP/Source/TransformFunctions/arm_cfft_radix4_f32.c ****       pSrc[2U * i2] = r1 * onebyfftLen;
1195:Drivers/CMSIS/DSP/Source/TransformFunctions/arm_cfft_radix4_f32.c **** 
1196:Drivers/CMSIS/DSP/Source/TransformFunctions/arm_cfft_radix4_f32.c ****       /* yb' = (ya-xb-yc+xd)co1 + (xa+yb-xc-yd)(si1) */
1197:Drivers/CMSIS/DSP/Source/TransformFunctions/arm_cfft_radix4_f32.c ****       pSrc[(2U * i2) + 1U] = s1 * onebyfftLen;
1198:Drivers/CMSIS/DSP/Source/TransformFunctions/arm_cfft_radix4_f32.c **** 
1199:Drivers/CMSIS/DSP/Source/TransformFunctions/arm_cfft_radix4_f32.c ****       /* xd' = (xa-yb-xc+yd)co3 - (ya+xb-yc-xd)(si3) */
1200:Drivers/CMSIS/DSP/Source/TransformFunctions/arm_cfft_radix4_f32.c ****       pSrc[2U * i3] = r2 * onebyfftLen;
1201:Drivers/CMSIS/DSP/Source/TransformFunctions/arm_cfft_radix4_f32.c **** 
1202:Drivers/CMSIS/DSP/Source/TransformFunctions/arm_cfft_radix4_f32.c ****       /* yd' = (ya+xb-yc-xd)co3 + (xa-yb-xc+yd)(si3) */
1203:Drivers/CMSIS/DSP/Source/TransformFunctions/arm_cfft_radix4_f32.c ****       pSrc[(2U * i3) + 1U] = s2 * onebyfftLen;
1204:Drivers/CMSIS/DSP/Source/TransformFunctions/arm_cfft_radix4_f32.c ****    }
1205:Drivers/CMSIS/DSP/Source/TransformFunctions/arm_cfft_radix4_f32.c **** 
1206:Drivers/CMSIS/DSP/Source/TransformFunctions/arm_cfft_radix4_f32.c **** #endif /* #if defined (ARM_MATH_DSP) */
1207:Drivers/CMSIS/DSP/Source/TransformFunctions/arm_cfft_radix4_f32.c **** }
 1842              		.loc 1 1207 1 view .LVU830
 1843 03be 07B0     		add	sp, sp, #28
 1844              	.LCFI8:
 1845              		.cfi_def_cfa_offset 52
 1846              		@ sp needed
 1847 03c0 BDEC048B 		vldm	sp!, {d8-d9}
 1848              	.LCFI9:
 1849              		.cfi_restore 82
 1850              		.cfi_restore 83
 1851              		.cfi_restore 80
 1852              		.cfi_restore 81
 1853              		.cfi_def_cfa_offset 36
 1854              	.LVL354:
 1855              		.loc 1 1207 1 view .LVU831
 1856 03c4 BDE8F08F 		pop	{r4, r5, r6, r7, r8, r9, r10, fp, pc}
ARM GAS  C:\Users\17832\AppData\Local\Temp\ccxoZ2T5.s 			page 55


 1857              		.loc 1 1207 1 view .LVU832
 1858              		.cfi_endproc
 1859              	.LFE137:
 1861              		.section	.text.arm_cfft_radix4_f32,"ax",%progbits
 1862              		.align	1
 1863              		.global	arm_cfft_radix4_f32
 1864              		.syntax unified
 1865              		.thumb
 1866              		.thumb_func
 1868              	arm_cfft_radix4_f32:
 1869              	.LVL355:
 1870              	.LFB135:
  73:Drivers/CMSIS/DSP/Source/TransformFunctions/arm_cfft_radix4_f32.c ****    if (S->ifftFlag == 1U)
 1871              		.loc 1 73 1 is_stmt 1 view -0
 1872              		.cfi_startproc
 1873              		@ args = 0, pretend = 0, frame = 0
 1874              		@ frame_needed = 0, uses_anonymous_args = 0
  73:Drivers/CMSIS/DSP/Source/TransformFunctions/arm_cfft_radix4_f32.c ****    if (S->ifftFlag == 1U)
 1875              		.loc 1 73 1 is_stmt 0 view .LVU834
 1876 0000 38B5     		push	{r3, r4, r5, lr}
 1877              	.LCFI10:
 1878              		.cfi_def_cfa_offset 16
 1879              		.cfi_offset 3, -16
 1880              		.cfi_offset 4, -12
 1881              		.cfi_offset 5, -8
 1882              		.cfi_offset 14, -4
 1883 0002 0446     		mov	r4, r0
 1884 0004 0D46     		mov	r5, r1
  74:Drivers/CMSIS/DSP/Source/TransformFunctions/arm_cfft_radix4_f32.c ****    {
 1885              		.loc 1 74 4 is_stmt 1 view .LVU835
  74:Drivers/CMSIS/DSP/Source/TransformFunctions/arm_cfft_radix4_f32.c ****    {
 1886              		.loc 1 74 9 is_stmt 0 view .LVU836
 1887 0006 8378     		ldrb	r3, [r0, #2]	@ zero_extendqisi2
  74:Drivers/CMSIS/DSP/Source/TransformFunctions/arm_cfft_radix4_f32.c ****    {
 1888              		.loc 1 74 7 view .LVU837
 1889 0008 012B     		cmp	r3, #1
 1890 000a 09D0     		beq	.L22
  82:Drivers/CMSIS/DSP/Source/TransformFunctions/arm_cfft_radix4_f32.c ****    }
 1891              		.loc 1 82 7 is_stmt 1 view .LVU838
 1892 000c 8389     		ldrh	r3, [r0, #12]
 1893 000e 4268     		ldr	r2, [r0, #4]
 1894 0010 0188     		ldrh	r1, [r0]
 1895              	.LVL356:
  82:Drivers/CMSIS/DSP/Source/TransformFunctions/arm_cfft_radix4_f32.c ****    }
 1896              		.loc 1 82 7 is_stmt 0 view .LVU839
 1897 0012 2846     		mov	r0, r5
 1898              	.LVL357:
  82:Drivers/CMSIS/DSP/Source/TransformFunctions/arm_cfft_radix4_f32.c ****    }
 1899              		.loc 1 82 7 view .LVU840
 1900 0014 FFF7FEFF 		bl	arm_radix4_butterfly_f32
 1901              	.LVL358:
 1902              	.L19:
  85:Drivers/CMSIS/DSP/Source/TransformFunctions/arm_cfft_radix4_f32.c ****    {
 1903              		.loc 1 85 4 is_stmt 1 view .LVU841
  85:Drivers/CMSIS/DSP/Source/TransformFunctions/arm_cfft_radix4_f32.c ****    {
 1904              		.loc 1 85 9 is_stmt 0 view .LVU842
 1905 0018 E378     		ldrb	r3, [r4, #3]	@ zero_extendqisi2
ARM GAS  C:\Users\17832\AppData\Local\Temp\ccxoZ2T5.s 			page 56


  85:Drivers/CMSIS/DSP/Source/TransformFunctions/arm_cfft_radix4_f32.c ****    {
 1906              		.loc 1 85 7 view .LVU843
 1907 001a 012B     		cmp	r3, #1
 1908 001c 09D0     		beq	.L23
 1909              	.L17:
  91:Drivers/CMSIS/DSP/Source/TransformFunctions/arm_cfft_radix4_f32.c **** 
 1910              		.loc 1 91 1 view .LVU844
 1911 001e 38BD     		pop	{r3, r4, r5, pc}
 1912              	.LVL359:
 1913              	.L22:
  77:Drivers/CMSIS/DSP/Source/TransformFunctions/arm_cfft_radix4_f32.c ****    }
 1914              		.loc 1 77 7 is_stmt 1 view .LVU845
 1915 0020 90ED040A 		vldr.32	s0, [r0, #16]
 1916 0024 8389     		ldrh	r3, [r0, #12]
 1917 0026 4268     		ldr	r2, [r0, #4]
 1918 0028 0188     		ldrh	r1, [r0]
 1919              	.LVL360:
  77:Drivers/CMSIS/DSP/Source/TransformFunctions/arm_cfft_radix4_f32.c ****    }
 1920              		.loc 1 77 7 is_stmt 0 view .LVU846
 1921 002a 2846     		mov	r0, r5
 1922              	.LVL361:
  77:Drivers/CMSIS/DSP/Source/TransformFunctions/arm_cfft_radix4_f32.c ****    }
 1923              		.loc 1 77 7 view .LVU847
 1924 002c FFF7FEFF 		bl	arm_radix4_butterfly_inverse_f32
 1925              	.LVL362:
 1926 0030 F2E7     		b	.L19
 1927              	.L23:
  88:Drivers/CMSIS/DSP/Source/TransformFunctions/arm_cfft_radix4_f32.c ****    }
 1928              		.loc 1 88 7 is_stmt 1 view .LVU848
 1929 0032 A368     		ldr	r3, [r4, #8]
 1930 0034 E289     		ldrh	r2, [r4, #14]
 1931 0036 2188     		ldrh	r1, [r4]
 1932 0038 2846     		mov	r0, r5
 1933 003a FFF7FEFF 		bl	arm_bitreversal_f32
 1934              	.LVL363:
  91:Drivers/CMSIS/DSP/Source/TransformFunctions/arm_cfft_radix4_f32.c **** 
 1935              		.loc 1 91 1 is_stmt 0 view .LVU849
 1936 003e EEE7     		b	.L17
 1937              		.cfi_endproc
 1938              	.LFE135:
 1940              		.text
 1941              	.Letext0:
 1942              		.file 2 "d:\\gnu arm embedded toolchain\\10 2021.10\\arm-none-eabi\\include\\machine\\_default_typ
 1943              		.file 3 "d:\\gnu arm embedded toolchain\\10 2021.10\\arm-none-eabi\\include\\sys\\_stdint.h"
 1944              		.file 4 "Drivers/CMSIS/DSP/Include/arm_math.h"
ARM GAS  C:\Users\17832\AppData\Local\Temp\ccxoZ2T5.s 			page 57

