ARM GAS  C:\Users\17832\AppData\Local\Temp\ccyMtfRp.s 			page 1


   1              		.cpu cortex-m4
   2              		.arch armv7e-m
   3              		.fpu fpv4-sp-d16
   4              		.eabi_attribute 27, 1
   5              		.eabi_attribute 28, 1
   6              		.eabi_attribute 20, 1
   7              		.eabi_attribute 21, 1
   8              		.eabi_attribute 23, 3
   9              		.eabi_attribute 24, 1
  10              		.eabi_attribute 25, 1
  11              		.eabi_attribute 26, 1
  12              		.eabi_attribute 30, 1
  13              		.eabi_attribute 34, 1
  14              		.eabi_attribute 18, 4
  15              		.file	"arm_cfft_radix4_q15.c"
  16              		.text
  17              	.Ltext0:
  18              		.cfi_sections	.debug_frame
  19              		.section	.text.arm_radix4_butterfly_q15,"ax",%progbits
  20              		.align	1
  21              		.global	arm_radix4_butterfly_q15
  22              		.syntax unified
  23              		.thumb
  24              		.thumb_func
  26              	arm_radix4_butterfly_q15:
  27              	.LVL0:
  28              	.LFB136:
  29              		.file 1 "Drivers/CMSIS/DSP/Source/TransformFunctions/arm_cfft_radix4_q15.c"
   1:Drivers/CMSIS/DSP/Source/TransformFunctions/arm_cfft_radix4_q15.c **** /* ----------------------------------------------------------------------
   2:Drivers/CMSIS/DSP/Source/TransformFunctions/arm_cfft_radix4_q15.c ****  * Project:      CMSIS DSP Library
   3:Drivers/CMSIS/DSP/Source/TransformFunctions/arm_cfft_radix4_q15.c ****  * Title:        arm_cfft_radix4_q15.c
   4:Drivers/CMSIS/DSP/Source/TransformFunctions/arm_cfft_radix4_q15.c ****  * Description:  This file has function definition of Radix-4 FFT & IFFT function and
   5:Drivers/CMSIS/DSP/Source/TransformFunctions/arm_cfft_radix4_q15.c ****  *               In-place bit reversal using bit reversal table
   6:Drivers/CMSIS/DSP/Source/TransformFunctions/arm_cfft_radix4_q15.c ****  *
   7:Drivers/CMSIS/DSP/Source/TransformFunctions/arm_cfft_radix4_q15.c ****  * $Date:        27. January 2017
   8:Drivers/CMSIS/DSP/Source/TransformFunctions/arm_cfft_radix4_q15.c ****  * $Revision:    V.1.5.1
   9:Drivers/CMSIS/DSP/Source/TransformFunctions/arm_cfft_radix4_q15.c ****  *
  10:Drivers/CMSIS/DSP/Source/TransformFunctions/arm_cfft_radix4_q15.c ****  * Target Processor: Cortex-M cores
  11:Drivers/CMSIS/DSP/Source/TransformFunctions/arm_cfft_radix4_q15.c ****  * -------------------------------------------------------------------- */
  12:Drivers/CMSIS/DSP/Source/TransformFunctions/arm_cfft_radix4_q15.c **** /*
  13:Drivers/CMSIS/DSP/Source/TransformFunctions/arm_cfft_radix4_q15.c ****  * Copyright (C) 2010-2017 ARM Limited or its affiliates. All rights reserved.
  14:Drivers/CMSIS/DSP/Source/TransformFunctions/arm_cfft_radix4_q15.c ****  *
  15:Drivers/CMSIS/DSP/Source/TransformFunctions/arm_cfft_radix4_q15.c ****  * SPDX-License-Identifier: Apache-2.0
  16:Drivers/CMSIS/DSP/Source/TransformFunctions/arm_cfft_radix4_q15.c ****  *
  17:Drivers/CMSIS/DSP/Source/TransformFunctions/arm_cfft_radix4_q15.c ****  * Licensed under the Apache License, Version 2.0 (the License); you may
  18:Drivers/CMSIS/DSP/Source/TransformFunctions/arm_cfft_radix4_q15.c ****  * not use this file except in compliance with the License.
  19:Drivers/CMSIS/DSP/Source/TransformFunctions/arm_cfft_radix4_q15.c ****  * You may obtain a copy of the License at
  20:Drivers/CMSIS/DSP/Source/TransformFunctions/arm_cfft_radix4_q15.c ****  *
  21:Drivers/CMSIS/DSP/Source/TransformFunctions/arm_cfft_radix4_q15.c ****  * www.apache.org/licenses/LICENSE-2.0
  22:Drivers/CMSIS/DSP/Source/TransformFunctions/arm_cfft_radix4_q15.c ****  *
  23:Drivers/CMSIS/DSP/Source/TransformFunctions/arm_cfft_radix4_q15.c ****  * Unless required by applicable law or agreed to in writing, software
  24:Drivers/CMSIS/DSP/Source/TransformFunctions/arm_cfft_radix4_q15.c ****  * distributed under the License is distributed on an AS IS BASIS, WITHOUT
  25:Drivers/CMSIS/DSP/Source/TransformFunctions/arm_cfft_radix4_q15.c ****  * WARRANTIES OR CONDITIONS OF ANY KIND, either express or implied.
  26:Drivers/CMSIS/DSP/Source/TransformFunctions/arm_cfft_radix4_q15.c ****  * See the License for the specific language governing permissions and
  27:Drivers/CMSIS/DSP/Source/TransformFunctions/arm_cfft_radix4_q15.c ****  * limitations under the License.
  28:Drivers/CMSIS/DSP/Source/TransformFunctions/arm_cfft_radix4_q15.c ****  */
  29:Drivers/CMSIS/DSP/Source/TransformFunctions/arm_cfft_radix4_q15.c **** 
ARM GAS  C:\Users\17832\AppData\Local\Temp\ccyMtfRp.s 			page 2


  30:Drivers/CMSIS/DSP/Source/TransformFunctions/arm_cfft_radix4_q15.c **** #include "arm_math.h"
  31:Drivers/CMSIS/DSP/Source/TransformFunctions/arm_cfft_radix4_q15.c **** 
  32:Drivers/CMSIS/DSP/Source/TransformFunctions/arm_cfft_radix4_q15.c **** 
  33:Drivers/CMSIS/DSP/Source/TransformFunctions/arm_cfft_radix4_q15.c **** void arm_radix4_butterfly_q15(
  34:Drivers/CMSIS/DSP/Source/TransformFunctions/arm_cfft_radix4_q15.c ****   q15_t * pSrc16,
  35:Drivers/CMSIS/DSP/Source/TransformFunctions/arm_cfft_radix4_q15.c ****   uint32_t fftLen,
  36:Drivers/CMSIS/DSP/Source/TransformFunctions/arm_cfft_radix4_q15.c ****   q15_t * pCoef16,
  37:Drivers/CMSIS/DSP/Source/TransformFunctions/arm_cfft_radix4_q15.c ****   uint32_t twidCoefModifier);
  38:Drivers/CMSIS/DSP/Source/TransformFunctions/arm_cfft_radix4_q15.c **** 
  39:Drivers/CMSIS/DSP/Source/TransformFunctions/arm_cfft_radix4_q15.c **** void arm_radix4_butterfly_inverse_q15(
  40:Drivers/CMSIS/DSP/Source/TransformFunctions/arm_cfft_radix4_q15.c ****   q15_t * pSrc16,
  41:Drivers/CMSIS/DSP/Source/TransformFunctions/arm_cfft_radix4_q15.c ****   uint32_t fftLen,
  42:Drivers/CMSIS/DSP/Source/TransformFunctions/arm_cfft_radix4_q15.c ****   q15_t * pCoef16,
  43:Drivers/CMSIS/DSP/Source/TransformFunctions/arm_cfft_radix4_q15.c ****   uint32_t twidCoefModifier);
  44:Drivers/CMSIS/DSP/Source/TransformFunctions/arm_cfft_radix4_q15.c **** 
  45:Drivers/CMSIS/DSP/Source/TransformFunctions/arm_cfft_radix4_q15.c **** void arm_bitreversal_q15(
  46:Drivers/CMSIS/DSP/Source/TransformFunctions/arm_cfft_radix4_q15.c ****   q15_t * pSrc,
  47:Drivers/CMSIS/DSP/Source/TransformFunctions/arm_cfft_radix4_q15.c ****   uint32_t fftLen,
  48:Drivers/CMSIS/DSP/Source/TransformFunctions/arm_cfft_radix4_q15.c ****   uint16_t bitRevFactor,
  49:Drivers/CMSIS/DSP/Source/TransformFunctions/arm_cfft_radix4_q15.c ****   uint16_t * pBitRevTab);
  50:Drivers/CMSIS/DSP/Source/TransformFunctions/arm_cfft_radix4_q15.c **** 
  51:Drivers/CMSIS/DSP/Source/TransformFunctions/arm_cfft_radix4_q15.c **** /**
  52:Drivers/CMSIS/DSP/Source/TransformFunctions/arm_cfft_radix4_q15.c ****  * @ingroup groupTransforms
  53:Drivers/CMSIS/DSP/Source/TransformFunctions/arm_cfft_radix4_q15.c ****  */
  54:Drivers/CMSIS/DSP/Source/TransformFunctions/arm_cfft_radix4_q15.c **** 
  55:Drivers/CMSIS/DSP/Source/TransformFunctions/arm_cfft_radix4_q15.c **** /**
  56:Drivers/CMSIS/DSP/Source/TransformFunctions/arm_cfft_radix4_q15.c ****  * @addtogroup ComplexFFT
  57:Drivers/CMSIS/DSP/Source/TransformFunctions/arm_cfft_radix4_q15.c ****  * @{
  58:Drivers/CMSIS/DSP/Source/TransformFunctions/arm_cfft_radix4_q15.c ****  */
  59:Drivers/CMSIS/DSP/Source/TransformFunctions/arm_cfft_radix4_q15.c **** 
  60:Drivers/CMSIS/DSP/Source/TransformFunctions/arm_cfft_radix4_q15.c **** 
  61:Drivers/CMSIS/DSP/Source/TransformFunctions/arm_cfft_radix4_q15.c **** /**
  62:Drivers/CMSIS/DSP/Source/TransformFunctions/arm_cfft_radix4_q15.c ****  * @details
  63:Drivers/CMSIS/DSP/Source/TransformFunctions/arm_cfft_radix4_q15.c ****  * @brief Processing function for the Q15 CFFT/CIFFT.
  64:Drivers/CMSIS/DSP/Source/TransformFunctions/arm_cfft_radix4_q15.c ****  * @deprecated Do not use this function.  It has been superseded by \ref arm_cfft_q15 and will be r
  65:Drivers/CMSIS/DSP/Source/TransformFunctions/arm_cfft_radix4_q15.c ****  * @param[in]      *S    points to an instance of the Q15 CFFT/CIFFT structure.
  66:Drivers/CMSIS/DSP/Source/TransformFunctions/arm_cfft_radix4_q15.c ****  * @param[in, out] *pSrc points to the complex data buffer. Processing occurs in-place.
  67:Drivers/CMSIS/DSP/Source/TransformFunctions/arm_cfft_radix4_q15.c ****  * @return none.
  68:Drivers/CMSIS/DSP/Source/TransformFunctions/arm_cfft_radix4_q15.c ****  *
  69:Drivers/CMSIS/DSP/Source/TransformFunctions/arm_cfft_radix4_q15.c ****  * \par Input and output formats:
  70:Drivers/CMSIS/DSP/Source/TransformFunctions/arm_cfft_radix4_q15.c ****  * \par
  71:Drivers/CMSIS/DSP/Source/TransformFunctions/arm_cfft_radix4_q15.c ****  * Internally input is downscaled by 2 for every stage to avoid saturations inside CFFT/CIFFT proce
  72:Drivers/CMSIS/DSP/Source/TransformFunctions/arm_cfft_radix4_q15.c ****  * Hence the output format is different for different FFT sizes.
  73:Drivers/CMSIS/DSP/Source/TransformFunctions/arm_cfft_radix4_q15.c ****  * The input and output formats for different FFT sizes and number of bits to upscale are mentioned
  74:Drivers/CMSIS/DSP/Source/TransformFunctions/arm_cfft_radix4_q15.c ****  * \par
  75:Drivers/CMSIS/DSP/Source/TransformFunctions/arm_cfft_radix4_q15.c ****  * \image html CFFTQ15.gif "Input and Output Formats for Q15 CFFT"
  76:Drivers/CMSIS/DSP/Source/TransformFunctions/arm_cfft_radix4_q15.c ****  * \image html CIFFTQ15.gif "Input and Output Formats for Q15 CIFFT"
  77:Drivers/CMSIS/DSP/Source/TransformFunctions/arm_cfft_radix4_q15.c ****  */
  78:Drivers/CMSIS/DSP/Source/TransformFunctions/arm_cfft_radix4_q15.c **** 
  79:Drivers/CMSIS/DSP/Source/TransformFunctions/arm_cfft_radix4_q15.c **** void arm_cfft_radix4_q15(
  80:Drivers/CMSIS/DSP/Source/TransformFunctions/arm_cfft_radix4_q15.c ****   const arm_cfft_radix4_instance_q15 * S,
  81:Drivers/CMSIS/DSP/Source/TransformFunctions/arm_cfft_radix4_q15.c ****   q15_t * pSrc)
  82:Drivers/CMSIS/DSP/Source/TransformFunctions/arm_cfft_radix4_q15.c **** {
  83:Drivers/CMSIS/DSP/Source/TransformFunctions/arm_cfft_radix4_q15.c ****   if (S->ifftFlag == 1U)
  84:Drivers/CMSIS/DSP/Source/TransformFunctions/arm_cfft_radix4_q15.c ****   {
  85:Drivers/CMSIS/DSP/Source/TransformFunctions/arm_cfft_radix4_q15.c ****     /*  Complex IFFT radix-4  */
  86:Drivers/CMSIS/DSP/Source/TransformFunctions/arm_cfft_radix4_q15.c ****     arm_radix4_butterfly_inverse_q15(pSrc, S->fftLen, S->pTwiddle, S->twidCoefModifier);
ARM GAS  C:\Users\17832\AppData\Local\Temp\ccyMtfRp.s 			page 3


  87:Drivers/CMSIS/DSP/Source/TransformFunctions/arm_cfft_radix4_q15.c ****   }
  88:Drivers/CMSIS/DSP/Source/TransformFunctions/arm_cfft_radix4_q15.c ****   else
  89:Drivers/CMSIS/DSP/Source/TransformFunctions/arm_cfft_radix4_q15.c ****   {
  90:Drivers/CMSIS/DSP/Source/TransformFunctions/arm_cfft_radix4_q15.c ****     /*  Complex FFT radix-4  */
  91:Drivers/CMSIS/DSP/Source/TransformFunctions/arm_cfft_radix4_q15.c ****     arm_radix4_butterfly_q15(pSrc, S->fftLen, S->pTwiddle, S->twidCoefModifier);
  92:Drivers/CMSIS/DSP/Source/TransformFunctions/arm_cfft_radix4_q15.c ****   }
  93:Drivers/CMSIS/DSP/Source/TransformFunctions/arm_cfft_radix4_q15.c **** 
  94:Drivers/CMSIS/DSP/Source/TransformFunctions/arm_cfft_radix4_q15.c ****   if (S->bitReverseFlag == 1U)
  95:Drivers/CMSIS/DSP/Source/TransformFunctions/arm_cfft_radix4_q15.c ****   {
  96:Drivers/CMSIS/DSP/Source/TransformFunctions/arm_cfft_radix4_q15.c ****     /*  Bit Reversal */
  97:Drivers/CMSIS/DSP/Source/TransformFunctions/arm_cfft_radix4_q15.c ****     arm_bitreversal_q15(pSrc, S->fftLen, S->bitRevFactor, S->pBitRevTable);
  98:Drivers/CMSIS/DSP/Source/TransformFunctions/arm_cfft_radix4_q15.c ****   }
  99:Drivers/CMSIS/DSP/Source/TransformFunctions/arm_cfft_radix4_q15.c **** 
 100:Drivers/CMSIS/DSP/Source/TransformFunctions/arm_cfft_radix4_q15.c **** }
 101:Drivers/CMSIS/DSP/Source/TransformFunctions/arm_cfft_radix4_q15.c **** 
 102:Drivers/CMSIS/DSP/Source/TransformFunctions/arm_cfft_radix4_q15.c **** /**
 103:Drivers/CMSIS/DSP/Source/TransformFunctions/arm_cfft_radix4_q15.c ****  * @} end of ComplexFFT group
 104:Drivers/CMSIS/DSP/Source/TransformFunctions/arm_cfft_radix4_q15.c ****  */
 105:Drivers/CMSIS/DSP/Source/TransformFunctions/arm_cfft_radix4_q15.c **** 
 106:Drivers/CMSIS/DSP/Source/TransformFunctions/arm_cfft_radix4_q15.c **** /*
 107:Drivers/CMSIS/DSP/Source/TransformFunctions/arm_cfft_radix4_q15.c **** * Radix-4 FFT algorithm used is :
 108:Drivers/CMSIS/DSP/Source/TransformFunctions/arm_cfft_radix4_q15.c **** *
 109:Drivers/CMSIS/DSP/Source/TransformFunctions/arm_cfft_radix4_q15.c **** * Input real and imaginary data:
 110:Drivers/CMSIS/DSP/Source/TransformFunctions/arm_cfft_radix4_q15.c **** * x(n) = xa + j * ya
 111:Drivers/CMSIS/DSP/Source/TransformFunctions/arm_cfft_radix4_q15.c **** * x(n+N/4 ) = xb + j * yb
 112:Drivers/CMSIS/DSP/Source/TransformFunctions/arm_cfft_radix4_q15.c **** * x(n+N/2 ) = xc + j * yc
 113:Drivers/CMSIS/DSP/Source/TransformFunctions/arm_cfft_radix4_q15.c **** * x(n+3N 4) = xd + j * yd
 114:Drivers/CMSIS/DSP/Source/TransformFunctions/arm_cfft_radix4_q15.c **** *
 115:Drivers/CMSIS/DSP/Source/TransformFunctions/arm_cfft_radix4_q15.c **** *
 116:Drivers/CMSIS/DSP/Source/TransformFunctions/arm_cfft_radix4_q15.c **** * Output real and imaginary data:
 117:Drivers/CMSIS/DSP/Source/TransformFunctions/arm_cfft_radix4_q15.c **** * x(4r) = xa'+ j * ya'
 118:Drivers/CMSIS/DSP/Source/TransformFunctions/arm_cfft_radix4_q15.c **** * x(4r+1) = xb'+ j * yb'
 119:Drivers/CMSIS/DSP/Source/TransformFunctions/arm_cfft_radix4_q15.c **** * x(4r+2) = xc'+ j * yc'
 120:Drivers/CMSIS/DSP/Source/TransformFunctions/arm_cfft_radix4_q15.c **** * x(4r+3) = xd'+ j * yd'
 121:Drivers/CMSIS/DSP/Source/TransformFunctions/arm_cfft_radix4_q15.c **** *
 122:Drivers/CMSIS/DSP/Source/TransformFunctions/arm_cfft_radix4_q15.c **** *
 123:Drivers/CMSIS/DSP/Source/TransformFunctions/arm_cfft_radix4_q15.c **** * Twiddle factors for radix-4 FFT:
 124:Drivers/CMSIS/DSP/Source/TransformFunctions/arm_cfft_radix4_q15.c **** * Wn = co1 + j * (- si1)
 125:Drivers/CMSIS/DSP/Source/TransformFunctions/arm_cfft_radix4_q15.c **** * W2n = co2 + j * (- si2)
 126:Drivers/CMSIS/DSP/Source/TransformFunctions/arm_cfft_radix4_q15.c **** * W3n = co3 + j * (- si3)
 127:Drivers/CMSIS/DSP/Source/TransformFunctions/arm_cfft_radix4_q15.c **** 
 128:Drivers/CMSIS/DSP/Source/TransformFunctions/arm_cfft_radix4_q15.c **** * The real and imaginary output values for the radix-4 butterfly are
 129:Drivers/CMSIS/DSP/Source/TransformFunctions/arm_cfft_radix4_q15.c **** * xa' = xa + xb + xc + xd
 130:Drivers/CMSIS/DSP/Source/TransformFunctions/arm_cfft_radix4_q15.c **** * ya' = ya + yb + yc + yd
 131:Drivers/CMSIS/DSP/Source/TransformFunctions/arm_cfft_radix4_q15.c **** * xb' = (xa+yb-xc-yd)* co1 + (ya-xb-yc+xd)* (si1)
 132:Drivers/CMSIS/DSP/Source/TransformFunctions/arm_cfft_radix4_q15.c **** * yb' = (ya-xb-yc+xd)* co1 - (xa+yb-xc-yd)* (si1)
 133:Drivers/CMSIS/DSP/Source/TransformFunctions/arm_cfft_radix4_q15.c **** * xc' = (xa-xb+xc-xd)* co2 + (ya-yb+yc-yd)* (si2)
 134:Drivers/CMSIS/DSP/Source/TransformFunctions/arm_cfft_radix4_q15.c **** * yc' = (ya-yb+yc-yd)* co2 - (xa-xb+xc-xd)* (si2)
 135:Drivers/CMSIS/DSP/Source/TransformFunctions/arm_cfft_radix4_q15.c **** * xd' = (xa-yb-xc+yd)* co3 + (ya+xb-yc-xd)* (si3)
 136:Drivers/CMSIS/DSP/Source/TransformFunctions/arm_cfft_radix4_q15.c **** * yd' = (ya+xb-yc-xd)* co3 - (xa-yb-xc+yd)* (si3)
 137:Drivers/CMSIS/DSP/Source/TransformFunctions/arm_cfft_radix4_q15.c **** *
 138:Drivers/CMSIS/DSP/Source/TransformFunctions/arm_cfft_radix4_q15.c **** */
 139:Drivers/CMSIS/DSP/Source/TransformFunctions/arm_cfft_radix4_q15.c **** 
 140:Drivers/CMSIS/DSP/Source/TransformFunctions/arm_cfft_radix4_q15.c **** /**
 141:Drivers/CMSIS/DSP/Source/TransformFunctions/arm_cfft_radix4_q15.c ****  * @brief  Core function for the Q15 CFFT butterfly process.
 142:Drivers/CMSIS/DSP/Source/TransformFunctions/arm_cfft_radix4_q15.c ****  * @param[in, out] *pSrc16          points to the in-place buffer of Q15 data type.
 143:Drivers/CMSIS/DSP/Source/TransformFunctions/arm_cfft_radix4_q15.c ****  * @param[in]      fftLen           length of the FFT.
ARM GAS  C:\Users\17832\AppData\Local\Temp\ccyMtfRp.s 			page 4


 144:Drivers/CMSIS/DSP/Source/TransformFunctions/arm_cfft_radix4_q15.c ****  * @param[in]      *pCoef16         points to twiddle coefficient buffer.
 145:Drivers/CMSIS/DSP/Source/TransformFunctions/arm_cfft_radix4_q15.c ****  * @param[in]      twidCoefModifier twiddle coefficient modifier that supports different size FFTs 
 146:Drivers/CMSIS/DSP/Source/TransformFunctions/arm_cfft_radix4_q15.c ****  * @return none.
 147:Drivers/CMSIS/DSP/Source/TransformFunctions/arm_cfft_radix4_q15.c ****  */
 148:Drivers/CMSIS/DSP/Source/TransformFunctions/arm_cfft_radix4_q15.c **** 
 149:Drivers/CMSIS/DSP/Source/TransformFunctions/arm_cfft_radix4_q15.c **** void arm_radix4_butterfly_q15(
 150:Drivers/CMSIS/DSP/Source/TransformFunctions/arm_cfft_radix4_q15.c ****   q15_t * pSrc16,
 151:Drivers/CMSIS/DSP/Source/TransformFunctions/arm_cfft_radix4_q15.c ****   uint32_t fftLen,
 152:Drivers/CMSIS/DSP/Source/TransformFunctions/arm_cfft_radix4_q15.c ****   q15_t * pCoef16,
 153:Drivers/CMSIS/DSP/Source/TransformFunctions/arm_cfft_radix4_q15.c ****   uint32_t twidCoefModifier)
 154:Drivers/CMSIS/DSP/Source/TransformFunctions/arm_cfft_radix4_q15.c **** {
  30              		.loc 1 154 1 view -0
  31              		.cfi_startproc
  32              		@ args = 0, pretend = 0, frame = 40
  33              		@ frame_needed = 0, uses_anonymous_args = 0
  34              		.loc 1 154 1 is_stmt 0 view .LVU1
  35 0000 2DE9F04F 		push	{r4, r5, r6, r7, r8, r9, r10, fp, lr}
  36              	.LCFI0:
  37              		.cfi_def_cfa_offset 36
  38              		.cfi_offset 4, -36
  39              		.cfi_offset 5, -32
  40              		.cfi_offset 6, -28
  41              		.cfi_offset 7, -24
  42              		.cfi_offset 8, -20
  43              		.cfi_offset 9, -16
  44              		.cfi_offset 10, -12
  45              		.cfi_offset 11, -8
  46              		.cfi_offset 14, -4
  47 0004 8BB0     		sub	sp, sp, #44
  48              	.LCFI1:
  49              		.cfi_def_cfa_offset 80
  50 0006 0646     		mov	r6, r0
  51 0008 0590     		str	r0, [sp, #20]
  52 000a 0091     		str	r1, [sp]
  53 000c 0692     		str	r2, [sp, #24]
  54 000e 9946     		mov	r9, r3
 155:Drivers/CMSIS/DSP/Source/TransformFunctions/arm_cfft_radix4_q15.c **** 
 156:Drivers/CMSIS/DSP/Source/TransformFunctions/arm_cfft_radix4_q15.c **** #if defined (ARM_MATH_DSP)
 157:Drivers/CMSIS/DSP/Source/TransformFunctions/arm_cfft_radix4_q15.c **** 
 158:Drivers/CMSIS/DSP/Source/TransformFunctions/arm_cfft_radix4_q15.c ****   /* Run the below code for Cortex-M4 and Cortex-M3 */
 159:Drivers/CMSIS/DSP/Source/TransformFunctions/arm_cfft_radix4_q15.c **** 
 160:Drivers/CMSIS/DSP/Source/TransformFunctions/arm_cfft_radix4_q15.c ****   q31_t R, S, T, U;
  55              		.loc 1 160 3 is_stmt 1 view .LVU2
 161:Drivers/CMSIS/DSP/Source/TransformFunctions/arm_cfft_radix4_q15.c ****   q31_t C1, C2, C3, out1, out2;
  56              		.loc 1 161 3 view .LVU3
 162:Drivers/CMSIS/DSP/Source/TransformFunctions/arm_cfft_radix4_q15.c ****   uint32_t n1, n2, ic, i0, j, k;
  57              		.loc 1 162 3 view .LVU4
 163:Drivers/CMSIS/DSP/Source/TransformFunctions/arm_cfft_radix4_q15.c **** 
 164:Drivers/CMSIS/DSP/Source/TransformFunctions/arm_cfft_radix4_q15.c ****   q15_t *ptr1;
  58              		.loc 1 164 3 view .LVU5
 165:Drivers/CMSIS/DSP/Source/TransformFunctions/arm_cfft_radix4_q15.c ****   q15_t *pSi0;
  59              		.loc 1 165 3 view .LVU6
 166:Drivers/CMSIS/DSP/Source/TransformFunctions/arm_cfft_radix4_q15.c ****   q15_t *pSi1;
  60              		.loc 1 166 3 view .LVU7
 167:Drivers/CMSIS/DSP/Source/TransformFunctions/arm_cfft_radix4_q15.c ****   q15_t *pSi2;
  61              		.loc 1 167 3 view .LVU8
 168:Drivers/CMSIS/DSP/Source/TransformFunctions/arm_cfft_radix4_q15.c ****   q15_t *pSi3;
ARM GAS  C:\Users\17832\AppData\Local\Temp\ccyMtfRp.s 			page 5


  62              		.loc 1 168 3 view .LVU9
 169:Drivers/CMSIS/DSP/Source/TransformFunctions/arm_cfft_radix4_q15.c **** 
 170:Drivers/CMSIS/DSP/Source/TransformFunctions/arm_cfft_radix4_q15.c ****   q31_t xaya, xbyb, xcyc, xdyd;
  63              		.loc 1 170 3 view .LVU10
 171:Drivers/CMSIS/DSP/Source/TransformFunctions/arm_cfft_radix4_q15.c **** 
 172:Drivers/CMSIS/DSP/Source/TransformFunctions/arm_cfft_radix4_q15.c ****   /* Total process is divided into three stages */
 173:Drivers/CMSIS/DSP/Source/TransformFunctions/arm_cfft_radix4_q15.c **** 
 174:Drivers/CMSIS/DSP/Source/TransformFunctions/arm_cfft_radix4_q15.c ****   /* process first stage, middle stages, & last stage */
 175:Drivers/CMSIS/DSP/Source/TransformFunctions/arm_cfft_radix4_q15.c **** 
 176:Drivers/CMSIS/DSP/Source/TransformFunctions/arm_cfft_radix4_q15.c ****   /*  Initializations for the first stage */
 177:Drivers/CMSIS/DSP/Source/TransformFunctions/arm_cfft_radix4_q15.c ****   n2 = fftLen;
  64              		.loc 1 177 3 view .LVU11
  65              	.LVL1:
 178:Drivers/CMSIS/DSP/Source/TransformFunctions/arm_cfft_radix4_q15.c ****   n1 = n2;
  66              		.loc 1 178 3 view .LVU12
 179:Drivers/CMSIS/DSP/Source/TransformFunctions/arm_cfft_radix4_q15.c **** 
 180:Drivers/CMSIS/DSP/Source/TransformFunctions/arm_cfft_radix4_q15.c ****   /* n2 = fftLen/4 */
 181:Drivers/CMSIS/DSP/Source/TransformFunctions/arm_cfft_radix4_q15.c ****   n2 >>= 2U;
  67              		.loc 1 181 3 view .LVU13
  68              		.loc 1 181 6 is_stmt 0 view .LVU14
  69 0010 8B08     		lsrs	r3, r1, #2
  70              	.LVL2:
  71              		.loc 1 181 6 view .LVU15
  72 0012 0993     		str	r3, [sp, #36]
  73              	.LVL3:
 182:Drivers/CMSIS/DSP/Source/TransformFunctions/arm_cfft_radix4_q15.c **** 
 183:Drivers/CMSIS/DSP/Source/TransformFunctions/arm_cfft_radix4_q15.c ****   /* Index for twiddle coefficient */
 184:Drivers/CMSIS/DSP/Source/TransformFunctions/arm_cfft_radix4_q15.c ****   ic = 0U;
  74              		.loc 1 184 3 is_stmt 1 view .LVU16
 185:Drivers/CMSIS/DSP/Source/TransformFunctions/arm_cfft_radix4_q15.c **** 
 186:Drivers/CMSIS/DSP/Source/TransformFunctions/arm_cfft_radix4_q15.c ****   /* Index for input read and output write */
 187:Drivers/CMSIS/DSP/Source/TransformFunctions/arm_cfft_radix4_q15.c ****   j = n2;
  75              		.loc 1 187 3 view .LVU17
 188:Drivers/CMSIS/DSP/Source/TransformFunctions/arm_cfft_radix4_q15.c **** 
 189:Drivers/CMSIS/DSP/Source/TransformFunctions/arm_cfft_radix4_q15.c ****   pSi0 = pSrc16;
  76              		.loc 1 189 3 view .LVU18
 190:Drivers/CMSIS/DSP/Source/TransformFunctions/arm_cfft_radix4_q15.c ****   pSi1 = pSi0 + 2 * n2;
  77              		.loc 1 190 3 view .LVU19
  78              		.loc 1 190 15 is_stmt 0 view .LVU20
  79 0014 21F00300 		bic	r0, r1, #3
  80              	.LVL4:
  81              		.loc 1 190 8 view .LVU21
  82 0018 3418     		adds	r4, r6, r0
  83              	.LVL5:
 191:Drivers/CMSIS/DSP/Source/TransformFunctions/arm_cfft_radix4_q15.c ****   pSi2 = pSi1 + 2 * n2;
  84              		.loc 1 191 3 is_stmt 1 view .LVU22
  85              		.loc 1 191 8 is_stmt 0 view .LVU23
  86 001a 06EB4005 		add	r5, r6, r0, lsl #1
  87              	.LVL6:
 192:Drivers/CMSIS/DSP/Source/TransformFunctions/arm_cfft_radix4_q15.c ****   pSi3 = pSi2 + 2 * n2;
  88              		.loc 1 192 3 is_stmt 1 view .LVU24
  89              		.loc 1 192 8 is_stmt 0 view .LVU25
  90 001e 2844     		add	r0, r0, r5
  91              	.LVL7:
 184:Drivers/CMSIS/DSP/Source/TransformFunctions/arm_cfft_radix4_q15.c **** 
  92              		.loc 1 184 6 view .LVU26
  93 0020 0021     		movs	r1, #0
ARM GAS  C:\Users\17832\AppData\Local\Temp\ccyMtfRp.s 			page 6


  94              	.LVL8:
 184:Drivers/CMSIS/DSP/Source/TransformFunctions/arm_cfft_radix4_q15.c **** 
  95              		.loc 1 184 6 view .LVU27
  96 0022 1F46     		mov	r7, r3
  97 0024 9446     		mov	ip, r2
  98              	.LVL9:
  99              	.L2:
 193:Drivers/CMSIS/DSP/Source/TransformFunctions/arm_cfft_radix4_q15.c **** 
 194:Drivers/CMSIS/DSP/Source/TransformFunctions/arm_cfft_radix4_q15.c ****   /* Input is in 1.15(q15) format */
 195:Drivers/CMSIS/DSP/Source/TransformFunctions/arm_cfft_radix4_q15.c **** 
 196:Drivers/CMSIS/DSP/Source/TransformFunctions/arm_cfft_radix4_q15.c ****   /*  start of first stage process */
 197:Drivers/CMSIS/DSP/Source/TransformFunctions/arm_cfft_radix4_q15.c ****   do
 100              		.loc 1 197 3 is_stmt 1 discriminator 1 view .LVU28
 198:Drivers/CMSIS/DSP/Source/TransformFunctions/arm_cfft_radix4_q15.c ****   {
 199:Drivers/CMSIS/DSP/Source/TransformFunctions/arm_cfft_radix4_q15.c ****     /*  Butterfly implementation */
 200:Drivers/CMSIS/DSP/Source/TransformFunctions/arm_cfft_radix4_q15.c **** 
 201:Drivers/CMSIS/DSP/Source/TransformFunctions/arm_cfft_radix4_q15.c ****     /*  Reading i0, i0+fftLen/2 inputs */
 202:Drivers/CMSIS/DSP/Source/TransformFunctions/arm_cfft_radix4_q15.c ****     /* Read ya (real), xa(imag) input */
 203:Drivers/CMSIS/DSP/Source/TransformFunctions/arm_cfft_radix4_q15.c ****     T = _SIMD32_OFFSET(pSi0);
 101              		.loc 1 203 5 discriminator 1 view .LVU29
 102              		.loc 1 203 7 is_stmt 0 discriminator 1 view .LVU30
 103 0026 3368     		ldr	r3, [r6]
 104              	.LVL10:
 204:Drivers/CMSIS/DSP/Source/TransformFunctions/arm_cfft_radix4_q15.c ****     T = __SHADD16(T, 0); // this is just a SIMD arithmetic shift right by 1
 105              		.loc 1 204 5 is_stmt 1 discriminator 1 view .LVU31
 106              	.LBB202:
 107              	.LBI202:
 108              		.file 2 "Drivers/CMSIS/Include/cmsis_gcc.h"
   1:Drivers/CMSIS/Include/cmsis_gcc.h **** /**************************************************************************//**
   2:Drivers/CMSIS/Include/cmsis_gcc.h ****  * @file     cmsis_gcc.h
   3:Drivers/CMSIS/Include/cmsis_gcc.h ****  * @brief    CMSIS compiler GCC header file
   4:Drivers/CMSIS/Include/cmsis_gcc.h ****  * @version  V5.0.4
   5:Drivers/CMSIS/Include/cmsis_gcc.h ****  * @date     09. April 2018
   6:Drivers/CMSIS/Include/cmsis_gcc.h ****  ******************************************************************************/
   7:Drivers/CMSIS/Include/cmsis_gcc.h **** /*
   8:Drivers/CMSIS/Include/cmsis_gcc.h ****  * Copyright (c) 2009-2018 Arm Limited. All rights reserved.
   9:Drivers/CMSIS/Include/cmsis_gcc.h ****  *
  10:Drivers/CMSIS/Include/cmsis_gcc.h ****  * SPDX-License-Identifier: Apache-2.0
  11:Drivers/CMSIS/Include/cmsis_gcc.h ****  *
  12:Drivers/CMSIS/Include/cmsis_gcc.h ****  * Licensed under the Apache License, Version 2.0 (the License); you may
  13:Drivers/CMSIS/Include/cmsis_gcc.h ****  * not use this file except in compliance with the License.
  14:Drivers/CMSIS/Include/cmsis_gcc.h ****  * You may obtain a copy of the License at
  15:Drivers/CMSIS/Include/cmsis_gcc.h ****  *
  16:Drivers/CMSIS/Include/cmsis_gcc.h ****  * www.apache.org/licenses/LICENSE-2.0
  17:Drivers/CMSIS/Include/cmsis_gcc.h ****  *
  18:Drivers/CMSIS/Include/cmsis_gcc.h ****  * Unless required by applicable law or agreed to in writing, software
  19:Drivers/CMSIS/Include/cmsis_gcc.h ****  * distributed under the License is distributed on an AS IS BASIS, WITHOUT
  20:Drivers/CMSIS/Include/cmsis_gcc.h ****  * WARRANTIES OR CONDITIONS OF ANY KIND, either express or implied.
  21:Drivers/CMSIS/Include/cmsis_gcc.h ****  * See the License for the specific language governing permissions and
  22:Drivers/CMSIS/Include/cmsis_gcc.h ****  * limitations under the License.
  23:Drivers/CMSIS/Include/cmsis_gcc.h ****  */
  24:Drivers/CMSIS/Include/cmsis_gcc.h **** 
  25:Drivers/CMSIS/Include/cmsis_gcc.h **** #ifndef __CMSIS_GCC_H
  26:Drivers/CMSIS/Include/cmsis_gcc.h **** #define __CMSIS_GCC_H
  27:Drivers/CMSIS/Include/cmsis_gcc.h **** 
  28:Drivers/CMSIS/Include/cmsis_gcc.h **** /* ignore some GCC warnings */
  29:Drivers/CMSIS/Include/cmsis_gcc.h **** #pragma GCC diagnostic push
ARM GAS  C:\Users\17832\AppData\Local\Temp\ccyMtfRp.s 			page 7


  30:Drivers/CMSIS/Include/cmsis_gcc.h **** #pragma GCC diagnostic ignored "-Wsign-conversion"
  31:Drivers/CMSIS/Include/cmsis_gcc.h **** #pragma GCC diagnostic ignored "-Wconversion"
  32:Drivers/CMSIS/Include/cmsis_gcc.h **** #pragma GCC diagnostic ignored "-Wunused-parameter"
  33:Drivers/CMSIS/Include/cmsis_gcc.h **** 
  34:Drivers/CMSIS/Include/cmsis_gcc.h **** /* Fallback for __has_builtin */
  35:Drivers/CMSIS/Include/cmsis_gcc.h **** #ifndef __has_builtin
  36:Drivers/CMSIS/Include/cmsis_gcc.h ****   #define __has_builtin(x) (0)
  37:Drivers/CMSIS/Include/cmsis_gcc.h **** #endif
  38:Drivers/CMSIS/Include/cmsis_gcc.h **** 
  39:Drivers/CMSIS/Include/cmsis_gcc.h **** /* CMSIS compiler specific defines */
  40:Drivers/CMSIS/Include/cmsis_gcc.h **** #ifndef   __ASM
  41:Drivers/CMSIS/Include/cmsis_gcc.h ****   #define __ASM                                  __asm
  42:Drivers/CMSIS/Include/cmsis_gcc.h **** #endif
  43:Drivers/CMSIS/Include/cmsis_gcc.h **** #ifndef   __INLINE
  44:Drivers/CMSIS/Include/cmsis_gcc.h ****   #define __INLINE                               inline
  45:Drivers/CMSIS/Include/cmsis_gcc.h **** #endif
  46:Drivers/CMSIS/Include/cmsis_gcc.h **** #ifndef   __STATIC_INLINE
  47:Drivers/CMSIS/Include/cmsis_gcc.h ****   #define __STATIC_INLINE                        static inline
  48:Drivers/CMSIS/Include/cmsis_gcc.h **** #endif
  49:Drivers/CMSIS/Include/cmsis_gcc.h **** #ifndef   __STATIC_FORCEINLINE                 
  50:Drivers/CMSIS/Include/cmsis_gcc.h ****   #define __STATIC_FORCEINLINE                   __attribute__((always_inline)) static inline
  51:Drivers/CMSIS/Include/cmsis_gcc.h **** #endif                                           
  52:Drivers/CMSIS/Include/cmsis_gcc.h **** #ifndef   __NO_RETURN
  53:Drivers/CMSIS/Include/cmsis_gcc.h ****   #define __NO_RETURN                            __attribute__((__noreturn__))
  54:Drivers/CMSIS/Include/cmsis_gcc.h **** #endif
  55:Drivers/CMSIS/Include/cmsis_gcc.h **** #ifndef   __USED
  56:Drivers/CMSIS/Include/cmsis_gcc.h ****   #define __USED                                 __attribute__((used))
  57:Drivers/CMSIS/Include/cmsis_gcc.h **** #endif
  58:Drivers/CMSIS/Include/cmsis_gcc.h **** #ifndef   __WEAK
  59:Drivers/CMSIS/Include/cmsis_gcc.h ****   #define __WEAK                                 __attribute__((weak))
  60:Drivers/CMSIS/Include/cmsis_gcc.h **** #endif
  61:Drivers/CMSIS/Include/cmsis_gcc.h **** #ifndef   __PACKED
  62:Drivers/CMSIS/Include/cmsis_gcc.h ****   #define __PACKED                               __attribute__((packed, aligned(1)))
  63:Drivers/CMSIS/Include/cmsis_gcc.h **** #endif
  64:Drivers/CMSIS/Include/cmsis_gcc.h **** #ifndef   __PACKED_STRUCT
  65:Drivers/CMSIS/Include/cmsis_gcc.h ****   #define __PACKED_STRUCT                        struct __attribute__((packed, aligned(1)))
  66:Drivers/CMSIS/Include/cmsis_gcc.h **** #endif
  67:Drivers/CMSIS/Include/cmsis_gcc.h **** #ifndef   __PACKED_UNION
  68:Drivers/CMSIS/Include/cmsis_gcc.h ****   #define __PACKED_UNION                         union __attribute__((packed, aligned(1)))
  69:Drivers/CMSIS/Include/cmsis_gcc.h **** #endif
  70:Drivers/CMSIS/Include/cmsis_gcc.h **** #ifndef   __UNALIGNED_UINT32        /* deprecated */
  71:Drivers/CMSIS/Include/cmsis_gcc.h ****   #pragma GCC diagnostic push
  72:Drivers/CMSIS/Include/cmsis_gcc.h ****   #pragma GCC diagnostic ignored "-Wpacked"
  73:Drivers/CMSIS/Include/cmsis_gcc.h ****   #pragma GCC diagnostic ignored "-Wattributes"
  74:Drivers/CMSIS/Include/cmsis_gcc.h ****   struct __attribute__((packed)) T_UINT32 { uint32_t v; };
  75:Drivers/CMSIS/Include/cmsis_gcc.h ****   #pragma GCC diagnostic pop
  76:Drivers/CMSIS/Include/cmsis_gcc.h ****   #define __UNALIGNED_UINT32(x)                  (((struct T_UINT32 *)(x))->v)
  77:Drivers/CMSIS/Include/cmsis_gcc.h **** #endif
  78:Drivers/CMSIS/Include/cmsis_gcc.h **** #ifndef   __UNALIGNED_UINT16_WRITE
  79:Drivers/CMSIS/Include/cmsis_gcc.h ****   #pragma GCC diagnostic push
  80:Drivers/CMSIS/Include/cmsis_gcc.h ****   #pragma GCC diagnostic ignored "-Wpacked"
  81:Drivers/CMSIS/Include/cmsis_gcc.h ****   #pragma GCC diagnostic ignored "-Wattributes"
  82:Drivers/CMSIS/Include/cmsis_gcc.h ****   __PACKED_STRUCT T_UINT16_WRITE { uint16_t v; };
  83:Drivers/CMSIS/Include/cmsis_gcc.h ****   #pragma GCC diagnostic pop
  84:Drivers/CMSIS/Include/cmsis_gcc.h ****   #define __UNALIGNED_UINT16_WRITE(addr, val)    (void)((((struct T_UINT16_WRITE *)(void *)(addr))-
  85:Drivers/CMSIS/Include/cmsis_gcc.h **** #endif
  86:Drivers/CMSIS/Include/cmsis_gcc.h **** #ifndef   __UNALIGNED_UINT16_READ
ARM GAS  C:\Users\17832\AppData\Local\Temp\ccyMtfRp.s 			page 8


  87:Drivers/CMSIS/Include/cmsis_gcc.h ****   #pragma GCC diagnostic push
  88:Drivers/CMSIS/Include/cmsis_gcc.h ****   #pragma GCC diagnostic ignored "-Wpacked"
  89:Drivers/CMSIS/Include/cmsis_gcc.h ****   #pragma GCC diagnostic ignored "-Wattributes"
  90:Drivers/CMSIS/Include/cmsis_gcc.h ****   __PACKED_STRUCT T_UINT16_READ { uint16_t v; };
  91:Drivers/CMSIS/Include/cmsis_gcc.h ****   #pragma GCC diagnostic pop
  92:Drivers/CMSIS/Include/cmsis_gcc.h ****   #define __UNALIGNED_UINT16_READ(addr)          (((const struct T_UINT16_READ *)(const void *)(add
  93:Drivers/CMSIS/Include/cmsis_gcc.h **** #endif
  94:Drivers/CMSIS/Include/cmsis_gcc.h **** #ifndef   __UNALIGNED_UINT32_WRITE
  95:Drivers/CMSIS/Include/cmsis_gcc.h ****   #pragma GCC diagnostic push
  96:Drivers/CMSIS/Include/cmsis_gcc.h ****   #pragma GCC diagnostic ignored "-Wpacked"
  97:Drivers/CMSIS/Include/cmsis_gcc.h ****   #pragma GCC diagnostic ignored "-Wattributes"
  98:Drivers/CMSIS/Include/cmsis_gcc.h ****   __PACKED_STRUCT T_UINT32_WRITE { uint32_t v; };
  99:Drivers/CMSIS/Include/cmsis_gcc.h ****   #pragma GCC diagnostic pop
 100:Drivers/CMSIS/Include/cmsis_gcc.h ****   #define __UNALIGNED_UINT32_WRITE(addr, val)    (void)((((struct T_UINT32_WRITE *)(void *)(addr))-
 101:Drivers/CMSIS/Include/cmsis_gcc.h **** #endif
 102:Drivers/CMSIS/Include/cmsis_gcc.h **** #ifndef   __UNALIGNED_UINT32_READ
 103:Drivers/CMSIS/Include/cmsis_gcc.h ****   #pragma GCC diagnostic push
 104:Drivers/CMSIS/Include/cmsis_gcc.h ****   #pragma GCC diagnostic ignored "-Wpacked"
 105:Drivers/CMSIS/Include/cmsis_gcc.h ****   #pragma GCC diagnostic ignored "-Wattributes"
 106:Drivers/CMSIS/Include/cmsis_gcc.h ****   __PACKED_STRUCT T_UINT32_READ { uint32_t v; };
 107:Drivers/CMSIS/Include/cmsis_gcc.h ****   #pragma GCC diagnostic pop
 108:Drivers/CMSIS/Include/cmsis_gcc.h ****   #define __UNALIGNED_UINT32_READ(addr)          (((const struct T_UINT32_READ *)(const void *)(add
 109:Drivers/CMSIS/Include/cmsis_gcc.h **** #endif
 110:Drivers/CMSIS/Include/cmsis_gcc.h **** #ifndef   __ALIGNED
 111:Drivers/CMSIS/Include/cmsis_gcc.h ****   #define __ALIGNED(x)                           __attribute__((aligned(x)))
 112:Drivers/CMSIS/Include/cmsis_gcc.h **** #endif
 113:Drivers/CMSIS/Include/cmsis_gcc.h **** #ifndef   __RESTRICT
 114:Drivers/CMSIS/Include/cmsis_gcc.h ****   #define __RESTRICT                             __restrict
 115:Drivers/CMSIS/Include/cmsis_gcc.h **** #endif
 116:Drivers/CMSIS/Include/cmsis_gcc.h **** 
 117:Drivers/CMSIS/Include/cmsis_gcc.h **** 
 118:Drivers/CMSIS/Include/cmsis_gcc.h **** /* ###########################  Core Function Access  ########################### */
 119:Drivers/CMSIS/Include/cmsis_gcc.h **** /** \ingroup  CMSIS_Core_FunctionInterface
 120:Drivers/CMSIS/Include/cmsis_gcc.h ****     \defgroup CMSIS_Core_RegAccFunctions CMSIS Core Register Access Functions
 121:Drivers/CMSIS/Include/cmsis_gcc.h ****   @{
 122:Drivers/CMSIS/Include/cmsis_gcc.h ****  */
 123:Drivers/CMSIS/Include/cmsis_gcc.h **** 
 124:Drivers/CMSIS/Include/cmsis_gcc.h **** /**
 125:Drivers/CMSIS/Include/cmsis_gcc.h ****   \brief   Enable IRQ Interrupts
 126:Drivers/CMSIS/Include/cmsis_gcc.h ****   \details Enables IRQ interrupts by clearing the I-bit in the CPSR.
 127:Drivers/CMSIS/Include/cmsis_gcc.h ****            Can only be executed in Privileged modes.
 128:Drivers/CMSIS/Include/cmsis_gcc.h ****  */
 129:Drivers/CMSIS/Include/cmsis_gcc.h **** __STATIC_FORCEINLINE void __enable_irq(void)
 130:Drivers/CMSIS/Include/cmsis_gcc.h **** {
 131:Drivers/CMSIS/Include/cmsis_gcc.h ****   __ASM volatile ("cpsie i" : : : "memory");
 132:Drivers/CMSIS/Include/cmsis_gcc.h **** }
 133:Drivers/CMSIS/Include/cmsis_gcc.h **** 
 134:Drivers/CMSIS/Include/cmsis_gcc.h **** 
 135:Drivers/CMSIS/Include/cmsis_gcc.h **** /**
 136:Drivers/CMSIS/Include/cmsis_gcc.h ****   \brief   Disable IRQ Interrupts
 137:Drivers/CMSIS/Include/cmsis_gcc.h ****   \details Disables IRQ interrupts by setting the I-bit in the CPSR.
 138:Drivers/CMSIS/Include/cmsis_gcc.h ****            Can only be executed in Privileged modes.
 139:Drivers/CMSIS/Include/cmsis_gcc.h ****  */
 140:Drivers/CMSIS/Include/cmsis_gcc.h **** __STATIC_FORCEINLINE void __disable_irq(void)
 141:Drivers/CMSIS/Include/cmsis_gcc.h **** {
 142:Drivers/CMSIS/Include/cmsis_gcc.h ****   __ASM volatile ("cpsid i" : : : "memory");
 143:Drivers/CMSIS/Include/cmsis_gcc.h **** }
ARM GAS  C:\Users\17832\AppData\Local\Temp\ccyMtfRp.s 			page 9


 144:Drivers/CMSIS/Include/cmsis_gcc.h **** 
 145:Drivers/CMSIS/Include/cmsis_gcc.h **** 
 146:Drivers/CMSIS/Include/cmsis_gcc.h **** /**
 147:Drivers/CMSIS/Include/cmsis_gcc.h ****   \brief   Get Control Register
 148:Drivers/CMSIS/Include/cmsis_gcc.h ****   \details Returns the content of the Control Register.
 149:Drivers/CMSIS/Include/cmsis_gcc.h ****   \return               Control Register value
 150:Drivers/CMSIS/Include/cmsis_gcc.h ****  */
 151:Drivers/CMSIS/Include/cmsis_gcc.h **** __STATIC_FORCEINLINE uint32_t __get_CONTROL(void)
 152:Drivers/CMSIS/Include/cmsis_gcc.h **** {
 153:Drivers/CMSIS/Include/cmsis_gcc.h ****   uint32_t result;
 154:Drivers/CMSIS/Include/cmsis_gcc.h **** 
 155:Drivers/CMSIS/Include/cmsis_gcc.h ****   __ASM volatile ("MRS %0, control" : "=r" (result) );
 156:Drivers/CMSIS/Include/cmsis_gcc.h ****   return(result);
 157:Drivers/CMSIS/Include/cmsis_gcc.h **** }
 158:Drivers/CMSIS/Include/cmsis_gcc.h **** 
 159:Drivers/CMSIS/Include/cmsis_gcc.h **** 
 160:Drivers/CMSIS/Include/cmsis_gcc.h **** #if (defined (__ARM_FEATURE_CMSE ) && (__ARM_FEATURE_CMSE == 3))
 161:Drivers/CMSIS/Include/cmsis_gcc.h **** /**
 162:Drivers/CMSIS/Include/cmsis_gcc.h ****   \brief   Get Control Register (non-secure)
 163:Drivers/CMSIS/Include/cmsis_gcc.h ****   \details Returns the content of the non-secure Control Register when in secure mode.
 164:Drivers/CMSIS/Include/cmsis_gcc.h ****   \return               non-secure Control Register value
 165:Drivers/CMSIS/Include/cmsis_gcc.h ****  */
 166:Drivers/CMSIS/Include/cmsis_gcc.h **** __STATIC_FORCEINLINE uint32_t __TZ_get_CONTROL_NS(void)
 167:Drivers/CMSIS/Include/cmsis_gcc.h **** {
 168:Drivers/CMSIS/Include/cmsis_gcc.h ****   uint32_t result;
 169:Drivers/CMSIS/Include/cmsis_gcc.h **** 
 170:Drivers/CMSIS/Include/cmsis_gcc.h ****   __ASM volatile ("MRS %0, control_ns" : "=r" (result) );
 171:Drivers/CMSIS/Include/cmsis_gcc.h ****   return(result);
 172:Drivers/CMSIS/Include/cmsis_gcc.h **** }
 173:Drivers/CMSIS/Include/cmsis_gcc.h **** #endif
 174:Drivers/CMSIS/Include/cmsis_gcc.h **** 
 175:Drivers/CMSIS/Include/cmsis_gcc.h **** 
 176:Drivers/CMSIS/Include/cmsis_gcc.h **** /**
 177:Drivers/CMSIS/Include/cmsis_gcc.h ****   \brief   Set Control Register
 178:Drivers/CMSIS/Include/cmsis_gcc.h ****   \details Writes the given value to the Control Register.
 179:Drivers/CMSIS/Include/cmsis_gcc.h ****   \param [in]    control  Control Register value to set
 180:Drivers/CMSIS/Include/cmsis_gcc.h ****  */
 181:Drivers/CMSIS/Include/cmsis_gcc.h **** __STATIC_FORCEINLINE void __set_CONTROL(uint32_t control)
 182:Drivers/CMSIS/Include/cmsis_gcc.h **** {
 183:Drivers/CMSIS/Include/cmsis_gcc.h ****   __ASM volatile ("MSR control, %0" : : "r" (control) : "memory");
 184:Drivers/CMSIS/Include/cmsis_gcc.h **** }
 185:Drivers/CMSIS/Include/cmsis_gcc.h **** 
 186:Drivers/CMSIS/Include/cmsis_gcc.h **** 
 187:Drivers/CMSIS/Include/cmsis_gcc.h **** #if (defined (__ARM_FEATURE_CMSE ) && (__ARM_FEATURE_CMSE == 3))
 188:Drivers/CMSIS/Include/cmsis_gcc.h **** /**
 189:Drivers/CMSIS/Include/cmsis_gcc.h ****   \brief   Set Control Register (non-secure)
 190:Drivers/CMSIS/Include/cmsis_gcc.h ****   \details Writes the given value to the non-secure Control Register when in secure state.
 191:Drivers/CMSIS/Include/cmsis_gcc.h ****   \param [in]    control  Control Register value to set
 192:Drivers/CMSIS/Include/cmsis_gcc.h ****  */
 193:Drivers/CMSIS/Include/cmsis_gcc.h **** __STATIC_FORCEINLINE void __TZ_set_CONTROL_NS(uint32_t control)
 194:Drivers/CMSIS/Include/cmsis_gcc.h **** {
 195:Drivers/CMSIS/Include/cmsis_gcc.h ****   __ASM volatile ("MSR control_ns, %0" : : "r" (control) : "memory");
 196:Drivers/CMSIS/Include/cmsis_gcc.h **** }
 197:Drivers/CMSIS/Include/cmsis_gcc.h **** #endif
 198:Drivers/CMSIS/Include/cmsis_gcc.h **** 
 199:Drivers/CMSIS/Include/cmsis_gcc.h **** 
 200:Drivers/CMSIS/Include/cmsis_gcc.h **** /**
ARM GAS  C:\Users\17832\AppData\Local\Temp\ccyMtfRp.s 			page 10


 201:Drivers/CMSIS/Include/cmsis_gcc.h ****   \brief   Get IPSR Register
 202:Drivers/CMSIS/Include/cmsis_gcc.h ****   \details Returns the content of the IPSR Register.
 203:Drivers/CMSIS/Include/cmsis_gcc.h ****   \return               IPSR Register value
 204:Drivers/CMSIS/Include/cmsis_gcc.h ****  */
 205:Drivers/CMSIS/Include/cmsis_gcc.h **** __STATIC_FORCEINLINE uint32_t __get_IPSR(void)
 206:Drivers/CMSIS/Include/cmsis_gcc.h **** {
 207:Drivers/CMSIS/Include/cmsis_gcc.h ****   uint32_t result;
 208:Drivers/CMSIS/Include/cmsis_gcc.h **** 
 209:Drivers/CMSIS/Include/cmsis_gcc.h ****   __ASM volatile ("MRS %0, ipsr" : "=r" (result) );
 210:Drivers/CMSIS/Include/cmsis_gcc.h ****   return(result);
 211:Drivers/CMSIS/Include/cmsis_gcc.h **** }
 212:Drivers/CMSIS/Include/cmsis_gcc.h **** 
 213:Drivers/CMSIS/Include/cmsis_gcc.h **** 
 214:Drivers/CMSIS/Include/cmsis_gcc.h **** /**
 215:Drivers/CMSIS/Include/cmsis_gcc.h ****   \brief   Get APSR Register
 216:Drivers/CMSIS/Include/cmsis_gcc.h ****   \details Returns the content of the APSR Register.
 217:Drivers/CMSIS/Include/cmsis_gcc.h ****   \return               APSR Register value
 218:Drivers/CMSIS/Include/cmsis_gcc.h ****  */
 219:Drivers/CMSIS/Include/cmsis_gcc.h **** __STATIC_FORCEINLINE uint32_t __get_APSR(void)
 220:Drivers/CMSIS/Include/cmsis_gcc.h **** {
 221:Drivers/CMSIS/Include/cmsis_gcc.h ****   uint32_t result;
 222:Drivers/CMSIS/Include/cmsis_gcc.h **** 
 223:Drivers/CMSIS/Include/cmsis_gcc.h ****   __ASM volatile ("MRS %0, apsr" : "=r" (result) );
 224:Drivers/CMSIS/Include/cmsis_gcc.h ****   return(result);
 225:Drivers/CMSIS/Include/cmsis_gcc.h **** }
 226:Drivers/CMSIS/Include/cmsis_gcc.h **** 
 227:Drivers/CMSIS/Include/cmsis_gcc.h **** 
 228:Drivers/CMSIS/Include/cmsis_gcc.h **** /**
 229:Drivers/CMSIS/Include/cmsis_gcc.h ****   \brief   Get xPSR Register
 230:Drivers/CMSIS/Include/cmsis_gcc.h ****   \details Returns the content of the xPSR Register.
 231:Drivers/CMSIS/Include/cmsis_gcc.h ****   \return               xPSR Register value
 232:Drivers/CMSIS/Include/cmsis_gcc.h ****  */
 233:Drivers/CMSIS/Include/cmsis_gcc.h **** __STATIC_FORCEINLINE uint32_t __get_xPSR(void)
 234:Drivers/CMSIS/Include/cmsis_gcc.h **** {
 235:Drivers/CMSIS/Include/cmsis_gcc.h ****   uint32_t result;
 236:Drivers/CMSIS/Include/cmsis_gcc.h **** 
 237:Drivers/CMSIS/Include/cmsis_gcc.h ****   __ASM volatile ("MRS %0, xpsr" : "=r" (result) );
 238:Drivers/CMSIS/Include/cmsis_gcc.h ****   return(result);
 239:Drivers/CMSIS/Include/cmsis_gcc.h **** }
 240:Drivers/CMSIS/Include/cmsis_gcc.h **** 
 241:Drivers/CMSIS/Include/cmsis_gcc.h **** 
 242:Drivers/CMSIS/Include/cmsis_gcc.h **** /**
 243:Drivers/CMSIS/Include/cmsis_gcc.h ****   \brief   Get Process Stack Pointer
 244:Drivers/CMSIS/Include/cmsis_gcc.h ****   \details Returns the current value of the Process Stack Pointer (PSP).
 245:Drivers/CMSIS/Include/cmsis_gcc.h ****   \return               PSP Register value
 246:Drivers/CMSIS/Include/cmsis_gcc.h ****  */
 247:Drivers/CMSIS/Include/cmsis_gcc.h **** __STATIC_FORCEINLINE uint32_t __get_PSP(void)
 248:Drivers/CMSIS/Include/cmsis_gcc.h **** {
 249:Drivers/CMSIS/Include/cmsis_gcc.h ****   uint32_t result;
 250:Drivers/CMSIS/Include/cmsis_gcc.h **** 
 251:Drivers/CMSIS/Include/cmsis_gcc.h ****   __ASM volatile ("MRS %0, psp"  : "=r" (result) );
 252:Drivers/CMSIS/Include/cmsis_gcc.h ****   return(result);
 253:Drivers/CMSIS/Include/cmsis_gcc.h **** }
 254:Drivers/CMSIS/Include/cmsis_gcc.h **** 
 255:Drivers/CMSIS/Include/cmsis_gcc.h **** 
 256:Drivers/CMSIS/Include/cmsis_gcc.h **** #if (defined (__ARM_FEATURE_CMSE ) && (__ARM_FEATURE_CMSE == 3))
 257:Drivers/CMSIS/Include/cmsis_gcc.h **** /**
ARM GAS  C:\Users\17832\AppData\Local\Temp\ccyMtfRp.s 			page 11


 258:Drivers/CMSIS/Include/cmsis_gcc.h ****   \brief   Get Process Stack Pointer (non-secure)
 259:Drivers/CMSIS/Include/cmsis_gcc.h ****   \details Returns the current value of the non-secure Process Stack Pointer (PSP) when in secure s
 260:Drivers/CMSIS/Include/cmsis_gcc.h ****   \return               PSP Register value
 261:Drivers/CMSIS/Include/cmsis_gcc.h ****  */
 262:Drivers/CMSIS/Include/cmsis_gcc.h **** __STATIC_FORCEINLINE uint32_t __TZ_get_PSP_NS(void)
 263:Drivers/CMSIS/Include/cmsis_gcc.h **** {
 264:Drivers/CMSIS/Include/cmsis_gcc.h ****   uint32_t result;
 265:Drivers/CMSIS/Include/cmsis_gcc.h **** 
 266:Drivers/CMSIS/Include/cmsis_gcc.h ****   __ASM volatile ("MRS %0, psp_ns"  : "=r" (result) );
 267:Drivers/CMSIS/Include/cmsis_gcc.h ****   return(result);
 268:Drivers/CMSIS/Include/cmsis_gcc.h **** }
 269:Drivers/CMSIS/Include/cmsis_gcc.h **** #endif
 270:Drivers/CMSIS/Include/cmsis_gcc.h **** 
 271:Drivers/CMSIS/Include/cmsis_gcc.h **** 
 272:Drivers/CMSIS/Include/cmsis_gcc.h **** /**
 273:Drivers/CMSIS/Include/cmsis_gcc.h ****   \brief   Set Process Stack Pointer
 274:Drivers/CMSIS/Include/cmsis_gcc.h ****   \details Assigns the given value to the Process Stack Pointer (PSP).
 275:Drivers/CMSIS/Include/cmsis_gcc.h ****   \param [in]    topOfProcStack  Process Stack Pointer value to set
 276:Drivers/CMSIS/Include/cmsis_gcc.h ****  */
 277:Drivers/CMSIS/Include/cmsis_gcc.h **** __STATIC_FORCEINLINE void __set_PSP(uint32_t topOfProcStack)
 278:Drivers/CMSIS/Include/cmsis_gcc.h **** {
 279:Drivers/CMSIS/Include/cmsis_gcc.h ****   __ASM volatile ("MSR psp, %0" : : "r" (topOfProcStack) : );
 280:Drivers/CMSIS/Include/cmsis_gcc.h **** }
 281:Drivers/CMSIS/Include/cmsis_gcc.h **** 
 282:Drivers/CMSIS/Include/cmsis_gcc.h **** 
 283:Drivers/CMSIS/Include/cmsis_gcc.h **** #if (defined (__ARM_FEATURE_CMSE ) && (__ARM_FEATURE_CMSE == 3))
 284:Drivers/CMSIS/Include/cmsis_gcc.h **** /**
 285:Drivers/CMSIS/Include/cmsis_gcc.h ****   \brief   Set Process Stack Pointer (non-secure)
 286:Drivers/CMSIS/Include/cmsis_gcc.h ****   \details Assigns the given value to the non-secure Process Stack Pointer (PSP) when in secure sta
 287:Drivers/CMSIS/Include/cmsis_gcc.h ****   \param [in]    topOfProcStack  Process Stack Pointer value to set
 288:Drivers/CMSIS/Include/cmsis_gcc.h ****  */
 289:Drivers/CMSIS/Include/cmsis_gcc.h **** __STATIC_FORCEINLINE void __TZ_set_PSP_NS(uint32_t topOfProcStack)
 290:Drivers/CMSIS/Include/cmsis_gcc.h **** {
 291:Drivers/CMSIS/Include/cmsis_gcc.h ****   __ASM volatile ("MSR psp_ns, %0" : : "r" (topOfProcStack) : );
 292:Drivers/CMSIS/Include/cmsis_gcc.h **** }
 293:Drivers/CMSIS/Include/cmsis_gcc.h **** #endif
 294:Drivers/CMSIS/Include/cmsis_gcc.h **** 
 295:Drivers/CMSIS/Include/cmsis_gcc.h **** 
 296:Drivers/CMSIS/Include/cmsis_gcc.h **** /**
 297:Drivers/CMSIS/Include/cmsis_gcc.h ****   \brief   Get Main Stack Pointer
 298:Drivers/CMSIS/Include/cmsis_gcc.h ****   \details Returns the current value of the Main Stack Pointer (MSP).
 299:Drivers/CMSIS/Include/cmsis_gcc.h ****   \return               MSP Register value
 300:Drivers/CMSIS/Include/cmsis_gcc.h ****  */
 301:Drivers/CMSIS/Include/cmsis_gcc.h **** __STATIC_FORCEINLINE uint32_t __get_MSP(void)
 302:Drivers/CMSIS/Include/cmsis_gcc.h **** {
 303:Drivers/CMSIS/Include/cmsis_gcc.h ****   uint32_t result;
 304:Drivers/CMSIS/Include/cmsis_gcc.h **** 
 305:Drivers/CMSIS/Include/cmsis_gcc.h ****   __ASM volatile ("MRS %0, msp" : "=r" (result) );
 306:Drivers/CMSIS/Include/cmsis_gcc.h ****   return(result);
 307:Drivers/CMSIS/Include/cmsis_gcc.h **** }
 308:Drivers/CMSIS/Include/cmsis_gcc.h **** 
 309:Drivers/CMSIS/Include/cmsis_gcc.h **** 
 310:Drivers/CMSIS/Include/cmsis_gcc.h **** #if (defined (__ARM_FEATURE_CMSE ) && (__ARM_FEATURE_CMSE == 3))
 311:Drivers/CMSIS/Include/cmsis_gcc.h **** /**
 312:Drivers/CMSIS/Include/cmsis_gcc.h ****   \brief   Get Main Stack Pointer (non-secure)
 313:Drivers/CMSIS/Include/cmsis_gcc.h ****   \details Returns the current value of the non-secure Main Stack Pointer (MSP) when in secure stat
 314:Drivers/CMSIS/Include/cmsis_gcc.h ****   \return               MSP Register value
ARM GAS  C:\Users\17832\AppData\Local\Temp\ccyMtfRp.s 			page 12


 315:Drivers/CMSIS/Include/cmsis_gcc.h ****  */
 316:Drivers/CMSIS/Include/cmsis_gcc.h **** __STATIC_FORCEINLINE uint32_t __TZ_get_MSP_NS(void)
 317:Drivers/CMSIS/Include/cmsis_gcc.h **** {
 318:Drivers/CMSIS/Include/cmsis_gcc.h ****   uint32_t result;
 319:Drivers/CMSIS/Include/cmsis_gcc.h **** 
 320:Drivers/CMSIS/Include/cmsis_gcc.h ****   __ASM volatile ("MRS %0, msp_ns" : "=r" (result) );
 321:Drivers/CMSIS/Include/cmsis_gcc.h ****   return(result);
 322:Drivers/CMSIS/Include/cmsis_gcc.h **** }
 323:Drivers/CMSIS/Include/cmsis_gcc.h **** #endif
 324:Drivers/CMSIS/Include/cmsis_gcc.h **** 
 325:Drivers/CMSIS/Include/cmsis_gcc.h **** 
 326:Drivers/CMSIS/Include/cmsis_gcc.h **** /**
 327:Drivers/CMSIS/Include/cmsis_gcc.h ****   \brief   Set Main Stack Pointer
 328:Drivers/CMSIS/Include/cmsis_gcc.h ****   \details Assigns the given value to the Main Stack Pointer (MSP).
 329:Drivers/CMSIS/Include/cmsis_gcc.h ****   \param [in]    topOfMainStack  Main Stack Pointer value to set
 330:Drivers/CMSIS/Include/cmsis_gcc.h ****  */
 331:Drivers/CMSIS/Include/cmsis_gcc.h **** __STATIC_FORCEINLINE void __set_MSP(uint32_t topOfMainStack)
 332:Drivers/CMSIS/Include/cmsis_gcc.h **** {
 333:Drivers/CMSIS/Include/cmsis_gcc.h ****   __ASM volatile ("MSR msp, %0" : : "r" (topOfMainStack) : );
 334:Drivers/CMSIS/Include/cmsis_gcc.h **** }
 335:Drivers/CMSIS/Include/cmsis_gcc.h **** 
 336:Drivers/CMSIS/Include/cmsis_gcc.h **** 
 337:Drivers/CMSIS/Include/cmsis_gcc.h **** #if (defined (__ARM_FEATURE_CMSE ) && (__ARM_FEATURE_CMSE == 3))
 338:Drivers/CMSIS/Include/cmsis_gcc.h **** /**
 339:Drivers/CMSIS/Include/cmsis_gcc.h ****   \brief   Set Main Stack Pointer (non-secure)
 340:Drivers/CMSIS/Include/cmsis_gcc.h ****   \details Assigns the given value to the non-secure Main Stack Pointer (MSP) when in secure state.
 341:Drivers/CMSIS/Include/cmsis_gcc.h ****   \param [in]    topOfMainStack  Main Stack Pointer value to set
 342:Drivers/CMSIS/Include/cmsis_gcc.h ****  */
 343:Drivers/CMSIS/Include/cmsis_gcc.h **** __STATIC_FORCEINLINE void __TZ_set_MSP_NS(uint32_t topOfMainStack)
 344:Drivers/CMSIS/Include/cmsis_gcc.h **** {
 345:Drivers/CMSIS/Include/cmsis_gcc.h ****   __ASM volatile ("MSR msp_ns, %0" : : "r" (topOfMainStack) : );
 346:Drivers/CMSIS/Include/cmsis_gcc.h **** }
 347:Drivers/CMSIS/Include/cmsis_gcc.h **** #endif
 348:Drivers/CMSIS/Include/cmsis_gcc.h **** 
 349:Drivers/CMSIS/Include/cmsis_gcc.h **** 
 350:Drivers/CMSIS/Include/cmsis_gcc.h **** #if (defined (__ARM_FEATURE_CMSE ) && (__ARM_FEATURE_CMSE == 3))
 351:Drivers/CMSIS/Include/cmsis_gcc.h **** /**
 352:Drivers/CMSIS/Include/cmsis_gcc.h ****   \brief   Get Stack Pointer (non-secure)
 353:Drivers/CMSIS/Include/cmsis_gcc.h ****   \details Returns the current value of the non-secure Stack Pointer (SP) when in secure state.
 354:Drivers/CMSIS/Include/cmsis_gcc.h ****   \return               SP Register value
 355:Drivers/CMSIS/Include/cmsis_gcc.h ****  */
 356:Drivers/CMSIS/Include/cmsis_gcc.h **** __STATIC_FORCEINLINE uint32_t __TZ_get_SP_NS(void)
 357:Drivers/CMSIS/Include/cmsis_gcc.h **** {
 358:Drivers/CMSIS/Include/cmsis_gcc.h ****   uint32_t result;
 359:Drivers/CMSIS/Include/cmsis_gcc.h **** 
 360:Drivers/CMSIS/Include/cmsis_gcc.h ****   __ASM volatile ("MRS %0, sp_ns" : "=r" (result) );
 361:Drivers/CMSIS/Include/cmsis_gcc.h ****   return(result);
 362:Drivers/CMSIS/Include/cmsis_gcc.h **** }
 363:Drivers/CMSIS/Include/cmsis_gcc.h **** 
 364:Drivers/CMSIS/Include/cmsis_gcc.h **** 
 365:Drivers/CMSIS/Include/cmsis_gcc.h **** /**
 366:Drivers/CMSIS/Include/cmsis_gcc.h ****   \brief   Set Stack Pointer (non-secure)
 367:Drivers/CMSIS/Include/cmsis_gcc.h ****   \details Assigns the given value to the non-secure Stack Pointer (SP) when in secure state.
 368:Drivers/CMSIS/Include/cmsis_gcc.h ****   \param [in]    topOfStack  Stack Pointer value to set
 369:Drivers/CMSIS/Include/cmsis_gcc.h ****  */
 370:Drivers/CMSIS/Include/cmsis_gcc.h **** __STATIC_FORCEINLINE void __TZ_set_SP_NS(uint32_t topOfStack)
 371:Drivers/CMSIS/Include/cmsis_gcc.h **** {
ARM GAS  C:\Users\17832\AppData\Local\Temp\ccyMtfRp.s 			page 13


 372:Drivers/CMSIS/Include/cmsis_gcc.h ****   __ASM volatile ("MSR sp_ns, %0" : : "r" (topOfStack) : );
 373:Drivers/CMSIS/Include/cmsis_gcc.h **** }
 374:Drivers/CMSIS/Include/cmsis_gcc.h **** #endif
 375:Drivers/CMSIS/Include/cmsis_gcc.h **** 
 376:Drivers/CMSIS/Include/cmsis_gcc.h **** 
 377:Drivers/CMSIS/Include/cmsis_gcc.h **** /**
 378:Drivers/CMSIS/Include/cmsis_gcc.h ****   \brief   Get Priority Mask
 379:Drivers/CMSIS/Include/cmsis_gcc.h ****   \details Returns the current state of the priority mask bit from the Priority Mask Register.
 380:Drivers/CMSIS/Include/cmsis_gcc.h ****   \return               Priority Mask value
 381:Drivers/CMSIS/Include/cmsis_gcc.h ****  */
 382:Drivers/CMSIS/Include/cmsis_gcc.h **** __STATIC_FORCEINLINE uint32_t __get_PRIMASK(void)
 383:Drivers/CMSIS/Include/cmsis_gcc.h **** {
 384:Drivers/CMSIS/Include/cmsis_gcc.h ****   uint32_t result;
 385:Drivers/CMSIS/Include/cmsis_gcc.h **** 
 386:Drivers/CMSIS/Include/cmsis_gcc.h ****   __ASM volatile ("MRS %0, primask" : "=r" (result) :: "memory");
 387:Drivers/CMSIS/Include/cmsis_gcc.h ****   return(result);
 388:Drivers/CMSIS/Include/cmsis_gcc.h **** }
 389:Drivers/CMSIS/Include/cmsis_gcc.h **** 
 390:Drivers/CMSIS/Include/cmsis_gcc.h **** 
 391:Drivers/CMSIS/Include/cmsis_gcc.h **** #if (defined (__ARM_FEATURE_CMSE ) && (__ARM_FEATURE_CMSE == 3))
 392:Drivers/CMSIS/Include/cmsis_gcc.h **** /**
 393:Drivers/CMSIS/Include/cmsis_gcc.h ****   \brief   Get Priority Mask (non-secure)
 394:Drivers/CMSIS/Include/cmsis_gcc.h ****   \details Returns the current state of the non-secure priority mask bit from the Priority Mask Reg
 395:Drivers/CMSIS/Include/cmsis_gcc.h ****   \return               Priority Mask value
 396:Drivers/CMSIS/Include/cmsis_gcc.h ****  */
 397:Drivers/CMSIS/Include/cmsis_gcc.h **** __STATIC_FORCEINLINE uint32_t __TZ_get_PRIMASK_NS(void)
 398:Drivers/CMSIS/Include/cmsis_gcc.h **** {
 399:Drivers/CMSIS/Include/cmsis_gcc.h ****   uint32_t result;
 400:Drivers/CMSIS/Include/cmsis_gcc.h **** 
 401:Drivers/CMSIS/Include/cmsis_gcc.h ****   __ASM volatile ("MRS %0, primask_ns" : "=r" (result) :: "memory");
 402:Drivers/CMSIS/Include/cmsis_gcc.h ****   return(result);
 403:Drivers/CMSIS/Include/cmsis_gcc.h **** }
 404:Drivers/CMSIS/Include/cmsis_gcc.h **** #endif
 405:Drivers/CMSIS/Include/cmsis_gcc.h **** 
 406:Drivers/CMSIS/Include/cmsis_gcc.h **** 
 407:Drivers/CMSIS/Include/cmsis_gcc.h **** /**
 408:Drivers/CMSIS/Include/cmsis_gcc.h ****   \brief   Set Priority Mask
 409:Drivers/CMSIS/Include/cmsis_gcc.h ****   \details Assigns the given value to the Priority Mask Register.
 410:Drivers/CMSIS/Include/cmsis_gcc.h ****   \param [in]    priMask  Priority Mask
 411:Drivers/CMSIS/Include/cmsis_gcc.h ****  */
 412:Drivers/CMSIS/Include/cmsis_gcc.h **** __STATIC_FORCEINLINE void __set_PRIMASK(uint32_t priMask)
 413:Drivers/CMSIS/Include/cmsis_gcc.h **** {
 414:Drivers/CMSIS/Include/cmsis_gcc.h ****   __ASM volatile ("MSR primask, %0" : : "r" (priMask) : "memory");
 415:Drivers/CMSIS/Include/cmsis_gcc.h **** }
 416:Drivers/CMSIS/Include/cmsis_gcc.h **** 
 417:Drivers/CMSIS/Include/cmsis_gcc.h **** 
 418:Drivers/CMSIS/Include/cmsis_gcc.h **** #if (defined (__ARM_FEATURE_CMSE ) && (__ARM_FEATURE_CMSE == 3))
 419:Drivers/CMSIS/Include/cmsis_gcc.h **** /**
 420:Drivers/CMSIS/Include/cmsis_gcc.h ****   \brief   Set Priority Mask (non-secure)
 421:Drivers/CMSIS/Include/cmsis_gcc.h ****   \details Assigns the given value to the non-secure Priority Mask Register when in secure state.
 422:Drivers/CMSIS/Include/cmsis_gcc.h ****   \param [in]    priMask  Priority Mask
 423:Drivers/CMSIS/Include/cmsis_gcc.h ****  */
 424:Drivers/CMSIS/Include/cmsis_gcc.h **** __STATIC_FORCEINLINE void __TZ_set_PRIMASK_NS(uint32_t priMask)
 425:Drivers/CMSIS/Include/cmsis_gcc.h **** {
 426:Drivers/CMSIS/Include/cmsis_gcc.h ****   __ASM volatile ("MSR primask_ns, %0" : : "r" (priMask) : "memory");
 427:Drivers/CMSIS/Include/cmsis_gcc.h **** }
 428:Drivers/CMSIS/Include/cmsis_gcc.h **** #endif
ARM GAS  C:\Users\17832\AppData\Local\Temp\ccyMtfRp.s 			page 14


 429:Drivers/CMSIS/Include/cmsis_gcc.h **** 
 430:Drivers/CMSIS/Include/cmsis_gcc.h **** 
 431:Drivers/CMSIS/Include/cmsis_gcc.h **** #if ((defined (__ARM_ARCH_7M__      ) && (__ARM_ARCH_7M__      == 1)) || \
 432:Drivers/CMSIS/Include/cmsis_gcc.h ****      (defined (__ARM_ARCH_7EM__     ) && (__ARM_ARCH_7EM__     == 1)) || \
 433:Drivers/CMSIS/Include/cmsis_gcc.h ****      (defined (__ARM_ARCH_8M_MAIN__ ) && (__ARM_ARCH_8M_MAIN__ == 1))    )
 434:Drivers/CMSIS/Include/cmsis_gcc.h **** /**
 435:Drivers/CMSIS/Include/cmsis_gcc.h ****   \brief   Enable FIQ
 436:Drivers/CMSIS/Include/cmsis_gcc.h ****   \details Enables FIQ interrupts by clearing the F-bit in the CPSR.
 437:Drivers/CMSIS/Include/cmsis_gcc.h ****            Can only be executed in Privileged modes.
 438:Drivers/CMSIS/Include/cmsis_gcc.h ****  */
 439:Drivers/CMSIS/Include/cmsis_gcc.h **** __STATIC_FORCEINLINE void __enable_fault_irq(void)
 440:Drivers/CMSIS/Include/cmsis_gcc.h **** {
 441:Drivers/CMSIS/Include/cmsis_gcc.h ****   __ASM volatile ("cpsie f" : : : "memory");
 442:Drivers/CMSIS/Include/cmsis_gcc.h **** }
 443:Drivers/CMSIS/Include/cmsis_gcc.h **** 
 444:Drivers/CMSIS/Include/cmsis_gcc.h **** 
 445:Drivers/CMSIS/Include/cmsis_gcc.h **** /**
 446:Drivers/CMSIS/Include/cmsis_gcc.h ****   \brief   Disable FIQ
 447:Drivers/CMSIS/Include/cmsis_gcc.h ****   \details Disables FIQ interrupts by setting the F-bit in the CPSR.
 448:Drivers/CMSIS/Include/cmsis_gcc.h ****            Can only be executed in Privileged modes.
 449:Drivers/CMSIS/Include/cmsis_gcc.h ****  */
 450:Drivers/CMSIS/Include/cmsis_gcc.h **** __STATIC_FORCEINLINE void __disable_fault_irq(void)
 451:Drivers/CMSIS/Include/cmsis_gcc.h **** {
 452:Drivers/CMSIS/Include/cmsis_gcc.h ****   __ASM volatile ("cpsid f" : : : "memory");
 453:Drivers/CMSIS/Include/cmsis_gcc.h **** }
 454:Drivers/CMSIS/Include/cmsis_gcc.h **** 
 455:Drivers/CMSIS/Include/cmsis_gcc.h **** 
 456:Drivers/CMSIS/Include/cmsis_gcc.h **** /**
 457:Drivers/CMSIS/Include/cmsis_gcc.h ****   \brief   Get Base Priority
 458:Drivers/CMSIS/Include/cmsis_gcc.h ****   \details Returns the current value of the Base Priority register.
 459:Drivers/CMSIS/Include/cmsis_gcc.h ****   \return               Base Priority register value
 460:Drivers/CMSIS/Include/cmsis_gcc.h ****  */
 461:Drivers/CMSIS/Include/cmsis_gcc.h **** __STATIC_FORCEINLINE uint32_t __get_BASEPRI(void)
 462:Drivers/CMSIS/Include/cmsis_gcc.h **** {
 463:Drivers/CMSIS/Include/cmsis_gcc.h ****   uint32_t result;
 464:Drivers/CMSIS/Include/cmsis_gcc.h **** 
 465:Drivers/CMSIS/Include/cmsis_gcc.h ****   __ASM volatile ("MRS %0, basepri" : "=r" (result) );
 466:Drivers/CMSIS/Include/cmsis_gcc.h ****   return(result);
 467:Drivers/CMSIS/Include/cmsis_gcc.h **** }
 468:Drivers/CMSIS/Include/cmsis_gcc.h **** 
 469:Drivers/CMSIS/Include/cmsis_gcc.h **** 
 470:Drivers/CMSIS/Include/cmsis_gcc.h **** #if (defined (__ARM_FEATURE_CMSE ) && (__ARM_FEATURE_CMSE == 3))
 471:Drivers/CMSIS/Include/cmsis_gcc.h **** /**
 472:Drivers/CMSIS/Include/cmsis_gcc.h ****   \brief   Get Base Priority (non-secure)
 473:Drivers/CMSIS/Include/cmsis_gcc.h ****   \details Returns the current value of the non-secure Base Priority register when in secure state.
 474:Drivers/CMSIS/Include/cmsis_gcc.h ****   \return               Base Priority register value
 475:Drivers/CMSIS/Include/cmsis_gcc.h ****  */
 476:Drivers/CMSIS/Include/cmsis_gcc.h **** __STATIC_FORCEINLINE uint32_t __TZ_get_BASEPRI_NS(void)
 477:Drivers/CMSIS/Include/cmsis_gcc.h **** {
 478:Drivers/CMSIS/Include/cmsis_gcc.h ****   uint32_t result;
 479:Drivers/CMSIS/Include/cmsis_gcc.h **** 
 480:Drivers/CMSIS/Include/cmsis_gcc.h ****   __ASM volatile ("MRS %0, basepri_ns" : "=r" (result) );
 481:Drivers/CMSIS/Include/cmsis_gcc.h ****   return(result);
 482:Drivers/CMSIS/Include/cmsis_gcc.h **** }
 483:Drivers/CMSIS/Include/cmsis_gcc.h **** #endif
 484:Drivers/CMSIS/Include/cmsis_gcc.h **** 
 485:Drivers/CMSIS/Include/cmsis_gcc.h **** 
ARM GAS  C:\Users\17832\AppData\Local\Temp\ccyMtfRp.s 			page 15


 486:Drivers/CMSIS/Include/cmsis_gcc.h **** /**
 487:Drivers/CMSIS/Include/cmsis_gcc.h ****   \brief   Set Base Priority
 488:Drivers/CMSIS/Include/cmsis_gcc.h ****   \details Assigns the given value to the Base Priority register.
 489:Drivers/CMSIS/Include/cmsis_gcc.h ****   \param [in]    basePri  Base Priority value to set
 490:Drivers/CMSIS/Include/cmsis_gcc.h ****  */
 491:Drivers/CMSIS/Include/cmsis_gcc.h **** __STATIC_FORCEINLINE void __set_BASEPRI(uint32_t basePri)
 492:Drivers/CMSIS/Include/cmsis_gcc.h **** {
 493:Drivers/CMSIS/Include/cmsis_gcc.h ****   __ASM volatile ("MSR basepri, %0" : : "r" (basePri) : "memory");
 494:Drivers/CMSIS/Include/cmsis_gcc.h **** }
 495:Drivers/CMSIS/Include/cmsis_gcc.h **** 
 496:Drivers/CMSIS/Include/cmsis_gcc.h **** 
 497:Drivers/CMSIS/Include/cmsis_gcc.h **** #if (defined (__ARM_FEATURE_CMSE ) && (__ARM_FEATURE_CMSE == 3))
 498:Drivers/CMSIS/Include/cmsis_gcc.h **** /**
 499:Drivers/CMSIS/Include/cmsis_gcc.h ****   \brief   Set Base Priority (non-secure)
 500:Drivers/CMSIS/Include/cmsis_gcc.h ****   \details Assigns the given value to the non-secure Base Priority register when in secure state.
 501:Drivers/CMSIS/Include/cmsis_gcc.h ****   \param [in]    basePri  Base Priority value to set
 502:Drivers/CMSIS/Include/cmsis_gcc.h ****  */
 503:Drivers/CMSIS/Include/cmsis_gcc.h **** __STATIC_FORCEINLINE void __TZ_set_BASEPRI_NS(uint32_t basePri)
 504:Drivers/CMSIS/Include/cmsis_gcc.h **** {
 505:Drivers/CMSIS/Include/cmsis_gcc.h ****   __ASM volatile ("MSR basepri_ns, %0" : : "r" (basePri) : "memory");
 506:Drivers/CMSIS/Include/cmsis_gcc.h **** }
 507:Drivers/CMSIS/Include/cmsis_gcc.h **** #endif
 508:Drivers/CMSIS/Include/cmsis_gcc.h **** 
 509:Drivers/CMSIS/Include/cmsis_gcc.h **** 
 510:Drivers/CMSIS/Include/cmsis_gcc.h **** /**
 511:Drivers/CMSIS/Include/cmsis_gcc.h ****   \brief   Set Base Priority with condition
 512:Drivers/CMSIS/Include/cmsis_gcc.h ****   \details Assigns the given value to the Base Priority register only if BASEPRI masking is disable
 513:Drivers/CMSIS/Include/cmsis_gcc.h ****            or the new value increases the BASEPRI priority level.
 514:Drivers/CMSIS/Include/cmsis_gcc.h ****   \param [in]    basePri  Base Priority value to set
 515:Drivers/CMSIS/Include/cmsis_gcc.h ****  */
 516:Drivers/CMSIS/Include/cmsis_gcc.h **** __STATIC_FORCEINLINE void __set_BASEPRI_MAX(uint32_t basePri)
 517:Drivers/CMSIS/Include/cmsis_gcc.h **** {
 518:Drivers/CMSIS/Include/cmsis_gcc.h ****   __ASM volatile ("MSR basepri_max, %0" : : "r" (basePri) : "memory");
 519:Drivers/CMSIS/Include/cmsis_gcc.h **** }
 520:Drivers/CMSIS/Include/cmsis_gcc.h **** 
 521:Drivers/CMSIS/Include/cmsis_gcc.h **** 
 522:Drivers/CMSIS/Include/cmsis_gcc.h **** /**
 523:Drivers/CMSIS/Include/cmsis_gcc.h ****   \brief   Get Fault Mask
 524:Drivers/CMSIS/Include/cmsis_gcc.h ****   \details Returns the current value of the Fault Mask register.
 525:Drivers/CMSIS/Include/cmsis_gcc.h ****   \return               Fault Mask register value
 526:Drivers/CMSIS/Include/cmsis_gcc.h ****  */
 527:Drivers/CMSIS/Include/cmsis_gcc.h **** __STATIC_FORCEINLINE uint32_t __get_FAULTMASK(void)
 528:Drivers/CMSIS/Include/cmsis_gcc.h **** {
 529:Drivers/CMSIS/Include/cmsis_gcc.h ****   uint32_t result;
 530:Drivers/CMSIS/Include/cmsis_gcc.h **** 
 531:Drivers/CMSIS/Include/cmsis_gcc.h ****   __ASM volatile ("MRS %0, faultmask" : "=r" (result) );
 532:Drivers/CMSIS/Include/cmsis_gcc.h ****   return(result);
 533:Drivers/CMSIS/Include/cmsis_gcc.h **** }
 534:Drivers/CMSIS/Include/cmsis_gcc.h **** 
 535:Drivers/CMSIS/Include/cmsis_gcc.h **** 
 536:Drivers/CMSIS/Include/cmsis_gcc.h **** #if (defined (__ARM_FEATURE_CMSE ) && (__ARM_FEATURE_CMSE == 3))
 537:Drivers/CMSIS/Include/cmsis_gcc.h **** /**
 538:Drivers/CMSIS/Include/cmsis_gcc.h ****   \brief   Get Fault Mask (non-secure)
 539:Drivers/CMSIS/Include/cmsis_gcc.h ****   \details Returns the current value of the non-secure Fault Mask register when in secure state.
 540:Drivers/CMSIS/Include/cmsis_gcc.h ****   \return               Fault Mask register value
 541:Drivers/CMSIS/Include/cmsis_gcc.h ****  */
 542:Drivers/CMSIS/Include/cmsis_gcc.h **** __STATIC_FORCEINLINE uint32_t __TZ_get_FAULTMASK_NS(void)
ARM GAS  C:\Users\17832\AppData\Local\Temp\ccyMtfRp.s 			page 16


 543:Drivers/CMSIS/Include/cmsis_gcc.h **** {
 544:Drivers/CMSIS/Include/cmsis_gcc.h ****   uint32_t result;
 545:Drivers/CMSIS/Include/cmsis_gcc.h **** 
 546:Drivers/CMSIS/Include/cmsis_gcc.h ****   __ASM volatile ("MRS %0, faultmask_ns" : "=r" (result) );
 547:Drivers/CMSIS/Include/cmsis_gcc.h ****   return(result);
 548:Drivers/CMSIS/Include/cmsis_gcc.h **** }
 549:Drivers/CMSIS/Include/cmsis_gcc.h **** #endif
 550:Drivers/CMSIS/Include/cmsis_gcc.h **** 
 551:Drivers/CMSIS/Include/cmsis_gcc.h **** 
 552:Drivers/CMSIS/Include/cmsis_gcc.h **** /**
 553:Drivers/CMSIS/Include/cmsis_gcc.h ****   \brief   Set Fault Mask
 554:Drivers/CMSIS/Include/cmsis_gcc.h ****   \details Assigns the given value to the Fault Mask register.
 555:Drivers/CMSIS/Include/cmsis_gcc.h ****   \param [in]    faultMask  Fault Mask value to set
 556:Drivers/CMSIS/Include/cmsis_gcc.h ****  */
 557:Drivers/CMSIS/Include/cmsis_gcc.h **** __STATIC_FORCEINLINE void __set_FAULTMASK(uint32_t faultMask)
 558:Drivers/CMSIS/Include/cmsis_gcc.h **** {
 559:Drivers/CMSIS/Include/cmsis_gcc.h ****   __ASM volatile ("MSR faultmask, %0" : : "r" (faultMask) : "memory");
 560:Drivers/CMSIS/Include/cmsis_gcc.h **** }
 561:Drivers/CMSIS/Include/cmsis_gcc.h **** 
 562:Drivers/CMSIS/Include/cmsis_gcc.h **** 
 563:Drivers/CMSIS/Include/cmsis_gcc.h **** #if (defined (__ARM_FEATURE_CMSE ) && (__ARM_FEATURE_CMSE == 3))
 564:Drivers/CMSIS/Include/cmsis_gcc.h **** /**
 565:Drivers/CMSIS/Include/cmsis_gcc.h ****   \brief   Set Fault Mask (non-secure)
 566:Drivers/CMSIS/Include/cmsis_gcc.h ****   \details Assigns the given value to the non-secure Fault Mask register when in secure state.
 567:Drivers/CMSIS/Include/cmsis_gcc.h ****   \param [in]    faultMask  Fault Mask value to set
 568:Drivers/CMSIS/Include/cmsis_gcc.h ****  */
 569:Drivers/CMSIS/Include/cmsis_gcc.h **** __STATIC_FORCEINLINE void __TZ_set_FAULTMASK_NS(uint32_t faultMask)
 570:Drivers/CMSIS/Include/cmsis_gcc.h **** {
 571:Drivers/CMSIS/Include/cmsis_gcc.h ****   __ASM volatile ("MSR faultmask_ns, %0" : : "r" (faultMask) : "memory");
 572:Drivers/CMSIS/Include/cmsis_gcc.h **** }
 573:Drivers/CMSIS/Include/cmsis_gcc.h **** #endif
 574:Drivers/CMSIS/Include/cmsis_gcc.h **** 
 575:Drivers/CMSIS/Include/cmsis_gcc.h **** #endif /* ((defined (__ARM_ARCH_7M__      ) && (__ARM_ARCH_7M__      == 1)) || \
 576:Drivers/CMSIS/Include/cmsis_gcc.h ****            (defined (__ARM_ARCH_7EM__     ) && (__ARM_ARCH_7EM__     == 1)) || \
 577:Drivers/CMSIS/Include/cmsis_gcc.h ****            (defined (__ARM_ARCH_8M_MAIN__ ) && (__ARM_ARCH_8M_MAIN__ == 1))    ) */
 578:Drivers/CMSIS/Include/cmsis_gcc.h **** 
 579:Drivers/CMSIS/Include/cmsis_gcc.h **** 
 580:Drivers/CMSIS/Include/cmsis_gcc.h **** #if ((defined (__ARM_ARCH_8M_MAIN__ ) && (__ARM_ARCH_8M_MAIN__ == 1)) || \
 581:Drivers/CMSIS/Include/cmsis_gcc.h ****      (defined (__ARM_ARCH_8M_BASE__ ) && (__ARM_ARCH_8M_BASE__ == 1))    )
 582:Drivers/CMSIS/Include/cmsis_gcc.h **** 
 583:Drivers/CMSIS/Include/cmsis_gcc.h **** /**
 584:Drivers/CMSIS/Include/cmsis_gcc.h ****   \brief   Get Process Stack Pointer Limit
 585:Drivers/CMSIS/Include/cmsis_gcc.h ****   Devices without ARMv8-M Main Extensions (i.e. Cortex-M23) lack the non-secure
 586:Drivers/CMSIS/Include/cmsis_gcc.h ****   Stack Pointer Limit register hence zero is returned always in non-secure
 587:Drivers/CMSIS/Include/cmsis_gcc.h ****   mode.
 588:Drivers/CMSIS/Include/cmsis_gcc.h ****   
 589:Drivers/CMSIS/Include/cmsis_gcc.h ****   \details Returns the current value of the Process Stack Pointer Limit (PSPLIM).
 590:Drivers/CMSIS/Include/cmsis_gcc.h ****   \return               PSPLIM Register value
 591:Drivers/CMSIS/Include/cmsis_gcc.h ****  */
 592:Drivers/CMSIS/Include/cmsis_gcc.h **** __STATIC_FORCEINLINE uint32_t __get_PSPLIM(void)
 593:Drivers/CMSIS/Include/cmsis_gcc.h **** {
 594:Drivers/CMSIS/Include/cmsis_gcc.h **** #if (!(defined (__ARM_ARCH_8M_MAIN__ ) && (__ARM_ARCH_8M_MAIN__ == 1)) && \
 595:Drivers/CMSIS/Include/cmsis_gcc.h ****     (!defined (__ARM_FEATURE_CMSE) || (__ARM_FEATURE_CMSE < 3)))
 596:Drivers/CMSIS/Include/cmsis_gcc.h ****     // without main extensions, the non-secure PSPLIM is RAZ/WI
 597:Drivers/CMSIS/Include/cmsis_gcc.h ****   return 0U;
 598:Drivers/CMSIS/Include/cmsis_gcc.h **** #else
 599:Drivers/CMSIS/Include/cmsis_gcc.h ****   uint32_t result;
ARM GAS  C:\Users\17832\AppData\Local\Temp\ccyMtfRp.s 			page 17


 600:Drivers/CMSIS/Include/cmsis_gcc.h ****   __ASM volatile ("MRS %0, psplim"  : "=r" (result) );
 601:Drivers/CMSIS/Include/cmsis_gcc.h ****   return result;
 602:Drivers/CMSIS/Include/cmsis_gcc.h **** #endif
 603:Drivers/CMSIS/Include/cmsis_gcc.h **** }
 604:Drivers/CMSIS/Include/cmsis_gcc.h **** 
 605:Drivers/CMSIS/Include/cmsis_gcc.h **** #if (defined (__ARM_FEATURE_CMSE) && (__ARM_FEATURE_CMSE == 3))
 606:Drivers/CMSIS/Include/cmsis_gcc.h **** /**
 607:Drivers/CMSIS/Include/cmsis_gcc.h ****   \brief   Get Process Stack Pointer Limit (non-secure)
 608:Drivers/CMSIS/Include/cmsis_gcc.h ****   Devices without ARMv8-M Main Extensions (i.e. Cortex-M23) lack the non-secure
 609:Drivers/CMSIS/Include/cmsis_gcc.h ****   Stack Pointer Limit register hence zero is returned always.
 610:Drivers/CMSIS/Include/cmsis_gcc.h **** 
 611:Drivers/CMSIS/Include/cmsis_gcc.h ****   \details Returns the current value of the non-secure Process Stack Pointer Limit (PSPLIM) when in
 612:Drivers/CMSIS/Include/cmsis_gcc.h ****   \return               PSPLIM Register value
 613:Drivers/CMSIS/Include/cmsis_gcc.h ****  */
 614:Drivers/CMSIS/Include/cmsis_gcc.h **** __STATIC_FORCEINLINE uint32_t __TZ_get_PSPLIM_NS(void)
 615:Drivers/CMSIS/Include/cmsis_gcc.h **** {
 616:Drivers/CMSIS/Include/cmsis_gcc.h **** #if (!(defined (__ARM_ARCH_8M_MAIN__ ) && (__ARM_ARCH_8M_MAIN__ == 1)))
 617:Drivers/CMSIS/Include/cmsis_gcc.h ****   // without main extensions, the non-secure PSPLIM is RAZ/WI
 618:Drivers/CMSIS/Include/cmsis_gcc.h ****   return 0U;
 619:Drivers/CMSIS/Include/cmsis_gcc.h **** #else
 620:Drivers/CMSIS/Include/cmsis_gcc.h ****   uint32_t result;
 621:Drivers/CMSIS/Include/cmsis_gcc.h ****   __ASM volatile ("MRS %0, psplim_ns"  : "=r" (result) );
 622:Drivers/CMSIS/Include/cmsis_gcc.h ****   return result;
 623:Drivers/CMSIS/Include/cmsis_gcc.h **** #endif
 624:Drivers/CMSIS/Include/cmsis_gcc.h **** }
 625:Drivers/CMSIS/Include/cmsis_gcc.h **** #endif
 626:Drivers/CMSIS/Include/cmsis_gcc.h **** 
 627:Drivers/CMSIS/Include/cmsis_gcc.h **** 
 628:Drivers/CMSIS/Include/cmsis_gcc.h **** /**
 629:Drivers/CMSIS/Include/cmsis_gcc.h ****   \brief   Set Process Stack Pointer Limit
 630:Drivers/CMSIS/Include/cmsis_gcc.h ****   Devices without ARMv8-M Main Extensions (i.e. Cortex-M23) lack the non-secure
 631:Drivers/CMSIS/Include/cmsis_gcc.h ****   Stack Pointer Limit register hence the write is silently ignored in non-secure
 632:Drivers/CMSIS/Include/cmsis_gcc.h ****   mode.
 633:Drivers/CMSIS/Include/cmsis_gcc.h ****   
 634:Drivers/CMSIS/Include/cmsis_gcc.h ****   \details Assigns the given value to the Process Stack Pointer Limit (PSPLIM).
 635:Drivers/CMSIS/Include/cmsis_gcc.h ****   \param [in]    ProcStackPtrLimit  Process Stack Pointer Limit value to set
 636:Drivers/CMSIS/Include/cmsis_gcc.h ****  */
 637:Drivers/CMSIS/Include/cmsis_gcc.h **** __STATIC_FORCEINLINE void __set_PSPLIM(uint32_t ProcStackPtrLimit)
 638:Drivers/CMSIS/Include/cmsis_gcc.h **** {
 639:Drivers/CMSIS/Include/cmsis_gcc.h **** #if (!(defined (__ARM_ARCH_8M_MAIN__ ) && (__ARM_ARCH_8M_MAIN__ == 1)) && \
 640:Drivers/CMSIS/Include/cmsis_gcc.h ****     (!defined (__ARM_FEATURE_CMSE) || (__ARM_FEATURE_CMSE < 3)))
 641:Drivers/CMSIS/Include/cmsis_gcc.h ****   // without main extensions, the non-secure PSPLIM is RAZ/WI
 642:Drivers/CMSIS/Include/cmsis_gcc.h ****   (void)ProcStackPtrLimit;
 643:Drivers/CMSIS/Include/cmsis_gcc.h **** #else
 644:Drivers/CMSIS/Include/cmsis_gcc.h ****   __ASM volatile ("MSR psplim, %0" : : "r" (ProcStackPtrLimit));
 645:Drivers/CMSIS/Include/cmsis_gcc.h **** #endif
 646:Drivers/CMSIS/Include/cmsis_gcc.h **** }
 647:Drivers/CMSIS/Include/cmsis_gcc.h **** 
 648:Drivers/CMSIS/Include/cmsis_gcc.h **** 
 649:Drivers/CMSIS/Include/cmsis_gcc.h **** #if (defined (__ARM_FEATURE_CMSE  ) && (__ARM_FEATURE_CMSE   == 3))
 650:Drivers/CMSIS/Include/cmsis_gcc.h **** /**
 651:Drivers/CMSIS/Include/cmsis_gcc.h ****   \brief   Set Process Stack Pointer (non-secure)
 652:Drivers/CMSIS/Include/cmsis_gcc.h ****   Devices without ARMv8-M Main Extensions (i.e. Cortex-M23) lack the non-secure
 653:Drivers/CMSIS/Include/cmsis_gcc.h ****   Stack Pointer Limit register hence the write is silently ignored.
 654:Drivers/CMSIS/Include/cmsis_gcc.h **** 
 655:Drivers/CMSIS/Include/cmsis_gcc.h ****   \details Assigns the given value to the non-secure Process Stack Pointer Limit (PSPLIM) when in s
 656:Drivers/CMSIS/Include/cmsis_gcc.h ****   \param [in]    ProcStackPtrLimit  Process Stack Pointer Limit value to set
ARM GAS  C:\Users\17832\AppData\Local\Temp\ccyMtfRp.s 			page 18


 657:Drivers/CMSIS/Include/cmsis_gcc.h ****  */
 658:Drivers/CMSIS/Include/cmsis_gcc.h **** __STATIC_FORCEINLINE void __TZ_set_PSPLIM_NS(uint32_t ProcStackPtrLimit)
 659:Drivers/CMSIS/Include/cmsis_gcc.h **** {
 660:Drivers/CMSIS/Include/cmsis_gcc.h **** #if (!(defined (__ARM_ARCH_8M_MAIN__ ) && (__ARM_ARCH_8M_MAIN__ == 1)))
 661:Drivers/CMSIS/Include/cmsis_gcc.h ****   // without main extensions, the non-secure PSPLIM is RAZ/WI
 662:Drivers/CMSIS/Include/cmsis_gcc.h ****   (void)ProcStackPtrLimit;
 663:Drivers/CMSIS/Include/cmsis_gcc.h **** #else
 664:Drivers/CMSIS/Include/cmsis_gcc.h ****   __ASM volatile ("MSR psplim_ns, %0\n" : : "r" (ProcStackPtrLimit));
 665:Drivers/CMSIS/Include/cmsis_gcc.h **** #endif
 666:Drivers/CMSIS/Include/cmsis_gcc.h **** }
 667:Drivers/CMSIS/Include/cmsis_gcc.h **** #endif
 668:Drivers/CMSIS/Include/cmsis_gcc.h **** 
 669:Drivers/CMSIS/Include/cmsis_gcc.h **** 
 670:Drivers/CMSIS/Include/cmsis_gcc.h **** /**
 671:Drivers/CMSIS/Include/cmsis_gcc.h ****   \brief   Get Main Stack Pointer Limit
 672:Drivers/CMSIS/Include/cmsis_gcc.h ****   Devices without ARMv8-M Main Extensions (i.e. Cortex-M23) lack the non-secure
 673:Drivers/CMSIS/Include/cmsis_gcc.h ****   Stack Pointer Limit register hence zero is returned always in non-secure
 674:Drivers/CMSIS/Include/cmsis_gcc.h ****   mode.
 675:Drivers/CMSIS/Include/cmsis_gcc.h **** 
 676:Drivers/CMSIS/Include/cmsis_gcc.h ****   \details Returns the current value of the Main Stack Pointer Limit (MSPLIM).
 677:Drivers/CMSIS/Include/cmsis_gcc.h ****   \return               MSPLIM Register value
 678:Drivers/CMSIS/Include/cmsis_gcc.h ****  */
 679:Drivers/CMSIS/Include/cmsis_gcc.h **** __STATIC_FORCEINLINE uint32_t __get_MSPLIM(void)
 680:Drivers/CMSIS/Include/cmsis_gcc.h **** {
 681:Drivers/CMSIS/Include/cmsis_gcc.h **** #if (!(defined (__ARM_ARCH_8M_MAIN__ ) && (__ARM_ARCH_8M_MAIN__ == 1)) && \
 682:Drivers/CMSIS/Include/cmsis_gcc.h ****     (!defined (__ARM_FEATURE_CMSE) || (__ARM_FEATURE_CMSE < 3)))
 683:Drivers/CMSIS/Include/cmsis_gcc.h ****   // without main extensions, the non-secure MSPLIM is RAZ/WI
 684:Drivers/CMSIS/Include/cmsis_gcc.h ****   return 0U;
 685:Drivers/CMSIS/Include/cmsis_gcc.h **** #else
 686:Drivers/CMSIS/Include/cmsis_gcc.h ****   uint32_t result;
 687:Drivers/CMSIS/Include/cmsis_gcc.h ****   __ASM volatile ("MRS %0, msplim" : "=r" (result) );
 688:Drivers/CMSIS/Include/cmsis_gcc.h ****   return result;
 689:Drivers/CMSIS/Include/cmsis_gcc.h **** #endif
 690:Drivers/CMSIS/Include/cmsis_gcc.h **** }
 691:Drivers/CMSIS/Include/cmsis_gcc.h **** 
 692:Drivers/CMSIS/Include/cmsis_gcc.h **** 
 693:Drivers/CMSIS/Include/cmsis_gcc.h **** #if (defined (__ARM_FEATURE_CMSE  ) && (__ARM_FEATURE_CMSE   == 3))
 694:Drivers/CMSIS/Include/cmsis_gcc.h **** /**
 695:Drivers/CMSIS/Include/cmsis_gcc.h ****   \brief   Get Main Stack Pointer Limit (non-secure)
 696:Drivers/CMSIS/Include/cmsis_gcc.h ****   Devices without ARMv8-M Main Extensions (i.e. Cortex-M23) lack the non-secure
 697:Drivers/CMSIS/Include/cmsis_gcc.h ****   Stack Pointer Limit register hence zero is returned always.
 698:Drivers/CMSIS/Include/cmsis_gcc.h **** 
 699:Drivers/CMSIS/Include/cmsis_gcc.h ****   \details Returns the current value of the non-secure Main Stack Pointer Limit(MSPLIM) when in sec
 700:Drivers/CMSIS/Include/cmsis_gcc.h ****   \return               MSPLIM Register value
 701:Drivers/CMSIS/Include/cmsis_gcc.h ****  */
 702:Drivers/CMSIS/Include/cmsis_gcc.h **** __STATIC_FORCEINLINE uint32_t __TZ_get_MSPLIM_NS(void)
 703:Drivers/CMSIS/Include/cmsis_gcc.h **** {
 704:Drivers/CMSIS/Include/cmsis_gcc.h **** #if (!(defined (__ARM_ARCH_8M_MAIN__ ) && (__ARM_ARCH_8M_MAIN__ == 1)))
 705:Drivers/CMSIS/Include/cmsis_gcc.h ****   // without main extensions, the non-secure MSPLIM is RAZ/WI
 706:Drivers/CMSIS/Include/cmsis_gcc.h ****   return 0U;
 707:Drivers/CMSIS/Include/cmsis_gcc.h **** #else
 708:Drivers/CMSIS/Include/cmsis_gcc.h ****   uint32_t result;
 709:Drivers/CMSIS/Include/cmsis_gcc.h ****   __ASM volatile ("MRS %0, msplim_ns" : "=r" (result) );
 710:Drivers/CMSIS/Include/cmsis_gcc.h ****   return result;
 711:Drivers/CMSIS/Include/cmsis_gcc.h **** #endif
 712:Drivers/CMSIS/Include/cmsis_gcc.h **** }
 713:Drivers/CMSIS/Include/cmsis_gcc.h **** #endif
ARM GAS  C:\Users\17832\AppData\Local\Temp\ccyMtfRp.s 			page 19


 714:Drivers/CMSIS/Include/cmsis_gcc.h **** 
 715:Drivers/CMSIS/Include/cmsis_gcc.h **** 
 716:Drivers/CMSIS/Include/cmsis_gcc.h **** /**
 717:Drivers/CMSIS/Include/cmsis_gcc.h ****   \brief   Set Main Stack Pointer Limit
 718:Drivers/CMSIS/Include/cmsis_gcc.h ****   Devices without ARMv8-M Main Extensions (i.e. Cortex-M23) lack the non-secure
 719:Drivers/CMSIS/Include/cmsis_gcc.h ****   Stack Pointer Limit register hence the write is silently ignored in non-secure
 720:Drivers/CMSIS/Include/cmsis_gcc.h ****   mode.
 721:Drivers/CMSIS/Include/cmsis_gcc.h **** 
 722:Drivers/CMSIS/Include/cmsis_gcc.h ****   \details Assigns the given value to the Main Stack Pointer Limit (MSPLIM).
 723:Drivers/CMSIS/Include/cmsis_gcc.h ****   \param [in]    MainStackPtrLimit  Main Stack Pointer Limit value to set
 724:Drivers/CMSIS/Include/cmsis_gcc.h ****  */
 725:Drivers/CMSIS/Include/cmsis_gcc.h **** __STATIC_FORCEINLINE void __set_MSPLIM(uint32_t MainStackPtrLimit)
 726:Drivers/CMSIS/Include/cmsis_gcc.h **** {
 727:Drivers/CMSIS/Include/cmsis_gcc.h **** #if (!(defined (__ARM_ARCH_8M_MAIN__ ) && (__ARM_ARCH_8M_MAIN__ == 1)) && \
 728:Drivers/CMSIS/Include/cmsis_gcc.h ****     (!defined (__ARM_FEATURE_CMSE) || (__ARM_FEATURE_CMSE < 3)))
 729:Drivers/CMSIS/Include/cmsis_gcc.h ****   // without main extensions, the non-secure MSPLIM is RAZ/WI
 730:Drivers/CMSIS/Include/cmsis_gcc.h ****   (void)MainStackPtrLimit;
 731:Drivers/CMSIS/Include/cmsis_gcc.h **** #else
 732:Drivers/CMSIS/Include/cmsis_gcc.h ****   __ASM volatile ("MSR msplim, %0" : : "r" (MainStackPtrLimit));
 733:Drivers/CMSIS/Include/cmsis_gcc.h **** #endif
 734:Drivers/CMSIS/Include/cmsis_gcc.h **** }
 735:Drivers/CMSIS/Include/cmsis_gcc.h **** 
 736:Drivers/CMSIS/Include/cmsis_gcc.h **** 
 737:Drivers/CMSIS/Include/cmsis_gcc.h **** #if (defined (__ARM_FEATURE_CMSE  ) && (__ARM_FEATURE_CMSE   == 3))
 738:Drivers/CMSIS/Include/cmsis_gcc.h **** /**
 739:Drivers/CMSIS/Include/cmsis_gcc.h ****   \brief   Set Main Stack Pointer Limit (non-secure)
 740:Drivers/CMSIS/Include/cmsis_gcc.h ****   Devices without ARMv8-M Main Extensions (i.e. Cortex-M23) lack the non-secure
 741:Drivers/CMSIS/Include/cmsis_gcc.h ****   Stack Pointer Limit register hence the write is silently ignored.
 742:Drivers/CMSIS/Include/cmsis_gcc.h **** 
 743:Drivers/CMSIS/Include/cmsis_gcc.h ****   \details Assigns the given value to the non-secure Main Stack Pointer Limit (MSPLIM) when in secu
 744:Drivers/CMSIS/Include/cmsis_gcc.h ****   \param [in]    MainStackPtrLimit  Main Stack Pointer value to set
 745:Drivers/CMSIS/Include/cmsis_gcc.h ****  */
 746:Drivers/CMSIS/Include/cmsis_gcc.h **** __STATIC_FORCEINLINE void __TZ_set_MSPLIM_NS(uint32_t MainStackPtrLimit)
 747:Drivers/CMSIS/Include/cmsis_gcc.h **** {
 748:Drivers/CMSIS/Include/cmsis_gcc.h **** #if (!(defined (__ARM_ARCH_8M_MAIN__ ) && (__ARM_ARCH_8M_MAIN__ == 1)))
 749:Drivers/CMSIS/Include/cmsis_gcc.h ****   // without main extensions, the non-secure MSPLIM is RAZ/WI
 750:Drivers/CMSIS/Include/cmsis_gcc.h ****   (void)MainStackPtrLimit;
 751:Drivers/CMSIS/Include/cmsis_gcc.h **** #else
 752:Drivers/CMSIS/Include/cmsis_gcc.h ****   __ASM volatile ("MSR msplim_ns, %0" : : "r" (MainStackPtrLimit));
 753:Drivers/CMSIS/Include/cmsis_gcc.h **** #endif
 754:Drivers/CMSIS/Include/cmsis_gcc.h **** }
 755:Drivers/CMSIS/Include/cmsis_gcc.h **** #endif
 756:Drivers/CMSIS/Include/cmsis_gcc.h **** 
 757:Drivers/CMSIS/Include/cmsis_gcc.h **** #endif /* ((defined (__ARM_ARCH_8M_MAIN__ ) && (__ARM_ARCH_8M_MAIN__ == 1)) || \
 758:Drivers/CMSIS/Include/cmsis_gcc.h ****            (defined (__ARM_ARCH_8M_BASE__ ) && (__ARM_ARCH_8M_BASE__ == 1))    ) */
 759:Drivers/CMSIS/Include/cmsis_gcc.h **** 
 760:Drivers/CMSIS/Include/cmsis_gcc.h **** 
 761:Drivers/CMSIS/Include/cmsis_gcc.h **** /**
 762:Drivers/CMSIS/Include/cmsis_gcc.h ****   \brief   Get FPSCR
 763:Drivers/CMSIS/Include/cmsis_gcc.h ****   \details Returns the current value of the Floating Point Status/Control register.
 764:Drivers/CMSIS/Include/cmsis_gcc.h ****   \return               Floating Point Status/Control register value
 765:Drivers/CMSIS/Include/cmsis_gcc.h ****  */
 766:Drivers/CMSIS/Include/cmsis_gcc.h **** __STATIC_FORCEINLINE uint32_t __get_FPSCR(void)
 767:Drivers/CMSIS/Include/cmsis_gcc.h **** {
 768:Drivers/CMSIS/Include/cmsis_gcc.h **** #if ((defined (__FPU_PRESENT) && (__FPU_PRESENT == 1U)) && \
 769:Drivers/CMSIS/Include/cmsis_gcc.h ****      (defined (__FPU_USED   ) && (__FPU_USED    == 1U))     )
 770:Drivers/CMSIS/Include/cmsis_gcc.h **** #if __has_builtin(__builtin_arm_get_fpscr) 
ARM GAS  C:\Users\17832\AppData\Local\Temp\ccyMtfRp.s 			page 20


 771:Drivers/CMSIS/Include/cmsis_gcc.h **** // Re-enable using built-in when GCC has been fixed
 772:Drivers/CMSIS/Include/cmsis_gcc.h **** // || (__GNUC__ > 7) || (__GNUC__ == 7 && __GNUC_MINOR__ >= 2)
 773:Drivers/CMSIS/Include/cmsis_gcc.h ****   /* see https://gcc.gnu.org/ml/gcc-patches/2017-04/msg00443.html */
 774:Drivers/CMSIS/Include/cmsis_gcc.h ****   return __builtin_arm_get_fpscr();
 775:Drivers/CMSIS/Include/cmsis_gcc.h **** #else
 776:Drivers/CMSIS/Include/cmsis_gcc.h ****   uint32_t result;
 777:Drivers/CMSIS/Include/cmsis_gcc.h **** 
 778:Drivers/CMSIS/Include/cmsis_gcc.h ****   __ASM volatile ("VMRS %0, fpscr" : "=r" (result) );
 779:Drivers/CMSIS/Include/cmsis_gcc.h ****   return(result);
 780:Drivers/CMSIS/Include/cmsis_gcc.h **** #endif
 781:Drivers/CMSIS/Include/cmsis_gcc.h **** #else
 782:Drivers/CMSIS/Include/cmsis_gcc.h ****   return(0U);
 783:Drivers/CMSIS/Include/cmsis_gcc.h **** #endif
 784:Drivers/CMSIS/Include/cmsis_gcc.h **** }
 785:Drivers/CMSIS/Include/cmsis_gcc.h **** 
 786:Drivers/CMSIS/Include/cmsis_gcc.h **** 
 787:Drivers/CMSIS/Include/cmsis_gcc.h **** /**
 788:Drivers/CMSIS/Include/cmsis_gcc.h ****   \brief   Set FPSCR
 789:Drivers/CMSIS/Include/cmsis_gcc.h ****   \details Assigns the given value to the Floating Point Status/Control register.
 790:Drivers/CMSIS/Include/cmsis_gcc.h ****   \param [in]    fpscr  Floating Point Status/Control value to set
 791:Drivers/CMSIS/Include/cmsis_gcc.h ****  */
 792:Drivers/CMSIS/Include/cmsis_gcc.h **** __STATIC_FORCEINLINE void __set_FPSCR(uint32_t fpscr)
 793:Drivers/CMSIS/Include/cmsis_gcc.h **** {
 794:Drivers/CMSIS/Include/cmsis_gcc.h **** #if ((defined (__FPU_PRESENT) && (__FPU_PRESENT == 1U)) && \
 795:Drivers/CMSIS/Include/cmsis_gcc.h ****      (defined (__FPU_USED   ) && (__FPU_USED    == 1U))     )
 796:Drivers/CMSIS/Include/cmsis_gcc.h **** #if __has_builtin(__builtin_arm_set_fpscr)
 797:Drivers/CMSIS/Include/cmsis_gcc.h **** // Re-enable using built-in when GCC has been fixed
 798:Drivers/CMSIS/Include/cmsis_gcc.h **** // || (__GNUC__ > 7) || (__GNUC__ == 7 && __GNUC_MINOR__ >= 2)
 799:Drivers/CMSIS/Include/cmsis_gcc.h ****   /* see https://gcc.gnu.org/ml/gcc-patches/2017-04/msg00443.html */
 800:Drivers/CMSIS/Include/cmsis_gcc.h ****   __builtin_arm_set_fpscr(fpscr);
 801:Drivers/CMSIS/Include/cmsis_gcc.h **** #else
 802:Drivers/CMSIS/Include/cmsis_gcc.h ****   __ASM volatile ("VMSR fpscr, %0" : : "r" (fpscr) : "vfpcc", "memory");
 803:Drivers/CMSIS/Include/cmsis_gcc.h **** #endif
 804:Drivers/CMSIS/Include/cmsis_gcc.h **** #else
 805:Drivers/CMSIS/Include/cmsis_gcc.h ****   (void)fpscr;
 806:Drivers/CMSIS/Include/cmsis_gcc.h **** #endif
 807:Drivers/CMSIS/Include/cmsis_gcc.h **** }
 808:Drivers/CMSIS/Include/cmsis_gcc.h **** 
 809:Drivers/CMSIS/Include/cmsis_gcc.h **** 
 810:Drivers/CMSIS/Include/cmsis_gcc.h **** /*@} end of CMSIS_Core_RegAccFunctions */
 811:Drivers/CMSIS/Include/cmsis_gcc.h **** 
 812:Drivers/CMSIS/Include/cmsis_gcc.h **** 
 813:Drivers/CMSIS/Include/cmsis_gcc.h **** /* ##########################  Core Instruction Access  ######################### */
 814:Drivers/CMSIS/Include/cmsis_gcc.h **** /** \defgroup CMSIS_Core_InstructionInterface CMSIS Core Instruction Interface
 815:Drivers/CMSIS/Include/cmsis_gcc.h ****   Access to dedicated instructions
 816:Drivers/CMSIS/Include/cmsis_gcc.h ****   @{
 817:Drivers/CMSIS/Include/cmsis_gcc.h **** */
 818:Drivers/CMSIS/Include/cmsis_gcc.h **** 
 819:Drivers/CMSIS/Include/cmsis_gcc.h **** /* Define macros for porting to both thumb1 and thumb2.
 820:Drivers/CMSIS/Include/cmsis_gcc.h ****  * For thumb1, use low register (r0-r7), specified by constraint "l"
 821:Drivers/CMSIS/Include/cmsis_gcc.h ****  * Otherwise, use general registers, specified by constraint "r" */
 822:Drivers/CMSIS/Include/cmsis_gcc.h **** #if defined (__thumb__) && !defined (__thumb2__)
 823:Drivers/CMSIS/Include/cmsis_gcc.h **** #define __CMSIS_GCC_OUT_REG(r) "=l" (r)
 824:Drivers/CMSIS/Include/cmsis_gcc.h **** #define __CMSIS_GCC_RW_REG(r) "+l" (r)
 825:Drivers/CMSIS/Include/cmsis_gcc.h **** #define __CMSIS_GCC_USE_REG(r) "l" (r)
 826:Drivers/CMSIS/Include/cmsis_gcc.h **** #else
 827:Drivers/CMSIS/Include/cmsis_gcc.h **** #define __CMSIS_GCC_OUT_REG(r) "=r" (r)
ARM GAS  C:\Users\17832\AppData\Local\Temp\ccyMtfRp.s 			page 21


 828:Drivers/CMSIS/Include/cmsis_gcc.h **** #define __CMSIS_GCC_RW_REG(r) "+r" (r)
 829:Drivers/CMSIS/Include/cmsis_gcc.h **** #define __CMSIS_GCC_USE_REG(r) "r" (r)
 830:Drivers/CMSIS/Include/cmsis_gcc.h **** #endif
 831:Drivers/CMSIS/Include/cmsis_gcc.h **** 
 832:Drivers/CMSIS/Include/cmsis_gcc.h **** /**
 833:Drivers/CMSIS/Include/cmsis_gcc.h ****   \brief   No Operation
 834:Drivers/CMSIS/Include/cmsis_gcc.h ****   \details No Operation does nothing. This instruction can be used for code alignment purposes.
 835:Drivers/CMSIS/Include/cmsis_gcc.h ****  */
 836:Drivers/CMSIS/Include/cmsis_gcc.h **** #define __NOP()                             __ASM volatile ("nop")
 837:Drivers/CMSIS/Include/cmsis_gcc.h **** 
 838:Drivers/CMSIS/Include/cmsis_gcc.h **** /**
 839:Drivers/CMSIS/Include/cmsis_gcc.h ****   \brief   Wait For Interrupt
 840:Drivers/CMSIS/Include/cmsis_gcc.h ****   \details Wait For Interrupt is a hint instruction that suspends execution until one of a number o
 841:Drivers/CMSIS/Include/cmsis_gcc.h ****  */
 842:Drivers/CMSIS/Include/cmsis_gcc.h **** #define __WFI()                             __ASM volatile ("wfi")
 843:Drivers/CMSIS/Include/cmsis_gcc.h **** 
 844:Drivers/CMSIS/Include/cmsis_gcc.h **** 
 845:Drivers/CMSIS/Include/cmsis_gcc.h **** /**
 846:Drivers/CMSIS/Include/cmsis_gcc.h ****   \brief   Wait For Event
 847:Drivers/CMSIS/Include/cmsis_gcc.h ****   \details Wait For Event is a hint instruction that permits the processor to enter
 848:Drivers/CMSIS/Include/cmsis_gcc.h ****            a low-power state until one of a number of events occurs.
 849:Drivers/CMSIS/Include/cmsis_gcc.h ****  */
 850:Drivers/CMSIS/Include/cmsis_gcc.h **** #define __WFE()                             __ASM volatile ("wfe")
 851:Drivers/CMSIS/Include/cmsis_gcc.h **** 
 852:Drivers/CMSIS/Include/cmsis_gcc.h **** 
 853:Drivers/CMSIS/Include/cmsis_gcc.h **** /**
 854:Drivers/CMSIS/Include/cmsis_gcc.h ****   \brief   Send Event
 855:Drivers/CMSIS/Include/cmsis_gcc.h ****   \details Send Event is a hint instruction. It causes an event to be signaled to the CPU.
 856:Drivers/CMSIS/Include/cmsis_gcc.h ****  */
 857:Drivers/CMSIS/Include/cmsis_gcc.h **** #define __SEV()                             __ASM volatile ("sev")
 858:Drivers/CMSIS/Include/cmsis_gcc.h **** 
 859:Drivers/CMSIS/Include/cmsis_gcc.h **** 
 860:Drivers/CMSIS/Include/cmsis_gcc.h **** /**
 861:Drivers/CMSIS/Include/cmsis_gcc.h ****   \brief   Instruction Synchronization Barrier
 862:Drivers/CMSIS/Include/cmsis_gcc.h ****   \details Instruction Synchronization Barrier flushes the pipeline in the processor,
 863:Drivers/CMSIS/Include/cmsis_gcc.h ****            so that all instructions following the ISB are fetched from cache or memory,
 864:Drivers/CMSIS/Include/cmsis_gcc.h ****            after the instruction has been completed.
 865:Drivers/CMSIS/Include/cmsis_gcc.h ****  */
 866:Drivers/CMSIS/Include/cmsis_gcc.h **** __STATIC_FORCEINLINE void __ISB(void)
 867:Drivers/CMSIS/Include/cmsis_gcc.h **** {
 868:Drivers/CMSIS/Include/cmsis_gcc.h ****   __ASM volatile ("isb 0xF":::"memory");
 869:Drivers/CMSIS/Include/cmsis_gcc.h **** }
 870:Drivers/CMSIS/Include/cmsis_gcc.h **** 
 871:Drivers/CMSIS/Include/cmsis_gcc.h **** 
 872:Drivers/CMSIS/Include/cmsis_gcc.h **** /**
 873:Drivers/CMSIS/Include/cmsis_gcc.h ****   \brief   Data Synchronization Barrier
 874:Drivers/CMSIS/Include/cmsis_gcc.h ****   \details Acts as a special kind of Data Memory Barrier.
 875:Drivers/CMSIS/Include/cmsis_gcc.h ****            It completes when all explicit memory accesses before this instruction complete.
 876:Drivers/CMSIS/Include/cmsis_gcc.h ****  */
 877:Drivers/CMSIS/Include/cmsis_gcc.h **** __STATIC_FORCEINLINE void __DSB(void)
 878:Drivers/CMSIS/Include/cmsis_gcc.h **** {
 879:Drivers/CMSIS/Include/cmsis_gcc.h ****   __ASM volatile ("dsb 0xF":::"memory");
 880:Drivers/CMSIS/Include/cmsis_gcc.h **** }
 881:Drivers/CMSIS/Include/cmsis_gcc.h **** 
 882:Drivers/CMSIS/Include/cmsis_gcc.h **** 
 883:Drivers/CMSIS/Include/cmsis_gcc.h **** /**
 884:Drivers/CMSIS/Include/cmsis_gcc.h ****   \brief   Data Memory Barrier
ARM GAS  C:\Users\17832\AppData\Local\Temp\ccyMtfRp.s 			page 22


 885:Drivers/CMSIS/Include/cmsis_gcc.h ****   \details Ensures the apparent order of the explicit memory operations before
 886:Drivers/CMSIS/Include/cmsis_gcc.h ****            and after the instruction, without ensuring their completion.
 887:Drivers/CMSIS/Include/cmsis_gcc.h ****  */
 888:Drivers/CMSIS/Include/cmsis_gcc.h **** __STATIC_FORCEINLINE void __DMB(void)
 889:Drivers/CMSIS/Include/cmsis_gcc.h **** {
 890:Drivers/CMSIS/Include/cmsis_gcc.h ****   __ASM volatile ("dmb 0xF":::"memory");
 891:Drivers/CMSIS/Include/cmsis_gcc.h **** }
 892:Drivers/CMSIS/Include/cmsis_gcc.h **** 
 893:Drivers/CMSIS/Include/cmsis_gcc.h **** 
 894:Drivers/CMSIS/Include/cmsis_gcc.h **** /**
 895:Drivers/CMSIS/Include/cmsis_gcc.h ****   \brief   Reverse byte order (32 bit)
 896:Drivers/CMSIS/Include/cmsis_gcc.h ****   \details Reverses the byte order in unsigned integer value. For example, 0x12345678 becomes 0x785
 897:Drivers/CMSIS/Include/cmsis_gcc.h ****   \param [in]    value  Value to reverse
 898:Drivers/CMSIS/Include/cmsis_gcc.h ****   \return               Reversed value
 899:Drivers/CMSIS/Include/cmsis_gcc.h ****  */
 900:Drivers/CMSIS/Include/cmsis_gcc.h **** __STATIC_FORCEINLINE uint32_t __REV(uint32_t value)
 901:Drivers/CMSIS/Include/cmsis_gcc.h **** {
 902:Drivers/CMSIS/Include/cmsis_gcc.h **** #if (__GNUC__ > 4) || (__GNUC__ == 4 && __GNUC_MINOR__ >= 5)
 903:Drivers/CMSIS/Include/cmsis_gcc.h ****   return __builtin_bswap32(value);
 904:Drivers/CMSIS/Include/cmsis_gcc.h **** #else
 905:Drivers/CMSIS/Include/cmsis_gcc.h ****   uint32_t result;
 906:Drivers/CMSIS/Include/cmsis_gcc.h **** 
 907:Drivers/CMSIS/Include/cmsis_gcc.h ****   __ASM volatile ("rev %0, %1" : __CMSIS_GCC_OUT_REG (result) : __CMSIS_GCC_USE_REG (value) );
 908:Drivers/CMSIS/Include/cmsis_gcc.h ****   return result;
 909:Drivers/CMSIS/Include/cmsis_gcc.h **** #endif
 910:Drivers/CMSIS/Include/cmsis_gcc.h **** }
 911:Drivers/CMSIS/Include/cmsis_gcc.h **** 
 912:Drivers/CMSIS/Include/cmsis_gcc.h **** 
 913:Drivers/CMSIS/Include/cmsis_gcc.h **** /**
 914:Drivers/CMSIS/Include/cmsis_gcc.h ****   \brief   Reverse byte order (16 bit)
 915:Drivers/CMSIS/Include/cmsis_gcc.h ****   \details Reverses the byte order within each halfword of a word. For example, 0x12345678 becomes 
 916:Drivers/CMSIS/Include/cmsis_gcc.h ****   \param [in]    value  Value to reverse
 917:Drivers/CMSIS/Include/cmsis_gcc.h ****   \return               Reversed value
 918:Drivers/CMSIS/Include/cmsis_gcc.h ****  */
 919:Drivers/CMSIS/Include/cmsis_gcc.h **** __STATIC_FORCEINLINE uint32_t __REV16(uint32_t value)
 920:Drivers/CMSIS/Include/cmsis_gcc.h **** {
 921:Drivers/CMSIS/Include/cmsis_gcc.h ****   uint32_t result;
 922:Drivers/CMSIS/Include/cmsis_gcc.h **** 
 923:Drivers/CMSIS/Include/cmsis_gcc.h ****   __ASM volatile ("rev16 %0, %1" : __CMSIS_GCC_OUT_REG (result) : __CMSIS_GCC_USE_REG (value) );
 924:Drivers/CMSIS/Include/cmsis_gcc.h ****   return result;
 925:Drivers/CMSIS/Include/cmsis_gcc.h **** }
 926:Drivers/CMSIS/Include/cmsis_gcc.h **** 
 927:Drivers/CMSIS/Include/cmsis_gcc.h **** 
 928:Drivers/CMSIS/Include/cmsis_gcc.h **** /**
 929:Drivers/CMSIS/Include/cmsis_gcc.h ****   \brief   Reverse byte order (16 bit)
 930:Drivers/CMSIS/Include/cmsis_gcc.h ****   \details Reverses the byte order in a 16-bit value and returns the signed 16-bit result. For exam
 931:Drivers/CMSIS/Include/cmsis_gcc.h ****   \param [in]    value  Value to reverse
 932:Drivers/CMSIS/Include/cmsis_gcc.h ****   \return               Reversed value
 933:Drivers/CMSIS/Include/cmsis_gcc.h ****  */
 934:Drivers/CMSIS/Include/cmsis_gcc.h **** __STATIC_FORCEINLINE int16_t __REVSH(int16_t value)
 935:Drivers/CMSIS/Include/cmsis_gcc.h **** {
 936:Drivers/CMSIS/Include/cmsis_gcc.h **** #if (__GNUC__ > 4) || (__GNUC__ == 4 && __GNUC_MINOR__ >= 8)
 937:Drivers/CMSIS/Include/cmsis_gcc.h ****   return (int16_t)__builtin_bswap16(value);
 938:Drivers/CMSIS/Include/cmsis_gcc.h **** #else
 939:Drivers/CMSIS/Include/cmsis_gcc.h ****   int16_t result;
 940:Drivers/CMSIS/Include/cmsis_gcc.h **** 
 941:Drivers/CMSIS/Include/cmsis_gcc.h ****   __ASM volatile ("revsh %0, %1" : __CMSIS_GCC_OUT_REG (result) : __CMSIS_GCC_USE_REG (value) );
ARM GAS  C:\Users\17832\AppData\Local\Temp\ccyMtfRp.s 			page 23


 942:Drivers/CMSIS/Include/cmsis_gcc.h ****   return result;
 943:Drivers/CMSIS/Include/cmsis_gcc.h **** #endif
 944:Drivers/CMSIS/Include/cmsis_gcc.h **** }
 945:Drivers/CMSIS/Include/cmsis_gcc.h **** 
 946:Drivers/CMSIS/Include/cmsis_gcc.h **** 
 947:Drivers/CMSIS/Include/cmsis_gcc.h **** /**
 948:Drivers/CMSIS/Include/cmsis_gcc.h ****   \brief   Rotate Right in unsigned value (32 bit)
 949:Drivers/CMSIS/Include/cmsis_gcc.h ****   \details Rotate Right (immediate) provides the value of the contents of a register rotated by a v
 950:Drivers/CMSIS/Include/cmsis_gcc.h ****   \param [in]    op1  Value to rotate
 951:Drivers/CMSIS/Include/cmsis_gcc.h ****   \param [in]    op2  Number of Bits to rotate
 952:Drivers/CMSIS/Include/cmsis_gcc.h ****   \return               Rotated value
 953:Drivers/CMSIS/Include/cmsis_gcc.h ****  */
 954:Drivers/CMSIS/Include/cmsis_gcc.h **** __STATIC_FORCEINLINE uint32_t __ROR(uint32_t op1, uint32_t op2)
 955:Drivers/CMSIS/Include/cmsis_gcc.h **** {
 956:Drivers/CMSIS/Include/cmsis_gcc.h ****   op2 %= 32U;
 957:Drivers/CMSIS/Include/cmsis_gcc.h ****   if (op2 == 0U)
 958:Drivers/CMSIS/Include/cmsis_gcc.h ****   {
 959:Drivers/CMSIS/Include/cmsis_gcc.h ****     return op1;
 960:Drivers/CMSIS/Include/cmsis_gcc.h ****   }
 961:Drivers/CMSIS/Include/cmsis_gcc.h ****   return (op1 >> op2) | (op1 << (32U - op2));
 962:Drivers/CMSIS/Include/cmsis_gcc.h **** }
 963:Drivers/CMSIS/Include/cmsis_gcc.h **** 
 964:Drivers/CMSIS/Include/cmsis_gcc.h **** 
 965:Drivers/CMSIS/Include/cmsis_gcc.h **** /**
 966:Drivers/CMSIS/Include/cmsis_gcc.h ****   \brief   Breakpoint
 967:Drivers/CMSIS/Include/cmsis_gcc.h ****   \details Causes the processor to enter Debug state.
 968:Drivers/CMSIS/Include/cmsis_gcc.h ****            Debug tools can use this to investigate system state when the instruction at a particula
 969:Drivers/CMSIS/Include/cmsis_gcc.h ****   \param [in]    value  is ignored by the processor.
 970:Drivers/CMSIS/Include/cmsis_gcc.h ****                  If required, a debugger can use it to store additional information about the break
 971:Drivers/CMSIS/Include/cmsis_gcc.h ****  */
 972:Drivers/CMSIS/Include/cmsis_gcc.h **** #define __BKPT(value)                       __ASM volatile ("bkpt "#value)
 973:Drivers/CMSIS/Include/cmsis_gcc.h **** 
 974:Drivers/CMSIS/Include/cmsis_gcc.h **** 
 975:Drivers/CMSIS/Include/cmsis_gcc.h **** /**
 976:Drivers/CMSIS/Include/cmsis_gcc.h ****   \brief   Reverse bit order of value
 977:Drivers/CMSIS/Include/cmsis_gcc.h ****   \details Reverses the bit order of the given value.
 978:Drivers/CMSIS/Include/cmsis_gcc.h ****   \param [in]    value  Value to reverse
 979:Drivers/CMSIS/Include/cmsis_gcc.h ****   \return               Reversed value
 980:Drivers/CMSIS/Include/cmsis_gcc.h ****  */
 981:Drivers/CMSIS/Include/cmsis_gcc.h **** __STATIC_FORCEINLINE uint32_t __RBIT(uint32_t value)
 982:Drivers/CMSIS/Include/cmsis_gcc.h **** {
 983:Drivers/CMSIS/Include/cmsis_gcc.h ****   uint32_t result;
 984:Drivers/CMSIS/Include/cmsis_gcc.h **** 
 985:Drivers/CMSIS/Include/cmsis_gcc.h **** #if ((defined (__ARM_ARCH_7M__      ) && (__ARM_ARCH_7M__      == 1)) || \
 986:Drivers/CMSIS/Include/cmsis_gcc.h ****      (defined (__ARM_ARCH_7EM__     ) && (__ARM_ARCH_7EM__     == 1)) || \
 987:Drivers/CMSIS/Include/cmsis_gcc.h ****      (defined (__ARM_ARCH_8M_MAIN__ ) && (__ARM_ARCH_8M_MAIN__ == 1))    )
 988:Drivers/CMSIS/Include/cmsis_gcc.h ****    __ASM volatile ("rbit %0, %1" : "=r" (result) : "r" (value) );
 989:Drivers/CMSIS/Include/cmsis_gcc.h **** #else
 990:Drivers/CMSIS/Include/cmsis_gcc.h ****   uint32_t s = (4U /*sizeof(v)*/ * 8U) - 1U; /* extra shift needed at end */
 991:Drivers/CMSIS/Include/cmsis_gcc.h **** 
 992:Drivers/CMSIS/Include/cmsis_gcc.h ****   result = value;                      /* r will be reversed bits of v; first get LSB of v */
 993:Drivers/CMSIS/Include/cmsis_gcc.h ****   for (value >>= 1U; value != 0U; value >>= 1U)
 994:Drivers/CMSIS/Include/cmsis_gcc.h ****   {
 995:Drivers/CMSIS/Include/cmsis_gcc.h ****     result <<= 1U;
 996:Drivers/CMSIS/Include/cmsis_gcc.h ****     result |= value & 1U;
 997:Drivers/CMSIS/Include/cmsis_gcc.h ****     s--;
 998:Drivers/CMSIS/Include/cmsis_gcc.h ****   }
ARM GAS  C:\Users\17832\AppData\Local\Temp\ccyMtfRp.s 			page 24


 999:Drivers/CMSIS/Include/cmsis_gcc.h ****   result <<= s;                        /* shift when v's highest bits are zero */
1000:Drivers/CMSIS/Include/cmsis_gcc.h **** #endif
1001:Drivers/CMSIS/Include/cmsis_gcc.h ****   return result;
1002:Drivers/CMSIS/Include/cmsis_gcc.h **** }
1003:Drivers/CMSIS/Include/cmsis_gcc.h **** 
1004:Drivers/CMSIS/Include/cmsis_gcc.h **** 
1005:Drivers/CMSIS/Include/cmsis_gcc.h **** /**
1006:Drivers/CMSIS/Include/cmsis_gcc.h ****   \brief   Count leading zeros
1007:Drivers/CMSIS/Include/cmsis_gcc.h ****   \details Counts the number of leading zeros of a data value.
1008:Drivers/CMSIS/Include/cmsis_gcc.h ****   \param [in]  value  Value to count the leading zeros
1009:Drivers/CMSIS/Include/cmsis_gcc.h ****   \return             number of leading zeros in value
1010:Drivers/CMSIS/Include/cmsis_gcc.h ****  */
1011:Drivers/CMSIS/Include/cmsis_gcc.h **** #define __CLZ             (uint8_t)__builtin_clz
1012:Drivers/CMSIS/Include/cmsis_gcc.h **** 
1013:Drivers/CMSIS/Include/cmsis_gcc.h **** 
1014:Drivers/CMSIS/Include/cmsis_gcc.h **** #if ((defined (__ARM_ARCH_7M__      ) && (__ARM_ARCH_7M__      == 1)) || \
1015:Drivers/CMSIS/Include/cmsis_gcc.h ****      (defined (__ARM_ARCH_7EM__     ) && (__ARM_ARCH_7EM__     == 1)) || \
1016:Drivers/CMSIS/Include/cmsis_gcc.h ****      (defined (__ARM_ARCH_8M_MAIN__ ) && (__ARM_ARCH_8M_MAIN__ == 1)) || \
1017:Drivers/CMSIS/Include/cmsis_gcc.h ****      (defined (__ARM_ARCH_8M_BASE__ ) && (__ARM_ARCH_8M_BASE__ == 1))    )
1018:Drivers/CMSIS/Include/cmsis_gcc.h **** /**
1019:Drivers/CMSIS/Include/cmsis_gcc.h ****   \brief   LDR Exclusive (8 bit)
1020:Drivers/CMSIS/Include/cmsis_gcc.h ****   \details Executes a exclusive LDR instruction for 8 bit value.
1021:Drivers/CMSIS/Include/cmsis_gcc.h ****   \param [in]    ptr  Pointer to data
1022:Drivers/CMSIS/Include/cmsis_gcc.h ****   \return             value of type uint8_t at (*ptr)
1023:Drivers/CMSIS/Include/cmsis_gcc.h ****  */
1024:Drivers/CMSIS/Include/cmsis_gcc.h **** __STATIC_FORCEINLINE uint8_t __LDREXB(volatile uint8_t *addr)
1025:Drivers/CMSIS/Include/cmsis_gcc.h **** {
1026:Drivers/CMSIS/Include/cmsis_gcc.h ****     uint32_t result;
1027:Drivers/CMSIS/Include/cmsis_gcc.h **** 
1028:Drivers/CMSIS/Include/cmsis_gcc.h **** #if (__GNUC__ > 4) || (__GNUC__ == 4 && __GNUC_MINOR__ >= 8)
1029:Drivers/CMSIS/Include/cmsis_gcc.h ****    __ASM volatile ("ldrexb %0, %1" : "=r" (result) : "Q" (*addr) );
1030:Drivers/CMSIS/Include/cmsis_gcc.h **** #else
1031:Drivers/CMSIS/Include/cmsis_gcc.h ****     /* Prior to GCC 4.8, "Q" will be expanded to [rx, #0] which is not
1032:Drivers/CMSIS/Include/cmsis_gcc.h ****        accepted by assembler. So has to use following less efficient pattern.
1033:Drivers/CMSIS/Include/cmsis_gcc.h ****     */
1034:Drivers/CMSIS/Include/cmsis_gcc.h ****    __ASM volatile ("ldrexb %0, [%1]" : "=r" (result) : "r" (addr) : "memory" );
1035:Drivers/CMSIS/Include/cmsis_gcc.h **** #endif
1036:Drivers/CMSIS/Include/cmsis_gcc.h ****    return ((uint8_t) result);    /* Add explicit type cast here */
1037:Drivers/CMSIS/Include/cmsis_gcc.h **** }
1038:Drivers/CMSIS/Include/cmsis_gcc.h **** 
1039:Drivers/CMSIS/Include/cmsis_gcc.h **** 
1040:Drivers/CMSIS/Include/cmsis_gcc.h **** /**
1041:Drivers/CMSIS/Include/cmsis_gcc.h ****   \brief   LDR Exclusive (16 bit)
1042:Drivers/CMSIS/Include/cmsis_gcc.h ****   \details Executes a exclusive LDR instruction for 16 bit values.
1043:Drivers/CMSIS/Include/cmsis_gcc.h ****   \param [in]    ptr  Pointer to data
1044:Drivers/CMSIS/Include/cmsis_gcc.h ****   \return        value of type uint16_t at (*ptr)
1045:Drivers/CMSIS/Include/cmsis_gcc.h ****  */
1046:Drivers/CMSIS/Include/cmsis_gcc.h **** __STATIC_FORCEINLINE uint16_t __LDREXH(volatile uint16_t *addr)
1047:Drivers/CMSIS/Include/cmsis_gcc.h **** {
1048:Drivers/CMSIS/Include/cmsis_gcc.h ****     uint32_t result;
1049:Drivers/CMSIS/Include/cmsis_gcc.h **** 
1050:Drivers/CMSIS/Include/cmsis_gcc.h **** #if (__GNUC__ > 4) || (__GNUC__ == 4 && __GNUC_MINOR__ >= 8)
1051:Drivers/CMSIS/Include/cmsis_gcc.h ****    __ASM volatile ("ldrexh %0, %1" : "=r" (result) : "Q" (*addr) );
1052:Drivers/CMSIS/Include/cmsis_gcc.h **** #else
1053:Drivers/CMSIS/Include/cmsis_gcc.h ****     /* Prior to GCC 4.8, "Q" will be expanded to [rx, #0] which is not
1054:Drivers/CMSIS/Include/cmsis_gcc.h ****        accepted by assembler. So has to use following less efficient pattern.
1055:Drivers/CMSIS/Include/cmsis_gcc.h ****     */
ARM GAS  C:\Users\17832\AppData\Local\Temp\ccyMtfRp.s 			page 25


1056:Drivers/CMSIS/Include/cmsis_gcc.h ****    __ASM volatile ("ldrexh %0, [%1]" : "=r" (result) : "r" (addr) : "memory" );
1057:Drivers/CMSIS/Include/cmsis_gcc.h **** #endif
1058:Drivers/CMSIS/Include/cmsis_gcc.h ****    return ((uint16_t) result);    /* Add explicit type cast here */
1059:Drivers/CMSIS/Include/cmsis_gcc.h **** }
1060:Drivers/CMSIS/Include/cmsis_gcc.h **** 
1061:Drivers/CMSIS/Include/cmsis_gcc.h **** 
1062:Drivers/CMSIS/Include/cmsis_gcc.h **** /**
1063:Drivers/CMSIS/Include/cmsis_gcc.h ****   \brief   LDR Exclusive (32 bit)
1064:Drivers/CMSIS/Include/cmsis_gcc.h ****   \details Executes a exclusive LDR instruction for 32 bit values.
1065:Drivers/CMSIS/Include/cmsis_gcc.h ****   \param [in]    ptr  Pointer to data
1066:Drivers/CMSIS/Include/cmsis_gcc.h ****   \return        value of type uint32_t at (*ptr)
1067:Drivers/CMSIS/Include/cmsis_gcc.h ****  */
1068:Drivers/CMSIS/Include/cmsis_gcc.h **** __STATIC_FORCEINLINE uint32_t __LDREXW(volatile uint32_t *addr)
1069:Drivers/CMSIS/Include/cmsis_gcc.h **** {
1070:Drivers/CMSIS/Include/cmsis_gcc.h ****     uint32_t result;
1071:Drivers/CMSIS/Include/cmsis_gcc.h **** 
1072:Drivers/CMSIS/Include/cmsis_gcc.h ****    __ASM volatile ("ldrex %0, %1" : "=r" (result) : "Q" (*addr) );
1073:Drivers/CMSIS/Include/cmsis_gcc.h ****    return(result);
1074:Drivers/CMSIS/Include/cmsis_gcc.h **** }
1075:Drivers/CMSIS/Include/cmsis_gcc.h **** 
1076:Drivers/CMSIS/Include/cmsis_gcc.h **** 
1077:Drivers/CMSIS/Include/cmsis_gcc.h **** /**
1078:Drivers/CMSIS/Include/cmsis_gcc.h ****   \brief   STR Exclusive (8 bit)
1079:Drivers/CMSIS/Include/cmsis_gcc.h ****   \details Executes a exclusive STR instruction for 8 bit values.
1080:Drivers/CMSIS/Include/cmsis_gcc.h ****   \param [in]  value  Value to store
1081:Drivers/CMSIS/Include/cmsis_gcc.h ****   \param [in]    ptr  Pointer to location
1082:Drivers/CMSIS/Include/cmsis_gcc.h ****   \return          0  Function succeeded
1083:Drivers/CMSIS/Include/cmsis_gcc.h ****   \return          1  Function failed
1084:Drivers/CMSIS/Include/cmsis_gcc.h ****  */
1085:Drivers/CMSIS/Include/cmsis_gcc.h **** __STATIC_FORCEINLINE uint32_t __STREXB(uint8_t value, volatile uint8_t *addr)
1086:Drivers/CMSIS/Include/cmsis_gcc.h **** {
1087:Drivers/CMSIS/Include/cmsis_gcc.h ****    uint32_t result;
1088:Drivers/CMSIS/Include/cmsis_gcc.h **** 
1089:Drivers/CMSIS/Include/cmsis_gcc.h ****    __ASM volatile ("strexb %0, %2, %1" : "=&r" (result), "=Q" (*addr) : "r" ((uint32_t)value) );
1090:Drivers/CMSIS/Include/cmsis_gcc.h ****    return(result);
1091:Drivers/CMSIS/Include/cmsis_gcc.h **** }
1092:Drivers/CMSIS/Include/cmsis_gcc.h **** 
1093:Drivers/CMSIS/Include/cmsis_gcc.h **** 
1094:Drivers/CMSIS/Include/cmsis_gcc.h **** /**
1095:Drivers/CMSIS/Include/cmsis_gcc.h ****   \brief   STR Exclusive (16 bit)
1096:Drivers/CMSIS/Include/cmsis_gcc.h ****   \details Executes a exclusive STR instruction for 16 bit values.
1097:Drivers/CMSIS/Include/cmsis_gcc.h ****   \param [in]  value  Value to store
1098:Drivers/CMSIS/Include/cmsis_gcc.h ****   \param [in]    ptr  Pointer to location
1099:Drivers/CMSIS/Include/cmsis_gcc.h ****   \return          0  Function succeeded
1100:Drivers/CMSIS/Include/cmsis_gcc.h ****   \return          1  Function failed
1101:Drivers/CMSIS/Include/cmsis_gcc.h ****  */
1102:Drivers/CMSIS/Include/cmsis_gcc.h **** __STATIC_FORCEINLINE uint32_t __STREXH(uint16_t value, volatile uint16_t *addr)
1103:Drivers/CMSIS/Include/cmsis_gcc.h **** {
1104:Drivers/CMSIS/Include/cmsis_gcc.h ****    uint32_t result;
1105:Drivers/CMSIS/Include/cmsis_gcc.h **** 
1106:Drivers/CMSIS/Include/cmsis_gcc.h ****    __ASM volatile ("strexh %0, %2, %1" : "=&r" (result), "=Q" (*addr) : "r" ((uint32_t)value) );
1107:Drivers/CMSIS/Include/cmsis_gcc.h ****    return(result);
1108:Drivers/CMSIS/Include/cmsis_gcc.h **** }
1109:Drivers/CMSIS/Include/cmsis_gcc.h **** 
1110:Drivers/CMSIS/Include/cmsis_gcc.h **** 
1111:Drivers/CMSIS/Include/cmsis_gcc.h **** /**
1112:Drivers/CMSIS/Include/cmsis_gcc.h ****   \brief   STR Exclusive (32 bit)
ARM GAS  C:\Users\17832\AppData\Local\Temp\ccyMtfRp.s 			page 26


1113:Drivers/CMSIS/Include/cmsis_gcc.h ****   \details Executes a exclusive STR instruction for 32 bit values.
1114:Drivers/CMSIS/Include/cmsis_gcc.h ****   \param [in]  value  Value to store
1115:Drivers/CMSIS/Include/cmsis_gcc.h ****   \param [in]    ptr  Pointer to location
1116:Drivers/CMSIS/Include/cmsis_gcc.h ****   \return          0  Function succeeded
1117:Drivers/CMSIS/Include/cmsis_gcc.h ****   \return          1  Function failed
1118:Drivers/CMSIS/Include/cmsis_gcc.h ****  */
1119:Drivers/CMSIS/Include/cmsis_gcc.h **** __STATIC_FORCEINLINE uint32_t __STREXW(uint32_t value, volatile uint32_t *addr)
1120:Drivers/CMSIS/Include/cmsis_gcc.h **** {
1121:Drivers/CMSIS/Include/cmsis_gcc.h ****    uint32_t result;
1122:Drivers/CMSIS/Include/cmsis_gcc.h **** 
1123:Drivers/CMSIS/Include/cmsis_gcc.h ****    __ASM volatile ("strex %0, %2, %1" : "=&r" (result), "=Q" (*addr) : "r" (value) );
1124:Drivers/CMSIS/Include/cmsis_gcc.h ****    return(result);
1125:Drivers/CMSIS/Include/cmsis_gcc.h **** }
1126:Drivers/CMSIS/Include/cmsis_gcc.h **** 
1127:Drivers/CMSIS/Include/cmsis_gcc.h **** 
1128:Drivers/CMSIS/Include/cmsis_gcc.h **** /**
1129:Drivers/CMSIS/Include/cmsis_gcc.h ****   \brief   Remove the exclusive lock
1130:Drivers/CMSIS/Include/cmsis_gcc.h ****   \details Removes the exclusive lock which is created by LDREX.
1131:Drivers/CMSIS/Include/cmsis_gcc.h ****  */
1132:Drivers/CMSIS/Include/cmsis_gcc.h **** __STATIC_FORCEINLINE void __CLREX(void)
1133:Drivers/CMSIS/Include/cmsis_gcc.h **** {
1134:Drivers/CMSIS/Include/cmsis_gcc.h ****   __ASM volatile ("clrex" ::: "memory");
1135:Drivers/CMSIS/Include/cmsis_gcc.h **** }
1136:Drivers/CMSIS/Include/cmsis_gcc.h **** 
1137:Drivers/CMSIS/Include/cmsis_gcc.h **** #endif /* ((defined (__ARM_ARCH_7M__      ) && (__ARM_ARCH_7M__      == 1)) || \
1138:Drivers/CMSIS/Include/cmsis_gcc.h ****            (defined (__ARM_ARCH_7EM__     ) && (__ARM_ARCH_7EM__     == 1)) || \
1139:Drivers/CMSIS/Include/cmsis_gcc.h ****            (defined (__ARM_ARCH_8M_MAIN__ ) && (__ARM_ARCH_8M_MAIN__ == 1)) || \
1140:Drivers/CMSIS/Include/cmsis_gcc.h ****            (defined (__ARM_ARCH_8M_BASE__ ) && (__ARM_ARCH_8M_BASE__ == 1))    ) */
1141:Drivers/CMSIS/Include/cmsis_gcc.h **** 
1142:Drivers/CMSIS/Include/cmsis_gcc.h **** 
1143:Drivers/CMSIS/Include/cmsis_gcc.h **** #if ((defined (__ARM_ARCH_7M__      ) && (__ARM_ARCH_7M__      == 1)) || \
1144:Drivers/CMSIS/Include/cmsis_gcc.h ****      (defined (__ARM_ARCH_7EM__     ) && (__ARM_ARCH_7EM__     == 1)) || \
1145:Drivers/CMSIS/Include/cmsis_gcc.h ****      (defined (__ARM_ARCH_8M_MAIN__ ) && (__ARM_ARCH_8M_MAIN__ == 1))    )
1146:Drivers/CMSIS/Include/cmsis_gcc.h **** /**
1147:Drivers/CMSIS/Include/cmsis_gcc.h ****   \brief   Signed Saturate
1148:Drivers/CMSIS/Include/cmsis_gcc.h ****   \details Saturates a signed value.
1149:Drivers/CMSIS/Include/cmsis_gcc.h ****   \param [in]  ARG1  Value to be saturated
1150:Drivers/CMSIS/Include/cmsis_gcc.h ****   \param [in]  ARG2  Bit position to saturate to (1..32)
1151:Drivers/CMSIS/Include/cmsis_gcc.h ****   \return             Saturated value
1152:Drivers/CMSIS/Include/cmsis_gcc.h ****  */
1153:Drivers/CMSIS/Include/cmsis_gcc.h **** #define __SSAT(ARG1,ARG2) \
1154:Drivers/CMSIS/Include/cmsis_gcc.h **** __extension__ \
1155:Drivers/CMSIS/Include/cmsis_gcc.h **** ({                          \
1156:Drivers/CMSIS/Include/cmsis_gcc.h ****   int32_t __RES, __ARG1 = (ARG1); \
1157:Drivers/CMSIS/Include/cmsis_gcc.h ****   __ASM ("ssat %0, %1, %2" : "=r" (__RES) :  "I" (ARG2), "r" (__ARG1) ); \
1158:Drivers/CMSIS/Include/cmsis_gcc.h ****   __RES; \
1159:Drivers/CMSIS/Include/cmsis_gcc.h ****  })
1160:Drivers/CMSIS/Include/cmsis_gcc.h **** 
1161:Drivers/CMSIS/Include/cmsis_gcc.h **** 
1162:Drivers/CMSIS/Include/cmsis_gcc.h **** /**
1163:Drivers/CMSIS/Include/cmsis_gcc.h ****   \brief   Unsigned Saturate
1164:Drivers/CMSIS/Include/cmsis_gcc.h ****   \details Saturates an unsigned value.
1165:Drivers/CMSIS/Include/cmsis_gcc.h ****   \param [in]  ARG1  Value to be saturated
1166:Drivers/CMSIS/Include/cmsis_gcc.h ****   \param [in]  ARG2  Bit position to saturate to (0..31)
1167:Drivers/CMSIS/Include/cmsis_gcc.h ****   \return             Saturated value
1168:Drivers/CMSIS/Include/cmsis_gcc.h ****  */
1169:Drivers/CMSIS/Include/cmsis_gcc.h **** #define __USAT(ARG1,ARG2) \
ARM GAS  C:\Users\17832\AppData\Local\Temp\ccyMtfRp.s 			page 27


1170:Drivers/CMSIS/Include/cmsis_gcc.h ****  __extension__ \
1171:Drivers/CMSIS/Include/cmsis_gcc.h **** ({                          \
1172:Drivers/CMSIS/Include/cmsis_gcc.h ****   uint32_t __RES, __ARG1 = (ARG1); \
1173:Drivers/CMSIS/Include/cmsis_gcc.h ****   __ASM ("usat %0, %1, %2" : "=r" (__RES) :  "I" (ARG2), "r" (__ARG1) ); \
1174:Drivers/CMSIS/Include/cmsis_gcc.h ****   __RES; \
1175:Drivers/CMSIS/Include/cmsis_gcc.h ****  })
1176:Drivers/CMSIS/Include/cmsis_gcc.h **** 
1177:Drivers/CMSIS/Include/cmsis_gcc.h **** 
1178:Drivers/CMSIS/Include/cmsis_gcc.h **** /**
1179:Drivers/CMSIS/Include/cmsis_gcc.h ****   \brief   Rotate Right with Extend (32 bit)
1180:Drivers/CMSIS/Include/cmsis_gcc.h ****   \details Moves each bit of a bitstring right by one bit.
1181:Drivers/CMSIS/Include/cmsis_gcc.h ****            The carry input is shifted in at the left end of the bitstring.
1182:Drivers/CMSIS/Include/cmsis_gcc.h ****   \param [in]    value  Value to rotate
1183:Drivers/CMSIS/Include/cmsis_gcc.h ****   \return               Rotated value
1184:Drivers/CMSIS/Include/cmsis_gcc.h ****  */
1185:Drivers/CMSIS/Include/cmsis_gcc.h **** __STATIC_FORCEINLINE uint32_t __RRX(uint32_t value)
1186:Drivers/CMSIS/Include/cmsis_gcc.h **** {
1187:Drivers/CMSIS/Include/cmsis_gcc.h ****   uint32_t result;
1188:Drivers/CMSIS/Include/cmsis_gcc.h **** 
1189:Drivers/CMSIS/Include/cmsis_gcc.h ****   __ASM volatile ("rrx %0, %1" : __CMSIS_GCC_OUT_REG (result) : __CMSIS_GCC_USE_REG (value) );
1190:Drivers/CMSIS/Include/cmsis_gcc.h ****   return(result);
1191:Drivers/CMSIS/Include/cmsis_gcc.h **** }
1192:Drivers/CMSIS/Include/cmsis_gcc.h **** 
1193:Drivers/CMSIS/Include/cmsis_gcc.h **** 
1194:Drivers/CMSIS/Include/cmsis_gcc.h **** /**
1195:Drivers/CMSIS/Include/cmsis_gcc.h ****   \brief   LDRT Unprivileged (8 bit)
1196:Drivers/CMSIS/Include/cmsis_gcc.h ****   \details Executes a Unprivileged LDRT instruction for 8 bit value.
1197:Drivers/CMSIS/Include/cmsis_gcc.h ****   \param [in]    ptr  Pointer to data
1198:Drivers/CMSIS/Include/cmsis_gcc.h ****   \return             value of type uint8_t at (*ptr)
1199:Drivers/CMSIS/Include/cmsis_gcc.h ****  */
1200:Drivers/CMSIS/Include/cmsis_gcc.h **** __STATIC_FORCEINLINE uint8_t __LDRBT(volatile uint8_t *ptr)
1201:Drivers/CMSIS/Include/cmsis_gcc.h **** {
1202:Drivers/CMSIS/Include/cmsis_gcc.h ****     uint32_t result;
1203:Drivers/CMSIS/Include/cmsis_gcc.h **** 
1204:Drivers/CMSIS/Include/cmsis_gcc.h **** #if (__GNUC__ > 4) || (__GNUC__ == 4 && __GNUC_MINOR__ >= 8)
1205:Drivers/CMSIS/Include/cmsis_gcc.h ****    __ASM volatile ("ldrbt %0, %1" : "=r" (result) : "Q" (*ptr) );
1206:Drivers/CMSIS/Include/cmsis_gcc.h **** #else
1207:Drivers/CMSIS/Include/cmsis_gcc.h ****     /* Prior to GCC 4.8, "Q" will be expanded to [rx, #0] which is not
1208:Drivers/CMSIS/Include/cmsis_gcc.h ****        accepted by assembler. So has to use following less efficient pattern.
1209:Drivers/CMSIS/Include/cmsis_gcc.h ****     */
1210:Drivers/CMSIS/Include/cmsis_gcc.h ****    __ASM volatile ("ldrbt %0, [%1]" : "=r" (result) : "r" (ptr) : "memory" );
1211:Drivers/CMSIS/Include/cmsis_gcc.h **** #endif
1212:Drivers/CMSIS/Include/cmsis_gcc.h ****    return ((uint8_t) result);    /* Add explicit type cast here */
1213:Drivers/CMSIS/Include/cmsis_gcc.h **** }
1214:Drivers/CMSIS/Include/cmsis_gcc.h **** 
1215:Drivers/CMSIS/Include/cmsis_gcc.h **** 
1216:Drivers/CMSIS/Include/cmsis_gcc.h **** /**
1217:Drivers/CMSIS/Include/cmsis_gcc.h ****   \brief   LDRT Unprivileged (16 bit)
1218:Drivers/CMSIS/Include/cmsis_gcc.h ****   \details Executes a Unprivileged LDRT instruction for 16 bit values.
1219:Drivers/CMSIS/Include/cmsis_gcc.h ****   \param [in]    ptr  Pointer to data
1220:Drivers/CMSIS/Include/cmsis_gcc.h ****   \return        value of type uint16_t at (*ptr)
1221:Drivers/CMSIS/Include/cmsis_gcc.h ****  */
1222:Drivers/CMSIS/Include/cmsis_gcc.h **** __STATIC_FORCEINLINE uint16_t __LDRHT(volatile uint16_t *ptr)
1223:Drivers/CMSIS/Include/cmsis_gcc.h **** {
1224:Drivers/CMSIS/Include/cmsis_gcc.h ****     uint32_t result;
1225:Drivers/CMSIS/Include/cmsis_gcc.h **** 
1226:Drivers/CMSIS/Include/cmsis_gcc.h **** #if (__GNUC__ > 4) || (__GNUC__ == 4 && __GNUC_MINOR__ >= 8)
ARM GAS  C:\Users\17832\AppData\Local\Temp\ccyMtfRp.s 			page 28


1227:Drivers/CMSIS/Include/cmsis_gcc.h ****    __ASM volatile ("ldrht %0, %1" : "=r" (result) : "Q" (*ptr) );
1228:Drivers/CMSIS/Include/cmsis_gcc.h **** #else
1229:Drivers/CMSIS/Include/cmsis_gcc.h ****     /* Prior to GCC 4.8, "Q" will be expanded to [rx, #0] which is not
1230:Drivers/CMSIS/Include/cmsis_gcc.h ****        accepted by assembler. So has to use following less efficient pattern.
1231:Drivers/CMSIS/Include/cmsis_gcc.h ****     */
1232:Drivers/CMSIS/Include/cmsis_gcc.h ****    __ASM volatile ("ldrht %0, [%1]" : "=r" (result) : "r" (ptr) : "memory" );
1233:Drivers/CMSIS/Include/cmsis_gcc.h **** #endif
1234:Drivers/CMSIS/Include/cmsis_gcc.h ****    return ((uint16_t) result);    /* Add explicit type cast here */
1235:Drivers/CMSIS/Include/cmsis_gcc.h **** }
1236:Drivers/CMSIS/Include/cmsis_gcc.h **** 
1237:Drivers/CMSIS/Include/cmsis_gcc.h **** 
1238:Drivers/CMSIS/Include/cmsis_gcc.h **** /**
1239:Drivers/CMSIS/Include/cmsis_gcc.h ****   \brief   LDRT Unprivileged (32 bit)
1240:Drivers/CMSIS/Include/cmsis_gcc.h ****   \details Executes a Unprivileged LDRT instruction for 32 bit values.
1241:Drivers/CMSIS/Include/cmsis_gcc.h ****   \param [in]    ptr  Pointer to data
1242:Drivers/CMSIS/Include/cmsis_gcc.h ****   \return        value of type uint32_t at (*ptr)
1243:Drivers/CMSIS/Include/cmsis_gcc.h ****  */
1244:Drivers/CMSIS/Include/cmsis_gcc.h **** __STATIC_FORCEINLINE uint32_t __LDRT(volatile uint32_t *ptr)
1245:Drivers/CMSIS/Include/cmsis_gcc.h **** {
1246:Drivers/CMSIS/Include/cmsis_gcc.h ****     uint32_t result;
1247:Drivers/CMSIS/Include/cmsis_gcc.h **** 
1248:Drivers/CMSIS/Include/cmsis_gcc.h ****    __ASM volatile ("ldrt %0, %1" : "=r" (result) : "Q" (*ptr) );
1249:Drivers/CMSIS/Include/cmsis_gcc.h ****    return(result);
1250:Drivers/CMSIS/Include/cmsis_gcc.h **** }
1251:Drivers/CMSIS/Include/cmsis_gcc.h **** 
1252:Drivers/CMSIS/Include/cmsis_gcc.h **** 
1253:Drivers/CMSIS/Include/cmsis_gcc.h **** /**
1254:Drivers/CMSIS/Include/cmsis_gcc.h ****   \brief   STRT Unprivileged (8 bit)
1255:Drivers/CMSIS/Include/cmsis_gcc.h ****   \details Executes a Unprivileged STRT instruction for 8 bit values.
1256:Drivers/CMSIS/Include/cmsis_gcc.h ****   \param [in]  value  Value to store
1257:Drivers/CMSIS/Include/cmsis_gcc.h ****   \param [in]    ptr  Pointer to location
1258:Drivers/CMSIS/Include/cmsis_gcc.h ****  */
1259:Drivers/CMSIS/Include/cmsis_gcc.h **** __STATIC_FORCEINLINE void __STRBT(uint8_t value, volatile uint8_t *ptr)
1260:Drivers/CMSIS/Include/cmsis_gcc.h **** {
1261:Drivers/CMSIS/Include/cmsis_gcc.h ****    __ASM volatile ("strbt %1, %0" : "=Q" (*ptr) : "r" ((uint32_t)value) );
1262:Drivers/CMSIS/Include/cmsis_gcc.h **** }
1263:Drivers/CMSIS/Include/cmsis_gcc.h **** 
1264:Drivers/CMSIS/Include/cmsis_gcc.h **** 
1265:Drivers/CMSIS/Include/cmsis_gcc.h **** /**
1266:Drivers/CMSIS/Include/cmsis_gcc.h ****   \brief   STRT Unprivileged (16 bit)
1267:Drivers/CMSIS/Include/cmsis_gcc.h ****   \details Executes a Unprivileged STRT instruction for 16 bit values.
1268:Drivers/CMSIS/Include/cmsis_gcc.h ****   \param [in]  value  Value to store
1269:Drivers/CMSIS/Include/cmsis_gcc.h ****   \param [in]    ptr  Pointer to location
1270:Drivers/CMSIS/Include/cmsis_gcc.h ****  */
1271:Drivers/CMSIS/Include/cmsis_gcc.h **** __STATIC_FORCEINLINE void __STRHT(uint16_t value, volatile uint16_t *ptr)
1272:Drivers/CMSIS/Include/cmsis_gcc.h **** {
1273:Drivers/CMSIS/Include/cmsis_gcc.h ****    __ASM volatile ("strht %1, %0" : "=Q" (*ptr) : "r" ((uint32_t)value) );
1274:Drivers/CMSIS/Include/cmsis_gcc.h **** }
1275:Drivers/CMSIS/Include/cmsis_gcc.h **** 
1276:Drivers/CMSIS/Include/cmsis_gcc.h **** 
1277:Drivers/CMSIS/Include/cmsis_gcc.h **** /**
1278:Drivers/CMSIS/Include/cmsis_gcc.h ****   \brief   STRT Unprivileged (32 bit)
1279:Drivers/CMSIS/Include/cmsis_gcc.h ****   \details Executes a Unprivileged STRT instruction for 32 bit values.
1280:Drivers/CMSIS/Include/cmsis_gcc.h ****   \param [in]  value  Value to store
1281:Drivers/CMSIS/Include/cmsis_gcc.h ****   \param [in]    ptr  Pointer to location
1282:Drivers/CMSIS/Include/cmsis_gcc.h ****  */
1283:Drivers/CMSIS/Include/cmsis_gcc.h **** __STATIC_FORCEINLINE void __STRT(uint32_t value, volatile uint32_t *ptr)
ARM GAS  C:\Users\17832\AppData\Local\Temp\ccyMtfRp.s 			page 29


1284:Drivers/CMSIS/Include/cmsis_gcc.h **** {
1285:Drivers/CMSIS/Include/cmsis_gcc.h ****    __ASM volatile ("strt %1, %0" : "=Q" (*ptr) : "r" (value) );
1286:Drivers/CMSIS/Include/cmsis_gcc.h **** }
1287:Drivers/CMSIS/Include/cmsis_gcc.h **** 
1288:Drivers/CMSIS/Include/cmsis_gcc.h **** #else  /* ((defined (__ARM_ARCH_7M__      ) && (__ARM_ARCH_7M__      == 1)) || \
1289:Drivers/CMSIS/Include/cmsis_gcc.h ****            (defined (__ARM_ARCH_7EM__     ) && (__ARM_ARCH_7EM__     == 1)) || \
1290:Drivers/CMSIS/Include/cmsis_gcc.h ****            (defined (__ARM_ARCH_8M_MAIN__ ) && (__ARM_ARCH_8M_MAIN__ == 1))    ) */
1291:Drivers/CMSIS/Include/cmsis_gcc.h **** 
1292:Drivers/CMSIS/Include/cmsis_gcc.h **** /**
1293:Drivers/CMSIS/Include/cmsis_gcc.h ****   \brief   Signed Saturate
1294:Drivers/CMSIS/Include/cmsis_gcc.h ****   \details Saturates a signed value.
1295:Drivers/CMSIS/Include/cmsis_gcc.h ****   \param [in]  value  Value to be saturated
1296:Drivers/CMSIS/Include/cmsis_gcc.h ****   \param [in]    sat  Bit position to saturate to (1..32)
1297:Drivers/CMSIS/Include/cmsis_gcc.h ****   \return             Saturated value
1298:Drivers/CMSIS/Include/cmsis_gcc.h ****  */
1299:Drivers/CMSIS/Include/cmsis_gcc.h **** __STATIC_FORCEINLINE int32_t __SSAT(int32_t val, uint32_t sat)
1300:Drivers/CMSIS/Include/cmsis_gcc.h **** {
1301:Drivers/CMSIS/Include/cmsis_gcc.h ****   if ((sat >= 1U) && (sat <= 32U))
1302:Drivers/CMSIS/Include/cmsis_gcc.h ****   {
1303:Drivers/CMSIS/Include/cmsis_gcc.h ****     const int32_t max = (int32_t)((1U << (sat - 1U)) - 1U);
1304:Drivers/CMSIS/Include/cmsis_gcc.h ****     const int32_t min = -1 - max ;
1305:Drivers/CMSIS/Include/cmsis_gcc.h ****     if (val > max)
1306:Drivers/CMSIS/Include/cmsis_gcc.h ****     {
1307:Drivers/CMSIS/Include/cmsis_gcc.h ****       return max;
1308:Drivers/CMSIS/Include/cmsis_gcc.h ****     }
1309:Drivers/CMSIS/Include/cmsis_gcc.h ****     else if (val < min)
1310:Drivers/CMSIS/Include/cmsis_gcc.h ****     {
1311:Drivers/CMSIS/Include/cmsis_gcc.h ****       return min;
1312:Drivers/CMSIS/Include/cmsis_gcc.h ****     }
1313:Drivers/CMSIS/Include/cmsis_gcc.h ****   }
1314:Drivers/CMSIS/Include/cmsis_gcc.h ****   return val;
1315:Drivers/CMSIS/Include/cmsis_gcc.h **** }
1316:Drivers/CMSIS/Include/cmsis_gcc.h **** 
1317:Drivers/CMSIS/Include/cmsis_gcc.h **** /**
1318:Drivers/CMSIS/Include/cmsis_gcc.h ****   \brief   Unsigned Saturate
1319:Drivers/CMSIS/Include/cmsis_gcc.h ****   \details Saturates an unsigned value.
1320:Drivers/CMSIS/Include/cmsis_gcc.h ****   \param [in]  value  Value to be saturated
1321:Drivers/CMSIS/Include/cmsis_gcc.h ****   \param [in]    sat  Bit position to saturate to (0..31)
1322:Drivers/CMSIS/Include/cmsis_gcc.h ****   \return             Saturated value
1323:Drivers/CMSIS/Include/cmsis_gcc.h ****  */
1324:Drivers/CMSIS/Include/cmsis_gcc.h **** __STATIC_FORCEINLINE uint32_t __USAT(int32_t val, uint32_t sat)
1325:Drivers/CMSIS/Include/cmsis_gcc.h **** {
1326:Drivers/CMSIS/Include/cmsis_gcc.h ****   if (sat <= 31U)
1327:Drivers/CMSIS/Include/cmsis_gcc.h ****   {
1328:Drivers/CMSIS/Include/cmsis_gcc.h ****     const uint32_t max = ((1U << sat) - 1U);
1329:Drivers/CMSIS/Include/cmsis_gcc.h ****     if (val > (int32_t)max)
1330:Drivers/CMSIS/Include/cmsis_gcc.h ****     {
1331:Drivers/CMSIS/Include/cmsis_gcc.h ****       return max;
1332:Drivers/CMSIS/Include/cmsis_gcc.h ****     }
1333:Drivers/CMSIS/Include/cmsis_gcc.h ****     else if (val < 0)
1334:Drivers/CMSIS/Include/cmsis_gcc.h ****     {
1335:Drivers/CMSIS/Include/cmsis_gcc.h ****       return 0U;
1336:Drivers/CMSIS/Include/cmsis_gcc.h ****     }
1337:Drivers/CMSIS/Include/cmsis_gcc.h ****   }
1338:Drivers/CMSIS/Include/cmsis_gcc.h ****   return (uint32_t)val;
1339:Drivers/CMSIS/Include/cmsis_gcc.h **** }
1340:Drivers/CMSIS/Include/cmsis_gcc.h **** 
ARM GAS  C:\Users\17832\AppData\Local\Temp\ccyMtfRp.s 			page 30


1341:Drivers/CMSIS/Include/cmsis_gcc.h **** #endif /* ((defined (__ARM_ARCH_7M__      ) && (__ARM_ARCH_7M__      == 1)) || \
1342:Drivers/CMSIS/Include/cmsis_gcc.h ****            (defined (__ARM_ARCH_7EM__     ) && (__ARM_ARCH_7EM__     == 1)) || \
1343:Drivers/CMSIS/Include/cmsis_gcc.h ****            (defined (__ARM_ARCH_8M_MAIN__ ) && (__ARM_ARCH_8M_MAIN__ == 1))    ) */
1344:Drivers/CMSIS/Include/cmsis_gcc.h **** 
1345:Drivers/CMSIS/Include/cmsis_gcc.h **** 
1346:Drivers/CMSIS/Include/cmsis_gcc.h **** #if ((defined (__ARM_ARCH_8M_MAIN__ ) && (__ARM_ARCH_8M_MAIN__ == 1)) || \
1347:Drivers/CMSIS/Include/cmsis_gcc.h ****      (defined (__ARM_ARCH_8M_BASE__ ) && (__ARM_ARCH_8M_BASE__ == 1))    )
1348:Drivers/CMSIS/Include/cmsis_gcc.h **** /**
1349:Drivers/CMSIS/Include/cmsis_gcc.h ****   \brief   Load-Acquire (8 bit)
1350:Drivers/CMSIS/Include/cmsis_gcc.h ****   \details Executes a LDAB instruction for 8 bit value.
1351:Drivers/CMSIS/Include/cmsis_gcc.h ****   \param [in]    ptr  Pointer to data
1352:Drivers/CMSIS/Include/cmsis_gcc.h ****   \return             value of type uint8_t at (*ptr)
1353:Drivers/CMSIS/Include/cmsis_gcc.h ****  */
1354:Drivers/CMSIS/Include/cmsis_gcc.h **** __STATIC_FORCEINLINE uint8_t __LDAB(volatile uint8_t *ptr)
1355:Drivers/CMSIS/Include/cmsis_gcc.h **** {
1356:Drivers/CMSIS/Include/cmsis_gcc.h ****     uint32_t result;
1357:Drivers/CMSIS/Include/cmsis_gcc.h **** 
1358:Drivers/CMSIS/Include/cmsis_gcc.h ****    __ASM volatile ("ldab %0, %1" : "=r" (result) : "Q" (*ptr) );
1359:Drivers/CMSIS/Include/cmsis_gcc.h ****    return ((uint8_t) result);
1360:Drivers/CMSIS/Include/cmsis_gcc.h **** }
1361:Drivers/CMSIS/Include/cmsis_gcc.h **** 
1362:Drivers/CMSIS/Include/cmsis_gcc.h **** 
1363:Drivers/CMSIS/Include/cmsis_gcc.h **** /**
1364:Drivers/CMSIS/Include/cmsis_gcc.h ****   \brief   Load-Acquire (16 bit)
1365:Drivers/CMSIS/Include/cmsis_gcc.h ****   \details Executes a LDAH instruction for 16 bit values.
1366:Drivers/CMSIS/Include/cmsis_gcc.h ****   \param [in]    ptr  Pointer to data
1367:Drivers/CMSIS/Include/cmsis_gcc.h ****   \return        value of type uint16_t at (*ptr)
1368:Drivers/CMSIS/Include/cmsis_gcc.h ****  */
1369:Drivers/CMSIS/Include/cmsis_gcc.h **** __STATIC_FORCEINLINE uint16_t __LDAH(volatile uint16_t *ptr)
1370:Drivers/CMSIS/Include/cmsis_gcc.h **** {
1371:Drivers/CMSIS/Include/cmsis_gcc.h ****     uint32_t result;
1372:Drivers/CMSIS/Include/cmsis_gcc.h **** 
1373:Drivers/CMSIS/Include/cmsis_gcc.h ****    __ASM volatile ("ldah %0, %1" : "=r" (result) : "Q" (*ptr) );
1374:Drivers/CMSIS/Include/cmsis_gcc.h ****    return ((uint16_t) result);
1375:Drivers/CMSIS/Include/cmsis_gcc.h **** }
1376:Drivers/CMSIS/Include/cmsis_gcc.h **** 
1377:Drivers/CMSIS/Include/cmsis_gcc.h **** 
1378:Drivers/CMSIS/Include/cmsis_gcc.h **** /**
1379:Drivers/CMSIS/Include/cmsis_gcc.h ****   \brief   Load-Acquire (32 bit)
1380:Drivers/CMSIS/Include/cmsis_gcc.h ****   \details Executes a LDA instruction for 32 bit values.
1381:Drivers/CMSIS/Include/cmsis_gcc.h ****   \param [in]    ptr  Pointer to data
1382:Drivers/CMSIS/Include/cmsis_gcc.h ****   \return        value of type uint32_t at (*ptr)
1383:Drivers/CMSIS/Include/cmsis_gcc.h ****  */
1384:Drivers/CMSIS/Include/cmsis_gcc.h **** __STATIC_FORCEINLINE uint32_t __LDA(volatile uint32_t *ptr)
1385:Drivers/CMSIS/Include/cmsis_gcc.h **** {
1386:Drivers/CMSIS/Include/cmsis_gcc.h ****     uint32_t result;
1387:Drivers/CMSIS/Include/cmsis_gcc.h **** 
1388:Drivers/CMSIS/Include/cmsis_gcc.h ****    __ASM volatile ("lda %0, %1" : "=r" (result) : "Q" (*ptr) );
1389:Drivers/CMSIS/Include/cmsis_gcc.h ****    return(result);
1390:Drivers/CMSIS/Include/cmsis_gcc.h **** }
1391:Drivers/CMSIS/Include/cmsis_gcc.h **** 
1392:Drivers/CMSIS/Include/cmsis_gcc.h **** 
1393:Drivers/CMSIS/Include/cmsis_gcc.h **** /**
1394:Drivers/CMSIS/Include/cmsis_gcc.h ****   \brief   Store-Release (8 bit)
1395:Drivers/CMSIS/Include/cmsis_gcc.h ****   \details Executes a STLB instruction for 8 bit values.
1396:Drivers/CMSIS/Include/cmsis_gcc.h ****   \param [in]  value  Value to store
1397:Drivers/CMSIS/Include/cmsis_gcc.h ****   \param [in]    ptr  Pointer to location
ARM GAS  C:\Users\17832\AppData\Local\Temp\ccyMtfRp.s 			page 31


1398:Drivers/CMSIS/Include/cmsis_gcc.h ****  */
1399:Drivers/CMSIS/Include/cmsis_gcc.h **** __STATIC_FORCEINLINE void __STLB(uint8_t value, volatile uint8_t *ptr)
1400:Drivers/CMSIS/Include/cmsis_gcc.h **** {
1401:Drivers/CMSIS/Include/cmsis_gcc.h ****    __ASM volatile ("stlb %1, %0" : "=Q" (*ptr) : "r" ((uint32_t)value) );
1402:Drivers/CMSIS/Include/cmsis_gcc.h **** }
1403:Drivers/CMSIS/Include/cmsis_gcc.h **** 
1404:Drivers/CMSIS/Include/cmsis_gcc.h **** 
1405:Drivers/CMSIS/Include/cmsis_gcc.h **** /**
1406:Drivers/CMSIS/Include/cmsis_gcc.h ****   \brief   Store-Release (16 bit)
1407:Drivers/CMSIS/Include/cmsis_gcc.h ****   \details Executes a STLH instruction for 16 bit values.
1408:Drivers/CMSIS/Include/cmsis_gcc.h ****   \param [in]  value  Value to store
1409:Drivers/CMSIS/Include/cmsis_gcc.h ****   \param [in]    ptr  Pointer to location
1410:Drivers/CMSIS/Include/cmsis_gcc.h ****  */
1411:Drivers/CMSIS/Include/cmsis_gcc.h **** __STATIC_FORCEINLINE void __STLH(uint16_t value, volatile uint16_t *ptr)
1412:Drivers/CMSIS/Include/cmsis_gcc.h **** {
1413:Drivers/CMSIS/Include/cmsis_gcc.h ****    __ASM volatile ("stlh %1, %0" : "=Q" (*ptr) : "r" ((uint32_t)value) );
1414:Drivers/CMSIS/Include/cmsis_gcc.h **** }
1415:Drivers/CMSIS/Include/cmsis_gcc.h **** 
1416:Drivers/CMSIS/Include/cmsis_gcc.h **** 
1417:Drivers/CMSIS/Include/cmsis_gcc.h **** /**
1418:Drivers/CMSIS/Include/cmsis_gcc.h ****   \brief   Store-Release (32 bit)
1419:Drivers/CMSIS/Include/cmsis_gcc.h ****   \details Executes a STL instruction for 32 bit values.
1420:Drivers/CMSIS/Include/cmsis_gcc.h ****   \param [in]  value  Value to store
1421:Drivers/CMSIS/Include/cmsis_gcc.h ****   \param [in]    ptr  Pointer to location
1422:Drivers/CMSIS/Include/cmsis_gcc.h ****  */
1423:Drivers/CMSIS/Include/cmsis_gcc.h **** __STATIC_FORCEINLINE void __STL(uint32_t value, volatile uint32_t *ptr)
1424:Drivers/CMSIS/Include/cmsis_gcc.h **** {
1425:Drivers/CMSIS/Include/cmsis_gcc.h ****    __ASM volatile ("stl %1, %0" : "=Q" (*ptr) : "r" ((uint32_t)value) );
1426:Drivers/CMSIS/Include/cmsis_gcc.h **** }
1427:Drivers/CMSIS/Include/cmsis_gcc.h **** 
1428:Drivers/CMSIS/Include/cmsis_gcc.h **** 
1429:Drivers/CMSIS/Include/cmsis_gcc.h **** /**
1430:Drivers/CMSIS/Include/cmsis_gcc.h ****   \brief   Load-Acquire Exclusive (8 bit)
1431:Drivers/CMSIS/Include/cmsis_gcc.h ****   \details Executes a LDAB exclusive instruction for 8 bit value.
1432:Drivers/CMSIS/Include/cmsis_gcc.h ****   \param [in]    ptr  Pointer to data
1433:Drivers/CMSIS/Include/cmsis_gcc.h ****   \return             value of type uint8_t at (*ptr)
1434:Drivers/CMSIS/Include/cmsis_gcc.h ****  */
1435:Drivers/CMSIS/Include/cmsis_gcc.h **** __STATIC_FORCEINLINE uint8_t __LDAEXB(volatile uint8_t *ptr)
1436:Drivers/CMSIS/Include/cmsis_gcc.h **** {
1437:Drivers/CMSIS/Include/cmsis_gcc.h ****     uint32_t result;
1438:Drivers/CMSIS/Include/cmsis_gcc.h **** 
1439:Drivers/CMSIS/Include/cmsis_gcc.h ****    __ASM volatile ("ldaexb %0, %1" : "=r" (result) : "Q" (*ptr) );
1440:Drivers/CMSIS/Include/cmsis_gcc.h ****    return ((uint8_t) result);
1441:Drivers/CMSIS/Include/cmsis_gcc.h **** }
1442:Drivers/CMSIS/Include/cmsis_gcc.h **** 
1443:Drivers/CMSIS/Include/cmsis_gcc.h **** 
1444:Drivers/CMSIS/Include/cmsis_gcc.h **** /**
1445:Drivers/CMSIS/Include/cmsis_gcc.h ****   \brief   Load-Acquire Exclusive (16 bit)
1446:Drivers/CMSIS/Include/cmsis_gcc.h ****   \details Executes a LDAH exclusive instruction for 16 bit values.
1447:Drivers/CMSIS/Include/cmsis_gcc.h ****   \param [in]    ptr  Pointer to data
1448:Drivers/CMSIS/Include/cmsis_gcc.h ****   \return        value of type uint16_t at (*ptr)
1449:Drivers/CMSIS/Include/cmsis_gcc.h ****  */
1450:Drivers/CMSIS/Include/cmsis_gcc.h **** __STATIC_FORCEINLINE uint16_t __LDAEXH(volatile uint16_t *ptr)
1451:Drivers/CMSIS/Include/cmsis_gcc.h **** {
1452:Drivers/CMSIS/Include/cmsis_gcc.h ****     uint32_t result;
1453:Drivers/CMSIS/Include/cmsis_gcc.h **** 
1454:Drivers/CMSIS/Include/cmsis_gcc.h ****    __ASM volatile ("ldaexh %0, %1" : "=r" (result) : "Q" (*ptr) );
ARM GAS  C:\Users\17832\AppData\Local\Temp\ccyMtfRp.s 			page 32


1455:Drivers/CMSIS/Include/cmsis_gcc.h ****    return ((uint16_t) result);
1456:Drivers/CMSIS/Include/cmsis_gcc.h **** }
1457:Drivers/CMSIS/Include/cmsis_gcc.h **** 
1458:Drivers/CMSIS/Include/cmsis_gcc.h **** 
1459:Drivers/CMSIS/Include/cmsis_gcc.h **** /**
1460:Drivers/CMSIS/Include/cmsis_gcc.h ****   \brief   Load-Acquire Exclusive (32 bit)
1461:Drivers/CMSIS/Include/cmsis_gcc.h ****   \details Executes a LDA exclusive instruction for 32 bit values.
1462:Drivers/CMSIS/Include/cmsis_gcc.h ****   \param [in]    ptr  Pointer to data
1463:Drivers/CMSIS/Include/cmsis_gcc.h ****   \return        value of type uint32_t at (*ptr)
1464:Drivers/CMSIS/Include/cmsis_gcc.h ****  */
1465:Drivers/CMSIS/Include/cmsis_gcc.h **** __STATIC_FORCEINLINE uint32_t __LDAEX(volatile uint32_t *ptr)
1466:Drivers/CMSIS/Include/cmsis_gcc.h **** {
1467:Drivers/CMSIS/Include/cmsis_gcc.h ****     uint32_t result;
1468:Drivers/CMSIS/Include/cmsis_gcc.h **** 
1469:Drivers/CMSIS/Include/cmsis_gcc.h ****    __ASM volatile ("ldaex %0, %1" : "=r" (result) : "Q" (*ptr) );
1470:Drivers/CMSIS/Include/cmsis_gcc.h ****    return(result);
1471:Drivers/CMSIS/Include/cmsis_gcc.h **** }
1472:Drivers/CMSIS/Include/cmsis_gcc.h **** 
1473:Drivers/CMSIS/Include/cmsis_gcc.h **** 
1474:Drivers/CMSIS/Include/cmsis_gcc.h **** /**
1475:Drivers/CMSIS/Include/cmsis_gcc.h ****   \brief   Store-Release Exclusive (8 bit)
1476:Drivers/CMSIS/Include/cmsis_gcc.h ****   \details Executes a STLB exclusive instruction for 8 bit values.
1477:Drivers/CMSIS/Include/cmsis_gcc.h ****   \param [in]  value  Value to store
1478:Drivers/CMSIS/Include/cmsis_gcc.h ****   \param [in]    ptr  Pointer to location
1479:Drivers/CMSIS/Include/cmsis_gcc.h ****   \return          0  Function succeeded
1480:Drivers/CMSIS/Include/cmsis_gcc.h ****   \return          1  Function failed
1481:Drivers/CMSIS/Include/cmsis_gcc.h ****  */
1482:Drivers/CMSIS/Include/cmsis_gcc.h **** __STATIC_FORCEINLINE uint32_t __STLEXB(uint8_t value, volatile uint8_t *ptr)
1483:Drivers/CMSIS/Include/cmsis_gcc.h **** {
1484:Drivers/CMSIS/Include/cmsis_gcc.h ****    uint32_t result;
1485:Drivers/CMSIS/Include/cmsis_gcc.h **** 
1486:Drivers/CMSIS/Include/cmsis_gcc.h ****    __ASM volatile ("stlexb %0, %2, %1" : "=&r" (result), "=Q" (*ptr) : "r" ((uint32_t)value) );
1487:Drivers/CMSIS/Include/cmsis_gcc.h ****    return(result);
1488:Drivers/CMSIS/Include/cmsis_gcc.h **** }
1489:Drivers/CMSIS/Include/cmsis_gcc.h **** 
1490:Drivers/CMSIS/Include/cmsis_gcc.h **** 
1491:Drivers/CMSIS/Include/cmsis_gcc.h **** /**
1492:Drivers/CMSIS/Include/cmsis_gcc.h ****   \brief   Store-Release Exclusive (16 bit)
1493:Drivers/CMSIS/Include/cmsis_gcc.h ****   \details Executes a STLH exclusive instruction for 16 bit values.
1494:Drivers/CMSIS/Include/cmsis_gcc.h ****   \param [in]  value  Value to store
1495:Drivers/CMSIS/Include/cmsis_gcc.h ****   \param [in]    ptr  Pointer to location
1496:Drivers/CMSIS/Include/cmsis_gcc.h ****   \return          0  Function succeeded
1497:Drivers/CMSIS/Include/cmsis_gcc.h ****   \return          1  Function failed
1498:Drivers/CMSIS/Include/cmsis_gcc.h ****  */
1499:Drivers/CMSIS/Include/cmsis_gcc.h **** __STATIC_FORCEINLINE uint32_t __STLEXH(uint16_t value, volatile uint16_t *ptr)
1500:Drivers/CMSIS/Include/cmsis_gcc.h **** {
1501:Drivers/CMSIS/Include/cmsis_gcc.h ****    uint32_t result;
1502:Drivers/CMSIS/Include/cmsis_gcc.h **** 
1503:Drivers/CMSIS/Include/cmsis_gcc.h ****    __ASM volatile ("stlexh %0, %2, %1" : "=&r" (result), "=Q" (*ptr) : "r" ((uint32_t)value) );
1504:Drivers/CMSIS/Include/cmsis_gcc.h ****    return(result);
1505:Drivers/CMSIS/Include/cmsis_gcc.h **** }
1506:Drivers/CMSIS/Include/cmsis_gcc.h **** 
1507:Drivers/CMSIS/Include/cmsis_gcc.h **** 
1508:Drivers/CMSIS/Include/cmsis_gcc.h **** /**
1509:Drivers/CMSIS/Include/cmsis_gcc.h ****   \brief   Store-Release Exclusive (32 bit)
1510:Drivers/CMSIS/Include/cmsis_gcc.h ****   \details Executes a STL exclusive instruction for 32 bit values.
1511:Drivers/CMSIS/Include/cmsis_gcc.h ****   \param [in]  value  Value to store
ARM GAS  C:\Users\17832\AppData\Local\Temp\ccyMtfRp.s 			page 33


1512:Drivers/CMSIS/Include/cmsis_gcc.h ****   \param [in]    ptr  Pointer to location
1513:Drivers/CMSIS/Include/cmsis_gcc.h ****   \return          0  Function succeeded
1514:Drivers/CMSIS/Include/cmsis_gcc.h ****   \return          1  Function failed
1515:Drivers/CMSIS/Include/cmsis_gcc.h ****  */
1516:Drivers/CMSIS/Include/cmsis_gcc.h **** __STATIC_FORCEINLINE uint32_t __STLEX(uint32_t value, volatile uint32_t *ptr)
1517:Drivers/CMSIS/Include/cmsis_gcc.h **** {
1518:Drivers/CMSIS/Include/cmsis_gcc.h ****    uint32_t result;
1519:Drivers/CMSIS/Include/cmsis_gcc.h **** 
1520:Drivers/CMSIS/Include/cmsis_gcc.h ****    __ASM volatile ("stlex %0, %2, %1" : "=&r" (result), "=Q" (*ptr) : "r" ((uint32_t)value) );
1521:Drivers/CMSIS/Include/cmsis_gcc.h ****    return(result);
1522:Drivers/CMSIS/Include/cmsis_gcc.h **** }
1523:Drivers/CMSIS/Include/cmsis_gcc.h **** 
1524:Drivers/CMSIS/Include/cmsis_gcc.h **** #endif /* ((defined (__ARM_ARCH_8M_MAIN__ ) && (__ARM_ARCH_8M_MAIN__ == 1)) || \
1525:Drivers/CMSIS/Include/cmsis_gcc.h ****            (defined (__ARM_ARCH_8M_BASE__ ) && (__ARM_ARCH_8M_BASE__ == 1))    ) */
1526:Drivers/CMSIS/Include/cmsis_gcc.h **** 
1527:Drivers/CMSIS/Include/cmsis_gcc.h **** /*@}*/ /* end of group CMSIS_Core_InstructionInterface */
1528:Drivers/CMSIS/Include/cmsis_gcc.h **** 
1529:Drivers/CMSIS/Include/cmsis_gcc.h **** 
1530:Drivers/CMSIS/Include/cmsis_gcc.h **** /* ###################  Compiler specific Intrinsics  ########################### */
1531:Drivers/CMSIS/Include/cmsis_gcc.h **** /** \defgroup CMSIS_SIMD_intrinsics CMSIS SIMD Intrinsics
1532:Drivers/CMSIS/Include/cmsis_gcc.h ****   Access to dedicated SIMD instructions
1533:Drivers/CMSIS/Include/cmsis_gcc.h ****   @{
1534:Drivers/CMSIS/Include/cmsis_gcc.h **** */
1535:Drivers/CMSIS/Include/cmsis_gcc.h **** 
1536:Drivers/CMSIS/Include/cmsis_gcc.h **** #if (defined (__ARM_FEATURE_DSP) && (__ARM_FEATURE_DSP == 1))
1537:Drivers/CMSIS/Include/cmsis_gcc.h **** 
1538:Drivers/CMSIS/Include/cmsis_gcc.h **** __STATIC_FORCEINLINE uint32_t __SADD8(uint32_t op1, uint32_t op2)
1539:Drivers/CMSIS/Include/cmsis_gcc.h **** {
1540:Drivers/CMSIS/Include/cmsis_gcc.h ****   uint32_t result;
1541:Drivers/CMSIS/Include/cmsis_gcc.h **** 
1542:Drivers/CMSIS/Include/cmsis_gcc.h ****   __ASM volatile ("sadd8 %0, %1, %2" : "=r" (result) : "r" (op1), "r" (op2) );
1543:Drivers/CMSIS/Include/cmsis_gcc.h ****   return(result);
1544:Drivers/CMSIS/Include/cmsis_gcc.h **** }
1545:Drivers/CMSIS/Include/cmsis_gcc.h **** 
1546:Drivers/CMSIS/Include/cmsis_gcc.h **** __STATIC_FORCEINLINE uint32_t __QADD8(uint32_t op1, uint32_t op2)
1547:Drivers/CMSIS/Include/cmsis_gcc.h **** {
1548:Drivers/CMSIS/Include/cmsis_gcc.h ****   uint32_t result;
1549:Drivers/CMSIS/Include/cmsis_gcc.h **** 
1550:Drivers/CMSIS/Include/cmsis_gcc.h ****   __ASM volatile ("qadd8 %0, %1, %2" : "=r" (result) : "r" (op1), "r" (op2) );
1551:Drivers/CMSIS/Include/cmsis_gcc.h ****   return(result);
1552:Drivers/CMSIS/Include/cmsis_gcc.h **** }
1553:Drivers/CMSIS/Include/cmsis_gcc.h **** 
1554:Drivers/CMSIS/Include/cmsis_gcc.h **** __STATIC_FORCEINLINE uint32_t __SHADD8(uint32_t op1, uint32_t op2)
1555:Drivers/CMSIS/Include/cmsis_gcc.h **** {
1556:Drivers/CMSIS/Include/cmsis_gcc.h ****   uint32_t result;
1557:Drivers/CMSIS/Include/cmsis_gcc.h **** 
1558:Drivers/CMSIS/Include/cmsis_gcc.h ****   __ASM volatile ("shadd8 %0, %1, %2" : "=r" (result) : "r" (op1), "r" (op2) );
1559:Drivers/CMSIS/Include/cmsis_gcc.h ****   return(result);
1560:Drivers/CMSIS/Include/cmsis_gcc.h **** }
1561:Drivers/CMSIS/Include/cmsis_gcc.h **** 
1562:Drivers/CMSIS/Include/cmsis_gcc.h **** __STATIC_FORCEINLINE uint32_t __UADD8(uint32_t op1, uint32_t op2)
1563:Drivers/CMSIS/Include/cmsis_gcc.h **** {
1564:Drivers/CMSIS/Include/cmsis_gcc.h ****   uint32_t result;
1565:Drivers/CMSIS/Include/cmsis_gcc.h **** 
1566:Drivers/CMSIS/Include/cmsis_gcc.h ****   __ASM volatile ("uadd8 %0, %1, %2" : "=r" (result) : "r" (op1), "r" (op2) );
1567:Drivers/CMSIS/Include/cmsis_gcc.h ****   return(result);
1568:Drivers/CMSIS/Include/cmsis_gcc.h **** }
ARM GAS  C:\Users\17832\AppData\Local\Temp\ccyMtfRp.s 			page 34


1569:Drivers/CMSIS/Include/cmsis_gcc.h **** 
1570:Drivers/CMSIS/Include/cmsis_gcc.h **** __STATIC_FORCEINLINE uint32_t __UQADD8(uint32_t op1, uint32_t op2)
1571:Drivers/CMSIS/Include/cmsis_gcc.h **** {
1572:Drivers/CMSIS/Include/cmsis_gcc.h ****   uint32_t result;
1573:Drivers/CMSIS/Include/cmsis_gcc.h **** 
1574:Drivers/CMSIS/Include/cmsis_gcc.h ****   __ASM volatile ("uqadd8 %0, %1, %2" : "=r" (result) : "r" (op1), "r" (op2) );
1575:Drivers/CMSIS/Include/cmsis_gcc.h ****   return(result);
1576:Drivers/CMSIS/Include/cmsis_gcc.h **** }
1577:Drivers/CMSIS/Include/cmsis_gcc.h **** 
1578:Drivers/CMSIS/Include/cmsis_gcc.h **** __STATIC_FORCEINLINE uint32_t __UHADD8(uint32_t op1, uint32_t op2)
1579:Drivers/CMSIS/Include/cmsis_gcc.h **** {
1580:Drivers/CMSIS/Include/cmsis_gcc.h ****   uint32_t result;
1581:Drivers/CMSIS/Include/cmsis_gcc.h **** 
1582:Drivers/CMSIS/Include/cmsis_gcc.h ****   __ASM volatile ("uhadd8 %0, %1, %2" : "=r" (result) : "r" (op1), "r" (op2) );
1583:Drivers/CMSIS/Include/cmsis_gcc.h ****   return(result);
1584:Drivers/CMSIS/Include/cmsis_gcc.h **** }
1585:Drivers/CMSIS/Include/cmsis_gcc.h **** 
1586:Drivers/CMSIS/Include/cmsis_gcc.h **** 
1587:Drivers/CMSIS/Include/cmsis_gcc.h **** __STATIC_FORCEINLINE uint32_t __SSUB8(uint32_t op1, uint32_t op2)
1588:Drivers/CMSIS/Include/cmsis_gcc.h **** {
1589:Drivers/CMSIS/Include/cmsis_gcc.h ****   uint32_t result;
1590:Drivers/CMSIS/Include/cmsis_gcc.h **** 
1591:Drivers/CMSIS/Include/cmsis_gcc.h ****   __ASM volatile ("ssub8 %0, %1, %2" : "=r" (result) : "r" (op1), "r" (op2) );
1592:Drivers/CMSIS/Include/cmsis_gcc.h ****   return(result);
1593:Drivers/CMSIS/Include/cmsis_gcc.h **** }
1594:Drivers/CMSIS/Include/cmsis_gcc.h **** 
1595:Drivers/CMSIS/Include/cmsis_gcc.h **** __STATIC_FORCEINLINE uint32_t __QSUB8(uint32_t op1, uint32_t op2)
1596:Drivers/CMSIS/Include/cmsis_gcc.h **** {
1597:Drivers/CMSIS/Include/cmsis_gcc.h ****   uint32_t result;
1598:Drivers/CMSIS/Include/cmsis_gcc.h **** 
1599:Drivers/CMSIS/Include/cmsis_gcc.h ****   __ASM volatile ("qsub8 %0, %1, %2" : "=r" (result) : "r" (op1), "r" (op2) );
1600:Drivers/CMSIS/Include/cmsis_gcc.h ****   return(result);
1601:Drivers/CMSIS/Include/cmsis_gcc.h **** }
1602:Drivers/CMSIS/Include/cmsis_gcc.h **** 
1603:Drivers/CMSIS/Include/cmsis_gcc.h **** __STATIC_FORCEINLINE uint32_t __SHSUB8(uint32_t op1, uint32_t op2)
1604:Drivers/CMSIS/Include/cmsis_gcc.h **** {
1605:Drivers/CMSIS/Include/cmsis_gcc.h ****   uint32_t result;
1606:Drivers/CMSIS/Include/cmsis_gcc.h **** 
1607:Drivers/CMSIS/Include/cmsis_gcc.h ****   __ASM volatile ("shsub8 %0, %1, %2" : "=r" (result) : "r" (op1), "r" (op2) );
1608:Drivers/CMSIS/Include/cmsis_gcc.h ****   return(result);
1609:Drivers/CMSIS/Include/cmsis_gcc.h **** }
1610:Drivers/CMSIS/Include/cmsis_gcc.h **** 
1611:Drivers/CMSIS/Include/cmsis_gcc.h **** __STATIC_FORCEINLINE uint32_t __USUB8(uint32_t op1, uint32_t op2)
1612:Drivers/CMSIS/Include/cmsis_gcc.h **** {
1613:Drivers/CMSIS/Include/cmsis_gcc.h ****   uint32_t result;
1614:Drivers/CMSIS/Include/cmsis_gcc.h **** 
1615:Drivers/CMSIS/Include/cmsis_gcc.h ****   __ASM volatile ("usub8 %0, %1, %2" : "=r" (result) : "r" (op1), "r" (op2) );
1616:Drivers/CMSIS/Include/cmsis_gcc.h ****   return(result);
1617:Drivers/CMSIS/Include/cmsis_gcc.h **** }
1618:Drivers/CMSIS/Include/cmsis_gcc.h **** 
1619:Drivers/CMSIS/Include/cmsis_gcc.h **** __STATIC_FORCEINLINE uint32_t __UQSUB8(uint32_t op1, uint32_t op2)
1620:Drivers/CMSIS/Include/cmsis_gcc.h **** {
1621:Drivers/CMSIS/Include/cmsis_gcc.h ****   uint32_t result;
1622:Drivers/CMSIS/Include/cmsis_gcc.h **** 
1623:Drivers/CMSIS/Include/cmsis_gcc.h ****   __ASM volatile ("uqsub8 %0, %1, %2" : "=r" (result) : "r" (op1), "r" (op2) );
1624:Drivers/CMSIS/Include/cmsis_gcc.h ****   return(result);
1625:Drivers/CMSIS/Include/cmsis_gcc.h **** }
ARM GAS  C:\Users\17832\AppData\Local\Temp\ccyMtfRp.s 			page 35


1626:Drivers/CMSIS/Include/cmsis_gcc.h **** 
1627:Drivers/CMSIS/Include/cmsis_gcc.h **** __STATIC_FORCEINLINE uint32_t __UHSUB8(uint32_t op1, uint32_t op2)
1628:Drivers/CMSIS/Include/cmsis_gcc.h **** {
1629:Drivers/CMSIS/Include/cmsis_gcc.h ****   uint32_t result;
1630:Drivers/CMSIS/Include/cmsis_gcc.h **** 
1631:Drivers/CMSIS/Include/cmsis_gcc.h ****   __ASM volatile ("uhsub8 %0, %1, %2" : "=r" (result) : "r" (op1), "r" (op2) );
1632:Drivers/CMSIS/Include/cmsis_gcc.h ****   return(result);
1633:Drivers/CMSIS/Include/cmsis_gcc.h **** }
1634:Drivers/CMSIS/Include/cmsis_gcc.h **** 
1635:Drivers/CMSIS/Include/cmsis_gcc.h **** 
1636:Drivers/CMSIS/Include/cmsis_gcc.h **** __STATIC_FORCEINLINE uint32_t __SADD16(uint32_t op1, uint32_t op2)
1637:Drivers/CMSIS/Include/cmsis_gcc.h **** {
1638:Drivers/CMSIS/Include/cmsis_gcc.h ****   uint32_t result;
1639:Drivers/CMSIS/Include/cmsis_gcc.h **** 
1640:Drivers/CMSIS/Include/cmsis_gcc.h ****   __ASM volatile ("sadd16 %0, %1, %2" : "=r" (result) : "r" (op1), "r" (op2) );
1641:Drivers/CMSIS/Include/cmsis_gcc.h ****   return(result);
1642:Drivers/CMSIS/Include/cmsis_gcc.h **** }
1643:Drivers/CMSIS/Include/cmsis_gcc.h **** 
1644:Drivers/CMSIS/Include/cmsis_gcc.h **** __STATIC_FORCEINLINE uint32_t __QADD16(uint32_t op1, uint32_t op2)
1645:Drivers/CMSIS/Include/cmsis_gcc.h **** {
1646:Drivers/CMSIS/Include/cmsis_gcc.h ****   uint32_t result;
1647:Drivers/CMSIS/Include/cmsis_gcc.h **** 
1648:Drivers/CMSIS/Include/cmsis_gcc.h ****   __ASM volatile ("qadd16 %0, %1, %2" : "=r" (result) : "r" (op1), "r" (op2) );
1649:Drivers/CMSIS/Include/cmsis_gcc.h ****   return(result);
1650:Drivers/CMSIS/Include/cmsis_gcc.h **** }
1651:Drivers/CMSIS/Include/cmsis_gcc.h **** 
1652:Drivers/CMSIS/Include/cmsis_gcc.h **** __STATIC_FORCEINLINE uint32_t __SHADD16(uint32_t op1, uint32_t op2)
 109              		.loc 2 1652 31 discriminator 1 view .LVU32
 110              	.LBB203:
1653:Drivers/CMSIS/Include/cmsis_gcc.h **** {
1654:Drivers/CMSIS/Include/cmsis_gcc.h ****   uint32_t result;
 111              		.loc 2 1654 3 discriminator 1 view .LVU33
1655:Drivers/CMSIS/Include/cmsis_gcc.h **** 
1656:Drivers/CMSIS/Include/cmsis_gcc.h ****   __ASM volatile ("shadd16 %0, %1, %2" : "=r" (result) : "r" (op1), "r" (op2) );
 112              		.loc 2 1656 3 discriminator 1 view .LVU34
 113 0028 0022     		movs	r2, #0
 114              		.syntax unified
 115              	@ 1656 "Drivers/CMSIS/Include/cmsis_gcc.h" 1
 116 002a 93FA22FE 		shadd16 lr, r3, r2
 117              	@ 0 "" 2
 118              	.LVL11:
1657:Drivers/CMSIS/Include/cmsis_gcc.h ****   return(result);
 119              		.loc 2 1657 3 discriminator 1 view .LVU35
 120              		.loc 2 1657 3 is_stmt 0 discriminator 1 view .LVU36
 121              		.thumb
 122              		.syntax unified
 123              	.LBE203:
 124              	.LBE202:
 205:Drivers/CMSIS/DSP/Source/TransformFunctions/arm_cfft_radix4_q15.c ****     T = __SHADD16(T, 0); // it turns out doing this twice is 2 cycles, the alternative takes 3 cycl
 125              		.loc 1 205 5 is_stmt 1 discriminator 1 view .LVU37
 126              	.LBB204:
 127              	.LBI204:
1652:Drivers/CMSIS/Include/cmsis_gcc.h **** {
 128              		.loc 2 1652 31 discriminator 1 view .LVU38
 129              	.LBB205:
1654:Drivers/CMSIS/Include/cmsis_gcc.h **** 
 130              		.loc 2 1654 3 discriminator 1 view .LVU39
ARM GAS  C:\Users\17832\AppData\Local\Temp\ccyMtfRp.s 			page 36


1656:Drivers/CMSIS/Include/cmsis_gcc.h ****   return(result);
 131              		.loc 2 1656 3 discriminator 1 view .LVU40
 132              		.syntax unified
 133              	@ 1656 "Drivers/CMSIS/Include/cmsis_gcc.h" 1
 134 002e 9EFA22FE 		shadd16 lr, lr, r2
 135              	@ 0 "" 2
 136              	.LVL12:
 137              		.loc 2 1657 3 discriminator 1 view .LVU41
 138              		.loc 2 1657 3 is_stmt 0 discriminator 1 view .LVU42
 139              		.thumb
 140              		.syntax unified
 141              	.LBE205:
 142              	.LBE204:
 206:Drivers/CMSIS/DSP/Source/TransformFunctions/arm_cfft_radix4_q15.c ****     //in = ((int16_t) (T & 0xFFFF)) >> 2;       // alternative code that takes 3 cycles
 207:Drivers/CMSIS/DSP/Source/TransformFunctions/arm_cfft_radix4_q15.c ****     //T = ((T >> 2) & 0xFFFF0000) | (in & 0xFFFF);
 208:Drivers/CMSIS/DSP/Source/TransformFunctions/arm_cfft_radix4_q15.c **** 
 209:Drivers/CMSIS/DSP/Source/TransformFunctions/arm_cfft_radix4_q15.c ****     /* Read yc (real), xc(imag) input */
 210:Drivers/CMSIS/DSP/Source/TransformFunctions/arm_cfft_radix4_q15.c ****     S = _SIMD32_OFFSET(pSi2);
 143              		.loc 1 210 5 is_stmt 1 discriminator 1 view .LVU43
 144              		.loc 1 210 7 is_stmt 0 discriminator 1 view .LVU44
 145 0032 2B68     		ldr	r3, [r5]
 146              	.LVL13:
 211:Drivers/CMSIS/DSP/Source/TransformFunctions/arm_cfft_radix4_q15.c ****     S = __SHADD16(S, 0);
 147              		.loc 1 211 5 is_stmt 1 discriminator 1 view .LVU45
 148              	.LBB206:
 149              	.LBI206:
1652:Drivers/CMSIS/Include/cmsis_gcc.h **** {
 150              		.loc 2 1652 31 discriminator 1 view .LVU46
 151              	.LBB207:
1654:Drivers/CMSIS/Include/cmsis_gcc.h **** 
 152              		.loc 2 1654 3 discriminator 1 view .LVU47
1656:Drivers/CMSIS/Include/cmsis_gcc.h ****   return(result);
 153              		.loc 2 1656 3 discriminator 1 view .LVU48
 154              		.syntax unified
 155              	@ 1656 "Drivers/CMSIS/Include/cmsis_gcc.h" 1
 156 0034 93FA22F3 		shadd16 r3, r3, r2
 157              	@ 0 "" 2
 158              	.LVL14:
 159              		.loc 2 1657 3 discriminator 1 view .LVU49
 160              		.loc 2 1657 3 is_stmt 0 discriminator 1 view .LVU50
 161              		.thumb
 162              		.syntax unified
 163              	.LBE207:
 164              	.LBE206:
 212:Drivers/CMSIS/DSP/Source/TransformFunctions/arm_cfft_radix4_q15.c ****     S = __SHADD16(S, 0);
 165              		.loc 1 212 5 is_stmt 1 discriminator 1 view .LVU51
 166              	.LBB208:
 167              	.LBI208:
1652:Drivers/CMSIS/Include/cmsis_gcc.h **** {
 168              		.loc 2 1652 31 discriminator 1 view .LVU52
 169              	.LBB209:
1654:Drivers/CMSIS/Include/cmsis_gcc.h **** 
 170              		.loc 2 1654 3 discriminator 1 view .LVU53
1656:Drivers/CMSIS/Include/cmsis_gcc.h ****   return(result);
 171              		.loc 2 1656 3 discriminator 1 view .LVU54
 172              		.syntax unified
 173              	@ 1656 "Drivers/CMSIS/Include/cmsis_gcc.h" 1
ARM GAS  C:\Users\17832\AppData\Local\Temp\ccyMtfRp.s 			page 37


 174 0038 93FA22F3 		shadd16 r3, r3, r2
 175              	@ 0 "" 2
 176              	.LVL15:
 177              		.loc 2 1657 3 discriminator 1 view .LVU55
 178              		.loc 2 1657 3 is_stmt 0 discriminator 1 view .LVU56
 179              		.thumb
 180              		.syntax unified
 181              	.LBE209:
 182              	.LBE208:
 213:Drivers/CMSIS/DSP/Source/TransformFunctions/arm_cfft_radix4_q15.c **** 
 214:Drivers/CMSIS/DSP/Source/TransformFunctions/arm_cfft_radix4_q15.c ****     /* R = packed((ya + yc), (xa + xc) ) */
 215:Drivers/CMSIS/DSP/Source/TransformFunctions/arm_cfft_radix4_q15.c ****     R = __QADD16(T, S);
 183              		.loc 1 215 5 is_stmt 1 discriminator 1 view .LVU57
 184              	.LBB210:
 185              	.LBI210:
1644:Drivers/CMSIS/Include/cmsis_gcc.h **** {
 186              		.loc 2 1644 31 discriminator 1 view .LVU58
 187              	.LBB211:
1646:Drivers/CMSIS/Include/cmsis_gcc.h **** 
 188              		.loc 2 1646 3 discriminator 1 view .LVU59
1648:Drivers/CMSIS/Include/cmsis_gcc.h ****   return(result);
 189              		.loc 2 1648 3 discriminator 1 view .LVU60
 190              		.syntax unified
 191              	@ 1648 "Drivers/CMSIS/Include/cmsis_gcc.h" 1
 192 003c 9EFA13FA 		qadd16 r10, lr, r3
 193              	@ 0 "" 2
 194              	.LVL16:
1649:Drivers/CMSIS/Include/cmsis_gcc.h **** }
 195              		.loc 2 1649 3 discriminator 1 view .LVU61
1649:Drivers/CMSIS/Include/cmsis_gcc.h **** }
 196              		.loc 2 1649 3 is_stmt 0 discriminator 1 view .LVU62
 197              		.thumb
 198              		.syntax unified
 199              	.LBE211:
 200              	.LBE210:
 216:Drivers/CMSIS/DSP/Source/TransformFunctions/arm_cfft_radix4_q15.c **** 
 217:Drivers/CMSIS/DSP/Source/TransformFunctions/arm_cfft_radix4_q15.c ****     /* S = packed((ya - yc), (xa - xc) ) */
 218:Drivers/CMSIS/DSP/Source/TransformFunctions/arm_cfft_radix4_q15.c ****     S = __QSUB16(T, S);
 201              		.loc 1 218 5 is_stmt 1 discriminator 1 view .LVU63
 202              	.LBB212:
 203              	.LBI212:
1658:Drivers/CMSIS/Include/cmsis_gcc.h **** }
1659:Drivers/CMSIS/Include/cmsis_gcc.h **** 
1660:Drivers/CMSIS/Include/cmsis_gcc.h **** __STATIC_FORCEINLINE uint32_t __UADD16(uint32_t op1, uint32_t op2)
1661:Drivers/CMSIS/Include/cmsis_gcc.h **** {
1662:Drivers/CMSIS/Include/cmsis_gcc.h ****   uint32_t result;
1663:Drivers/CMSIS/Include/cmsis_gcc.h **** 
1664:Drivers/CMSIS/Include/cmsis_gcc.h ****   __ASM volatile ("uadd16 %0, %1, %2" : "=r" (result) : "r" (op1), "r" (op2) );
1665:Drivers/CMSIS/Include/cmsis_gcc.h ****   return(result);
1666:Drivers/CMSIS/Include/cmsis_gcc.h **** }
1667:Drivers/CMSIS/Include/cmsis_gcc.h **** 
1668:Drivers/CMSIS/Include/cmsis_gcc.h **** __STATIC_FORCEINLINE uint32_t __UQADD16(uint32_t op1, uint32_t op2)
1669:Drivers/CMSIS/Include/cmsis_gcc.h **** {
1670:Drivers/CMSIS/Include/cmsis_gcc.h ****   uint32_t result;
1671:Drivers/CMSIS/Include/cmsis_gcc.h **** 
1672:Drivers/CMSIS/Include/cmsis_gcc.h ****   __ASM volatile ("uqadd16 %0, %1, %2" : "=r" (result) : "r" (op1), "r" (op2) );
1673:Drivers/CMSIS/Include/cmsis_gcc.h ****   return(result);
ARM GAS  C:\Users\17832\AppData\Local\Temp\ccyMtfRp.s 			page 38


1674:Drivers/CMSIS/Include/cmsis_gcc.h **** }
1675:Drivers/CMSIS/Include/cmsis_gcc.h **** 
1676:Drivers/CMSIS/Include/cmsis_gcc.h **** __STATIC_FORCEINLINE uint32_t __UHADD16(uint32_t op1, uint32_t op2)
1677:Drivers/CMSIS/Include/cmsis_gcc.h **** {
1678:Drivers/CMSIS/Include/cmsis_gcc.h ****   uint32_t result;
1679:Drivers/CMSIS/Include/cmsis_gcc.h **** 
1680:Drivers/CMSIS/Include/cmsis_gcc.h ****   __ASM volatile ("uhadd16 %0, %1, %2" : "=r" (result) : "r" (op1), "r" (op2) );
1681:Drivers/CMSIS/Include/cmsis_gcc.h ****   return(result);
1682:Drivers/CMSIS/Include/cmsis_gcc.h **** }
1683:Drivers/CMSIS/Include/cmsis_gcc.h **** 
1684:Drivers/CMSIS/Include/cmsis_gcc.h **** __STATIC_FORCEINLINE uint32_t __SSUB16(uint32_t op1, uint32_t op2)
1685:Drivers/CMSIS/Include/cmsis_gcc.h **** {
1686:Drivers/CMSIS/Include/cmsis_gcc.h ****   uint32_t result;
1687:Drivers/CMSIS/Include/cmsis_gcc.h **** 
1688:Drivers/CMSIS/Include/cmsis_gcc.h ****   __ASM volatile ("ssub16 %0, %1, %2" : "=r" (result) : "r" (op1), "r" (op2) );
1689:Drivers/CMSIS/Include/cmsis_gcc.h ****   return(result);
1690:Drivers/CMSIS/Include/cmsis_gcc.h **** }
1691:Drivers/CMSIS/Include/cmsis_gcc.h **** 
1692:Drivers/CMSIS/Include/cmsis_gcc.h **** __STATIC_FORCEINLINE uint32_t __QSUB16(uint32_t op1, uint32_t op2)
 204              		.loc 2 1692 31 discriminator 1 view .LVU64
 205              	.LBB213:
1693:Drivers/CMSIS/Include/cmsis_gcc.h **** {
1694:Drivers/CMSIS/Include/cmsis_gcc.h ****   uint32_t result;
 206              		.loc 2 1694 3 discriminator 1 view .LVU65
1695:Drivers/CMSIS/Include/cmsis_gcc.h **** 
1696:Drivers/CMSIS/Include/cmsis_gcc.h ****   __ASM volatile ("qsub16 %0, %1, %2" : "=r" (result) : "r" (op1), "r" (op2) );
 207              		.loc 2 1696 3 discriminator 1 view .LVU66
 208              		.syntax unified
 209              	@ 1696 "Drivers/CMSIS/Include/cmsis_gcc.h" 1
 210 0040 DEFA13FE 		qsub16 lr, lr, r3
 211              	@ 0 "" 2
 212              	.LVL17:
1697:Drivers/CMSIS/Include/cmsis_gcc.h ****   return(result);
 213              		.loc 2 1697 3 discriminator 1 view .LVU67
 214              		.loc 2 1697 3 is_stmt 0 discriminator 1 view .LVU68
 215              		.thumb
 216              		.syntax unified
 217              	.LBE213:
 218              	.LBE212:
 219:Drivers/CMSIS/DSP/Source/TransformFunctions/arm_cfft_radix4_q15.c **** 
 220:Drivers/CMSIS/DSP/Source/TransformFunctions/arm_cfft_radix4_q15.c ****     /*  Reading i0+fftLen/4 , i0+3fftLen/4 inputs */
 221:Drivers/CMSIS/DSP/Source/TransformFunctions/arm_cfft_radix4_q15.c ****     /* Read yb (real), xb(imag) input */
 222:Drivers/CMSIS/DSP/Source/TransformFunctions/arm_cfft_radix4_q15.c ****     T = _SIMD32_OFFSET(pSi1);
 219              		.loc 1 222 5 is_stmt 1 discriminator 1 view .LVU69
 220              		.loc 1 222 7 is_stmt 0 discriminator 1 view .LVU70
 221 0044 2368     		ldr	r3, [r4]
 222              	.LVL18:
 223:Drivers/CMSIS/DSP/Source/TransformFunctions/arm_cfft_radix4_q15.c ****     T = __SHADD16(T, 0);
 223              		.loc 1 223 5 is_stmt 1 discriminator 1 view .LVU71
 224              	.LBB214:
 225              	.LBI214:
1652:Drivers/CMSIS/Include/cmsis_gcc.h **** {
 226              		.loc 2 1652 31 discriminator 1 view .LVU72
 227              	.LBB215:
1654:Drivers/CMSIS/Include/cmsis_gcc.h **** 
 228              		.loc 2 1654 3 discriminator 1 view .LVU73
1656:Drivers/CMSIS/Include/cmsis_gcc.h ****   return(result);
ARM GAS  C:\Users\17832\AppData\Local\Temp\ccyMtfRp.s 			page 39


 229              		.loc 2 1656 3 discriminator 1 view .LVU74
 230              		.syntax unified
 231              	@ 1656 "Drivers/CMSIS/Include/cmsis_gcc.h" 1
 232 0046 93FA22F3 		shadd16 r3, r3, r2
 233              	@ 0 "" 2
 234              	.LVL19:
1657:Drivers/CMSIS/Include/cmsis_gcc.h **** }
 235              		.loc 2 1657 3 discriminator 1 view .LVU75
1657:Drivers/CMSIS/Include/cmsis_gcc.h **** }
 236              		.loc 2 1657 3 is_stmt 0 discriminator 1 view .LVU76
 237              		.thumb
 238              		.syntax unified
 239              	.LBE215:
 240              	.LBE214:
 224:Drivers/CMSIS/DSP/Source/TransformFunctions/arm_cfft_radix4_q15.c ****     T = __SHADD16(T, 0);
 241              		.loc 1 224 5 is_stmt 1 discriminator 1 view .LVU77
 242              	.LBB216:
 243              	.LBI216:
1652:Drivers/CMSIS/Include/cmsis_gcc.h **** {
 244              		.loc 2 1652 31 discriminator 1 view .LVU78
 245              	.LBB217:
1654:Drivers/CMSIS/Include/cmsis_gcc.h **** 
 246              		.loc 2 1654 3 discriminator 1 view .LVU79
1656:Drivers/CMSIS/Include/cmsis_gcc.h ****   return(result);
 247              		.loc 2 1656 3 discriminator 1 view .LVU80
 248              		.syntax unified
 249              	@ 1656 "Drivers/CMSIS/Include/cmsis_gcc.h" 1
 250 004a 93FA22F8 		shadd16 r8, r3, r2
 251              	@ 0 "" 2
 252              	.LVL20:
1657:Drivers/CMSIS/Include/cmsis_gcc.h **** }
 253              		.loc 2 1657 3 discriminator 1 view .LVU81
1657:Drivers/CMSIS/Include/cmsis_gcc.h **** }
 254              		.loc 2 1657 3 is_stmt 0 discriminator 1 view .LVU82
 255              		.thumb
 256              		.syntax unified
 257              	.LBE217:
 258              	.LBE216:
 225:Drivers/CMSIS/DSP/Source/TransformFunctions/arm_cfft_radix4_q15.c **** 
 226:Drivers/CMSIS/DSP/Source/TransformFunctions/arm_cfft_radix4_q15.c ****     /* Read yd (real), xd(imag) input */
 227:Drivers/CMSIS/DSP/Source/TransformFunctions/arm_cfft_radix4_q15.c ****     U = _SIMD32_OFFSET(pSi3);
 259              		.loc 1 227 5 is_stmt 1 discriminator 1 view .LVU83
 260              		.loc 1 227 7 is_stmt 0 discriminator 1 view .LVU84
 261 004e 0368     		ldr	r3, [r0]
 262              	.LVL21:
 228:Drivers/CMSIS/DSP/Source/TransformFunctions/arm_cfft_radix4_q15.c ****     U = __SHADD16(U, 0);
 263              		.loc 1 228 5 is_stmt 1 discriminator 1 view .LVU85
 264              	.LBB218:
 265              	.LBI218:
1652:Drivers/CMSIS/Include/cmsis_gcc.h **** {
 266              		.loc 2 1652 31 discriminator 1 view .LVU86
 267              	.LBB219:
1654:Drivers/CMSIS/Include/cmsis_gcc.h **** 
 268              		.loc 2 1654 3 discriminator 1 view .LVU87
1656:Drivers/CMSIS/Include/cmsis_gcc.h ****   return(result);
 269              		.loc 2 1656 3 discriminator 1 view .LVU88
 270              		.syntax unified
ARM GAS  C:\Users\17832\AppData\Local\Temp\ccyMtfRp.s 			page 40


 271              	@ 1656 "Drivers/CMSIS/Include/cmsis_gcc.h" 1
 272 0050 93FA22F3 		shadd16 r3, r3, r2
 273              	@ 0 "" 2
 274              	.LVL22:
1657:Drivers/CMSIS/Include/cmsis_gcc.h **** }
 275              		.loc 2 1657 3 discriminator 1 view .LVU89
1657:Drivers/CMSIS/Include/cmsis_gcc.h **** }
 276              		.loc 2 1657 3 is_stmt 0 discriminator 1 view .LVU90
 277              		.thumb
 278              		.syntax unified
 279              	.LBE219:
 280              	.LBE218:
 229:Drivers/CMSIS/DSP/Source/TransformFunctions/arm_cfft_radix4_q15.c ****     U = __SHADD16(U, 0);
 281              		.loc 1 229 5 is_stmt 1 discriminator 1 view .LVU91
 282              	.LBB220:
 283              	.LBI220:
1652:Drivers/CMSIS/Include/cmsis_gcc.h **** {
 284              		.loc 2 1652 31 discriminator 1 view .LVU92
 285              	.LBB221:
1654:Drivers/CMSIS/Include/cmsis_gcc.h **** 
 286              		.loc 2 1654 3 discriminator 1 view .LVU93
1656:Drivers/CMSIS/Include/cmsis_gcc.h ****   return(result);
 287              		.loc 2 1656 3 discriminator 1 view .LVU94
 288              		.syntax unified
 289              	@ 1656 "Drivers/CMSIS/Include/cmsis_gcc.h" 1
 290 0054 93FA22F3 		shadd16 r3, r3, r2
 291              	@ 0 "" 2
 292              	.LVL23:
1657:Drivers/CMSIS/Include/cmsis_gcc.h **** }
 293              		.loc 2 1657 3 discriminator 1 view .LVU95
1657:Drivers/CMSIS/Include/cmsis_gcc.h **** }
 294              		.loc 2 1657 3 is_stmt 0 discriminator 1 view .LVU96
 295              		.thumb
 296              		.syntax unified
 297              	.LBE221:
 298              	.LBE220:
 230:Drivers/CMSIS/DSP/Source/TransformFunctions/arm_cfft_radix4_q15.c **** 
 231:Drivers/CMSIS/DSP/Source/TransformFunctions/arm_cfft_radix4_q15.c ****     /* T = packed((yb + yd), (xb + xd) ) */
 232:Drivers/CMSIS/DSP/Source/TransformFunctions/arm_cfft_radix4_q15.c ****     T = __QADD16(T, U);
 299              		.loc 1 232 5 is_stmt 1 discriminator 1 view .LVU97
 300              	.LBB222:
 301              	.LBI222:
1644:Drivers/CMSIS/Include/cmsis_gcc.h **** {
 302              		.loc 2 1644 31 discriminator 1 view .LVU98
 303              	.LBB223:
1646:Drivers/CMSIS/Include/cmsis_gcc.h **** 
 304              		.loc 2 1646 3 discriminator 1 view .LVU99
1648:Drivers/CMSIS/Include/cmsis_gcc.h ****   return(result);
 305              		.loc 2 1648 3 discriminator 1 view .LVU100
 306              		.syntax unified
 307              	@ 1648 "Drivers/CMSIS/Include/cmsis_gcc.h" 1
 308 0058 98FA13F8 		qadd16 r8, r8, r3
 309              	@ 0 "" 2
 310              	.LVL24:
1649:Drivers/CMSIS/Include/cmsis_gcc.h **** }
 311              		.loc 2 1649 3 discriminator 1 view .LVU101
1649:Drivers/CMSIS/Include/cmsis_gcc.h **** }
ARM GAS  C:\Users\17832\AppData\Local\Temp\ccyMtfRp.s 			page 41


 312              		.loc 2 1649 3 is_stmt 0 discriminator 1 view .LVU102
 313              		.thumb
 314              		.syntax unified
 315              	.LBE223:
 316              	.LBE222:
 233:Drivers/CMSIS/DSP/Source/TransformFunctions/arm_cfft_radix4_q15.c **** 
 234:Drivers/CMSIS/DSP/Source/TransformFunctions/arm_cfft_radix4_q15.c ****     /*  writing the butterfly processed i0 sample */
 235:Drivers/CMSIS/DSP/Source/TransformFunctions/arm_cfft_radix4_q15.c ****     /* xa' = xa + xb + xc + xd */
 236:Drivers/CMSIS/DSP/Source/TransformFunctions/arm_cfft_radix4_q15.c ****     /* ya' = ya + yb + yc + yd */
 237:Drivers/CMSIS/DSP/Source/TransformFunctions/arm_cfft_radix4_q15.c ****     _SIMD32_OFFSET(pSi0) = __SHADD16(R, T);
 317              		.loc 1 237 5 is_stmt 1 discriminator 1 view .LVU103
 318              	.LBB224:
 319              	.LBI224:
1652:Drivers/CMSIS/Include/cmsis_gcc.h **** {
 320              		.loc 2 1652 31 discriminator 1 view .LVU104
 321              	.LBB225:
1654:Drivers/CMSIS/Include/cmsis_gcc.h **** 
 322              		.loc 2 1654 3 discriminator 1 view .LVU105
1656:Drivers/CMSIS/Include/cmsis_gcc.h ****   return(result);
 323              		.loc 2 1656 3 discriminator 1 view .LVU106
 324              		.syntax unified
 325              	@ 1656 "Drivers/CMSIS/Include/cmsis_gcc.h" 1
 326 005c 9AFA28F3 		shadd16 r3, r10, r8
 327              	@ 0 "" 2
 328              	.LVL25:
1657:Drivers/CMSIS/Include/cmsis_gcc.h **** }
 329              		.loc 2 1657 3 discriminator 1 view .LVU107
1657:Drivers/CMSIS/Include/cmsis_gcc.h **** }
 330              		.loc 2 1657 3 is_stmt 0 discriminator 1 view .LVU108
 331              		.thumb
 332              		.syntax unified
 333              	.LBE225:
 334              	.LBE224:
 335              		.loc 1 237 26 discriminator 1 view .LVU109
 336 0060 46F8043B 		str	r3, [r6], #4
 337              	.LVL26:
 238:Drivers/CMSIS/DSP/Source/TransformFunctions/arm_cfft_radix4_q15.c ****     pSi0 += 2;
 338              		.loc 1 238 5 is_stmt 1 discriminator 1 view .LVU110
 239:Drivers/CMSIS/DSP/Source/TransformFunctions/arm_cfft_radix4_q15.c **** 
 240:Drivers/CMSIS/DSP/Source/TransformFunctions/arm_cfft_radix4_q15.c ****     /* R = packed((ya + yc) - (yb + yd), (xa + xc)- (xb + xd)) */
 241:Drivers/CMSIS/DSP/Source/TransformFunctions/arm_cfft_radix4_q15.c ****     R = __QSUB16(R, T);
 339              		.loc 1 241 5 discriminator 1 view .LVU111
 340              	.LBB226:
 341              	.LBI226:
1692:Drivers/CMSIS/Include/cmsis_gcc.h **** {
 342              		.loc 2 1692 31 discriminator 1 view .LVU112
 343              	.LBB227:
1694:Drivers/CMSIS/Include/cmsis_gcc.h **** 
 344              		.loc 2 1694 3 discriminator 1 view .LVU113
1696:Drivers/CMSIS/Include/cmsis_gcc.h ****   return(result);
 345              		.loc 2 1696 3 discriminator 1 view .LVU114
 346              		.syntax unified
 347              	@ 1696 "Drivers/CMSIS/Include/cmsis_gcc.h" 1
 348 0064 DAFA18F8 		qsub16 r8, r10, r8
 349              	@ 0 "" 2
 350              	.LVL27:
 351              		.loc 2 1697 3 discriminator 1 view .LVU115
ARM GAS  C:\Users\17832\AppData\Local\Temp\ccyMtfRp.s 			page 42


 352              		.loc 2 1697 3 is_stmt 0 discriminator 1 view .LVU116
 353              		.thumb
 354              		.syntax unified
 355              	.LBE227:
 356              	.LBE226:
 242:Drivers/CMSIS/DSP/Source/TransformFunctions/arm_cfft_radix4_q15.c **** 
 243:Drivers/CMSIS/DSP/Source/TransformFunctions/arm_cfft_radix4_q15.c ****     /* co2 & si2 are read from SIMD Coefficient pointer */
 244:Drivers/CMSIS/DSP/Source/TransformFunctions/arm_cfft_radix4_q15.c ****     C2 = _SIMD32_OFFSET(pCoef16 + (4U * ic));
 357              		.loc 1 244 5 is_stmt 1 discriminator 1 view .LVU117
 358              		.loc 1 244 8 is_stmt 0 discriminator 1 view .LVU118
 359 0068 5CF83130 		ldr	r3, [ip, r1, lsl #3]
 360              	.LVL28:
 245:Drivers/CMSIS/DSP/Source/TransformFunctions/arm_cfft_radix4_q15.c **** 
 246:Drivers/CMSIS/DSP/Source/TransformFunctions/arm_cfft_radix4_q15.c **** #ifndef ARM_MATH_BIG_ENDIAN
 247:Drivers/CMSIS/DSP/Source/TransformFunctions/arm_cfft_radix4_q15.c **** 
 248:Drivers/CMSIS/DSP/Source/TransformFunctions/arm_cfft_radix4_q15.c ****     /* xc' = (xa-xb+xc-xd)* co2 + (ya-yb+yc-yd)* (si2) */
 249:Drivers/CMSIS/DSP/Source/TransformFunctions/arm_cfft_radix4_q15.c ****     out1 = __SMUAD(C2, R) >> 16U;
 361              		.loc 1 249 5 is_stmt 1 discriminator 1 view .LVU119
 362              	.LBB228:
 363              	.LBI228:
1698:Drivers/CMSIS/Include/cmsis_gcc.h **** }
1699:Drivers/CMSIS/Include/cmsis_gcc.h **** 
1700:Drivers/CMSIS/Include/cmsis_gcc.h **** __STATIC_FORCEINLINE uint32_t __SHSUB16(uint32_t op1, uint32_t op2)
1701:Drivers/CMSIS/Include/cmsis_gcc.h **** {
1702:Drivers/CMSIS/Include/cmsis_gcc.h ****   uint32_t result;
1703:Drivers/CMSIS/Include/cmsis_gcc.h **** 
1704:Drivers/CMSIS/Include/cmsis_gcc.h ****   __ASM volatile ("shsub16 %0, %1, %2" : "=r" (result) : "r" (op1), "r" (op2) );
1705:Drivers/CMSIS/Include/cmsis_gcc.h ****   return(result);
1706:Drivers/CMSIS/Include/cmsis_gcc.h **** }
1707:Drivers/CMSIS/Include/cmsis_gcc.h **** 
1708:Drivers/CMSIS/Include/cmsis_gcc.h **** __STATIC_FORCEINLINE uint32_t __USUB16(uint32_t op1, uint32_t op2)
1709:Drivers/CMSIS/Include/cmsis_gcc.h **** {
1710:Drivers/CMSIS/Include/cmsis_gcc.h ****   uint32_t result;
1711:Drivers/CMSIS/Include/cmsis_gcc.h **** 
1712:Drivers/CMSIS/Include/cmsis_gcc.h ****   __ASM volatile ("usub16 %0, %1, %2" : "=r" (result) : "r" (op1), "r" (op2) );
1713:Drivers/CMSIS/Include/cmsis_gcc.h ****   return(result);
1714:Drivers/CMSIS/Include/cmsis_gcc.h **** }
1715:Drivers/CMSIS/Include/cmsis_gcc.h **** 
1716:Drivers/CMSIS/Include/cmsis_gcc.h **** __STATIC_FORCEINLINE uint32_t __UQSUB16(uint32_t op1, uint32_t op2)
1717:Drivers/CMSIS/Include/cmsis_gcc.h **** {
1718:Drivers/CMSIS/Include/cmsis_gcc.h ****   uint32_t result;
1719:Drivers/CMSIS/Include/cmsis_gcc.h **** 
1720:Drivers/CMSIS/Include/cmsis_gcc.h ****   __ASM volatile ("uqsub16 %0, %1, %2" : "=r" (result) : "r" (op1), "r" (op2) );
1721:Drivers/CMSIS/Include/cmsis_gcc.h ****   return(result);
1722:Drivers/CMSIS/Include/cmsis_gcc.h **** }
1723:Drivers/CMSIS/Include/cmsis_gcc.h **** 
1724:Drivers/CMSIS/Include/cmsis_gcc.h **** __STATIC_FORCEINLINE uint32_t __UHSUB16(uint32_t op1, uint32_t op2)
1725:Drivers/CMSIS/Include/cmsis_gcc.h **** {
1726:Drivers/CMSIS/Include/cmsis_gcc.h ****   uint32_t result;
1727:Drivers/CMSIS/Include/cmsis_gcc.h **** 
1728:Drivers/CMSIS/Include/cmsis_gcc.h ****   __ASM volatile ("uhsub16 %0, %1, %2" : "=r" (result) : "r" (op1), "r" (op2) );
1729:Drivers/CMSIS/Include/cmsis_gcc.h ****   return(result);
1730:Drivers/CMSIS/Include/cmsis_gcc.h **** }
1731:Drivers/CMSIS/Include/cmsis_gcc.h **** 
1732:Drivers/CMSIS/Include/cmsis_gcc.h **** __STATIC_FORCEINLINE uint32_t __SASX(uint32_t op1, uint32_t op2)
1733:Drivers/CMSIS/Include/cmsis_gcc.h **** {
1734:Drivers/CMSIS/Include/cmsis_gcc.h ****   uint32_t result;
ARM GAS  C:\Users\17832\AppData\Local\Temp\ccyMtfRp.s 			page 43


1735:Drivers/CMSIS/Include/cmsis_gcc.h **** 
1736:Drivers/CMSIS/Include/cmsis_gcc.h ****   __ASM volatile ("sasx %0, %1, %2" : "=r" (result) : "r" (op1), "r" (op2) );
1737:Drivers/CMSIS/Include/cmsis_gcc.h ****   return(result);
1738:Drivers/CMSIS/Include/cmsis_gcc.h **** }
1739:Drivers/CMSIS/Include/cmsis_gcc.h **** 
1740:Drivers/CMSIS/Include/cmsis_gcc.h **** __STATIC_FORCEINLINE uint32_t __QASX(uint32_t op1, uint32_t op2)
1741:Drivers/CMSIS/Include/cmsis_gcc.h **** {
1742:Drivers/CMSIS/Include/cmsis_gcc.h ****   uint32_t result;
1743:Drivers/CMSIS/Include/cmsis_gcc.h **** 
1744:Drivers/CMSIS/Include/cmsis_gcc.h ****   __ASM volatile ("qasx %0, %1, %2" : "=r" (result) : "r" (op1), "r" (op2) );
1745:Drivers/CMSIS/Include/cmsis_gcc.h ****   return(result);
1746:Drivers/CMSIS/Include/cmsis_gcc.h **** }
1747:Drivers/CMSIS/Include/cmsis_gcc.h **** 
1748:Drivers/CMSIS/Include/cmsis_gcc.h **** __STATIC_FORCEINLINE uint32_t __SHASX(uint32_t op1, uint32_t op2)
1749:Drivers/CMSIS/Include/cmsis_gcc.h **** {
1750:Drivers/CMSIS/Include/cmsis_gcc.h ****   uint32_t result;
1751:Drivers/CMSIS/Include/cmsis_gcc.h **** 
1752:Drivers/CMSIS/Include/cmsis_gcc.h ****   __ASM volatile ("shasx %0, %1, %2" : "=r" (result) : "r" (op1), "r" (op2) );
1753:Drivers/CMSIS/Include/cmsis_gcc.h ****   return(result);
1754:Drivers/CMSIS/Include/cmsis_gcc.h **** }
1755:Drivers/CMSIS/Include/cmsis_gcc.h **** 
1756:Drivers/CMSIS/Include/cmsis_gcc.h **** __STATIC_FORCEINLINE uint32_t __UASX(uint32_t op1, uint32_t op2)
1757:Drivers/CMSIS/Include/cmsis_gcc.h **** {
1758:Drivers/CMSIS/Include/cmsis_gcc.h ****   uint32_t result;
1759:Drivers/CMSIS/Include/cmsis_gcc.h **** 
1760:Drivers/CMSIS/Include/cmsis_gcc.h ****   __ASM volatile ("uasx %0, %1, %2" : "=r" (result) : "r" (op1), "r" (op2) );
1761:Drivers/CMSIS/Include/cmsis_gcc.h ****   return(result);
1762:Drivers/CMSIS/Include/cmsis_gcc.h **** }
1763:Drivers/CMSIS/Include/cmsis_gcc.h **** 
1764:Drivers/CMSIS/Include/cmsis_gcc.h **** __STATIC_FORCEINLINE uint32_t __UQASX(uint32_t op1, uint32_t op2)
1765:Drivers/CMSIS/Include/cmsis_gcc.h **** {
1766:Drivers/CMSIS/Include/cmsis_gcc.h ****   uint32_t result;
1767:Drivers/CMSIS/Include/cmsis_gcc.h **** 
1768:Drivers/CMSIS/Include/cmsis_gcc.h ****   __ASM volatile ("uqasx %0, %1, %2" : "=r" (result) : "r" (op1), "r" (op2) );
1769:Drivers/CMSIS/Include/cmsis_gcc.h ****   return(result);
1770:Drivers/CMSIS/Include/cmsis_gcc.h **** }
1771:Drivers/CMSIS/Include/cmsis_gcc.h **** 
1772:Drivers/CMSIS/Include/cmsis_gcc.h **** __STATIC_FORCEINLINE uint32_t __UHASX(uint32_t op1, uint32_t op2)
1773:Drivers/CMSIS/Include/cmsis_gcc.h **** {
1774:Drivers/CMSIS/Include/cmsis_gcc.h ****   uint32_t result;
1775:Drivers/CMSIS/Include/cmsis_gcc.h **** 
1776:Drivers/CMSIS/Include/cmsis_gcc.h ****   __ASM volatile ("uhasx %0, %1, %2" : "=r" (result) : "r" (op1), "r" (op2) );
1777:Drivers/CMSIS/Include/cmsis_gcc.h ****   return(result);
1778:Drivers/CMSIS/Include/cmsis_gcc.h **** }
1779:Drivers/CMSIS/Include/cmsis_gcc.h **** 
1780:Drivers/CMSIS/Include/cmsis_gcc.h **** __STATIC_FORCEINLINE uint32_t __SSAX(uint32_t op1, uint32_t op2)
1781:Drivers/CMSIS/Include/cmsis_gcc.h **** {
1782:Drivers/CMSIS/Include/cmsis_gcc.h ****   uint32_t result;
1783:Drivers/CMSIS/Include/cmsis_gcc.h **** 
1784:Drivers/CMSIS/Include/cmsis_gcc.h ****   __ASM volatile ("ssax %0, %1, %2" : "=r" (result) : "r" (op1), "r" (op2) );
1785:Drivers/CMSIS/Include/cmsis_gcc.h ****   return(result);
1786:Drivers/CMSIS/Include/cmsis_gcc.h **** }
1787:Drivers/CMSIS/Include/cmsis_gcc.h **** 
1788:Drivers/CMSIS/Include/cmsis_gcc.h **** __STATIC_FORCEINLINE uint32_t __QSAX(uint32_t op1, uint32_t op2)
1789:Drivers/CMSIS/Include/cmsis_gcc.h **** {
1790:Drivers/CMSIS/Include/cmsis_gcc.h ****   uint32_t result;
1791:Drivers/CMSIS/Include/cmsis_gcc.h **** 
ARM GAS  C:\Users\17832\AppData\Local\Temp\ccyMtfRp.s 			page 44


1792:Drivers/CMSIS/Include/cmsis_gcc.h ****   __ASM volatile ("qsax %0, %1, %2" : "=r" (result) : "r" (op1), "r" (op2) );
1793:Drivers/CMSIS/Include/cmsis_gcc.h ****   return(result);
1794:Drivers/CMSIS/Include/cmsis_gcc.h **** }
1795:Drivers/CMSIS/Include/cmsis_gcc.h **** 
1796:Drivers/CMSIS/Include/cmsis_gcc.h **** __STATIC_FORCEINLINE uint32_t __SHSAX(uint32_t op1, uint32_t op2)
1797:Drivers/CMSIS/Include/cmsis_gcc.h **** {
1798:Drivers/CMSIS/Include/cmsis_gcc.h ****   uint32_t result;
1799:Drivers/CMSIS/Include/cmsis_gcc.h **** 
1800:Drivers/CMSIS/Include/cmsis_gcc.h ****   __ASM volatile ("shsax %0, %1, %2" : "=r" (result) : "r" (op1), "r" (op2) );
1801:Drivers/CMSIS/Include/cmsis_gcc.h ****   return(result);
1802:Drivers/CMSIS/Include/cmsis_gcc.h **** }
1803:Drivers/CMSIS/Include/cmsis_gcc.h **** 
1804:Drivers/CMSIS/Include/cmsis_gcc.h **** __STATIC_FORCEINLINE uint32_t __USAX(uint32_t op1, uint32_t op2)
1805:Drivers/CMSIS/Include/cmsis_gcc.h **** {
1806:Drivers/CMSIS/Include/cmsis_gcc.h ****   uint32_t result;
1807:Drivers/CMSIS/Include/cmsis_gcc.h **** 
1808:Drivers/CMSIS/Include/cmsis_gcc.h ****   __ASM volatile ("usax %0, %1, %2" : "=r" (result) : "r" (op1), "r" (op2) );
1809:Drivers/CMSIS/Include/cmsis_gcc.h ****   return(result);
1810:Drivers/CMSIS/Include/cmsis_gcc.h **** }
1811:Drivers/CMSIS/Include/cmsis_gcc.h **** 
1812:Drivers/CMSIS/Include/cmsis_gcc.h **** __STATIC_FORCEINLINE uint32_t __UQSAX(uint32_t op1, uint32_t op2)
1813:Drivers/CMSIS/Include/cmsis_gcc.h **** {
1814:Drivers/CMSIS/Include/cmsis_gcc.h ****   uint32_t result;
1815:Drivers/CMSIS/Include/cmsis_gcc.h **** 
1816:Drivers/CMSIS/Include/cmsis_gcc.h ****   __ASM volatile ("uqsax %0, %1, %2" : "=r" (result) : "r" (op1), "r" (op2) );
1817:Drivers/CMSIS/Include/cmsis_gcc.h ****   return(result);
1818:Drivers/CMSIS/Include/cmsis_gcc.h **** }
1819:Drivers/CMSIS/Include/cmsis_gcc.h **** 
1820:Drivers/CMSIS/Include/cmsis_gcc.h **** __STATIC_FORCEINLINE uint32_t __UHSAX(uint32_t op1, uint32_t op2)
1821:Drivers/CMSIS/Include/cmsis_gcc.h **** {
1822:Drivers/CMSIS/Include/cmsis_gcc.h ****   uint32_t result;
1823:Drivers/CMSIS/Include/cmsis_gcc.h **** 
1824:Drivers/CMSIS/Include/cmsis_gcc.h ****   __ASM volatile ("uhsax %0, %1, %2" : "=r" (result) : "r" (op1), "r" (op2) );
1825:Drivers/CMSIS/Include/cmsis_gcc.h ****   return(result);
1826:Drivers/CMSIS/Include/cmsis_gcc.h **** }
1827:Drivers/CMSIS/Include/cmsis_gcc.h **** 
1828:Drivers/CMSIS/Include/cmsis_gcc.h **** __STATIC_FORCEINLINE uint32_t __USAD8(uint32_t op1, uint32_t op2)
1829:Drivers/CMSIS/Include/cmsis_gcc.h **** {
1830:Drivers/CMSIS/Include/cmsis_gcc.h ****   uint32_t result;
1831:Drivers/CMSIS/Include/cmsis_gcc.h **** 
1832:Drivers/CMSIS/Include/cmsis_gcc.h ****   __ASM volatile ("usad8 %0, %1, %2" : "=r" (result) : "r" (op1), "r" (op2) );
1833:Drivers/CMSIS/Include/cmsis_gcc.h ****   return(result);
1834:Drivers/CMSIS/Include/cmsis_gcc.h **** }
1835:Drivers/CMSIS/Include/cmsis_gcc.h **** 
1836:Drivers/CMSIS/Include/cmsis_gcc.h **** __STATIC_FORCEINLINE uint32_t __USADA8(uint32_t op1, uint32_t op2, uint32_t op3)
1837:Drivers/CMSIS/Include/cmsis_gcc.h **** {
1838:Drivers/CMSIS/Include/cmsis_gcc.h ****   uint32_t result;
1839:Drivers/CMSIS/Include/cmsis_gcc.h **** 
1840:Drivers/CMSIS/Include/cmsis_gcc.h ****   __ASM volatile ("usada8 %0, %1, %2, %3" : "=r" (result) : "r" (op1), "r" (op2), "r" (op3) );
1841:Drivers/CMSIS/Include/cmsis_gcc.h ****   return(result);
1842:Drivers/CMSIS/Include/cmsis_gcc.h **** }
1843:Drivers/CMSIS/Include/cmsis_gcc.h **** 
1844:Drivers/CMSIS/Include/cmsis_gcc.h **** #define __SSAT16(ARG1,ARG2) \
1845:Drivers/CMSIS/Include/cmsis_gcc.h **** ({                          \
1846:Drivers/CMSIS/Include/cmsis_gcc.h ****   int32_t __RES, __ARG1 = (ARG1); \
1847:Drivers/CMSIS/Include/cmsis_gcc.h ****   __ASM ("ssat16 %0, %1, %2" : "=r" (__RES) :  "I" (ARG2), "r" (__ARG1) ); \
1848:Drivers/CMSIS/Include/cmsis_gcc.h ****   __RES; \
ARM GAS  C:\Users\17832\AppData\Local\Temp\ccyMtfRp.s 			page 45


1849:Drivers/CMSIS/Include/cmsis_gcc.h ****  })
1850:Drivers/CMSIS/Include/cmsis_gcc.h **** 
1851:Drivers/CMSIS/Include/cmsis_gcc.h **** #define __USAT16(ARG1,ARG2) \
1852:Drivers/CMSIS/Include/cmsis_gcc.h **** ({                          \
1853:Drivers/CMSIS/Include/cmsis_gcc.h ****   uint32_t __RES, __ARG1 = (ARG1); \
1854:Drivers/CMSIS/Include/cmsis_gcc.h ****   __ASM ("usat16 %0, %1, %2" : "=r" (__RES) :  "I" (ARG2), "r" (__ARG1) ); \
1855:Drivers/CMSIS/Include/cmsis_gcc.h ****   __RES; \
1856:Drivers/CMSIS/Include/cmsis_gcc.h ****  })
1857:Drivers/CMSIS/Include/cmsis_gcc.h **** 
1858:Drivers/CMSIS/Include/cmsis_gcc.h **** __STATIC_FORCEINLINE uint32_t __UXTB16(uint32_t op1)
1859:Drivers/CMSIS/Include/cmsis_gcc.h **** {
1860:Drivers/CMSIS/Include/cmsis_gcc.h ****   uint32_t result;
1861:Drivers/CMSIS/Include/cmsis_gcc.h **** 
1862:Drivers/CMSIS/Include/cmsis_gcc.h ****   __ASM volatile ("uxtb16 %0, %1" : "=r" (result) : "r" (op1));
1863:Drivers/CMSIS/Include/cmsis_gcc.h ****   return(result);
1864:Drivers/CMSIS/Include/cmsis_gcc.h **** }
1865:Drivers/CMSIS/Include/cmsis_gcc.h **** 
1866:Drivers/CMSIS/Include/cmsis_gcc.h **** __STATIC_FORCEINLINE uint32_t __UXTAB16(uint32_t op1, uint32_t op2)
1867:Drivers/CMSIS/Include/cmsis_gcc.h **** {
1868:Drivers/CMSIS/Include/cmsis_gcc.h ****   uint32_t result;
1869:Drivers/CMSIS/Include/cmsis_gcc.h **** 
1870:Drivers/CMSIS/Include/cmsis_gcc.h ****   __ASM volatile ("uxtab16 %0, %1, %2" : "=r" (result) : "r" (op1), "r" (op2) );
1871:Drivers/CMSIS/Include/cmsis_gcc.h ****   return(result);
1872:Drivers/CMSIS/Include/cmsis_gcc.h **** }
1873:Drivers/CMSIS/Include/cmsis_gcc.h **** 
1874:Drivers/CMSIS/Include/cmsis_gcc.h **** __STATIC_FORCEINLINE uint32_t __SXTB16(uint32_t op1)
1875:Drivers/CMSIS/Include/cmsis_gcc.h **** {
1876:Drivers/CMSIS/Include/cmsis_gcc.h ****   uint32_t result;
1877:Drivers/CMSIS/Include/cmsis_gcc.h **** 
1878:Drivers/CMSIS/Include/cmsis_gcc.h ****   __ASM volatile ("sxtb16 %0, %1" : "=r" (result) : "r" (op1));
1879:Drivers/CMSIS/Include/cmsis_gcc.h ****   return(result);
1880:Drivers/CMSIS/Include/cmsis_gcc.h **** }
1881:Drivers/CMSIS/Include/cmsis_gcc.h **** 
1882:Drivers/CMSIS/Include/cmsis_gcc.h **** __STATIC_FORCEINLINE uint32_t __SXTAB16(uint32_t op1, uint32_t op2)
1883:Drivers/CMSIS/Include/cmsis_gcc.h **** {
1884:Drivers/CMSIS/Include/cmsis_gcc.h ****   uint32_t result;
1885:Drivers/CMSIS/Include/cmsis_gcc.h **** 
1886:Drivers/CMSIS/Include/cmsis_gcc.h ****   __ASM volatile ("sxtab16 %0, %1, %2" : "=r" (result) : "r" (op1), "r" (op2) );
1887:Drivers/CMSIS/Include/cmsis_gcc.h ****   return(result);
1888:Drivers/CMSIS/Include/cmsis_gcc.h **** }
1889:Drivers/CMSIS/Include/cmsis_gcc.h **** 
1890:Drivers/CMSIS/Include/cmsis_gcc.h **** __STATIC_FORCEINLINE uint32_t __SMUAD  (uint32_t op1, uint32_t op2)
 364              		.loc 2 1890 31 discriminator 1 view .LVU120
 365              	.LBB229:
1891:Drivers/CMSIS/Include/cmsis_gcc.h **** {
1892:Drivers/CMSIS/Include/cmsis_gcc.h ****   uint32_t result;
 366              		.loc 2 1892 3 discriminator 1 view .LVU121
1893:Drivers/CMSIS/Include/cmsis_gcc.h **** 
1894:Drivers/CMSIS/Include/cmsis_gcc.h ****   __ASM volatile ("smuad %0, %1, %2" : "=r" (result) : "r" (op1), "r" (op2) );
 367              		.loc 2 1894 3 discriminator 1 view .LVU122
 368              		.syntax unified
 369              	@ 1894 "Drivers/CMSIS/Include/cmsis_gcc.h" 1
 370 006c 23FB08FA 		smuad r10, r3, r8
 371              	@ 0 "" 2
 372              	.LVL29:
1895:Drivers/CMSIS/Include/cmsis_gcc.h ****   return(result);
 373              		.loc 2 1895 3 discriminator 1 view .LVU123
ARM GAS  C:\Users\17832\AppData\Local\Temp\ccyMtfRp.s 			page 46


 374              		.loc 2 1895 3 is_stmt 0 discriminator 1 view .LVU124
 375              		.thumb
 376              		.syntax unified
 377              	.LBE229:
 378              	.LBE228:
 379              		.loc 1 249 27 discriminator 1 view .LVU125
 380 0070 4FEA1A4A 		lsr	r10, r10, #16
 381              	.LVL30:
 250:Drivers/CMSIS/DSP/Source/TransformFunctions/arm_cfft_radix4_q15.c ****     /* yc' = (ya-yb+yc-yd)* co2 - (xa-xb+xc-xd)* (si2) */
 251:Drivers/CMSIS/DSP/Source/TransformFunctions/arm_cfft_radix4_q15.c ****     out2 = __SMUSDX(C2, R);
 382              		.loc 1 251 5 is_stmt 1 discriminator 1 view .LVU126
 383              	.LBB230:
 384              	.LBI230:
1896:Drivers/CMSIS/Include/cmsis_gcc.h **** }
1897:Drivers/CMSIS/Include/cmsis_gcc.h **** 
1898:Drivers/CMSIS/Include/cmsis_gcc.h **** __STATIC_FORCEINLINE uint32_t __SMUADX (uint32_t op1, uint32_t op2)
1899:Drivers/CMSIS/Include/cmsis_gcc.h **** {
1900:Drivers/CMSIS/Include/cmsis_gcc.h ****   uint32_t result;
1901:Drivers/CMSIS/Include/cmsis_gcc.h **** 
1902:Drivers/CMSIS/Include/cmsis_gcc.h ****   __ASM volatile ("smuadx %0, %1, %2" : "=r" (result) : "r" (op1), "r" (op2) );
1903:Drivers/CMSIS/Include/cmsis_gcc.h ****   return(result);
1904:Drivers/CMSIS/Include/cmsis_gcc.h **** }
1905:Drivers/CMSIS/Include/cmsis_gcc.h **** 
1906:Drivers/CMSIS/Include/cmsis_gcc.h **** __STATIC_FORCEINLINE uint32_t __SMLAD (uint32_t op1, uint32_t op2, uint32_t op3)
1907:Drivers/CMSIS/Include/cmsis_gcc.h **** {
1908:Drivers/CMSIS/Include/cmsis_gcc.h ****   uint32_t result;
1909:Drivers/CMSIS/Include/cmsis_gcc.h **** 
1910:Drivers/CMSIS/Include/cmsis_gcc.h ****   __ASM volatile ("smlad %0, %1, %2, %3" : "=r" (result) : "r" (op1), "r" (op2), "r" (op3) );
1911:Drivers/CMSIS/Include/cmsis_gcc.h ****   return(result);
1912:Drivers/CMSIS/Include/cmsis_gcc.h **** }
1913:Drivers/CMSIS/Include/cmsis_gcc.h **** 
1914:Drivers/CMSIS/Include/cmsis_gcc.h **** __STATIC_FORCEINLINE uint32_t __SMLADX (uint32_t op1, uint32_t op2, uint32_t op3)
1915:Drivers/CMSIS/Include/cmsis_gcc.h **** {
1916:Drivers/CMSIS/Include/cmsis_gcc.h ****   uint32_t result;
1917:Drivers/CMSIS/Include/cmsis_gcc.h **** 
1918:Drivers/CMSIS/Include/cmsis_gcc.h ****   __ASM volatile ("smladx %0, %1, %2, %3" : "=r" (result) : "r" (op1), "r" (op2), "r" (op3) );
1919:Drivers/CMSIS/Include/cmsis_gcc.h ****   return(result);
1920:Drivers/CMSIS/Include/cmsis_gcc.h **** }
1921:Drivers/CMSIS/Include/cmsis_gcc.h **** 
1922:Drivers/CMSIS/Include/cmsis_gcc.h **** __STATIC_FORCEINLINE uint64_t __SMLALD (uint32_t op1, uint32_t op2, uint64_t acc)
1923:Drivers/CMSIS/Include/cmsis_gcc.h **** {
1924:Drivers/CMSIS/Include/cmsis_gcc.h ****   union llreg_u{
1925:Drivers/CMSIS/Include/cmsis_gcc.h ****     uint32_t w32[2];
1926:Drivers/CMSIS/Include/cmsis_gcc.h ****     uint64_t w64;
1927:Drivers/CMSIS/Include/cmsis_gcc.h ****   } llr;
1928:Drivers/CMSIS/Include/cmsis_gcc.h ****   llr.w64 = acc;
1929:Drivers/CMSIS/Include/cmsis_gcc.h **** 
1930:Drivers/CMSIS/Include/cmsis_gcc.h **** #ifndef __ARMEB__   /* Little endian */
1931:Drivers/CMSIS/Include/cmsis_gcc.h ****   __ASM volatile ("smlald %0, %1, %2, %3" : "=r" (llr.w32[0]), "=r" (llr.w32[1]): "r" (op1), "r" (o
1932:Drivers/CMSIS/Include/cmsis_gcc.h **** #else               /* Big endian */
1933:Drivers/CMSIS/Include/cmsis_gcc.h ****   __ASM volatile ("smlald %0, %1, %2, %3" : "=r" (llr.w32[1]), "=r" (llr.w32[0]): "r" (op1), "r" (o
1934:Drivers/CMSIS/Include/cmsis_gcc.h **** #endif
1935:Drivers/CMSIS/Include/cmsis_gcc.h **** 
1936:Drivers/CMSIS/Include/cmsis_gcc.h ****   return(llr.w64);
1937:Drivers/CMSIS/Include/cmsis_gcc.h **** }
1938:Drivers/CMSIS/Include/cmsis_gcc.h **** 
1939:Drivers/CMSIS/Include/cmsis_gcc.h **** __STATIC_FORCEINLINE uint64_t __SMLALDX (uint32_t op1, uint32_t op2, uint64_t acc)
ARM GAS  C:\Users\17832\AppData\Local\Temp\ccyMtfRp.s 			page 47


1940:Drivers/CMSIS/Include/cmsis_gcc.h **** {
1941:Drivers/CMSIS/Include/cmsis_gcc.h ****   union llreg_u{
1942:Drivers/CMSIS/Include/cmsis_gcc.h ****     uint32_t w32[2];
1943:Drivers/CMSIS/Include/cmsis_gcc.h ****     uint64_t w64;
1944:Drivers/CMSIS/Include/cmsis_gcc.h ****   } llr;
1945:Drivers/CMSIS/Include/cmsis_gcc.h ****   llr.w64 = acc;
1946:Drivers/CMSIS/Include/cmsis_gcc.h **** 
1947:Drivers/CMSIS/Include/cmsis_gcc.h **** #ifndef __ARMEB__   /* Little endian */
1948:Drivers/CMSIS/Include/cmsis_gcc.h ****   __ASM volatile ("smlaldx %0, %1, %2, %3" : "=r" (llr.w32[0]), "=r" (llr.w32[1]): "r" (op1), "r" (
1949:Drivers/CMSIS/Include/cmsis_gcc.h **** #else               /* Big endian */
1950:Drivers/CMSIS/Include/cmsis_gcc.h ****   __ASM volatile ("smlaldx %0, %1, %2, %3" : "=r" (llr.w32[1]), "=r" (llr.w32[0]): "r" (op1), "r" (
1951:Drivers/CMSIS/Include/cmsis_gcc.h **** #endif
1952:Drivers/CMSIS/Include/cmsis_gcc.h **** 
1953:Drivers/CMSIS/Include/cmsis_gcc.h ****   return(llr.w64);
1954:Drivers/CMSIS/Include/cmsis_gcc.h **** }
1955:Drivers/CMSIS/Include/cmsis_gcc.h **** 
1956:Drivers/CMSIS/Include/cmsis_gcc.h **** __STATIC_FORCEINLINE uint32_t __SMUSD  (uint32_t op1, uint32_t op2)
1957:Drivers/CMSIS/Include/cmsis_gcc.h **** {
1958:Drivers/CMSIS/Include/cmsis_gcc.h ****   uint32_t result;
1959:Drivers/CMSIS/Include/cmsis_gcc.h **** 
1960:Drivers/CMSIS/Include/cmsis_gcc.h ****   __ASM volatile ("smusd %0, %1, %2" : "=r" (result) : "r" (op1), "r" (op2) );
1961:Drivers/CMSIS/Include/cmsis_gcc.h ****   return(result);
1962:Drivers/CMSIS/Include/cmsis_gcc.h **** }
1963:Drivers/CMSIS/Include/cmsis_gcc.h **** 
1964:Drivers/CMSIS/Include/cmsis_gcc.h **** __STATIC_FORCEINLINE uint32_t __SMUSDX (uint32_t op1, uint32_t op2)
 385              		.loc 2 1964 31 discriminator 1 view .LVU127
 386              	.LBB231:
1965:Drivers/CMSIS/Include/cmsis_gcc.h **** {
1966:Drivers/CMSIS/Include/cmsis_gcc.h ****   uint32_t result;
 387              		.loc 2 1966 3 discriminator 1 view .LVU128
1967:Drivers/CMSIS/Include/cmsis_gcc.h **** 
1968:Drivers/CMSIS/Include/cmsis_gcc.h ****   __ASM volatile ("smusdx %0, %1, %2" : "=r" (result) : "r" (op1), "r" (op2) );
 388              		.loc 2 1968 3 discriminator 1 view .LVU129
 389              		.syntax unified
 390              	@ 1968 "Drivers/CMSIS/Include/cmsis_gcc.h" 1
 391 0074 43FB18FB 		smusdx fp, r3, r8
 392              	@ 0 "" 2
 393              	.LVL31:
1969:Drivers/CMSIS/Include/cmsis_gcc.h ****   return(result);
 394              		.loc 2 1969 3 discriminator 1 view .LVU130
 395              		.loc 2 1969 3 is_stmt 0 discriminator 1 view .LVU131
 396              		.thumb
 397              		.syntax unified
 398              	.LBE231:
 399              	.LBE230:
 252:Drivers/CMSIS/DSP/Source/TransformFunctions/arm_cfft_radix4_q15.c **** 
 253:Drivers/CMSIS/DSP/Source/TransformFunctions/arm_cfft_radix4_q15.c **** #else
 254:Drivers/CMSIS/DSP/Source/TransformFunctions/arm_cfft_radix4_q15.c **** 
 255:Drivers/CMSIS/DSP/Source/TransformFunctions/arm_cfft_radix4_q15.c ****     /* xc' = (ya-yb+yc-yd)* co2 - (xa-xb+xc-xd)* (si2) */
 256:Drivers/CMSIS/DSP/Source/TransformFunctions/arm_cfft_radix4_q15.c ****     out1 = __SMUSDX(R, C2) >> 16U;
 257:Drivers/CMSIS/DSP/Source/TransformFunctions/arm_cfft_radix4_q15.c ****     /* yc' = (xa-xb+xc-xd)* co2 + (ya-yb+yc-yd)* (si2) */
 258:Drivers/CMSIS/DSP/Source/TransformFunctions/arm_cfft_radix4_q15.c ****     out2 = __SMUAD(C2, R);
 259:Drivers/CMSIS/DSP/Source/TransformFunctions/arm_cfft_radix4_q15.c **** 
 260:Drivers/CMSIS/DSP/Source/TransformFunctions/arm_cfft_radix4_q15.c **** #endif /*      #ifndef ARM_MATH_BIG_ENDIAN     */
 261:Drivers/CMSIS/DSP/Source/TransformFunctions/arm_cfft_radix4_q15.c **** 
 262:Drivers/CMSIS/DSP/Source/TransformFunctions/arm_cfft_radix4_q15.c ****     /*  Reading i0+fftLen/4 */
 263:Drivers/CMSIS/DSP/Source/TransformFunctions/arm_cfft_radix4_q15.c ****     /* T = packed(yb, xb) */
ARM GAS  C:\Users\17832\AppData\Local\Temp\ccyMtfRp.s 			page 48


 264:Drivers/CMSIS/DSP/Source/TransformFunctions/arm_cfft_radix4_q15.c ****     T = _SIMD32_OFFSET(pSi1);
 400              		.loc 1 264 5 is_stmt 1 discriminator 1 view .LVU132
 401              		.loc 1 264 7 is_stmt 0 discriminator 1 view .LVU133
 402 0078 2368     		ldr	r3, [r4]
 403              	.LVL32:
 265:Drivers/CMSIS/DSP/Source/TransformFunctions/arm_cfft_radix4_q15.c ****     T = __SHADD16(T, 0);
 404              		.loc 1 265 5 is_stmt 1 discriminator 1 view .LVU134
 405              	.LBB232:
 406              	.LBI232:
1652:Drivers/CMSIS/Include/cmsis_gcc.h **** {
 407              		.loc 2 1652 31 discriminator 1 view .LVU135
 408              	.LBB233:
1654:Drivers/CMSIS/Include/cmsis_gcc.h **** 
 409              		.loc 2 1654 3 discriminator 1 view .LVU136
1656:Drivers/CMSIS/Include/cmsis_gcc.h ****   return(result);
 410              		.loc 2 1656 3 discriminator 1 view .LVU137
 411              		.syntax unified
 412              	@ 1656 "Drivers/CMSIS/Include/cmsis_gcc.h" 1
 413 007a 93FA22F3 		shadd16 r3, r3, r2
 414              	@ 0 "" 2
 415              	.LVL33:
1657:Drivers/CMSIS/Include/cmsis_gcc.h **** }
 416              		.loc 2 1657 3 discriminator 1 view .LVU138
1657:Drivers/CMSIS/Include/cmsis_gcc.h **** }
 417              		.loc 2 1657 3 is_stmt 0 discriminator 1 view .LVU139
 418              		.thumb
 419              		.syntax unified
 420              	.LBE233:
 421              	.LBE232:
 266:Drivers/CMSIS/DSP/Source/TransformFunctions/arm_cfft_radix4_q15.c ****     T = __SHADD16(T, 0);
 422              		.loc 1 266 5 is_stmt 1 discriminator 1 view .LVU140
 423              	.LBB234:
 424              	.LBI234:
1652:Drivers/CMSIS/Include/cmsis_gcc.h **** {
 425              		.loc 2 1652 31 discriminator 1 view .LVU141
 426              	.LBB235:
1654:Drivers/CMSIS/Include/cmsis_gcc.h **** 
 427              		.loc 2 1654 3 discriminator 1 view .LVU142
1656:Drivers/CMSIS/Include/cmsis_gcc.h ****   return(result);
 428              		.loc 2 1656 3 discriminator 1 view .LVU143
 429              		.syntax unified
 430              	@ 1656 "Drivers/CMSIS/Include/cmsis_gcc.h" 1
 431 007e 93FA22F8 		shadd16 r8, r3, r2
 432              	@ 0 "" 2
 433              	.LVL34:
1657:Drivers/CMSIS/Include/cmsis_gcc.h **** }
 434              		.loc 2 1657 3 discriminator 1 view .LVU144
1657:Drivers/CMSIS/Include/cmsis_gcc.h **** }
 435              		.loc 2 1657 3 is_stmt 0 discriminator 1 view .LVU145
 436              		.thumb
 437              		.syntax unified
 438              	.LBE235:
 439              	.LBE234:
 267:Drivers/CMSIS/DSP/Source/TransformFunctions/arm_cfft_radix4_q15.c **** 
 268:Drivers/CMSIS/DSP/Source/TransformFunctions/arm_cfft_radix4_q15.c ****     /* writing the butterfly processed i0 + fftLen/4 sample */
 269:Drivers/CMSIS/DSP/Source/TransformFunctions/arm_cfft_radix4_q15.c ****     /* writing output(xc', yc') in little endian format */
 270:Drivers/CMSIS/DSP/Source/TransformFunctions/arm_cfft_radix4_q15.c ****     _SIMD32_OFFSET(pSi1) =
ARM GAS  C:\Users\17832\AppData\Local\Temp\ccyMtfRp.s 			page 49


 440              		.loc 1 270 5 is_stmt 1 discriminator 1 view .LVU146
 271:Drivers/CMSIS/DSP/Source/TransformFunctions/arm_cfft_radix4_q15.c ****       (q31_t) ((out2) & 0xFFFF0000) | (out1 & 0x0000FFFF);
 441              		.loc 1 271 7 is_stmt 0 discriminator 1 view .LVU147
 442 0082 4FEA1B43 		lsr	r3, fp, #16
 443 0086 1B04     		lsls	r3, r3, #16
 444              		.loc 1 271 37 discriminator 1 view .LVU148
 445 0088 43EA0A03 		orr	r3, r3, r10
 270:Drivers/CMSIS/DSP/Source/TransformFunctions/arm_cfft_radix4_q15.c ****       (q31_t) ((out2) & 0xFFFF0000) | (out1 & 0x0000FFFF);
 446              		.loc 1 270 26 discriminator 1 view .LVU149
 447 008c 44F8043B 		str	r3, [r4], #4
 448              	.LVL35:
 272:Drivers/CMSIS/DSP/Source/TransformFunctions/arm_cfft_radix4_q15.c ****     pSi1 += 2;
 449              		.loc 1 272 5 is_stmt 1 discriminator 1 view .LVU150
 273:Drivers/CMSIS/DSP/Source/TransformFunctions/arm_cfft_radix4_q15.c **** 
 274:Drivers/CMSIS/DSP/Source/TransformFunctions/arm_cfft_radix4_q15.c ****     /*  Butterfly calculations */
 275:Drivers/CMSIS/DSP/Source/TransformFunctions/arm_cfft_radix4_q15.c ****     /* U = packed(yd, xd) */
 276:Drivers/CMSIS/DSP/Source/TransformFunctions/arm_cfft_radix4_q15.c ****     U = _SIMD32_OFFSET(pSi3);
 450              		.loc 1 276 5 discriminator 1 view .LVU151
 451              		.loc 1 276 7 is_stmt 0 discriminator 1 view .LVU152
 452 0090 0368     		ldr	r3, [r0]
 453              	.LVL36:
 277:Drivers/CMSIS/DSP/Source/TransformFunctions/arm_cfft_radix4_q15.c ****     U = __SHADD16(U, 0);
 454              		.loc 1 277 5 is_stmt 1 discriminator 1 view .LVU153
 455              	.LBB236:
 456              	.LBI236:
1652:Drivers/CMSIS/Include/cmsis_gcc.h **** {
 457              		.loc 2 1652 31 discriminator 1 view .LVU154
 458              	.LBB237:
1654:Drivers/CMSIS/Include/cmsis_gcc.h **** 
 459              		.loc 2 1654 3 discriminator 1 view .LVU155
1656:Drivers/CMSIS/Include/cmsis_gcc.h ****   return(result);
 460              		.loc 2 1656 3 discriminator 1 view .LVU156
 461              		.syntax unified
 462              	@ 1656 "Drivers/CMSIS/Include/cmsis_gcc.h" 1
 463 0092 93FA22F3 		shadd16 r3, r3, r2
 464              	@ 0 "" 2
 465              	.LVL37:
1657:Drivers/CMSIS/Include/cmsis_gcc.h **** }
 466              		.loc 2 1657 3 discriminator 1 view .LVU157
1657:Drivers/CMSIS/Include/cmsis_gcc.h **** }
 467              		.loc 2 1657 3 is_stmt 0 discriminator 1 view .LVU158
 468              		.thumb
 469              		.syntax unified
 470              	.LBE237:
 471              	.LBE236:
 278:Drivers/CMSIS/DSP/Source/TransformFunctions/arm_cfft_radix4_q15.c ****     U = __SHADD16(U, 0);
 472              		.loc 1 278 5 is_stmt 1 discriminator 1 view .LVU159
 473              	.LBB238:
 474              	.LBI238:
1652:Drivers/CMSIS/Include/cmsis_gcc.h **** {
 475              		.loc 2 1652 31 discriminator 1 view .LVU160
 476              	.LBB239:
1654:Drivers/CMSIS/Include/cmsis_gcc.h **** 
 477              		.loc 2 1654 3 discriminator 1 view .LVU161
1656:Drivers/CMSIS/Include/cmsis_gcc.h ****   return(result);
 478              		.loc 2 1656 3 discriminator 1 view .LVU162
 479              		.syntax unified
ARM GAS  C:\Users\17832\AppData\Local\Temp\ccyMtfRp.s 			page 50


 480              	@ 1656 "Drivers/CMSIS/Include/cmsis_gcc.h" 1
 481 0096 93FA22F2 		shadd16 r2, r3, r2
 482              	@ 0 "" 2
 483              	.LVL38:
1657:Drivers/CMSIS/Include/cmsis_gcc.h **** }
 484              		.loc 2 1657 3 discriminator 1 view .LVU163
1657:Drivers/CMSIS/Include/cmsis_gcc.h **** }
 485              		.loc 2 1657 3 is_stmt 0 discriminator 1 view .LVU164
 486              		.thumb
 487              		.syntax unified
 488              	.LBE239:
 489              	.LBE238:
 279:Drivers/CMSIS/DSP/Source/TransformFunctions/arm_cfft_radix4_q15.c **** 
 280:Drivers/CMSIS/DSP/Source/TransformFunctions/arm_cfft_radix4_q15.c ****     /* T = packed(yb-yd, xb-xd) */
 281:Drivers/CMSIS/DSP/Source/TransformFunctions/arm_cfft_radix4_q15.c ****     T = __QSUB16(T, U);
 490              		.loc 1 281 5 is_stmt 1 discriminator 1 view .LVU165
 491              	.LBB240:
 492              	.LBI240:
1692:Drivers/CMSIS/Include/cmsis_gcc.h **** {
 493              		.loc 2 1692 31 discriminator 1 view .LVU166
 494              	.LBB241:
1694:Drivers/CMSIS/Include/cmsis_gcc.h **** 
 495              		.loc 2 1694 3 discriminator 1 view .LVU167
1696:Drivers/CMSIS/Include/cmsis_gcc.h ****   return(result);
 496              		.loc 2 1696 3 discriminator 1 view .LVU168
 497              		.syntax unified
 498              	@ 1696 "Drivers/CMSIS/Include/cmsis_gcc.h" 1
 499 009a D8FA12F3 		qsub16 r3, r8, r2
 500              	@ 0 "" 2
 501              	.LVL39:
1697:Drivers/CMSIS/Include/cmsis_gcc.h **** }
 502              		.loc 2 1697 3 discriminator 1 view .LVU169
1697:Drivers/CMSIS/Include/cmsis_gcc.h **** }
 503              		.loc 2 1697 3 is_stmt 0 discriminator 1 view .LVU170
 504              		.thumb
 505              		.syntax unified
 506              	.LBE241:
 507              	.LBE240:
 282:Drivers/CMSIS/DSP/Source/TransformFunctions/arm_cfft_radix4_q15.c **** 
 283:Drivers/CMSIS/DSP/Source/TransformFunctions/arm_cfft_radix4_q15.c **** #ifndef ARM_MATH_BIG_ENDIAN
 284:Drivers/CMSIS/DSP/Source/TransformFunctions/arm_cfft_radix4_q15.c **** 
 285:Drivers/CMSIS/DSP/Source/TransformFunctions/arm_cfft_radix4_q15.c ****     /* R = packed((ya-yc) + (xb- xd) , (xa-xc) - (yb-yd)) */
 286:Drivers/CMSIS/DSP/Source/TransformFunctions/arm_cfft_radix4_q15.c ****     R = __QASX(S, T);
 508              		.loc 1 286 5 is_stmt 1 discriminator 1 view .LVU171
 509              	.LBB242:
 510              	.LBI242:
1740:Drivers/CMSIS/Include/cmsis_gcc.h **** {
 511              		.loc 2 1740 31 discriminator 1 view .LVU172
 512              	.LBB243:
1742:Drivers/CMSIS/Include/cmsis_gcc.h **** 
 513              		.loc 2 1742 3 discriminator 1 view .LVU173
1744:Drivers/CMSIS/Include/cmsis_gcc.h ****   return(result);
 514              		.loc 2 1744 3 discriminator 1 view .LVU174
 515              		.syntax unified
 516              	@ 1744 "Drivers/CMSIS/Include/cmsis_gcc.h" 1
 517 009e AEFA13F2 		qasx r2, lr, r3
 518              	@ 0 "" 2
ARM GAS  C:\Users\17832\AppData\Local\Temp\ccyMtfRp.s 			page 51


 519              	.LVL40:
1745:Drivers/CMSIS/Include/cmsis_gcc.h **** }
 520              		.loc 2 1745 3 discriminator 1 view .LVU175
1745:Drivers/CMSIS/Include/cmsis_gcc.h **** }
 521              		.loc 2 1745 3 is_stmt 0 discriminator 1 view .LVU176
 522              		.thumb
 523              		.syntax unified
 524              	.LBE243:
 525              	.LBE242:
 287:Drivers/CMSIS/DSP/Source/TransformFunctions/arm_cfft_radix4_q15.c ****     /* S = packed((ya-yc) - (xb- xd),  (xa-xc) + (yb-yd)) */
 288:Drivers/CMSIS/DSP/Source/TransformFunctions/arm_cfft_radix4_q15.c ****     S = __QSAX(S, T);
 526              		.loc 1 288 5 is_stmt 1 discriminator 1 view .LVU177
 527              	.LBB244:
 528              	.LBI244:
1788:Drivers/CMSIS/Include/cmsis_gcc.h **** {
 529              		.loc 2 1788 31 discriminator 1 view .LVU178
 530              	.LBB245:
1790:Drivers/CMSIS/Include/cmsis_gcc.h **** 
 531              		.loc 2 1790 3 discriminator 1 view .LVU179
1792:Drivers/CMSIS/Include/cmsis_gcc.h ****   return(result);
 532              		.loc 2 1792 3 discriminator 1 view .LVU180
 533              		.syntax unified
 534              	@ 1792 "Drivers/CMSIS/Include/cmsis_gcc.h" 1
 535 00a2 EEFA13FE 		qsax lr, lr, r3
 536              	@ 0 "" 2
 537              	.LVL41:
1793:Drivers/CMSIS/Include/cmsis_gcc.h **** }
 538              		.loc 2 1793 3 discriminator 1 view .LVU181
1793:Drivers/CMSIS/Include/cmsis_gcc.h **** }
 539              		.loc 2 1793 3 is_stmt 0 discriminator 1 view .LVU182
 540              		.thumb
 541              		.syntax unified
 542              	.LBE245:
 543              	.LBE244:
 289:Drivers/CMSIS/DSP/Source/TransformFunctions/arm_cfft_radix4_q15.c **** 
 290:Drivers/CMSIS/DSP/Source/TransformFunctions/arm_cfft_radix4_q15.c **** #else
 291:Drivers/CMSIS/DSP/Source/TransformFunctions/arm_cfft_radix4_q15.c **** 
 292:Drivers/CMSIS/DSP/Source/TransformFunctions/arm_cfft_radix4_q15.c ****     /* R = packed((ya-yc) + (xb- xd) , (xa-xc) - (yb-yd)) */
 293:Drivers/CMSIS/DSP/Source/TransformFunctions/arm_cfft_radix4_q15.c ****     R = __QSAX(S, T);
 294:Drivers/CMSIS/DSP/Source/TransformFunctions/arm_cfft_radix4_q15.c ****     /* S = packed((ya-yc) - (xb- xd),  (xa-xc) + (yb-yd)) */
 295:Drivers/CMSIS/DSP/Source/TransformFunctions/arm_cfft_radix4_q15.c ****     S = __QASX(S, T);
 296:Drivers/CMSIS/DSP/Source/TransformFunctions/arm_cfft_radix4_q15.c **** 
 297:Drivers/CMSIS/DSP/Source/TransformFunctions/arm_cfft_radix4_q15.c **** #endif /*      #ifndef ARM_MATH_BIG_ENDIAN     */
 298:Drivers/CMSIS/DSP/Source/TransformFunctions/arm_cfft_radix4_q15.c **** 
 299:Drivers/CMSIS/DSP/Source/TransformFunctions/arm_cfft_radix4_q15.c ****     /* co1 & si1 are read from SIMD Coefficient pointer */
 300:Drivers/CMSIS/DSP/Source/TransformFunctions/arm_cfft_radix4_q15.c ****     C1 = _SIMD32_OFFSET(pCoef16 + (2U * ic));
 544              		.loc 1 300 5 is_stmt 1 discriminator 1 view .LVU183
 545              		.loc 1 300 8 is_stmt 0 discriminator 1 view .LVU184
 546 00a6 5CF82130 		ldr	r3, [ip, r1, lsl #2]
 547              	.LVL42:
 301:Drivers/CMSIS/DSP/Source/TransformFunctions/arm_cfft_radix4_q15.c ****     /*  Butterfly process for the i0+fftLen/2 sample */
 302:Drivers/CMSIS/DSP/Source/TransformFunctions/arm_cfft_radix4_q15.c **** 
 303:Drivers/CMSIS/DSP/Source/TransformFunctions/arm_cfft_radix4_q15.c **** #ifndef ARM_MATH_BIG_ENDIAN
 304:Drivers/CMSIS/DSP/Source/TransformFunctions/arm_cfft_radix4_q15.c **** 
 305:Drivers/CMSIS/DSP/Source/TransformFunctions/arm_cfft_radix4_q15.c ****     /* xb' = (xa+yb-xc-yd)* co1 + (ya-xb-yc+xd)* (si1) */
 306:Drivers/CMSIS/DSP/Source/TransformFunctions/arm_cfft_radix4_q15.c ****     out1 = __SMUAD(C1, S) >> 16U;
 548              		.loc 1 306 5 is_stmt 1 discriminator 1 view .LVU185
ARM GAS  C:\Users\17832\AppData\Local\Temp\ccyMtfRp.s 			page 52


 549              	.LBB246:
 550              	.LBI246:
1890:Drivers/CMSIS/Include/cmsis_gcc.h **** {
 551              		.loc 2 1890 31 discriminator 1 view .LVU186
 552              	.LBB247:
1892:Drivers/CMSIS/Include/cmsis_gcc.h **** 
 553              		.loc 2 1892 3 discriminator 1 view .LVU187
1894:Drivers/CMSIS/Include/cmsis_gcc.h ****   return(result);
 554              		.loc 2 1894 3 discriminator 1 view .LVU188
 555              		.syntax unified
 556              	@ 1894 "Drivers/CMSIS/Include/cmsis_gcc.h" 1
 557 00aa 23FB0EF8 		smuad r8, r3, lr
 558              	@ 0 "" 2
 559              	.LVL43:
1895:Drivers/CMSIS/Include/cmsis_gcc.h **** }
 560              		.loc 2 1895 3 discriminator 1 view .LVU189
1895:Drivers/CMSIS/Include/cmsis_gcc.h **** }
 561              		.loc 2 1895 3 is_stmt 0 discriminator 1 view .LVU190
 562              		.thumb
 563              		.syntax unified
 564              	.LBE247:
 565              	.LBE246:
 566              		.loc 1 306 27 discriminator 1 view .LVU191
 567 00ae 4FEA1848 		lsr	r8, r8, #16
 568              	.LVL44:
 307:Drivers/CMSIS/DSP/Source/TransformFunctions/arm_cfft_radix4_q15.c ****     /* yb' = (ya-xb-yc+xd)* co1 - (xa+yb-xc-yd)* (si1) */
 308:Drivers/CMSIS/DSP/Source/TransformFunctions/arm_cfft_radix4_q15.c ****     out2 = __SMUSDX(C1, S);
 569              		.loc 1 308 5 is_stmt 1 discriminator 1 view .LVU192
 570              	.LBB248:
 571              	.LBI248:
1964:Drivers/CMSIS/Include/cmsis_gcc.h **** {
 572              		.loc 2 1964 31 discriminator 1 view .LVU193
 573              	.LBB249:
1966:Drivers/CMSIS/Include/cmsis_gcc.h **** 
 574              		.loc 2 1966 3 discriminator 1 view .LVU194
1968:Drivers/CMSIS/Include/cmsis_gcc.h ****   return(result);
 575              		.loc 2 1968 3 discriminator 1 view .LVU195
 576              		.syntax unified
 577              	@ 1968 "Drivers/CMSIS/Include/cmsis_gcc.h" 1
 578 00b2 43FB1EF3 		smusdx r3, r3, lr
 579              	@ 0 "" 2
 580              	.LVL45:
 581              		.loc 2 1969 3 discriminator 1 view .LVU196
 582              		.loc 2 1969 3 is_stmt 0 discriminator 1 view .LVU197
 583              		.thumb
 584              		.syntax unified
 585              	.LBE249:
 586              	.LBE248:
 309:Drivers/CMSIS/DSP/Source/TransformFunctions/arm_cfft_radix4_q15.c **** 
 310:Drivers/CMSIS/DSP/Source/TransformFunctions/arm_cfft_radix4_q15.c **** #else
 311:Drivers/CMSIS/DSP/Source/TransformFunctions/arm_cfft_radix4_q15.c **** 
 312:Drivers/CMSIS/DSP/Source/TransformFunctions/arm_cfft_radix4_q15.c ****     /* xb' = (ya-xb-yc+xd)* co1 - (xa+yb-xc-yd)* (si1) */
 313:Drivers/CMSIS/DSP/Source/TransformFunctions/arm_cfft_radix4_q15.c ****     out1 = __SMUSDX(S, C1) >> 16U;
 314:Drivers/CMSIS/DSP/Source/TransformFunctions/arm_cfft_radix4_q15.c ****     /* yb' = (xa+yb-xc-yd)* co1 + (ya-xb-yc+xd)* (si1) */
 315:Drivers/CMSIS/DSP/Source/TransformFunctions/arm_cfft_radix4_q15.c ****     out2 = __SMUAD(C1, S);
 316:Drivers/CMSIS/DSP/Source/TransformFunctions/arm_cfft_radix4_q15.c **** 
 317:Drivers/CMSIS/DSP/Source/TransformFunctions/arm_cfft_radix4_q15.c **** #endif /*      #ifndef ARM_MATH_BIG_ENDIAN     */
ARM GAS  C:\Users\17832\AppData\Local\Temp\ccyMtfRp.s 			page 53


 318:Drivers/CMSIS/DSP/Source/TransformFunctions/arm_cfft_radix4_q15.c **** 
 319:Drivers/CMSIS/DSP/Source/TransformFunctions/arm_cfft_radix4_q15.c ****     /* writing output(xb', yb') in little endian format */
 320:Drivers/CMSIS/DSP/Source/TransformFunctions/arm_cfft_radix4_q15.c ****     _SIMD32_OFFSET(pSi2) =
 587              		.loc 1 320 5 is_stmt 1 discriminator 1 view .LVU198
 321:Drivers/CMSIS/DSP/Source/TransformFunctions/arm_cfft_radix4_q15.c ****       ((out2) & 0xFFFF0000) | ((out1) & 0x0000FFFF);
 588              		.loc 1 321 15 is_stmt 0 discriminator 1 view .LVU199
 589 00b6 1B0C     		lsrs	r3, r3, #16
 590              	.LVL46:
 591              		.loc 1 321 15 discriminator 1 view .LVU200
 592 00b8 1B04     		lsls	r3, r3, #16
 593              		.loc 1 321 29 discriminator 1 view .LVU201
 594 00ba 48EA0303 		orr	r3, r8, r3
 320:Drivers/CMSIS/DSP/Source/TransformFunctions/arm_cfft_radix4_q15.c ****       ((out2) & 0xFFFF0000) | ((out1) & 0x0000FFFF);
 595              		.loc 1 320 26 discriminator 1 view .LVU202
 596 00be 45F8043B 		str	r3, [r5], #4
 597              	.LVL47:
 322:Drivers/CMSIS/DSP/Source/TransformFunctions/arm_cfft_radix4_q15.c ****     pSi2 += 2;
 598              		.loc 1 322 5 is_stmt 1 discriminator 1 view .LVU203
 323:Drivers/CMSIS/DSP/Source/TransformFunctions/arm_cfft_radix4_q15.c **** 
 324:Drivers/CMSIS/DSP/Source/TransformFunctions/arm_cfft_radix4_q15.c **** 
 325:Drivers/CMSIS/DSP/Source/TransformFunctions/arm_cfft_radix4_q15.c ****     /* co3 & si3 are read from SIMD Coefficient pointer */
 326:Drivers/CMSIS/DSP/Source/TransformFunctions/arm_cfft_radix4_q15.c ****     C3 = _SIMD32_OFFSET(pCoef16 + (6U * ic));
 599              		.loc 1 326 5 discriminator 1 view .LVU204
 600              		.loc 1 326 10 is_stmt 0 discriminator 1 view .LVU205
 601 00c2 01EB4103 		add	r3, r1, r1, lsl #1
 602              		.loc 1 326 8 discriminator 1 view .LVU206
 603 00c6 5CF82330 		ldr	r3, [ip, r3, lsl #2]
 604              	.LVL48:
 327:Drivers/CMSIS/DSP/Source/TransformFunctions/arm_cfft_radix4_q15.c ****     /*  Butterfly process for the i0+3fftLen/4 sample */
 328:Drivers/CMSIS/DSP/Source/TransformFunctions/arm_cfft_radix4_q15.c **** 
 329:Drivers/CMSIS/DSP/Source/TransformFunctions/arm_cfft_radix4_q15.c **** #ifndef ARM_MATH_BIG_ENDIAN
 330:Drivers/CMSIS/DSP/Source/TransformFunctions/arm_cfft_radix4_q15.c **** 
 331:Drivers/CMSIS/DSP/Source/TransformFunctions/arm_cfft_radix4_q15.c ****     /* xd' = (xa-yb-xc+yd)* co3 + (ya+xb-yc-xd)* (si3) */
 332:Drivers/CMSIS/DSP/Source/TransformFunctions/arm_cfft_radix4_q15.c ****     out1 = __SMUAD(C3, R) >> 16U;
 605              		.loc 1 332 5 is_stmt 1 discriminator 1 view .LVU207
 606              	.LBB250:
 607              	.LBI250:
1890:Drivers/CMSIS/Include/cmsis_gcc.h **** {
 608              		.loc 2 1890 31 discriminator 1 view .LVU208
 609              	.LBB251:
1892:Drivers/CMSIS/Include/cmsis_gcc.h **** 
 610              		.loc 2 1892 3 discriminator 1 view .LVU209
1894:Drivers/CMSIS/Include/cmsis_gcc.h ****   return(result);
 611              		.loc 2 1894 3 discriminator 1 view .LVU210
 612              		.syntax unified
 613              	@ 1894 "Drivers/CMSIS/Include/cmsis_gcc.h" 1
 614 00ca 23FB02FE 		smuad lr, r3, r2
 615              	@ 0 "" 2
 616              	.LVL49:
1895:Drivers/CMSIS/Include/cmsis_gcc.h **** }
 617              		.loc 2 1895 3 discriminator 1 view .LVU211
1895:Drivers/CMSIS/Include/cmsis_gcc.h **** }
 618              		.loc 2 1895 3 is_stmt 0 discriminator 1 view .LVU212
 619              		.thumb
 620              		.syntax unified
 621              	.LBE251:
 622              	.LBE250:
ARM GAS  C:\Users\17832\AppData\Local\Temp\ccyMtfRp.s 			page 54


 623              		.loc 1 332 27 discriminator 1 view .LVU213
 624 00ce 4FEA1E4E 		lsr	lr, lr, #16
 625              	.LVL50:
 333:Drivers/CMSIS/DSP/Source/TransformFunctions/arm_cfft_radix4_q15.c ****     /* yd' = (ya+xb-yc-xd)* co3 - (xa-yb-xc+yd)* (si3) */
 334:Drivers/CMSIS/DSP/Source/TransformFunctions/arm_cfft_radix4_q15.c ****     out2 = __SMUSDX(C3, R);
 626              		.loc 1 334 5 is_stmt 1 discriminator 1 view .LVU214
 627              	.LBB252:
 628              	.LBI252:
1964:Drivers/CMSIS/Include/cmsis_gcc.h **** {
 629              		.loc 2 1964 31 discriminator 1 view .LVU215
 630              	.LBB253:
1966:Drivers/CMSIS/Include/cmsis_gcc.h **** 
 631              		.loc 2 1966 3 discriminator 1 view .LVU216
1968:Drivers/CMSIS/Include/cmsis_gcc.h ****   return(result);
 632              		.loc 2 1968 3 discriminator 1 view .LVU217
 633              		.syntax unified
 634              	@ 1968 "Drivers/CMSIS/Include/cmsis_gcc.h" 1
 635 00d2 43FB12F3 		smusdx r3, r3, r2
 636              	@ 0 "" 2
 637              	.LVL51:
 638              		.loc 2 1969 3 discriminator 1 view .LVU218
 639              		.loc 2 1969 3 is_stmt 0 discriminator 1 view .LVU219
 640              		.thumb
 641              		.syntax unified
 642              	.LBE253:
 643              	.LBE252:
 335:Drivers/CMSIS/DSP/Source/TransformFunctions/arm_cfft_radix4_q15.c **** 
 336:Drivers/CMSIS/DSP/Source/TransformFunctions/arm_cfft_radix4_q15.c **** #else
 337:Drivers/CMSIS/DSP/Source/TransformFunctions/arm_cfft_radix4_q15.c **** 
 338:Drivers/CMSIS/DSP/Source/TransformFunctions/arm_cfft_radix4_q15.c ****     /* xd' = (ya+xb-yc-xd)* co3 - (xa-yb-xc+yd)* (si3) */
 339:Drivers/CMSIS/DSP/Source/TransformFunctions/arm_cfft_radix4_q15.c ****     out1 = __SMUSDX(R, C3) >> 16U;
 340:Drivers/CMSIS/DSP/Source/TransformFunctions/arm_cfft_radix4_q15.c ****     /* yd' = (xa-yb-xc+yd)* co3 + (ya+xb-yc-xd)* (si3) */
 341:Drivers/CMSIS/DSP/Source/TransformFunctions/arm_cfft_radix4_q15.c ****     out2 = __SMUAD(C3, R);
 342:Drivers/CMSIS/DSP/Source/TransformFunctions/arm_cfft_radix4_q15.c **** 
 343:Drivers/CMSIS/DSP/Source/TransformFunctions/arm_cfft_radix4_q15.c **** #endif /*      #ifndef ARM_MATH_BIG_ENDIAN     */
 344:Drivers/CMSIS/DSP/Source/TransformFunctions/arm_cfft_radix4_q15.c **** 
 345:Drivers/CMSIS/DSP/Source/TransformFunctions/arm_cfft_radix4_q15.c ****     /* writing output(xd', yd') in little endian format */
 346:Drivers/CMSIS/DSP/Source/TransformFunctions/arm_cfft_radix4_q15.c ****     _SIMD32_OFFSET(pSi3) =
 644              		.loc 1 346 5 is_stmt 1 discriminator 1 view .LVU220
 347:Drivers/CMSIS/DSP/Source/TransformFunctions/arm_cfft_radix4_q15.c ****       ((out2) & 0xFFFF0000) | (out1 & 0x0000FFFF);
 645              		.loc 1 347 15 is_stmt 0 discriminator 1 view .LVU221
 646 00d6 1B0C     		lsrs	r3, r3, #16
 647              	.LVL52:
 648              		.loc 1 347 15 discriminator 1 view .LVU222
 649 00d8 1B04     		lsls	r3, r3, #16
 650              		.loc 1 347 29 discriminator 1 view .LVU223
 651 00da 4EEA0303 		orr	r3, lr, r3
 346:Drivers/CMSIS/DSP/Source/TransformFunctions/arm_cfft_radix4_q15.c ****       ((out2) & 0xFFFF0000) | (out1 & 0x0000FFFF);
 652              		.loc 1 346 26 discriminator 1 view .LVU224
 653 00de 40F8043B 		str	r3, [r0], #4
 654              	.LVL53:
 348:Drivers/CMSIS/DSP/Source/TransformFunctions/arm_cfft_radix4_q15.c ****     pSi3 += 2;
 655              		.loc 1 348 5 is_stmt 1 discriminator 1 view .LVU225
 349:Drivers/CMSIS/DSP/Source/TransformFunctions/arm_cfft_radix4_q15.c **** 
 350:Drivers/CMSIS/DSP/Source/TransformFunctions/arm_cfft_radix4_q15.c ****     /*  Twiddle coefficients index modifier */
 351:Drivers/CMSIS/DSP/Source/TransformFunctions/arm_cfft_radix4_q15.c ****     ic = ic + twidCoefModifier;
 656              		.loc 1 351 5 discriminator 1 view .LVU226
ARM GAS  C:\Users\17832\AppData\Local\Temp\ccyMtfRp.s 			page 55


 657              		.loc 1 351 8 is_stmt 0 discriminator 1 view .LVU227
 658 00e2 4944     		add	r1, r1, r9
 659              	.LVL54:
 352:Drivers/CMSIS/DSP/Source/TransformFunctions/arm_cfft_radix4_q15.c **** 
 353:Drivers/CMSIS/DSP/Source/TransformFunctions/arm_cfft_radix4_q15.c ****   } while (--j);
 660              		.loc 1 353 11 is_stmt 1 discriminator 1 view .LVU228
 661              		.loc 1 353 3 is_stmt 0 discriminator 1 view .LVU229
 662 00e4 013F     		subs	r7, r7, #1
 663              	.LVL55:
 664              		.loc 1 353 3 discriminator 1 view .LVU230
 665 00e6 9ED1     		bne	.L2
 354:Drivers/CMSIS/DSP/Source/TransformFunctions/arm_cfft_radix4_q15.c ****   /* data is in 4.11(q11) format */
 355:Drivers/CMSIS/DSP/Source/TransformFunctions/arm_cfft_radix4_q15.c **** 
 356:Drivers/CMSIS/DSP/Source/TransformFunctions/arm_cfft_radix4_q15.c ****   /* end of first stage process */
 357:Drivers/CMSIS/DSP/Source/TransformFunctions/arm_cfft_radix4_q15.c **** 
 358:Drivers/CMSIS/DSP/Source/TransformFunctions/arm_cfft_radix4_q15.c **** 
 359:Drivers/CMSIS/DSP/Source/TransformFunctions/arm_cfft_radix4_q15.c ****   /* start of middle stage process */
 360:Drivers/CMSIS/DSP/Source/TransformFunctions/arm_cfft_radix4_q15.c **** 
 361:Drivers/CMSIS/DSP/Source/TransformFunctions/arm_cfft_radix4_q15.c ****   /*  Twiddle coefficients index modifier */
 362:Drivers/CMSIS/DSP/Source/TransformFunctions/arm_cfft_radix4_q15.c ****   twidCoefModifier <<= 2U;
 666              		.loc 1 362 20 view .LVU231
 667 00e8 0897     		str	r7, [sp, #32]
 668              		.loc 1 362 3 is_stmt 1 view .LVU232
 669              		.loc 1 362 20 is_stmt 0 view .LVU233
 670 00ea 4FEA8903 		lsl	r3, r9, #2
 671 00ee 0493     		str	r3, [sp, #16]
 672              	.LVL56:
 363:Drivers/CMSIS/DSP/Source/TransformFunctions/arm_cfft_radix4_q15.c **** 
 364:Drivers/CMSIS/DSP/Source/TransformFunctions/arm_cfft_radix4_q15.c ****   /*  Calculation of Middle stage */
 365:Drivers/CMSIS/DSP/Source/TransformFunctions/arm_cfft_radix4_q15.c ****   for (k = fftLen / 4U; k > 4U; k >>= 2U)
 673              		.loc 1 365 3 is_stmt 1 view .LVU234
 674              		.loc 1 365 10 is_stmt 0 view .LVU235
 675 00f0 009B     		ldr	r3, [sp]
 676              	.LVL57:
 677              		.loc 1 365 10 view .LVU236
 678 00f2 9B08     		lsrs	r3, r3, #2
 679 00f4 0793     		str	r3, [sp, #28]
 680              	.LVL58:
 181:Drivers/CMSIS/DSP/Source/TransformFunctions/arm_cfft_radix4_q15.c **** 
 681              		.loc 1 181 6 view .LVU237
 682 00f6 DDF82480 		ldr	r8, [sp, #36]
 683              		.loc 1 365 3 view .LVU238
 684 00fa 6BE0     		b	.L3
 685              	.LVL59:
 686              	.L6:
 366:Drivers/CMSIS/DSP/Source/TransformFunctions/arm_cfft_radix4_q15.c ****   {
 367:Drivers/CMSIS/DSP/Source/TransformFunctions/arm_cfft_radix4_q15.c ****     /*  Initializations for the middle stage */
 368:Drivers/CMSIS/DSP/Source/TransformFunctions/arm_cfft_radix4_q15.c ****     n1 = n2;
 369:Drivers/CMSIS/DSP/Source/TransformFunctions/arm_cfft_radix4_q15.c ****     n2 >>= 2U;
 370:Drivers/CMSIS/DSP/Source/TransformFunctions/arm_cfft_radix4_q15.c ****     ic = 0U;
 371:Drivers/CMSIS/DSP/Source/TransformFunctions/arm_cfft_radix4_q15.c **** 
 372:Drivers/CMSIS/DSP/Source/TransformFunctions/arm_cfft_radix4_q15.c ****     for (j = 0U; j <= (n2 - 1U); j++)
 373:Drivers/CMSIS/DSP/Source/TransformFunctions/arm_cfft_radix4_q15.c ****     {
 374:Drivers/CMSIS/DSP/Source/TransformFunctions/arm_cfft_radix4_q15.c ****       /*  index calculation for the coefficients */
 375:Drivers/CMSIS/DSP/Source/TransformFunctions/arm_cfft_radix4_q15.c ****       C1 = _SIMD32_OFFSET(pCoef16 + (2U * ic));
 376:Drivers/CMSIS/DSP/Source/TransformFunctions/arm_cfft_radix4_q15.c ****       C2 = _SIMD32_OFFSET(pCoef16 + (4U * ic));
 377:Drivers/CMSIS/DSP/Source/TransformFunctions/arm_cfft_radix4_q15.c ****       C3 = _SIMD32_OFFSET(pCoef16 + (6U * ic));
ARM GAS  C:\Users\17832\AppData\Local\Temp\ccyMtfRp.s 			page 56


 378:Drivers/CMSIS/DSP/Source/TransformFunctions/arm_cfft_radix4_q15.c **** 
 379:Drivers/CMSIS/DSP/Source/TransformFunctions/arm_cfft_radix4_q15.c ****       /*  Twiddle coefficients index modifier */
 380:Drivers/CMSIS/DSP/Source/TransformFunctions/arm_cfft_radix4_q15.c ****       ic = ic + twidCoefModifier;
 381:Drivers/CMSIS/DSP/Source/TransformFunctions/arm_cfft_radix4_q15.c **** 
 382:Drivers/CMSIS/DSP/Source/TransformFunctions/arm_cfft_radix4_q15.c ****       pSi0 = pSrc16 + 2 * j;
 383:Drivers/CMSIS/DSP/Source/TransformFunctions/arm_cfft_radix4_q15.c ****       pSi1 = pSi0 + 2 * n2;
 384:Drivers/CMSIS/DSP/Source/TransformFunctions/arm_cfft_radix4_q15.c ****       pSi2 = pSi1 + 2 * n2;
 385:Drivers/CMSIS/DSP/Source/TransformFunctions/arm_cfft_radix4_q15.c ****       pSi3 = pSi2 + 2 * n2;
 386:Drivers/CMSIS/DSP/Source/TransformFunctions/arm_cfft_radix4_q15.c **** 
 387:Drivers/CMSIS/DSP/Source/TransformFunctions/arm_cfft_radix4_q15.c ****       /*  Butterfly implementation */
 388:Drivers/CMSIS/DSP/Source/TransformFunctions/arm_cfft_radix4_q15.c ****       for (i0 = j; i0 < fftLen; i0 += n1)
 389:Drivers/CMSIS/DSP/Source/TransformFunctions/arm_cfft_radix4_q15.c ****       {
 390:Drivers/CMSIS/DSP/Source/TransformFunctions/arm_cfft_radix4_q15.c ****         /*  Reading i0, i0+fftLen/2 inputs */
 391:Drivers/CMSIS/DSP/Source/TransformFunctions/arm_cfft_radix4_q15.c ****         /* Read ya (real), xa(imag) input */
 392:Drivers/CMSIS/DSP/Source/TransformFunctions/arm_cfft_radix4_q15.c ****         T = _SIMD32_OFFSET(pSi0);
 687              		.loc 1 392 9 is_stmt 1 discriminator 3 view .LVU239
 688              		.loc 1 392 11 is_stmt 0 discriminator 3 view .LVU240
 689 00fc 2268     		ldr	r2, [r4]
 690              	.LVL60:
 393:Drivers/CMSIS/DSP/Source/TransformFunctions/arm_cfft_radix4_q15.c **** 
 394:Drivers/CMSIS/DSP/Source/TransformFunctions/arm_cfft_radix4_q15.c ****         /* Read yc (real), xc(imag) input */
 395:Drivers/CMSIS/DSP/Source/TransformFunctions/arm_cfft_radix4_q15.c ****         S = _SIMD32_OFFSET(pSi2);
 691              		.loc 1 395 9 is_stmt 1 discriminator 3 view .LVU241
 692              		.loc 1 395 11 is_stmt 0 discriminator 3 view .LVU242
 693 00fe 2B68     		ldr	r3, [r5]
 694              	.LVL61:
 396:Drivers/CMSIS/DSP/Source/TransformFunctions/arm_cfft_radix4_q15.c **** 
 397:Drivers/CMSIS/DSP/Source/TransformFunctions/arm_cfft_radix4_q15.c ****         /* R = packed( (ya + yc), (xa + xc)) */
 398:Drivers/CMSIS/DSP/Source/TransformFunctions/arm_cfft_radix4_q15.c ****         R = __QADD16(T, S);
 695              		.loc 1 398 9 is_stmt 1 discriminator 3 view .LVU243
 696              	.LBB254:
 697              	.LBI254:
1644:Drivers/CMSIS/Include/cmsis_gcc.h **** {
 698              		.loc 2 1644 31 discriminator 3 view .LVU244
 699              	.LBB255:
1646:Drivers/CMSIS/Include/cmsis_gcc.h **** 
 700              		.loc 2 1646 3 discriminator 3 view .LVU245
1648:Drivers/CMSIS/Include/cmsis_gcc.h ****   return(result);
 701              		.loc 2 1648 3 discriminator 3 view .LVU246
 702              		.syntax unified
 703              	@ 1648 "Drivers/CMSIS/Include/cmsis_gcc.h" 1
 704 0100 92FA13FB 		qadd16 fp, r2, r3
 705              	@ 0 "" 2
 706              	.LVL62:
1649:Drivers/CMSIS/Include/cmsis_gcc.h **** }
 707              		.loc 2 1649 3 discriminator 3 view .LVU247
1649:Drivers/CMSIS/Include/cmsis_gcc.h **** }
 708              		.loc 2 1649 3 is_stmt 0 discriminator 3 view .LVU248
 709              		.thumb
 710              		.syntax unified
 711              	.LBE255:
 712              	.LBE254:
 399:Drivers/CMSIS/DSP/Source/TransformFunctions/arm_cfft_radix4_q15.c **** 
 400:Drivers/CMSIS/DSP/Source/TransformFunctions/arm_cfft_radix4_q15.c ****         /* S = packed((ya - yc), (xa - xc)) */
 401:Drivers/CMSIS/DSP/Source/TransformFunctions/arm_cfft_radix4_q15.c ****         S = __QSUB16(T, S);
 713              		.loc 1 401 9 is_stmt 1 discriminator 3 view .LVU249
 714              	.LBB256:
ARM GAS  C:\Users\17832\AppData\Local\Temp\ccyMtfRp.s 			page 57


 715              	.LBI256:
1692:Drivers/CMSIS/Include/cmsis_gcc.h **** {
 716              		.loc 2 1692 31 discriminator 3 view .LVU250
 717              	.LBB257:
1694:Drivers/CMSIS/Include/cmsis_gcc.h **** 
 718              		.loc 2 1694 3 discriminator 3 view .LVU251
1696:Drivers/CMSIS/Include/cmsis_gcc.h ****   return(result);
 719              		.loc 2 1696 3 discriminator 3 view .LVU252
 720              		.syntax unified
 721              	@ 1696 "Drivers/CMSIS/Include/cmsis_gcc.h" 1
 722 0104 D2FA13F2 		qsub16 r2, r2, r3
 723              	@ 0 "" 2
 724              	.LVL63:
1697:Drivers/CMSIS/Include/cmsis_gcc.h **** }
 725              		.loc 2 1697 3 discriminator 3 view .LVU253
1697:Drivers/CMSIS/Include/cmsis_gcc.h **** }
 726              		.loc 2 1697 3 is_stmt 0 discriminator 3 view .LVU254
 727              		.thumb
 728              		.syntax unified
 729              	.LBE257:
 730              	.LBE256:
 402:Drivers/CMSIS/DSP/Source/TransformFunctions/arm_cfft_radix4_q15.c **** 
 403:Drivers/CMSIS/DSP/Source/TransformFunctions/arm_cfft_radix4_q15.c ****         /*  Reading i0+fftLen/4 , i0+3fftLen/4 inputs */
 404:Drivers/CMSIS/DSP/Source/TransformFunctions/arm_cfft_radix4_q15.c ****         /* Read yb (real), xb(imag) input */
 405:Drivers/CMSIS/DSP/Source/TransformFunctions/arm_cfft_radix4_q15.c ****         T = _SIMD32_OFFSET(pSi1);
 731              		.loc 1 405 9 is_stmt 1 discriminator 3 view .LVU255
 732              		.loc 1 405 11 is_stmt 0 discriminator 3 view .LVU256
 733 0108 0368     		ldr	r3, [r0]
 734              	.LVL64:
 406:Drivers/CMSIS/DSP/Source/TransformFunctions/arm_cfft_radix4_q15.c **** 
 407:Drivers/CMSIS/DSP/Source/TransformFunctions/arm_cfft_radix4_q15.c ****         /* Read yd (real), xd(imag) input */
 408:Drivers/CMSIS/DSP/Source/TransformFunctions/arm_cfft_radix4_q15.c ****         U = _SIMD32_OFFSET(pSi3);
 735              		.loc 1 408 9 is_stmt 1 discriminator 3 view .LVU257
 736              		.loc 1 408 11 is_stmt 0 discriminator 3 view .LVU258
 737 010a 0F68     		ldr	r7, [r1]
 738              	.LVL65:
 409:Drivers/CMSIS/DSP/Source/TransformFunctions/arm_cfft_radix4_q15.c **** 
 410:Drivers/CMSIS/DSP/Source/TransformFunctions/arm_cfft_radix4_q15.c ****         /* T = packed( (yb + yd), (xb + xd)) */
 411:Drivers/CMSIS/DSP/Source/TransformFunctions/arm_cfft_radix4_q15.c ****         T = __QADD16(T, U);
 739              		.loc 1 411 9 is_stmt 1 discriminator 3 view .LVU259
 740              	.LBB258:
 741              	.LBI258:
1644:Drivers/CMSIS/Include/cmsis_gcc.h **** {
 742              		.loc 2 1644 31 discriminator 3 view .LVU260
 743              	.LBB259:
1646:Drivers/CMSIS/Include/cmsis_gcc.h **** 
 744              		.loc 2 1646 3 discriminator 3 view .LVU261
1648:Drivers/CMSIS/Include/cmsis_gcc.h ****   return(result);
 745              		.loc 2 1648 3 discriminator 3 view .LVU262
 746              		.syntax unified
 747              	@ 1648 "Drivers/CMSIS/Include/cmsis_gcc.h" 1
 748 010c 93FA17F7 		qadd16 r7, r3, r7
 749              	@ 0 "" 2
 750              	.LVL66:
1649:Drivers/CMSIS/Include/cmsis_gcc.h **** }
 751              		.loc 2 1649 3 discriminator 3 view .LVU263
1649:Drivers/CMSIS/Include/cmsis_gcc.h **** }
ARM GAS  C:\Users\17832\AppData\Local\Temp\ccyMtfRp.s 			page 58


 752              		.loc 2 1649 3 is_stmt 0 discriminator 3 view .LVU264
 753              		.thumb
 754              		.syntax unified
 755              	.LBE259:
 756              	.LBE258:
 412:Drivers/CMSIS/DSP/Source/TransformFunctions/arm_cfft_radix4_q15.c **** 
 413:Drivers/CMSIS/DSP/Source/TransformFunctions/arm_cfft_radix4_q15.c ****         /*  writing the butterfly processed i0 sample */
 414:Drivers/CMSIS/DSP/Source/TransformFunctions/arm_cfft_radix4_q15.c **** 
 415:Drivers/CMSIS/DSP/Source/TransformFunctions/arm_cfft_radix4_q15.c ****         /* xa' = xa + xb + xc + xd */
 416:Drivers/CMSIS/DSP/Source/TransformFunctions/arm_cfft_radix4_q15.c ****         /* ya' = ya + yb + yc + yd */
 417:Drivers/CMSIS/DSP/Source/TransformFunctions/arm_cfft_radix4_q15.c ****         out1 = __SHADD16(R, T);
 757              		.loc 1 417 9 is_stmt 1 discriminator 3 view .LVU265
 758              	.LBB260:
 759              	.LBI260:
1652:Drivers/CMSIS/Include/cmsis_gcc.h **** {
 760              		.loc 2 1652 31 discriminator 3 view .LVU266
 761              	.LBB261:
1654:Drivers/CMSIS/Include/cmsis_gcc.h **** 
 762              		.loc 2 1654 3 discriminator 3 view .LVU267
1656:Drivers/CMSIS/Include/cmsis_gcc.h ****   return(result);
 763              		.loc 2 1656 3 discriminator 3 view .LVU268
 764              		.syntax unified
 765              	@ 1656 "Drivers/CMSIS/Include/cmsis_gcc.h" 1
 766 0110 9BFA27F3 		shadd16 r3, fp, r7
 767              	@ 0 "" 2
 768              	.LVL67:
1657:Drivers/CMSIS/Include/cmsis_gcc.h **** }
 769              		.loc 2 1657 3 discriminator 3 view .LVU269
1657:Drivers/CMSIS/Include/cmsis_gcc.h **** }
 770              		.loc 2 1657 3 is_stmt 0 discriminator 3 view .LVU270
 771              		.thumb
 772              		.syntax unified
 773              	.LBE261:
 774              	.LBE260:
 418:Drivers/CMSIS/DSP/Source/TransformFunctions/arm_cfft_radix4_q15.c ****         out1 = __SHADD16(out1, 0);
 775              		.loc 1 418 9 is_stmt 1 discriminator 3 view .LVU271
 776              	.LBB262:
 777              	.LBI262:
1652:Drivers/CMSIS/Include/cmsis_gcc.h **** {
 778              		.loc 2 1652 31 discriminator 3 view .LVU272
 779              	.LBB263:
1654:Drivers/CMSIS/Include/cmsis_gcc.h **** 
 780              		.loc 2 1654 3 discriminator 3 view .LVU273
1656:Drivers/CMSIS/Include/cmsis_gcc.h ****   return(result);
 781              		.loc 2 1656 3 discriminator 3 view .LVU274
 782 0114 4FF0000A 		mov	r10, #0
 783              		.syntax unified
 784              	@ 1656 "Drivers/CMSIS/Include/cmsis_gcc.h" 1
 785 0118 93FA2AF3 		shadd16 r3, r3, r10
 786              	@ 0 "" 2
 787              	.LVL68:
1657:Drivers/CMSIS/Include/cmsis_gcc.h **** }
 788              		.loc 2 1657 3 discriminator 3 view .LVU275
1657:Drivers/CMSIS/Include/cmsis_gcc.h **** }
 789              		.loc 2 1657 3 is_stmt 0 discriminator 3 view .LVU276
 790              		.thumb
 791              		.syntax unified
ARM GAS  C:\Users\17832\AppData\Local\Temp\ccyMtfRp.s 			page 59


 792              	.LBE263:
 793              	.LBE262:
 419:Drivers/CMSIS/DSP/Source/TransformFunctions/arm_cfft_radix4_q15.c ****         _SIMD32_OFFSET(pSi0) = out1;
 794              		.loc 1 419 9 is_stmt 1 discriminator 3 view .LVU277
 795              		.loc 1 419 30 is_stmt 0 discriminator 3 view .LVU278
 796 011c 2360     		str	r3, [r4]
 797              	.LVL69:
 420:Drivers/CMSIS/DSP/Source/TransformFunctions/arm_cfft_radix4_q15.c ****         pSi0 += 2 * n1;
 798              		.loc 1 420 9 is_stmt 1 discriminator 3 view .LVU279
 799              		.loc 1 420 14 is_stmt 0 discriminator 3 view .LVU280
 800 011e 4FEA880A 		lsl	r10, r8, #2
 801 0122 04EB8804 		add	r4, r4, r8, lsl #2
 802              	.LVL70:
 421:Drivers/CMSIS/DSP/Source/TransformFunctions/arm_cfft_radix4_q15.c **** 
 422:Drivers/CMSIS/DSP/Source/TransformFunctions/arm_cfft_radix4_q15.c ****         /* R = packed( (ya + yc) - (yb + yd), (xa + xc) - (xb + xd)) */
 423:Drivers/CMSIS/DSP/Source/TransformFunctions/arm_cfft_radix4_q15.c ****         R = __SHSUB16(R, T);
 803              		.loc 1 423 9 is_stmt 1 discriminator 3 view .LVU281
 804              	.LBB264:
 805              	.LBI264:
1700:Drivers/CMSIS/Include/cmsis_gcc.h **** {
 806              		.loc 2 1700 31 discriminator 3 view .LVU282
 807              	.LBB265:
1702:Drivers/CMSIS/Include/cmsis_gcc.h **** 
 808              		.loc 2 1702 3 discriminator 3 view .LVU283
1704:Drivers/CMSIS/Include/cmsis_gcc.h ****   return(result);
 809              		.loc 2 1704 3 discriminator 3 view .LVU284
 810              		.syntax unified
 811              	@ 1704 "Drivers/CMSIS/Include/cmsis_gcc.h" 1
 812 0126 DBFA27F7 		shsub16 r7, fp, r7
 813              	@ 0 "" 2
 814              	.LVL71:
1705:Drivers/CMSIS/Include/cmsis_gcc.h **** }
 815              		.loc 2 1705 3 discriminator 3 view .LVU285
1705:Drivers/CMSIS/Include/cmsis_gcc.h **** }
 816              		.loc 2 1705 3 is_stmt 0 discriminator 3 view .LVU286
 817              		.thumb
 818              		.syntax unified
 819              	.LBE265:
 820              	.LBE264:
 424:Drivers/CMSIS/DSP/Source/TransformFunctions/arm_cfft_radix4_q15.c **** 
 425:Drivers/CMSIS/DSP/Source/TransformFunctions/arm_cfft_radix4_q15.c **** #ifndef ARM_MATH_BIG_ENDIAN
 426:Drivers/CMSIS/DSP/Source/TransformFunctions/arm_cfft_radix4_q15.c **** 
 427:Drivers/CMSIS/DSP/Source/TransformFunctions/arm_cfft_radix4_q15.c ****         /* (ya-yb+yc-yd)* (si2) + (xa-xb+xc-xd)* co2 */
 428:Drivers/CMSIS/DSP/Source/TransformFunctions/arm_cfft_radix4_q15.c ****         out1 = __SMUAD(C2, R) >> 16U;
 821              		.loc 1 428 9 is_stmt 1 discriminator 3 view .LVU287
 822              	.LBB266:
 823              	.LBI266:
1890:Drivers/CMSIS/Include/cmsis_gcc.h **** {
 824              		.loc 2 1890 31 discriminator 3 view .LVU288
 825              	.LBB267:
1892:Drivers/CMSIS/Include/cmsis_gcc.h **** 
 826              		.loc 2 1892 3 discriminator 3 view .LVU289
1894:Drivers/CMSIS/Include/cmsis_gcc.h ****   return(result);
 827              		.loc 2 1894 3 discriminator 3 view .LVU290
 828              		.syntax unified
 829              	@ 1894 "Drivers/CMSIS/Include/cmsis_gcc.h" 1
 830 012a 2EFB07FB 		smuad fp, lr, r7
ARM GAS  C:\Users\17832\AppData\Local\Temp\ccyMtfRp.s 			page 60


 831              	@ 0 "" 2
 832              	.LVL72:
1895:Drivers/CMSIS/Include/cmsis_gcc.h **** }
 833              		.loc 2 1895 3 discriminator 3 view .LVU291
1895:Drivers/CMSIS/Include/cmsis_gcc.h **** }
 834              		.loc 2 1895 3 is_stmt 0 discriminator 3 view .LVU292
 835              		.thumb
 836              		.syntax unified
 837              	.LBE267:
 838              	.LBE266:
 839              		.loc 1 428 31 discriminator 3 view .LVU293
 840 012e 4FEA1B4B 		lsr	fp, fp, #16
 841              	.LVL73:
 429:Drivers/CMSIS/DSP/Source/TransformFunctions/arm_cfft_radix4_q15.c **** 
 430:Drivers/CMSIS/DSP/Source/TransformFunctions/arm_cfft_radix4_q15.c ****         /* (ya-yb+yc-yd)* co2 - (xa-xb+xc-xd)* (si2) */
 431:Drivers/CMSIS/DSP/Source/TransformFunctions/arm_cfft_radix4_q15.c ****         out2 = __SMUSDX(C2, R);
 842              		.loc 1 431 9 is_stmt 1 discriminator 3 view .LVU294
 843              	.LBB268:
 844              	.LBI268:
1964:Drivers/CMSIS/Include/cmsis_gcc.h **** {
 845              		.loc 2 1964 31 discriminator 3 view .LVU295
 846              	.LBB269:
1966:Drivers/CMSIS/Include/cmsis_gcc.h **** 
 847              		.loc 2 1966 3 discriminator 3 view .LVU296
1968:Drivers/CMSIS/Include/cmsis_gcc.h ****   return(result);
 848              		.loc 2 1968 3 discriminator 3 view .LVU297
 849              		.syntax unified
 850              	@ 1968 "Drivers/CMSIS/Include/cmsis_gcc.h" 1
 851 0132 4EFB17F7 		smusdx r7, lr, r7
 852              	@ 0 "" 2
 853              	.LVL74:
 854              		.loc 2 1969 3 discriminator 3 view .LVU298
 855              		.loc 2 1969 3 is_stmt 0 discriminator 3 view .LVU299
 856              		.thumb
 857              		.syntax unified
 858              	.LBE269:
 859              	.LBE268:
 432:Drivers/CMSIS/DSP/Source/TransformFunctions/arm_cfft_radix4_q15.c **** 
 433:Drivers/CMSIS/DSP/Source/TransformFunctions/arm_cfft_radix4_q15.c **** #else
 434:Drivers/CMSIS/DSP/Source/TransformFunctions/arm_cfft_radix4_q15.c **** 
 435:Drivers/CMSIS/DSP/Source/TransformFunctions/arm_cfft_radix4_q15.c ****         /* (ya-yb+yc-yd)* co2 - (xa-xb+xc-xd)* (si2) */
 436:Drivers/CMSIS/DSP/Source/TransformFunctions/arm_cfft_radix4_q15.c ****         out1 = __SMUSDX(R, C2) >> 16U;
 437:Drivers/CMSIS/DSP/Source/TransformFunctions/arm_cfft_radix4_q15.c **** 
 438:Drivers/CMSIS/DSP/Source/TransformFunctions/arm_cfft_radix4_q15.c ****         /* (ya-yb+yc-yd)* (si2) + (xa-xb+xc-xd)* co2 */
 439:Drivers/CMSIS/DSP/Source/TransformFunctions/arm_cfft_radix4_q15.c ****         out2 = __SMUAD(C2, R);
 440:Drivers/CMSIS/DSP/Source/TransformFunctions/arm_cfft_radix4_q15.c **** 
 441:Drivers/CMSIS/DSP/Source/TransformFunctions/arm_cfft_radix4_q15.c **** #endif /*      #ifndef ARM_MATH_BIG_ENDIAN     */
 442:Drivers/CMSIS/DSP/Source/TransformFunctions/arm_cfft_radix4_q15.c **** 
 443:Drivers/CMSIS/DSP/Source/TransformFunctions/arm_cfft_radix4_q15.c ****         /*  Reading i0+3fftLen/4 */
 444:Drivers/CMSIS/DSP/Source/TransformFunctions/arm_cfft_radix4_q15.c ****         /* Read yb (real), xb(imag) input */
 445:Drivers/CMSIS/DSP/Source/TransformFunctions/arm_cfft_radix4_q15.c ****         T = _SIMD32_OFFSET(pSi1);
 860              		.loc 1 445 9 is_stmt 1 discriminator 3 view .LVU300
 861              		.loc 1 445 11 is_stmt 0 discriminator 3 view .LVU301
 862 0136 0368     		ldr	r3, [r0]
 863              	.LVL75:
 446:Drivers/CMSIS/DSP/Source/TransformFunctions/arm_cfft_radix4_q15.c **** 
 447:Drivers/CMSIS/DSP/Source/TransformFunctions/arm_cfft_radix4_q15.c ****         /*  writing the butterfly processed i0 + fftLen/4 sample */
ARM GAS  C:\Users\17832\AppData\Local\Temp\ccyMtfRp.s 			page 61


 448:Drivers/CMSIS/DSP/Source/TransformFunctions/arm_cfft_radix4_q15.c ****         /* xc' = (xa-xb+xc-xd)* co2 + (ya-yb+yc-yd)* (si2) */
 449:Drivers/CMSIS/DSP/Source/TransformFunctions/arm_cfft_radix4_q15.c ****         /* yc' = (ya-yb+yc-yd)* co2 - (xa-xb+xc-xd)* (si2) */
 450:Drivers/CMSIS/DSP/Source/TransformFunctions/arm_cfft_radix4_q15.c ****         _SIMD32_OFFSET(pSi1) =
 864              		.loc 1 450 9 is_stmt 1 discriminator 3 view .LVU302
 451:Drivers/CMSIS/DSP/Source/TransformFunctions/arm_cfft_radix4_q15.c ****           ((out2) & 0xFFFF0000) | (out1 & 0x0000FFFF);
 865              		.loc 1 451 19 is_stmt 0 discriminator 3 view .LVU303
 866 0138 3F0C     		lsrs	r7, r7, #16
 867              	.LVL76:
 868              		.loc 1 451 19 discriminator 3 view .LVU304
 869 013a 3F04     		lsls	r7, r7, #16
 870              		.loc 1 451 33 discriminator 3 view .LVU305
 871 013c 4BEA0707 		orr	r7, fp, r7
 450:Drivers/CMSIS/DSP/Source/TransformFunctions/arm_cfft_radix4_q15.c ****           ((out2) & 0xFFFF0000) | (out1 & 0x0000FFFF);
 872              		.loc 1 450 30 discriminator 3 view .LVU306
 873 0140 0760     		str	r7, [r0]
 452:Drivers/CMSIS/DSP/Source/TransformFunctions/arm_cfft_radix4_q15.c ****         pSi1 += 2 * n1;
 874              		.loc 1 452 9 is_stmt 1 discriminator 3 view .LVU307
 875              		.loc 1 452 14 is_stmt 0 discriminator 3 view .LVU308
 876 0142 5044     		add	r0, r0, r10
 877              	.LVL77:
 453:Drivers/CMSIS/DSP/Source/TransformFunctions/arm_cfft_radix4_q15.c **** 
 454:Drivers/CMSIS/DSP/Source/TransformFunctions/arm_cfft_radix4_q15.c ****         /*  Butterfly calculations */
 455:Drivers/CMSIS/DSP/Source/TransformFunctions/arm_cfft_radix4_q15.c **** 
 456:Drivers/CMSIS/DSP/Source/TransformFunctions/arm_cfft_radix4_q15.c ****         /* Read yd (real), xd(imag) input */
 457:Drivers/CMSIS/DSP/Source/TransformFunctions/arm_cfft_radix4_q15.c ****         U = _SIMD32_OFFSET(pSi3);
 878              		.loc 1 457 9 is_stmt 1 discriminator 3 view .LVU309
 879              		.loc 1 457 11 is_stmt 0 discriminator 3 view .LVU310
 880 0144 0F68     		ldr	r7, [r1]
 881              	.LVL78:
 458:Drivers/CMSIS/DSP/Source/TransformFunctions/arm_cfft_radix4_q15.c **** 
 459:Drivers/CMSIS/DSP/Source/TransformFunctions/arm_cfft_radix4_q15.c ****         /* T = packed(yb-yd, xb-xd) */
 460:Drivers/CMSIS/DSP/Source/TransformFunctions/arm_cfft_radix4_q15.c ****         T = __QSUB16(T, U);
 882              		.loc 1 460 9 is_stmt 1 discriminator 3 view .LVU311
 883              	.LBB270:
 884              	.LBI270:
1692:Drivers/CMSIS/Include/cmsis_gcc.h **** {
 885              		.loc 2 1692 31 discriminator 3 view .LVU312
 886              	.LBB271:
1694:Drivers/CMSIS/Include/cmsis_gcc.h **** 
 887              		.loc 2 1694 3 discriminator 3 view .LVU313
1696:Drivers/CMSIS/Include/cmsis_gcc.h ****   return(result);
 888              		.loc 2 1696 3 discriminator 3 view .LVU314
 889              		.syntax unified
 890              	@ 1696 "Drivers/CMSIS/Include/cmsis_gcc.h" 1
 891 0146 D3FA17F3 		qsub16 r3, r3, r7
 892              	@ 0 "" 2
 893              	.LVL79:
1697:Drivers/CMSIS/Include/cmsis_gcc.h **** }
 894              		.loc 2 1697 3 discriminator 3 view .LVU315
1697:Drivers/CMSIS/Include/cmsis_gcc.h **** }
 895              		.loc 2 1697 3 is_stmt 0 discriminator 3 view .LVU316
 896              		.thumb
 897              		.syntax unified
 898              	.LBE271:
 899              	.LBE270:
 461:Drivers/CMSIS/DSP/Source/TransformFunctions/arm_cfft_radix4_q15.c **** 
 462:Drivers/CMSIS/DSP/Source/TransformFunctions/arm_cfft_radix4_q15.c **** #ifndef ARM_MATH_BIG_ENDIAN
ARM GAS  C:\Users\17832\AppData\Local\Temp\ccyMtfRp.s 			page 62


 463:Drivers/CMSIS/DSP/Source/TransformFunctions/arm_cfft_radix4_q15.c **** 
 464:Drivers/CMSIS/DSP/Source/TransformFunctions/arm_cfft_radix4_q15.c ****         /* R = packed((ya-yc) + (xb- xd) , (xa-xc) - (yb-yd)) */
 465:Drivers/CMSIS/DSP/Source/TransformFunctions/arm_cfft_radix4_q15.c ****         R = __SHASX(S, T);
 900              		.loc 1 465 9 is_stmt 1 discriminator 3 view .LVU317
 901              	.LBB272:
 902              	.LBI272:
1748:Drivers/CMSIS/Include/cmsis_gcc.h **** {
 903              		.loc 2 1748 31 discriminator 3 view .LVU318
 904              	.LBB273:
1750:Drivers/CMSIS/Include/cmsis_gcc.h **** 
 905              		.loc 2 1750 3 discriminator 3 view .LVU319
1752:Drivers/CMSIS/Include/cmsis_gcc.h ****   return(result);
 906              		.loc 2 1752 3 discriminator 3 view .LVU320
 907              		.syntax unified
 908              	@ 1752 "Drivers/CMSIS/Include/cmsis_gcc.h" 1
 909 014a A2FA23FB 		shasx fp, r2, r3
 910              	@ 0 "" 2
 911              	.LVL80:
1753:Drivers/CMSIS/Include/cmsis_gcc.h **** }
 912              		.loc 2 1753 3 discriminator 3 view .LVU321
1753:Drivers/CMSIS/Include/cmsis_gcc.h **** }
 913              		.loc 2 1753 3 is_stmt 0 discriminator 3 view .LVU322
 914              		.thumb
 915              		.syntax unified
 916              	.LBE273:
 917              	.LBE272:
 466:Drivers/CMSIS/DSP/Source/TransformFunctions/arm_cfft_radix4_q15.c **** 
 467:Drivers/CMSIS/DSP/Source/TransformFunctions/arm_cfft_radix4_q15.c ****         /* S = packed((ya-yc) - (xb- xd),  (xa-xc) + (yb-yd)) */
 468:Drivers/CMSIS/DSP/Source/TransformFunctions/arm_cfft_radix4_q15.c ****         S = __SHSAX(S, T);
 918              		.loc 1 468 9 is_stmt 1 discriminator 3 view .LVU323
 919              	.LBB274:
 920              	.LBI274:
1796:Drivers/CMSIS/Include/cmsis_gcc.h **** {
 921              		.loc 2 1796 31 discriminator 3 view .LVU324
 922              	.LBB275:
1798:Drivers/CMSIS/Include/cmsis_gcc.h **** 
 923              		.loc 2 1798 3 discriminator 3 view .LVU325
1800:Drivers/CMSIS/Include/cmsis_gcc.h ****   return(result);
 924              		.loc 2 1800 3 discriminator 3 view .LVU326
 925              		.syntax unified
 926              	@ 1800 "Drivers/CMSIS/Include/cmsis_gcc.h" 1
 927 014e E2FA23F2 		shsax r2, r2, r3
 928              	@ 0 "" 2
 929              	.LVL81:
1801:Drivers/CMSIS/Include/cmsis_gcc.h **** }
 930              		.loc 2 1801 3 discriminator 3 view .LVU327
1801:Drivers/CMSIS/Include/cmsis_gcc.h **** }
 931              		.loc 2 1801 3 is_stmt 0 discriminator 3 view .LVU328
 932              		.thumb
 933              		.syntax unified
 934              	.LBE275:
 935              	.LBE274:
 469:Drivers/CMSIS/DSP/Source/TransformFunctions/arm_cfft_radix4_q15.c **** 
 470:Drivers/CMSIS/DSP/Source/TransformFunctions/arm_cfft_radix4_q15.c **** 
 471:Drivers/CMSIS/DSP/Source/TransformFunctions/arm_cfft_radix4_q15.c ****         /*  Butterfly process for the i0+fftLen/2 sample */
 472:Drivers/CMSIS/DSP/Source/TransformFunctions/arm_cfft_radix4_q15.c ****         out1 = __SMUAD(C1, S) >> 16U;
 936              		.loc 1 472 9 is_stmt 1 discriminator 3 view .LVU329
ARM GAS  C:\Users\17832\AppData\Local\Temp\ccyMtfRp.s 			page 63


 937              	.LBB276:
 938              	.LBI276:
1890:Drivers/CMSIS/Include/cmsis_gcc.h **** {
 939              		.loc 2 1890 31 discriminator 3 view .LVU330
 940              	.LBB277:
1892:Drivers/CMSIS/Include/cmsis_gcc.h **** 
 941              		.loc 2 1892 3 discriminator 3 view .LVU331
1894:Drivers/CMSIS/Include/cmsis_gcc.h ****   return(result);
 942              		.loc 2 1894 3 discriminator 3 view .LVU332
 943              		.syntax unified
 944              	@ 1894 "Drivers/CMSIS/Include/cmsis_gcc.h" 1
 945 0152 29FB02F7 		smuad r7, r9, r2
 946              	@ 0 "" 2
 947              	.LVL82:
1895:Drivers/CMSIS/Include/cmsis_gcc.h **** }
 948              		.loc 2 1895 3 discriminator 3 view .LVU333
1895:Drivers/CMSIS/Include/cmsis_gcc.h **** }
 949              		.loc 2 1895 3 is_stmt 0 discriminator 3 view .LVU334
 950              		.thumb
 951              		.syntax unified
 952              	.LBE277:
 953              	.LBE276:
 954              		.loc 1 472 31 discriminator 3 view .LVU335
 955 0156 3F0C     		lsrs	r7, r7, #16
 956              	.LVL83:
 473:Drivers/CMSIS/DSP/Source/TransformFunctions/arm_cfft_radix4_q15.c ****         out2 = __SMUSDX(C1, S);
 957              		.loc 1 473 9 is_stmt 1 discriminator 3 view .LVU336
 958              	.LBB278:
 959              	.LBI278:
1964:Drivers/CMSIS/Include/cmsis_gcc.h **** {
 960              		.loc 2 1964 31 discriminator 3 view .LVU337
 961              	.LBB279:
1966:Drivers/CMSIS/Include/cmsis_gcc.h **** 
 962              		.loc 2 1966 3 discriminator 3 view .LVU338
1968:Drivers/CMSIS/Include/cmsis_gcc.h ****   return(result);
 963              		.loc 2 1968 3 discriminator 3 view .LVU339
 964              		.syntax unified
 965              	@ 1968 "Drivers/CMSIS/Include/cmsis_gcc.h" 1
 966 0158 49FB12F2 		smusdx r2, r9, r2
 967              	@ 0 "" 2
 968              	.LVL84:
 969              		.loc 2 1969 3 discriminator 3 view .LVU340
 970              		.loc 2 1969 3 is_stmt 0 discriminator 3 view .LVU341
 971              		.thumb
 972              		.syntax unified
 973              	.LBE279:
 974              	.LBE278:
 474:Drivers/CMSIS/DSP/Source/TransformFunctions/arm_cfft_radix4_q15.c **** 
 475:Drivers/CMSIS/DSP/Source/TransformFunctions/arm_cfft_radix4_q15.c **** #else
 476:Drivers/CMSIS/DSP/Source/TransformFunctions/arm_cfft_radix4_q15.c **** 
 477:Drivers/CMSIS/DSP/Source/TransformFunctions/arm_cfft_radix4_q15.c ****         /* R = packed((ya-yc) + (xb- xd) , (xa-xc) - (yb-yd)) */
 478:Drivers/CMSIS/DSP/Source/TransformFunctions/arm_cfft_radix4_q15.c ****         R = __SHSAX(S, T);
 479:Drivers/CMSIS/DSP/Source/TransformFunctions/arm_cfft_radix4_q15.c **** 
 480:Drivers/CMSIS/DSP/Source/TransformFunctions/arm_cfft_radix4_q15.c ****         /* S = packed((ya-yc) - (xb- xd),  (xa-xc) + (yb-yd)) */
 481:Drivers/CMSIS/DSP/Source/TransformFunctions/arm_cfft_radix4_q15.c ****         S = __SHASX(S, T);
 482:Drivers/CMSIS/DSP/Source/TransformFunctions/arm_cfft_radix4_q15.c **** 
 483:Drivers/CMSIS/DSP/Source/TransformFunctions/arm_cfft_radix4_q15.c **** 
ARM GAS  C:\Users\17832\AppData\Local\Temp\ccyMtfRp.s 			page 64


 484:Drivers/CMSIS/DSP/Source/TransformFunctions/arm_cfft_radix4_q15.c ****         /*  Butterfly process for the i0+fftLen/2 sample */
 485:Drivers/CMSIS/DSP/Source/TransformFunctions/arm_cfft_radix4_q15.c ****         out1 = __SMUSDX(S, C1) >> 16U;
 486:Drivers/CMSIS/DSP/Source/TransformFunctions/arm_cfft_radix4_q15.c ****         out2 = __SMUAD(C1, S);
 487:Drivers/CMSIS/DSP/Source/TransformFunctions/arm_cfft_radix4_q15.c **** 
 488:Drivers/CMSIS/DSP/Source/TransformFunctions/arm_cfft_radix4_q15.c **** #endif /*      #ifndef ARM_MATH_BIG_ENDIAN     */
 489:Drivers/CMSIS/DSP/Source/TransformFunctions/arm_cfft_radix4_q15.c **** 
