ARM GAS  C:\Users\17832\AppData\Local\Temp\ccwbI0aF.s 			page 1


   1              		.cpu cortex-m4
   2              		.arch armv7e-m
   3              		.fpu fpv4-sp-d16
   4              		.eabi_attribute 27, 1
   5              		.eabi_attribute 28, 1
   6              		.eabi_attribute 20, 1
   7              		.eabi_attribute 21, 1
   8              		.eabi_attribute 23, 3
   9              		.eabi_attribute 24, 1
  10              		.eabi_attribute 25, 1
  11              		.eabi_attribute 26, 1
  12              		.eabi_attribute 30, 1
  13              		.eabi_attribute 34, 1
  14              		.eabi_attribute 18, 4
  15              		.file	"arm_dct4_q15.c"
  16              		.text
  17              	.Ltext0:
  18              		.cfi_sections	.debug_frame
  19              		.section	.text.arm_dct4_q15,"ax",%progbits
  20              		.align	1
  21              		.global	arm_dct4_q15
  22              		.syntax unified
  23              		.thumb
  24              		.thumb_func
  26              	arm_dct4_q15:
  27              	.LVL0:
  28              	.LFB135:
  29              		.file 1 "Drivers/CMSIS/DSP/Source/TransformFunctions/arm_dct4_q15.c"
   1:Drivers/CMSIS/DSP/Source/TransformFunctions/arm_dct4_q15.c **** /* ----------------------------------------------------------------------
   2:Drivers/CMSIS/DSP/Source/TransformFunctions/arm_dct4_q15.c ****  * Project:      CMSIS DSP Library
   3:Drivers/CMSIS/DSP/Source/TransformFunctions/arm_dct4_q15.c ****  * Title:        arm_dct4_q15.c
   4:Drivers/CMSIS/DSP/Source/TransformFunctions/arm_dct4_q15.c ****  * Description:  Processing function of DCT4 & IDCT4 Q15
   5:Drivers/CMSIS/DSP/Source/TransformFunctions/arm_dct4_q15.c ****  *
   6:Drivers/CMSIS/DSP/Source/TransformFunctions/arm_dct4_q15.c ****  * $Date:        27. January 2017
   7:Drivers/CMSIS/DSP/Source/TransformFunctions/arm_dct4_q15.c ****  * $Revision:    V.1.5.1
   8:Drivers/CMSIS/DSP/Source/TransformFunctions/arm_dct4_q15.c ****  *
   9:Drivers/CMSIS/DSP/Source/TransformFunctions/arm_dct4_q15.c ****  * Target Processor: Cortex-M cores
  10:Drivers/CMSIS/DSP/Source/TransformFunctions/arm_dct4_q15.c ****  * -------------------------------------------------------------------- */
  11:Drivers/CMSIS/DSP/Source/TransformFunctions/arm_dct4_q15.c **** /*
  12:Drivers/CMSIS/DSP/Source/TransformFunctions/arm_dct4_q15.c ****  * Copyright (C) 2010-2017 ARM Limited or its affiliates. All rights reserved.
  13:Drivers/CMSIS/DSP/Source/TransformFunctions/arm_dct4_q15.c ****  *
  14:Drivers/CMSIS/DSP/Source/TransformFunctions/arm_dct4_q15.c ****  * SPDX-License-Identifier: Apache-2.0
  15:Drivers/CMSIS/DSP/Source/TransformFunctions/arm_dct4_q15.c ****  *
  16:Drivers/CMSIS/DSP/Source/TransformFunctions/arm_dct4_q15.c ****  * Licensed under the Apache License, Version 2.0 (the License); you may
  17:Drivers/CMSIS/DSP/Source/TransformFunctions/arm_dct4_q15.c ****  * not use this file except in compliance with the License.
  18:Drivers/CMSIS/DSP/Source/TransformFunctions/arm_dct4_q15.c ****  * You may obtain a copy of the License at
  19:Drivers/CMSIS/DSP/Source/TransformFunctions/arm_dct4_q15.c ****  *
  20:Drivers/CMSIS/DSP/Source/TransformFunctions/arm_dct4_q15.c ****  * www.apache.org/licenses/LICENSE-2.0
  21:Drivers/CMSIS/DSP/Source/TransformFunctions/arm_dct4_q15.c ****  *
  22:Drivers/CMSIS/DSP/Source/TransformFunctions/arm_dct4_q15.c ****  * Unless required by applicable law or agreed to in writing, software
  23:Drivers/CMSIS/DSP/Source/TransformFunctions/arm_dct4_q15.c ****  * distributed under the License is distributed on an AS IS BASIS, WITHOUT
  24:Drivers/CMSIS/DSP/Source/TransformFunctions/arm_dct4_q15.c ****  * WARRANTIES OR CONDITIONS OF ANY KIND, either express or implied.
  25:Drivers/CMSIS/DSP/Source/TransformFunctions/arm_dct4_q15.c ****  * See the License for the specific language governing permissions and
  26:Drivers/CMSIS/DSP/Source/TransformFunctions/arm_dct4_q15.c ****  * limitations under the License.
  27:Drivers/CMSIS/DSP/Source/TransformFunctions/arm_dct4_q15.c ****  */
  28:Drivers/CMSIS/DSP/Source/TransformFunctions/arm_dct4_q15.c **** 
  29:Drivers/CMSIS/DSP/Source/TransformFunctions/arm_dct4_q15.c **** #include "arm_math.h"
ARM GAS  C:\Users\17832\AppData\Local\Temp\ccwbI0aF.s 			page 2


  30:Drivers/CMSIS/DSP/Source/TransformFunctions/arm_dct4_q15.c **** 
  31:Drivers/CMSIS/DSP/Source/TransformFunctions/arm_dct4_q15.c **** /**
  32:Drivers/CMSIS/DSP/Source/TransformFunctions/arm_dct4_q15.c ****  * @addtogroup DCT4_IDCT4
  33:Drivers/CMSIS/DSP/Source/TransformFunctions/arm_dct4_q15.c ****  * @{
  34:Drivers/CMSIS/DSP/Source/TransformFunctions/arm_dct4_q15.c ****  */
  35:Drivers/CMSIS/DSP/Source/TransformFunctions/arm_dct4_q15.c **** 
  36:Drivers/CMSIS/DSP/Source/TransformFunctions/arm_dct4_q15.c **** /**
  37:Drivers/CMSIS/DSP/Source/TransformFunctions/arm_dct4_q15.c ****  * @brief Processing function for the Q15 DCT4/IDCT4.
  38:Drivers/CMSIS/DSP/Source/TransformFunctions/arm_dct4_q15.c ****  * @param[in]       *S             points to an instance of the Q15 DCT4 structure.
  39:Drivers/CMSIS/DSP/Source/TransformFunctions/arm_dct4_q15.c ****  * @param[in]       *pState        points to state buffer.
  40:Drivers/CMSIS/DSP/Source/TransformFunctions/arm_dct4_q15.c ****  * @param[in,out]   *pInlineBuffer points to the in-place input and output buffer.
  41:Drivers/CMSIS/DSP/Source/TransformFunctions/arm_dct4_q15.c ****  * @return none.
  42:Drivers/CMSIS/DSP/Source/TransformFunctions/arm_dct4_q15.c ****  *
  43:Drivers/CMSIS/DSP/Source/TransformFunctions/arm_dct4_q15.c ****  * \par Input an output formats:
  44:Drivers/CMSIS/DSP/Source/TransformFunctions/arm_dct4_q15.c ****  * Internally inputs are downscaled in the RFFT process function to avoid overflows.
  45:Drivers/CMSIS/DSP/Source/TransformFunctions/arm_dct4_q15.c ****  * Number of bits downscaled, depends on the size of the transform.
  46:Drivers/CMSIS/DSP/Source/TransformFunctions/arm_dct4_q15.c ****  * The input and output formats for different DCT sizes and number of bits to upscale are mentioned
  47:Drivers/CMSIS/DSP/Source/TransformFunctions/arm_dct4_q15.c ****  *
  48:Drivers/CMSIS/DSP/Source/TransformFunctions/arm_dct4_q15.c ****  * \image html dct4FormatsQ15Table.gif
  49:Drivers/CMSIS/DSP/Source/TransformFunctions/arm_dct4_q15.c ****  */
  50:Drivers/CMSIS/DSP/Source/TransformFunctions/arm_dct4_q15.c **** 
  51:Drivers/CMSIS/DSP/Source/TransformFunctions/arm_dct4_q15.c **** void arm_dct4_q15(
  52:Drivers/CMSIS/DSP/Source/TransformFunctions/arm_dct4_q15.c ****   const arm_dct4_instance_q15 * S,
  53:Drivers/CMSIS/DSP/Source/TransformFunctions/arm_dct4_q15.c ****   q15_t * pState,
  54:Drivers/CMSIS/DSP/Source/TransformFunctions/arm_dct4_q15.c ****   q15_t * pInlineBuffer)
  55:Drivers/CMSIS/DSP/Source/TransformFunctions/arm_dct4_q15.c **** {
  30              		.loc 1 55 1 view -0
  31              		.cfi_startproc
  32              		@ args = 0, pretend = 0, frame = 0
  33              		@ frame_needed = 0, uses_anonymous_args = 0
  34              		.loc 1 55 1 is_stmt 0 view .LVU1
  35 0000 F8B5     		push	{r3, r4, r5, r6, r7, lr}
  36              	.LCFI0:
  37              		.cfi_def_cfa_offset 24
  38              		.cfi_offset 3, -24
  39              		.cfi_offset 4, -20
  40              		.cfi_offset 5, -16
  41              		.cfi_offset 6, -12
  42              		.cfi_offset 7, -8
  43              		.cfi_offset 14, -4
  44 0002 0546     		mov	r5, r0
  45 0004 0E46     		mov	r6, r1
  46 0006 1446     		mov	r4, r2
  56:Drivers/CMSIS/DSP/Source/TransformFunctions/arm_dct4_q15.c ****   uint32_t i;                                    /* Loop counter */
  47              		.loc 1 56 3 is_stmt 1 view .LVU2
  57:Drivers/CMSIS/DSP/Source/TransformFunctions/arm_dct4_q15.c ****   q15_t *weights = S->pTwiddle;                  /* Pointer to the Weights table */
  48              		.loc 1 57 3 view .LVU3
  49              		.loc 1 57 10 is_stmt 0 view .LVU4
  50 0008 8768     		ldr	r7, [r0, #8]
  51              	.LVL1:
  58:Drivers/CMSIS/DSP/Source/TransformFunctions/arm_dct4_q15.c ****   q15_t *cosFact = S->pCosFactor;                /* Pointer to the cos factors table */
  52              		.loc 1 58 3 is_stmt 1 view .LVU5
  59:Drivers/CMSIS/DSP/Source/TransformFunctions/arm_dct4_q15.c ****   q15_t *pS1, *pS2, *pbuff;                      /* Temporary pointers for input buffer and pState 
  53              		.loc 1 59 3 view .LVU6
  60:Drivers/CMSIS/DSP/Source/TransformFunctions/arm_dct4_q15.c ****   q15_t in;                                      /* Temporary variable */
  54              		.loc 1 60 3 view .LVU7
  61:Drivers/CMSIS/DSP/Source/TransformFunctions/arm_dct4_q15.c **** 
ARM GAS  C:\Users\17832\AppData\Local\Temp\ccwbI0aF.s 			page 3


  62:Drivers/CMSIS/DSP/Source/TransformFunctions/arm_dct4_q15.c **** 
  63:Drivers/CMSIS/DSP/Source/TransformFunctions/arm_dct4_q15.c ****   /* DCT4 computation involves DCT2 (which is calculated using RFFT)
  64:Drivers/CMSIS/DSP/Source/TransformFunctions/arm_dct4_q15.c ****    * along with some pre-processing and post-processing.
  65:Drivers/CMSIS/DSP/Source/TransformFunctions/arm_dct4_q15.c ****    * Computational procedure is explained as follows:
  66:Drivers/CMSIS/DSP/Source/TransformFunctions/arm_dct4_q15.c ****    * (a) Pre-processing involves multiplying input with cos factor,
  67:Drivers/CMSIS/DSP/Source/TransformFunctions/arm_dct4_q15.c ****    *     r(n) = 2 * u(n) * cos(pi*(2*n+1)/(4*n))
  68:Drivers/CMSIS/DSP/Source/TransformFunctions/arm_dct4_q15.c ****    *              where,
  69:Drivers/CMSIS/DSP/Source/TransformFunctions/arm_dct4_q15.c ****    *                 r(n) -- output of preprocessing
  70:Drivers/CMSIS/DSP/Source/TransformFunctions/arm_dct4_q15.c ****    *                 u(n) -- input to preprocessing(actual Source buffer)
  71:Drivers/CMSIS/DSP/Source/TransformFunctions/arm_dct4_q15.c ****    * (b) Calculation of DCT2 using FFT is divided into three steps:
  72:Drivers/CMSIS/DSP/Source/TransformFunctions/arm_dct4_q15.c ****    *                  Step1: Re-ordering of even and odd elements of input.
  73:Drivers/CMSIS/DSP/Source/TransformFunctions/arm_dct4_q15.c ****    *                  Step2: Calculating FFT of the re-ordered input.
  74:Drivers/CMSIS/DSP/Source/TransformFunctions/arm_dct4_q15.c ****    *                  Step3: Taking the real part of the product of FFT output and weights.
  75:Drivers/CMSIS/DSP/Source/TransformFunctions/arm_dct4_q15.c ****    * (c) Post-processing - DCT4 can be obtained from DCT2 output using the following equation:
  76:Drivers/CMSIS/DSP/Source/TransformFunctions/arm_dct4_q15.c ****    *                   Y4(k) = Y2(k) - Y4(k-1) and Y4(-1) = Y4(0)
  77:Drivers/CMSIS/DSP/Source/TransformFunctions/arm_dct4_q15.c ****    *                        where,
  78:Drivers/CMSIS/DSP/Source/TransformFunctions/arm_dct4_q15.c ****    *                           Y4 -- DCT4 output,   Y2 -- DCT2 output
  79:Drivers/CMSIS/DSP/Source/TransformFunctions/arm_dct4_q15.c ****    * (d) Multiplying the output with the normalizing factor sqrt(2/N).
  80:Drivers/CMSIS/DSP/Source/TransformFunctions/arm_dct4_q15.c ****    */
  81:Drivers/CMSIS/DSP/Source/TransformFunctions/arm_dct4_q15.c **** 
  82:Drivers/CMSIS/DSP/Source/TransformFunctions/arm_dct4_q15.c ****         /*-------- Pre-processing ------------*/
  83:Drivers/CMSIS/DSP/Source/TransformFunctions/arm_dct4_q15.c ****   /* Multiplying input with cos factor i.e. r(n) = 2 * x(n) * cos(pi*(2*n+1)/(4*n)) */
  84:Drivers/CMSIS/DSP/Source/TransformFunctions/arm_dct4_q15.c ****   arm_mult_q15(pInlineBuffer, cosFact, pInlineBuffer, S->N);
  55              		.loc 1 84 3 view .LVU8
  56 000a 0388     		ldrh	r3, [r0]
  57 000c C168     		ldr	r1, [r0, #12]
  58              	.LVL2:
  59              		.loc 1 84 3 is_stmt 0 view .LVU9
  60 000e 1046     		mov	r0, r2
  61              	.LVL3:
  62              		.loc 1 84 3 view .LVU10
  63 0010 FFF7FEFF 		bl	arm_mult_q15
  64              	.LVL4:
  85:Drivers/CMSIS/DSP/Source/TransformFunctions/arm_dct4_q15.c ****   arm_shift_q15(pInlineBuffer, 1, pInlineBuffer, S->N);
  65              		.loc 1 85 3 is_stmt 1 view .LVU11
  66 0014 2B88     		ldrh	r3, [r5]
  67 0016 2246     		mov	r2, r4
  68 0018 0121     		movs	r1, #1
  69 001a 2046     		mov	r0, r4
  70 001c FFF7FEFF 		bl	arm_shift_q15
  71              	.LVL5:
  86:Drivers/CMSIS/DSP/Source/TransformFunctions/arm_dct4_q15.c **** 
  87:Drivers/CMSIS/DSP/Source/TransformFunctions/arm_dct4_q15.c ****   /* ----------------------------------------------------------------
  88:Drivers/CMSIS/DSP/Source/TransformFunctions/arm_dct4_q15.c ****    * Step1: Re-ordering of even and odd elements as
  89:Drivers/CMSIS/DSP/Source/TransformFunctions/arm_dct4_q15.c ****    *             pState[i] =  pInlineBuffer[2*i] and
  90:Drivers/CMSIS/DSP/Source/TransformFunctions/arm_dct4_q15.c ****    *             pState[N-i-1] = pInlineBuffer[2*i+1] where i = 0 to N/2
  91:Drivers/CMSIS/DSP/Source/TransformFunctions/arm_dct4_q15.c ****    ---------------------------------------------------------------------*/
  92:Drivers/CMSIS/DSP/Source/TransformFunctions/arm_dct4_q15.c **** 
  93:Drivers/CMSIS/DSP/Source/TransformFunctions/arm_dct4_q15.c ****   /* pS1 initialized to pState */
  94:Drivers/CMSIS/DSP/Source/TransformFunctions/arm_dct4_q15.c ****   pS1 = pState;
  72              		.loc 1 94 3 view .LVU12
  95:Drivers/CMSIS/DSP/Source/TransformFunctions/arm_dct4_q15.c **** 
  96:Drivers/CMSIS/DSP/Source/TransformFunctions/arm_dct4_q15.c ****   /* pS2 initialized to pState+N-1, so that it points to the end of the state buffer */
  97:Drivers/CMSIS/DSP/Source/TransformFunctions/arm_dct4_q15.c ****   pS2 = pState + (S->N - 1U);
  73              		.loc 1 97 3 view .LVU13
  74              		.loc 1 97 20 is_stmt 0 view .LVU14
  75 0020 2A88     		ldrh	r2, [r5]
ARM GAS  C:\Users\17832\AppData\Local\Temp\ccwbI0aF.s 			page 4


  76              		.loc 1 97 16 view .LVU15
  77 0022 02F10042 		add	r2, r2, #-2147483648
  78 0026 013A     		subs	r2, r2, #1
  79              		.loc 1 97 7 view .LVU16
  80 0028 06EB4202 		add	r2, r6, r2, lsl #1
  81              	.LVL6:
  98:Drivers/CMSIS/DSP/Source/TransformFunctions/arm_dct4_q15.c **** 
  99:Drivers/CMSIS/DSP/Source/TransformFunctions/arm_dct4_q15.c ****   /* pbuff initialized to input buffer */
 100:Drivers/CMSIS/DSP/Source/TransformFunctions/arm_dct4_q15.c ****   pbuff = pInlineBuffer;
  82              		.loc 1 100 3 is_stmt 1 view .LVU17
 101:Drivers/CMSIS/DSP/Source/TransformFunctions/arm_dct4_q15.c **** 
 102:Drivers/CMSIS/DSP/Source/TransformFunctions/arm_dct4_q15.c **** 
 103:Drivers/CMSIS/DSP/Source/TransformFunctions/arm_dct4_q15.c **** #if defined (ARM_MATH_DSP)
 104:Drivers/CMSIS/DSP/Source/TransformFunctions/arm_dct4_q15.c **** 
 105:Drivers/CMSIS/DSP/Source/TransformFunctions/arm_dct4_q15.c ****   /* Run the below code for Cortex-M4 and Cortex-M3 */
 106:Drivers/CMSIS/DSP/Source/TransformFunctions/arm_dct4_q15.c **** 
 107:Drivers/CMSIS/DSP/Source/TransformFunctions/arm_dct4_q15.c ****   /* Initializing the loop counter to N/2 >> 2 for loop unrolling by 4 */
 108:Drivers/CMSIS/DSP/Source/TransformFunctions/arm_dct4_q15.c ****   i = (uint32_t) S->Nby2 >> 2U;
  83              		.loc 1 108 3 view .LVU18
  84              		.loc 1 108 19 is_stmt 0 view .LVU19
  85 002c B5F802E0 		ldrh	lr, [r5, #2]
  86              		.loc 1 108 26 view .LVU20
  87 0030 4FEA9E0E 		lsr	lr, lr, #2
  88              	.LVL7:
 100:Drivers/CMSIS/DSP/Source/TransformFunctions/arm_dct4_q15.c **** 
  89              		.loc 1 100 9 view .LVU21
  90 0034 2346     		mov	r3, r4
  94:Drivers/CMSIS/DSP/Source/TransformFunctions/arm_dct4_q15.c **** 
  91              		.loc 1 94 7 view .LVU22
  92 0036 3146     		mov	r1, r6
  93              	.LVL8:
  94              	.L2:
 109:Drivers/CMSIS/DSP/Source/TransformFunctions/arm_dct4_q15.c **** 
 110:Drivers/CMSIS/DSP/Source/TransformFunctions/arm_dct4_q15.c ****   /* First part of the processing with loop unrolling.  Compute 4 outputs at a time.
 111:Drivers/CMSIS/DSP/Source/TransformFunctions/arm_dct4_q15.c ****    ** a second loop below computes the remaining 1 to 3 samples. */
 112:Drivers/CMSIS/DSP/Source/TransformFunctions/arm_dct4_q15.c ****   do
  95              		.loc 1 112 3 is_stmt 1 discriminator 1 view .LVU23
 113:Drivers/CMSIS/DSP/Source/TransformFunctions/arm_dct4_q15.c ****   {
 114:Drivers/CMSIS/DSP/Source/TransformFunctions/arm_dct4_q15.c ****     /* Re-ordering of even and odd elements */
 115:Drivers/CMSIS/DSP/Source/TransformFunctions/arm_dct4_q15.c ****     /* pState[i] =  pInlineBuffer[2*i] */
 116:Drivers/CMSIS/DSP/Source/TransformFunctions/arm_dct4_q15.c ****     *pS1++ = *pbuff++;
  96              		.loc 1 116 5 discriminator 1 view .LVU24
  97              		.loc 1 116 14 is_stmt 0 discriminator 1 view .LVU25
  98 0038 B3F90000 		ldrsh	r0, [r3]
  99              		.loc 1 116 12 discriminator 1 view .LVU26
 100 003c 0880     		strh	r0, [r1]	@ movhi
 117:Drivers/CMSIS/DSP/Source/TransformFunctions/arm_dct4_q15.c ****     /* pState[N-i-1] = pInlineBuffer[2*i+1] */
 118:Drivers/CMSIS/DSP/Source/TransformFunctions/arm_dct4_q15.c ****     *pS2-- = *pbuff++;
 101              		.loc 1 118 5 is_stmt 1 discriminator 1 view .LVU27
 102              	.LVL9:
 103              		.loc 1 118 14 is_stmt 0 discriminator 1 view .LVU28
 104 003e B3F90200 		ldrsh	r0, [r3, #2]
 105              		.loc 1 118 12 discriminator 1 view .LVU29
 106 0042 1080     		strh	r0, [r2]	@ movhi
 119:Drivers/CMSIS/DSP/Source/TransformFunctions/arm_dct4_q15.c **** 
 120:Drivers/CMSIS/DSP/Source/TransformFunctions/arm_dct4_q15.c ****     *pS1++ = *pbuff++;
 107              		.loc 1 120 5 is_stmt 1 discriminator 1 view .LVU30
ARM GAS  C:\Users\17832\AppData\Local\Temp\ccwbI0aF.s 			page 5


 108              	.LVL10:
 109              		.loc 1 120 14 is_stmt 0 discriminator 1 view .LVU31
 110 0044 B3F90400 		ldrsh	r0, [r3, #4]
 111              		.loc 1 120 12 discriminator 1 view .LVU32
 112 0048 4880     		strh	r0, [r1, #2]	@ movhi
 121:Drivers/CMSIS/DSP/Source/TransformFunctions/arm_dct4_q15.c ****     *pS2-- = *pbuff++;
 113              		.loc 1 121 5 is_stmt 1 discriminator 1 view .LVU33
 114              	.LVL11:
 115              		.loc 1 121 14 is_stmt 0 discriminator 1 view .LVU34
 116 004a B3F90600 		ldrsh	r0, [r3, #6]
 117              		.loc 1 121 12 discriminator 1 view .LVU35
 118 004e 22F8020C 		strh	r0, [r2, #-2]	@ movhi
 122:Drivers/CMSIS/DSP/Source/TransformFunctions/arm_dct4_q15.c **** 
 123:Drivers/CMSIS/DSP/Source/TransformFunctions/arm_dct4_q15.c ****     *pS1++ = *pbuff++;
 119              		.loc 1 123 5 is_stmt 1 discriminator 1 view .LVU36
 120              	.LVL12:
 121              		.loc 1 123 14 is_stmt 0 discriminator 1 view .LVU37
 122 0052 B3F90800 		ldrsh	r0, [r3, #8]
 123              		.loc 1 123 12 discriminator 1 view .LVU38
 124 0056 8880     		strh	r0, [r1, #4]	@ movhi
 124:Drivers/CMSIS/DSP/Source/TransformFunctions/arm_dct4_q15.c ****     *pS2-- = *pbuff++;
 125              		.loc 1 124 5 is_stmt 1 discriminator 1 view .LVU39
 126              	.LVL13:
 127              		.loc 1 124 14 is_stmt 0 discriminator 1 view .LVU40
 128 0058 B3F90A00 		ldrsh	r0, [r3, #10]
 129              		.loc 1 124 12 discriminator 1 view .LVU41
 130 005c 22F8040C 		strh	r0, [r2, #-4]	@ movhi
 125:Drivers/CMSIS/DSP/Source/TransformFunctions/arm_dct4_q15.c **** 
 126:Drivers/CMSIS/DSP/Source/TransformFunctions/arm_dct4_q15.c ****     *pS1++ = *pbuff++;
 131              		.loc 1 126 5 is_stmt 1 discriminator 1 view .LVU42
 132              	.LVL14:
 133              		.loc 1 126 14 is_stmt 0 discriminator 1 view .LVU43
 134 0060 B3F90CC0 		ldrsh	ip, [r3, #12]
 135              		.loc 1 126 12 discriminator 1 view .LVU44
 136 0064 A1F806C0 		strh	ip, [r1, #6]	@ movhi
 137 0068 0831     		adds	r1, r1, #8
 138              	.LVL15:
 127:Drivers/CMSIS/DSP/Source/TransformFunctions/arm_dct4_q15.c ****     *pS2-- = *pbuff++;
 139              		.loc 1 127 5 is_stmt 1 discriminator 1 view .LVU45
 140              		.loc 1 127 14 is_stmt 0 discriminator 1 view .LVU46
 141 006a B3F90EC0 		ldrsh	ip, [r3, #14]
 142 006e 1033     		adds	r3, r3, #16
 143              	.LVL16:
 144              		.loc 1 127 12 discriminator 1 view .LVU47
 145 0070 22F806CC 		strh	ip, [r2, #-6]	@ movhi
 146 0074 083A     		subs	r2, r2, #8
 147              	.LVL17:
 128:Drivers/CMSIS/DSP/Source/TransformFunctions/arm_dct4_q15.c **** 
 129:Drivers/CMSIS/DSP/Source/TransformFunctions/arm_dct4_q15.c ****     /* Decrement the loop counter */
 130:Drivers/CMSIS/DSP/Source/TransformFunctions/arm_dct4_q15.c ****     i--;
 148              		.loc 1 130 5 is_stmt 1 discriminator 1 view .LVU48
 131:Drivers/CMSIS/DSP/Source/TransformFunctions/arm_dct4_q15.c ****   } while (i > 0U);
 149              		.loc 1 131 11 discriminator 1 view .LVU49
 150              		.loc 1 131 3 is_stmt 0 discriminator 1 view .LVU50
 151 0076 BEF1010E 		subs	lr, lr, #1
 152              	.LVL18:
 153              		.loc 1 131 3 discriminator 1 view .LVU51
ARM GAS  C:\Users\17832\AppData\Local\Temp\ccwbI0aF.s 			page 6


 154 007a DDD1     		bne	.L2
 132:Drivers/CMSIS/DSP/Source/TransformFunctions/arm_dct4_q15.c **** 
 133:Drivers/CMSIS/DSP/Source/TransformFunctions/arm_dct4_q15.c ****   /* pbuff initialized to input buffer */
 134:Drivers/CMSIS/DSP/Source/TransformFunctions/arm_dct4_q15.c ****   pbuff = pInlineBuffer;
 155              		.loc 1 134 3 is_stmt 1 view .LVU52
 156              	.LVL19:
 135:Drivers/CMSIS/DSP/Source/TransformFunctions/arm_dct4_q15.c **** 
 136:Drivers/CMSIS/DSP/Source/TransformFunctions/arm_dct4_q15.c ****   /* pS1 initialized to pState */
 137:Drivers/CMSIS/DSP/Source/TransformFunctions/arm_dct4_q15.c ****   pS1 = pState;
 157              		.loc 1 137 3 view .LVU53
 138:Drivers/CMSIS/DSP/Source/TransformFunctions/arm_dct4_q15.c **** 
 139:Drivers/CMSIS/DSP/Source/TransformFunctions/arm_dct4_q15.c ****   /* Initializing the loop counter to N/4 instead of N for loop unrolling */
 140:Drivers/CMSIS/DSP/Source/TransformFunctions/arm_dct4_q15.c ****   i = (uint32_t) S->N >> 2U;
 158              		.loc 1 140 3 view .LVU54
 159              		.loc 1 140 19 is_stmt 0 view .LVU55
 160 007c B5F800C0 		ldrh	ip, [r5]
 161              		.loc 1 140 23 view .LVU56
 162 0080 4FEA9C0C 		lsr	ip, ip, #2
 163              	.LVL20:
 134:Drivers/CMSIS/DSP/Source/TransformFunctions/arm_dct4_q15.c **** 
 164              		.loc 1 134 9 view .LVU57
 165 0084 2246     		mov	r2, r4
 166              	.LVL21:
 137:Drivers/CMSIS/DSP/Source/TransformFunctions/arm_dct4_q15.c **** 
 167              		.loc 1 137 7 view .LVU58
 168 0086 3346     		mov	r3, r6
 169              	.LVL22:
 170              	.L3:
 141:Drivers/CMSIS/DSP/Source/TransformFunctions/arm_dct4_q15.c **** 
 142:Drivers/CMSIS/DSP/Source/TransformFunctions/arm_dct4_q15.c ****   /* Processing with loop unrolling 4 times as N is always multiple of 4.
 143:Drivers/CMSIS/DSP/Source/TransformFunctions/arm_dct4_q15.c ****    * Compute 4 outputs at a time */
 144:Drivers/CMSIS/DSP/Source/TransformFunctions/arm_dct4_q15.c ****   do
 171              		.loc 1 144 3 is_stmt 1 discriminator 1 view .LVU59
 145:Drivers/CMSIS/DSP/Source/TransformFunctions/arm_dct4_q15.c ****   {
 146:Drivers/CMSIS/DSP/Source/TransformFunctions/arm_dct4_q15.c ****     /* Writing the re-ordered output back to inplace input buffer */
 147:Drivers/CMSIS/DSP/Source/TransformFunctions/arm_dct4_q15.c ****     *pbuff++ = *pS1++;
 172              		.loc 1 147 5 discriminator 1 view .LVU60
 173              		.loc 1 147 16 is_stmt 0 discriminator 1 view .LVU61
 174 0088 B3F90010 		ldrsh	r1, [r3]
 175              		.loc 1 147 14 discriminator 1 view .LVU62
 176 008c 1180     		strh	r1, [r2]	@ movhi
 148:Drivers/CMSIS/DSP/Source/TransformFunctions/arm_dct4_q15.c ****     *pbuff++ = *pS1++;
 177              		.loc 1 148 5 is_stmt 1 discriminator 1 view .LVU63
 178              	.LVL23:
 179              		.loc 1 148 16 is_stmt 0 discriminator 1 view .LVU64
 180 008e B3F90210 		ldrsh	r1, [r3, #2]
 181              		.loc 1 148 14 discriminator 1 view .LVU65
 182 0092 5180     		strh	r1, [r2, #2]	@ movhi
 149:Drivers/CMSIS/DSP/Source/TransformFunctions/arm_dct4_q15.c ****     *pbuff++ = *pS1++;
 183              		.loc 1 149 5 is_stmt 1 discriminator 1 view .LVU66
 184              	.LVL24:
 185              		.loc 1 149 16 is_stmt 0 discriminator 1 view .LVU67
 186 0094 B3F90410 		ldrsh	r1, [r3, #4]
 187              		.loc 1 149 14 discriminator 1 view .LVU68
 188 0098 9180     		strh	r1, [r2, #4]	@ movhi
 150:Drivers/CMSIS/DSP/Source/TransformFunctions/arm_dct4_q15.c ****     *pbuff++ = *pS1++;
 189              		.loc 1 150 5 is_stmt 1 discriminator 1 view .LVU69
ARM GAS  C:\Users\17832\AppData\Local\Temp\ccwbI0aF.s 			page 7


 190              	.LVL25:
 191              		.loc 1 150 16 is_stmt 0 discriminator 1 view .LVU70
 192 009a B3F90600 		ldrsh	r0, [r3, #6]
 193 009e 0833     		adds	r3, r3, #8
 194              	.LVL26:
 195              		.loc 1 150 14 discriminator 1 view .LVU71
 196 00a0 D080     		strh	r0, [r2, #6]	@ movhi
 197 00a2 0832     		adds	r2, r2, #8
 198              	.LVL27:
 151:Drivers/CMSIS/DSP/Source/TransformFunctions/arm_dct4_q15.c **** 
 152:Drivers/CMSIS/DSP/Source/TransformFunctions/arm_dct4_q15.c ****     /* Decrement the loop counter */
 153:Drivers/CMSIS/DSP/Source/TransformFunctions/arm_dct4_q15.c ****     i--;
 199              		.loc 1 153 5 is_stmt 1 discriminator 1 view .LVU72
 154:Drivers/CMSIS/DSP/Source/TransformFunctions/arm_dct4_q15.c ****   } while (i > 0U);
 200              		.loc 1 154 11 discriminator 1 view .LVU73
 201              		.loc 1 154 3 is_stmt 0 discriminator 1 view .LVU74
 202 00a4 BCF1010C 		subs	ip, ip, #1
 203              	.LVL28:
 204              		.loc 1 154 3 discriminator 1 view .LVU75
 205 00a8 EED1     		bne	.L3
 155:Drivers/CMSIS/DSP/Source/TransformFunctions/arm_dct4_q15.c **** 
 156:Drivers/CMSIS/DSP/Source/TransformFunctions/arm_dct4_q15.c **** 
 157:Drivers/CMSIS/DSP/Source/TransformFunctions/arm_dct4_q15.c ****   /* ---------------------------------------------------------
 158:Drivers/CMSIS/DSP/Source/TransformFunctions/arm_dct4_q15.c ****    *     Step2: Calculate RFFT for N-point input
 159:Drivers/CMSIS/DSP/Source/TransformFunctions/arm_dct4_q15.c ****    * ---------------------------------------------------------- */
 160:Drivers/CMSIS/DSP/Source/TransformFunctions/arm_dct4_q15.c ****   /* pInlineBuffer is real input of length N , pState is the complex output of length 2N */
 161:Drivers/CMSIS/DSP/Source/TransformFunctions/arm_dct4_q15.c ****   arm_rfft_q15(S->pRfft, pInlineBuffer, pState);
 206              		.loc 1 161 3 is_stmt 1 view .LVU76
 207 00aa 3246     		mov	r2, r6
 208              	.LVL29:
 209              		.loc 1 161 3 is_stmt 0 view .LVU77
 210 00ac 2146     		mov	r1, r4
 211 00ae 2869     		ldr	r0, [r5, #16]
 212 00b0 FFF7FEFF 		bl	arm_rfft_q15
 213              	.LVL30:
 162:Drivers/CMSIS/DSP/Source/TransformFunctions/arm_dct4_q15.c **** 
 163:Drivers/CMSIS/DSP/Source/TransformFunctions/arm_dct4_q15.c ****  /*----------------------------------------------------------------------
 164:Drivers/CMSIS/DSP/Source/TransformFunctions/arm_dct4_q15.c ****   *  Step3: Multiply the FFT output with the weights.
 165:Drivers/CMSIS/DSP/Source/TransformFunctions/arm_dct4_q15.c ****   *----------------------------------------------------------------------*/
 166:Drivers/CMSIS/DSP/Source/TransformFunctions/arm_dct4_q15.c ****   arm_cmplx_mult_cmplx_q15(pState, weights, pState, S->N);
 214              		.loc 1 166 3 is_stmt 1 view .LVU78
 215 00b4 2B88     		ldrh	r3, [r5]
 216 00b6 3246     		mov	r2, r6
 217 00b8 3946     		mov	r1, r7
 218 00ba 3046     		mov	r0, r6
 219 00bc FFF7FEFF 		bl	arm_cmplx_mult_cmplx_q15
 220              	.LVL31:
 167:Drivers/CMSIS/DSP/Source/TransformFunctions/arm_dct4_q15.c **** 
 168:Drivers/CMSIS/DSP/Source/TransformFunctions/arm_dct4_q15.c ****   /* The output of complex multiplication is in 3.13 format.
 169:Drivers/CMSIS/DSP/Source/TransformFunctions/arm_dct4_q15.c ****    * Hence changing the format of N (i.e. 2*N elements) complex numbers to 1.15 format by shifting 
 170:Drivers/CMSIS/DSP/Source/TransformFunctions/arm_dct4_q15.c ****   arm_shift_q15(pState, 2, pState, S->N * 2);
 221              		.loc 1 170 3 view .LVU79
 222              		.loc 1 170 37 is_stmt 0 view .LVU80
 223 00c0 2B88     		ldrh	r3, [r5]
 224              		.loc 1 170 3 view .LVU81
 225 00c2 5B00     		lsls	r3, r3, #1
 226 00c4 3246     		mov	r2, r6
ARM GAS  C:\Users\17832\AppData\Local\Temp\ccwbI0aF.s 			page 8


 227 00c6 0221     		movs	r1, #2
 228 00c8 3046     		mov	r0, r6
 229 00ca FFF7FEFF 		bl	arm_shift_q15
 230              	.LVL32:
 171:Drivers/CMSIS/DSP/Source/TransformFunctions/arm_dct4_q15.c **** 
 172:Drivers/CMSIS/DSP/Source/TransformFunctions/arm_dct4_q15.c ****   /* ----------- Post-processing ---------- */
 173:Drivers/CMSIS/DSP/Source/TransformFunctions/arm_dct4_q15.c ****   /* DCT-IV can be obtained from DCT-II by the equation,
 174:Drivers/CMSIS/DSP/Source/TransformFunctions/arm_dct4_q15.c ****    *       Y4(k) = Y2(k) - Y4(k-1) and Y4(-1) = Y4(0)
 175:Drivers/CMSIS/DSP/Source/TransformFunctions/arm_dct4_q15.c ****    *       Hence, Y4(0) = Y2(0)/2  */
 176:Drivers/CMSIS/DSP/Source/TransformFunctions/arm_dct4_q15.c ****   /* Getting only real part from the output and Converting to DCT-IV */
 177:Drivers/CMSIS/DSP/Source/TransformFunctions/arm_dct4_q15.c **** 
 178:Drivers/CMSIS/DSP/Source/TransformFunctions/arm_dct4_q15.c ****   /* Initializing the loop counter to N >> 2 for loop unrolling by 4 */
 179:Drivers/CMSIS/DSP/Source/TransformFunctions/arm_dct4_q15.c ****   i = ((uint32_t) S->N - 1U) >> 2U;
 231              		.loc 1 179 3 is_stmt 1 view .LVU82
 232              		.loc 1 179 20 is_stmt 0 view .LVU83
 233 00ce 2888     		ldrh	r0, [r5]
 234              		.loc 1 179 24 view .LVU84
 235 00d0 0138     		subs	r0, r0, #1
 236              		.loc 1 179 5 view .LVU85
 237 00d2 8008     		lsrs	r0, r0, #2
 238              	.LVL33:
 180:Drivers/CMSIS/DSP/Source/TransformFunctions/arm_dct4_q15.c **** 
 181:Drivers/CMSIS/DSP/Source/TransformFunctions/arm_dct4_q15.c ****   /* pbuff initialized to input buffer. */
 182:Drivers/CMSIS/DSP/Source/TransformFunctions/arm_dct4_q15.c ****   pbuff = pInlineBuffer;
 239              		.loc 1 182 3 is_stmt 1 view .LVU86
 183:Drivers/CMSIS/DSP/Source/TransformFunctions/arm_dct4_q15.c **** 
 184:Drivers/CMSIS/DSP/Source/TransformFunctions/arm_dct4_q15.c ****   /* pS1 initialized to pState */
 185:Drivers/CMSIS/DSP/Source/TransformFunctions/arm_dct4_q15.c ****   pS1 = pState;
 240              		.loc 1 185 3 view .LVU87
 186:Drivers/CMSIS/DSP/Source/TransformFunctions/arm_dct4_q15.c **** 
 187:Drivers/CMSIS/DSP/Source/TransformFunctions/arm_dct4_q15.c ****   /* Calculating Y4(0) from Y2(0) using Y4(0) = Y2(0)/2 */
 188:Drivers/CMSIS/DSP/Source/TransformFunctions/arm_dct4_q15.c ****   in = *pS1++ >> 1U;
 241              		.loc 1 188 3 view .LVU88
 242              		.loc 1 188 8 is_stmt 0 view .LVU89
 243 00d4 3146     		mov	r1, r6
 244 00d6 31F9043B 		ldrsh	r3, [r1], #4
 245              		.loc 1 188 6 view .LVU90
 246 00da 5B10     		asrs	r3, r3, #1
 247              	.LVL34:
 189:Drivers/CMSIS/DSP/Source/TransformFunctions/arm_dct4_q15.c ****   /* input buffer acts as inplace, so output values are stored in the input itself. */
 190:Drivers/CMSIS/DSP/Source/TransformFunctions/arm_dct4_q15.c ****   *pbuff++ = in;
 248              		.loc 1 190 3 is_stmt 1 view .LVU91
 249              		.loc 1 190 9 is_stmt 0 view .LVU92
 250 00dc A446     		mov	ip, r4
 251              	.LVL35:
 252              		.loc 1 190 12 view .LVU93
 253 00de 2CF8023B 		strh	r3, [ip], #2	@ movhi
 254              	.LVL36:
 191:Drivers/CMSIS/DSP/Source/TransformFunctions/arm_dct4_q15.c **** 
 192:Drivers/CMSIS/DSP/Source/TransformFunctions/arm_dct4_q15.c ****   /* pState pointer is incremented twice as the real values are located alternatively in the array 
 193:Drivers/CMSIS/DSP/Source/TransformFunctions/arm_dct4_q15.c ****   pS1++;
 255              		.loc 1 193 3 is_stmt 1 view .LVU94
 256              	.L4:
 194:Drivers/CMSIS/DSP/Source/TransformFunctions/arm_dct4_q15.c **** 
 195:Drivers/CMSIS/DSP/Source/TransformFunctions/arm_dct4_q15.c ****   /* First part of the processing with loop unrolling.  Compute 4 outputs at a time.
 196:Drivers/CMSIS/DSP/Source/TransformFunctions/arm_dct4_q15.c ****    ** a second loop below computes the remaining 1 to 3 samples. */
 197:Drivers/CMSIS/DSP/Source/TransformFunctions/arm_dct4_q15.c ****   do
ARM GAS  C:\Users\17832\AppData\Local\Temp\ccwbI0aF.s 			page 9


 257              		.loc 1 197 3 discriminator 1 view .LVU95
 198:Drivers/CMSIS/DSP/Source/TransformFunctions/arm_dct4_q15.c ****   {
 199:Drivers/CMSIS/DSP/Source/TransformFunctions/arm_dct4_q15.c ****     /* Calculating Y4(1) to Y4(N-1) from Y2 using equation Y4(k) = Y2(k) - Y4(k-1) */
 200:Drivers/CMSIS/DSP/Source/TransformFunctions/arm_dct4_q15.c ****     /* pState pointer (pS1) is incremented twice as the real values are located alternatively in th
 201:Drivers/CMSIS/DSP/Source/TransformFunctions/arm_dct4_q15.c ****     in = *pS1++ - in;
 258              		.loc 1 201 5 discriminator 1 view .LVU96
 259              		.loc 1 201 10 is_stmt 0 discriminator 1 view .LVU97
 260 00e2 0E88     		ldrh	r6, [r1]
 261              		.loc 1 201 17 discriminator 1 view .LVU98
 262 00e4 9BB2     		uxth	r3, r3
 263              		.loc 1 201 17 discriminator 1 view .LVU99
 264 00e6 F21A     		subs	r2, r6, r3
 265              	.LVL37:
 202:Drivers/CMSIS/DSP/Source/TransformFunctions/arm_dct4_q15.c ****     *pbuff++ = in;
 266              		.loc 1 202 5 is_stmt 1 discriminator 1 view .LVU100
 267              		.loc 1 202 14 is_stmt 0 discriminator 1 view .LVU101
 268 00e8 ACF80020 		strh	r2, [ip]	@ movhi
 203:Drivers/CMSIS/DSP/Source/TransformFunctions/arm_dct4_q15.c ****     /* points to the next real value */
 204:Drivers/CMSIS/DSP/Source/TransformFunctions/arm_dct4_q15.c ****     pS1++;
 269              		.loc 1 204 5 is_stmt 1 discriminator 1 view .LVU102
 270              	.LVL38:
 205:Drivers/CMSIS/DSP/Source/TransformFunctions/arm_dct4_q15.c **** 
 206:Drivers/CMSIS/DSP/Source/TransformFunctions/arm_dct4_q15.c ****     in = *pS1++ - in;
 271              		.loc 1 206 5 discriminator 1 view .LVU103
 272              		.loc 1 206 10 is_stmt 0 discriminator 1 view .LVU104
 273 00ec 8A88     		ldrh	r2, [r1, #4]
 274              	.LVL39:
 275              		.loc 1 206 17 discriminator 1 view .LVU105
 276 00ee 9B1B     		subs	r3, r3, r6
 277 00f0 1344     		add	r3, r3, r2
 278 00f2 9AB2     		uxth	r2, r3
 279              	.LVL40:
 207:Drivers/CMSIS/DSP/Source/TransformFunctions/arm_dct4_q15.c ****     *pbuff++ = in;
 280              		.loc 1 207 5 is_stmt 1 discriminator 1 view .LVU106
 281              		.loc 1 207 14 is_stmt 0 discriminator 1 view .LVU107
 282 00f4 ACF80230 		strh	r3, [ip, #2]	@ movhi
 208:Drivers/CMSIS/DSP/Source/TransformFunctions/arm_dct4_q15.c ****     pS1++;
 283              		.loc 1 208 5 is_stmt 1 discriminator 1 view .LVU108
 284              	.LVL41:
 209:Drivers/CMSIS/DSP/Source/TransformFunctions/arm_dct4_q15.c **** 
 210:Drivers/CMSIS/DSP/Source/TransformFunctions/arm_dct4_q15.c ****     in = *pS1++ - in;
 285              		.loc 1 210 5 discriminator 1 view .LVU109
 286              		.loc 1 210 10 is_stmt 0 discriminator 1 view .LVU110
 287 00f8 0E89     		ldrh	r6, [r1, #8]
 288              		.loc 1 210 17 discriminator 1 view .LVU111
 289 00fa B31A     		subs	r3, r6, r2
 290              	.LVL42:
 211:Drivers/CMSIS/DSP/Source/TransformFunctions/arm_dct4_q15.c ****     *pbuff++ = in;
 291              		.loc 1 211 5 is_stmt 1 discriminator 1 view .LVU112
 292              		.loc 1 211 14 is_stmt 0 discriminator 1 view .LVU113
 293 00fc ACF80430 		strh	r3, [ip, #4]	@ movhi
 212:Drivers/CMSIS/DSP/Source/TransformFunctions/arm_dct4_q15.c ****     pS1++;
 294              		.loc 1 212 5 is_stmt 1 discriminator 1 view .LVU114
 295              	.LVL43:
 213:Drivers/CMSIS/DSP/Source/TransformFunctions/arm_dct4_q15.c **** 
 214:Drivers/CMSIS/DSP/Source/TransformFunctions/arm_dct4_q15.c ****     in = *pS1++ - in;
 296              		.loc 1 214 5 discriminator 1 view .LVU115
ARM GAS  C:\Users\17832\AppData\Local\Temp\ccwbI0aF.s 			page 10


 297              		.loc 1 214 10 is_stmt 0 discriminator 1 view .LVU116
 298 0100 8B89     		ldrh	r3, [r1, #12]
 299              	.LVL44:
 300              		.loc 1 214 17 discriminator 1 view .LVU117
 301 0102 921B     		subs	r2, r2, r6
 302 0104 1344     		add	r3, r3, r2
 303              		.loc 1 214 8 discriminator 1 view .LVU118
 304 0106 1BB2     		sxth	r3, r3
 305              	.LVL45:
 215:Drivers/CMSIS/DSP/Source/TransformFunctions/arm_dct4_q15.c ****     *pbuff++ = in;
 306              		.loc 1 215 5 is_stmt 1 discriminator 1 view .LVU119
 307              		.loc 1 215 14 is_stmt 0 discriminator 1 view .LVU120
 308 0108 ACF80630 		strh	r3, [ip, #6]	@ movhi
 309 010c 0CF1080C 		add	ip, ip, #8
 310              	.LVL46:
 216:Drivers/CMSIS/DSP/Source/TransformFunctions/arm_dct4_q15.c ****     pS1++;
 311              		.loc 1 216 5 is_stmt 1 discriminator 1 view .LVU121
 312              		.loc 1 216 8 is_stmt 0 discriminator 1 view .LVU122
 313 0110 1031     		adds	r1, r1, #16
 314              	.LVL47:
 217:Drivers/CMSIS/DSP/Source/TransformFunctions/arm_dct4_q15.c **** 
 218:Drivers/CMSIS/DSP/Source/TransformFunctions/arm_dct4_q15.c ****     /* Decrement the loop counter */
 219:Drivers/CMSIS/DSP/Source/TransformFunctions/arm_dct4_q15.c ****     i--;
 315              		.loc 1 219 5 is_stmt 1 discriminator 1 view .LVU123
 220:Drivers/CMSIS/DSP/Source/TransformFunctions/arm_dct4_q15.c ****   } while (i > 0U);
 316              		.loc 1 220 11 discriminator 1 view .LVU124
 317              		.loc 1 220 3 is_stmt 0 discriminator 1 view .LVU125
 318 0112 0138     		subs	r0, r0, #1
 319              	.LVL48:
 320              		.loc 1 220 3 discriminator 1 view .LVU126
 321 0114 E5D1     		bne	.L4
 221:Drivers/CMSIS/DSP/Source/TransformFunctions/arm_dct4_q15.c **** 
 222:Drivers/CMSIS/DSP/Source/TransformFunctions/arm_dct4_q15.c ****   /* If the blockSize is not a multiple of 4, compute any remaining output samples here.
 223:Drivers/CMSIS/DSP/Source/TransformFunctions/arm_dct4_q15.c ****    ** No loop unrolling is used. */
 224:Drivers/CMSIS/DSP/Source/TransformFunctions/arm_dct4_q15.c ****   i = ((uint32_t) S->N - 1U) % 0x4U;
 322              		.loc 1 224 3 is_stmt 1 view .LVU127
 323              		.loc 1 224 20 is_stmt 0 view .LVU128
 324 0116 2A88     		ldrh	r2, [r5]
 325              		.loc 1 224 24 view .LVU129
 326 0118 013A     		subs	r2, r2, #1
 327              		.loc 1 224 5 view .LVU130
 328 011a 02F00302 		and	r2, r2, #3
 329              	.LVL49:
 225:Drivers/CMSIS/DSP/Source/TransformFunctions/arm_dct4_q15.c **** 
 226:Drivers/CMSIS/DSP/Source/TransformFunctions/arm_dct4_q15.c ****   while (i > 0U)
 330              		.loc 1 226 3 is_stmt 1 view .LVU131
 331              		.loc 1 226 9 is_stmt 0 view .LVU132
 332 011e 06E0     		b	.L5
 333              	.LVL50:
 334              	.L6:
 227:Drivers/CMSIS/DSP/Source/TransformFunctions/arm_dct4_q15.c ****   {
 228:Drivers/CMSIS/DSP/Source/TransformFunctions/arm_dct4_q15.c ****     /* Calculating Y4(1) to Y4(N-1) from Y2 using equation Y4(k) = Y2(k) - Y4(k-1) */
 229:Drivers/CMSIS/DSP/Source/TransformFunctions/arm_dct4_q15.c ****     /* pState pointer (pS1) is incremented twice as the real values are located alternatively in th
 230:Drivers/CMSIS/DSP/Source/TransformFunctions/arm_dct4_q15.c ****     in = *pS1++ - in;
 335              		.loc 1 230 5 is_stmt 1 view .LVU133
 336              		.loc 1 230 10 is_stmt 0 view .LVU134
 337 0120 31F8040B 		ldrh	r0, [r1], #4
ARM GAS  C:\Users\17832\AppData\Local\Temp\ccwbI0aF.s 			page 11


 338              	.LVL51:
 339              		.loc 1 230 17 view .LVU135
 340 0124 C31A     		subs	r3, r0, r3
 341              	.LVL52:
 342              		.loc 1 230 8 view .LVU136
 343 0126 1BB2     		sxth	r3, r3
 344              	.LVL53:
 231:Drivers/CMSIS/DSP/Source/TransformFunctions/arm_dct4_q15.c ****     *pbuff++ = in;
 345              		.loc 1 231 5 is_stmt 1 view .LVU137
 346              		.loc 1 231 14 is_stmt 0 view .LVU138
 347 0128 2CF8023B 		strh	r3, [ip], #2	@ movhi
 348              	.LVL54:
 232:Drivers/CMSIS/DSP/Source/TransformFunctions/arm_dct4_q15.c ****     /* points to the next real value */
 233:Drivers/CMSIS/DSP/Source/TransformFunctions/arm_dct4_q15.c ****     pS1++;
 349              		.loc 1 233 5 is_stmt 1 view .LVU139
 234:Drivers/CMSIS/DSP/Source/TransformFunctions/arm_dct4_q15.c **** 
 235:Drivers/CMSIS/DSP/Source/TransformFunctions/arm_dct4_q15.c ****     /* Decrement the loop counter */
 236:Drivers/CMSIS/DSP/Source/TransformFunctions/arm_dct4_q15.c ****     i--;
 350              		.loc 1 236 5 view .LVU140
 351              		.loc 1 236 6 is_stmt 0 view .LVU141
 352 012c 013A     		subs	r2, r2, #1
 353              	.LVL55:
 354              	.L5:
 226:Drivers/CMSIS/DSP/Source/TransformFunctions/arm_dct4_q15.c ****   {
 355              		.loc 1 226 9 is_stmt 1 view .LVU142
 356 012e 002A     		cmp	r2, #0
 357 0130 F6D1     		bne	.L6
 237:Drivers/CMSIS/DSP/Source/TransformFunctions/arm_dct4_q15.c ****   }
 238:Drivers/CMSIS/DSP/Source/TransformFunctions/arm_dct4_q15.c **** 
 239:Drivers/CMSIS/DSP/Source/TransformFunctions/arm_dct4_q15.c **** 
 240:Drivers/CMSIS/DSP/Source/TransformFunctions/arm_dct4_q15.c ****    /*------------ Normalizing the output by multiplying with the normalizing factor ----------*/
 241:Drivers/CMSIS/DSP/Source/TransformFunctions/arm_dct4_q15.c **** 
 242:Drivers/CMSIS/DSP/Source/TransformFunctions/arm_dct4_q15.c ****   /* Initializing the loop counter to N/4 instead of N for loop unrolling */
 243:Drivers/CMSIS/DSP/Source/TransformFunctions/arm_dct4_q15.c ****   i = (uint32_t) S->N >> 2U;
 358              		.loc 1 243 3 view .LVU143
 359              		.loc 1 243 19 is_stmt 0 view .LVU144
 360 0132 2A88     		ldrh	r2, [r5]
 361              	.LVL56:
 362              		.loc 1 243 23 view .LVU145
 363 0134 9208     		lsrs	r2, r2, #2
 364              	.LVL57:
 244:Drivers/CMSIS/DSP/Source/TransformFunctions/arm_dct4_q15.c **** 
 245:Drivers/CMSIS/DSP/Source/TransformFunctions/arm_dct4_q15.c ****   /* pbuff initialized to the pInlineBuffer(now contains the output values) */
 246:Drivers/CMSIS/DSP/Source/TransformFunctions/arm_dct4_q15.c ****   pbuff = pInlineBuffer;
 365              		.loc 1 246 3 is_stmt 1 view .LVU146
 366              	.L7:
 247:Drivers/CMSIS/DSP/Source/TransformFunctions/arm_dct4_q15.c **** 
 248:Drivers/CMSIS/DSP/Source/TransformFunctions/arm_dct4_q15.c ****   /* Processing with loop unrolling 4 times as N is always multiple of 4.  Compute 4 outputs at a t
 249:Drivers/CMSIS/DSP/Source/TransformFunctions/arm_dct4_q15.c ****   do
 367              		.loc 1 249 3 discriminator 1 view .LVU147
 250:Drivers/CMSIS/DSP/Source/TransformFunctions/arm_dct4_q15.c ****   {
 251:Drivers/CMSIS/DSP/Source/TransformFunctions/arm_dct4_q15.c ****     /* Multiplying pInlineBuffer with the normalizing factor sqrt(2/N) */
 252:Drivers/CMSIS/DSP/Source/TransformFunctions/arm_dct4_q15.c ****     in = *pbuff;
 368              		.loc 1 252 5 discriminator 1 view .LVU148
 369              		.loc 1 252 8 is_stmt 0 discriminator 1 view .LVU149
 370 0136 B4F90030 		ldrsh	r3, [r4]
 371              	.LVL58:
ARM GAS  C:\Users\17832\AppData\Local\Temp\ccwbI0aF.s 			page 12


 253:Drivers/CMSIS/DSP/Source/TransformFunctions/arm_dct4_q15.c ****     *pbuff++ = ((q15_t) (((q31_t) in * S->normalize) >> 15));
 372              		.loc 1 253 5 is_stmt 1 discriminator 1 view .LVU150
 373              		.loc 1 253 41 is_stmt 0 discriminator 1 view .LVU151
 374 013a B5F90410 		ldrsh	r1, [r5, #4]
 375              		.loc 1 253 38 discriminator 1 view .LVU152
 376 013e 01FB03F3 		mul	r3, r1, r3
 377              	.LVL59:
 378              		.loc 1 253 17 discriminator 1 view .LVU153
 379 0142 43F3CF33 		sbfx	r3, r3, #15, #16
 380              		.loc 1 253 14 discriminator 1 view .LVU154
 381 0146 2380     		strh	r3, [r4]	@ movhi
 382              	.LVL60:
 254:Drivers/CMSIS/DSP/Source/TransformFunctions/arm_dct4_q15.c **** 
 255:Drivers/CMSIS/DSP/Source/TransformFunctions/arm_dct4_q15.c ****     in = *pbuff;
 383              		.loc 1 255 5 is_stmt 1 discriminator 1 view .LVU155
 384              		.loc 1 255 8 is_stmt 0 discriminator 1 view .LVU156
 385 0148 B4F90230 		ldrsh	r3, [r4, #2]
 386              	.LVL61:
 256:Drivers/CMSIS/DSP/Source/TransformFunctions/arm_dct4_q15.c ****     *pbuff++ = ((q15_t) (((q31_t) in * S->normalize) >> 15));
 387              		.loc 1 256 5 is_stmt 1 discriminator 1 view .LVU157
 388              		.loc 1 256 41 is_stmt 0 discriminator 1 view .LVU158
 389 014c B5F90410 		ldrsh	r1, [r5, #4]
 390              		.loc 1 256 38 discriminator 1 view .LVU159
 391 0150 01FB03F3 		mul	r3, r1, r3
 392              	.LVL62:
 393              		.loc 1 256 17 discriminator 1 view .LVU160
 394 0154 43F3CF33 		sbfx	r3, r3, #15, #16
 395              		.loc 1 256 14 discriminator 1 view .LVU161
 396 0158 6380     		strh	r3, [r4, #2]	@ movhi
 397              	.LVL63:
 257:Drivers/CMSIS/DSP/Source/TransformFunctions/arm_dct4_q15.c **** 
 258:Drivers/CMSIS/DSP/Source/TransformFunctions/arm_dct4_q15.c ****     in = *pbuff;
 398              		.loc 1 258 5 is_stmt 1 discriminator 1 view .LVU162
 399              		.loc 1 258 8 is_stmt 0 discriminator 1 view .LVU163
 400 015a B4F90430 		ldrsh	r3, [r4, #4]
 401              	.LVL64:
 259:Drivers/CMSIS/DSP/Source/TransformFunctions/arm_dct4_q15.c ****     *pbuff++ = ((q15_t) (((q31_t) in * S->normalize) >> 15));
 402              		.loc 1 259 5 is_stmt 1 discriminator 1 view .LVU164
 403              		.loc 1 259 41 is_stmt 0 discriminator 1 view .LVU165
 404 015e B5F90410 		ldrsh	r1, [r5, #4]
 405              		.loc 1 259 38 discriminator 1 view .LVU166
 406 0162 01FB03F3 		mul	r3, r1, r3
 407              	.LVL65:
 408              		.loc 1 259 17 discriminator 1 view .LVU167
 409 0166 43F3CF33 		sbfx	r3, r3, #15, #16
 410              		.loc 1 259 14 discriminator 1 view .LVU168
 411 016a A380     		strh	r3, [r4, #4]	@ movhi
 412              	.LVL66:
 260:Drivers/CMSIS/DSP/Source/TransformFunctions/arm_dct4_q15.c **** 
 261:Drivers/CMSIS/DSP/Source/TransformFunctions/arm_dct4_q15.c ****     in = *pbuff;
 413              		.loc 1 261 5 is_stmt 1 discriminator 1 view .LVU169
 414              		.loc 1 261 8 is_stmt 0 discriminator 1 view .LVU170
 415 016c B4F90630 		ldrsh	r3, [r4, #6]
 416              	.LVL67:
 262:Drivers/CMSIS/DSP/Source/TransformFunctions/arm_dct4_q15.c ****     *pbuff++ = ((q15_t) (((q31_t) in * S->normalize) >> 15));
 417              		.loc 1 262 5 is_stmt 1 discriminator 1 view .LVU171
 418              		.loc 1 262 41 is_stmt 0 discriminator 1 view .LVU172
ARM GAS  C:\Users\17832\AppData\Local\Temp\ccwbI0aF.s 			page 13


 419 0170 B5F90410 		ldrsh	r1, [r5, #4]
 420              		.loc 1 262 38 discriminator 1 view .LVU173
 421 0174 01FB03F3 		mul	r3, r1, r3
 422              	.LVL68:
 423              		.loc 1 262 17 discriminator 1 view .LVU174
 424 0178 43F3CF33 		sbfx	r3, r3, #15, #16
 425              		.loc 1 262 14 discriminator 1 view .LVU175
 426 017c E380     		strh	r3, [r4, #6]	@ movhi
 427              	.LVL69:
 428              		.loc 1 262 14 discriminator 1 view .LVU176
 429 017e 0834     		adds	r4, r4, #8
 430              	.LVL70:
 263:Drivers/CMSIS/DSP/Source/TransformFunctions/arm_dct4_q15.c **** 
 264:Drivers/CMSIS/DSP/Source/TransformFunctions/arm_dct4_q15.c ****     /* Decrement the loop counter */
 265:Drivers/CMSIS/DSP/Source/TransformFunctions/arm_dct4_q15.c ****     i--;
 431              		.loc 1 265 5 is_stmt 1 discriminator 1 view .LVU177
 266:Drivers/CMSIS/DSP/Source/TransformFunctions/arm_dct4_q15.c ****   } while (i > 0U);
 432              		.loc 1 266 11 discriminator 1 view .LVU178
 433              		.loc 1 266 3 is_stmt 0 discriminator 1 view .LVU179
 434 0180 013A     		subs	r2, r2, #1
 435              	.LVL71:
 436              		.loc 1 266 3 discriminator 1 view .LVU180
 437 0182 D8D1     		bne	.L7
 267:Drivers/CMSIS/DSP/Source/TransformFunctions/arm_dct4_q15.c **** 
 268:Drivers/CMSIS/DSP/Source/TransformFunctions/arm_dct4_q15.c **** 
 269:Drivers/CMSIS/DSP/Source/TransformFunctions/arm_dct4_q15.c **** #else
 270:Drivers/CMSIS/DSP/Source/TransformFunctions/arm_dct4_q15.c **** 
 271:Drivers/CMSIS/DSP/Source/TransformFunctions/arm_dct4_q15.c ****   /* Run the below code for Cortex-M0 */
 272:Drivers/CMSIS/DSP/Source/TransformFunctions/arm_dct4_q15.c **** 
 273:Drivers/CMSIS/DSP/Source/TransformFunctions/arm_dct4_q15.c ****   /* Initializing the loop counter to N/2 */
 274:Drivers/CMSIS/DSP/Source/TransformFunctions/arm_dct4_q15.c ****   i = (uint32_t) S->Nby2;
 275:Drivers/CMSIS/DSP/Source/TransformFunctions/arm_dct4_q15.c **** 
 276:Drivers/CMSIS/DSP/Source/TransformFunctions/arm_dct4_q15.c ****   do
 277:Drivers/CMSIS/DSP/Source/TransformFunctions/arm_dct4_q15.c ****   {
 278:Drivers/CMSIS/DSP/Source/TransformFunctions/arm_dct4_q15.c ****     /* Re-ordering of even and odd elements */
 279:Drivers/CMSIS/DSP/Source/TransformFunctions/arm_dct4_q15.c ****     /* pState[i] =  pInlineBuffer[2*i] */
 280:Drivers/CMSIS/DSP/Source/TransformFunctions/arm_dct4_q15.c ****     *pS1++ = *pbuff++;
 281:Drivers/CMSIS/DSP/Source/TransformFunctions/arm_dct4_q15.c ****     /* pState[N-i-1] = pInlineBuffer[2*i+1] */
 282:Drivers/CMSIS/DSP/Source/TransformFunctions/arm_dct4_q15.c ****     *pS2-- = *pbuff++;
 283:Drivers/CMSIS/DSP/Source/TransformFunctions/arm_dct4_q15.c **** 
 284:Drivers/CMSIS/DSP/Source/TransformFunctions/arm_dct4_q15.c ****     /* Decrement the loop counter */
 285:Drivers/CMSIS/DSP/Source/TransformFunctions/arm_dct4_q15.c ****     i--;
 286:Drivers/CMSIS/DSP/Source/TransformFunctions/arm_dct4_q15.c ****   } while (i > 0U);
 287:Drivers/CMSIS/DSP/Source/TransformFunctions/arm_dct4_q15.c **** 
 288:Drivers/CMSIS/DSP/Source/TransformFunctions/arm_dct4_q15.c ****   /* pbuff initialized to input buffer */
 289:Drivers/CMSIS/DSP/Source/TransformFunctions/arm_dct4_q15.c ****   pbuff = pInlineBuffer;
 290:Drivers/CMSIS/DSP/Source/TransformFunctions/arm_dct4_q15.c **** 
 291:Drivers/CMSIS/DSP/Source/TransformFunctions/arm_dct4_q15.c ****   /* pS1 initialized to pState */
 292:Drivers/CMSIS/DSP/Source/TransformFunctions/arm_dct4_q15.c ****   pS1 = pState;
 293:Drivers/CMSIS/DSP/Source/TransformFunctions/arm_dct4_q15.c **** 
 294:Drivers/CMSIS/DSP/Source/TransformFunctions/arm_dct4_q15.c ****   /* Initializing the loop counter */
 295:Drivers/CMSIS/DSP/Source/TransformFunctions/arm_dct4_q15.c ****   i = (uint32_t) S->N;
 296:Drivers/CMSIS/DSP/Source/TransformFunctions/arm_dct4_q15.c **** 
 297:Drivers/CMSIS/DSP/Source/TransformFunctions/arm_dct4_q15.c ****   do
 298:Drivers/CMSIS/DSP/Source/TransformFunctions/arm_dct4_q15.c ****   {
 299:Drivers/CMSIS/DSP/Source/TransformFunctions/arm_dct4_q15.c ****     /* Writing the re-ordered output back to inplace input buffer */
 300:Drivers/CMSIS/DSP/Source/TransformFunctions/arm_dct4_q15.c ****     *pbuff++ = *pS1++;
ARM GAS  C:\Users\17832\AppData\Local\Temp\ccwbI0aF.s 			page 14


 301:Drivers/CMSIS/DSP/Source/TransformFunctions/arm_dct4_q15.c **** 
 302:Drivers/CMSIS/DSP/Source/TransformFunctions/arm_dct4_q15.c ****     /* Decrement the loop counter */
 303:Drivers/CMSIS/DSP/Source/TransformFunctions/arm_dct4_q15.c ****     i--;
 304:Drivers/CMSIS/DSP/Source/TransformFunctions/arm_dct4_q15.c ****   } while (i > 0U);
 305:Drivers/CMSIS/DSP/Source/TransformFunctions/arm_dct4_q15.c **** 
 306:Drivers/CMSIS/DSP/Source/TransformFunctions/arm_dct4_q15.c **** 
 307:Drivers/CMSIS/DSP/Source/TransformFunctions/arm_dct4_q15.c ****   /* ---------------------------------------------------------
 308:Drivers/CMSIS/DSP/Source/TransformFunctions/arm_dct4_q15.c ****    *     Step2: Calculate RFFT for N-point input
 309:Drivers/CMSIS/DSP/Source/TransformFunctions/arm_dct4_q15.c ****    * ---------------------------------------------------------- */
 310:Drivers/CMSIS/DSP/Source/TransformFunctions/arm_dct4_q15.c ****   /* pInlineBuffer is real input of length N , pState is the complex output of length 2N */
 311:Drivers/CMSIS/DSP/Source/TransformFunctions/arm_dct4_q15.c ****   arm_rfft_q15(S->pRfft, pInlineBuffer, pState);
 312:Drivers/CMSIS/DSP/Source/TransformFunctions/arm_dct4_q15.c **** 
 313:Drivers/CMSIS/DSP/Source/TransformFunctions/arm_dct4_q15.c ****  /*----------------------------------------------------------------------
 314:Drivers/CMSIS/DSP/Source/TransformFunctions/arm_dct4_q15.c ****   *  Step3: Multiply the FFT output with the weights.
 315:Drivers/CMSIS/DSP/Source/TransformFunctions/arm_dct4_q15.c ****   *----------------------------------------------------------------------*/
 316:Drivers/CMSIS/DSP/Source/TransformFunctions/arm_dct4_q15.c ****   arm_cmplx_mult_cmplx_q15(pState, weights, pState, S->N);
 317:Drivers/CMSIS/DSP/Source/TransformFunctions/arm_dct4_q15.c **** 
 318:Drivers/CMSIS/DSP/Source/TransformFunctions/arm_dct4_q15.c ****   /* The output of complex multiplication is in 3.13 format.
 319:Drivers/CMSIS/DSP/Source/TransformFunctions/arm_dct4_q15.c ****    * Hence changing the format of N (i.e. 2*N elements) complex numbers to 1.15 format by shifting 
 320:Drivers/CMSIS/DSP/Source/TransformFunctions/arm_dct4_q15.c ****   arm_shift_q15(pState, 2, pState, S->N * 2);
 321:Drivers/CMSIS/DSP/Source/TransformFunctions/arm_dct4_q15.c **** 
 322:Drivers/CMSIS/DSP/Source/TransformFunctions/arm_dct4_q15.c ****   /* ----------- Post-processing ---------- */
 323:Drivers/CMSIS/DSP/Source/TransformFunctions/arm_dct4_q15.c ****   /* DCT-IV can be obtained from DCT-II by the equation,
 324:Drivers/CMSIS/DSP/Source/TransformFunctions/arm_dct4_q15.c ****    *       Y4(k) = Y2(k) - Y4(k-1) and Y4(-1) = Y4(0)
 325:Drivers/CMSIS/DSP/Source/TransformFunctions/arm_dct4_q15.c ****    *       Hence, Y4(0) = Y2(0)/2  */
 326:Drivers/CMSIS/DSP/Source/TransformFunctions/arm_dct4_q15.c ****   /* Getting only real part from the output and Converting to DCT-IV */
 327:Drivers/CMSIS/DSP/Source/TransformFunctions/arm_dct4_q15.c **** 
 328:Drivers/CMSIS/DSP/Source/TransformFunctions/arm_dct4_q15.c ****   /* Initializing the loop counter */
 329:Drivers/CMSIS/DSP/Source/TransformFunctions/arm_dct4_q15.c ****   i = ((uint32_t) S->N - 1U);
 330:Drivers/CMSIS/DSP/Source/TransformFunctions/arm_dct4_q15.c **** 
 331:Drivers/CMSIS/DSP/Source/TransformFunctions/arm_dct4_q15.c ****   /* pbuff initialized to input buffer. */
 332:Drivers/CMSIS/DSP/Source/TransformFunctions/arm_dct4_q15.c ****   pbuff = pInlineBuffer;
 333:Drivers/CMSIS/DSP/Source/TransformFunctions/arm_dct4_q15.c **** 
 334:Drivers/CMSIS/DSP/Source/TransformFunctions/arm_dct4_q15.c ****   /* pS1 initialized to pState */
 335:Drivers/CMSIS/DSP/Source/TransformFunctions/arm_dct4_q15.c ****   pS1 = pState;
 336:Drivers/CMSIS/DSP/Source/TransformFunctions/arm_dct4_q15.c **** 
 337:Drivers/CMSIS/DSP/Source/TransformFunctions/arm_dct4_q15.c ****   /* Calculating Y4(0) from Y2(0) using Y4(0) = Y2(0)/2 */
 338:Drivers/CMSIS/DSP/Source/TransformFunctions/arm_dct4_q15.c ****   in = *pS1++ >> 1U;
 339:Drivers/CMSIS/DSP/Source/TransformFunctions/arm_dct4_q15.c ****   /* input buffer acts as inplace, so output values are stored in the input itself. */
 340:Drivers/CMSIS/DSP/Source/TransformFunctions/arm_dct4_q15.c ****   *pbuff++ = in;
 341:Drivers/CMSIS/DSP/Source/TransformFunctions/arm_dct4_q15.c **** 
 342:Drivers/CMSIS/DSP/Source/TransformFunctions/arm_dct4_q15.c ****   /* pState pointer is incremented twice as the real values are located alternatively in the array 
 343:Drivers/CMSIS/DSP/Source/TransformFunctions/arm_dct4_q15.c ****   pS1++;
 344:Drivers/CMSIS/DSP/Source/TransformFunctions/arm_dct4_q15.c **** 
 345:Drivers/CMSIS/DSP/Source/TransformFunctions/arm_dct4_q15.c ****   do
 346:Drivers/CMSIS/DSP/Source/TransformFunctions/arm_dct4_q15.c ****   {
 347:Drivers/CMSIS/DSP/Source/TransformFunctions/arm_dct4_q15.c ****     /* Calculating Y4(1) to Y4(N-1) from Y2 using equation Y4(k) = Y2(k) - Y4(k-1) */
 348:Drivers/CMSIS/DSP/Source/TransformFunctions/arm_dct4_q15.c ****     /* pState pointer (pS1) is incremented twice as the real values are located alternatively in th
 349:Drivers/CMSIS/DSP/Source/TransformFunctions/arm_dct4_q15.c ****     in = *pS1++ - in;
 350:Drivers/CMSIS/DSP/Source/TransformFunctions/arm_dct4_q15.c ****     *pbuff++ = in;
 351:Drivers/CMSIS/DSP/Source/TransformFunctions/arm_dct4_q15.c ****     /* points to the next real value */
 352:Drivers/CMSIS/DSP/Source/TransformFunctions/arm_dct4_q15.c ****     pS1++;
 353:Drivers/CMSIS/DSP/Source/TransformFunctions/arm_dct4_q15.c **** 
 354:Drivers/CMSIS/DSP/Source/TransformFunctions/arm_dct4_q15.c ****     /* Decrement the loop counter */
 355:Drivers/CMSIS/DSP/Source/TransformFunctions/arm_dct4_q15.c ****     i--;
 356:Drivers/CMSIS/DSP/Source/TransformFunctions/arm_dct4_q15.c ****   } while (i > 0U);
 357:Drivers/CMSIS/DSP/Source/TransformFunctions/arm_dct4_q15.c **** 
ARM GAS  C:\Users\17832\AppData\Local\Temp\ccwbI0aF.s 			page 15


 358:Drivers/CMSIS/DSP/Source/TransformFunctions/arm_dct4_q15.c ****    /*------------ Normalizing the output by multiplying with the normalizing factor ----------*/
 359:Drivers/CMSIS/DSP/Source/TransformFunctions/arm_dct4_q15.c **** 
 360:Drivers/CMSIS/DSP/Source/TransformFunctions/arm_dct4_q15.c ****   /* Initializing the loop counter */
 361:Drivers/CMSIS/DSP/Source/TransformFunctions/arm_dct4_q15.c ****   i = (uint32_t) S->N;
 362:Drivers/CMSIS/DSP/Source/TransformFunctions/arm_dct4_q15.c **** 
 363:Drivers/CMSIS/DSP/Source/TransformFunctions/arm_dct4_q15.c ****   /* pbuff initialized to the pInlineBuffer(now contains the output values) */
 364:Drivers/CMSIS/DSP/Source/TransformFunctions/arm_dct4_q15.c ****   pbuff = pInlineBuffer;
 365:Drivers/CMSIS/DSP/Source/TransformFunctions/arm_dct4_q15.c **** 
 366:Drivers/CMSIS/DSP/Source/TransformFunctions/arm_dct4_q15.c ****   do
 367:Drivers/CMSIS/DSP/Source/TransformFunctions/arm_dct4_q15.c ****   {
 368:Drivers/CMSIS/DSP/Source/TransformFunctions/arm_dct4_q15.c ****     /* Multiplying pInlineBuffer with the normalizing factor sqrt(2/N) */
 369:Drivers/CMSIS/DSP/Source/TransformFunctions/arm_dct4_q15.c ****     in = *pbuff;
 370:Drivers/CMSIS/DSP/Source/TransformFunctions/arm_dct4_q15.c ****     *pbuff++ = ((q15_t) (((q31_t) in * S->normalize) >> 15));
 371:Drivers/CMSIS/DSP/Source/TransformFunctions/arm_dct4_q15.c **** 
 372:Drivers/CMSIS/DSP/Source/TransformFunctions/arm_dct4_q15.c ****     /* Decrement the loop counter */
 373:Drivers/CMSIS/DSP/Source/TransformFunctions/arm_dct4_q15.c ****     i--;
 374:Drivers/CMSIS/DSP/Source/TransformFunctions/arm_dct4_q15.c ****   } while (i > 0U);
 375:Drivers/CMSIS/DSP/Source/TransformFunctions/arm_dct4_q15.c **** 
 376:Drivers/CMSIS/DSP/Source/TransformFunctions/arm_dct4_q15.c **** #endif /* #if defined (ARM_MATH_DSP) */
 377:Drivers/CMSIS/DSP/Source/TransformFunctions/arm_dct4_q15.c **** 
 378:Drivers/CMSIS/DSP/Source/TransformFunctions/arm_dct4_q15.c **** }
 438              		.loc 1 378 1 view .LVU181
 439 0184 F8BD     		pop	{r3, r4, r5, r6, r7, pc}
 440              		.loc 1 378 1 view .LVU182
 441              		.cfi_endproc
 442              	.LFE135:
 444              		.text
 445              	.Letext0:
 446              		.file 2 "d:\\gnu arm embedded toolchain\\10 2021.10\\arm-none-eabi\\include\\machine\\_default_typ
 447              		.file 3 "d:\\gnu arm embedded toolchain\\10 2021.10\\arm-none-eabi\\include\\sys\\_stdint.h"
 448              		.file 4 "Drivers/CMSIS/DSP/Include/arm_math.h"
ARM GAS  C:\Users\17832\AppData\Local\Temp\ccwbI0aF.s 			page 16

