ARM GAS  C:\Users\17832\AppData\Local\Temp\ccW85mhr.s 			page 1


   1              		.cpu cortex-m4
   2              		.arch armv7e-m
   3              		.fpu fpv4-sp-d16
   4              		.eabi_attribute 27, 1
   5              		.eabi_attribute 28, 1
   6              		.eabi_attribute 20, 1
   7              		.eabi_attribute 21, 1
   8              		.eabi_attribute 23, 3
   9              		.eabi_attribute 24, 1
  10              		.eabi_attribute 25, 1
  11              		.eabi_attribute 26, 1
  12              		.eabi_attribute 30, 1
  13              		.eabi_attribute 34, 1
  14              		.eabi_attribute 18, 4
  15              		.file	"arm_cfft_radix4_q31.c"
  16              		.text
  17              	.Ltext0:
  18              		.cfi_sections	.debug_frame
  19              		.section	.text.arm_radix4_butterfly_q31,"ax",%progbits
  20              		.align	1
  21              		.global	arm_radix4_butterfly_q31
  22              		.syntax unified
  23              		.thumb
  24              		.thumb_func
  26              	arm_radix4_butterfly_q31:
  27              	.LVL0:
  28              	.LFB136:
  29              		.file 1 "Drivers/CMSIS/DSP/Source/TransformFunctions/arm_cfft_radix4_q31.c"
   1:Drivers/CMSIS/DSP/Source/TransformFunctions/arm_cfft_radix4_q31.c **** /* ----------------------------------------------------------------------
   2:Drivers/CMSIS/DSP/Source/TransformFunctions/arm_cfft_radix4_q31.c ****  * Project:      CMSIS DSP Library
   3:Drivers/CMSIS/DSP/Source/TransformFunctions/arm_cfft_radix4_q31.c ****  * Title:        arm_cfft_radix4_q31.c
   4:Drivers/CMSIS/DSP/Source/TransformFunctions/arm_cfft_radix4_q31.c ****  * Description:  This file has function definition of Radix-4 FFT & IFFT function and
   5:Drivers/CMSIS/DSP/Source/TransformFunctions/arm_cfft_radix4_q31.c ****  *               In-place bit reversal using bit reversal table
   6:Drivers/CMSIS/DSP/Source/TransformFunctions/arm_cfft_radix4_q31.c ****  *
   7:Drivers/CMSIS/DSP/Source/TransformFunctions/arm_cfft_radix4_q31.c ****  * $Date:        27. January 2017
   8:Drivers/CMSIS/DSP/Source/TransformFunctions/arm_cfft_radix4_q31.c ****  * $Revision:    V.1.5.1
   9:Drivers/CMSIS/DSP/Source/TransformFunctions/arm_cfft_radix4_q31.c ****  *
  10:Drivers/CMSIS/DSP/Source/TransformFunctions/arm_cfft_radix4_q31.c ****  * Target Processor: Cortex-M cores
  11:Drivers/CMSIS/DSP/Source/TransformFunctions/arm_cfft_radix4_q31.c ****  * -------------------------------------------------------------------- */
  12:Drivers/CMSIS/DSP/Source/TransformFunctions/arm_cfft_radix4_q31.c **** /*
  13:Drivers/CMSIS/DSP/Source/TransformFunctions/arm_cfft_radix4_q31.c ****  * Copyright (C) 2010-2017 ARM Limited or its affiliates. All rights reserved.
  14:Drivers/CMSIS/DSP/Source/TransformFunctions/arm_cfft_radix4_q31.c ****  *
  15:Drivers/CMSIS/DSP/Source/TransformFunctions/arm_cfft_radix4_q31.c ****  * SPDX-License-Identifier: Apache-2.0
  16:Drivers/CMSIS/DSP/Source/TransformFunctions/arm_cfft_radix4_q31.c ****  *
  17:Drivers/CMSIS/DSP/Source/TransformFunctions/arm_cfft_radix4_q31.c ****  * Licensed under the Apache License, Version 2.0 (the License); you may
  18:Drivers/CMSIS/DSP/Source/TransformFunctions/arm_cfft_radix4_q31.c ****  * not use this file except in compliance with the License.
  19:Drivers/CMSIS/DSP/Source/TransformFunctions/arm_cfft_radix4_q31.c ****  * You may obtain a copy of the License at
  20:Drivers/CMSIS/DSP/Source/TransformFunctions/arm_cfft_radix4_q31.c ****  *
  21:Drivers/CMSIS/DSP/Source/TransformFunctions/arm_cfft_radix4_q31.c ****  * www.apache.org/licenses/LICENSE-2.0
  22:Drivers/CMSIS/DSP/Source/TransformFunctions/arm_cfft_radix4_q31.c ****  *
  23:Drivers/CMSIS/DSP/Source/TransformFunctions/arm_cfft_radix4_q31.c ****  * Unless required by applicable law or agreed to in writing, software
  24:Drivers/CMSIS/DSP/Source/TransformFunctions/arm_cfft_radix4_q31.c ****  * distributed under the License is distributed on an AS IS BASIS, WITHOUT
  25:Drivers/CMSIS/DSP/Source/TransformFunctions/arm_cfft_radix4_q31.c ****  * WARRANTIES OR CONDITIONS OF ANY KIND, either express or implied.
  26:Drivers/CMSIS/DSP/Source/TransformFunctions/arm_cfft_radix4_q31.c ****  * See the License for the specific language governing permissions and
  27:Drivers/CMSIS/DSP/Source/TransformFunctions/arm_cfft_radix4_q31.c ****  * limitations under the License.
  28:Drivers/CMSIS/DSP/Source/TransformFunctions/arm_cfft_radix4_q31.c ****  */
  29:Drivers/CMSIS/DSP/Source/TransformFunctions/arm_cfft_radix4_q31.c **** 
ARM GAS  C:\Users\17832\AppData\Local\Temp\ccW85mhr.s 			page 2


  30:Drivers/CMSIS/DSP/Source/TransformFunctions/arm_cfft_radix4_q31.c **** #include "arm_math.h"
  31:Drivers/CMSIS/DSP/Source/TransformFunctions/arm_cfft_radix4_q31.c **** 
  32:Drivers/CMSIS/DSP/Source/TransformFunctions/arm_cfft_radix4_q31.c **** void arm_radix4_butterfly_inverse_q31(
  33:Drivers/CMSIS/DSP/Source/TransformFunctions/arm_cfft_radix4_q31.c **** q31_t * pSrc,
  34:Drivers/CMSIS/DSP/Source/TransformFunctions/arm_cfft_radix4_q31.c **** uint32_t fftLen,
  35:Drivers/CMSIS/DSP/Source/TransformFunctions/arm_cfft_radix4_q31.c **** q31_t * pCoef,
  36:Drivers/CMSIS/DSP/Source/TransformFunctions/arm_cfft_radix4_q31.c **** uint32_t twidCoefModifier);
  37:Drivers/CMSIS/DSP/Source/TransformFunctions/arm_cfft_radix4_q31.c **** 
  38:Drivers/CMSIS/DSP/Source/TransformFunctions/arm_cfft_radix4_q31.c **** void arm_radix4_butterfly_q31(
  39:Drivers/CMSIS/DSP/Source/TransformFunctions/arm_cfft_radix4_q31.c **** q31_t * pSrc,
  40:Drivers/CMSIS/DSP/Source/TransformFunctions/arm_cfft_radix4_q31.c **** uint32_t fftLen,
  41:Drivers/CMSIS/DSP/Source/TransformFunctions/arm_cfft_radix4_q31.c **** q31_t * pCoef,
  42:Drivers/CMSIS/DSP/Source/TransformFunctions/arm_cfft_radix4_q31.c **** uint32_t twidCoefModifier);
  43:Drivers/CMSIS/DSP/Source/TransformFunctions/arm_cfft_radix4_q31.c **** 
  44:Drivers/CMSIS/DSP/Source/TransformFunctions/arm_cfft_radix4_q31.c **** void arm_bitreversal_q31(
  45:Drivers/CMSIS/DSP/Source/TransformFunctions/arm_cfft_radix4_q31.c **** q31_t * pSrc,
  46:Drivers/CMSIS/DSP/Source/TransformFunctions/arm_cfft_radix4_q31.c **** uint32_t fftLen,
  47:Drivers/CMSIS/DSP/Source/TransformFunctions/arm_cfft_radix4_q31.c **** uint16_t bitRevFactor,
  48:Drivers/CMSIS/DSP/Source/TransformFunctions/arm_cfft_radix4_q31.c **** uint16_t * pBitRevTab);
  49:Drivers/CMSIS/DSP/Source/TransformFunctions/arm_cfft_radix4_q31.c **** 
  50:Drivers/CMSIS/DSP/Source/TransformFunctions/arm_cfft_radix4_q31.c **** /**
  51:Drivers/CMSIS/DSP/Source/TransformFunctions/arm_cfft_radix4_q31.c ****  * @ingroup groupTransforms
  52:Drivers/CMSIS/DSP/Source/TransformFunctions/arm_cfft_radix4_q31.c ****  */
  53:Drivers/CMSIS/DSP/Source/TransformFunctions/arm_cfft_radix4_q31.c **** 
  54:Drivers/CMSIS/DSP/Source/TransformFunctions/arm_cfft_radix4_q31.c **** /**
  55:Drivers/CMSIS/DSP/Source/TransformFunctions/arm_cfft_radix4_q31.c ****  * @addtogroup ComplexFFT
  56:Drivers/CMSIS/DSP/Source/TransformFunctions/arm_cfft_radix4_q31.c ****  * @{
  57:Drivers/CMSIS/DSP/Source/TransformFunctions/arm_cfft_radix4_q31.c ****  */
  58:Drivers/CMSIS/DSP/Source/TransformFunctions/arm_cfft_radix4_q31.c **** 
  59:Drivers/CMSIS/DSP/Source/TransformFunctions/arm_cfft_radix4_q31.c **** /**
  60:Drivers/CMSIS/DSP/Source/TransformFunctions/arm_cfft_radix4_q31.c ****  * @details
  61:Drivers/CMSIS/DSP/Source/TransformFunctions/arm_cfft_radix4_q31.c ****  * @brief Processing function for the Q31 CFFT/CIFFT.
  62:Drivers/CMSIS/DSP/Source/TransformFunctions/arm_cfft_radix4_q31.c ****  * @deprecated Do not use this function.  It has been superseded by \ref arm_cfft_q31 and will be r
  63:Drivers/CMSIS/DSP/Source/TransformFunctions/arm_cfft_radix4_q31.c ****  * @param[in]      *S    points to an instance of the Q31 CFFT/CIFFT structure.
  64:Drivers/CMSIS/DSP/Source/TransformFunctions/arm_cfft_radix4_q31.c ****  * @param[in, out] *pSrc points to the complex data buffer of size <code>2*fftLen</code>. Processin
  65:Drivers/CMSIS/DSP/Source/TransformFunctions/arm_cfft_radix4_q31.c ****  * @return none.
  66:Drivers/CMSIS/DSP/Source/TransformFunctions/arm_cfft_radix4_q31.c ****  *
  67:Drivers/CMSIS/DSP/Source/TransformFunctions/arm_cfft_radix4_q31.c ****  * \par Input and output formats:
  68:Drivers/CMSIS/DSP/Source/TransformFunctions/arm_cfft_radix4_q31.c ****  * \par
  69:Drivers/CMSIS/DSP/Source/TransformFunctions/arm_cfft_radix4_q31.c ****  * Internally input is downscaled by 2 for every stage to avoid saturations inside CFFT/CIFFT proce
  70:Drivers/CMSIS/DSP/Source/TransformFunctions/arm_cfft_radix4_q31.c ****  * Hence the output format is different for different FFT sizes.
  71:Drivers/CMSIS/DSP/Source/TransformFunctions/arm_cfft_radix4_q31.c ****  * The input and output formats for different FFT sizes and number of bits to upscale are mentioned
  72:Drivers/CMSIS/DSP/Source/TransformFunctions/arm_cfft_radix4_q31.c ****  * \par
  73:Drivers/CMSIS/DSP/Source/TransformFunctions/arm_cfft_radix4_q31.c ****  * \image html CFFTQ31.gif "Input and Output Formats for Q31 CFFT"
  74:Drivers/CMSIS/DSP/Source/TransformFunctions/arm_cfft_radix4_q31.c ****  * \image html CIFFTQ31.gif "Input and Output Formats for Q31 CIFFT"
  75:Drivers/CMSIS/DSP/Source/TransformFunctions/arm_cfft_radix4_q31.c ****  *
  76:Drivers/CMSIS/DSP/Source/TransformFunctions/arm_cfft_radix4_q31.c ****  */
  77:Drivers/CMSIS/DSP/Source/TransformFunctions/arm_cfft_radix4_q31.c **** 
  78:Drivers/CMSIS/DSP/Source/TransformFunctions/arm_cfft_radix4_q31.c **** void arm_cfft_radix4_q31(
  79:Drivers/CMSIS/DSP/Source/TransformFunctions/arm_cfft_radix4_q31.c ****   const arm_cfft_radix4_instance_q31 * S,
  80:Drivers/CMSIS/DSP/Source/TransformFunctions/arm_cfft_radix4_q31.c ****   q31_t * pSrc)
  81:Drivers/CMSIS/DSP/Source/TransformFunctions/arm_cfft_radix4_q31.c **** {
  82:Drivers/CMSIS/DSP/Source/TransformFunctions/arm_cfft_radix4_q31.c ****   if (S->ifftFlag == 1U)
  83:Drivers/CMSIS/DSP/Source/TransformFunctions/arm_cfft_radix4_q31.c ****   {
  84:Drivers/CMSIS/DSP/Source/TransformFunctions/arm_cfft_radix4_q31.c ****     /* Complex IFFT radix-4 */
  85:Drivers/CMSIS/DSP/Source/TransformFunctions/arm_cfft_radix4_q31.c ****     arm_radix4_butterfly_inverse_q31(pSrc, S->fftLen, S->pTwiddle, S->twidCoefModifier);
  86:Drivers/CMSIS/DSP/Source/TransformFunctions/arm_cfft_radix4_q31.c ****   }
ARM GAS  C:\Users\17832\AppData\Local\Temp\ccW85mhr.s 			page 3


  87:Drivers/CMSIS/DSP/Source/TransformFunctions/arm_cfft_radix4_q31.c ****   else
  88:Drivers/CMSIS/DSP/Source/TransformFunctions/arm_cfft_radix4_q31.c ****   {
  89:Drivers/CMSIS/DSP/Source/TransformFunctions/arm_cfft_radix4_q31.c ****     /* Complex FFT radix-4 */
  90:Drivers/CMSIS/DSP/Source/TransformFunctions/arm_cfft_radix4_q31.c ****     arm_radix4_butterfly_q31(pSrc, S->fftLen, S->pTwiddle, S->twidCoefModifier);
  91:Drivers/CMSIS/DSP/Source/TransformFunctions/arm_cfft_radix4_q31.c ****   }
  92:Drivers/CMSIS/DSP/Source/TransformFunctions/arm_cfft_radix4_q31.c **** 
  93:Drivers/CMSIS/DSP/Source/TransformFunctions/arm_cfft_radix4_q31.c ****   if (S->bitReverseFlag == 1U)
  94:Drivers/CMSIS/DSP/Source/TransformFunctions/arm_cfft_radix4_q31.c ****   {
  95:Drivers/CMSIS/DSP/Source/TransformFunctions/arm_cfft_radix4_q31.c ****     /*  Bit Reversal */
  96:Drivers/CMSIS/DSP/Source/TransformFunctions/arm_cfft_radix4_q31.c ****     arm_bitreversal_q31(pSrc, S->fftLen, S->bitRevFactor, S->pBitRevTable);
  97:Drivers/CMSIS/DSP/Source/TransformFunctions/arm_cfft_radix4_q31.c ****   }
  98:Drivers/CMSIS/DSP/Source/TransformFunctions/arm_cfft_radix4_q31.c **** 
  99:Drivers/CMSIS/DSP/Source/TransformFunctions/arm_cfft_radix4_q31.c **** }
 100:Drivers/CMSIS/DSP/Source/TransformFunctions/arm_cfft_radix4_q31.c **** 
 101:Drivers/CMSIS/DSP/Source/TransformFunctions/arm_cfft_radix4_q31.c **** /**
 102:Drivers/CMSIS/DSP/Source/TransformFunctions/arm_cfft_radix4_q31.c ****  * @} end of ComplexFFT group
 103:Drivers/CMSIS/DSP/Source/TransformFunctions/arm_cfft_radix4_q31.c ****  */
 104:Drivers/CMSIS/DSP/Source/TransformFunctions/arm_cfft_radix4_q31.c **** 
 105:Drivers/CMSIS/DSP/Source/TransformFunctions/arm_cfft_radix4_q31.c **** /*
 106:Drivers/CMSIS/DSP/Source/TransformFunctions/arm_cfft_radix4_q31.c **** * Radix-4 FFT algorithm used is :
 107:Drivers/CMSIS/DSP/Source/TransformFunctions/arm_cfft_radix4_q31.c **** *
 108:Drivers/CMSIS/DSP/Source/TransformFunctions/arm_cfft_radix4_q31.c **** * Input real and imaginary data:
 109:Drivers/CMSIS/DSP/Source/TransformFunctions/arm_cfft_radix4_q31.c **** * x(n) = xa + j * ya
 110:Drivers/CMSIS/DSP/Source/TransformFunctions/arm_cfft_radix4_q31.c **** * x(n+N/4 ) = xb + j * yb
 111:Drivers/CMSIS/DSP/Source/TransformFunctions/arm_cfft_radix4_q31.c **** * x(n+N/2 ) = xc + j * yc
 112:Drivers/CMSIS/DSP/Source/TransformFunctions/arm_cfft_radix4_q31.c **** * x(n+3N 4) = xd + j * yd
 113:Drivers/CMSIS/DSP/Source/TransformFunctions/arm_cfft_radix4_q31.c **** *
 114:Drivers/CMSIS/DSP/Source/TransformFunctions/arm_cfft_radix4_q31.c **** *
 115:Drivers/CMSIS/DSP/Source/TransformFunctions/arm_cfft_radix4_q31.c **** * Output real and imaginary data:
 116:Drivers/CMSIS/DSP/Source/TransformFunctions/arm_cfft_radix4_q31.c **** * x(4r) = xa'+ j * ya'
 117:Drivers/CMSIS/DSP/Source/TransformFunctions/arm_cfft_radix4_q31.c **** * x(4r+1) = xb'+ j * yb'
 118:Drivers/CMSIS/DSP/Source/TransformFunctions/arm_cfft_radix4_q31.c **** * x(4r+2) = xc'+ j * yc'
 119:Drivers/CMSIS/DSP/Source/TransformFunctions/arm_cfft_radix4_q31.c **** * x(4r+3) = xd'+ j * yd'
 120:Drivers/CMSIS/DSP/Source/TransformFunctions/arm_cfft_radix4_q31.c **** *
 121:Drivers/CMSIS/DSP/Source/TransformFunctions/arm_cfft_radix4_q31.c **** *
 122:Drivers/CMSIS/DSP/Source/TransformFunctions/arm_cfft_radix4_q31.c **** * Twiddle factors for radix-4 FFT:
 123:Drivers/CMSIS/DSP/Source/TransformFunctions/arm_cfft_radix4_q31.c **** * Wn = co1 + j * (- si1)
 124:Drivers/CMSIS/DSP/Source/TransformFunctions/arm_cfft_radix4_q31.c **** * W2n = co2 + j * (- si2)
 125:Drivers/CMSIS/DSP/Source/TransformFunctions/arm_cfft_radix4_q31.c **** * W3n = co3 + j * (- si3)
 126:Drivers/CMSIS/DSP/Source/TransformFunctions/arm_cfft_radix4_q31.c **** *
 127:Drivers/CMSIS/DSP/Source/TransformFunctions/arm_cfft_radix4_q31.c **** *  Butterfly implementation:
 128:Drivers/CMSIS/DSP/Source/TransformFunctions/arm_cfft_radix4_q31.c **** * xa' = xa + xb + xc + xd
 129:Drivers/CMSIS/DSP/Source/TransformFunctions/arm_cfft_radix4_q31.c **** * ya' = ya + yb + yc + yd
 130:Drivers/CMSIS/DSP/Source/TransformFunctions/arm_cfft_radix4_q31.c **** * xb' = (xa+yb-xc-yd)* co1 + (ya-xb-yc+xd)* (si1)
 131:Drivers/CMSIS/DSP/Source/TransformFunctions/arm_cfft_radix4_q31.c **** * yb' = (ya-xb-yc+xd)* co1 - (xa+yb-xc-yd)* (si1)
 132:Drivers/CMSIS/DSP/Source/TransformFunctions/arm_cfft_radix4_q31.c **** * xc' = (xa-xb+xc-xd)* co2 + (ya-yb+yc-yd)* (si2)
 133:Drivers/CMSIS/DSP/Source/TransformFunctions/arm_cfft_radix4_q31.c **** * yc' = (ya-yb+yc-yd)* co2 - (xa-xb+xc-xd)* (si2)
 134:Drivers/CMSIS/DSP/Source/TransformFunctions/arm_cfft_radix4_q31.c **** * xd' = (xa-yb-xc+yd)* co3 + (ya+xb-yc-xd)* (si3)
 135:Drivers/CMSIS/DSP/Source/TransformFunctions/arm_cfft_radix4_q31.c **** * yd' = (ya+xb-yc-xd)* co3 - (xa-yb-xc+yd)* (si3)
 136:Drivers/CMSIS/DSP/Source/TransformFunctions/arm_cfft_radix4_q31.c **** *
 137:Drivers/CMSIS/DSP/Source/TransformFunctions/arm_cfft_radix4_q31.c **** */
 138:Drivers/CMSIS/DSP/Source/TransformFunctions/arm_cfft_radix4_q31.c **** 
 139:Drivers/CMSIS/DSP/Source/TransformFunctions/arm_cfft_radix4_q31.c **** /**
 140:Drivers/CMSIS/DSP/Source/TransformFunctions/arm_cfft_radix4_q31.c ****  * @brief  Core function for the Q31 CFFT butterfly process.
 141:Drivers/CMSIS/DSP/Source/TransformFunctions/arm_cfft_radix4_q31.c ****  * @param[in, out] *pSrc            points to the in-place buffer of Q31 data type.
 142:Drivers/CMSIS/DSP/Source/TransformFunctions/arm_cfft_radix4_q31.c ****  * @param[in]      fftLen           length of the FFT.
 143:Drivers/CMSIS/DSP/Source/TransformFunctions/arm_cfft_radix4_q31.c ****  * @param[in]      *pCoef           points to twiddle coefficient buffer.
ARM GAS  C:\Users\17832\AppData\Local\Temp\ccW85mhr.s 			page 4


 144:Drivers/CMSIS/DSP/Source/TransformFunctions/arm_cfft_radix4_q31.c ****  * @param[in]      twidCoefModifier twiddle coefficient modifier that supports different size FFTs 
 145:Drivers/CMSIS/DSP/Source/TransformFunctions/arm_cfft_radix4_q31.c ****  * @return none.
 146:Drivers/CMSIS/DSP/Source/TransformFunctions/arm_cfft_radix4_q31.c ****  */
 147:Drivers/CMSIS/DSP/Source/TransformFunctions/arm_cfft_radix4_q31.c **** 
 148:Drivers/CMSIS/DSP/Source/TransformFunctions/arm_cfft_radix4_q31.c **** void arm_radix4_butterfly_q31(
 149:Drivers/CMSIS/DSP/Source/TransformFunctions/arm_cfft_radix4_q31.c ****   q31_t * pSrc,
 150:Drivers/CMSIS/DSP/Source/TransformFunctions/arm_cfft_radix4_q31.c ****   uint32_t fftLen,
 151:Drivers/CMSIS/DSP/Source/TransformFunctions/arm_cfft_radix4_q31.c ****   q31_t * pCoef,
 152:Drivers/CMSIS/DSP/Source/TransformFunctions/arm_cfft_radix4_q31.c ****   uint32_t twidCoefModifier)
 153:Drivers/CMSIS/DSP/Source/TransformFunctions/arm_cfft_radix4_q31.c **** {
  30              		.loc 1 153 1 view -0
  31              		.cfi_startproc
  32              		@ args = 0, pretend = 0, frame = 88
  33              		@ frame_needed = 0, uses_anonymous_args = 0
  34              		.loc 1 153 1 is_stmt 0 view .LVU1
  35 0000 2DE9F04F 		push	{r4, r5, r6, r7, r8, r9, r10, fp, lr}
  36              	.LCFI0:
  37              		.cfi_def_cfa_offset 36
  38              		.cfi_offset 4, -36
  39              		.cfi_offset 5, -32
  40              		.cfi_offset 6, -28
  41              		.cfi_offset 7, -24
  42              		.cfi_offset 8, -20
  43              		.cfi_offset 9, -16
  44              		.cfi_offset 10, -12
  45              		.cfi_offset 11, -8
  46              		.cfi_offset 14, -4
  47 0004 97B0     		sub	sp, sp, #92
  48              	.LCFI1:
  49              		.cfi_def_cfa_offset 128
  50 0006 1290     		str	r0, [sp, #72]
  51 0008 0B91     		str	r1, [sp, #44]
  52 000a 1092     		str	r2, [sp, #64]
  53 000c 0793     		str	r3, [sp, #28]
 154:Drivers/CMSIS/DSP/Source/TransformFunctions/arm_cfft_radix4_q31.c **** #if defined(ARM_MATH_CM7)
 155:Drivers/CMSIS/DSP/Source/TransformFunctions/arm_cfft_radix4_q31.c ****   uint32_t n1, n2, ia1, ia2, ia3, i0, i1, i2, i3, j, k;
 156:Drivers/CMSIS/DSP/Source/TransformFunctions/arm_cfft_radix4_q31.c ****   q31_t t1, t2, r1, r2, s1, s2, co1, co2, co3, si1, si2, si3;
 157:Drivers/CMSIS/DSP/Source/TransformFunctions/arm_cfft_radix4_q31.c **** 
 158:Drivers/CMSIS/DSP/Source/TransformFunctions/arm_cfft_radix4_q31.c ****   q31_t xa, xb, xc, xd;
 159:Drivers/CMSIS/DSP/Source/TransformFunctions/arm_cfft_radix4_q31.c ****   q31_t ya, yb, yc, yd;
 160:Drivers/CMSIS/DSP/Source/TransformFunctions/arm_cfft_radix4_q31.c ****   q31_t xa_out, xb_out, xc_out, xd_out;
 161:Drivers/CMSIS/DSP/Source/TransformFunctions/arm_cfft_radix4_q31.c ****   q31_t ya_out, yb_out, yc_out, yd_out;
 162:Drivers/CMSIS/DSP/Source/TransformFunctions/arm_cfft_radix4_q31.c **** 
 163:Drivers/CMSIS/DSP/Source/TransformFunctions/arm_cfft_radix4_q31.c ****   q31_t *ptr1;
 164:Drivers/CMSIS/DSP/Source/TransformFunctions/arm_cfft_radix4_q31.c ****   q63_t xaya, xbyb, xcyc, xdyd;
 165:Drivers/CMSIS/DSP/Source/TransformFunctions/arm_cfft_radix4_q31.c ****   /* Total process is divided into three stages */
 166:Drivers/CMSIS/DSP/Source/TransformFunctions/arm_cfft_radix4_q31.c **** 
 167:Drivers/CMSIS/DSP/Source/TransformFunctions/arm_cfft_radix4_q31.c ****   /* process first stage, middle stages, & last stage */
 168:Drivers/CMSIS/DSP/Source/TransformFunctions/arm_cfft_radix4_q31.c **** 
 169:Drivers/CMSIS/DSP/Source/TransformFunctions/arm_cfft_radix4_q31.c **** 
 170:Drivers/CMSIS/DSP/Source/TransformFunctions/arm_cfft_radix4_q31.c ****   /* start of first stage process */
 171:Drivers/CMSIS/DSP/Source/TransformFunctions/arm_cfft_radix4_q31.c **** 
 172:Drivers/CMSIS/DSP/Source/TransformFunctions/arm_cfft_radix4_q31.c ****   /*  Initializations for the first stage */
 173:Drivers/CMSIS/DSP/Source/TransformFunctions/arm_cfft_radix4_q31.c ****   n2 = fftLen;
 174:Drivers/CMSIS/DSP/Source/TransformFunctions/arm_cfft_radix4_q31.c ****   n1 = n2;
 175:Drivers/CMSIS/DSP/Source/TransformFunctions/arm_cfft_radix4_q31.c ****   /* n2 = fftLen/4 */
 176:Drivers/CMSIS/DSP/Source/TransformFunctions/arm_cfft_radix4_q31.c ****   n2 >>= 2U;
ARM GAS  C:\Users\17832\AppData\Local\Temp\ccW85mhr.s 			page 5


 177:Drivers/CMSIS/DSP/Source/TransformFunctions/arm_cfft_radix4_q31.c ****   i0 = 0U;
 178:Drivers/CMSIS/DSP/Source/TransformFunctions/arm_cfft_radix4_q31.c ****   ia1 = 0U;
 179:Drivers/CMSIS/DSP/Source/TransformFunctions/arm_cfft_radix4_q31.c **** 
 180:Drivers/CMSIS/DSP/Source/TransformFunctions/arm_cfft_radix4_q31.c ****   j = n2;
 181:Drivers/CMSIS/DSP/Source/TransformFunctions/arm_cfft_radix4_q31.c **** 
 182:Drivers/CMSIS/DSP/Source/TransformFunctions/arm_cfft_radix4_q31.c ****   /*  Calculation of first stage */
 183:Drivers/CMSIS/DSP/Source/TransformFunctions/arm_cfft_radix4_q31.c ****   do
 184:Drivers/CMSIS/DSP/Source/TransformFunctions/arm_cfft_radix4_q31.c ****   {
 185:Drivers/CMSIS/DSP/Source/TransformFunctions/arm_cfft_radix4_q31.c ****     /*  index calculation for the input as, */
 186:Drivers/CMSIS/DSP/Source/TransformFunctions/arm_cfft_radix4_q31.c ****     /*  pSrc[i0 + 0], pSrc[i0 + fftLen/4], pSrc[i0 + fftLen/2U], pSrc[i0 + 3fftLen/4] */
 187:Drivers/CMSIS/DSP/Source/TransformFunctions/arm_cfft_radix4_q31.c ****     i1 = i0 + n2;
 188:Drivers/CMSIS/DSP/Source/TransformFunctions/arm_cfft_radix4_q31.c ****     i2 = i1 + n2;
 189:Drivers/CMSIS/DSP/Source/TransformFunctions/arm_cfft_radix4_q31.c ****     i3 = i2 + n2;
 190:Drivers/CMSIS/DSP/Source/TransformFunctions/arm_cfft_radix4_q31.c **** 
 191:Drivers/CMSIS/DSP/Source/TransformFunctions/arm_cfft_radix4_q31.c ****     /* input is in 1.31(q31) format and provide 4 guard bits for the input */
 192:Drivers/CMSIS/DSP/Source/TransformFunctions/arm_cfft_radix4_q31.c **** 
 193:Drivers/CMSIS/DSP/Source/TransformFunctions/arm_cfft_radix4_q31.c ****     /*  Butterfly implementation */
 194:Drivers/CMSIS/DSP/Source/TransformFunctions/arm_cfft_radix4_q31.c ****     /* xa + xc */
 195:Drivers/CMSIS/DSP/Source/TransformFunctions/arm_cfft_radix4_q31.c ****     r1 = (pSrc[(2U * i0)] >> 4U) + (pSrc[(2U * i2)] >> 4U);
 196:Drivers/CMSIS/DSP/Source/TransformFunctions/arm_cfft_radix4_q31.c ****     /* xa - xc */
 197:Drivers/CMSIS/DSP/Source/TransformFunctions/arm_cfft_radix4_q31.c ****     r2 = (pSrc[2U * i0] >> 4U) - (pSrc[2U * i2] >> 4U);
 198:Drivers/CMSIS/DSP/Source/TransformFunctions/arm_cfft_radix4_q31.c **** 
 199:Drivers/CMSIS/DSP/Source/TransformFunctions/arm_cfft_radix4_q31.c ****     /* xb + xd */
 200:Drivers/CMSIS/DSP/Source/TransformFunctions/arm_cfft_radix4_q31.c ****     t1 = (pSrc[2U * i1] >> 4U) + (pSrc[2U * i3] >> 4U);
 201:Drivers/CMSIS/DSP/Source/TransformFunctions/arm_cfft_radix4_q31.c **** 
 202:Drivers/CMSIS/DSP/Source/TransformFunctions/arm_cfft_radix4_q31.c ****     /* ya + yc */
 203:Drivers/CMSIS/DSP/Source/TransformFunctions/arm_cfft_radix4_q31.c ****     s1 = (pSrc[(2U * i0) + 1U] >> 4U) + (pSrc[(2U * i2) + 1U] >> 4U);
 204:Drivers/CMSIS/DSP/Source/TransformFunctions/arm_cfft_radix4_q31.c ****     /* ya - yc */
 205:Drivers/CMSIS/DSP/Source/TransformFunctions/arm_cfft_radix4_q31.c ****     s2 = (pSrc[(2U * i0) + 1U] >> 4U) - (pSrc[(2U * i2) + 1U] >> 4U);
 206:Drivers/CMSIS/DSP/Source/TransformFunctions/arm_cfft_radix4_q31.c **** 
 207:Drivers/CMSIS/DSP/Source/TransformFunctions/arm_cfft_radix4_q31.c ****     /* xa' = xa + xb + xc + xd */
 208:Drivers/CMSIS/DSP/Source/TransformFunctions/arm_cfft_radix4_q31.c ****     pSrc[2U * i0] = (r1 + t1);
 209:Drivers/CMSIS/DSP/Source/TransformFunctions/arm_cfft_radix4_q31.c ****     /* (xa + xc) - (xb + xd) */
 210:Drivers/CMSIS/DSP/Source/TransformFunctions/arm_cfft_radix4_q31.c ****     r1 = r1 - t1;
 211:Drivers/CMSIS/DSP/Source/TransformFunctions/arm_cfft_radix4_q31.c ****     /* yb + yd */
 212:Drivers/CMSIS/DSP/Source/TransformFunctions/arm_cfft_radix4_q31.c ****     t2 = (pSrc[(2U * i1) + 1U] >> 4U) + (pSrc[(2U * i3) + 1U] >> 4U);
 213:Drivers/CMSIS/DSP/Source/TransformFunctions/arm_cfft_radix4_q31.c **** 
 214:Drivers/CMSIS/DSP/Source/TransformFunctions/arm_cfft_radix4_q31.c ****     /* ya' = ya + yb + yc + yd */
 215:Drivers/CMSIS/DSP/Source/TransformFunctions/arm_cfft_radix4_q31.c ****     pSrc[(2U * i0) + 1U] = (s1 + t2);
 216:Drivers/CMSIS/DSP/Source/TransformFunctions/arm_cfft_radix4_q31.c **** 
 217:Drivers/CMSIS/DSP/Source/TransformFunctions/arm_cfft_radix4_q31.c ****     /* (ya + yc) - (yb + yd) */
 218:Drivers/CMSIS/DSP/Source/TransformFunctions/arm_cfft_radix4_q31.c ****     s1 = s1 - t2;
 219:Drivers/CMSIS/DSP/Source/TransformFunctions/arm_cfft_radix4_q31.c **** 
 220:Drivers/CMSIS/DSP/Source/TransformFunctions/arm_cfft_radix4_q31.c ****     /* yb - yd */
 221:Drivers/CMSIS/DSP/Source/TransformFunctions/arm_cfft_radix4_q31.c ****     t1 = (pSrc[(2U * i1) + 1U] >> 4U) - (pSrc[(2U * i3) + 1U] >> 4U);
 222:Drivers/CMSIS/DSP/Source/TransformFunctions/arm_cfft_radix4_q31.c ****     /* xb - xd */
 223:Drivers/CMSIS/DSP/Source/TransformFunctions/arm_cfft_radix4_q31.c ****     t2 = (pSrc[2U * i1] >> 4U) - (pSrc[2U * i3] >> 4U);
 224:Drivers/CMSIS/DSP/Source/TransformFunctions/arm_cfft_radix4_q31.c **** 
 225:Drivers/CMSIS/DSP/Source/TransformFunctions/arm_cfft_radix4_q31.c ****     /*  index calculation for the coefficients */
 226:Drivers/CMSIS/DSP/Source/TransformFunctions/arm_cfft_radix4_q31.c ****     ia2 = 2U * ia1;
 227:Drivers/CMSIS/DSP/Source/TransformFunctions/arm_cfft_radix4_q31.c ****     co2 = pCoef[ia2 * 2U];
 228:Drivers/CMSIS/DSP/Source/TransformFunctions/arm_cfft_radix4_q31.c ****     si2 = pCoef[(ia2 * 2U) + 1U];
 229:Drivers/CMSIS/DSP/Source/TransformFunctions/arm_cfft_radix4_q31.c **** 
 230:Drivers/CMSIS/DSP/Source/TransformFunctions/arm_cfft_radix4_q31.c ****     /* xc' = (xa-xb+xc-xd)co2 + (ya-yb+yc-yd)(si2) */
 231:Drivers/CMSIS/DSP/Source/TransformFunctions/arm_cfft_radix4_q31.c ****     pSrc[2U * i1] = (((int32_t) (((q63_t) r1 * co2) >> 32)) +
 232:Drivers/CMSIS/DSP/Source/TransformFunctions/arm_cfft_radix4_q31.c ****                      ((int32_t) (((q63_t) s1 * si2) >> 32))) << 1U;
 233:Drivers/CMSIS/DSP/Source/TransformFunctions/arm_cfft_radix4_q31.c **** 
ARM GAS  C:\Users\17832\AppData\Local\Temp\ccW85mhr.s 			page 6


 234:Drivers/CMSIS/DSP/Source/TransformFunctions/arm_cfft_radix4_q31.c ****     /* yc' = (ya-yb+yc-yd)co2 - (xa-xb+xc-xd)(si2) */
 235:Drivers/CMSIS/DSP/Source/TransformFunctions/arm_cfft_radix4_q31.c ****     pSrc[(2U * i1) + 1U] = (((int32_t) (((q63_t) s1 * co2) >> 32)) -
 236:Drivers/CMSIS/DSP/Source/TransformFunctions/arm_cfft_radix4_q31.c ****                             ((int32_t) (((q63_t) r1 * si2) >> 32))) << 1U;
 237:Drivers/CMSIS/DSP/Source/TransformFunctions/arm_cfft_radix4_q31.c **** 
 238:Drivers/CMSIS/DSP/Source/TransformFunctions/arm_cfft_radix4_q31.c ****     /* (xa - xc) + (yb - yd) */
 239:Drivers/CMSIS/DSP/Source/TransformFunctions/arm_cfft_radix4_q31.c ****     r1 = r2 + t1;
 240:Drivers/CMSIS/DSP/Source/TransformFunctions/arm_cfft_radix4_q31.c ****     /* (xa - xc) - (yb - yd) */
 241:Drivers/CMSIS/DSP/Source/TransformFunctions/arm_cfft_radix4_q31.c ****     r2 = r2 - t1;
 242:Drivers/CMSIS/DSP/Source/TransformFunctions/arm_cfft_radix4_q31.c **** 
 243:Drivers/CMSIS/DSP/Source/TransformFunctions/arm_cfft_radix4_q31.c ****     /* (ya - yc) - (xb - xd) */
 244:Drivers/CMSIS/DSP/Source/TransformFunctions/arm_cfft_radix4_q31.c ****     s1 = s2 - t2;
 245:Drivers/CMSIS/DSP/Source/TransformFunctions/arm_cfft_radix4_q31.c ****     /* (ya - yc) + (xb - xd) */
 246:Drivers/CMSIS/DSP/Source/TransformFunctions/arm_cfft_radix4_q31.c ****     s2 = s2 + t2;
 247:Drivers/CMSIS/DSP/Source/TransformFunctions/arm_cfft_radix4_q31.c **** 
 248:Drivers/CMSIS/DSP/Source/TransformFunctions/arm_cfft_radix4_q31.c ****     co1 = pCoef[ia1 * 2U];
 249:Drivers/CMSIS/DSP/Source/TransformFunctions/arm_cfft_radix4_q31.c ****     si1 = pCoef[(ia1 * 2U) + 1U];
 250:Drivers/CMSIS/DSP/Source/TransformFunctions/arm_cfft_radix4_q31.c **** 
 251:Drivers/CMSIS/DSP/Source/TransformFunctions/arm_cfft_radix4_q31.c ****     /* xb' = (xa+yb-xc-yd)co1 + (ya-xb-yc+xd)(si1) */
 252:Drivers/CMSIS/DSP/Source/TransformFunctions/arm_cfft_radix4_q31.c ****     pSrc[2U * i2] = (((int32_t) (((q63_t) r1 * co1) >> 32)) +
 253:Drivers/CMSIS/DSP/Source/TransformFunctions/arm_cfft_radix4_q31.c ****                      ((int32_t) (((q63_t) s1 * si1) >> 32))) << 1U;
 254:Drivers/CMSIS/DSP/Source/TransformFunctions/arm_cfft_radix4_q31.c **** 
 255:Drivers/CMSIS/DSP/Source/TransformFunctions/arm_cfft_radix4_q31.c ****     /* yb' = (ya-xb-yc+xd)co1 - (xa+yb-xc-yd)(si1) */
 256:Drivers/CMSIS/DSP/Source/TransformFunctions/arm_cfft_radix4_q31.c ****     pSrc[(2U * i2) + 1U] = (((int32_t) (((q63_t) s1 * co1) >> 32)) -
 257:Drivers/CMSIS/DSP/Source/TransformFunctions/arm_cfft_radix4_q31.c ****                             ((int32_t) (((q63_t) r1 * si1) >> 32))) << 1U;
 258:Drivers/CMSIS/DSP/Source/TransformFunctions/arm_cfft_radix4_q31.c **** 
 259:Drivers/CMSIS/DSP/Source/TransformFunctions/arm_cfft_radix4_q31.c ****     /*  index calculation for the coefficients */
 260:Drivers/CMSIS/DSP/Source/TransformFunctions/arm_cfft_radix4_q31.c ****     ia3 = 3U * ia1;
 261:Drivers/CMSIS/DSP/Source/TransformFunctions/arm_cfft_radix4_q31.c ****     co3 = pCoef[ia3 * 2U];
 262:Drivers/CMSIS/DSP/Source/TransformFunctions/arm_cfft_radix4_q31.c ****     si3 = pCoef[(ia3 * 2U) + 1U];
 263:Drivers/CMSIS/DSP/Source/TransformFunctions/arm_cfft_radix4_q31.c **** 
 264:Drivers/CMSIS/DSP/Source/TransformFunctions/arm_cfft_radix4_q31.c ****     /* xd' = (xa-yb-xc+yd)co3 + (ya+xb-yc-xd)(si3) */
 265:Drivers/CMSIS/DSP/Source/TransformFunctions/arm_cfft_radix4_q31.c ****     pSrc[2U * i3] = (((int32_t) (((q63_t) r2 * co3) >> 32)) +
 266:Drivers/CMSIS/DSP/Source/TransformFunctions/arm_cfft_radix4_q31.c ****                      ((int32_t) (((q63_t) s2 * si3) >> 32))) << 1U;
 267:Drivers/CMSIS/DSP/Source/TransformFunctions/arm_cfft_radix4_q31.c **** 
 268:Drivers/CMSIS/DSP/Source/TransformFunctions/arm_cfft_radix4_q31.c ****     /* yd' = (ya+xb-yc-xd)co3 - (xa-yb-xc+yd)(si3) */
 269:Drivers/CMSIS/DSP/Source/TransformFunctions/arm_cfft_radix4_q31.c ****     pSrc[(2U * i3) + 1U] = (((int32_t) (((q63_t) s2 * co3) >> 32)) -
 270:Drivers/CMSIS/DSP/Source/TransformFunctions/arm_cfft_radix4_q31.c ****                             ((int32_t) (((q63_t) r2 * si3) >> 32))) << 1U;
 271:Drivers/CMSIS/DSP/Source/TransformFunctions/arm_cfft_radix4_q31.c **** 
 272:Drivers/CMSIS/DSP/Source/TransformFunctions/arm_cfft_radix4_q31.c ****     /*  Twiddle coefficients index modifier */
 273:Drivers/CMSIS/DSP/Source/TransformFunctions/arm_cfft_radix4_q31.c ****     ia1 = ia1 + twidCoefModifier;
 274:Drivers/CMSIS/DSP/Source/TransformFunctions/arm_cfft_radix4_q31.c **** 
 275:Drivers/CMSIS/DSP/Source/TransformFunctions/arm_cfft_radix4_q31.c ****     /*  Updating input index */
 276:Drivers/CMSIS/DSP/Source/TransformFunctions/arm_cfft_radix4_q31.c ****     i0 = i0 + 1U;
 277:Drivers/CMSIS/DSP/Source/TransformFunctions/arm_cfft_radix4_q31.c **** 
 278:Drivers/CMSIS/DSP/Source/TransformFunctions/arm_cfft_radix4_q31.c ****   } while (--j);
 279:Drivers/CMSIS/DSP/Source/TransformFunctions/arm_cfft_radix4_q31.c **** 
 280:Drivers/CMSIS/DSP/Source/TransformFunctions/arm_cfft_radix4_q31.c ****   /* end of first stage process */
 281:Drivers/CMSIS/DSP/Source/TransformFunctions/arm_cfft_radix4_q31.c **** 
 282:Drivers/CMSIS/DSP/Source/TransformFunctions/arm_cfft_radix4_q31.c ****   /* data is in 5.27(q27) format */
 283:Drivers/CMSIS/DSP/Source/TransformFunctions/arm_cfft_radix4_q31.c **** 
 284:Drivers/CMSIS/DSP/Source/TransformFunctions/arm_cfft_radix4_q31.c **** 
 285:Drivers/CMSIS/DSP/Source/TransformFunctions/arm_cfft_radix4_q31.c ****   /* start of Middle stages process */
 286:Drivers/CMSIS/DSP/Source/TransformFunctions/arm_cfft_radix4_q31.c **** 
 287:Drivers/CMSIS/DSP/Source/TransformFunctions/arm_cfft_radix4_q31.c **** 
 288:Drivers/CMSIS/DSP/Source/TransformFunctions/arm_cfft_radix4_q31.c ****   /* each stage in middle stages provides two down scaling of the input */
 289:Drivers/CMSIS/DSP/Source/TransformFunctions/arm_cfft_radix4_q31.c **** 
 290:Drivers/CMSIS/DSP/Source/TransformFunctions/arm_cfft_radix4_q31.c ****   twidCoefModifier <<= 2U;
ARM GAS  C:\Users\17832\AppData\Local\Temp\ccW85mhr.s 			page 7


 291:Drivers/CMSIS/DSP/Source/TransformFunctions/arm_cfft_radix4_q31.c **** 
 292:Drivers/CMSIS/DSP/Source/TransformFunctions/arm_cfft_radix4_q31.c **** 
 293:Drivers/CMSIS/DSP/Source/TransformFunctions/arm_cfft_radix4_q31.c ****   for (k = fftLen / 4U; k > 4U; k >>= 2U)
 294:Drivers/CMSIS/DSP/Source/TransformFunctions/arm_cfft_radix4_q31.c ****   {
 295:Drivers/CMSIS/DSP/Source/TransformFunctions/arm_cfft_radix4_q31.c ****     /*  Initializations for the first stage */
 296:Drivers/CMSIS/DSP/Source/TransformFunctions/arm_cfft_radix4_q31.c ****     n1 = n2;
 297:Drivers/CMSIS/DSP/Source/TransformFunctions/arm_cfft_radix4_q31.c ****     n2 >>= 2U;
 298:Drivers/CMSIS/DSP/Source/TransformFunctions/arm_cfft_radix4_q31.c ****     ia1 = 0U;
 299:Drivers/CMSIS/DSP/Source/TransformFunctions/arm_cfft_radix4_q31.c **** 
 300:Drivers/CMSIS/DSP/Source/TransformFunctions/arm_cfft_radix4_q31.c ****     /*  Calculation of first stage */
 301:Drivers/CMSIS/DSP/Source/TransformFunctions/arm_cfft_radix4_q31.c ****     for (j = 0U; j <= (n2 - 1U); j++)
 302:Drivers/CMSIS/DSP/Source/TransformFunctions/arm_cfft_radix4_q31.c ****     {
 303:Drivers/CMSIS/DSP/Source/TransformFunctions/arm_cfft_radix4_q31.c ****       /*  index calculation for the coefficients */
 304:Drivers/CMSIS/DSP/Source/TransformFunctions/arm_cfft_radix4_q31.c ****       ia2 = ia1 + ia1;
 305:Drivers/CMSIS/DSP/Source/TransformFunctions/arm_cfft_radix4_q31.c ****       ia3 = ia2 + ia1;
 306:Drivers/CMSIS/DSP/Source/TransformFunctions/arm_cfft_radix4_q31.c ****       co1 = pCoef[ia1 * 2U];
 307:Drivers/CMSIS/DSP/Source/TransformFunctions/arm_cfft_radix4_q31.c ****       si1 = pCoef[(ia1 * 2U) + 1U];
 308:Drivers/CMSIS/DSP/Source/TransformFunctions/arm_cfft_radix4_q31.c ****       co2 = pCoef[ia2 * 2U];
 309:Drivers/CMSIS/DSP/Source/TransformFunctions/arm_cfft_radix4_q31.c ****       si2 = pCoef[(ia2 * 2U) + 1U];
 310:Drivers/CMSIS/DSP/Source/TransformFunctions/arm_cfft_radix4_q31.c ****       co3 = pCoef[ia3 * 2U];
 311:Drivers/CMSIS/DSP/Source/TransformFunctions/arm_cfft_radix4_q31.c ****       si3 = pCoef[(ia3 * 2U) + 1U];
 312:Drivers/CMSIS/DSP/Source/TransformFunctions/arm_cfft_radix4_q31.c ****       /*  Twiddle coefficients index modifier */
 313:Drivers/CMSIS/DSP/Source/TransformFunctions/arm_cfft_radix4_q31.c ****       ia1 = ia1 + twidCoefModifier;
 314:Drivers/CMSIS/DSP/Source/TransformFunctions/arm_cfft_radix4_q31.c **** 
 315:Drivers/CMSIS/DSP/Source/TransformFunctions/arm_cfft_radix4_q31.c ****       for (i0 = j; i0 < fftLen; i0 += n1)
 316:Drivers/CMSIS/DSP/Source/TransformFunctions/arm_cfft_radix4_q31.c ****       {
 317:Drivers/CMSIS/DSP/Source/TransformFunctions/arm_cfft_radix4_q31.c ****         /*  index calculation for the input as, */
 318:Drivers/CMSIS/DSP/Source/TransformFunctions/arm_cfft_radix4_q31.c ****         /*  pSrc[i0 + 0], pSrc[i0 + fftLen/4], pSrc[i0 + fftLen/2U], pSrc[i0 + 3fftLen/4] */
 319:Drivers/CMSIS/DSP/Source/TransformFunctions/arm_cfft_radix4_q31.c ****         i1 = i0 + n2;
 320:Drivers/CMSIS/DSP/Source/TransformFunctions/arm_cfft_radix4_q31.c ****         i2 = i1 + n2;
 321:Drivers/CMSIS/DSP/Source/TransformFunctions/arm_cfft_radix4_q31.c ****         i3 = i2 + n2;
 322:Drivers/CMSIS/DSP/Source/TransformFunctions/arm_cfft_radix4_q31.c **** 
 323:Drivers/CMSIS/DSP/Source/TransformFunctions/arm_cfft_radix4_q31.c ****         /*  Butterfly implementation */
 324:Drivers/CMSIS/DSP/Source/TransformFunctions/arm_cfft_radix4_q31.c ****         /* xa + xc */
 325:Drivers/CMSIS/DSP/Source/TransformFunctions/arm_cfft_radix4_q31.c ****         r1 = pSrc[2U * i0] + pSrc[2U * i2];
 326:Drivers/CMSIS/DSP/Source/TransformFunctions/arm_cfft_radix4_q31.c ****         /* xa - xc */
 327:Drivers/CMSIS/DSP/Source/TransformFunctions/arm_cfft_radix4_q31.c ****         r2 = pSrc[2U * i0] - pSrc[2U * i2];
 328:Drivers/CMSIS/DSP/Source/TransformFunctions/arm_cfft_radix4_q31.c **** 
 329:Drivers/CMSIS/DSP/Source/TransformFunctions/arm_cfft_radix4_q31.c ****         /* ya + yc */
 330:Drivers/CMSIS/DSP/Source/TransformFunctions/arm_cfft_radix4_q31.c ****         s1 = pSrc[(2U * i0) + 1U] + pSrc[(2U * i2) + 1U];
 331:Drivers/CMSIS/DSP/Source/TransformFunctions/arm_cfft_radix4_q31.c ****         /* ya - yc */
 332:Drivers/CMSIS/DSP/Source/TransformFunctions/arm_cfft_radix4_q31.c ****         s2 = pSrc[(2U * i0) + 1U] - pSrc[(2U * i2) + 1U];
 333:Drivers/CMSIS/DSP/Source/TransformFunctions/arm_cfft_radix4_q31.c **** 
 334:Drivers/CMSIS/DSP/Source/TransformFunctions/arm_cfft_radix4_q31.c ****         /* xb + xd */
 335:Drivers/CMSIS/DSP/Source/TransformFunctions/arm_cfft_radix4_q31.c ****         t1 = pSrc[2U * i1] + pSrc[2U * i3];
 336:Drivers/CMSIS/DSP/Source/TransformFunctions/arm_cfft_radix4_q31.c **** 
 337:Drivers/CMSIS/DSP/Source/TransformFunctions/arm_cfft_radix4_q31.c ****         /* xa' = xa + xb + xc + xd */
 338:Drivers/CMSIS/DSP/Source/TransformFunctions/arm_cfft_radix4_q31.c ****         pSrc[2U * i0] = (r1 + t1) >> 2U;
 339:Drivers/CMSIS/DSP/Source/TransformFunctions/arm_cfft_radix4_q31.c ****         /* xa + xc -(xb + xd) */
 340:Drivers/CMSIS/DSP/Source/TransformFunctions/arm_cfft_radix4_q31.c ****         r1 = r1 - t1;
 341:Drivers/CMSIS/DSP/Source/TransformFunctions/arm_cfft_radix4_q31.c **** 
 342:Drivers/CMSIS/DSP/Source/TransformFunctions/arm_cfft_radix4_q31.c ****         /* yb + yd */
 343:Drivers/CMSIS/DSP/Source/TransformFunctions/arm_cfft_radix4_q31.c ****         t2 = pSrc[(2U * i1) + 1U] + pSrc[(2U * i3) + 1U];
 344:Drivers/CMSIS/DSP/Source/TransformFunctions/arm_cfft_radix4_q31.c ****         /* ya' = ya + yb + yc + yd */
 345:Drivers/CMSIS/DSP/Source/TransformFunctions/arm_cfft_radix4_q31.c ****         pSrc[(2U * i0) + 1U] = (s1 + t2) >> 2U;
 346:Drivers/CMSIS/DSP/Source/TransformFunctions/arm_cfft_radix4_q31.c **** 
 347:Drivers/CMSIS/DSP/Source/TransformFunctions/arm_cfft_radix4_q31.c ****         /* (ya + yc) - (yb + yd) */
ARM GAS  C:\Users\17832\AppData\Local\Temp\ccW85mhr.s 			page 8


 348:Drivers/CMSIS/DSP/Source/TransformFunctions/arm_cfft_radix4_q31.c ****         s1 = s1 - t2;
 349:Drivers/CMSIS/DSP/Source/TransformFunctions/arm_cfft_radix4_q31.c **** 
 350:Drivers/CMSIS/DSP/Source/TransformFunctions/arm_cfft_radix4_q31.c ****         /* (yb - yd) */
 351:Drivers/CMSIS/DSP/Source/TransformFunctions/arm_cfft_radix4_q31.c ****         t1 = pSrc[(2U * i1) + 1U] - pSrc[(2U * i3) + 1U];
 352:Drivers/CMSIS/DSP/Source/TransformFunctions/arm_cfft_radix4_q31.c ****         /* (xb - xd) */
 353:Drivers/CMSIS/DSP/Source/TransformFunctions/arm_cfft_radix4_q31.c ****         t2 = pSrc[2U * i1] - pSrc[2U * i3];
 354:Drivers/CMSIS/DSP/Source/TransformFunctions/arm_cfft_radix4_q31.c **** 
 355:Drivers/CMSIS/DSP/Source/TransformFunctions/arm_cfft_radix4_q31.c ****         /* xc' = (xa-xb+xc-xd)co2 + (ya-yb+yc-yd)(si2) */
 356:Drivers/CMSIS/DSP/Source/TransformFunctions/arm_cfft_radix4_q31.c ****         pSrc[2U * i1] = (((int32_t) (((q63_t) r1 * co2) >> 32)) +
 357:Drivers/CMSIS/DSP/Source/TransformFunctions/arm_cfft_radix4_q31.c ****                          ((int32_t) (((q63_t) s1 * si2) >> 32))) >> 1U;
 358:Drivers/CMSIS/DSP/Source/TransformFunctions/arm_cfft_radix4_q31.c **** 
 359:Drivers/CMSIS/DSP/Source/TransformFunctions/arm_cfft_radix4_q31.c ****         /* yc' = (ya-yb+yc-yd)co2 - (xa-xb+xc-xd)(si2) */
 360:Drivers/CMSIS/DSP/Source/TransformFunctions/arm_cfft_radix4_q31.c ****         pSrc[(2U * i1) + 1U] = (((int32_t) (((q63_t) s1 * co2) >> 32)) -
 361:Drivers/CMSIS/DSP/Source/TransformFunctions/arm_cfft_radix4_q31.c ****                                 ((int32_t) (((q63_t) r1 * si2) >> 32))) >> 1U;
 362:Drivers/CMSIS/DSP/Source/TransformFunctions/arm_cfft_radix4_q31.c **** 
 363:Drivers/CMSIS/DSP/Source/TransformFunctions/arm_cfft_radix4_q31.c ****         /* (xa - xc) + (yb - yd) */
 364:Drivers/CMSIS/DSP/Source/TransformFunctions/arm_cfft_radix4_q31.c ****         r1 = r2 + t1;
 365:Drivers/CMSIS/DSP/Source/TransformFunctions/arm_cfft_radix4_q31.c ****         /* (xa - xc) - (yb - yd) */
 366:Drivers/CMSIS/DSP/Source/TransformFunctions/arm_cfft_radix4_q31.c ****         r2 = r2 - t1;
 367:Drivers/CMSIS/DSP/Source/TransformFunctions/arm_cfft_radix4_q31.c **** 
 368:Drivers/CMSIS/DSP/Source/TransformFunctions/arm_cfft_radix4_q31.c ****         /* (ya - yc) -  (xb - xd) */
 369:Drivers/CMSIS/DSP/Source/TransformFunctions/arm_cfft_radix4_q31.c ****         s1 = s2 - t2;
 370:Drivers/CMSIS/DSP/Source/TransformFunctions/arm_cfft_radix4_q31.c ****         /* (ya - yc) +  (xb - xd) */
 371:Drivers/CMSIS/DSP/Source/TransformFunctions/arm_cfft_radix4_q31.c ****         s2 = s2 + t2;
 372:Drivers/CMSIS/DSP/Source/TransformFunctions/arm_cfft_radix4_q31.c **** 
 373:Drivers/CMSIS/DSP/Source/TransformFunctions/arm_cfft_radix4_q31.c ****         /* xb' = (xa+yb-xc-yd)co1 + (ya-xb-yc+xd)(si1) */
 374:Drivers/CMSIS/DSP/Source/TransformFunctions/arm_cfft_radix4_q31.c ****         pSrc[2U * i2] = (((int32_t) (((q63_t) r1 * co1) >> 32)) +
 375:Drivers/CMSIS/DSP/Source/TransformFunctions/arm_cfft_radix4_q31.c ****                          ((int32_t) (((q63_t) s1 * si1) >> 32))) >> 1U;
 376:Drivers/CMSIS/DSP/Source/TransformFunctions/arm_cfft_radix4_q31.c **** 
 377:Drivers/CMSIS/DSP/Source/TransformFunctions/arm_cfft_radix4_q31.c ****         /* yb' = (ya-xb-yc+xd)co1 - (xa+yb-xc-yd)(si1) */
 378:Drivers/CMSIS/DSP/Source/TransformFunctions/arm_cfft_radix4_q31.c ****         pSrc[(2U * i2) + 1U] = (((int32_t) (((q63_t) s1 * co1) >> 32)) -
 379:Drivers/CMSIS/DSP/Source/TransformFunctions/arm_cfft_radix4_q31.c ****                                 ((int32_t) (((q63_t) r1 * si1) >> 32))) >> 1U;
 380:Drivers/CMSIS/DSP/Source/TransformFunctions/arm_cfft_radix4_q31.c **** 
 381:Drivers/CMSIS/DSP/Source/TransformFunctions/arm_cfft_radix4_q31.c ****         /* xd' = (xa-yb-xc+yd)co3 + (ya+xb-yc-xd)(si3) */
 382:Drivers/CMSIS/DSP/Source/TransformFunctions/arm_cfft_radix4_q31.c ****         pSrc[2U * i3] = (((int32_t) (((q63_t) r2 * co3) >> 32)) +
 383:Drivers/CMSIS/DSP/Source/TransformFunctions/arm_cfft_radix4_q31.c ****                          ((int32_t) (((q63_t) s2 * si3) >> 32))) >> 1U;
 384:Drivers/CMSIS/DSP/Source/TransformFunctions/arm_cfft_radix4_q31.c **** 
 385:Drivers/CMSIS/DSP/Source/TransformFunctions/arm_cfft_radix4_q31.c ****         /* yd' = (ya+xb-yc-xd)co3 - (xa-yb-xc+yd)(si3) */
 386:Drivers/CMSIS/DSP/Source/TransformFunctions/arm_cfft_radix4_q31.c ****         pSrc[(2U * i3) + 1U] = (((int32_t) (((q63_t) s2 * co3) >> 32)) -
 387:Drivers/CMSIS/DSP/Source/TransformFunctions/arm_cfft_radix4_q31.c ****                                 ((int32_t) (((q63_t) r2 * si3) >> 32))) >> 1U;
 388:Drivers/CMSIS/DSP/Source/TransformFunctions/arm_cfft_radix4_q31.c ****       }
 389:Drivers/CMSIS/DSP/Source/TransformFunctions/arm_cfft_radix4_q31.c ****     }
 390:Drivers/CMSIS/DSP/Source/TransformFunctions/arm_cfft_radix4_q31.c ****     twidCoefModifier <<= 2U;
 391:Drivers/CMSIS/DSP/Source/TransformFunctions/arm_cfft_radix4_q31.c ****   }
 392:Drivers/CMSIS/DSP/Source/TransformFunctions/arm_cfft_radix4_q31.c **** #else
 393:Drivers/CMSIS/DSP/Source/TransformFunctions/arm_cfft_radix4_q31.c ****   uint32_t n1, n2, ia1, ia2, ia3, i0, j, k;
  54              		.loc 1 393 3 is_stmt 1 view .LVU2
 394:Drivers/CMSIS/DSP/Source/TransformFunctions/arm_cfft_radix4_q31.c ****   q31_t t1, t2, r1, r2, s1, s2, co1, co2, co3, si1, si2, si3;
  55              		.loc 1 394 3 view .LVU3
 395:Drivers/CMSIS/DSP/Source/TransformFunctions/arm_cfft_radix4_q31.c **** 
 396:Drivers/CMSIS/DSP/Source/TransformFunctions/arm_cfft_radix4_q31.c ****   q31_t xa, xb, xc, xd;
  56              		.loc 1 396 3 view .LVU4
 397:Drivers/CMSIS/DSP/Source/TransformFunctions/arm_cfft_radix4_q31.c ****   q31_t ya, yb, yc, yd;
  57              		.loc 1 397 3 view .LVU5
 398:Drivers/CMSIS/DSP/Source/TransformFunctions/arm_cfft_radix4_q31.c ****   q31_t xa_out, xb_out, xc_out, xd_out;
  58              		.loc 1 398 3 view .LVU6
 399:Drivers/CMSIS/DSP/Source/TransformFunctions/arm_cfft_radix4_q31.c ****   q31_t ya_out, yb_out, yc_out, yd_out;
ARM GAS  C:\Users\17832\AppData\Local\Temp\ccW85mhr.s 			page 9


  59              		.loc 1 399 3 view .LVU7
 400:Drivers/CMSIS/DSP/Source/TransformFunctions/arm_cfft_radix4_q31.c **** 
 401:Drivers/CMSIS/DSP/Source/TransformFunctions/arm_cfft_radix4_q31.c ****   q31_t *ptr1;
  60              		.loc 1 401 3 view .LVU8
 402:Drivers/CMSIS/DSP/Source/TransformFunctions/arm_cfft_radix4_q31.c ****   q31_t *pSi0;
  61              		.loc 1 402 3 view .LVU9
 403:Drivers/CMSIS/DSP/Source/TransformFunctions/arm_cfft_radix4_q31.c ****   q31_t *pSi1;
  62              		.loc 1 403 3 view .LVU10
 404:Drivers/CMSIS/DSP/Source/TransformFunctions/arm_cfft_radix4_q31.c ****   q31_t *pSi2;
  63              		.loc 1 404 3 view .LVU11
 405:Drivers/CMSIS/DSP/Source/TransformFunctions/arm_cfft_radix4_q31.c ****   q31_t *pSi3;
  64              		.loc 1 405 3 view .LVU12
 406:Drivers/CMSIS/DSP/Source/TransformFunctions/arm_cfft_radix4_q31.c ****   q63_t xaya, xbyb, xcyc, xdyd;
  65              		.loc 1 406 3 view .LVU13
 407:Drivers/CMSIS/DSP/Source/TransformFunctions/arm_cfft_radix4_q31.c ****   /* Total process is divided into three stages */
 408:Drivers/CMSIS/DSP/Source/TransformFunctions/arm_cfft_radix4_q31.c **** 
 409:Drivers/CMSIS/DSP/Source/TransformFunctions/arm_cfft_radix4_q31.c ****   /* process first stage, middle stages, & last stage */
 410:Drivers/CMSIS/DSP/Source/TransformFunctions/arm_cfft_radix4_q31.c **** 
 411:Drivers/CMSIS/DSP/Source/TransformFunctions/arm_cfft_radix4_q31.c **** 
 412:Drivers/CMSIS/DSP/Source/TransformFunctions/arm_cfft_radix4_q31.c ****   /* start of first stage process */
 413:Drivers/CMSIS/DSP/Source/TransformFunctions/arm_cfft_radix4_q31.c **** 
 414:Drivers/CMSIS/DSP/Source/TransformFunctions/arm_cfft_radix4_q31.c ****   /*  Initializations for the first stage */
 415:Drivers/CMSIS/DSP/Source/TransformFunctions/arm_cfft_radix4_q31.c ****   n2 = fftLen;
  66              		.loc 1 415 3 view .LVU14
  67              	.LVL1:
 416:Drivers/CMSIS/DSP/Source/TransformFunctions/arm_cfft_radix4_q31.c ****   n1 = n2;
  68              		.loc 1 416 3 view .LVU15
 417:Drivers/CMSIS/DSP/Source/TransformFunctions/arm_cfft_radix4_q31.c ****   /* n2 = fftLen/4 */
 418:Drivers/CMSIS/DSP/Source/TransformFunctions/arm_cfft_radix4_q31.c ****   n2 >>= 2U;
  69              		.loc 1 418 3 view .LVU16
  70              		.loc 1 418 6 is_stmt 0 view .LVU17
  71 000e 8B08     		lsrs	r3, r1, #2
  72              	.LVL2:
  73              		.loc 1 418 6 view .LVU18
  74 0010 1593     		str	r3, [sp, #84]
  75              	.LVL3:
 419:Drivers/CMSIS/DSP/Source/TransformFunctions/arm_cfft_radix4_q31.c **** 
 420:Drivers/CMSIS/DSP/Source/TransformFunctions/arm_cfft_radix4_q31.c ****   ia1 = 0U;
  76              		.loc 1 420 3 is_stmt 1 view .LVU19
 421:Drivers/CMSIS/DSP/Source/TransformFunctions/arm_cfft_radix4_q31.c **** 
 422:Drivers/CMSIS/DSP/Source/TransformFunctions/arm_cfft_radix4_q31.c ****   j = n2;
  77              		.loc 1 422 3 view .LVU20
 423:Drivers/CMSIS/DSP/Source/TransformFunctions/arm_cfft_radix4_q31.c **** 
 424:Drivers/CMSIS/DSP/Source/TransformFunctions/arm_cfft_radix4_q31.c ****   pSi0 = pSrc;
  78              		.loc 1 424 3 view .LVU21
 425:Drivers/CMSIS/DSP/Source/TransformFunctions/arm_cfft_radix4_q31.c ****   pSi1 = pSi0 + 2 * n2;
  79              		.loc 1 425 3 view .LVU22
  80              		.loc 1 425 8 is_stmt 0 view .LVU23
  81 0012 00EBC309 		add	r9, r0, r3, lsl #3
  82              	.LVL4:
 426:Drivers/CMSIS/DSP/Source/TransformFunctions/arm_cfft_radix4_q31.c ****   pSi2 = pSi1 + 2 * n2;
  83              		.loc 1 426 3 is_stmt 1 view .LVU24
  84              		.loc 1 426 8 is_stmt 0 view .LVU25
  85 0016 00EB0311 		add	r1, r0, r3, lsl #4
  86              	.LVL5:
 427:Drivers/CMSIS/DSP/Source/TransformFunctions/arm_cfft_radix4_q31.c ****   pSi3 = pSi2 + 2 * n2;
  87              		.loc 1 427 3 is_stmt 1 view .LVU26
ARM GAS  C:\Users\17832\AppData\Local\Temp\ccW85mhr.s 			page 10


  88              		.loc 1 427 8 is_stmt 0 view .LVU27
  89 001a 01EBC30B 		add	fp, r1, r3, lsl #3
  90              	.LVL6:
 422:Drivers/CMSIS/DSP/Source/TransformFunctions/arm_cfft_radix4_q31.c **** 
  91              		.loc 1 422 5 view .LVU28
  92 001e 1393     		str	r3, [sp, #76]
 420:Drivers/CMSIS/DSP/Source/TransformFunctions/arm_cfft_radix4_q31.c **** 
  93              		.loc 1 420 7 view .LVU29
  94 0020 0023     		movs	r3, #0
  95              	.LVL7:
 420:Drivers/CMSIS/DSP/Source/TransformFunctions/arm_cfft_radix4_q31.c **** 
  96              		.loc 1 420 7 view .LVU30
  97 0022 0093     		str	r3, [sp]
  98 0024 8246     		mov	r10, r0
  99 0026 C846     		mov	r8, r9
 100 0028 8946     		mov	r9, r1
 101              	.LVL8:
 102              	.L2:
 428:Drivers/CMSIS/DSP/Source/TransformFunctions/arm_cfft_radix4_q31.c **** 
 429:Drivers/CMSIS/DSP/Source/TransformFunctions/arm_cfft_radix4_q31.c ****   /*  Calculation of first stage */
 430:Drivers/CMSIS/DSP/Source/TransformFunctions/arm_cfft_radix4_q31.c ****   do
 103              		.loc 1 430 3 is_stmt 1 discriminator 1 view .LVU31
 431:Drivers/CMSIS/DSP/Source/TransformFunctions/arm_cfft_radix4_q31.c ****   {
 432:Drivers/CMSIS/DSP/Source/TransformFunctions/arm_cfft_radix4_q31.c ****     /* input is in 1.31(q31) format and provide 4 guard bits for the input */
 433:Drivers/CMSIS/DSP/Source/TransformFunctions/arm_cfft_radix4_q31.c **** 
 434:Drivers/CMSIS/DSP/Source/TransformFunctions/arm_cfft_radix4_q31.c ****     /*  Butterfly implementation */
 435:Drivers/CMSIS/DSP/Source/TransformFunctions/arm_cfft_radix4_q31.c ****     /* xa + xc */
 436:Drivers/CMSIS/DSP/Source/TransformFunctions/arm_cfft_radix4_q31.c ****     r1 = (pSi0[0] >> 4U) + (pSi2[0] >> 4U);
 104              		.loc 1 436 5 discriminator 1 view .LVU32
 105              		.loc 1 436 15 is_stmt 0 discriminator 1 view .LVU33
 106 002a DAF80010 		ldr	r1, [r10]
 107              		.loc 1 436 33 discriminator 1 view .LVU34
 108 002e D9F80030 		ldr	r3, [r9]
 109              		.loc 1 436 37 discriminator 1 view .LVU35
 110 0032 1B11     		asrs	r3, r3, #4
 111              		.loc 1 436 8 discriminator 1 view .LVU36
 112 0034 03EB2112 		add	r2, r3, r1, asr #4
 113              	.LVL9:
 437:Drivers/CMSIS/DSP/Source/TransformFunctions/arm_cfft_radix4_q31.c ****     /* xa - xc */
 438:Drivers/CMSIS/DSP/Source/TransformFunctions/arm_cfft_radix4_q31.c ****     r2 = (pSi0[0] >> 4U) - (pSi2[0] >> 4U);
 114              		.loc 1 438 5 is_stmt 1 discriminator 1 view .LVU37
 115              		.loc 1 438 8 is_stmt 0 discriminator 1 view .LVU38
 116 0038 C3EB2113 		rsb	r3, r3, r1, asr #4
 117 003c 0193     		str	r3, [sp, #4]
 118              	.LVL10:
 439:Drivers/CMSIS/DSP/Source/TransformFunctions/arm_cfft_radix4_q31.c **** 
 440:Drivers/CMSIS/DSP/Source/TransformFunctions/arm_cfft_radix4_q31.c ****     /* xb + xd */
 441:Drivers/CMSIS/DSP/Source/TransformFunctions/arm_cfft_radix4_q31.c ****     t1 = (pSi1[0] >> 4U) + (pSi3[0] >> 4U);
 119              		.loc 1 441 5 is_stmt 1 discriminator 1 view .LVU39
 120              		.loc 1 441 15 is_stmt 0 discriminator 1 view .LVU40
 121 003e D8F80010 		ldr	r1, [r8]
 122              		.loc 1 441 33 discriminator 1 view .LVU41
 123 0042 DBF80030 		ldr	r3, [fp]
 124              	.LVL11:
 125              		.loc 1 441 37 discriminator 1 view .LVU42
 126 0046 1B11     		asrs	r3, r3, #4
 127              		.loc 1 441 8 discriminator 1 view .LVU43
ARM GAS  C:\Users\17832\AppData\Local\Temp\ccW85mhr.s 			page 11


 128 0048 03EB2111 		add	r1, r3, r1, asr #4
 129              	.LVL12:
 442:Drivers/CMSIS/DSP/Source/TransformFunctions/arm_cfft_radix4_q31.c **** 
 443:Drivers/CMSIS/DSP/Source/TransformFunctions/arm_cfft_radix4_q31.c ****     /* ya + yc */
 444:Drivers/CMSIS/DSP/Source/TransformFunctions/arm_cfft_radix4_q31.c ****     s1 = (pSi0[1] >> 4U) + (pSi2[1] >> 4U);
 130              		.loc 1 444 5 is_stmt 1 discriminator 1 view .LVU44
 131              		.loc 1 444 15 is_stmt 0 discriminator 1 view .LVU45
 132 004c DAF80400 		ldr	r0, [r10, #4]
 133              		.loc 1 444 33 discriminator 1 view .LVU46
 134 0050 D9F80430 		ldr	r3, [r9, #4]
 135              		.loc 1 444 37 discriminator 1 view .LVU47
 136 0054 1B11     		asrs	r3, r3, #4
 137              		.loc 1 444 8 discriminator 1 view .LVU48
 138 0056 03EB2014 		add	r4, r3, r0, asr #4
 139              	.LVL13:
 445:Drivers/CMSIS/DSP/Source/TransformFunctions/arm_cfft_radix4_q31.c ****     /* ya - yc */
 446:Drivers/CMSIS/DSP/Source/TransformFunctions/arm_cfft_radix4_q31.c ****     s2 = (pSi0[1] >> 4U) - (pSi2[1] >> 4U);
 140              		.loc 1 446 5 is_stmt 1 discriminator 1 view .LVU49
 141              		.loc 1 446 8 is_stmt 0 discriminator 1 view .LVU50
 142 005a C3EB2010 		rsb	r0, r3, r0, asr #4
 143 005e 0290     		str	r0, [sp, #8]
 144              	.LVL14:
 447:Drivers/CMSIS/DSP/Source/TransformFunctions/arm_cfft_radix4_q31.c **** 
 448:Drivers/CMSIS/DSP/Source/TransformFunctions/arm_cfft_radix4_q31.c ****     /* xa' = xa + xb + xc + xd */
 449:Drivers/CMSIS/DSP/Source/TransformFunctions/arm_cfft_radix4_q31.c ****     *pSi0++ = (r1 + t1);
 145              		.loc 1 449 5 is_stmt 1 discriminator 1 view .LVU51
 146              		.loc 1 449 19 is_stmt 0 discriminator 1 view .LVU52
 147 0060 5318     		adds	r3, r2, r1
 148              		.loc 1 449 13 discriminator 1 view .LVU53
 149 0062 CAF80030 		str	r3, [r10]
 450:Drivers/CMSIS/DSP/Source/TransformFunctions/arm_cfft_radix4_q31.c ****     /* (xa + xc) - (xb + xd) */
 451:Drivers/CMSIS/DSP/Source/TransformFunctions/arm_cfft_radix4_q31.c ****     r1 = r1 - t1;
 150              		.loc 1 451 5 is_stmt 1 discriminator 1 view .LVU54
 151              		.loc 1 451 8 is_stmt 0 discriminator 1 view .LVU55
 152 0066 521A     		subs	r2, r2, r1
 153              	.LVL15:
 452:Drivers/CMSIS/DSP/Source/TransformFunctions/arm_cfft_radix4_q31.c ****     /* yb + yd */
 453:Drivers/CMSIS/DSP/Source/TransformFunctions/arm_cfft_radix4_q31.c ****     t2 = (pSi1[1] >> 4U) + (pSi3[1] >> 4U);
 154              		.loc 1 453 5 is_stmt 1 discriminator 1 view .LVU56
 155              		.loc 1 453 15 is_stmt 0 discriminator 1 view .LVU57
 156 0068 D8F80400 		ldr	r0, [r8, #4]
 157              	.LVL16:
 158              		.loc 1 453 33 discriminator 1 view .LVU58
 159 006c DBF80410 		ldr	r1, [fp, #4]
 160              	.LVL17:
 161              		.loc 1 453 37 discriminator 1 view .LVU59
 162 0070 0B11     		asrs	r3, r1, #4
 163              		.loc 1 453 8 discriminator 1 view .LVU60
 164 0072 03EB2010 		add	r0, r3, r0, asr #4
 165              	.LVL18:
 454:Drivers/CMSIS/DSP/Source/TransformFunctions/arm_cfft_radix4_q31.c **** 
 455:Drivers/CMSIS/DSP/Source/TransformFunctions/arm_cfft_radix4_q31.c ****     /* ya' = ya + yb + yc + yd */
 456:Drivers/CMSIS/DSP/Source/TransformFunctions/arm_cfft_radix4_q31.c ****     *pSi0++ = (s1 + t2);
 166              		.loc 1 456 5 is_stmt 1 discriminator 1 view .LVU61
 167 0076 5346     		mov	r3, r10
 168              		.loc 1 456 10 is_stmt 0 discriminator 1 view .LVU62
 169 0078 0AF1080A 		add	r10, r10, #8
ARM GAS  C:\Users\17832\AppData\Local\Temp\ccW85mhr.s 			page 12


 170              	.LVL19:
 171              		.loc 1 456 19 discriminator 1 view .LVU63
 172 007c 2118     		adds	r1, r4, r0
 173              		.loc 1 456 13 discriminator 1 view .LVU64
 174 007e 5960     		str	r1, [r3, #4]
 457:Drivers/CMSIS/DSP/Source/TransformFunctions/arm_cfft_radix4_q31.c **** 
 458:Drivers/CMSIS/DSP/Source/TransformFunctions/arm_cfft_radix4_q31.c ****     /* (ya + yc) - (yb + yd) */
 459:Drivers/CMSIS/DSP/Source/TransformFunctions/arm_cfft_radix4_q31.c ****     s1 = s1 - t2;
 175              		.loc 1 459 5 is_stmt 1 discriminator 1 view .LVU65
 176              		.loc 1 459 8 is_stmt 0 discriminator 1 view .LVU66
 177 0080 231A     		subs	r3, r4, r0
 178              	.LVL20:
 460:Drivers/CMSIS/DSP/Source/TransformFunctions/arm_cfft_radix4_q31.c **** 
 461:Drivers/CMSIS/DSP/Source/TransformFunctions/arm_cfft_radix4_q31.c ****     /* yb - yd */
 462:Drivers/CMSIS/DSP/Source/TransformFunctions/arm_cfft_radix4_q31.c ****     t1 = (pSi1[1] >> 4U) - (pSi3[1] >> 4U);
 179              		.loc 1 462 5 is_stmt 1 discriminator 1 view .LVU67
 180              		.loc 1 462 15 is_stmt 0 discriminator 1 view .LVU68
 181 0082 D8F80400 		ldr	r0, [r8, #4]
 182              	.LVL21:
 183              		.loc 1 462 33 discriminator 1 view .LVU69
 184 0086 DBF80410 		ldr	r1, [fp, #4]
 185              		.loc 1 462 37 discriminator 1 view .LVU70
 186 008a 0911     		asrs	r1, r1, #4
 187              		.loc 1 462 8 discriminator 1 view .LVU71
 188 008c C1EB201E 		rsb	lr, r1, r0, asr #4
 189              	.LVL22:
 463:Drivers/CMSIS/DSP/Source/TransformFunctions/arm_cfft_radix4_q31.c ****     /* xb - xd */
 464:Drivers/CMSIS/DSP/Source/TransformFunctions/arm_cfft_radix4_q31.c ****     t2 = (pSi1[0] >> 4U) - (pSi3[0] >> 4U);
 190              		.loc 1 464 5 is_stmt 1 discriminator 1 view .LVU72
 191              		.loc 1 464 15 is_stmt 0 discriminator 1 view .LVU73
 192 0090 D8F80000 		ldr	r0, [r8]
 193              		.loc 1 464 33 discriminator 1 view .LVU74
 194 0094 DBF80010 		ldr	r1, [fp]
 195              		.loc 1 464 37 discriminator 1 view .LVU75
 196 0098 0911     		asrs	r1, r1, #4
 197              		.loc 1 464 8 discriminator 1 view .LVU76
 198 009a C1EB2011 		rsb	r1, r1, r0, asr #4
 199 009e 0491     		str	r1, [sp, #16]
 200              	.LVL23:
 465:Drivers/CMSIS/DSP/Source/TransformFunctions/arm_cfft_radix4_q31.c **** 
 466:Drivers/CMSIS/DSP/Source/TransformFunctions/arm_cfft_radix4_q31.c ****     /*  index calculation for the coefficients */
 467:Drivers/CMSIS/DSP/Source/TransformFunctions/arm_cfft_radix4_q31.c ****     ia2 = 2U * ia1;
 201              		.loc 1 467 5 is_stmt 1 discriminator 1 view .LVU77
 468:Drivers/CMSIS/DSP/Source/TransformFunctions/arm_cfft_radix4_q31.c ****     co2 = pCoef[ia2 * 2U];
 202              		.loc 1 468 5 discriminator 1 view .LVU78
 203              		.loc 1 468 16 is_stmt 0 discriminator 1 view .LVU79
 204 00a0 009C     		ldr	r4, [sp]
 205 00a2 2101     		lsls	r1, r4, #4
 206              	.LVL24:
 207              		.loc 1 468 9 discriminator 1 view .LVU80
 208 00a4 1098     		ldr	r0, [sp, #64]
 209 00a6 4558     		ldr	r5, [r0, r1]
 210              	.LVL25:
 469:Drivers/CMSIS/DSP/Source/TransformFunctions/arm_cfft_radix4_q31.c ****     si2 = pCoef[(ia2 * 2U) + 1U];
 211              		.loc 1 469 5 is_stmt 1 discriminator 1 view .LVU81
 212              		.loc 1 469 16 is_stmt 0 discriminator 1 view .LVU82
 213 00a8 0431     		adds	r1, r1, #4
ARM GAS  C:\Users\17832\AppData\Local\Temp\ccW85mhr.s 			page 13


 214              		.loc 1 469 9 discriminator 1 view .LVU83
 215 00aa 4158     		ldr	r1, [r0, r1]
 216              	.LVL26:
 470:Drivers/CMSIS/DSP/Source/TransformFunctions/arm_cfft_radix4_q31.c **** 
 471:Drivers/CMSIS/DSP/Source/TransformFunctions/arm_cfft_radix4_q31.c ****     /* xc' = (xa-xb+xc-xd)co2 + (ya-yb+yc-yd)(si2) */
 472:Drivers/CMSIS/DSP/Source/TransformFunctions/arm_cfft_radix4_q31.c ****     *pSi1++ = (((int32_t) (((q63_t) r1 * co2) >> 32)) +
 217              		.loc 1 472 5 is_stmt 1 discriminator 1 view .LVU84
 218              		.loc 1 472 29 is_stmt 0 discriminator 1 view .LVU85
 219 00ac 4FEAE27C 		asr	ip, r2, #31
 220              		.loc 1 472 40 discriminator 1 view .LVU86
 221 00b0 EE17     		asrs	r6, r5, #31
 222 00b2 0596     		str	r6, [sp, #20]
 223 00b4 02FB06F0 		mul	r0, r2, r6
 224 00b8 05FB0C00 		mla	r0, r5, ip, r0
 225 00bc 0392     		str	r2, [sp, #12]
 226 00be A2FB0564 		umull	r6, r4, r2, r5
 227 00c2 2044     		add	r0, r0, r4
 473:Drivers/CMSIS/DSP/Source/TransformFunctions/arm_cfft_radix4_q31.c ****                      ((int32_t) (((q63_t) s1 * si2) >> 32))) << 1U;
 228              		.loc 1 473 35 discriminator 1 view .LVU87
 229 00c4 DE17     		asrs	r6, r3, #31
 230              		.loc 1 473 46 discriminator 1 view .LVU88
 231 00c6 CC17     		asrs	r4, r1, #31
 232 00c8 03FB04F7 		mul	r7, r3, r4
 233 00cc 01FB0677 		mla	r7, r1, r6, r7
 234 00d0 0697     		str	r7, [sp, #24]
 235 00d2 A3FB0172 		umull	r7, r2, r3, r1
 236              	.LVL27:
 237              		.loc 1 473 46 discriminator 1 view .LVU89
 238 00d6 069F     		ldr	r7, [sp, #24]
 239 00d8 1744     		add	r7, r7, r2
 472:Drivers/CMSIS/DSP/Source/TransformFunctions/arm_cfft_radix4_q31.c ****                      ((int32_t) (((q63_t) s1 * si2) >> 32))) << 1U;
 240              		.loc 1 472 55 discriminator 1 view .LVU90
 241 00da 3844     		add	r0, r0, r7
 242              	.LVL28:
 243              		.loc 1 473 62 discriminator 1 view .LVU91
 244 00dc 4000     		lsls	r0, r0, #1
 472:Drivers/CMSIS/DSP/Source/TransformFunctions/arm_cfft_radix4_q31.c ****                      ((int32_t) (((q63_t) s1 * si2) >> 32))) << 1U;
 245              		.loc 1 472 13 discriminator 1 view .LVU92
 246 00de C8F80000 		str	r0, [r8]
 474:Drivers/CMSIS/DSP/Source/TransformFunctions/arm_cfft_radix4_q31.c **** 
 475:Drivers/CMSIS/DSP/Source/TransformFunctions/arm_cfft_radix4_q31.c ****     /* yc' = (ya-yb+yc-yd)co2 - (xa-xb+xc-xd)(si2) */
 476:Drivers/CMSIS/DSP/Source/TransformFunctions/arm_cfft_radix4_q31.c ****     *pSi1++ = (((int32_t) (((q63_t) s1 * co2) >> 32)) -
 247              		.loc 1 476 5 is_stmt 1 discriminator 1 view .LVU93
 248              		.loc 1 476 40 is_stmt 0 discriminator 1 view .LVU94
 249 00e2 05FB06F6 		mul	r6, r5, r6
 250 00e6 059F     		ldr	r7, [sp, #20]
 251 00e8 03FB0766 		mla	r6, r3, r7, r6
 252 00ec A5FB0353 		umull	r5, r3, r5, r3
 253              	.LVL29:
 254              		.loc 1 476 40 discriminator 1 view .LVU95
 255 00f0 3344     		add	r3, r3, r6
 477:Drivers/CMSIS/DSP/Source/TransformFunctions/arm_cfft_radix4_q31.c ****                             ((int32_t) (((q63_t) r1 * si2) >> 32))) << 1U;
 256              		.loc 1 477 53 discriminator 1 view .LVU96
 257 00f2 039A     		ldr	r2, [sp, #12]
 258 00f4 02FB04F4 		mul	r4, r2, r4
 259 00f8 01FB0C44 		mla	r4, r1, ip, r4
 260 00fc A2FB0121 		umull	r2, r1, r2, r1
ARM GAS  C:\Users\17832\AppData\Local\Temp\ccW85mhr.s 			page 14


 261              	.LVL30:
 262              		.loc 1 477 53 discriminator 1 view .LVU97
 263 0100 2144     		add	r1, r1, r4
 476:Drivers/CMSIS/DSP/Source/TransformFunctions/arm_cfft_radix4_q31.c ****                             ((int32_t) (((q63_t) r1 * si2) >> 32))) << 1U;
 264              		.loc 1 476 55 discriminator 1 view .LVU98
 265 0102 5B1A     		subs	r3, r3, r1
 266 0104 4246     		mov	r2, r8
 476:Drivers/CMSIS/DSP/Source/TransformFunctions/arm_cfft_radix4_q31.c ****                             ((int32_t) (((q63_t) r1 * si2) >> 32))) << 1U;
 267              		.loc 1 476 10 discriminator 1 view .LVU99
 268 0106 08F10808 		add	r8, r8, #8
 269              	.LVL31:
 270              		.loc 1 477 69 discriminator 1 view .LVU100
 271 010a 5B00     		lsls	r3, r3, #1
 476:Drivers/CMSIS/DSP/Source/TransformFunctions/arm_cfft_radix4_q31.c ****                             ((int32_t) (((q63_t) r1 * si2) >> 32))) << 1U;
 272              		.loc 1 476 13 discriminator 1 view .LVU101
 273 010c 5360     		str	r3, [r2, #4]
 478:Drivers/CMSIS/DSP/Source/TransformFunctions/arm_cfft_radix4_q31.c **** 
 479:Drivers/CMSIS/DSP/Source/TransformFunctions/arm_cfft_radix4_q31.c ****     /* (xa - xc) + (yb - yd) */
 480:Drivers/CMSIS/DSP/Source/TransformFunctions/arm_cfft_radix4_q31.c ****     r1 = r2 + t1;
 274              		.loc 1 480 5 is_stmt 1 discriminator 1 view .LVU102
 275              		.loc 1 480 8 is_stmt 0 discriminator 1 view .LVU103
 276 010e 019B     		ldr	r3, [sp, #4]
 277 0110 03EB0E05 		add	r5, r3, lr
 278              	.LVL32:
 481:Drivers/CMSIS/DSP/Source/TransformFunctions/arm_cfft_radix4_q31.c ****     /* (xa - xc) - (yb - yd) */
 482:Drivers/CMSIS/DSP/Source/TransformFunctions/arm_cfft_radix4_q31.c ****     r2 = r2 - t1;
 279              		.loc 1 482 5 is_stmt 1 discriminator 1 view .LVU104
 280              		.loc 1 482 8 is_stmt 0 discriminator 1 view .LVU105
 281 0114 A3EB0E0E 		sub	lr, r3, lr
 282              	.LVL33:
 483:Drivers/CMSIS/DSP/Source/TransformFunctions/arm_cfft_radix4_q31.c **** 
 484:Drivers/CMSIS/DSP/Source/TransformFunctions/arm_cfft_radix4_q31.c ****     /* (ya - yc) - (xb - xd) */
 485:Drivers/CMSIS/DSP/Source/TransformFunctions/arm_cfft_radix4_q31.c ****     s1 = s2 - t2;
 283              		.loc 1 485 5 is_stmt 1 discriminator 1 view .LVU106
 284              		.loc 1 485 8 is_stmt 0 discriminator 1 view .LVU107
 285 0118 029B     		ldr	r3, [sp, #8]
 286 011a 0499     		ldr	r1, [sp, #16]
 287 011c 5A1A     		subs	r2, r3, r1
 288              	.LVL34:
 486:Drivers/CMSIS/DSP/Source/TransformFunctions/arm_cfft_radix4_q31.c ****     /* (ya - yc) + (xb - xd) */
 487:Drivers/CMSIS/DSP/Source/TransformFunctions/arm_cfft_radix4_q31.c ****     s2 = s2 + t2;
 289              		.loc 1 487 5 is_stmt 1 discriminator 1 view .LVU108
 290              		.loc 1 487 8 is_stmt 0 discriminator 1 view .LVU109
 291 011e 0B44     		add	r3, r3, r1
 292 0120 0193     		str	r3, [sp, #4]
 293              	.LVL35:
 488:Drivers/CMSIS/DSP/Source/TransformFunctions/arm_cfft_radix4_q31.c **** 
 489:Drivers/CMSIS/DSP/Source/TransformFunctions/arm_cfft_radix4_q31.c ****     co1 = pCoef[ia1 * 2U];
 294              		.loc 1 489 5 is_stmt 1 discriminator 1 view .LVU110
 295              		.loc 1 489 16 is_stmt 0 discriminator 1 view .LVU111
 296 0122 009C     		ldr	r4, [sp]
 297 0124 E100     		lsls	r1, r4, #3
 298              		.loc 1 489 9 discriminator 1 view .LVU112
 299 0126 1098     		ldr	r0, [sp, #64]
 300 0128 50F83460 		ldr	r6, [r0, r4, lsl #3]
 301              	.LVL36:
 490:Drivers/CMSIS/DSP/Source/TransformFunctions/arm_cfft_radix4_q31.c ****     si1 = pCoef[(ia1 * 2U) + 1U];
ARM GAS  C:\Users\17832\AppData\Local\Temp\ccW85mhr.s 			page 15


 302              		.loc 1 490 5 is_stmt 1 discriminator 1 view .LVU113
 303              		.loc 1 490 16 is_stmt 0 discriminator 1 view .LVU114
 304 012c 0431     		adds	r1, r1, #4
 305              		.loc 1 490 9 discriminator 1 view .LVU115
 306 012e 4158     		ldr	r1, [r0, r1]
 307              	.LVL37:
 491:Drivers/CMSIS/DSP/Source/TransformFunctions/arm_cfft_radix4_q31.c **** 
 492:Drivers/CMSIS/DSP/Source/TransformFunctions/arm_cfft_radix4_q31.c ****     /* xb' = (xa+yb-xc-yd)co1 + (ya-xb-yc+xd)(si1) */
 493:Drivers/CMSIS/DSP/Source/TransformFunctions/arm_cfft_radix4_q31.c ****     *pSi2++ = (((int32_t) (((q63_t) r1 * co1) >> 32)) +
 308              		.loc 1 493 5 is_stmt 1 discriminator 1 view .LVU116
 309              		.loc 1 493 29 is_stmt 0 discriminator 1 view .LVU117
 310 0130 EF17     		asrs	r7, r5, #31
 311              		.loc 1 493 40 discriminator 1 view .LVU118
 312 0132 F417     		asrs	r4, r6, #31
 313 0134 0394     		str	r4, [sp, #12]
 314 0136 05FB04F0 		mul	r0, r5, r4
 315 013a 0297     		str	r7, [sp, #8]
 316 013c 06FB0700 		mla	r0, r6, r7, r0
 317 0140 A5FB0674 		umull	r7, r4, r5, r6
 318 0144 0319     		adds	r3, r0, r4
 319              	.LVL38:
 320              		.loc 1 493 40 discriminator 1 view .LVU119
 321 0146 0493     		str	r3, [sp, #16]
 322              	.LVL39:
 494:Drivers/CMSIS/DSP/Source/TransformFunctions/arm_cfft_radix4_q31.c ****                      ((int32_t) (((q63_t) s1 * si1) >> 32))) << 1U;
 323              		.loc 1 494 35 discriminator 1 view .LVU120
 324 0148 D717     		asrs	r7, r2, #31
 325              		.loc 1 494 46 discriminator 1 view .LVU121
 326 014a CC17     		asrs	r4, r1, #31
 327 014c 02FB04FC 		mul	ip, r2, r4
 328 0150 01FB07C0 		mla	r0, r1, r7, ip
 329 0154 A2FB01C3 		umull	ip, r3, r2, r1
 330 0158 1844     		add	r0, r0, r3
 331 015a 8446     		mov	ip, r0
 493:Drivers/CMSIS/DSP/Source/TransformFunctions/arm_cfft_radix4_q31.c ****                      ((int32_t) (((q63_t) s1 * si1) >> 32))) << 1U;
 332              		.loc 1 493 55 discriminator 1 view .LVU122
 333 015c 0498     		ldr	r0, [sp, #16]
 334 015e 6044     		add	r0, r0, ip
 335              	.LVL40:
 336              		.loc 1 494 62 discriminator 1 view .LVU123
 337 0160 4000     		lsls	r0, r0, #1
 493:Drivers/CMSIS/DSP/Source/TransformFunctions/arm_cfft_radix4_q31.c ****                      ((int32_t) (((q63_t) s1 * si1) >> 32))) << 1U;
 338              		.loc 1 493 13 discriminator 1 view .LVU124
 339 0162 C9F80000 		str	r0, [r9]
 495:Drivers/CMSIS/DSP/Source/TransformFunctions/arm_cfft_radix4_q31.c **** 
 496:Drivers/CMSIS/DSP/Source/TransformFunctions/arm_cfft_radix4_q31.c ****     /* yb' = (ya-xb-yc+xd)co1 - (xa+yb-xc-yd)(si1) */
 497:Drivers/CMSIS/DSP/Source/TransformFunctions/arm_cfft_radix4_q31.c ****     *pSi2++ = (((int32_t) (((q63_t) s1 * co1) >> 32)) -
 340              		.loc 1 497 5 is_stmt 1 discriminator 1 view .LVU125
 341              		.loc 1 497 40 is_stmt 0 discriminator 1 view .LVU126
 342 0166 06FB07F7 		mul	r7, r6, r7
 343 016a 0398     		ldr	r0, [sp, #12]
 344 016c 02FB0077 		mla	r7, r2, r0, r7
 345 0170 A6FB0262 		umull	r6, r2, r6, r2
 346              	.LVL41:
 347              		.loc 1 497 40 discriminator 1 view .LVU127
 348 0174 3A44     		add	r2, r2, r7
 498:Drivers/CMSIS/DSP/Source/TransformFunctions/arm_cfft_radix4_q31.c ****                             ((int32_t) (((q63_t) r1 * si1) >> 32))) << 1U;
ARM GAS  C:\Users\17832\AppData\Local\Temp\ccW85mhr.s 			page 16


 349              		.loc 1 498 53 discriminator 1 view .LVU128
 350 0176 05FB04F4 		mul	r4, r5, r4
 351 017a 029F     		ldr	r7, [sp, #8]
 352 017c 01FB0744 		mla	r4, r1, r7, r4
 353 0180 A5FB0151 		umull	r5, r1, r5, r1
 354              	.LVL42:
 355              		.loc 1 498 53 discriminator 1 view .LVU129
 356 0184 2144     		add	r1, r1, r4
 497:Drivers/CMSIS/DSP/Source/TransformFunctions/arm_cfft_radix4_q31.c ****                             ((int32_t) (((q63_t) r1 * si1) >> 32))) << 1U;
 357              		.loc 1 497 55 discriminator 1 view .LVU130
 358 0186 521A     		subs	r2, r2, r1
 359 0188 4946     		mov	r1, r9
 497:Drivers/CMSIS/DSP/Source/TransformFunctions/arm_cfft_radix4_q31.c ****                             ((int32_t) (((q63_t) r1 * si1) >> 32))) << 1U;
 360              		.loc 1 497 10 discriminator 1 view .LVU131
 361 018a 09F10809 		add	r9, r9, #8
 362              	.LVL43:
 363              		.loc 1 498 69 discriminator 1 view .LVU132
 364 018e 5200     		lsls	r2, r2, #1
 497:Drivers/CMSIS/DSP/Source/TransformFunctions/arm_cfft_radix4_q31.c ****                             ((int32_t) (((q63_t) r1 * si1) >> 32))) << 1U;
 365              		.loc 1 497 13 discriminator 1 view .LVU133
 366 0190 4A60     		str	r2, [r1, #4]
 499:Drivers/CMSIS/DSP/Source/TransformFunctions/arm_cfft_radix4_q31.c **** 
 500:Drivers/CMSIS/DSP/Source/TransformFunctions/arm_cfft_radix4_q31.c ****     /*  index calculation for the coefficients */
 501:Drivers/CMSIS/DSP/Source/TransformFunctions/arm_cfft_radix4_q31.c ****     ia3 = 3U * ia1;
 367              		.loc 1 501 5 is_stmt 1 discriminator 1 view .LVU134
 368              	.LVL44:
 502:Drivers/CMSIS/DSP/Source/TransformFunctions/arm_cfft_radix4_q31.c ****     co3 = pCoef[ia3 * 2U];
 369              		.loc 1 502 5 discriminator 1 view .LVU135
 370              		.loc 1 502 16 is_stmt 0 discriminator 1 view .LVU136
 371 0192 009C     		ldr	r4, [sp]
 372 0194 04EB4402 		add	r2, r4, r4, lsl #1
 373 0198 D200     		lsls	r2, r2, #3
 374              		.loc 1 502 9 discriminator 1 view .LVU137
 375 019a 1098     		ldr	r0, [sp, #64]
 376 019c 8458     		ldr	r4, [r0, r2]
 377              	.LVL45:
 503:Drivers/CMSIS/DSP/Source/TransformFunctions/arm_cfft_radix4_q31.c ****     si3 = pCoef[(ia3 * 2U) + 1U];
 378              		.loc 1 503 5 is_stmt 1 discriminator 1 view .LVU138
 379              		.loc 1 503 16 is_stmt 0 discriminator 1 view .LVU139
 380 019e 0432     		adds	r2, r2, #4
 381              		.loc 1 503 9 discriminator 1 view .LVU140
 382 01a0 8258     		ldr	r2, [r0, r2]
 383              	.LVL46:
 504:Drivers/CMSIS/DSP/Source/TransformFunctions/arm_cfft_radix4_q31.c **** 
 505:Drivers/CMSIS/DSP/Source/TransformFunctions/arm_cfft_radix4_q31.c ****     /* xd' = (xa-yb-xc+yd)co3 + (ya+xb-yc-xd)(si3) */
 506:Drivers/CMSIS/DSP/Source/TransformFunctions/arm_cfft_radix4_q31.c ****     *pSi3++ = (((int32_t) (((q63_t) r2 * co3) >> 32)) +
 384              		.loc 1 506 5 is_stmt 1 discriminator 1 view .LVU141
 385              		.loc 1 506 29 is_stmt 0 discriminator 1 view .LVU142
 386 01a2 4FEAEE77 		asr	r7, lr, #31
 387              		.loc 1 506 40 discriminator 1 view .LVU143
 388 01a6 4FEAE47C 		asr	ip, r4, #31
 389 01aa 0EFB0CF1 		mul	r1, lr, ip
 390 01ae 04FB0711 		mla	r1, r4, r7, r1
 391 01b2 AEFB0450 		umull	r5, r0, lr, r4
 392 01b6 0144     		add	r1, r1, r0
 393 01b8 0291     		str	r1, [sp, #8]
 507:Drivers/CMSIS/DSP/Source/TransformFunctions/arm_cfft_radix4_q31.c ****                      ((int32_t) (((q63_t) s2 * si3) >> 32))) << 1U;
ARM GAS  C:\Users\17832\AppData\Local\Temp\ccW85mhr.s 			page 17


 394              		.loc 1 507 35 discriminator 1 view .LVU144
 395 01ba 019B     		ldr	r3, [sp, #4]
 396 01bc DD17     		asrs	r5, r3, #31
 397              		.loc 1 507 46 discriminator 1 view .LVU145
 398 01be D017     		asrs	r0, r2, #31
 399 01c0 03FB00F6 		mul	r6, r3, r0
 400 01c4 02FB0566 		mla	r6, r2, r5, r6
 401 01c8 A3FB0213 		umull	r1, r3, r3, r2
 402 01cc 1E44     		add	r6, r6, r3
 506:Drivers/CMSIS/DSP/Source/TransformFunctions/arm_cfft_radix4_q31.c ****                      ((int32_t) (((q63_t) s2 * si3) >> 32))) << 1U;
 403              		.loc 1 506 55 discriminator 1 view .LVU146
 404 01ce 0299     		ldr	r1, [sp, #8]
 405 01d0 3144     		add	r1, r1, r6
 406              	.LVL47:
 407              		.loc 1 507 62 discriminator 1 view .LVU147
 408 01d2 4900     		lsls	r1, r1, #1
 506:Drivers/CMSIS/DSP/Source/TransformFunctions/arm_cfft_radix4_q31.c ****                      ((int32_t) (((q63_t) s2 * si3) >> 32))) << 1U;
 409              		.loc 1 506 13 discriminator 1 view .LVU148
 410 01d4 CBF80010 		str	r1, [fp]
 508:Drivers/CMSIS/DSP/Source/TransformFunctions/arm_cfft_radix4_q31.c **** 
 509:Drivers/CMSIS/DSP/Source/TransformFunctions/arm_cfft_radix4_q31.c ****     /* yd' = (ya+xb-yc-xd)co3 - (xa-yb-xc+yd)(si3) */
 510:Drivers/CMSIS/DSP/Source/TransformFunctions/arm_cfft_radix4_q31.c ****     *pSi3++ = (((int32_t) (((q63_t) s2 * co3) >> 32)) -
 411              		.loc 1 510 5 is_stmt 1 discriminator 1 view .LVU149
 412              		.loc 1 510 40 is_stmt 0 discriminator 1 view .LVU150
 413 01d8 04FB05F5 		mul	r5, r4, r5
 414 01dc 019B     		ldr	r3, [sp, #4]
 415 01de 03FB0C55 		mla	r5, r3, ip, r5
 416 01e2 A4FB0343 		umull	r4, r3, r4, r3
 417              	.LVL48:
 418              		.loc 1 510 40 discriminator 1 view .LVU151
 419 01e6 2B44     		add	r3, r3, r5
 511:Drivers/CMSIS/DSP/Source/TransformFunctions/arm_cfft_radix4_q31.c ****                             ((int32_t) (((q63_t) r2 * si3) >> 32))) << 1U;
 420              		.loc 1 511 53 discriminator 1 view .LVU152
 421 01e8 0EFB00F0 		mul	r0, lr, r0
 422 01ec 02FB0707 		mla	r7, r2, r7, r0
 423 01f0 AEFB0212 		umull	r1, r2, lr, r2
 424              	.LVL49:
 425              		.loc 1 511 53 discriminator 1 view .LVU153
 426 01f4 3A44     		add	r2, r2, r7
 510:Drivers/CMSIS/DSP/Source/TransformFunctions/arm_cfft_radix4_q31.c ****                             ((int32_t) (((q63_t) r2 * si3) >> 32))) << 1U;
 427              		.loc 1 510 55 discriminator 1 view .LVU154
 428 01f6 9B1A     		subs	r3, r3, r2
 429 01f8 5A46     		mov	r2, fp
 510:Drivers/CMSIS/DSP/Source/TransformFunctions/arm_cfft_radix4_q31.c ****                             ((int32_t) (((q63_t) r2 * si3) >> 32))) << 1U;
 430              		.loc 1 510 10 discriminator 1 view .LVU155
 431 01fa 0BF1080B 		add	fp, fp, #8
 432              	.LVL50:
 433              		.loc 1 511 69 discriminator 1 view .LVU156
 434 01fe 5B00     		lsls	r3, r3, #1
 510:Drivers/CMSIS/DSP/Source/TransformFunctions/arm_cfft_radix4_q31.c ****                             ((int32_t) (((q63_t) r2 * si3) >> 32))) << 1U;
 435              		.loc 1 510 13 discriminator 1 view .LVU157
 436 0200 5360     		str	r3, [r2, #4]
 512:Drivers/CMSIS/DSP/Source/TransformFunctions/arm_cfft_radix4_q31.c **** 
 513:Drivers/CMSIS/DSP/Source/TransformFunctions/arm_cfft_radix4_q31.c ****     /*  Twiddle coefficients index modifier */
 514:Drivers/CMSIS/DSP/Source/TransformFunctions/arm_cfft_radix4_q31.c ****     ia1 = ia1 + twidCoefModifier;
 437              		.loc 1 514 5 is_stmt 1 discriminator 1 view .LVU158
 438              		.loc 1 514 9 is_stmt 0 discriminator 1 view .LVU159
ARM GAS  C:\Users\17832\AppData\Local\Temp\ccW85mhr.s 			page 18


 439 0202 009C     		ldr	r4, [sp]
 440 0204 079B     		ldr	r3, [sp, #28]
 441 0206 E318     		adds	r3, r4, r3
 442 0208 0093     		str	r3, [sp]
 443              	.LVL51:
 515:Drivers/CMSIS/DSP/Source/TransformFunctions/arm_cfft_radix4_q31.c **** 
 516:Drivers/CMSIS/DSP/Source/TransformFunctions/arm_cfft_radix4_q31.c ****   } while (--j);
 444              		.loc 1 516 11 is_stmt 1 discriminator 1 view .LVU160
 445              		.loc 1 516 3 is_stmt 0 discriminator 1 view .LVU161
 446 020a 139B     		ldr	r3, [sp, #76]
 447              	.LVL52:
 448              		.loc 1 516 3 discriminator 1 view .LVU162
 449 020c 013B     		subs	r3, r3, #1
 450              	.LVL53:
 451              		.loc 1 516 3 discriminator 1 view .LVU163
 452 020e 1393     		str	r3, [sp, #76]
 453 0210 7FF40BAF 		bne	.L2
 517:Drivers/CMSIS/DSP/Source/TransformFunctions/arm_cfft_radix4_q31.c **** 
 518:Drivers/CMSIS/DSP/Source/TransformFunctions/arm_cfft_radix4_q31.c ****   /* end of first stage process */
 519:Drivers/CMSIS/DSP/Source/TransformFunctions/arm_cfft_radix4_q31.c **** 
 520:Drivers/CMSIS/DSP/Source/TransformFunctions/arm_cfft_radix4_q31.c ****   /* data is in 5.27(q27) format */
 521:Drivers/CMSIS/DSP/Source/TransformFunctions/arm_cfft_radix4_q31.c **** 
 522:Drivers/CMSIS/DSP/Source/TransformFunctions/arm_cfft_radix4_q31.c **** 
 523:Drivers/CMSIS/DSP/Source/TransformFunctions/arm_cfft_radix4_q31.c ****   /* start of Middle stages process */
 524:Drivers/CMSIS/DSP/Source/TransformFunctions/arm_cfft_radix4_q31.c **** 
 525:Drivers/CMSIS/DSP/Source/TransformFunctions/arm_cfft_radix4_q31.c **** 
 526:Drivers/CMSIS/DSP/Source/TransformFunctions/arm_cfft_radix4_q31.c ****   /* each stage in middle stages provides two down scaling of the input */
 527:Drivers/CMSIS/DSP/Source/TransformFunctions/arm_cfft_radix4_q31.c **** 
 528:Drivers/CMSIS/DSP/Source/TransformFunctions/arm_cfft_radix4_q31.c ****   twidCoefModifier <<= 2U;
 454              		.loc 1 528 3 is_stmt 1 view .LVU164
 455              		.loc 1 528 20 is_stmt 0 view .LVU165
 456 0214 079B     		ldr	r3, [sp, #28]
 457              	.LVL54:
 458              		.loc 1 528 20 view .LVU166
 459 0216 9B00     		lsls	r3, r3, #2
 460 0218 1193     		str	r3, [sp, #68]
 461              	.LVL55:
 529:Drivers/CMSIS/DSP/Source/TransformFunctions/arm_cfft_radix4_q31.c **** 
 530:Drivers/CMSIS/DSP/Source/TransformFunctions/arm_cfft_radix4_q31.c **** 
 531:Drivers/CMSIS/DSP/Source/TransformFunctions/arm_cfft_radix4_q31.c ****   for (k = fftLen / 4U; k > 4U; k >>= 2U)
 462              		.loc 1 531 3 is_stmt 1 view .LVU167
 463              		.loc 1 531 10 is_stmt 0 view .LVU168
 464 021a 0B9B     		ldr	r3, [sp, #44]
 465              	.LVL56:
 466              		.loc 1 531 10 view .LVU169
 467 021c 9B08     		lsrs	r3, r3, #2
 468 021e 1493     		str	r3, [sp, #80]
 469              	.LVL57:
 418:Drivers/CMSIS/DSP/Source/TransformFunctions/arm_cfft_radix4_q31.c **** 
 470              		.loc 1 418 6 view .LVU170
 471 0220 159B     		ldr	r3, [sp, #84]
 472              	.LVL58:
 418:Drivers/CMSIS/DSP/Source/TransformFunctions/arm_cfft_radix4_q31.c **** 
 473              		.loc 1 418 6 view .LVU171
 474 0222 0093     		str	r3, [sp]
 475              	.LVL59:
 476              		.loc 1 531 3 view .LVU172
ARM GAS  C:\Users\17832\AppData\Local\Temp\ccW85mhr.s 			page 19


 477 0224 18E1     		b	.L3
 478              	.LVL60:
 479              	.L6:
 532:Drivers/CMSIS/DSP/Source/TransformFunctions/arm_cfft_radix4_q31.c ****   {
 533:Drivers/CMSIS/DSP/Source/TransformFunctions/arm_cfft_radix4_q31.c ****     /*  Initializations for the first stage */
 534:Drivers/CMSIS/DSP/Source/TransformFunctions/arm_cfft_radix4_q31.c ****     n1 = n2;
 535:Drivers/CMSIS/DSP/Source/TransformFunctions/arm_cfft_radix4_q31.c ****     n2 >>= 2U;
 536:Drivers/CMSIS/DSP/Source/TransformFunctions/arm_cfft_radix4_q31.c ****     ia1 = 0U;
 537:Drivers/CMSIS/DSP/Source/TransformFunctions/arm_cfft_radix4_q31.c **** 
 538:Drivers/CMSIS/DSP/Source/TransformFunctions/arm_cfft_radix4_q31.c ****     /*  Calculation of first stage */
 539:Drivers/CMSIS/DSP/Source/TransformFunctions/arm_cfft_radix4_q31.c ****     for (j = 0U; j <= (n2 - 1U); j++)
 540:Drivers/CMSIS/DSP/Source/TransformFunctions/arm_cfft_radix4_q31.c ****     {
 541:Drivers/CMSIS/DSP/Source/TransformFunctions/arm_cfft_radix4_q31.c ****       /*  index calculation for the coefficients */
 542:Drivers/CMSIS/DSP/Source/TransformFunctions/arm_cfft_radix4_q31.c ****       ia2 = ia1 + ia1;
 543:Drivers/CMSIS/DSP/Source/TransformFunctions/arm_cfft_radix4_q31.c ****       ia3 = ia2 + ia1;
 544:Drivers/CMSIS/DSP/Source/TransformFunctions/arm_cfft_radix4_q31.c ****       co1 = pCoef[ia1 * 2U];
 545:Drivers/CMSIS/DSP/Source/TransformFunctions/arm_cfft_radix4_q31.c ****       si1 = pCoef[(ia1 * 2U) + 1U];
 546:Drivers/CMSIS/DSP/Source/TransformFunctions/arm_cfft_radix4_q31.c ****       co2 = pCoef[ia2 * 2U];
 547:Drivers/CMSIS/DSP/Source/TransformFunctions/arm_cfft_radix4_q31.c ****       si2 = pCoef[(ia2 * 2U) + 1U];
 548:Drivers/CMSIS/DSP/Source/TransformFunctions/arm_cfft_radix4_q31.c ****       co3 = pCoef[ia3 * 2U];
 549:Drivers/CMSIS/DSP/Source/TransformFunctions/arm_cfft_radix4_q31.c ****       si3 = pCoef[(ia3 * 2U) + 1U];
 550:Drivers/CMSIS/DSP/Source/TransformFunctions/arm_cfft_radix4_q31.c ****       /*  Twiddle coefficients index modifier */
 551:Drivers/CMSIS/DSP/Source/TransformFunctions/arm_cfft_radix4_q31.c ****       ia1 = ia1 + twidCoefModifier;
 552:Drivers/CMSIS/DSP/Source/TransformFunctions/arm_cfft_radix4_q31.c **** 
 553:Drivers/CMSIS/DSP/Source/TransformFunctions/arm_cfft_radix4_q31.c ****       pSi0 = pSrc + 2 * j;
 554:Drivers/CMSIS/DSP/Source/TransformFunctions/arm_cfft_radix4_q31.c ****       pSi1 = pSi0 + 2 * n2;
 555:Drivers/CMSIS/DSP/Source/TransformFunctions/arm_cfft_radix4_q31.c ****       pSi2 = pSi1 + 2 * n2;
 556:Drivers/CMSIS/DSP/Source/TransformFunctions/arm_cfft_radix4_q31.c ****       pSi3 = pSi2 + 2 * n2;
 557:Drivers/CMSIS/DSP/Source/TransformFunctions/arm_cfft_radix4_q31.c **** 
 558:Drivers/CMSIS/DSP/Source/TransformFunctions/arm_cfft_radix4_q31.c ****       for (i0 = j; i0 < fftLen; i0 += n1)
 559:Drivers/CMSIS/DSP/Source/TransformFunctions/arm_cfft_radix4_q31.c ****       {
 560:Drivers/CMSIS/DSP/Source/TransformFunctions/arm_cfft_radix4_q31.c ****         /*  Butterfly implementation */
 561:Drivers/CMSIS/DSP/Source/TransformFunctions/arm_cfft_radix4_q31.c ****         /* xa + xc */
 562:Drivers/CMSIS/DSP/Source/TransformFunctions/arm_cfft_radix4_q31.c ****         r1 = pSi0[0] + pSi2[0];
 480              		.loc 1 562 9 is_stmt 1 discriminator 3 view .LVU173
 481              		.loc 1 562 18 is_stmt 0 discriminator 3 view .LVU174
 482 0226 D8F80010 		ldr	r1, [r8]
 483              		.loc 1 562 28 discriminator 3 view .LVU175
 484 022a D9F80030 		ldr	r3, [r9]
 485              	.LVL61:
 486              		.loc 1 562 12 discriminator 3 view .LVU176
 487 022e CA18     		adds	r2, r1, r3
 488              	.LVL62:
 563:Drivers/CMSIS/DSP/Source/TransformFunctions/arm_cfft_radix4_q31.c **** 
 564:Drivers/CMSIS/DSP/Source/TransformFunctions/arm_cfft_radix4_q31.c ****         /* xa - xc */
 565:Drivers/CMSIS/DSP/Source/TransformFunctions/arm_cfft_radix4_q31.c ****         r2 = pSi0[0] - pSi2[0];
 489              		.loc 1 565 9 is_stmt 1 discriminator 3 view .LVU177
 490              		.loc 1 565 12 is_stmt 0 discriminator 3 view .LVU178
 491 0230 CB1A     		subs	r3, r1, r3
 492 0232 0893     		str	r3, [sp, #32]
 493              	.LVL63:
 566:Drivers/CMSIS/DSP/Source/TransformFunctions/arm_cfft_radix4_q31.c **** 
 567:Drivers/CMSIS/DSP/Source/TransformFunctions/arm_cfft_radix4_q31.c **** 
 568:Drivers/CMSIS/DSP/Source/TransformFunctions/arm_cfft_radix4_q31.c ****         /* ya + yc */
 569:Drivers/CMSIS/DSP/Source/TransformFunctions/arm_cfft_radix4_q31.c ****         s1 = pSi0[1] + pSi2[1];
 494              		.loc 1 569 9 is_stmt 1 discriminator 3 view .LVU179
 495              		.loc 1 569 18 is_stmt 0 discriminator 3 view .LVU180
ARM GAS  C:\Users\17832\AppData\Local\Temp\ccW85mhr.s 			page 20


 496 0234 D8F80400 		ldr	r0, [r8, #4]
 497              		.loc 1 569 28 discriminator 3 view .LVU181
 498 0238 D9F80430 		ldr	r3, [r9, #4]
 499              	.LVL64:
 500              		.loc 1 569 12 discriminator 3 view .LVU182
 501 023c C118     		adds	r1, r0, r3
 502              	.LVL65:
 570:Drivers/CMSIS/DSP/Source/TransformFunctions/arm_cfft_radix4_q31.c **** 
 571:Drivers/CMSIS/DSP/Source/TransformFunctions/arm_cfft_radix4_q31.c ****         /* ya - yc */
 572:Drivers/CMSIS/DSP/Source/TransformFunctions/arm_cfft_radix4_q31.c ****         s2 = pSi0[1] - pSi2[1];
 503              		.loc 1 572 9 is_stmt 1 discriminator 3 view .LVU183
 504              		.loc 1 572 12 is_stmt 0 discriminator 3 view .LVU184
 505 023e C01A     		subs	r0, r0, r3
 506 0240 0990     		str	r0, [sp, #36]
 507              	.LVL66:
 573:Drivers/CMSIS/DSP/Source/TransformFunctions/arm_cfft_radix4_q31.c **** 
 574:Drivers/CMSIS/DSP/Source/TransformFunctions/arm_cfft_radix4_q31.c **** 
 575:Drivers/CMSIS/DSP/Source/TransformFunctions/arm_cfft_radix4_q31.c ****         /* xb + xd */
 576:Drivers/CMSIS/DSP/Source/TransformFunctions/arm_cfft_radix4_q31.c ****         t1 = pSi1[0] + pSi3[0];
 508              		.loc 1 576 9 is_stmt 1 discriminator 3 view .LVU185
 509              		.loc 1 576 18 is_stmt 0 discriminator 3 view .LVU186
 510 0242 DBF80000 		ldr	r0, [fp]
 511              	.LVL67:
 512              		.loc 1 576 28 discriminator 3 view .LVU187
 513 0246 DAF80030 		ldr	r3, [r10]
 514              		.loc 1 576 12 discriminator 3 view .LVU188
 515 024a 0344     		add	r3, r3, r0
 516              	.LVL68:
 577:Drivers/CMSIS/DSP/Source/TransformFunctions/arm_cfft_radix4_q31.c **** 
 578:Drivers/CMSIS/DSP/Source/TransformFunctions/arm_cfft_radix4_q31.c **** 
 579:Drivers/CMSIS/DSP/Source/TransformFunctions/arm_cfft_radix4_q31.c ****         /* xa' = xa + xb + xc + xd */
 580:Drivers/CMSIS/DSP/Source/TransformFunctions/arm_cfft_radix4_q31.c ****         pSi0[0] = (r1 + t1) >> 2U;
 517              		.loc 1 580 9 is_stmt 1 discriminator 3 view .LVU189
 518              		.loc 1 580 23 is_stmt 0 discriminator 3 view .LVU190
 519 024c D418     		adds	r4, r2, r3
 520              		.loc 1 580 29 discriminator 3 view .LVU191
 521 024e A410     		asrs	r4, r4, #2
 522              		.loc 1 580 17 discriminator 3 view .LVU192
 523 0250 C8F80040 		str	r4, [r8]
 581:Drivers/CMSIS/DSP/Source/TransformFunctions/arm_cfft_radix4_q31.c ****         /* xa + xc -(xb + xd) */
 582:Drivers/CMSIS/DSP/Source/TransformFunctions/arm_cfft_radix4_q31.c ****         r1 = r1 - t1;
 524              		.loc 1 582 9 is_stmt 1 discriminator 3 view .LVU193
 525              		.loc 1 582 12 is_stmt 0 discriminator 3 view .LVU194
 526 0254 D21A     		subs	r2, r2, r3
 527              	.LVL69:
 583:Drivers/CMSIS/DSP/Source/TransformFunctions/arm_cfft_radix4_q31.c **** 
 584:Drivers/CMSIS/DSP/Source/TransformFunctions/arm_cfft_radix4_q31.c ****         /* yb + yd */
 585:Drivers/CMSIS/DSP/Source/TransformFunctions/arm_cfft_radix4_q31.c ****         t2 = pSi1[1] + pSi3[1];
 528              		.loc 1 585 9 is_stmt 1 discriminator 3 view .LVU195
 529              		.loc 1 585 18 is_stmt 0 discriminator 3 view .LVU196
 530 0256 DBF80400 		ldr	r0, [fp, #4]
 531              		.loc 1 585 28 discriminator 3 view .LVU197
 532 025a DAF80430 		ldr	r3, [r10, #4]
 533              	.LVL70:
 534              		.loc 1 585 12 discriminator 3 view .LVU198
 535 025e 0344     		add	r3, r3, r0
 536              	.LVL71:
ARM GAS  C:\Users\17832\AppData\Local\Temp\ccW85mhr.s 			page 21


 586:Drivers/CMSIS/DSP/Source/TransformFunctions/arm_cfft_radix4_q31.c **** 
 587:Drivers/CMSIS/DSP/Source/TransformFunctions/arm_cfft_radix4_q31.c ****         /* ya' = ya + yb + yc + yd */
 588:Drivers/CMSIS/DSP/Source/TransformFunctions/arm_cfft_radix4_q31.c ****         pSi0[1] = (s1 + t2) >> 2U;
 537              		.loc 1 588 9 is_stmt 1 discriminator 3 view .LVU199
 538              		.loc 1 588 23 is_stmt 0 discriminator 3 view .LVU200
 539 0260 CC18     		adds	r4, r1, r3
 540              		.loc 1 588 29 discriminator 3 view .LVU201
 541 0262 A410     		asrs	r4, r4, #2
 542              		.loc 1 588 17 discriminator 3 view .LVU202
 543 0264 C8F80440 		str	r4, [r8, #4]
 589:Drivers/CMSIS/DSP/Source/TransformFunctions/arm_cfft_radix4_q31.c ****         pSi0 += 2 * n1;
 544              		.loc 1 589 9 is_stmt 1 discriminator 3 view .LVU203
 545              		.loc 1 589 14 is_stmt 0 discriminator 3 view .LVU204
 546 0268 0098     		ldr	r0, [sp]
 547 026a 08EBC008 		add	r8, r8, r0, lsl #3
 548              	.LVL72:
 590:Drivers/CMSIS/DSP/Source/TransformFunctions/arm_cfft_radix4_q31.c **** 
 591:Drivers/CMSIS/DSP/Source/TransformFunctions/arm_cfft_radix4_q31.c ****         /* (ya + yc) - (yb + yd) */
 592:Drivers/CMSIS/DSP/Source/TransformFunctions/arm_cfft_radix4_q31.c ****         s1 = s1 - t2;
 549              		.loc 1 592 9 is_stmt 1 discriminator 3 view .LVU205
 550              		.loc 1 592 12 is_stmt 0 discriminator 3 view .LVU206
 551 026e C91A     		subs	r1, r1, r3
 552              	.LVL73:
 593:Drivers/CMSIS/DSP/Source/TransformFunctions/arm_cfft_radix4_q31.c **** 
 594:Drivers/CMSIS/DSP/Source/TransformFunctions/arm_cfft_radix4_q31.c ****         /* (yb - yd) */
 595:Drivers/CMSIS/DSP/Source/TransformFunctions/arm_cfft_radix4_q31.c ****         t1 = pSi1[1] - pSi3[1];
 553              		.loc 1 595 9 is_stmt 1 discriminator 3 view .LVU207
 554              		.loc 1 595 18 is_stmt 0 discriminator 3 view .LVU208
 555 0270 DBF80400 		ldr	r0, [fp, #4]
 556              		.loc 1 595 28 discriminator 3 view .LVU209
 557 0274 DAF80430 		ldr	r3, [r10, #4]
 558              	.LVL74:
 559              		.loc 1 595 12 discriminator 3 view .LVU210
 560 0278 C31A     		subs	r3, r0, r3
 561              	.LVL75:
 596:Drivers/CMSIS/DSP/Source/TransformFunctions/arm_cfft_radix4_q31.c **** 
 597:Drivers/CMSIS/DSP/Source/TransformFunctions/arm_cfft_radix4_q31.c ****         /* (xb - xd) */
 598:Drivers/CMSIS/DSP/Source/TransformFunctions/arm_cfft_radix4_q31.c ****         t2 = pSi1[0] - pSi3[0];
 562              		.loc 1 598 9 is_stmt 1 discriminator 3 view .LVU211
 563              		.loc 1 598 18 is_stmt 0 discriminator 3 view .LVU212
 564 027a DBF80070 		ldr	r7, [fp]
 565              		.loc 1 598 28 discriminator 3 view .LVU213
 566 027e DAF80000 		ldr	r0, [r10]
 567              		.loc 1 598 12 discriminator 3 view .LVU214
 568 0282 3F1A     		subs	r7, r7, r0
 569              	.LVL76:
 599:Drivers/CMSIS/DSP/Source/TransformFunctions/arm_cfft_radix4_q31.c **** 
 600:Drivers/CMSIS/DSP/Source/TransformFunctions/arm_cfft_radix4_q31.c **** 
 601:Drivers/CMSIS/DSP/Source/TransformFunctions/arm_cfft_radix4_q31.c ****         /* xc' = (xa-xb+xc-xd)co2 + (ya-yb+yc-yd)(si2) */
 602:Drivers/CMSIS/DSP/Source/TransformFunctions/arm_cfft_radix4_q31.c ****         pSi1[0] = (((int32_t) (((q63_t) r1 * co2) >> 32)) +
 570              		.loc 1 602 9 is_stmt 1 discriminator 3 view .LVU215
 571              		.loc 1 602 33 is_stmt 0 discriminator 3 view .LVU216
 572 0284 4FEAE27C 		asr	ip, r2, #31
 573              		.loc 1 602 44 discriminator 3 view .LVU217
 574 0288 059E     		ldr	r6, [sp, #20]
 575 028a 4FEAE67E 		asr	lr, r6, #31
 576 028e 02FB0EF0 		mul	r0, r2, lr
ARM GAS  C:\Users\17832\AppData\Local\Temp\ccW85mhr.s 			page 22


 577 0292 06FB0C00 		mla	r0, r6, ip, r0
 578 0296 A2FB0654 		umull	r5, r4, r2, r6
 579 029a 2044     		add	r0, r0, r4
 603:Drivers/CMSIS/DSP/Source/TransformFunctions/arm_cfft_radix4_q31.c ****                          ((int32_t) (((q63_t) s1 * si2) >> 32))) >> 1U;
 580              		.loc 1 603 39 discriminator 3 view .LVU218
 581 029c CD17     		asrs	r5, r1, #31
 582 029e 0195     		str	r5, [sp, #4]
 583              		.loc 1 603 50 discriminator 3 view .LVU219
 584 02a0 069C     		ldr	r4, [sp, #24]
 585 02a2 E517     		asrs	r5, r4, #31
 586 02a4 0A95     		str	r5, [sp, #40]
 587 02a6 01FB05F6 		mul	r6, r1, r5
 588 02aa 019D     		ldr	r5, [sp, #4]
 589 02ac 04FB0566 		mla	r6, r4, r5, r6
 590 02b0 A1FB0454 		umull	r5, r4, r1, r4
 591 02b4 2644     		add	r6, r6, r4
 602:Drivers/CMSIS/DSP/Source/TransformFunctions/arm_cfft_radix4_q31.c ****                          ((int32_t) (((q63_t) s1 * si2) >> 32))) >> 1U;
 592              		.loc 1 602 59 discriminator 3 view .LVU220
 593 02b6 0644     		add	r6, r6, r0
 594              		.loc 1 603 66 discriminator 3 view .LVU221
 595 02b8 7610     		asrs	r6, r6, #1
 602:Drivers/CMSIS/DSP/Source/TransformFunctions/arm_cfft_radix4_q31.c ****                          ((int32_t) (((q63_t) s1 * si2) >> 32))) >> 1U;
 596              		.loc 1 602 17 discriminator 3 view .LVU222
 597 02ba CBF80060 		str	r6, [fp]
 604:Drivers/CMSIS/DSP/Source/TransformFunctions/arm_cfft_radix4_q31.c **** 
 605:Drivers/CMSIS/DSP/Source/TransformFunctions/arm_cfft_radix4_q31.c ****         /* yc' = (ya-yb+yc-yd)co2 - (xa-xb+xc-xd)(si2) */
 606:Drivers/CMSIS/DSP/Source/TransformFunctions/arm_cfft_radix4_q31.c ****         pSi1[1] = (((int32_t) (((q63_t) s1 * co2) >> 32)) -
 598              		.loc 1 606 9 is_stmt 1 discriminator 3 view .LVU223
 599              		.loc 1 606 44 is_stmt 0 discriminator 3 view .LVU224
 600 02be 059E     		ldr	r6, [sp, #20]
 601 02c0 0198     		ldr	r0, [sp, #4]
 602 02c2 06FB00F0 		mul	r0, r6, r0
 603 02c6 01FB0E0E 		mla	lr, r1, lr, r0
 604 02ca A6FB0115 		umull	r1, r5, r6, r1
 605              	.LVL77:
 606              		.loc 1 606 44 discriminator 3 view .LVU225
 607 02ce AE44     		add	lr, lr, r5
 607:Drivers/CMSIS/DSP/Source/TransformFunctions/arm_cfft_radix4_q31.c ****                                 ((int32_t) (((q63_t) r1 * si2) >> 32))) >> 1U;
 608              		.loc 1 607 57 discriminator 3 view .LVU226
 609 02d0 0A9C     		ldr	r4, [sp, #40]
 610 02d2 02FB04F4 		mul	r4, r2, r4
 611 02d6 0699     		ldr	r1, [sp, #24]
 612 02d8 01FB0C4C 		mla	ip, r1, ip, r4
 613 02dc A2FB0124 		umull	r2, r4, r2, r1
 614              	.LVL78:
 615              		.loc 1 607 57 discriminator 3 view .LVU227
 616 02e0 A444     		add	ip, ip, r4
 606:Drivers/CMSIS/DSP/Source/TransformFunctions/arm_cfft_radix4_q31.c ****                                 ((int32_t) (((q63_t) r1 * si2) >> 32))) >> 1U;
 617              		.loc 1 606 59 discriminator 3 view .LVU228
 618 02e2 AEEB0C0E 		sub	lr, lr, ip
 619              		.loc 1 607 73 discriminator 3 view .LVU229
 620 02e6 4FEA6E05 		asr	r5, lr, #1
 606:Drivers/CMSIS/DSP/Source/TransformFunctions/arm_cfft_radix4_q31.c ****                                 ((int32_t) (((q63_t) r1 * si2) >> 32))) >> 1U;
 621              		.loc 1 606 17 discriminator 3 view .LVU230
 622 02ea CBF80450 		str	r5, [fp, #4]
 608:Drivers/CMSIS/DSP/Source/TransformFunctions/arm_cfft_radix4_q31.c ****         pSi1 += 2 * n1;
 623              		.loc 1 608 9 is_stmt 1 discriminator 3 view .LVU231
ARM GAS  C:\Users\17832\AppData\Local\Temp\ccW85mhr.s 			page 23


 624              		.loc 1 608 14 is_stmt 0 discriminator 3 view .LVU232
 625 02ee 0098     		ldr	r0, [sp]
 626 02f0 0BEBC00B 		add	fp, fp, r0, lsl #3
 627              	.LVL79:
 609:Drivers/CMSIS/DSP/Source/TransformFunctions/arm_cfft_radix4_q31.c **** 
 610:Drivers/CMSIS/DSP/Source/TransformFunctions/arm_cfft_radix4_q31.c ****         /* (xa - xc) + (yb - yd) */
 611:Drivers/CMSIS/DSP/Source/TransformFunctions/arm_cfft_radix4_q31.c ****         r1 = r2 + t1;
 628              		.loc 1 611 9 is_stmt 1 discriminator 3 view .LVU233
 629              		.loc 1 611 12 is_stmt 0 discriminator 3 view .LVU234
 630 02f4 089A     		ldr	r2, [sp, #32]
 631 02f6 D018     		adds	r0, r2, r3
 632              	.LVL80:
 612:Drivers/CMSIS/DSP/Source/TransformFunctions/arm_cfft_radix4_q31.c ****         /* (xa - xc) - (yb - yd) */
 613:Drivers/CMSIS/DSP/Source/TransformFunctions/arm_cfft_radix4_q31.c ****         r2 = r2 - t1;
 633              		.loc 1 613 9 is_stmt 1 discriminator 3 view .LVU235
 634              		.loc 1 613 12 is_stmt 0 discriminator 3 view .LVU236
 635 02f8 D31A     		subs	r3, r2, r3
 636              	.LVL81:
 614:Drivers/CMSIS/DSP/Source/TransformFunctions/arm_cfft_radix4_q31.c **** 
 615:Drivers/CMSIS/DSP/Source/TransformFunctions/arm_cfft_radix4_q31.c ****         /* (ya - yc) -  (xb - xd) */
 616:Drivers/CMSIS/DSP/Source/TransformFunctions/arm_cfft_radix4_q31.c ****         s1 = s2 - t2;
 637              		.loc 1 616 9 is_stmt 1 discriminator 3 view .LVU237
 638              		.loc 1 616 12 is_stmt 0 discriminator 3 view .LVU238
 639 02fa 099A     		ldr	r2, [sp, #36]
 640 02fc D41B     		subs	r4, r2, r7
 641              	.LVL82:
 617:Drivers/CMSIS/DSP/Source/TransformFunctions/arm_cfft_radix4_q31.c ****         /* (ya - yc) +  (xb - xd) */
 618:Drivers/CMSIS/DSP/Source/TransformFunctions/arm_cfft_radix4_q31.c ****         s2 = s2 + t2;
 642              		.loc 1 618 9 is_stmt 1 discriminator 3 view .LVU239
 643              		.loc 1 618 12 is_stmt 0 discriminator 3 view .LVU240
 644 02fe 1744     		add	r7, r7, r2
 645              	.LVL83:
 619:Drivers/CMSIS/DSP/Source/TransformFunctions/arm_cfft_radix4_q31.c **** 
 620:Drivers/CMSIS/DSP/Source/TransformFunctions/arm_cfft_radix4_q31.c ****         /* xb' = (xa+yb-xc-yd)co1 + (ya-xb-yc+xd)(si1) */
 621:Drivers/CMSIS/DSP/Source/TransformFunctions/arm_cfft_radix4_q31.c ****         pSi2[0] = (((int32_t) (((q63_t) r1 * co1) >> 32)) +
 646              		.loc 1 621 9 is_stmt 1 discriminator 3 view .LVU241
 647              		.loc 1 621 33 is_stmt 0 discriminator 3 view .LVU242
 648 0300 4FEAE07C 		asr	ip, r0, #31
 649              		.loc 1 621 44 discriminator 3 view .LVU243
 650 0304 0399     		ldr	r1, [sp, #12]
 651 0306 4FEAE17E 		asr	lr, r1, #31
 652 030a 00FB0EF2 		mul	r2, r0, lr
 653 030e 01FB0C22 		mla	r2, r1, ip, r2
 654 0312 A0FB0151 		umull	r5, r1, r0, r1
 655 0316 0A44     		add	r2, r2, r1
 622:Drivers/CMSIS/DSP/Source/TransformFunctions/arm_cfft_radix4_q31.c ****                          ((int32_t) (((q63_t) s1 * si1) >> 32))) >> 1U;
 656              		.loc 1 622 39 discriminator 3 view .LVU244
 657 0318 0194     		str	r4, [sp, #4]
 658 031a E517     		asrs	r5, r4, #31
 659              		.loc 1 622 50 discriminator 3 view .LVU245
 660 031c 049C     		ldr	r4, [sp, #16]
 661              	.LVL84:
 662              		.loc 1 622 50 discriminator 3 view .LVU246
 663 031e E117     		asrs	r1, r4, #31
 664 0320 019E     		ldr	r6, [sp, #4]
 665 0322 06FB01F6 		mul	r6, r6, r1
 666 0326 04FB0566 		mla	r6, r4, r5, r6
ARM GAS  C:\Users\17832\AppData\Local\Temp\ccW85mhr.s 			page 24


 667 032a 0896     		str	r6, [sp, #32]
 668 032c 019E     		ldr	r6, [sp, #4]
 669 032e A6FB0464 		umull	r6, r4, r6, r4
 670 0332 089E     		ldr	r6, [sp, #32]
 671 0334 2644     		add	r6, r6, r4
 621:Drivers/CMSIS/DSP/Source/TransformFunctions/arm_cfft_radix4_q31.c ****                          ((int32_t) (((q63_t) s1 * si1) >> 32))) >> 1U;
 672              		.loc 1 621 59 discriminator 3 view .LVU247
 673 0336 1644     		add	r6, r6, r2
 674              		.loc 1 622 66 discriminator 3 view .LVU248
 675 0338 7610     		asrs	r6, r6, #1
 621:Drivers/CMSIS/DSP/Source/TransformFunctions/arm_cfft_radix4_q31.c ****                          ((int32_t) (((q63_t) s1 * si1) >> 32))) >> 1U;
 676              		.loc 1 621 17 discriminator 3 view .LVU249
 677 033a C9F80060 		str	r6, [r9]
 623:Drivers/CMSIS/DSP/Source/TransformFunctions/arm_cfft_radix4_q31.c **** 
 624:Drivers/CMSIS/DSP/Source/TransformFunctions/arm_cfft_radix4_q31.c ****         /* yb' = (ya-xb-yc+xd)co1 - (xa+yb-xc-yd)(si1) */
 625:Drivers/CMSIS/DSP/Source/TransformFunctions/arm_cfft_radix4_q31.c ****         pSi2[1] = (((int32_t) (((q63_t) s1 * co1) >> 32)) -
 678              		.loc 1 625 9 is_stmt 1 discriminator 3 view .LVU250
 679              		.loc 1 625 44 is_stmt 0 discriminator 3 view .LVU251
 680 033e 039A     		ldr	r2, [sp, #12]
 681 0340 02FB05F5 		mul	r5, r2, r5
 682 0344 019C     		ldr	r4, [sp, #4]
 683 0346 04FB0E5E 		mla	lr, r4, lr, r5
 684 034a A2FB0445 		umull	r4, r5, r2, r4
 685 034e AE44     		add	lr, lr, r5
 626:Drivers/CMSIS/DSP/Source/TransformFunctions/arm_cfft_radix4_q31.c ****                                 ((int32_t) (((q63_t) r1 * si1) >> 32))) >> 1U;
 686              		.loc 1 626 57 discriminator 3 view .LVU252
 687 0350 00FB01F1 		mul	r1, r0, r1
 688 0354 049A     		ldr	r2, [sp, #16]
 689 0356 02FB0C1C 		mla	ip, r2, ip, r1
 690 035a A0FB0201 		umull	r0, r1, r0, r2
 691              	.LVL85:
 692              		.loc 1 626 57 discriminator 3 view .LVU253
 693 035e 8C44     		add	ip, ip, r1
 625:Drivers/CMSIS/DSP/Source/TransformFunctions/arm_cfft_radix4_q31.c ****                                 ((int32_t) (((q63_t) r1 * si1) >> 32))) >> 1U;
 694              		.loc 1 625 59 discriminator 3 view .LVU254
 695 0360 AEEB0C0E 		sub	lr, lr, ip
 696              		.loc 1 626 73 discriminator 3 view .LVU255
 697 0364 4FEA6E05 		asr	r5, lr, #1
 625:Drivers/CMSIS/DSP/Source/TransformFunctions/arm_cfft_radix4_q31.c ****                                 ((int32_t) (((q63_t) r1 * si1) >> 32))) >> 1U;
 698              		.loc 1 625 17 discriminator 3 view .LVU256
 699 0368 C9F80450 		str	r5, [r9, #4]
 627:Drivers/CMSIS/DSP/Source/TransformFunctions/arm_cfft_radix4_q31.c ****         pSi2 += 2 * n1;
 700              		.loc 1 627 9 is_stmt 1 discriminator 3 view .LVU257
 701              		.loc 1 627 14 is_stmt 0 discriminator 3 view .LVU258
 702 036c 0098     		ldr	r0, [sp]
 703 036e 09EBC009 		add	r9, r9, r0, lsl #3
 704              	.LVL86:
 628:Drivers/CMSIS/DSP/Source/TransformFunctions/arm_cfft_radix4_q31.c **** 
 629:Drivers/CMSIS/DSP/Source/TransformFunctions/arm_cfft_radix4_q31.c ****         /* xd' = (xa-yb-xc+yd)co3 + (ya+xb-yc-xd)(si3) */
 630:Drivers/CMSIS/DSP/Source/TransformFunctions/arm_cfft_radix4_q31.c ****         pSi3[0] = (((int32_t) (((q63_t) r2 * co3) >> 32)) +
 705              		.loc 1 630 9 is_stmt 1 discriminator 3 view .LVU259
 706              		.loc 1 630 33 is_stmt 0 discriminator 3 view .LVU260
 707 0372 D817     		asrs	r0, r3, #31
 708              		.loc 1 630 44 discriminator 3 view .LVU261
 709 0374 0799     		ldr	r1, [sp, #28]
 710 0376 CE17     		asrs	r6, r1, #31
 711 0378 03FB06F2 		mul	r2, r3, r6
ARM GAS  C:\Users\17832\AppData\Local\Temp\ccW85mhr.s 			page 25


 712 037c 0190     		str	r0, [sp, #4]
 713              	.LVL87:
 714              		.loc 1 630 44 discriminator 3 view .LVU262
 715 037e 01FB0022 		mla	r2, r1, r0, r2
 716 0382 A3FB0101 		umull	r0, r1, r3, r1
 717 0386 0A44     		add	r2, r2, r1
 631:Drivers/CMSIS/DSP/Source/TransformFunctions/arm_cfft_radix4_q31.c ****                          ((int32_t) (((q63_t) s2 * si3) >> 32))) >> 1U;
 718              		.loc 1 631 39 discriminator 3 view .LVU263
 719 0388 F817     		asrs	r0, r7, #31
 720              		.loc 1 631 50 discriminator 3 view .LVU264
 721 038a 0C9D     		ldr	r5, [sp, #48]
 722 038c E917     		asrs	r1, r5, #31
 723 038e 07FB01F4 		mul	r4, r7, r1
 724 0392 05FB0044 		mla	r4, r5, r0, r4
 725 0396 A7FB05EC 		umull	lr, ip, r7, r5
 726 039a 6444     		add	r4, r4, ip
 630:Drivers/CMSIS/DSP/Source/TransformFunctions/arm_cfft_radix4_q31.c ****                          ((int32_t) (((q63_t) s2 * si3) >> 32))) >> 1U;
 727              		.loc 1 630 59 discriminator 3 view .LVU265
 728 039c 1444     		add	r4, r4, r2
 729              		.loc 1 631 66 discriminator 3 view .LVU266
 730 039e 6410     		asrs	r4, r4, #1
 630:Drivers/CMSIS/DSP/Source/TransformFunctions/arm_cfft_radix4_q31.c ****                          ((int32_t) (((q63_t) s2 * si3) >> 32))) >> 1U;
 731              		.loc 1 630 17 discriminator 3 view .LVU267
 732 03a0 CAF80040 		str	r4, [r10]
 632:Drivers/CMSIS/DSP/Source/TransformFunctions/arm_cfft_radix4_q31.c **** 
 633:Drivers/CMSIS/DSP/Source/TransformFunctions/arm_cfft_radix4_q31.c ****         /* yd' = (ya+xb-yc-xd)co3 - (xa-yb-xc+yd)(si3) */
 634:Drivers/CMSIS/DSP/Source/TransformFunctions/arm_cfft_radix4_q31.c ****         pSi3[1] = (((int32_t) (((q63_t) s2 * co3) >> 32)) -
 733              		.loc 1 634 9 is_stmt 1 discriminator 3 view .LVU268
 734              		.loc 1 634 44 is_stmt 0 discriminator 3 view .LVU269
 735 03a4 079A     		ldr	r2, [sp, #28]
 736 03a6 02FB00F0 		mul	r0, r2, r0
 737 03aa 07FB0606 		mla	r6, r7, r6, r0
 738 03ae A2FB0770 		umull	r7, r0, r2, r7
 739              	.LVL88:
 740              		.loc 1 634 44 discriminator 3 view .LVU270
 741 03b2 0644     		add	r6, r6, r0
 635:Drivers/CMSIS/DSP/Source/TransformFunctions/arm_cfft_radix4_q31.c ****                                 ((int32_t) (((q63_t) r2 * si3) >> 32))) >> 1U;
 742              		.loc 1 635 57 discriminator 3 view .LVU271
 743 03b4 03FB01F1 		mul	r1, r3, r1
 744 03b8 2A46     		mov	r2, r5
 745 03ba 0198     		ldr	r0, [sp, #4]
 746 03bc 05FB0015 		mla	r5, r5, r0, r1
 747 03c0 A3FB0231 		umull	r3, r1, r3, r2
 748              	.LVL89:
 749              		.loc 1 635 57 discriminator 3 view .LVU272
 750 03c4 0D44     		add	r5, r5, r1
 634:Drivers/CMSIS/DSP/Source/TransformFunctions/arm_cfft_radix4_q31.c ****                                 ((int32_t) (((q63_t) r2 * si3) >> 32))) >> 1U;
 751              		.loc 1 634 59 discriminator 3 view .LVU273
 752 03c6 761B     		subs	r6, r6, r5
 753              		.loc 1 635 73 discriminator 3 view .LVU274
 754 03c8 7610     		asrs	r6, r6, #1
 634:Drivers/CMSIS/DSP/Source/TransformFunctions/arm_cfft_radix4_q31.c ****                                 ((int32_t) (((q63_t) r2 * si3) >> 32))) >> 1U;
 755              		.loc 1 634 17 discriminator 3 view .LVU275
 756 03ca CAF80460 		str	r6, [r10, #4]
 636:Drivers/CMSIS/DSP/Source/TransformFunctions/arm_cfft_radix4_q31.c ****         pSi3 += 2 * n1;
 757              		.loc 1 636 9 is_stmt 1 discriminator 3 view .LVU276
 758              		.loc 1 636 14 is_stmt 0 discriminator 3 view .LVU277
ARM GAS  C:\Users\17832\AppData\Local\Temp\ccW85mhr.s 			page 26


 759 03ce 009B     		ldr	r3, [sp]
 760 03d0 0AEBC30A 		add	r10, r10, r3, lsl #3
 761              	.LVL90:
 558:Drivers/CMSIS/DSP/Source/TransformFunctions/arm_cfft_radix4_q31.c ****       {
 762              		.loc 1 558 33 is_stmt 1 discriminator 3 view .LVU278
 558:Drivers/CMSIS/DSP/Source/TransformFunctions/arm_cfft_radix4_q31.c ****       {
 763              		.loc 1 558 36 is_stmt 0 discriminator 3 view .LVU279
 764 03d4 029A     		ldr	r2, [sp, #8]
 765 03d6 1A44     		add	r2, r2, r3
 766 03d8 0292     		str	r2, [sp, #8]
 767              	.LVL91:
 768              	.L5:
 558:Drivers/CMSIS/DSP/Source/TransformFunctions/arm_cfft_radix4_q31.c ****       {
 769              		.loc 1 558 20 is_stmt 1 discriminator 1 view .LVU280
 558:Drivers/CMSIS/DSP/Source/TransformFunctions/arm_cfft_radix4_q31.c ****       {
 770              		.loc 1 558 7 is_stmt 0 discriminator 1 view .LVU281
 771 03da 029B     		ldr	r3, [sp, #8]
 772 03dc 0B9A     		ldr	r2, [sp, #44]
 773 03de 9342     		cmp	r3, r2
 774 03e0 FFF421AF 		bcc	.L6
 539:Drivers/CMSIS/DSP/Source/TransformFunctions/arm_cfft_radix4_q31.c ****     {
 775              		.loc 1 539 34 is_stmt 1 discriminator 2 view .LVU282
 539:Drivers/CMSIS/DSP/Source/TransformFunctions/arm_cfft_radix4_q31.c ****     {
 776              		.loc 1 539 35 is_stmt 0 discriminator 2 view .LVU283
 777 03e4 0D9B     		ldr	r3, [sp, #52]
 778 03e6 0133     		adds	r3, r3, #1
 779 03e8 0D93     		str	r3, [sp, #52]
 780              	.LVL92:
 781              	.L4:
 539:Drivers/CMSIS/DSP/Source/TransformFunctions/arm_cfft_radix4_q31.c ****     {
 782              		.loc 1 539 18 is_stmt 1 discriminator 1 view .LVU284
 539:Drivers/CMSIS/DSP/Source/TransformFunctions/arm_cfft_radix4_q31.c ****     {
 783              		.loc 1 539 27 is_stmt 0 discriminator 1 view .LVU285
 784 03ea 0E9B     		ldr	r3, [sp, #56]
 785 03ec 013B     		subs	r3, r3, #1
 539:Drivers/CMSIS/DSP/Source/TransformFunctions/arm_cfft_radix4_q31.c ****     {
 786              		.loc 1 539 5 discriminator 1 view .LVU286
 787 03ee 0D9A     		ldr	r2, [sp, #52]
 788 03f0 9342     		cmp	r3, r2
 789 03f2 29D3     		bcc	.L11
 542:Drivers/CMSIS/DSP/Source/TransformFunctions/arm_cfft_radix4_q31.c ****       ia3 = ia2 + ia1;
 790              		.loc 1 542 7 is_stmt 1 view .LVU287
 791              	.LVL93:
 543:Drivers/CMSIS/DSP/Source/TransformFunctions/arm_cfft_radix4_q31.c ****       co1 = pCoef[ia1 * 2U];
 792              		.loc 1 543 7 view .LVU288
 543:Drivers/CMSIS/DSP/Source/TransformFunctions/arm_cfft_radix4_q31.c ****       co1 = pCoef[ia1 * 2U];
 793              		.loc 1 543 11 is_stmt 0 view .LVU289
 794 03f4 0F98     		ldr	r0, [sp, #60]
 795 03f6 00EB4002 		add	r2, r0, r0, lsl #1
 796              	.LVL94:
 544:Drivers/CMSIS/DSP/Source/TransformFunctions/arm_cfft_radix4_q31.c ****       si1 = pCoef[(ia1 * 2U) + 1U];
 797              		.loc 1 544 7 is_stmt 1 view .LVU290
 544:Drivers/CMSIS/DSP/Source/TransformFunctions/arm_cfft_radix4_q31.c ****       si1 = pCoef[(ia1 * 2U) + 1U];
 798              		.loc 1 544 18 is_stmt 0 view .LVU291
 799 03fa C300     		lsls	r3, r0, #3
 544:Drivers/CMSIS/DSP/Source/TransformFunctions/arm_cfft_radix4_q31.c ****       si1 = pCoef[(ia1 * 2U) + 1U];
 800              		.loc 1 544 11 view .LVU292
ARM GAS  C:\Users\17832\AppData\Local\Temp\ccW85mhr.s 			page 27


 801 03fc 1099     		ldr	r1, [sp, #64]
 802 03fe 51F83040 		ldr	r4, [r1, r0, lsl #3]
 803 0402 0394     		str	r4, [sp, #12]
 804              	.LVL95:
 545:Drivers/CMSIS/DSP/Source/TransformFunctions/arm_cfft_radix4_q31.c ****       co2 = pCoef[ia2 * 2U];
 805              		.loc 1 545 7 is_stmt 1 view .LVU293
 545:Drivers/CMSIS/DSP/Source/TransformFunctions/arm_cfft_radix4_q31.c ****       co2 = pCoef[ia2 * 2U];
 806              		.loc 1 545 18 is_stmt 0 view .LVU294
 807 0404 0433     		adds	r3, r3, #4
 545:Drivers/CMSIS/DSP/Source/TransformFunctions/arm_cfft_radix4_q31.c ****       co2 = pCoef[ia2 * 2U];
 808              		.loc 1 545 11 view .LVU295
 809 0406 CB58     		ldr	r3, [r1, r3]
 810 0408 0493     		str	r3, [sp, #16]
 811              	.LVL96:
 546:Drivers/CMSIS/DSP/Source/TransformFunctions/arm_cfft_radix4_q31.c ****       si2 = pCoef[(ia2 * 2U) + 1U];
 812              		.loc 1 546 7 is_stmt 1 view .LVU296
 546:Drivers/CMSIS/DSP/Source/TransformFunctions/arm_cfft_radix4_q31.c ****       si2 = pCoef[(ia2 * 2U) + 1U];
 813              		.loc 1 546 18 is_stmt 0 view .LVU297
 814 040a 0301     		lsls	r3, r0, #4
 815              	.LVL97:
 546:Drivers/CMSIS/DSP/Source/TransformFunctions/arm_cfft_radix4_q31.c ****       si2 = pCoef[(ia2 * 2U) + 1U];
 816              		.loc 1 546 11 view .LVU298
 817 040c CC58     		ldr	r4, [r1, r3]
 818              	.LVL98:
 546:Drivers/CMSIS/DSP/Source/TransformFunctions/arm_cfft_radix4_q31.c ****       si2 = pCoef[(ia2 * 2U) + 1U];
 819              		.loc 1 546 11 view .LVU299
 820 040e 0594     		str	r4, [sp, #20]
 821              	.LVL99:
 547:Drivers/CMSIS/DSP/Source/TransformFunctions/arm_cfft_radix4_q31.c ****       co3 = pCoef[ia3 * 2U];
 822              		.loc 1 547 7 is_stmt 1 view .LVU300
 547:Drivers/CMSIS/DSP/Source/TransformFunctions/arm_cfft_radix4_q31.c ****       co3 = pCoef[ia3 * 2U];
 823              		.loc 1 547 18 is_stmt 0 view .LVU301
 824 0410 0433     		adds	r3, r3, #4
 547:Drivers/CMSIS/DSP/Source/TransformFunctions/arm_cfft_radix4_q31.c ****       co3 = pCoef[ia3 * 2U];
 825              		.loc 1 547 11 view .LVU302
 826 0412 CB58     		ldr	r3, [r1, r3]
 827 0414 0693     		str	r3, [sp, #24]
 828              	.LVL100:
 548:Drivers/CMSIS/DSP/Source/TransformFunctions/arm_cfft_radix4_q31.c ****       si3 = pCoef[(ia3 * 2U) + 1U];
 829              		.loc 1 548 7 is_stmt 1 view .LVU303
 548:Drivers/CMSIS/DSP/Source/TransformFunctions/arm_cfft_radix4_q31.c ****       si3 = pCoef[(ia3 * 2U) + 1U];
 830              		.loc 1 548 18 is_stmt 0 view .LVU304
 831 0416 D300     		lsls	r3, r2, #3
 832              	.LVL101:
 548:Drivers/CMSIS/DSP/Source/TransformFunctions/arm_cfft_radix4_q31.c ****       si3 = pCoef[(ia3 * 2U) + 1U];
 833              		.loc 1 548 11 view .LVU305
 834 0418 51F83220 		ldr	r2, [r1, r2, lsl #3]
 835              	.LVL102:
 548:Drivers/CMSIS/DSP/Source/TransformFunctions/arm_cfft_radix4_q31.c ****       si3 = pCoef[(ia3 * 2U) + 1U];
 836              		.loc 1 548 11 view .LVU306
 837 041c 0792     		str	r2, [sp, #28]
 838              	.LVL103:
 549:Drivers/CMSIS/DSP/Source/TransformFunctions/arm_cfft_radix4_q31.c ****       /*  Twiddle coefficients index modifier */
 839              		.loc 1 549 7 is_stmt 1 view .LVU307
 549:Drivers/CMSIS/DSP/Source/TransformFunctions/arm_cfft_radix4_q31.c ****       /*  Twiddle coefficients index modifier */
 840              		.loc 1 549 18 is_stmt 0 view .LVU308
 841 041e 0433     		adds	r3, r3, #4
ARM GAS  C:\Users\17832\AppData\Local\Temp\ccW85mhr.s 			page 28


 549:Drivers/CMSIS/DSP/Source/TransformFunctions/arm_cfft_radix4_q31.c ****       /*  Twiddle coefficients index modifier */
 842              		.loc 1 549 11 view .LVU309
 843 0420 CB58     		ldr	r3, [r1, r3]
 844 0422 0C93     		str	r3, [sp, #48]
 845              	.LVL104:
 551:Drivers/CMSIS/DSP/Source/TransformFunctions/arm_cfft_radix4_q31.c **** 
 846              		.loc 1 551 7 is_stmt 1 view .LVU310
 551:Drivers/CMSIS/DSP/Source/TransformFunctions/arm_cfft_radix4_q31.c **** 
 847              		.loc 1 551 11 is_stmt 0 view .LVU311
 848 0424 119B     		ldr	r3, [sp, #68]
 849              	.LVL105:
 551:Drivers/CMSIS/DSP/Source/TransformFunctions/arm_cfft_radix4_q31.c **** 
 850              		.loc 1 551 11 view .LVU312
 851 0426 C318     		adds	r3, r0, r3
 852 0428 0F93     		str	r3, [sp, #60]
 853              	.LVL106:
 553:Drivers/CMSIS/DSP/Source/TransformFunctions/arm_cfft_radix4_q31.c ****       pSi1 = pSi0 + 2 * n2;
 854              		.loc 1 553 7 is_stmt 1 view .LVU313
 553:Drivers/CMSIS/DSP/Source/TransformFunctions/arm_cfft_radix4_q31.c ****       pSi1 = pSi0 + 2 * n2;
 855              		.loc 1 553 12 is_stmt 0 view .LVU314
 856 042a 129B     		ldr	r3, [sp, #72]
 857              	.LVL107:
 553:Drivers/CMSIS/DSP/Source/TransformFunctions/arm_cfft_radix4_q31.c ****       pSi1 = pSi0 + 2 * n2;
 858              		.loc 1 553 12 view .LVU315
 859 042c 0D99     		ldr	r1, [sp, #52]
 860 042e 03EBC103 		add	r3, r3, r1, lsl #3
 861              	.LVL108:
 554:Drivers/CMSIS/DSP/Source/TransformFunctions/arm_cfft_radix4_q31.c ****       pSi2 = pSi1 + 2 * n2;
 862              		.loc 1 554 7 is_stmt 1 view .LVU316
 554:Drivers/CMSIS/DSP/Source/TransformFunctions/arm_cfft_radix4_q31.c ****       pSi2 = pSi1 + 2 * n2;
 863              		.loc 1 554 12 is_stmt 0 view .LVU317
 864 0432 0E9A     		ldr	r2, [sp, #56]
 865              	.LVL109:
 554:Drivers/CMSIS/DSP/Source/TransformFunctions/arm_cfft_radix4_q31.c ****       pSi2 = pSi1 + 2 * n2;
 866              		.loc 1 554 12 view .LVU318
 867 0434 03EBC20B 		add	fp, r3, r2, lsl #3
 868              	.LVL110:
 555:Drivers/CMSIS/DSP/Source/TransformFunctions/arm_cfft_radix4_q31.c ****       pSi3 = pSi2 + 2 * n2;
 869              		.loc 1 555 7 is_stmt 1 view .LVU319
 555:Drivers/CMSIS/DSP/Source/TransformFunctions/arm_cfft_radix4_q31.c ****       pSi3 = pSi2 + 2 * n2;
 870              		.loc 1 555 12 is_stmt 0 view .LVU320
 871 0438 03EB0210 		add	r0, r3, r2, lsl #4
 872              	.LVL111:
 556:Drivers/CMSIS/DSP/Source/TransformFunctions/arm_cfft_radix4_q31.c **** 
 873              		.loc 1 556 7 is_stmt 1 view .LVU321
 556:Drivers/CMSIS/DSP/Source/TransformFunctions/arm_cfft_radix4_q31.c **** 
 874              		.loc 1 556 12 is_stmt 0 view .LVU322
 875 043c 00EBC20A 		add	r10, r0, r2, lsl #3
 876              	.LVL112:
 558:Drivers/CMSIS/DSP/Source/TransformFunctions/arm_cfft_radix4_q31.c ****       {
 877              		.loc 1 558 7 is_stmt 1 view .LVU323
 558:Drivers/CMSIS/DSP/Source/TransformFunctions/arm_cfft_radix4_q31.c ****       {
 878              		.loc 1 558 15 is_stmt 0 view .LVU324
 879 0440 0291     		str	r1, [sp, #8]
 880 0442 9846     		mov	r8, r3
 881 0444 8146     		mov	r9, r0
 558:Drivers/CMSIS/DSP/Source/TransformFunctions/arm_cfft_radix4_q31.c ****       {
ARM GAS  C:\Users\17832\AppData\Local\Temp\ccW85mhr.s 			page 29


 882              		.loc 1 558 7 view .LVU325
 883 0446 C8E7     		b	.L5
 884              	.LVL113:
 885              	.L11:
 637:Drivers/CMSIS/DSP/Source/TransformFunctions/arm_cfft_radix4_q31.c ****       }
 638:Drivers/CMSIS/DSP/Source/TransformFunctions/arm_cfft_radix4_q31.c ****     }
 639:Drivers/CMSIS/DSP/Source/TransformFunctions/arm_cfft_radix4_q31.c ****     twidCoefModifier <<= 2U;
 886              		.loc 1 639 5 is_stmt 1 discriminator 2 view .LVU326
 887              		.loc 1 639 22 is_stmt 0 discriminator 2 view .LVU327
 888 0448 119B     		ldr	r3, [sp, #68]
 889 044a 9B00     		lsls	r3, r3, #2
 890 044c 1193     		str	r3, [sp, #68]
 891              	.LVL114:
 531:Drivers/CMSIS/DSP/Source/TransformFunctions/arm_cfft_radix4_q31.c ****   {
 892              		.loc 1 531 33 is_stmt 1 discriminator 2 view .LVU328
 531:Drivers/CMSIS/DSP/Source/TransformFunctions/arm_cfft_radix4_q31.c ****   {
 893              		.loc 1 531 35 is_stmt 0 discriminator 2 view .LVU329
 894 044e 149B     		ldr	r3, [sp, #80]
 895              	.LVL115:
 531:Drivers/CMSIS/DSP/Source/TransformFunctions/arm_cfft_radix4_q31.c ****   {
 896              		.loc 1 531 35 discriminator 2 view .LVU330
 897 0450 9B08     		lsrs	r3, r3, #2
 898 0452 1493     		str	r3, [sp, #80]
 899              	.LVL116:
 535:Drivers/CMSIS/DSP/Source/TransformFunctions/arm_cfft_radix4_q31.c ****     ia1 = 0U;
 900              		.loc 1 535 8 discriminator 2 view .LVU331
 901 0454 0E9B     		ldr	r3, [sp, #56]
 902              	.LVL117:
 535:Drivers/CMSIS/DSP/Source/TransformFunctions/arm_cfft_radix4_q31.c ****     ia1 = 0U;
 903              		.loc 1 535 8 discriminator 2 view .LVU332
 904 0456 0093     		str	r3, [sp]
 905              	.LVL118:
 906              	.L3:
 531:Drivers/CMSIS/DSP/Source/TransformFunctions/arm_cfft_radix4_q31.c ****   {
 907              		.loc 1 531 25 is_stmt 1 discriminator 1 view .LVU333
 531:Drivers/CMSIS/DSP/Source/TransformFunctions/arm_cfft_radix4_q31.c ****   {
 908              		.loc 1 531 3 is_stmt 0 discriminator 1 view .LVU334
 909 0458 149B     		ldr	r3, [sp, #80]
 910 045a 042B     		cmp	r3, #4
 911 045c 06D9     		bls	.L12
 534:Drivers/CMSIS/DSP/Source/TransformFunctions/arm_cfft_radix4_q31.c ****     n2 >>= 2U;
 912              		.loc 1 534 5 is_stmt 1 view .LVU335
 913              	.LVL119:
 535:Drivers/CMSIS/DSP/Source/TransformFunctions/arm_cfft_radix4_q31.c ****     ia1 = 0U;
 914              		.loc 1 535 5 view .LVU336
 535:Drivers/CMSIS/DSP/Source/TransformFunctions/arm_cfft_radix4_q31.c ****     ia1 = 0U;
 915              		.loc 1 535 8 is_stmt 0 view .LVU337
 916 045e 009B     		ldr	r3, [sp]
 917 0460 9B08     		lsrs	r3, r3, #2
 918 0462 0E93     		str	r3, [sp, #56]
 919              	.LVL120:
 536:Drivers/CMSIS/DSP/Source/TransformFunctions/arm_cfft_radix4_q31.c **** 
 920              		.loc 1 536 5 is_stmt 1 view .LVU338
 539:Drivers/CMSIS/DSP/Source/TransformFunctions/arm_cfft_radix4_q31.c ****     {
 921              		.loc 1 539 5 view .LVU339
 539:Drivers/CMSIS/DSP/Source/TransformFunctions/arm_cfft_radix4_q31.c ****     {
 922              		.loc 1 539 12 is_stmt 0 view .LVU340
ARM GAS  C:\Users\17832\AppData\Local\Temp\ccW85mhr.s 			page 30


 923 0464 139B     		ldr	r3, [sp, #76]
 924              	.LVL121:
 539:Drivers/CMSIS/DSP/Source/TransformFunctions/arm_cfft_radix4_q31.c ****     {
 925              		.loc 1 539 12 view .LVU341
 926 0466 0D93     		str	r3, [sp, #52]
 536:Drivers/CMSIS/DSP/Source/TransformFunctions/arm_cfft_radix4_q31.c **** 
 927              		.loc 1 536 9 view .LVU342
 928 0468 0F93     		str	r3, [sp, #60]
 539:Drivers/CMSIS/DSP/Source/TransformFunctions/arm_cfft_radix4_q31.c ****     {
 929              		.loc 1 539 5 view .LVU343
 930 046a BEE7     		b	.L4
 931              	.LVL122:
 932              	.L12:
 539:Drivers/CMSIS/DSP/Source/TransformFunctions/arm_cfft_radix4_q31.c ****     {
 933              		.loc 1 539 5 view .LVU344
 934 046c 159D     		ldr	r5, [sp, #84]
 935 046e 129B     		ldr	r3, [sp, #72]
 936              	.LVL123:
 937              	.L9:
 640:Drivers/CMSIS/DSP/Source/TransformFunctions/arm_cfft_radix4_q31.c ****   }
 641:Drivers/CMSIS/DSP/Source/TransformFunctions/arm_cfft_radix4_q31.c **** #endif
 642:Drivers/CMSIS/DSP/Source/TransformFunctions/arm_cfft_radix4_q31.c **** 
 643:Drivers/CMSIS/DSP/Source/TransformFunctions/arm_cfft_radix4_q31.c ****   /* End of Middle stages process */
 644:Drivers/CMSIS/DSP/Source/TransformFunctions/arm_cfft_radix4_q31.c **** 
 645:Drivers/CMSIS/DSP/Source/TransformFunctions/arm_cfft_radix4_q31.c ****   /* data is in 11.21(q21) format for the 1024 point as there are 3 middle stages */
 646:Drivers/CMSIS/DSP/Source/TransformFunctions/arm_cfft_radix4_q31.c ****   /* data is in 9.23(q23) format for the 256 point as there are 2 middle stages */
 647:Drivers/CMSIS/DSP/Source/TransformFunctions/arm_cfft_radix4_q31.c ****   /* data is in 7.25(q25) format for the 64 point as there are 1 middle stage */
 648:Drivers/CMSIS/DSP/Source/TransformFunctions/arm_cfft_radix4_q31.c ****   /* data is in 5.27(q27) format for the 16 point as there are no middle stages */
 649:Drivers/CMSIS/DSP/Source/TransformFunctions/arm_cfft_radix4_q31.c **** 
 650:Drivers/CMSIS/DSP/Source/TransformFunctions/arm_cfft_radix4_q31.c **** 
 651:Drivers/CMSIS/DSP/Source/TransformFunctions/arm_cfft_radix4_q31.c ****   /* start of Last stage process */
 652:Drivers/CMSIS/DSP/Source/TransformFunctions/arm_cfft_radix4_q31.c ****   /*  Initializations for the last stage */
 653:Drivers/CMSIS/DSP/Source/TransformFunctions/arm_cfft_radix4_q31.c ****   j = fftLen >> 2;
 654:Drivers/CMSIS/DSP/Source/TransformFunctions/arm_cfft_radix4_q31.c ****   ptr1 = &pSrc[0];
 655:Drivers/CMSIS/DSP/Source/TransformFunctions/arm_cfft_radix4_q31.c **** 
 656:Drivers/CMSIS/DSP/Source/TransformFunctions/arm_cfft_radix4_q31.c ****   /*  Calculations of last stage */
 657:Drivers/CMSIS/DSP/Source/TransformFunctions/arm_cfft_radix4_q31.c ****   do
 938              		.loc 1 657 3 is_stmt 1 discriminator 1 view .LVU345
 658:Drivers/CMSIS/DSP/Source/TransformFunctions/arm_cfft_radix4_q31.c ****   {
 659:Drivers/CMSIS/DSP/Source/TransformFunctions/arm_cfft_radix4_q31.c **** 
 660:Drivers/CMSIS/DSP/Source/TransformFunctions/arm_cfft_radix4_q31.c **** #ifndef ARM_MATH_BIG_ENDIAN
 661:Drivers/CMSIS/DSP/Source/TransformFunctions/arm_cfft_radix4_q31.c **** 
 662:Drivers/CMSIS/DSP/Source/TransformFunctions/arm_cfft_radix4_q31.c ****     /* Read xa (real), ya(imag) input */
 663:Drivers/CMSIS/DSP/Source/TransformFunctions/arm_cfft_radix4_q31.c ****     xaya = *__SIMD64(ptr1)++;
 939              		.loc 1 663 5 discriminator 1 view .LVU346
 940              		.loc 1 663 10 is_stmt 0 discriminator 1 view .LVU347
 941 0470 1968     		ldr	r1, [r3]
 942 0472 5A68     		ldr	r2, [r3, #4]
 943              	.LVL124:
 664:Drivers/CMSIS/DSP/Source/TransformFunctions/arm_cfft_radix4_q31.c ****     xa = (q31_t) xaya;
 944              		.loc 1 664 5 is_stmt 1 discriminator 1 view .LVU348
 665:Drivers/CMSIS/DSP/Source/TransformFunctions/arm_cfft_radix4_q31.c ****     ya = (q31_t) (xaya >> 32);
 945              		.loc 1 665 5 discriminator 1 view .LVU349
 666:Drivers/CMSIS/DSP/Source/TransformFunctions/arm_cfft_radix4_q31.c **** 
 667:Drivers/CMSIS/DSP/Source/TransformFunctions/arm_cfft_radix4_q31.c ****     /* Read xb (real), yb(imag) input */
 668:Drivers/CMSIS/DSP/Source/TransformFunctions/arm_cfft_radix4_q31.c ****     xbyb = *__SIMD64(ptr1)++;
 946              		.loc 1 668 5 discriminator 1 view .LVU350
ARM GAS  C:\Users\17832\AppData\Local\Temp\ccW85mhr.s 			page 31


 947              		.loc 1 668 10 is_stmt 0 discriminator 1 view .LVU351
 948 0474 D3F808C0 		ldr	ip, [r3, #8]
 949 0478 D3F80C90 		ldr	r9, [r3, #12]
 950              	.LVL125:
 669:Drivers/CMSIS/DSP/Source/TransformFunctions/arm_cfft_radix4_q31.c ****     xb = (q31_t) xbyb;
 951              		.loc 1 669 5 is_stmt 1 discriminator 1 view .LVU352
 670:Drivers/CMSIS/DSP/Source/TransformFunctions/arm_cfft_radix4_q31.c ****     yb = (q31_t) (xbyb >> 32);
 952              		.loc 1 670 5 discriminator 1 view .LVU353
 671:Drivers/CMSIS/DSP/Source/TransformFunctions/arm_cfft_radix4_q31.c **** 
 672:Drivers/CMSIS/DSP/Source/TransformFunctions/arm_cfft_radix4_q31.c ****     /* Read xc (real), yc(imag) input */
 673:Drivers/CMSIS/DSP/Source/TransformFunctions/arm_cfft_radix4_q31.c ****     xcyc = *__SIMD64(ptr1)++;
 953              		.loc 1 673 5 discriminator 1 view .LVU354
 954              		.loc 1 673 10 is_stmt 0 discriminator 1 view .LVU355
 955 047c D3F81080 		ldr	r8, [r3, #16]
 956 0480 5F69     		ldr	r7, [r3, #20]
 957              	.LVL126:
 674:Drivers/CMSIS/DSP/Source/TransformFunctions/arm_cfft_radix4_q31.c ****     xc = (q31_t) xcyc;
 958              		.loc 1 674 5 is_stmt 1 discriminator 1 view .LVU356
 675:Drivers/CMSIS/DSP/Source/TransformFunctions/arm_cfft_radix4_q31.c ****     yc = (q31_t) (xcyc >> 32);
 959              		.loc 1 675 5 discriminator 1 view .LVU357
 676:Drivers/CMSIS/DSP/Source/TransformFunctions/arm_cfft_radix4_q31.c **** 
 677:Drivers/CMSIS/DSP/Source/TransformFunctions/arm_cfft_radix4_q31.c ****     /* Read xc (real), yc(imag) input */
 678:Drivers/CMSIS/DSP/Source/TransformFunctions/arm_cfft_radix4_q31.c ****     xdyd = *__SIMD64(ptr1)++;
 960              		.loc 1 678 5 discriminator 1 view .LVU358
 961              		.loc 1 678 10 is_stmt 0 discriminator 1 view .LVU359
 962 0482 9E69     		ldr	r6, [r3, #24]
 963 0484 D3F81CE0 		ldr	lr, [r3, #28]
 964              	.LVL127:
 679:Drivers/CMSIS/DSP/Source/TransformFunctions/arm_cfft_radix4_q31.c ****     xd = (q31_t) xdyd;
 965              		.loc 1 679 5 is_stmt 1 discriminator 1 view .LVU360
 680:Drivers/CMSIS/DSP/Source/TransformFunctions/arm_cfft_radix4_q31.c ****     yd = (q31_t) (xdyd >> 32);
 966              		.loc 1 680 5 discriminator 1 view .LVU361
 681:Drivers/CMSIS/DSP/Source/TransformFunctions/arm_cfft_radix4_q31.c **** 
 682:Drivers/CMSIS/DSP/Source/TransformFunctions/arm_cfft_radix4_q31.c **** #else
 683:Drivers/CMSIS/DSP/Source/TransformFunctions/arm_cfft_radix4_q31.c **** 
 684:Drivers/CMSIS/DSP/Source/TransformFunctions/arm_cfft_radix4_q31.c ****     /* Read xa (real), ya(imag) input */
 685:Drivers/CMSIS/DSP/Source/TransformFunctions/arm_cfft_radix4_q31.c ****     xaya = *__SIMD64(ptr1)++;
 686:Drivers/CMSIS/DSP/Source/TransformFunctions/arm_cfft_radix4_q31.c ****     ya = (q31_t) xaya;
 687:Drivers/CMSIS/DSP/Source/TransformFunctions/arm_cfft_radix4_q31.c ****     xa = (q31_t) (xaya >> 32);
 688:Drivers/CMSIS/DSP/Source/TransformFunctions/arm_cfft_radix4_q31.c **** 
 689:Drivers/CMSIS/DSP/Source/TransformFunctions/arm_cfft_radix4_q31.c ****     /* Read xb (real), yb(imag) input */
 690:Drivers/CMSIS/DSP/Source/TransformFunctions/arm_cfft_radix4_q31.c ****     xbyb = *__SIMD64(ptr1)++;
 691:Drivers/CMSIS/DSP/Source/TransformFunctions/arm_cfft_radix4_q31.c ****     yb = (q31_t) xbyb;
 692:Drivers/CMSIS/DSP/Source/TransformFunctions/arm_cfft_radix4_q31.c ****     xb = (q31_t) (xbyb >> 32);
 693:Drivers/CMSIS/DSP/Source/TransformFunctions/arm_cfft_radix4_q31.c **** 
 694:Drivers/CMSIS/DSP/Source/TransformFunctions/arm_cfft_radix4_q31.c ****     /* Read xc (real), yc(imag) input */
 695:Drivers/CMSIS/DSP/Source/TransformFunctions/arm_cfft_radix4_q31.c ****     xcyc = *__SIMD64(ptr1)++;
 696:Drivers/CMSIS/DSP/Source/TransformFunctions/arm_cfft_radix4_q31.c ****     yc = (q31_t) xcyc;
 697:Drivers/CMSIS/DSP/Source/TransformFunctions/arm_cfft_radix4_q31.c ****     xc = (q31_t) (xcyc >> 32);
 698:Drivers/CMSIS/DSP/Source/TransformFunctions/arm_cfft_radix4_q31.c **** 
 699:Drivers/CMSIS/DSP/Source/TransformFunctions/arm_cfft_radix4_q31.c ****     /* Read xc (real), yc(imag) input */
 700:Drivers/CMSIS/DSP/Source/TransformFunctions/arm_cfft_radix4_q31.c ****     xdyd = *__SIMD64(ptr1)++;
 701:Drivers/CMSIS/DSP/Source/TransformFunctions/arm_cfft_radix4_q31.c ****     yd = (q31_t) xdyd;
 702:Drivers/CMSIS/DSP/Source/TransformFunctions/arm_cfft_radix4_q31.c ****     xd = (q31_t) (xdyd >> 32);
 703:Drivers/CMSIS/DSP/Source/TransformFunctions/arm_cfft_radix4_q31.c **** 
 704:Drivers/CMSIS/DSP/Source/TransformFunctions/arm_cfft_radix4_q31.c **** 
 705:Drivers/CMSIS/DSP/Source/TransformFunctions/arm_cfft_radix4_q31.c **** #endif
ARM GAS  C:\Users\17832\AppData\Local\Temp\ccW85mhr.s 			page 32


 706:Drivers/CMSIS/DSP/Source/TransformFunctions/arm_cfft_radix4_q31.c **** 
 707:Drivers/CMSIS/DSP/Source/TransformFunctions/arm_cfft_radix4_q31.c ****     /* xa' = xa + xb + xc + xd */
 708:Drivers/CMSIS/DSP/Source/TransformFunctions/arm_cfft_radix4_q31.c ****     xa_out = xa + xb + xc + xd;
 967              		.loc 1 708 5 discriminator 1 view .LVU362
 968              		.loc 1 708 17 is_stmt 0 discriminator 1 view .LVU363
 969 0488 01EB0C04 		add	r4, r1, ip
 970              		.loc 1 708 22 discriminator 1 view .LVU364
 971 048c 4444     		add	r4, r4, r8
 972              		.loc 1 708 12 discriminator 1 view .LVU365
 973 048e 3444     		add	r4, r4, r6
 974              	.LVL128:
 709:Drivers/CMSIS/DSP/Source/TransformFunctions/arm_cfft_radix4_q31.c **** 
 710:Drivers/CMSIS/DSP/Source/TransformFunctions/arm_cfft_radix4_q31.c ****     /* ya' = ya + yb + yc + yd */
 711:Drivers/CMSIS/DSP/Source/TransformFunctions/arm_cfft_radix4_q31.c ****     ya_out = ya + yb + yc + yd;
 975              		.loc 1 711 5 is_stmt 1 discriminator 1 view .LVU366
 976              		.loc 1 711 17 is_stmt 0 discriminator 1 view .LVU367
 977 0490 02EB0900 		add	r0, r2, r9
 978              		.loc 1 711 22 discriminator 1 view .LVU368
 979 0494 3844     		add	r0, r0, r7
 980              		.loc 1 711 12 discriminator 1 view .LVU369
 981 0496 7044     		add	r0, r0, lr
 982              	.LVL129:
 712:Drivers/CMSIS/DSP/Source/TransformFunctions/arm_cfft_radix4_q31.c **** 
 713:Drivers/CMSIS/DSP/Source/TransformFunctions/arm_cfft_radix4_q31.c ****     /* pointer updation for writing */
 714:Drivers/CMSIS/DSP/Source/TransformFunctions/arm_cfft_radix4_q31.c ****     ptr1 = ptr1 - 8U;
 983              		.loc 1 714 5 is_stmt 1 discriminator 1 view .LVU370
 715:Drivers/CMSIS/DSP/Source/TransformFunctions/arm_cfft_radix4_q31.c **** 
 716:Drivers/CMSIS/DSP/Source/TransformFunctions/arm_cfft_radix4_q31.c ****     /* writing xa' and ya' */
 717:Drivers/CMSIS/DSP/Source/TransformFunctions/arm_cfft_radix4_q31.c ****     *ptr1++ = xa_out;
 984              		.loc 1 717 5 discriminator 1 view .LVU371
 985              		.loc 1 717 13 is_stmt 0 discriminator 1 view .LVU372
 986 0498 1C60     		str	r4, [r3]
 718:Drivers/CMSIS/DSP/Source/TransformFunctions/arm_cfft_radix4_q31.c ****     *ptr1++ = ya_out;
 987              		.loc 1 718 5 is_stmt 1 discriminator 1 view .LVU373
 988              	.LVL130:
 989              		.loc 1 718 13 is_stmt 0 discriminator 1 view .LVU374
 990 049a 5860     		str	r0, [r3, #4]
 719:Drivers/CMSIS/DSP/Source/TransformFunctions/arm_cfft_radix4_q31.c **** 
 720:Drivers/CMSIS/DSP/Source/TransformFunctions/arm_cfft_radix4_q31.c ****     xc_out = (xa - xb + xc - xd);
 991              		.loc 1 720 5 is_stmt 1 discriminator 1 view .LVU375
 992              		.loc 1 720 18 is_stmt 0 discriminator 1 view .LVU376
 993 049c A1EB0C04 		sub	r4, r1, ip
 994              	.LVL131:
 995              		.loc 1 720 23 discriminator 1 view .LVU377
 996 04a0 4444     		add	r4, r4, r8
 997              		.loc 1 720 12 discriminator 1 view .LVU378
 998 04a2 A41B     		subs	r4, r4, r6
 999              	.LVL132:
 721:Drivers/CMSIS/DSP/Source/TransformFunctions/arm_cfft_radix4_q31.c ****     yc_out = (ya - yb + yc - yd);
 1000              		.loc 1 721 5 is_stmt 1 discriminator 1 view .LVU379
 1001              		.loc 1 721 18 is_stmt 0 discriminator 1 view .LVU380
 1002 04a4 A2EB0900 		sub	r0, r2, r9
 1003              	.LVL133:
 1004              		.loc 1 721 23 discriminator 1 view .LVU381
 1005 04a8 3844     		add	r0, r0, r7
 1006              		.loc 1 721 12 discriminator 1 view .LVU382
 1007 04aa A0EB0E00 		sub	r0, r0, lr
ARM GAS  C:\Users\17832\AppData\Local\Temp\ccW85mhr.s 			page 33


 1008              	.LVL134:
 722:Drivers/CMSIS/DSP/Source/TransformFunctions/arm_cfft_radix4_q31.c **** 
 723:Drivers/CMSIS/DSP/Source/TransformFunctions/arm_cfft_radix4_q31.c ****     /* writing xc' and yc' */
 724:Drivers/CMSIS/DSP/Source/TransformFunctions/arm_cfft_radix4_q31.c ****     *ptr1++ = xc_out;
 1009              		.loc 1 724 5 is_stmt 1 discriminator 1 view .LVU383
 1010              		.loc 1 724 13 is_stmt 0 discriminator 1 view .LVU384
 1011 04ae 9C60     		str	r4, [r3, #8]
 725:Drivers/CMSIS/DSP/Source/TransformFunctions/arm_cfft_radix4_q31.c ****     *ptr1++ = yc_out;
 1012              		.loc 1 725 5 is_stmt 1 discriminator 1 view .LVU385
 1013              	.LVL135:
 1014              		.loc 1 725 13 is_stmt 0 discriminator 1 view .LVU386
 1015 04b0 D860     		str	r0, [r3, #12]
 726:Drivers/CMSIS/DSP/Source/TransformFunctions/arm_cfft_radix4_q31.c **** 
 727:Drivers/CMSIS/DSP/Source/TransformFunctions/arm_cfft_radix4_q31.c ****     xb_out = (xa + yb - xc - yd);
 1016              		.loc 1 727 5 is_stmt 1 discriminator 1 view .LVU387
 1017              		.loc 1 727 18 is_stmt 0 discriminator 1 view .LVU388
 1018 04b2 01EB0904 		add	r4, r1, r9
 1019              	.LVL136:
 1020              		.loc 1 727 23 discriminator 1 view .LVU389
 1021 04b6 A4EB0804 		sub	r4, r4, r8
 1022              		.loc 1 727 12 discriminator 1 view .LVU390
 1023 04ba A4EB0E04 		sub	r4, r4, lr
 1024              	.LVL137:
 728:Drivers/CMSIS/DSP/Source/TransformFunctions/arm_cfft_radix4_q31.c ****     yb_out = (ya - xb - yc + xd);
 1025              		.loc 1 728 5 is_stmt 1 discriminator 1 view .LVU391
 1026              		.loc 1 728 18 is_stmt 0 discriminator 1 view .LVU392
 1027 04be A2EB0C00 		sub	r0, r2, ip
 1028              	.LVL138:
 1029              		.loc 1 728 23 discriminator 1 view .LVU393
 1030 04c2 C01B     		subs	r0, r0, r7
 1031              		.loc 1 728 12 discriminator 1 view .LVU394
 1032 04c4 3044     		add	r0, r0, r6
 1033              	.LVL139:
 729:Drivers/CMSIS/DSP/Source/TransformFunctions/arm_cfft_radix4_q31.c **** 
 730:Drivers/CMSIS/DSP/Source/TransformFunctions/arm_cfft_radix4_q31.c ****     /* writing xb' and yb' */
 731:Drivers/CMSIS/DSP/Source/TransformFunctions/arm_cfft_radix4_q31.c ****     *ptr1++ = xb_out;
 1034              		.loc 1 731 5 is_stmt 1 discriminator 1 view .LVU395
 1035              		.loc 1 731 13 is_stmt 0 discriminator 1 view .LVU396
 1036 04c6 1C61     		str	r4, [r3, #16]
 732:Drivers/CMSIS/DSP/Source/TransformFunctions/arm_cfft_radix4_q31.c ****     *ptr1++ = yb_out;
 1037              		.loc 1 732 5 is_stmt 1 discriminator 1 view .LVU397
 1038              	.LVL140:
 1039              		.loc 1 732 13 is_stmt 0 discriminator 1 view .LVU398
 1040 04c8 5861     		str	r0, [r3, #20]
 733:Drivers/CMSIS/DSP/Source/TransformFunctions/arm_cfft_radix4_q31.c **** 
 734:Drivers/CMSIS/DSP/Source/TransformFunctions/arm_cfft_radix4_q31.c ****     xd_out = (xa - yb - xc + yd);
 1041              		.loc 1 734 5 is_stmt 1 discriminator 1 view .LVU399
 1042              		.loc 1 734 18 is_stmt 0 discriminator 1 view .LVU400
 1043 04ca A1EB0901 		sub	r1, r1, r9
 1044              	.LVL141:
 1045              		.loc 1 734 23 discriminator 1 view .LVU401
 1046 04ce A1EB0801 		sub	r1, r1, r8
 1047              		.loc 1 734 12 discriminator 1 view .LVU402
 1048 04d2 7144     		add	r1, r1, lr
 1049              	.LVL142:
 735:Drivers/CMSIS/DSP/Source/TransformFunctions/arm_cfft_radix4_q31.c ****     yd_out = (ya + xb - yc - xd);
 1050              		.loc 1 735 5 is_stmt 1 discriminator 1 view .LVU403
ARM GAS  C:\Users\17832\AppData\Local\Temp\ccW85mhr.s 			page 34


 1051              		.loc 1 735 18 is_stmt 0 discriminator 1 view .LVU404
 1052 04d4 6244     		add	r2, r2, ip
 1053              	.LVL143:
 1054              		.loc 1 735 23 discriminator 1 view .LVU405
 1055 04d6 D21B     		subs	r2, r2, r7
 1056              		.loc 1 735 12 discriminator 1 view .LVU406
 1057 04d8 921B     		subs	r2, r2, r6
 1058              	.LVL144:
 736:Drivers/CMSIS/DSP/Source/TransformFunctions/arm_cfft_radix4_q31.c **** 
 737:Drivers/CMSIS/DSP/Source/TransformFunctions/arm_cfft_radix4_q31.c ****     /* writing xd' and yd' */
 738:Drivers/CMSIS/DSP/Source/TransformFunctions/arm_cfft_radix4_q31.c ****     *ptr1++ = xd_out;
 1059              		.loc 1 738 5 is_stmt 1 discriminator 1 view .LVU407
 1060              		.loc 1 738 13 is_stmt 0 discriminator 1 view .LVU408
 1061 04da 9961     		str	r1, [r3, #24]
 739:Drivers/CMSIS/DSP/Source/TransformFunctions/arm_cfft_radix4_q31.c ****     *ptr1++ = yd_out;
 1062              		.loc 1 739 5 is_stmt 1 discriminator 1 view .LVU409
 1063              	.LVL145:
 1064              		.loc 1 739 13 is_stmt 0 discriminator 1 view .LVU410
 1065 04dc DA61     		str	r2, [r3, #28]
 1066 04de 2033     		adds	r3, r3, #32
 1067              	.LVL146:
 740:Drivers/CMSIS/DSP/Source/TransformFunctions/arm_cfft_radix4_q31.c **** 
 741:Drivers/CMSIS/DSP/Source/TransformFunctions/arm_cfft_radix4_q31.c **** 
 742:Drivers/CMSIS/DSP/Source/TransformFunctions/arm_cfft_radix4_q31.c ****   } while (--j);
 1068              		.loc 1 742 11 is_stmt 1 discriminator 1 view .LVU411
 1069              		.loc 1 742 3 is_stmt 0 discriminator 1 view .LVU412
 1070 04e0 013D     		subs	r5, r5, #1
 1071              	.LVL147:
 1072              		.loc 1 742 3 discriminator 1 view .LVU413
 1073 04e2 C5D1     		bne	.L9
 743:Drivers/CMSIS/DSP/Source/TransformFunctions/arm_cfft_radix4_q31.c **** 
 744:Drivers/CMSIS/DSP/Source/TransformFunctions/arm_cfft_radix4_q31.c ****   /* output is in 11.21(q21) format for the 1024 point */
 745:Drivers/CMSIS/DSP/Source/TransformFunctions/arm_cfft_radix4_q31.c ****   /* output is in 9.23(q23) format for the 256 point */
 746:Drivers/CMSIS/DSP/Source/TransformFunctions/arm_cfft_radix4_q31.c ****   /* output is in 7.25(q25) format for the 64 point */
 747:Drivers/CMSIS/DSP/Source/TransformFunctions/arm_cfft_radix4_q31.c ****   /* output is in 5.27(q27) format for the 16 point */
 748:Drivers/CMSIS/DSP/Source/TransformFunctions/arm_cfft_radix4_q31.c **** 
 749:Drivers/CMSIS/DSP/Source/TransformFunctions/arm_cfft_radix4_q31.c ****   /* End of last stage process */
 750:Drivers/CMSIS/DSP/Source/TransformFunctions/arm_cfft_radix4_q31.c **** 
 751:Drivers/CMSIS/DSP/Source/TransformFunctions/arm_cfft_radix4_q31.c **** }
 1074              		.loc 1 751 1 view .LVU414
 1075 04e4 17B0     		add	sp, sp, #92
 1076              	.LCFI2:
 1077              		.cfi_def_cfa_offset 36
 1078              	.LVL148:
 1079              		.loc 1 751 1 view .LVU415
 1080              		@ sp needed
 1081 04e6 BDE8F08F 		pop	{r4, r5, r6, r7, r8, r9, r10, fp, pc}
 1082              		.loc 1 751 1 view .LVU416
 1083              		.cfi_endproc
 1084              	.LFE136:
 1086              		.section	.text.arm_radix4_butterfly_inverse_q31,"ax",%progbits
 1087              		.align	1
 1088              		.global	arm_radix4_butterfly_inverse_q31
 1089              		.syntax unified
 1090              		.thumb
 1091              		.thumb_func
 1093              	arm_radix4_butterfly_inverse_q31:
ARM GAS  C:\Users\17832\AppData\Local\Temp\ccW85mhr.s 			page 35


 1094              	.LVL149:
 1095              	.LFB137:
 752:Drivers/CMSIS/DSP/Source/TransformFunctions/arm_cfft_radix4_q31.c **** 
 753:Drivers/CMSIS/DSP/Source/TransformFunctions/arm_cfft_radix4_q31.c **** 
 754:Drivers/CMSIS/DSP/Source/TransformFunctions/arm_cfft_radix4_q31.c **** /**
 755:Drivers/CMSIS/DSP/Source/TransformFunctions/arm_cfft_radix4_q31.c ****  * @brief  Core function for the Q31 CIFFT butterfly process.
 756:Drivers/CMSIS/DSP/Source/TransformFunctions/arm_cfft_radix4_q31.c ****  * @param[in, out] *pSrc            points to the in-place buffer of Q31 data type.
 757:Drivers/CMSIS/DSP/Source/TransformFunctions/arm_cfft_radix4_q31.c ****  * @param[in]      fftLen           length of the FFT.
 758:Drivers/CMSIS/DSP/Source/TransformFunctions/arm_cfft_radix4_q31.c ****  * @param[in]      *pCoef           points to twiddle coefficient buffer.
 759:Drivers/CMSIS/DSP/Source/TransformFunctions/arm_cfft_radix4_q31.c ****  * @param[in]      twidCoefModifier twiddle coefficient modifier that supports different size FFTs 
 760:Drivers/CMSIS/DSP/Source/TransformFunctions/arm_cfft_radix4_q31.c ****  * @return none.
 761:Drivers/CMSIS/DSP/Source/TransformFunctions/arm_cfft_radix4_q31.c ****  */
 762:Drivers/CMSIS/DSP/Source/TransformFunctions/arm_cfft_radix4_q31.c **** 
 763:Drivers/CMSIS/DSP/Source/TransformFunctions/arm_cfft_radix4_q31.c **** 
 764:Drivers/CMSIS/DSP/Source/TransformFunctions/arm_cfft_radix4_q31.c **** /*
 765:Drivers/CMSIS/DSP/Source/TransformFunctions/arm_cfft_radix4_q31.c **** * Radix-4 IFFT algorithm used is :
 766:Drivers/CMSIS/DSP/Source/TransformFunctions/arm_cfft_radix4_q31.c **** *
 767:Drivers/CMSIS/DSP/Source/TransformFunctions/arm_cfft_radix4_q31.c **** * CIFFT uses same twiddle coefficients as CFFT Function
 768:Drivers/CMSIS/DSP/Source/TransformFunctions/arm_cfft_radix4_q31.c **** *  x[k] = x[n] + (j)k * x[n + fftLen/4] + (-1)k * x[n+fftLen/2] + (-j)k * x[n+3*fftLen/4]
 769:Drivers/CMSIS/DSP/Source/TransformFunctions/arm_cfft_radix4_q31.c **** *
 770:Drivers/CMSIS/DSP/Source/TransformFunctions/arm_cfft_radix4_q31.c **** *
 771:Drivers/CMSIS/DSP/Source/TransformFunctions/arm_cfft_radix4_q31.c **** * IFFT is implemented with following changes in equations from FFT
 772:Drivers/CMSIS/DSP/Source/TransformFunctions/arm_cfft_radix4_q31.c **** *
 773:Drivers/CMSIS/DSP/Source/TransformFunctions/arm_cfft_radix4_q31.c **** * Input real and imaginary data:
 774:Drivers/CMSIS/DSP/Source/TransformFunctions/arm_cfft_radix4_q31.c **** * x(n) = xa + j * ya
 775:Drivers/CMSIS/DSP/Source/TransformFunctions/arm_cfft_radix4_q31.c **** * x(n+N/4 ) = xb + j * yb
 776:Drivers/CMSIS/DSP/Source/TransformFunctions/arm_cfft_radix4_q31.c **** * x(n+N/2 ) = xc + j * yc
 777:Drivers/CMSIS/DSP/Source/TransformFunctions/arm_cfft_radix4_q31.c **** * x(n+3N 4) = xd + j * yd
 778:Drivers/CMSIS/DSP/Source/TransformFunctions/arm_cfft_radix4_q31.c **** *
 779:Drivers/CMSIS/DSP/Source/TransformFunctions/arm_cfft_radix4_q31.c **** *
 780:Drivers/CMSIS/DSP/Source/TransformFunctions/arm_cfft_radix4_q31.c **** * Output real and imaginary data:
 781:Drivers/CMSIS/DSP/Source/TransformFunctions/arm_cfft_radix4_q31.c **** * x(4r) = xa'+ j * ya'
 782:Drivers/CMSIS/DSP/Source/TransformFunctions/arm_cfft_radix4_q31.c **** * x(4r+1) = xb'+ j * yb'
 783:Drivers/CMSIS/DSP/Source/TransformFunctions/arm_cfft_radix4_q31.c **** * x(4r+2) = xc'+ j * yc'
 784:Drivers/CMSIS/DSP/Source/TransformFunctions/arm_cfft_radix4_q31.c **** * x(4r+3) = xd'+ j * yd'
 785:Drivers/CMSIS/DSP/Source/TransformFunctions/arm_cfft_radix4_q31.c **** *
 786:Drivers/CMSIS/DSP/Source/TransformFunctions/arm_cfft_radix4_q31.c **** *
 787:Drivers/CMSIS/DSP/Source/TransformFunctions/arm_cfft_radix4_q31.c **** * Twiddle factors for radix-4 IFFT:
 788:Drivers/CMSIS/DSP/Source/TransformFunctions/arm_cfft_radix4_q31.c **** * Wn = co1 + j * (si1)
 789:Drivers/CMSIS/DSP/Source/TransformFunctions/arm_cfft_radix4_q31.c **** * W2n = co2 + j * (si2)
 790:Drivers/CMSIS/DSP/Source/TransformFunctions/arm_cfft_radix4_q31.c **** * W3n = co3 + j * (si3)
 791:Drivers/CMSIS/DSP/Source/TransformFunctions/arm_cfft_radix4_q31.c **** 
 792:Drivers/CMSIS/DSP/Source/TransformFunctions/arm_cfft_radix4_q31.c **** * The real and imaginary output values for the radix-4 butterfly are
 793:Drivers/CMSIS/DSP/Source/TransformFunctions/arm_cfft_radix4_q31.c **** * xa' = xa + xb + xc + xd
 794:Drivers/CMSIS/DSP/Source/TransformFunctions/arm_cfft_radix4_q31.c **** * ya' = ya + yb + yc + yd
 795:Drivers/CMSIS/DSP/Source/TransformFunctions/arm_cfft_radix4_q31.c **** * xb' = (xa-yb-xc+yd)* co1 - (ya+xb-yc-xd)* (si1)
 796:Drivers/CMSIS/DSP/Source/TransformFunctions/arm_cfft_radix4_q31.c **** * yb' = (ya+xb-yc-xd)* co1 + (xa-yb-xc+yd)* (si1)
 797:Drivers/CMSIS/DSP/Source/TransformFunctions/arm_cfft_radix4_q31.c **** * xc' = (xa-xb+xc-xd)* co2 - (ya-yb+yc-yd)* (si2)
 798:Drivers/CMSIS/DSP/Source/TransformFunctions/arm_cfft_radix4_q31.c **** * yc' = (ya-yb+yc-yd)* co2 + (xa-xb+xc-xd)* (si2)
 799:Drivers/CMSIS/DSP/Source/TransformFunctions/arm_cfft_radix4_q31.c **** * xd' = (xa+yb-xc-yd)* co3 - (ya-xb-yc+xd)* (si3)
 800:Drivers/CMSIS/DSP/Source/TransformFunctions/arm_cfft_radix4_q31.c **** * yd' = (ya-xb-yc+xd)* co3 + (xa+yb-xc-yd)* (si3)
 801:Drivers/CMSIS/DSP/Source/TransformFunctions/arm_cfft_radix4_q31.c **** *
 802:Drivers/CMSIS/DSP/Source/TransformFunctions/arm_cfft_radix4_q31.c **** */
 803:Drivers/CMSIS/DSP/Source/TransformFunctions/arm_cfft_radix4_q31.c **** 
 804:Drivers/CMSIS/DSP/Source/TransformFunctions/arm_cfft_radix4_q31.c **** void arm_radix4_butterfly_inverse_q31(
 805:Drivers/CMSIS/DSP/Source/TransformFunctions/arm_cfft_radix4_q31.c ****   q31_t * pSrc,
 806:Drivers/CMSIS/DSP/Source/TransformFunctions/arm_cfft_radix4_q31.c ****   uint32_t fftLen,
ARM GAS  C:\Users\17832\AppData\Local\Temp\ccW85mhr.s 			page 36


 807:Drivers/CMSIS/DSP/Source/TransformFunctions/arm_cfft_radix4_q31.c ****   q31_t * pCoef,
 808:Drivers/CMSIS/DSP/Source/TransformFunctions/arm_cfft_radix4_q31.c ****   uint32_t twidCoefModifier)
 809:Drivers/CMSIS/DSP/Source/TransformFunctions/arm_cfft_radix4_q31.c **** {
 1096              		.loc 1 809 1 is_stmt 1 view -0
 1097              		.cfi_startproc
 1098              		@ args = 0, pretend = 0, frame = 88
 1099              		@ frame_needed = 0, uses_anonymous_args = 0
 1100              		.loc 1 809 1 is_stmt 0 view .LVU418
 1101 0000 2DE9F04F 		push	{r4, r5, r6, r7, r8, r9, r10, fp, lr}
 1102              	.LCFI3:
 1103              		.cfi_def_cfa_offset 36
 1104              		.cfi_offset 4, -36
 1105              		.cfi_offset 5, -32
 1106              		.cfi_offset 6, -28
 1107              		.cfi_offset 7, -24
 1108              		.cfi_offset 8, -20
 1109              		.cfi_offset 9, -16
 1110              		.cfi_offset 10, -12
 1111              		.cfi_offset 11, -8
 1112              		.cfi_offset 14, -4
 1113 0004 97B0     		sub	sp, sp, #92
 1114              	.LCFI4:
 1115              		.cfi_def_cfa_offset 128
 1116 0006 1290     		str	r0, [sp, #72]
 1117 0008 0B91     		str	r1, [sp, #44]
 1118 000a 1092     		str	r2, [sp, #64]
 1119 000c 0793     		str	r3, [sp, #28]
 810:Drivers/CMSIS/DSP/Source/TransformFunctions/arm_cfft_radix4_q31.c **** #if defined(ARM_MATH_CM7)
 811:Drivers/CMSIS/DSP/Source/TransformFunctions/arm_cfft_radix4_q31.c ****   uint32_t n1, n2, ia1, ia2, ia3, i0, i1, i2, i3, j, k;
 812:Drivers/CMSIS/DSP/Source/TransformFunctions/arm_cfft_radix4_q31.c ****   q31_t t1, t2, r1, r2, s1, s2, co1, co2, co3, si1, si2, si3;
 813:Drivers/CMSIS/DSP/Source/TransformFunctions/arm_cfft_radix4_q31.c ****   q31_t xa, xb, xc, xd;
 814:Drivers/CMSIS/DSP/Source/TransformFunctions/arm_cfft_radix4_q31.c ****   q31_t ya, yb, yc, yd;
 815:Drivers/CMSIS/DSP/Source/TransformFunctions/arm_cfft_radix4_q31.c ****   q31_t xa_out, xb_out, xc_out, xd_out;
 816:Drivers/CMSIS/DSP/Source/TransformFunctions/arm_cfft_radix4_q31.c ****   q31_t ya_out, yb_out, yc_out, yd_out;
 817:Drivers/CMSIS/DSP/Source/TransformFunctions/arm_cfft_radix4_q31.c **** 
 818:Drivers/CMSIS/DSP/Source/TransformFunctions/arm_cfft_radix4_q31.c ****   q31_t *ptr1;
 819:Drivers/CMSIS/DSP/Source/TransformFunctions/arm_cfft_radix4_q31.c ****   q63_t xaya, xbyb, xcyc, xdyd;
 820:Drivers/CMSIS/DSP/Source/TransformFunctions/arm_cfft_radix4_q31.c **** 
 821:Drivers/CMSIS/DSP/Source/TransformFunctions/arm_cfft_radix4_q31.c ****   /* input is be 1.31(q31) format for all FFT sizes */
 822:Drivers/CMSIS/DSP/Source/TransformFunctions/arm_cfft_radix4_q31.c ****   /* Total process is divided into three stages */
 823:Drivers/CMSIS/DSP/Source/TransformFunctions/arm_cfft_radix4_q31.c ****   /* process first stage, middle stages, & last stage */
 824:Drivers/CMSIS/DSP/Source/TransformFunctions/arm_cfft_radix4_q31.c **** 
 825:Drivers/CMSIS/DSP/Source/TransformFunctions/arm_cfft_radix4_q31.c ****   /* Start of first stage process */
 826:Drivers/CMSIS/DSP/Source/TransformFunctions/arm_cfft_radix4_q31.c **** 
 827:Drivers/CMSIS/DSP/Source/TransformFunctions/arm_cfft_radix4_q31.c ****   /* Initializations for the first stage */
 828:Drivers/CMSIS/DSP/Source/TransformFunctions/arm_cfft_radix4_q31.c ****   n2 = fftLen;
 829:Drivers/CMSIS/DSP/Source/TransformFunctions/arm_cfft_radix4_q31.c ****   n1 = n2;
 830:Drivers/CMSIS/DSP/Source/TransformFunctions/arm_cfft_radix4_q31.c ****   /* n2 = fftLen/4 */
 831:Drivers/CMSIS/DSP/Source/TransformFunctions/arm_cfft_radix4_q31.c ****   n2 >>= 2U;
 832:Drivers/CMSIS/DSP/Source/TransformFunctions/arm_cfft_radix4_q31.c ****   i0 = 0U;
 833:Drivers/CMSIS/DSP/Source/TransformFunctions/arm_cfft_radix4_q31.c ****   ia1 = 0U;
 834:Drivers/CMSIS/DSP/Source/TransformFunctions/arm_cfft_radix4_q31.c **** 
 835:Drivers/CMSIS/DSP/Source/TransformFunctions/arm_cfft_radix4_q31.c ****   j = n2;
 836:Drivers/CMSIS/DSP/Source/TransformFunctions/arm_cfft_radix4_q31.c **** 
 837:Drivers/CMSIS/DSP/Source/TransformFunctions/arm_cfft_radix4_q31.c ****   do
 838:Drivers/CMSIS/DSP/Source/TransformFunctions/arm_cfft_radix4_q31.c ****   {
 839:Drivers/CMSIS/DSP/Source/TransformFunctions/arm_cfft_radix4_q31.c **** 
ARM GAS  C:\Users\17832\AppData\Local\Temp\ccW85mhr.s 			page 37


 840:Drivers/CMSIS/DSP/Source/TransformFunctions/arm_cfft_radix4_q31.c ****     /* input is in 1.31(q31) format and provide 4 guard bits for the input */
 841:Drivers/CMSIS/DSP/Source/TransformFunctions/arm_cfft_radix4_q31.c **** 
 842:Drivers/CMSIS/DSP/Source/TransformFunctions/arm_cfft_radix4_q31.c ****     /*  index calculation for the input as, */
 843:Drivers/CMSIS/DSP/Source/TransformFunctions/arm_cfft_radix4_q31.c ****     /*  pSrc[i0 + 0], pSrc[i0 + fftLen/4], pSrc[i0 + fftLen/2U], pSrc[i0 + 3fftLen/4] */
 844:Drivers/CMSIS/DSP/Source/TransformFunctions/arm_cfft_radix4_q31.c ****     i1 = i0 + n2;
 845:Drivers/CMSIS/DSP/Source/TransformFunctions/arm_cfft_radix4_q31.c ****     i2 = i1 + n2;
 846:Drivers/CMSIS/DSP/Source/TransformFunctions/arm_cfft_radix4_q31.c ****     i3 = i2 + n2;
 847:Drivers/CMSIS/DSP/Source/TransformFunctions/arm_cfft_radix4_q31.c **** 
 848:Drivers/CMSIS/DSP/Source/TransformFunctions/arm_cfft_radix4_q31.c ****     /*  Butterfly implementation */
 849:Drivers/CMSIS/DSP/Source/TransformFunctions/arm_cfft_radix4_q31.c ****     /* xa + xc */
 850:Drivers/CMSIS/DSP/Source/TransformFunctions/arm_cfft_radix4_q31.c ****     r1 = (pSrc[2U * i0] >> 4U) + (pSrc[2U * i2] >> 4U);
 851:Drivers/CMSIS/DSP/Source/TransformFunctions/arm_cfft_radix4_q31.c ****     /* xa - xc */
 852:Drivers/CMSIS/DSP/Source/TransformFunctions/arm_cfft_radix4_q31.c ****     r2 = (pSrc[2U * i0] >> 4U) - (pSrc[2U * i2] >> 4U);
 853:Drivers/CMSIS/DSP/Source/TransformFunctions/arm_cfft_radix4_q31.c **** 
 854:Drivers/CMSIS/DSP/Source/TransformFunctions/arm_cfft_radix4_q31.c ****     /* xb + xd */
 855:Drivers/CMSIS/DSP/Source/TransformFunctions/arm_cfft_radix4_q31.c ****     t1 = (pSrc[2U * i1] >> 4U) + (pSrc[2U * i3] >> 4U);
 856:Drivers/CMSIS/DSP/Source/TransformFunctions/arm_cfft_radix4_q31.c **** 
 857:Drivers/CMSIS/DSP/Source/TransformFunctions/arm_cfft_radix4_q31.c ****     /* ya + yc */
 858:Drivers/CMSIS/DSP/Source/TransformFunctions/arm_cfft_radix4_q31.c ****     s1 = (pSrc[(2U * i0) + 1U] >> 4U) + (pSrc[(2U * i2) + 1U] >> 4U);
 859:Drivers/CMSIS/DSP/Source/TransformFunctions/arm_cfft_radix4_q31.c ****     /* ya - yc */
 860:Drivers/CMSIS/DSP/Source/TransformFunctions/arm_cfft_radix4_q31.c ****     s2 = (pSrc[(2U * i0) + 1U] >> 4U) - (pSrc[(2U * i2) + 1U] >> 4U);
 861:Drivers/CMSIS/DSP/Source/TransformFunctions/arm_cfft_radix4_q31.c **** 
 862:Drivers/CMSIS/DSP/Source/TransformFunctions/arm_cfft_radix4_q31.c ****     /* xa' = xa + xb + xc + xd */
 863:Drivers/CMSIS/DSP/Source/TransformFunctions/arm_cfft_radix4_q31.c ****     pSrc[2U * i0] = (r1 + t1);
 864:Drivers/CMSIS/DSP/Source/TransformFunctions/arm_cfft_radix4_q31.c ****     /* (xa + xc) - (xb + xd) */
 865:Drivers/CMSIS/DSP/Source/TransformFunctions/arm_cfft_radix4_q31.c ****     r1 = r1 - t1;
 866:Drivers/CMSIS/DSP/Source/TransformFunctions/arm_cfft_radix4_q31.c ****     /* yb + yd */
 867:Drivers/CMSIS/DSP/Source/TransformFunctions/arm_cfft_radix4_q31.c ****     t2 = (pSrc[(2U * i1) + 1U] >> 4U) + (pSrc[(2U * i3) + 1U] >> 4U);
 868:Drivers/CMSIS/DSP/Source/TransformFunctions/arm_cfft_radix4_q31.c ****     /* ya' = ya + yb + yc + yd */
 869:Drivers/CMSIS/DSP/Source/TransformFunctions/arm_cfft_radix4_q31.c ****     pSrc[(2U * i0) + 1U] = (s1 + t2);
 870:Drivers/CMSIS/DSP/Source/TransformFunctions/arm_cfft_radix4_q31.c **** 
 871:Drivers/CMSIS/DSP/Source/TransformFunctions/arm_cfft_radix4_q31.c ****     /* (ya + yc) - (yb + yd) */
 872:Drivers/CMSIS/DSP/Source/TransformFunctions/arm_cfft_radix4_q31.c ****     s1 = s1 - t2;
 873:Drivers/CMSIS/DSP/Source/TransformFunctions/arm_cfft_radix4_q31.c **** 
 874:Drivers/CMSIS/DSP/Source/TransformFunctions/arm_cfft_radix4_q31.c ****     /* yb - yd */
 875:Drivers/CMSIS/DSP/Source/TransformFunctions/arm_cfft_radix4_q31.c ****     t1 = (pSrc[(2U * i1) + 1U] >> 4U) - (pSrc[(2U * i3) + 1U] >> 4U);
 876:Drivers/CMSIS/DSP/Source/TransformFunctions/arm_cfft_radix4_q31.c ****     /* xb - xd */
 877:Drivers/CMSIS/DSP/Source/TransformFunctions/arm_cfft_radix4_q31.c ****     t2 = (pSrc[2U * i1] >> 4U) - (pSrc[2U * i3] >> 4U);
 878:Drivers/CMSIS/DSP/Source/TransformFunctions/arm_cfft_radix4_q31.c **** 
 879:Drivers/CMSIS/DSP/Source/TransformFunctions/arm_cfft_radix4_q31.c ****     /*  index calculation for the coefficients */
 880:Drivers/CMSIS/DSP/Source/TransformFunctions/arm_cfft_radix4_q31.c ****     ia2 = 2U * ia1;
 881:Drivers/CMSIS/DSP/Source/TransformFunctions/arm_cfft_radix4_q31.c ****     co2 = pCoef[ia2 * 2U];
 882:Drivers/CMSIS/DSP/Source/TransformFunctions/arm_cfft_radix4_q31.c ****     si2 = pCoef[(ia2 * 2U) + 1U];
 883:Drivers/CMSIS/DSP/Source/TransformFunctions/arm_cfft_radix4_q31.c **** 
 884:Drivers/CMSIS/DSP/Source/TransformFunctions/arm_cfft_radix4_q31.c ****     /* xc' = (xa-xb+xc-xd)co2 - (ya-yb+yc-yd)(si2) */
 885:Drivers/CMSIS/DSP/Source/TransformFunctions/arm_cfft_radix4_q31.c ****     pSrc[2U * i1] = (((int32_t) (((q63_t) r1 * co2) >> 32)) -
 886:Drivers/CMSIS/DSP/Source/TransformFunctions/arm_cfft_radix4_q31.c ****                      ((int32_t) (((q63_t) s1 * si2) >> 32))) << 1U;
 887:Drivers/CMSIS/DSP/Source/TransformFunctions/arm_cfft_radix4_q31.c **** 
 888:Drivers/CMSIS/DSP/Source/TransformFunctions/arm_cfft_radix4_q31.c ****     /* yc' = (ya-yb+yc-yd)co2 + (xa-xb+xc-xd)(si2) */
 889:Drivers/CMSIS/DSP/Source/TransformFunctions/arm_cfft_radix4_q31.c ****     pSrc[2U * i1 + 1U] = (((int32_t) (((q63_t) s1 * co2) >> 32)) +
 890:Drivers/CMSIS/DSP/Source/TransformFunctions/arm_cfft_radix4_q31.c ****                           ((int32_t) (((q63_t) r1 * si2) >> 32))) << 1U;
 891:Drivers/CMSIS/DSP/Source/TransformFunctions/arm_cfft_radix4_q31.c **** 
 892:Drivers/CMSIS/DSP/Source/TransformFunctions/arm_cfft_radix4_q31.c ****     /* (xa - xc) - (yb - yd) */
 893:Drivers/CMSIS/DSP/Source/TransformFunctions/arm_cfft_radix4_q31.c ****     r1 = r2 - t1;
 894:Drivers/CMSIS/DSP/Source/TransformFunctions/arm_cfft_radix4_q31.c ****     /* (xa - xc) + (yb - yd) */
 895:Drivers/CMSIS/DSP/Source/TransformFunctions/arm_cfft_radix4_q31.c ****     r2 = r2 + t1;
 896:Drivers/CMSIS/DSP/Source/TransformFunctions/arm_cfft_radix4_q31.c **** 
ARM GAS  C:\Users\17832\AppData\Local\Temp\ccW85mhr.s 			page 38


 897:Drivers/CMSIS/DSP/Source/TransformFunctions/arm_cfft_radix4_q31.c ****     /* (ya - yc) + (xb - xd) */
 898:Drivers/CMSIS/DSP/Source/TransformFunctions/arm_cfft_radix4_q31.c ****     s1 = s2 + t2;
 899:Drivers/CMSIS/DSP/Source/TransformFunctions/arm_cfft_radix4_q31.c ****     /* (ya - yc) - (xb - xd) */
 900:Drivers/CMSIS/DSP/Source/TransformFunctions/arm_cfft_radix4_q31.c ****     s2 = s2 - t2;
 901:Drivers/CMSIS/DSP/Source/TransformFunctions/arm_cfft_radix4_q31.c **** 
 902:Drivers/CMSIS/DSP/Source/TransformFunctions/arm_cfft_radix4_q31.c ****     co1 = pCoef[ia1 * 2U];
 903:Drivers/CMSIS/DSP/Source/TransformFunctions/arm_cfft_radix4_q31.c ****     si1 = pCoef[(ia1 * 2U) + 1U];
 904:Drivers/CMSIS/DSP/Source/TransformFunctions/arm_cfft_radix4_q31.c **** 
 905:Drivers/CMSIS/DSP/Source/TransformFunctions/arm_cfft_radix4_q31.c ****     /* xb' = (xa+yb-xc-yd)co1 - (ya-xb-yc+xd)(si1) */
 906:Drivers/CMSIS/DSP/Source/TransformFunctions/arm_cfft_radix4_q31.c ****     pSrc[2U * i2] = (((int32_t) (((q63_t) r1 * co1) >> 32)) -
 907:Drivers/CMSIS/DSP/Source/TransformFunctions/arm_cfft_radix4_q31.c ****                      ((int32_t) (((q63_t) s1 * si1) >> 32))) << 1U;
 908:Drivers/CMSIS/DSP/Source/TransformFunctions/arm_cfft_radix4_q31.c **** 
 909:Drivers/CMSIS/DSP/Source/TransformFunctions/arm_cfft_radix4_q31.c ****     /* yb' = (ya-xb-yc+xd)co1 + (xa+yb-xc-yd)(si1) */
 910:Drivers/CMSIS/DSP/Source/TransformFunctions/arm_cfft_radix4_q31.c ****     pSrc[(2U * i2) + 1U] = (((int32_t) (((q63_t) s1 * co1) >> 32)) +
 911:Drivers/CMSIS/DSP/Source/TransformFunctions/arm_cfft_radix4_q31.c ****                             ((int32_t) (((q63_t) r1 * si1) >> 32))) << 1U;
 912:Drivers/CMSIS/DSP/Source/TransformFunctions/arm_cfft_radix4_q31.c **** 
 913:Drivers/CMSIS/DSP/Source/TransformFunctions/arm_cfft_radix4_q31.c ****     /*  index calculation for the coefficients */
 914:Drivers/CMSIS/DSP/Source/TransformFunctions/arm_cfft_radix4_q31.c ****     ia3 = 3U * ia1;
 915:Drivers/CMSIS/DSP/Source/TransformFunctions/arm_cfft_radix4_q31.c ****     co3 = pCoef[ia3 * 2U];
 916:Drivers/CMSIS/DSP/Source/TransformFunctions/arm_cfft_radix4_q31.c ****     si3 = pCoef[(ia3 * 2U) + 1U];
 917:Drivers/CMSIS/DSP/Source/TransformFunctions/arm_cfft_radix4_q31.c **** 
 918:Drivers/CMSIS/DSP/Source/TransformFunctions/arm_cfft_radix4_q31.c ****     /* xd' = (xa-yb-xc+yd)co3 - (ya+xb-yc-xd)(si3) */
 919:Drivers/CMSIS/DSP/Source/TransformFunctions/arm_cfft_radix4_q31.c ****     pSrc[2U * i3] = (((int32_t) (((q63_t) r2 * co3) >> 32)) -
 920:Drivers/CMSIS/DSP/Source/TransformFunctions/arm_cfft_radix4_q31.c ****                      ((int32_t) (((q63_t) s2 * si3) >> 32))) << 1U;
 921:Drivers/CMSIS/DSP/Source/TransformFunctions/arm_cfft_radix4_q31.c **** 
 922:Drivers/CMSIS/DSP/Source/TransformFunctions/arm_cfft_radix4_q31.c ****     /* yd' = (ya+xb-yc-xd)co3 + (xa-yb-xc+yd)(si3) */
 923:Drivers/CMSIS/DSP/Source/TransformFunctions/arm_cfft_radix4_q31.c ****     pSrc[(2U * i3) + 1U] = (((int32_t) (((q63_t) s2 * co3) >> 32)) +
 924:Drivers/CMSIS/DSP/Source/TransformFunctions/arm_cfft_radix4_q31.c ****                             ((int32_t) (((q63_t) r2 * si3) >> 32))) << 1U;
 925:Drivers/CMSIS/DSP/Source/TransformFunctions/arm_cfft_radix4_q31.c **** 
 926:Drivers/CMSIS/DSP/Source/TransformFunctions/arm_cfft_radix4_q31.c ****     /*  Twiddle coefficients index modifier */
 927:Drivers/CMSIS/DSP/Source/TransformFunctions/arm_cfft_radix4_q31.c ****     ia1 = ia1 + twidCoefModifier;
 928:Drivers/CMSIS/DSP/Source/TransformFunctions/arm_cfft_radix4_q31.c **** 
 929:Drivers/CMSIS/DSP/Source/TransformFunctions/arm_cfft_radix4_q31.c ****     /*  Updating input index */
 930:Drivers/CMSIS/DSP/Source/TransformFunctions/arm_cfft_radix4_q31.c ****     i0 = i0 + 1U;
 931:Drivers/CMSIS/DSP/Source/TransformFunctions/arm_cfft_radix4_q31.c **** 
 932:Drivers/CMSIS/DSP/Source/TransformFunctions/arm_cfft_radix4_q31.c ****   } while (--j);
 933:Drivers/CMSIS/DSP/Source/TransformFunctions/arm_cfft_radix4_q31.c **** 
 934:Drivers/CMSIS/DSP/Source/TransformFunctions/arm_cfft_radix4_q31.c ****   /* data is in 5.27(q27) format */
 935:Drivers/CMSIS/DSP/Source/TransformFunctions/arm_cfft_radix4_q31.c ****   /* each stage provides two down scaling of the input */
 936:Drivers/CMSIS/DSP/Source/TransformFunctions/arm_cfft_radix4_q31.c **** 
 937:Drivers/CMSIS/DSP/Source/TransformFunctions/arm_cfft_radix4_q31.c **** 
 938:Drivers/CMSIS/DSP/Source/TransformFunctions/arm_cfft_radix4_q31.c ****   /* Start of Middle stages process */
 939:Drivers/CMSIS/DSP/Source/TransformFunctions/arm_cfft_radix4_q31.c **** 
 940:Drivers/CMSIS/DSP/Source/TransformFunctions/arm_cfft_radix4_q31.c ****   twidCoefModifier <<= 2U;
 941:Drivers/CMSIS/DSP/Source/TransformFunctions/arm_cfft_radix4_q31.c **** 
 942:Drivers/CMSIS/DSP/Source/TransformFunctions/arm_cfft_radix4_q31.c ****   /*  Calculation of second stage to excluding last stage */
 943:Drivers/CMSIS/DSP/Source/TransformFunctions/arm_cfft_radix4_q31.c ****   for (k = fftLen / 4U; k > 4U; k >>= 2U)
 944:Drivers/CMSIS/DSP/Source/TransformFunctions/arm_cfft_radix4_q31.c ****   {
 945:Drivers/CMSIS/DSP/Source/TransformFunctions/arm_cfft_radix4_q31.c ****     /*  Initializations for the first stage */
 946:Drivers/CMSIS/DSP/Source/TransformFunctions/arm_cfft_radix4_q31.c ****     n1 = n2;
 947:Drivers/CMSIS/DSP/Source/TransformFunctions/arm_cfft_radix4_q31.c ****     n2 >>= 2U;
 948:Drivers/CMSIS/DSP/Source/TransformFunctions/arm_cfft_radix4_q31.c ****     ia1 = 0U;
 949:Drivers/CMSIS/DSP/Source/TransformFunctions/arm_cfft_radix4_q31.c **** 
 950:Drivers/CMSIS/DSP/Source/TransformFunctions/arm_cfft_radix4_q31.c ****     for (j = 0; j <= (n2 - 1U); j++)
 951:Drivers/CMSIS/DSP/Source/TransformFunctions/arm_cfft_radix4_q31.c ****     {
 952:Drivers/CMSIS/DSP/Source/TransformFunctions/arm_cfft_radix4_q31.c ****       /*  index calculation for the coefficients */
 953:Drivers/CMSIS/DSP/Source/TransformFunctions/arm_cfft_radix4_q31.c ****       ia2 = ia1 + ia1;
ARM GAS  C:\Users\17832\AppData\Local\Temp\ccW85mhr.s 			page 39


 954:Drivers/CMSIS/DSP/Source/TransformFunctions/arm_cfft_radix4_q31.c ****       ia3 = ia2 + ia1;
 955:Drivers/CMSIS/DSP/Source/TransformFunctions/arm_cfft_radix4_q31.c ****       co1 = pCoef[ia1 * 2U];
 956:Drivers/CMSIS/DSP/Source/TransformFunctions/arm_cfft_radix4_q31.c ****       si1 = pCoef[(ia1 * 2U) + 1U];
 957:Drivers/CMSIS/DSP/Source/TransformFunctions/arm_cfft_radix4_q31.c ****       co2 = pCoef[ia2 * 2U];
 958:Drivers/CMSIS/DSP/Source/TransformFunctions/arm_cfft_radix4_q31.c ****       si2 = pCoef[(ia2 * 2U) + 1U];
 959:Drivers/CMSIS/DSP/Source/TransformFunctions/arm_cfft_radix4_q31.c ****       co3 = pCoef[ia3 * 2U];
 960:Drivers/CMSIS/DSP/Source/TransformFunctions/arm_cfft_radix4_q31.c ****       si3 = pCoef[(ia3 * 2U) + 1U];
 961:Drivers/CMSIS/DSP/Source/TransformFunctions/arm_cfft_radix4_q31.c ****       /*  Twiddle coefficients index modifier */
 962:Drivers/CMSIS/DSP/Source/TransformFunctions/arm_cfft_radix4_q31.c ****       ia1 = ia1 + twidCoefModifier;
 963:Drivers/CMSIS/DSP/Source/TransformFunctions/arm_cfft_radix4_q31.c **** 
 964:Drivers/CMSIS/DSP/Source/TransformFunctions/arm_cfft_radix4_q31.c ****       for (i0 = j; i0 < fftLen; i0 += n1)
 965:Drivers/CMSIS/DSP/Source/TransformFunctions/arm_cfft_radix4_q31.c ****       {
 966:Drivers/CMSIS/DSP/Source/TransformFunctions/arm_cfft_radix4_q31.c ****         /*  index calculation for the input as, */
 967:Drivers/CMSIS/DSP/Source/TransformFunctions/arm_cfft_radix4_q31.c ****         /*  pSrc[i0 + 0], pSrc[i0 + fftLen/4], pSrc[i0 + fftLen/2U], pSrc[i0 + 3fftLen/4] */
 968:Drivers/CMSIS/DSP/Source/TransformFunctions/arm_cfft_radix4_q31.c ****         i1 = i0 + n2;
 969:Drivers/CMSIS/DSP/Source/TransformFunctions/arm_cfft_radix4_q31.c ****         i2 = i1 + n2;
 970:Drivers/CMSIS/DSP/Source/TransformFunctions/arm_cfft_radix4_q31.c ****         i3 = i2 + n2;
 971:Drivers/CMSIS/DSP/Source/TransformFunctions/arm_cfft_radix4_q31.c **** 
 972:Drivers/CMSIS/DSP/Source/TransformFunctions/arm_cfft_radix4_q31.c ****         /*  Butterfly implementation */
 973:Drivers/CMSIS/DSP/Source/TransformFunctions/arm_cfft_radix4_q31.c ****         /* xa + xc */
 974:Drivers/CMSIS/DSP/Source/TransformFunctions/arm_cfft_radix4_q31.c ****         r1 = pSrc[2U * i0] + pSrc[2U * i2];
 975:Drivers/CMSIS/DSP/Source/TransformFunctions/arm_cfft_radix4_q31.c ****         /* xa - xc */
 976:Drivers/CMSIS/DSP/Source/TransformFunctions/arm_cfft_radix4_q31.c ****         r2 = pSrc[2U * i0] - pSrc[2U * i2];
 977:Drivers/CMSIS/DSP/Source/TransformFunctions/arm_cfft_radix4_q31.c **** 
 978:Drivers/CMSIS/DSP/Source/TransformFunctions/arm_cfft_radix4_q31.c ****         /* ya + yc */
 979:Drivers/CMSIS/DSP/Source/TransformFunctions/arm_cfft_radix4_q31.c ****         s1 = pSrc[(2U * i0) + 1U] + pSrc[(2U * i2) + 1U];
 980:Drivers/CMSIS/DSP/Source/TransformFunctions/arm_cfft_radix4_q31.c ****         /* ya - yc */
 981:Drivers/CMSIS/DSP/Source/TransformFunctions/arm_cfft_radix4_q31.c ****         s2 = pSrc[(2U * i0) + 1U] - pSrc[(2U * i2) + 1U];
 982:Drivers/CMSIS/DSP/Source/TransformFunctions/arm_cfft_radix4_q31.c **** 
 983:Drivers/CMSIS/DSP/Source/TransformFunctions/arm_cfft_radix4_q31.c ****         /* xb + xd */
 984:Drivers/CMSIS/DSP/Source/TransformFunctions/arm_cfft_radix4_q31.c ****         t1 = pSrc[2U * i1] + pSrc[2U * i3];
 985:Drivers/CMSIS/DSP/Source/TransformFunctions/arm_cfft_radix4_q31.c **** 
 986:Drivers/CMSIS/DSP/Source/TransformFunctions/arm_cfft_radix4_q31.c ****         /* xa' = xa + xb + xc + xd */
 987:Drivers/CMSIS/DSP/Source/TransformFunctions/arm_cfft_radix4_q31.c ****         pSrc[2U * i0] = (r1 + t1) >> 2U;
 988:Drivers/CMSIS/DSP/Source/TransformFunctions/arm_cfft_radix4_q31.c ****         /* xa + xc -(xb + xd) */
 989:Drivers/CMSIS/DSP/Source/TransformFunctions/arm_cfft_radix4_q31.c ****         r1 = r1 - t1;
 990:Drivers/CMSIS/DSP/Source/TransformFunctions/arm_cfft_radix4_q31.c ****         /* yb + yd */
 991:Drivers/CMSIS/DSP/Source/TransformFunctions/arm_cfft_radix4_q31.c ****         t2 = pSrc[(2U * i1) + 1U] + pSrc[(2U * i3) + 1U];
 992:Drivers/CMSIS/DSP/Source/TransformFunctions/arm_cfft_radix4_q31.c ****         /* ya' = ya + yb + yc + yd */
 993:Drivers/CMSIS/DSP/Source/TransformFunctions/arm_cfft_radix4_q31.c ****         pSrc[(2U * i0) + 1U] = (s1 + t2) >> 2U;
 994:Drivers/CMSIS/DSP/Source/TransformFunctions/arm_cfft_radix4_q31.c **** 
 995:Drivers/CMSIS/DSP/Source/TransformFunctions/arm_cfft_radix4_q31.c ****         /* (ya + yc) - (yb + yd) */
 996:Drivers/CMSIS/DSP/Source/TransformFunctions/arm_cfft_radix4_q31.c ****         s1 = s1 - t2;
 997:Drivers/CMSIS/DSP/Source/TransformFunctions/arm_cfft_radix4_q31.c **** 
 998:Drivers/CMSIS/DSP/Source/TransformFunctions/arm_cfft_radix4_q31.c ****         /* (yb - yd) */
 999:Drivers/CMSIS/DSP/Source/TransformFunctions/arm_cfft_radix4_q31.c ****         t1 = pSrc[(2U * i1) + 1U] - pSrc[(2U * i3) + 1U];
1000:Drivers/CMSIS/DSP/Source/TransformFunctions/arm_cfft_radix4_q31.c ****         /* (xb - xd) */
1001:Drivers/CMSIS/DSP/Source/TransformFunctions/arm_cfft_radix4_q31.c ****         t2 = pSrc[2U * i1] - pSrc[2U * i3];
1002:Drivers/CMSIS/DSP/Source/TransformFunctions/arm_cfft_radix4_q31.c **** 
1003:Drivers/CMSIS/DSP/Source/TransformFunctions/arm_cfft_radix4_q31.c ****         /* xc' = (xa-xb+xc-xd)co2 - (ya-yb+yc-yd)(si2) */
1004:Drivers/CMSIS/DSP/Source/TransformFunctions/arm_cfft_radix4_q31.c ****         pSrc[2U * i1] = (((int32_t) (((q63_t) r1 * co2) >> 32U)) -
1005:Drivers/CMSIS/DSP/Source/TransformFunctions/arm_cfft_radix4_q31.c ****                          ((int32_t) (((q63_t) s1 * si2) >> 32U))) >> 1U;
1006:Drivers/CMSIS/DSP/Source/TransformFunctions/arm_cfft_radix4_q31.c **** 
1007:Drivers/CMSIS/DSP/Source/TransformFunctions/arm_cfft_radix4_q31.c ****         /* yc' = (ya-yb+yc-yd)co2 + (xa-xb+xc-xd)(si2) */
1008:Drivers/CMSIS/DSP/Source/TransformFunctions/arm_cfft_radix4_q31.c ****         pSrc[(2U * i1) + 1U] =
1009:Drivers/CMSIS/DSP/Source/TransformFunctions/arm_cfft_radix4_q31.c ****           (((int32_t) (((q63_t) s1 * co2) >> 32U)) +
1010:Drivers/CMSIS/DSP/Source/TransformFunctions/arm_cfft_radix4_q31.c ****            ((int32_t) (((q63_t) r1 * si2) >> 32U))) >> 1U;
ARM GAS  C:\Users\17832\AppData\Local\Temp\ccW85mhr.s 			page 40


1011:Drivers/CMSIS/DSP/Source/TransformFunctions/arm_cfft_radix4_q31.c **** 
1012:Drivers/CMSIS/DSP/Source/TransformFunctions/arm_cfft_radix4_q31.c ****         /* (xa - xc) - (yb - yd) */
1013:Drivers/CMSIS/DSP/Source/TransformFunctions/arm_cfft_radix4_q31.c ****         r1 = r2 - t1;
1014:Drivers/CMSIS/DSP/Source/TransformFunctions/arm_cfft_radix4_q31.c ****         /* (xa - xc) + (yb - yd) */
1015:Drivers/CMSIS/DSP/Source/TransformFunctions/arm_cfft_radix4_q31.c ****         r2 = r2 + t1;
1016:Drivers/CMSIS/DSP/Source/TransformFunctions/arm_cfft_radix4_q31.c **** 
1017:Drivers/CMSIS/DSP/Source/TransformFunctions/arm_cfft_radix4_q31.c ****         /* (ya - yc) +  (xb - xd) */
1018:Drivers/CMSIS/DSP/Source/TransformFunctions/arm_cfft_radix4_q31.c ****         s1 = s2 + t2;
1019:Drivers/CMSIS/DSP/Source/TransformFunctions/arm_cfft_radix4_q31.c ****         /* (ya - yc) -  (xb - xd) */
1020:Drivers/CMSIS/DSP/Source/TransformFunctions/arm_cfft_radix4_q31.c ****         s2 = s2 - t2;
1021:Drivers/CMSIS/DSP/Source/TransformFunctions/arm_cfft_radix4_q31.c **** 
1022:Drivers/CMSIS/DSP/Source/TransformFunctions/arm_cfft_radix4_q31.c ****         /* xb' = (xa+yb-xc-yd)co1 - (ya-xb-yc+xd)(si1) */
1023:Drivers/CMSIS/DSP/Source/TransformFunctions/arm_cfft_radix4_q31.c ****         pSrc[2U * i2] = (((int32_t) (((q63_t) r1 * co1) >> 32)) -
1024:Drivers/CMSIS/DSP/Source/TransformFunctions/arm_cfft_radix4_q31.c ****                          ((int32_t) (((q63_t) s1 * si1) >> 32))) >> 1U;
1025:Drivers/CMSIS/DSP/Source/TransformFunctions/arm_cfft_radix4_q31.c **** 
1026:Drivers/CMSIS/DSP/Source/TransformFunctions/arm_cfft_radix4_q31.c ****         /* yb' = (ya-xb-yc+xd)co1 + (xa+yb-xc-yd)(si1) */
1027:Drivers/CMSIS/DSP/Source/TransformFunctions/arm_cfft_radix4_q31.c ****         pSrc[(2U * i2) + 1U] = (((int32_t) (((q63_t) s1 * co1) >> 32)) +
1028:Drivers/CMSIS/DSP/Source/TransformFunctions/arm_cfft_radix4_q31.c ****                                 ((int32_t) (((q63_t) r1 * si1) >> 32))) >> 1U;
1029:Drivers/CMSIS/DSP/Source/TransformFunctions/arm_cfft_radix4_q31.c **** 
1030:Drivers/CMSIS/DSP/Source/TransformFunctions/arm_cfft_radix4_q31.c ****         /* xd' = (xa-yb-xc+yd)co3 - (ya+xb-yc-xd)(si3) */
1031:Drivers/CMSIS/DSP/Source/TransformFunctions/arm_cfft_radix4_q31.c ****         pSrc[(2U * i3)] = (((int32_t) (((q63_t) r2 * co3) >> 32)) -
1032:Drivers/CMSIS/DSP/Source/TransformFunctions/arm_cfft_radix4_q31.c ****                            ((int32_t) (((q63_t) s2 * si3) >> 32))) >> 1U;
1033:Drivers/CMSIS/DSP/Source/TransformFunctions/arm_cfft_radix4_q31.c **** 
1034:Drivers/CMSIS/DSP/Source/TransformFunctions/arm_cfft_radix4_q31.c ****         /* yd' = (ya+xb-yc-xd)co3 + (xa-yb-xc+yd)(si3) */
1035:Drivers/CMSIS/DSP/Source/TransformFunctions/arm_cfft_radix4_q31.c ****         pSrc[(2U * i3) + 1U] = (((int32_t) (((q63_t) s2 * co3) >> 32)) +
1036:Drivers/CMSIS/DSP/Source/TransformFunctions/arm_cfft_radix4_q31.c ****                                 ((int32_t) (((q63_t) r2 * si3) >> 32))) >> 1U;
1037:Drivers/CMSIS/DSP/Source/TransformFunctions/arm_cfft_radix4_q31.c ****       }
1038:Drivers/CMSIS/DSP/Source/TransformFunctions/arm_cfft_radix4_q31.c ****     }
1039:Drivers/CMSIS/DSP/Source/TransformFunctions/arm_cfft_radix4_q31.c ****     twidCoefModifier <<= 2U;
1040:Drivers/CMSIS/DSP/Source/TransformFunctions/arm_cfft_radix4_q31.c ****   }
1041:Drivers/CMSIS/DSP/Source/TransformFunctions/arm_cfft_radix4_q31.c **** #else
1042:Drivers/CMSIS/DSP/Source/TransformFunctions/arm_cfft_radix4_q31.c ****   uint32_t n1, n2, ia1, ia2, ia3, i0, j, k;
 1120              		.loc 1 1042 3 is_stmt 1 view .LVU419
1043:Drivers/CMSIS/DSP/Source/TransformFunctions/arm_cfft_radix4_q31.c ****   q31_t t1, t2, r1, r2, s1, s2, co1, co2, co3, si1, si2, si3;
 1121              		.loc 1 1043 3 view .LVU420
1044:Drivers/CMSIS/DSP/Source/TransformFunctions/arm_cfft_radix4_q31.c ****   q31_t xa, xb, xc, xd;
 1122              		.loc 1 1044 3 view .LVU421
1045:Drivers/CMSIS/DSP/Source/TransformFunctions/arm_cfft_radix4_q31.c ****   q31_t ya, yb, yc, yd;
 1123              		.loc 1 1045 3 view .LVU422
1046:Drivers/CMSIS/DSP/Source/TransformFunctions/arm_cfft_radix4_q31.c ****   q31_t xa_out, xb_out, xc_out, xd_out;
 1124              		.loc 1 1046 3 view .LVU423
1047:Drivers/CMSIS/DSP/Source/TransformFunctions/arm_cfft_radix4_q31.c ****   q31_t ya_out, yb_out, yc_out, yd_out;
 1125              		.loc 1 1047 3 view .LVU424
1048:Drivers/CMSIS/DSP/Source/TransformFunctions/arm_cfft_radix4_q31.c **** 
1049:Drivers/CMSIS/DSP/Source/TransformFunctions/arm_cfft_radix4_q31.c ****   q31_t *ptr1;
 1126              		.loc 1 1049 3 view .LVU425
1050:Drivers/CMSIS/DSP/Source/TransformFunctions/arm_cfft_radix4_q31.c ****   q31_t *pSi0;
 1127              		.loc 1 1050 3 view .LVU426
1051:Drivers/CMSIS/DSP/Source/TransformFunctions/arm_cfft_radix4_q31.c ****   q31_t *pSi1;
 1128              		.loc 1 1051 3 view .LVU427
1052:Drivers/CMSIS/DSP/Source/TransformFunctions/arm_cfft_radix4_q31.c ****   q31_t *pSi2;
 1129              		.loc 1 1052 3 view .LVU428
1053:Drivers/CMSIS/DSP/Source/TransformFunctions/arm_cfft_radix4_q31.c ****   q31_t *pSi3;
 1130              		.loc 1 1053 3 view .LVU429
1054:Drivers/CMSIS/DSP/Source/TransformFunctions/arm_cfft_radix4_q31.c ****   q63_t xaya, xbyb, xcyc, xdyd;
 1131              		.loc 1 1054 3 view .LVU430
1055:Drivers/CMSIS/DSP/Source/TransformFunctions/arm_cfft_radix4_q31.c **** 
ARM GAS  C:\Users\17832\AppData\Local\Temp\ccW85mhr.s 			page 41


1056:Drivers/CMSIS/DSP/Source/TransformFunctions/arm_cfft_radix4_q31.c ****   /* input is be 1.31(q31) format for all FFT sizes */
1057:Drivers/CMSIS/DSP/Source/TransformFunctions/arm_cfft_radix4_q31.c ****   /* Total process is divided into three stages */
1058:Drivers/CMSIS/DSP/Source/TransformFunctions/arm_cfft_radix4_q31.c ****   /* process first stage, middle stages, & last stage */
1059:Drivers/CMSIS/DSP/Source/TransformFunctions/arm_cfft_radix4_q31.c **** 
1060:Drivers/CMSIS/DSP/Source/TransformFunctions/arm_cfft_radix4_q31.c ****   /* Start of first stage process */
1061:Drivers/CMSIS/DSP/Source/TransformFunctions/arm_cfft_radix4_q31.c **** 
1062:Drivers/CMSIS/DSP/Source/TransformFunctions/arm_cfft_radix4_q31.c ****   /* Initializations for the first stage */
1063:Drivers/CMSIS/DSP/Source/TransformFunctions/arm_cfft_radix4_q31.c ****   n2 = fftLen;
 1132              		.loc 1 1063 3 view .LVU431
 1133              	.LVL150:
1064:Drivers/CMSIS/DSP/Source/TransformFunctions/arm_cfft_radix4_q31.c ****   n1 = n2;
 1134              		.loc 1 1064 3 view .LVU432
1065:Drivers/CMSIS/DSP/Source/TransformFunctions/arm_cfft_radix4_q31.c ****   /* n2 = fftLen/4 */
1066:Drivers/CMSIS/DSP/Source/TransformFunctions/arm_cfft_radix4_q31.c ****   n2 >>= 2U;
 1135              		.loc 1 1066 3 view .LVU433
 1136              		.loc 1 1066 6 is_stmt 0 view .LVU434
 1137 000e 8B08     		lsrs	r3, r1, #2
 1138              	.LVL151:
 1139              		.loc 1 1066 6 view .LVU435
 1140 0010 1593     		str	r3, [sp, #84]
 1141              	.LVL152:
1067:Drivers/CMSIS/DSP/Source/TransformFunctions/arm_cfft_radix4_q31.c **** 
1068:Drivers/CMSIS/DSP/Source/TransformFunctions/arm_cfft_radix4_q31.c ****   ia1 = 0U;
 1142              		.loc 1 1068 3 is_stmt 1 view .LVU436
1069:Drivers/CMSIS/DSP/Source/TransformFunctions/arm_cfft_radix4_q31.c **** 
1070:Drivers/CMSIS/DSP/Source/TransformFunctions/arm_cfft_radix4_q31.c ****   j = n2;
 1143              		.loc 1 1070 3 view .LVU437
1071:Drivers/CMSIS/DSP/Source/TransformFunctions/arm_cfft_radix4_q31.c **** 
1072:Drivers/CMSIS/DSP/Source/TransformFunctions/arm_cfft_radix4_q31.c ****   pSi0 = pSrc;
 1144              		.loc 1 1072 3 view .LVU438
1073:Drivers/CMSIS/DSP/Source/TransformFunctions/arm_cfft_radix4_q31.c ****   pSi1 = pSi0 + 2 * n2;
 1145              		.loc 1 1073 3 view .LVU439
 1146              		.loc 1 1073 8 is_stmt 0 view .LVU440
 1147 0012 00EBC309 		add	r9, r0, r3, lsl #3
 1148              	.LVL153:
1074:Drivers/CMSIS/DSP/Source/TransformFunctions/arm_cfft_radix4_q31.c ****   pSi2 = pSi1 + 2 * n2;
 1149              		.loc 1 1074 3 is_stmt 1 view .LVU441
 1150              		.loc 1 1074 8 is_stmt 0 view .LVU442
 1151 0016 00EB0311 		add	r1, r0, r3, lsl #4
 1152              	.LVL154:
1075:Drivers/CMSIS/DSP/Source/TransformFunctions/arm_cfft_radix4_q31.c ****   pSi3 = pSi2 + 2 * n2;
 1153              		.loc 1 1075 3 is_stmt 1 view .LVU443
 1154              		.loc 1 1075 8 is_stmt 0 view .LVU444
 1155 001a 01EBC30B 		add	fp, r1, r3, lsl #3
 1156              	.LVL155:
1070:Drivers/CMSIS/DSP/Source/TransformFunctions/arm_cfft_radix4_q31.c **** 
 1157              		.loc 1 1070 5 view .LVU445
 1158 001e 1393     		str	r3, [sp, #76]
1068:Drivers/CMSIS/DSP/Source/TransformFunctions/arm_cfft_radix4_q31.c **** 
 1159              		.loc 1 1068 7 view .LVU446
 1160 0020 0023     		movs	r3, #0
 1161              	.LVL156:
1068:Drivers/CMSIS/DSP/Source/TransformFunctions/arm_cfft_radix4_q31.c **** 
 1162              		.loc 1 1068 7 view .LVU447
 1163 0022 0093     		str	r3, [sp]
 1164 0024 8246     		mov	r10, r0
 1165 0026 C846     		mov	r8, r9
ARM GAS  C:\Users\17832\AppData\Local\Temp\ccW85mhr.s 			page 42


 1166 0028 8946     		mov	r9, r1
 1167              	.LVL157:
 1168              	.L14:
1076:Drivers/CMSIS/DSP/Source/TransformFunctions/arm_cfft_radix4_q31.c **** 
1077:Drivers/CMSIS/DSP/Source/TransformFunctions/arm_cfft_radix4_q31.c ****   do
 1169              		.loc 1 1077 3 is_stmt 1 discriminator 1 view .LVU448
1078:Drivers/CMSIS/DSP/Source/TransformFunctions/arm_cfft_radix4_q31.c ****   {
1079:Drivers/CMSIS/DSP/Source/TransformFunctions/arm_cfft_radix4_q31.c ****     /*  Butterfly implementation */
1080:Drivers/CMSIS/DSP/Source/TransformFunctions/arm_cfft_radix4_q31.c ****     /* xa + xc */
1081:Drivers/CMSIS/DSP/Source/TransformFunctions/arm_cfft_radix4_q31.c ****     r1 = (pSi0[0] >> 4U) + (pSi2[0] >> 4U);
 1170              		.loc 1 1081 5 discriminator 1 view .LVU449
 1171              		.loc 1 1081 15 is_stmt 0 discriminator 1 view .LVU450
 1172 002a DAF80010 		ldr	r1, [r10]
 1173              		.loc 1 1081 33 discriminator 1 view .LVU451
 1174 002e D9F80030 		ldr	r3, [r9]
 1175              		.loc 1 1081 37 discriminator 1 view .LVU452
 1176 0032 1B11     		asrs	r3, r3, #4
 1177              		.loc 1 1081 8 discriminator 1 view .LVU453
 1178 0034 03EB2112 		add	r2, r3, r1, asr #4
 1179              	.LVL158:
1082:Drivers/CMSIS/DSP/Source/TransformFunctions/arm_cfft_radix4_q31.c ****     /* xa - xc */
1083:Drivers/CMSIS/DSP/Source/TransformFunctions/arm_cfft_radix4_q31.c ****     r2 = (pSi0[0] >> 4U) - (pSi2[0] >> 4U);
 1180              		.loc 1 1083 5 is_stmt 1 discriminator 1 view .LVU454
 1181              		.loc 1 1083 8 is_stmt 0 discriminator 1 view .LVU455
 1182 0038 C3EB2113 		rsb	r3, r3, r1, asr #4
 1183 003c 0193     		str	r3, [sp, #4]
 1184              	.LVL159:
1084:Drivers/CMSIS/DSP/Source/TransformFunctions/arm_cfft_radix4_q31.c **** 
1085:Drivers/CMSIS/DSP/Source/TransformFunctions/arm_cfft_radix4_q31.c ****     /* xb + xd */
1086:Drivers/CMSIS/DSP/Source/TransformFunctions/arm_cfft_radix4_q31.c ****     t1 = (pSi1[0] >> 4U) + (pSi3[0] >> 4U);
 1185              		.loc 1 1086 5 is_stmt 1 discriminator 1 view .LVU456
 1186              		.loc 1 1086 15 is_stmt 0 discriminator 1 view .LVU457
 1187 003e D8F80010 		ldr	r1, [r8]
 1188              		.loc 1 1086 33 discriminator 1 view .LVU458
 1189 0042 DBF80030 		ldr	r3, [fp]
 1190              	.LVL160:
 1191              		.loc 1 1086 37 discriminator 1 view .LVU459
 1192 0046 1B11     		asrs	r3, r3, #4
 1193              		.loc 1 1086 8 discriminator 1 view .LVU460
 1194 0048 03EB2111 		add	r1, r3, r1, asr #4
 1195              	.LVL161:
1087:Drivers/CMSIS/DSP/Source/TransformFunctions/arm_cfft_radix4_q31.c **** 
1088:Drivers/CMSIS/DSP/Source/TransformFunctions/arm_cfft_radix4_q31.c ****     /* ya + yc */
1089:Drivers/CMSIS/DSP/Source/TransformFunctions/arm_cfft_radix4_q31.c ****     s1 = (pSi0[1] >> 4U) + (pSi2[1] >> 4U);
 1196              		.loc 1 1089 5 is_stmt 1 discriminator 1 view .LVU461
 1197              		.loc 1 1089 15 is_stmt 0 discriminator 1 view .LVU462
 1198 004c DAF80400 		ldr	r0, [r10, #4]
 1199              		.loc 1 1089 33 discriminator 1 view .LVU463
 1200 0050 D9F80430 		ldr	r3, [r9, #4]
 1201              		.loc 1 1089 37 discriminator 1 view .LVU464
 1202 0054 1B11     		asrs	r3, r3, #4
 1203              		.loc 1 1089 8 discriminator 1 view .LVU465
 1204 0056 03EB2014 		add	r4, r3, r0, asr #4
 1205              	.LVL162:
1090:Drivers/CMSIS/DSP/Source/TransformFunctions/arm_cfft_radix4_q31.c ****     /* ya - yc */
1091:Drivers/CMSIS/DSP/Source/TransformFunctions/arm_cfft_radix4_q31.c ****     s2 = (pSi0[1] >> 4U) - (pSi2[1] >> 4U);
 1206              		.loc 1 1091 5 is_stmt 1 discriminator 1 view .LVU466
ARM GAS  C:\Users\17832\AppData\Local\Temp\ccW85mhr.s 			page 43


 1207              		.loc 1 1091 8 is_stmt 0 discriminator 1 view .LVU467
 1208 005a C3EB2010 		rsb	r0, r3, r0, asr #4
 1209 005e 0290     		str	r0, [sp, #8]
 1210              	.LVL163:
1092:Drivers/CMSIS/DSP/Source/TransformFunctions/arm_cfft_radix4_q31.c **** 
1093:Drivers/CMSIS/DSP/Source/TransformFunctions/arm_cfft_radix4_q31.c ****     /* xa' = xa + xb + xc + xd */
1094:Drivers/CMSIS/DSP/Source/TransformFunctions/arm_cfft_radix4_q31.c ****     *pSi0++ = (r1 + t1);
 1211              		.loc 1 1094 5 is_stmt 1 discriminator 1 view .LVU468
 1212              		.loc 1 1094 19 is_stmt 0 discriminator 1 view .LVU469
 1213 0060 5318     		adds	r3, r2, r1
 1214              		.loc 1 1094 13 discriminator 1 view .LVU470
 1215 0062 CAF80030 		str	r3, [r10]
1095:Drivers/CMSIS/DSP/Source/TransformFunctions/arm_cfft_radix4_q31.c ****     /* (xa + xc) - (xb + xd) */
1096:Drivers/CMSIS/DSP/Source/TransformFunctions/arm_cfft_radix4_q31.c ****     r1 = r1 - t1;
 1216              		.loc 1 1096 5 is_stmt 1 discriminator 1 view .LVU471
 1217              		.loc 1 1096 8 is_stmt 0 discriminator 1 view .LVU472
 1218 0066 521A     		subs	r2, r2, r1
 1219              	.LVL164:
1097:Drivers/CMSIS/DSP/Source/TransformFunctions/arm_cfft_radix4_q31.c ****     /* yb + yd */
1098:Drivers/CMSIS/DSP/Source/TransformFunctions/arm_cfft_radix4_q31.c ****     t2 = (pSi1[1] >> 4U) + (pSi3[1] >> 4U);
 1220              		.loc 1 1098 5 is_stmt 1 discriminator 1 view .LVU473
 1221              		.loc 1 1098 15 is_stmt 0 discriminator 1 view .LVU474
 1222 0068 D8F80400 		ldr	r0, [r8, #4]
 1223              	.LVL165:
 1224              		.loc 1 1098 33 discriminator 1 view .LVU475
 1225 006c DBF80410 		ldr	r1, [fp, #4]
 1226              	.LVL166:
 1227              		.loc 1 1098 37 discriminator 1 view .LVU476
 1228 0070 0B11     		asrs	r3, r1, #4
 1229              		.loc 1 1098 8 discriminator 1 view .LVU477
 1230 0072 03EB2010 		add	r0, r3, r0, asr #4
 1231              	.LVL167:
1099:Drivers/CMSIS/DSP/Source/TransformFunctions/arm_cfft_radix4_q31.c ****     /* ya' = ya + yb + yc + yd */
1100:Drivers/CMSIS/DSP/Source/TransformFunctions/arm_cfft_radix4_q31.c ****     *pSi0++ = (s1 + t2);
 1232              		.loc 1 1100 5 is_stmt 1 discriminator 1 view .LVU478
 1233 0076 5346     		mov	r3, r10
 1234              		.loc 1 1100 10 is_stmt 0 discriminator 1 view .LVU479
 1235 0078 0AF1080A 		add	r10, r10, #8
 1236              	.LVL168:
 1237              		.loc 1 1100 19 discriminator 1 view .LVU480
 1238 007c 2118     		adds	r1, r4, r0
 1239              		.loc 1 1100 13 discriminator 1 view .LVU481
 1240 007e 5960     		str	r1, [r3, #4]
1101:Drivers/CMSIS/DSP/Source/TransformFunctions/arm_cfft_radix4_q31.c **** 
1102:Drivers/CMSIS/DSP/Source/TransformFunctions/arm_cfft_radix4_q31.c ****     /* (ya + yc) - (yb + yd) */
1103:Drivers/CMSIS/DSP/Source/TransformFunctions/arm_cfft_radix4_q31.c ****     s1 = s1 - t2;
 1241              		.loc 1 1103 5 is_stmt 1 discriminator 1 view .LVU482
 1242              		.loc 1 1103 8 is_stmt 0 discriminator 1 view .LVU483
 1243 0080 231A     		subs	r3, r4, r0
 1244              	.LVL169:
1104:Drivers/CMSIS/DSP/Source/TransformFunctions/arm_cfft_radix4_q31.c **** 
1105:Drivers/CMSIS/DSP/Source/TransformFunctions/arm_cfft_radix4_q31.c ****     /* yb - yd */
1106:Drivers/CMSIS/DSP/Source/TransformFunctions/arm_cfft_radix4_q31.c ****     t1 = (pSi1[1] >> 4U) - (pSi3[1] >> 4U);
 1245              		.loc 1 1106 5 is_stmt 1 discriminator 1 view .LVU484
 1246              		.loc 1 1106 15 is_stmt 0 discriminator 1 view .LVU485
 1247 0082 D8F80400 		ldr	r0, [r8, #4]
 1248              	.LVL170:
ARM GAS  C:\Users\17832\AppData\Local\Temp\ccW85mhr.s 			page 44


 1249              		.loc 1 1106 33 discriminator 1 view .LVU486
 1250 0086 DBF80410 		ldr	r1, [fp, #4]
 1251              		.loc 1 1106 37 discriminator 1 view .LVU487
 1252 008a 0911     		asrs	r1, r1, #4
 1253              		.loc 1 1106 8 discriminator 1 view .LVU488
 1254 008c C1EB201E 		rsb	lr, r1, r0, asr #4
 1255              	.LVL171:
1107:Drivers/CMSIS/DSP/Source/TransformFunctions/arm_cfft_radix4_q31.c ****     /* xb - xd */
1108:Drivers/CMSIS/DSP/Source/TransformFunctions/arm_cfft_radix4_q31.c ****     t2 = (pSi1[0] >> 4U) - (pSi3[0] >> 4U);
 1256              		.loc 1 1108 5 is_stmt 1 discriminator 1 view .LVU489
 1257              		.loc 1 1108 15 is_stmt 0 discriminator 1 view .LVU490
 1258 0090 D8F80000 		ldr	r0, [r8]
 1259              		.loc 1 1108 33 discriminator 1 view .LVU491
 1260 0094 DBF80010 		ldr	r1, [fp]
 1261              		.loc 1 1108 37 discriminator 1 view .LVU492
 1262 0098 0911     		asrs	r1, r1, #4
 1263              		.loc 1 1108 8 discriminator 1 view .LVU493
 1264 009a C1EB2011 		rsb	r1, r1, r0, asr #4
 1265 009e 0491     		str	r1, [sp, #16]
 1266              	.LVL172:
1109:Drivers/CMSIS/DSP/Source/TransformFunctions/arm_cfft_radix4_q31.c **** 
1110:Drivers/CMSIS/DSP/Source/TransformFunctions/arm_cfft_radix4_q31.c ****     /*  index calculation for the coefficients */
1111:Drivers/CMSIS/DSP/Source/TransformFunctions/arm_cfft_radix4_q31.c ****     ia2 = 2U * ia1;
 1267              		.loc 1 1111 5 is_stmt 1 discriminator 1 view .LVU494
1112:Drivers/CMSIS/DSP/Source/TransformFunctions/arm_cfft_radix4_q31.c ****     co2 = pCoef[ia2 * 2U];
 1268              		.loc 1 1112 5 discriminator 1 view .LVU495
 1269              		.loc 1 1112 16 is_stmt 0 discriminator 1 view .LVU496
 1270 00a0 009C     		ldr	r4, [sp]
 1271 00a2 2101     		lsls	r1, r4, #4
 1272              	.LVL173:
 1273              		.loc 1 1112 9 discriminator 1 view .LVU497
 1274 00a4 1098     		ldr	r0, [sp, #64]
 1275 00a6 4558     		ldr	r5, [r0, r1]
 1276              	.LVL174:
1113:Drivers/CMSIS/DSP/Source/TransformFunctions/arm_cfft_radix4_q31.c ****     si2 = pCoef[(ia2 * 2U) + 1U];
 1277              		.loc 1 1113 5 is_stmt 1 discriminator 1 view .LVU498
 1278              		.loc 1 1113 16 is_stmt 0 discriminator 1 view .LVU499
 1279 00a8 0431     		adds	r1, r1, #4
 1280              		.loc 1 1113 9 discriminator 1 view .LVU500
 1281 00aa 4158     		ldr	r1, [r0, r1]
 1282              	.LVL175:
1114:Drivers/CMSIS/DSP/Source/TransformFunctions/arm_cfft_radix4_q31.c **** 
1115:Drivers/CMSIS/DSP/Source/TransformFunctions/arm_cfft_radix4_q31.c ****     /* xc' = (xa-xb+xc-xd)co2 - (ya-yb+yc-yd)(si2) */
1116:Drivers/CMSIS/DSP/Source/TransformFunctions/arm_cfft_radix4_q31.c ****     *pSi1++ = (((int32_t) (((q63_t) r1 * co2) >> 32)) -
 1283              		.loc 1 1116 5 is_stmt 1 discriminator 1 view .LVU501
 1284              		.loc 1 1116 29 is_stmt 0 discriminator 1 view .LVU502
 1285 00ac 4FEAE27C 		asr	ip, r2, #31
 1286              		.loc 1 1116 40 discriminator 1 view .LVU503
 1287 00b0 EE17     		asrs	r6, r5, #31
 1288 00b2 0596     		str	r6, [sp, #20]
 1289 00b4 02FB06F0 		mul	r0, r2, r6
 1290 00b8 05FB0C00 		mla	r0, r5, ip, r0
 1291 00bc 0392     		str	r2, [sp, #12]
 1292 00be A2FB0564 		umull	r6, r4, r2, r5
 1293 00c2 2044     		add	r0, r0, r4
1117:Drivers/CMSIS/DSP/Source/TransformFunctions/arm_cfft_radix4_q31.c ****                      ((int32_t) (((q63_t) s1 * si2) >> 32))) << 1U;
 1294              		.loc 1 1117 35 discriminator 1 view .LVU504
ARM GAS  C:\Users\17832\AppData\Local\Temp\ccW85mhr.s 			page 45


 1295 00c4 DE17     		asrs	r6, r3, #31
 1296              		.loc 1 1117 46 discriminator 1 view .LVU505
 1297 00c6 CC17     		asrs	r4, r1, #31
 1298 00c8 03FB04F7 		mul	r7, r3, r4
 1299 00cc 01FB0677 		mla	r7, r1, r6, r7
 1300 00d0 0697     		str	r7, [sp, #24]
 1301 00d2 A3FB0172 		umull	r7, r2, r3, r1
 1302              	.LVL176:
 1303              		.loc 1 1117 46 discriminator 1 view .LVU506
 1304 00d6 069F     		ldr	r7, [sp, #24]
 1305 00d8 1744     		add	r7, r7, r2
1116:Drivers/CMSIS/DSP/Source/TransformFunctions/arm_cfft_radix4_q31.c ****                      ((int32_t) (((q63_t) s1 * si2) >> 32))) << 1U;
 1306              		.loc 1 1116 55 discriminator 1 view .LVU507
 1307 00da C01B     		subs	r0, r0, r7
 1308              	.LVL177:
 1309              		.loc 1 1117 62 discriminator 1 view .LVU508
 1310 00dc 4000     		lsls	r0, r0, #1
1116:Drivers/CMSIS/DSP/Source/TransformFunctions/arm_cfft_radix4_q31.c ****                      ((int32_t) (((q63_t) s1 * si2) >> 32))) << 1U;
 1311              		.loc 1 1116 13 discriminator 1 view .LVU509
 1312 00de C8F80000 		str	r0, [r8]
1118:Drivers/CMSIS/DSP/Source/TransformFunctions/arm_cfft_radix4_q31.c **** 
1119:Drivers/CMSIS/DSP/Source/TransformFunctions/arm_cfft_radix4_q31.c ****     /* yc' = (ya-yb+yc-yd)co2 + (xa-xb+xc-xd)(si2) */
1120:Drivers/CMSIS/DSP/Source/TransformFunctions/arm_cfft_radix4_q31.c ****     *pSi1++ = (((int32_t) (((q63_t) s1 * co2) >> 32)) +
 1313              		.loc 1 1120 5 is_stmt 1 discriminator 1 view .LVU510
 1314              		.loc 1 1120 40 is_stmt 0 discriminator 1 view .LVU511
 1315 00e2 05FB06F6 		mul	r6, r5, r6
 1316 00e6 059F     		ldr	r7, [sp, #20]
 1317 00e8 03FB0766 		mla	r6, r3, r7, r6
 1318 00ec A5FB0353 		umull	r5, r3, r5, r3
 1319              	.LVL178:
 1320              		.loc 1 1120 40 discriminator 1 view .LVU512
 1321 00f0 3344     		add	r3, r3, r6
1121:Drivers/CMSIS/DSP/Source/TransformFunctions/arm_cfft_radix4_q31.c ****                           ((int32_t) (((q63_t) r1 * si2) >> 32))) << 1U;
 1322              		.loc 1 1121 51 discriminator 1 view .LVU513
 1323 00f2 039A     		ldr	r2, [sp, #12]
 1324 00f4 02FB04F4 		mul	r4, r2, r4
 1325 00f8 01FB0C44 		mla	r4, r1, ip, r4
 1326 00fc A2FB0121 		umull	r2, r1, r2, r1
 1327              	.LVL179:
 1328              		.loc 1 1121 51 discriminator 1 view .LVU514
 1329 0100 2144     		add	r1, r1, r4
1120:Drivers/CMSIS/DSP/Source/TransformFunctions/arm_cfft_radix4_q31.c ****                           ((int32_t) (((q63_t) r1 * si2) >> 32))) << 1U;
 1330              		.loc 1 1120 55 discriminator 1 view .LVU515
 1331 0102 0B44     		add	r3, r3, r1
 1332 0104 4246     		mov	r2, r8
1120:Drivers/CMSIS/DSP/Source/TransformFunctions/arm_cfft_radix4_q31.c ****                           ((int32_t) (((q63_t) r1 * si2) >> 32))) << 1U;
 1333              		.loc 1 1120 10 discriminator 1 view .LVU516
 1334 0106 08F10808 		add	r8, r8, #8
 1335              	.LVL180:
 1336              		.loc 1 1121 67 discriminator 1 view .LVU517
 1337 010a 5B00     		lsls	r3, r3, #1
1120:Drivers/CMSIS/DSP/Source/TransformFunctions/arm_cfft_radix4_q31.c ****                           ((int32_t) (((q63_t) r1 * si2) >> 32))) << 1U;
 1338              		.loc 1 1120 13 discriminator 1 view .LVU518
 1339 010c 5360     		str	r3, [r2, #4]
1122:Drivers/CMSIS/DSP/Source/TransformFunctions/arm_cfft_radix4_q31.c **** 
1123:Drivers/CMSIS/DSP/Source/TransformFunctions/arm_cfft_radix4_q31.c ****     /* (xa - xc) - (yb - yd) */
1124:Drivers/CMSIS/DSP/Source/TransformFunctions/arm_cfft_radix4_q31.c ****     r1 = r2 - t1;
ARM GAS  C:\Users\17832\AppData\Local\Temp\ccW85mhr.s 			page 46


 1340              		.loc 1 1124 5 is_stmt 1 discriminator 1 view .LVU519
 1341              		.loc 1 1124 8 is_stmt 0 discriminator 1 view .LVU520
 1342 010e 019B     		ldr	r3, [sp, #4]
 1343 0110 A3EB0E05 		sub	r5, r3, lr
 1344              	.LVL181:
1125:Drivers/CMSIS/DSP/Source/TransformFunctions/arm_cfft_radix4_q31.c ****     /* (xa - xc) + (yb - yd) */
1126:Drivers/CMSIS/DSP/Source/TransformFunctions/arm_cfft_radix4_q31.c ****     r2 = r2 + t1;
 1345              		.loc 1 1126 5 is_stmt 1 discriminator 1 view .LVU521
 1346              		.loc 1 1126 8 is_stmt 0 discriminator 1 view .LVU522
 1347 0114 9E44     		add	lr, lr, r3
 1348              	.LVL182:
1127:Drivers/CMSIS/DSP/Source/TransformFunctions/arm_cfft_radix4_q31.c **** 
1128:Drivers/CMSIS/DSP/Source/TransformFunctions/arm_cfft_radix4_q31.c ****     /* (ya - yc) + (xb - xd) */
1129:Drivers/CMSIS/DSP/Source/TransformFunctions/arm_cfft_radix4_q31.c ****     s1 = s2 + t2;
 1349              		.loc 1 1129 5 is_stmt 1 discriminator 1 view .LVU523
 1350              		.loc 1 1129 8 is_stmt 0 discriminator 1 view .LVU524
 1351 0116 029B     		ldr	r3, [sp, #8]
 1352 0118 0499     		ldr	r1, [sp, #16]
 1353 011a 5A18     		adds	r2, r3, r1
 1354              	.LVL183:
1130:Drivers/CMSIS/DSP/Source/TransformFunctions/arm_cfft_radix4_q31.c ****     /* (ya - yc) - (xb - xd) */
1131:Drivers/CMSIS/DSP/Source/TransformFunctions/arm_cfft_radix4_q31.c ****     s2 = s2 - t2;
 1355              		.loc 1 1131 5 is_stmt 1 discriminator 1 view .LVU525
 1356              		.loc 1 1131 8 is_stmt 0 discriminator 1 view .LVU526
 1357 011c 5B1A     		subs	r3, r3, r1
 1358 011e 0193     		str	r3, [sp, #4]
 1359              	.LVL184:
1132:Drivers/CMSIS/DSP/Source/TransformFunctions/arm_cfft_radix4_q31.c **** 
1133:Drivers/CMSIS/DSP/Source/TransformFunctions/arm_cfft_radix4_q31.c ****     co1 = pCoef[ia1 * 2U];
 1360              		.loc 1 1133 5 is_stmt 1 discriminator 1 view .LVU527
 1361              		.loc 1 1133 16 is_stmt 0 discriminator 1 view .LVU528
 1362 0120 009C     		ldr	r4, [sp]
 1363 0122 E100     		lsls	r1, r4, #3
 1364              		.loc 1 1133 9 discriminator 1 view .LVU529
 1365 0124 1098     		ldr	r0, [sp, #64]
 1366 0126 50F83460 		ldr	r6, [r0, r4, lsl #3]
 1367              	.LVL185:
1134:Drivers/CMSIS/DSP/Source/TransformFunctions/arm_cfft_radix4_q31.c ****     si1 = pCoef[(ia1 * 2U) + 1U];
 1368              		.loc 1 1134 5 is_stmt 1 discriminator 1 view .LVU530
 1369              		.loc 1 1134 16 is_stmt 0 discriminator 1 view .LVU531
 1370 012a 0431     		adds	r1, r1, #4
 1371              		.loc 1 1134 9 discriminator 1 view .LVU532
 1372 012c 4158     		ldr	r1, [r0, r1]
 1373              	.LVL186:
1135:Drivers/CMSIS/DSP/Source/TransformFunctions/arm_cfft_radix4_q31.c **** 
1136:Drivers/CMSIS/DSP/Source/TransformFunctions/arm_cfft_radix4_q31.c ****     /* xb' = (xa+yb-xc-yd)co1 - (ya-xb-yc+xd)(si1) */
1137:Drivers/CMSIS/DSP/Source/TransformFunctions/arm_cfft_radix4_q31.c ****     *pSi2++ = (((int32_t) (((q63_t) r1 * co1) >> 32)) -
 1374              		.loc 1 1137 5 is_stmt 1 discriminator 1 view .LVU533
 1375              		.loc 1 1137 29 is_stmt 0 discriminator 1 view .LVU534
 1376 012e EF17     		asrs	r7, r5, #31
 1377              		.loc 1 1137 40 discriminator 1 view .LVU535
 1378 0130 F417     		asrs	r4, r6, #31
 1379 0132 0394     		str	r4, [sp, #12]
 1380 0134 05FB04F0 		mul	r0, r5, r4
 1381 0138 0297     		str	r7, [sp, #8]
 1382 013a 06FB0700 		mla	r0, r6, r7, r0
 1383 013e A5FB0674 		umull	r7, r4, r5, r6
ARM GAS  C:\Users\17832\AppData\Local\Temp\ccW85mhr.s 			page 47


 1384 0142 0319     		adds	r3, r0, r4
 1385              	.LVL187:
 1386              		.loc 1 1137 40 discriminator 1 view .LVU536
 1387 0144 0493     		str	r3, [sp, #16]
 1388              	.LVL188:
1138:Drivers/CMSIS/DSP/Source/TransformFunctions/arm_cfft_radix4_q31.c ****                      ((int32_t) (((q63_t) s1 * si1) >> 32))) << 1U;
 1389              		.loc 1 1138 35 discriminator 1 view .LVU537
 1390 0146 D717     		asrs	r7, r2, #31
 1391              		.loc 1 1138 46 discriminator 1 view .LVU538
 1392 0148 CC17     		asrs	r4, r1, #31
 1393 014a 02FB04FC 		mul	ip, r2, r4
 1394 014e 01FB07C0 		mla	r0, r1, r7, ip
 1395 0152 A2FB01C3 		umull	ip, r3, r2, r1
 1396 0156 1844     		add	r0, r0, r3
1137:Drivers/CMSIS/DSP/Source/TransformFunctions/arm_cfft_radix4_q31.c ****                      ((int32_t) (((q63_t) s1 * si1) >> 32))) << 1U;
 1397              		.loc 1 1137 55 discriminator 1 view .LVU539
 1398 0158 049B     		ldr	r3, [sp, #16]
 1399 015a 181A     		subs	r0, r3, r0
 1400              	.LVL189:
 1401              		.loc 1 1138 62 discriminator 1 view .LVU540
 1402 015c 4000     		lsls	r0, r0, #1
1137:Drivers/CMSIS/DSP/Source/TransformFunctions/arm_cfft_radix4_q31.c ****                      ((int32_t) (((q63_t) s1 * si1) >> 32))) << 1U;
 1403              		.loc 1 1137 13 discriminator 1 view .LVU541
 1404 015e C9F80000 		str	r0, [r9]
1139:Drivers/CMSIS/DSP/Source/TransformFunctions/arm_cfft_radix4_q31.c **** 
1140:Drivers/CMSIS/DSP/Source/TransformFunctions/arm_cfft_radix4_q31.c ****     /* yb' = (ya-xb-yc+xd)co1 + (xa+yb-xc-yd)(si1) */
1141:Drivers/CMSIS/DSP/Source/TransformFunctions/arm_cfft_radix4_q31.c ****     *pSi2++ = (((int32_t) (((q63_t) s1 * co1) >> 32)) +
 1405              		.loc 1 1141 5 is_stmt 1 discriminator 1 view .LVU542
 1406              		.loc 1 1141 40 is_stmt 0 discriminator 1 view .LVU543
 1407 0162 06FB07F7 		mul	r7, r6, r7
 1408 0166 0398     		ldr	r0, [sp, #12]
 1409 0168 02FB0077 		mla	r7, r2, r0, r7
 1410 016c A6FB0262 		umull	r6, r2, r6, r2
 1411              	.LVL190:
 1412              		.loc 1 1141 40 discriminator 1 view .LVU544
 1413 0170 3A44     		add	r2, r2, r7
1142:Drivers/CMSIS/DSP/Source/TransformFunctions/arm_cfft_radix4_q31.c ****                             ((int32_t) (((q63_t) r1 * si1) >> 32))) << 1U;
 1414              		.loc 1 1142 53 discriminator 1 view .LVU545
 1415 0172 05FB04F4 		mul	r4, r5, r4
 1416 0176 029F     		ldr	r7, [sp, #8]
 1417 0178 01FB0744 		mla	r4, r1, r7, r4
 1418 017c A5FB0151 		umull	r5, r1, r5, r1
 1419              	.LVL191:
 1420              		.loc 1 1142 53 discriminator 1 view .LVU546
 1421 0180 2144     		add	r1, r1, r4
1141:Drivers/CMSIS/DSP/Source/TransformFunctions/arm_cfft_radix4_q31.c ****                             ((int32_t) (((q63_t) r1 * si1) >> 32))) << 1U;
 1422              		.loc 1 1141 55 discriminator 1 view .LVU547
 1423 0182 0A44     		add	r2, r2, r1
 1424 0184 4946     		mov	r1, r9
1141:Drivers/CMSIS/DSP/Source/TransformFunctions/arm_cfft_radix4_q31.c ****                             ((int32_t) (((q63_t) r1 * si1) >> 32))) << 1U;
 1425              		.loc 1 1141 10 discriminator 1 view .LVU548
 1426 0186 09F10809 		add	r9, r9, #8
 1427              	.LVL192:
 1428              		.loc 1 1142 69 discriminator 1 view .LVU549
 1429 018a 5200     		lsls	r2, r2, #1
1141:Drivers/CMSIS/DSP/Source/TransformFunctions/arm_cfft_radix4_q31.c ****                             ((int32_t) (((q63_t) r1 * si1) >> 32))) << 1U;
 1430              		.loc 1 1141 13 discriminator 1 view .LVU550
ARM GAS  C:\Users\17832\AppData\Local\Temp\ccW85mhr.s 			page 48


 1431 018c 4A60     		str	r2, [r1, #4]
1143:Drivers/CMSIS/DSP/Source/TransformFunctions/arm_cfft_radix4_q31.c **** 
1144:Drivers/CMSIS/DSP/Source/TransformFunctions/arm_cfft_radix4_q31.c ****     /*  index calculation for the coefficients */
1145:Drivers/CMSIS/DSP/Source/TransformFunctions/arm_cfft_radix4_q31.c ****     ia3 = 3U * ia1;
 1432              		.loc 1 1145 5 is_stmt 1 discriminator 1 view .LVU551
 1433              	.LVL193:
1146:Drivers/CMSIS/DSP/Source/TransformFunctions/arm_cfft_radix4_q31.c ****     co3 = pCoef[ia3 * 2U];
 1434              		.loc 1 1146 5 discriminator 1 view .LVU552
 1435              		.loc 1 1146 16 is_stmt 0 discriminator 1 view .LVU553
 1436 018e 009C     		ldr	r4, [sp]
 1437 0190 04EB4402 		add	r2, r4, r4, lsl #1
 1438 0194 D200     		lsls	r2, r2, #3
 1439              		.loc 1 1146 9 discriminator 1 view .LVU554
 1440 0196 1098     		ldr	r0, [sp, #64]
 1441 0198 8458     		ldr	r4, [r0, r2]
 1442              	.LVL194:
1147:Drivers/CMSIS/DSP/Source/TransformFunctions/arm_cfft_radix4_q31.c ****     si3 = pCoef[(ia3 * 2U) + 1U];
 1443              		.loc 1 1147 5 is_stmt 1 discriminator 1 view .LVU555
 1444              		.loc 1 1147 16 is_stmt 0 discriminator 1 view .LVU556
 1445 019a 0432     		adds	r2, r2, #4
 1446              		.loc 1 1147 9 discriminator 1 view .LVU557
 1447 019c 8258     		ldr	r2, [r0, r2]
 1448              	.LVL195:
1148:Drivers/CMSIS/DSP/Source/TransformFunctions/arm_cfft_radix4_q31.c **** 
1149:Drivers/CMSIS/DSP/Source/TransformFunctions/arm_cfft_radix4_q31.c ****     /* xd' = (xa-yb-xc+yd)co3 - (ya+xb-yc-xd)(si3) */
1150:Drivers/CMSIS/DSP/Source/TransformFunctions/arm_cfft_radix4_q31.c ****     *pSi3++ = (((int32_t) (((q63_t) r2 * co3) >> 32)) -
 1449              		.loc 1 1150 5 is_stmt 1 discriminator 1 view .LVU558
 1450              		.loc 1 1150 29 is_stmt 0 discriminator 1 view .LVU559
 1451 019e 4FEAEE77 		asr	r7, lr, #31
 1452              		.loc 1 1150 40 discriminator 1 view .LVU560
 1453 01a2 4FEAE47C 		asr	ip, r4, #31
 1454 01a6 0EFB0CF1 		mul	r1, lr, ip
 1455 01aa 04FB0711 		mla	r1, r4, r7, r1
 1456 01ae AEFB0450 		umull	r5, r0, lr, r4
 1457 01b2 0144     		add	r1, r1, r0
 1458 01b4 0291     		str	r1, [sp, #8]
1151:Drivers/CMSIS/DSP/Source/TransformFunctions/arm_cfft_radix4_q31.c ****                      ((int32_t) (((q63_t) s2 * si3) >> 32))) << 1U;
 1459              		.loc 1 1151 35 discriminator 1 view .LVU561
 1460 01b6 019B     		ldr	r3, [sp, #4]
 1461 01b8 DD17     		asrs	r5, r3, #31
 1462              		.loc 1 1151 46 discriminator 1 view .LVU562
 1463 01ba D017     		asrs	r0, r2, #31
 1464 01bc 03FB00F6 		mul	r6, r3, r0
 1465 01c0 02FB0566 		mla	r6, r2, r5, r6
 1466 01c4 A3FB0213 		umull	r1, r3, r3, r2
 1467 01c8 1E44     		add	r6, r6, r3
1150:Drivers/CMSIS/DSP/Source/TransformFunctions/arm_cfft_radix4_q31.c ****                      ((int32_t) (((q63_t) s2 * si3) >> 32))) << 1U;
 1468              		.loc 1 1150 55 discriminator 1 view .LVU563
 1469 01ca 0299     		ldr	r1, [sp, #8]
 1470 01cc 891B     		subs	r1, r1, r6
 1471              	.LVL196:
 1472              		.loc 1 1151 62 discriminator 1 view .LVU564
 1473 01ce 4900     		lsls	r1, r1, #1
1150:Drivers/CMSIS/DSP/Source/TransformFunctions/arm_cfft_radix4_q31.c ****                      ((int32_t) (((q63_t) s2 * si3) >> 32))) << 1U;
 1474              		.loc 1 1150 13 discriminator 1 view .LVU565
 1475 01d0 CBF80010 		str	r1, [fp]
1152:Drivers/CMSIS/DSP/Source/TransformFunctions/arm_cfft_radix4_q31.c **** 
ARM GAS  C:\Users\17832\AppData\Local\Temp\ccW85mhr.s 			page 49


1153:Drivers/CMSIS/DSP/Source/TransformFunctions/arm_cfft_radix4_q31.c ****     /* yd' = (ya+xb-yc-xd)co3 + (xa-yb-xc+yd)(si3) */
1154:Drivers/CMSIS/DSP/Source/TransformFunctions/arm_cfft_radix4_q31.c ****     *pSi3++ = (((int32_t) (((q63_t) s2 * co3) >> 32)) +
 1476              		.loc 1 1154 5 is_stmt 1 discriminator 1 view .LVU566
 1477              		.loc 1 1154 40 is_stmt 0 discriminator 1 view .LVU567
 1478 01d4 04FB05F5 		mul	r5, r4, r5
 1479 01d8 019B     		ldr	r3, [sp, #4]
 1480 01da 03FB0C55 		mla	r5, r3, ip, r5
 1481 01de A4FB0343 		umull	r4, r3, r4, r3
 1482              	.LVL197:
 1483              		.loc 1 1154 40 discriminator 1 view .LVU568
 1484 01e2 2B44     		add	r3, r3, r5
1155:Drivers/CMSIS/DSP/Source/TransformFunctions/arm_cfft_radix4_q31.c ****                             ((int32_t) (((q63_t) r2 * si3) >> 32))) << 1U;
 1485              		.loc 1 1155 53 discriminator 1 view .LVU569
 1486 01e4 0EFB00F0 		mul	r0, lr, r0
 1487 01e8 02FB0707 		mla	r7, r2, r7, r0
 1488 01ec AEFB0212 		umull	r1, r2, lr, r2
 1489              	.LVL198:
 1490              		.loc 1 1155 53 discriminator 1 view .LVU570
 1491 01f0 3A44     		add	r2, r2, r7
1154:Drivers/CMSIS/DSP/Source/TransformFunctions/arm_cfft_radix4_q31.c ****                             ((int32_t) (((q63_t) r2 * si3) >> 32))) << 1U;
 1492              		.loc 1 1154 55 discriminator 1 view .LVU571
 1493 01f2 1344     		add	r3, r3, r2
 1494 01f4 5A46     		mov	r2, fp
1154:Drivers/CMSIS/DSP/Source/TransformFunctions/arm_cfft_radix4_q31.c ****                             ((int32_t) (((q63_t) r2 * si3) >> 32))) << 1U;
 1495              		.loc 1 1154 10 discriminator 1 view .LVU572
 1496 01f6 0BF1080B 		add	fp, fp, #8
 1497              	.LVL199:
 1498              		.loc 1 1155 69 discriminator 1 view .LVU573
 1499 01fa 5B00     		lsls	r3, r3, #1
1154:Drivers/CMSIS/DSP/Source/TransformFunctions/arm_cfft_radix4_q31.c ****                             ((int32_t) (((q63_t) r2 * si3) >> 32))) << 1U;
 1500              		.loc 1 1154 13 discriminator 1 view .LVU574
 1501 01fc 5360     		str	r3, [r2, #4]
1156:Drivers/CMSIS/DSP/Source/TransformFunctions/arm_cfft_radix4_q31.c **** 
1157:Drivers/CMSIS/DSP/Source/TransformFunctions/arm_cfft_radix4_q31.c ****     /*  Twiddle coefficients index modifier */
1158:Drivers/CMSIS/DSP/Source/TransformFunctions/arm_cfft_radix4_q31.c ****     ia1 = ia1 + twidCoefModifier;
 1502              		.loc 1 1158 5 is_stmt 1 discriminator 1 view .LVU575
 1503              		.loc 1 1158 9 is_stmt 0 discriminator 1 view .LVU576
 1504 01fe 009C     		ldr	r4, [sp]
 1505 0200 079B     		ldr	r3, [sp, #28]
 1506 0202 E318     		adds	r3, r4, r3
 1507 0204 0093     		str	r3, [sp]
 1508              	.LVL200:
1159:Drivers/CMSIS/DSP/Source/TransformFunctions/arm_cfft_radix4_q31.c **** 
1160:Drivers/CMSIS/DSP/Source/TransformFunctions/arm_cfft_radix4_q31.c ****   } while (--j);
 1509              		.loc 1 1160 11 is_stmt 1 discriminator 1 view .LVU577
 1510              		.loc 1 1160 3 is_stmt 0 discriminator 1 view .LVU578
 1511 0206 139B     		ldr	r3, [sp, #76]
 1512              	.LVL201:
 1513              		.loc 1 1160 3 discriminator 1 view .LVU579
 1514 0208 013B     		subs	r3, r3, #1
 1515              	.LVL202:
 1516              		.loc 1 1160 3 discriminator 1 view .LVU580
 1517 020a 1393     		str	r3, [sp, #76]
 1518 020c 7FF40DAF 		bne	.L14
1161:Drivers/CMSIS/DSP/Source/TransformFunctions/arm_cfft_radix4_q31.c **** 
1162:Drivers/CMSIS/DSP/Source/TransformFunctions/arm_cfft_radix4_q31.c ****   /* data is in 5.27(q27) format */
1163:Drivers/CMSIS/DSP/Source/TransformFunctions/arm_cfft_radix4_q31.c ****   /* each stage provides two down scaling of the input */
ARM GAS  C:\Users\17832\AppData\Local\Temp\ccW85mhr.s 			page 50


1164:Drivers/CMSIS/DSP/Source/TransformFunctions/arm_cfft_radix4_q31.c **** 
1165:Drivers/CMSIS/DSP/Source/TransformFunctions/arm_cfft_radix4_q31.c **** 
1166:Drivers/CMSIS/DSP/Source/TransformFunctions/arm_cfft_radix4_q31.c ****   /* Start of Middle stages process */
1167:Drivers/CMSIS/DSP/Source/TransformFunctions/arm_cfft_radix4_q31.c **** 
1168:Drivers/CMSIS/DSP/Source/TransformFunctions/arm_cfft_radix4_q31.c ****   twidCoefModifier <<= 2U;
 1519              		.loc 1 1168 3 is_stmt 1 view .LVU581
 1520              		.loc 1 1168 20 is_stmt 0 view .LVU582
 1521 0210 079B     		ldr	r3, [sp, #28]
 1522              	.LVL203:
 1523              		.loc 1 1168 20 view .LVU583
 1524 0212 9B00     		lsls	r3, r3, #2
 1525 0214 1193     		str	r3, [sp, #68]
 1526              	.LVL204:
1169:Drivers/CMSIS/DSP/Source/TransformFunctions/arm_cfft_radix4_q31.c **** 
1170:Drivers/CMSIS/DSP/Source/TransformFunctions/arm_cfft_radix4_q31.c ****   /*  Calculation of second stage to excluding last stage */
1171:Drivers/CMSIS/DSP/Source/TransformFunctions/arm_cfft_radix4_q31.c ****   for (k = fftLen / 4U; k > 4U; k >>= 2U)
 1527              		.loc 1 1171 3 is_stmt 1 view .LVU584
 1528              		.loc 1 1171 10 is_stmt 0 view .LVU585
 1529 0216 0B9B     		ldr	r3, [sp, #44]
 1530              	.LVL205:
 1531              		.loc 1 1171 10 view .LVU586
 1532 0218 9B08     		lsrs	r3, r3, #2
 1533 021a 1493     		str	r3, [sp, #80]
 1534              	.LVL206:
1066:Drivers/CMSIS/DSP/Source/TransformFunctions/arm_cfft_radix4_q31.c **** 
 1535              		.loc 1 1066 6 view .LVU587
 1536 021c 159B     		ldr	r3, [sp, #84]
 1537              	.LVL207:
1066:Drivers/CMSIS/DSP/Source/TransformFunctions/arm_cfft_radix4_q31.c **** 
 1538              		.loc 1 1066 6 view .LVU588
 1539 021e 0093     		str	r3, [sp]
 1540              	.LVL208:
 1541              		.loc 1 1171 3 view .LVU589
 1542 0220 16E1     		b	.L15
 1543              	.LVL209:
 1544              	.L18:
1172:Drivers/CMSIS/DSP/Source/TransformFunctions/arm_cfft_radix4_q31.c ****   {
1173:Drivers/CMSIS/DSP/Source/TransformFunctions/arm_cfft_radix4_q31.c ****     /*  Initializations for the first stage */
1174:Drivers/CMSIS/DSP/Source/TransformFunctions/arm_cfft_radix4_q31.c ****     n1 = n2;
1175:Drivers/CMSIS/DSP/Source/TransformFunctions/arm_cfft_radix4_q31.c ****     n2 >>= 2U;
1176:Drivers/CMSIS/DSP/Source/TransformFunctions/arm_cfft_radix4_q31.c ****     ia1 = 0U;
1177:Drivers/CMSIS/DSP/Source/TransformFunctions/arm_cfft_radix4_q31.c **** 
1178:Drivers/CMSIS/DSP/Source/TransformFunctions/arm_cfft_radix4_q31.c ****     for (j = 0; j <= (n2 - 1U); j++)
1179:Drivers/CMSIS/DSP/Source/TransformFunctions/arm_cfft_radix4_q31.c ****     {
1180:Drivers/CMSIS/DSP/Source/TransformFunctions/arm_cfft_radix4_q31.c ****       /*  index calculation for the coefficients */
1181:Drivers/CMSIS/DSP/Source/TransformFunctions/arm_cfft_radix4_q31.c ****       ia2 = ia1 + ia1;
1182:Drivers/CMSIS/DSP/Source/TransformFunctions/arm_cfft_radix4_q31.c ****       ia3 = ia2 + ia1;
1183:Drivers/CMSIS/DSP/Source/TransformFunctions/arm_cfft_radix4_q31.c ****       co1 = pCoef[ia1 * 2U];
1184:Drivers/CMSIS/DSP/Source/TransformFunctions/arm_cfft_radix4_q31.c ****       si1 = pCoef[(ia1 * 2U) + 1U];
1185:Drivers/CMSIS/DSP/Source/TransformFunctions/arm_cfft_radix4_q31.c ****       co2 = pCoef[ia2 * 2U];
1186:Drivers/CMSIS/DSP/Source/TransformFunctions/arm_cfft_radix4_q31.c ****       si2 = pCoef[(ia2 * 2U) + 1U];
1187:Drivers/CMSIS/DSP/Source/TransformFunctions/arm_cfft_radix4_q31.c ****       co3 = pCoef[ia3 * 2U];
1188:Drivers/CMSIS/DSP/Source/TransformFunctions/arm_cfft_radix4_q31.c ****       si3 = pCoef[(ia3 * 2U) + 1U];
1189:Drivers/CMSIS/DSP/Source/TransformFunctions/arm_cfft_radix4_q31.c ****       /*  Twiddle coefficients index modifier */
1190:Drivers/CMSIS/DSP/Source/TransformFunctions/arm_cfft_radix4_q31.c ****       ia1 = ia1 + twidCoefModifier;
1191:Drivers/CMSIS/DSP/Source/TransformFunctions/arm_cfft_radix4_q31.c **** 
1192:Drivers/CMSIS/DSP/Source/TransformFunctions/arm_cfft_radix4_q31.c ****       pSi0 = pSrc + 2 * j;
ARM GAS  C:\Users\17832\AppData\Local\Temp\ccW85mhr.s 			page 51


1193:Drivers/CMSIS/DSP/Source/TransformFunctions/arm_cfft_radix4_q31.c ****       pSi1 = pSi0 + 2 * n2;
1194:Drivers/CMSIS/DSP/Source/TransformFunctions/arm_cfft_radix4_q31.c ****       pSi2 = pSi1 + 2 * n2;
1195:Drivers/CMSIS/DSP/Source/TransformFunctions/arm_cfft_radix4_q31.c ****       pSi3 = pSi2 + 2 * n2;
1196:Drivers/CMSIS/DSP/Source/TransformFunctions/arm_cfft_radix4_q31.c **** 
1197:Drivers/CMSIS/DSP/Source/TransformFunctions/arm_cfft_radix4_q31.c ****       for (i0 = j; i0 < fftLen; i0 += n1)
1198:Drivers/CMSIS/DSP/Source/TransformFunctions/arm_cfft_radix4_q31.c ****       {
1199:Drivers/CMSIS/DSP/Source/TransformFunctions/arm_cfft_radix4_q31.c ****         /*  Butterfly implementation */
1200:Drivers/CMSIS/DSP/Source/TransformFunctions/arm_cfft_radix4_q31.c ****         /* xa + xc */
1201:Drivers/CMSIS/DSP/Source/TransformFunctions/arm_cfft_radix4_q31.c ****         r1 = pSi0[0] + pSi2[0];
 1545              		.loc 1 1201 9 is_stmt 1 discriminator 3 view .LVU590
 1546              		.loc 1 1201 18 is_stmt 0 discriminator 3 view .LVU591
 1547 0222 D8F80010 		ldr	r1, [r8]
 1548              		.loc 1 1201 28 discriminator 3 view .LVU592
 1549 0226 D9F80030 		ldr	r3, [r9]
 1550              	.LVL210:
 1551              		.loc 1 1201 12 discriminator 3 view .LVU593
 1552 022a CA18     		adds	r2, r1, r3
 1553              	.LVL211:
1202:Drivers/CMSIS/DSP/Source/TransformFunctions/arm_cfft_radix4_q31.c **** 
1203:Drivers/CMSIS/DSP/Source/TransformFunctions/arm_cfft_radix4_q31.c ****         /* xa - xc */
1204:Drivers/CMSIS/DSP/Source/TransformFunctions/arm_cfft_radix4_q31.c ****         r2 = pSi0[0] - pSi2[0];
 1554              		.loc 1 1204 9 is_stmt 1 discriminator 3 view .LVU594
 1555              		.loc 1 1204 12 is_stmt 0 discriminator 3 view .LVU595
 1556 022c CB1A     		subs	r3, r1, r3
 1557 022e 0893     		str	r3, [sp, #32]
 1558              	.LVL212:
1205:Drivers/CMSIS/DSP/Source/TransformFunctions/arm_cfft_radix4_q31.c **** 
1206:Drivers/CMSIS/DSP/Source/TransformFunctions/arm_cfft_radix4_q31.c **** 
1207:Drivers/CMSIS/DSP/Source/TransformFunctions/arm_cfft_radix4_q31.c ****         /* ya + yc */
1208:Drivers/CMSIS/DSP/Source/TransformFunctions/arm_cfft_radix4_q31.c ****         s1 = pSi0[1] + pSi2[1];
 1559              		.loc 1 1208 9 is_stmt 1 discriminator 3 view .LVU596
 1560              		.loc 1 1208 18 is_stmt 0 discriminator 3 view .LVU597
 1561 0230 D8F80400 		ldr	r0, [r8, #4]
 1562              		.loc 1 1208 28 discriminator 3 view .LVU598
 1563 0234 D9F80430 		ldr	r3, [r9, #4]
 1564              	.LVL213:
 1565              		.loc 1 1208 12 discriminator 3 view .LVU599
 1566 0238 C118     		adds	r1, r0, r3
 1567              	.LVL214:
1209:Drivers/CMSIS/DSP/Source/TransformFunctions/arm_cfft_radix4_q31.c **** 
1210:Drivers/CMSIS/DSP/Source/TransformFunctions/arm_cfft_radix4_q31.c ****         /* ya - yc */
1211:Drivers/CMSIS/DSP/Source/TransformFunctions/arm_cfft_radix4_q31.c ****         s2 = pSi0[1] - pSi2[1];
 1568              		.loc 1 1211 9 is_stmt 1 discriminator 3 view .LVU600
 1569              		.loc 1 1211 12 is_stmt 0 discriminator 3 view .LVU601
 1570 023a C01A     		subs	r0, r0, r3
 1571 023c 0990     		str	r0, [sp, #36]
 1572              	.LVL215:
1212:Drivers/CMSIS/DSP/Source/TransformFunctions/arm_cfft_radix4_q31.c **** 
1213:Drivers/CMSIS/DSP/Source/TransformFunctions/arm_cfft_radix4_q31.c **** 
1214:Drivers/CMSIS/DSP/Source/TransformFunctions/arm_cfft_radix4_q31.c ****         /* xb + xd */
1215:Drivers/CMSIS/DSP/Source/TransformFunctions/arm_cfft_radix4_q31.c ****         t1 = pSi1[0] + pSi3[0];
 1573              		.loc 1 1215 9 is_stmt 1 discriminator 3 view .LVU602
 1574              		.loc 1 1215 18 is_stmt 0 discriminator 3 view .LVU603
 1575 023e DBF80000 		ldr	r0, [fp]
 1576              	.LVL216:
 1577              		.loc 1 1215 28 discriminator 3 view .LVU604
 1578 0242 DAF80030 		ldr	r3, [r10]
ARM GAS  C:\Users\17832\AppData\Local\Temp\ccW85mhr.s 			page 52


 1579              		.loc 1 1215 12 discriminator 3 view .LVU605
 1580 0246 0344     		add	r3, r3, r0
 1581              	.LVL217:
1216:Drivers/CMSIS/DSP/Source/TransformFunctions/arm_cfft_radix4_q31.c **** 
1217:Drivers/CMSIS/DSP/Source/TransformFunctions/arm_cfft_radix4_q31.c **** 
1218:Drivers/CMSIS/DSP/Source/TransformFunctions/arm_cfft_radix4_q31.c ****         /* xa' = xa + xb + xc + xd */
1219:Drivers/CMSIS/DSP/Source/TransformFunctions/arm_cfft_radix4_q31.c ****         pSi0[0] = (r1 + t1) >> 2U;
 1582              		.loc 1 1219 9 is_stmt 1 discriminator 3 view .LVU606
 1583              		.loc 1 1219 23 is_stmt 0 discriminator 3 view .LVU607
 1584 0248 D418     		adds	r4, r2, r3
 1585              		.loc 1 1219 29 discriminator 3 view .LVU608
 1586 024a A410     		asrs	r4, r4, #2
 1587              		.loc 1 1219 17 discriminator 3 view .LVU609
 1588 024c C8F80040 		str	r4, [r8]
1220:Drivers/CMSIS/DSP/Source/TransformFunctions/arm_cfft_radix4_q31.c ****         /* xa + xc -(xb + xd) */
1221:Drivers/CMSIS/DSP/Source/TransformFunctions/arm_cfft_radix4_q31.c ****         r1 = r1 - t1;
 1589              		.loc 1 1221 9 is_stmt 1 discriminator 3 view .LVU610
 1590              		.loc 1 1221 12 is_stmt 0 discriminator 3 view .LVU611
 1591 0250 D21A     		subs	r2, r2, r3
 1592              	.LVL218:
1222:Drivers/CMSIS/DSP/Source/TransformFunctions/arm_cfft_radix4_q31.c ****         /* yb + yd */
1223:Drivers/CMSIS/DSP/Source/TransformFunctions/arm_cfft_radix4_q31.c ****         t2 = pSi1[1] + pSi3[1];
 1593              		.loc 1 1223 9 is_stmt 1 discriminator 3 view .LVU612
 1594              		.loc 1 1223 18 is_stmt 0 discriminator 3 view .LVU613
 1595 0252 DBF80400 		ldr	r0, [fp, #4]
 1596              		.loc 1 1223 28 discriminator 3 view .LVU614
 1597 0256 DAF80430 		ldr	r3, [r10, #4]
 1598              	.LVL219:
 1599              		.loc 1 1223 12 discriminator 3 view .LVU615
 1600 025a 0344     		add	r3, r3, r0
 1601              	.LVL220:
1224:Drivers/CMSIS/DSP/Source/TransformFunctions/arm_cfft_radix4_q31.c **** 
1225:Drivers/CMSIS/DSP/Source/TransformFunctions/arm_cfft_radix4_q31.c ****         /* ya' = ya + yb + yc + yd */
1226:Drivers/CMSIS/DSP/Source/TransformFunctions/arm_cfft_radix4_q31.c ****         pSi0[1] = (s1 + t2) >> 2U;
 1602              		.loc 1 1226 9 is_stmt 1 discriminator 3 view .LVU616
 1603              		.loc 1 1226 23 is_stmt 0 discriminator 3 view .LVU617
 1604 025c CC18     		adds	r4, r1, r3
 1605              		.loc 1 1226 29 discriminator 3 view .LVU618
 1606 025e A410     		asrs	r4, r4, #2
 1607              		.loc 1 1226 17 discriminator 3 view .LVU619
 1608 0260 C8F80440 		str	r4, [r8, #4]
1227:Drivers/CMSIS/DSP/Source/TransformFunctions/arm_cfft_radix4_q31.c ****         pSi0 += 2 * n1;
 1609              		.loc 1 1227 9 is_stmt 1 discriminator 3 view .LVU620
 1610              		.loc 1 1227 14 is_stmt 0 discriminator 3 view .LVU621
 1611 0264 0098     		ldr	r0, [sp]
 1612 0266 08EBC008 		add	r8, r8, r0, lsl #3
 1613              	.LVL221:
1228:Drivers/CMSIS/DSP/Source/TransformFunctions/arm_cfft_radix4_q31.c **** 
1229:Drivers/CMSIS/DSP/Source/TransformFunctions/arm_cfft_radix4_q31.c ****         /* (ya + yc) - (yb + yd) */
1230:Drivers/CMSIS/DSP/Source/TransformFunctions/arm_cfft_radix4_q31.c ****         s1 = s1 - t2;
 1614              		.loc 1 1230 9 is_stmt 1 discriminator 3 view .LVU622
 1615              		.loc 1 1230 12 is_stmt 0 discriminator 3 view .LVU623
 1616 026a C91A     		subs	r1, r1, r3
 1617              	.LVL222:
1231:Drivers/CMSIS/DSP/Source/TransformFunctions/arm_cfft_radix4_q31.c **** 
1232:Drivers/CMSIS/DSP/Source/TransformFunctions/arm_cfft_radix4_q31.c ****         /* (yb - yd) */
1233:Drivers/CMSIS/DSP/Source/TransformFunctions/arm_cfft_radix4_q31.c ****         t1 = pSi1[1] - pSi3[1];
ARM GAS  C:\Users\17832\AppData\Local\Temp\ccW85mhr.s 			page 53


 1618              		.loc 1 1233 9 is_stmt 1 discriminator 3 view .LVU624
 1619              		.loc 1 1233 18 is_stmt 0 discriminator 3 view .LVU625
 1620 026c DBF80400 		ldr	r0, [fp, #4]
 1621              		.loc 1 1233 28 discriminator 3 view .LVU626
 1622 0270 DAF80430 		ldr	r3, [r10, #4]
 1623              	.LVL223:
 1624              		.loc 1 1233 12 discriminator 3 view .LVU627
 1625 0274 C31A     		subs	r3, r0, r3
 1626              	.LVL224:
1234:Drivers/CMSIS/DSP/Source/TransformFunctions/arm_cfft_radix4_q31.c **** 
1235:Drivers/CMSIS/DSP/Source/TransformFunctions/arm_cfft_radix4_q31.c ****         /* (xb - xd) */
1236:Drivers/CMSIS/DSP/Source/TransformFunctions/arm_cfft_radix4_q31.c ****         t2 = pSi1[0] - pSi3[0];
 1627              		.loc 1 1236 9 is_stmt 1 discriminator 3 view .LVU628
 1628              		.loc 1 1236 18 is_stmt 0 discriminator 3 view .LVU629
 1629 0276 DBF80070 		ldr	r7, [fp]
 1630              		.loc 1 1236 28 discriminator 3 view .LVU630
 1631 027a DAF80000 		ldr	r0, [r10]
 1632              		.loc 1 1236 12 discriminator 3 view .LVU631
 1633 027e 3F1A     		subs	r7, r7, r0
 1634              	.LVL225:
1237:Drivers/CMSIS/DSP/Source/TransformFunctions/arm_cfft_radix4_q31.c **** 
1238:Drivers/CMSIS/DSP/Source/TransformFunctions/arm_cfft_radix4_q31.c **** 
1239:Drivers/CMSIS/DSP/Source/TransformFunctions/arm_cfft_radix4_q31.c ****         /* xc' = (xa-xb+xc-xd)co2 - (ya-yb+yc-yd)(si2) */
1240:Drivers/CMSIS/DSP/Source/TransformFunctions/arm_cfft_radix4_q31.c ****         pSi1[0] = (((int32_t) (((q63_t) r1 * co2) >> 32U)) -
 1635              		.loc 1 1240 9 is_stmt 1 discriminator 3 view .LVU632
 1636              		.loc 1 1240 33 is_stmt 0 discriminator 3 view .LVU633
 1637 0280 4FEAE27C 		asr	ip, r2, #31
 1638              		.loc 1 1240 44 discriminator 3 view .LVU634
 1639 0284 059E     		ldr	r6, [sp, #20]
 1640 0286 4FEAE67E 		asr	lr, r6, #31
 1641 028a 02FB0EF0 		mul	r0, r2, lr
 1642 028e 06FB0C00 		mla	r0, r6, ip, r0
 1643 0292 A2FB0654 		umull	r5, r4, r2, r6
 1644 0296 2044     		add	r0, r0, r4
1241:Drivers/CMSIS/DSP/Source/TransformFunctions/arm_cfft_radix4_q31.c ****                          ((int32_t) (((q63_t) s1 * si2) >> 32U))) >> 1U;
 1645              		.loc 1 1241 39 discriminator 3 view .LVU635
 1646 0298 CD17     		asrs	r5, r1, #31
 1647 029a 0195     		str	r5, [sp, #4]
 1648              		.loc 1 1241 50 discriminator 3 view .LVU636
 1649 029c 069C     		ldr	r4, [sp, #24]
 1650 029e E517     		asrs	r5, r4, #31
 1651 02a0 0A95     		str	r5, [sp, #40]
 1652 02a2 01FB05F6 		mul	r6, r1, r5
 1653 02a6 019D     		ldr	r5, [sp, #4]
 1654 02a8 04FB0566 		mla	r6, r4, r5, r6
 1655 02ac A1FB0454 		umull	r5, r4, r1, r4
 1656 02b0 2644     		add	r6, r6, r4
1240:Drivers/CMSIS/DSP/Source/TransformFunctions/arm_cfft_radix4_q31.c ****                          ((int32_t) (((q63_t) s1 * si2) >> 32U))) >> 1U;
 1657              		.loc 1 1240 60 discriminator 3 view .LVU637
 1658 02b2 861B     		subs	r6, r0, r6
 1659              		.loc 1 1241 67 discriminator 3 view .LVU638
 1660 02b4 7610     		asrs	r6, r6, #1
1240:Drivers/CMSIS/DSP/Source/TransformFunctions/arm_cfft_radix4_q31.c ****                          ((int32_t) (((q63_t) s1 * si2) >> 32U))) >> 1U;
 1661              		.loc 1 1240 17 discriminator 3 view .LVU639
 1662 02b6 CBF80060 		str	r6, [fp]
1242:Drivers/CMSIS/DSP/Source/TransformFunctions/arm_cfft_radix4_q31.c **** 
1243:Drivers/CMSIS/DSP/Source/TransformFunctions/arm_cfft_radix4_q31.c ****         /* yc' = (ya-yb+yc-yd)co2 + (xa-xb+xc-xd)(si2) */
ARM GAS  C:\Users\17832\AppData\Local\Temp\ccW85mhr.s 			page 54


1244:Drivers/CMSIS/DSP/Source/TransformFunctions/arm_cfft_radix4_q31.c ****         pSi1[1] =
 1663              		.loc 1 1244 9 is_stmt 1 discriminator 3 view .LVU640
1245:Drivers/CMSIS/DSP/Source/TransformFunctions/arm_cfft_radix4_q31.c **** 
1246:Drivers/CMSIS/DSP/Source/TransformFunctions/arm_cfft_radix4_q31.c ****           (((int32_t) (((q63_t) s1 * co2) >> 32U)) +
 1664              		.loc 1 1246 36 is_stmt 0 discriminator 3 view .LVU641
 1665 02ba 059E     		ldr	r6, [sp, #20]
 1666 02bc 0198     		ldr	r0, [sp, #4]
 1667 02be 06FB00F0 		mul	r0, r6, r0
 1668 02c2 01FB0E0E 		mla	lr, r1, lr, r0
 1669 02c6 A6FB0115 		umull	r1, r5, r6, r1
 1670              	.LVL226:
 1671              		.loc 1 1246 36 discriminator 3 view .LVU642
 1672 02ca AE44     		add	lr, lr, r5
1247:Drivers/CMSIS/DSP/Source/TransformFunctions/arm_cfft_radix4_q31.c ****            ((int32_t) (((q63_t) r1 * si2) >> 32U))) >> 1U;
 1673              		.loc 1 1247 36 discriminator 3 view .LVU643
 1674 02cc 0A9C     		ldr	r4, [sp, #40]
 1675 02ce 02FB04F4 		mul	r4, r2, r4
 1676 02d2 0699     		ldr	r1, [sp, #24]
 1677 02d4 01FB0C4C 		mla	ip, r1, ip, r4
 1678 02d8 A2FB0124 		umull	r2, r4, r2, r1
 1679              	.LVL227:
 1680              		.loc 1 1247 36 discriminator 3 view .LVU644
 1681 02dc A444     		add	ip, ip, r4
1246:Drivers/CMSIS/DSP/Source/TransformFunctions/arm_cfft_radix4_q31.c ****            ((int32_t) (((q63_t) r1 * si2) >> 32U))) >> 1U;
 1682              		.loc 1 1246 52 discriminator 3 view .LVU645
 1683 02de E644     		add	lr, lr, ip
 1684              		.loc 1 1247 53 discriminator 3 view .LVU646
 1685 02e0 4FEA6E05 		asr	r5, lr, #1
1244:Drivers/CMSIS/DSP/Source/TransformFunctions/arm_cfft_radix4_q31.c **** 
 1686              		.loc 1 1244 17 discriminator 3 view .LVU647
 1687 02e4 CBF80450 		str	r5, [fp, #4]
1248:Drivers/CMSIS/DSP/Source/TransformFunctions/arm_cfft_radix4_q31.c ****         pSi1 += 2 * n1;
 1688              		.loc 1 1248 9 is_stmt 1 discriminator 3 view .LVU648
 1689              		.loc 1 1248 14 is_stmt 0 discriminator 3 view .LVU649
 1690 02e8 0098     		ldr	r0, [sp]
 1691 02ea 0BEBC00B 		add	fp, fp, r0, lsl #3
 1692              	.LVL228:
1249:Drivers/CMSIS/DSP/Source/TransformFunctions/arm_cfft_radix4_q31.c **** 
1250:Drivers/CMSIS/DSP/Source/TransformFunctions/arm_cfft_radix4_q31.c ****         /* (xa - xc) - (yb - yd) */
1251:Drivers/CMSIS/DSP/Source/TransformFunctions/arm_cfft_radix4_q31.c ****         r1 = r2 - t1;
 1693              		.loc 1 1251 9 is_stmt 1 discriminator 3 view .LVU650
 1694              		.loc 1 1251 12 is_stmt 0 discriminator 3 view .LVU651
 1695 02ee 089A     		ldr	r2, [sp, #32]
 1696 02f0 D01A     		subs	r0, r2, r3
 1697              	.LVL229:
1252:Drivers/CMSIS/DSP/Source/TransformFunctions/arm_cfft_radix4_q31.c ****         /* (xa - xc) + (yb - yd) */
1253:Drivers/CMSIS/DSP/Source/TransformFunctions/arm_cfft_radix4_q31.c ****         r2 = r2 + t1;
 1698              		.loc 1 1253 9 is_stmt 1 discriminator 3 view .LVU652
 1699              		.loc 1 1253 12 is_stmt 0 discriminator 3 view .LVU653
 1700 02f2 1344     		add	r3, r3, r2
 1701              	.LVL230:
1254:Drivers/CMSIS/DSP/Source/TransformFunctions/arm_cfft_radix4_q31.c **** 
1255:Drivers/CMSIS/DSP/Source/TransformFunctions/arm_cfft_radix4_q31.c ****         /* (ya - yc) +  (xb - xd) */
1256:Drivers/CMSIS/DSP/Source/TransformFunctions/arm_cfft_radix4_q31.c ****         s1 = s2 + t2;
 1702              		.loc 1 1256 9 is_stmt 1 discriminator 3 view .LVU654
 1703              		.loc 1 1256 12 is_stmt 0 discriminator 3 view .LVU655
 1704 02f4 099A     		ldr	r2, [sp, #36]
ARM GAS  C:\Users\17832\AppData\Local\Temp\ccW85mhr.s 			page 55


 1705 02f6 D419     		adds	r4, r2, r7
 1706              	.LVL231:
1257:Drivers/CMSIS/DSP/Source/TransformFunctions/arm_cfft_radix4_q31.c ****         /* (ya - yc) -  (xb - xd) */
1258:Drivers/CMSIS/DSP/Source/TransformFunctions/arm_cfft_radix4_q31.c ****         s2 = s2 - t2;
 1707              		.loc 1 1258 9 is_stmt 1 discriminator 3 view .LVU656
 1708              		.loc 1 1258 12 is_stmt 0 discriminator 3 view .LVU657
 1709 02f8 D71B     		subs	r7, r2, r7
 1710              	.LVL232:
1259:Drivers/CMSIS/DSP/Source/TransformFunctions/arm_cfft_radix4_q31.c **** 
1260:Drivers/CMSIS/DSP/Source/TransformFunctions/arm_cfft_radix4_q31.c ****         /* xb' = (xa+yb-xc-yd)co1 - (ya-xb-yc+xd)(si1) */
1261:Drivers/CMSIS/DSP/Source/TransformFunctions/arm_cfft_radix4_q31.c ****         pSi2[0] = (((int32_t) (((q63_t) r1 * co1) >> 32)) -
 1711              		.loc 1 1261 9 is_stmt 1 discriminator 3 view .LVU658
 1712              		.loc 1 1261 33 is_stmt 0 discriminator 3 view .LVU659
 1713 02fa 4FEAE07C 		asr	ip, r0, #31
 1714              		.loc 1 1261 44 discriminator 3 view .LVU660
 1715 02fe 0399     		ldr	r1, [sp, #12]
 1716 0300 4FEAE17E 		asr	lr, r1, #31
 1717 0304 00FB0EF2 		mul	r2, r0, lr
 1718 0308 01FB0C22 		mla	r2, r1, ip, r2
 1719 030c A0FB0151 		umull	r5, r1, r0, r1
 1720 0310 0A44     		add	r2, r2, r1
1262:Drivers/CMSIS/DSP/Source/TransformFunctions/arm_cfft_radix4_q31.c ****                          ((int32_t) (((q63_t) s1 * si1) >> 32))) >> 1U;
 1721              		.loc 1 1262 39 discriminator 3 view .LVU661
 1722 0312 0194     		str	r4, [sp, #4]
 1723 0314 E517     		asrs	r5, r4, #31
 1724              		.loc 1 1262 50 discriminator 3 view .LVU662
 1725 0316 049C     		ldr	r4, [sp, #16]
 1726              	.LVL233:
 1727              		.loc 1 1262 50 discriminator 3 view .LVU663
 1728 0318 E117     		asrs	r1, r4, #31
 1729 031a 019E     		ldr	r6, [sp, #4]
 1730 031c 06FB01F6 		mul	r6, r6, r1
 1731 0320 04FB0566 		mla	r6, r4, r5, r6
 1732 0324 0896     		str	r6, [sp, #32]
 1733 0326 019E     		ldr	r6, [sp, #4]
 1734 0328 A6FB0464 		umull	r6, r4, r6, r4
 1735 032c 089E     		ldr	r6, [sp, #32]
 1736 032e 2644     		add	r6, r6, r4
1261:Drivers/CMSIS/DSP/Source/TransformFunctions/arm_cfft_radix4_q31.c ****                          ((int32_t) (((q63_t) s1 * si1) >> 32))) >> 1U;
 1737              		.loc 1 1261 59 discriminator 3 view .LVU664
 1738 0330 961B     		subs	r6, r2, r6
 1739              		.loc 1 1262 66 discriminator 3 view .LVU665
 1740 0332 7610     		asrs	r6, r6, #1
1261:Drivers/CMSIS/DSP/Source/TransformFunctions/arm_cfft_radix4_q31.c ****                          ((int32_t) (((q63_t) s1 * si1) >> 32))) >> 1U;
 1741              		.loc 1 1261 17 discriminator 3 view .LVU666
 1742 0334 C9F80060 		str	r6, [r9]
1263:Drivers/CMSIS/DSP/Source/TransformFunctions/arm_cfft_radix4_q31.c **** 
1264:Drivers/CMSIS/DSP/Source/TransformFunctions/arm_cfft_radix4_q31.c ****         /* yb' = (ya-xb-yc+xd)co1 + (xa+yb-xc-yd)(si1) */
1265:Drivers/CMSIS/DSP/Source/TransformFunctions/arm_cfft_radix4_q31.c ****         pSi2[1] = (((int32_t) (((q63_t) s1 * co1) >> 32)) +
 1743              		.loc 1 1265 9 is_stmt 1 discriminator 3 view .LVU667
 1744              		.loc 1 1265 44 is_stmt 0 discriminator 3 view .LVU668
 1745 0338 039A     		ldr	r2, [sp, #12]
 1746 033a 02FB05F5 		mul	r5, r2, r5
 1747 033e 019C     		ldr	r4, [sp, #4]
 1748 0340 04FB0E5E 		mla	lr, r4, lr, r5
 1749 0344 A2FB0445 		umull	r4, r5, r2, r4
 1750 0348 AE44     		add	lr, lr, r5
ARM GAS  C:\Users\17832\AppData\Local\Temp\ccW85mhr.s 			page 56


1266:Drivers/CMSIS/DSP/Source/TransformFunctions/arm_cfft_radix4_q31.c ****                                 ((int32_t) (((q63_t) r1 * si1) >> 32))) >> 1U;
 1751              		.loc 1 1266 57 discriminator 3 view .LVU669
 1752 034a 00FB01F1 		mul	r1, r0, r1
 1753 034e 049A     		ldr	r2, [sp, #16]
 1754 0350 02FB0C1C 		mla	ip, r2, ip, r1
 1755 0354 A0FB0201 		umull	r0, r1, r0, r2
 1756              	.LVL234:
 1757              		.loc 1 1266 57 discriminator 3 view .LVU670
 1758 0358 8C44     		add	ip, ip, r1
1265:Drivers/CMSIS/DSP/Source/TransformFunctions/arm_cfft_radix4_q31.c ****                                 ((int32_t) (((q63_t) r1 * si1) >> 32))) >> 1U;
 1759              		.loc 1 1265 59 discriminator 3 view .LVU671
 1760 035a E644     		add	lr, lr, ip
 1761              		.loc 1 1266 73 discriminator 3 view .LVU672
 1762 035c 4FEA6E05 		asr	r5, lr, #1
1265:Drivers/CMSIS/DSP/Source/TransformFunctions/arm_cfft_radix4_q31.c ****                                 ((int32_t) (((q63_t) r1 * si1) >> 32))) >> 1U;
 1763              		.loc 1 1265 17 discriminator 3 view .LVU673
 1764 0360 C9F80450 		str	r5, [r9, #4]
1267:Drivers/CMSIS/DSP/Source/TransformFunctions/arm_cfft_radix4_q31.c ****         pSi2 += 2 * n1;
 1765              		.loc 1 1267 9 is_stmt 1 discriminator 3 view .LVU674
 1766              		.loc 1 1267 14 is_stmt 0 discriminator 3 view .LVU675
 1767 0364 0098     		ldr	r0, [sp]
 1768 0366 09EBC009 		add	r9, r9, r0, lsl #3
 1769              	.LVL235:
1268:Drivers/CMSIS/DSP/Source/TransformFunctions/arm_cfft_radix4_q31.c **** 
1269:Drivers/CMSIS/DSP/Source/TransformFunctions/arm_cfft_radix4_q31.c ****         /* xd' = (xa-yb-xc+yd)co3 - (ya+xb-yc-xd)(si3) */
1270:Drivers/CMSIS/DSP/Source/TransformFunctions/arm_cfft_radix4_q31.c ****         pSi3[0] = (((int32_t) (((q63_t) r2 * co3) >> 32)) -
 1770              		.loc 1 1270 9 is_stmt 1 discriminator 3 view .LVU676
 1771              		.loc 1 1270 33 is_stmt 0 discriminator 3 view .LVU677
 1772 036a D817     		asrs	r0, r3, #31
 1773              		.loc 1 1270 44 discriminator 3 view .LVU678
 1774 036c 0799     		ldr	r1, [sp, #28]
 1775 036e CE17     		asrs	r6, r1, #31
 1776 0370 03FB06F2 		mul	r2, r3, r6
 1777 0374 0190     		str	r0, [sp, #4]
 1778              	.LVL236:
 1779              		.loc 1 1270 44 discriminator 3 view .LVU679
 1780 0376 01FB0022 		mla	r2, r1, r0, r2
 1781 037a A3FB0101 		umull	r0, r1, r3, r1
 1782 037e 0A44     		add	r2, r2, r1
1271:Drivers/CMSIS/DSP/Source/TransformFunctions/arm_cfft_radix4_q31.c ****                            ((int32_t) (((q63_t) s2 * si3) >> 32))) >> 1U;
 1783              		.loc 1 1271 41 discriminator 3 view .LVU680
 1784 0380 F817     		asrs	r0, r7, #31
 1785              		.loc 1 1271 52 discriminator 3 view .LVU681
 1786 0382 0C9D     		ldr	r5, [sp, #48]
 1787 0384 E917     		asrs	r1, r5, #31
 1788 0386 07FB01F4 		mul	r4, r7, r1
 1789 038a 05FB0044 		mla	r4, r5, r0, r4
 1790 038e A7FB05EC 		umull	lr, ip, r7, r5
 1791 0392 6444     		add	r4, r4, ip
1270:Drivers/CMSIS/DSP/Source/TransformFunctions/arm_cfft_radix4_q31.c ****                            ((int32_t) (((q63_t) s2 * si3) >> 32))) >> 1U;
 1792              		.loc 1 1270 59 discriminator 3 view .LVU682
 1793 0394 141B     		subs	r4, r2, r4
 1794              		.loc 1 1271 68 discriminator 3 view .LVU683
 1795 0396 6410     		asrs	r4, r4, #1
1270:Drivers/CMSIS/DSP/Source/TransformFunctions/arm_cfft_radix4_q31.c ****                            ((int32_t) (((q63_t) s2 * si3) >> 32))) >> 1U;
 1796              		.loc 1 1270 17 discriminator 3 view .LVU684
 1797 0398 CAF80040 		str	r4, [r10]
ARM GAS  C:\Users\17832\AppData\Local\Temp\ccW85mhr.s 			page 57


1272:Drivers/CMSIS/DSP/Source/TransformFunctions/arm_cfft_radix4_q31.c **** 
1273:Drivers/CMSIS/DSP/Source/TransformFunctions/arm_cfft_radix4_q31.c ****         /* yd' = (ya+xb-yc-xd)co3 + (xa-yb-xc+yd)(si3) */
1274:Drivers/CMSIS/DSP/Source/TransformFunctions/arm_cfft_radix4_q31.c ****         pSi3[1] = (((int32_t) (((q63_t) s2 * co3) >> 32)) +
 1798              		.loc 1 1274 9 is_stmt 1 discriminator 3 view .LVU685
 1799              		.loc 1 1274 44 is_stmt 0 discriminator 3 view .LVU686
 1800 039c 079A     		ldr	r2, [sp, #28]
 1801 039e 02FB00F0 		mul	r0, r2, r0
 1802 03a2 07FB0606 		mla	r6, r7, r6, r0
 1803 03a6 A2FB0770 		umull	r7, r0, r2, r7
 1804              	.LVL237:
 1805              		.loc 1 1274 44 discriminator 3 view .LVU687
 1806 03aa 0644     		add	r6, r6, r0
1275:Drivers/CMSIS/DSP/Source/TransformFunctions/arm_cfft_radix4_q31.c ****                                 ((int32_t) (((q63_t) r2 * si3) >> 32))) >> 1U;
 1807              		.loc 1 1275 57 discriminator 3 view .LVU688
 1808 03ac 03FB01F1 		mul	r1, r3, r1
 1809 03b0 2A46     		mov	r2, r5
 1810 03b2 0198     		ldr	r0, [sp, #4]
 1811 03b4 05FB0015 		mla	r5, r5, r0, r1
 1812 03b8 A3FB0231 		umull	r3, r1, r3, r2
 1813              	.LVL238:
 1814              		.loc 1 1275 57 discriminator 3 view .LVU689
 1815 03bc 0D44     		add	r5, r5, r1
1274:Drivers/CMSIS/DSP/Source/TransformFunctions/arm_cfft_radix4_q31.c ****                                 ((int32_t) (((q63_t) r2 * si3) >> 32))) >> 1U;
 1816              		.loc 1 1274 59 discriminator 3 view .LVU690
 1817 03be 2E44     		add	r6, r6, r5
 1818              		.loc 1 1275 73 discriminator 3 view .LVU691
 1819 03c0 7610     		asrs	r6, r6, #1
1274:Drivers/CMSIS/DSP/Source/TransformFunctions/arm_cfft_radix4_q31.c ****                                 ((int32_t) (((q63_t) r2 * si3) >> 32))) >> 1U;
 1820              		.loc 1 1274 17 discriminator 3 view .LVU692
 1821 03c2 CAF80460 		str	r6, [r10, #4]
1276:Drivers/CMSIS/DSP/Source/TransformFunctions/arm_cfft_radix4_q31.c ****         pSi3 += 2 * n1;
 1822              		.loc 1 1276 9 is_stmt 1 discriminator 3 view .LVU693
 1823              		.loc 1 1276 14 is_stmt 0 discriminator 3 view .LVU694
 1824 03c6 009B     		ldr	r3, [sp]
 1825 03c8 0AEBC30A 		add	r10, r10, r3, lsl #3
 1826              	.LVL239:
1197:Drivers/CMSIS/DSP/Source/TransformFunctions/arm_cfft_radix4_q31.c ****       {
 1827              		.loc 1 1197 33 is_stmt 1 discriminator 3 view .LVU695
1197:Drivers/CMSIS/DSP/Source/TransformFunctions/arm_cfft_radix4_q31.c ****       {
 1828              		.loc 1 1197 36 is_stmt 0 discriminator 3 view .LVU696
 1829 03cc 029A     		ldr	r2, [sp, #8]
 1830 03ce 1A44     		add	r2, r2, r3
 1831 03d0 0292     		str	r2, [sp, #8]
 1832              	.LVL240:
 1833              	.L17:
1197:Drivers/CMSIS/DSP/Source/TransformFunctions/arm_cfft_radix4_q31.c ****       {
 1834              		.loc 1 1197 20 is_stmt 1 discriminator 1 view .LVU697
1197:Drivers/CMSIS/DSP/Source/TransformFunctions/arm_cfft_radix4_q31.c ****       {
 1835              		.loc 1 1197 7 is_stmt 0 discriminator 1 view .LVU698
 1836 03d2 029B     		ldr	r3, [sp, #8]
 1837 03d4 0B9A     		ldr	r2, [sp, #44]
 1838 03d6 9342     		cmp	r3, r2
 1839 03d8 FFF423AF 		bcc	.L18
1178:Drivers/CMSIS/DSP/Source/TransformFunctions/arm_cfft_radix4_q31.c ****     {
 1840              		.loc 1 1178 33 is_stmt 1 discriminator 2 view .LVU699
1178:Drivers/CMSIS/DSP/Source/TransformFunctions/arm_cfft_radix4_q31.c ****     {
 1841              		.loc 1 1178 34 is_stmt 0 discriminator 2 view .LVU700
ARM GAS  C:\Users\17832\AppData\Local\Temp\ccW85mhr.s 			page 58


 1842 03dc 0D9B     		ldr	r3, [sp, #52]
 1843 03de 0133     		adds	r3, r3, #1
 1844 03e0 0D93     		str	r3, [sp, #52]
 1845              	.LVL241:
 1846              	.L16:
1178:Drivers/CMSIS/DSP/Source/TransformFunctions/arm_cfft_radix4_q31.c ****     {
 1847              		.loc 1 1178 17 is_stmt 1 discriminator 1 view .LVU701
1178:Drivers/CMSIS/DSP/Source/TransformFunctions/arm_cfft_radix4_q31.c ****     {
 1848              		.loc 1 1178 26 is_stmt 0 discriminator 1 view .LVU702
 1849 03e2 0E9B     		ldr	r3, [sp, #56]
 1850 03e4 013B     		subs	r3, r3, #1
1178:Drivers/CMSIS/DSP/Source/TransformFunctions/arm_cfft_radix4_q31.c ****     {
 1851              		.loc 1 1178 5 discriminator 1 view .LVU703
 1852 03e6 0D9A     		ldr	r2, [sp, #52]
 1853 03e8 9342     		cmp	r3, r2
 1854 03ea 29D3     		bcc	.L23
1181:Drivers/CMSIS/DSP/Source/TransformFunctions/arm_cfft_radix4_q31.c ****       ia3 = ia2 + ia1;
 1855              		.loc 1 1181 7 is_stmt 1 view .LVU704
 1856              	.LVL242:
1182:Drivers/CMSIS/DSP/Source/TransformFunctions/arm_cfft_radix4_q31.c ****       co1 = pCoef[ia1 * 2U];
 1857              		.loc 1 1182 7 view .LVU705
1182:Drivers/CMSIS/DSP/Source/TransformFunctions/arm_cfft_radix4_q31.c ****       co1 = pCoef[ia1 * 2U];
 1858              		.loc 1 1182 11 is_stmt 0 view .LVU706
 1859 03ec 0F98     		ldr	r0, [sp, #60]
 1860 03ee 00EB4002 		add	r2, r0, r0, lsl #1
 1861              	.LVL243:
1183:Drivers/CMSIS/DSP/Source/TransformFunctions/arm_cfft_radix4_q31.c ****       si1 = pCoef[(ia1 * 2U) + 1U];
 1862              		.loc 1 1183 7 is_stmt 1 view .LVU707
1183:Drivers/CMSIS/DSP/Source/TransformFunctions/arm_cfft_radix4_q31.c ****       si1 = pCoef[(ia1 * 2U) + 1U];
 1863              		.loc 1 1183 18 is_stmt 0 view .LVU708
 1864 03f2 C300     		lsls	r3, r0, #3
1183:Drivers/CMSIS/DSP/Source/TransformFunctions/arm_cfft_radix4_q31.c ****       si1 = pCoef[(ia1 * 2U) + 1U];
 1865              		.loc 1 1183 11 view .LVU709
 1866 03f4 1099     		ldr	r1, [sp, #64]
 1867 03f6 51F83040 		ldr	r4, [r1, r0, lsl #3]
 1868 03fa 0394     		str	r4, [sp, #12]
 1869              	.LVL244:
1184:Drivers/CMSIS/DSP/Source/TransformFunctions/arm_cfft_radix4_q31.c ****       co2 = pCoef[ia2 * 2U];
 1870              		.loc 1 1184 7 is_stmt 1 view .LVU710
1184:Drivers/CMSIS/DSP/Source/TransformFunctions/arm_cfft_radix4_q31.c ****       co2 = pCoef[ia2 * 2U];
 1871              		.loc 1 1184 18 is_stmt 0 view .LVU711
 1872 03fc 0433     		adds	r3, r3, #4
1184:Drivers/CMSIS/DSP/Source/TransformFunctions/arm_cfft_radix4_q31.c ****       co2 = pCoef[ia2 * 2U];
 1873              		.loc 1 1184 11 view .LVU712
 1874 03fe CB58     		ldr	r3, [r1, r3]
 1875 0400 0493     		str	r3, [sp, #16]
 1876              	.LVL245:
1185:Drivers/CMSIS/DSP/Source/TransformFunctions/arm_cfft_radix4_q31.c ****       si2 = pCoef[(ia2 * 2U) + 1U];
 1877              		.loc 1 1185 7 is_stmt 1 view .LVU713
1185:Drivers/CMSIS/DSP/Source/TransformFunctions/arm_cfft_radix4_q31.c ****       si2 = pCoef[(ia2 * 2U) + 1U];
 1878              		.loc 1 1185 18 is_stmt 0 view .LVU714
 1879 0402 0301     		lsls	r3, r0, #4
 1880              	.LVL246:
1185:Drivers/CMSIS/DSP/Source/TransformFunctions/arm_cfft_radix4_q31.c ****       si2 = pCoef[(ia2 * 2U) + 1U];
 1881              		.loc 1 1185 11 view .LVU715
 1882 0404 CC58     		ldr	r4, [r1, r3]
 1883              	.LVL247:
ARM GAS  C:\Users\17832\AppData\Local\Temp\ccW85mhr.s 			page 59


1185:Drivers/CMSIS/DSP/Source/TransformFunctions/arm_cfft_radix4_q31.c ****       si2 = pCoef[(ia2 * 2U) + 1U];
 1884              		.loc 1 1185 11 view .LVU716
 1885 0406 0594     		str	r4, [sp, #20]
 1886              	.LVL248:
1186:Drivers/CMSIS/DSP/Source/TransformFunctions/arm_cfft_radix4_q31.c ****       co3 = pCoef[ia3 * 2U];
 1887              		.loc 1 1186 7 is_stmt 1 view .LVU717
1186:Drivers/CMSIS/DSP/Source/TransformFunctions/arm_cfft_radix4_q31.c ****       co3 = pCoef[ia3 * 2U];
 1888              		.loc 1 1186 18 is_stmt 0 view .LVU718
 1889 0408 0433     		adds	r3, r3, #4
1186:Drivers/CMSIS/DSP/Source/TransformFunctions/arm_cfft_radix4_q31.c ****       co3 = pCoef[ia3 * 2U];
 1890              		.loc 1 1186 11 view .LVU719
 1891 040a CB58     		ldr	r3, [r1, r3]
 1892 040c 0693     		str	r3, [sp, #24]
 1893              	.LVL249:
1187:Drivers/CMSIS/DSP/Source/TransformFunctions/arm_cfft_radix4_q31.c ****       si3 = pCoef[(ia3 * 2U) + 1U];
 1894              		.loc 1 1187 7 is_stmt 1 view .LVU720
1187:Drivers/CMSIS/DSP/Source/TransformFunctions/arm_cfft_radix4_q31.c ****       si3 = pCoef[(ia3 * 2U) + 1U];
 1895              		.loc 1 1187 18 is_stmt 0 view .LVU721
 1896 040e D300     		lsls	r3, r2, #3
 1897              	.LVL250:
1187:Drivers/CMSIS/DSP/Source/TransformFunctions/arm_cfft_radix4_q31.c ****       si3 = pCoef[(ia3 * 2U) + 1U];
 1898              		.loc 1 1187 11 view .LVU722
 1899 0410 51F83220 		ldr	r2, [r1, r2, lsl #3]
 1900              	.LVL251:
1187:Drivers/CMSIS/DSP/Source/TransformFunctions/arm_cfft_radix4_q31.c ****       si3 = pCoef[(ia3 * 2U) + 1U];
 1901              		.loc 1 1187 11 view .LVU723
 1902 0414 0792     		str	r2, [sp, #28]
 1903              	.LVL252:
1188:Drivers/CMSIS/DSP/Source/TransformFunctions/arm_cfft_radix4_q31.c ****       /*  Twiddle coefficients index modifier */
 1904              		.loc 1 1188 7 is_stmt 1 view .LVU724
1188:Drivers/CMSIS/DSP/Source/TransformFunctions/arm_cfft_radix4_q31.c ****       /*  Twiddle coefficients index modifier */
 1905              		.loc 1 1188 18 is_stmt 0 view .LVU725
 1906 0416 0433     		adds	r3, r3, #4
1188:Drivers/CMSIS/DSP/Source/TransformFunctions/arm_cfft_radix4_q31.c ****       /*  Twiddle coefficients index modifier */
 1907              		.loc 1 1188 11 view .LVU726
 1908 0418 CB58     		ldr	r3, [r1, r3]
 1909 041a 0C93     		str	r3, [sp, #48]
 1910              	.LVL253:
1190:Drivers/CMSIS/DSP/Source/TransformFunctions/arm_cfft_radix4_q31.c **** 
 1911              		.loc 1 1190 7 is_stmt 1 view .LVU727
1190:Drivers/CMSIS/DSP/Source/TransformFunctions/arm_cfft_radix4_q31.c **** 
 1912              		.loc 1 1190 11 is_stmt 0 view .LVU728
 1913 041c 119B     		ldr	r3, [sp, #68]
 1914              	.LVL254:
1190:Drivers/CMSIS/DSP/Source/TransformFunctions/arm_cfft_radix4_q31.c **** 
 1915              		.loc 1 1190 11 view .LVU729
 1916 041e C318     		adds	r3, r0, r3
 1917 0420 0F93     		str	r3, [sp, #60]
 1918              	.LVL255:
1192:Drivers/CMSIS/DSP/Source/TransformFunctions/arm_cfft_radix4_q31.c ****       pSi1 = pSi0 + 2 * n2;
 1919              		.loc 1 1192 7 is_stmt 1 view .LVU730
1192:Drivers/CMSIS/DSP/Source/TransformFunctions/arm_cfft_radix4_q31.c ****       pSi1 = pSi0 + 2 * n2;
 1920              		.loc 1 1192 12 is_stmt 0 view .LVU731
 1921 0422 129B     		ldr	r3, [sp, #72]
 1922              	.LVL256:
1192:Drivers/CMSIS/DSP/Source/TransformFunctions/arm_cfft_radix4_q31.c ****       pSi1 = pSi0 + 2 * n2;
 1923              		.loc 1 1192 12 view .LVU732
ARM GAS  C:\Users\17832\AppData\Local\Temp\ccW85mhr.s 			page 60


 1924 0424 0D99     		ldr	r1, [sp, #52]
 1925 0426 03EBC103 		add	r3, r3, r1, lsl #3
 1926              	.LVL257:
1193:Drivers/CMSIS/DSP/Source/TransformFunctions/arm_cfft_radix4_q31.c ****       pSi2 = pSi1 + 2 * n2;
 1927              		.loc 1 1193 7 is_stmt 1 view .LVU733
1193:Drivers/CMSIS/DSP/Source/TransformFunctions/arm_cfft_radix4_q31.c ****       pSi2 = pSi1 + 2 * n2;
 1928              		.loc 1 1193 12 is_stmt 0 view .LVU734
 1929 042a 0E9A     		ldr	r2, [sp, #56]
 1930              	.LVL258:
1193:Drivers/CMSIS/DSP/Source/TransformFunctions/arm_cfft_radix4_q31.c ****       pSi2 = pSi1 + 2 * n2;
 1931              		.loc 1 1193 12 view .LVU735
 1932 042c 03EBC20B 		add	fp, r3, r2, lsl #3
 1933              	.LVL259:
1194:Drivers/CMSIS/DSP/Source/TransformFunctions/arm_cfft_radix4_q31.c ****       pSi3 = pSi2 + 2 * n2;
 1934              		.loc 1 1194 7 is_stmt 1 view .LVU736
1194:Drivers/CMSIS/DSP/Source/TransformFunctions/arm_cfft_radix4_q31.c ****       pSi3 = pSi2 + 2 * n2;
 1935              		.loc 1 1194 12 is_stmt 0 view .LVU737
 1936 0430 03EB0210 		add	r0, r3, r2, lsl #4
 1937              	.LVL260:
1195:Drivers/CMSIS/DSP/Source/TransformFunctions/arm_cfft_radix4_q31.c **** 
 1938              		.loc 1 1195 7 is_stmt 1 view .LVU738
1195:Drivers/CMSIS/DSP/Source/TransformFunctions/arm_cfft_radix4_q31.c **** 
 1939              		.loc 1 1195 12 is_stmt 0 view .LVU739
 1940 0434 00EBC20A 		add	r10, r0, r2, lsl #3
 1941              	.LVL261:
1197:Drivers/CMSIS/DSP/Source/TransformFunctions/arm_cfft_radix4_q31.c ****       {
 1942              		.loc 1 1197 7 is_stmt 1 view .LVU740
1197:Drivers/CMSIS/DSP/Source/TransformFunctions/arm_cfft_radix4_q31.c ****       {
 1943              		.loc 1 1197 15 is_stmt 0 view .LVU741
 1944 0438 0291     		str	r1, [sp, #8]
 1945 043a 9846     		mov	r8, r3
 1946 043c 8146     		mov	r9, r0
1197:Drivers/CMSIS/DSP/Source/TransformFunctions/arm_cfft_radix4_q31.c ****       {
 1947              		.loc 1 1197 7 view .LVU742
 1948 043e C8E7     		b	.L17
 1949              	.LVL262:
 1950              	.L23:
1277:Drivers/CMSIS/DSP/Source/TransformFunctions/arm_cfft_radix4_q31.c ****       }
1278:Drivers/CMSIS/DSP/Source/TransformFunctions/arm_cfft_radix4_q31.c ****     }
1279:Drivers/CMSIS/DSP/Source/TransformFunctions/arm_cfft_radix4_q31.c ****     twidCoefModifier <<= 2U;
 1951              		.loc 1 1279 5 is_stmt 1 discriminator 2 view .LVU743
 1952              		.loc 1 1279 22 is_stmt 0 discriminator 2 view .LVU744
 1953 0440 119B     		ldr	r3, [sp, #68]
 1954 0442 9B00     		lsls	r3, r3, #2
 1955 0444 1193     		str	r3, [sp, #68]
 1956              	.LVL263:
1171:Drivers/CMSIS/DSP/Source/TransformFunctions/arm_cfft_radix4_q31.c ****   {
 1957              		.loc 1 1171 33 is_stmt 1 discriminator 2 view .LVU745
1171:Drivers/CMSIS/DSP/Source/TransformFunctions/arm_cfft_radix4_q31.c ****   {
 1958              		.loc 1 1171 35 is_stmt 0 discriminator 2 view .LVU746
 1959 0446 149B     		ldr	r3, [sp, #80]
 1960              	.LVL264:
1171:Drivers/CMSIS/DSP/Source/TransformFunctions/arm_cfft_radix4_q31.c ****   {
 1961              		.loc 1 1171 35 discriminator 2 view .LVU747
 1962 0448 9B08     		lsrs	r3, r3, #2
 1963 044a 1493     		str	r3, [sp, #80]
 1964              	.LVL265:
ARM GAS  C:\Users\17832\AppData\Local\Temp\ccW85mhr.s 			page 61


1175:Drivers/CMSIS/DSP/Source/TransformFunctions/arm_cfft_radix4_q31.c ****     ia1 = 0U;
 1965              		.loc 1 1175 8 discriminator 2 view .LVU748
 1966 044c 0E9B     		ldr	r3, [sp, #56]
 1967              	.LVL266:
1175:Drivers/CMSIS/DSP/Source/TransformFunctions/arm_cfft_radix4_q31.c ****     ia1 = 0U;
 1968              		.loc 1 1175 8 discriminator 2 view .LVU749
 1969 044e 0093     		str	r3, [sp]
 1970              	.LVL267:
 1971              	.L15:
1171:Drivers/CMSIS/DSP/Source/TransformFunctions/arm_cfft_radix4_q31.c ****   {
 1972              		.loc 1 1171 25 is_stmt 1 discriminator 1 view .LVU750
