ARM GAS  C:\Users\17832\AppData\Local\Temp\ccvR8jgi.s 			page 1


   1              		.cpu cortex-m4
   2              		.arch armv7e-m
   3              		.fpu fpv4-sp-d16
   4              		.eabi_attribute 27, 1
   5              		.eabi_attribute 28, 1
   6              		.eabi_attribute 20, 1
   7              		.eabi_attribute 21, 1
   8              		.eabi_attribute 23, 3
   9              		.eabi_attribute 24, 1
  10              		.eabi_attribute 25, 1
  11              		.eabi_attribute 26, 1
  12              		.eabi_attribute 30, 1
  13              		.eabi_attribute 34, 1
  14              		.eabi_attribute 18, 4
  15              		.file	"arm_cfft_f32.c"
  16              		.text
  17              	.Ltext0:
  18              		.cfi_sections	.debug_frame
  19              		.section	.text.arm_cfft_radix8by2_f32,"ax",%progbits
  20              		.align	1
  21              		.global	arm_cfft_radix8by2_f32
  22              		.syntax unified
  23              		.thumb
  24              		.thumb_func
  26              	arm_cfft_radix8by2_f32:
  27              	.LVL0:
  28              	.LFB135:
  29              		.file 1 "Drivers/CMSIS/DSP/Source/TransformFunctions/arm_cfft_f32.c"
   1:Drivers/CMSIS/DSP/Source/TransformFunctions/arm_cfft_f32.c **** /* ----------------------------------------------------------------------
   2:Drivers/CMSIS/DSP/Source/TransformFunctions/arm_cfft_f32.c ****  * Project:      CMSIS DSP Library
   3:Drivers/CMSIS/DSP/Source/TransformFunctions/arm_cfft_f32.c ****  * Title:        arm_cfft_f32.c
   4:Drivers/CMSIS/DSP/Source/TransformFunctions/arm_cfft_f32.c ****  * Description:  Combined Radix Decimation in Frequency CFFT Floating point processing function
   5:Drivers/CMSIS/DSP/Source/TransformFunctions/arm_cfft_f32.c ****  *
   6:Drivers/CMSIS/DSP/Source/TransformFunctions/arm_cfft_f32.c ****  * $Date:        27. January 2017
   7:Drivers/CMSIS/DSP/Source/TransformFunctions/arm_cfft_f32.c ****  * $Revision:    V.1.5.1
   8:Drivers/CMSIS/DSP/Source/TransformFunctions/arm_cfft_f32.c ****  *
   9:Drivers/CMSIS/DSP/Source/TransformFunctions/arm_cfft_f32.c ****  * Target Processor: Cortex-M cores
  10:Drivers/CMSIS/DSP/Source/TransformFunctions/arm_cfft_f32.c ****  * -------------------------------------------------------------------- */
  11:Drivers/CMSIS/DSP/Source/TransformFunctions/arm_cfft_f32.c **** /*
  12:Drivers/CMSIS/DSP/Source/TransformFunctions/arm_cfft_f32.c ****  * Copyright (C) 2010-2017 ARM Limited or its affiliates. All rights reserved.
  13:Drivers/CMSIS/DSP/Source/TransformFunctions/arm_cfft_f32.c ****  *
  14:Drivers/CMSIS/DSP/Source/TransformFunctions/arm_cfft_f32.c ****  * SPDX-License-Identifier: Apache-2.0
  15:Drivers/CMSIS/DSP/Source/TransformFunctions/arm_cfft_f32.c ****  *
  16:Drivers/CMSIS/DSP/Source/TransformFunctions/arm_cfft_f32.c ****  * Licensed under the Apache License, Version 2.0 (the License); you may
  17:Drivers/CMSIS/DSP/Source/TransformFunctions/arm_cfft_f32.c ****  * not use this file except in compliance with the License.
  18:Drivers/CMSIS/DSP/Source/TransformFunctions/arm_cfft_f32.c ****  * You may obtain a copy of the License at
  19:Drivers/CMSIS/DSP/Source/TransformFunctions/arm_cfft_f32.c ****  *
  20:Drivers/CMSIS/DSP/Source/TransformFunctions/arm_cfft_f32.c ****  * www.apache.org/licenses/LICENSE-2.0
  21:Drivers/CMSIS/DSP/Source/TransformFunctions/arm_cfft_f32.c ****  *
  22:Drivers/CMSIS/DSP/Source/TransformFunctions/arm_cfft_f32.c ****  * Unless required by applicable law or agreed to in writing, software
  23:Drivers/CMSIS/DSP/Source/TransformFunctions/arm_cfft_f32.c ****  * distributed under the License is distributed on an AS IS BASIS, WITHOUT
  24:Drivers/CMSIS/DSP/Source/TransformFunctions/arm_cfft_f32.c ****  * WARRANTIES OR CONDITIONS OF ANY KIND, either express or implied.
  25:Drivers/CMSIS/DSP/Source/TransformFunctions/arm_cfft_f32.c ****  * See the License for the specific language governing permissions and
  26:Drivers/CMSIS/DSP/Source/TransformFunctions/arm_cfft_f32.c ****  * limitations under the License.
  27:Drivers/CMSIS/DSP/Source/TransformFunctions/arm_cfft_f32.c ****  */
  28:Drivers/CMSIS/DSP/Source/TransformFunctions/arm_cfft_f32.c **** 
  29:Drivers/CMSIS/DSP/Source/TransformFunctions/arm_cfft_f32.c **** #include "arm_math.h"
ARM GAS  C:\Users\17832\AppData\Local\Temp\ccvR8jgi.s 			page 2


  30:Drivers/CMSIS/DSP/Source/TransformFunctions/arm_cfft_f32.c **** #include "arm_common_tables.h"
  31:Drivers/CMSIS/DSP/Source/TransformFunctions/arm_cfft_f32.c **** 
  32:Drivers/CMSIS/DSP/Source/TransformFunctions/arm_cfft_f32.c **** extern void arm_radix8_butterfly_f32(
  33:Drivers/CMSIS/DSP/Source/TransformFunctions/arm_cfft_f32.c ****     float32_t * pSrc,
  34:Drivers/CMSIS/DSP/Source/TransformFunctions/arm_cfft_f32.c ****     uint16_t fftLen,
  35:Drivers/CMSIS/DSP/Source/TransformFunctions/arm_cfft_f32.c ****     const float32_t * pCoef,
  36:Drivers/CMSIS/DSP/Source/TransformFunctions/arm_cfft_f32.c ****     uint16_t twidCoefModifier);
  37:Drivers/CMSIS/DSP/Source/TransformFunctions/arm_cfft_f32.c **** 
  38:Drivers/CMSIS/DSP/Source/TransformFunctions/arm_cfft_f32.c **** extern void arm_bitreversal_32(
  39:Drivers/CMSIS/DSP/Source/TransformFunctions/arm_cfft_f32.c ****     uint32_t * pSrc,
  40:Drivers/CMSIS/DSP/Source/TransformFunctions/arm_cfft_f32.c ****     const uint16_t bitRevLen,
  41:Drivers/CMSIS/DSP/Source/TransformFunctions/arm_cfft_f32.c ****     const uint16_t * pBitRevTable);
  42:Drivers/CMSIS/DSP/Source/TransformFunctions/arm_cfft_f32.c **** 
  43:Drivers/CMSIS/DSP/Source/TransformFunctions/arm_cfft_f32.c **** /**
  44:Drivers/CMSIS/DSP/Source/TransformFunctions/arm_cfft_f32.c **** * @ingroup groupTransforms
  45:Drivers/CMSIS/DSP/Source/TransformFunctions/arm_cfft_f32.c **** */
  46:Drivers/CMSIS/DSP/Source/TransformFunctions/arm_cfft_f32.c **** 
  47:Drivers/CMSIS/DSP/Source/TransformFunctions/arm_cfft_f32.c **** /**
  48:Drivers/CMSIS/DSP/Source/TransformFunctions/arm_cfft_f32.c **** * @defgroup ComplexFFT Complex FFT Functions
  49:Drivers/CMSIS/DSP/Source/TransformFunctions/arm_cfft_f32.c **** *
  50:Drivers/CMSIS/DSP/Source/TransformFunctions/arm_cfft_f32.c **** * \par
  51:Drivers/CMSIS/DSP/Source/TransformFunctions/arm_cfft_f32.c **** * The Fast Fourier Transform (FFT) is an efficient algorithm for computing the
  52:Drivers/CMSIS/DSP/Source/TransformFunctions/arm_cfft_f32.c **** * Discrete Fourier Transform (DFT).  The FFT can be orders of magnitude faster
  53:Drivers/CMSIS/DSP/Source/TransformFunctions/arm_cfft_f32.c **** * than the DFT, especially for long lengths.
  54:Drivers/CMSIS/DSP/Source/TransformFunctions/arm_cfft_f32.c **** * The algorithms described in this section
  55:Drivers/CMSIS/DSP/Source/TransformFunctions/arm_cfft_f32.c **** * operate on complex data.  A separate set of functions is devoted to handling
  56:Drivers/CMSIS/DSP/Source/TransformFunctions/arm_cfft_f32.c **** * of real sequences.
  57:Drivers/CMSIS/DSP/Source/TransformFunctions/arm_cfft_f32.c **** * \par
  58:Drivers/CMSIS/DSP/Source/TransformFunctions/arm_cfft_f32.c **** * There are separate algorithms for handling floating-point, Q15, and Q31 data
  59:Drivers/CMSIS/DSP/Source/TransformFunctions/arm_cfft_f32.c **** * types.  The algorithms available for each data type are described next.
  60:Drivers/CMSIS/DSP/Source/TransformFunctions/arm_cfft_f32.c **** * \par
  61:Drivers/CMSIS/DSP/Source/TransformFunctions/arm_cfft_f32.c **** * The FFT functions operate in-place.  That is, the array holding the input data
  62:Drivers/CMSIS/DSP/Source/TransformFunctions/arm_cfft_f32.c **** * will also be used to hold the corresponding result.  The input data is complex
  63:Drivers/CMSIS/DSP/Source/TransformFunctions/arm_cfft_f32.c **** * and contains <code>2*fftLen</code> interleaved values as shown below.
  64:Drivers/CMSIS/DSP/Source/TransformFunctions/arm_cfft_f32.c **** * <pre> {real[0], imag[0], real[1], imag[1],..} </pre>
  65:Drivers/CMSIS/DSP/Source/TransformFunctions/arm_cfft_f32.c **** * The FFT result will be contained in the same array and the frequency domain
  66:Drivers/CMSIS/DSP/Source/TransformFunctions/arm_cfft_f32.c **** * values will have the same interleaving.
  67:Drivers/CMSIS/DSP/Source/TransformFunctions/arm_cfft_f32.c **** *
  68:Drivers/CMSIS/DSP/Source/TransformFunctions/arm_cfft_f32.c **** * \par Floating-point
  69:Drivers/CMSIS/DSP/Source/TransformFunctions/arm_cfft_f32.c **** * The floating-point complex FFT uses a mixed-radix algorithm.  Multiple radix-8
  70:Drivers/CMSIS/DSP/Source/TransformFunctions/arm_cfft_f32.c **** * stages are performed along with a single radix-2 or radix-4 stage, as needed.
  71:Drivers/CMSIS/DSP/Source/TransformFunctions/arm_cfft_f32.c **** * The algorithm supports lengths of [16, 32, 64, ..., 4096] and each length uses
  72:Drivers/CMSIS/DSP/Source/TransformFunctions/arm_cfft_f32.c **** * a different twiddle factor table.
  73:Drivers/CMSIS/DSP/Source/TransformFunctions/arm_cfft_f32.c **** * \par
  74:Drivers/CMSIS/DSP/Source/TransformFunctions/arm_cfft_f32.c **** * The function uses the standard FFT definition and output values may grow by a
  75:Drivers/CMSIS/DSP/Source/TransformFunctions/arm_cfft_f32.c **** * factor of <code>fftLen</code> when computing the forward transform.  The
  76:Drivers/CMSIS/DSP/Source/TransformFunctions/arm_cfft_f32.c **** * inverse transform includes a scale of <code>1/fftLen</code> as part of the
  77:Drivers/CMSIS/DSP/Source/TransformFunctions/arm_cfft_f32.c **** * calculation and this matches the textbook definition of the inverse FFT.
  78:Drivers/CMSIS/DSP/Source/TransformFunctions/arm_cfft_f32.c **** * \par
  79:Drivers/CMSIS/DSP/Source/TransformFunctions/arm_cfft_f32.c **** * Pre-initialized data structures containing twiddle factors and bit reversal
  80:Drivers/CMSIS/DSP/Source/TransformFunctions/arm_cfft_f32.c **** * tables are provided and defined in <code>arm_const_structs.h</code>.  Include
  81:Drivers/CMSIS/DSP/Source/TransformFunctions/arm_cfft_f32.c **** * this header in your function and then pass one of the constant structures as
  82:Drivers/CMSIS/DSP/Source/TransformFunctions/arm_cfft_f32.c **** * an argument to arm_cfft_f32.  For example:
  83:Drivers/CMSIS/DSP/Source/TransformFunctions/arm_cfft_f32.c **** * \par
  84:Drivers/CMSIS/DSP/Source/TransformFunctions/arm_cfft_f32.c **** * <code>arm_cfft_f32(arm_cfft_sR_f32_len64, pSrc, 1, 1)</code>
  85:Drivers/CMSIS/DSP/Source/TransformFunctions/arm_cfft_f32.c **** * \par
  86:Drivers/CMSIS/DSP/Source/TransformFunctions/arm_cfft_f32.c **** * computes a 64-point inverse complex FFT including bit reversal.
ARM GAS  C:\Users\17832\AppData\Local\Temp\ccvR8jgi.s 			page 3


  87:Drivers/CMSIS/DSP/Source/TransformFunctions/arm_cfft_f32.c **** * The data structures are treated as constant data and not modified during the
  88:Drivers/CMSIS/DSP/Source/TransformFunctions/arm_cfft_f32.c **** * calculation.  The same data structure can be reused for multiple transforms
  89:Drivers/CMSIS/DSP/Source/TransformFunctions/arm_cfft_f32.c **** * including mixing forward and inverse transforms.
  90:Drivers/CMSIS/DSP/Source/TransformFunctions/arm_cfft_f32.c **** * \par
  91:Drivers/CMSIS/DSP/Source/TransformFunctions/arm_cfft_f32.c **** * Earlier releases of the library provided separate radix-2 and radix-4
  92:Drivers/CMSIS/DSP/Source/TransformFunctions/arm_cfft_f32.c **** * algorithms that operated on floating-point data.  These functions are still
  93:Drivers/CMSIS/DSP/Source/TransformFunctions/arm_cfft_f32.c **** * provided but are deprecated.  The older functions are slower and less general
  94:Drivers/CMSIS/DSP/Source/TransformFunctions/arm_cfft_f32.c **** * than the new functions.
  95:Drivers/CMSIS/DSP/Source/TransformFunctions/arm_cfft_f32.c **** * \par
  96:Drivers/CMSIS/DSP/Source/TransformFunctions/arm_cfft_f32.c **** * An example of initialization of the constants for the arm_cfft_f32 function follows:
  97:Drivers/CMSIS/DSP/Source/TransformFunctions/arm_cfft_f32.c **** * \code
  98:Drivers/CMSIS/DSP/Source/TransformFunctions/arm_cfft_f32.c **** * const static arm_cfft_instance_f32 *S;
  99:Drivers/CMSIS/DSP/Source/TransformFunctions/arm_cfft_f32.c **** * ...
 100:Drivers/CMSIS/DSP/Source/TransformFunctions/arm_cfft_f32.c **** *   switch (length) {
 101:Drivers/CMSIS/DSP/Source/TransformFunctions/arm_cfft_f32.c **** *     case 16:
 102:Drivers/CMSIS/DSP/Source/TransformFunctions/arm_cfft_f32.c **** *       S = &arm_cfft_sR_f32_len16;
 103:Drivers/CMSIS/DSP/Source/TransformFunctions/arm_cfft_f32.c **** *       break;
 104:Drivers/CMSIS/DSP/Source/TransformFunctions/arm_cfft_f32.c **** *     case 32:
 105:Drivers/CMSIS/DSP/Source/TransformFunctions/arm_cfft_f32.c **** *       S = &arm_cfft_sR_f32_len32;
 106:Drivers/CMSIS/DSP/Source/TransformFunctions/arm_cfft_f32.c **** *       break;
 107:Drivers/CMSIS/DSP/Source/TransformFunctions/arm_cfft_f32.c **** *     case 64:
 108:Drivers/CMSIS/DSP/Source/TransformFunctions/arm_cfft_f32.c **** *       S = &arm_cfft_sR_f32_len64;
 109:Drivers/CMSIS/DSP/Source/TransformFunctions/arm_cfft_f32.c **** *       break;
 110:Drivers/CMSIS/DSP/Source/TransformFunctions/arm_cfft_f32.c **** *     case 128:
 111:Drivers/CMSIS/DSP/Source/TransformFunctions/arm_cfft_f32.c **** *       S = &arm_cfft_sR_f32_len128;
 112:Drivers/CMSIS/DSP/Source/TransformFunctions/arm_cfft_f32.c **** *       break;
 113:Drivers/CMSIS/DSP/Source/TransformFunctions/arm_cfft_f32.c **** *     case 256:
 114:Drivers/CMSIS/DSP/Source/TransformFunctions/arm_cfft_f32.c **** *       S = &arm_cfft_sR_f32_len256;
 115:Drivers/CMSIS/DSP/Source/TransformFunctions/arm_cfft_f32.c **** *       break;
 116:Drivers/CMSIS/DSP/Source/TransformFunctions/arm_cfft_f32.c **** *     case 512:
 117:Drivers/CMSIS/DSP/Source/TransformFunctions/arm_cfft_f32.c **** *       S = &arm_cfft_sR_f32_len512;
 118:Drivers/CMSIS/DSP/Source/TransformFunctions/arm_cfft_f32.c **** *       break;
 119:Drivers/CMSIS/DSP/Source/TransformFunctions/arm_cfft_f32.c **** *     case 1024:
 120:Drivers/CMSIS/DSP/Source/TransformFunctions/arm_cfft_f32.c **** *       S = &arm_cfft_sR_f32_len1024;
 121:Drivers/CMSIS/DSP/Source/TransformFunctions/arm_cfft_f32.c **** *       break;
 122:Drivers/CMSIS/DSP/Source/TransformFunctions/arm_cfft_f32.c **** *     case 2048:
 123:Drivers/CMSIS/DSP/Source/TransformFunctions/arm_cfft_f32.c **** *       S = &arm_cfft_sR_f32_len2048;
 124:Drivers/CMSIS/DSP/Source/TransformFunctions/arm_cfft_f32.c **** *       break;
 125:Drivers/CMSIS/DSP/Source/TransformFunctions/arm_cfft_f32.c **** *     case 4096:
 126:Drivers/CMSIS/DSP/Source/TransformFunctions/arm_cfft_f32.c **** *       S = &arm_cfft_sR_f32_len4096;
 127:Drivers/CMSIS/DSP/Source/TransformFunctions/arm_cfft_f32.c **** *       break;
 128:Drivers/CMSIS/DSP/Source/TransformFunctions/arm_cfft_f32.c **** *   }
 129:Drivers/CMSIS/DSP/Source/TransformFunctions/arm_cfft_f32.c **** * \endcode
 130:Drivers/CMSIS/DSP/Source/TransformFunctions/arm_cfft_f32.c **** * \par Q15 and Q31
 131:Drivers/CMSIS/DSP/Source/TransformFunctions/arm_cfft_f32.c **** * The floating-point complex FFT uses a mixed-radix algorithm.  Multiple radix-4
 132:Drivers/CMSIS/DSP/Source/TransformFunctions/arm_cfft_f32.c **** * stages are performed along with a single radix-2 stage, as needed.
 133:Drivers/CMSIS/DSP/Source/TransformFunctions/arm_cfft_f32.c **** * The algorithm supports lengths of [16, 32, 64, ..., 4096] and each length uses
 134:Drivers/CMSIS/DSP/Source/TransformFunctions/arm_cfft_f32.c **** * a different twiddle factor table.
 135:Drivers/CMSIS/DSP/Source/TransformFunctions/arm_cfft_f32.c **** * \par
 136:Drivers/CMSIS/DSP/Source/TransformFunctions/arm_cfft_f32.c **** * The function uses the standard FFT definition and output values may grow by a
 137:Drivers/CMSIS/DSP/Source/TransformFunctions/arm_cfft_f32.c **** * factor of <code>fftLen</code> when computing the forward transform.  The
 138:Drivers/CMSIS/DSP/Source/TransformFunctions/arm_cfft_f32.c **** * inverse transform includes a scale of <code>1/fftLen</code> as part of the
 139:Drivers/CMSIS/DSP/Source/TransformFunctions/arm_cfft_f32.c **** * calculation and this matches the textbook definition of the inverse FFT.
 140:Drivers/CMSIS/DSP/Source/TransformFunctions/arm_cfft_f32.c **** * \par
 141:Drivers/CMSIS/DSP/Source/TransformFunctions/arm_cfft_f32.c **** * Pre-initialized data structures containing twiddle factors and bit reversal
 142:Drivers/CMSIS/DSP/Source/TransformFunctions/arm_cfft_f32.c **** * tables are provided and defined in <code>arm_const_structs.h</code>.  Include
 143:Drivers/CMSIS/DSP/Source/TransformFunctions/arm_cfft_f32.c **** * this header in your function and then pass one of the constant structures as
ARM GAS  C:\Users\17832\AppData\Local\Temp\ccvR8jgi.s 			page 4


 144:Drivers/CMSIS/DSP/Source/TransformFunctions/arm_cfft_f32.c **** * an argument to arm_cfft_q31.  For example:
 145:Drivers/CMSIS/DSP/Source/TransformFunctions/arm_cfft_f32.c **** * \par
 146:Drivers/CMSIS/DSP/Source/TransformFunctions/arm_cfft_f32.c **** * <code>arm_cfft_q31(arm_cfft_sR_q31_len64, pSrc, 1, 1)</code>
 147:Drivers/CMSIS/DSP/Source/TransformFunctions/arm_cfft_f32.c **** * \par
 148:Drivers/CMSIS/DSP/Source/TransformFunctions/arm_cfft_f32.c **** * computes a 64-point inverse complex FFT including bit reversal.
 149:Drivers/CMSIS/DSP/Source/TransformFunctions/arm_cfft_f32.c **** * The data structures are treated as constant data and not modified during the
 150:Drivers/CMSIS/DSP/Source/TransformFunctions/arm_cfft_f32.c **** * calculation.  The same data structure can be reused for multiple transforms
 151:Drivers/CMSIS/DSP/Source/TransformFunctions/arm_cfft_f32.c **** * including mixing forward and inverse transforms.
 152:Drivers/CMSIS/DSP/Source/TransformFunctions/arm_cfft_f32.c **** * \par
 153:Drivers/CMSIS/DSP/Source/TransformFunctions/arm_cfft_f32.c **** * Earlier releases of the library provided separate radix-2 and radix-4
 154:Drivers/CMSIS/DSP/Source/TransformFunctions/arm_cfft_f32.c **** * algorithms that operated on floating-point data.  These functions are still
 155:Drivers/CMSIS/DSP/Source/TransformFunctions/arm_cfft_f32.c **** * provided but are deprecated.  The older functions are slower and less general
 156:Drivers/CMSIS/DSP/Source/TransformFunctions/arm_cfft_f32.c **** * than the new functions.
 157:Drivers/CMSIS/DSP/Source/TransformFunctions/arm_cfft_f32.c **** * \par
 158:Drivers/CMSIS/DSP/Source/TransformFunctions/arm_cfft_f32.c **** * An example of initialization of the constants for the arm_cfft_q31 function follows:
 159:Drivers/CMSIS/DSP/Source/TransformFunctions/arm_cfft_f32.c **** * \code
 160:Drivers/CMSIS/DSP/Source/TransformFunctions/arm_cfft_f32.c **** * const static arm_cfft_instance_q31 *S;
 161:Drivers/CMSIS/DSP/Source/TransformFunctions/arm_cfft_f32.c **** * ...
 162:Drivers/CMSIS/DSP/Source/TransformFunctions/arm_cfft_f32.c **** *   switch (length) {
 163:Drivers/CMSIS/DSP/Source/TransformFunctions/arm_cfft_f32.c **** *     case 16:
 164:Drivers/CMSIS/DSP/Source/TransformFunctions/arm_cfft_f32.c **** *       S = &arm_cfft_sR_q31_len16;
 165:Drivers/CMSIS/DSP/Source/TransformFunctions/arm_cfft_f32.c **** *       break;
 166:Drivers/CMSIS/DSP/Source/TransformFunctions/arm_cfft_f32.c **** *     case 32:
 167:Drivers/CMSIS/DSP/Source/TransformFunctions/arm_cfft_f32.c **** *       S = &arm_cfft_sR_q31_len32;
 168:Drivers/CMSIS/DSP/Source/TransformFunctions/arm_cfft_f32.c **** *       break;
 169:Drivers/CMSIS/DSP/Source/TransformFunctions/arm_cfft_f32.c **** *     case 64:
 170:Drivers/CMSIS/DSP/Source/TransformFunctions/arm_cfft_f32.c **** *       S = &arm_cfft_sR_q31_len64;
 171:Drivers/CMSIS/DSP/Source/TransformFunctions/arm_cfft_f32.c **** *       break;
 172:Drivers/CMSIS/DSP/Source/TransformFunctions/arm_cfft_f32.c **** *     case 128:
 173:Drivers/CMSIS/DSP/Source/TransformFunctions/arm_cfft_f32.c **** *       S = &arm_cfft_sR_q31_len128;
 174:Drivers/CMSIS/DSP/Source/TransformFunctions/arm_cfft_f32.c **** *       break;
 175:Drivers/CMSIS/DSP/Source/TransformFunctions/arm_cfft_f32.c **** *     case 256:
 176:Drivers/CMSIS/DSP/Source/TransformFunctions/arm_cfft_f32.c **** *       S = &arm_cfft_sR_q31_len256;
 177:Drivers/CMSIS/DSP/Source/TransformFunctions/arm_cfft_f32.c **** *       break;
 178:Drivers/CMSIS/DSP/Source/TransformFunctions/arm_cfft_f32.c **** *     case 512:
 179:Drivers/CMSIS/DSP/Source/TransformFunctions/arm_cfft_f32.c **** *       S = &arm_cfft_sR_q31_len512;
 180:Drivers/CMSIS/DSP/Source/TransformFunctions/arm_cfft_f32.c **** *       break;
 181:Drivers/CMSIS/DSP/Source/TransformFunctions/arm_cfft_f32.c **** *     case 1024:
 182:Drivers/CMSIS/DSP/Source/TransformFunctions/arm_cfft_f32.c **** *       S = &arm_cfft_sR_q31_len1024;
 183:Drivers/CMSIS/DSP/Source/TransformFunctions/arm_cfft_f32.c **** *       break;
 184:Drivers/CMSIS/DSP/Source/TransformFunctions/arm_cfft_f32.c **** *     case 2048:
 185:Drivers/CMSIS/DSP/Source/TransformFunctions/arm_cfft_f32.c **** *       S = &arm_cfft_sR_q31_len2048;
 186:Drivers/CMSIS/DSP/Source/TransformFunctions/arm_cfft_f32.c **** *       break;
 187:Drivers/CMSIS/DSP/Source/TransformFunctions/arm_cfft_f32.c **** *     case 4096:
 188:Drivers/CMSIS/DSP/Source/TransformFunctions/arm_cfft_f32.c **** *       S = &arm_cfft_sR_q31_len4096;
 189:Drivers/CMSIS/DSP/Source/TransformFunctions/arm_cfft_f32.c **** *       break;
 190:Drivers/CMSIS/DSP/Source/TransformFunctions/arm_cfft_f32.c **** *   }
 191:Drivers/CMSIS/DSP/Source/TransformFunctions/arm_cfft_f32.c **** * \endcode
 192:Drivers/CMSIS/DSP/Source/TransformFunctions/arm_cfft_f32.c **** *
 193:Drivers/CMSIS/DSP/Source/TransformFunctions/arm_cfft_f32.c **** */
 194:Drivers/CMSIS/DSP/Source/TransformFunctions/arm_cfft_f32.c **** 
 195:Drivers/CMSIS/DSP/Source/TransformFunctions/arm_cfft_f32.c **** void arm_cfft_radix8by2_f32( arm_cfft_instance_f32 * S, float32_t * p1)
 196:Drivers/CMSIS/DSP/Source/TransformFunctions/arm_cfft_f32.c **** {
  30              		.loc 1 196 1 view -0
  31              		.cfi_startproc
  32              		@ args = 0, pretend = 0, frame = 64
  33              		@ frame_needed = 0, uses_anonymous_args = 0
ARM GAS  C:\Users\17832\AppData\Local\Temp\ccvR8jgi.s 			page 5


  34              		.loc 1 196 1 is_stmt 0 view .LVU1
  35 0000 2DE9F041 		push	{r4, r5, r6, r7, r8, lr}
  36              	.LCFI0:
  37              		.cfi_def_cfa_offset 24
  38              		.cfi_offset 4, -24
  39              		.cfi_offset 5, -20
  40              		.cfi_offset 6, -16
  41              		.cfi_offset 7, -12
  42              		.cfi_offset 8, -8
  43              		.cfi_offset 14, -4
  44 0004 2DED028B 		vpush.64	{d8}
  45              	.LCFI1:
  46              		.cfi_def_cfa_offset 32
  47              		.cfi_offset 80, -32
  48              		.cfi_offset 81, -28
  49 0008 90B0     		sub	sp, sp, #64
  50              	.LCFI2:
  51              		.cfi_def_cfa_offset 96
  52 000a 0646     		mov	r6, r0
  53 000c 0846     		mov	r0, r1
  54              	.LVL1:
 197:Drivers/CMSIS/DSP/Source/TransformFunctions/arm_cfft_f32.c ****     uint32_t    L  = S->fftLen;
  55              		.loc 1 197 5 is_stmt 1 view .LVU2
  56              		.loc 1 197 23 is_stmt 0 view .LVU3
  57 000e 3588     		ldrh	r5, [r6]
  58              	.LVL2:
 198:Drivers/CMSIS/DSP/Source/TransformFunctions/arm_cfft_f32.c ****     float32_t * pCol1, * pCol2, * pMid1, * pMid2;
  59              		.loc 1 198 5 is_stmt 1 view .LVU4
 199:Drivers/CMSIS/DSP/Source/TransformFunctions/arm_cfft_f32.c ****     float32_t * p2 = p1 + L;
  60              		.loc 1 199 5 view .LVU5
  61              		.loc 1 199 17 is_stmt 0 view .LVU6
  62 0010 01EB8507 		add	r7, r1, r5, lsl #2
  63              	.LVL3:
 200:Drivers/CMSIS/DSP/Source/TransformFunctions/arm_cfft_f32.c ****     const float32_t * tw = (float32_t *) S->pTwiddle;
  64              		.loc 1 200 5 is_stmt 1 view .LVU7
  65              		.loc 1 200 23 is_stmt 0 view .LVU8
  66 0014 7468     		ldr	r4, [r6, #4]
  67              	.LVL4:
 201:Drivers/CMSIS/DSP/Source/TransformFunctions/arm_cfft_f32.c ****     float32_t t1[4], t2[4], t3[4], t4[4], twR, twI;
  68              		.loc 1 201 5 is_stmt 1 view .LVU9
 202:Drivers/CMSIS/DSP/Source/TransformFunctions/arm_cfft_f32.c ****     float32_t m0, m1, m2, m3;
  69              		.loc 1 202 5 view .LVU10
 203:Drivers/CMSIS/DSP/Source/TransformFunctions/arm_cfft_f32.c ****     uint32_t l;
  70              		.loc 1 203 5 view .LVU11
 204:Drivers/CMSIS/DSP/Source/TransformFunctions/arm_cfft_f32.c **** 
 205:Drivers/CMSIS/DSP/Source/TransformFunctions/arm_cfft_f32.c ****     pCol1 = p1;
  71              		.loc 1 205 5 view .LVU12
 206:Drivers/CMSIS/DSP/Source/TransformFunctions/arm_cfft_f32.c ****     pCol2 = p2;
  72              		.loc 1 206 5 view .LVU13
 207:Drivers/CMSIS/DSP/Source/TransformFunctions/arm_cfft_f32.c **** 
 208:Drivers/CMSIS/DSP/Source/TransformFunctions/arm_cfft_f32.c ****     //    Define new length
 209:Drivers/CMSIS/DSP/Source/TransformFunctions/arm_cfft_f32.c ****     L >>= 1;
  73              		.loc 1 209 5 view .LVU14
  74              		.loc 1 209 7 is_stmt 0 view .LVU15
  75 0016 4FEA5508 		lsr	r8, r5, #1
  76              	.LVL5:
 210:Drivers/CMSIS/DSP/Source/TransformFunctions/arm_cfft_f32.c ****     //    Initialize mid pointers
ARM GAS  C:\Users\17832\AppData\Local\Temp\ccvR8jgi.s 			page 6


 211:Drivers/CMSIS/DSP/Source/TransformFunctions/arm_cfft_f32.c ****     pMid1 = p1 + L;
  77              		.loc 1 211 5 is_stmt 1 view .LVU16
  78              		.loc 1 211 11 is_stmt 0 view .LVU17
  79 001a 01EB880E 		add	lr, r1, r8, lsl #2
  80              	.LVL6:
 212:Drivers/CMSIS/DSP/Source/TransformFunctions/arm_cfft_f32.c ****     pMid2 = p2 + L;
  81              		.loc 1 212 5 is_stmt 1 view .LVU18
  82              		.loc 1 212 11 is_stmt 0 view .LVU19
  83 001e 07EB880C 		add	ip, r7, r8, lsl #2
  84              	.LVL7:
 213:Drivers/CMSIS/DSP/Source/TransformFunctions/arm_cfft_f32.c **** 
 214:Drivers/CMSIS/DSP/Source/TransformFunctions/arm_cfft_f32.c ****     // do two dot Fourier transform
 215:Drivers/CMSIS/DSP/Source/TransformFunctions/arm_cfft_f32.c ****     for ( l = L >> 2; l > 0; l-- )
  85              		.loc 1 215 5 is_stmt 1 view .LVU20
  86              		.loc 1 215 13 is_stmt 0 view .LVU21
  87 0022 ED08     		lsrs	r5, r5, #3
  88              	.LVL8:
 199:Drivers/CMSIS/DSP/Source/TransformFunctions/arm_cfft_f32.c ****     const float32_t * tw = (float32_t *) S->pTwiddle;
  89              		.loc 1 199 17 view .LVU22
  90 0024 3A46     		mov	r2, r7
  91              		.loc 1 215 5 view .LVU23
  92 0026 0B46     		mov	r3, r1
  93 0028 CFE0     		b	.L2
  94              	.LVL9:
  95              	.L3:
 216:Drivers/CMSIS/DSP/Source/TransformFunctions/arm_cfft_f32.c ****     {
 217:Drivers/CMSIS/DSP/Source/TransformFunctions/arm_cfft_f32.c ****         t1[0] = p1[0];
  96              		.loc 1 217 9 is_stmt 1 discriminator 3 view .LVU24
  97              		.loc 1 217 19 is_stmt 0 discriminator 3 view .LVU25
  98 002a 93ED005A 		vldr.32	s10, [r3]
  99              		.loc 1 217 15 discriminator 3 view .LVU26
 100 002e 8DED0C5A 		vstr.32	s10, [sp, #48]
 218:Drivers/CMSIS/DSP/Source/TransformFunctions/arm_cfft_f32.c ****         t1[1] = p1[1];
 101              		.loc 1 218 9 is_stmt 1 discriminator 3 view .LVU27
 102              		.loc 1 218 15 is_stmt 0 discriminator 3 view .LVU28
 103 0032 93ED016A 		vldr.32	s12, [r3, #4]
 104 0036 8DED0D6A 		vstr.32	s12, [sp, #52]
 219:Drivers/CMSIS/DSP/Source/TransformFunctions/arm_cfft_f32.c ****         t1[2] = p1[2];
 105              		.loc 1 219 9 is_stmt 1 discriminator 3 view .LVU29
 106              		.loc 1 219 15 is_stmt 0 discriminator 3 view .LVU30
 107 003a 93ED021A 		vldr.32	s2, [r3, #8]
 108 003e 8DED0E1A 		vstr.32	s2, [sp, #56]
 220:Drivers/CMSIS/DSP/Source/TransformFunctions/arm_cfft_f32.c ****         t1[3] = p1[3];
 109              		.loc 1 220 9 is_stmt 1 discriminator 3 view .LVU31
 110              		.loc 1 220 15 is_stmt 0 discriminator 3 view .LVU32
 111 0042 93ED037A 		vldr.32	s14, [r3, #12]
 112 0046 8DED0F7A 		vstr.32	s14, [sp, #60]
 221:Drivers/CMSIS/DSP/Source/TransformFunctions/arm_cfft_f32.c **** 
 222:Drivers/CMSIS/DSP/Source/TransformFunctions/arm_cfft_f32.c ****         t2[0] = p2[0];
 113              		.loc 1 222 9 is_stmt 1 discriminator 3 view .LVU33
 114              		.loc 1 222 19 is_stmt 0 discriminator 3 view .LVU34
 115 004a 92ED000A 		vldr.32	s0, [r2]
 116              		.loc 1 222 15 discriminator 3 view .LVU35
 117 004e 8DED080A 		vstr.32	s0, [sp, #32]
 223:Drivers/CMSIS/DSP/Source/TransformFunctions/arm_cfft_f32.c ****         t2[1] = p2[1];
 118              		.loc 1 223 9 is_stmt 1 discriminator 3 view .LVU36
 119              		.loc 1 223 15 is_stmt 0 discriminator 3 view .LVU37
ARM GAS  C:\Users\17832\AppData\Local\Temp\ccvR8jgi.s 			page 7


 120 0052 D2ED010A 		vldr.32	s1, [r2, #4]
 121 0056 CDED090A 		vstr.32	s1, [sp, #36]
 224:Drivers/CMSIS/DSP/Source/TransformFunctions/arm_cfft_f32.c ****         t2[2] = p2[2];
 122              		.loc 1 224 9 is_stmt 1 discriminator 3 view .LVU38
 123              		.loc 1 224 15 is_stmt 0 discriminator 3 view .LVU39
 124 005a 92ED023A 		vldr.32	s6, [r2, #8]
 125 005e 8DED0A3A 		vstr.32	s6, [sp, #40]
 225:Drivers/CMSIS/DSP/Source/TransformFunctions/arm_cfft_f32.c ****         t2[3] = p2[3];
 126              		.loc 1 225 9 is_stmt 1 discriminator 3 view .LVU40
 127              		.loc 1 225 15 is_stmt 0 discriminator 3 view .LVU41
 128 0062 D2ED031A 		vldr.32	s3, [r2, #12]
 129 0066 CDED0B1A 		vstr.32	s3, [sp, #44]
 226:Drivers/CMSIS/DSP/Source/TransformFunctions/arm_cfft_f32.c **** 
 227:Drivers/CMSIS/DSP/Source/TransformFunctions/arm_cfft_f32.c ****         t3[0] = pMid1[0];
 130              		.loc 1 227 9 is_stmt 1 discriminator 3 view .LVU42
 131              		.loc 1 227 22 is_stmt 0 discriminator 3 view .LVU43
 132 006a 9EED002A 		vldr.32	s4, [lr]
 133              		.loc 1 227 15 discriminator 3 view .LVU44
 134 006e 8DED042A 		vstr.32	s4, [sp, #16]
 228:Drivers/CMSIS/DSP/Source/TransformFunctions/arm_cfft_f32.c ****         t3[1] = pMid1[1];
 135              		.loc 1 228 9 is_stmt 1 discriminator 3 view .LVU45
 136              		.loc 1 228 15 is_stmt 0 discriminator 3 view .LVU46
 137 0072 DEED012A 		vldr.32	s5, [lr, #4]
 138 0076 CDED052A 		vstr.32	s5, [sp, #20]
 229:Drivers/CMSIS/DSP/Source/TransformFunctions/arm_cfft_f32.c ****         t3[2] = pMid1[2];
 139              		.loc 1 229 9 is_stmt 1 discriminator 3 view .LVU47
 140              		.loc 1 229 15 is_stmt 0 discriminator 3 view .LVU48
 141 007a 9EED024A 		vldr.32	s8, [lr, #8]
 142 007e 8DED064A 		vstr.32	s8, [sp, #24]
 230:Drivers/CMSIS/DSP/Source/TransformFunctions/arm_cfft_f32.c ****         t3[3] = pMid1[3];
 143              		.loc 1 230 9 is_stmt 1 discriminator 3 view .LVU49
 144              		.loc 1 230 15 is_stmt 0 discriminator 3 view .LVU50
 145 0082 DEED034A 		vldr.32	s9, [lr, #12]
 146 0086 CDED074A 		vstr.32	s9, [sp, #28]
 231:Drivers/CMSIS/DSP/Source/TransformFunctions/arm_cfft_f32.c **** 
 232:Drivers/CMSIS/DSP/Source/TransformFunctions/arm_cfft_f32.c ****         t4[0] = pMid2[0];
 147              		.loc 1 232 9 is_stmt 1 discriminator 3 view .LVU51
 148              		.loc 1 232 22 is_stmt 0 discriminator 3 view .LVU52
 149 008a DCED005A 		vldr.32	s11, [ip]
 150              		.loc 1 232 15 discriminator 3 view .LVU53
 151 008e CDED005A 		vstr.32	s11, [sp]
 233:Drivers/CMSIS/DSP/Source/TransformFunctions/arm_cfft_f32.c ****         t4[1] = pMid2[1];
 152              		.loc 1 233 9 is_stmt 1 discriminator 3 view .LVU54
 153              		.loc 1 233 15 is_stmt 0 discriminator 3 view .LVU55
 154 0092 DCED016A 		vldr.32	s13, [ip, #4]
 155 0096 CDED016A 		vstr.32	s13, [sp, #4]
 234:Drivers/CMSIS/DSP/Source/TransformFunctions/arm_cfft_f32.c ****         t4[2] = pMid2[2];
 156              		.loc 1 234 9 is_stmt 1 discriminator 3 view .LVU56
 157              		.loc 1 234 15 is_stmt 0 discriminator 3 view .LVU57
 158 009a DCED023A 		vldr.32	s7, [ip, #8]
 159 009e CDED023A 		vstr.32	s7, [sp, #8]
 235:Drivers/CMSIS/DSP/Source/TransformFunctions/arm_cfft_f32.c ****         t4[3] = pMid2[3];
 160              		.loc 1 235 9 is_stmt 1 discriminator 3 view .LVU58
 161              		.loc 1 235 15 is_stmt 0 discriminator 3 view .LVU59
 162 00a2 DCED037A 		vldr.32	s15, [ip, #12]
 163 00a6 CDED037A 		vstr.32	s15, [sp, #12]
 236:Drivers/CMSIS/DSP/Source/TransformFunctions/arm_cfft_f32.c **** 
ARM GAS  C:\Users\17832\AppData\Local\Temp\ccvR8jgi.s 			page 8


 237:Drivers/CMSIS/DSP/Source/TransformFunctions/arm_cfft_f32.c ****         *p1++ = t1[0] + t2[0];
 164              		.loc 1 237 9 is_stmt 1 discriminator 3 view .LVU60
 165              	.LVL10:
 166              		.loc 1 237 23 is_stmt 0 discriminator 3 view .LVU61
 167 00aa 35EE008A 		vadd.f32	s16, s10, s0
 168              		.loc 1 237 15 discriminator 3 view .LVU62
 169 00ae 83ED008A 		vstr.32	s16, [r3]
 238:Drivers/CMSIS/DSP/Source/TransformFunctions/arm_cfft_f32.c ****         *p1++ = t1[1] + t2[1];
 170              		.loc 1 238 9 is_stmt 1 discriminator 3 view .LVU63
 171              	.LVL11:
 172              		.loc 1 238 23 is_stmt 0 discriminator 3 view .LVU64
 173 00b2 36EE208A 		vadd.f32	s16, s12, s1
 174              		.loc 1 238 15 discriminator 3 view .LVU65
 175 00b6 83ED018A 		vstr.32	s16, [r3, #4]
 239:Drivers/CMSIS/DSP/Source/TransformFunctions/arm_cfft_f32.c ****         *p1++ = t1[2] + t2[2];
 176              		.loc 1 239 9 is_stmt 1 discriminator 3 view .LVU66
 177              	.LVL12:
 178              		.loc 1 239 23 is_stmt 0 discriminator 3 view .LVU67
 179 00ba 31EE038A 		vadd.f32	s16, s2, s6
 180              		.loc 1 239 15 discriminator 3 view .LVU68
 181 00be 83ED028A 		vstr.32	s16, [r3, #8]
 240:Drivers/CMSIS/DSP/Source/TransformFunctions/arm_cfft_f32.c ****         *p1++ = t1[3] + t2[3];    // col 1
 182              		.loc 1 240 9 is_stmt 1 discriminator 3 view .LVU69
 183              	.LVL13:
 184              		.loc 1 240 23 is_stmt 0 discriminator 3 view .LVU70
 185 00c2 37EE218A 		vadd.f32	s16, s14, s3
 186              		.loc 1 240 15 discriminator 3 view .LVU71
 187 00c6 83ED038A 		vstr.32	s16, [r3, #12]
 241:Drivers/CMSIS/DSP/Source/TransformFunctions/arm_cfft_f32.c **** 
 242:Drivers/CMSIS/DSP/Source/TransformFunctions/arm_cfft_f32.c ****         t2[0] = t1[0] - t2[0];
 188              		.loc 1 242 9 is_stmt 1 discriminator 3 view .LVU72
 189              		.loc 1 242 23 is_stmt 0 discriminator 3 view .LVU73
 190 00ca 35EE405A 		vsub.f32	s10, s10, s0
 191              		.loc 1 242 15 discriminator 3 view .LVU74
 192 00ce 8DED085A 		vstr.32	s10, [sp, #32]
 243:Drivers/CMSIS/DSP/Source/TransformFunctions/arm_cfft_f32.c ****         t2[1] = t1[1] - t2[1];
 193              		.loc 1 243 9 is_stmt 1 discriminator 3 view .LVU75
 194              		.loc 1 243 23 is_stmt 0 discriminator 3 view .LVU76
 195 00d2 36EE606A 		vsub.f32	s12, s12, s1
 196              		.loc 1 243 15 discriminator 3 view .LVU77
 197 00d6 8DED096A 		vstr.32	s12, [sp, #36]
 244:Drivers/CMSIS/DSP/Source/TransformFunctions/arm_cfft_f32.c ****         t2[2] = t1[2] - t2[2];
 198              		.loc 1 244 9 is_stmt 1 discriminator 3 view .LVU78
 199              		.loc 1 244 23 is_stmt 0 discriminator 3 view .LVU79
 200 00da 31EE433A 		vsub.f32	s6, s2, s6
 201              		.loc 1 244 15 discriminator 3 view .LVU80
 202 00de 8DED0A3A 		vstr.32	s6, [sp, #40]
 245:Drivers/CMSIS/DSP/Source/TransformFunctions/arm_cfft_f32.c ****         t2[3] = t1[3] - t2[3];    // for col 2
 203              		.loc 1 245 9 is_stmt 1 discriminator 3 view .LVU81
 204              		.loc 1 245 23 is_stmt 0 discriminator 3 view .LVU82
 205 00e2 37EE617A 		vsub.f32	s14, s14, s3
 206              		.loc 1 245 15 discriminator 3 view .LVU83
 207 00e6 8DED0B7A 		vstr.32	s14, [sp, #44]
 246:Drivers/CMSIS/DSP/Source/TransformFunctions/arm_cfft_f32.c **** 
 247:Drivers/CMSIS/DSP/Source/TransformFunctions/arm_cfft_f32.c ****         *pMid1++ = t3[0] + t4[0];
 208              		.loc 1 247 9 is_stmt 1 discriminator 3 view .LVU84
 209              	.LVL14:
ARM GAS  C:\Users\17832\AppData\Local\Temp\ccvR8jgi.s 			page 9


 210              		.loc 1 247 26 is_stmt 0 discriminator 3 view .LVU85
 211 00ea 72EE251A 		vadd.f32	s3, s4, s11
 212              		.loc 1 247 18 discriminator 3 view .LVU86
 213 00ee CEED001A 		vstr.32	s3, [lr]
 248:Drivers/CMSIS/DSP/Source/TransformFunctions/arm_cfft_f32.c ****         *pMid1++ = t3[1] + t4[1];
 214              		.loc 1 248 9 is_stmt 1 discriminator 3 view .LVU87
 215              	.LVL15:
 216              		.loc 1 248 26 is_stmt 0 discriminator 3 view .LVU88
 217 00f2 72EEA61A 		vadd.f32	s3, s5, s13
 218              		.loc 1 248 18 discriminator 3 view .LVU89
 219 00f6 CEED011A 		vstr.32	s3, [lr, #4]
 249:Drivers/CMSIS/DSP/Source/TransformFunctions/arm_cfft_f32.c ****         *pMid1++ = t3[2] + t4[2];
 220              		.loc 1 249 9 is_stmt 1 discriminator 3 view .LVU90
 221              	.LVL16:
 222              		.loc 1 249 26 is_stmt 0 discriminator 3 view .LVU91
 223 00fa 74EE231A 		vadd.f32	s3, s8, s7
 224              		.loc 1 249 18 discriminator 3 view .LVU92
 225 00fe CEED021A 		vstr.32	s3, [lr, #8]
 250:Drivers/CMSIS/DSP/Source/TransformFunctions/arm_cfft_f32.c ****         *pMid1++ = t3[3] + t4[3]; // col 1
 226              		.loc 1 250 9 is_stmt 1 discriminator 3 view .LVU93
 227              	.LVL17:
 228              		.loc 1 250 26 is_stmt 0 discriminator 3 view .LVU94
 229 0102 74EEA71A 		vadd.f32	s3, s9, s15
 230              		.loc 1 250 18 discriminator 3 view .LVU95
 231 0106 CEED031A 		vstr.32	s3, [lr, #12]
 251:Drivers/CMSIS/DSP/Source/TransformFunctions/arm_cfft_f32.c **** 
 252:Drivers/CMSIS/DSP/Source/TransformFunctions/arm_cfft_f32.c ****         t4[0] = t4[0] - t3[0];
 232              		.loc 1 252 9 is_stmt 1 discriminator 3 view .LVU96
 233              		.loc 1 252 23 is_stmt 0 discriminator 3 view .LVU97
 234 010a 75EEC25A 		vsub.f32	s11, s11, s4
 235              		.loc 1 252 15 discriminator 3 view .LVU98
 236 010e CDED005A 		vstr.32	s11, [sp]
 253:Drivers/CMSIS/DSP/Source/TransformFunctions/arm_cfft_f32.c ****         t4[1] = t4[1] - t3[1];
 237              		.loc 1 253 9 is_stmt 1 discriminator 3 view .LVU99
 238              		.loc 1 253 23 is_stmt 0 discriminator 3 view .LVU100
 239 0112 76EEE26A 		vsub.f32	s13, s13, s5
 240              		.loc 1 253 15 discriminator 3 view .LVU101
 241 0116 CDED016A 		vstr.32	s13, [sp, #4]
 254:Drivers/CMSIS/DSP/Source/TransformFunctions/arm_cfft_f32.c ****         t4[2] = t4[2] - t3[2];
 242              		.loc 1 254 9 is_stmt 1 discriminator 3 view .LVU102
 243              		.loc 1 254 23 is_stmt 0 discriminator 3 view .LVU103
 244 011a 73EEC42A 		vsub.f32	s5, s7, s8
 245              		.loc 1 254 15 discriminator 3 view .LVU104
 246 011e CDED022A 		vstr.32	s5, [sp, #8]
 255:Drivers/CMSIS/DSP/Source/TransformFunctions/arm_cfft_f32.c ****         t4[3] = t4[3] - t3[3];    // for col 2
 247              		.loc 1 255 9 is_stmt 1 discriminator 3 view .LVU105
 248              		.loc 1 255 23 is_stmt 0 discriminator 3 view .LVU106
 249 0122 77EEE47A 		vsub.f32	s15, s15, s9
 250              		.loc 1 255 15 discriminator 3 view .LVU107
 251 0126 CDED037A 		vstr.32	s15, [sp, #12]
 256:Drivers/CMSIS/DSP/Source/TransformFunctions/arm_cfft_f32.c **** 
 257:Drivers/CMSIS/DSP/Source/TransformFunctions/arm_cfft_f32.c ****         twR = *tw++;
 252              		.loc 1 257 9 is_stmt 1 discriminator 3 view .LVU108
 253              	.LVL18:
 254              		.loc 1 257 13 is_stmt 0 discriminator 3 view .LVU109
 255 012a D4ED004A 		vldr.32	s9, [r4]
 256              	.LVL19:
ARM GAS  C:\Users\17832\AppData\Local\Temp\ccvR8jgi.s 			page 10


 258:Drivers/CMSIS/DSP/Source/TransformFunctions/arm_cfft_f32.c ****         twI = *tw++;
 257              		.loc 1 258 9 is_stmt 1 discriminator 3 view .LVU110
 258              		.loc 1 258 13 is_stmt 0 discriminator 3 view .LVU111
 259 012e 94ED014A 		vldr.32	s8, [r4, #4]
 260              	.LVL20:
 259:Drivers/CMSIS/DSP/Source/TransformFunctions/arm_cfft_f32.c **** 
 260:Drivers/CMSIS/DSP/Source/TransformFunctions/arm_cfft_f32.c ****         // multiply by twiddle factors
 261:Drivers/CMSIS/DSP/Source/TransformFunctions/arm_cfft_f32.c ****         m0 = t2[0] * twR;
 261              		.loc 1 261 9 is_stmt 1 discriminator 3 view .LVU112
 262              		.loc 1 261 12 is_stmt 0 discriminator 3 view .LVU113
 263 0132 65EE243A 		vmul.f32	s7, s10, s9
 264              	.LVL21:
 262:Drivers/CMSIS/DSP/Source/TransformFunctions/arm_cfft_f32.c ****         m1 = t2[1] * twI;
 265              		.loc 1 262 9 is_stmt 1 discriminator 3 view .LVU114
 266              		.loc 1 262 12 is_stmt 0 discriminator 3 view .LVU115
 267 0136 26EE042A 		vmul.f32	s4, s12, s8
 268              	.LVL22:
 263:Drivers/CMSIS/DSP/Source/TransformFunctions/arm_cfft_f32.c ****         m2 = t2[1] * twR;
 269              		.loc 1 263 9 is_stmt 1 discriminator 3 view .LVU116
 270              		.loc 1 263 12 is_stmt 0 discriminator 3 view .LVU117
 271 013a 26EE246A 		vmul.f32	s12, s12, s9
 272              	.LVL23:
 264:Drivers/CMSIS/DSP/Source/TransformFunctions/arm_cfft_f32.c ****         m3 = t2[0] * twI;
 273              		.loc 1 264 9 is_stmt 1 discriminator 3 view .LVU118
 274              		.loc 1 264 12 is_stmt 0 discriminator 3 view .LVU119
 275 013e 25EE045A 		vmul.f32	s10, s10, s8
 276              	.LVL24:
 265:Drivers/CMSIS/DSP/Source/TransformFunctions/arm_cfft_f32.c **** 
 266:Drivers/CMSIS/DSP/Source/TransformFunctions/arm_cfft_f32.c ****         // R  =  R  *  Tr - I * Ti
 267:Drivers/CMSIS/DSP/Source/TransformFunctions/arm_cfft_f32.c ****         *p2++ = m0 + m1;
 277              		.loc 1 267 9 is_stmt 1 discriminator 3 view .LVU120
 278              		.loc 1 267 20 is_stmt 0 discriminator 3 view .LVU121
 279 0142 73EE823A 		vadd.f32	s7, s7, s4
 280              	.LVL25:
 281              		.loc 1 267 15 discriminator 3 view .LVU122
 282 0146 C2ED003A 		vstr.32	s7, [r2]
 268:Drivers/CMSIS/DSP/Source/TransformFunctions/arm_cfft_f32.c ****         // I  =  I  *  Tr + R * Ti
 269:Drivers/CMSIS/DSP/Source/TransformFunctions/arm_cfft_f32.c ****         *p2++ = m2 - m3;
 283              		.loc 1 269 9 is_stmt 1 discriminator 3 view .LVU123
 284              	.LVL26:
 285              		.loc 1 269 20 is_stmt 0 discriminator 3 view .LVU124
 286 014a 36EE456A 		vsub.f32	s12, s12, s10
 287              	.LVL27:
 288              		.loc 1 269 15 discriminator 3 view .LVU125
 289 014e 82ED016A 		vstr.32	s12, [r2, #4]
 270:Drivers/CMSIS/DSP/Source/TransformFunctions/arm_cfft_f32.c **** 
 271:Drivers/CMSIS/DSP/Source/TransformFunctions/arm_cfft_f32.c ****         // use vertical symmetry
 272:Drivers/CMSIS/DSP/Source/TransformFunctions/arm_cfft_f32.c ****         //  0.9988 - 0.0491i <==> -0.0491 - 0.9988i
 273:Drivers/CMSIS/DSP/Source/TransformFunctions/arm_cfft_f32.c ****         m0 = t4[0] * twI;
 290              		.loc 1 273 9 is_stmt 1 discriminator 3 view .LVU126
 291              		.loc 1 273 12 is_stmt 0 discriminator 3 view .LVU127
 292 0152 25EE846A 		vmul.f32	s12, s11, s8
 293              	.LVL28:
 274:Drivers/CMSIS/DSP/Source/TransformFunctions/arm_cfft_f32.c ****         m1 = t4[1] * twR;
 294              		.loc 1 274 9 is_stmt 1 discriminator 3 view .LVU128
 295              		.loc 1 274 12 is_stmt 0 discriminator 3 view .LVU129
 296 0156 26EEA45A 		vmul.f32	s10, s13, s9
ARM GAS  C:\Users\17832\AppData\Local\Temp\ccvR8jgi.s 			page 11


 297              	.LVL29:
 275:Drivers/CMSIS/DSP/Source/TransformFunctions/arm_cfft_f32.c ****         m2 = t4[1] * twI;
 298              		.loc 1 275 9 is_stmt 1 discriminator 3 view .LVU130
 299              		.loc 1 275 12 is_stmt 0 discriminator 3 view .LVU131
 300 015a 66EE846A 		vmul.f32	s13, s13, s8
 301              	.LVL30:
 276:Drivers/CMSIS/DSP/Source/TransformFunctions/arm_cfft_f32.c ****         m3 = t4[0] * twR;
 302              		.loc 1 276 9 is_stmt 1 discriminator 3 view .LVU132
 303              		.loc 1 276 12 is_stmt 0 discriminator 3 view .LVU133
 304 015e 65EEA45A 		vmul.f32	s11, s11, s9
 305              	.LVL31:
 277:Drivers/CMSIS/DSP/Source/TransformFunctions/arm_cfft_f32.c **** 
 278:Drivers/CMSIS/DSP/Source/TransformFunctions/arm_cfft_f32.c ****         *pMid2++ = m0 - m1;
 306              		.loc 1 278 9 is_stmt 1 discriminator 3 view .LVU134
 307              		.loc 1 278 23 is_stmt 0 discriminator 3 view .LVU135
 308 0162 36EE456A 		vsub.f32	s12, s12, s10
 309              	.LVL32:
 310              		.loc 1 278 18 discriminator 3 view .LVU136
 311 0166 8CED006A 		vstr.32	s12, [ip]
 279:Drivers/CMSIS/DSP/Source/TransformFunctions/arm_cfft_f32.c ****         *pMid2++ = m2 + m3;
 312              		.loc 1 279 9 is_stmt 1 discriminator 3 view .LVU137
 313              	.LVL33:
 314              		.loc 1 279 23 is_stmt 0 discriminator 3 view .LVU138
 315 016a 76EEA56A 		vadd.f32	s13, s13, s11
 316              	.LVL34:
 317              		.loc 1 279 18 discriminator 3 view .LVU139
 318 016e CCED016A 		vstr.32	s13, [ip, #4]
 280:Drivers/CMSIS/DSP/Source/TransformFunctions/arm_cfft_f32.c **** 
 281:Drivers/CMSIS/DSP/Source/TransformFunctions/arm_cfft_f32.c ****         twR = *tw++;
 319              		.loc 1 281 9 is_stmt 1 discriminator 3 view .LVU140
 320              	.LVL35:
 321              		.loc 1 281 13 is_stmt 0 discriminator 3 view .LVU141
 322 0172 94ED026A 		vldr.32	s12, [r4, #8]
 323              	.LVL36:
 282:Drivers/CMSIS/DSP/Source/TransformFunctions/arm_cfft_f32.c ****         twI = *tw++;
 324              		.loc 1 282 9 is_stmt 1 discriminator 3 view .LVU142
 325              		.loc 1 282 13 is_stmt 0 discriminator 3 view .LVU143
 326 0176 D4ED035A 		vldr.32	s11, [r4, #12]
 327              	.LVL37:
 283:Drivers/CMSIS/DSP/Source/TransformFunctions/arm_cfft_f32.c **** 
 284:Drivers/CMSIS/DSP/Source/TransformFunctions/arm_cfft_f32.c ****         m0 = t2[2] * twR;
 328              		.loc 1 284 9 is_stmt 1 discriminator 3 view .LVU144
 329              		.loc 1 284 12 is_stmt 0 discriminator 3 view .LVU145
 330 017a 23EE065A 		vmul.f32	s10, s6, s12
 331              	.LVL38:
 285:Drivers/CMSIS/DSP/Source/TransformFunctions/arm_cfft_f32.c ****         m1 = t2[3] * twI;
 332              		.loc 1 285 9 is_stmt 1 discriminator 3 view .LVU146
 333              		.loc 1 285 12 is_stmt 0 discriminator 3 view .LVU147
 334 017e 67EE254A 		vmul.f32	s9, s14, s11
 335              	.LVL39:
 286:Drivers/CMSIS/DSP/Source/TransformFunctions/arm_cfft_f32.c ****         m2 = t2[3] * twR;
 336              		.loc 1 286 9 is_stmt 1 discriminator 3 view .LVU148
 337              		.loc 1 286 12 is_stmt 0 discriminator 3 view .LVU149
 338 0182 27EE067A 		vmul.f32	s14, s14, s12
 339              	.LVL40:
 287:Drivers/CMSIS/DSP/Source/TransformFunctions/arm_cfft_f32.c ****         m3 = t2[2] * twI;
 340              		.loc 1 287 9 is_stmt 1 discriminator 3 view .LVU150
ARM GAS  C:\Users\17832\AppData\Local\Temp\ccvR8jgi.s 			page 12


 341              		.loc 1 287 12 is_stmt 0 discriminator 3 view .LVU151
 342 0186 63EE256A 		vmul.f32	s13, s6, s11
 343              	.LVL41:
 288:Drivers/CMSIS/DSP/Source/TransformFunctions/arm_cfft_f32.c **** 
 289:Drivers/CMSIS/DSP/Source/TransformFunctions/arm_cfft_f32.c ****         *p2++ = m0 + m1;
 344              		.loc 1 289 9 is_stmt 1 discriminator 3 view .LVU152
 345              		.loc 1 289 20 is_stmt 0 discriminator 3 view .LVU153
 346 018a 35EE245A 		vadd.f32	s10, s10, s9
 347              	.LVL42:
 348              		.loc 1 289 15 discriminator 3 view .LVU154
 349 018e 82ED025A 		vstr.32	s10, [r2, #8]
 290:Drivers/CMSIS/DSP/Source/TransformFunctions/arm_cfft_f32.c ****         *p2++ = m2 - m3;
 350              		.loc 1 290 9 is_stmt 1 discriminator 3 view .LVU155
 351              	.LVL43:
 352              		.loc 1 290 20 is_stmt 0 discriminator 3 view .LVU156
 353 0192 37EE667A 		vsub.f32	s14, s14, s13
 354              	.LVL44:
 355              		.loc 1 290 15 discriminator 3 view .LVU157
 356 0196 82ED037A 		vstr.32	s14, [r2, #12]
 291:Drivers/CMSIS/DSP/Source/TransformFunctions/arm_cfft_f32.c **** 
 292:Drivers/CMSIS/DSP/Source/TransformFunctions/arm_cfft_f32.c ****         m0 = t4[2] * twI;
 357              		.loc 1 292 9 is_stmt 1 discriminator 3 view .LVU158
 358              		.loc 1 292 12 is_stmt 0 discriminator 3 view .LVU159
 359 019a 62EEA56A 		vmul.f32	s13, s5, s11
 360              	.LVL45:
 293:Drivers/CMSIS/DSP/Source/TransformFunctions/arm_cfft_f32.c ****         m1 = t4[3] * twR;
 361              		.loc 1 293 9 is_stmt 1 discriminator 3 view .LVU160
 362              		.loc 1 293 12 is_stmt 0 discriminator 3 view .LVU161
 363 019e 27EE865A 		vmul.f32	s10, s15, s12
 364              	.LVL46:
 294:Drivers/CMSIS/DSP/Source/TransformFunctions/arm_cfft_f32.c ****         m2 = t4[3] * twI;
 365              		.loc 1 294 9 is_stmt 1 discriminator 3 view .LVU162
 366              		.loc 1 294 12 is_stmt 0 discriminator 3 view .LVU163
 367 01a2 67EEA57A 		vmul.f32	s15, s15, s11
 368              	.LVL47:
 295:Drivers/CMSIS/DSP/Source/TransformFunctions/arm_cfft_f32.c ****         m3 = t4[2] * twR;
 369              		.loc 1 295 9 is_stmt 1 discriminator 3 view .LVU164
 370              		.loc 1 295 12 is_stmt 0 discriminator 3 view .LVU165
 371 01a6 22EE867A 		vmul.f32	s14, s5, s12
 372              	.LVL48:
 296:Drivers/CMSIS/DSP/Source/TransformFunctions/arm_cfft_f32.c **** 
 297:Drivers/CMSIS/DSP/Source/TransformFunctions/arm_cfft_f32.c ****         *pMid2++ = m0 - m1;
 373              		.loc 1 297 9 is_stmt 1 discriminator 3 view .LVU166
 374              		.loc 1 297 23 is_stmt 0 discriminator 3 view .LVU167
 375 01aa 76EEC56A 		vsub.f32	s13, s13, s10
 376              	.LVL49:
 377              		.loc 1 297 18 discriminator 3 view .LVU168
 378 01ae CCED026A 		vstr.32	s13, [ip, #8]
 298:Drivers/CMSIS/DSP/Source/TransformFunctions/arm_cfft_f32.c ****         *pMid2++ = m2 + m3;
 379              		.loc 1 298 9 is_stmt 1 discriminator 3 view .LVU169
 380              	.LVL50:
 381              		.loc 1 298 23 is_stmt 0 discriminator 3 view .LVU170
 382 01b2 77EE877A 		vadd.f32	s15, s15, s14
 383              	.LVL51:
 384              		.loc 1 298 18 discriminator 3 view .LVU171
 385 01b6 CCED037A 		vstr.32	s15, [ip, #12]
 215:Drivers/CMSIS/DSP/Source/TransformFunctions/arm_cfft_f32.c ****     {
ARM GAS  C:\Users\17832\AppData\Local\Temp\ccvR8jgi.s 			page 13


 386              		.loc 1 215 30 is_stmt 1 discriminator 3 view .LVU172
 215:Drivers/CMSIS/DSP/Source/TransformFunctions/arm_cfft_f32.c ****     {
 387              		.loc 1 215 31 is_stmt 0 discriminator 3 view .LVU173
 388 01ba 013D     		subs	r5, r5, #1
 389              	.LVL52:
 282:Drivers/CMSIS/DSP/Source/TransformFunctions/arm_cfft_f32.c **** 
 390              		.loc 1 282 18 discriminator 3 view .LVU174
 391 01bc 1034     		adds	r4, r4, #16
 392              	.LVL53:
 290:Drivers/CMSIS/DSP/Source/TransformFunctions/arm_cfft_f32.c **** 
 393              		.loc 1 290 12 discriminator 3 view .LVU175
 394 01be 1032     		adds	r2, r2, #16
 395              	.LVL54:
 396              		.loc 1 298 15 discriminator 3 view .LVU176
 397 01c0 0CF1100C 		add	ip, ip, #16
 398              	.LVL55:
 250:Drivers/CMSIS/DSP/Source/TransformFunctions/arm_cfft_f32.c **** 
 399              		.loc 1 250 15 discriminator 3 view .LVU177
 400 01c4 0EF1100E 		add	lr, lr, #16
 401              	.LVL56:
 240:Drivers/CMSIS/DSP/Source/TransformFunctions/arm_cfft_f32.c **** 
 402              		.loc 1 240 12 discriminator 3 view .LVU178
 403 01c8 1033     		adds	r3, r3, #16
 404              	.LVL57:
 405              	.L2:
 215:Drivers/CMSIS/DSP/Source/TransformFunctions/arm_cfft_f32.c ****     {
 406              		.loc 1 215 23 is_stmt 1 discriminator 1 view .LVU179
 215:Drivers/CMSIS/DSP/Source/TransformFunctions/arm_cfft_f32.c ****     {
 407              		.loc 1 215 5 is_stmt 0 discriminator 1 view .LVU180
 408 01ca 002D     		cmp	r5, #0
 409 01cc 7FF42DAF 		bne	.L3
 299:Drivers/CMSIS/DSP/Source/TransformFunctions/arm_cfft_f32.c ****     }
 300:Drivers/CMSIS/DSP/Source/TransformFunctions/arm_cfft_f32.c **** 
 301:Drivers/CMSIS/DSP/Source/TransformFunctions/arm_cfft_f32.c ****     // first col
 302:Drivers/CMSIS/DSP/Source/TransformFunctions/arm_cfft_f32.c ****     arm_radix8_butterfly_f32( pCol1, L, (float32_t *) S->pTwiddle, 2U);
 410              		.loc 1 302 5 is_stmt 1 view .LVU181
 411 01d0 1FFA88F8 		uxth	r8, r8
 412              	.LVL58:
 413              		.loc 1 302 5 is_stmt 0 view .LVU182
 414 01d4 0223     		movs	r3, #2
 415              	.LVL59:
 416              		.loc 1 302 5 view .LVU183
 417 01d6 7268     		ldr	r2, [r6, #4]
 418              	.LVL60:
 419              		.loc 1 302 5 view .LVU184
 420 01d8 4146     		mov	r1, r8
 421 01da FFF7FEFF 		bl	arm_radix8_butterfly_f32
 422              	.LVL61:
 303:Drivers/CMSIS/DSP/Source/TransformFunctions/arm_cfft_f32.c ****     // second col
 304:Drivers/CMSIS/DSP/Source/TransformFunctions/arm_cfft_f32.c ****     arm_radix8_butterfly_f32( pCol2, L, (float32_t *) S->pTwiddle, 2U);
 423              		.loc 1 304 5 is_stmt 1 view .LVU185
 424 01de 0223     		movs	r3, #2
 425 01e0 7268     		ldr	r2, [r6, #4]
 426 01e2 4146     		mov	r1, r8
 427 01e4 3846     		mov	r0, r7
 428 01e6 FFF7FEFF 		bl	arm_radix8_butterfly_f32
 429              	.LVL62:
ARM GAS  C:\Users\17832\AppData\Local\Temp\ccvR8jgi.s 			page 14


 305:Drivers/CMSIS/DSP/Source/TransformFunctions/arm_cfft_f32.c **** }
 430              		.loc 1 305 1 is_stmt 0 view .LVU186
 431 01ea 10B0     		add	sp, sp, #64
 432              	.LCFI3:
 433              		.cfi_def_cfa_offset 32
 434              		@ sp needed
 435 01ec BDEC028B 		vldm	sp!, {d8}
 436              	.LCFI4:
 437              		.cfi_restore 80
 438              		.cfi_restore 81
 439              		.cfi_def_cfa_offset 24
 440 01f0 BDE8F081 		pop	{r4, r5, r6, r7, r8, pc}
 441              		.loc 1 305 1 view .LVU187
 442              		.cfi_endproc
 443              	.LFE135:
 445              		.section	.text.arm_cfft_radix8by4_f32,"ax",%progbits
 446              		.align	1
 447              		.global	arm_cfft_radix8by4_f32
 448              		.syntax unified
 449              		.thumb
 450              		.thumb_func
 452              	arm_cfft_radix8by4_f32:
 453              	.LVL63:
 454              	.LFB136:
 306:Drivers/CMSIS/DSP/Source/TransformFunctions/arm_cfft_f32.c **** 
 307:Drivers/CMSIS/DSP/Source/TransformFunctions/arm_cfft_f32.c **** void arm_cfft_radix8by4_f32( arm_cfft_instance_f32 * S, float32_t * p1)
 308:Drivers/CMSIS/DSP/Source/TransformFunctions/arm_cfft_f32.c **** {
 455              		.loc 1 308 1 is_stmt 1 view -0
 456              		.cfi_startproc
 457              		@ args = 0, pretend = 0, frame = 80
 458              		@ frame_needed = 0, uses_anonymous_args = 0
 459              		.loc 1 308 1 is_stmt 0 view .LVU189
 460 0000 2DE9F04F 		push	{r4, r5, r6, r7, r8, r9, r10, fp, lr}
 461              	.LCFI5:
 462              		.cfi_def_cfa_offset 36
 463              		.cfi_offset 4, -36
 464              		.cfi_offset 5, -32
 465              		.cfi_offset 6, -28
 466              		.cfi_offset 7, -24
 467              		.cfi_offset 8, -20
 468              		.cfi_offset 9, -16
 469              		.cfi_offset 10, -12
 470              		.cfi_offset 11, -8
 471              		.cfi_offset 14, -4
 472 0004 2DED048B 		vpush.64	{d8, d9}
 473              	.LCFI6:
 474              		.cfi_def_cfa_offset 52
 475              		.cfi_offset 80, -52
 476              		.cfi_offset 81, -48
 477              		.cfi_offset 82, -44
 478              		.cfi_offset 83, -40
 479 0008 95B0     		sub	sp, sp, #84
 480              	.LCFI7:
 481              		.cfi_def_cfa_offset 136
 482 000a 0546     		mov	r5, r0
 483 000c 0690     		str	r0, [sp, #24]
 484 000e 0C46     		mov	r4, r1
ARM GAS  C:\Users\17832\AppData\Local\Temp\ccvR8jgi.s 			page 15


 485 0010 0791     		str	r1, [sp, #28]
 309:Drivers/CMSIS/DSP/Source/TransformFunctions/arm_cfft_f32.c ****     uint32_t    L  = S->fftLen >> 1;
 486              		.loc 1 309 5 is_stmt 1 view .LVU190
 487              		.loc 1 309 23 is_stmt 0 view .LVU191
 488 0012 0388     		ldrh	r3, [r0]
 489              		.loc 1 309 32 view .LVU192
 490 0014 5B08     		lsrs	r3, r3, #1
 491              	.LVL64:
 310:Drivers/CMSIS/DSP/Source/TransformFunctions/arm_cfft_f32.c ****     float32_t * pCol1, *pCol2, *pCol3, *pCol4, *pEnd1, *pEnd2, *pEnd3, *pEnd4;
 492              		.loc 1 310 5 is_stmt 1 view .LVU193
 311:Drivers/CMSIS/DSP/Source/TransformFunctions/arm_cfft_f32.c ****     const float32_t *tw2, *tw3, *tw4;
 493              		.loc 1 311 5 view .LVU194
 312:Drivers/CMSIS/DSP/Source/TransformFunctions/arm_cfft_f32.c ****     float32_t * p2 = p1 + L;
 494              		.loc 1 312 5 view .LVU195
 495              		.loc 1 312 17 is_stmt 0 view .LVU196
 496 0016 01EB8302 		add	r2, r1, r3, lsl #2
 497 001a 0392     		str	r2, [sp, #12]
 498              	.LVL65:
 313:Drivers/CMSIS/DSP/Source/TransformFunctions/arm_cfft_f32.c ****     float32_t * p3 = p2 + L;
 499              		.loc 1 313 5 is_stmt 1 view .LVU197
 500              		.loc 1 313 17 is_stmt 0 view .LVU198
 501 001c 01EBC301 		add	r1, r1, r3, lsl #3
 502              	.LVL66:
 503              		.loc 1 313 17 view .LVU199
 504 0020 0E46     		mov	r6, r1
 505 0022 0491     		str	r1, [sp, #16]
 506              	.LVL67:
 314:Drivers/CMSIS/DSP/Source/TransformFunctions/arm_cfft_f32.c ****     float32_t * p4 = p3 + L;
 507              		.loc 1 314 5 is_stmt 1 view .LVU200
 508              		.loc 1 314 17 is_stmt 0 view .LVU201
 509 0024 01EB8300 		add	r0, r1, r3, lsl #2
 510              	.LVL68:
 511              		.loc 1 314 17 view .LVU202
 512 0028 0590     		str	r0, [sp, #20]
 513              	.LVL69:
 315:Drivers/CMSIS/DSP/Source/TransformFunctions/arm_cfft_f32.c ****     float32_t t2[4], t3[4], t4[4], twR, twI;
 514              		.loc 1 315 5 is_stmt 1 view .LVU203
 316:Drivers/CMSIS/DSP/Source/TransformFunctions/arm_cfft_f32.c ****     float32_t p1ap3_0, p1sp3_0, p1ap3_1, p1sp3_1;
 515              		.loc 1 316 5 view .LVU204
 317:Drivers/CMSIS/DSP/Source/TransformFunctions/arm_cfft_f32.c ****     float32_t m0, m1, m2, m3;
 516              		.loc 1 317 5 view .LVU205
 318:Drivers/CMSIS/DSP/Source/TransformFunctions/arm_cfft_f32.c ****     uint32_t l, twMod2, twMod3, twMod4;
 517              		.loc 1 318 5 view .LVU206
 319:Drivers/CMSIS/DSP/Source/TransformFunctions/arm_cfft_f32.c **** 
 320:Drivers/CMSIS/DSP/Source/TransformFunctions/arm_cfft_f32.c ****     pCol1 = p1;         // points to real values by default
 518              		.loc 1 320 5 view .LVU207
 321:Drivers/CMSIS/DSP/Source/TransformFunctions/arm_cfft_f32.c ****     pCol2 = p2;
 519              		.loc 1 321 5 view .LVU208
 322:Drivers/CMSIS/DSP/Source/TransformFunctions/arm_cfft_f32.c ****     pCol3 = p3;
 520              		.loc 1 322 5 view .LVU209
 323:Drivers/CMSIS/DSP/Source/TransformFunctions/arm_cfft_f32.c ****     pCol4 = p4;
 521              		.loc 1 323 5 view .LVU210
 324:Drivers/CMSIS/DSP/Source/TransformFunctions/arm_cfft_f32.c ****     pEnd1 = p2 - 1;     // points to imaginary values by default
 522              		.loc 1 324 5 view .LVU211
 523              		.loc 1 324 11 is_stmt 0 view .LVU212
 524 002a 171F     		subs	r7, r2, #4
 525              	.LVL70:
ARM GAS  C:\Users\17832\AppData\Local\Temp\ccvR8jgi.s 			page 16


 325:Drivers/CMSIS/DSP/Source/TransformFunctions/arm_cfft_f32.c ****     pEnd2 = p3 - 1;
 526              		.loc 1 325 5 is_stmt 1 view .LVU213
 326:Drivers/CMSIS/DSP/Source/TransformFunctions/arm_cfft_f32.c ****     pEnd3 = p4 - 1;
 527              		.loc 1 326 5 view .LVU214
 528              		.loc 1 326 11 is_stmt 0 view .LVU215
 529 002c A0F1040C 		sub	ip, r0, #4
 530              	.LVL71:
 327:Drivers/CMSIS/DSP/Source/TransformFunctions/arm_cfft_f32.c ****     pEnd4 = pEnd3 + L;
 531              		.loc 1 327 5 is_stmt 1 view .LVU216
 532              		.loc 1 327 11 is_stmt 0 view .LVU217
 533 0030 0CEB8301 		add	r1, ip, r3, lsl #2
 534              	.LVL72:
 328:Drivers/CMSIS/DSP/Source/TransformFunctions/arm_cfft_f32.c **** 
 329:Drivers/CMSIS/DSP/Source/TransformFunctions/arm_cfft_f32.c ****     tw2 = tw3 = tw4 = (float32_t *) S->pTwiddle;
 535              		.loc 1 329 5 is_stmt 1 view .LVU218
 536              		.loc 1 329 21 is_stmt 0 view .LVU219
 537 0034 6D68     		ldr	r5, [r5, #4]
 538              	.LVL73:
 330:Drivers/CMSIS/DSP/Source/TransformFunctions/arm_cfft_f32.c **** 
 331:Drivers/CMSIS/DSP/Source/TransformFunctions/arm_cfft_f32.c ****     L >>= 1;
 539              		.loc 1 331 5 is_stmt 1 view .LVU220
 540              		.loc 1 331 7 is_stmt 0 view .LVU221
 541 0036 5B08     		lsrs	r3, r3, #1
 542              	.LVL74:
 543              		.loc 1 331 7 view .LVU222
 544 0038 0293     		str	r3, [sp, #8]
 545              	.LVL75:
 332:Drivers/CMSIS/DSP/Source/TransformFunctions/arm_cfft_f32.c **** 
 333:Drivers/CMSIS/DSP/Source/TransformFunctions/arm_cfft_f32.c ****     // do four dot Fourier transform
 334:Drivers/CMSIS/DSP/Source/TransformFunctions/arm_cfft_f32.c **** 
 335:Drivers/CMSIS/DSP/Source/TransformFunctions/arm_cfft_f32.c ****     twMod2 = 2;
 546              		.loc 1 335 5 is_stmt 1 view .LVU223
 336:Drivers/CMSIS/DSP/Source/TransformFunctions/arm_cfft_f32.c ****     twMod3 = 4;
 547              		.loc 1 336 5 view .LVU224
 337:Drivers/CMSIS/DSP/Source/TransformFunctions/arm_cfft_f32.c ****     twMod4 = 6;
 548              		.loc 1 337 5 view .LVU225
 338:Drivers/CMSIS/DSP/Source/TransformFunctions/arm_cfft_f32.c **** 
 339:Drivers/CMSIS/DSP/Source/TransformFunctions/arm_cfft_f32.c ****     // TOP
 340:Drivers/CMSIS/DSP/Source/TransformFunctions/arm_cfft_f32.c ****     p1ap3_0 = p1[0] + p3[0];
 549              		.loc 1 340 5 view .LVU226
 550              		.loc 1 340 17 is_stmt 0 view .LVU227
 551 003a 2346     		mov	r3, r4
 552              	.LVL76:
 553              		.loc 1 340 17 view .LVU228
 554 003c 94ED007A 		vldr.32	s14, [r4]
 555              		.loc 1 340 25 view .LVU229
 556 0040 3446     		mov	r4, r6
 557              	.LVL77:
 558              		.loc 1 340 25 view .LVU230
 559 0042 A6F10408 		sub	r8, r6, #4
 560              	.LVL78:
 561              		.loc 1 340 25 view .LVU231
 562 0046 D6ED007A 		vldr.32	s15, [r6]
 563              		.loc 1 340 13 view .LVU232
 564 004a 37EE272A 		vadd.f32	s4, s14, s15
 565              	.LVL79:
 341:Drivers/CMSIS/DSP/Source/TransformFunctions/arm_cfft_f32.c ****     p1sp3_0 = p1[0] - p3[0];
ARM GAS  C:\Users\17832\AppData\Local\Temp\ccvR8jgi.s 			page 17


 566              		.loc 1 341 5 is_stmt 1 view .LVU233
 567              		.loc 1 341 13 is_stmt 0 view .LVU234
 568 004e 37EE677A 		vsub.f32	s14, s14, s15
 569              	.LVL80:
 342:Drivers/CMSIS/DSP/Source/TransformFunctions/arm_cfft_f32.c ****     p1ap3_1 = p1[1] + p3[1];
 570              		.loc 1 342 5 is_stmt 1 view .LVU235
 571              		.loc 1 342 17 is_stmt 0 view .LVU236
 572 0052 D3ED017A 		vldr.32	s15, [r3, #4]
 573              		.loc 1 342 25 view .LVU237
 574 0056 D6ED016A 		vldr.32	s13, [r6, #4]
 575              		.loc 1 342 13 view .LVU238
 576 005a 77EEA62A 		vadd.f32	s5, s15, s13
 577              	.LVL81:
 343:Drivers/CMSIS/DSP/Source/TransformFunctions/arm_cfft_f32.c ****     p1sp3_1 = p1[1] - p3[1];
 578              		.loc 1 343 5 is_stmt 1 view .LVU239
 579              		.loc 1 343 13 is_stmt 0 view .LVU240
 580 005e 77EEE67A 		vsub.f32	s15, s15, s13
 581              	.LVL82:
 344:Drivers/CMSIS/DSP/Source/TransformFunctions/arm_cfft_f32.c **** 
 345:Drivers/CMSIS/DSP/Source/TransformFunctions/arm_cfft_f32.c ****     // col 2
 346:Drivers/CMSIS/DSP/Source/TransformFunctions/arm_cfft_f32.c ****     t2[0] = p1sp3_0 + p2[1] - p4[1];
 582              		.loc 1 346 5 is_stmt 1 view .LVU241
 583              		.loc 1 346 25 is_stmt 0 view .LVU242
 584 0062 92ED013A 		vldr.32	s6, [r2, #4]
 585              		.loc 1 346 21 view .LVU243
 586 0066 73EE073A 		vadd.f32	s7, s6, s14
 587              		.loc 1 346 33 view .LVU244
 588 006a D0ED016A 		vldr.32	s13, [r0, #4]
 589              		.loc 1 346 29 view .LVU245
 590 006e 73EEE63A 		vsub.f32	s7, s7, s13
 591              		.loc 1 346 11 view .LVU246
 592 0072 CDED103A 		vstr.32	s7, [sp, #64]
 347:Drivers/CMSIS/DSP/Source/TransformFunctions/arm_cfft_f32.c ****     t2[1] = p1sp3_1 - p2[0] + p4[0];
 593              		.loc 1 347 5 is_stmt 1 view .LVU247
 594              		.loc 1 347 25 is_stmt 0 view .LVU248
 595 0076 D2ED005A 		vldr.32	s11, [r2]
 596              		.loc 1 347 21 view .LVU249
 597 007a 37EEE54A 		vsub.f32	s8, s15, s11
 598              		.loc 1 347 33 view .LVU250
 599 007e 90ED006A 		vldr.32	s12, [r0]
 600              		.loc 1 347 29 view .LVU251
 601 0082 34EE064A 		vadd.f32	s8, s8, s12
 602              		.loc 1 347 11 view .LVU252
 603 0086 8DED114A 		vstr.32	s8, [sp, #68]
 348:Drivers/CMSIS/DSP/Source/TransformFunctions/arm_cfft_f32.c ****     // col 3
 349:Drivers/CMSIS/DSP/Source/TransformFunctions/arm_cfft_f32.c ****     t3[0] = p1ap3_0 - p2[0] - p4[0];
 604              		.loc 1 349 5 is_stmt 1 view .LVU253
 605              		.loc 1 349 21 is_stmt 0 view .LVU254
 606 008a 72EE654A 		vsub.f32	s9, s4, s11
 607              		.loc 1 349 29 view .LVU255
 608 008e 74EEC64A 		vsub.f32	s9, s9, s12
 609              		.loc 1 349 11 view .LVU256
 610 0092 CDED0C4A 		vstr.32	s9, [sp, #48]
 350:Drivers/CMSIS/DSP/Source/TransformFunctions/arm_cfft_f32.c ****     t3[1] = p1ap3_1 - p2[1] - p4[1];
 611              		.loc 1 350 5 is_stmt 1 view .LVU257
 612              		.loc 1 350 21 is_stmt 0 view .LVU258
 613 0096 32EEC35A 		vsub.f32	s10, s5, s6
ARM GAS  C:\Users\17832\AppData\Local\Temp\ccvR8jgi.s 			page 18


 614              		.loc 1 350 29 view .LVU259
 615 009a 35EE665A 		vsub.f32	s10, s10, s13
 616              		.loc 1 350 11 view .LVU260
 617 009e 8DED0D5A 		vstr.32	s10, [sp, #52]
 351:Drivers/CMSIS/DSP/Source/TransformFunctions/arm_cfft_f32.c ****     // col 4
 352:Drivers/CMSIS/DSP/Source/TransformFunctions/arm_cfft_f32.c ****     t4[0] = p1sp3_0 - p2[1] + p4[1];
 618              		.loc 1 352 5 is_stmt 1 view .LVU261
 619              		.loc 1 352 21 is_stmt 0 view .LVU262
 620 00a2 37EE437A 		vsub.f32	s14, s14, s6
 621              	.LVL83:
 622              		.loc 1 352 29 view .LVU263
 623 00a6 36EE877A 		vadd.f32	s14, s13, s14
 624              		.loc 1 352 11 view .LVU264
 625 00aa 8DED087A 		vstr.32	s14, [sp, #32]
 353:Drivers/CMSIS/DSP/Source/TransformFunctions/arm_cfft_f32.c ****     t4[1] = p1sp3_1 + p2[0] - p4[0];
 626              		.loc 1 353 5 is_stmt 1 view .LVU265
 627              		.loc 1 353 21 is_stmt 0 view .LVU266
 628 00ae 75EEA77A 		vadd.f32	s15, s11, s15
 629              	.LVL84:
 630              		.loc 1 353 29 view .LVU267
 631 00b2 77EEC67A 		vsub.f32	s15, s15, s12
 632              		.loc 1 353 11 view .LVU268
 633 00b6 CDED097A 		vstr.32	s15, [sp, #36]
 354:Drivers/CMSIS/DSP/Source/TransformFunctions/arm_cfft_f32.c ****     // col 1
 355:Drivers/CMSIS/DSP/Source/TransformFunctions/arm_cfft_f32.c ****     *p1++ = p1ap3_0 + p2[0] + p4[0];
 634              		.loc 1 355 5 is_stmt 1 view .LVU269
 635              		.loc 1 355 21 is_stmt 0 view .LVU270
 636 00ba 75EE825A 		vadd.f32	s11, s11, s4
 637              	.LVL85:
 638              		.loc 1 355 29 view .LVU271
 639 00be 36EE256A 		vadd.f32	s12, s12, s11
 640              		.loc 1 355 11 view .LVU272
 641 00c2 9E46     		mov	lr, r3
 642 00c4 1E46     		mov	r6, r3
 643              	.LVL86:
 644              		.loc 1 355 11 view .LVU273
 645 00c6 0836     		adds	r6, r6, #8
 646 00c8 83ED006A 		vstr.32	s12, [r3]
 647              	.LVL87:
 356:Drivers/CMSIS/DSP/Source/TransformFunctions/arm_cfft_f32.c ****     *p1++ = p1ap3_1 + p2[1] + p4[1];
 648              		.loc 1 356 5 is_stmt 1 view .LVU274
 649              		.loc 1 356 25 is_stmt 0 view .LVU275
 650 00cc D2ED016A 		vldr.32	s13, [r2, #4]
 651              		.loc 1 356 21 view .LVU276
 652 00d0 76EEA26A 		vadd.f32	s13, s13, s5
 653              		.loc 1 356 33 view .LVU277
 654 00d4 0346     		mov	r3, r0
 655              	.LVL88:
 656              		.loc 1 356 33 view .LVU278
 657 00d6 90ED016A 		vldr.32	s12, [r0, #4]
 658              	.LVL89:
 659              		.loc 1 356 29 view .LVU279
 660 00da 76EE866A 		vadd.f32	s13, s13, s12
 661              		.loc 1 356 11 view .LVU280
 662 00de CEED016A 		vstr.32	s13, [lr, #4]
 357:Drivers/CMSIS/DSP/Source/TransformFunctions/arm_cfft_f32.c **** 
 358:Drivers/CMSIS/DSP/Source/TransformFunctions/arm_cfft_f32.c ****     // Twiddle factors are ones
ARM GAS  C:\Users\17832\AppData\Local\Temp\ccvR8jgi.s 			page 19


 359:Drivers/CMSIS/DSP/Source/TransformFunctions/arm_cfft_f32.c ****     *p2++ = t2[0];
 663              		.loc 1 359 5 is_stmt 1 view .LVU281
 664              	.LVL90:
 665              		.loc 1 359 11 is_stmt 0 view .LVU282
 666 00e2 1046     		mov	r0, r2
 667              	.LVL91:
 668              		.loc 1 359 11 view .LVU283
 669 00e4 0832     		adds	r2, r2, #8
 670              	.LVL92:
 671              		.loc 1 359 11 view .LVU284
 672 00e6 C0ED003A 		vstr.32	s7, [r0]
 360:Drivers/CMSIS/DSP/Source/TransformFunctions/arm_cfft_f32.c ****     *p2++ = t2[1];
 673              		.loc 1 360 5 is_stmt 1 view .LVU285
 674              	.LVL93:
 675              		.loc 1 360 11 is_stmt 0 view .LVU286
 676 00ea 80ED014A 		vstr.32	s8, [r0, #4]
 361:Drivers/CMSIS/DSP/Source/TransformFunctions/arm_cfft_f32.c ****     *p3++ = t3[0];
 677              		.loc 1 361 5 is_stmt 1 view .LVU287
 678              	.LVL94:
 679              		.loc 1 361 11 is_stmt 0 view .LVU288
 680 00ee 2046     		mov	r0, r4
 681              	.LVL95:
 682              		.loc 1 361 11 view .LVU289
 683 00f0 0830     		adds	r0, r0, #8
 684 00f2 C4ED004A 		vstr.32	s9, [r4]
 362:Drivers/CMSIS/DSP/Source/TransformFunctions/arm_cfft_f32.c ****     *p3++ = t3[1];
 685              		.loc 1 362 5 is_stmt 1 view .LVU290
 686              	.LVL96:
 687              		.loc 1 362 11 is_stmt 0 view .LVU291
 688 00f6 84ED015A 		vstr.32	s10, [r4, #4]
 363:Drivers/CMSIS/DSP/Source/TransformFunctions/arm_cfft_f32.c ****     *p4++ = t4[0];
 689              		.loc 1 363 5 is_stmt 1 view .LVU292
 690              	.LVL97:
 691              		.loc 1 363 11 is_stmt 0 view .LVU293
 692 00fa 1C46     		mov	r4, r3
 693              	.LVL98:
 694              		.loc 1 363 11 view .LVU294
 695 00fc 0833     		adds	r3, r3, #8
 696              	.LVL99:
 697              		.loc 1 363 11 view .LVU295
 698 00fe 84ED007A 		vstr.32	s14, [r4]
 364:Drivers/CMSIS/DSP/Source/TransformFunctions/arm_cfft_f32.c ****     *p4++ = t4[1];
 699              		.loc 1 364 5 is_stmt 1 view .LVU296
 700              	.LVL100:
 701              		.loc 1 364 11 is_stmt 0 view .LVU297
 702 0102 C4ED017A 		vstr.32	s15, [r4, #4]
 365:Drivers/CMSIS/DSP/Source/TransformFunctions/arm_cfft_f32.c **** 
 366:Drivers/CMSIS/DSP/Source/TransformFunctions/arm_cfft_f32.c ****     tw2 += twMod2;
 703              		.loc 1 366 5 is_stmt 1 view .LVU298
 704              		.loc 1 366 9 is_stmt 0 view .LVU299
 705 0106 05F1080A 		add	r10, r5, #8
 706              	.LVL101:
 367:Drivers/CMSIS/DSP/Source/TransformFunctions/arm_cfft_f32.c ****     tw3 += twMod3;
 707              		.loc 1 367 5 is_stmt 1 view .LVU300
 708              		.loc 1 367 9 is_stmt 0 view .LVU301
 709 010a 05F11004 		add	r4, r5, #16
 710              	.LVL102:
ARM GAS  C:\Users\17832\AppData\Local\Temp\ccvR8jgi.s 			page 20


 368:Drivers/CMSIS/DSP/Source/TransformFunctions/arm_cfft_f32.c ****     tw4 += twMod4;
 711              		.loc 1 368 5 is_stmt 1 view .LVU302
 712              		.loc 1 368 9 is_stmt 0 view .LVU303
 713 010e 05F1180E 		add	lr, r5, #24
 714              	.LVL103:
 369:Drivers/CMSIS/DSP/Source/TransformFunctions/arm_cfft_f32.c **** 
 370:Drivers/CMSIS/DSP/Source/TransformFunctions/arm_cfft_f32.c ****     for (l = (L - 2) >> 1; l > 0; l-- )
 715              		.loc 1 370 5 is_stmt 1 view .LVU304
 716              		.loc 1 370 17 is_stmt 0 view .LVU305
 717 0112 029D     		ldr	r5, [sp, #8]
 718 0114 A5F1020B 		sub	fp, r5, #2
 719              		.loc 1 370 12 view .LVU306
 720 0118 4FEA5B0B 		lsr	fp, fp, #1
 721              	.LVL104:
 722              		.loc 1 370 5 view .LVU307
 723 011c 22E1     		b	.L6
 724              	.LVL105:
 725              	.L7:
 371:Drivers/CMSIS/DSP/Source/TransformFunctions/arm_cfft_f32.c ****     {
 372:Drivers/CMSIS/DSP/Source/TransformFunctions/arm_cfft_f32.c ****         // TOP
 373:Drivers/CMSIS/DSP/Source/TransformFunctions/arm_cfft_f32.c ****         p1ap3_0 = p1[0] + p3[0];
 726              		.loc 1 373 9 is_stmt 1 discriminator 3 view .LVU308
 727              		.loc 1 373 21 is_stmt 0 discriminator 3 view .LVU309
 728 011e D6ED006A 		vldr.32	s13, [r6]
 729              		.loc 1 373 29 discriminator 3 view .LVU310
 730 0122 D0ED007A 		vldr.32	s15, [r0]
 731              		.loc 1 373 17 discriminator 3 view .LVU311
 732 0126 76EEA73A 		vadd.f32	s7, s13, s15
 733              	.LVL106:
 374:Drivers/CMSIS/DSP/Source/TransformFunctions/arm_cfft_f32.c ****         p1sp3_0 = p1[0] - p3[0];
 734              		.loc 1 374 9 is_stmt 1 discriminator 3 view .LVU312
 735              		.loc 1 374 17 is_stmt 0 discriminator 3 view .LVU313
 736 012a 76EEE76A 		vsub.f32	s13, s13, s15
 737              	.LVL107:
 375:Drivers/CMSIS/DSP/Source/TransformFunctions/arm_cfft_f32.c ****         p1ap3_1 = p1[1] + p3[1];
 738              		.loc 1 375 9 is_stmt 1 discriminator 3 view .LVU314
 739              		.loc 1 375 21 is_stmt 0 discriminator 3 view .LVU315
 740 012e 96ED017A 		vldr.32	s14, [r6, #4]
 741              		.loc 1 375 29 discriminator 3 view .LVU316
 742 0132 D0ED017A 		vldr.32	s15, [r0, #4]
 743              		.loc 1 375 17 discriminator 3 view .LVU317
 744 0136 37EE274A 		vadd.f32	s8, s14, s15
 745              	.LVL108:
 376:Drivers/CMSIS/DSP/Source/TransformFunctions/arm_cfft_f32.c ****         p1sp3_1 = p1[1] - p3[1];
 746              		.loc 1 376 9 is_stmt 1 discriminator 3 view .LVU318
 747              		.loc 1 376 17 is_stmt 0 discriminator 3 view .LVU319
 748 013a 37EE677A 		vsub.f32	s14, s14, s15
 749              	.LVL109:
 377:Drivers/CMSIS/DSP/Source/TransformFunctions/arm_cfft_f32.c ****         // col 2
 378:Drivers/CMSIS/DSP/Source/TransformFunctions/arm_cfft_f32.c ****         t2[0] = p1sp3_0 + p2[1] - p4[1];
 750              		.loc 1 378 9 is_stmt 1 discriminator 3 view .LVU320
 751              		.loc 1 378 29 is_stmt 0 discriminator 3 view .LVU321
 752 013e D2ED017A 		vldr.32	s15, [r2, #4]
 753              		.loc 1 378 25 discriminator 3 view .LVU322
 754 0142 37EEA62A 		vadd.f32	s4, s15, s13
 755              		.loc 1 378 37 discriminator 3 view .LVU323
 756 0146 93ED013A 		vldr.32	s6, [r3, #4]
ARM GAS  C:\Users\17832\AppData\Local\Temp\ccvR8jgi.s 			page 21


 757              		.loc 1 378 33 discriminator 3 view .LVU324
 758 014a 32EE432A 		vsub.f32	s4, s4, s6
 759              		.loc 1 378 15 discriminator 3 view .LVU325
 760 014e 8DED102A 		vstr.32	s4, [sp, #64]
 379:Drivers/CMSIS/DSP/Source/TransformFunctions/arm_cfft_f32.c ****         t2[1] = p1sp3_1 - p2[0] + p4[0];
 761              		.loc 1 379 9 is_stmt 1 discriminator 3 view .LVU326
 762              		.loc 1 379 29 is_stmt 0 discriminator 3 view .LVU327
 763 0152 D2ED004A 		vldr.32	s9, [r2]
 764              		.loc 1 379 25 discriminator 3 view .LVU328
 765 0156 77EE645A 		vsub.f32	s11, s14, s9
 766              		.loc 1 379 37 discriminator 3 view .LVU329
 767 015a 93ED006A 		vldr.32	s12, [r3]
 768              		.loc 1 379 33 discriminator 3 view .LVU330
 769 015e 75EE865A 		vadd.f32	s11, s11, s12
 770              		.loc 1 379 15 discriminator 3 view .LVU331
 771 0162 CDED115A 		vstr.32	s11, [sp, #68]
 380:Drivers/CMSIS/DSP/Source/TransformFunctions/arm_cfft_f32.c ****         // col 3
 381:Drivers/CMSIS/DSP/Source/TransformFunctions/arm_cfft_f32.c ****         t3[0] = p1ap3_0 - p2[0] - p4[0];
 772              		.loc 1 381 9 is_stmt 1 discriminator 3 view .LVU332
 773              		.loc 1 381 25 is_stmt 0 discriminator 3 view .LVU333
 774 0166 73EEE42A 		vsub.f32	s5, s7, s9
 775              		.loc 1 381 33 discriminator 3 view .LVU334
 776 016a 72EEC62A 		vsub.f32	s5, s5, s12
 777              		.loc 1 381 15 discriminator 3 view .LVU335
 778 016e CDED0C2A 		vstr.32	s5, [sp, #48]
 382:Drivers/CMSIS/DSP/Source/TransformFunctions/arm_cfft_f32.c ****         t3[1] = p1ap3_1 - p2[1] - p4[1];
 779              		.loc 1 382 9 is_stmt 1 discriminator 3 view .LVU336
 780              		.loc 1 382 25 is_stmt 0 discriminator 3 view .LVU337
 781 0172 34EE675A 		vsub.f32	s10, s8, s15
 782              		.loc 1 382 33 discriminator 3 view .LVU338
 783 0176 35EE435A 		vsub.f32	s10, s10, s6
 784              		.loc 1 382 15 discriminator 3 view .LVU339
 785 017a 8DED0D5A 		vstr.32	s10, [sp, #52]
 383:Drivers/CMSIS/DSP/Source/TransformFunctions/arm_cfft_f32.c ****         // col 4
 384:Drivers/CMSIS/DSP/Source/TransformFunctions/arm_cfft_f32.c ****         t4[0] = p1sp3_0 - p2[1] + p4[1];
 786              		.loc 1 384 9 is_stmt 1 discriminator 3 view .LVU340
 787              		.loc 1 384 25 is_stmt 0 discriminator 3 view .LVU341
 788 017e 76EEE76A 		vsub.f32	s13, s13, s15
 789              	.LVL110:
 790              		.loc 1 384 33 discriminator 3 view .LVU342
 791 0182 33EE263A 		vadd.f32	s6, s6, s13
 792              		.loc 1 384 15 discriminator 3 view .LVU343
 793 0186 8DED083A 		vstr.32	s6, [sp, #32]
 385:Drivers/CMSIS/DSP/Source/TransformFunctions/arm_cfft_f32.c ****         t4[1] = p1sp3_1 + p2[0] - p4[0];
 794              		.loc 1 385 9 is_stmt 1 discriminator 3 view .LVU344
 795              		.loc 1 385 25 is_stmt 0 discriminator 3 view .LVU345
 796 018a 34EE877A 		vadd.f32	s14, s9, s14
 797              	.LVL111:
 798              		.loc 1 385 33 discriminator 3 view .LVU346
 799 018e 77EE467A 		vsub.f32	s15, s14, s12
 800              		.loc 1 385 15 discriminator 3 view .LVU347
 801 0192 CDED097A 		vstr.32	s15, [sp, #36]
 386:Drivers/CMSIS/DSP/Source/TransformFunctions/arm_cfft_f32.c ****         // col 1 - top
 387:Drivers/CMSIS/DSP/Source/TransformFunctions/arm_cfft_f32.c ****         *p1++ = p1ap3_0 + p2[0] + p4[0];
 802              		.loc 1 387 9 is_stmt 1 discriminator 3 view .LVU348
 803              		.loc 1 387 25 is_stmt 0 discriminator 3 view .LVU349
 804 0196 74EEA34A 		vadd.f32	s9, s9, s7
ARM GAS  C:\Users\17832\AppData\Local\Temp\ccvR8jgi.s 			page 22


 805              	.LVL112:
 806              		.loc 1 387 33 discriminator 3 view .LVU350
 807 019a 36EE246A 		vadd.f32	s12, s12, s9
 808              		.loc 1 387 15 discriminator 3 view .LVU351
 809 019e 3546     		mov	r5, r6
 810 01a0 0835     		adds	r5, r5, #8
 811 01a2 86ED006A 		vstr.32	s12, [r6]
 812              	.LVL113:
 813              		.loc 1 387 15 discriminator 3 view .LVU352
 814 01a6 0195     		str	r5, [sp, #4]
 388:Drivers/CMSIS/DSP/Source/TransformFunctions/arm_cfft_f32.c ****         *p1++ = p1ap3_1 + p2[1] + p4[1];
 815              		.loc 1 388 9 is_stmt 1 discriminator 3 view .LVU353
 816              		.loc 1 388 29 is_stmt 0 discriminator 3 view .LVU354
 817 01a8 92ED017A 		vldr.32	s14, [r2, #4]
 818              		.loc 1 388 25 discriminator 3 view .LVU355
 819 01ac 37EE047A 		vadd.f32	s14, s14, s8
 820              		.loc 1 388 37 discriminator 3 view .LVU356
 821 01b0 D3ED016A 		vldr.32	s13, [r3, #4]
 822              	.LVL114:
 823              		.loc 1 388 33 discriminator 3 view .LVU357
 824 01b4 37EE267A 		vadd.f32	s14, s14, s13
 825              		.loc 1 388 15 discriminator 3 view .LVU358
 826 01b8 86ED017A 		vstr.32	s14, [r6, #4]
 389:Drivers/CMSIS/DSP/Source/TransformFunctions/arm_cfft_f32.c **** 
 390:Drivers/CMSIS/DSP/Source/TransformFunctions/arm_cfft_f32.c ****         // BOTTOM
 391:Drivers/CMSIS/DSP/Source/TransformFunctions/arm_cfft_f32.c ****         p1ap3_1 = pEnd1[-1] + pEnd3[-1];
 827              		.loc 1 391 9 is_stmt 1 discriminator 3 view .LVU359
 828              		.loc 1 391 24 is_stmt 0 discriminator 3 view .LVU360
 829 01bc 57ED016A 		vldr.32	s13, [r7, #-4]
 830              		.loc 1 391 36 discriminator 3 view .LVU361
 831 01c0 1CED017A 		vldr.32	s14, [ip, #-4]
 832              		.loc 1 391 17 discriminator 3 view .LVU362
 833 01c4 76EE878A 		vadd.f32	s17, s13, s14
 834              	.LVL115:
 392:Drivers/CMSIS/DSP/Source/TransformFunctions/arm_cfft_f32.c ****         p1sp3_1 = pEnd1[-1] - pEnd3[-1];
 835              		.loc 1 392 9 is_stmt 1 discriminator 3 view .LVU363
 836              		.loc 1 392 17 is_stmt 0 discriminator 3 view .LVU364
 837 01c8 76EEC76A 		vsub.f32	s13, s13, s14
 838              	.LVL116:
 393:Drivers/CMSIS/DSP/Source/TransformFunctions/arm_cfft_f32.c ****         p1ap3_0 = pEnd1[0] + pEnd3[0];
 839              		.loc 1 393 9 is_stmt 1 discriminator 3 view .LVU365
 840              		.loc 1 393 24 is_stmt 0 discriminator 3 view .LVU366
 841 01cc 97ED007A 		vldr.32	s14, [r7]
 842              		.loc 1 393 35 discriminator 3 view .LVU367
 843 01d0 9CED000A 		vldr.32	s0, [ip]
 844              		.loc 1 393 17 discriminator 3 view .LVU368
 845 01d4 77EE001A 		vadd.f32	s3, s14, s0
 846              	.LVL117:
 394:Drivers/CMSIS/DSP/Source/TransformFunctions/arm_cfft_f32.c ****         p1sp3_0 = pEnd1[0] - pEnd3[0];
 847              		.loc 1 394 9 is_stmt 1 discriminator 3 view .LVU369
 848              		.loc 1 394 17 is_stmt 0 discriminator 3 view .LVU370
 849 01d8 37EE400A 		vsub.f32	s0, s14, s0
 850              	.LVL118:
 395:Drivers/CMSIS/DSP/Source/TransformFunctions/arm_cfft_f32.c ****         // col 2
 396:Drivers/CMSIS/DSP/Source/TransformFunctions/arm_cfft_f32.c ****         t2[2] = pEnd2[0]  - pEnd4[0] + p1sp3_1;
 851              		.loc 1 396 9 is_stmt 1 discriminator 3 view .LVU371
 852              		.loc 1 396 22 is_stmt 0 discriminator 3 view .LVU372
ARM GAS  C:\Users\17832\AppData\Local\Temp\ccvR8jgi.s 			page 23


 853 01dc D8ED000A 		vldr.32	s1, [r8]
 854              		.loc 1 396 34 discriminator 3 view .LVU373
 855 01e0 91ED001A 		vldr.32	s2, [r1]
 856              		.loc 1 396 27 discriminator 3 view .LVU374
 857 01e4 30EEC19A 		vsub.f32	s18, s1, s2
 858              		.loc 1 396 38 discriminator 3 view .LVU375
 859 01e8 39EE264A 		vadd.f32	s8, s18, s13
 860              		.loc 1 396 15 discriminator 3 view .LVU376
 861 01ec 8DED124A 		vstr.32	s8, [sp, #72]
 397:Drivers/CMSIS/DSP/Source/TransformFunctions/arm_cfft_f32.c ****         t2[3] = pEnd1[0] - pEnd3[0] - pEnd2[-1] + pEnd4[-1];
 862              		.loc 1 397 9 is_stmt 1 discriminator 3 view .LVU377
 863              		.loc 1 397 44 is_stmt 0 discriminator 3 view .LVU378
 864 01f0 18ED018A 		vldr.32	s16, [r8, #-4]
 865              		.loc 1 397 37 discriminator 3 view .LVU379
 866 01f4 70EE483A 		vsub.f32	s7, s0, s16
 867              		.loc 1 397 56 discriminator 3 view .LVU380
 868 01f8 11ED017A 		vldr.32	s14, [r1, #-4]
 869              		.loc 1 397 49 discriminator 3 view .LVU381
 870 01fc 73EE873A 		vadd.f32	s7, s7, s14
 871              		.loc 1 397 15 discriminator 3 view .LVU382
 872 0200 CDED133A 		vstr.32	s7, [sp, #76]
 398:Drivers/CMSIS/DSP/Source/TransformFunctions/arm_cfft_f32.c ****         // col 3
 399:Drivers/CMSIS/DSP/Source/TransformFunctions/arm_cfft_f32.c ****         t3[2] = p1ap3_1 - pEnd2[-1] - pEnd4[-1];
 873              		.loc 1 399 9 is_stmt 1 discriminator 3 view .LVU383
 874              		.loc 1 399 25 is_stmt 0 discriminator 3 view .LVU384
 875 0204 78EEC84A 		vsub.f32	s9, s17, s16
 876              		.loc 1 399 37 discriminator 3 view .LVU385
 877 0208 74EEC74A 		vsub.f32	s9, s9, s14
 878              		.loc 1 399 15 discriminator 3 view .LVU386
 879 020c CDED0E4A 		vstr.32	s9, [sp, #56]
 400:Drivers/CMSIS/DSP/Source/TransformFunctions/arm_cfft_f32.c ****         t3[3] = p1ap3_0 - pEnd2[0]  - pEnd4[0];
 880              		.loc 1 400 9 is_stmt 1 discriminator 3 view .LVU387
 881              		.loc 1 400 25 is_stmt 0 discriminator 3 view .LVU388
 882 0210 31EEE06A 		vsub.f32	s12, s3, s1
 883              		.loc 1 400 37 discriminator 3 view .LVU389
 884 0214 36EE416A 		vsub.f32	s12, s12, s2
 885              		.loc 1 400 15 discriminator 3 view .LVU390
 886 0218 8DED0F6A 		vstr.32	s12, [sp, #60]
 401:Drivers/CMSIS/DSP/Source/TransformFunctions/arm_cfft_f32.c ****         // col 4
 402:Drivers/CMSIS/DSP/Source/TransformFunctions/arm_cfft_f32.c ****         t4[2] = pEnd2[0]  - pEnd4[0]  - p1sp3_1;
 887              		.loc 1 402 9 is_stmt 1 discriminator 3 view .LVU391
 888              		.loc 1 402 39 is_stmt 0 discriminator 3 view .LVU392
 889 021c 79EE666A 		vsub.f32	s13, s18, s13
 890              	.LVL119:
 891              		.loc 1 402 15 discriminator 3 view .LVU393
 892 0220 CDED0A6A 		vstr.32	s13, [sp, #40]
 403:Drivers/CMSIS/DSP/Source/TransformFunctions/arm_cfft_f32.c ****         t4[3] = pEnd4[-1] - pEnd2[-1] - p1sp3_0;
 893              		.loc 1 403 9 is_stmt 1 discriminator 3 view .LVU394
 894              		.loc 1 403 27 is_stmt 0 discriminator 3 view .LVU395
 895 0224 37EE487A 		vsub.f32	s14, s14, s16
 896              		.loc 1 403 39 discriminator 3 view .LVU396
 897 0228 37EE407A 		vsub.f32	s14, s14, s0
 898              		.loc 1 403 15 discriminator 3 view .LVU397
 899 022c 8DED0B7A 		vstr.32	s14, [sp, #44]
 404:Drivers/CMSIS/DSP/Source/TransformFunctions/arm_cfft_f32.c ****         // col 1 - Bottom
 405:Drivers/CMSIS/DSP/Source/TransformFunctions/arm_cfft_f32.c ****         *pEnd1-- = p1ap3_0 + pEnd2[0] + pEnd4[0];
 900              		.loc 1 405 9 is_stmt 1 discriminator 3 view .LVU398
ARM GAS  C:\Users\17832\AppData\Local\Temp\ccvR8jgi.s 			page 24


 901              		.loc 1 405 28 is_stmt 0 discriminator 3 view .LVU399
 902 0230 70EEA10A 		vadd.f32	s1, s1, s3
 903              	.LVL120:
 904              		.loc 1 405 39 discriminator 3 view .LVU400
 905 0234 31EE201A 		vadd.f32	s2, s2, s1
 906              		.loc 1 405 18 discriminator 3 view .LVU401
 907 0238 A7F10805 		sub	r5, r7, #8
 908              	.LVL121:
 909              		.loc 1 405 18 discriminator 3 view .LVU402
 910 023c 87ED001A 		vstr.32	s2, [r7]
 911              	.LVL122:
 406:Drivers/CMSIS/DSP/Source/TransformFunctions/arm_cfft_f32.c ****         *pEnd1-- = p1ap3_1 + pEnd2[-1] + pEnd4[-1];
 912              		.loc 1 406 9 is_stmt 1 discriminator 3 view .LVU403
 913              		.loc 1 406 35 is_stmt 0 discriminator 3 view .LVU404
 914 0240 58ED011A 		vldr.32	s3, [r8, #-4]
 915              	.LVL123:
 916              		.loc 1 406 28 discriminator 3 view .LVU405
 917 0244 71EEA81A 		vadd.f32	s3, s3, s17
 918              		.loc 1 406 47 discriminator 3 view .LVU406
 919 0248 11ED011A 		vldr.32	s2, [r1, #-4]
 920              	.LVL124:
 921              		.loc 1 406 40 discriminator 3 view .LVU407
 922 024c 71EE811A 		vadd.f32	s3, s3, s2
 923              		.loc 1 406 18 discriminator 3 view .LVU408
 924 0250 47ED011A 		vstr.32	s3, [r7, #-4]
 407:Drivers/CMSIS/DSP/Source/TransformFunctions/arm_cfft_f32.c **** 
 408:Drivers/CMSIS/DSP/Source/TransformFunctions/arm_cfft_f32.c ****         // COL 2
 409:Drivers/CMSIS/DSP/Source/TransformFunctions/arm_cfft_f32.c ****         // read twiddle factors
 410:Drivers/CMSIS/DSP/Source/TransformFunctions/arm_cfft_f32.c ****         twR = *tw2++;
 925              		.loc 1 410 9 is_stmt 1 discriminator 3 view .LVU409
 926              	.LVL125:
 927              		.loc 1 410 13 is_stmt 0 discriminator 3 view .LVU410
 928 0254 0AF10809 		add	r9, r10, #8
 929 0258 DAED001A 		vldr.32	s3, [r10]
 930              	.LVL126:
 411:Drivers/CMSIS/DSP/Source/TransformFunctions/arm_cfft_f32.c ****         twI = *tw2++;
 931              		.loc 1 411 9 is_stmt 1 discriminator 3 view .LVU411
 932              		.loc 1 411 13 is_stmt 0 discriminator 3 view .LVU412
 933 025c 9AED011A 		vldr.32	s2, [r10, #4]
 934              	.LVL127:
 412:Drivers/CMSIS/DSP/Source/TransformFunctions/arm_cfft_f32.c ****         // multiply by twiddle factors
 413:Drivers/CMSIS/DSP/Source/TransformFunctions/arm_cfft_f32.c ****         //  let    Z1 = a + i(b),   Z2 = c + i(d)
 414:Drivers/CMSIS/DSP/Source/TransformFunctions/arm_cfft_f32.c ****         //   =>  Z1 * Z2  =  (a*c - b*d) + i(b*c + a*d)
 415:Drivers/CMSIS/DSP/Source/TransformFunctions/arm_cfft_f32.c **** 
 416:Drivers/CMSIS/DSP/Source/TransformFunctions/arm_cfft_f32.c ****         // Top
 417:Drivers/CMSIS/DSP/Source/TransformFunctions/arm_cfft_f32.c ****         m0 = t2[0] * twR;
 935              		.loc 1 417 9 is_stmt 1 discriminator 3 view .LVU413
 936              		.loc 1 417 12 is_stmt 0 discriminator 3 view .LVU414
 937 0260 62EE210A 		vmul.f32	s1, s4, s3
 938              	.LVL128:
 418:Drivers/CMSIS/DSP/Source/TransformFunctions/arm_cfft_f32.c ****         m1 = t2[1] * twI;
 939              		.loc 1 418 9 is_stmt 1 discriminator 3 view .LVU415
 940              		.loc 1 418 12 is_stmt 0 discriminator 3 view .LVU416
 941 0264 25EE810A 		vmul.f32	s0, s11, s2
 942              	.LVL129:
 419:Drivers/CMSIS/DSP/Source/TransformFunctions/arm_cfft_f32.c ****         m2 = t2[1] * twR;
 943              		.loc 1 419 9 is_stmt 1 discriminator 3 view .LVU417
ARM GAS  C:\Users\17832\AppData\Local\Temp\ccvR8jgi.s 			page 25


 944              		.loc 1 419 12 is_stmt 0 discriminator 3 view .LVU418
 945 0268 65EEA15A 		vmul.f32	s11, s11, s3
 946              	.LVL130:
 420:Drivers/CMSIS/DSP/Source/TransformFunctions/arm_cfft_f32.c ****         m3 = t2[0] * twI;
 947              		.loc 1 420 9 is_stmt 1 discriminator 3 view .LVU419
 948              		.loc 1 420 12 is_stmt 0 discriminator 3 view .LVU420
 949 026c 22EE012A 		vmul.f32	s4, s4, s2
 950              	.LVL131:
 421:Drivers/CMSIS/DSP/Source/TransformFunctions/arm_cfft_f32.c **** 
 422:Drivers/CMSIS/DSP/Source/TransformFunctions/arm_cfft_f32.c ****         *p2++ = m0 + m1;
 951              		.loc 1 422 9 is_stmt 1 discriminator 3 view .LVU421
 952              		.loc 1 422 20 is_stmt 0 discriminator 3 view .LVU422
 953 0270 70EE800A 		vadd.f32	s1, s1, s0
 954              	.LVL132:
 955              		.loc 1 422 15 discriminator 3 view .LVU423
 956 0274 02F1080A 		add	r10, r2, #8
 957 0278 C2ED000A 		vstr.32	s1, [r2]
 423:Drivers/CMSIS/DSP/Source/TransformFunctions/arm_cfft_f32.c ****         *p2++ = m2 - m3;
 958              		.loc 1 423 9 is_stmt 1 discriminator 3 view .LVU424
 959              	.LVL133:
 960              		.loc 1 423 20 is_stmt 0 discriminator 3 view .LVU425
 961 027c 75EEC25A 		vsub.f32	s11, s11, s4
 962              	.LVL134:
 963              		.loc 1 423 15 discriminator 3 view .LVU426
 964 0280 C2ED015A 		vstr.32	s11, [r2, #4]
 424:Drivers/CMSIS/DSP/Source/TransformFunctions/arm_cfft_f32.c ****         // use vertical symmetry col 2
 425:Drivers/CMSIS/DSP/Source/TransformFunctions/arm_cfft_f32.c ****         // 0.9997 - 0.0245i  <==>  0.0245 - 0.9997i
 426:Drivers/CMSIS/DSP/Source/TransformFunctions/arm_cfft_f32.c ****         // Bottom
 427:Drivers/CMSIS/DSP/Source/TransformFunctions/arm_cfft_f32.c ****         m0 = t2[3] * twI;
 965              		.loc 1 427 9 is_stmt 1 discriminator 3 view .LVU427
 966              		.loc 1 427 12 is_stmt 0 discriminator 3 view .LVU428
 967 0284 63EE815A 		vmul.f32	s11, s7, s2
 968              	.LVL135:
 428:Drivers/CMSIS/DSP/Source/TransformFunctions/arm_cfft_f32.c ****         m1 = t2[2] * twR;
 969              		.loc 1 428 9 is_stmt 1 discriminator 3 view .LVU429
 970              		.loc 1 428 12 is_stmt 0 discriminator 3 view .LVU430
 971 0288 24EE212A 		vmul.f32	s4, s8, s3
 972              	.LVL136:
 429:Drivers/CMSIS/DSP/Source/TransformFunctions/arm_cfft_f32.c ****         m2 = t2[2] * twI;
 973              		.loc 1 429 9 is_stmt 1 discriminator 3 view .LVU431
 974              		.loc 1 429 12 is_stmt 0 discriminator 3 view .LVU432
 975 028c 24EE014A 		vmul.f32	s8, s8, s2
 976              	.LVL137:
 430:Drivers/CMSIS/DSP/Source/TransformFunctions/arm_cfft_f32.c ****         m3 = t2[3] * twR;
 977              		.loc 1 430 9 is_stmt 1 discriminator 3 view .LVU433
 978              		.loc 1 430 12 is_stmt 0 discriminator 3 view .LVU434
 979 0290 63EEA13A 		vmul.f32	s7, s7, s3
 980              	.LVL138:
 431:Drivers/CMSIS/DSP/Source/TransformFunctions/arm_cfft_f32.c **** 
 432:Drivers/CMSIS/DSP/Source/TransformFunctions/arm_cfft_f32.c ****         *pEnd2-- = m0 - m1;
 981              		.loc 1 432 9 is_stmt 1 discriminator 3 view .LVU435
 982              		.loc 1 432 23 is_stmt 0 discriminator 3 view .LVU436
 983 0294 75EEC25A 		vsub.f32	s11, s11, s4
 984              	.LVL139:
 985              		.loc 1 432 18 discriminator 3 view .LVU437
 986 0298 A8F10806 		sub	r6, r8, #8
 987 029c C8ED005A 		vstr.32	s11, [r8]
ARM GAS  C:\Users\17832\AppData\Local\Temp\ccvR8jgi.s 			page 26


 433:Drivers/CMSIS/DSP/Source/TransformFunctions/arm_cfft_f32.c ****         *pEnd2-- = m2 + m3;
 988              		.loc 1 433 9 is_stmt 1 discriminator 3 view .LVU438
 989              	.LVL140:
 990              		.loc 1 433 23 is_stmt 0 discriminator 3 view .LVU439
 991 02a0 34EE234A 		vadd.f32	s8, s8, s7
 992              	.LVL141:
 993              		.loc 1 433 18 discriminator 3 view .LVU440
 994 02a4 08ED014A 		vstr.32	s8, [r8, #-4]
 434:Drivers/CMSIS/DSP/Source/TransformFunctions/arm_cfft_f32.c **** 
 435:Drivers/CMSIS/DSP/Source/TransformFunctions/arm_cfft_f32.c ****         // COL 3
 436:Drivers/CMSIS/DSP/Source/TransformFunctions/arm_cfft_f32.c ****         twR = tw3[0];
 995              		.loc 1 436 9 is_stmt 1 discriminator 3 view .LVU441
 996              		.loc 1 436 13 is_stmt 0 discriminator 3 view .LVU442
 997 02a8 94ED004A 		vldr.32	s8, [r4]
 998              	.LVL142:
 437:Drivers/CMSIS/DSP/Source/TransformFunctions/arm_cfft_f32.c ****         twI = tw3[1];
 999              		.loc 1 437 9 is_stmt 1 discriminator 3 view .LVU443
 1000              		.loc 1 437 13 is_stmt 0 discriminator 3 view .LVU444
 1001 02ac D4ED015A 		vldr.32	s11, [r4, #4]
 1002              	.LVL143:
 438:Drivers/CMSIS/DSP/Source/TransformFunctions/arm_cfft_f32.c ****         tw3 += twMod3;
 1003              		.loc 1 438 9 is_stmt 1 discriminator 3 view .LVU445
 1004              		.loc 1 438 13 is_stmt 0 discriminator 3 view .LVU446
 1005 02b0 1034     		adds	r4, r4, #16
 1006              	.LVL144:
 439:Drivers/CMSIS/DSP/Source/TransformFunctions/arm_cfft_f32.c ****         // Top
 440:Drivers/CMSIS/DSP/Source/TransformFunctions/arm_cfft_f32.c ****         m0 = t3[0] * twR;
 1007              		.loc 1 440 9 is_stmt 1 discriminator 3 view .LVU447
 1008              		.loc 1 440 12 is_stmt 0 discriminator 3 view .LVU448
 1009 02b2 62EE843A 		vmul.f32	s7, s5, s8
 1010              	.LVL145:
 441:Drivers/CMSIS/DSP/Source/TransformFunctions/arm_cfft_f32.c ****         m1 = t3[1] * twI;
 1011              		.loc 1 441 9 is_stmt 1 discriminator 3 view .LVU449
 1012              		.loc 1 441 12 is_stmt 0 discriminator 3 view .LVU450
 1013 02b6 25EE252A 		vmul.f32	s4, s10, s11
 1014              	.LVL146:
 442:Drivers/CMSIS/DSP/Source/TransformFunctions/arm_cfft_f32.c ****         m2 = t3[1] * twR;
 1015              		.loc 1 442 9 is_stmt 1 discriminator 3 view .LVU451
 1016              		.loc 1 442 12 is_stmt 0 discriminator 3 view .LVU452
 1017 02ba 25EE045A 		vmul.f32	s10, s10, s8
 1018              	.LVL147:
 443:Drivers/CMSIS/DSP/Source/TransformFunctions/arm_cfft_f32.c ****         m3 = t3[0] * twI;
 1019              		.loc 1 443 9 is_stmt 1 discriminator 3 view .LVU453
 1020              		.loc 1 443 12 is_stmt 0 discriminator 3 view .LVU454
 1021 02be 62EEA52A 		vmul.f32	s5, s5, s11
 1022              	.LVL148:
 444:Drivers/CMSIS/DSP/Source/TransformFunctions/arm_cfft_f32.c **** 
 445:Drivers/CMSIS/DSP/Source/TransformFunctions/arm_cfft_f32.c ****         *p3++ = m0 + m1;
 1023              		.loc 1 445 9 is_stmt 1 discriminator 3 view .LVU455
 1024              		.loc 1 445 20 is_stmt 0 discriminator 3 view .LVU456
 1025 02c2 73EE823A 		vadd.f32	s7, s7, s4
 1026              	.LVL149:
 1027              		.loc 1 445 15 discriminator 3 view .LVU457
 1028 02c6 0246     		mov	r2, r0
 1029 02c8 0832     		adds	r2, r2, #8
 1030 02ca C0ED003A 		vstr.32	s7, [r0]
 446:Drivers/CMSIS/DSP/Source/TransformFunctions/arm_cfft_f32.c ****         *p3++ = m2 - m3;
ARM GAS  C:\Users\17832\AppData\Local\Temp\ccvR8jgi.s 			page 27


 1031              		.loc 1 446 9 is_stmt 1 discriminator 3 view .LVU458
 1032              	.LVL150:
 1033              		.loc 1 446 20 is_stmt 0 discriminator 3 view .LVU459
 1034 02ce 35EE625A 		vsub.f32	s10, s10, s5
 1035              	.LVL151:
 1036              		.loc 1 446 15 discriminator 3 view .LVU460
 1037 02d2 80ED015A 		vstr.32	s10, [r0, #4]
 447:Drivers/CMSIS/DSP/Source/TransformFunctions/arm_cfft_f32.c ****         // use vertical symmetry col 3
 448:Drivers/CMSIS/DSP/Source/TransformFunctions/arm_cfft_f32.c ****         // 0.9988 - 0.0491i  <==>  -0.9988 - 0.0491i
 449:Drivers/CMSIS/DSP/Source/TransformFunctions/arm_cfft_f32.c ****         // Bottom
 450:Drivers/CMSIS/DSP/Source/TransformFunctions/arm_cfft_f32.c ****         m0 = -t3[3] * twR;
 1038              		.loc 1 450 9 is_stmt 1 discriminator 3 view .LVU461
 1039              		.loc 1 450 12 is_stmt 0 discriminator 3 view .LVU462
 1040 02d6 26EE445A 		vnmul.f32	s10, s12, s8
 1041              	.LVL152:
 451:Drivers/CMSIS/DSP/Source/TransformFunctions/arm_cfft_f32.c ****         m1 = t3[2] * twI;
 1042              		.loc 1 451 9 is_stmt 1 discriminator 3 view .LVU463
 1043              		.loc 1 451 12 is_stmt 0 discriminator 3 view .LVU464
 1044 02da 64EEA53A 		vmul.f32	s7, s9, s11
 1045              	.LVL153:
 452:Drivers/CMSIS/DSP/Source/TransformFunctions/arm_cfft_f32.c ****         m2 = t3[2] * twR;
 1046              		.loc 1 452 9 is_stmt 1 discriminator 3 view .LVU465
 1047              		.loc 1 452 12 is_stmt 0 discriminator 3 view .LVU466
 1048 02de 64EE844A 		vmul.f32	s9, s9, s8
 1049              	.LVL154:
 453:Drivers/CMSIS/DSP/Source/TransformFunctions/arm_cfft_f32.c ****         m3 = t3[3] * twI;
 1050              		.loc 1 453 9 is_stmt 1 discriminator 3 view .LVU467
 1051              		.loc 1 453 12 is_stmt 0 discriminator 3 view .LVU468
 1052 02e2 26EE256A 		vmul.f32	s12, s12, s11
 1053              	.LVL155:
 454:Drivers/CMSIS/DSP/Source/TransformFunctions/arm_cfft_f32.c **** 
 455:Drivers/CMSIS/DSP/Source/TransformFunctions/arm_cfft_f32.c ****         *pEnd3-- = m0 - m1;
 1054              		.loc 1 455 9 is_stmt 1 discriminator 3 view .LVU469
 1055              		.loc 1 455 23 is_stmt 0 discriminator 3 view .LVU470
 1056 02e6 75EE635A 		vsub.f32	s11, s10, s7
 1057              	.LVL156:
 1058              		.loc 1 455 18 discriminator 3 view .LVU471
 1059 02ea ACF10807 		sub	r7, ip, #8
 1060 02ee CCED005A 		vstr.32	s11, [ip]
 456:Drivers/CMSIS/DSP/Source/TransformFunctions/arm_cfft_f32.c ****         *pEnd3-- = m3 - m2;
 1061              		.loc 1 456 9 is_stmt 1 discriminator 3 view .LVU472
 1062              	.LVL157:
 1063              		.loc 1 456 23 is_stmt 0 discriminator 3 view .LVU473
 1064 02f2 36EE646A 		vsub.f32	s12, s12, s9
 1065              	.LVL158:
 1066              		.loc 1 456 18 discriminator 3 view .LVU474
 1067 02f6 0CED016A 		vstr.32	s12, [ip, #-4]
 457:Drivers/CMSIS/DSP/Source/TransformFunctions/arm_cfft_f32.c **** 
 458:Drivers/CMSIS/DSP/Source/TransformFunctions/arm_cfft_f32.c ****         // COL 4
 459:Drivers/CMSIS/DSP/Source/TransformFunctions/arm_cfft_f32.c ****         twR = tw4[0];
 1068              		.loc 1 459 9 is_stmt 1 discriminator 3 view .LVU475
 1069              		.loc 1 459 13 is_stmt 0 discriminator 3 view .LVU476
 1070 02fa 9EED006A 		vldr.32	s12, [lr]
 1071              	.LVL159:
 460:Drivers/CMSIS/DSP/Source/TransformFunctions/arm_cfft_f32.c ****         twI = tw4[1];
 1072              		.loc 1 460 9 is_stmt 1 discriminator 3 view .LVU477
 1073              		.loc 1 460 13 is_stmt 0 discriminator 3 view .LVU478
ARM GAS  C:\Users\17832\AppData\Local\Temp\ccvR8jgi.s 			page 28


 1074 02fe DEED015A 		vldr.32	s11, [lr, #4]
 1075              	.LVL160:
 461:Drivers/CMSIS/DSP/Source/TransformFunctions/arm_cfft_f32.c ****         tw4 += twMod4;
 1076              		.loc 1 461 9 is_stmt 1 discriminator 3 view .LVU479
 1077              		.loc 1 461 13 is_stmt 0 discriminator 3 view .LVU480
 1078 0302 0EF1180E 		add	lr, lr, #24
 1079              	.LVL161:
 462:Drivers/CMSIS/DSP/Source/TransformFunctions/arm_cfft_f32.c ****         // Top
 463:Drivers/CMSIS/DSP/Source/TransformFunctions/arm_cfft_f32.c ****         m0 = t4[0] * twR;
 1080              		.loc 1 463 9 is_stmt 1 discriminator 3 view .LVU481
 1081              		.loc 1 463 12 is_stmt 0 discriminator 3 view .LVU482
 1082 0306 23EE065A 		vmul.f32	s10, s6, s12
 1083              	.LVL162:
 464:Drivers/CMSIS/DSP/Source/TransformFunctions/arm_cfft_f32.c ****         m1 = t4[1] * twI;
 1084              		.loc 1 464 9 is_stmt 1 discriminator 3 view .LVU483
 1085              		.loc 1 464 12 is_stmt 0 discriminator 3 view .LVU484
 1086 030a 67EEA54A 		vmul.f32	s9, s15, s11
 1087              	.LVL163:
 465:Drivers/CMSIS/DSP/Source/TransformFunctions/arm_cfft_f32.c ****         m2 = t4[1] * twR;
 1088              		.loc 1 465 9 is_stmt 1 discriminator 3 view .LVU485
 1089              		.loc 1 465 12 is_stmt 0 discriminator 3 view .LVU486
 1090 030e 67EE867A 		vmul.f32	s15, s15, s12
 1091              	.LVL164:
 466:Drivers/CMSIS/DSP/Source/TransformFunctions/arm_cfft_f32.c ****         m3 = t4[0] * twI;
 1092              		.loc 1 466 9 is_stmt 1 discriminator 3 view .LVU487
 1093              		.loc 1 466 12 is_stmt 0 discriminator 3 view .LVU488
 1094 0312 23EE253A 		vmul.f32	s6, s6, s11
 1095              	.LVL165:
 467:Drivers/CMSIS/DSP/Source/TransformFunctions/arm_cfft_f32.c **** 
 468:Drivers/CMSIS/DSP/Source/TransformFunctions/arm_cfft_f32.c ****         *p4++ = m0 + m1;
 1096              		.loc 1 468 9 is_stmt 1 discriminator 3 view .LVU489
 1097              		.loc 1 468 20 is_stmt 0 discriminator 3 view .LVU490
 1098 0316 35EE245A 		vadd.f32	s10, s10, s9
 1099              	.LVL166:
 1100              		.loc 1 468 15 discriminator 3 view .LVU491
 1101 031a 1846     		mov	r0, r3
 1102 031c 0830     		adds	r0, r0, #8
 1103 031e 83ED005A 		vstr.32	s10, [r3]
 469:Drivers/CMSIS/DSP/Source/TransformFunctions/arm_cfft_f32.c ****         *p4++ = m2 - m3;
 1104              		.loc 1 469 9 is_stmt 1 discriminator 3 view .LVU492
 1105              	.LVL167:
 1106              		.loc 1 469 20 is_stmt 0 discriminator 3 view .LVU493
 1107 0322 77EEC37A 		vsub.f32	s15, s15, s6
 1108              	.LVL168:
 1109              		.loc 1 469 15 discriminator 3 view .LVU494
 1110 0326 C3ED017A 		vstr.32	s15, [r3, #4]
 470:Drivers/CMSIS/DSP/Source/TransformFunctions/arm_cfft_f32.c ****         // use vertical symmetry col 4
 471:Drivers/CMSIS/DSP/Source/TransformFunctions/arm_cfft_f32.c ****         // 0.9973 - 0.0736i  <==>  -0.0736 + 0.9973i
 472:Drivers/CMSIS/DSP/Source/TransformFunctions/arm_cfft_f32.c ****         // Bottom
 473:Drivers/CMSIS/DSP/Source/TransformFunctions/arm_cfft_f32.c ****         m0 = t4[3] * twI;
 1111              		.loc 1 473 9 is_stmt 1 discriminator 3 view .LVU495
 1112              		.loc 1 473 12 is_stmt 0 discriminator 3 view .LVU496
 1113 032a 67EE257A 		vmul.f32	s15, s14, s11
 1114              	.LVL169:
 474:Drivers/CMSIS/DSP/Source/TransformFunctions/arm_cfft_f32.c ****         m1 = t4[2] * twR;
 1115              		.loc 1 474 9 is_stmt 1 discriminator 3 view .LVU497
 1116              		.loc 1 474 12 is_stmt 0 discriminator 3 view .LVU498
ARM GAS  C:\Users\17832\AppData\Local\Temp\ccvR8jgi.s 			page 29


 1117 032e 26EE865A 		vmul.f32	s10, s13, s12
 1118              	.LVL170:
 475:Drivers/CMSIS/DSP/Source/TransformFunctions/arm_cfft_f32.c ****         m2 = t4[2] * twI;
 1119              		.loc 1 475 9 is_stmt 1 discriminator 3 view .LVU499
 1120              		.loc 1 475 12 is_stmt 0 discriminator 3 view .LVU500
 1121 0332 66EEA56A 		vmul.f32	s13, s13, s11
 1122              	.LVL171:
 476:Drivers/CMSIS/DSP/Source/TransformFunctions/arm_cfft_f32.c ****         m3 = t4[3] * twR;
 1123              		.loc 1 476 9 is_stmt 1 discriminator 3 view .LVU501
 1124              		.loc 1 476 12 is_stmt 0 discriminator 3 view .LVU502
 1125 0336 27EE067A 		vmul.f32	s14, s14, s12
 1126              	.LVL172:
 477:Drivers/CMSIS/DSP/Source/TransformFunctions/arm_cfft_f32.c **** 
 478:Drivers/CMSIS/DSP/Source/TransformFunctions/arm_cfft_f32.c ****         *pEnd4-- = m0 - m1;
 1127              		.loc 1 478 9 is_stmt 1 discriminator 3 view .LVU503
 1128              		.loc 1 478 23 is_stmt 0 discriminator 3 view .LVU504
 1129 033a 77EEC57A 		vsub.f32	s15, s15, s10
 1130              	.LVL173:
 1131              		.loc 1 478 18 discriminator 3 view .LVU505
 1132 033e A1F1080C 		sub	ip, r1, #8
 1133 0342 C1ED007A 		vstr.32	s15, [r1]
 479:Drivers/CMSIS/DSP/Source/TransformFunctions/arm_cfft_f32.c ****         *pEnd4-- = m2 + m3;
 1134              		.loc 1 479 9 is_stmt 1 discriminator 3 view .LVU506
 1135              	.LVL174:
 1136              		.loc 1 479 23 is_stmt 0 discriminator 3 view .LVU507
 1137 0346 36EE877A 		vadd.f32	s14, s13, s14
 1138              	.LVL175:
 1139              		.loc 1 479 18 discriminator 3 view .LVU508
 1140 034a 01ED017A 		vstr.32	s14, [r1, #-4]
 370:Drivers/CMSIS/DSP/Source/TransformFunctions/arm_cfft_f32.c ****     {
 1141              		.loc 1 370 35 is_stmt 1 discriminator 3 view .LVU509
 370:Drivers/CMSIS/DSP/Source/TransformFunctions/arm_cfft_f32.c ****     {
 1142              		.loc 1 370 36 is_stmt 0 discriminator 3 view .LVU510
 1143 034e 0BF1FF3B 		add	fp, fp, #-1
 1144              	.LVL176:
 469:Drivers/CMSIS/DSP/Source/TransformFunctions/arm_cfft_f32.c ****         // use vertical symmetry col 4
 1145              		.loc 1 469 12 discriminator 3 view .LVU511
 1146 0352 0346     		mov	r3, r0
 446:Drivers/CMSIS/DSP/Source/TransformFunctions/arm_cfft_f32.c ****         // use vertical symmetry col 3
 1147              		.loc 1 446 12 discriminator 3 view .LVU512
 1148 0354 1046     		mov	r0, r2
 1149              	.LVL177:
 423:Drivers/CMSIS/DSP/Source/TransformFunctions/arm_cfft_f32.c ****         // use vertical symmetry col 2
 1150              		.loc 1 423 12 discriminator 3 view .LVU513
 1151 0356 5246     		mov	r2, r10
 1152              	.LVL178:
 411:Drivers/CMSIS/DSP/Source/TransformFunctions/arm_cfft_f32.c ****         // multiply by twiddle factors
 1153              		.loc 1 411 19 discriminator 3 view .LVU514
 1154 0358 CA46     		mov	r10, r9
 1155              	.LVL179:
 1156              		.loc 1 479 15 discriminator 3 view .LVU515
 1157 035a 6146     		mov	r1, ip
 456:Drivers/CMSIS/DSP/Source/TransformFunctions/arm_cfft_f32.c **** 
 1158              		.loc 1 456 15 discriminator 3 view .LVU516
 1159 035c BC46     		mov	ip, r7
 1160              	.LVL180:
 433:Drivers/CMSIS/DSP/Source/TransformFunctions/arm_cfft_f32.c **** 
ARM GAS  C:\Users\17832\AppData\Local\Temp\ccvR8jgi.s 			page 30


 1161              		.loc 1 433 15 discriminator 3 view .LVU517
 1162 035e B046     		mov	r8, r6
 406:Drivers/CMSIS/DSP/Source/TransformFunctions/arm_cfft_f32.c **** 
 1163              		.loc 1 406 15 discriminator 3 view .LVU518
 1164 0360 2F46     		mov	r7, r5
 1165              	.LVL181:
 388:Drivers/CMSIS/DSP/Source/TransformFunctions/arm_cfft_f32.c **** 
 1166              		.loc 1 388 12 discriminator 3 view .LVU519
 1167 0362 019E     		ldr	r6, [sp, #4]
 1168              	.LVL182:
 1169              	.L6:
 370:Drivers/CMSIS/DSP/Source/TransformFunctions/arm_cfft_f32.c ****     {
 1170              		.loc 1 370 28 is_stmt 1 discriminator 1 view .LVU520
 370:Drivers/CMSIS/DSP/Source/TransformFunctions/arm_cfft_f32.c ****     {
 1171              		.loc 1 370 5 is_stmt 0 discriminator 1 view .LVU521
 1172 0364 BBF1000F 		cmp	fp, #0
 1173 0368 7FF4D9AE 		bne	.L7
 480:Drivers/CMSIS/DSP/Source/TransformFunctions/arm_cfft_f32.c ****     }
 481:Drivers/CMSIS/DSP/Source/TransformFunctions/arm_cfft_f32.c **** 
 482:Drivers/CMSIS/DSP/Source/TransformFunctions/arm_cfft_f32.c ****     //MIDDLE
 483:Drivers/CMSIS/DSP/Source/TransformFunctions/arm_cfft_f32.c ****     // Twiddle factors are
 484:Drivers/CMSIS/DSP/Source/TransformFunctions/arm_cfft_f32.c ****     //  1.0000  0.7071-0.7071i  -1.0000i  -0.7071-0.7071i
 485:Drivers/CMSIS/DSP/Source/TransformFunctions/arm_cfft_f32.c ****     p1ap3_0 = p1[0] + p3[0];
 1174              		.loc 1 485 5 is_stmt 1 view .LVU522
 1175              		.loc 1 485 17 is_stmt 0 view .LVU523
 1176 036c 96ED004A 		vldr.32	s8, [r6]
 1177              		.loc 1 485 25 view .LVU524
 1178 0370 D0ED004A 		vldr.32	s9, [r0]
 1179              		.loc 1 485 13 view .LVU525
 1180 0374 34EE242A 		vadd.f32	s4, s8, s9
 1181              	.LVL183:
 486:Drivers/CMSIS/DSP/Source/TransformFunctions/arm_cfft_f32.c ****     p1sp3_0 = p1[0] - p3[0];
 1182              		.loc 1 486 5 is_stmt 1 view .LVU526
 1183              		.loc 1 486 13 is_stmt 0 view .LVU527
 1184 0378 34EE644A 		vsub.f32	s8, s8, s9
 1185              	.LVL184:
 487:Drivers/CMSIS/DSP/Source/TransformFunctions/arm_cfft_f32.c ****     p1ap3_1 = p1[1] + p3[1];
 1186              		.loc 1 487 5 is_stmt 1 view .LVU528
 1187              		.loc 1 487 17 is_stmt 0 view .LVU529
 1188 037c 96ED015A 		vldr.32	s10, [r6, #4]
 1189              		.loc 1 487 25 view .LVU530
 1190 0380 D0ED017A 		vldr.32	s15, [r0, #4]
 1191              		.loc 1 487 13 view .LVU531
 1192 0384 75EE272A 		vadd.f32	s5, s10, s15
 1193              	.LVL185:
 488:Drivers/CMSIS/DSP/Source/TransformFunctions/arm_cfft_f32.c ****     p1sp3_1 = p1[1] - p3[1];
 1194              		.loc 1 488 5 is_stmt 1 view .LVU532
 1195              		.loc 1 488 13 is_stmt 0 view .LVU533
 1196 0388 35EE675A 		vsub.f32	s10, s10, s15
 1197              	.LVL186:
 489:Drivers/CMSIS/DSP/Source/TransformFunctions/arm_cfft_f32.c **** 
 490:Drivers/CMSIS/DSP/Source/TransformFunctions/arm_cfft_f32.c ****     // col 2
 491:Drivers/CMSIS/DSP/Source/TransformFunctions/arm_cfft_f32.c ****     t2[0] = p1sp3_0 + p2[1] - p4[1];
 1198              		.loc 1 491 5 is_stmt 1 view .LVU534
 1199              		.loc 1 491 25 is_stmt 0 view .LVU535
 1200 038c D2ED017A 		vldr.32	s15, [r2, #4]
 1201              		.loc 1 491 21 view .LVU536
ARM GAS  C:\Users\17832\AppData\Local\Temp\ccvR8jgi.s 			page 31


 1202 0390 77EE845A 		vadd.f32	s11, s15, s8
 1203              		.loc 1 491 33 view .LVU537
 1204 0394 D3ED014A 		vldr.32	s9, [r3, #4]
 1205              		.loc 1 491 29 view .LVU538
 1206 0398 75EEE45A 		vsub.f32	s11, s11, s9
 1207              		.loc 1 491 11 view .LVU539
 1208 039c CDED105A 		vstr.32	s11, [sp, #64]
 492:Drivers/CMSIS/DSP/Source/TransformFunctions/arm_cfft_f32.c ****     t2[1] = p1sp3_1 - p2[0] + p4[0];
 1209              		.loc 1 492 5 is_stmt 1 view .LVU540
 1210              		.loc 1 492 25 is_stmt 0 view .LVU541
 1211 03a0 92ED003A 		vldr.32	s6, [r2]
 1212              		.loc 1 492 21 view .LVU542
 1213 03a4 75EE436A 		vsub.f32	s13, s10, s6
 1214              		.loc 1 492 33 view .LVU543
 1215 03a8 D3ED003A 		vldr.32	s7, [r3]
 1216              		.loc 1 492 29 view .LVU544
 1217 03ac 76EEA36A 		vadd.f32	s13, s13, s7
 1218              		.loc 1 492 11 view .LVU545
 1219 03b0 CDED116A 		vstr.32	s13, [sp, #68]
 493:Drivers/CMSIS/DSP/Source/TransformFunctions/arm_cfft_f32.c ****     // col 3
 494:Drivers/CMSIS/DSP/Source/TransformFunctions/arm_cfft_f32.c ****     t3[0] = p1ap3_0 - p2[0] - p4[0];
 1220              		.loc 1 494 5 is_stmt 1 view .LVU546
 1221              		.loc 1 494 21 is_stmt 0 view .LVU547
 1222 03b4 32EE436A 		vsub.f32	s12, s4, s6
 1223              		.loc 1 494 29 view .LVU548
 1224 03b8 36EE636A 		vsub.f32	s12, s12, s7
 1225              		.loc 1 494 11 view .LVU549
 1226 03bc 8DED0C6A 		vstr.32	s12, [sp, #48]
 495:Drivers/CMSIS/DSP/Source/TransformFunctions/arm_cfft_f32.c ****     t3[1] = p1ap3_1 - p2[1] - p4[1];
 1227              		.loc 1 495 5 is_stmt 1 view .LVU550
 1228              		.loc 1 495 21 is_stmt 0 view .LVU551
 1229 03c0 32EEE77A 		vsub.f32	s14, s5, s15
 1230              		.loc 1 495 29 view .LVU552
 1231 03c4 37EE647A 		vsub.f32	s14, s14, s9
 1232              		.loc 1 495 11 view .LVU553
 1233 03c8 8DED0D7A 		vstr.32	s14, [sp, #52]
 496:Drivers/CMSIS/DSP/Source/TransformFunctions/arm_cfft_f32.c ****     // col 4
 497:Drivers/CMSIS/DSP/Source/TransformFunctions/arm_cfft_f32.c ****     t4[0] = p1sp3_0 - p2[1] + p4[1];
 1234              		.loc 1 497 5 is_stmt 1 view .LVU554
 1235              		.loc 1 497 21 is_stmt 0 view .LVU555
 1236 03cc 34EE674A 		vsub.f32	s8, s8, s15
 1237              	.LVL187:
 1238              		.loc 1 497 29 view .LVU556
 1239 03d0 74EE844A 		vadd.f32	s9, s9, s8
 1240              		.loc 1 497 11 view .LVU557
 1241 03d4 CDED084A 		vstr.32	s9, [sp, #32]
 498:Drivers/CMSIS/DSP/Source/TransformFunctions/arm_cfft_f32.c ****     t4[1] = p1sp3_1 + p2[0] - p4[0];
 1242              		.loc 1 498 5 is_stmt 1 view .LVU558
 1243              		.loc 1 498 21 is_stmt 0 view .LVU559
 1244 03d8 33EE055A 		vadd.f32	s10, s6, s10
 1245              	.LVL188:
 1246              		.loc 1 498 29 view .LVU560
 1247 03dc 75EE637A 		vsub.f32	s15, s10, s7
 1248              		.loc 1 498 11 view .LVU561
 1249 03e0 CDED097A 		vstr.32	s15, [sp, #36]
 499:Drivers/CMSIS/DSP/Source/TransformFunctions/arm_cfft_f32.c ****     // col 1 - Top
 500:Drivers/CMSIS/DSP/Source/TransformFunctions/arm_cfft_f32.c ****     *p1++ = p1ap3_0 + p2[0] + p4[0];
ARM GAS  C:\Users\17832\AppData\Local\Temp\ccvR8jgi.s 			page 32


 1250              		.loc 1 500 5 is_stmt 1 view .LVU562
 1251              		.loc 1 500 21 is_stmt 0 view .LVU563
 1252 03e4 33EE023A 		vadd.f32	s6, s6, s4
 1253              	.LVL189:
 1254              		.loc 1 500 29 view .LVU564
 1255 03e8 73EE833A 		vadd.f32	s7, s7, s6
 1256              		.loc 1 500 11 view .LVU565
 1257 03ec C6ED003A 		vstr.32	s7, [r6]
 1258              	.LVL190:
 501:Drivers/CMSIS/DSP/Source/TransformFunctions/arm_cfft_f32.c ****     *p1++ = p1ap3_1 + p2[1] + p4[1];
 1259              		.loc 1 501 5 is_stmt 1 view .LVU566
 1260              		.loc 1 501 25 is_stmt 0 view .LVU567
 1261 03f0 92ED015A 		vldr.32	s10, [r2, #4]
 1262              		.loc 1 501 21 view .LVU568
 1263 03f4 35EE225A 		vadd.f32	s10, s10, s5
 1264              		.loc 1 501 33 view .LVU569
 1265 03f8 93ED014A 		vldr.32	s8, [r3, #4]
 1266              	.LVL191:
 1267              		.loc 1 501 29 view .LVU570
 1268 03fc 35EE045A 		vadd.f32	s10, s10, s8
 1269              		.loc 1 501 11 view .LVU571
 1270 0400 86ED015A 		vstr.32	s10, [r6, #4]
 502:Drivers/CMSIS/DSP/Source/TransformFunctions/arm_cfft_f32.c **** 
 503:Drivers/CMSIS/DSP/Source/TransformFunctions/arm_cfft_f32.c ****     // COL 2
 504:Drivers/CMSIS/DSP/Source/TransformFunctions/arm_cfft_f32.c ****     twR = tw2[0];
 1271              		.loc 1 504 5 is_stmt 1 view .LVU572
 1272              		.loc 1 504 9 is_stmt 0 view .LVU573
 1273 0404 DAED003A 		vldr.32	s7, [r10]
 1274              	.LVL192:
 505:Drivers/CMSIS/DSP/Source/TransformFunctions/arm_cfft_f32.c ****     twI = tw2[1];
 1275              		.loc 1 505 5 is_stmt 1 view .LVU574
 1276              		.loc 1 505 9 is_stmt 0 view .LVU575
 1277 0408 9AED014A 		vldr.32	s8, [r10, #4]
 1278              	.LVL193:
 506:Drivers/CMSIS/DSP/Source/TransformFunctions/arm_cfft_f32.c **** 
 507:Drivers/CMSIS/DSP/Source/TransformFunctions/arm_cfft_f32.c ****     m0 = t2[0] * twR;
 1279              		.loc 1 507 5 is_stmt 1 view .LVU576
 1280              		.loc 1 507 8 is_stmt 0 view .LVU577
 1281 040c 25EEA35A 		vmul.f32	s10, s11, s7
 1282              	.LVL194:
 508:Drivers/CMSIS/DSP/Source/TransformFunctions/arm_cfft_f32.c ****     m1 = t2[1] * twI;
 1283              		.loc 1 508 5 is_stmt 1 view .LVU578
 1284              		.loc 1 508 8 is_stmt 0 view .LVU579
 1285 0410 26EE843A 		vmul.f32	s6, s13, s8
 1286              	.LVL195:
 509:Drivers/CMSIS/DSP/Source/TransformFunctions/arm_cfft_f32.c ****     m2 = t2[1] * twR;
 1287              		.loc 1 509 5 is_stmt 1 view .LVU580
 1288              		.loc 1 509 8 is_stmt 0 view .LVU581
 1289 0414 66EEA36A 		vmul.f32	s13, s13, s7
 1290              	.LVL196:
 510:Drivers/CMSIS/DSP/Source/TransformFunctions/arm_cfft_f32.c ****     m3 = t2[0] * twI;
 1291              		.loc 1 510 5 is_stmt 1 view .LVU582
 1292              		.loc 1 510 8 is_stmt 0 view .LVU583
 1293 0418 65EE845A 		vmul.f32	s11, s11, s8
 1294              	.LVL197:
 511:Drivers/CMSIS/DSP/Source/TransformFunctions/arm_cfft_f32.c **** 
 512:Drivers/CMSIS/DSP/Source/TransformFunctions/arm_cfft_f32.c ****     *p2++ = m0 + m1;
ARM GAS  C:\Users\17832\AppData\Local\Temp\ccvR8jgi.s 			page 33


 1295              		.loc 1 512 5 is_stmt 1 view .LVU584
 1296              		.loc 1 512 16 is_stmt 0 view .LVU585
 1297 041c 35EE035A 		vadd.f32	s10, s10, s6
 1298              	.LVL198:
 1299              		.loc 1 512 11 view .LVU586
 1300 0420 82ED005A 		vstr.32	s10, [r2]
 513:Drivers/CMSIS/DSP/Source/TransformFunctions/arm_cfft_f32.c ****     *p2++ = m2 - m3;
 1301              		.loc 1 513 5 is_stmt 1 view .LVU587
 1302              	.LVL199:
 1303              		.loc 1 513 16 is_stmt 0 view .LVU588
 1304 0424 76EEE56A 		vsub.f32	s13, s13, s11
 1305              	.LVL200:
 1306              		.loc 1 513 11 view .LVU589
 1307 0428 C2ED016A 		vstr.32	s13, [r2, #4]
 514:Drivers/CMSIS/DSP/Source/TransformFunctions/arm_cfft_f32.c ****     // COL 3
 515:Drivers/CMSIS/DSP/Source/TransformFunctions/arm_cfft_f32.c ****     twR = tw3[0];
 1308              		.loc 1 515 5 is_stmt 1 view .LVU590
 1309              		.loc 1 515 9 is_stmt 0 view .LVU591
 1310 042c 94ED005A 		vldr.32	s10, [r4]
 1311              	.LVL201:
 516:Drivers/CMSIS/DSP/Source/TransformFunctions/arm_cfft_f32.c ****     twI = tw3[1];
 1312              		.loc 1 516 5 is_stmt 1 view .LVU592
 1313              		.loc 1 516 9 is_stmt 0 view .LVU593
 1314 0430 D4ED015A 		vldr.32	s11, [r4, #4]
 1315              	.LVL202:
 517:Drivers/CMSIS/DSP/Source/TransformFunctions/arm_cfft_f32.c **** 
 518:Drivers/CMSIS/DSP/Source/TransformFunctions/arm_cfft_f32.c ****     m0 = t3[0] * twR;
 1316              		.loc 1 518 5 is_stmt 1 view .LVU594
 1317              		.loc 1 518 8 is_stmt 0 view .LVU595
 1318 0434 66EE056A 		vmul.f32	s13, s12, s10
 1319              	.LVL203:
 519:Drivers/CMSIS/DSP/Source/TransformFunctions/arm_cfft_f32.c ****     m1 = t3[1] * twI;
 1320              		.loc 1 519 5 is_stmt 1 view .LVU596
 1321              		.loc 1 519 8 is_stmt 0 view .LVU597
 1322 0438 27EE254A 		vmul.f32	s8, s14, s11
 1323              	.LVL204:
 520:Drivers/CMSIS/DSP/Source/TransformFunctions/arm_cfft_f32.c ****     m2 = t3[1] * twR;
 1324              		.loc 1 520 5 is_stmt 1 view .LVU598
 1325              		.loc 1 520 8 is_stmt 0 view .LVU599
 1326 043c 27EE057A 		vmul.f32	s14, s14, s10
 1327              	.LVL205:
 521:Drivers/CMSIS/DSP/Source/TransformFunctions/arm_cfft_f32.c ****     m3 = t3[0] * twI;
 1328              		.loc 1 521 5 is_stmt 1 view .LVU600
 1329              		.loc 1 521 8 is_stmt 0 view .LVU601
 1330 0440 26EE256A 		vmul.f32	s12, s12, s11
 1331              	.LVL206:
 522:Drivers/CMSIS/DSP/Source/TransformFunctions/arm_cfft_f32.c **** 
 523:Drivers/CMSIS/DSP/Source/TransformFunctions/arm_cfft_f32.c ****     *p3++ = m0 + m1;
 1332              		.loc 1 523 5 is_stmt 1 view .LVU602
 1333              		.loc 1 523 16 is_stmt 0 view .LVU603
 1334 0444 76EE846A 		vadd.f32	s13, s13, s8
 1335              	.LVL207:
 1336              		.loc 1 523 11 view .LVU604
 1337 0448 C0ED006A 		vstr.32	s13, [r0]
 524:Drivers/CMSIS/DSP/Source/TransformFunctions/arm_cfft_f32.c ****     *p3++ = m2 - m3;
 1338              		.loc 1 524 5 is_stmt 1 view .LVU605
 1339              	.LVL208:
ARM GAS  C:\Users\17832\AppData\Local\Temp\ccvR8jgi.s 			page 34


 1340              		.loc 1 524 16 is_stmt 0 view .LVU606
 1341 044c 37EE467A 		vsub.f32	s14, s14, s12
 1342              	.LVL209:
 1343              		.loc 1 524 11 view .LVU607
 1344 0450 80ED017A 		vstr.32	s14, [r0, #4]
 525:Drivers/CMSIS/DSP/Source/TransformFunctions/arm_cfft_f32.c ****     // COL 4
 526:Drivers/CMSIS/DSP/Source/TransformFunctions/arm_cfft_f32.c ****     twR = tw4[0];
 1345              		.loc 1 526 5 is_stmt 1 view .LVU608
 1346              		.loc 1 526 9 is_stmt 0 view .LVU609
 1347 0454 9EED006A 		vldr.32	s12, [lr]
 1348              	.LVL210:
 527:Drivers/CMSIS/DSP/Source/TransformFunctions/arm_cfft_f32.c ****     twI = tw4[1];
 1349              		.loc 1 527 5 is_stmt 1 view .LVU610
 1350              		.loc 1 527 9 is_stmt 0 view .LVU611
 1351 0458 DEED016A 		vldr.32	s13, [lr, #4]
 1352              	.LVL211:
 528:Drivers/CMSIS/DSP/Source/TransformFunctions/arm_cfft_f32.c **** 
 529:Drivers/CMSIS/DSP/Source/TransformFunctions/arm_cfft_f32.c ****     m0 = t4[0] * twR;
 1353              		.loc 1 529 5 is_stmt 1 view .LVU612
 1354              		.loc 1 529 8 is_stmt 0 view .LVU613
 1355 045c 24EE867A 		vmul.f32	s14, s9, s12
 1356              	.LVL212:
 530:Drivers/CMSIS/DSP/Source/TransformFunctions/arm_cfft_f32.c ****     m1 = t4[1] * twI;
 1357              		.loc 1 530 5 is_stmt 1 view .LVU614
 1358              		.loc 1 530 8 is_stmt 0 view .LVU615
 1359 0460 67EEA65A 		vmul.f32	s11, s15, s13
 1360              	.LVL213:
 531:Drivers/CMSIS/DSP/Source/TransformFunctions/arm_cfft_f32.c ****     m2 = t4[1] * twR;
 1361              		.loc 1 531 5 is_stmt 1 view .LVU616
 1362              		.loc 1 531 8 is_stmt 0 view .LVU617
 1363 0464 67EE867A 		vmul.f32	s15, s15, s12
 1364              	.LVL214:
 532:Drivers/CMSIS/DSP/Source/TransformFunctions/arm_cfft_f32.c ****     m3 = t4[0] * twI;
 1365              		.loc 1 532 5 is_stmt 1 view .LVU618
 1366              		.loc 1 532 8 is_stmt 0 view .LVU619
 1367 0468 64EEA64A 		vmul.f32	s9, s9, s13
 1368              	.LVL215:
 533:Drivers/CMSIS/DSP/Source/TransformFunctions/arm_cfft_f32.c **** 
 534:Drivers/CMSIS/DSP/Source/TransformFunctions/arm_cfft_f32.c ****     *p4++ = m0 + m1;
 1369              		.loc 1 534 5 is_stmt 1 view .LVU620
 1370              		.loc 1 534 16 is_stmt 0 view .LVU621
 1371 046c 37EE257A 		vadd.f32	s14, s14, s11
 1372              	.LVL216:
 1373              		.loc 1 534 11 view .LVU622
 1374 0470 83ED007A 		vstr.32	s14, [r3]
 535:Drivers/CMSIS/DSP/Source/TransformFunctions/arm_cfft_f32.c ****     *p4++ = m2 - m3;
 1375              		.loc 1 535 5 is_stmt 1 view .LVU623
 1376              	.LVL217:
 1377              		.loc 1 535 16 is_stmt 0 view .LVU624
 1378 0474 77EEE47A 		vsub.f32	s15, s15, s9
 1379              	.LVL218:
 1380              		.loc 1 535 11 view .LVU625
 1381 0478 C3ED017A 		vstr.32	s15, [r3, #4]
 536:Drivers/CMSIS/DSP/Source/TransformFunctions/arm_cfft_f32.c **** 
 537:Drivers/CMSIS/DSP/Source/TransformFunctions/arm_cfft_f32.c ****     // first col
 538:Drivers/CMSIS/DSP/Source/TransformFunctions/arm_cfft_f32.c ****     arm_radix8_butterfly_f32( pCol1, L, (float32_t *) S->pTwiddle, 4U);
 1382              		.loc 1 538 5 is_stmt 1 view .LVU626
ARM GAS  C:\Users\17832\AppData\Local\Temp\ccvR8jgi.s 			page 35


 1383 047c BDF80840 		ldrh	r4, [sp, #8]
 1384              	.LVL219:
 1385              		.loc 1 538 5 is_stmt 0 view .LVU627
 1386 0480 0423     		movs	r3, #4
 1387              	.LVL220:
 1388              		.loc 1 538 5 view .LVU628
 1389 0482 069D     		ldr	r5, [sp, #24]
 1390 0484 6A68     		ldr	r2, [r5, #4]
 1391              	.LVL221:
 1392              		.loc 1 538 5 view .LVU629
 1393 0486 2146     		mov	r1, r4
 1394              	.LVL222:
 1395              		.loc 1 538 5 view .LVU630
 1396 0488 0798     		ldr	r0, [sp, #28]
 1397              	.LVL223:
 1398              		.loc 1 538 5 view .LVU631
 1399 048a FFF7FEFF 		bl	arm_radix8_butterfly_f32
 1400              	.LVL224:
 539:Drivers/CMSIS/DSP/Source/TransformFunctions/arm_cfft_f32.c ****     // second col
 540:Drivers/CMSIS/DSP/Source/TransformFunctions/arm_cfft_f32.c ****     arm_radix8_butterfly_f32( pCol2, L, (float32_t *) S->pTwiddle, 4U);
 1401              		.loc 1 540 5 is_stmt 1 view .LVU632
 1402 048e 0423     		movs	r3, #4
 1403 0490 6A68     		ldr	r2, [r5, #4]
 1404 0492 2146     		mov	r1, r4
 1405 0494 0398     		ldr	r0, [sp, #12]
 1406 0496 FFF7FEFF 		bl	arm_radix8_butterfly_f32
 1407              	.LVL225:
 541:Drivers/CMSIS/DSP/Source/TransformFunctions/arm_cfft_f32.c ****     // third col
 542:Drivers/CMSIS/DSP/Source/TransformFunctions/arm_cfft_f32.c ****     arm_radix8_butterfly_f32( pCol3, L, (float32_t *) S->pTwiddle, 4U);
 1408              		.loc 1 542 5 view .LVU633
 1409 049a 0423     		movs	r3, #4
 1410 049c 6A68     		ldr	r2, [r5, #4]
 1411 049e 2146     		mov	r1, r4
 1412 04a0 0498     		ldr	r0, [sp, #16]
 1413 04a2 FFF7FEFF 		bl	arm_radix8_butterfly_f32
 1414              	.LVL226:
 543:Drivers/CMSIS/DSP/Source/TransformFunctions/arm_cfft_f32.c ****     // fourth col
 544:Drivers/CMSIS/DSP/Source/TransformFunctions/arm_cfft_f32.c ****     arm_radix8_butterfly_f32( pCol4, L, (float32_t *) S->pTwiddle, 4U);
 1415              		.loc 1 544 5 view .LVU634
 1416 04a6 0423     		movs	r3, #4
 1417 04a8 6A68     		ldr	r2, [r5, #4]
 1418 04aa 2146     		mov	r1, r4
 1419 04ac 0598     		ldr	r0, [sp, #20]
 1420 04ae FFF7FEFF 		bl	arm_radix8_butterfly_f32
 1421              	.LVL227:
 545:Drivers/CMSIS/DSP/Source/TransformFunctions/arm_cfft_f32.c **** }
 1422              		.loc 1 545 1 is_stmt 0 view .LVU635
 1423 04b2 15B0     		add	sp, sp, #84
 1424              	.LCFI8:
 1425              		.cfi_def_cfa_offset 52
 1426              		@ sp needed
 1427 04b4 BDEC048B 		vldm	sp!, {d8-d9}
 1428              	.LCFI9:
 1429              		.cfi_restore 82
 1430              		.cfi_restore 83
 1431              		.cfi_restore 80
 1432              		.cfi_restore 81
ARM GAS  C:\Users\17832\AppData\Local\Temp\ccvR8jgi.s 			page 36


 1433              		.cfi_def_cfa_offset 36
 1434 04b8 BDE8F08F 		pop	{r4, r5, r6, r7, r8, r9, r10, fp, pc}
 1435              		.loc 1 545 1 view .LVU636
 1436              		.cfi_endproc
 1437              	.LFE136:
 1439              		.section	.text.arm_cfft_f32,"ax",%progbits
 1440              		.align	1
 1441              		.global	arm_cfft_f32
 1442              		.syntax unified
 1443              		.thumb
 1444              		.thumb_func
 1446              	arm_cfft_f32:
 1447              	.LVL228:
 1448              	.LFB137:
 546:Drivers/CMSIS/DSP/Source/TransformFunctions/arm_cfft_f32.c **** 
 547:Drivers/CMSIS/DSP/Source/TransformFunctions/arm_cfft_f32.c **** /**
 548:Drivers/CMSIS/DSP/Source/TransformFunctions/arm_cfft_f32.c **** * @addtogroup ComplexFFT
 549:Drivers/CMSIS/DSP/Source/TransformFunctions/arm_cfft_f32.c **** * @{
 550:Drivers/CMSIS/DSP/Source/TransformFunctions/arm_cfft_f32.c **** */
 551:Drivers/CMSIS/DSP/Source/TransformFunctions/arm_cfft_f32.c **** 
 552:Drivers/CMSIS/DSP/Source/TransformFunctions/arm_cfft_f32.c **** /**
 553:Drivers/CMSIS/DSP/Source/TransformFunctions/arm_cfft_f32.c **** * @details
 554:Drivers/CMSIS/DSP/Source/TransformFunctions/arm_cfft_f32.c **** * @brief       Processing function for the floating-point complex FFT.
 555:Drivers/CMSIS/DSP/Source/TransformFunctions/arm_cfft_f32.c **** * @param[in]      *S    points to an instance of the floating-point CFFT structure.
 556:Drivers/CMSIS/DSP/Source/TransformFunctions/arm_cfft_f32.c **** * @param[in, out] *p1   points to the complex data buffer of size <code>2*fftLen</code>. Processing
 557:Drivers/CMSIS/DSP/Source/TransformFunctions/arm_cfft_f32.c **** * @param[in]     ifftFlag       flag that selects forward (ifftFlag=0) or inverse (ifftFlag=1) tran
 558:Drivers/CMSIS/DSP/Source/TransformFunctions/arm_cfft_f32.c **** * @param[in]     bitReverseFlag flag that enables (bitReverseFlag=1) or disables (bitReverseFlag=0)
 559:Drivers/CMSIS/DSP/Source/TransformFunctions/arm_cfft_f32.c **** * @return none.
 560:Drivers/CMSIS/DSP/Source/TransformFunctions/arm_cfft_f32.c **** */
 561:Drivers/CMSIS/DSP/Source/TransformFunctions/arm_cfft_f32.c **** 
 562:Drivers/CMSIS/DSP/Source/TransformFunctions/arm_cfft_f32.c **** void arm_cfft_f32(
 563:Drivers/CMSIS/DSP/Source/TransformFunctions/arm_cfft_f32.c ****     const arm_cfft_instance_f32 * S,
 564:Drivers/CMSIS/DSP/Source/TransformFunctions/arm_cfft_f32.c ****     float32_t * p1,
 565:Drivers/CMSIS/DSP/Source/TransformFunctions/arm_cfft_f32.c ****     uint8_t ifftFlag,
 566:Drivers/CMSIS/DSP/Source/TransformFunctions/arm_cfft_f32.c ****     uint8_t bitReverseFlag)
 567:Drivers/CMSIS/DSP/Source/TransformFunctions/arm_cfft_f32.c **** {
 1449              		.loc 1 567 1 is_stmt 1 view -0
 1450              		.cfi_startproc
 1451              		@ args = 0, pretend = 0, frame = 0
 1452              		@ frame_needed = 0, uses_anonymous_args = 0
 1453              		.loc 1 567 1 is_stmt 0 view .LVU638
 1454 0000 2DE9F041 		push	{r4, r5, r6, r7, r8, lr}
 1455              	.LCFI10:
 1456              		.cfi_def_cfa_offset 24
 1457              		.cfi_offset 4, -24
 1458              		.cfi_offset 5, -20
 1459              		.cfi_offset 6, -16
 1460              		.cfi_offset 7, -12
 1461              		.cfi_offset 8, -8
 1462              		.cfi_offset 14, -4
 1463 0004 0646     		mov	r6, r0
 1464 0006 0C46     		mov	r4, r1
 1465 0008 1746     		mov	r7, r2
 1466 000a 9846     		mov	r8, r3
 568:Drivers/CMSIS/DSP/Source/TransformFunctions/arm_cfft_f32.c ****     uint32_t  L = S->fftLen, l;
 1467              		.loc 1 568 5 is_stmt 1 view .LVU639
 1468              		.loc 1 568 20 is_stmt 0 view .LVU640
ARM GAS  C:\Users\17832\AppData\Local\Temp\ccvR8jgi.s 			page 37


 1469 000c 0588     		ldrh	r5, [r0]
 1470              	.LVL229:
 569:Drivers/CMSIS/DSP/Source/TransformFunctions/arm_cfft_f32.c ****     float32_t invL, * pSrc;
 1471              		.loc 1 569 5 is_stmt 1 view .LVU641
 570:Drivers/CMSIS/DSP/Source/TransformFunctions/arm_cfft_f32.c **** 
 571:Drivers/CMSIS/DSP/Source/TransformFunctions/arm_cfft_f32.c ****     if (ifftFlag == 1U)
 1472              		.loc 1 571 5 view .LVU642
 1473              		.loc 1 571 8 is_stmt 0 view .LVU643
 1474 000e 012A     		cmp	r2, #1
 1475 0010 0FD0     		beq	.L25
 1476              	.LVL230:
 1477              	.L10:
 572:Drivers/CMSIS/DSP/Source/TransformFunctions/arm_cfft_f32.c ****     {
 573:Drivers/CMSIS/DSP/Source/TransformFunctions/arm_cfft_f32.c ****         /*  Conjugate input data  */
 574:Drivers/CMSIS/DSP/Source/TransformFunctions/arm_cfft_f32.c ****         pSrc = p1 + 1;
 575:Drivers/CMSIS/DSP/Source/TransformFunctions/arm_cfft_f32.c ****         for(l=0; l<L; l++)
 576:Drivers/CMSIS/DSP/Source/TransformFunctions/arm_cfft_f32.c ****         {
 577:Drivers/CMSIS/DSP/Source/TransformFunctions/arm_cfft_f32.c ****             *pSrc = -*pSrc;
 578:Drivers/CMSIS/DSP/Source/TransformFunctions/arm_cfft_f32.c ****             pSrc += 2;
 579:Drivers/CMSIS/DSP/Source/TransformFunctions/arm_cfft_f32.c ****         }
 580:Drivers/CMSIS/DSP/Source/TransformFunctions/arm_cfft_f32.c ****     }
 581:Drivers/CMSIS/DSP/Source/TransformFunctions/arm_cfft_f32.c **** 
 582:Drivers/CMSIS/DSP/Source/TransformFunctions/arm_cfft_f32.c ****     switch (L)
 1478              		.loc 1 582 5 is_stmt 1 view .LVU644
 1479 0012 B5F5807F 		cmp	r5, #256
 1480 0016 21D0     		beq	.L13
 1481 0018 25D8     		bhi	.L14
 1482 001a 402D     		cmp	r5, #64
 1483 001c 2AD0     		beq	.L15
 1484 001e 19D9     		bls	.L26
 1485 0020 802D     		cmp	r5, #128
 1486 0022 34D0     		beq	.L17
 1487              	.LVL231:
 1488              	.L18:
 583:Drivers/CMSIS/DSP/Source/TransformFunctions/arm_cfft_f32.c ****     {
 584:Drivers/CMSIS/DSP/Source/TransformFunctions/arm_cfft_f32.c ****     case 16:
 585:Drivers/CMSIS/DSP/Source/TransformFunctions/arm_cfft_f32.c ****     case 128:
 586:Drivers/CMSIS/DSP/Source/TransformFunctions/arm_cfft_f32.c ****     case 1024:
 587:Drivers/CMSIS/DSP/Source/TransformFunctions/arm_cfft_f32.c ****         arm_cfft_radix8by2_f32  ( (arm_cfft_instance_f32 *) S, p1);
 588:Drivers/CMSIS/DSP/Source/TransformFunctions/arm_cfft_f32.c ****         break;
 589:Drivers/CMSIS/DSP/Source/TransformFunctions/arm_cfft_f32.c ****     case 32:
 590:Drivers/CMSIS/DSP/Source/TransformFunctions/arm_cfft_f32.c ****     case 256:
 591:Drivers/CMSIS/DSP/Source/TransformFunctions/arm_cfft_f32.c ****     case 2048:
 592:Drivers/CMSIS/DSP/Source/TransformFunctions/arm_cfft_f32.c ****         arm_cfft_radix8by4_f32  ( (arm_cfft_instance_f32 *) S, p1);
 593:Drivers/CMSIS/DSP/Source/TransformFunctions/arm_cfft_f32.c ****         break;
 594:Drivers/CMSIS/DSP/Source/TransformFunctions/arm_cfft_f32.c ****     case 64:
 595:Drivers/CMSIS/DSP/Source/TransformFunctions/arm_cfft_f32.c ****     case 512:
 596:Drivers/CMSIS/DSP/Source/TransformFunctions/arm_cfft_f32.c ****     case 4096:
 597:Drivers/CMSIS/DSP/Source/TransformFunctions/arm_cfft_f32.c ****         arm_radix8_butterfly_f32( p1, L, (float32_t *) S->pTwiddle, 1);
 598:Drivers/CMSIS/DSP/Source/TransformFunctions/arm_cfft_f32.c ****         break;
 599:Drivers/CMSIS/DSP/Source/TransformFunctions/arm_cfft_f32.c ****     }
 600:Drivers/CMSIS/DSP/Source/TransformFunctions/arm_cfft_f32.c **** 
 601:Drivers/CMSIS/DSP/Source/TransformFunctions/arm_cfft_f32.c ****     if ( bitReverseFlag )
 1489              		.loc 1 601 5 view .LVU645
 1490              		.loc 1 601 8 is_stmt 0 view .LVU646
 1491 0024 B8F1000F 		cmp	r8, #0
 1492 0028 36D1     		bne	.L27
ARM GAS  C:\Users\17832\AppData\Local\Temp\ccvR8jgi.s 			page 38


 1493              	.L20:
 602:Drivers/CMSIS/DSP/Source/TransformFunctions/arm_cfft_f32.c ****         arm_bitreversal_32((uint32_t*)p1,S->bitRevLength,S->pBitRevTable);
 603:Drivers/CMSIS/DSP/Source/TransformFunctions/arm_cfft_f32.c **** 
 604:Drivers/CMSIS/DSP/Source/TransformFunctions/arm_cfft_f32.c ****     if (ifftFlag == 1U)
 1494              		.loc 1 604 5 is_stmt 1 view .LVU647
 1495              		.loc 1 604 8 is_stmt 0 view .LVU648
 1496 002a 012F     		cmp	r7, #1
 1497 002c 3AD0     		beq	.L28
 1498              	.LVL232:
 1499              	.L9:
 605:Drivers/CMSIS/DSP/Source/TransformFunctions/arm_cfft_f32.c ****     {
 606:Drivers/CMSIS/DSP/Source/TransformFunctions/arm_cfft_f32.c ****         invL = 1.0f/(float32_t)L;
 607:Drivers/CMSIS/DSP/Source/TransformFunctions/arm_cfft_f32.c ****         /*  Conjugate and scale output data */
 608:Drivers/CMSIS/DSP/Source/TransformFunctions/arm_cfft_f32.c ****         pSrc = p1;
 609:Drivers/CMSIS/DSP/Source/TransformFunctions/arm_cfft_f32.c ****         for(l=0; l<L; l++)
 610:Drivers/CMSIS/DSP/Source/TransformFunctions/arm_cfft_f32.c ****         {
 611:Drivers/CMSIS/DSP/Source/TransformFunctions/arm_cfft_f32.c ****             *pSrc++ *=   invL ;
 612:Drivers/CMSIS/DSP/Source/TransformFunctions/arm_cfft_f32.c ****             *pSrc  = -(*pSrc) * invL;
 613:Drivers/CMSIS/DSP/Source/TransformFunctions/arm_cfft_f32.c ****             pSrc++;
 614:Drivers/CMSIS/DSP/Source/TransformFunctions/arm_cfft_f32.c ****         }
 615:Drivers/CMSIS/DSP/Source/TransformFunctions/arm_cfft_f32.c ****     }
 616:Drivers/CMSIS/DSP/Source/TransformFunctions/arm_cfft_f32.c **** }
 1500              		.loc 1 616 1 view .LVU649
 1501 002e BDE8F081 		pop	{r4, r5, r6, r7, r8, pc}
 1502              	.LVL233:
 1503              	.L25:
 574:Drivers/CMSIS/DSP/Source/TransformFunctions/arm_cfft_f32.c ****         for(l=0; l<L; l++)
 1504              		.loc 1 574 9 is_stmt 1 view .LVU650
 574:Drivers/CMSIS/DSP/Source/TransformFunctions/arm_cfft_f32.c ****         for(l=0; l<L; l++)
 1505              		.loc 1 574 14 is_stmt 0 view .LVU651
 1506 0032 01F1040C 		add	ip, r1, #4
 1507              	.LVL234:
 575:Drivers/CMSIS/DSP/Source/TransformFunctions/arm_cfft_f32.c ****         {
 1508              		.loc 1 575 9 is_stmt 1 view .LVU652
 575:Drivers/CMSIS/DSP/Source/TransformFunctions/arm_cfft_f32.c ****         {
 1509              		.loc 1 575 14 is_stmt 0 view .LVU653
 1510 0036 0021     		movs	r1, #0
 1511              	.LVL235:
 575:Drivers/CMSIS/DSP/Source/TransformFunctions/arm_cfft_f32.c ****         {
 1512              		.loc 1 575 9 view .LVU654
 1513 0038 09E0     		b	.L11
 1514              	.LVL236:
 1515              	.L12:
 577:Drivers/CMSIS/DSP/Source/TransformFunctions/arm_cfft_f32.c ****             pSrc += 2;
 1516              		.loc 1 577 13 is_stmt 1 discriminator 3 view .LVU655
 577:Drivers/CMSIS/DSP/Source/TransformFunctions/arm_cfft_f32.c ****             pSrc += 2;
 1517              		.loc 1 577 22 is_stmt 0 discriminator 3 view .LVU656
 1518 003a DCED007A 		vldr.32	s15, [ip]
 577:Drivers/CMSIS/DSP/Source/TransformFunctions/arm_cfft_f32.c ****             pSrc += 2;
 1519              		.loc 1 577 21 discriminator 3 view .LVU657
 1520 003e F1EE677A 		vneg.f32	s15, s15
 577:Drivers/CMSIS/DSP/Source/TransformFunctions/arm_cfft_f32.c ****             pSrc += 2;
 1521              		.loc 1 577 19 discriminator 3 view .LVU658
 1522 0042 6346     		mov	r3, ip
 1523 0044 0CF1080C 		add	ip, ip, #8
 1524              	.LVL237:
 577:Drivers/CMSIS/DSP/Source/TransformFunctions/arm_cfft_f32.c ****             pSrc += 2;
ARM GAS  C:\Users\17832\AppData\Local\Temp\ccvR8jgi.s 			page 39


 1525              		.loc 1 577 19 discriminator 3 view .LVU659
 1526 0048 C3ED007A 		vstr.32	s15, [r3]
 578:Drivers/CMSIS/DSP/Source/TransformFunctions/arm_cfft_f32.c ****         }
 1527              		.loc 1 578 13 is_stmt 1 discriminator 3 view .LVU660
 1528              	.LVL238:
 575:Drivers/CMSIS/DSP/Source/TransformFunctions/arm_cfft_f32.c ****         {
 1529              		.loc 1 575 23 discriminator 3 view .LVU661
 575:Drivers/CMSIS/DSP/Source/TransformFunctions/arm_cfft_f32.c ****         {
 1530              		.loc 1 575 24 is_stmt 0 discriminator 3 view .LVU662
 1531 004c 0131     		adds	r1, r1, #1
 1532              	.LVL239:
 1533              	.L11:
 575:Drivers/CMSIS/DSP/Source/TransformFunctions/arm_cfft_f32.c ****         {
 1534              		.loc 1 575 18 is_stmt 1 discriminator 1 view .LVU663
 575:Drivers/CMSIS/DSP/Source/TransformFunctions/arm_cfft_f32.c ****         {
 1535              		.loc 1 575 9 is_stmt 0 discriminator 1 view .LVU664
 1536 004e A942     		cmp	r1, r5
 1537 0050 F3D3     		bcc	.L12
 575:Drivers/CMSIS/DSP/Source/TransformFunctions/arm_cfft_f32.c ****         {
 1538              		.loc 1 575 9 discriminator 1 view .LVU665
 1539 0052 DEE7     		b	.L10
 1540              	.LVL240:
 1541              	.L26:
 582:Drivers/CMSIS/DSP/Source/TransformFunctions/arm_cfft_f32.c ****     {
 1542              		.loc 1 582 5 view .LVU666
 1543 0054 102D     		cmp	r5, #16
 1544 0056 1AD0     		beq	.L17
 1545 0058 202D     		cmp	r5, #32
 1546 005a E3D1     		bne	.L18
 1547              	.L13:
 592:Drivers/CMSIS/DSP/Source/TransformFunctions/arm_cfft_f32.c ****         break;
 1548              		.loc 1 592 9 is_stmt 1 view .LVU667
 1549 005c 2146     		mov	r1, r4
 1550 005e 3046     		mov	r0, r6
 1551              	.LVL241:
 592:Drivers/CMSIS/DSP/Source/TransformFunctions/arm_cfft_f32.c ****         break;
 1552              		.loc 1 592 9 is_stmt 0 view .LVU668
 1553 0060 FFF7FEFF 		bl	arm_cfft_radix8by4_f32
 1554              	.LVL242:
 593:Drivers/CMSIS/DSP/Source/TransformFunctions/arm_cfft_f32.c ****     case 64:
 1555              		.loc 1 593 9 is_stmt 1 view .LVU669
 1556 0064 DEE7     		b	.L18
 1557              	.LVL243:
 1558              	.L14:
 582:Drivers/CMSIS/DSP/Source/TransformFunctions/arm_cfft_f32.c ****     {
 1559              		.loc 1 582 5 is_stmt 0 view .LVU670
 1560 0066 B5F5006F 		cmp	r5, #2048
 1561 006a F7D0     		beq	.L13
 1562 006c 09D9     		bls	.L29
 1563 006e B5F5805F 		cmp	r5, #4096
 1564 0072 D7D1     		bne	.L18
 1565              	.L15:
 597:Drivers/CMSIS/DSP/Source/TransformFunctions/arm_cfft_f32.c ****         break;
 1566              		.loc 1 597 9 is_stmt 1 view .LVU671
 1567 0074 0123     		movs	r3, #1
 1568 0076 7268     		ldr	r2, [r6, #4]
 1569              	.LVL244:
ARM GAS  C:\Users\17832\AppData\Local\Temp\ccvR8jgi.s 			page 40


 597:Drivers/CMSIS/DSP/Source/TransformFunctions/arm_cfft_f32.c ****         break;
 1570              		.loc 1 597 9 is_stmt 0 view .LVU672
 1571 0078 2946     		mov	r1, r5
 1572 007a 2046     		mov	r0, r4
 1573              	.LVL245:
 597:Drivers/CMSIS/DSP/Source/TransformFunctions/arm_cfft_f32.c ****         break;
 1574              		.loc 1 597 9 view .LVU673
 1575 007c FFF7FEFF 		bl	arm_radix8_butterfly_f32
 1576              	.LVL246:
 598:Drivers/CMSIS/DSP/Source/TransformFunctions/arm_cfft_f32.c ****     }
 1577              		.loc 1 598 9 is_stmt 1 view .LVU674
 1578 0080 D0E7     		b	.L18
 1579              	.LVL247:
 1580              	.L29:
 582:Drivers/CMSIS/DSP/Source/TransformFunctions/arm_cfft_f32.c ****     {
 1581              		.loc 1 582 5 is_stmt 0 view .LVU675
 1582 0082 B5F5007F 		cmp	r5, #512
 1583 0086 F5D0     		beq	.L15
 1584 0088 B5F5806F 		cmp	r5, #1024
 1585 008c CAD1     		bne	.L18
 1586              	.L17:
 587:Drivers/CMSIS/DSP/Source/TransformFunctions/arm_cfft_f32.c ****         break;
 1587              		.loc 1 587 9 is_stmt 1 view .LVU676
 1588 008e 2146     		mov	r1, r4
 1589 0090 3046     		mov	r0, r6
 1590              	.LVL248:
 587:Drivers/CMSIS/DSP/Source/TransformFunctions/arm_cfft_f32.c ****         break;
 1591              		.loc 1 587 9 is_stmt 0 view .LVU677
 1592 0092 FFF7FEFF 		bl	arm_cfft_radix8by2_f32
 1593              	.LVL249:
 588:Drivers/CMSIS/DSP/Source/TransformFunctions/arm_cfft_f32.c ****     case 32:
 1594              		.loc 1 588 9 is_stmt 1 view .LVU678
 1595 0096 C5E7     		b	.L18
 1596              	.L27:
 602:Drivers/CMSIS/DSP/Source/TransformFunctions/arm_cfft_f32.c **** 
 1597              		.loc 1 602 9 view .LVU679
 1598 0098 B268     		ldr	r2, [r6, #8]
 1599 009a B189     		ldrh	r1, [r6, #12]
 1600 009c 2046     		mov	r0, r4
 1601 009e FFF7FEFF 		bl	arm_bitreversal_32
 1602              	.LVL250:
 1603 00a2 C2E7     		b	.L20
 1604              	.L28:
 606:Drivers/CMSIS/DSP/Source/TransformFunctions/arm_cfft_f32.c ****         /*  Conjugate and scale output data */
 1605              		.loc 1 606 9 view .LVU680
 606:Drivers/CMSIS/DSP/Source/TransformFunctions/arm_cfft_f32.c ****         /*  Conjugate and scale output data */
 1606              		.loc 1 606 21 is_stmt 0 view .LVU681
 1607 00a4 07EE905A 		vmov	s15, r5	@ int
 1608 00a8 F8EE677A 		vcvt.f32.u32	s15, s15
 606:Drivers/CMSIS/DSP/Source/TransformFunctions/arm_cfft_f32.c ****         /*  Conjugate and scale output data */
 1609              		.loc 1 606 14 view .LVU682
 1610 00ac F7EE006A 		vmov.f32	s13, #1.0e+0
 1611 00b0 86EEA77A 		vdiv.f32	s14, s13, s15
 1612              	.LVL251:
 608:Drivers/CMSIS/DSP/Source/TransformFunctions/arm_cfft_f32.c ****         for(l=0; l<L; l++)
 1613              		.loc 1 608 9 is_stmt 1 view .LVU683
 609:Drivers/CMSIS/DSP/Source/TransformFunctions/arm_cfft_f32.c ****         {
ARM GAS  C:\Users\17832\AppData\Local\Temp\ccvR8jgi.s 			page 41


 1614              		.loc 1 609 9 view .LVU684
 609:Drivers/CMSIS/DSP/Source/TransformFunctions/arm_cfft_f32.c ****         {
 1615              		.loc 1 609 14 is_stmt 0 view .LVU685
 1616 00b4 0023     		movs	r3, #0
 609:Drivers/CMSIS/DSP/Source/TransformFunctions/arm_cfft_f32.c ****         {
 1617              		.loc 1 609 9 view .LVU686
 1618 00b6 0DE0     		b	.L22
 1619              	.LVL252:
 1620              	.L23:
 611:Drivers/CMSIS/DSP/Source/TransformFunctions/arm_cfft_f32.c ****             *pSrc  = -(*pSrc) * invL;
 1621              		.loc 1 611 13 is_stmt 1 discriminator 3 view .LVU687
 611:Drivers/CMSIS/DSP/Source/TransformFunctions/arm_cfft_f32.c ****             *pSrc  = -(*pSrc) * invL;
 1622              		.loc 1 611 21 is_stmt 0 discriminator 3 view .LVU688
 1623 00b8 D4ED007A 		vldr.32	s15, [r4]
 1624 00bc 67EE877A 		vmul.f32	s15, s15, s14
 1625 00c0 C4ED007A 		vstr.32	s15, [r4]
 612:Drivers/CMSIS/DSP/Source/TransformFunctions/arm_cfft_f32.c ****             pSrc++;
 1626              		.loc 1 612 13 is_stmt 1 discriminator 3 view .LVU689
 612:Drivers/CMSIS/DSP/Source/TransformFunctions/arm_cfft_f32.c ****             pSrc++;
 1627              		.loc 1 612 24 is_stmt 0 discriminator 3 view .LVU690
 1628 00c4 D4ED017A 		vldr.32	s15, [r4, #4]
 612:Drivers/CMSIS/DSP/Source/TransformFunctions/arm_cfft_f32.c ****             pSrc++;
 1629              		.loc 1 612 31 discriminator 3 view .LVU691
 1630 00c8 67EEC77A 		vnmul.f32	s15, s15, s14
 612:Drivers/CMSIS/DSP/Source/TransformFunctions/arm_cfft_f32.c ****             pSrc++;
 1631              		.loc 1 612 20 discriminator 3 view .LVU692
 1632 00cc C4ED017A 		vstr.32	s15, [r4, #4]
 613:Drivers/CMSIS/DSP/Source/TransformFunctions/arm_cfft_f32.c ****         }
 1633              		.loc 1 613 13 is_stmt 1 discriminator 3 view .LVU693
 613:Drivers/CMSIS/DSP/Source/TransformFunctions/arm_cfft_f32.c ****         }
 1634              		.loc 1 613 17 is_stmt 0 discriminator 3 view .LVU694
 1635 00d0 0834     		adds	r4, r4, #8
 1636              	.LVL253:
 609:Drivers/CMSIS/DSP/Source/TransformFunctions/arm_cfft_f32.c ****         {
 1637              		.loc 1 609 23 is_stmt 1 discriminator 3 view .LVU695
 609:Drivers/CMSIS/DSP/Source/TransformFunctions/arm_cfft_f32.c ****         {
 1638              		.loc 1 609 24 is_stmt 0 discriminator 3 view .LVU696
 1639 00d2 0133     		adds	r3, r3, #1
 1640              	.LVL254:
 1641              	.L22:
 609:Drivers/CMSIS/DSP/Source/TransformFunctions/arm_cfft_f32.c ****         {
 1642              		.loc 1 609 18 is_stmt 1 discriminator 1 view .LVU697
 609:Drivers/CMSIS/DSP/Source/TransformFunctions/arm_cfft_f32.c ****         {
 1643              		.loc 1 609 9 is_stmt 0 discriminator 1 view .LVU698
 1644 00d4 AB42     		cmp	r3, r5
 1645 00d6 EFD3     		bcc	.L23
 609:Drivers/CMSIS/DSP/Source/TransformFunctions/arm_cfft_f32.c ****         {
 1646              		.loc 1 609 9 discriminator 1 view .LVU699
 1647 00d8 A9E7     		b	.L9
 1648              		.cfi_endproc
 1649              	.LFE137:
 1651              		.text
 1652              	.Letext0:
 1653              		.file 2 "d:\\gnu arm embedded toolchain\\10 2021.10\\arm-none-eabi\\include\\machine\\_default_typ
 1654              		.file 3 "d:\\gnu arm embedded toolchain\\10 2021.10\\arm-none-eabi\\include\\sys\\_stdint.h"
 1655              		.file 4 "Drivers/CMSIS/DSP/Include/arm_math.h"
ARM GAS  C:\Users\17832\AppData\Local\Temp\ccvR8jgi.s 			page 42

