ARM GAS  C:\Users\17832\AppData\Local\Temp\ccRMKuAU.s 			page 1


   1              		.cpu cortex-m4
   2              		.arch armv7e-m
   3              		.fpu fpv4-sp-d16
   4              		.eabi_attribute 27, 1
   5              		.eabi_attribute 28, 1
   6              		.eabi_attribute 20, 1
   7              		.eabi_attribute 21, 1
   8              		.eabi_attribute 23, 3
   9              		.eabi_attribute 24, 1
  10              		.eabi_attribute 25, 1
  11              		.eabi_attribute 26, 1
  12              		.eabi_attribute 30, 1
  13              		.eabi_attribute 34, 1
  14              		.eabi_attribute 18, 4
  15              		.file	"etharp.c"
  16              		.text
  17              	.Ltext0:
  18              		.cfi_sections	.debug_frame
  19              		.section	.text.etharp_free_entry,"ax",%progbits
  20              		.align	1
  21              		.syntax unified
  22              		.thumb
  23              		.thumb_func
  25              	etharp_free_entry:
  26              	.LVL0:
  27              	.LFB156:
  28              		.file 1 "Middlewares/Third_Party/LwIP/src/core/ipv4/etharp.c"
   1:Middlewares/Third_Party/LwIP/src/core/ipv4/etharp.c **** /**
   2:Middlewares/Third_Party/LwIP/src/core/ipv4/etharp.c ****  * @file
   3:Middlewares/Third_Party/LwIP/src/core/ipv4/etharp.c ****  * Address Resolution Protocol module for IP over Ethernet
   4:Middlewares/Third_Party/LwIP/src/core/ipv4/etharp.c ****  *
   5:Middlewares/Third_Party/LwIP/src/core/ipv4/etharp.c ****  * Functionally, ARP is divided into two parts. The first maps an IP address
   6:Middlewares/Third_Party/LwIP/src/core/ipv4/etharp.c ****  * to a physical address when sending a packet, and the second part answers
   7:Middlewares/Third_Party/LwIP/src/core/ipv4/etharp.c ****  * requests from other machines for our physical address.
   8:Middlewares/Third_Party/LwIP/src/core/ipv4/etharp.c ****  *
   9:Middlewares/Third_Party/LwIP/src/core/ipv4/etharp.c ****  * This implementation complies with RFC 826 (Ethernet ARP). It supports
  10:Middlewares/Third_Party/LwIP/src/core/ipv4/etharp.c ****  * Gratuitious ARP from RFC3220 (IP Mobility Support for IPv4) section 4.6
  11:Middlewares/Third_Party/LwIP/src/core/ipv4/etharp.c ****  * if an interface calls etharp_gratuitous(our_netif) upon address change.
  12:Middlewares/Third_Party/LwIP/src/core/ipv4/etharp.c ****  */
  13:Middlewares/Third_Party/LwIP/src/core/ipv4/etharp.c **** 
  14:Middlewares/Third_Party/LwIP/src/core/ipv4/etharp.c **** /*
  15:Middlewares/Third_Party/LwIP/src/core/ipv4/etharp.c ****  * Copyright (c) 2001-2003 Swedish Institute of Computer Science.
  16:Middlewares/Third_Party/LwIP/src/core/ipv4/etharp.c ****  * Copyright (c) 2003-2004 Leon Woestenberg <leon.woestenberg@axon.tv>
  17:Middlewares/Third_Party/LwIP/src/core/ipv4/etharp.c ****  * Copyright (c) 2003-2004 Axon Digital Design B.V., The Netherlands.
  18:Middlewares/Third_Party/LwIP/src/core/ipv4/etharp.c ****  * All rights reserved.
  19:Middlewares/Third_Party/LwIP/src/core/ipv4/etharp.c ****  *
  20:Middlewares/Third_Party/LwIP/src/core/ipv4/etharp.c ****  * Redistribution and use in source and binary forms, with or without modification,
  21:Middlewares/Third_Party/LwIP/src/core/ipv4/etharp.c ****  * are permitted provided that the following conditions are met:
  22:Middlewares/Third_Party/LwIP/src/core/ipv4/etharp.c ****  *
  23:Middlewares/Third_Party/LwIP/src/core/ipv4/etharp.c ****  * 1. Redistributions of source code must retain the above copyright notice,
  24:Middlewares/Third_Party/LwIP/src/core/ipv4/etharp.c ****  *    this list of conditions and the following disclaimer.
  25:Middlewares/Third_Party/LwIP/src/core/ipv4/etharp.c ****  * 2. Redistributions in binary form must reproduce the above copyright notice,
  26:Middlewares/Third_Party/LwIP/src/core/ipv4/etharp.c ****  *    this list of conditions and the following disclaimer in the documentation
  27:Middlewares/Third_Party/LwIP/src/core/ipv4/etharp.c ****  *    and/or other materials provided with the distribution.
  28:Middlewares/Third_Party/LwIP/src/core/ipv4/etharp.c ****  * 3. The name of the author may not be used to endorse or promote products
  29:Middlewares/Third_Party/LwIP/src/core/ipv4/etharp.c ****  *    derived from this software without specific prior written permission.
  30:Middlewares/Third_Party/LwIP/src/core/ipv4/etharp.c ****  *
ARM GAS  C:\Users\17832\AppData\Local\Temp\ccRMKuAU.s 			page 2


  31:Middlewares/Third_Party/LwIP/src/core/ipv4/etharp.c ****  * THIS SOFTWARE IS PROVIDED BY THE AUTHOR ``AS IS'' AND ANY EXPRESS OR IMPLIED
  32:Middlewares/Third_Party/LwIP/src/core/ipv4/etharp.c ****  * WARRANTIES, INCLUDING, BUT NOT LIMITED TO, THE IMPLIED WARRANTIES OF
  33:Middlewares/Third_Party/LwIP/src/core/ipv4/etharp.c ****  * MERCHANTABILITY AND FITNESS FOR A PARTICULAR PURPOSE ARE DISCLAIMED. IN NO EVENT
  34:Middlewares/Third_Party/LwIP/src/core/ipv4/etharp.c ****  * SHALL THE AUTHOR BE LIABLE FOR ANY DIRECT, INDIRECT, INCIDENTAL, SPECIAL,
  35:Middlewares/Third_Party/LwIP/src/core/ipv4/etharp.c ****  * EXEMPLARY, OR CONSEQUENTIAL DAMAGES (INCLUDING, BUT NOT LIMITED TO, PROCUREMENT
  36:Middlewares/Third_Party/LwIP/src/core/ipv4/etharp.c ****  * OF SUBSTITUTE GOODS OR SERVICES; LOSS OF USE, DATA, OR PROFITS; OR BUSINESS
  37:Middlewares/Third_Party/LwIP/src/core/ipv4/etharp.c ****  * INTERRUPTION) HOWEVER CAUSED AND ON ANY THEORY OF LIABILITY, WHETHER IN
  38:Middlewares/Third_Party/LwIP/src/core/ipv4/etharp.c ****  * CONTRACT, STRICT LIABILITY, OR TORT (INCLUDING NEGLIGENCE OR OTHERWISE) ARISING
  39:Middlewares/Third_Party/LwIP/src/core/ipv4/etharp.c ****  * IN ANY WAY OUT OF THE USE OF THIS SOFTWARE, EVEN IF ADVISED OF THE POSSIBILITY
  40:Middlewares/Third_Party/LwIP/src/core/ipv4/etharp.c ****  * OF SUCH DAMAGE.
  41:Middlewares/Third_Party/LwIP/src/core/ipv4/etharp.c ****  *
  42:Middlewares/Third_Party/LwIP/src/core/ipv4/etharp.c ****  * This file is part of the lwIP TCP/IP stack.
  43:Middlewares/Third_Party/LwIP/src/core/ipv4/etharp.c ****  *
  44:Middlewares/Third_Party/LwIP/src/core/ipv4/etharp.c ****  */
  45:Middlewares/Third_Party/LwIP/src/core/ipv4/etharp.c **** 
  46:Middlewares/Third_Party/LwIP/src/core/ipv4/etharp.c **** #include "lwip/opt.h"
  47:Middlewares/Third_Party/LwIP/src/core/ipv4/etharp.c **** 
  48:Middlewares/Third_Party/LwIP/src/core/ipv4/etharp.c **** #if LWIP_IPV4 && LWIP_ARP /* don't build if not configured for use in lwipopts.h */
  49:Middlewares/Third_Party/LwIP/src/core/ipv4/etharp.c **** 
  50:Middlewares/Third_Party/LwIP/src/core/ipv4/etharp.c **** #include "lwip/etharp.h"
  51:Middlewares/Third_Party/LwIP/src/core/ipv4/etharp.c **** #include "lwip/stats.h"
  52:Middlewares/Third_Party/LwIP/src/core/ipv4/etharp.c **** #include "lwip/snmp.h"
  53:Middlewares/Third_Party/LwIP/src/core/ipv4/etharp.c **** #include "lwip/dhcp.h"
  54:Middlewares/Third_Party/LwIP/src/core/ipv4/etharp.c **** #include "lwip/autoip.h"
  55:Middlewares/Third_Party/LwIP/src/core/ipv4/etharp.c **** #include "lwip/prot/iana.h"
  56:Middlewares/Third_Party/LwIP/src/core/ipv4/etharp.c **** #include "netif/ethernet.h"
  57:Middlewares/Third_Party/LwIP/src/core/ipv4/etharp.c **** 
  58:Middlewares/Third_Party/LwIP/src/core/ipv4/etharp.c **** #include <string.h>
  59:Middlewares/Third_Party/LwIP/src/core/ipv4/etharp.c **** 
  60:Middlewares/Third_Party/LwIP/src/core/ipv4/etharp.c **** #ifdef LWIP_HOOK_FILENAME
  61:Middlewares/Third_Party/LwIP/src/core/ipv4/etharp.c **** #include LWIP_HOOK_FILENAME
  62:Middlewares/Third_Party/LwIP/src/core/ipv4/etharp.c **** #endif
  63:Middlewares/Third_Party/LwIP/src/core/ipv4/etharp.c **** 
  64:Middlewares/Third_Party/LwIP/src/core/ipv4/etharp.c **** /** Re-request a used ARP entry 1 minute before it would expire to prevent
  65:Middlewares/Third_Party/LwIP/src/core/ipv4/etharp.c ****  *  breaking a steadily used connection because the ARP entry timed out. */
  66:Middlewares/Third_Party/LwIP/src/core/ipv4/etharp.c **** #define ARP_AGE_REREQUEST_USED_UNICAST   (ARP_MAXAGE - 30)
  67:Middlewares/Third_Party/LwIP/src/core/ipv4/etharp.c **** #define ARP_AGE_REREQUEST_USED_BROADCAST (ARP_MAXAGE - 15)
  68:Middlewares/Third_Party/LwIP/src/core/ipv4/etharp.c **** 
  69:Middlewares/Third_Party/LwIP/src/core/ipv4/etharp.c **** /** the time an ARP entry stays pending after first request,
  70:Middlewares/Third_Party/LwIP/src/core/ipv4/etharp.c ****  *  for ARP_TMR_INTERVAL = 1000, this is
  71:Middlewares/Third_Party/LwIP/src/core/ipv4/etharp.c ****  *  10 seconds.
  72:Middlewares/Third_Party/LwIP/src/core/ipv4/etharp.c ****  *
  73:Middlewares/Third_Party/LwIP/src/core/ipv4/etharp.c ****  *  @internal Keep this number at least 2, otherwise it might
  74:Middlewares/Third_Party/LwIP/src/core/ipv4/etharp.c ****  *  run out instantly if the timeout occurs directly after a request.
  75:Middlewares/Third_Party/LwIP/src/core/ipv4/etharp.c ****  */
  76:Middlewares/Third_Party/LwIP/src/core/ipv4/etharp.c **** #define ARP_MAXPENDING 5
  77:Middlewares/Third_Party/LwIP/src/core/ipv4/etharp.c **** 
  78:Middlewares/Third_Party/LwIP/src/core/ipv4/etharp.c **** /** ARP states */
  79:Middlewares/Third_Party/LwIP/src/core/ipv4/etharp.c **** enum etharp_state {
  80:Middlewares/Third_Party/LwIP/src/core/ipv4/etharp.c ****   ETHARP_STATE_EMPTY = 0,
  81:Middlewares/Third_Party/LwIP/src/core/ipv4/etharp.c ****   ETHARP_STATE_PENDING,
  82:Middlewares/Third_Party/LwIP/src/core/ipv4/etharp.c ****   ETHARP_STATE_STABLE,
  83:Middlewares/Third_Party/LwIP/src/core/ipv4/etharp.c ****   ETHARP_STATE_STABLE_REREQUESTING_1,
  84:Middlewares/Third_Party/LwIP/src/core/ipv4/etharp.c ****   ETHARP_STATE_STABLE_REREQUESTING_2
  85:Middlewares/Third_Party/LwIP/src/core/ipv4/etharp.c **** #if ETHARP_SUPPORT_STATIC_ENTRIES
  86:Middlewares/Third_Party/LwIP/src/core/ipv4/etharp.c ****   , ETHARP_STATE_STATIC
  87:Middlewares/Third_Party/LwIP/src/core/ipv4/etharp.c **** #endif /* ETHARP_SUPPORT_STATIC_ENTRIES */
ARM GAS  C:\Users\17832\AppData\Local\Temp\ccRMKuAU.s 			page 3


  88:Middlewares/Third_Party/LwIP/src/core/ipv4/etharp.c **** };
  89:Middlewares/Third_Party/LwIP/src/core/ipv4/etharp.c **** 
  90:Middlewares/Third_Party/LwIP/src/core/ipv4/etharp.c **** struct etharp_entry {
  91:Middlewares/Third_Party/LwIP/src/core/ipv4/etharp.c **** #if ARP_QUEUEING
  92:Middlewares/Third_Party/LwIP/src/core/ipv4/etharp.c ****   /** Pointer to queue of pending outgoing packets on this ARP entry. */
  93:Middlewares/Third_Party/LwIP/src/core/ipv4/etharp.c ****   struct etharp_q_entry *q;
  94:Middlewares/Third_Party/LwIP/src/core/ipv4/etharp.c **** #else /* ARP_QUEUEING */
  95:Middlewares/Third_Party/LwIP/src/core/ipv4/etharp.c ****   /** Pointer to a single pending outgoing packet on this ARP entry. */
  96:Middlewares/Third_Party/LwIP/src/core/ipv4/etharp.c ****   struct pbuf *q;
  97:Middlewares/Third_Party/LwIP/src/core/ipv4/etharp.c **** #endif /* ARP_QUEUEING */
  98:Middlewares/Third_Party/LwIP/src/core/ipv4/etharp.c ****   ip4_addr_t ipaddr;
  99:Middlewares/Third_Party/LwIP/src/core/ipv4/etharp.c ****   struct netif *netif;
 100:Middlewares/Third_Party/LwIP/src/core/ipv4/etharp.c ****   struct eth_addr ethaddr;
 101:Middlewares/Third_Party/LwIP/src/core/ipv4/etharp.c ****   u16_t ctime;
 102:Middlewares/Third_Party/LwIP/src/core/ipv4/etharp.c ****   u8_t state;
 103:Middlewares/Third_Party/LwIP/src/core/ipv4/etharp.c **** };
 104:Middlewares/Third_Party/LwIP/src/core/ipv4/etharp.c **** 
 105:Middlewares/Third_Party/LwIP/src/core/ipv4/etharp.c **** static struct etharp_entry arp_table[ARP_TABLE_SIZE];
 106:Middlewares/Third_Party/LwIP/src/core/ipv4/etharp.c **** 
 107:Middlewares/Third_Party/LwIP/src/core/ipv4/etharp.c **** #if !LWIP_NETIF_HWADDRHINT
 108:Middlewares/Third_Party/LwIP/src/core/ipv4/etharp.c **** static netif_addr_idx_t etharp_cached_entry;
 109:Middlewares/Third_Party/LwIP/src/core/ipv4/etharp.c **** #endif /* !LWIP_NETIF_HWADDRHINT */
 110:Middlewares/Third_Party/LwIP/src/core/ipv4/etharp.c **** 
 111:Middlewares/Third_Party/LwIP/src/core/ipv4/etharp.c **** /** Try hard to create a new entry - we want the IP address to appear in
 112:Middlewares/Third_Party/LwIP/src/core/ipv4/etharp.c ****     the cache (even if this means removing an active entry or so). */
 113:Middlewares/Third_Party/LwIP/src/core/ipv4/etharp.c **** #define ETHARP_FLAG_TRY_HARD     1
 114:Middlewares/Third_Party/LwIP/src/core/ipv4/etharp.c **** #define ETHARP_FLAG_FIND_ONLY    2
 115:Middlewares/Third_Party/LwIP/src/core/ipv4/etharp.c **** #if ETHARP_SUPPORT_STATIC_ENTRIES
 116:Middlewares/Third_Party/LwIP/src/core/ipv4/etharp.c **** #define ETHARP_FLAG_STATIC_ENTRY 4
 117:Middlewares/Third_Party/LwIP/src/core/ipv4/etharp.c **** #endif /* ETHARP_SUPPORT_STATIC_ENTRIES */
 118:Middlewares/Third_Party/LwIP/src/core/ipv4/etharp.c **** 
 119:Middlewares/Third_Party/LwIP/src/core/ipv4/etharp.c **** #if LWIP_NETIF_HWADDRHINT
 120:Middlewares/Third_Party/LwIP/src/core/ipv4/etharp.c **** #define ETHARP_SET_ADDRHINT(netif, addrhint)  do { if (((netif) != NULL) && ((netif)->hints != NULL
 121:Middlewares/Third_Party/LwIP/src/core/ipv4/etharp.c ****                                               (netif)->hints->addr_hint = (addrhint); }} while(0)
 122:Middlewares/Third_Party/LwIP/src/core/ipv4/etharp.c **** #else /* LWIP_NETIF_HWADDRHINT */
 123:Middlewares/Third_Party/LwIP/src/core/ipv4/etharp.c **** #define ETHARP_SET_ADDRHINT(netif, addrhint)  (etharp_cached_entry = (addrhint))
 124:Middlewares/Third_Party/LwIP/src/core/ipv4/etharp.c **** #endif /* LWIP_NETIF_HWADDRHINT */
 125:Middlewares/Third_Party/LwIP/src/core/ipv4/etharp.c **** 
 126:Middlewares/Third_Party/LwIP/src/core/ipv4/etharp.c **** 
 127:Middlewares/Third_Party/LwIP/src/core/ipv4/etharp.c **** /* Check for maximum ARP_TABLE_SIZE */
 128:Middlewares/Third_Party/LwIP/src/core/ipv4/etharp.c **** #if (ARP_TABLE_SIZE > NETIF_ADDR_IDX_MAX)
 129:Middlewares/Third_Party/LwIP/src/core/ipv4/etharp.c **** #error "ARP_TABLE_SIZE must fit in an s16_t, you have to reduce it in your lwipopts.h"
 130:Middlewares/Third_Party/LwIP/src/core/ipv4/etharp.c **** #endif
 131:Middlewares/Third_Party/LwIP/src/core/ipv4/etharp.c **** 
 132:Middlewares/Third_Party/LwIP/src/core/ipv4/etharp.c **** 
 133:Middlewares/Third_Party/LwIP/src/core/ipv4/etharp.c **** static err_t etharp_request_dst(struct netif *netif, const ip4_addr_t *ipaddr, const struct eth_add
 134:Middlewares/Third_Party/LwIP/src/core/ipv4/etharp.c **** static err_t etharp_raw(struct netif *netif,
 135:Middlewares/Third_Party/LwIP/src/core/ipv4/etharp.c ****                         const struct eth_addr *ethsrc_addr, const struct eth_addr *ethdst_addr,
 136:Middlewares/Third_Party/LwIP/src/core/ipv4/etharp.c ****                         const struct eth_addr *hwsrc_addr, const ip4_addr_t *ipsrc_addr,
 137:Middlewares/Third_Party/LwIP/src/core/ipv4/etharp.c ****                         const struct eth_addr *hwdst_addr, const ip4_addr_t *ipdst_addr,
 138:Middlewares/Third_Party/LwIP/src/core/ipv4/etharp.c ****                         const u16_t opcode);
 139:Middlewares/Third_Party/LwIP/src/core/ipv4/etharp.c **** 
 140:Middlewares/Third_Party/LwIP/src/core/ipv4/etharp.c **** #if ARP_QUEUEING
 141:Middlewares/Third_Party/LwIP/src/core/ipv4/etharp.c **** /**
 142:Middlewares/Third_Party/LwIP/src/core/ipv4/etharp.c ****  * Free a complete queue of etharp entries
 143:Middlewares/Third_Party/LwIP/src/core/ipv4/etharp.c ****  *
 144:Middlewares/Third_Party/LwIP/src/core/ipv4/etharp.c ****  * @param q a qeueue of etharp_q_entry's to free
ARM GAS  C:\Users\17832\AppData\Local\Temp\ccRMKuAU.s 			page 4


 145:Middlewares/Third_Party/LwIP/src/core/ipv4/etharp.c ****  */
 146:Middlewares/Third_Party/LwIP/src/core/ipv4/etharp.c **** static void
 147:Middlewares/Third_Party/LwIP/src/core/ipv4/etharp.c **** free_etharp_q(struct etharp_q_entry *q)
 148:Middlewares/Third_Party/LwIP/src/core/ipv4/etharp.c **** {
 149:Middlewares/Third_Party/LwIP/src/core/ipv4/etharp.c ****   struct etharp_q_entry *r;
 150:Middlewares/Third_Party/LwIP/src/core/ipv4/etharp.c ****   LWIP_ASSERT("q != NULL", q != NULL);
 151:Middlewares/Third_Party/LwIP/src/core/ipv4/etharp.c ****   while (q) {
 152:Middlewares/Third_Party/LwIP/src/core/ipv4/etharp.c ****     r = q;
 153:Middlewares/Third_Party/LwIP/src/core/ipv4/etharp.c ****     q = q->next;
 154:Middlewares/Third_Party/LwIP/src/core/ipv4/etharp.c ****     LWIP_ASSERT("r->p != NULL", (r->p != NULL));
 155:Middlewares/Third_Party/LwIP/src/core/ipv4/etharp.c ****     pbuf_free(r->p);
 156:Middlewares/Third_Party/LwIP/src/core/ipv4/etharp.c ****     memp_free(MEMP_ARP_QUEUE, r);
 157:Middlewares/Third_Party/LwIP/src/core/ipv4/etharp.c ****   }
 158:Middlewares/Third_Party/LwIP/src/core/ipv4/etharp.c **** }
 159:Middlewares/Third_Party/LwIP/src/core/ipv4/etharp.c **** #else /* ARP_QUEUEING */
 160:Middlewares/Third_Party/LwIP/src/core/ipv4/etharp.c **** 
 161:Middlewares/Third_Party/LwIP/src/core/ipv4/etharp.c **** /** Compatibility define: free the queued pbuf */
 162:Middlewares/Third_Party/LwIP/src/core/ipv4/etharp.c **** #define free_etharp_q(q) pbuf_free(q)
 163:Middlewares/Third_Party/LwIP/src/core/ipv4/etharp.c **** 
 164:Middlewares/Third_Party/LwIP/src/core/ipv4/etharp.c **** #endif /* ARP_QUEUEING */
 165:Middlewares/Third_Party/LwIP/src/core/ipv4/etharp.c **** 
 166:Middlewares/Third_Party/LwIP/src/core/ipv4/etharp.c **** /** Clean up ARP table entries */
 167:Middlewares/Third_Party/LwIP/src/core/ipv4/etharp.c **** static void
 168:Middlewares/Third_Party/LwIP/src/core/ipv4/etharp.c **** etharp_free_entry(int i)
 169:Middlewares/Third_Party/LwIP/src/core/ipv4/etharp.c **** {
  29              		.loc 1 169 1 view -0
  30              		.cfi_startproc
  31              		@ args = 0, pretend = 0, frame = 0
  32              		@ frame_needed = 0, uses_anonymous_args = 0
  33              		.loc 1 169 1 is_stmt 0 view .LVU1
  34 0000 10B5     		push	{r4, lr}
  35              	.LCFI0:
  36              		.cfi_def_cfa_offset 8
  37              		.cfi_offset 4, -8
  38              		.cfi_offset 14, -4
  39 0002 0446     		mov	r4, r0
 170:Middlewares/Third_Party/LwIP/src/core/ipv4/etharp.c ****   /* remove from SNMP ARP index tree */
 171:Middlewares/Third_Party/LwIP/src/core/ipv4/etharp.c ****   mib2_remove_arp_entry(arp_table[i].netif, &arp_table[i].ipaddr);
  40              		.loc 1 171 66 is_stmt 1 view .LVU2
 172:Middlewares/Third_Party/LwIP/src/core/ipv4/etharp.c ****   /* and empty packet queue */
 173:Middlewares/Third_Party/LwIP/src/core/ipv4/etharp.c ****   if (arp_table[i].q != NULL) {
  41              		.loc 1 173 3 view .LVU3
  42              		.loc 1 173 19 is_stmt 0 view .LVU4
  43 0004 00EB4002 		add	r2, r0, r0, lsl #1
  44 0008 094B     		ldr	r3, .L4
  45 000a 53F83200 		ldr	r0, [r3, r2, lsl #3]
  46              	.LVL1:
  47              		.loc 1 173 6 view .LVU5
  48 000e 38B1     		cbz	r0, .L2
 174:Middlewares/Third_Party/LwIP/src/core/ipv4/etharp.c ****     /* remove all queued packets */
 175:Middlewares/Third_Party/LwIP/src/core/ipv4/etharp.c ****     LWIP_DEBUGF(ETHARP_DEBUG, ("etharp_free_entry: freeing entry %"U16_F", packet queue %p.\n", (u1
  49              		.loc 1 175 133 is_stmt 1 view .LVU6
 176:Middlewares/Third_Party/LwIP/src/core/ipv4/etharp.c ****     free_etharp_q(arp_table[i].q);
  50              		.loc 1 176 5 view .LVU7
  51 0010 FFF7FEFF 		bl	pbuf_free
  52              	.LVL2:
 177:Middlewares/Third_Party/LwIP/src/core/ipv4/etharp.c ****     arp_table[i].q = NULL;
ARM GAS  C:\Users\17832\AppData\Local\Temp\ccRMKuAU.s 			page 5


  53              		.loc 1 177 5 view .LVU8
  54              		.loc 1 177 20 is_stmt 0 view .LVU9
  55 0014 04EB4403 		add	r3, r4, r4, lsl #1
  56 0018 DB00     		lsls	r3, r3, #3
  57 001a 054A     		ldr	r2, .L4
  58 001c 0021     		movs	r1, #0
  59 001e D150     		str	r1, [r2, r3]
  60              	.L2:
 178:Middlewares/Third_Party/LwIP/src/core/ipv4/etharp.c ****   }
 179:Middlewares/Third_Party/LwIP/src/core/ipv4/etharp.c ****   /* recycle entry for re-use */
 180:Middlewares/Third_Party/LwIP/src/core/ipv4/etharp.c ****   arp_table[i].state = ETHARP_STATE_EMPTY;
  61              		.loc 1 180 3 is_stmt 1 view .LVU10
  62              		.loc 1 180 22 is_stmt 0 view .LVU11
  63 0020 04EB4404 		add	r4, r4, r4, lsl #1
  64              	.LVL3:
  65              		.loc 1 180 22 view .LVU12
  66 0024 0248     		ldr	r0, .L4
  67 0026 00EBC404 		add	r4, r0, r4, lsl #3
  68 002a 0023     		movs	r3, #0
  69 002c 2375     		strb	r3, [r4, #20]
 181:Middlewares/Third_Party/LwIP/src/core/ipv4/etharp.c **** #ifdef LWIP_DEBUG
 182:Middlewares/Third_Party/LwIP/src/core/ipv4/etharp.c ****   /* for debugging, clean out the complete entry */
 183:Middlewares/Third_Party/LwIP/src/core/ipv4/etharp.c ****   arp_table[i].ctime = 0;
 184:Middlewares/Third_Party/LwIP/src/core/ipv4/etharp.c ****   arp_table[i].netif = NULL;
 185:Middlewares/Third_Party/LwIP/src/core/ipv4/etharp.c ****   ip4_addr_set_zero(&arp_table[i].ipaddr);
 186:Middlewares/Third_Party/LwIP/src/core/ipv4/etharp.c ****   arp_table[i].ethaddr = ethzero;
 187:Middlewares/Third_Party/LwIP/src/core/ipv4/etharp.c **** #endif /* LWIP_DEBUG */
 188:Middlewares/Third_Party/LwIP/src/core/ipv4/etharp.c **** }
  70              		.loc 1 188 1 view .LVU13
  71 002e 10BD     		pop	{r4, pc}
  72              	.L5:
  73              		.align	2
  74              	.L4:
  75 0030 00000000 		.word	.LANCHOR0
  76              		.cfi_endproc
  77              	.LFE156:
  79              		.section	.rodata.etharp_find_entry.str1.4,"aMS",%progbits,1
  80              		.align	2
  81              	.LC0:
  82 0000 4D696464 		.ascii	"Middlewares/Third_Party/LwIP/src/core/ipv4/etharp.c"
  82      6C657761 
  82      7265732F 
  82      54686972 
  82      645F5061 
  83 0033 00       		.ascii	"\000"
  84              		.align	2
  85              	.LC1:
  86 0034 6172705F 		.ascii	"arp_table[i].q == NULL\000"
  86      7461626C 
  86      655B695D 
  86      2E71203D 
  86      3D204E55 
  87 004b 00       		.align	2
  88              	.LC2:
  89 004c 41737365 		.ascii	"Assertion \"%s\" failed at line %d in %s\012\000"
  89      7274696F 
  89      6E202225 
ARM GAS  C:\Users\17832\AppData\Local\Temp\ccRMKuAU.s 			page 6


  89      73222066 
  89      61696C65 
  90              		.align	2
  91              	.LC3:
  92 0074 69203C20 		.ascii	"i < ARP_TABLE_SIZE\000"
  92      4152505F 
  92      5441424C 
  92      455F5349 
  92      5A4500
  93 0087 00       		.align	2
  94              	.LC4:
  95 0088 6172705F 		.ascii	"arp_table[i].state == ETHARP_STATE_EMPTY\000"
  95      7461626C 
  95      655B695D 
  95      2E737461 
  95      7465203D 
  96              		.section	.text.etharp_find_entry,"ax",%progbits
  97              		.align	1
  98              		.syntax unified
  99              		.thumb
 100              		.thumb_func
 102              	etharp_find_entry:
 103              	.LVL4:
 104              	.LFB158:
 189:Middlewares/Third_Party/LwIP/src/core/ipv4/etharp.c **** 
 190:Middlewares/Third_Party/LwIP/src/core/ipv4/etharp.c **** /**
 191:Middlewares/Third_Party/LwIP/src/core/ipv4/etharp.c ****  * Clears expired entries in the ARP table.
 192:Middlewares/Third_Party/LwIP/src/core/ipv4/etharp.c ****  *
 193:Middlewares/Third_Party/LwIP/src/core/ipv4/etharp.c ****  * This function should be called every ARP_TMR_INTERVAL milliseconds (1 second),
 194:Middlewares/Third_Party/LwIP/src/core/ipv4/etharp.c ****  * in order to expire entries in the ARP table.
 195:Middlewares/Third_Party/LwIP/src/core/ipv4/etharp.c ****  */
 196:Middlewares/Third_Party/LwIP/src/core/ipv4/etharp.c **** void
 197:Middlewares/Third_Party/LwIP/src/core/ipv4/etharp.c **** etharp_tmr(void)
 198:Middlewares/Third_Party/LwIP/src/core/ipv4/etharp.c **** {
 199:Middlewares/Third_Party/LwIP/src/core/ipv4/etharp.c ****   int i;
 200:Middlewares/Third_Party/LwIP/src/core/ipv4/etharp.c **** 
 201:Middlewares/Third_Party/LwIP/src/core/ipv4/etharp.c ****   LWIP_DEBUGF(ETHARP_DEBUG, ("etharp_timer\n"));
 202:Middlewares/Third_Party/LwIP/src/core/ipv4/etharp.c ****   /* remove expired entries from the ARP table */
 203:Middlewares/Third_Party/LwIP/src/core/ipv4/etharp.c ****   for (i = 0; i < ARP_TABLE_SIZE; ++i) {
 204:Middlewares/Third_Party/LwIP/src/core/ipv4/etharp.c ****     u8_t state = arp_table[i].state;
 205:Middlewares/Third_Party/LwIP/src/core/ipv4/etharp.c ****     if (state != ETHARP_STATE_EMPTY
 206:Middlewares/Third_Party/LwIP/src/core/ipv4/etharp.c **** #if ETHARP_SUPPORT_STATIC_ENTRIES
 207:Middlewares/Third_Party/LwIP/src/core/ipv4/etharp.c ****         && (state != ETHARP_STATE_STATIC)
 208:Middlewares/Third_Party/LwIP/src/core/ipv4/etharp.c **** #endif /* ETHARP_SUPPORT_STATIC_ENTRIES */
 209:Middlewares/Third_Party/LwIP/src/core/ipv4/etharp.c ****        ) {
 210:Middlewares/Third_Party/LwIP/src/core/ipv4/etharp.c ****       arp_table[i].ctime++;
 211:Middlewares/Third_Party/LwIP/src/core/ipv4/etharp.c ****       if ((arp_table[i].ctime >= ARP_MAXAGE) ||
 212:Middlewares/Third_Party/LwIP/src/core/ipv4/etharp.c ****           ((arp_table[i].state == ETHARP_STATE_PENDING)  &&
 213:Middlewares/Third_Party/LwIP/src/core/ipv4/etharp.c ****            (arp_table[i].ctime >= ARP_MAXPENDING))) {
 214:Middlewares/Third_Party/LwIP/src/core/ipv4/etharp.c ****         /* pending or stable entry has become old! */
 215:Middlewares/Third_Party/LwIP/src/core/ipv4/etharp.c ****         LWIP_DEBUGF(ETHARP_DEBUG, ("etharp_timer: expired %s entry %d.\n",
 216:Middlewares/Third_Party/LwIP/src/core/ipv4/etharp.c ****                                    arp_table[i].state >= ETHARP_STATE_STABLE ? "stable" : "pending"
 217:Middlewares/Third_Party/LwIP/src/core/ipv4/etharp.c ****         /* clean up entries that have just been expired */
 218:Middlewares/Third_Party/LwIP/src/core/ipv4/etharp.c ****         etharp_free_entry(i);
 219:Middlewares/Third_Party/LwIP/src/core/ipv4/etharp.c ****       } else if (arp_table[i].state == ETHARP_STATE_STABLE_REREQUESTING_1) {
 220:Middlewares/Third_Party/LwIP/src/core/ipv4/etharp.c ****         /* Don't send more than one request every 2 seconds. */
 221:Middlewares/Third_Party/LwIP/src/core/ipv4/etharp.c ****         arp_table[i].state = ETHARP_STATE_STABLE_REREQUESTING_2;
ARM GAS  C:\Users\17832\AppData\Local\Temp\ccRMKuAU.s 			page 7


 222:Middlewares/Third_Party/LwIP/src/core/ipv4/etharp.c ****       } else if (arp_table[i].state == ETHARP_STATE_STABLE_REREQUESTING_2) {
 223:Middlewares/Third_Party/LwIP/src/core/ipv4/etharp.c ****         /* Reset state to stable, so that the next transmitted packet will
 224:Middlewares/Third_Party/LwIP/src/core/ipv4/etharp.c ****            re-send an ARP request. */
 225:Middlewares/Third_Party/LwIP/src/core/ipv4/etharp.c ****         arp_table[i].state = ETHARP_STATE_STABLE;
 226:Middlewares/Third_Party/LwIP/src/core/ipv4/etharp.c ****       } else if (arp_table[i].state == ETHARP_STATE_PENDING) {
 227:Middlewares/Third_Party/LwIP/src/core/ipv4/etharp.c ****         /* still pending, resend an ARP query */
 228:Middlewares/Third_Party/LwIP/src/core/ipv4/etharp.c ****         etharp_request(arp_table[i].netif, &arp_table[i].ipaddr);
 229:Middlewares/Third_Party/LwIP/src/core/ipv4/etharp.c ****       }
 230:Middlewares/Third_Party/LwIP/src/core/ipv4/etharp.c ****     }
 231:Middlewares/Third_Party/LwIP/src/core/ipv4/etharp.c ****   }
 232:Middlewares/Third_Party/LwIP/src/core/ipv4/etharp.c **** }
 233:Middlewares/Third_Party/LwIP/src/core/ipv4/etharp.c **** 
 234:Middlewares/Third_Party/LwIP/src/core/ipv4/etharp.c **** /**
 235:Middlewares/Third_Party/LwIP/src/core/ipv4/etharp.c ****  * Search the ARP table for a matching or new entry.
 236:Middlewares/Third_Party/LwIP/src/core/ipv4/etharp.c ****  *
 237:Middlewares/Third_Party/LwIP/src/core/ipv4/etharp.c ****  * If an IP address is given, return a pending or stable ARP entry that matches
 238:Middlewares/Third_Party/LwIP/src/core/ipv4/etharp.c ****  * the address. If no match is found, create a new entry with this address set,
 239:Middlewares/Third_Party/LwIP/src/core/ipv4/etharp.c ****  * but in state ETHARP_EMPTY. The caller must check and possibly change the
 240:Middlewares/Third_Party/LwIP/src/core/ipv4/etharp.c ****  * state of the returned entry.
 241:Middlewares/Third_Party/LwIP/src/core/ipv4/etharp.c ****  *
 242:Middlewares/Third_Party/LwIP/src/core/ipv4/etharp.c ****  * If ipaddr is NULL, return a initialized new entry in state ETHARP_EMPTY.
 243:Middlewares/Third_Party/LwIP/src/core/ipv4/etharp.c ****  *
 244:Middlewares/Third_Party/LwIP/src/core/ipv4/etharp.c ****  * In all cases, attempt to create new entries from an empty entry. If no
 245:Middlewares/Third_Party/LwIP/src/core/ipv4/etharp.c ****  * empty entries are available and ETHARP_FLAG_TRY_HARD flag is set, recycle
 246:Middlewares/Third_Party/LwIP/src/core/ipv4/etharp.c ****  * old entries. Heuristic choose the least important entry for recycling.
 247:Middlewares/Third_Party/LwIP/src/core/ipv4/etharp.c ****  *
 248:Middlewares/Third_Party/LwIP/src/core/ipv4/etharp.c ****  * @param ipaddr IP address to find in ARP cache, or to add if not found.
 249:Middlewares/Third_Party/LwIP/src/core/ipv4/etharp.c ****  * @param flags See @ref etharp_state
 250:Middlewares/Third_Party/LwIP/src/core/ipv4/etharp.c ****  * @param netif netif related to this address (used for NETIF_HWADDRHINT)
 251:Middlewares/Third_Party/LwIP/src/core/ipv4/etharp.c ****  *
 252:Middlewares/Third_Party/LwIP/src/core/ipv4/etharp.c ****  * @return The ARP entry index that matched or is created, ERR_MEM if no
 253:Middlewares/Third_Party/LwIP/src/core/ipv4/etharp.c ****  * entry is found or could be recycled.
 254:Middlewares/Third_Party/LwIP/src/core/ipv4/etharp.c ****  */
 255:Middlewares/Third_Party/LwIP/src/core/ipv4/etharp.c **** static s16_t
 256:Middlewares/Third_Party/LwIP/src/core/ipv4/etharp.c **** etharp_find_entry(const ip4_addr_t *ipaddr, u8_t flags, struct netif *netif)
 257:Middlewares/Third_Party/LwIP/src/core/ipv4/etharp.c **** {
 105              		.loc 1 257 1 is_stmt 1 view -0
 106              		.cfi_startproc
 107              		@ args = 0, pretend = 0, frame = 8
 108              		@ frame_needed = 0, uses_anonymous_args = 0
 109              		.loc 1 257 1 is_stmt 0 view .LVU15
 110 0000 2DE9F04F 		push	{r4, r5, r6, r7, r8, r9, r10, fp, lr}
 111              	.LCFI1:
 112              		.cfi_def_cfa_offset 36
 113              		.cfi_offset 4, -36
 114              		.cfi_offset 5, -32
 115              		.cfi_offset 6, -28
 116              		.cfi_offset 7, -24
 117              		.cfi_offset 8, -20
 118              		.cfi_offset 9, -16
 119              		.cfi_offset 10, -12
 120              		.cfi_offset 11, -8
 121              		.cfi_offset 14, -4
 122 0004 83B0     		sub	sp, sp, #12
 123              	.LCFI2:
 124              		.cfi_def_cfa_offset 48
 125 0006 0646     		mov	r6, r0
ARM GAS  C:\Users\17832\AppData\Local\Temp\ccRMKuAU.s 			page 8


 126 0008 1746     		mov	r7, r2
 258:Middlewares/Third_Party/LwIP/src/core/ipv4/etharp.c ****   s16_t old_pending = ARP_TABLE_SIZE, old_stable = ARP_TABLE_SIZE;
 127              		.loc 1 258 3 is_stmt 1 view .LVU16
 128              	.LVL5:
 259:Middlewares/Third_Party/LwIP/src/core/ipv4/etharp.c ****   s16_t empty = ARP_TABLE_SIZE;
 129              		.loc 1 259 3 view .LVU17
 260:Middlewares/Third_Party/LwIP/src/core/ipv4/etharp.c ****   s16_t i = 0;
 130              		.loc 1 260 3 view .LVU18
 261:Middlewares/Third_Party/LwIP/src/core/ipv4/etharp.c ****   /* oldest entry with packets on queue */
 262:Middlewares/Third_Party/LwIP/src/core/ipv4/etharp.c ****   s16_t old_queue = ARP_TABLE_SIZE;
 131              		.loc 1 262 3 view .LVU19
 263:Middlewares/Third_Party/LwIP/src/core/ipv4/etharp.c ****   /* its age */
 264:Middlewares/Third_Party/LwIP/src/core/ipv4/etharp.c ****   u16_t age_queue = 0, age_pending = 0, age_stable = 0;
 132              		.loc 1 264 3 view .LVU20
 265:Middlewares/Third_Party/LwIP/src/core/ipv4/etharp.c **** 
 266:Middlewares/Third_Party/LwIP/src/core/ipv4/etharp.c ****   LWIP_UNUSED_ARG(netif);
 133              		.loc 1 266 3 view .LVU21
 267:Middlewares/Third_Party/LwIP/src/core/ipv4/etharp.c **** 
 268:Middlewares/Third_Party/LwIP/src/core/ipv4/etharp.c ****   /**
 269:Middlewares/Third_Party/LwIP/src/core/ipv4/etharp.c ****    * a) do a search through the cache, remember candidates
 270:Middlewares/Third_Party/LwIP/src/core/ipv4/etharp.c ****    * b) select candidate entry
 271:Middlewares/Third_Party/LwIP/src/core/ipv4/etharp.c ****    * c) create new entry
 272:Middlewares/Third_Party/LwIP/src/core/ipv4/etharp.c ****    */
 273:Middlewares/Third_Party/LwIP/src/core/ipv4/etharp.c **** 
 274:Middlewares/Third_Party/LwIP/src/core/ipv4/etharp.c ****   /* a) in a single search sweep, do all of this
 275:Middlewares/Third_Party/LwIP/src/core/ipv4/etharp.c ****    * 1) remember the first empty entry (if any)
 276:Middlewares/Third_Party/LwIP/src/core/ipv4/etharp.c ****    * 2) remember the oldest stable entry (if any)
 277:Middlewares/Third_Party/LwIP/src/core/ipv4/etharp.c ****    * 3) remember the oldest pending entry without queued packets (if any)
 278:Middlewares/Third_Party/LwIP/src/core/ipv4/etharp.c ****    * 4) remember the oldest pending entry with queued packets (if any)
 279:Middlewares/Third_Party/LwIP/src/core/ipv4/etharp.c ****    * 5) search for a matching IP entry, either pending or stable
 280:Middlewares/Third_Party/LwIP/src/core/ipv4/etharp.c ****    *    until 5 matches, or all entries are searched for.
 281:Middlewares/Third_Party/LwIP/src/core/ipv4/etharp.c ****    */
 282:Middlewares/Third_Party/LwIP/src/core/ipv4/etharp.c **** 
 283:Middlewares/Third_Party/LwIP/src/core/ipv4/etharp.c ****   for (i = 0; i < ARP_TABLE_SIZE; ++i) {
 134              		.loc 1 283 3 view .LVU22
 264:Middlewares/Third_Party/LwIP/src/core/ipv4/etharp.c **** 
 135              		.loc 1 264 41 is_stmt 0 view .LVU23
 136 000a 4FF00009 		mov	r9, #0
 264:Middlewares/Third_Party/LwIP/src/core/ipv4/etharp.c **** 
 137              		.loc 1 264 24 view .LVU24
 138 000e CDF80090 		str	r9, [sp]
 264:Middlewares/Third_Party/LwIP/src/core/ipv4/etharp.c **** 
 139              		.loc 1 264 9 view .LVU25
 140 0012 CB46     		mov	fp, r9
 262:Middlewares/Third_Party/LwIP/src/core/ipv4/etharp.c ****   /* its age */
 141              		.loc 1 262 9 view .LVU26
 142 0014 4FF00A0A 		mov	r10, #10
 143              		.loc 1 283 10 view .LVU27
 144 0018 4B46     		mov	r3, r9
 259:Middlewares/Third_Party/LwIP/src/core/ipv4/etharp.c ****   s16_t i = 0;
 145              		.loc 1 259 9 view .LVU28
 146 001a 5546     		mov	r5, r10
 258:Middlewares/Third_Party/LwIP/src/core/ipv4/etharp.c ****   s16_t empty = ARP_TABLE_SIZE;
 147              		.loc 1 258 39 view .LVU29
 148 001c D046     		mov	r8, r10
 258:Middlewares/Third_Party/LwIP/src/core/ipv4/etharp.c ****   s16_t empty = ARP_TABLE_SIZE;
 149              		.loc 1 258 9 view .LVU30
ARM GAS  C:\Users\17832\AppData\Local\Temp\ccRMKuAU.s 			page 9


 150 001e CDF804A0 		str	r10, [sp, #4]
 151 0022 8E46     		mov	lr, r1
 152              		.loc 1 283 3 view .LVU31
 153 0024 03E0     		b	.L7
 154              	.LVL6:
 155              	.L36:
 156              	.LBB2:
 284:Middlewares/Third_Party/LwIP/src/core/ipv4/etharp.c ****     u8_t state = arp_table[i].state;
 285:Middlewares/Third_Party/LwIP/src/core/ipv4/etharp.c ****     /* no empty entry found yet and now we do find one? */
 286:Middlewares/Third_Party/LwIP/src/core/ipv4/etharp.c ****     if ((empty == ARP_TABLE_SIZE) && (state == ETHARP_STATE_EMPTY)) {
 157              		.loc 1 286 35 discriminator 1 view .LVU32
 158 0026 68B9     		cbnz	r0, .L8
 287:Middlewares/Third_Party/LwIP/src/core/ipv4/etharp.c ****       LWIP_DEBUGF(ETHARP_DEBUG, ("etharp_find_entry: found empty entry %d\n", (int)i));
 288:Middlewares/Third_Party/LwIP/src/core/ipv4/etharp.c ****       /* remember first empty entry */
 289:Middlewares/Third_Party/LwIP/src/core/ipv4/etharp.c ****       empty = i;
 159              		.loc 1 289 13 view .LVU33
 160 0028 1D46     		mov	r5, r3
 161              	.LVL7:
 162              	.L9:
 163              		.loc 1 289 13 view .LVU34
 164              	.LBE2:
 283:Middlewares/Third_Party/LwIP/src/core/ipv4/etharp.c ****     u8_t state = arp_table[i].state;
 165              		.loc 1 283 35 is_stmt 1 discriminator 2 view .LVU35
 166 002a 0133     		adds	r3, r3, #1
 167              	.LVL8:
 283:Middlewares/Third_Party/LwIP/src/core/ipv4/etharp.c ****     u8_t state = arp_table[i].state;
 168              		.loc 1 283 35 is_stmt 0 discriminator 2 view .LVU36
 169 002c 1BB2     		sxth	r3, r3
 170              	.LVL9:
 171              	.L7:
 283:Middlewares/Third_Party/LwIP/src/core/ipv4/etharp.c ****     u8_t state = arp_table[i].state;
 172              		.loc 1 283 15 is_stmt 1 discriminator 1 view .LVU37
 283:Middlewares/Third_Party/LwIP/src/core/ipv4/etharp.c ****     u8_t state = arp_table[i].state;
 173              		.loc 1 283 3 is_stmt 0 discriminator 1 view .LVU38
 174 002e 092B     		cmp	r3, #9
 175 0030 4DDC     		bgt	.L35
 176              	.LBB3:
 284:Middlewares/Third_Party/LwIP/src/core/ipv4/etharp.c ****     u8_t state = arp_table[i].state;
 177              		.loc 1 284 5 is_stmt 1 view .LVU39
 284:Middlewares/Third_Party/LwIP/src/core/ipv4/etharp.c ****     u8_t state = arp_table[i].state;
 178              		.loc 1 284 30 is_stmt 0 view .LVU40
 179 0032 1C46     		mov	r4, r3
 284:Middlewares/Third_Party/LwIP/src/core/ipv4/etharp.c ****     u8_t state = arp_table[i].state;
 180              		.loc 1 284 10 view .LVU41
 181 0034 03EB4302 		add	r2, r3, r3, lsl #1
 182 0038 5C48     		ldr	r0, .L43
 183 003a 00EBC202 		add	r2, r0, r2, lsl #3
 184 003e 107D     		ldrb	r0, [r2, #20]	@ zero_extendqisi2
 185              	.LVL10:
 286:Middlewares/Third_Party/LwIP/src/core/ipv4/etharp.c ****       LWIP_DEBUGF(ETHARP_DEBUG, ("etharp_find_entry: found empty entry %d\n", (int)i));
 186              		.loc 1 286 5 is_stmt 1 view .LVU42
 286:Middlewares/Third_Party/LwIP/src/core/ipv4/etharp.c ****       LWIP_DEBUGF(ETHARP_DEBUG, ("etharp_find_entry: found empty entry %d\n", (int)i));
 187              		.loc 1 286 8 is_stmt 0 view .LVU43
 188 0040 0A2D     		cmp	r5, #10
 189 0042 F0D0     		beq	.L36
 190              	.L8:
 290:Middlewares/Third_Party/LwIP/src/core/ipv4/etharp.c ****     } else if (state != ETHARP_STATE_EMPTY) {
ARM GAS  C:\Users\17832\AppData\Local\Temp\ccRMKuAU.s 			page 10


 191              		.loc 1 290 12 is_stmt 1 view .LVU44
 192              		.loc 1 290 15 is_stmt 0 view .LVU45
 193 0044 0028     		cmp	r0, #0
 194 0046 F0D0     		beq	.L9
 291:Middlewares/Third_Party/LwIP/src/core/ipv4/etharp.c ****       LWIP_ASSERT("state == ETHARP_STATE_PENDING || state >= ETHARP_STATE_STABLE",
 195              		.loc 1 291 7 is_stmt 1 discriminator 3 view .LVU46
 196              		.loc 1 291 7 discriminator 3 view .LVU47
 197              		.loc 1 291 7 discriminator 3 view .LVU48
 198              		.loc 1 291 7 discriminator 3 view .LVU49
 292:Middlewares/Third_Party/LwIP/src/core/ipv4/etharp.c ****                   state == ETHARP_STATE_PENDING || state >= ETHARP_STATE_STABLE);
 293:Middlewares/Third_Party/LwIP/src/core/ipv4/etharp.c ****       /* if given, does IP address match IP address in ARP entry? */
 294:Middlewares/Third_Party/LwIP/src/core/ipv4/etharp.c ****       if (ipaddr && ip4_addr_cmp(ipaddr, &arp_table[i].ipaddr)
 199              		.loc 1 294 7 discriminator 3 view .LVU50
 200              		.loc 1 294 10 is_stmt 0 discriminator 3 view .LVU51
 201 0048 4EB1     		cbz	r6, .L10
 202              		.loc 1 294 21 discriminator 1 view .LVU52
 203 004a 04EB440C 		add	ip, r4, r4, lsl #1
 204 004e 574A     		ldr	r2, .L43
 205 0050 02EBCC0C 		add	ip, r2, ip, lsl #3
 206 0054 DCF80420 		ldr	r2, [ip, #4]
 207              		.loc 1 294 18 discriminator 1 view .LVU53
 208 0058 3168     		ldr	r1, [r6]
 209 005a 9142     		cmp	r1, r2
 210 005c 0ED0     		beq	.L37
 211              	.L10:
 295:Middlewares/Third_Party/LwIP/src/core/ipv4/etharp.c **** #if ETHARP_TABLE_MATCH_NETIF
 296:Middlewares/Third_Party/LwIP/src/core/ipv4/etharp.c ****           && ((netif == NULL) || (netif == arp_table[i].netif))
 297:Middlewares/Third_Party/LwIP/src/core/ipv4/etharp.c **** #endif /* ETHARP_TABLE_MATCH_NETIF */
 298:Middlewares/Third_Party/LwIP/src/core/ipv4/etharp.c ****          ) {
 299:Middlewares/Third_Party/LwIP/src/core/ipv4/etharp.c ****         LWIP_DEBUGF(ETHARP_DEBUG | LWIP_DBG_TRACE, ("etharp_find_entry: found matching entry %d\n",
 300:Middlewares/Third_Party/LwIP/src/core/ipv4/etharp.c ****         /* found exact IP address match, simply bail out */
 301:Middlewares/Third_Party/LwIP/src/core/ipv4/etharp.c ****         return i;
 302:Middlewares/Third_Party/LwIP/src/core/ipv4/etharp.c ****       }
 303:Middlewares/Third_Party/LwIP/src/core/ipv4/etharp.c ****       /* pending entry? */
 304:Middlewares/Third_Party/LwIP/src/core/ipv4/etharp.c ****       if (state == ETHARP_STATE_PENDING) {
 212              		.loc 1 304 7 is_stmt 1 view .LVU54
 213              		.loc 1 304 10 is_stmt 0 view .LVU55
 214 005e 0128     		cmp	r0, #1
 215 0060 19D0     		beq	.L38
 305:Middlewares/Third_Party/LwIP/src/core/ipv4/etharp.c ****         /* pending with queued packets? */
 306:Middlewares/Third_Party/LwIP/src/core/ipv4/etharp.c ****         if (arp_table[i].q != NULL) {
 307:Middlewares/Third_Party/LwIP/src/core/ipv4/etharp.c ****           if (arp_table[i].ctime >= age_queue) {
 308:Middlewares/Third_Party/LwIP/src/core/ipv4/etharp.c ****             old_queue = i;
 309:Middlewares/Third_Party/LwIP/src/core/ipv4/etharp.c ****             age_queue = arp_table[i].ctime;
 310:Middlewares/Third_Party/LwIP/src/core/ipv4/etharp.c ****           }
 311:Middlewares/Third_Party/LwIP/src/core/ipv4/etharp.c ****         } else
 312:Middlewares/Third_Party/LwIP/src/core/ipv4/etharp.c ****           /* pending without queued packets? */
 313:Middlewares/Third_Party/LwIP/src/core/ipv4/etharp.c ****         {
 314:Middlewares/Third_Party/LwIP/src/core/ipv4/etharp.c ****           if (arp_table[i].ctime >= age_pending) {
 315:Middlewares/Third_Party/LwIP/src/core/ipv4/etharp.c ****             old_pending = i;
 316:Middlewares/Third_Party/LwIP/src/core/ipv4/etharp.c ****             age_pending = arp_table[i].ctime;
 317:Middlewares/Third_Party/LwIP/src/core/ipv4/etharp.c ****           }
 318:Middlewares/Third_Party/LwIP/src/core/ipv4/etharp.c ****         }
 319:Middlewares/Third_Party/LwIP/src/core/ipv4/etharp.c ****         /* stable entry? */
 320:Middlewares/Third_Party/LwIP/src/core/ipv4/etharp.c ****       } else if (state >= ETHARP_STATE_STABLE) {
 216              		.loc 1 320 14 is_stmt 1 view .LVU56
 217              		.loc 1 320 17 is_stmt 0 view .LVU57
ARM GAS  C:\Users\17832\AppData\Local\Temp\ccRMKuAU.s 			page 11


 218 0062 0128     		cmp	r0, #1
 219 0064 E1D9     		bls	.L9
 321:Middlewares/Third_Party/LwIP/src/core/ipv4/etharp.c **** #if ETHARP_SUPPORT_STATIC_ENTRIES
 322:Middlewares/Third_Party/LwIP/src/core/ipv4/etharp.c ****         /* don't record old_stable for static entries since they never expire */
 323:Middlewares/Third_Party/LwIP/src/core/ipv4/etharp.c ****         if (state < ETHARP_STATE_STATIC)
 324:Middlewares/Third_Party/LwIP/src/core/ipv4/etharp.c **** #endif /* ETHARP_SUPPORT_STATIC_ENTRIES */
 325:Middlewares/Third_Party/LwIP/src/core/ipv4/etharp.c ****         {
 326:Middlewares/Third_Party/LwIP/src/core/ipv4/etharp.c ****           /* remember entry with oldest stable entry in oldest, its age in maxtime */
 327:Middlewares/Third_Party/LwIP/src/core/ipv4/etharp.c ****           if (arp_table[i].ctime >= age_stable) {
 220              		.loc 1 327 11 is_stmt 1 view .LVU58
 221              		.loc 1 327 27 is_stmt 0 view .LVU59
 222 0066 04EB4404 		add	r4, r4, r4, lsl #1
 223 006a 504A     		ldr	r2, .L43
 224 006c 02EBC404 		add	r4, r2, r4, lsl #3
 225 0070 628A     		ldrh	r2, [r4, #18]
 226              		.loc 1 327 14 view .LVU60
 227 0072 4A45     		cmp	r2, r9
 228 0074 D9D3     		bcc	.L9
 328:Middlewares/Third_Party/LwIP/src/core/ipv4/etharp.c ****             old_stable = i;
 329:Middlewares/Third_Party/LwIP/src/core/ipv4/etharp.c ****             age_stable = arp_table[i].ctime;
 229              		.loc 1 329 24 view .LVU61
 230 0076 9146     		mov	r9, r2
 231              	.LVL11:
 328:Middlewares/Third_Party/LwIP/src/core/ipv4/etharp.c ****             old_stable = i;
 232              		.loc 1 328 24 view .LVU62
 233 0078 9846     		mov	r8, r3
 234              	.LVL12:
 328:Middlewares/Third_Party/LwIP/src/core/ipv4/etharp.c ****             old_stable = i;
 235              		.loc 1 328 24 view .LVU63
 236 007a D6E7     		b	.L9
 237              	.LVL13:
 238              	.L37:
 296:Middlewares/Third_Party/LwIP/src/core/ipv4/etharp.c **** #endif /* ETHARP_TABLE_MATCH_NETIF */
 239              		.loc 1 296 11 view .LVU64
 240 007c 002F     		cmp	r7, #0
 241 007e 00F08D80 		beq	.L24
 296:Middlewares/Third_Party/LwIP/src/core/ipv4/etharp.c **** #endif /* ETHARP_TABLE_MATCH_NETIF */
 242              		.loc 1 296 56 discriminator 1 view .LVU65
 243 0082 04EB440C 		add	ip, r4, r4, lsl #1
 244 0086 494A     		ldr	r2, .L43
 245 0088 02EBCC02 		add	r2, r2, ip, lsl #3
 246 008c 9268     		ldr	r2, [r2, #8]
 296:Middlewares/Third_Party/LwIP/src/core/ipv4/etharp.c **** #endif /* ETHARP_TABLE_MATCH_NETIF */
 247              		.loc 1 296 31 discriminator 1 view .LVU66
 248 008e BA42     		cmp	r2, r7
 249 0090 E5D1     		bne	.L10
 301:Middlewares/Third_Party/LwIP/src/core/ipv4/etharp.c ****       }
 250              		.loc 1 301 16 view .LVU67
 251 0092 1D46     		mov	r5, r3
 252              	.LVL14:
 301:Middlewares/Third_Party/LwIP/src/core/ipv4/etharp.c ****       }
 253              		.loc 1 301 16 view .LVU68
 254 0094 54E0     		b	.L11
 255              	.LVL15:
 256              	.L38:
 306:Middlewares/Third_Party/LwIP/src/core/ipv4/etharp.c ****           if (arp_table[i].ctime >= age_queue) {
 257              		.loc 1 306 9 is_stmt 1 view .LVU69
ARM GAS  C:\Users\17832\AppData\Local\Temp\ccRMKuAU.s 			page 12


 306:Middlewares/Third_Party/LwIP/src/core/ipv4/etharp.c ****           if (arp_table[i].ctime >= age_queue) {
 258              		.loc 1 306 25 is_stmt 0 view .LVU70
 259 0096 04EB4402 		add	r2, r4, r4, lsl #1
 260 009a 4448     		ldr	r0, .L43
 261              	.LVL16:
 306:Middlewares/Third_Party/LwIP/src/core/ipv4/etharp.c ****           if (arp_table[i].ctime >= age_queue) {
 262              		.loc 1 306 25 view .LVU71
 263 009c 50F83220 		ldr	r2, [r0, r2, lsl #3]
 306:Middlewares/Third_Party/LwIP/src/core/ipv4/etharp.c ****           if (arp_table[i].ctime >= age_queue) {
 264              		.loc 1 306 12 view .LVU72
 265 00a0 4AB1     		cbz	r2, .L13
 307:Middlewares/Third_Party/LwIP/src/core/ipv4/etharp.c ****             old_queue = i;
 266              		.loc 1 307 11 is_stmt 1 view .LVU73
 307:Middlewares/Third_Party/LwIP/src/core/ipv4/etharp.c ****             old_queue = i;
 267              		.loc 1 307 27 is_stmt 0 view .LVU74
 268 00a2 04EB4404 		add	r4, r4, r4, lsl #1
 269 00a6 00EBC404 		add	r4, r0, r4, lsl #3
 270 00aa 628A     		ldrh	r2, [r4, #18]
 307:Middlewares/Third_Party/LwIP/src/core/ipv4/etharp.c ****             old_queue = i;
 271              		.loc 1 307 14 view .LVU75
 272 00ac 5A45     		cmp	r2, fp
 273 00ae BCD3     		bcc	.L9
 309:Middlewares/Third_Party/LwIP/src/core/ipv4/etharp.c ****           }
 274              		.loc 1 309 23 view .LVU76
 275 00b0 9346     		mov	fp, r2
 276              	.LVL17:
 308:Middlewares/Third_Party/LwIP/src/core/ipv4/etharp.c ****             age_queue = arp_table[i].ctime;
 277              		.loc 1 308 23 view .LVU77
 278 00b2 9A46     		mov	r10, r3
 279              	.LVL18:
 308:Middlewares/Third_Party/LwIP/src/core/ipv4/etharp.c ****             age_queue = arp_table[i].ctime;
 280              		.loc 1 308 23 view .LVU78
 281 00b4 B9E7     		b	.L9
 282              	.LVL19:
 283              	.L13:
 314:Middlewares/Third_Party/LwIP/src/core/ipv4/etharp.c ****             old_pending = i;
 284              		.loc 1 314 11 is_stmt 1 view .LVU79
 314:Middlewares/Third_Party/LwIP/src/core/ipv4/etharp.c ****             old_pending = i;
 285              		.loc 1 314 27 is_stmt 0 view .LVU80
 286 00b6 04EB4404 		add	r4, r4, r4, lsl #1
 287 00ba 3C4A     		ldr	r2, .L43
 288 00bc 02EBC404 		add	r4, r2, r4, lsl #3
 289 00c0 628A     		ldrh	r2, [r4, #18]
 314:Middlewares/Third_Party/LwIP/src/core/ipv4/etharp.c ****             old_pending = i;
 290              		.loc 1 314 14 view .LVU81
 291 00c2 0099     		ldr	r1, [sp]
 292 00c4 8A42     		cmp	r2, r1
 293 00c6 B0D3     		bcc	.L9
 316:Middlewares/Third_Party/LwIP/src/core/ipv4/etharp.c ****           }
 294              		.loc 1 316 25 view .LVU82
 295 00c8 0092     		str	r2, [sp]
 296              	.LVL20:
 315:Middlewares/Third_Party/LwIP/src/core/ipv4/etharp.c ****             age_pending = arp_table[i].ctime;
 297              		.loc 1 315 25 view .LVU83
 298 00ca 0193     		str	r3, [sp, #4]
 299              	.LVL21:
 315:Middlewares/Third_Party/LwIP/src/core/ipv4/etharp.c ****             age_pending = arp_table[i].ctime;
ARM GAS  C:\Users\17832\AppData\Local\Temp\ccRMKuAU.s 			page 13


 300              		.loc 1 315 25 view .LVU84
 301 00cc ADE7     		b	.L9
 302              	.LVL22:
 303              	.L35:
 315:Middlewares/Third_Party/LwIP/src/core/ipv4/etharp.c ****             age_pending = arp_table[i].ctime;
 304              		.loc 1 315 25 view .LVU85
 305              	.LBE3:
 330:Middlewares/Third_Party/LwIP/src/core/ipv4/etharp.c ****           }
 331:Middlewares/Third_Party/LwIP/src/core/ipv4/etharp.c ****         }
 332:Middlewares/Third_Party/LwIP/src/core/ipv4/etharp.c ****       }
 333:Middlewares/Third_Party/LwIP/src/core/ipv4/etharp.c ****     }
 334:Middlewares/Third_Party/LwIP/src/core/ipv4/etharp.c ****   }
 335:Middlewares/Third_Party/LwIP/src/core/ipv4/etharp.c ****   /* { we have no match } => try to create a new entry */
 336:Middlewares/Third_Party/LwIP/src/core/ipv4/etharp.c **** 
 337:Middlewares/Third_Party/LwIP/src/core/ipv4/etharp.c ****   /* don't create new entry, only search? */
 338:Middlewares/Third_Party/LwIP/src/core/ipv4/etharp.c ****   if (((flags & ETHARP_FLAG_FIND_ONLY) != 0) ||
 306              		.loc 1 338 3 is_stmt 1 view .LVU86
 307              		.loc 1 338 6 is_stmt 0 view .LVU87
 308 00ce 1EF0020F 		tst	lr, #2
 309 00d2 65D1     		bne	.L29
 310              		.loc 1 338 46 discriminator 1 view .LVU88
 311 00d4 0A2D     		cmp	r5, #10
 312 00d6 37D0     		beq	.L39
 313              	.L15:
 339:Middlewares/Third_Party/LwIP/src/core/ipv4/etharp.c ****       /* or no empty entry found and not allowed to recycle? */
 340:Middlewares/Third_Party/LwIP/src/core/ipv4/etharp.c ****       ((empty == ARP_TABLE_SIZE) && ((flags & ETHARP_FLAG_TRY_HARD) == 0))) {
 341:Middlewares/Third_Party/LwIP/src/core/ipv4/etharp.c ****     LWIP_DEBUGF(ETHARP_DEBUG | LWIP_DBG_TRACE, ("etharp_find_entry: no empty entry found and not al
 342:Middlewares/Third_Party/LwIP/src/core/ipv4/etharp.c ****     return (s16_t)ERR_MEM;
 343:Middlewares/Third_Party/LwIP/src/core/ipv4/etharp.c ****   }
 344:Middlewares/Third_Party/LwIP/src/core/ipv4/etharp.c **** 
 345:Middlewares/Third_Party/LwIP/src/core/ipv4/etharp.c ****   /* b) choose the least destructive entry to recycle:
 346:Middlewares/Third_Party/LwIP/src/core/ipv4/etharp.c ****    * 1) empty entry
 347:Middlewares/Third_Party/LwIP/src/core/ipv4/etharp.c ****    * 2) oldest stable entry
 348:Middlewares/Third_Party/LwIP/src/core/ipv4/etharp.c ****    * 3) oldest pending entry without queued packets
 349:Middlewares/Third_Party/LwIP/src/core/ipv4/etharp.c ****    * 4) oldest pending entry with queued packets
 350:Middlewares/Third_Party/LwIP/src/core/ipv4/etharp.c ****    *
 351:Middlewares/Third_Party/LwIP/src/core/ipv4/etharp.c ****    * { ETHARP_FLAG_TRY_HARD is set at this point }
 352:Middlewares/Third_Party/LwIP/src/core/ipv4/etharp.c ****    */
 353:Middlewares/Third_Party/LwIP/src/core/ipv4/etharp.c **** 
 354:Middlewares/Third_Party/LwIP/src/core/ipv4/etharp.c ****   /* 1) empty entry available? */
 355:Middlewares/Third_Party/LwIP/src/core/ipv4/etharp.c ****   if (empty < ARP_TABLE_SIZE) {
 314              		.loc 1 355 3 is_stmt 1 view .LVU89
 315              		.loc 1 355 6 is_stmt 0 view .LVU90
 316 00d8 092D     		cmp	r5, #9
 317 00da 16DD     		ble	.L16
 356:Middlewares/Third_Party/LwIP/src/core/ipv4/etharp.c ****     i = empty;
 357:Middlewares/Third_Party/LwIP/src/core/ipv4/etharp.c ****     LWIP_DEBUGF(ETHARP_DEBUG | LWIP_DBG_TRACE, ("etharp_find_entry: selecting empty entry %d\n", (i
 358:Middlewares/Third_Party/LwIP/src/core/ipv4/etharp.c ****   } else {
 359:Middlewares/Third_Party/LwIP/src/core/ipv4/etharp.c ****     /* 2) found recyclable stable entry? */
 360:Middlewares/Third_Party/LwIP/src/core/ipv4/etharp.c ****     if (old_stable < ARP_TABLE_SIZE) {
 318              		.loc 1 360 5 is_stmt 1 view .LVU91
 319              		.loc 1 360 8 is_stmt 0 view .LVU92
 320 00dc B8F1090F 		cmp	r8, #9
 321 00e0 38DC     		bgt	.L17
 361:Middlewares/Third_Party/LwIP/src/core/ipv4/etharp.c ****       /* recycle oldest stable*/
 362:Middlewares/Third_Party/LwIP/src/core/ipv4/etharp.c ****       i = old_stable;
 322              		.loc 1 362 7 is_stmt 1 view .LVU93
ARM GAS  C:\Users\17832\AppData\Local\Temp\ccRMKuAU.s 			page 14


 323              	.LVL23:
 363:Middlewares/Third_Party/LwIP/src/core/ipv4/etharp.c ****       LWIP_DEBUGF(ETHARP_DEBUG | LWIP_DBG_TRACE, ("etharp_find_entry: selecting oldest stable entry
 324              		.loc 1 363 116 view .LVU94
 364:Middlewares/Third_Party/LwIP/src/core/ipv4/etharp.c ****       /* no queued packets should exist on stable entries */
 365:Middlewares/Third_Party/LwIP/src/core/ipv4/etharp.c ****       LWIP_ASSERT("arp_table[i].q == NULL", arp_table[i].q == NULL);
 325              		.loc 1 365 7 view .LVU95
 326              		.loc 1 365 7 view .LVU96
 327 00e2 08EB4803 		add	r3, r8, r8, lsl #1
 328 00e6 314A     		ldr	r2, .L43
 329 00e8 52F83330 		ldr	r3, [r2, r3, lsl #3]
 330 00ec 002B     		cmp	r3, #0
 331 00ee 39D0     		beq	.L31
 332              		.loc 1 365 7 discriminator 1 view .LVU97
 333              		.loc 1 365 7 discriminator 1 view .LVU98
 334 00f0 2F4B     		ldr	r3, .L43+4
 335 00f2 40F26D12 		movw	r2, #365
 336 00f6 2F49     		ldr	r1, .L43+8
 337 00f8 2F48     		ldr	r0, .L43+12
 338 00fa FFF7FEFF 		bl	printf
 339              	.LVL24:
 362:Middlewares/Third_Party/LwIP/src/core/ipv4/etharp.c ****       LWIP_DEBUGF(ETHARP_DEBUG | LWIP_DBG_TRACE, ("etharp_find_entry: selecting oldest stable entry
 340              		.loc 1 362 9 is_stmt 0 discriminator 1 view .LVU99
 341 00fe 4546     		mov	r5, r8
 342              	.LVL25:
 343              	.L18:
 366:Middlewares/Third_Party/LwIP/src/core/ipv4/etharp.c ****       /* 3) found recyclable pending entry without queued packets? */
 367:Middlewares/Third_Party/LwIP/src/core/ipv4/etharp.c ****     } else if (old_pending < ARP_TABLE_SIZE) {
 368:Middlewares/Third_Party/LwIP/src/core/ipv4/etharp.c ****       /* recycle oldest pending */
 369:Middlewares/Third_Party/LwIP/src/core/ipv4/etharp.c ****       i = old_pending;
 370:Middlewares/Third_Party/LwIP/src/core/ipv4/etharp.c ****       LWIP_DEBUGF(ETHARP_DEBUG | LWIP_DBG_TRACE, ("etharp_find_entry: selecting oldest pending entr
 371:Middlewares/Third_Party/LwIP/src/core/ipv4/etharp.c ****       /* 4) found recyclable pending entry with queued packets? */
 372:Middlewares/Third_Party/LwIP/src/core/ipv4/etharp.c ****     } else if (old_queue < ARP_TABLE_SIZE) {
 373:Middlewares/Third_Party/LwIP/src/core/ipv4/etharp.c ****       /* recycle oldest pending (queued packets are free in etharp_free_entry) */
 374:Middlewares/Third_Party/LwIP/src/core/ipv4/etharp.c ****       i = old_queue;
 375:Middlewares/Third_Party/LwIP/src/core/ipv4/etharp.c ****       LWIP_DEBUGF(ETHARP_DEBUG | LWIP_DBG_TRACE, ("etharp_find_entry: selecting oldest pending entr
 376:Middlewares/Third_Party/LwIP/src/core/ipv4/etharp.c ****       /* no empty or recyclable entries found */
 377:Middlewares/Third_Party/LwIP/src/core/ipv4/etharp.c ****     } else {
 378:Middlewares/Third_Party/LwIP/src/core/ipv4/etharp.c ****       LWIP_DEBUGF(ETHARP_DEBUG | LWIP_DBG_TRACE, ("etharp_find_entry: no empty or recyclable entrie
 379:Middlewares/Third_Party/LwIP/src/core/ipv4/etharp.c ****       return (s16_t)ERR_MEM;
 380:Middlewares/Third_Party/LwIP/src/core/ipv4/etharp.c ****     }
 381:Middlewares/Third_Party/LwIP/src/core/ipv4/etharp.c **** 
 382:Middlewares/Third_Party/LwIP/src/core/ipv4/etharp.c ****     /* { empty or recyclable entry found } */
 383:Middlewares/Third_Party/LwIP/src/core/ipv4/etharp.c ****     LWIP_ASSERT("i < ARP_TABLE_SIZE", i < ARP_TABLE_SIZE);
 344              		.loc 1 383 5 is_stmt 1 view .LVU100
 345              		.loc 1 383 5 view .LVU101
 346 0100 092D     		cmp	r5, #9
 347 0102 33DC     		bgt	.L40
 348              	.L19:
 349              		.loc 1 383 5 discriminator 3 view .LVU102
 350              		.loc 1 383 5 discriminator 3 view .LVU103
 384:Middlewares/Third_Party/LwIP/src/core/ipv4/etharp.c ****     etharp_free_entry(i);
 351              		.loc 1 384 5 discriminator 3 view .LVU104
 352 0104 2846     		mov	r0, r5
 353 0106 FFF7FEFF 		bl	etharp_free_entry
 354              	.LVL26:
 355              	.L16:
 385:Middlewares/Third_Party/LwIP/src/core/ipv4/etharp.c ****   }
ARM GAS  C:\Users\17832\AppData\Local\Temp\ccRMKuAU.s 			page 15


 386:Middlewares/Third_Party/LwIP/src/core/ipv4/etharp.c **** 
 387:Middlewares/Third_Party/LwIP/src/core/ipv4/etharp.c ****   LWIP_ASSERT("i < ARP_TABLE_SIZE", i < ARP_TABLE_SIZE);
 356              		.loc 1 387 3 view .LVU105
 357              		.loc 1 387 3 view .LVU106
 358 010a 092D     		cmp	r5, #9
 359 010c 36DC     		bgt	.L41
 360              	.L20:
 361              		.loc 1 387 3 discriminator 3 view .LVU107
 362              		.loc 1 387 3 discriminator 3 view .LVU108
 388:Middlewares/Third_Party/LwIP/src/core/ipv4/etharp.c ****   LWIP_ASSERT("arp_table[i].state == ETHARP_STATE_EMPTY",
 363              		.loc 1 388 3 discriminator 3 view .LVU109
 364              		.loc 1 388 3 discriminator 3 view .LVU110
 365 010e 2C46     		mov	r4, r5
 366 0110 05EB4503 		add	r3, r5, r5, lsl #1
 367 0114 254A     		ldr	r2, .L43
 368 0116 02EBC303 		add	r3, r2, r3, lsl #3
 369 011a 1B7D     		ldrb	r3, [r3, #20]	@ zero_extendqisi2
 370 011c 002B     		cmp	r3, #0
 371 011e 35D1     		bne	.L42
 372              	.L21:
 373              		.loc 1 388 3 discriminator 3 view .LVU111
 374              		.loc 1 388 3 discriminator 3 view .LVU112
 389:Middlewares/Third_Party/LwIP/src/core/ipv4/etharp.c ****               arp_table[i].state == ETHARP_STATE_EMPTY);
 390:Middlewares/Third_Party/LwIP/src/core/ipv4/etharp.c **** 
 391:Middlewares/Third_Party/LwIP/src/core/ipv4/etharp.c ****   /* IP address given? */
 392:Middlewares/Third_Party/LwIP/src/core/ipv4/etharp.c ****   if (ipaddr != NULL) {
 375              		.loc 1 392 3 discriminator 3 view .LVU113
 376              		.loc 1 392 6 is_stmt 0 discriminator 3 view .LVU114
 377 0120 36B1     		cbz	r6, .L22
 393:Middlewares/Third_Party/LwIP/src/core/ipv4/etharp.c ****     /* set IP address */
 394:Middlewares/Third_Party/LwIP/src/core/ipv4/etharp.c ****     ip4_addr_copy(arp_table[i].ipaddr, *ipaddr);
 378              		.loc 1 394 5 is_stmt 1 view .LVU115
 379 0122 3168     		ldr	r1, [r6]
 380 0124 04EB4403 		add	r3, r4, r4, lsl #1
 381 0128 204A     		ldr	r2, .L43
 382 012a 02EBC303 		add	r3, r2, r3, lsl #3
 383 012e 5960     		str	r1, [r3, #4]
 384              	.L22:
 395:Middlewares/Third_Party/LwIP/src/core/ipv4/etharp.c ****   }
 396:Middlewares/Third_Party/LwIP/src/core/ipv4/etharp.c ****   arp_table[i].ctime = 0;
 385              		.loc 1 396 3 view .LVU116
 386              		.loc 1 396 22 is_stmt 0 view .LVU117
 387 0130 1E4B     		ldr	r3, .L43
 388 0132 04EB4402 		add	r2, r4, r4, lsl #1
 389 0136 03EBC202 		add	r2, r3, r2, lsl #3
 390 013a 0021     		movs	r1, #0
 391 013c 5182     		strh	r1, [r2, #18]	@ movhi
 397:Middlewares/Third_Party/LwIP/src/core/ipv4/etharp.c **** #if ETHARP_TABLE_MATCH_NETIF
 398:Middlewares/Third_Party/LwIP/src/core/ipv4/etharp.c ****   arp_table[i].netif = netif;
 392              		.loc 1 398 3 is_stmt 1 view .LVU118
 393              		.loc 1 398 22 is_stmt 0 view .LVU119
 394 013e 9760     		str	r7, [r2, #8]
 399:Middlewares/Third_Party/LwIP/src/core/ipv4/etharp.c **** #endif /* ETHARP_TABLE_MATCH_NETIF */
 400:Middlewares/Third_Party/LwIP/src/core/ipv4/etharp.c ****   return (s16_t)i;
 395              		.loc 1 400 3 is_stmt 1 view .LVU120
 396              	.LVL27:
 397              	.L11:
ARM GAS  C:\Users\17832\AppData\Local\Temp\ccRMKuAU.s 			page 16


 401:Middlewares/Third_Party/LwIP/src/core/ipv4/etharp.c **** }
 398              		.loc 1 401 1 is_stmt 0 view .LVU121
 399 0140 2846     		mov	r0, r5
 400 0142 03B0     		add	sp, sp, #12
 401              	.LCFI3:
 402              		.cfi_remember_state
 403              		.cfi_def_cfa_offset 36
 404              	.LVL28:
 405              		.loc 1 401 1 view .LVU122
 406              		@ sp needed
 407 0144 BDE8F08F 		pop	{r4, r5, r6, r7, r8, r9, r10, fp, pc}
 408              	.LVL29:
 409              	.L39:
 410              	.LCFI4:
 411              		.cfi_restore_state
 340:Middlewares/Third_Party/LwIP/src/core/ipv4/etharp.c ****     LWIP_DEBUGF(ETHARP_DEBUG | LWIP_DBG_TRACE, ("etharp_find_entry: no empty entry found and not al
 412              		.loc 1 340 34 view .LVU123
 413 0148 1EF0010F 		tst	lr, #1
 414 014c C4D1     		bne	.L15
 342:Middlewares/Third_Party/LwIP/src/core/ipv4/etharp.c ****   }
 415              		.loc 1 342 12 view .LVU124
 416 014e 4FF0FF35 		mov	r5, #-1
 417              	.LVL30:
 342:Middlewares/Third_Party/LwIP/src/core/ipv4/etharp.c ****   }
 418              		.loc 1 342 12 view .LVU125
 419 0152 F5E7     		b	.L11
 420              	.LVL31:
 421              	.L17:
 367:Middlewares/Third_Party/LwIP/src/core/ipv4/etharp.c ****       /* recycle oldest pending */
 422              		.loc 1 367 12 is_stmt 1 view .LVU126
 367:Middlewares/Third_Party/LwIP/src/core/ipv4/etharp.c ****       /* recycle oldest pending */
 423              		.loc 1 367 15 is_stmt 0 view .LVU127
 424 0154 019B     		ldr	r3, [sp, #4]
 425              	.LVL32:
 367:Middlewares/Third_Party/LwIP/src/core/ipv4/etharp.c ****       /* recycle oldest pending */
 426              		.loc 1 367 15 view .LVU128
 427 0156 092B     		cmp	r3, #9
 428 0158 06DD     		ble	.L32
 372:Middlewares/Third_Party/LwIP/src/core/ipv4/etharp.c ****       /* recycle oldest pending (queued packets are free in etharp_free_entry) */
 429              		.loc 1 372 12 is_stmt 1 view .LVU129
 372:Middlewares/Third_Party/LwIP/src/core/ipv4/etharp.c ****       /* recycle oldest pending (queued packets are free in etharp_free_entry) */
 430              		.loc 1 372 15 is_stmt 0 view .LVU130
 431 015a BAF1090F 		cmp	r10, #9
 432 015e 22DC     		bgt	.L33
 374:Middlewares/Third_Party/LwIP/src/core/ipv4/etharp.c ****       LWIP_DEBUGF(ETHARP_DEBUG | LWIP_DBG_TRACE, ("etharp_find_entry: selecting oldest pending entr
 433              		.loc 1 374 9 view .LVU131
 434 0160 5546     		mov	r5, r10
 435              	.LVL33:
 374:Middlewares/Third_Party/LwIP/src/core/ipv4/etharp.c ****       LWIP_DEBUGF(ETHARP_DEBUG | LWIP_DBG_TRACE, ("etharp_find_entry: selecting oldest pending entr
 436              		.loc 1 374 9 view .LVU132
 437 0162 CDE7     		b	.L18
 438              	.LVL34:
 439              	.L31:
 362:Middlewares/Third_Party/LwIP/src/core/ipv4/etharp.c ****       LWIP_DEBUGF(ETHARP_DEBUG | LWIP_DBG_TRACE, ("etharp_find_entry: selecting oldest stable entry
 440              		.loc 1 362 9 view .LVU133
 441 0164 4546     		mov	r5, r8
 442              	.LVL35:
ARM GAS  C:\Users\17832\AppData\Local\Temp\ccRMKuAU.s 			page 17


 362:Middlewares/Third_Party/LwIP/src/core/ipv4/etharp.c ****       LWIP_DEBUGF(ETHARP_DEBUG | LWIP_DBG_TRACE, ("etharp_find_entry: selecting oldest stable entry
 443              		.loc 1 362 9 view .LVU134
 444 0166 CBE7     		b	.L18
 445              	.LVL36:
 446              	.L32:
 369:Middlewares/Third_Party/LwIP/src/core/ipv4/etharp.c ****       LWIP_DEBUGF(ETHARP_DEBUG | LWIP_DBG_TRACE, ("etharp_find_entry: selecting oldest pending entr
 447              		.loc 1 369 9 view .LVU135
 448 0168 019D     		ldr	r5, [sp, #4]
 449              	.LVL37:
 369:Middlewares/Third_Party/LwIP/src/core/ipv4/etharp.c ****       LWIP_DEBUGF(ETHARP_DEBUG | LWIP_DBG_TRACE, ("etharp_find_entry: selecting oldest pending entr
 450              		.loc 1 369 9 view .LVU136
 451 016a C9E7     		b	.L18
 452              	.LVL38:
 453              	.L40:
 383:Middlewares/Third_Party/LwIP/src/core/ipv4/etharp.c ****     etharp_free_entry(i);
 454              		.loc 1 383 5 is_stmt 1 discriminator 1 view .LVU137
 383:Middlewares/Third_Party/LwIP/src/core/ipv4/etharp.c ****     etharp_free_entry(i);
 455              		.loc 1 383 5 discriminator 1 view .LVU138
 456 016c 104B     		ldr	r3, .L43+4
 457 016e 40F27F12 		movw	r2, #383
 458 0172 1249     		ldr	r1, .L43+16
 459 0174 1048     		ldr	r0, .L43+12
 460 0176 FFF7FEFF 		bl	printf
 461              	.LVL39:
 462 017a C3E7     		b	.L19
 463              	.L41:
 387:Middlewares/Third_Party/LwIP/src/core/ipv4/etharp.c ****   LWIP_ASSERT("arp_table[i].state == ETHARP_STATE_EMPTY",
 464              		.loc 1 387 3 discriminator 1 view .LVU139
 387:Middlewares/Third_Party/LwIP/src/core/ipv4/etharp.c ****   LWIP_ASSERT("arp_table[i].state == ETHARP_STATE_EMPTY",
 465              		.loc 1 387 3 discriminator 1 view .LVU140
 466 017c 0C4B     		ldr	r3, .L43+4
 467 017e 40F28312 		movw	r2, #387
 468 0182 0E49     		ldr	r1, .L43+16
 469 0184 0C48     		ldr	r0, .L43+12
 470 0186 FFF7FEFF 		bl	printf
 471              	.LVL40:
 472 018a C0E7     		b	.L20
 473              	.L42:
 388:Middlewares/Third_Party/LwIP/src/core/ipv4/etharp.c ****               arp_table[i].state == ETHARP_STATE_EMPTY);
 474              		.loc 1 388 3 discriminator 1 view .LVU141
 388:Middlewares/Third_Party/LwIP/src/core/ipv4/etharp.c ****               arp_table[i].state == ETHARP_STATE_EMPTY);
 475              		.loc 1 388 3 discriminator 1 view .LVU142
 476 018c 084B     		ldr	r3, .L43+4
 477 018e 4FF4C272 		mov	r2, #388
 478 0192 0B49     		ldr	r1, .L43+20
 479 0194 0848     		ldr	r0, .L43+12
 480 0196 FFF7FEFF 		bl	printf
 481              	.LVL41:
 482 019a C1E7     		b	.L21
 483              	.LVL42:
 484              	.L24:
 485              	.LBB4:
 301:Middlewares/Third_Party/LwIP/src/core/ipv4/etharp.c ****       }
 486              		.loc 1 301 16 is_stmt 0 view .LVU143
 487 019c 1D46     		mov	r5, r3
 488              	.LVL43:
 301:Middlewares/Third_Party/LwIP/src/core/ipv4/etharp.c ****       }
ARM GAS  C:\Users\17832\AppData\Local\Temp\ccRMKuAU.s 			page 18


 489              		.loc 1 301 16 view .LVU144
 490 019e CFE7     		b	.L11
 491              	.LVL44:
 492              	.L29:
 301:Middlewares/Third_Party/LwIP/src/core/ipv4/etharp.c ****       }
 493              		.loc 1 301 16 view .LVU145
 494              	.LBE4:
 342:Middlewares/Third_Party/LwIP/src/core/ipv4/etharp.c ****   }
 495              		.loc 1 342 12 view .LVU146
 496 01a0 4FF0FF35 		mov	r5, #-1
 497              	.LVL45:
 342:Middlewares/Third_Party/LwIP/src/core/ipv4/etharp.c ****   }
 498              		.loc 1 342 12 view .LVU147
 499 01a4 CCE7     		b	.L11
 500              	.LVL46:
 501              	.L33:
 379:Middlewares/Third_Party/LwIP/src/core/ipv4/etharp.c ****     }
 502              		.loc 1 379 14 view .LVU148
 503 01a6 4FF0FF35 		mov	r5, #-1
 504              	.LVL47:
 379:Middlewares/Third_Party/LwIP/src/core/ipv4/etharp.c ****     }
 505              		.loc 1 379 14 view .LVU149
 506 01aa C9E7     		b	.L11
 507              	.L44:
 508              		.align	2
 509              	.L43:
 510 01ac 00000000 		.word	.LANCHOR0
 511 01b0 00000000 		.word	.LC0
 512 01b4 34000000 		.word	.LC1
 513 01b8 4C000000 		.word	.LC2
 514 01bc 74000000 		.word	.LC3
 515 01c0 88000000 		.word	.LC4
 516              		.cfi_endproc
 517              	.LFE158:
 519              		.section	.rodata.etharp_update_arp_entry.str1.4,"aMS",%progbits,1
 520              		.align	2
 521              	.LC5:
 522 0000 6E657469 		.ascii	"netif->hwaddr_len == ETH_HWADDR_LEN\000"
 522      662D3E68 
 522      77616464 
 522      725F6C65 
 522      6E203D3D 
 523              		.section	.text.etharp_update_arp_entry,"ax",%progbits
 524              		.align	1
 525              		.syntax unified
 526              		.thumb
 527              		.thumb_func
 529              	etharp_update_arp_entry:
 530              	.LVL48:
 531              	.LFB159:
 402:Middlewares/Third_Party/LwIP/src/core/ipv4/etharp.c **** 
 403:Middlewares/Third_Party/LwIP/src/core/ipv4/etharp.c **** /**
 404:Middlewares/Third_Party/LwIP/src/core/ipv4/etharp.c ****  * Update (or insert) a IP/MAC address pair in the ARP cache.
 405:Middlewares/Third_Party/LwIP/src/core/ipv4/etharp.c ****  *
 406:Middlewares/Third_Party/LwIP/src/core/ipv4/etharp.c ****  * If a pending entry is resolved, any queued packets will be sent
 407:Middlewares/Third_Party/LwIP/src/core/ipv4/etharp.c ****  * at this point.
 408:Middlewares/Third_Party/LwIP/src/core/ipv4/etharp.c ****  *
ARM GAS  C:\Users\17832\AppData\Local\Temp\ccRMKuAU.s 			page 19


 409:Middlewares/Third_Party/LwIP/src/core/ipv4/etharp.c ****  * @param netif netif related to this entry (used for NETIF_ADDRHINT)
 410:Middlewares/Third_Party/LwIP/src/core/ipv4/etharp.c ****  * @param ipaddr IP address of the inserted ARP entry.
 411:Middlewares/Third_Party/LwIP/src/core/ipv4/etharp.c ****  * @param ethaddr Ethernet address of the inserted ARP entry.
 412:Middlewares/Third_Party/LwIP/src/core/ipv4/etharp.c ****  * @param flags See @ref etharp_state
 413:Middlewares/Third_Party/LwIP/src/core/ipv4/etharp.c ****  *
 414:Middlewares/Third_Party/LwIP/src/core/ipv4/etharp.c ****  * @return
 415:Middlewares/Third_Party/LwIP/src/core/ipv4/etharp.c ****  * - ERR_OK Successfully updated ARP cache.
 416:Middlewares/Third_Party/LwIP/src/core/ipv4/etharp.c ****  * - ERR_MEM If we could not add a new ARP entry when ETHARP_FLAG_TRY_HARD was set.
 417:Middlewares/Third_Party/LwIP/src/core/ipv4/etharp.c ****  * - ERR_ARG Non-unicast address given, those will not appear in ARP cache.
 418:Middlewares/Third_Party/LwIP/src/core/ipv4/etharp.c ****  *
 419:Middlewares/Third_Party/LwIP/src/core/ipv4/etharp.c ****  * @see pbuf_free()
 420:Middlewares/Third_Party/LwIP/src/core/ipv4/etharp.c ****  */
 421:Middlewares/Third_Party/LwIP/src/core/ipv4/etharp.c **** static err_t
 422:Middlewares/Third_Party/LwIP/src/core/ipv4/etharp.c **** etharp_update_arp_entry(struct netif *netif, const ip4_addr_t *ipaddr, struct eth_addr *ethaddr, u8
 423:Middlewares/Third_Party/LwIP/src/core/ipv4/etharp.c **** {
 532              		.loc 1 423 1 is_stmt 1 view -0
 533              		.cfi_startproc
 534              		@ args = 0, pretend = 0, frame = 0
 535              		@ frame_needed = 0, uses_anonymous_args = 0
 536              		.loc 1 423 1 is_stmt 0 view .LVU151
 537 0000 F0B5     		push	{r4, r5, r6, r7, lr}
 538              	.LCFI5:
 539              		.cfi_def_cfa_offset 20
 540              		.cfi_offset 4, -20
 541              		.cfi_offset 5, -16
 542              		.cfi_offset 6, -12
 543              		.cfi_offset 7, -8
 544              		.cfi_offset 14, -4
 545 0002 83B0     		sub	sp, sp, #12
 546              	.LCFI6:
 547              		.cfi_def_cfa_offset 32
 548 0004 0546     		mov	r5, r0
 549 0006 0C46     		mov	r4, r1
 550 0008 1646     		mov	r6, r2
 551 000a 1F46     		mov	r7, r3
 424:Middlewares/Third_Party/LwIP/src/core/ipv4/etharp.c ****   s16_t i;
 552              		.loc 1 424 3 is_stmt 1 view .LVU152
 425:Middlewares/Third_Party/LwIP/src/core/ipv4/etharp.c ****   LWIP_ASSERT("netif->hwaddr_len == ETH_HWADDR_LEN", netif->hwaddr_len == ETH_HWADDR_LEN);
 553              		.loc 1 425 3 view .LVU153
 554              		.loc 1 425 3 view .LVU154
 555 000c 90F82C20 		ldrb	r2, [r0, #44]	@ zero_extendqisi2
 556              	.LVL49:
 557              		.loc 1 425 3 is_stmt 0 view .LVU155
 558 0010 062A     		cmp	r2, #6
 559 0012 3ED1     		bne	.L53
 560              	.LVL50:
 561              	.L46:
 562              		.loc 1 425 3 is_stmt 1 discriminator 3 view .LVU156
 563              		.loc 1 425 3 discriminator 3 view .LVU157
 426:Middlewares/Third_Party/LwIP/src/core/ipv4/etharp.c ****   LWIP_DEBUGF(ETHARP_DEBUG | LWIP_DBG_TRACE, ("etharp_update_arp_entry: %"U16_F".%"U16_F".%"U16_F".
 427:Middlewares/Third_Party/LwIP/src/core/ipv4/etharp.c ****               ip4_addr1_16(ipaddr), ip4_addr2_16(ipaddr), ip4_addr3_16(ipaddr), ip4_addr4_16(ipaddr
 428:Middlewares/Third_Party/LwIP/src/core/ipv4/etharp.c ****               (u16_t)ethaddr->addr[0], (u16_t)ethaddr->addr[1], (u16_t)ethaddr->addr[2],
 429:Middlewares/Third_Party/LwIP/src/core/ipv4/etharp.c ****               (u16_t)ethaddr->addr[3], (u16_t)ethaddr->addr[4], (u16_t)ethaddr->addr[5]));
 564              		.loc 1 429 90 discriminator 3 view .LVU158
 430:Middlewares/Third_Party/LwIP/src/core/ipv4/etharp.c ****   /* non-unicast address? */
 431:Middlewares/Third_Party/LwIP/src/core/ipv4/etharp.c ****   if (ip4_addr_isany(ipaddr) ||
 565              		.loc 1 431 3 discriminator 3 view .LVU159
ARM GAS  C:\Users\17832\AppData\Local\Temp\ccRMKuAU.s 			page 20


 566              		.loc 1 431 6 is_stmt 0 discriminator 3 view .LVU160
 567 0014 002C     		cmp	r4, #0
 568 0016 44D0     		beq	.L47
 569              		.loc 1 431 7 discriminator 1 view .LVU161
 570 0018 2068     		ldr	r0, [r4]
 571 001a 0028     		cmp	r0, #0
 572 001c 41D0     		beq	.L47
 432:Middlewares/Third_Party/LwIP/src/core/ipv4/etharp.c ****       ip4_addr_isbroadcast(ipaddr, netif) ||
 573              		.loc 1 432 7 discriminator 2 view .LVU162
 574 001e 2946     		mov	r1, r5
 575 0020 FFF7FEFF 		bl	ip4_addr_isbroadcast_u32
 576              	.LVL51:
 431:Middlewares/Third_Party/LwIP/src/core/ipv4/etharp.c ****       ip4_addr_isbroadcast(ipaddr, netif) ||
 577              		.loc 1 431 30 discriminator 2 view .LVU163
 578 0024 0028     		cmp	r0, #0
 579 0026 3CD1     		bne	.L47
 433:Middlewares/Third_Party/LwIP/src/core/ipv4/etharp.c ****       ip4_addr_ismulticast(ipaddr)) {
 580              		.loc 1 433 7 view .LVU164
 581 0028 2268     		ldr	r2, [r4]
 582 002a 02F0F002 		and	r2, r2, #240
 432:Middlewares/Third_Party/LwIP/src/core/ipv4/etharp.c ****       ip4_addr_isbroadcast(ipaddr, netif) ||
 583              		.loc 1 432 43 view .LVU165
 584 002e E02A     		cmp	r2, #224
 585 0030 37D0     		beq	.L47
 434:Middlewares/Third_Party/LwIP/src/core/ipv4/etharp.c ****     LWIP_DEBUGF(ETHARP_DEBUG | LWIP_DBG_TRACE, ("etharp_update_arp_entry: will not add non-unicast 
 435:Middlewares/Third_Party/LwIP/src/core/ipv4/etharp.c ****     return ERR_ARG;
 436:Middlewares/Third_Party/LwIP/src/core/ipv4/etharp.c ****   }
 437:Middlewares/Third_Party/LwIP/src/core/ipv4/etharp.c ****   /* find or create ARP entry */
 438:Middlewares/Third_Party/LwIP/src/core/ipv4/etharp.c ****   i = etharp_find_entry(ipaddr, flags, netif);
 586              		.loc 1 438 3 is_stmt 1 view .LVU166
 587              		.loc 1 438 7 is_stmt 0 view .LVU167
 588 0032 2A46     		mov	r2, r5
 589 0034 3946     		mov	r1, r7
 590 0036 2046     		mov	r0, r4
 591 0038 FFF7FEFF 		bl	etharp_find_entry
 592              	.LVL52:
 439:Middlewares/Third_Party/LwIP/src/core/ipv4/etharp.c ****   /* bail out if no entry could be found */
 440:Middlewares/Third_Party/LwIP/src/core/ipv4/etharp.c ****   if (i < 0) {
 593              		.loc 1 440 3 is_stmt 1 view .LVU168
 594              		.loc 1 440 6 is_stmt 0 view .LVU169
 595 003c B0F1000C 		subs	ip, r0, #0
 596 0040 32DB     		blt	.L54
 441:Middlewares/Third_Party/LwIP/src/core/ipv4/etharp.c ****     return (err_t)i;
 442:Middlewares/Third_Party/LwIP/src/core/ipv4/etharp.c ****   }
 443:Middlewares/Third_Party/LwIP/src/core/ipv4/etharp.c **** 
 444:Middlewares/Third_Party/LwIP/src/core/ipv4/etharp.c **** #if ETHARP_SUPPORT_STATIC_ENTRIES
 445:Middlewares/Third_Party/LwIP/src/core/ipv4/etharp.c ****   if (flags & ETHARP_FLAG_STATIC_ENTRY) {
 446:Middlewares/Third_Party/LwIP/src/core/ipv4/etharp.c ****     /* record static type */
 447:Middlewares/Third_Party/LwIP/src/core/ipv4/etharp.c ****     arp_table[i].state = ETHARP_STATE_STATIC;
 448:Middlewares/Third_Party/LwIP/src/core/ipv4/etharp.c ****   } else if (arp_table[i].state == ETHARP_STATE_STATIC) {
 449:Middlewares/Third_Party/LwIP/src/core/ipv4/etharp.c ****     /* found entry is a static type, don't overwrite it */
 450:Middlewares/Third_Party/LwIP/src/core/ipv4/etharp.c ****     return ERR_VAL;
 451:Middlewares/Third_Party/LwIP/src/core/ipv4/etharp.c ****   } else
 452:Middlewares/Third_Party/LwIP/src/core/ipv4/etharp.c **** #endif /* ETHARP_SUPPORT_STATIC_ENTRIES */
 453:Middlewares/Third_Party/LwIP/src/core/ipv4/etharp.c ****   {
 454:Middlewares/Third_Party/LwIP/src/core/ipv4/etharp.c ****     /* mark it stable */
 455:Middlewares/Third_Party/LwIP/src/core/ipv4/etharp.c ****     arp_table[i].state = ETHARP_STATE_STABLE;
ARM GAS  C:\Users\17832\AppData\Local\Temp\ccRMKuAU.s 			page 21


 597              		.loc 1 455 5 is_stmt 1 view .LVU170
 598              		.loc 1 455 24 is_stmt 0 view .LVU171
 599 0042 1C4B     		ldr	r3, .L55
 600 0044 0CEB4C00 		add	r0, ip, ip, lsl #1
 601              	.LVL53:
 602              		.loc 1 455 24 view .LVU172
 603 0048 03EBC002 		add	r2, r3, r0, lsl #3
 604 004c 0221     		movs	r1, #2
 605 004e 1175     		strb	r1, [r2, #20]
 456:Middlewares/Third_Party/LwIP/src/core/ipv4/etharp.c ****   }
 457:Middlewares/Third_Party/LwIP/src/core/ipv4/etharp.c **** 
 458:Middlewares/Third_Party/LwIP/src/core/ipv4/etharp.c ****   /* record network interface */
 459:Middlewares/Third_Party/LwIP/src/core/ipv4/etharp.c ****   arp_table[i].netif = netif;
 606              		.loc 1 459 3 is_stmt 1 view .LVU173
 607              		.loc 1 459 22 is_stmt 0 view .LVU174
 608 0050 9560     		str	r5, [r2, #8]
 460:Middlewares/Third_Party/LwIP/src/core/ipv4/etharp.c ****   /* insert in SNMP ARP index tree */
 461:Middlewares/Third_Party/LwIP/src/core/ipv4/etharp.c ****   mib2_add_arp_entry(netif, &arp_table[i].ipaddr);
 609              		.loc 1 461 50 is_stmt 1 view .LVU175
 462:Middlewares/Third_Party/LwIP/src/core/ipv4/etharp.c **** 
 463:Middlewares/Third_Party/LwIP/src/core/ipv4/etharp.c ****   LWIP_DEBUGF(ETHARP_DEBUG | LWIP_DBG_TRACE, ("etharp_update_arp_entry: updating stable entry %"S16
 610              		.loc 1 463 111 view .LVU176
 464:Middlewares/Third_Party/LwIP/src/core/ipv4/etharp.c ****   /* update address */
 465:Middlewares/Third_Party/LwIP/src/core/ipv4/etharp.c ****   SMEMCPY(&arp_table[i].ethaddr, ethaddr, ETH_HWADDR_LEN);
 611              		.loc 1 465 3 view .LVU177
 612 0052 C100     		lsls	r1, r0, #3
 613 0054 0831     		adds	r1, r1, #8
 614 0056 1944     		add	r1, r1, r3
 615 0058 3468     		ldr	r4, [r6]	@ unaligned
 616              	.LVL54:
 617              		.loc 1 465 3 is_stmt 0 view .LVU178
 618 005a 4C60     		str	r4, [r1, #4]	@ unaligned
 619 005c B488     		ldrh	r4, [r6, #4]	@ unaligned
 620 005e 0C81     		strh	r4, [r1, #8]	@ unaligned
 466:Middlewares/Third_Party/LwIP/src/core/ipv4/etharp.c ****   /* reset time stamp */
 467:Middlewares/Third_Party/LwIP/src/core/ipv4/etharp.c ****   arp_table[i].ctime = 0;
 621              		.loc 1 467 3 is_stmt 1 view .LVU179
 622              		.loc 1 467 22 is_stmt 0 view .LVU180
 623 0060 0021     		movs	r1, #0
 624 0062 5182     		strh	r1, [r2, #18]	@ movhi
 468:Middlewares/Third_Party/LwIP/src/core/ipv4/etharp.c ****   /* this is where we will send out queued packets! */
 469:Middlewares/Third_Party/LwIP/src/core/ipv4/etharp.c **** #if ARP_QUEUEING
 470:Middlewares/Third_Party/LwIP/src/core/ipv4/etharp.c ****   while (arp_table[i].q != NULL) {
 471:Middlewares/Third_Party/LwIP/src/core/ipv4/etharp.c ****     struct pbuf *p;
 472:Middlewares/Third_Party/LwIP/src/core/ipv4/etharp.c ****     /* remember remainder of queue */
 473:Middlewares/Third_Party/LwIP/src/core/ipv4/etharp.c ****     struct etharp_q_entry *q = arp_table[i].q;
 474:Middlewares/Third_Party/LwIP/src/core/ipv4/etharp.c ****     /* pop first item off the queue */
 475:Middlewares/Third_Party/LwIP/src/core/ipv4/etharp.c ****     arp_table[i].q = q->next;
 476:Middlewares/Third_Party/LwIP/src/core/ipv4/etharp.c ****     /* get the packet pointer */
 477:Middlewares/Third_Party/LwIP/src/core/ipv4/etharp.c ****     p = q->p;
 478:Middlewares/Third_Party/LwIP/src/core/ipv4/etharp.c ****     /* now queue entry can be freed */
 479:Middlewares/Third_Party/LwIP/src/core/ipv4/etharp.c ****     memp_free(MEMP_ARP_QUEUE, q);
 480:Middlewares/Third_Party/LwIP/src/core/ipv4/etharp.c **** #else /* ARP_QUEUEING */
 481:Middlewares/Third_Party/LwIP/src/core/ipv4/etharp.c ****   if (arp_table[i].q != NULL) {
 625              		.loc 1 481 3 is_stmt 1 view .LVU181
 626              		.loc 1 481 19 is_stmt 0 view .LVU182
 627 0064 53F83070 		ldr	r7, [r3, r0, lsl #3]
ARM GAS  C:\Users\17832\AppData\Local\Temp\ccRMKuAU.s 			page 22


 628              		.loc 1 481 6 view .LVU183
 629 0068 17B3     		cbz	r7, .L51
 630              	.LBB5:
 482:Middlewares/Third_Party/LwIP/src/core/ipv4/etharp.c ****     struct pbuf *p = arp_table[i].q;
 631              		.loc 1 482 5 is_stmt 1 view .LVU184
 632              	.LVL55:
 483:Middlewares/Third_Party/LwIP/src/core/ipv4/etharp.c ****     arp_table[i].q = NULL;
 633              		.loc 1 483 5 view .LVU185
 634              		.loc 1 483 20 is_stmt 0 view .LVU186
 635 006a 4FEAC00C 		lsl	ip, r0, #3
 636 006e 0C46     		mov	r4, r1
 637 0070 43F80C10 		str	r1, [r3, ip]
 484:Middlewares/Third_Party/LwIP/src/core/ipv4/etharp.c **** #endif /* ARP_QUEUEING */
 485:Middlewares/Third_Party/LwIP/src/core/ipv4/etharp.c ****     /* send the queued IP packet */
 486:Middlewares/Third_Party/LwIP/src/core/ipv4/etharp.c ****     ethernet_output(netif, p, (struct eth_addr *)(netif->hwaddr), ethaddr, ETHTYPE_IP);
 638              		.loc 1 486 5 is_stmt 1 view .LVU187
 639 0074 4FF40063 		mov	r3, #2048
 640 0078 0093     		str	r3, [sp]
 641 007a 3346     		mov	r3, r6
 642 007c 05F12602 		add	r2, r5, #38
 643 0080 3946     		mov	r1, r7
 644 0082 2846     		mov	r0, r5
 645 0084 FFF7FEFF 		bl	ethernet_output
 646              	.LVL56:
 487:Middlewares/Third_Party/LwIP/src/core/ipv4/etharp.c ****     /* free the queued IP packet */
 488:Middlewares/Third_Party/LwIP/src/core/ipv4/etharp.c ****     pbuf_free(p);
 647              		.loc 1 488 5 view .LVU188
 648 0088 3846     		mov	r0, r7
 649 008a FFF7FEFF 		bl	pbuf_free
 650              	.LVL57:
 651              	.LBE5:
 489:Middlewares/Third_Party/LwIP/src/core/ipv4/etharp.c ****   }
 490:Middlewares/Third_Party/LwIP/src/core/ipv4/etharp.c ****   return ERR_OK;
 652              		.loc 1 490 10 is_stmt 0 view .LVU189
 653 008e 2046     		mov	r0, r4
 654 0090 0CE0     		b	.L49
 655              	.LVL58:
 656              	.L53:
 425:Middlewares/Third_Party/LwIP/src/core/ipv4/etharp.c ****   LWIP_DEBUGF(ETHARP_DEBUG | LWIP_DBG_TRACE, ("etharp_update_arp_entry: %"U16_F".%"U16_F".%"U16_F".
 657              		.loc 1 425 3 is_stmt 1 discriminator 1 view .LVU190
 425:Middlewares/Third_Party/LwIP/src/core/ipv4/etharp.c ****   LWIP_DEBUGF(ETHARP_DEBUG | LWIP_DBG_TRACE, ("etharp_update_arp_entry: %"U16_F".%"U16_F".%"U16_F".
 658              		.loc 1 425 3 discriminator 1 view .LVU191
 659 0092 094B     		ldr	r3, .L55+4
 660              	.LVL59:
 425:Middlewares/Third_Party/LwIP/src/core/ipv4/etharp.c ****   LWIP_DEBUGF(ETHARP_DEBUG | LWIP_DBG_TRACE, ("etharp_update_arp_entry: %"U16_F".%"U16_F".%"U16_F".
 661              		.loc 1 425 3 is_stmt 0 discriminator 1 view .LVU192
 662 0094 40F2A912 		movw	r2, #425
 663 0098 0849     		ldr	r1, .L55+8
 664              	.LVL60:
 425:Middlewares/Third_Party/LwIP/src/core/ipv4/etharp.c ****   LWIP_DEBUGF(ETHARP_DEBUG | LWIP_DBG_TRACE, ("etharp_update_arp_entry: %"U16_F".%"U16_F".%"U16_F".
 665              		.loc 1 425 3 discriminator 1 view .LVU193
 666 009a 0948     		ldr	r0, .L55+12
 667              	.LVL61:
 425:Middlewares/Third_Party/LwIP/src/core/ipv4/etharp.c ****   LWIP_DEBUGF(ETHARP_DEBUG | LWIP_DBG_TRACE, ("etharp_update_arp_entry: %"U16_F".%"U16_F".%"U16_F".
 668              		.loc 1 425 3 discriminator 1 view .LVU194
 669 009c FFF7FEFF 		bl	printf
 670              	.LVL62:
ARM GAS  C:\Users\17832\AppData\Local\Temp\ccRMKuAU.s 			page 23


 671 00a0 B8E7     		b	.L46
 672              	.L47:
 434:Middlewares/Third_Party/LwIP/src/core/ipv4/etharp.c ****     return ERR_ARG;
 673              		.loc 1 434 128 is_stmt 1 view .LVU195
 435:Middlewares/Third_Party/LwIP/src/core/ipv4/etharp.c ****   }
 674              		.loc 1 435 5 view .LVU196
 435:Middlewares/Third_Party/LwIP/src/core/ipv4/etharp.c ****   }
 675              		.loc 1 435 12 is_stmt 0 view .LVU197
 676 00a2 6FF00F00 		mvn	r0, #15
 677 00a6 01E0     		b	.L49
 678              	.LVL63:
 679              	.L54:
 441:Middlewares/Third_Party/LwIP/src/core/ipv4/etharp.c ****   }
 680              		.loc 1 441 5 is_stmt 1 view .LVU198
 441:Middlewares/Third_Party/LwIP/src/core/ipv4/etharp.c ****   }
 681              		.loc 1 441 12 is_stmt 0 view .LVU199
 682 00a8 4FFA8CF0 		sxtb	r0, ip
 683              	.LVL64:
 684              	.L49:
 491:Middlewares/Third_Party/LwIP/src/core/ipv4/etharp.c **** }
 685              		.loc 1 491 1 view .LVU200
 686 00ac 03B0     		add	sp, sp, #12
 687              	.LCFI7:
 688              		.cfi_remember_state
 689              		.cfi_def_cfa_offset 20
 690              		@ sp needed
 691 00ae F0BD     		pop	{r4, r5, r6, r7, pc}
 692              	.LVL65:
 693              	.L51:
 694              	.LCFI8:
 695              		.cfi_restore_state
 490:Middlewares/Third_Party/LwIP/src/core/ipv4/etharp.c **** }
 696              		.loc 1 490 10 view .LVU201
 697 00b0 0020     		movs	r0, #0
 698 00b2 FBE7     		b	.L49
 699              	.L56:
 700              		.align	2
 701              	.L55:
 702 00b4 00000000 		.word	.LANCHOR0
 703 00b8 00000000 		.word	.LC0
 704 00bc 00000000 		.word	.LC5
 705 00c0 4C000000 		.word	.LC2
 706              		.cfi_endproc
 707              	.LFE159:
 709              		.section	.rodata.etharp_raw.str1.4,"aMS",%progbits,1
 710              		.align	2
 711              	.LC6:
 712 0000 6E657469 		.ascii	"netif != NULL\000"
 712      6620213D 
 712      204E554C 
 712      4C00
 713 000e 0000     		.align	2
 714              	.LC7:
 715 0010 63686563 		.ascii	"check that first pbuf can hold struct etharp_hdr\000"
 715      6B207468 
 715      61742066 
 715      69727374 
ARM GAS  C:\Users\17832\AppData\Local\Temp\ccRMKuAU.s 			page 24


 715      20706275 
 716 0041 000000   		.align	2
 717              	.LC8:
 718 0044 6E657469 		.ascii	"netif->hwaddr_len must be the same as ETH_HWADDR_LE"
 718      662D3E68 
 718      77616464 
 718      725F6C65 
 718      6E206D75 
 719 0077 4E20666F 		.ascii	"N for etharp!\000"
 719      72206574 
 719      68617270 
 719      2100
 720              		.section	.text.etharp_raw,"ax",%progbits
 721              		.align	1
 722              		.syntax unified
 723              		.thumb
 724              		.thumb_func
 726              	etharp_raw:
 727              	.LVL66:
 728              	.LFB167:
 492:Middlewares/Third_Party/LwIP/src/core/ipv4/etharp.c **** 
 493:Middlewares/Third_Party/LwIP/src/core/ipv4/etharp.c **** #if ETHARP_SUPPORT_STATIC_ENTRIES
 494:Middlewares/Third_Party/LwIP/src/core/ipv4/etharp.c **** /** Add a new static entry to the ARP table. If an entry exists for the
 495:Middlewares/Third_Party/LwIP/src/core/ipv4/etharp.c ****  * specified IP address, this entry is overwritten.
 496:Middlewares/Third_Party/LwIP/src/core/ipv4/etharp.c ****  * If packets are queued for the specified IP address, they are sent out.
 497:Middlewares/Third_Party/LwIP/src/core/ipv4/etharp.c ****  *
 498:Middlewares/Third_Party/LwIP/src/core/ipv4/etharp.c ****  * @param ipaddr IP address for the new static entry
 499:Middlewares/Third_Party/LwIP/src/core/ipv4/etharp.c ****  * @param ethaddr ethernet address for the new static entry
 500:Middlewares/Third_Party/LwIP/src/core/ipv4/etharp.c ****  * @return See return values of etharp_add_static_entry
 501:Middlewares/Third_Party/LwIP/src/core/ipv4/etharp.c ****  */
 502:Middlewares/Third_Party/LwIP/src/core/ipv4/etharp.c **** err_t
 503:Middlewares/Third_Party/LwIP/src/core/ipv4/etharp.c **** etharp_add_static_entry(const ip4_addr_t *ipaddr, struct eth_addr *ethaddr)
 504:Middlewares/Third_Party/LwIP/src/core/ipv4/etharp.c **** {
 505:Middlewares/Third_Party/LwIP/src/core/ipv4/etharp.c ****   struct netif *netif;
 506:Middlewares/Third_Party/LwIP/src/core/ipv4/etharp.c ****   LWIP_ASSERT_CORE_LOCKED();
 507:Middlewares/Third_Party/LwIP/src/core/ipv4/etharp.c ****   LWIP_DEBUGF(ETHARP_DEBUG | LWIP_DBG_TRACE, ("etharp_add_static_entry: %"U16_F".%"U16_F".%"U16_F".
 508:Middlewares/Third_Party/LwIP/src/core/ipv4/etharp.c ****               ip4_addr1_16(ipaddr), ip4_addr2_16(ipaddr), ip4_addr3_16(ipaddr), ip4_addr4_16(ipaddr
 509:Middlewares/Third_Party/LwIP/src/core/ipv4/etharp.c ****               (u16_t)ethaddr->addr[0], (u16_t)ethaddr->addr[1], (u16_t)ethaddr->addr[2],
 510:Middlewares/Third_Party/LwIP/src/core/ipv4/etharp.c ****               (u16_t)ethaddr->addr[3], (u16_t)ethaddr->addr[4], (u16_t)ethaddr->addr[5]));
 511:Middlewares/Third_Party/LwIP/src/core/ipv4/etharp.c **** 
 512:Middlewares/Third_Party/LwIP/src/core/ipv4/etharp.c ****   netif = ip4_route(ipaddr);
 513:Middlewares/Third_Party/LwIP/src/core/ipv4/etharp.c ****   if (netif == NULL) {
 514:Middlewares/Third_Party/LwIP/src/core/ipv4/etharp.c ****     return ERR_RTE;
 515:Middlewares/Third_Party/LwIP/src/core/ipv4/etharp.c ****   }
 516:Middlewares/Third_Party/LwIP/src/core/ipv4/etharp.c **** 
 517:Middlewares/Third_Party/LwIP/src/core/ipv4/etharp.c ****   return etharp_update_arp_entry(netif, ipaddr, ethaddr, ETHARP_FLAG_TRY_HARD | ETHARP_FLAG_STATIC_
 518:Middlewares/Third_Party/LwIP/src/core/ipv4/etharp.c **** }
 519:Middlewares/Third_Party/LwIP/src/core/ipv4/etharp.c **** 
 520:Middlewares/Third_Party/LwIP/src/core/ipv4/etharp.c **** /** Remove a static entry from the ARP table previously added with a call to
 521:Middlewares/Third_Party/LwIP/src/core/ipv4/etharp.c ****  * etharp_add_static_entry.
 522:Middlewares/Third_Party/LwIP/src/core/ipv4/etharp.c ****  *
 523:Middlewares/Third_Party/LwIP/src/core/ipv4/etharp.c ****  * @param ipaddr IP address of the static entry to remove
 524:Middlewares/Third_Party/LwIP/src/core/ipv4/etharp.c ****  * @return ERR_OK: entry removed
 525:Middlewares/Third_Party/LwIP/src/core/ipv4/etharp.c ****  *         ERR_MEM: entry wasn't found
 526:Middlewares/Third_Party/LwIP/src/core/ipv4/etharp.c ****  *         ERR_ARG: entry wasn't a static entry but a dynamic one
 527:Middlewares/Third_Party/LwIP/src/core/ipv4/etharp.c ****  */
 528:Middlewares/Third_Party/LwIP/src/core/ipv4/etharp.c **** err_t
ARM GAS  C:\Users\17832\AppData\Local\Temp\ccRMKuAU.s 			page 25


 529:Middlewares/Third_Party/LwIP/src/core/ipv4/etharp.c **** etharp_remove_static_entry(const ip4_addr_t *ipaddr)
 530:Middlewares/Third_Party/LwIP/src/core/ipv4/etharp.c **** {
 531:Middlewares/Third_Party/LwIP/src/core/ipv4/etharp.c ****   s16_t i;
 532:Middlewares/Third_Party/LwIP/src/core/ipv4/etharp.c ****   LWIP_ASSERT_CORE_LOCKED();
 533:Middlewares/Third_Party/LwIP/src/core/ipv4/etharp.c ****   LWIP_DEBUGF(ETHARP_DEBUG | LWIP_DBG_TRACE, ("etharp_remove_static_entry: %"U16_F".%"U16_F".%"U16_
 534:Middlewares/Third_Party/LwIP/src/core/ipv4/etharp.c ****               ip4_addr1_16(ipaddr), ip4_addr2_16(ipaddr), ip4_addr3_16(ipaddr), ip4_addr4_16(ipaddr
 535:Middlewares/Third_Party/LwIP/src/core/ipv4/etharp.c **** 
 536:Middlewares/Third_Party/LwIP/src/core/ipv4/etharp.c ****   /* find or create ARP entry */
 537:Middlewares/Third_Party/LwIP/src/core/ipv4/etharp.c ****   i = etharp_find_entry(ipaddr, ETHARP_FLAG_FIND_ONLY, NULL);
 538:Middlewares/Third_Party/LwIP/src/core/ipv4/etharp.c ****   /* bail out if no entry could be found */
 539:Middlewares/Third_Party/LwIP/src/core/ipv4/etharp.c ****   if (i < 0) {
 540:Middlewares/Third_Party/LwIP/src/core/ipv4/etharp.c ****     return (err_t)i;
 541:Middlewares/Third_Party/LwIP/src/core/ipv4/etharp.c ****   }
 542:Middlewares/Third_Party/LwIP/src/core/ipv4/etharp.c **** 
 543:Middlewares/Third_Party/LwIP/src/core/ipv4/etharp.c ****   if (arp_table[i].state != ETHARP_STATE_STATIC) {
 544:Middlewares/Third_Party/LwIP/src/core/ipv4/etharp.c ****     /* entry wasn't a static entry, cannot remove it */
 545:Middlewares/Third_Party/LwIP/src/core/ipv4/etharp.c ****     return ERR_ARG;
 546:Middlewares/Third_Party/LwIP/src/core/ipv4/etharp.c ****   }
 547:Middlewares/Third_Party/LwIP/src/core/ipv4/etharp.c ****   /* entry found, free it */
 548:Middlewares/Third_Party/LwIP/src/core/ipv4/etharp.c ****   etharp_free_entry(i);
 549:Middlewares/Third_Party/LwIP/src/core/ipv4/etharp.c ****   return ERR_OK;
 550:Middlewares/Third_Party/LwIP/src/core/ipv4/etharp.c **** }
 551:Middlewares/Third_Party/LwIP/src/core/ipv4/etharp.c **** #endif /* ETHARP_SUPPORT_STATIC_ENTRIES */
 552:Middlewares/Third_Party/LwIP/src/core/ipv4/etharp.c **** 
 553:Middlewares/Third_Party/LwIP/src/core/ipv4/etharp.c **** /**
 554:Middlewares/Third_Party/LwIP/src/core/ipv4/etharp.c ****  * Remove all ARP table entries of the specified netif.
 555:Middlewares/Third_Party/LwIP/src/core/ipv4/etharp.c ****  *
 556:Middlewares/Third_Party/LwIP/src/core/ipv4/etharp.c ****  * @param netif points to a network interface
 557:Middlewares/Third_Party/LwIP/src/core/ipv4/etharp.c ****  */
 558:Middlewares/Third_Party/LwIP/src/core/ipv4/etharp.c **** void
 559:Middlewares/Third_Party/LwIP/src/core/ipv4/etharp.c **** etharp_cleanup_netif(struct netif *netif)
 560:Middlewares/Third_Party/LwIP/src/core/ipv4/etharp.c **** {
 561:Middlewares/Third_Party/LwIP/src/core/ipv4/etharp.c ****   int i;
 562:Middlewares/Third_Party/LwIP/src/core/ipv4/etharp.c **** 
 563:Middlewares/Third_Party/LwIP/src/core/ipv4/etharp.c ****   for (i = 0; i < ARP_TABLE_SIZE; ++i) {
 564:Middlewares/Third_Party/LwIP/src/core/ipv4/etharp.c ****     u8_t state = arp_table[i].state;
 565:Middlewares/Third_Party/LwIP/src/core/ipv4/etharp.c ****     if ((state != ETHARP_STATE_EMPTY) && (arp_table[i].netif == netif)) {
 566:Middlewares/Third_Party/LwIP/src/core/ipv4/etharp.c ****       etharp_free_entry(i);
 567:Middlewares/Third_Party/LwIP/src/core/ipv4/etharp.c ****     }
 568:Middlewares/Third_Party/LwIP/src/core/ipv4/etharp.c ****   }
 569:Middlewares/Third_Party/LwIP/src/core/ipv4/etharp.c **** }
 570:Middlewares/Third_Party/LwIP/src/core/ipv4/etharp.c **** 
 571:Middlewares/Third_Party/LwIP/src/core/ipv4/etharp.c **** /**
 572:Middlewares/Third_Party/LwIP/src/core/ipv4/etharp.c ****  * Finds (stable) ethernet/IP address pair from ARP table
 573:Middlewares/Third_Party/LwIP/src/core/ipv4/etharp.c ****  * using interface and IP address index.
 574:Middlewares/Third_Party/LwIP/src/core/ipv4/etharp.c ****  * @note the addresses in the ARP table are in network order!
 575:Middlewares/Third_Party/LwIP/src/core/ipv4/etharp.c ****  *
 576:Middlewares/Third_Party/LwIP/src/core/ipv4/etharp.c ****  * @param netif points to interface index
 577:Middlewares/Third_Party/LwIP/src/core/ipv4/etharp.c ****  * @param ipaddr points to the (network order) IP address index
 578:Middlewares/Third_Party/LwIP/src/core/ipv4/etharp.c ****  * @param eth_ret points to return pointer
 579:Middlewares/Third_Party/LwIP/src/core/ipv4/etharp.c ****  * @param ip_ret points to return pointer
 580:Middlewares/Third_Party/LwIP/src/core/ipv4/etharp.c ****  * @return table index if found, -1 otherwise
 581:Middlewares/Third_Party/LwIP/src/core/ipv4/etharp.c ****  */
 582:Middlewares/Third_Party/LwIP/src/core/ipv4/etharp.c **** ssize_t
 583:Middlewares/Third_Party/LwIP/src/core/ipv4/etharp.c **** etharp_find_addr(struct netif *netif, const ip4_addr_t *ipaddr,
 584:Middlewares/Third_Party/LwIP/src/core/ipv4/etharp.c ****                  struct eth_addr **eth_ret, const ip4_addr_t **ip_ret)
 585:Middlewares/Third_Party/LwIP/src/core/ipv4/etharp.c **** {
ARM GAS  C:\Users\17832\AppData\Local\Temp\ccRMKuAU.s 			page 26


 586:Middlewares/Third_Party/LwIP/src/core/ipv4/etharp.c ****   s16_t i;
 587:Middlewares/Third_Party/LwIP/src/core/ipv4/etharp.c **** 
 588:Middlewares/Third_Party/LwIP/src/core/ipv4/etharp.c ****   LWIP_ASSERT("eth_ret != NULL && ip_ret != NULL",
 589:Middlewares/Third_Party/LwIP/src/core/ipv4/etharp.c ****               eth_ret != NULL && ip_ret != NULL);
 590:Middlewares/Third_Party/LwIP/src/core/ipv4/etharp.c **** 
 591:Middlewares/Third_Party/LwIP/src/core/ipv4/etharp.c ****   LWIP_UNUSED_ARG(netif);
 592:Middlewares/Third_Party/LwIP/src/core/ipv4/etharp.c **** 
 593:Middlewares/Third_Party/LwIP/src/core/ipv4/etharp.c ****   i = etharp_find_entry(ipaddr, ETHARP_FLAG_FIND_ONLY, netif);
 594:Middlewares/Third_Party/LwIP/src/core/ipv4/etharp.c ****   if ((i >= 0) && (arp_table[i].state >= ETHARP_STATE_STABLE)) {
 595:Middlewares/Third_Party/LwIP/src/core/ipv4/etharp.c ****     *eth_ret = &arp_table[i].ethaddr;
 596:Middlewares/Third_Party/LwIP/src/core/ipv4/etharp.c ****     *ip_ret = &arp_table[i].ipaddr;
 597:Middlewares/Third_Party/LwIP/src/core/ipv4/etharp.c ****     return i;
 598:Middlewares/Third_Party/LwIP/src/core/ipv4/etharp.c ****   }
 599:Middlewares/Third_Party/LwIP/src/core/ipv4/etharp.c ****   return -1;
 600:Middlewares/Third_Party/LwIP/src/core/ipv4/etharp.c **** }
 601:Middlewares/Third_Party/LwIP/src/core/ipv4/etharp.c **** 
 602:Middlewares/Third_Party/LwIP/src/core/ipv4/etharp.c **** /**
 603:Middlewares/Third_Party/LwIP/src/core/ipv4/etharp.c ****  * Possibility to iterate over stable ARP table entries
 604:Middlewares/Third_Party/LwIP/src/core/ipv4/etharp.c ****  *
 605:Middlewares/Third_Party/LwIP/src/core/ipv4/etharp.c ****  * @param i entry number, 0 to ARP_TABLE_SIZE
 606:Middlewares/Third_Party/LwIP/src/core/ipv4/etharp.c ****  * @param ipaddr return value: IP address
 607:Middlewares/Third_Party/LwIP/src/core/ipv4/etharp.c ****  * @param netif return value: points to interface
 608:Middlewares/Third_Party/LwIP/src/core/ipv4/etharp.c ****  * @param eth_ret return value: ETH address
 609:Middlewares/Third_Party/LwIP/src/core/ipv4/etharp.c ****  * @return 1 on valid index, 0 otherwise
 610:Middlewares/Third_Party/LwIP/src/core/ipv4/etharp.c ****  */
 611:Middlewares/Third_Party/LwIP/src/core/ipv4/etharp.c **** int
 612:Middlewares/Third_Party/LwIP/src/core/ipv4/etharp.c **** etharp_get_entry(size_t i, ip4_addr_t **ipaddr, struct netif **netif, struct eth_addr **eth_ret)
 613:Middlewares/Third_Party/LwIP/src/core/ipv4/etharp.c **** {
 614:Middlewares/Third_Party/LwIP/src/core/ipv4/etharp.c ****   LWIP_ASSERT("ipaddr != NULL", ipaddr != NULL);
 615:Middlewares/Third_Party/LwIP/src/core/ipv4/etharp.c ****   LWIP_ASSERT("netif != NULL", netif != NULL);
 616:Middlewares/Third_Party/LwIP/src/core/ipv4/etharp.c ****   LWIP_ASSERT("eth_ret != NULL", eth_ret != NULL);
 617:Middlewares/Third_Party/LwIP/src/core/ipv4/etharp.c **** 
 618:Middlewares/Third_Party/LwIP/src/core/ipv4/etharp.c ****   if ((i < ARP_TABLE_SIZE) && (arp_table[i].state >= ETHARP_STATE_STABLE)) {
 619:Middlewares/Third_Party/LwIP/src/core/ipv4/etharp.c ****     *ipaddr  = &arp_table[i].ipaddr;
 620:Middlewares/Third_Party/LwIP/src/core/ipv4/etharp.c ****     *netif   = arp_table[i].netif;
 621:Middlewares/Third_Party/LwIP/src/core/ipv4/etharp.c ****     *eth_ret = &arp_table[i].ethaddr;
 622:Middlewares/Third_Party/LwIP/src/core/ipv4/etharp.c ****     return 1;
 623:Middlewares/Third_Party/LwIP/src/core/ipv4/etharp.c ****   } else {
 624:Middlewares/Third_Party/LwIP/src/core/ipv4/etharp.c ****     return 0;
 625:Middlewares/Third_Party/LwIP/src/core/ipv4/etharp.c ****   }
 626:Middlewares/Third_Party/LwIP/src/core/ipv4/etharp.c **** }
 627:Middlewares/Third_Party/LwIP/src/core/ipv4/etharp.c **** 
 628:Middlewares/Third_Party/LwIP/src/core/ipv4/etharp.c **** /**
 629:Middlewares/Third_Party/LwIP/src/core/ipv4/etharp.c ****  * Responds to ARP requests to us. Upon ARP replies to us, add entry to cache
 630:Middlewares/Third_Party/LwIP/src/core/ipv4/etharp.c ****  * send out queued IP packets. Updates cache with snooped address pairs.
 631:Middlewares/Third_Party/LwIP/src/core/ipv4/etharp.c ****  *
 632:Middlewares/Third_Party/LwIP/src/core/ipv4/etharp.c ****  * Should be called for incoming ARP packets. The pbuf in the argument
 633:Middlewares/Third_Party/LwIP/src/core/ipv4/etharp.c ****  * is freed by this function.
 634:Middlewares/Third_Party/LwIP/src/core/ipv4/etharp.c ****  *
 635:Middlewares/Third_Party/LwIP/src/core/ipv4/etharp.c ****  * @param p The ARP packet that arrived on netif. Is freed by this function.
 636:Middlewares/Third_Party/LwIP/src/core/ipv4/etharp.c ****  * @param netif The lwIP network interface on which the ARP packet pbuf arrived.
 637:Middlewares/Third_Party/LwIP/src/core/ipv4/etharp.c ****  *
 638:Middlewares/Third_Party/LwIP/src/core/ipv4/etharp.c ****  * @see pbuf_free()
 639:Middlewares/Third_Party/LwIP/src/core/ipv4/etharp.c ****  */
 640:Middlewares/Third_Party/LwIP/src/core/ipv4/etharp.c **** void
 641:Middlewares/Third_Party/LwIP/src/core/ipv4/etharp.c **** etharp_input(struct pbuf *p, struct netif *netif)
 642:Middlewares/Third_Party/LwIP/src/core/ipv4/etharp.c **** {
ARM GAS  C:\Users\17832\AppData\Local\Temp\ccRMKuAU.s 			page 27


 643:Middlewares/Third_Party/LwIP/src/core/ipv4/etharp.c ****   struct etharp_hdr *hdr;
 644:Middlewares/Third_Party/LwIP/src/core/ipv4/etharp.c ****   /* these are aligned properly, whereas the ARP header fields might not be */
 645:Middlewares/Third_Party/LwIP/src/core/ipv4/etharp.c ****   ip4_addr_t sipaddr, dipaddr;
 646:Middlewares/Third_Party/LwIP/src/core/ipv4/etharp.c ****   u8_t for_us;
 647:Middlewares/Third_Party/LwIP/src/core/ipv4/etharp.c **** 
 648:Middlewares/Third_Party/LwIP/src/core/ipv4/etharp.c ****   LWIP_ASSERT_CORE_LOCKED();
 649:Middlewares/Third_Party/LwIP/src/core/ipv4/etharp.c **** 
 650:Middlewares/Third_Party/LwIP/src/core/ipv4/etharp.c ****   LWIP_ERROR("netif != NULL", (netif != NULL), return;);
 651:Middlewares/Third_Party/LwIP/src/core/ipv4/etharp.c **** 
 652:Middlewares/Third_Party/LwIP/src/core/ipv4/etharp.c ****   hdr = (struct etharp_hdr *)p->payload;
 653:Middlewares/Third_Party/LwIP/src/core/ipv4/etharp.c **** 
 654:Middlewares/Third_Party/LwIP/src/core/ipv4/etharp.c ****   /* RFC 826 "Packet Reception": */
 655:Middlewares/Third_Party/LwIP/src/core/ipv4/etharp.c ****   if ((hdr->hwtype != PP_HTONS(LWIP_IANA_HWTYPE_ETHERNET)) ||
 656:Middlewares/Third_Party/LwIP/src/core/ipv4/etharp.c ****       (hdr->hwlen != ETH_HWADDR_LEN) ||
 657:Middlewares/Third_Party/LwIP/src/core/ipv4/etharp.c ****       (hdr->protolen != sizeof(ip4_addr_t)) ||
 658:Middlewares/Third_Party/LwIP/src/core/ipv4/etharp.c ****       (hdr->proto != PP_HTONS(ETHTYPE_IP)))  {
 659:Middlewares/Third_Party/LwIP/src/core/ipv4/etharp.c ****     LWIP_DEBUGF(ETHARP_DEBUG | LWIP_DBG_TRACE | LWIP_DBG_LEVEL_WARNING,
 660:Middlewares/Third_Party/LwIP/src/core/ipv4/etharp.c ****                 ("etharp_input: packet dropped, wrong hw type, hwlen, proto, protolen or ethernet t
 661:Middlewares/Third_Party/LwIP/src/core/ipv4/etharp.c ****                  hdr->hwtype, (u16_t)hdr->hwlen, hdr->proto, (u16_t)hdr->protolen));
 662:Middlewares/Third_Party/LwIP/src/core/ipv4/etharp.c ****     ETHARP_STATS_INC(etharp.proterr);
 663:Middlewares/Third_Party/LwIP/src/core/ipv4/etharp.c ****     ETHARP_STATS_INC(etharp.drop);
 664:Middlewares/Third_Party/LwIP/src/core/ipv4/etharp.c ****     pbuf_free(p);
 665:Middlewares/Third_Party/LwIP/src/core/ipv4/etharp.c ****     return;
 666:Middlewares/Third_Party/LwIP/src/core/ipv4/etharp.c ****   }
 667:Middlewares/Third_Party/LwIP/src/core/ipv4/etharp.c ****   ETHARP_STATS_INC(etharp.recv);
 668:Middlewares/Third_Party/LwIP/src/core/ipv4/etharp.c **** 
 669:Middlewares/Third_Party/LwIP/src/core/ipv4/etharp.c **** #if LWIP_AUTOIP
 670:Middlewares/Third_Party/LwIP/src/core/ipv4/etharp.c ****   /* We have to check if a host already has configured our random
 671:Middlewares/Third_Party/LwIP/src/core/ipv4/etharp.c ****    * created link local address and continuously check if there is
 672:Middlewares/Third_Party/LwIP/src/core/ipv4/etharp.c ****    * a host with this IP-address so we can detect collisions */
 673:Middlewares/Third_Party/LwIP/src/core/ipv4/etharp.c ****   autoip_arp_reply(netif, hdr);
 674:Middlewares/Third_Party/LwIP/src/core/ipv4/etharp.c **** #endif /* LWIP_AUTOIP */
 675:Middlewares/Third_Party/LwIP/src/core/ipv4/etharp.c **** 
 676:Middlewares/Third_Party/LwIP/src/core/ipv4/etharp.c ****   /* Copy struct ip4_addr_wordaligned to aligned ip4_addr, to support compilers without
 677:Middlewares/Third_Party/LwIP/src/core/ipv4/etharp.c ****    * structure packing (not using structure copy which breaks strict-aliasing rules). */
 678:Middlewares/Third_Party/LwIP/src/core/ipv4/etharp.c ****   IPADDR_WORDALIGNED_COPY_TO_IP4_ADDR_T(&sipaddr, &hdr->sipaddr);
 679:Middlewares/Third_Party/LwIP/src/core/ipv4/etharp.c ****   IPADDR_WORDALIGNED_COPY_TO_IP4_ADDR_T(&dipaddr, &hdr->dipaddr);
 680:Middlewares/Third_Party/LwIP/src/core/ipv4/etharp.c **** 
 681:Middlewares/Third_Party/LwIP/src/core/ipv4/etharp.c ****   /* this interface is not configured? */
 682:Middlewares/Third_Party/LwIP/src/core/ipv4/etharp.c ****   if (ip4_addr_isany_val(*netif_ip4_addr(netif))) {
 683:Middlewares/Third_Party/LwIP/src/core/ipv4/etharp.c ****     for_us = 0;
 684:Middlewares/Third_Party/LwIP/src/core/ipv4/etharp.c ****   } else {
 685:Middlewares/Third_Party/LwIP/src/core/ipv4/etharp.c ****     /* ARP packet directed to us? */
 686:Middlewares/Third_Party/LwIP/src/core/ipv4/etharp.c ****     for_us = (u8_t)ip4_addr_cmp(&dipaddr, netif_ip4_addr(netif));
 687:Middlewares/Third_Party/LwIP/src/core/ipv4/etharp.c ****   }
 688:Middlewares/Third_Party/LwIP/src/core/ipv4/etharp.c **** 
 689:Middlewares/Third_Party/LwIP/src/core/ipv4/etharp.c ****   /* ARP message directed to us?
 690:Middlewares/Third_Party/LwIP/src/core/ipv4/etharp.c ****       -> add IP address in ARP cache; assume requester wants to talk to us,
 691:Middlewares/Third_Party/LwIP/src/core/ipv4/etharp.c ****          can result in directly sending the queued packets for this host.
 692:Middlewares/Third_Party/LwIP/src/core/ipv4/etharp.c ****      ARP message not directed to us?
 693:Middlewares/Third_Party/LwIP/src/core/ipv4/etharp.c ****       ->  update the source IP address in the cache, if present */
 694:Middlewares/Third_Party/LwIP/src/core/ipv4/etharp.c ****   etharp_update_arp_entry(netif, &sipaddr, &(hdr->shwaddr),
 695:Middlewares/Third_Party/LwIP/src/core/ipv4/etharp.c ****                           for_us ? ETHARP_FLAG_TRY_HARD : ETHARP_FLAG_FIND_ONLY);
 696:Middlewares/Third_Party/LwIP/src/core/ipv4/etharp.c **** 
 697:Middlewares/Third_Party/LwIP/src/core/ipv4/etharp.c ****   /* now act on the message itself */
 698:Middlewares/Third_Party/LwIP/src/core/ipv4/etharp.c ****   switch (hdr->opcode) {
 699:Middlewares/Third_Party/LwIP/src/core/ipv4/etharp.c ****     /* ARP request? */
ARM GAS  C:\Users\17832\AppData\Local\Temp\ccRMKuAU.s 			page 28


 700:Middlewares/Third_Party/LwIP/src/core/ipv4/etharp.c ****     case PP_HTONS(ARP_REQUEST):
 701:Middlewares/Third_Party/LwIP/src/core/ipv4/etharp.c ****       /* ARP request. If it asked for our address, we send out a
 702:Middlewares/Third_Party/LwIP/src/core/ipv4/etharp.c ****        * reply. In any case, we time-stamp any existing ARP entry,
 703:Middlewares/Third_Party/LwIP/src/core/ipv4/etharp.c ****        * and possibly send out an IP packet that was queued on it. */
 704:Middlewares/Third_Party/LwIP/src/core/ipv4/etharp.c **** 
 705:Middlewares/Third_Party/LwIP/src/core/ipv4/etharp.c ****       LWIP_DEBUGF (ETHARP_DEBUG | LWIP_DBG_TRACE, ("etharp_input: incoming ARP request\n"));
 706:Middlewares/Third_Party/LwIP/src/core/ipv4/etharp.c ****       /* ARP request for our address? */
 707:Middlewares/Third_Party/LwIP/src/core/ipv4/etharp.c ****       if (for_us) {
 708:Middlewares/Third_Party/LwIP/src/core/ipv4/etharp.c ****         /* send ARP response */
 709:Middlewares/Third_Party/LwIP/src/core/ipv4/etharp.c ****         etharp_raw(netif,
 710:Middlewares/Third_Party/LwIP/src/core/ipv4/etharp.c ****                    (struct eth_addr *)netif->hwaddr, &hdr->shwaddr,
 711:Middlewares/Third_Party/LwIP/src/core/ipv4/etharp.c ****                    (struct eth_addr *)netif->hwaddr, netif_ip4_addr(netif),
 712:Middlewares/Third_Party/LwIP/src/core/ipv4/etharp.c ****                    &hdr->shwaddr, &sipaddr,
 713:Middlewares/Third_Party/LwIP/src/core/ipv4/etharp.c ****                    ARP_REPLY);
 714:Middlewares/Third_Party/LwIP/src/core/ipv4/etharp.c ****         /* we are not configured? */
 715:Middlewares/Third_Party/LwIP/src/core/ipv4/etharp.c ****       } else if (ip4_addr_isany_val(*netif_ip4_addr(netif))) {
 716:Middlewares/Third_Party/LwIP/src/core/ipv4/etharp.c ****         /* { for_us == 0 and netif->ip_addr.addr == 0 } */
 717:Middlewares/Third_Party/LwIP/src/core/ipv4/etharp.c ****         LWIP_DEBUGF(ETHARP_DEBUG | LWIP_DBG_TRACE, ("etharp_input: we are unconfigured, ARP request
 718:Middlewares/Third_Party/LwIP/src/core/ipv4/etharp.c ****         /* request was not directed to us */
 719:Middlewares/Third_Party/LwIP/src/core/ipv4/etharp.c ****       } else {
 720:Middlewares/Third_Party/LwIP/src/core/ipv4/etharp.c ****         /* { for_us == 0 and netif->ip_addr.addr != 0 } */
 721:Middlewares/Third_Party/LwIP/src/core/ipv4/etharp.c ****         LWIP_DEBUGF(ETHARP_DEBUG | LWIP_DBG_TRACE, ("etharp_input: ARP request was not for us.\n"))
 722:Middlewares/Third_Party/LwIP/src/core/ipv4/etharp.c ****       }
 723:Middlewares/Third_Party/LwIP/src/core/ipv4/etharp.c ****       break;
 724:Middlewares/Third_Party/LwIP/src/core/ipv4/etharp.c ****     case PP_HTONS(ARP_REPLY):
 725:Middlewares/Third_Party/LwIP/src/core/ipv4/etharp.c ****       /* ARP reply. We already updated the ARP cache earlier. */
 726:Middlewares/Third_Party/LwIP/src/core/ipv4/etharp.c ****       LWIP_DEBUGF(ETHARP_DEBUG | LWIP_DBG_TRACE, ("etharp_input: incoming ARP reply\n"));
 727:Middlewares/Third_Party/LwIP/src/core/ipv4/etharp.c **** #if (LWIP_DHCP && DHCP_DOES_ARP_CHECK)
 728:Middlewares/Third_Party/LwIP/src/core/ipv4/etharp.c ****       /* DHCP wants to know about ARP replies from any host with an
 729:Middlewares/Third_Party/LwIP/src/core/ipv4/etharp.c ****        * IP address also offered to us by the DHCP server. We do not
 730:Middlewares/Third_Party/LwIP/src/core/ipv4/etharp.c ****        * want to take a duplicate IP address on a single network.
 731:Middlewares/Third_Party/LwIP/src/core/ipv4/etharp.c ****        * @todo How should we handle redundant (fail-over) interfaces? */
 732:Middlewares/Third_Party/LwIP/src/core/ipv4/etharp.c ****       dhcp_arp_reply(netif, &sipaddr);
 733:Middlewares/Third_Party/LwIP/src/core/ipv4/etharp.c **** #endif /* (LWIP_DHCP && DHCP_DOES_ARP_CHECK) */
 734:Middlewares/Third_Party/LwIP/src/core/ipv4/etharp.c ****       break;
 735:Middlewares/Third_Party/LwIP/src/core/ipv4/etharp.c ****     default:
 736:Middlewares/Third_Party/LwIP/src/core/ipv4/etharp.c ****       LWIP_DEBUGF(ETHARP_DEBUG | LWIP_DBG_TRACE, ("etharp_input: ARP unknown opcode type %"S16_F"\n
 737:Middlewares/Third_Party/LwIP/src/core/ipv4/etharp.c ****       ETHARP_STATS_INC(etharp.err);
 738:Middlewares/Third_Party/LwIP/src/core/ipv4/etharp.c ****       break;
 739:Middlewares/Third_Party/LwIP/src/core/ipv4/etharp.c ****   }
 740:Middlewares/Third_Party/LwIP/src/core/ipv4/etharp.c ****   /* free ARP packet */
 741:Middlewares/Third_Party/LwIP/src/core/ipv4/etharp.c ****   pbuf_free(p);
 742:Middlewares/Third_Party/LwIP/src/core/ipv4/etharp.c **** }
 743:Middlewares/Third_Party/LwIP/src/core/ipv4/etharp.c **** 
 744:Middlewares/Third_Party/LwIP/src/core/ipv4/etharp.c **** /** Just a small helper function that sends a pbuf to an ethernet address
 745:Middlewares/Third_Party/LwIP/src/core/ipv4/etharp.c ****  * in the arp_table specified by the index 'arp_idx'.
 746:Middlewares/Third_Party/LwIP/src/core/ipv4/etharp.c ****  */
 747:Middlewares/Third_Party/LwIP/src/core/ipv4/etharp.c **** static err_t
 748:Middlewares/Third_Party/LwIP/src/core/ipv4/etharp.c **** etharp_output_to_arp_index(struct netif *netif, struct pbuf *q, netif_addr_idx_t arp_idx)
 749:Middlewares/Third_Party/LwIP/src/core/ipv4/etharp.c **** {
 750:Middlewares/Third_Party/LwIP/src/core/ipv4/etharp.c ****   LWIP_ASSERT("arp_table[arp_idx].state >= ETHARP_STATE_STABLE",
 751:Middlewares/Third_Party/LwIP/src/core/ipv4/etharp.c ****               arp_table[arp_idx].state >= ETHARP_STATE_STABLE);
 752:Middlewares/Third_Party/LwIP/src/core/ipv4/etharp.c ****   /* if arp table entry is about to expire: re-request it,
 753:Middlewares/Third_Party/LwIP/src/core/ipv4/etharp.c ****      but only if its state is ETHARP_STATE_STABLE to prevent flooding the
 754:Middlewares/Third_Party/LwIP/src/core/ipv4/etharp.c ****      network with ARP requests if this address is used frequently. */
 755:Middlewares/Third_Party/LwIP/src/core/ipv4/etharp.c ****   if (arp_table[arp_idx].state == ETHARP_STATE_STABLE) {
 756:Middlewares/Third_Party/LwIP/src/core/ipv4/etharp.c ****     if (arp_table[arp_idx].ctime >= ARP_AGE_REREQUEST_USED_BROADCAST) {
ARM GAS  C:\Users\17832\AppData\Local\Temp\ccRMKuAU.s 			page 29


 757:Middlewares/Third_Party/LwIP/src/core/ipv4/etharp.c ****       /* issue a standard request using broadcast */
 758:Middlewares/Third_Party/LwIP/src/core/ipv4/etharp.c ****       if (etharp_request(netif, &arp_table[arp_idx].ipaddr) == ERR_OK) {
 759:Middlewares/Third_Party/LwIP/src/core/ipv4/etharp.c ****         arp_table[arp_idx].state = ETHARP_STATE_STABLE_REREQUESTING_1;
 760:Middlewares/Third_Party/LwIP/src/core/ipv4/etharp.c ****       }
 761:Middlewares/Third_Party/LwIP/src/core/ipv4/etharp.c ****     } else if (arp_table[arp_idx].ctime >= ARP_AGE_REREQUEST_USED_UNICAST) {
 762:Middlewares/Third_Party/LwIP/src/core/ipv4/etharp.c ****       /* issue a unicast request (for 15 seconds) to prevent unnecessary broadcast */
 763:Middlewares/Third_Party/LwIP/src/core/ipv4/etharp.c ****       if (etharp_request_dst(netif, &arp_table[arp_idx].ipaddr, &arp_table[arp_idx].ethaddr) == ERR
 764:Middlewares/Third_Party/LwIP/src/core/ipv4/etharp.c ****         arp_table[arp_idx].state = ETHARP_STATE_STABLE_REREQUESTING_1;
 765:Middlewares/Third_Party/LwIP/src/core/ipv4/etharp.c ****       }
 766:Middlewares/Third_Party/LwIP/src/core/ipv4/etharp.c ****     }
 767:Middlewares/Third_Party/LwIP/src/core/ipv4/etharp.c ****   }
 768:Middlewares/Third_Party/LwIP/src/core/ipv4/etharp.c **** 
 769:Middlewares/Third_Party/LwIP/src/core/ipv4/etharp.c ****   return ethernet_output(netif, q, (struct eth_addr *)(netif->hwaddr), &arp_table[arp_idx].ethaddr,
 770:Middlewares/Third_Party/LwIP/src/core/ipv4/etharp.c **** }
 771:Middlewares/Third_Party/LwIP/src/core/ipv4/etharp.c **** 
 772:Middlewares/Third_Party/LwIP/src/core/ipv4/etharp.c **** /**
 773:Middlewares/Third_Party/LwIP/src/core/ipv4/etharp.c ****  * Resolve and fill-in Ethernet address header for outgoing IP packet.
 774:Middlewares/Third_Party/LwIP/src/core/ipv4/etharp.c ****  *
 775:Middlewares/Third_Party/LwIP/src/core/ipv4/etharp.c ****  * For IP multicast and broadcast, corresponding Ethernet addresses
 776:Middlewares/Third_Party/LwIP/src/core/ipv4/etharp.c ****  * are selected and the packet is transmitted on the link.
 777:Middlewares/Third_Party/LwIP/src/core/ipv4/etharp.c ****  *
 778:Middlewares/Third_Party/LwIP/src/core/ipv4/etharp.c ****  * For unicast addresses, the packet is submitted to etharp_query(). In
 779:Middlewares/Third_Party/LwIP/src/core/ipv4/etharp.c ****  * case the IP address is outside the local network, the IP address of
 780:Middlewares/Third_Party/LwIP/src/core/ipv4/etharp.c ****  * the gateway is used.
 781:Middlewares/Third_Party/LwIP/src/core/ipv4/etharp.c ****  *
 782:Middlewares/Third_Party/LwIP/src/core/ipv4/etharp.c ****  * @param netif The lwIP network interface which the IP packet will be sent on.
 783:Middlewares/Third_Party/LwIP/src/core/ipv4/etharp.c ****  * @param q The pbuf(s) containing the IP packet to be sent.
 784:Middlewares/Third_Party/LwIP/src/core/ipv4/etharp.c ****  * @param ipaddr The IP address of the packet destination.
 785:Middlewares/Third_Party/LwIP/src/core/ipv4/etharp.c ****  *
 786:Middlewares/Third_Party/LwIP/src/core/ipv4/etharp.c ****  * @return
 787:Middlewares/Third_Party/LwIP/src/core/ipv4/etharp.c ****  * - ERR_RTE No route to destination (no gateway to external networks),
 788:Middlewares/Third_Party/LwIP/src/core/ipv4/etharp.c ****  * or the return type of either etharp_query() or ethernet_output().
 789:Middlewares/Third_Party/LwIP/src/core/ipv4/etharp.c ****  */
 790:Middlewares/Third_Party/LwIP/src/core/ipv4/etharp.c **** err_t
 791:Middlewares/Third_Party/LwIP/src/core/ipv4/etharp.c **** etharp_output(struct netif *netif, struct pbuf *q, const ip4_addr_t *ipaddr)
 792:Middlewares/Third_Party/LwIP/src/core/ipv4/etharp.c **** {
 793:Middlewares/Third_Party/LwIP/src/core/ipv4/etharp.c ****   const struct eth_addr *dest;
 794:Middlewares/Third_Party/LwIP/src/core/ipv4/etharp.c ****   struct eth_addr mcastaddr;
 795:Middlewares/Third_Party/LwIP/src/core/ipv4/etharp.c ****   const ip4_addr_t *dst_addr = ipaddr;
 796:Middlewares/Third_Party/LwIP/src/core/ipv4/etharp.c **** 
 797:Middlewares/Third_Party/LwIP/src/core/ipv4/etharp.c ****   LWIP_ASSERT_CORE_LOCKED();
 798:Middlewares/Third_Party/LwIP/src/core/ipv4/etharp.c ****   LWIP_ASSERT("netif != NULL", netif != NULL);
 799:Middlewares/Third_Party/LwIP/src/core/ipv4/etharp.c ****   LWIP_ASSERT("q != NULL", q != NULL);
 800:Middlewares/Third_Party/LwIP/src/core/ipv4/etharp.c ****   LWIP_ASSERT("ipaddr != NULL", ipaddr != NULL);
 801:Middlewares/Third_Party/LwIP/src/core/ipv4/etharp.c **** 
 802:Middlewares/Third_Party/LwIP/src/core/ipv4/etharp.c ****   /* Determine on destination hardware address. Broadcasts and multicasts
 803:Middlewares/Third_Party/LwIP/src/core/ipv4/etharp.c ****    * are special, other IP addresses are looked up in the ARP table. */
 804:Middlewares/Third_Party/LwIP/src/core/ipv4/etharp.c **** 
 805:Middlewares/Third_Party/LwIP/src/core/ipv4/etharp.c ****   /* broadcast destination IP address? */
 806:Middlewares/Third_Party/LwIP/src/core/ipv4/etharp.c ****   if (ip4_addr_isbroadcast(ipaddr, netif)) {
 807:Middlewares/Third_Party/LwIP/src/core/ipv4/etharp.c ****     /* broadcast on Ethernet also */
 808:Middlewares/Third_Party/LwIP/src/core/ipv4/etharp.c ****     dest = (const struct eth_addr *)&ethbroadcast;
 809:Middlewares/Third_Party/LwIP/src/core/ipv4/etharp.c ****     /* multicast destination IP address? */
 810:Middlewares/Third_Party/LwIP/src/core/ipv4/etharp.c ****   } else if (ip4_addr_ismulticast(ipaddr)) {
 811:Middlewares/Third_Party/LwIP/src/core/ipv4/etharp.c ****     /* Hash IP multicast address to MAC address.*/
 812:Middlewares/Third_Party/LwIP/src/core/ipv4/etharp.c ****     mcastaddr.addr[0] = LL_IP4_MULTICAST_ADDR_0;
 813:Middlewares/Third_Party/LwIP/src/core/ipv4/etharp.c ****     mcastaddr.addr[1] = LL_IP4_MULTICAST_ADDR_1;
ARM GAS  C:\Users\17832\AppData\Local\Temp\ccRMKuAU.s 			page 30


 814:Middlewares/Third_Party/LwIP/src/core/ipv4/etharp.c ****     mcastaddr.addr[2] = LL_IP4_MULTICAST_ADDR_2;
 815:Middlewares/Third_Party/LwIP/src/core/ipv4/etharp.c ****     mcastaddr.addr[3] = ip4_addr2(ipaddr) & 0x7f;
 816:Middlewares/Third_Party/LwIP/src/core/ipv4/etharp.c ****     mcastaddr.addr[4] = ip4_addr3(ipaddr);
 817:Middlewares/Third_Party/LwIP/src/core/ipv4/etharp.c ****     mcastaddr.addr[5] = ip4_addr4(ipaddr);
 818:Middlewares/Third_Party/LwIP/src/core/ipv4/etharp.c ****     /* destination Ethernet address is multicast */
 819:Middlewares/Third_Party/LwIP/src/core/ipv4/etharp.c ****     dest = &mcastaddr;
 820:Middlewares/Third_Party/LwIP/src/core/ipv4/etharp.c ****     /* unicast destination IP address? */
 821:Middlewares/Third_Party/LwIP/src/core/ipv4/etharp.c ****   } else {
 822:Middlewares/Third_Party/LwIP/src/core/ipv4/etharp.c ****     netif_addr_idx_t i;
 823:Middlewares/Third_Party/LwIP/src/core/ipv4/etharp.c ****     /* outside local network? if so, this can neither be a global broadcast nor
 824:Middlewares/Third_Party/LwIP/src/core/ipv4/etharp.c ****        a subnet broadcast. */
 825:Middlewares/Third_Party/LwIP/src/core/ipv4/etharp.c ****     if (!ip4_addr_netcmp(ipaddr, netif_ip4_addr(netif), netif_ip4_netmask(netif)) &&
 826:Middlewares/Third_Party/LwIP/src/core/ipv4/etharp.c ****         !ip4_addr_islinklocal(ipaddr)) {
 827:Middlewares/Third_Party/LwIP/src/core/ipv4/etharp.c **** #if LWIP_AUTOIP
 828:Middlewares/Third_Party/LwIP/src/core/ipv4/etharp.c ****       struct ip_hdr *iphdr = LWIP_ALIGNMENT_CAST(struct ip_hdr *, q->payload);
 829:Middlewares/Third_Party/LwIP/src/core/ipv4/etharp.c ****       /* According to RFC 3297, chapter 2.6.2 (Forwarding Rules), a packet with
 830:Middlewares/Third_Party/LwIP/src/core/ipv4/etharp.c ****          a link-local source address must always be "directly to its destination
 831:Middlewares/Third_Party/LwIP/src/core/ipv4/etharp.c ****          on the same physical link. The host MUST NOT send the packet to any
 832:Middlewares/Third_Party/LwIP/src/core/ipv4/etharp.c ****          router for forwarding". */
 833:Middlewares/Third_Party/LwIP/src/core/ipv4/etharp.c ****       if (!ip4_addr_islinklocal(&iphdr->src))
 834:Middlewares/Third_Party/LwIP/src/core/ipv4/etharp.c **** #endif /* LWIP_AUTOIP */
 835:Middlewares/Third_Party/LwIP/src/core/ipv4/etharp.c ****       {
 836:Middlewares/Third_Party/LwIP/src/core/ipv4/etharp.c **** #ifdef LWIP_HOOK_ETHARP_GET_GW
 837:Middlewares/Third_Party/LwIP/src/core/ipv4/etharp.c ****         /* For advanced routing, a single default gateway might not be enough, so get
 838:Middlewares/Third_Party/LwIP/src/core/ipv4/etharp.c ****            the IP address of the gateway to handle the current destination address. */
 839:Middlewares/Third_Party/LwIP/src/core/ipv4/etharp.c ****         dst_addr = LWIP_HOOK_ETHARP_GET_GW(netif, ipaddr);
 840:Middlewares/Third_Party/LwIP/src/core/ipv4/etharp.c ****         if (dst_addr == NULL)
 841:Middlewares/Third_Party/LwIP/src/core/ipv4/etharp.c **** #endif /* LWIP_HOOK_ETHARP_GET_GW */
 842:Middlewares/Third_Party/LwIP/src/core/ipv4/etharp.c ****         {
 843:Middlewares/Third_Party/LwIP/src/core/ipv4/etharp.c ****           /* interface has default gateway? */
 844:Middlewares/Third_Party/LwIP/src/core/ipv4/etharp.c ****           if (!ip4_addr_isany_val(*netif_ip4_gw(netif))) {
 845:Middlewares/Third_Party/LwIP/src/core/ipv4/etharp.c ****             /* send to hardware address of default gateway IP address */
 846:Middlewares/Third_Party/LwIP/src/core/ipv4/etharp.c ****             dst_addr = netif_ip4_gw(netif);
 847:Middlewares/Third_Party/LwIP/src/core/ipv4/etharp.c ****             /* no default gateway available */
 848:Middlewares/Third_Party/LwIP/src/core/ipv4/etharp.c ****           } else {
 849:Middlewares/Third_Party/LwIP/src/core/ipv4/etharp.c ****             /* no route to destination error (default gateway missing) */
 850:Middlewares/Third_Party/LwIP/src/core/ipv4/etharp.c ****             return ERR_RTE;
 851:Middlewares/Third_Party/LwIP/src/core/ipv4/etharp.c ****           }
 852:Middlewares/Third_Party/LwIP/src/core/ipv4/etharp.c ****         }
 853:Middlewares/Third_Party/LwIP/src/core/ipv4/etharp.c ****       }
 854:Middlewares/Third_Party/LwIP/src/core/ipv4/etharp.c ****     }
 855:Middlewares/Third_Party/LwIP/src/core/ipv4/etharp.c **** #if LWIP_NETIF_HWADDRHINT
 856:Middlewares/Third_Party/LwIP/src/core/ipv4/etharp.c ****     if (netif->hints != NULL) {
 857:Middlewares/Third_Party/LwIP/src/core/ipv4/etharp.c ****       /* per-pcb cached entry was given */
 858:Middlewares/Third_Party/LwIP/src/core/ipv4/etharp.c ****       netif_addr_idx_t etharp_cached_entry = netif->hints->addr_hint;
 859:Middlewares/Third_Party/LwIP/src/core/ipv4/etharp.c ****       if (etharp_cached_entry < ARP_TABLE_SIZE) {
 860:Middlewares/Third_Party/LwIP/src/core/ipv4/etharp.c **** #endif /* LWIP_NETIF_HWADDRHINT */
 861:Middlewares/Third_Party/LwIP/src/core/ipv4/etharp.c ****         if ((arp_table[etharp_cached_entry].state >= ETHARP_STATE_STABLE) &&
 862:Middlewares/Third_Party/LwIP/src/core/ipv4/etharp.c **** #if ETHARP_TABLE_MATCH_NETIF
 863:Middlewares/Third_Party/LwIP/src/core/ipv4/etharp.c ****             (arp_table[etharp_cached_entry].netif == netif) &&
 864:Middlewares/Third_Party/LwIP/src/core/ipv4/etharp.c **** #endif
 865:Middlewares/Third_Party/LwIP/src/core/ipv4/etharp.c ****             (ip4_addr_cmp(dst_addr, &arp_table[etharp_cached_entry].ipaddr))) {
 866:Middlewares/Third_Party/LwIP/src/core/ipv4/etharp.c ****           /* the per-pcb-cached entry is stable and the right one! */
 867:Middlewares/Third_Party/LwIP/src/core/ipv4/etharp.c ****           ETHARP_STATS_INC(etharp.cachehit);
 868:Middlewares/Third_Party/LwIP/src/core/ipv4/etharp.c ****           return etharp_output_to_arp_index(netif, q, etharp_cached_entry);
 869:Middlewares/Third_Party/LwIP/src/core/ipv4/etharp.c ****         }
 870:Middlewares/Third_Party/LwIP/src/core/ipv4/etharp.c **** #if LWIP_NETIF_HWADDRHINT
ARM GAS  C:\Users\17832\AppData\Local\Temp\ccRMKuAU.s 			page 31


 871:Middlewares/Third_Party/LwIP/src/core/ipv4/etharp.c ****       }
 872:Middlewares/Third_Party/LwIP/src/core/ipv4/etharp.c ****     }
 873:Middlewares/Third_Party/LwIP/src/core/ipv4/etharp.c **** #endif /* LWIP_NETIF_HWADDRHINT */
 874:Middlewares/Third_Party/LwIP/src/core/ipv4/etharp.c **** 
 875:Middlewares/Third_Party/LwIP/src/core/ipv4/etharp.c ****     /* find stable entry: do this here since this is a critical path for
 876:Middlewares/Third_Party/LwIP/src/core/ipv4/etharp.c ****        throughput and etharp_find_entry() is kind of slow */
 877:Middlewares/Third_Party/LwIP/src/core/ipv4/etharp.c ****     for (i = 0; i < ARP_TABLE_SIZE; i++) {
 878:Middlewares/Third_Party/LwIP/src/core/ipv4/etharp.c ****       if ((arp_table[i].state >= ETHARP_STATE_STABLE) &&
 879:Middlewares/Third_Party/LwIP/src/core/ipv4/etharp.c **** #if ETHARP_TABLE_MATCH_NETIF
 880:Middlewares/Third_Party/LwIP/src/core/ipv4/etharp.c ****           (arp_table[i].netif == netif) &&
 881:Middlewares/Third_Party/LwIP/src/core/ipv4/etharp.c **** #endif
 882:Middlewares/Third_Party/LwIP/src/core/ipv4/etharp.c ****           (ip4_addr_cmp(dst_addr, &arp_table[i].ipaddr))) {
 883:Middlewares/Third_Party/LwIP/src/core/ipv4/etharp.c ****         /* found an existing, stable entry */
 884:Middlewares/Third_Party/LwIP/src/core/ipv4/etharp.c ****         ETHARP_SET_ADDRHINT(netif, i);
 885:Middlewares/Third_Party/LwIP/src/core/ipv4/etharp.c ****         return etharp_output_to_arp_index(netif, q, i);
 886:Middlewares/Third_Party/LwIP/src/core/ipv4/etharp.c ****       }
 887:Middlewares/Third_Party/LwIP/src/core/ipv4/etharp.c ****     }
 888:Middlewares/Third_Party/LwIP/src/core/ipv4/etharp.c ****     /* no stable entry found, use the (slower) query function:
 889:Middlewares/Third_Party/LwIP/src/core/ipv4/etharp.c ****        queue on destination Ethernet address belonging to ipaddr */
 890:Middlewares/Third_Party/LwIP/src/core/ipv4/etharp.c ****     return etharp_query(netif, dst_addr, q);
 891:Middlewares/Third_Party/LwIP/src/core/ipv4/etharp.c ****   }
 892:Middlewares/Third_Party/LwIP/src/core/ipv4/etharp.c **** 
 893:Middlewares/Third_Party/LwIP/src/core/ipv4/etharp.c ****   /* continuation for multicast/broadcast destinations */
 894:Middlewares/Third_Party/LwIP/src/core/ipv4/etharp.c ****   /* obtain source Ethernet address of the given interface */
 895:Middlewares/Third_Party/LwIP/src/core/ipv4/etharp.c ****   /* send packet directly on the link */
 896:Middlewares/Third_Party/LwIP/src/core/ipv4/etharp.c ****   return ethernet_output(netif, q, (struct eth_addr *)(netif->hwaddr), dest, ETHTYPE_IP);
 897:Middlewares/Third_Party/LwIP/src/core/ipv4/etharp.c **** }
 898:Middlewares/Third_Party/LwIP/src/core/ipv4/etharp.c **** 
 899:Middlewares/Third_Party/LwIP/src/core/ipv4/etharp.c **** /**
 900:Middlewares/Third_Party/LwIP/src/core/ipv4/etharp.c ****  * Send an ARP request for the given IP address and/or queue a packet.
 901:Middlewares/Third_Party/LwIP/src/core/ipv4/etharp.c ****  *
 902:Middlewares/Third_Party/LwIP/src/core/ipv4/etharp.c ****  * If the IP address was not yet in the cache, a pending ARP cache entry
 903:Middlewares/Third_Party/LwIP/src/core/ipv4/etharp.c ****  * is added and an ARP request is sent for the given address. The packet
 904:Middlewares/Third_Party/LwIP/src/core/ipv4/etharp.c ****  * is queued on this entry.
 905:Middlewares/Third_Party/LwIP/src/core/ipv4/etharp.c ****  *
 906:Middlewares/Third_Party/LwIP/src/core/ipv4/etharp.c ****  * If the IP address was already pending in the cache, a new ARP request
 907:Middlewares/Third_Party/LwIP/src/core/ipv4/etharp.c ****  * is sent for the given address. The packet is queued on this entry.
 908:Middlewares/Third_Party/LwIP/src/core/ipv4/etharp.c ****  *
 909:Middlewares/Third_Party/LwIP/src/core/ipv4/etharp.c ****  * If the IP address was already stable in the cache, and a packet is
 910:Middlewares/Third_Party/LwIP/src/core/ipv4/etharp.c ****  * given, it is directly sent and no ARP request is sent out.
 911:Middlewares/Third_Party/LwIP/src/core/ipv4/etharp.c ****  *
 912:Middlewares/Third_Party/LwIP/src/core/ipv4/etharp.c ****  * If the IP address was already stable in the cache, and no packet is
 913:Middlewares/Third_Party/LwIP/src/core/ipv4/etharp.c ****  * given, an ARP request is sent out.
 914:Middlewares/Third_Party/LwIP/src/core/ipv4/etharp.c ****  *
 915:Middlewares/Third_Party/LwIP/src/core/ipv4/etharp.c ****  * @param netif The lwIP network interface on which ipaddr
 916:Middlewares/Third_Party/LwIP/src/core/ipv4/etharp.c ****  * must be queried for.
 917:Middlewares/Third_Party/LwIP/src/core/ipv4/etharp.c ****  * @param ipaddr The IP address to be resolved.
 918:Middlewares/Third_Party/LwIP/src/core/ipv4/etharp.c ****  * @param q If non-NULL, a pbuf that must be delivered to the IP address.
 919:Middlewares/Third_Party/LwIP/src/core/ipv4/etharp.c ****  * q is not freed by this function.
 920:Middlewares/Third_Party/LwIP/src/core/ipv4/etharp.c ****  *
 921:Middlewares/Third_Party/LwIP/src/core/ipv4/etharp.c ****  * @note q must only be ONE packet, not a packet queue!
 922:Middlewares/Third_Party/LwIP/src/core/ipv4/etharp.c ****  *
 923:Middlewares/Third_Party/LwIP/src/core/ipv4/etharp.c ****  * @return
 924:Middlewares/Third_Party/LwIP/src/core/ipv4/etharp.c ****  * - ERR_BUF Could not make room for Ethernet header.
 925:Middlewares/Third_Party/LwIP/src/core/ipv4/etharp.c ****  * - ERR_MEM Hardware address unknown, and no more ARP entries available
 926:Middlewares/Third_Party/LwIP/src/core/ipv4/etharp.c ****  *   to query for address or queue the packet.
 927:Middlewares/Third_Party/LwIP/src/core/ipv4/etharp.c ****  * - ERR_MEM Could not queue packet due to memory shortage.
ARM GAS  C:\Users\17832\AppData\Local\Temp\ccRMKuAU.s 			page 32


 928:Middlewares/Third_Party/LwIP/src/core/ipv4/etharp.c ****  * - ERR_RTE No route to destination (no gateway to external networks).
 929:Middlewares/Third_Party/LwIP/src/core/ipv4/etharp.c ****  * - ERR_ARG Non-unicast address given, those will not appear in ARP cache.
 930:Middlewares/Third_Party/LwIP/src/core/ipv4/etharp.c ****  *
 931:Middlewares/Third_Party/LwIP/src/core/ipv4/etharp.c ****  */
 932:Middlewares/Third_Party/LwIP/src/core/ipv4/etharp.c **** err_t
 933:Middlewares/Third_Party/LwIP/src/core/ipv4/etharp.c **** etharp_query(struct netif *netif, const ip4_addr_t *ipaddr, struct pbuf *q)
 934:Middlewares/Third_Party/LwIP/src/core/ipv4/etharp.c **** {
 935:Middlewares/Third_Party/LwIP/src/core/ipv4/etharp.c ****   struct eth_addr *srcaddr = (struct eth_addr *)netif->hwaddr;
 936:Middlewares/Third_Party/LwIP/src/core/ipv4/etharp.c ****   err_t result = ERR_MEM;
 937:Middlewares/Third_Party/LwIP/src/core/ipv4/etharp.c ****   int is_new_entry = 0;
 938:Middlewares/Third_Party/LwIP/src/core/ipv4/etharp.c ****   s16_t i_err;
 939:Middlewares/Third_Party/LwIP/src/core/ipv4/etharp.c ****   netif_addr_idx_t i;
 940:Middlewares/Third_Party/LwIP/src/core/ipv4/etharp.c **** 
 941:Middlewares/Third_Party/LwIP/src/core/ipv4/etharp.c ****   /* non-unicast address? */
 942:Middlewares/Third_Party/LwIP/src/core/ipv4/etharp.c ****   if (ip4_addr_isbroadcast(ipaddr, netif) ||
 943:Middlewares/Third_Party/LwIP/src/core/ipv4/etharp.c ****       ip4_addr_ismulticast(ipaddr) ||
 944:Middlewares/Third_Party/LwIP/src/core/ipv4/etharp.c ****       ip4_addr_isany(ipaddr)) {
 945:Middlewares/Third_Party/LwIP/src/core/ipv4/etharp.c ****     LWIP_DEBUGF(ETHARP_DEBUG | LWIP_DBG_TRACE, ("etharp_query: will not add non-unicast IP address 
 946:Middlewares/Third_Party/LwIP/src/core/ipv4/etharp.c ****     return ERR_ARG;
 947:Middlewares/Third_Party/LwIP/src/core/ipv4/etharp.c ****   }
 948:Middlewares/Third_Party/LwIP/src/core/ipv4/etharp.c **** 
 949:Middlewares/Third_Party/LwIP/src/core/ipv4/etharp.c ****   /* find entry in ARP cache, ask to create entry if queueing packet */
 950:Middlewares/Third_Party/LwIP/src/core/ipv4/etharp.c ****   i_err = etharp_find_entry(ipaddr, ETHARP_FLAG_TRY_HARD, netif);
 951:Middlewares/Third_Party/LwIP/src/core/ipv4/etharp.c **** 
 952:Middlewares/Third_Party/LwIP/src/core/ipv4/etharp.c ****   /* could not find or create entry? */
 953:Middlewares/Third_Party/LwIP/src/core/ipv4/etharp.c ****   if (i_err < 0) {
 954:Middlewares/Third_Party/LwIP/src/core/ipv4/etharp.c ****     LWIP_DEBUGF(ETHARP_DEBUG | LWIP_DBG_TRACE, ("etharp_query: could not create ARP entry\n"));
 955:Middlewares/Third_Party/LwIP/src/core/ipv4/etharp.c ****     if (q) {
 956:Middlewares/Third_Party/LwIP/src/core/ipv4/etharp.c ****       LWIP_DEBUGF(ETHARP_DEBUG | LWIP_DBG_TRACE, ("etharp_query: packet dropped\n"));
 957:Middlewares/Third_Party/LwIP/src/core/ipv4/etharp.c ****       ETHARP_STATS_INC(etharp.memerr);
 958:Middlewares/Third_Party/LwIP/src/core/ipv4/etharp.c ****     }
 959:Middlewares/Third_Party/LwIP/src/core/ipv4/etharp.c ****     return (err_t)i_err;
 960:Middlewares/Third_Party/LwIP/src/core/ipv4/etharp.c ****   }
 961:Middlewares/Third_Party/LwIP/src/core/ipv4/etharp.c ****   LWIP_ASSERT("type overflow", (size_t)i_err < NETIF_ADDR_IDX_MAX);
 962:Middlewares/Third_Party/LwIP/src/core/ipv4/etharp.c ****   i = (netif_addr_idx_t)i_err;
 963:Middlewares/Third_Party/LwIP/src/core/ipv4/etharp.c **** 
 964:Middlewares/Third_Party/LwIP/src/core/ipv4/etharp.c ****   /* mark a fresh entry as pending (we just sent a request) */
 965:Middlewares/Third_Party/LwIP/src/core/ipv4/etharp.c ****   if (arp_table[i].state == ETHARP_STATE_EMPTY) {
 966:Middlewares/Third_Party/LwIP/src/core/ipv4/etharp.c ****     is_new_entry = 1;
 967:Middlewares/Third_Party/LwIP/src/core/ipv4/etharp.c ****     arp_table[i].state = ETHARP_STATE_PENDING;
 968:Middlewares/Third_Party/LwIP/src/core/ipv4/etharp.c ****     /* record network interface for re-sending arp request in etharp_tmr */
 969:Middlewares/Third_Party/LwIP/src/core/ipv4/etharp.c ****     arp_table[i].netif = netif;
 970:Middlewares/Third_Party/LwIP/src/core/ipv4/etharp.c ****   }
 971:Middlewares/Third_Party/LwIP/src/core/ipv4/etharp.c **** 
 972:Middlewares/Third_Party/LwIP/src/core/ipv4/etharp.c ****   /* { i is either a STABLE or (new or existing) PENDING entry } */
 973:Middlewares/Third_Party/LwIP/src/core/ipv4/etharp.c ****   LWIP_ASSERT("arp_table[i].state == PENDING or STABLE",
 974:Middlewares/Third_Party/LwIP/src/core/ipv4/etharp.c ****               ((arp_table[i].state == ETHARP_STATE_PENDING) ||
 975:Middlewares/Third_Party/LwIP/src/core/ipv4/etharp.c ****                (arp_table[i].state >= ETHARP_STATE_STABLE)));
 976:Middlewares/Third_Party/LwIP/src/core/ipv4/etharp.c **** 
 977:Middlewares/Third_Party/LwIP/src/core/ipv4/etharp.c ****   /* do we have a new entry? or an implicit query request? */
 978:Middlewares/Third_Party/LwIP/src/core/ipv4/etharp.c ****   if (is_new_entry || (q == NULL)) {
 979:Middlewares/Third_Party/LwIP/src/core/ipv4/etharp.c ****     /* try to resolve it; send out ARP request */
 980:Middlewares/Third_Party/LwIP/src/core/ipv4/etharp.c ****     result = etharp_request(netif, ipaddr);
 981:Middlewares/Third_Party/LwIP/src/core/ipv4/etharp.c ****     if (result != ERR_OK) {
 982:Middlewares/Third_Party/LwIP/src/core/ipv4/etharp.c ****       /* ARP request couldn't be sent */
 983:Middlewares/Third_Party/LwIP/src/core/ipv4/etharp.c ****       /* We don't re-send arp request in etharp_tmr, but we still queue packets,
 984:Middlewares/Third_Party/LwIP/src/core/ipv4/etharp.c ****          since this failure could be temporary, and the next packet calling
ARM GAS  C:\Users\17832\AppData\Local\Temp\ccRMKuAU.s 			page 33


 985:Middlewares/Third_Party/LwIP/src/core/ipv4/etharp.c ****          etharp_query again could lead to sending the queued packets. */
 986:Middlewares/Third_Party/LwIP/src/core/ipv4/etharp.c ****     }
 987:Middlewares/Third_Party/LwIP/src/core/ipv4/etharp.c ****     if (q == NULL) {
 988:Middlewares/Third_Party/LwIP/src/core/ipv4/etharp.c ****       return result;
 989:Middlewares/Third_Party/LwIP/src/core/ipv4/etharp.c ****     }
 990:Middlewares/Third_Party/LwIP/src/core/ipv4/etharp.c ****   }
 991:Middlewares/Third_Party/LwIP/src/core/ipv4/etharp.c **** 
 992:Middlewares/Third_Party/LwIP/src/core/ipv4/etharp.c ****   /* packet given? */
 993:Middlewares/Third_Party/LwIP/src/core/ipv4/etharp.c ****   LWIP_ASSERT("q != NULL", q != NULL);
 994:Middlewares/Third_Party/LwIP/src/core/ipv4/etharp.c ****   /* stable entry? */
 995:Middlewares/Third_Party/LwIP/src/core/ipv4/etharp.c ****   if (arp_table[i].state >= ETHARP_STATE_STABLE) {
 996:Middlewares/Third_Party/LwIP/src/core/ipv4/etharp.c ****     /* we have a valid IP->Ethernet address mapping */
 997:Middlewares/Third_Party/LwIP/src/core/ipv4/etharp.c ****     ETHARP_SET_ADDRHINT(netif, i);
 998:Middlewares/Third_Party/LwIP/src/core/ipv4/etharp.c ****     /* send the packet */
 999:Middlewares/Third_Party/LwIP/src/core/ipv4/etharp.c ****     result = ethernet_output(netif, q, srcaddr, &(arp_table[i].ethaddr), ETHTYPE_IP);
1000:Middlewares/Third_Party/LwIP/src/core/ipv4/etharp.c ****     /* pending entry? (either just created or already pending */
1001:Middlewares/Third_Party/LwIP/src/core/ipv4/etharp.c ****   } else if (arp_table[i].state == ETHARP_STATE_PENDING) {
1002:Middlewares/Third_Party/LwIP/src/core/ipv4/etharp.c ****     /* entry is still pending, queue the given packet 'q' */
1003:Middlewares/Third_Party/LwIP/src/core/ipv4/etharp.c ****     struct pbuf *p;
1004:Middlewares/Third_Party/LwIP/src/core/ipv4/etharp.c ****     int copy_needed = 0;
1005:Middlewares/Third_Party/LwIP/src/core/ipv4/etharp.c ****     /* IF q includes a pbuf that must be copied, copy the whole chain into a
1006:Middlewares/Third_Party/LwIP/src/core/ipv4/etharp.c ****      * new PBUF_RAM. See the definition of PBUF_NEEDS_COPY for details. */
1007:Middlewares/Third_Party/LwIP/src/core/ipv4/etharp.c ****     p = q;
1008:Middlewares/Third_Party/LwIP/src/core/ipv4/etharp.c ****     while (p) {
1009:Middlewares/Third_Party/LwIP/src/core/ipv4/etharp.c ****       LWIP_ASSERT("no packet queues allowed!", (p->len != p->tot_len) || (p->next == 0));
1010:Middlewares/Third_Party/LwIP/src/core/ipv4/etharp.c ****       if (PBUF_NEEDS_COPY(p)) {
1011:Middlewares/Third_Party/LwIP/src/core/ipv4/etharp.c ****         copy_needed = 1;
1012:Middlewares/Third_Party/LwIP/src/core/ipv4/etharp.c ****         break;
1013:Middlewares/Third_Party/LwIP/src/core/ipv4/etharp.c ****       }
1014:Middlewares/Third_Party/LwIP/src/core/ipv4/etharp.c ****       p = p->next;
1015:Middlewares/Third_Party/LwIP/src/core/ipv4/etharp.c ****     }
1016:Middlewares/Third_Party/LwIP/src/core/ipv4/etharp.c ****     if (copy_needed) {
1017:Middlewares/Third_Party/LwIP/src/core/ipv4/etharp.c ****       /* copy the whole packet into new pbufs */
1018:Middlewares/Third_Party/LwIP/src/core/ipv4/etharp.c ****       p = pbuf_clone(PBUF_LINK, PBUF_RAM, q);
1019:Middlewares/Third_Party/LwIP/src/core/ipv4/etharp.c ****     } else {
1020:Middlewares/Third_Party/LwIP/src/core/ipv4/etharp.c ****       /* referencing the old pbuf is enough */
1021:Middlewares/Third_Party/LwIP/src/core/ipv4/etharp.c ****       p = q;
1022:Middlewares/Third_Party/LwIP/src/core/ipv4/etharp.c ****       pbuf_ref(p);
1023:Middlewares/Third_Party/LwIP/src/core/ipv4/etharp.c ****     }
1024:Middlewares/Third_Party/LwIP/src/core/ipv4/etharp.c ****     /* packet could be taken over? */
1025:Middlewares/Third_Party/LwIP/src/core/ipv4/etharp.c ****     if (p != NULL) {
1026:Middlewares/Third_Party/LwIP/src/core/ipv4/etharp.c ****       /* queue packet ... */
1027:Middlewares/Third_Party/LwIP/src/core/ipv4/etharp.c **** #if ARP_QUEUEING
1028:Middlewares/Third_Party/LwIP/src/core/ipv4/etharp.c ****       struct etharp_q_entry *new_entry;
1029:Middlewares/Third_Party/LwIP/src/core/ipv4/etharp.c ****       /* allocate a new arp queue entry */
1030:Middlewares/Third_Party/LwIP/src/core/ipv4/etharp.c ****       new_entry = (struct etharp_q_entry *)memp_malloc(MEMP_ARP_QUEUE);
1031:Middlewares/Third_Party/LwIP/src/core/ipv4/etharp.c ****       if (new_entry != NULL) {
1032:Middlewares/Third_Party/LwIP/src/core/ipv4/etharp.c ****         unsigned int qlen = 0;
1033:Middlewares/Third_Party/LwIP/src/core/ipv4/etharp.c ****         new_entry->next = 0;
1034:Middlewares/Third_Party/LwIP/src/core/ipv4/etharp.c ****         new_entry->p = p;
1035:Middlewares/Third_Party/LwIP/src/core/ipv4/etharp.c ****         if (arp_table[i].q != NULL) {
1036:Middlewares/Third_Party/LwIP/src/core/ipv4/etharp.c ****           /* queue was already existent, append the new entry to the end */
1037:Middlewares/Third_Party/LwIP/src/core/ipv4/etharp.c ****           struct etharp_q_entry *r;
1038:Middlewares/Third_Party/LwIP/src/core/ipv4/etharp.c ****           r = arp_table[i].q;
1039:Middlewares/Third_Party/LwIP/src/core/ipv4/etharp.c ****           qlen++;
1040:Middlewares/Third_Party/LwIP/src/core/ipv4/etharp.c ****           while (r->next != NULL) {
1041:Middlewares/Third_Party/LwIP/src/core/ipv4/etharp.c ****             r = r->next;
ARM GAS  C:\Users\17832\AppData\Local\Temp\ccRMKuAU.s 			page 34


1042:Middlewares/Third_Party/LwIP/src/core/ipv4/etharp.c ****             qlen++;
1043:Middlewares/Third_Party/LwIP/src/core/ipv4/etharp.c ****           }
1044:Middlewares/Third_Party/LwIP/src/core/ipv4/etharp.c ****           r->next = new_entry;
1045:Middlewares/Third_Party/LwIP/src/core/ipv4/etharp.c ****         } else {
1046:Middlewares/Third_Party/LwIP/src/core/ipv4/etharp.c ****           /* queue did not exist, first item in queue */
1047:Middlewares/Third_Party/LwIP/src/core/ipv4/etharp.c ****           arp_table[i].q = new_entry;
1048:Middlewares/Third_Party/LwIP/src/core/ipv4/etharp.c ****         }
1049:Middlewares/Third_Party/LwIP/src/core/ipv4/etharp.c **** #if ARP_QUEUE_LEN
1050:Middlewares/Third_Party/LwIP/src/core/ipv4/etharp.c ****         if (qlen >= ARP_QUEUE_LEN) {
1051:Middlewares/Third_Party/LwIP/src/core/ipv4/etharp.c ****           struct etharp_q_entry *old;
1052:Middlewares/Third_Party/LwIP/src/core/ipv4/etharp.c ****           old = arp_table[i].q;
1053:Middlewares/Third_Party/LwIP/src/core/ipv4/etharp.c ****           arp_table[i].q = arp_table[i].q->next;
1054:Middlewares/Third_Party/LwIP/src/core/ipv4/etharp.c ****           pbuf_free(old->p);
1055:Middlewares/Third_Party/LwIP/src/core/ipv4/etharp.c ****           memp_free(MEMP_ARP_QUEUE, old);
1056:Middlewares/Third_Party/LwIP/src/core/ipv4/etharp.c ****         }
1057:Middlewares/Third_Party/LwIP/src/core/ipv4/etharp.c **** #endif
1058:Middlewares/Third_Party/LwIP/src/core/ipv4/etharp.c ****         LWIP_DEBUGF(ETHARP_DEBUG | LWIP_DBG_TRACE, ("etharp_query: queued packet %p on ARP entry %"
1059:Middlewares/Third_Party/LwIP/src/core/ipv4/etharp.c ****         result = ERR_OK;
1060:Middlewares/Third_Party/LwIP/src/core/ipv4/etharp.c ****       } else {
1061:Middlewares/Third_Party/LwIP/src/core/ipv4/etharp.c ****         /* the pool MEMP_ARP_QUEUE is empty */
1062:Middlewares/Third_Party/LwIP/src/core/ipv4/etharp.c ****         pbuf_free(p);
1063:Middlewares/Third_Party/LwIP/src/core/ipv4/etharp.c ****         LWIP_DEBUGF(ETHARP_DEBUG | LWIP_DBG_TRACE, ("etharp_query: could not queue a copy of PBUF_R
1064:Middlewares/Third_Party/LwIP/src/core/ipv4/etharp.c ****         result = ERR_MEM;
1065:Middlewares/Third_Party/LwIP/src/core/ipv4/etharp.c ****       }
1066:Middlewares/Third_Party/LwIP/src/core/ipv4/etharp.c **** #else /* ARP_QUEUEING */
1067:Middlewares/Third_Party/LwIP/src/core/ipv4/etharp.c ****       /* always queue one packet per ARP request only, freeing a previously queued packet */
1068:Middlewares/Third_Party/LwIP/src/core/ipv4/etharp.c ****       if (arp_table[i].q != NULL) {
1069:Middlewares/Third_Party/LwIP/src/core/ipv4/etharp.c ****         LWIP_DEBUGF(ETHARP_DEBUG | LWIP_DBG_TRACE, ("etharp_query: dropped previously queued packet
1070:Middlewares/Third_Party/LwIP/src/core/ipv4/etharp.c ****         pbuf_free(arp_table[i].q);
1071:Middlewares/Third_Party/LwIP/src/core/ipv4/etharp.c ****       }
1072:Middlewares/Third_Party/LwIP/src/core/ipv4/etharp.c ****       arp_table[i].q = p;
1073:Middlewares/Third_Party/LwIP/src/core/ipv4/etharp.c ****       result = ERR_OK;
1074:Middlewares/Third_Party/LwIP/src/core/ipv4/etharp.c ****       LWIP_DEBUGF(ETHARP_DEBUG | LWIP_DBG_TRACE, ("etharp_query: queued packet %p on ARP entry %"U1
1075:Middlewares/Third_Party/LwIP/src/core/ipv4/etharp.c **** #endif /* ARP_QUEUEING */
1076:Middlewares/Third_Party/LwIP/src/core/ipv4/etharp.c ****     } else {
1077:Middlewares/Third_Party/LwIP/src/core/ipv4/etharp.c ****       ETHARP_STATS_INC(etharp.memerr);
1078:Middlewares/Third_Party/LwIP/src/core/ipv4/etharp.c ****       LWIP_DEBUGF(ETHARP_DEBUG | LWIP_DBG_TRACE, ("etharp_query: could not queue a copy of PBUF_REF
1079:Middlewares/Third_Party/LwIP/src/core/ipv4/etharp.c ****       result = ERR_MEM;
1080:Middlewares/Third_Party/LwIP/src/core/ipv4/etharp.c ****     }
1081:Middlewares/Third_Party/LwIP/src/core/ipv4/etharp.c ****   }
1082:Middlewares/Third_Party/LwIP/src/core/ipv4/etharp.c ****   return result;
1083:Middlewares/Third_Party/LwIP/src/core/ipv4/etharp.c **** }
1084:Middlewares/Third_Party/LwIP/src/core/ipv4/etharp.c **** 
1085:Middlewares/Third_Party/LwIP/src/core/ipv4/etharp.c **** /**
1086:Middlewares/Third_Party/LwIP/src/core/ipv4/etharp.c ****  * Send a raw ARP packet (opcode and all addresses can be modified)
1087:Middlewares/Third_Party/LwIP/src/core/ipv4/etharp.c ****  *
1088:Middlewares/Third_Party/LwIP/src/core/ipv4/etharp.c ****  * @param netif the lwip network interface on which to send the ARP packet
1089:Middlewares/Third_Party/LwIP/src/core/ipv4/etharp.c ****  * @param ethsrc_addr the source MAC address for the ethernet header
1090:Middlewares/Third_Party/LwIP/src/core/ipv4/etharp.c ****  * @param ethdst_addr the destination MAC address for the ethernet header
1091:Middlewares/Third_Party/LwIP/src/core/ipv4/etharp.c ****  * @param hwsrc_addr the source MAC address for the ARP protocol header
1092:Middlewares/Third_Party/LwIP/src/core/ipv4/etharp.c ****  * @param ipsrc_addr the source IP address for the ARP protocol header
1093:Middlewares/Third_Party/LwIP/src/core/ipv4/etharp.c ****  * @param hwdst_addr the destination MAC address for the ARP protocol header
1094:Middlewares/Third_Party/LwIP/src/core/ipv4/etharp.c ****  * @param ipdst_addr the destination IP address for the ARP protocol header
1095:Middlewares/Third_Party/LwIP/src/core/ipv4/etharp.c ****  * @param opcode the type of the ARP packet
1096:Middlewares/Third_Party/LwIP/src/core/ipv4/etharp.c ****  * @return ERR_OK if the ARP packet has been sent
1097:Middlewares/Third_Party/LwIP/src/core/ipv4/etharp.c ****  *         ERR_MEM if the ARP packet couldn't be allocated
1098:Middlewares/Third_Party/LwIP/src/core/ipv4/etharp.c ****  *         any other err_t on failure
ARM GAS  C:\Users\17832\AppData\Local\Temp\ccRMKuAU.s 			page 35


1099:Middlewares/Third_Party/LwIP/src/core/ipv4/etharp.c ****  */
1100:Middlewares/Third_Party/LwIP/src/core/ipv4/etharp.c **** static err_t
1101:Middlewares/Third_Party/LwIP/src/core/ipv4/etharp.c **** etharp_raw(struct netif *netif, const struct eth_addr *ethsrc_addr,
1102:Middlewares/Third_Party/LwIP/src/core/ipv4/etharp.c ****            const struct eth_addr *ethdst_addr,
1103:Middlewares/Third_Party/LwIP/src/core/ipv4/etharp.c ****            const struct eth_addr *hwsrc_addr, const ip4_addr_t *ipsrc_addr,
1104:Middlewares/Third_Party/LwIP/src/core/ipv4/etharp.c ****            const struct eth_addr *hwdst_addr, const ip4_addr_t *ipdst_addr,
1105:Middlewares/Third_Party/LwIP/src/core/ipv4/etharp.c ****            const u16_t opcode)
1106:Middlewares/Third_Party/LwIP/src/core/ipv4/etharp.c **** {
 729              		.loc 1 1106 1 is_stmt 1 view -0
 730              		.cfi_startproc
 731              		@ args = 16, pretend = 0, frame = 0
 732              		@ frame_needed = 0, uses_anonymous_args = 0
 733              		.loc 1 1106 1 is_stmt 0 view .LVU203
 734 0000 2DE9F047 		push	{r4, r5, r6, r7, r8, r9, r10, lr}
 735              	.LCFI9:
 736              		.cfi_def_cfa_offset 32
 737              		.cfi_offset 4, -32
 738              		.cfi_offset 5, -28
 739              		.cfi_offset 6, -24
 740              		.cfi_offset 7, -20
 741              		.cfi_offset 8, -16
 742              		.cfi_offset 9, -12
 743              		.cfi_offset 10, -8
 744              		.cfi_offset 14, -4
 745 0004 82B0     		sub	sp, sp, #8
 746              	.LCFI10:
 747              		.cfi_def_cfa_offset 40
 748 0006 0F46     		mov	r7, r1
 749 0008 9046     		mov	r8, r2
 750 000a 1D46     		mov	r5, r3
 751 000c DDF82CA0 		ldr	r10, [sp, #44]
1107:Middlewares/Third_Party/LwIP/src/core/ipv4/etharp.c ****   struct pbuf *p;
 752              		.loc 1 1107 3 is_stmt 1 view .LVU204
1108:Middlewares/Third_Party/LwIP/src/core/ipv4/etharp.c ****   err_t result = ERR_OK;
 753              		.loc 1 1108 3 view .LVU205
 754              	.LVL67:
1109:Middlewares/Third_Party/LwIP/src/core/ipv4/etharp.c ****   struct etharp_hdr *hdr;
 755              		.loc 1 1109 3 view .LVU206
1110:Middlewares/Third_Party/LwIP/src/core/ipv4/etharp.c **** 
1111:Middlewares/Third_Party/LwIP/src/core/ipv4/etharp.c ****   LWIP_ASSERT("netif != NULL", netif != NULL);
 756              		.loc 1 1111 3 view .LVU207
 757              		.loc 1 1111 3 view .LVU208
 758 0010 8146     		mov	r9, r0
 759 0012 0028     		cmp	r0, #0
 760 0014 42D0     		beq	.L64
 761              	.LVL68:
 762              	.L58:
 763              		.loc 1 1111 3 discriminator 3 view .LVU209
 764              		.loc 1 1111 3 discriminator 3 view .LVU210
1112:Middlewares/Third_Party/LwIP/src/core/ipv4/etharp.c **** 
1113:Middlewares/Third_Party/LwIP/src/core/ipv4/etharp.c ****   /* allocate a pbuf for the outgoing ARP request packet */
1114:Middlewares/Third_Party/LwIP/src/core/ipv4/etharp.c ****   p = pbuf_alloc(PBUF_LINK, SIZEOF_ETHARP_HDR, PBUF_RAM);
 765              		.loc 1 1114 3 discriminator 3 view .LVU211
 766              		.loc 1 1114 7 is_stmt 0 discriminator 3 view .LVU212
 767 0016 4FF42072 		mov	r2, #640
 768 001a 1C21     		movs	r1, #28
 769 001c 0E20     		movs	r0, #14
ARM GAS  C:\Users\17832\AppData\Local\Temp\ccRMKuAU.s 			page 36


 770 001e FFF7FEFF 		bl	pbuf_alloc
 771              	.LVL69:
1115:Middlewares/Third_Party/LwIP/src/core/ipv4/etharp.c ****   /* could allocate a pbuf for an ARP request? */
1116:Middlewares/Third_Party/LwIP/src/core/ipv4/etharp.c ****   if (p == NULL) {
 772              		.loc 1 1116 3 is_stmt 1 discriminator 3 view .LVU213
 773              		.loc 1 1116 6 is_stmt 0 discriminator 3 view .LVU214
 774 0022 0646     		mov	r6, r0
 775 0024 0028     		cmp	r0, #0
 776 0026 51D0     		beq	.L62
1117:Middlewares/Third_Party/LwIP/src/core/ipv4/etharp.c ****     LWIP_DEBUGF(ETHARP_DEBUG | LWIP_DBG_TRACE | LWIP_DBG_LEVEL_SERIOUS,
1118:Middlewares/Third_Party/LwIP/src/core/ipv4/etharp.c ****                 ("etharp_raw: could not allocate pbuf for ARP request.\n"));
1119:Middlewares/Third_Party/LwIP/src/core/ipv4/etharp.c ****     ETHARP_STATS_INC(etharp.memerr);
1120:Middlewares/Third_Party/LwIP/src/core/ipv4/etharp.c ****     return ERR_MEM;
1121:Middlewares/Third_Party/LwIP/src/core/ipv4/etharp.c ****   }
1122:Middlewares/Third_Party/LwIP/src/core/ipv4/etharp.c ****   LWIP_ASSERT("check that first pbuf can hold struct etharp_hdr",
 777              		.loc 1 1122 3 is_stmt 1 view .LVU215
 778              		.loc 1 1122 3 view .LVU216
 779 0028 4389     		ldrh	r3, [r0, #10]
 780 002a 1B2B     		cmp	r3, #27
 781 002c 3ED9     		bls	.L65
 782              	.LVL70:
 783              	.L60:
 784              		.loc 1 1122 3 discriminator 3 view .LVU217
 785              		.loc 1 1122 3 discriminator 3 view .LVU218
1123:Middlewares/Third_Party/LwIP/src/core/ipv4/etharp.c ****               (p->len >= SIZEOF_ETHARP_HDR));
1124:Middlewares/Third_Party/LwIP/src/core/ipv4/etharp.c **** 
1125:Middlewares/Third_Party/LwIP/src/core/ipv4/etharp.c ****   hdr = (struct etharp_hdr *)p->payload;
 786              		.loc 1 1125 3 discriminator 3 view .LVU219
 787              		.loc 1 1125 7 is_stmt 0 discriminator 3 view .LVU220
 788 002e 7468     		ldr	r4, [r6, #4]
 789              	.LVL71:
1126:Middlewares/Third_Party/LwIP/src/core/ipv4/etharp.c ****   LWIP_DEBUGF(ETHARP_DEBUG | LWIP_DBG_TRACE, ("etharp_raw: sending raw ARP packet.\n"));
 790              		.loc 1 1126 88 is_stmt 1 discriminator 3 view .LVU221
1127:Middlewares/Third_Party/LwIP/src/core/ipv4/etharp.c ****   hdr->opcode = lwip_htons(opcode);
 791              		.loc 1 1127 3 discriminator 3 view .LVU222
 792              		.loc 1 1127 17 is_stmt 0 discriminator 3 view .LVU223
 793 0030 BDF83400 		ldrh	r0, [sp, #52]
 794 0034 FFF7FEFF 		bl	lwip_htons
 795              	.LVL72:
 796              		.loc 1 1127 15 discriminator 3 view .LVU224
 797 0038 E080     		strh	r0, [r4, #6]	@ unaligned
1128:Middlewares/Third_Party/LwIP/src/core/ipv4/etharp.c **** 
1129:Middlewares/Third_Party/LwIP/src/core/ipv4/etharp.c ****   LWIP_ASSERT("netif->hwaddr_len must be the same as ETH_HWADDR_LEN for etharp!",
 798              		.loc 1 1129 3 is_stmt 1 discriminator 3 view .LVU225
 799              		.loc 1 1129 3 discriminator 3 view .LVU226
 800 003a 99F82C30 		ldrb	r3, [r9, #44]	@ zero_extendqisi2
 801 003e 062B     		cmp	r3, #6
 802 0040 3CD1     		bne	.L66
 803              	.L61:
 804              		.loc 1 1129 3 discriminator 3 view .LVU227
 805              		.loc 1 1129 3 discriminator 3 view .LVU228
1130:Middlewares/Third_Party/LwIP/src/core/ipv4/etharp.c ****               (netif->hwaddr_len == ETH_HWADDR_LEN));
1131:Middlewares/Third_Party/LwIP/src/core/ipv4/etharp.c **** 
1132:Middlewares/Third_Party/LwIP/src/core/ipv4/etharp.c ****   /* Write the ARP MAC-Addresses */
1133:Middlewares/Third_Party/LwIP/src/core/ipv4/etharp.c ****   SMEMCPY(&hdr->shwaddr, hwsrc_addr, ETH_HWADDR_LEN);
 806              		.loc 1 1133 3 discriminator 3 view .LVU229
 807 0042 2B68     		ldr	r3, [r5]	@ unaligned
ARM GAS  C:\Users\17832\AppData\Local\Temp\ccRMKuAU.s 			page 37


 808 0044 A360     		str	r3, [r4, #8]	@ unaligned
 809 0046 AB88     		ldrh	r3, [r5, #4]	@ unaligned
 810 0048 A381     		strh	r3, [r4, #12]	@ unaligned
1134:Middlewares/Third_Party/LwIP/src/core/ipv4/etharp.c ****   SMEMCPY(&hdr->dhwaddr, hwdst_addr, ETH_HWADDR_LEN);
 811              		.loc 1 1134 3 discriminator 3 view .LVU230
 812 004a DAF80030 		ldr	r3, [r10]	@ unaligned
 813 004e C4F81230 		str	r3, [r4, #18]	@ unaligned
 814 0052 BAF80430 		ldrh	r3, [r10, #4]	@ unaligned
 815 0056 E382     		strh	r3, [r4, #22]	@ unaligned
1135:Middlewares/Third_Party/LwIP/src/core/ipv4/etharp.c ****   /* Copy struct ip4_addr_wordaligned to aligned ip4_addr, to support compilers without
1136:Middlewares/Third_Party/LwIP/src/core/ipv4/etharp.c ****    * structure packing. */
1137:Middlewares/Third_Party/LwIP/src/core/ipv4/etharp.c ****   IPADDR_WORDALIGNED_COPY_FROM_IP4_ADDR_T(&hdr->sipaddr, ipsrc_addr);
 816              		.loc 1 1137 3 discriminator 3 view .LVU231
 817 0058 0A9B     		ldr	r3, [sp, #40]
 818 005a 1B68     		ldr	r3, [r3]	@ unaligned
 819 005c C4F80E30 		str	r3, [r4, #14]	@ unaligned
1138:Middlewares/Third_Party/LwIP/src/core/ipv4/etharp.c ****   IPADDR_WORDALIGNED_COPY_FROM_IP4_ADDR_T(&hdr->dipaddr, ipdst_addr);
 820              		.loc 1 1138 3 discriminator 3 view .LVU232
 821 0060 0C9B     		ldr	r3, [sp, #48]
 822 0062 1B68     		ldr	r3, [r3]	@ unaligned
 823 0064 A361     		str	r3, [r4, #24]	@ unaligned
1139:Middlewares/Third_Party/LwIP/src/core/ipv4/etharp.c **** 
1140:Middlewares/Third_Party/LwIP/src/core/ipv4/etharp.c ****   hdr->hwtype = PP_HTONS(LWIP_IANA_HWTYPE_ETHERNET);
 824              		.loc 1 1140 3 discriminator 3 view .LVU233
 825              		.loc 1 1140 15 is_stmt 0 discriminator 3 view .LVU234
 826 0066 0025     		movs	r5, #0
 827              	.LVL73:
 828              		.loc 1 1140 15 discriminator 3 view .LVU235
 829 0068 2570     		strb	r5, [r4]
 830 006a 0123     		movs	r3, #1
 831 006c 6370     		strb	r3, [r4, #1]
1141:Middlewares/Third_Party/LwIP/src/core/ipv4/etharp.c ****   hdr->proto = PP_HTONS(ETHTYPE_IP);
 832              		.loc 1 1141 3 is_stmt 1 discriminator 3 view .LVU236
 833              		.loc 1 1141 14 is_stmt 0 discriminator 3 view .LVU237
 834 006e 0823     		movs	r3, #8
 835 0070 A370     		strb	r3, [r4, #2]
 836 0072 E570     		strb	r5, [r4, #3]
1142:Middlewares/Third_Party/LwIP/src/core/ipv4/etharp.c ****   /* set hwlen and protolen */
1143:Middlewares/Third_Party/LwIP/src/core/ipv4/etharp.c ****   hdr->hwlen = ETH_HWADDR_LEN;
 837              		.loc 1 1143 3 is_stmt 1 discriminator 3 view .LVU238
 838              		.loc 1 1143 14 is_stmt 0 discriminator 3 view .LVU239
 839 0074 0623     		movs	r3, #6
 840 0076 2371     		strb	r3, [r4, #4]
1144:Middlewares/Third_Party/LwIP/src/core/ipv4/etharp.c ****   hdr->protolen = sizeof(ip4_addr_t);
 841              		.loc 1 1144 3 is_stmt 1 discriminator 3 view .LVU240
 842              		.loc 1 1144 17 is_stmt 0 discriminator 3 view .LVU241
 843 0078 0423     		movs	r3, #4
 844 007a 6371     		strb	r3, [r4, #5]
1145:Middlewares/Third_Party/LwIP/src/core/ipv4/etharp.c **** 
1146:Middlewares/Third_Party/LwIP/src/core/ipv4/etharp.c ****   /* send ARP query */
1147:Middlewares/Third_Party/LwIP/src/core/ipv4/etharp.c **** #if LWIP_AUTOIP
1148:Middlewares/Third_Party/LwIP/src/core/ipv4/etharp.c ****   /* If we are using Link-Local, all ARP packets that contain a Link-Local
1149:Middlewares/Third_Party/LwIP/src/core/ipv4/etharp.c ****    * 'sender IP address' MUST be sent using link-layer broadcast instead of
1150:Middlewares/Third_Party/LwIP/src/core/ipv4/etharp.c ****    * link-layer unicast. (See RFC3927 Section 2.5, last paragraph) */
1151:Middlewares/Third_Party/LwIP/src/core/ipv4/etharp.c ****   if (ip4_addr_islinklocal(ipsrc_addr)) {
1152:Middlewares/Third_Party/LwIP/src/core/ipv4/etharp.c ****     ethernet_output(netif, p, ethsrc_addr, &ethbroadcast, ETHTYPE_ARP);
1153:Middlewares/Third_Party/LwIP/src/core/ipv4/etharp.c ****   } else
ARM GAS  C:\Users\17832\AppData\Local\Temp\ccRMKuAU.s 			page 38


1154:Middlewares/Third_Party/LwIP/src/core/ipv4/etharp.c **** #endif /* LWIP_AUTOIP */
1155:Middlewares/Third_Party/LwIP/src/core/ipv4/etharp.c ****   {
1156:Middlewares/Third_Party/LwIP/src/core/ipv4/etharp.c ****     ethernet_output(netif, p, ethsrc_addr, ethdst_addr, ETHTYPE_ARP);
 845              		.loc 1 1156 5 is_stmt 1 discriminator 3 view .LVU242
 846 007c 40F60603 		movw	r3, #2054
 847 0080 0093     		str	r3, [sp]
 848 0082 4346     		mov	r3, r8
 849 0084 3A46     		mov	r2, r7
 850 0086 3146     		mov	r1, r6
 851 0088 4846     		mov	r0, r9
 852 008a FFF7FEFF 		bl	ethernet_output
 853              	.LVL74:
1157:Middlewares/Third_Party/LwIP/src/core/ipv4/etharp.c ****   }
1158:Middlewares/Third_Party/LwIP/src/core/ipv4/etharp.c **** 
1159:Middlewares/Third_Party/LwIP/src/core/ipv4/etharp.c ****   ETHARP_STATS_INC(etharp.xmit);
 854              		.loc 1 1159 32 discriminator 3 view .LVU243
1160:Middlewares/Third_Party/LwIP/src/core/ipv4/etharp.c ****   /* free ARP query packet */
1161:Middlewares/Third_Party/LwIP/src/core/ipv4/etharp.c ****   pbuf_free(p);
 855              		.loc 1 1161 3 discriminator 3 view .LVU244
 856 008e 3046     		mov	r0, r6
 857 0090 FFF7FEFF 		bl	pbuf_free
 858              	.LVL75:
1162:Middlewares/Third_Party/LwIP/src/core/ipv4/etharp.c ****   p = NULL;
 859              		.loc 1 1162 3 discriminator 3 view .LVU245
1163:Middlewares/Third_Party/LwIP/src/core/ipv4/etharp.c ****   /* could not allocate pbuf for ARP request */
1164:Middlewares/Third_Party/LwIP/src/core/ipv4/etharp.c **** 
1165:Middlewares/Third_Party/LwIP/src/core/ipv4/etharp.c ****   return result;
 860              		.loc 1 1165 3 discriminator 3 view .LVU246
 861              		.loc 1 1165 10 is_stmt 0 discriminator 3 view .LVU247
 862 0094 2846     		mov	r0, r5
 863              	.LVL76:
 864              	.L59:
1166:Middlewares/Third_Party/LwIP/src/core/ipv4/etharp.c **** }
 865              		.loc 1 1166 1 view .LVU248
 866 0096 02B0     		add	sp, sp, #8
 867              	.LCFI11:
 868              		.cfi_remember_state
 869              		.cfi_def_cfa_offset 32
 870              		@ sp needed
 871 0098 BDE8F087 		pop	{r4, r5, r6, r7, r8, r9, r10, pc}
 872              	.LVL77:
 873              	.L64:
 874              	.LCFI12:
 875              		.cfi_restore_state
1111:Middlewares/Third_Party/LwIP/src/core/ipv4/etharp.c **** 
 876              		.loc 1 1111 3 is_stmt 1 discriminator 1 view .LVU249
1111:Middlewares/Third_Party/LwIP/src/core/ipv4/etharp.c **** 
 877              		.loc 1 1111 3 discriminator 1 view .LVU250
 878 009c 0D4B     		ldr	r3, .L67
 879              	.LVL78:
1111:Middlewares/Third_Party/LwIP/src/core/ipv4/etharp.c **** 
 880              		.loc 1 1111 3 is_stmt 0 discriminator 1 view .LVU251
 881 009e 40F25742 		movw	r2, #1111
 882              	.LVL79:
1111:Middlewares/Third_Party/LwIP/src/core/ipv4/etharp.c **** 
 883              		.loc 1 1111 3 discriminator 1 view .LVU252
 884 00a2 0D49     		ldr	r1, .L67+4
ARM GAS  C:\Users\17832\AppData\Local\Temp\ccRMKuAU.s 			page 39


 885              	.LVL80:
1111:Middlewares/Third_Party/LwIP/src/core/ipv4/etharp.c **** 
 886              		.loc 1 1111 3 discriminator 1 view .LVU253
 887 00a4 0D48     		ldr	r0, .L67+8
 888              	.LVL81:
1111:Middlewares/Third_Party/LwIP/src/core/ipv4/etharp.c **** 
 889              		.loc 1 1111 3 discriminator 1 view .LVU254
 890 00a6 FFF7FEFF 		bl	printf
 891              	.LVL82:
 892 00aa B4E7     		b	.L58
 893              	.LVL83:
 894              	.L65:
1122:Middlewares/Third_Party/LwIP/src/core/ipv4/etharp.c ****               (p->len >= SIZEOF_ETHARP_HDR));
 895              		.loc 1 1122 3 is_stmt 1 discriminator 1 view .LVU255
1122:Middlewares/Third_Party/LwIP/src/core/ipv4/etharp.c ****               (p->len >= SIZEOF_ETHARP_HDR));
 896              		.loc 1 1122 3 discriminator 1 view .LVU256
 897 00ac 094B     		ldr	r3, .L67
 898 00ae 40F26242 		movw	r2, #1122
 899 00b2 0B49     		ldr	r1, .L67+12
 900 00b4 0948     		ldr	r0, .L67+8
 901              	.LVL84:
1122:Middlewares/Third_Party/LwIP/src/core/ipv4/etharp.c ****               (p->len >= SIZEOF_ETHARP_HDR));
 902              		.loc 1 1122 3 is_stmt 0 discriminator 1 view .LVU257
 903 00b6 FFF7FEFF 		bl	printf
 904              	.LVL85:
 905 00ba B8E7     		b	.L60
 906              	.LVL86:
 907              	.L66:
1129:Middlewares/Third_Party/LwIP/src/core/ipv4/etharp.c ****               (netif->hwaddr_len == ETH_HWADDR_LEN));
 908              		.loc 1 1129 3 is_stmt 1 discriminator 1 view .LVU258
1129:Middlewares/Third_Party/LwIP/src/core/ipv4/etharp.c ****               (netif->hwaddr_len == ETH_HWADDR_LEN));
 909              		.loc 1 1129 3 discriminator 1 view .LVU259
 910 00bc 054B     		ldr	r3, .L67
 911 00be 40F26942 		movw	r2, #1129
 912 00c2 0849     		ldr	r1, .L67+16
 913 00c4 0548     		ldr	r0, .L67+8
 914 00c6 FFF7FEFF 		bl	printf
 915              	.LVL87:
 916 00ca BAE7     		b	.L61
 917              	.LVL88:
 918              	.L62:
1120:Middlewares/Third_Party/LwIP/src/core/ipv4/etharp.c ****   }
 919              		.loc 1 1120 12 is_stmt 0 view .LVU260
 920 00cc 4FF0FF30 		mov	r0, #-1
 921              	.LVL89:
1120:Middlewares/Third_Party/LwIP/src/core/ipv4/etharp.c ****   }
 922              		.loc 1 1120 12 view .LVU261
 923 00d0 E1E7     		b	.L59
 924              	.L68:
 925 00d2 00BF     		.align	2
 926              	.L67:
 927 00d4 00000000 		.word	.LC0
 928 00d8 00000000 		.word	.LC6
 929 00dc 4C000000 		.word	.LC2
 930 00e0 10000000 		.word	.LC7
 931 00e4 44000000 		.word	.LC8
 932              		.cfi_endproc
ARM GAS  C:\Users\17832\AppData\Local\Temp\ccRMKuAU.s 			page 40


 933              	.LFE167:
 935              		.section	.text.etharp_request_dst,"ax",%progbits
 936              		.align	1
 937              		.syntax unified
 938              		.thumb
 939              		.thumb_func
 941              	etharp_request_dst:
 942              	.LVL90:
 943              	.LFB168:
1167:Middlewares/Third_Party/LwIP/src/core/ipv4/etharp.c **** 
1168:Middlewares/Third_Party/LwIP/src/core/ipv4/etharp.c **** /**
1169:Middlewares/Third_Party/LwIP/src/core/ipv4/etharp.c ****  * Send an ARP request packet asking for ipaddr to a specific eth address.
1170:Middlewares/Third_Party/LwIP/src/core/ipv4/etharp.c ****  * Used to send unicast request to refresh the ARP table just before an entry
1171:Middlewares/Third_Party/LwIP/src/core/ipv4/etharp.c ****  * times out
1172:Middlewares/Third_Party/LwIP/src/core/ipv4/etharp.c ****  *
1173:Middlewares/Third_Party/LwIP/src/core/ipv4/etharp.c ****  * @param netif the lwip network interface on which to send the request
1174:Middlewares/Third_Party/LwIP/src/core/ipv4/etharp.c ****  * @param ipaddr the IP address for which to ask
1175:Middlewares/Third_Party/LwIP/src/core/ipv4/etharp.c ****  * @param hw_dst_addr the ethernet address to send this packet to
1176:Middlewares/Third_Party/LwIP/src/core/ipv4/etharp.c ****  * @return ERR_OK if the request has been sent
1177:Middlewares/Third_Party/LwIP/src/core/ipv4/etharp.c ****  *         ERR_MEM if the ARP packet couldn't be allocated
1178:Middlewares/Third_Party/LwIP/src/core/ipv4/etharp.c ****  *         any other err_t on failure
1179:Middlewares/Third_Party/LwIP/src/core/ipv4/etharp.c ****  */
1180:Middlewares/Third_Party/LwIP/src/core/ipv4/etharp.c **** static err_t
1181:Middlewares/Third_Party/LwIP/src/core/ipv4/etharp.c **** etharp_request_dst(struct netif *netif, const ip4_addr_t *ipaddr, const struct eth_addr *hw_dst_add
1182:Middlewares/Third_Party/LwIP/src/core/ipv4/etharp.c **** {
 944              		.loc 1 1182 1 is_stmt 1 view -0
 945              		.cfi_startproc
 946              		@ args = 0, pretend = 0, frame = 0
 947              		@ frame_needed = 0, uses_anonymous_args = 0
 948              		.loc 1 1182 1 is_stmt 0 view .LVU263
 949 0000 30B5     		push	{r4, r5, lr}
 950              	.LCFI13:
 951              		.cfi_def_cfa_offset 12
 952              		.cfi_offset 4, -12
 953              		.cfi_offset 5, -8
 954              		.cfi_offset 14, -4
 955 0002 85B0     		sub	sp, sp, #20
 956              	.LCFI14:
 957              		.cfi_def_cfa_offset 32
1183:Middlewares/Third_Party/LwIP/src/core/ipv4/etharp.c ****   return etharp_raw(netif, (struct eth_addr *)netif->hwaddr, hw_dst_addr,
 958              		.loc 1 1183 3 is_stmt 1 view .LVU264
 959              		.loc 1 1183 47 is_stmt 0 view .LVU265
 960 0004 00F12603 		add	r3, r0, #38
1184:Middlewares/Third_Party/LwIP/src/core/ipv4/etharp.c ****                     (struct eth_addr *)netif->hwaddr, netif_ip4_addr(netif), &ethzero,
 961              		.loc 1 1184 55 view .LVU266
 962 0008 041D     		adds	r4, r0, #4
1183:Middlewares/Third_Party/LwIP/src/core/ipv4/etharp.c ****   return etharp_raw(netif, (struct eth_addr *)netif->hwaddr, hw_dst_addr,
 963              		.loc 1 1183 10 view .LVU267
 964 000a 0125     		movs	r5, #1
 965 000c 0395     		str	r5, [sp, #12]
 966 000e 0291     		str	r1, [sp, #8]
 967 0010 0349     		ldr	r1, .L71
 968              	.LVL91:
1183:Middlewares/Third_Party/LwIP/src/core/ipv4/etharp.c ****   return etharp_raw(netif, (struct eth_addr *)netif->hwaddr, hw_dst_addr,
 969              		.loc 1 1183 10 view .LVU268
 970 0012 0191     		str	r1, [sp, #4]
 971 0014 0094     		str	r4, [sp]
ARM GAS  C:\Users\17832\AppData\Local\Temp\ccRMKuAU.s 			page 41


 972 0016 1946     		mov	r1, r3
 973 0018 FFF7FEFF 		bl	etharp_raw
 974              	.LVL92:
1185:Middlewares/Third_Party/LwIP/src/core/ipv4/etharp.c ****                     ipaddr, ARP_REQUEST);
1186:Middlewares/Third_Party/LwIP/src/core/ipv4/etharp.c **** }
 975              		.loc 1 1186 1 view .LVU269
 976 001c 05B0     		add	sp, sp, #20
 977              	.LCFI15:
 978              		.cfi_def_cfa_offset 12
 979              		@ sp needed
 980 001e 30BD     		pop	{r4, r5, pc}
 981              	.LVL93:
 982              	.L72:
 983              		.loc 1 1186 1 view .LVU270
 984              		.align	2
 985              	.L71:
 986 0020 00000000 		.word	ethzero
 987              		.cfi_endproc
 988              	.LFE168:
 990              		.section	.text.etharp_cleanup_netif,"ax",%progbits
 991              		.align	1
 992              		.global	etharp_cleanup_netif
 993              		.syntax unified
 994              		.thumb
 995              		.thumb_func
 997              	etharp_cleanup_netif:
 998              	.LVL94:
 999              	.LFB160:
 560:Middlewares/Third_Party/LwIP/src/core/ipv4/etharp.c ****   int i;
 1000              		.loc 1 560 1 is_stmt 1 view -0
 1001              		.cfi_startproc
 1002              		@ args = 0, pretend = 0, frame = 0
 1003              		@ frame_needed = 0, uses_anonymous_args = 0
 560:Middlewares/Third_Party/LwIP/src/core/ipv4/etharp.c ****   int i;
 1004              		.loc 1 560 1 is_stmt 0 view .LVU272
 1005 0000 38B5     		push	{r3, r4, r5, lr}
 1006              	.LCFI16:
 1007              		.cfi_def_cfa_offset 16
 1008              		.cfi_offset 3, -16
 1009              		.cfi_offset 4, -12
 1010              		.cfi_offset 5, -8
 1011              		.cfi_offset 14, -4
 1012 0002 0546     		mov	r5, r0
 561:Middlewares/Third_Party/LwIP/src/core/ipv4/etharp.c **** 
 1013              		.loc 1 561 3 is_stmt 1 view .LVU273
 563:Middlewares/Third_Party/LwIP/src/core/ipv4/etharp.c ****     u8_t state = arp_table[i].state;
 1014              		.loc 1 563 3 view .LVU274
 1015              	.LVL95:
 563:Middlewares/Third_Party/LwIP/src/core/ipv4/etharp.c ****     u8_t state = arp_table[i].state;
 1016              		.loc 1 563 10 is_stmt 0 view .LVU275
 1017 0004 0024     		movs	r4, #0
 563:Middlewares/Third_Party/LwIP/src/core/ipv4/etharp.c ****     u8_t state = arp_table[i].state;
 1018              		.loc 1 563 3 view .LVU276
 1019 0006 00E0     		b	.L74
 1020              	.LVL96:
 1021              	.L75:
 563:Middlewares/Third_Party/LwIP/src/core/ipv4/etharp.c ****     u8_t state = arp_table[i].state;
ARM GAS  C:\Users\17832\AppData\Local\Temp\ccRMKuAU.s 			page 42


 1022              		.loc 1 563 35 is_stmt 1 discriminator 2 view .LVU277
 1023 0008 0134     		adds	r4, r4, #1
 1024              	.LVL97:
 1025              	.L74:
 563:Middlewares/Third_Party/LwIP/src/core/ipv4/etharp.c ****     u8_t state = arp_table[i].state;
 1026              		.loc 1 563 15 discriminator 1 view .LVU278
 563:Middlewares/Third_Party/LwIP/src/core/ipv4/etharp.c ****     u8_t state = arp_table[i].state;
 1027              		.loc 1 563 3 is_stmt 0 discriminator 1 view .LVU279
 1028 000a 092C     		cmp	r4, #9
 1029 000c 12DC     		bgt	.L78
 1030              	.LBB6:
 564:Middlewares/Third_Party/LwIP/src/core/ipv4/etharp.c ****     if ((state != ETHARP_STATE_EMPTY) && (arp_table[i].netif == netif)) {
 1031              		.loc 1 564 5 is_stmt 1 view .LVU280
 564:Middlewares/Third_Party/LwIP/src/core/ipv4/etharp.c ****     if ((state != ETHARP_STATE_EMPTY) && (arp_table[i].netif == netif)) {
 1032              		.loc 1 564 10 is_stmt 0 view .LVU281
 1033 000e 04EB4403 		add	r3, r4, r4, lsl #1
 1034 0012 094A     		ldr	r2, .L79
 1035 0014 02EBC303 		add	r3, r2, r3, lsl #3
 1036 0018 1B7D     		ldrb	r3, [r3, #20]	@ zero_extendqisi2
 1037              	.LVL98:
 565:Middlewares/Third_Party/LwIP/src/core/ipv4/etharp.c ****       etharp_free_entry(i);
 1038              		.loc 1 565 5 is_stmt 1 view .LVU282
 565:Middlewares/Third_Party/LwIP/src/core/ipv4/etharp.c ****       etharp_free_entry(i);
 1039              		.loc 1 565 8 is_stmt 0 view .LVU283
 1040 001a 002B     		cmp	r3, #0
 1041 001c F4D0     		beq	.L75
 565:Middlewares/Third_Party/LwIP/src/core/ipv4/etharp.c ****       etharp_free_entry(i);
 1042              		.loc 1 565 55 discriminator 1 view .LVU284
 1043 001e 04EB4403 		add	r3, r4, r4, lsl #1
 1044              	.LVL99:
 565:Middlewares/Third_Party/LwIP/src/core/ipv4/etharp.c ****       etharp_free_entry(i);
 1045              		.loc 1 565 55 discriminator 1 view .LVU285
 1046 0022 02EBC303 		add	r3, r2, r3, lsl #3
 1047              	.LVL100:
 565:Middlewares/Third_Party/LwIP/src/core/ipv4/etharp.c ****       etharp_free_entry(i);
 1048              		.loc 1 565 55 discriminator 1 view .LVU286
 1049 0026 9B68     		ldr	r3, [r3, #8]
 1050              	.LVL101:
 565:Middlewares/Third_Party/LwIP/src/core/ipv4/etharp.c ****       etharp_free_entry(i);
 1051              		.loc 1 565 39 discriminator 1 view .LVU287
 1052 0028 AB42     		cmp	r3, r5
 1053 002a EDD1     		bne	.L75
 566:Middlewares/Third_Party/LwIP/src/core/ipv4/etharp.c ****     }
 1054              		.loc 1 566 7 is_stmt 1 view .LVU288
 1055 002c 2046     		mov	r0, r4
 1056 002e FFF7FEFF 		bl	etharp_free_entry
 1057              	.LVL102:
 566:Middlewares/Third_Party/LwIP/src/core/ipv4/etharp.c ****     }
 1058              		.loc 1 566 7 is_stmt 0 view .LVU289
 1059 0032 E9E7     		b	.L75
 1060              	.L78:
 566:Middlewares/Third_Party/LwIP/src/core/ipv4/etharp.c ****     }
 1061              		.loc 1 566 7 view .LVU290
 1062              	.LBE6:
 569:Middlewares/Third_Party/LwIP/src/core/ipv4/etharp.c **** 
 1063              		.loc 1 569 1 view .LVU291
 1064 0034 38BD     		pop	{r3, r4, r5, pc}
ARM GAS  C:\Users\17832\AppData\Local\Temp\ccRMKuAU.s 			page 43


 1065              	.LVL103:
 1066              	.L80:
 569:Middlewares/Third_Party/LwIP/src/core/ipv4/etharp.c **** 
 1067              		.loc 1 569 1 view .LVU292
 1068 0036 00BF     		.align	2
 1069              	.L79:
 1070 0038 00000000 		.word	.LANCHOR0
 1071              		.cfi_endproc
 1072              	.LFE160:
 1074              		.section	.rodata.etharp_find_addr.str1.4,"aMS",%progbits,1
 1075              		.align	2
 1076              	.LC9:
 1077 0000 6574685F 		.ascii	"eth_ret != NULL && ip_ret != NULL\000"
 1077      72657420 
 1077      213D204E 
 1077      554C4C20 
 1077      26262069 
 1078              		.section	.text.etharp_find_addr,"ax",%progbits
 1079              		.align	1
 1080              		.global	etharp_find_addr
 1081              		.syntax unified
 1082              		.thumb
 1083              		.thumb_func
 1085              	etharp_find_addr:
 1086              	.LVL104:
 1087              	.LFB161:
 585:Middlewares/Third_Party/LwIP/src/core/ipv4/etharp.c ****   s16_t i;
 1088              		.loc 1 585 1 is_stmt 1 view -0
 1089              		.cfi_startproc
 1090              		@ args = 0, pretend = 0, frame = 0
 1091              		@ frame_needed = 0, uses_anonymous_args = 0
 585:Middlewares/Third_Party/LwIP/src/core/ipv4/etharp.c ****   s16_t i;
 1092              		.loc 1 585 1 is_stmt 0 view .LVU294
 1093 0000 F8B5     		push	{r3, r4, r5, r6, r7, lr}
 1094              	.LCFI17:
 1095              		.cfi_def_cfa_offset 24
 1096              		.cfi_offset 3, -24
 1097              		.cfi_offset 4, -20
 1098              		.cfi_offset 5, -16
 1099              		.cfi_offset 6, -12
 1100              		.cfi_offset 7, -8
 1101              		.cfi_offset 14, -4
 1102 0002 0746     		mov	r7, r0
 1103 0004 0E46     		mov	r6, r1
 1104 0006 1C46     		mov	r4, r3
 586:Middlewares/Third_Party/LwIP/src/core/ipv4/etharp.c **** 
 1105              		.loc 1 586 3 is_stmt 1 view .LVU295
 588:Middlewares/Third_Party/LwIP/src/core/ipv4/etharp.c ****               eth_ret != NULL && ip_ret != NULL);
 1106              		.loc 1 588 3 view .LVU296
 588:Middlewares/Third_Party/LwIP/src/core/ipv4/etharp.c ****               eth_ret != NULL && ip_ret != NULL);
 1107              		.loc 1 588 3 view .LVU297
 1108 0008 1546     		mov	r5, r2
 1109 000a FAB1     		cbz	r2, .L82
 588:Middlewares/Third_Party/LwIP/src/core/ipv4/etharp.c ****               eth_ret != NULL && ip_ret != NULL);
 1110              		.loc 1 588 3 is_stmt 0 discriminator 2 view .LVU298
 1111 000c F3B1     		cbz	r3, .L82
 1112              	.LVL105:
ARM GAS  C:\Users\17832\AppData\Local\Temp\ccRMKuAU.s 			page 44


 1113              	.L83:
 588:Middlewares/Third_Party/LwIP/src/core/ipv4/etharp.c ****               eth_ret != NULL && ip_ret != NULL);
 1114              		.loc 1 588 3 is_stmt 1 discriminator 5 view .LVU299
 588:Middlewares/Third_Party/LwIP/src/core/ipv4/etharp.c ****               eth_ret != NULL && ip_ret != NULL);
 1115              		.loc 1 588 3 discriminator 5 view .LVU300
 591:Middlewares/Third_Party/LwIP/src/core/ipv4/etharp.c **** 
 1116              		.loc 1 591 3 discriminator 5 view .LVU301
 593:Middlewares/Third_Party/LwIP/src/core/ipv4/etharp.c ****   if ((i >= 0) && (arp_table[i].state >= ETHARP_STATE_STABLE)) {
 1117              		.loc 1 593 3 discriminator 5 view .LVU302
 593:Middlewares/Third_Party/LwIP/src/core/ipv4/etharp.c ****   if ((i >= 0) && (arp_table[i].state >= ETHARP_STATE_STABLE)) {
 1118              		.loc 1 593 7 is_stmt 0 discriminator 5 view .LVU303
 1119 000e 3A46     		mov	r2, r7
 1120 0010 0221     		movs	r1, #2
 1121 0012 3046     		mov	r0, r6
 1122 0014 FFF7FEFF 		bl	etharp_find_entry
 1123              	.LVL106:
 594:Middlewares/Third_Party/LwIP/src/core/ipv4/etharp.c ****     *eth_ret = &arp_table[i].ethaddr;
 1124              		.loc 1 594 3 is_stmt 1 discriminator 5 view .LVU304
 594:Middlewares/Third_Party/LwIP/src/core/ipv4/etharp.c ****     *eth_ret = &arp_table[i].ethaddr;
 1125              		.loc 1 594 6 is_stmt 0 discriminator 5 view .LVU305
 1126 0018 021E     		subs	r2, r0, #0
 1127 001a 1FDB     		blt	.L85
 594:Middlewares/Third_Party/LwIP/src/core/ipv4/etharp.c ****     *eth_ret = &arp_table[i].ethaddr;
 1128              		.loc 1 594 32 discriminator 1 view .LVU306
 1129 001c 1046     		mov	r0, r2
 1130              	.LVL107:
 594:Middlewares/Third_Party/LwIP/src/core/ipv4/etharp.c ****     *eth_ret = &arp_table[i].ethaddr;
 1131              		.loc 1 594 32 discriminator 1 view .LVU307
 1132 001e 02EB4203 		add	r3, r2, r2, lsl #1
 1133 0022 1149     		ldr	r1, .L88
 1134 0024 01EBC303 		add	r3, r1, r3, lsl #3
 1135 0028 1B7D     		ldrb	r3, [r3, #20]	@ zero_extendqisi2
 594:Middlewares/Third_Party/LwIP/src/core/ipv4/etharp.c ****     *eth_ret = &arp_table[i].ethaddr;
 1136              		.loc 1 594 16 discriminator 1 view .LVU308
 1137 002a 012B     		cmp	r3, #1
 1138 002c 19D9     		bls	.L86
 595:Middlewares/Third_Party/LwIP/src/core/ipv4/etharp.c ****     *ip_ret = &arp_table[i].ipaddr;
 1139              		.loc 1 595 5 is_stmt 1 view .LVU309
 595:Middlewares/Third_Party/LwIP/src/core/ipv4/etharp.c ****     *ip_ret = &arp_table[i].ipaddr;
 1140              		.loc 1 595 16 is_stmt 0 view .LVU310
 1141 002e 0B46     		mov	r3, r1
 1142 0030 02EB4201 		add	r1, r2, r2, lsl #1
 1143 0034 C900     		lsls	r1, r1, #3
 1144 0036 0831     		adds	r1, r1, #8
 1145 0038 1944     		add	r1, r1, r3
 1146 003a 0431     		adds	r1, r1, #4
 595:Middlewares/Third_Party/LwIP/src/core/ipv4/etharp.c ****     *ip_ret = &arp_table[i].ipaddr;
 1147              		.loc 1 595 14 view .LVU311
 1148 003c 2960     		str	r1, [r5]
 596:Middlewares/Third_Party/LwIP/src/core/ipv4/etharp.c ****     return i;
 1149              		.loc 1 596 5 is_stmt 1 view .LVU312
 596:Middlewares/Third_Party/LwIP/src/core/ipv4/etharp.c ****     return i;
 1150              		.loc 1 596 15 is_stmt 0 view .LVU313
 1151 003e 02EB4202 		add	r2, r2, r2, lsl #1
 1152 0042 03EBC202 		add	r2, r3, r2, lsl #3
 1153 0046 0432     		adds	r2, r2, #4
 596:Middlewares/Third_Party/LwIP/src/core/ipv4/etharp.c ****     return i;
ARM GAS  C:\Users\17832\AppData\Local\Temp\ccRMKuAU.s 			page 45


 1154              		.loc 1 596 13 view .LVU314
 1155 0048 2260     		str	r2, [r4]
 597:Middlewares/Third_Party/LwIP/src/core/ipv4/etharp.c ****   }
 1156              		.loc 1 597 5 is_stmt 1 view .LVU315
 1157              	.L81:
 600:Middlewares/Third_Party/LwIP/src/core/ipv4/etharp.c **** 
 1158              		.loc 1 600 1 is_stmt 0 view .LVU316
 1159 004a F8BD     		pop	{r3, r4, r5, r6, r7, pc}
 1160              	.LVL108:
 1161              	.L82:
 588:Middlewares/Third_Party/LwIP/src/core/ipv4/etharp.c ****               eth_ret != NULL && ip_ret != NULL);
 1162              		.loc 1 588 3 is_stmt 1 discriminator 3 view .LVU317
 588:Middlewares/Third_Party/LwIP/src/core/ipv4/etharp.c ****               eth_ret != NULL && ip_ret != NULL);
 1163              		.loc 1 588 3 discriminator 3 view .LVU318
 1164 004c 074B     		ldr	r3, .L88+4
 1165              	.LVL109:
 588:Middlewares/Third_Party/LwIP/src/core/ipv4/etharp.c ****               eth_ret != NULL && ip_ret != NULL);
 1166              		.loc 1 588 3 is_stmt 0 discriminator 3 view .LVU319
 1167 004e 4FF41372 		mov	r2, #588
 1168              	.LVL110:
 588:Middlewares/Third_Party/LwIP/src/core/ipv4/etharp.c ****               eth_ret != NULL && ip_ret != NULL);
 1169              		.loc 1 588 3 discriminator 3 view .LVU320
 1170 0052 0749     		ldr	r1, .L88+8
 1171              	.LVL111:
 588:Middlewares/Third_Party/LwIP/src/core/ipv4/etharp.c ****               eth_ret != NULL && ip_ret != NULL);
 1172              		.loc 1 588 3 discriminator 3 view .LVU321
 1173 0054 0748     		ldr	r0, .L88+12
 1174              	.LVL112:
 588:Middlewares/Third_Party/LwIP/src/core/ipv4/etharp.c ****               eth_ret != NULL && ip_ret != NULL);
 1175              		.loc 1 588 3 discriminator 3 view .LVU322
 1176 0056 FFF7FEFF 		bl	printf
 1177              	.LVL113:
 1178 005a D8E7     		b	.L83
 1179              	.LVL114:
 1180              	.L85:
 599:Middlewares/Third_Party/LwIP/src/core/ipv4/etharp.c **** }
 1181              		.loc 1 599 10 view .LVU323
 1182 005c 4FF0FF30 		mov	r0, #-1
 1183              	.LVL115:
 599:Middlewares/Third_Party/LwIP/src/core/ipv4/etharp.c **** }
 1184              		.loc 1 599 10 view .LVU324
 1185 0060 F3E7     		b	.L81
 1186              	.L86:
 1187 0062 4FF0FF30 		mov	r0, #-1
 1188 0066 F0E7     		b	.L81
 1189              	.L89:
 1190              		.align	2
 1191              	.L88:
 1192 0068 00000000 		.word	.LANCHOR0
 1193 006c 00000000 		.word	.LC0
 1194 0070 00000000 		.word	.LC9
 1195 0074 4C000000 		.word	.LC2
 1196              		.cfi_endproc
 1197              	.LFE161:
 1199              		.section	.rodata.etharp_get_entry.str1.4,"aMS",%progbits,1
 1200              		.align	2
 1201              	.LC10:
ARM GAS  C:\Users\17832\AppData\Local\Temp\ccRMKuAU.s 			page 46


 1202 0000 69706164 		.ascii	"ipaddr != NULL\000"
 1202      64722021 
 1202      3D204E55 
 1202      4C4C00
 1203 000f 00       		.align	2
 1204              	.LC11:
 1205 0010 6574685F 		.ascii	"eth_ret != NULL\000"
 1205      72657420 
 1205      213D204E 
 1205      554C4C00 
 1206              		.section	.text.etharp_get_entry,"ax",%progbits
 1207              		.align	1
 1208              		.global	etharp_get_entry
 1209              		.syntax unified
 1210              		.thumb
 1211              		.thumb_func
 1213              	etharp_get_entry:
 1214              	.LVL116:
 1215              	.LFB162:
 613:Middlewares/Third_Party/LwIP/src/core/ipv4/etharp.c ****   LWIP_ASSERT("ipaddr != NULL", ipaddr != NULL);
 1216              		.loc 1 613 1 is_stmt 1 view -0
 1217              		.cfi_startproc
 1218              		@ args = 0, pretend = 0, frame = 0
 1219              		@ frame_needed = 0, uses_anonymous_args = 0
 613:Middlewares/Third_Party/LwIP/src/core/ipv4/etharp.c ****   LWIP_ASSERT("ipaddr != NULL", ipaddr != NULL);
 1220              		.loc 1 613 1 is_stmt 0 view .LVU326
 1221 0000 F8B5     		push	{r3, r4, r5, r6, r7, lr}
 1222              	.LCFI18:
 1223              		.cfi_def_cfa_offset 24
 1224              		.cfi_offset 3, -24
 1225              		.cfi_offset 4, -20
 1226              		.cfi_offset 5, -16
 1227              		.cfi_offset 6, -12
 1228              		.cfi_offset 7, -8
 1229              		.cfi_offset 14, -4
 1230 0002 0446     		mov	r4, r0
 1231 0004 1646     		mov	r6, r2
 1232 0006 1D46     		mov	r5, r3
 614:Middlewares/Third_Party/LwIP/src/core/ipv4/etharp.c ****   LWIP_ASSERT("netif != NULL", netif != NULL);
 1233              		.loc 1 614 3 is_stmt 1 view .LVU327
 614:Middlewares/Third_Party/LwIP/src/core/ipv4/etharp.c ****   LWIP_ASSERT("netif != NULL", netif != NULL);
 1234              		.loc 1 614 3 view .LVU328
 1235 0008 0F46     		mov	r7, r1
 1236 000a E9B1     		cbz	r1, .L98
 1237              	.LVL117:
 1238              	.L91:
 614:Middlewares/Third_Party/LwIP/src/core/ipv4/etharp.c ****   LWIP_ASSERT("netif != NULL", netif != NULL);
 1239              		.loc 1 614 3 discriminator 3 view .LVU329
 614:Middlewares/Third_Party/LwIP/src/core/ipv4/etharp.c ****   LWIP_ASSERT("netif != NULL", netif != NULL);
 1240              		.loc 1 614 3 discriminator 3 view .LVU330
 615:Middlewares/Third_Party/LwIP/src/core/ipv4/etharp.c ****   LWIP_ASSERT("eth_ret != NULL", eth_ret != NULL);
 1241              		.loc 1 615 3 discriminator 3 view .LVU331
 615:Middlewares/Third_Party/LwIP/src/core/ipv4/etharp.c ****   LWIP_ASSERT("eth_ret != NULL", eth_ret != NULL);
 1242              		.loc 1 615 3 discriminator 3 view .LVU332
 1243 000c 26B3     		cbz	r6, .L99
 1244              	.L92:
 615:Middlewares/Third_Party/LwIP/src/core/ipv4/etharp.c ****   LWIP_ASSERT("eth_ret != NULL", eth_ret != NULL);
ARM GAS  C:\Users\17832\AppData\Local\Temp\ccRMKuAU.s 			page 47


 1245              		.loc 1 615 3 discriminator 3 view .LVU333
 615:Middlewares/Third_Party/LwIP/src/core/ipv4/etharp.c ****   LWIP_ASSERT("eth_ret != NULL", eth_ret != NULL);
 1246              		.loc 1 615 3 discriminator 3 view .LVU334
 616:Middlewares/Third_Party/LwIP/src/core/ipv4/etharp.c **** 
 1247              		.loc 1 616 3 discriminator 3 view .LVU335
 616:Middlewares/Third_Party/LwIP/src/core/ipv4/etharp.c **** 
 1248              		.loc 1 616 3 discriminator 3 view .LVU336
 1249 000e 5DB3     		cbz	r5, .L100
 1250              	.L93:
 616:Middlewares/Third_Party/LwIP/src/core/ipv4/etharp.c **** 
 1251              		.loc 1 616 3 discriminator 3 view .LVU337
 616:Middlewares/Third_Party/LwIP/src/core/ipv4/etharp.c **** 
 1252              		.loc 1 616 3 discriminator 3 view .LVU338
 618:Middlewares/Third_Party/LwIP/src/core/ipv4/etharp.c ****     *ipaddr  = &arp_table[i].ipaddr;
 1253              		.loc 1 618 3 discriminator 3 view .LVU339
 618:Middlewares/Third_Party/LwIP/src/core/ipv4/etharp.c ****     *ipaddr  = &arp_table[i].ipaddr;
 1254              		.loc 1 618 6 is_stmt 0 discriminator 3 view .LVU340
 1255 0010 092C     		cmp	r4, #9
 1256 0012 31D8     		bhi	.L95
 618:Middlewares/Third_Party/LwIP/src/core/ipv4/etharp.c ****     *ipaddr  = &arp_table[i].ipaddr;
 1257              		.loc 1 618 44 discriminator 1 view .LVU341
 1258 0014 04EB4403 		add	r3, r4, r4, lsl #1
 1259 0018 194A     		ldr	r2, .L101
 1260 001a 02EBC303 		add	r3, r2, r3, lsl #3
 1261 001e 1B7D     		ldrb	r3, [r3, #20]	@ zero_extendqisi2
 618:Middlewares/Third_Party/LwIP/src/core/ipv4/etharp.c ****     *ipaddr  = &arp_table[i].ipaddr;
 1262              		.loc 1 618 28 discriminator 1 view .LVU342
 1263 0020 012B     		cmp	r3, #1
 1264 0022 2BD9     		bls	.L96
 619:Middlewares/Third_Party/LwIP/src/core/ipv4/etharp.c ****     *netif   = arp_table[i].netif;
 1265              		.loc 1 619 5 is_stmt 1 view .LVU343
 619:Middlewares/Third_Party/LwIP/src/core/ipv4/etharp.c ****     *netif   = arp_table[i].netif;
 1266              		.loc 1 619 16 is_stmt 0 view .LVU344
 1267 0024 1346     		mov	r3, r2
 1268 0026 04EB4402 		add	r2, r4, r4, lsl #1
 1269 002a 03EBC202 		add	r2, r3, r2, lsl #3
 1270 002e 111D     		adds	r1, r2, #4
 619:Middlewares/Third_Party/LwIP/src/core/ipv4/etharp.c ****     *netif   = arp_table[i].netif;
 1271              		.loc 1 619 14 view .LVU345
 1272 0030 3960     		str	r1, [r7]
 620:Middlewares/Third_Party/LwIP/src/core/ipv4/etharp.c ****     *eth_ret = &arp_table[i].ethaddr;
 1273              		.loc 1 620 5 is_stmt 1 view .LVU346
 620:Middlewares/Third_Party/LwIP/src/core/ipv4/etharp.c ****     *eth_ret = &arp_table[i].ethaddr;
 1274              		.loc 1 620 28 is_stmt 0 view .LVU347
 1275 0032 9268     		ldr	r2, [r2, #8]
 620:Middlewares/Third_Party/LwIP/src/core/ipv4/etharp.c ****     *eth_ret = &arp_table[i].ethaddr;
 1276              		.loc 1 620 14 view .LVU348
 1277 0034 3260     		str	r2, [r6]
 621:Middlewares/Third_Party/LwIP/src/core/ipv4/etharp.c ****     return 1;
 1278              		.loc 1 621 5 is_stmt 1 view .LVU349
 621:Middlewares/Third_Party/LwIP/src/core/ipv4/etharp.c ****     return 1;
 1279              		.loc 1 621 16 is_stmt 0 view .LVU350
 1280 0036 04EB4404 		add	r4, r4, r4, lsl #1
 1281              	.LVL118:
 621:Middlewares/Third_Party/LwIP/src/core/ipv4/etharp.c ****     return 1;
 1282              		.loc 1 621 16 view .LVU351
 1283 003a E400     		lsls	r4, r4, #3
ARM GAS  C:\Users\17832\AppData\Local\Temp\ccRMKuAU.s 			page 48


 1284 003c 0834     		adds	r4, r4, #8
 1285 003e 2344     		add	r3, r3, r4
 1286 0040 0433     		adds	r3, r3, #4
 621:Middlewares/Third_Party/LwIP/src/core/ipv4/etharp.c ****     return 1;
 1287              		.loc 1 621 14 view .LVU352
 1288 0042 2B60     		str	r3, [r5]
 622:Middlewares/Third_Party/LwIP/src/core/ipv4/etharp.c ****   } else {
 1289              		.loc 1 622 5 is_stmt 1 view .LVU353
 622:Middlewares/Third_Party/LwIP/src/core/ipv4/etharp.c ****   } else {
 1290              		.loc 1 622 12 is_stmt 0 view .LVU354
 1291 0044 0120     		movs	r0, #1
 1292              	.L90:
 626:Middlewares/Third_Party/LwIP/src/core/ipv4/etharp.c **** 
 1293              		.loc 1 626 1 view .LVU355
 1294 0046 F8BD     		pop	{r3, r4, r5, r6, r7, pc}
 1295              	.LVL119:
 1296              	.L98:
 614:Middlewares/Third_Party/LwIP/src/core/ipv4/etharp.c ****   LWIP_ASSERT("netif != NULL", netif != NULL);
 1297              		.loc 1 614 3 is_stmt 1 discriminator 1 view .LVU356
 614:Middlewares/Third_Party/LwIP/src/core/ipv4/etharp.c ****   LWIP_ASSERT("netif != NULL", netif != NULL);
 1298              		.loc 1 614 3 discriminator 1 view .LVU357
 1299 0048 0E4B     		ldr	r3, .L101+4
 1300              	.LVL120:
 614:Middlewares/Third_Party/LwIP/src/core/ipv4/etharp.c ****   LWIP_ASSERT("netif != NULL", netif != NULL);
 1301              		.loc 1 614 3 is_stmt 0 discriminator 1 view .LVU358
 1302 004a 40F26622 		movw	r2, #614
 1303              	.LVL121:
 614:Middlewares/Third_Party/LwIP/src/core/ipv4/etharp.c ****   LWIP_ASSERT("netif != NULL", netif != NULL);
 1304              		.loc 1 614 3 discriminator 1 view .LVU359
 1305 004e 0E49     		ldr	r1, .L101+8
 1306              	.LVL122:
 614:Middlewares/Third_Party/LwIP/src/core/ipv4/etharp.c ****   LWIP_ASSERT("netif != NULL", netif != NULL);
 1307              		.loc 1 614 3 discriminator 1 view .LVU360
 1308 0050 0E48     		ldr	r0, .L101+12
 1309              	.LVL123:
 614:Middlewares/Third_Party/LwIP/src/core/ipv4/etharp.c ****   LWIP_ASSERT("netif != NULL", netif != NULL);
 1310              		.loc 1 614 3 discriminator 1 view .LVU361
 1311 0052 FFF7FEFF 		bl	printf
 1312              	.LVL124:
 1313 0056 D9E7     		b	.L91
 1314              	.L99:
 615:Middlewares/Third_Party/LwIP/src/core/ipv4/etharp.c ****   LWIP_ASSERT("eth_ret != NULL", eth_ret != NULL);
 1315              		.loc 1 615 3 is_stmt 1 discriminator 1 view .LVU362
 615:Middlewares/Third_Party/LwIP/src/core/ipv4/etharp.c ****   LWIP_ASSERT("eth_ret != NULL", eth_ret != NULL);
 1316              		.loc 1 615 3 discriminator 1 view .LVU363
 1317 0058 0A4B     		ldr	r3, .L101+4
 1318 005a 40F26722 		movw	r2, #615
 1319 005e 0C49     		ldr	r1, .L101+16
 1320 0060 0A48     		ldr	r0, .L101+12
 1321 0062 FFF7FEFF 		bl	printf
 1322              	.LVL125:
 1323 0066 D2E7     		b	.L92
 1324              	.L100:
 616:Middlewares/Third_Party/LwIP/src/core/ipv4/etharp.c **** 
 1325              		.loc 1 616 3 discriminator 1 view .LVU364
 616:Middlewares/Third_Party/LwIP/src/core/ipv4/etharp.c **** 
 1326              		.loc 1 616 3 discriminator 1 view .LVU365
ARM GAS  C:\Users\17832\AppData\Local\Temp\ccRMKuAU.s 			page 49


 1327 0068 064B     		ldr	r3, .L101+4
 1328 006a 4FF41A72 		mov	r2, #616
 1329 006e 0949     		ldr	r1, .L101+20
 1330 0070 0648     		ldr	r0, .L101+12
 1331 0072 FFF7FEFF 		bl	printf
 1332              	.LVL126:
 1333 0076 CBE7     		b	.L93
 1334              	.L95:
 624:Middlewares/Third_Party/LwIP/src/core/ipv4/etharp.c ****   }
 1335              		.loc 1 624 12 is_stmt 0 view .LVU366
 1336 0078 0020     		movs	r0, #0
 1337 007a E4E7     		b	.L90
 1338              	.L96:
 1339 007c 0020     		movs	r0, #0
 1340 007e E2E7     		b	.L90
 1341              	.L102:
 1342              		.align	2
 1343              	.L101:
 1344 0080 00000000 		.word	.LANCHOR0
 1345 0084 00000000 		.word	.LC0
 1346 0088 00000000 		.word	.LC10
 1347 008c 4C000000 		.word	.LC2
 1348 0090 00000000 		.word	.LC6
 1349 0094 10000000 		.word	.LC11
 1350              		.cfi_endproc
 1351              	.LFE162:
 1353              		.section	.text.etharp_input,"ax",%progbits
 1354              		.align	1
 1355              		.global	etharp_input
 1356              		.syntax unified
 1357              		.thumb
 1358              		.thumb_func
 1360              	etharp_input:
 1361              	.LVL127:
 1362              	.LFB163:
 642:Middlewares/Third_Party/LwIP/src/core/ipv4/etharp.c ****   struct etharp_hdr *hdr;
 1363              		.loc 1 642 1 is_stmt 1 view -0
 1364              		.cfi_startproc
 1365              		@ args = 0, pretend = 0, frame = 8
 1366              		@ frame_needed = 0, uses_anonymous_args = 0
 642:Middlewares/Third_Party/LwIP/src/core/ipv4/etharp.c ****   struct etharp_hdr *hdr;
 1367              		.loc 1 642 1 is_stmt 0 view .LVU368
 1368 0000 2DE9F041 		push	{r4, r5, r6, r7, r8, lr}
 1369              	.LCFI19:
 1370              		.cfi_def_cfa_offset 24
 1371              		.cfi_offset 4, -24
 1372              		.cfi_offset 5, -20
 1373              		.cfi_offset 6, -16
 1374              		.cfi_offset 7, -12
 1375              		.cfi_offset 8, -8
 1376              		.cfi_offset 14, -4
 1377 0004 86B0     		sub	sp, sp, #24
 1378              	.LCFI20:
 1379              		.cfi_def_cfa_offset 48
 643:Middlewares/Third_Party/LwIP/src/core/ipv4/etharp.c ****   /* these are aligned properly, whereas the ARP header fields might not be */
 1380              		.loc 1 643 3 is_stmt 1 view .LVU369
 645:Middlewares/Third_Party/LwIP/src/core/ipv4/etharp.c ****   u8_t for_us;
ARM GAS  C:\Users\17832\AppData\Local\Temp\ccRMKuAU.s 			page 50


 1381              		.loc 1 645 3 view .LVU370
 646:Middlewares/Third_Party/LwIP/src/core/ipv4/etharp.c **** 
 1382              		.loc 1 646 3 view .LVU371
 648:Middlewares/Third_Party/LwIP/src/core/ipv4/etharp.c **** 
 1383              		.loc 1 648 28 view .LVU372
 650:Middlewares/Third_Party/LwIP/src/core/ipv4/etharp.c **** 
 1384              		.loc 1 650 3 view .LVU373
 650:Middlewares/Third_Party/LwIP/src/core/ipv4/etharp.c **** 
 1385              		.loc 1 650 3 view .LVU374
 1386 0006 A9B1     		cbz	r1, .L114
 1387 0008 0446     		mov	r4, r0
 1388 000a 0E46     		mov	r6, r1
 650:Middlewares/Third_Party/LwIP/src/core/ipv4/etharp.c **** 
 1389              		.loc 1 650 3 discriminator 2 view .LVU375
 650:Middlewares/Third_Party/LwIP/src/core/ipv4/etharp.c **** 
 1390              		.loc 1 650 3 discriminator 2 view .LVU376
 652:Middlewares/Third_Party/LwIP/src/core/ipv4/etharp.c **** 
 1391              		.loc 1 652 3 discriminator 2 view .LVU377
 652:Middlewares/Third_Party/LwIP/src/core/ipv4/etharp.c **** 
 1392              		.loc 1 652 7 is_stmt 0 discriminator 2 view .LVU378
 1393 000c 4568     		ldr	r5, [r0, #4]
 1394              	.LVL128:
 655:Middlewares/Third_Party/LwIP/src/core/ipv4/etharp.c ****       (hdr->hwlen != ETH_HWADDR_LEN) ||
 1395              		.loc 1 655 3 is_stmt 1 discriminator 2 view .LVU379
 655:Middlewares/Third_Party/LwIP/src/core/ipv4/etharp.c ****       (hdr->hwlen != ETH_HWADDR_LEN) ||
 1396              		.loc 1 655 11 is_stmt 0 discriminator 2 view .LVU380
 1397 000e 2B88     		ldrh	r3, [r5]	@ unaligned
 655:Middlewares/Third_Party/LwIP/src/core/ipv4/etharp.c ****       (hdr->hwlen != ETH_HWADDR_LEN) ||
 1398              		.loc 1 655 6 discriminator 2 view .LVU381
 1399 0010 B3F5807F 		cmp	r3, #256
 1400 0014 08D1     		bne	.L106
 656:Middlewares/Third_Party/LwIP/src/core/ipv4/etharp.c ****       (hdr->protolen != sizeof(ip4_addr_t)) ||
 1401              		.loc 1 656 11 discriminator 1 view .LVU382
 1402 0016 2B79     		ldrb	r3, [r5, #4]	@ zero_extendqisi2
 655:Middlewares/Third_Party/LwIP/src/core/ipv4/etharp.c ****       (hdr->hwlen != ETH_HWADDR_LEN) ||
 1403              		.loc 1 655 60 discriminator 1 view .LVU383
 1404 0018 062B     		cmp	r3, #6
 1405 001a 05D1     		bne	.L106
 657:Middlewares/Third_Party/LwIP/src/core/ipv4/etharp.c ****       (hdr->proto != PP_HTONS(ETHTYPE_IP)))  {
 1406              		.loc 1 657 11 view .LVU384
 1407 001c 6B79     		ldrb	r3, [r5, #5]	@ zero_extendqisi2
 656:Middlewares/Third_Party/LwIP/src/core/ipv4/etharp.c ****       (hdr->protolen != sizeof(ip4_addr_t)) ||
 1408              		.loc 1 656 38 view .LVU385
 1409 001e 042B     		cmp	r3, #4
 1410 0020 02D1     		bne	.L106
 658:Middlewares/Third_Party/LwIP/src/core/ipv4/etharp.c ****     LWIP_DEBUGF(ETHARP_DEBUG | LWIP_DBG_TRACE | LWIP_DBG_LEVEL_WARNING,
 1411              		.loc 1 658 11 view .LVU386
 1412 0022 6B88     		ldrh	r3, [r5, #2]	@ unaligned
 657:Middlewares/Third_Party/LwIP/src/core/ipv4/etharp.c ****       (hdr->proto != PP_HTONS(ETHTYPE_IP)))  {
 1413              		.loc 1 657 45 view .LVU387
 1414 0024 082B     		cmp	r3, #8
 1415 0026 0DD0     		beq	.L107
 1416              	.L106:
 661:Middlewares/Third_Party/LwIP/src/core/ipv4/etharp.c ****     ETHARP_STATS_INC(etharp.proterr);
 1417              		.loc 1 661 84 is_stmt 1 view .LVU388
 662:Middlewares/Third_Party/LwIP/src/core/ipv4/etharp.c ****     ETHARP_STATS_INC(etharp.drop);
 1418              		.loc 1 662 37 view .LVU389
ARM GAS  C:\Users\17832\AppData\Local\Temp\ccRMKuAU.s 			page 51


 663:Middlewares/Third_Party/LwIP/src/core/ipv4/etharp.c ****     pbuf_free(p);
 1419              		.loc 1 663 34 view .LVU390
 664:Middlewares/Third_Party/LwIP/src/core/ipv4/etharp.c ****     return;
 1420              		.loc 1 664 5 view .LVU391
 1421 0028 2046     		mov	r0, r4
 1422              	.LVL129:
 664:Middlewares/Third_Party/LwIP/src/core/ipv4/etharp.c ****     return;
 1423              		.loc 1 664 5 is_stmt 0 view .LVU392
 1424 002a FFF7FEFF 		bl	pbuf_free
 1425              	.LVL130:
 665:Middlewares/Third_Party/LwIP/src/core/ipv4/etharp.c ****   }
 1426              		.loc 1 665 5 is_stmt 1 view .LVU393
 1427              	.L103:
 742:Middlewares/Third_Party/LwIP/src/core/ipv4/etharp.c **** 
 1428              		.loc 1 742 1 is_stmt 0 view .LVU394
 1429 002e 06B0     		add	sp, sp, #24
 1430              	.LCFI21:
 1431              		.cfi_remember_state
 1432              		.cfi_def_cfa_offset 24
 1433              		@ sp needed
 1434 0030 BDE8F081 		pop	{r4, r5, r6, r7, r8, pc}
 1435              	.LVL131:
 1436              	.L114:
 1437              	.LCFI22:
 1438              		.cfi_restore_state
 650:Middlewares/Third_Party/LwIP/src/core/ipv4/etharp.c **** 
 1439              		.loc 1 650 3 is_stmt 1 discriminator 1 view .LVU395
 650:Middlewares/Third_Party/LwIP/src/core/ipv4/etharp.c **** 
 1440              		.loc 1 650 3 discriminator 1 view .LVU396
 1441 0034 1D4B     		ldr	r3, .L116
 1442 0036 40F28A22 		movw	r2, #650
 1443 003a 1D49     		ldr	r1, .L116+4
 1444              	.LVL132:
 650:Middlewares/Third_Party/LwIP/src/core/ipv4/etharp.c **** 
 1445              		.loc 1 650 3 is_stmt 0 discriminator 1 view .LVU397
 1446 003c 1D48     		ldr	r0, .L116+8
 1447              	.LVL133:
 650:Middlewares/Third_Party/LwIP/src/core/ipv4/etharp.c **** 
 1448              		.loc 1 650 3 discriminator 1 view .LVU398
 1449 003e FFF7FEFF 		bl	printf
 1450              	.LVL134:
 650:Middlewares/Third_Party/LwIP/src/core/ipv4/etharp.c **** 
 1451              		.loc 1 650 3 is_stmt 1 discriminator 1 view .LVU399
 650:Middlewares/Third_Party/LwIP/src/core/ipv4/etharp.c **** 
 1452              		.loc 1 650 3 discriminator 1 view .LVU400
 1453 0042 F4E7     		b	.L103
 1454              	.LVL135:
 1455              	.L107:
 667:Middlewares/Third_Party/LwIP/src/core/ipv4/etharp.c **** 
 1456              		.loc 1 667 32 view .LVU401
 678:Middlewares/Third_Party/LwIP/src/core/ipv4/etharp.c ****   IPADDR_WORDALIGNED_COPY_TO_IP4_ADDR_T(&dipaddr, &hdr->dipaddr);
 1457              		.loc 1 678 3 view .LVU402
 1458 0044 D5F80E30 		ldr	r3, [r5, #14]	@ unaligned
 1459 0048 0593     		str	r3, [sp, #20]
 679:Middlewares/Third_Party/LwIP/src/core/ipv4/etharp.c **** 
 1460              		.loc 1 679 3 view .LVU403
 1461 004a AF69     		ldr	r7, [r5, #24]	@ unaligned
ARM GAS  C:\Users\17832\AppData\Local\Temp\ccRMKuAU.s 			page 52


 682:Middlewares/Third_Party/LwIP/src/core/ipv4/etharp.c ****     for_us = 0;
 1462              		.loc 1 682 3 view .LVU404
 682:Middlewares/Third_Party/LwIP/src/core/ipv4/etharp.c ****     for_us = 0;
 1463              		.loc 1 682 7 is_stmt 0 view .LVU405
 1464 004c 4B68     		ldr	r3, [r1, #4]
 682:Middlewares/Third_Party/LwIP/src/core/ipv4/etharp.c ****     for_us = 0;
 1465              		.loc 1 682 6 view .LVU406
 1466 004e 83B9     		cbnz	r3, .L108
 1467              	.LVL136:
 694:Middlewares/Third_Party/LwIP/src/core/ipv4/etharp.c ****                           for_us ? ETHARP_FLAG_TRY_HARD : ETHARP_FLAG_FIND_ONLY);
 1468              		.loc 1 694 3 is_stmt 1 view .LVU407
 1469 0050 05F10808 		add	r8, r5, #8
 683:Middlewares/Third_Party/LwIP/src/core/ipv4/etharp.c ****   } else {
 1470              		.loc 1 683 12 is_stmt 0 view .LVU408
 1471 0054 0027     		movs	r7, #0
 694:Middlewares/Third_Party/LwIP/src/core/ipv4/etharp.c ****                           for_us ? ETHARP_FLAG_TRY_HARD : ETHARP_FLAG_FIND_ONLY);
 1472              		.loc 1 694 3 view .LVU409
 1473 0056 0223     		movs	r3, #2
 1474              	.LVL137:
 1475              	.L109:
 694:Middlewares/Third_Party/LwIP/src/core/ipv4/etharp.c ****                           for_us ? ETHARP_FLAG_TRY_HARD : ETHARP_FLAG_FIND_ONLY);
 1476              		.loc 1 694 3 discriminator 4 view .LVU410
 1477 0058 4246     		mov	r2, r8
 1478 005a 05A9     		add	r1, sp, #20
 1479              	.LVL138:
 694:Middlewares/Third_Party/LwIP/src/core/ipv4/etharp.c ****                           for_us ? ETHARP_FLAG_TRY_HARD : ETHARP_FLAG_FIND_ONLY);
 1480              		.loc 1 694 3 discriminator 4 view .LVU411
 1481 005c 3046     		mov	r0, r6
 1482              	.LVL139:
 694:Middlewares/Third_Party/LwIP/src/core/ipv4/etharp.c ****                           for_us ? ETHARP_FLAG_TRY_HARD : ETHARP_FLAG_FIND_ONLY);
 1483              		.loc 1 694 3 discriminator 4 view .LVU412
 1484 005e FFF7FEFF 		bl	etharp_update_arp_entry
 1485              	.LVL140:
 698:Middlewares/Third_Party/LwIP/src/core/ipv4/etharp.c ****     /* ARP request? */
 1486              		.loc 1 698 3 is_stmt 1 discriminator 4 view .LVU413
 698:Middlewares/Third_Party/LwIP/src/core/ipv4/etharp.c ****     /* ARP request? */
 1487              		.loc 1 698 14 is_stmt 0 discriminator 4 view .LVU414
 1488 0062 EB88     		ldrh	r3, [r5, #6]	@ unaligned
 698:Middlewares/Third_Party/LwIP/src/core/ipv4/etharp.c ****     /* ARP request? */
 1489              		.loc 1 698 3 discriminator 4 view .LVU415
 1490 0064 B3F5807F 		cmp	r3, #256
 1491 0068 0ED0     		beq	.L115
 1492              	.L110:
 741:Middlewares/Third_Party/LwIP/src/core/ipv4/etharp.c **** }
 1493              		.loc 1 741 3 is_stmt 1 discriminator 2 view .LVU416
 1494 006a 2046     		mov	r0, r4
 1495 006c FFF7FEFF 		bl	pbuf_free
 1496              	.LVL141:
 1497 0070 DDE7     		b	.L103
 1498              	.LVL142:
 1499              	.L108:
 686:Middlewares/Third_Party/LwIP/src/core/ipv4/etharp.c ****   }
 1500              		.loc 1 686 5 view .LVU417
 686:Middlewares/Third_Party/LwIP/src/core/ipv4/etharp.c ****   }
 1501              		.loc 1 686 14 is_stmt 0 view .LVU418
 1502 0072 BB42     		cmp	r3, r7
 1503 0074 14BF     		ite	ne
ARM GAS  C:\Users\17832\AppData\Local\Temp\ccRMKuAU.s 			page 53


 1504 0076 0027     		movne	r7, #0
 1505 0078 0127     		moveq	r7, #1
 1506              	.LVL143:
 694:Middlewares/Third_Party/LwIP/src/core/ipv4/etharp.c ****                           for_us ? ETHARP_FLAG_TRY_HARD : ETHARP_FLAG_FIND_ONLY);
 1507              		.loc 1 694 3 is_stmt 1 view .LVU419
 1508 007a 05F10808 		add	r8, r5, #8
 1509 007e 0FB1     		cbz	r7, .L112
 1510 0080 0123     		movs	r3, #1
 1511 0082 E9E7     		b	.L109
 1512              	.L112:
 1513 0084 0223     		movs	r3, #2
 1514 0086 E7E7     		b	.L109
 1515              	.LVL144:
 1516              	.L115:
 705:Middlewares/Third_Party/LwIP/src/core/ipv4/etharp.c ****       /* ARP request for our address? */
 1517              		.loc 1 705 92 view .LVU420
 707:Middlewares/Third_Party/LwIP/src/core/ipv4/etharp.c ****         /* send ARP response */
 1518              		.loc 1 707 7 view .LVU421
 707:Middlewares/Third_Party/LwIP/src/core/ipv4/etharp.c ****         /* send ARP response */
 1519              		.loc 1 707 10 is_stmt 0 view .LVU422
 1520 0088 002F     		cmp	r7, #0
 1521 008a EED0     		beq	.L110
 709:Middlewares/Third_Party/LwIP/src/core/ipv4/etharp.c ****                    (struct eth_addr *)netif->hwaddr, &hdr->shwaddr,
 1522              		.loc 1 709 9 is_stmt 1 view .LVU423
 710:Middlewares/Third_Party/LwIP/src/core/ipv4/etharp.c ****                    (struct eth_addr *)netif->hwaddr, netif_ip4_addr(netif),
 1523              		.loc 1 710 39 is_stmt 0 view .LVU424
 1524 008c 06F12601 		add	r1, r6, #38
 711:Middlewares/Third_Party/LwIP/src/core/ipv4/etharp.c ****                    &hdr->shwaddr, &sipaddr,
 1525              		.loc 1 711 54 view .LVU425
 1526 0090 331D     		adds	r3, r6, #4
 709:Middlewares/Third_Party/LwIP/src/core/ipv4/etharp.c ****                    (struct eth_addr *)netif->hwaddr, &hdr->shwaddr,
 1527              		.loc 1 709 9 view .LVU426
 1528 0092 0222     		movs	r2, #2
 1529 0094 0392     		str	r2, [sp, #12]
 1530 0096 05AA     		add	r2, sp, #20
 1531 0098 0292     		str	r2, [sp, #8]
 1532 009a CDF80480 		str	r8, [sp, #4]
 1533 009e 0093     		str	r3, [sp]
 1534 00a0 0B46     		mov	r3, r1
 1535 00a2 4246     		mov	r2, r8
 1536 00a4 3046     		mov	r0, r6
 1537 00a6 FFF7FEFF 		bl	etharp_raw
 1538              	.LVL145:
 1539 00aa DEE7     		b	.L110
 1540              	.L117:
 1541              		.align	2
 1542              	.L116:
 1543 00ac 00000000 		.word	.LC0
 1544 00b0 00000000 		.word	.LC6
 1545 00b4 4C000000 		.word	.LC2
 1546              		.cfi_endproc
 1547              	.LFE163:
 1549              		.section	.text.etharp_request,"ax",%progbits
 1550              		.align	1
 1551              		.global	etharp_request
 1552              		.syntax unified
 1553              		.thumb
ARM GAS  C:\Users\17832\AppData\Local\Temp\ccRMKuAU.s 			page 54


 1554              		.thumb_func
 1556              	etharp_request:
 1557              	.LVL146:
 1558              	.LFB169:
1187:Middlewares/Third_Party/LwIP/src/core/ipv4/etharp.c **** 
1188:Middlewares/Third_Party/LwIP/src/core/ipv4/etharp.c **** /**
1189:Middlewares/Third_Party/LwIP/src/core/ipv4/etharp.c ****  * Send an ARP request packet asking for ipaddr.
1190:Middlewares/Third_Party/LwIP/src/core/ipv4/etharp.c ****  *
1191:Middlewares/Third_Party/LwIP/src/core/ipv4/etharp.c ****  * @param netif the lwip network interface on which to send the request
1192:Middlewares/Third_Party/LwIP/src/core/ipv4/etharp.c ****  * @param ipaddr the IP address for which to ask
1193:Middlewares/Third_Party/LwIP/src/core/ipv4/etharp.c ****  * @return ERR_OK if the request has been sent
1194:Middlewares/Third_Party/LwIP/src/core/ipv4/etharp.c ****  *         ERR_MEM if the ARP packet couldn't be allocated
1195:Middlewares/Third_Party/LwIP/src/core/ipv4/etharp.c ****  *         any other err_t on failure
1196:Middlewares/Third_Party/LwIP/src/core/ipv4/etharp.c ****  */
1197:Middlewares/Third_Party/LwIP/src/core/ipv4/etharp.c **** err_t
1198:Middlewares/Third_Party/LwIP/src/core/ipv4/etharp.c **** etharp_request(struct netif *netif, const ip4_addr_t *ipaddr)
1199:Middlewares/Third_Party/LwIP/src/core/ipv4/etharp.c **** {
 1559              		.loc 1 1199 1 is_stmt 1 view -0
 1560              		.cfi_startproc
 1561              		@ args = 0, pretend = 0, frame = 0
 1562              		@ frame_needed = 0, uses_anonymous_args = 0
 1563              		.loc 1 1199 1 is_stmt 0 view .LVU428
 1564 0000 08B5     		push	{r3, lr}
 1565              	.LCFI23:
 1566              		.cfi_def_cfa_offset 8
 1567              		.cfi_offset 3, -8
 1568              		.cfi_offset 14, -4
1200:Middlewares/Third_Party/LwIP/src/core/ipv4/etharp.c ****   LWIP_DEBUGF(ETHARP_DEBUG | LWIP_DBG_TRACE, ("etharp_request: sending ARP request.\n"));
 1569              		.loc 1 1200 89 is_stmt 1 view .LVU429
1201:Middlewares/Third_Party/LwIP/src/core/ipv4/etharp.c ****   return etharp_request_dst(netif, ipaddr, &ethbroadcast);
 1570              		.loc 1 1201 3 view .LVU430
 1571              		.loc 1 1201 10 is_stmt 0 view .LVU431
 1572 0002 024A     		ldr	r2, .L120
 1573 0004 FFF7FEFF 		bl	etharp_request_dst
 1574              	.LVL147:
1202:Middlewares/Third_Party/LwIP/src/core/ipv4/etharp.c **** }
 1575              		.loc 1 1202 1 view .LVU432
 1576 0008 08BD     		pop	{r3, pc}
 1577              	.L121:
 1578 000a 00BF     		.align	2
 1579              	.L120:
 1580 000c 00000000 		.word	ethbroadcast
 1581              		.cfi_endproc
 1582              	.LFE169:
 1584              		.section	.text.etharp_tmr,"ax",%progbits
 1585              		.align	1
 1586              		.global	etharp_tmr
 1587              		.syntax unified
 1588              		.thumb
 1589              		.thumb_func
 1591              	etharp_tmr:
 1592              	.LFB157:
 198:Middlewares/Third_Party/LwIP/src/core/ipv4/etharp.c ****   int i;
 1593              		.loc 1 198 1 is_stmt 1 view -0
 1594              		.cfi_startproc
 1595              		@ args = 0, pretend = 0, frame = 0
 1596              		@ frame_needed = 0, uses_anonymous_args = 0
ARM GAS  C:\Users\17832\AppData\Local\Temp\ccRMKuAU.s 			page 55


 1597 0000 10B5     		push	{r4, lr}
 1598              	.LCFI24:
 1599              		.cfi_def_cfa_offset 8
 1600              		.cfi_offset 4, -8
 1601              		.cfi_offset 14, -4
 199:Middlewares/Third_Party/LwIP/src/core/ipv4/etharp.c **** 
 1602              		.loc 1 199 3 view .LVU434
 201:Middlewares/Third_Party/LwIP/src/core/ipv4/etharp.c ****   /* remove expired entries from the ARP table */
 1603              		.loc 1 201 48 view .LVU435
 203:Middlewares/Third_Party/LwIP/src/core/ipv4/etharp.c ****     u8_t state = arp_table[i].state;
 1604              		.loc 1 203 3 view .LVU436
 1605              	.LVL148:
 203:Middlewares/Third_Party/LwIP/src/core/ipv4/etharp.c ****     u8_t state = arp_table[i].state;
 1606              		.loc 1 203 10 is_stmt 0 view .LVU437
 1607 0002 0024     		movs	r4, #0
 203:Middlewares/Third_Party/LwIP/src/core/ipv4/etharp.c ****     u8_t state = arp_table[i].state;
 1608              		.loc 1 203 3 view .LVU438
 1609 0004 05E0     		b	.L123
 1610              	.LVL149:
 1611              	.L132:
 1612              	.LBB7:
 212:Middlewares/Third_Party/LwIP/src/core/ipv4/etharp.c ****            (arp_table[i].ctime >= ARP_MAXPENDING))) {
 1613              		.loc 1 212 58 view .LVU439
 1614 0006 042B     		cmp	r3, #4
 1615 0008 1BD9     		bls	.L126
 1616              	.L125:
 216:Middlewares/Third_Party/LwIP/src/core/ipv4/etharp.c ****         /* clean up entries that have just been expired */
 1617              		.loc 1 216 105 is_stmt 1 view .LVU440
 218:Middlewares/Third_Party/LwIP/src/core/ipv4/etharp.c ****       } else if (arp_table[i].state == ETHARP_STATE_STABLE_REREQUESTING_1) {
 1618              		.loc 1 218 9 view .LVU441
 1619 000a 2046     		mov	r0, r4
 1620 000c FFF7FEFF 		bl	etharp_free_entry
 1621              	.LVL150:
 1622              	.L124:
 218:Middlewares/Third_Party/LwIP/src/core/ipv4/etharp.c ****       } else if (arp_table[i].state == ETHARP_STATE_STABLE_REREQUESTING_1) {
 1623              		.loc 1 218 9 is_stmt 0 view .LVU442
 1624              	.LBE7:
 203:Middlewares/Third_Party/LwIP/src/core/ipv4/etharp.c ****     u8_t state = arp_table[i].state;
 1625              		.loc 1 203 35 is_stmt 1 discriminator 2 view .LVU443
 1626 0010 0134     		adds	r4, r4, #1
 1627              	.LVL151:
 1628              	.L123:
 203:Middlewares/Third_Party/LwIP/src/core/ipv4/etharp.c ****     u8_t state = arp_table[i].state;
 1629              		.loc 1 203 15 discriminator 1 view .LVU444
 203:Middlewares/Third_Party/LwIP/src/core/ipv4/etharp.c ****     u8_t state = arp_table[i].state;
 1630              		.loc 1 203 3 is_stmt 0 discriminator 1 view .LVU445
 1631 0012 092C     		cmp	r4, #9
 1632 0014 35DC     		bgt	.L131
 1633              	.LBB8:
 204:Middlewares/Third_Party/LwIP/src/core/ipv4/etharp.c ****     if (state != ETHARP_STATE_EMPTY
 1634              		.loc 1 204 5 is_stmt 1 view .LVU446
 204:Middlewares/Third_Party/LwIP/src/core/ipv4/etharp.c ****     if (state != ETHARP_STATE_EMPTY
 1635              		.loc 1 204 10 is_stmt 0 view .LVU447
 1636 0016 04EB4403 		add	r3, r4, r4, lsl #1
 1637 001a DA00     		lsls	r2, r3, #3
 1638 001c 194B     		ldr	r3, .L135
 1639 001e 1344     		add	r3, r3, r2
ARM GAS  C:\Users\17832\AppData\Local\Temp\ccRMKuAU.s 			page 56


 1640 0020 1A7D     		ldrb	r2, [r3, #20]	@ zero_extendqisi2
 1641              	.LVL152:
 205:Middlewares/Third_Party/LwIP/src/core/ipv4/etharp.c **** #if ETHARP_SUPPORT_STATIC_ENTRIES
 1642              		.loc 1 205 5 is_stmt 1 view .LVU448
 205:Middlewares/Third_Party/LwIP/src/core/ipv4/etharp.c **** #if ETHARP_SUPPORT_STATIC_ENTRIES
 1643              		.loc 1 205 8 is_stmt 0 view .LVU449
 1644 0022 002A     		cmp	r2, #0
 1645 0024 F4D0     		beq	.L124
 210:Middlewares/Third_Party/LwIP/src/core/ipv4/etharp.c ****       if ((arp_table[i].ctime >= ARP_MAXAGE) ||
 1646              		.loc 1 210 7 is_stmt 1 view .LVU450
 210:Middlewares/Third_Party/LwIP/src/core/ipv4/etharp.c ****       if ((arp_table[i].ctime >= ARP_MAXAGE) ||
 1647              		.loc 1 210 19 is_stmt 0 view .LVU451
 1648 0026 04EB4401 		add	r1, r4, r4, lsl #1
 1649 002a CB00     		lsls	r3, r1, #3
 1650 002c 1549     		ldr	r1, .L135
 1651 002e 1944     		add	r1, r1, r3
 1652 0030 4B8A     		ldrh	r3, [r1, #18]
 210:Middlewares/Third_Party/LwIP/src/core/ipv4/etharp.c ****       if ((arp_table[i].ctime >= ARP_MAXAGE) ||
 1653              		.loc 1 210 25 view .LVU452
 1654 0032 0133     		adds	r3, r3, #1
 1655 0034 9BB2     		uxth	r3, r3
 1656 0036 4B82     		strh	r3, [r1, #18]	@ movhi
 211:Middlewares/Third_Party/LwIP/src/core/ipv4/etharp.c ****           ((arp_table[i].state == ETHARP_STATE_PENDING)  &&
 1657              		.loc 1 211 7 is_stmt 1 view .LVU453
 211:Middlewares/Third_Party/LwIP/src/core/ipv4/etharp.c ****           ((arp_table[i].state == ETHARP_STATE_PENDING)  &&
 1658              		.loc 1 211 10 is_stmt 0 view .LVU454
 1659 0038 B3F5967F 		cmp	r3, #300
 1660 003c E5D2     		bcs	.L125
 211:Middlewares/Third_Party/LwIP/src/core/ipv4/etharp.c ****           ((arp_table[i].state == ETHARP_STATE_PENDING)  &&
 1661              		.loc 1 211 46 discriminator 1 view .LVU455
 1662 003e 012A     		cmp	r2, #1
 1663 0040 E1D0     		beq	.L132
 1664              	.L126:
 219:Middlewares/Third_Party/LwIP/src/core/ipv4/etharp.c ****         /* Don't send more than one request every 2 seconds. */
 1665              		.loc 1 219 14 is_stmt 1 view .LVU456
 219:Middlewares/Third_Party/LwIP/src/core/ipv4/etharp.c ****         /* Don't send more than one request every 2 seconds. */
 1666              		.loc 1 219 17 is_stmt 0 view .LVU457
 1667 0042 032A     		cmp	r2, #3
 1668 0044 0DD0     		beq	.L133
 222:Middlewares/Third_Party/LwIP/src/core/ipv4/etharp.c ****         /* Reset state to stable, so that the next transmitted packet will
 1669              		.loc 1 222 14 is_stmt 1 view .LVU458
 222:Middlewares/Third_Party/LwIP/src/core/ipv4/etharp.c ****         /* Reset state to stable, so that the next transmitted packet will
 1670              		.loc 1 222 17 is_stmt 0 view .LVU459
 1671 0046 042A     		cmp	r2, #4
 1672 0048 13D0     		beq	.L134
 226:Middlewares/Third_Party/LwIP/src/core/ipv4/etharp.c ****         /* still pending, resend an ARP query */
 1673              		.loc 1 226 14 is_stmt 1 view .LVU460
 226:Middlewares/Third_Party/LwIP/src/core/ipv4/etharp.c ****         /* still pending, resend an ARP query */
 1674              		.loc 1 226 17 is_stmt 0 view .LVU461
 1675 004a 012A     		cmp	r2, #1
 1676 004c E0D1     		bne	.L124
 228:Middlewares/Third_Party/LwIP/src/core/ipv4/etharp.c ****       }
 1677              		.loc 1 228 9 is_stmt 1 view .LVU462
 228:Middlewares/Third_Party/LwIP/src/core/ipv4/etharp.c ****       }
 1678              		.loc 1 228 44 is_stmt 0 view .LVU463
 1679 004e 04EB4403 		add	r3, r4, r4, lsl #1
 1680 0052 DA00     		lsls	r2, r3, #3
ARM GAS  C:\Users\17832\AppData\Local\Temp\ccRMKuAU.s 			page 57


 1681              	.LVL153:
 228:Middlewares/Third_Party/LwIP/src/core/ipv4/etharp.c ****       }
 1682              		.loc 1 228 44 view .LVU464
 1683 0054 0B4B     		ldr	r3, .L135
 1684 0056 1344     		add	r3, r3, r2
 228:Middlewares/Third_Party/LwIP/src/core/ipv4/etharp.c ****       }
 1685              		.loc 1 228 9 view .LVU465
 1686 0058 191D     		adds	r1, r3, #4
 1687              	.LVL154:
 228:Middlewares/Third_Party/LwIP/src/core/ipv4/etharp.c ****       }
 1688              		.loc 1 228 9 view .LVU466
 1689 005a 9868     		ldr	r0, [r3, #8]
 1690 005c FFF7FEFF 		bl	etharp_request
 1691              	.LVL155:
 228:Middlewares/Third_Party/LwIP/src/core/ipv4/etharp.c ****       }
 1692              		.loc 1 228 9 view .LVU467
 1693 0060 D6E7     		b	.L124
 1694              	.LVL156:
 1695              	.L133:
 221:Middlewares/Third_Party/LwIP/src/core/ipv4/etharp.c ****       } else if (arp_table[i].state == ETHARP_STATE_STABLE_REREQUESTING_2) {
 1696              		.loc 1 221 9 is_stmt 1 view .LVU468
 221:Middlewares/Third_Party/LwIP/src/core/ipv4/etharp.c ****       } else if (arp_table[i].state == ETHARP_STATE_STABLE_REREQUESTING_2) {
 1697              		.loc 1 221 28 is_stmt 0 view .LVU469
 1698 0062 04EB4403 		add	r3, r4, r4, lsl #1
 1699 0066 DA00     		lsls	r2, r3, #3
 1700              	.LVL157:
 221:Middlewares/Third_Party/LwIP/src/core/ipv4/etharp.c ****       } else if (arp_table[i].state == ETHARP_STATE_STABLE_REREQUESTING_2) {
 1701              		.loc 1 221 28 view .LVU470
 1702 0068 064B     		ldr	r3, .L135
 1703 006a 1344     		add	r3, r3, r2
 1704 006c 0422     		movs	r2, #4
 1705 006e 1A75     		strb	r2, [r3, #20]
 1706              	.LVL158:
 221:Middlewares/Third_Party/LwIP/src/core/ipv4/etharp.c ****       } else if (arp_table[i].state == ETHARP_STATE_STABLE_REREQUESTING_2) {
 1707              		.loc 1 221 28 view .LVU471
 1708 0070 CEE7     		b	.L124
 1709              	.LVL159:
 1710              	.L134:
 225:Middlewares/Third_Party/LwIP/src/core/ipv4/etharp.c ****       } else if (arp_table[i].state == ETHARP_STATE_PENDING) {
 1711              		.loc 1 225 9 is_stmt 1 view .LVU472
 225:Middlewares/Third_Party/LwIP/src/core/ipv4/etharp.c ****       } else if (arp_table[i].state == ETHARP_STATE_PENDING) {
 1712              		.loc 1 225 28 is_stmt 0 view .LVU473
 1713 0072 04EB4403 		add	r3, r4, r4, lsl #1
 1714 0076 DA00     		lsls	r2, r3, #3
 1715              	.LVL160:
 225:Middlewares/Third_Party/LwIP/src/core/ipv4/etharp.c ****       } else if (arp_table[i].state == ETHARP_STATE_PENDING) {
 1716              		.loc 1 225 28 view .LVU474
 1717 0078 024B     		ldr	r3, .L135
 1718 007a 1344     		add	r3, r3, r2
 1719 007c 0222     		movs	r2, #2
 1720 007e 1A75     		strb	r2, [r3, #20]
 1721              	.LVL161:
 225:Middlewares/Third_Party/LwIP/src/core/ipv4/etharp.c ****       } else if (arp_table[i].state == ETHARP_STATE_PENDING) {
 1722              		.loc 1 225 28 view .LVU475
 1723 0080 C6E7     		b	.L124
 1724              	.L131:
 225:Middlewares/Third_Party/LwIP/src/core/ipv4/etharp.c ****       } else if (arp_table[i].state == ETHARP_STATE_PENDING) {
ARM GAS  C:\Users\17832\AppData\Local\Temp\ccRMKuAU.s 			page 58


 1725              		.loc 1 225 28 view .LVU476
 1726              	.LBE8:
 232:Middlewares/Third_Party/LwIP/src/core/ipv4/etharp.c **** 
 1727              		.loc 1 232 1 view .LVU477
 1728 0082 10BD     		pop	{r4, pc}
 1729              	.LVL162:
 1730              	.L136:
 232:Middlewares/Third_Party/LwIP/src/core/ipv4/etharp.c **** 
 1731              		.loc 1 232 1 view .LVU478
 1732              		.align	2
 1733              	.L135:
 1734 0084 00000000 		.word	.LANCHOR0
 1735              		.cfi_endproc
 1736              	.LFE157:
 1738              		.section	.rodata.etharp_output_to_arp_index.str1.4,"aMS",%progbits,1
 1739              		.align	2
 1740              	.LC12:
 1741 0000 6172705F 		.ascii	"arp_table[arp_idx].state >= ETHARP_STATE_STABLE\000"
 1741      7461626C 
 1741      655B6172 
 1741      705F6964 
 1741      785D2E73 
 1742              		.section	.text.etharp_output_to_arp_index,"ax",%progbits
 1743              		.align	1
 1744              		.syntax unified
 1745              		.thumb
 1746              		.thumb_func
 1748              	etharp_output_to_arp_index:
 1749              	.LVL163:
 1750              	.LFB164:
 749:Middlewares/Third_Party/LwIP/src/core/ipv4/etharp.c ****   LWIP_ASSERT("arp_table[arp_idx].state >= ETHARP_STATE_STABLE",
 1751              		.loc 1 749 1 is_stmt 1 view -0
 1752              		.cfi_startproc
 1753              		@ args = 0, pretend = 0, frame = 0
 1754              		@ frame_needed = 0, uses_anonymous_args = 0
 749:Middlewares/Third_Party/LwIP/src/core/ipv4/etharp.c ****   LWIP_ASSERT("arp_table[arp_idx].state >= ETHARP_STATE_STABLE",
 1755              		.loc 1 749 1 is_stmt 0 view .LVU480
 1756 0000 70B5     		push	{r4, r5, r6, lr}
 1757              	.LCFI25:
 1758              		.cfi_def_cfa_offset 16
 1759              		.cfi_offset 4, -16
 1760              		.cfi_offset 5, -12
 1761              		.cfi_offset 6, -8
 1762              		.cfi_offset 14, -4
 1763 0002 82B0     		sub	sp, sp, #8
 1764              	.LCFI26:
 1765              		.cfi_def_cfa_offset 24
 1766 0004 0546     		mov	r5, r0
 1767 0006 0E46     		mov	r6, r1
 1768 0008 1446     		mov	r4, r2
 750:Middlewares/Third_Party/LwIP/src/core/ipv4/etharp.c ****               arp_table[arp_idx].state >= ETHARP_STATE_STABLE);
 1769              		.loc 1 750 3 is_stmt 1 view .LVU481
 750:Middlewares/Third_Party/LwIP/src/core/ipv4/etharp.c ****               arp_table[arp_idx].state >= ETHARP_STATE_STABLE);
 1770              		.loc 1 750 3 view .LVU482
 1771 000a 02EB4202 		add	r2, r2, r2, lsl #1
 1772              	.LVL164:
 750:Middlewares/Third_Party/LwIP/src/core/ipv4/etharp.c ****               arp_table[arp_idx].state >= ETHARP_STATE_STABLE);
ARM GAS  C:\Users\17832\AppData\Local\Temp\ccRMKuAU.s 			page 59


 1773              		.loc 1 750 3 is_stmt 0 view .LVU483
 1774 000e 2F4B     		ldr	r3, .L145
 1775 0010 03EBC203 		add	r3, r3, r2, lsl #3
 1776 0014 1B7D     		ldrb	r3, [r3, #20]	@ zero_extendqisi2
 1777 0016 012B     		cmp	r3, #1
 1778 0018 19D9     		bls	.L142
 1779              	.LVL165:
 1780              	.L138:
 750:Middlewares/Third_Party/LwIP/src/core/ipv4/etharp.c ****               arp_table[arp_idx].state >= ETHARP_STATE_STABLE);
 1781              		.loc 1 750 3 is_stmt 1 discriminator 3 view .LVU484
 750:Middlewares/Third_Party/LwIP/src/core/ipv4/etharp.c ****               arp_table[arp_idx].state >= ETHARP_STATE_STABLE);
 1782              		.loc 1 750 3 discriminator 3 view .LVU485
 755:Middlewares/Third_Party/LwIP/src/core/ipv4/etharp.c ****     if (arp_table[arp_idx].ctime >= ARP_AGE_REREQUEST_USED_BROADCAST) {
 1783              		.loc 1 755 3 discriminator 3 view .LVU486
 755:Middlewares/Third_Party/LwIP/src/core/ipv4/etharp.c ****     if (arp_table[arp_idx].ctime >= ARP_AGE_REREQUEST_USED_BROADCAST) {
 1784              		.loc 1 755 25 is_stmt 0 discriminator 3 view .LVU487
 1785 001a 04EB4403 		add	r3, r4, r4, lsl #1
 1786 001e 2B4A     		ldr	r2, .L145
 1787 0020 02EBC303 		add	r3, r2, r3, lsl #3
 1788 0024 1B7D     		ldrb	r3, [r3, #20]	@ zero_extendqisi2
 755:Middlewares/Third_Party/LwIP/src/core/ipv4/etharp.c ****     if (arp_table[arp_idx].ctime >= ARP_AGE_REREQUEST_USED_BROADCAST) {
 1789              		.loc 1 755 6 discriminator 3 view .LVU488
 1790 0026 022B     		cmp	r3, #2
 1791 0028 19D0     		beq	.L143
 1792              	.L139:
 769:Middlewares/Third_Party/LwIP/src/core/ipv4/etharp.c **** }
 1793              		.loc 1 769 3 is_stmt 1 view .LVU489
 769:Middlewares/Third_Party/LwIP/src/core/ipv4/etharp.c **** }
 1794              		.loc 1 769 72 is_stmt 0 view .LVU490
 1795 002a 04EB4403 		add	r3, r4, r4, lsl #1
 1796 002e DB00     		lsls	r3, r3, #3
 1797 0030 0833     		adds	r3, r3, #8
 1798 0032 264C     		ldr	r4, .L145
 1799 0034 2344     		add	r3, r3, r4
 769:Middlewares/Third_Party/LwIP/src/core/ipv4/etharp.c **** }
 1800              		.loc 1 769 10 view .LVU491
 1801 0036 4FF40062 		mov	r2, #2048
 1802 003a 0092     		str	r2, [sp]
 1803 003c 0433     		adds	r3, r3, #4
 1804 003e 05F12602 		add	r2, r5, #38
 1805 0042 3146     		mov	r1, r6
 1806 0044 2846     		mov	r0, r5
 1807 0046 FFF7FEFF 		bl	ethernet_output
 1808              	.LVL166:
 770:Middlewares/Third_Party/LwIP/src/core/ipv4/etharp.c **** 
 1809              		.loc 1 770 1 view .LVU492
 1810 004a 02B0     		add	sp, sp, #8
 1811              	.LCFI27:
 1812              		.cfi_remember_state
 1813              		.cfi_def_cfa_offset 16
 1814              		@ sp needed
 1815 004c 70BD     		pop	{r4, r5, r6, pc}
 1816              	.LVL167:
 1817              	.L142:
 1818              	.LCFI28:
 1819              		.cfi_restore_state
 750:Middlewares/Third_Party/LwIP/src/core/ipv4/etharp.c ****               arp_table[arp_idx].state >= ETHARP_STATE_STABLE);
ARM GAS  C:\Users\17832\AppData\Local\Temp\ccRMKuAU.s 			page 60


 1820              		.loc 1 750 3 is_stmt 1 discriminator 1 view .LVU493
 750:Middlewares/Third_Party/LwIP/src/core/ipv4/etharp.c ****               arp_table[arp_idx].state >= ETHARP_STATE_STABLE);
 1821              		.loc 1 750 3 discriminator 1 view .LVU494
 1822 004e 204B     		ldr	r3, .L145+4
 1823 0050 40F2EE22 		movw	r2, #750
 1824 0054 1F49     		ldr	r1, .L145+8
 1825              	.LVL168:
 750:Middlewares/Third_Party/LwIP/src/core/ipv4/etharp.c ****               arp_table[arp_idx].state >= ETHARP_STATE_STABLE);
 1826              		.loc 1 750 3 is_stmt 0 discriminator 1 view .LVU495
 1827 0056 2048     		ldr	r0, .L145+12
 1828              	.LVL169:
 750:Middlewares/Third_Party/LwIP/src/core/ipv4/etharp.c ****               arp_table[arp_idx].state >= ETHARP_STATE_STABLE);
 1829              		.loc 1 750 3 discriminator 1 view .LVU496
 1830 0058 FFF7FEFF 		bl	printf
 1831              	.LVL170:
 1832 005c DDE7     		b	.L138
 1833              	.L143:
 756:Middlewares/Third_Party/LwIP/src/core/ipv4/etharp.c ****       /* issue a standard request using broadcast */
 1834              		.loc 1 756 5 is_stmt 1 view .LVU497
 756:Middlewares/Third_Party/LwIP/src/core/ipv4/etharp.c ****       /* issue a standard request using broadcast */
 1835              		.loc 1 756 27 is_stmt 0 view .LVU498
 1836 005e 04EB4403 		add	r3, r4, r4, lsl #1
 1837 0062 02EBC303 		add	r3, r2, r3, lsl #3
 1838 0066 5B8A     		ldrh	r3, [r3, #18]
 756:Middlewares/Third_Party/LwIP/src/core/ipv4/etharp.c ****       /* issue a standard request using broadcast */
 1839              		.loc 1 756 8 view .LVU499
 1840 0068 B3F58E7F 		cmp	r3, #284
 1841 006c 1BD8     		bhi	.L144
 761:Middlewares/Third_Party/LwIP/src/core/ipv4/etharp.c ****       /* issue a unicast request (for 15 seconds) to prevent unnecessary broadcast */
 1842              		.loc 1 761 12 is_stmt 1 view .LVU500
 761:Middlewares/Third_Party/LwIP/src/core/ipv4/etharp.c ****       /* issue a unicast request (for 15 seconds) to prevent unnecessary broadcast */
 1843              		.loc 1 761 15 is_stmt 0 view .LVU501
 1844 006e B3F5877F 		cmp	r3, #270
 1845 0072 DAD3     		bcc	.L139
 763:Middlewares/Third_Party/LwIP/src/core/ipv4/etharp.c ****         arp_table[arp_idx].state = ETHARP_STATE_STABLE_REREQUESTING_1;
 1846              		.loc 1 763 7 is_stmt 1 view .LVU502
 763:Middlewares/Third_Party/LwIP/src/core/ipv4/etharp.c ****         arp_table[arp_idx].state = ETHARP_STATE_STABLE_REREQUESTING_1;
 1847              		.loc 1 763 37 is_stmt 0 view .LVU503
 1848 0074 154B     		ldr	r3, .L145
 1849 0076 04EB4401 		add	r1, r4, r4, lsl #1
 1850 007a 03EBC101 		add	r1, r3, r1, lsl #3
 763:Middlewares/Third_Party/LwIP/src/core/ipv4/etharp.c ****         arp_table[arp_idx].state = ETHARP_STATE_STABLE_REREQUESTING_1;
 1851              		.loc 1 763 65 view .LVU504
 1852 007e 04EB4402 		add	r2, r4, r4, lsl #1
 1853 0082 D200     		lsls	r2, r2, #3
 1854 0084 0832     		adds	r2, r2, #8
 1855 0086 1A44     		add	r2, r2, r3
 763:Middlewares/Third_Party/LwIP/src/core/ipv4/etharp.c ****         arp_table[arp_idx].state = ETHARP_STATE_STABLE_REREQUESTING_1;
 1856              		.loc 1 763 11 view .LVU505
 1857 0088 0432     		adds	r2, r2, #4
 1858 008a 0431     		adds	r1, r1, #4
 1859 008c 2846     		mov	r0, r5
 1860 008e FFF7FEFF 		bl	etharp_request_dst
 1861              	.LVL171:
 763:Middlewares/Third_Party/LwIP/src/core/ipv4/etharp.c ****         arp_table[arp_idx].state = ETHARP_STATE_STABLE_REREQUESTING_1;
 1862              		.loc 1 763 10 view .LVU506
 1863 0092 0028     		cmp	r0, #0
ARM GAS  C:\Users\17832\AppData\Local\Temp\ccRMKuAU.s 			page 61


 1864 0094 C9D1     		bne	.L139
 764:Middlewares/Third_Party/LwIP/src/core/ipv4/etharp.c ****       }
 1865              		.loc 1 764 9 is_stmt 1 view .LVU507
 764:Middlewares/Third_Party/LwIP/src/core/ipv4/etharp.c ****       }
 1866              		.loc 1 764 34 is_stmt 0 view .LVU508
 1867 0096 04EB4403 		add	r3, r4, r4, lsl #1
 1868 009a 0C4A     		ldr	r2, .L145
 1869 009c 02EBC303 		add	r3, r2, r3, lsl #3
 1870 00a0 0322     		movs	r2, #3
 1871 00a2 1A75     		strb	r2, [r3, #20]
 1872 00a4 C1E7     		b	.L139
 1873              	.L144:
 758:Middlewares/Third_Party/LwIP/src/core/ipv4/etharp.c ****         arp_table[arp_idx].state = ETHARP_STATE_STABLE_REREQUESTING_1;
 1874              		.loc 1 758 7 is_stmt 1 view .LVU509
 758:Middlewares/Third_Party/LwIP/src/core/ipv4/etharp.c ****         arp_table[arp_idx].state = ETHARP_STATE_STABLE_REREQUESTING_1;
 1875              		.loc 1 758 33 is_stmt 0 view .LVU510
 1876 00a6 04EB4401 		add	r1, r4, r4, lsl #1
 1877 00aa 02EBC101 		add	r1, r2, r1, lsl #3
 758:Middlewares/Third_Party/LwIP/src/core/ipv4/etharp.c ****         arp_table[arp_idx].state = ETHARP_STATE_STABLE_REREQUESTING_1;
 1878              		.loc 1 758 11 view .LVU511
 1879 00ae 0431     		adds	r1, r1, #4
 1880 00b0 2846     		mov	r0, r5
 1881 00b2 FFF7FEFF 		bl	etharp_request
 1882              	.LVL172:
 758:Middlewares/Third_Party/LwIP/src/core/ipv4/etharp.c ****         arp_table[arp_idx].state = ETHARP_STATE_STABLE_REREQUESTING_1;
 1883              		.loc 1 758 10 view .LVU512
 1884 00b6 0028     		cmp	r0, #0
 1885 00b8 B7D1     		bne	.L139
 759:Middlewares/Third_Party/LwIP/src/core/ipv4/etharp.c ****       }
 1886              		.loc 1 759 9 is_stmt 1 view .LVU513
 759:Middlewares/Third_Party/LwIP/src/core/ipv4/etharp.c ****       }
 1887              		.loc 1 759 34 is_stmt 0 view .LVU514
 1888 00ba 04EB4403 		add	r3, r4, r4, lsl #1
 1889 00be 034A     		ldr	r2, .L145
 1890 00c0 02EBC303 		add	r3, r2, r3, lsl #3
 1891 00c4 0322     		movs	r2, #3
 1892 00c6 1A75     		strb	r2, [r3, #20]
 1893 00c8 AFE7     		b	.L139
 1894              	.L146:
 1895 00ca 00BF     		.align	2
 1896              	.L145:
 1897 00cc 00000000 		.word	.LANCHOR0
 1898 00d0 00000000 		.word	.LC0
 1899 00d4 00000000 		.word	.LC12
 1900 00d8 4C000000 		.word	.LC2
 1901              		.cfi_endproc
 1902              	.LFE164:
 1904              		.section	.rodata.etharp_query.str1.4,"aMS",%progbits,1
 1905              		.align	2
 1906              	.LC13:
 1907 0000 74797065 		.ascii	"type overflow\000"
 1907      206F7665 
 1907      72666C6F 
 1907      7700
 1908 000e 0000     		.align	2
 1909              	.LC14:
 1910 0010 6172705F 		.ascii	"arp_table[i].state == PENDING or STABLE\000"
ARM GAS  C:\Users\17832\AppData\Local\Temp\ccRMKuAU.s 			page 62


 1910      7461626C 
 1910      655B695D 
 1910      2E737461 
 1910      7465203D 
 1911              		.align	2
 1912              	.LC15:
 1913 0038 7120213D 		.ascii	"q != NULL\000"
 1913      204E554C 
 1913      4C00
 1914 0042 0000     		.align	2
 1915              	.LC16:
 1916 0044 6E6F2070 		.ascii	"no packet queues allowed!\000"
 1916      61636B65 
 1916      74207175 
 1916      65756573 
 1916      20616C6C 
 1917              		.section	.text.etharp_query,"ax",%progbits
 1918              		.align	1
 1919              		.global	etharp_query
 1920              		.syntax unified
 1921              		.thumb
 1922              		.thumb_func
 1924              	etharp_query:
 1925              	.LVL173:
 1926              	.LFB166:
 934:Middlewares/Third_Party/LwIP/src/core/ipv4/etharp.c ****   struct eth_addr *srcaddr = (struct eth_addr *)netif->hwaddr;
 1927              		.loc 1 934 1 is_stmt 1 view -0
 1928              		.cfi_startproc
 1929              		@ args = 0, pretend = 0, frame = 0
 1930              		@ frame_needed = 0, uses_anonymous_args = 0
 934:Middlewares/Third_Party/LwIP/src/core/ipv4/etharp.c ****   struct eth_addr *srcaddr = (struct eth_addr *)netif->hwaddr;
 1931              		.loc 1 934 1 is_stmt 0 view .LVU516
 1932 0000 2DE9F043 		push	{r4, r5, r6, r7, r8, r9, lr}
 1933              	.LCFI29:
 1934              		.cfi_def_cfa_offset 28
 1935              		.cfi_offset 4, -28
 1936              		.cfi_offset 5, -24
 1937              		.cfi_offset 6, -20
 1938              		.cfi_offset 7, -16
 1939              		.cfi_offset 8, -12
 1940              		.cfi_offset 9, -8
 1941              		.cfi_offset 14, -4
 1942 0004 83B0     		sub	sp, sp, #12
 1943              	.LCFI30:
 1944              		.cfi_def_cfa_offset 40
 1945 0006 8046     		mov	r8, r0
 1946 0008 0E46     		mov	r6, r1
 1947 000a 1746     		mov	r7, r2
 935:Middlewares/Third_Party/LwIP/src/core/ipv4/etharp.c ****   err_t result = ERR_MEM;
 1948              		.loc 1 935 3 is_stmt 1 view .LVU517
 935:Middlewares/Third_Party/LwIP/src/core/ipv4/etharp.c ****   err_t result = ERR_MEM;
 1949              		.loc 1 935 20 is_stmt 0 view .LVU518
 1950 000c 00F12609 		add	r9, r0, #38
 1951              	.LVL174:
 936:Middlewares/Third_Party/LwIP/src/core/ipv4/etharp.c ****   int is_new_entry = 0;
 1952              		.loc 1 936 3 is_stmt 1 view .LVU519
 937:Middlewares/Third_Party/LwIP/src/core/ipv4/etharp.c ****   s16_t i_err;
ARM GAS  C:\Users\17832\AppData\Local\Temp\ccRMKuAU.s 			page 63


 1953              		.loc 1 937 3 view .LVU520
 938:Middlewares/Third_Party/LwIP/src/core/ipv4/etharp.c ****   netif_addr_idx_t i;
 1954              		.loc 1 938 3 view .LVU521
 939:Middlewares/Third_Party/LwIP/src/core/ipv4/etharp.c **** 
 1955              		.loc 1 939 3 view .LVU522
 942:Middlewares/Third_Party/LwIP/src/core/ipv4/etharp.c ****       ip4_addr_ismulticast(ipaddr) ||
 1956              		.loc 1 942 3 view .LVU523
 942:Middlewares/Third_Party/LwIP/src/core/ipv4/etharp.c ****       ip4_addr_ismulticast(ipaddr) ||
 1957              		.loc 1 942 7 is_stmt 0 view .LVU524
 1958 0010 0146     		mov	r1, r0
 1959              	.LVL175:
 942:Middlewares/Third_Party/LwIP/src/core/ipv4/etharp.c ****       ip4_addr_ismulticast(ipaddr) ||
 1960              		.loc 1 942 7 view .LVU525
 1961 0012 3068     		ldr	r0, [r6]
 1962              	.LVL176:
 942:Middlewares/Third_Party/LwIP/src/core/ipv4/etharp.c ****       ip4_addr_ismulticast(ipaddr) ||
 1963              		.loc 1 942 7 view .LVU526
 1964 0014 FFF7FEFF 		bl	ip4_addr_isbroadcast_u32
 1965              	.LVL177:
 942:Middlewares/Third_Party/LwIP/src/core/ipv4/etharp.c ****       ip4_addr_ismulticast(ipaddr) ||
 1966              		.loc 1 942 6 view .LVU527
 1967 0018 0028     		cmp	r0, #0
 1968 001a 40F0AB80 		bne	.L164
 943:Middlewares/Third_Party/LwIP/src/core/ipv4/etharp.c ****       ip4_addr_isany(ipaddr)) {
 1969              		.loc 1 943 7 discriminator 1 view .LVU528
 1970 001e 3368     		ldr	r3, [r6]
 1971 0020 03F0F002 		and	r2, r3, #240
 942:Middlewares/Third_Party/LwIP/src/core/ipv4/etharp.c ****       ip4_addr_ismulticast(ipaddr) ||
 1972              		.loc 1 942 43 discriminator 1 view .LVU529
 1973 0024 E02A     		cmp	r2, #224
 1974 0026 00F0A880 		beq	.L165
 943:Middlewares/Third_Party/LwIP/src/core/ipv4/etharp.c ****       ip4_addr_isany(ipaddr)) {
 1975              		.loc 1 943 36 view .LVU530
 1976 002a 002E     		cmp	r6, #0
 1977 002c 00F0A880 		beq	.L166
 944:Middlewares/Third_Party/LwIP/src/core/ipv4/etharp.c ****     LWIP_DEBUGF(ETHARP_DEBUG | LWIP_DBG_TRACE, ("etharp_query: will not add non-unicast IP address 
 1978              		.loc 1 944 7 view .LVU531
 1979 0030 002B     		cmp	r3, #0
 1980 0032 00F0A880 		beq	.L167
 950:Middlewares/Third_Party/LwIP/src/core/ipv4/etharp.c **** 
 1981              		.loc 1 950 3 is_stmt 1 view .LVU532
 950:Middlewares/Third_Party/LwIP/src/core/ipv4/etharp.c **** 
 1982              		.loc 1 950 11 is_stmt 0 view .LVU533
 1983 0036 4246     		mov	r2, r8
 1984 0038 0121     		movs	r1, #1
 1985 003a 3046     		mov	r0, r6
 1986 003c FFF7FEFF 		bl	etharp_find_entry
 1987              	.LVL178:
 953:Middlewares/Third_Party/LwIP/src/core/ipv4/etharp.c ****     LWIP_DEBUGF(ETHARP_DEBUG | LWIP_DBG_TRACE, ("etharp_query: could not create ARP entry\n"));
 1988              		.loc 1 953 3 is_stmt 1 view .LVU534
 953:Middlewares/Third_Party/LwIP/src/core/ipv4/etharp.c ****     LWIP_DEBUGF(ETHARP_DEBUG | LWIP_DBG_TRACE, ("etharp_query: could not create ARP entry\n"));
 1989              		.loc 1 953 6 is_stmt 0 view .LVU535
 1990 0040 051E     		subs	r5, r0, #0
 1991 0042 2ADB     		blt	.L174
 961:Middlewares/Third_Party/LwIP/src/core/ipv4/etharp.c ****   i = (netif_addr_idx_t)i_err;
 1992              		.loc 1 961 3 is_stmt 1 view .LVU536
 961:Middlewares/Third_Party/LwIP/src/core/ipv4/etharp.c ****   i = (netif_addr_idx_t)i_err;
ARM GAS  C:\Users\17832\AppData\Local\Temp\ccRMKuAU.s 			page 64


 1993              		.loc 1 961 3 view .LVU537
 1994 0044 ABB2     		uxth	r3, r5
 1995 0046 7E2B     		cmp	r3, #126
 1996 0048 29D8     		bhi	.L175
 1997              	.LVL179:
 1998              	.L150:
 961:Middlewares/Third_Party/LwIP/src/core/ipv4/etharp.c ****   i = (netif_addr_idx_t)i_err;
 1999              		.loc 1 961 3 discriminator 3 view .LVU538
 961:Middlewares/Third_Party/LwIP/src/core/ipv4/etharp.c ****   i = (netif_addr_idx_t)i_err;
 2000              		.loc 1 961 3 discriminator 3 view .LVU539
 962:Middlewares/Third_Party/LwIP/src/core/ipv4/etharp.c **** 
 2001              		.loc 1 962 3 discriminator 3 view .LVU540
 962:Middlewares/Third_Party/LwIP/src/core/ipv4/etharp.c **** 
 2002              		.loc 1 962 5 is_stmt 0 discriminator 3 view .LVU541
 2003 004a EDB2     		uxtb	r5, r5
 2004              	.LVL180:
 965:Middlewares/Third_Party/LwIP/src/core/ipv4/etharp.c ****     is_new_entry = 1;
 2005              		.loc 1 965 3 is_stmt 1 discriminator 3 view .LVU542
 965:Middlewares/Third_Party/LwIP/src/core/ipv4/etharp.c ****     is_new_entry = 1;
 2006              		.loc 1 965 19 is_stmt 0 discriminator 3 view .LVU543
 2007 004c 05EB4502 		add	r2, r5, r5, lsl #1
 2008 0050 504B     		ldr	r3, .L180
 2009 0052 03EBC203 		add	r3, r3, r2, lsl #3
 2010 0056 1B7D     		ldrb	r3, [r3, #20]	@ zero_extendqisi2
 965:Middlewares/Third_Party/LwIP/src/core/ipv4/etharp.c ****     is_new_entry = 1;
 2011              		.loc 1 965 6 discriminator 3 view .LVU544
 2012 0058 4BBB     		cbnz	r3, .L168
 966:Middlewares/Third_Party/LwIP/src/core/ipv4/etharp.c ****     arp_table[i].state = ETHARP_STATE_PENDING;
 2013              		.loc 1 966 5 is_stmt 1 view .LVU545
 2014              	.LVL181:
 967:Middlewares/Third_Party/LwIP/src/core/ipv4/etharp.c ****     /* record network interface for re-sending arp request in etharp_tmr */
 2015              		.loc 1 967 5 view .LVU546
 967:Middlewares/Third_Party/LwIP/src/core/ipv4/etharp.c ****     /* record network interface for re-sending arp request in etharp_tmr */
 2016              		.loc 1 967 24 is_stmt 0 view .LVU547
 2017 005a 1346     		mov	r3, r2
 2018 005c 4D4A     		ldr	r2, .L180
 2019 005e 02EBC303 		add	r3, r2, r3, lsl #3
 2020 0062 0124     		movs	r4, #1
 2021 0064 1C75     		strb	r4, [r3, #20]
 969:Middlewares/Third_Party/LwIP/src/core/ipv4/etharp.c ****   }
 2022              		.loc 1 969 5 is_stmt 1 view .LVU548
 969:Middlewares/Third_Party/LwIP/src/core/ipv4/etharp.c ****   }
 2023              		.loc 1 969 24 is_stmt 0 view .LVU549
 2024 0066 C3F80880 		str	r8, [r3, #8]
 2025              	.LVL182:
 2026              	.L151:
 973:Middlewares/Third_Party/LwIP/src/core/ipv4/etharp.c ****               ((arp_table[i].state == ETHARP_STATE_PENDING) ||
 2027              		.loc 1 973 3 is_stmt 1 view .LVU550
 973:Middlewares/Third_Party/LwIP/src/core/ipv4/etharp.c ****               ((arp_table[i].state == ETHARP_STATE_PENDING) ||
 2028              		.loc 1 973 3 view .LVU551
 2029 006a 05EB4503 		add	r3, r5, r5, lsl #1
 2030 006e 494A     		ldr	r2, .L180
 2031 0070 02EBC303 		add	r3, r2, r3, lsl #3
 2032 0074 1B7D     		ldrb	r3, [r3, #20]	@ zero_extendqisi2
 2033 0076 E3B1     		cbz	r3, .L176
 2034              	.L152:
 973:Middlewares/Third_Party/LwIP/src/core/ipv4/etharp.c ****               ((arp_table[i].state == ETHARP_STATE_PENDING) ||
ARM GAS  C:\Users\17832\AppData\Local\Temp\ccRMKuAU.s 			page 65


 2035              		.loc 1 973 3 discriminator 3 view .LVU552
 973:Middlewares/Third_Party/LwIP/src/core/ipv4/etharp.c ****               ((arp_table[i].state == ETHARP_STATE_PENDING) ||
 2036              		.loc 1 973 3 discriminator 3 view .LVU553
 978:Middlewares/Third_Party/LwIP/src/core/ipv4/etharp.c ****     /* try to resolve it; send out ARP request */
 2037              		.loc 1 978 3 discriminator 3 view .LVU554
 978:Middlewares/Third_Party/LwIP/src/core/ipv4/etharp.c ****     /* try to resolve it; send out ARP request */
 2038              		.loc 1 978 6 is_stmt 0 discriminator 3 view .LVU555
 2039 0078 1CBB     		cbnz	r4, .L153
 978:Middlewares/Third_Party/LwIP/src/core/ipv4/etharp.c ****     /* try to resolve it; send out ARP request */
 2040              		.loc 1 978 20 discriminator 1 view .LVU556
 2041 007a 17B3     		cbz	r7, .L153
 936:Middlewares/Third_Party/LwIP/src/core/ipv4/etharp.c ****   int is_new_entry = 0;
 2042              		.loc 1 936 9 view .LVU557
 2043 007c 4FF0FF34 		mov	r4, #-1
 2044              	.LVL183:
 2045              	.L154:
 993:Middlewares/Third_Party/LwIP/src/core/ipv4/etharp.c ****   /* stable entry? */
 2046              		.loc 1 993 3 is_stmt 1 view .LVU558
 993:Middlewares/Third_Party/LwIP/src/core/ipv4/etharp.c ****   /* stable entry? */
 2047              		.loc 1 993 3 view .LVU559
 2048 0080 3FB3     		cbz	r7, .L177
 2049              	.L155:
 993:Middlewares/Third_Party/LwIP/src/core/ipv4/etharp.c ****   /* stable entry? */
 2050              		.loc 1 993 3 discriminator 3 view .LVU560
 993:Middlewares/Third_Party/LwIP/src/core/ipv4/etharp.c ****   /* stable entry? */
 2051              		.loc 1 993 3 discriminator 3 view .LVU561
 995:Middlewares/Third_Party/LwIP/src/core/ipv4/etharp.c ****     /* we have a valid IP->Ethernet address mapping */
 2052              		.loc 1 995 3 discriminator 3 view .LVU562
 995:Middlewares/Third_Party/LwIP/src/core/ipv4/etharp.c ****     /* we have a valid IP->Ethernet address mapping */
 2053              		.loc 1 995 19 is_stmt 0 discriminator 3 view .LVU563
 2054 0082 05EB4503 		add	r3, r5, r5, lsl #1
 2055 0086 434A     		ldr	r2, .L180
 2056 0088 02EBC303 		add	r3, r2, r3, lsl #3
 2057 008c 1B7D     		ldrb	r3, [r3, #20]	@ zero_extendqisi2
 995:Middlewares/Third_Party/LwIP/src/core/ipv4/etharp.c ****     /* we have a valid IP->Ethernet address mapping */
 2058              		.loc 1 995 6 discriminator 3 view .LVU564
 2059 008e 012B     		cmp	r3, #1
 2060 0090 27D8     		bhi	.L178
1001:Middlewares/Third_Party/LwIP/src/core/ipv4/etharp.c ****     /* entry is still pending, queue the given packet 'q' */
 2061              		.loc 1 1001 10 is_stmt 1 view .LVU565
1001:Middlewares/Third_Party/LwIP/src/core/ipv4/etharp.c ****     /* entry is still pending, queue the given packet 'q' */
 2062              		.loc 1 1001 13 is_stmt 0 view .LVU566
 2063 0092 012B     		cmp	r3, #1
 2064 0094 36D1     		bne	.L148
 2065              	.LBB9:
1007:Middlewares/Third_Party/LwIP/src/core/ipv4/etharp.c ****     while (p) {
 2066              		.loc 1 1007 7 view .LVU567
 2067 0096 3C46     		mov	r4, r7
 2068              	.LVL184:
1007:Middlewares/Third_Party/LwIP/src/core/ipv4/etharp.c ****     while (p) {
 2069              		.loc 1 1007 7 view .LVU568
 2070 0098 3DE0     		b	.L157
 2071              	.LVL185:
 2072              	.L174:
1007:Middlewares/Third_Party/LwIP/src/core/ipv4/etharp.c ****     while (p) {
 2073              		.loc 1 1007 7 view .LVU569
 2074              	.LBE9:
ARM GAS  C:\Users\17832\AppData\Local\Temp\ccRMKuAU.s 			page 66


 954:Middlewares/Third_Party/LwIP/src/core/ipv4/etharp.c ****     if (q) {
 2075              		.loc 1 954 95 is_stmt 1 view .LVU570
 955:Middlewares/Third_Party/LwIP/src/core/ipv4/etharp.c ****       LWIP_DEBUGF(ETHARP_DEBUG | LWIP_DBG_TRACE, ("etharp_query: packet dropped\n"));
 2076              		.loc 1 955 5 view .LVU571
 956:Middlewares/Third_Party/LwIP/src/core/ipv4/etharp.c ****       ETHARP_STATS_INC(etharp.memerr);
 2077              		.loc 1 956 85 view .LVU572
 957:Middlewares/Third_Party/LwIP/src/core/ipv4/etharp.c ****     }
 2078              		.loc 1 957 38 view .LVU573
 959:Middlewares/Third_Party/LwIP/src/core/ipv4/etharp.c ****   }
 2079              		.loc 1 959 5 view .LVU574
 959:Middlewares/Third_Party/LwIP/src/core/ipv4/etharp.c ****   }
 2080              		.loc 1 959 12 is_stmt 0 view .LVU575
 2081 009a 6CB2     		sxtb	r4, r5
 2082 009c 32E0     		b	.L148
 2083              	.L175:
 961:Middlewares/Third_Party/LwIP/src/core/ipv4/etharp.c ****   i = (netif_addr_idx_t)i_err;
 2084              		.loc 1 961 3 is_stmt 1 discriminator 1 view .LVU576
 961:Middlewares/Third_Party/LwIP/src/core/ipv4/etharp.c ****   i = (netif_addr_idx_t)i_err;
 2085              		.loc 1 961 3 discriminator 1 view .LVU577
