ARM GAS  C:\Users\17832\AppData\Local\Temp\cckefvo3.s 			page 1


   1              		.cpu cortex-m4
   2              		.arch armv7e-m
   3              		.fpu fpv4-sp-d16
   4              		.eabi_attribute 27, 1
   5              		.eabi_attribute 28, 1
   6              		.eabi_attribute 20, 1
   7              		.eabi_attribute 21, 1
   8              		.eabi_attribute 23, 3
   9              		.eabi_attribute 24, 1
  10              		.eabi_attribute 25, 1
  11              		.eabi_attribute 26, 1
  12              		.eabi_attribute 30, 1
  13              		.eabi_attribute 34, 1
  14              		.eabi_attribute 18, 4
  15              		.file	"lcd.c"
  16              		.text
  17              	.Ltext0:
  18              		.cfi_sections	.debug_frame
  19              		.section	.text.LCD_Fill,"ax",%progbits
  20              		.align	1
  21              		.global	LCD_Fill
  22              		.syntax unified
  23              		.thumb
  24              		.thumb_func
  26              	LCD_Fill:
  27              	.LVL0:
  28              	.LFB130:
  29              		.file 1 "Drivers/LCD/Src/lcd.c"
   1:Drivers/LCD/Src/lcd.c **** #include "lcd.h"
   2:Drivers/LCD/Src/lcd.c **** #include "lcd_init.h"
   3:Drivers/LCD/Src/lcd.c **** #include "lcdfont.h"
   4:Drivers/LCD/Src/lcd.c **** 
   5:Drivers/LCD/Src/lcd.c **** 
   6:Drivers/LCD/Src/lcd.c **** /******************************************************************************
   7:Drivers/LCD/Src/lcd.c ****       函数说明：在指定区域填充颜色
   8:Drivers/LCD/Src/lcd.c ****       入口数据：xsta,ysta   起始坐标
   9:Drivers/LCD/Src/lcd.c ****                 xend,yend   终止坐标
  10:Drivers/LCD/Src/lcd.c **** 								color       要填充的颜色
  11:Drivers/LCD/Src/lcd.c ****       返回值：  无
  12:Drivers/LCD/Src/lcd.c **** ******************************************************************************/
  13:Drivers/LCD/Src/lcd.c **** void LCD_Fill(uint16_t xsta,uint16_t ysta,uint16_t xend,uint16_t yend,uint16_t color)
  14:Drivers/LCD/Src/lcd.c **** {          
  30              		.loc 1 14 1 view -0
  31              		.cfi_startproc
  32              		@ args = 4, pretend = 0, frame = 0
  33              		@ frame_needed = 0, uses_anonymous_args = 0
  34              		.loc 1 14 1 is_stmt 0 view .LVU1
  35 0000 2DE9F843 		push	{r3, r4, r5, r6, r7, r8, r9, lr}
  36              	.LCFI0:
  37              		.cfi_def_cfa_offset 32
  38              		.cfi_offset 3, -32
  39              		.cfi_offset 4, -28
  40              		.cfi_offset 5, -24
  41              		.cfi_offset 6, -20
  42              		.cfi_offset 7, -16
  43              		.cfi_offset 8, -12
  44              		.cfi_offset 9, -8
ARM GAS  C:\Users\17832\AppData\Local\Temp\cckefvo3.s 			page 2


  45              		.cfi_offset 14, -4
  46 0004 8146     		mov	r9, r0
  47 0006 0F46     		mov	r7, r1
  48 0008 1546     		mov	r5, r2
  49 000a 9846     		mov	r8, r3
  50 000c BDF82060 		ldrh	r6, [sp, #32]
  15:Drivers/LCD/Src/lcd.c **** 	uint16_t i,j; 
  51              		.loc 1 15 2 is_stmt 1 view .LVU2
  16:Drivers/LCD/Src/lcd.c **** 	LCD_Address_Set(xsta,ysta,xend-1,yend-1);//设置显示范围
  52              		.loc 1 16 2 view .LVU3
  53 0010 013B     		subs	r3, r3, #1
  54              	.LVL1:
  55              		.loc 1 16 2 is_stmt 0 view .LVU4
  56 0012 013A     		subs	r2, r2, #1
  57              	.LVL2:
  58              		.loc 1 16 2 view .LVU5
  59 0014 9BB2     		uxth	r3, r3
  60 0016 92B2     		uxth	r2, r2
  61 0018 FFF7FEFF 		bl	LCD_Address_Set
  62              	.LVL3:
  17:Drivers/LCD/Src/lcd.c **** 	for(i=ysta;i<yend;i++)
  63              		.loc 1 17 2 is_stmt 1 view .LVU6
  64              		.loc 1 17 2 is_stmt 0 view .LVU7
  65 001c 08E0     		b	.L2
  66              	.LVL4:
  67              	.L3:
  18:Drivers/LCD/Src/lcd.c **** 	{													   	 	
  19:Drivers/LCD/Src/lcd.c **** 		for(j=xsta;j<xend;j++)
  20:Drivers/LCD/Src/lcd.c **** 		{
  21:Drivers/LCD/Src/lcd.c **** 			LCD_WR_DATA(color);
  68              		.loc 1 21 4 is_stmt 1 discriminator 3 view .LVU8
  69 001e 3046     		mov	r0, r6
  70 0020 FFF7FEFF 		bl	LCD_WR_DATA
  71              	.LVL5:
  19:Drivers/LCD/Src/lcd.c **** 		{
  72              		.loc 1 19 21 discriminator 3 view .LVU9
  19:Drivers/LCD/Src/lcd.c **** 		{
  73              		.loc 1 19 22 is_stmt 0 discriminator 3 view .LVU10
  74 0024 0134     		adds	r4, r4, #1
  75              	.LVL6:
  19:Drivers/LCD/Src/lcd.c **** 		{
  76              		.loc 1 19 22 discriminator 3 view .LVU11
  77 0026 A4B2     		uxth	r4, r4
  78              	.LVL7:
  79              	.L4:
  19:Drivers/LCD/Src/lcd.c **** 		{
  80              		.loc 1 19 14 is_stmt 1 discriminator 1 view .LVU12
  19:Drivers/LCD/Src/lcd.c **** 		{
  81              		.loc 1 19 3 is_stmt 0 discriminator 1 view .LVU13
  82 0028 AC42     		cmp	r4, r5
  83 002a F8D3     		bcc	.L3
  17:Drivers/LCD/Src/lcd.c **** 	for(i=ysta;i<yend;i++)
  84              		.loc 1 17 20 is_stmt 1 discriminator 2 view .LVU14
  17:Drivers/LCD/Src/lcd.c **** 	for(i=ysta;i<yend;i++)
  85              		.loc 1 17 21 is_stmt 0 discriminator 2 view .LVU15
  86 002c 0137     		adds	r7, r7, #1
  87              	.LVL8:
ARM GAS  C:\Users\17832\AppData\Local\Temp\cckefvo3.s 			page 3


  17:Drivers/LCD/Src/lcd.c **** 	for(i=ysta;i<yend;i++)
  88              		.loc 1 17 21 discriminator 2 view .LVU16
  89 002e BFB2     		uxth	r7, r7
  90              	.LVL9:
  91              	.L2:
  17:Drivers/LCD/Src/lcd.c **** 	for(i=ysta;i<yend;i++)
  92              		.loc 1 17 13 is_stmt 1 discriminator 1 view .LVU17
  17:Drivers/LCD/Src/lcd.c **** 	for(i=ysta;i<yend;i++)
  93              		.loc 1 17 2 is_stmt 0 discriminator 1 view .LVU18
  94 0030 4745     		cmp	r7, r8
  95 0032 01D2     		bcs	.L7
  19:Drivers/LCD/Src/lcd.c **** 		{
  96              		.loc 1 19 8 view .LVU19
  97 0034 4C46     		mov	r4, r9
  98 0036 F7E7     		b	.L4
  99              	.L7:
  22:Drivers/LCD/Src/lcd.c **** 		}
  23:Drivers/LCD/Src/lcd.c **** 	} 					  	    
  24:Drivers/LCD/Src/lcd.c **** }
 100              		.loc 1 24 1 view .LVU20
 101 0038 BDE8F883 		pop	{r3, r4, r5, r6, r7, r8, r9, pc}
 102              		.loc 1 24 1 view .LVU21
 103              		.cfi_endproc
 104              	.LFE130:
 106              		.section	.text.LCD_DrawPoint,"ax",%progbits
 107              		.align	1
 108              		.global	LCD_DrawPoint
 109              		.syntax unified
 110              		.thumb
 111              		.thumb_func
 113              	LCD_DrawPoint:
 114              	.LVL10:
 115              	.LFB131:
  25:Drivers/LCD/Src/lcd.c **** 
  26:Drivers/LCD/Src/lcd.c **** 
  27:Drivers/LCD/Src/lcd.c **** 
  28:Drivers/LCD/Src/lcd.c **** 
  29:Drivers/LCD/Src/lcd.c **** 
  30:Drivers/LCD/Src/lcd.c **** /******************************************************************************
  31:Drivers/LCD/Src/lcd.c ****       函数说明：在指定位置画点
  32:Drivers/LCD/Src/lcd.c ****       入口数据：x,y 画点坐标
  33:Drivers/LCD/Src/lcd.c ****                 color 点的颜色
  34:Drivers/LCD/Src/lcd.c ****       返回值：  无
  35:Drivers/LCD/Src/lcd.c **** ******************************************************************************/
  36:Drivers/LCD/Src/lcd.c **** void LCD_DrawPoint(uint16_t x,uint16_t y,uint16_t color)
  37:Drivers/LCD/Src/lcd.c **** {
 116              		.loc 1 37 1 is_stmt 1 view -0
 117              		.cfi_startproc
 118              		@ args = 0, pretend = 0, frame = 0
 119              		@ frame_needed = 0, uses_anonymous_args = 0
 120              		.loc 1 37 1 is_stmt 0 view .LVU23
 121 0000 10B5     		push	{r4, lr}
 122              	.LCFI1:
 123              		.cfi_def_cfa_offset 8
 124              		.cfi_offset 4, -8
 125              		.cfi_offset 14, -4
 126 0002 0B46     		mov	r3, r1
ARM GAS  C:\Users\17832\AppData\Local\Temp\cckefvo3.s 			page 4


 127 0004 1446     		mov	r4, r2
  38:Drivers/LCD/Src/lcd.c **** 	LCD_Address_Set(x,y,x,y);//设置光标位置 
 128              		.loc 1 38 2 is_stmt 1 view .LVU24
 129 0006 0246     		mov	r2, r0
 130              	.LVL11:
 131              		.loc 1 38 2 is_stmt 0 view .LVU25
 132 0008 FFF7FEFF 		bl	LCD_Address_Set
 133              	.LVL12:
  39:Drivers/LCD/Src/lcd.c **** 	LCD_WR_DATA(color);
 134              		.loc 1 39 2 is_stmt 1 view .LVU26
 135 000c 2046     		mov	r0, r4
 136 000e FFF7FEFF 		bl	LCD_WR_DATA
 137              	.LVL13:
  40:Drivers/LCD/Src/lcd.c **** } 
 138              		.loc 1 40 1 is_stmt 0 view .LVU27
 139 0012 10BD     		pop	{r4, pc}
 140              		.cfi_endproc
 141              	.LFE131:
 143              		.section	.text.LCD_DrawLine,"ax",%progbits
 144              		.align	1
 145              		.global	LCD_DrawLine
 146              		.syntax unified
 147              		.thumb
 148              		.thumb_func
 150              	LCD_DrawLine:
 151              	.LVL14:
 152              	.LFB132:
  41:Drivers/LCD/Src/lcd.c **** 
  42:Drivers/LCD/Src/lcd.c **** 
  43:Drivers/LCD/Src/lcd.c **** /******************************************************************************
  44:Drivers/LCD/Src/lcd.c ****       函数说明：画线
  45:Drivers/LCD/Src/lcd.c ****       入口数据：x1,y1   起始坐标
  46:Drivers/LCD/Src/lcd.c ****                 x2,y2   终止坐标
  47:Drivers/LCD/Src/lcd.c ****                 color   线的颜色
  48:Drivers/LCD/Src/lcd.c ****       返回值：  无
  49:Drivers/LCD/Src/lcd.c **** ******************************************************************************/
  50:Drivers/LCD/Src/lcd.c **** void LCD_DrawLine(uint16_t x1,uint16_t y1,uint16_t x2,uint16_t y2,uint16_t color)
  51:Drivers/LCD/Src/lcd.c **** {
 153              		.loc 1 51 1 is_stmt 1 view -0
 154              		.cfi_startproc
 155              		@ args = 4, pretend = 0, frame = 16
 156              		@ frame_needed = 0, uses_anonymous_args = 0
 157              		.loc 1 51 1 is_stmt 0 view .LVU29
 158 0000 2DE9F04F 		push	{r4, r5, r6, r7, r8, r9, r10, fp, lr}
 159              	.LCFI2:
 160              		.cfi_def_cfa_offset 36
 161              		.cfi_offset 4, -36
 162              		.cfi_offset 5, -32
 163              		.cfi_offset 6, -28
 164              		.cfi_offset 7, -24
 165              		.cfi_offset 8, -20
 166              		.cfi_offset 9, -16
 167              		.cfi_offset 10, -12
 168              		.cfi_offset 11, -8
 169              		.cfi_offset 14, -4
 170 0004 85B0     		sub	sp, sp, #20
 171              	.LCFI3:
ARM GAS  C:\Users\17832\AppData\Local\Temp\cckefvo3.s 			page 5


 172              		.cfi_def_cfa_offset 56
 173 0006 BDF83840 		ldrh	r4, [sp, #56]
 174 000a 0194     		str	r4, [sp, #4]
  52:Drivers/LCD/Src/lcd.c **** 	uint16_t t; 
 175              		.loc 1 52 2 is_stmt 1 view .LVU30
  53:Drivers/LCD/Src/lcd.c **** 	int xerr=0,yerr=0,delta_x,delta_y,distance;
 176              		.loc 1 53 2 view .LVU31
 177              	.LVL15:
  54:Drivers/LCD/Src/lcd.c **** 	int incx,incy,uRow,uCol;
 178              		.loc 1 54 2 view .LVU32
  55:Drivers/LCD/Src/lcd.c **** 	delta_x=x2-x1; //计算坐标增量 
 179              		.loc 1 55 2 view .LVU33
 180              		.loc 1 55 12 is_stmt 0 view .LVU34
 181 000c 8046     		mov	r8, r0
 182              		.loc 1 55 9 view .LVU35
 183 000e A2EB000A 		sub	r10, r2, r0
 184              	.LVL16:
  56:Drivers/LCD/Src/lcd.c **** 	delta_y=y2-y1;
 185              		.loc 1 56 2 is_stmt 1 view .LVU36
 186              		.loc 1 56 12 is_stmt 0 view .LVU37
 187 0012 8946     		mov	r9, r1
 188              		.loc 1 56 9 view .LVU38
 189 0014 A3EB010B 		sub	fp, r3, r1
 190              	.LVL17:
  57:Drivers/LCD/Src/lcd.c **** 	uRow=x1;//画线起点坐标
 191              		.loc 1 57 2 is_stmt 1 view .LVU39
  58:Drivers/LCD/Src/lcd.c **** 	uCol=y1;
 192              		.loc 1 58 2 view .LVU40
  59:Drivers/LCD/Src/lcd.c **** 	if(delta_x>0)incx=1; //设置单步方向 
 193              		.loc 1 59 2 view .LVU41
 194              		.loc 1 59 4 is_stmt 0 view .LVU42
 195 0018 BAF1000F 		cmp	r10, #0
 196 001c 0DDD     		ble	.L24
 197              		.loc 1 59 19 view .LVU43
 198 001e 0122     		movs	r2, #1
 199              	.LVL18:
 200              		.loc 1 59 19 view .LVU44
 201 0020 0292     		str	r2, [sp, #8]
 202              	.L11:
 203              	.LVL19:
  60:Drivers/LCD/Src/lcd.c **** 	else if (delta_x==0)incx=0;//垂直线 
  61:Drivers/LCD/Src/lcd.c **** 	else {incx=-1;delta_x=-delta_x;}
  62:Drivers/LCD/Src/lcd.c **** 	if(delta_y>0)incy=1;
 204              		.loc 1 62 2 is_stmt 1 view .LVU45
 205              		.loc 1 62 4 is_stmt 0 view .LVU46
 206 0022 BBF1000F 		cmp	fp, #0
 207 0026 14DD     		ble	.L25
 208              		.loc 1 62 19 view .LVU47
 209 0028 0123     		movs	r3, #1
 210              	.LVL20:
 211              		.loc 1 62 19 view .LVU48
 212 002a 0393     		str	r3, [sp, #12]
 213              	.L12:
 214              	.LVL21:
  63:Drivers/LCD/Src/lcd.c **** 	else if (delta_y==0)incy=0;//水平线 
  64:Drivers/LCD/Src/lcd.c **** 	else {incy=-1;delta_y=-delta_y;}
  65:Drivers/LCD/Src/lcd.c **** 	if(delta_x>delta_y)distance=delta_x; //选取基本增量坐标轴 
ARM GAS  C:\Users\17832\AppData\Local\Temp\cckefvo3.s 			page 6


 215              		.loc 1 65 2 is_stmt 1 view .LVU49
 216              		.loc 1 65 4 is_stmt 0 view .LVU50
 217 002c DA45     		cmp	r10, fp
 218 002e 1CDD     		ble	.L22
 219              		.loc 1 65 29 view .LVU51
 220 0030 5646     		mov	r6, r10
 221              	.L13:
 222              	.LVL22:
  66:Drivers/LCD/Src/lcd.c **** 	else distance=delta_y;
  67:Drivers/LCD/Src/lcd.c **** 	for(t=0;t<distance+1;t++)
 223              		.loc 1 67 2 is_stmt 1 view .LVU52
  53:Drivers/LCD/Src/lcd.c **** 	int incx,incy,uRow,uCol;
 224              		.loc 1 53 13 is_stmt 0 view .LVU53
 225 0032 0025     		movs	r5, #0
  53:Drivers/LCD/Src/lcd.c **** 	int incx,incy,uRow,uCol;
 226              		.loc 1 53 6 view .LVU54
 227 0034 2F46     		mov	r7, r5
 228              		.loc 1 67 7 view .LVU55
 229 0036 2C46     		mov	r4, r5
 230              		.loc 1 67 2 view .LVU56
 231 0038 1BE0     		b	.L14
 232              	.LVL23:
 233              	.L24:
  60:Drivers/LCD/Src/lcd.c **** 	else {incx=-1;delta_x=-delta_x;}
 234              		.loc 1 60 7 is_stmt 1 view .LVU57
  60:Drivers/LCD/Src/lcd.c **** 	else {incx=-1;delta_x=-delta_x;}
 235              		.loc 1 60 10 is_stmt 0 view .LVU58
 236 003a BAF1000F 		cmp	r10, #0
 237 003e 05D0     		beq	.L19
  61:Drivers/LCD/Src/lcd.c **** 	if(delta_y>0)incy=1;
 238              		.loc 1 61 8 is_stmt 1 view .LVU59
 239              	.LVL24:
  61:Drivers/LCD/Src/lcd.c **** 	if(delta_y>0)incy=1;
 240              		.loc 1 61 16 view .LVU60
  61:Drivers/LCD/Src/lcd.c **** 	if(delta_y>0)incy=1;
 241              		.loc 1 61 23 is_stmt 0 view .LVU61
 242 0040 A0EB020A 		sub	r10, r0, r2
 243              	.LVL25:
  61:Drivers/LCD/Src/lcd.c **** 	if(delta_y>0)incy=1;
 244              		.loc 1 61 12 view .LVU62
 245 0044 4FF0FF32 		mov	r2, #-1
 246              	.LVL26:
  61:Drivers/LCD/Src/lcd.c **** 	if(delta_y>0)incy=1;
 247              		.loc 1 61 12 view .LVU63
 248 0048 0292     		str	r2, [sp, #8]
 249 004a EAE7     		b	.L11
 250              	.LVL27:
 251              	.L19:
  60:Drivers/LCD/Src/lcd.c **** 	else {incx=-1;delta_x=-delta_x;}
 252              		.loc 1 60 26 view .LVU64
 253 004c CDF808A0 		str	r10, [sp, #8]
 254 0050 E7E7     		b	.L11
 255              	.LVL28:
 256              	.L25:
  63:Drivers/LCD/Src/lcd.c **** 	else {incy=-1;delta_y=-delta_y;}
 257              		.loc 1 63 7 is_stmt 1 view .LVU65
  63:Drivers/LCD/Src/lcd.c **** 	else {incy=-1;delta_y=-delta_y;}
ARM GAS  C:\Users\17832\AppData\Local\Temp\cckefvo3.s 			page 7


 258              		.loc 1 63 10 is_stmt 0 view .LVU66
 259 0052 BBF1000F 		cmp	fp, #0
 260 0056 05D0     		beq	.L21
  64:Drivers/LCD/Src/lcd.c **** 	if(delta_x>delta_y)distance=delta_x; //选取基本增量坐标轴 
 261              		.loc 1 64 8 is_stmt 1 view .LVU67
 262              	.LVL29:
  64:Drivers/LCD/Src/lcd.c **** 	if(delta_x>delta_y)distance=delta_x; //选取基本增量坐标轴 
 263              		.loc 1 64 16 view .LVU68
  64:Drivers/LCD/Src/lcd.c **** 	if(delta_x>delta_y)distance=delta_x; //选取基本增量坐标轴 
 264              		.loc 1 64 23 is_stmt 0 view .LVU69
 265 0058 A1EB030B 		sub	fp, r1, r3
 266              	.LVL30:
  64:Drivers/LCD/Src/lcd.c **** 	if(delta_x>delta_y)distance=delta_x; //选取基本增量坐标轴 
 267              		.loc 1 64 12 view .LVU70
 268 005c 4FF0FF33 		mov	r3, #-1
 269              	.LVL31:
  64:Drivers/LCD/Src/lcd.c **** 	if(delta_x>delta_y)distance=delta_x; //选取基本增量坐标轴 
 270              		.loc 1 64 12 view .LVU71
 271 0060 0393     		str	r3, [sp, #12]
 272 0062 E3E7     		b	.L12
 273              	.LVL32:
 274              	.L21:
  63:Drivers/LCD/Src/lcd.c **** 	else {incy=-1;delta_y=-delta_y;}
 275              		.loc 1 63 26 view .LVU72
 276 0064 CDF80CB0 		str	fp, [sp, #12]
 277 0068 E0E7     		b	.L12
 278              	.LVL33:
 279              	.L22:
  66:Drivers/LCD/Src/lcd.c **** 	for(t=0;t<distance+1;t++)
 280              		.loc 1 66 15 view .LVU73
 281 006a 5E46     		mov	r6, fp
 282 006c E1E7     		b	.L13
 283              	.LVL34:
 284              	.L16:
 285              		.loc 1 67 23 is_stmt 1 discriminator 2 view .LVU74
 286              		.loc 1 67 24 is_stmt 0 discriminator 2 view .LVU75
 287 006e 0134     		adds	r4, r4, #1
 288              	.LVL35:
 289              		.loc 1 67 24 discriminator 2 view .LVU76
 290 0070 A4B2     		uxth	r4, r4
 291              	.LVL36:
 292              	.L14:
 293              		.loc 1 67 10 is_stmt 1 discriminator 1 view .LVU77
 294              		.loc 1 67 2 is_stmt 0 discriminator 1 view .LVU78
 295 0072 B442     		cmp	r4, r6
 296 0074 13DC     		bgt	.L26
  68:Drivers/LCD/Src/lcd.c **** 	{
  69:Drivers/LCD/Src/lcd.c **** 		LCD_DrawPoint(uRow,uCol,color);//画点
 297              		.loc 1 69 3 is_stmt 1 view .LVU79
 298 0076 019A     		ldr	r2, [sp, #4]
 299 0078 1FFA89F1 		uxth	r1, r9
 300 007c 1FFA88F0 		uxth	r0, r8
 301 0080 FFF7FEFF 		bl	LCD_DrawPoint
 302              	.LVL37:
  70:Drivers/LCD/Src/lcd.c **** 		xerr+=delta_x;
 303              		.loc 1 70 3 view .LVU80
 304              		.loc 1 70 7 is_stmt 0 view .LVU81
ARM GAS  C:\Users\17832\AppData\Local\Temp\cckefvo3.s 			page 8


 305 0084 5744     		add	r7, r7, r10
 306              	.LVL38:
  71:Drivers/LCD/Src/lcd.c **** 		yerr+=delta_y;
 307              		.loc 1 71 3 is_stmt 1 view .LVU82
 308              		.loc 1 71 7 is_stmt 0 view .LVU83
 309 0086 5D44     		add	r5, r5, fp
 310              	.LVL39:
  72:Drivers/LCD/Src/lcd.c **** 		if(xerr>distance)
 311              		.loc 1 72 3 is_stmt 1 view .LVU84
 312              		.loc 1 72 5 is_stmt 0 view .LVU85
 313 0088 BE42     		cmp	r6, r7
 314 008a 02DA     		bge	.L15
  73:Drivers/LCD/Src/lcd.c **** 		{
  74:Drivers/LCD/Src/lcd.c **** 			xerr-=distance;
 315              		.loc 1 74 4 is_stmt 1 view .LVU86
 316              		.loc 1 74 8 is_stmt 0 view .LVU87
 317 008c BF1B     		subs	r7, r7, r6
 318              	.LVL40:
  75:Drivers/LCD/Src/lcd.c **** 			uRow+=incx;
 319              		.loc 1 75 4 is_stmt 1 view .LVU88
 320              		.loc 1 75 8 is_stmt 0 view .LVU89
 321 008e 029B     		ldr	r3, [sp, #8]
 322 0090 9844     		add	r8, r8, r3
 323              	.LVL41:
 324              	.L15:
  76:Drivers/LCD/Src/lcd.c **** 		}
  77:Drivers/LCD/Src/lcd.c **** 		if(yerr>distance)
 325              		.loc 1 77 3 is_stmt 1 view .LVU90
 326              		.loc 1 77 5 is_stmt 0 view .LVU91
 327 0092 AE42     		cmp	r6, r5
 328 0094 EBDA     		bge	.L16
  78:Drivers/LCD/Src/lcd.c **** 		{
  79:Drivers/LCD/Src/lcd.c **** 			yerr-=distance;
 329              		.loc 1 79 4 is_stmt 1 view .LVU92
 330              		.loc 1 79 8 is_stmt 0 view .LVU93
 331 0096 AD1B     		subs	r5, r5, r6
 332              	.LVL42:
  80:Drivers/LCD/Src/lcd.c **** 			uCol+=incy;
 333              		.loc 1 80 4 is_stmt 1 view .LVU94
 334              		.loc 1 80 8 is_stmt 0 view .LVU95
 335 0098 039B     		ldr	r3, [sp, #12]
 336 009a 9944     		add	r9, r9, r3
 337              	.LVL43:
 338              		.loc 1 80 8 view .LVU96
 339 009c E7E7     		b	.L16
 340              	.L26:
  81:Drivers/LCD/Src/lcd.c **** 		}
  82:Drivers/LCD/Src/lcd.c **** 	}
  83:Drivers/LCD/Src/lcd.c **** }
 341              		.loc 1 83 1 view .LVU97
 342 009e 05B0     		add	sp, sp, #20
 343              	.LCFI4:
 344              		.cfi_def_cfa_offset 36
 345              		@ sp needed
 346 00a0 BDE8F08F 		pop	{r4, r5, r6, r7, r8, r9, r10, fp, pc}
 347              		.loc 1 83 1 view .LVU98
 348              		.cfi_endproc
ARM GAS  C:\Users\17832\AppData\Local\Temp\cckefvo3.s 			page 9


 349              	.LFE132:
 351              		.section	.text.LCD_DrawRectangle,"ax",%progbits
 352              		.align	1
 353              		.global	LCD_DrawRectangle
 354              		.syntax unified
 355              		.thumb
 356              		.thumb_func
 358              	LCD_DrawRectangle:
 359              	.LVL44:
 360              	.LFB133:
  84:Drivers/LCD/Src/lcd.c **** 
  85:Drivers/LCD/Src/lcd.c **** 
  86:Drivers/LCD/Src/lcd.c **** /******************************************************************************
  87:Drivers/LCD/Src/lcd.c ****       函数说明：画矩形
  88:Drivers/LCD/Src/lcd.c ****       入口数据：x1,y1   起始坐标
  89:Drivers/LCD/Src/lcd.c ****                 x2,y2   终止坐标
  90:Drivers/LCD/Src/lcd.c ****                 color   矩形的颜色
  91:Drivers/LCD/Src/lcd.c ****       返回值：  无
  92:Drivers/LCD/Src/lcd.c **** ******************************************************************************/
  93:Drivers/LCD/Src/lcd.c **** void LCD_DrawRectangle(uint16_t x1, uint16_t y1, uint16_t x2, uint16_t y2,uint16_t color)
  94:Drivers/LCD/Src/lcd.c **** {
 361              		.loc 1 94 1 is_stmt 1 view -0
 362              		.cfi_startproc
 363              		@ args = 4, pretend = 0, frame = 0
 364              		@ frame_needed = 0, uses_anonymous_args = 0
 365              		.loc 1 94 1 is_stmt 0 view .LVU100
 366 0000 2DE9F041 		push	{r4, r5, r6, r7, r8, lr}
 367              	.LCFI5:
 368              		.cfi_def_cfa_offset 24
 369              		.cfi_offset 4, -24
 370              		.cfi_offset 5, -20
 371              		.cfi_offset 6, -16
 372              		.cfi_offset 7, -12
 373              		.cfi_offset 8, -8
 374              		.cfi_offset 14, -4
 375 0004 82B0     		sub	sp, sp, #8
 376              	.LCFI6:
 377              		.cfi_def_cfa_offset 32
 378 0006 0746     		mov	r7, r0
 379 0008 0E46     		mov	r6, r1
 380 000a 1546     		mov	r5, r2
 381 000c 1C46     		mov	r4, r3
 382 000e BDF82080 		ldrh	r8, [sp, #32]
  95:Drivers/LCD/Src/lcd.c **** 	LCD_DrawLine(x1,y1,x2,y1,color);
 383              		.loc 1 95 2 is_stmt 1 view .LVU101
 384 0012 CDF80080 		str	r8, [sp]
 385 0016 0B46     		mov	r3, r1
 386              	.LVL45:
 387              		.loc 1 95 2 is_stmt 0 view .LVU102
 388 0018 FFF7FEFF 		bl	LCD_DrawLine
 389              	.LVL46:
  96:Drivers/LCD/Src/lcd.c **** 	LCD_DrawLine(x1,y1,x1,y2,color);
 390              		.loc 1 96 2 is_stmt 1 view .LVU103
 391 001c CDF80080 		str	r8, [sp]
 392 0020 2346     		mov	r3, r4
 393 0022 3A46     		mov	r2, r7
 394 0024 3146     		mov	r1, r6
ARM GAS  C:\Users\17832\AppData\Local\Temp\cckefvo3.s 			page 10


 395 0026 3846     		mov	r0, r7
 396 0028 FFF7FEFF 		bl	LCD_DrawLine
 397              	.LVL47:
  97:Drivers/LCD/Src/lcd.c **** 	LCD_DrawLine(x1,y2,x2,y2,color);
 398              		.loc 1 97 2 view .LVU104
 399 002c CDF80080 		str	r8, [sp]
 400 0030 2346     		mov	r3, r4
 401 0032 2A46     		mov	r2, r5
 402 0034 2146     		mov	r1, r4
 403 0036 3846     		mov	r0, r7
 404 0038 FFF7FEFF 		bl	LCD_DrawLine
 405              	.LVL48:
  98:Drivers/LCD/Src/lcd.c **** 	LCD_DrawLine(x2,y1,x2,y2,color);
 406              		.loc 1 98 2 view .LVU105
 407 003c CDF80080 		str	r8, [sp]
 408 0040 2346     		mov	r3, r4
 409 0042 2A46     		mov	r2, r5
 410 0044 3146     		mov	r1, r6
 411 0046 2846     		mov	r0, r5
 412 0048 FFF7FEFF 		bl	LCD_DrawLine
 413              	.LVL49:
  99:Drivers/LCD/Src/lcd.c **** }
 414              		.loc 1 99 1 is_stmt 0 view .LVU106
 415 004c 02B0     		add	sp, sp, #8
 416              	.LCFI7:
 417              		.cfi_def_cfa_offset 24
 418              		@ sp needed
 419 004e BDE8F081 		pop	{r4, r5, r6, r7, r8, pc}
 420              		.loc 1 99 1 view .LVU107
 421              		.cfi_endproc
 422              	.LFE133:
 424              		.section	.text.Draw_Circle,"ax",%progbits
 425              		.align	1
 426              		.global	Draw_Circle
 427              		.syntax unified
 428              		.thumb
 429              		.thumb_func
 431              	Draw_Circle:
 432              	.LVL50:
 433              	.LFB134:
 100:Drivers/LCD/Src/lcd.c **** 
 101:Drivers/LCD/Src/lcd.c **** 
 102:Drivers/LCD/Src/lcd.c **** /******************************************************************************
 103:Drivers/LCD/Src/lcd.c ****       函数说明：画圆
 104:Drivers/LCD/Src/lcd.c ****       入口数据：x0,y0   圆心坐标
 105:Drivers/LCD/Src/lcd.c ****                 r       半径
 106:Drivers/LCD/Src/lcd.c ****                 color   圆的颜色
 107:Drivers/LCD/Src/lcd.c ****       返回值：  无
 108:Drivers/LCD/Src/lcd.c **** ******************************************************************************/
 109:Drivers/LCD/Src/lcd.c **** void Draw_Circle(uint16_t x0,uint16_t y0,uint8_t r,uint16_t color)
 110:Drivers/LCD/Src/lcd.c **** {
 434              		.loc 1 110 1 is_stmt 1 view -0
 435              		.cfi_startproc
 436              		@ args = 0, pretend = 0, frame = 16
 437              		@ frame_needed = 0, uses_anonymous_args = 0
 438              		.loc 1 110 1 is_stmt 0 view .LVU109
 439 0000 2DE9F04F 		push	{r4, r5, r6, r7, r8, r9, r10, fp, lr}
ARM GAS  C:\Users\17832\AppData\Local\Temp\cckefvo3.s 			page 11


 440              	.LCFI8:
 441              		.cfi_def_cfa_offset 36
 442              		.cfi_offset 4, -36
 443              		.cfi_offset 5, -32
 444              		.cfi_offset 6, -28
 445              		.cfi_offset 7, -24
 446              		.cfi_offset 8, -20
 447              		.cfi_offset 9, -16
 448              		.cfi_offset 10, -12
 449              		.cfi_offset 11, -8
 450              		.cfi_offset 14, -4
 451 0004 85B0     		sub	sp, sp, #20
 452              	.LCFI9:
 453              		.cfi_def_cfa_offset 56
 454 0006 0090     		str	r0, [sp]
 455 0008 8A46     		mov	r10, r1
 456 000a 0392     		str	r2, [sp, #12]
 457 000c 1E46     		mov	r6, r3
 111:Drivers/LCD/Src/lcd.c **** 	int a,b;
 458              		.loc 1 111 2 is_stmt 1 view .LVU110
 112:Drivers/LCD/Src/lcd.c **** 	a=0;b=r;	  
 459              		.loc 1 112 2 view .LVU111
 460              	.LVL51:
 461              		.loc 1 112 6 view .LVU112
 113:Drivers/LCD/Src/lcd.c **** 	while(a<=b)
 462              		.loc 1 113 2 view .LVU113
 112:Drivers/LCD/Src/lcd.c **** 	a=0;b=r;	  
 463              		.loc 1 112 7 is_stmt 0 view .LVU114
 464 000e 9046     		mov	r8, r2
 112:Drivers/LCD/Src/lcd.c **** 	a=0;b=r;	  
 465              		.loc 1 112 3 view .LVU115
 466 0010 0027     		movs	r7, #0
 467              	.LVL52:
 468              	.L30:
 469              		.loc 1 113 7 is_stmt 1 view .LVU116
 470 0012 4745     		cmp	r7, r8
 471 0014 56DC     		bgt	.L34
 114:Drivers/LCD/Src/lcd.c **** 	{
 115:Drivers/LCD/Src/lcd.c **** 		LCD_DrawPoint(x0-b,y0-a,color);             //3           
 472              		.loc 1 115 3 view .LVU117
 473 0016 1FFA88F5 		uxth	r5, r8
 474 001a 009B     		ldr	r3, [sp]
 475 001c 5B1B     		subs	r3, r3, r5
 476 001e 98B2     		uxth	r0, r3
 477 0020 BCB2     		uxth	r4, r7
 478 0022 AAEB040B 		sub	fp, r10, r4
 479 0026 1FFA8BFB 		uxth	fp, fp
 480 002a 3246     		mov	r2, r6
 481 002c 5946     		mov	r1, fp
 482 002e 0190     		str	r0, [sp, #4]
 483 0030 FFF7FEFF 		bl	LCD_DrawPoint
 484              	.LVL53:
 116:Drivers/LCD/Src/lcd.c **** 		LCD_DrawPoint(x0+b,y0-a,color);             //0           
 485              		.loc 1 116 3 view .LVU118
 486 0034 009B     		ldr	r3, [sp]
 487 0036 05EB0309 		add	r9, r5, r3
 488 003a 1FFA89F9 		uxth	r9, r9
ARM GAS  C:\Users\17832\AppData\Local\Temp\cckefvo3.s 			page 12


 489 003e 3246     		mov	r2, r6
 490 0040 5946     		mov	r1, fp
 491 0042 4846     		mov	r0, r9
 492 0044 FFF7FEFF 		bl	LCD_DrawPoint
 493              	.LVL54:
 117:Drivers/LCD/Src/lcd.c **** 		LCD_DrawPoint(x0-a,y0+b,color);             //1                
 494              		.loc 1 117 3 view .LVU119
 495 0048 009B     		ldr	r3, [sp]
 496 004a A3EB040B 		sub	fp, r3, r4
 497 004e 1FFA8BFB 		uxth	fp, fp
 498 0052 05EB0A03 		add	r3, r5, r10
 499 0056 9AB2     		uxth	r2, r3
 500 0058 1146     		mov	r1, r2
 501 005a 3246     		mov	r2, r6
 502 005c 0291     		str	r1, [sp, #8]
 503 005e 5846     		mov	r0, fp
 504 0060 FFF7FEFF 		bl	LCD_DrawPoint
 505              	.LVL55:
 118:Drivers/LCD/Src/lcd.c **** 		LCD_DrawPoint(x0-a,y0-b,color);             //2             
 506              		.loc 1 118 3 view .LVU120
 507 0064 AAEB0505 		sub	r5, r10, r5
 508 0068 ADB2     		uxth	r5, r5
 509 006a 3246     		mov	r2, r6
 510 006c 2946     		mov	r1, r5
 511 006e 5846     		mov	r0, fp
 512 0070 FFF7FEFF 		bl	LCD_DrawPoint
 513              	.LVL56:
 119:Drivers/LCD/Src/lcd.c **** 		LCD_DrawPoint(x0+b,y0+a,color);             //4               
 514              		.loc 1 119 3 view .LVU121
 515 0074 04EB0A0B 		add	fp, r4, r10
 516 0078 1FFA8BFB 		uxth	fp, fp
 517 007c 3246     		mov	r2, r6
 518 007e 5946     		mov	r1, fp
 519 0080 4846     		mov	r0, r9
 520 0082 FFF7FEFF 		bl	LCD_DrawPoint
 521              	.LVL57:
 120:Drivers/LCD/Src/lcd.c **** 		LCD_DrawPoint(x0+a,y0-b,color);             //5
 522              		.loc 1 120 3 view .LVU122
 523 0086 009B     		ldr	r3, [sp]
 524 0088 1C44     		add	r4, r4, r3
 525 008a A4B2     		uxth	r4, r4
 526 008c 3246     		mov	r2, r6
 527 008e 2946     		mov	r1, r5
 528 0090 2046     		mov	r0, r4
 529 0092 FFF7FEFF 		bl	LCD_DrawPoint
 530              	.LVL58:
 121:Drivers/LCD/Src/lcd.c **** 		LCD_DrawPoint(x0+a,y0+b,color);             //6 
 531              		.loc 1 121 3 view .LVU123
 532 0096 3246     		mov	r2, r6
 533 0098 0299     		ldr	r1, [sp, #8]
 534 009a 2046     		mov	r0, r4
 535 009c FFF7FEFF 		bl	LCD_DrawPoint
 536              	.LVL59:
 122:Drivers/LCD/Src/lcd.c **** 		LCD_DrawPoint(x0-b,y0+a,color);             //7
 537              		.loc 1 122 3 view .LVU124
 538 00a0 3246     		mov	r2, r6
 539 00a2 5946     		mov	r1, fp
ARM GAS  C:\Users\17832\AppData\Local\Temp\cckefvo3.s 			page 13


 540 00a4 0198     		ldr	r0, [sp, #4]
 541 00a6 FFF7FEFF 		bl	LCD_DrawPoint
 542              	.LVL60:
 123:Drivers/LCD/Src/lcd.c **** 		a++;
 543              		.loc 1 123 3 view .LVU125
 544              		.loc 1 123 4 is_stmt 0 view .LVU126
 545 00aa 0137     		adds	r7, r7, #1
 546              	.LVL61:
 124:Drivers/LCD/Src/lcd.c **** 		if((a*a+b*b)>(r*r))//判断要画的点是否过远
 547              		.loc 1 124 3 is_stmt 1 view .LVU127
 548              		.loc 1 124 12 is_stmt 0 view .LVU128
 549 00ac 08FB08F3 		mul	r3, r8, r8
 550              		.loc 1 124 10 view .LVU129
 551 00b0 07FB0733 		mla	r3, r7, r7, r3
 552              		.loc 1 124 18 view .LVU130
 553 00b4 039A     		ldr	r2, [sp, #12]
 554 00b6 02FB02F2 		mul	r2, r2, r2
 555              		.loc 1 124 5 view .LVU131
 556 00ba 9342     		cmp	r3, r2
 557 00bc A9DD     		ble	.L30
 125:Drivers/LCD/Src/lcd.c **** 		{
 126:Drivers/LCD/Src/lcd.c **** 			b--;
 558              		.loc 1 126 4 is_stmt 1 view .LVU132
 559              		.loc 1 126 5 is_stmt 0 view .LVU133
 560 00be 08F1FF38 		add	r8, r8, #-1
 561              	.LVL62:
 562              		.loc 1 126 5 view .LVU134
 563 00c2 A6E7     		b	.L30
 564              	.L34:
 127:Drivers/LCD/Src/lcd.c **** 		}
 128:Drivers/LCD/Src/lcd.c **** 	}
 129:Drivers/LCD/Src/lcd.c **** }
 565              		.loc 1 129 1 view .LVU135
 566 00c4 05B0     		add	sp, sp, #20
 567              	.LCFI10:
 568              		.cfi_def_cfa_offset 36
 569              		@ sp needed
 570 00c6 BDE8F08F 		pop	{r4, r5, r6, r7, r8, r9, r10, fp, pc}
 571              		.loc 1 129 1 view .LVU136
 572              		.cfi_endproc
 573              	.LFE134:
 575              		.section	.text.LCD_ShowChinese12x12,"ax",%progbits
 576              		.align	1
 577              		.global	LCD_ShowChinese12x12
 578              		.syntax unified
 579              		.thumb
 580              		.thumb_func
 582              	LCD_ShowChinese12x12:
 583              	.LVL63:
 584              	.LFB136:
 130:Drivers/LCD/Src/lcd.c **** 
 131:Drivers/LCD/Src/lcd.c **** /******************************************************************************
 132:Drivers/LCD/Src/lcd.c ****       函数说明：显示汉字串
 133:Drivers/LCD/Src/lcd.c ****       入口数据：x,y显示坐标
 134:Drivers/LCD/Src/lcd.c ****                 *s 要显示的汉字串
 135:Drivers/LCD/Src/lcd.c ****                 fc 字的颜色
 136:Drivers/LCD/Src/lcd.c ****                 bc 字的背景色
ARM GAS  C:\Users\17832\AppData\Local\Temp\cckefvo3.s 			page 14


 137:Drivers/LCD/Src/lcd.c ****                 sizey 字号 可选 16 24 32
 138:Drivers/LCD/Src/lcd.c ****                 mode:  0非叠加模式  1叠加模式
 139:Drivers/LCD/Src/lcd.c ****       返回值：  无
 140:Drivers/LCD/Src/lcd.c **** ******************************************************************************/
 141:Drivers/LCD/Src/lcd.c **** void LCD_ShowChinese(uint16_t x,uint16_t y,uint8_t *s,uint16_t fc,uint16_t bc,uint8_t sizey,uint8_t
 142:Drivers/LCD/Src/lcd.c **** {
 143:Drivers/LCD/Src/lcd.c **** 	while(*s!=0)
 144:Drivers/LCD/Src/lcd.c **** 	{
 145:Drivers/LCD/Src/lcd.c **** 		if(sizey==12) LCD_ShowChinese12x12(x,y,s,fc,bc,sizey,mode);
 146:Drivers/LCD/Src/lcd.c **** 		else if(sizey==16) LCD_ShowChinese16x16(x,y,s,fc,bc,sizey,mode);
 147:Drivers/LCD/Src/lcd.c **** 		else if(sizey==24) LCD_ShowChinese24x24(x,y,s,fc,bc,sizey,mode);
 148:Drivers/LCD/Src/lcd.c **** 		else if(sizey==32) LCD_ShowChinese32x32(x,y,s,fc,bc,sizey,mode);
 149:Drivers/LCD/Src/lcd.c **** 		else return;
 150:Drivers/LCD/Src/lcd.c **** 		s+=2;
 151:Drivers/LCD/Src/lcd.c **** 		x+=sizey;
 152:Drivers/LCD/Src/lcd.c **** 	}
 153:Drivers/LCD/Src/lcd.c **** }
 154:Drivers/LCD/Src/lcd.c **** 
 155:Drivers/LCD/Src/lcd.c **** /******************************************************************************
 156:Drivers/LCD/Src/lcd.c ****       函数说明：显示单个12x12汉字
 157:Drivers/LCD/Src/lcd.c ****       入口数据：x,y显示坐标
 158:Drivers/LCD/Src/lcd.c ****                 *s 要显示的汉字
 159:Drivers/LCD/Src/lcd.c ****                 fc 字的颜色
 160:Drivers/LCD/Src/lcd.c ****                 bc 字的背景色
 161:Drivers/LCD/Src/lcd.c ****                 sizey 字号
 162:Drivers/LCD/Src/lcd.c ****                 mode:  0非叠加模式  1叠加模式
 163:Drivers/LCD/Src/lcd.c ****       返回值：  无
 164:Drivers/LCD/Src/lcd.c **** ******************************************************************************/
 165:Drivers/LCD/Src/lcd.c **** void LCD_ShowChinese12x12(uint16_t x,uint16_t y,uint8_t *s,uint16_t fc,uint16_t bc,uint8_t sizey,ui
 166:Drivers/LCD/Src/lcd.c **** {
 585              		.loc 1 166 1 is_stmt 1 view -0
 586              		.cfi_startproc
 587              		@ args = 12, pretend = 0, frame = 32
 588              		@ frame_needed = 0, uses_anonymous_args = 0
 589              		.loc 1 166 1 is_stmt 0 view .LVU138
 590 0000 2DE9F04F 		push	{r4, r5, r6, r7, r8, r9, r10, fp, lr}
 591              	.LCFI11:
 592              		.cfi_def_cfa_offset 36
 593              		.cfi_offset 4, -36
 594              		.cfi_offset 5, -32
 595              		.cfi_offset 6, -28
 596              		.cfi_offset 7, -24
 597              		.cfi_offset 8, -20
 598              		.cfi_offset 9, -16
 599              		.cfi_offset 10, -12
 600              		.cfi_offset 11, -8
 601              		.cfi_offset 14, -4
 602 0004 89B0     		sub	sp, sp, #36
 603              	.LCFI12:
 604              		.cfi_def_cfa_offset 72
 605 0006 0690     		str	r0, [sp, #24]
 606 0008 0391     		str	r1, [sp, #12]
 607 000a 0092     		str	r2, [sp]
 608 000c 0193     		str	r3, [sp, #4]
 609 000e BDF84830 		ldrh	r3, [sp, #72]
 610              	.LVL64:
 611              		.loc 1 166 1 view .LVU139
ARM GAS  C:\Users\17832\AppData\Local\Temp\cckefvo3.s 			page 15


 612 0012 0293     		str	r3, [sp, #8]
 613 0014 9DF84C80 		ldrb	r8, [sp, #76]	@ zero_extendqisi2
 614 0018 9DF850B0 		ldrb	fp, [sp, #80]	@ zero_extendqisi2
 167:Drivers/LCD/Src/lcd.c **** 	uint8_t i,j,m=0;
 615              		.loc 1 167 2 is_stmt 1 view .LVU140
 616              	.LVL65:
 168:Drivers/LCD/Src/lcd.c **** 	uint16_t k;
 617              		.loc 1 168 2 view .LVU141
 169:Drivers/LCD/Src/lcd.c **** 	uint16_t HZnum;//汉字数目
 618              		.loc 1 169 2 view .LVU142
 170:Drivers/LCD/Src/lcd.c **** 	uint16_t TypefaceNum;//一个字符所占字节大小
 619              		.loc 1 170 2 view .LVU143
 171:Drivers/LCD/Src/lcd.c **** 	uint16_t x0=x;
 620              		.loc 1 171 2 view .LVU144
 172:Drivers/LCD/Src/lcd.c **** 	TypefaceNum=(sizey/8+((sizey%8)?1:0))*sizey;
 621              		.loc 1 172 2 view .LVU145
 622              		.loc 1 172 35 is_stmt 0 view .LVU146
 623 001c 18F00703 		ands	r3, r8, #7
 624 0020 18BF     		it	ne
 625 0022 0123     		movne	r3, #1
 626              		.loc 1 172 22 view .LVU147
 627 0024 03EBD803 		add	r3, r3, r8, lsr #3
 628              		.loc 1 172 13 view .LVU148
 629 0028 1FFA88F2 		uxth	r2, r8
 630              	.LVL66:
 631              		.loc 1 172 13 view .LVU149
 632 002c 0592     		str	r2, [sp, #20]
 633 002e 03FB08F3 		mul	r3, r3, r8
 634 0032 0493     		str	r3, [sp, #16]
 635              	.LVL67:
 173:Drivers/LCD/Src/lcd.c **** 	                         
 174:Drivers/LCD/Src/lcd.c **** 	HZnum=sizeof(tfont12)/sizeof(typFNT_GB12);	//统计汉字数目
 636              		.loc 1 174 2 is_stmt 1 view .LVU150
 175:Drivers/LCD/Src/lcd.c **** 	for(k=0;k<HZnum;k++) 
 637              		.loc 1 175 2 view .LVU151
 638              		.loc 1 175 2 is_stmt 0 view .LVU152
 639 0034 0746     		mov	r7, r0
 640              		.loc 1 175 7 view .LVU153
 641 0036 0025     		movs	r5, #0
 167:Drivers/LCD/Src/lcd.c **** 	uint16_t k;
 642              		.loc 1 167 14 view .LVU154
 643 0038 2E46     		mov	r6, r5
 644              		.loc 1 175 2 view .LVU155
 645 003a 4AE0     		b	.L36
 646              	.LVL68:
 647              	.L40:
 176:Drivers/LCD/Src/lcd.c **** 	{
 177:Drivers/LCD/Src/lcd.c **** 		if((tfont12[k].Index[0]==*(s))&&(tfont12[k].Index[1]==*(s+1)))
 178:Drivers/LCD/Src/lcd.c **** 		{ 	
 179:Drivers/LCD/Src/lcd.c **** 			LCD_Address_Set(x,y,x+sizey-1,y+sizey-1);
 180:Drivers/LCD/Src/lcd.c **** 			for(i=0;i<TypefaceNum;i++)
 181:Drivers/LCD/Src/lcd.c **** 			{
 182:Drivers/LCD/Src/lcd.c **** 				for(j=0;j<8;j++)
 183:Drivers/LCD/Src/lcd.c **** 				{	
 184:Drivers/LCD/Src/lcd.c **** 					if(!mode)//非叠加方式
 185:Drivers/LCD/Src/lcd.c **** 					{
 186:Drivers/LCD/Src/lcd.c **** 						if(tfont12[k].Msk[i]&(0x01<<j))LCD_WR_DATA(fc);
ARM GAS  C:\Users\17832\AppData\Local\Temp\cckefvo3.s 			page 16


 187:Drivers/LCD/Src/lcd.c **** 						else LCD_WR_DATA(bc);
 648              		.loc 1 187 12 is_stmt 1 view .LVU156
 649 003c 0298     		ldr	r0, [sp, #8]
 650 003e FFF7FEFF 		bl	LCD_WR_DATA
 651              	.LVL69:
 652              	.L41:
 188:Drivers/LCD/Src/lcd.c **** 						m++;
 653              		.loc 1 188 7 view .LVU157
 654              		.loc 1 188 8 is_stmt 0 view .LVU158
 655 0042 0136     		adds	r6, r6, #1
 656              	.LVL70:
 657              		.loc 1 188 8 view .LVU159
 658 0044 F6B2     		uxtb	r6, r6
 659              	.LVL71:
 189:Drivers/LCD/Src/lcd.c **** 						if(m%sizey==0)
 660              		.loc 1 189 7 is_stmt 1 view .LVU160
 661              		.loc 1 189 17 is_stmt 0 view .LVU161
 662 0046 B6FBF8F3 		udiv	r3, r6, r8
 663 004a 08FB1363 		mls	r3, r8, r3, r6
 664              		.loc 1 189 9 view .LVU162
 665 004e 13F0FF03 		ands	r3, r3, #255
 666 0052 38D0     		beq	.L51
 667              	.L43:
 182:Drivers/LCD/Src/lcd.c **** 				{	
 668              		.loc 1 182 17 is_stmt 1 discriminator 2 view .LVU163
 182:Drivers/LCD/Src/lcd.c **** 				{	
 669              		.loc 1 182 18 is_stmt 0 discriminator 2 view .LVU164
 670 0054 0134     		adds	r4, r4, #1
 671              	.LVL72:
 182:Drivers/LCD/Src/lcd.c **** 				{	
 672              		.loc 1 182 18 discriminator 2 view .LVU165
 673 0056 E4B2     		uxtb	r4, r4
 674              	.LVL73:
 675              	.L46:
 182:Drivers/LCD/Src/lcd.c **** 				{	
 676              		.loc 1 182 13 is_stmt 1 discriminator 1 view .LVU166
 182:Drivers/LCD/Src/lcd.c **** 				{	
 677              		.loc 1 182 5 is_stmt 0 discriminator 1 view .LVU167
 678 0058 072C     		cmp	r4, #7
 679 005a 23D8     		bhi	.L42
 184:Drivers/LCD/Src/lcd.c **** 					{
 680              		.loc 1 184 6 is_stmt 1 view .LVU168
 184:Drivers/LCD/Src/lcd.c **** 					{
 681              		.loc 1 184 8 is_stmt 0 view .LVU169
 682 005c 6DB9     		cbnz	r5, .L39
 186:Drivers/LCD/Src/lcd.c **** 						else LCD_WR_DATA(bc);
 683              		.loc 1 186 7 is_stmt 1 view .LVU170
 186:Drivers/LCD/Src/lcd.c **** 						else LCD_WR_DATA(bc);
 684              		.loc 1 186 24 is_stmt 0 view .LVU171
 685 005e 334B     		ldr	r3, .L55
 686 0060 1A22     		movs	r2, #26
 687 0062 02FB0A33 		mla	r3, r2, r10, r3
 688 0066 4B44     		add	r3, r3, r9
 689 0068 9B78     		ldrb	r3, [r3, #2]	@ zero_extendqisi2
 186:Drivers/LCD/Src/lcd.c **** 						else LCD_WR_DATA(bc);
 690              		.loc 1 186 10 view .LVU172
 691 006a 2341     		asrs	r3, r3, r4
ARM GAS  C:\Users\17832\AppData\Local\Temp\cckefvo3.s 			page 17


 186:Drivers/LCD/Src/lcd.c **** 						else LCD_WR_DATA(bc);
 692              		.loc 1 186 9 view .LVU173
 693 006c 13F0010F 		tst	r3, #1
 694 0070 E4D0     		beq	.L40
 186:Drivers/LCD/Src/lcd.c **** 						else LCD_WR_DATA(bc);
 695              		.loc 1 186 38 is_stmt 1 discriminator 1 view .LVU174
 696 0072 0198     		ldr	r0, [sp, #4]
 697 0074 FFF7FEFF 		bl	LCD_WR_DATA
 698              	.LVL74:
 699 0078 E3E7     		b	.L41
 700              	.L39:
 190:Drivers/LCD/Src/lcd.c **** 						{
 191:Drivers/LCD/Src/lcd.c **** 							m=0;
 192:Drivers/LCD/Src/lcd.c **** 							break;
 193:Drivers/LCD/Src/lcd.c **** 						}
 194:Drivers/LCD/Src/lcd.c **** 					}
 195:Drivers/LCD/Src/lcd.c **** 					else//叠加方式
 196:Drivers/LCD/Src/lcd.c **** 					{
 197:Drivers/LCD/Src/lcd.c **** 						if(tfont12[k].Msk[i]&(0x01<<j))	LCD_DrawPoint(x,y,fc);//画一个点
 701              		.loc 1 197 7 view .LVU175
 702              		.loc 1 197 24 is_stmt 0 view .LVU176
 703 007a 2C4B     		ldr	r3, .L55
 704 007c 1A22     		movs	r2, #26
 705 007e 02FB0A33 		mla	r3, r2, r10, r3
 706 0082 4B44     		add	r3, r3, r9
 707 0084 9B78     		ldrb	r3, [r3, #2]	@ zero_extendqisi2
 708              		.loc 1 197 10 view .LVU177
 709 0086 2341     		asrs	r3, r3, r4
 710              		.loc 1 197 9 view .LVU178
 711 0088 13F0010F 		tst	r3, #1
 712 008c 15D1     		bne	.L52
 713              	.L44:
 198:Drivers/LCD/Src/lcd.c **** 						x++;
 714              		.loc 1 198 7 is_stmt 1 view .LVU179
 715              		.loc 1 198 8 is_stmt 0 view .LVU180
 716 008e 0137     		adds	r7, r7, #1
 717              	.LVL75:
 718              		.loc 1 198 8 view .LVU181
 719 0090 BFB2     		uxth	r7, r7
 720              	.LVL76:
 199:Drivers/LCD/Src/lcd.c **** 						if((x-x0)==sizey)
 721              		.loc 1 199 7 is_stmt 1 view .LVU182
 722              		.loc 1 199 12 is_stmt 0 view .LVU183
 723 0092 A7EB0B03 		sub	r3, r7, fp
 724              		.loc 1 199 9 view .LVU184
 725 0096 4345     		cmp	r3, r8
 726 0098 DCD1     		bne	.L43
 200:Drivers/LCD/Src/lcd.c **** 						{
 201:Drivers/LCD/Src/lcd.c **** 							x=x0;
 727              		.loc 1 201 8 is_stmt 1 view .LVU185
 728              	.LVL77:
 202:Drivers/LCD/Src/lcd.c **** 							y++;
 729              		.loc 1 202 8 view .LVU186
 730              		.loc 1 202 9 is_stmt 0 view .LVU187
 731 009a 039B     		ldr	r3, [sp, #12]
 732 009c 0133     		adds	r3, r3, #1
 733 009e 9BB2     		uxth	r3, r3
ARM GAS  C:\Users\17832\AppData\Local\Temp\cckefvo3.s 			page 18


 734 00a0 0393     		str	r3, [sp, #12]
 735              	.LVL78:
 203:Drivers/LCD/Src/lcd.c **** 							break;
 736              		.loc 1 203 8 is_stmt 1 view .LVU188
 201:Drivers/LCD/Src/lcd.c **** 							y++;
 737              		.loc 1 201 9 is_stmt 0 view .LVU189
 738 00a2 5F46     		mov	r7, fp
 739              	.LVL79:
 740              	.L42:
 180:Drivers/LCD/Src/lcd.c **** 			{
 741              		.loc 1 180 26 is_stmt 1 discriminator 2 view .LVU190
 180:Drivers/LCD/Src/lcd.c **** 			{
 742              		.loc 1 180 27 is_stmt 0 discriminator 2 view .LVU191
 743 00a4 09F10109 		add	r9, r9, #1
 744              	.LVL80:
 180:Drivers/LCD/Src/lcd.c **** 			{
 745              		.loc 1 180 27 discriminator 2 view .LVU192
 746 00a8 5FFA89F9 		uxtb	r9, r9
 747              	.LVL81:
 748              	.L38:
 180:Drivers/LCD/Src/lcd.c **** 			{
 749              		.loc 1 180 12 is_stmt 1 discriminator 1 view .LVU193
 180:Drivers/LCD/Src/lcd.c **** 			{
 750              		.loc 1 180 13 is_stmt 0 discriminator 1 view .LVU194
 751 00ac 1FFA89F3 		uxth	r3, r9
 180:Drivers/LCD/Src/lcd.c **** 			{
 752              		.loc 1 180 4 discriminator 1 view .LVU195
 753 00b0 049A     		ldr	r2, [sp, #16]
 754 00b2 9342     		cmp	r3, r2
 755 00b4 09D2     		bcs	.L53
 182:Drivers/LCD/Src/lcd.c **** 				{	
 756              		.loc 1 182 10 view .LVU196
 757 00b6 0024     		movs	r4, #0
 758 00b8 CEE7     		b	.L46
 759              	.LVL82:
 760              	.L52:
 197:Drivers/LCD/Src/lcd.c **** 						x++;
 761              		.loc 1 197 39 is_stmt 1 discriminator 1 view .LVU197
 762 00ba 019A     		ldr	r2, [sp, #4]
 763 00bc 0399     		ldr	r1, [sp, #12]
 764 00be 3846     		mov	r0, r7
 765 00c0 FFF7FEFF 		bl	LCD_DrawPoint
 766              	.LVL83:
 767 00c4 E3E7     		b	.L44
 768              	.L51:
 191:Drivers/LCD/Src/lcd.c **** 							break;
 769              		.loc 1 191 9 is_stmt 0 view .LVU198
 770 00c6 1E46     		mov	r6, r3
 771              	.LVL84:
 191:Drivers/LCD/Src/lcd.c **** 							break;
 772              		.loc 1 191 9 view .LVU199
 773 00c8 ECE7     		b	.L42
 774              	.LVL85:
 775              	.L53:
 191:Drivers/LCD/Src/lcd.c **** 							break;
 776              		.loc 1 191 9 view .LVU200
 777 00ca AB46     		mov	fp, r5
ARM GAS  C:\Users\17832\AppData\Local\Temp\cckefvo3.s 			page 19


 778 00cc 079D     		ldr	r5, [sp, #28]
 779              	.LVL86:
 780              	.L37:
 204:Drivers/LCD/Src/lcd.c **** 						}
 205:Drivers/LCD/Src/lcd.c **** 					}
 206:Drivers/LCD/Src/lcd.c **** 				}
 207:Drivers/LCD/Src/lcd.c **** 			}
 208:Drivers/LCD/Src/lcd.c **** 		}				  	
 209:Drivers/LCD/Src/lcd.c **** 		continue;  //查找到对应点阵字库立即退出，防止多个汉字重复取模带来影响
 781              		.loc 1 209 3 is_stmt 1 view .LVU201
 175:Drivers/LCD/Src/lcd.c **** 	{
 782              		.loc 1 175 18 view .LVU202
 175:Drivers/LCD/Src/lcd.c **** 	{
 783              		.loc 1 175 19 is_stmt 0 view .LVU203
 784 00ce 0135     		adds	r5, r5, #1
 785 00d0 ADB2     		uxth	r5, r5
 786              	.LVL87:
 787              	.L36:
 175:Drivers/LCD/Src/lcd.c **** 	{
 788              		.loc 1 175 10 is_stmt 1 discriminator 1 view .LVU204
 175:Drivers/LCD/Src/lcd.c **** 	{
 789              		.loc 1 175 2 is_stmt 0 discriminator 1 view .LVU205
 790 00d2 042D     		cmp	r5, #4
 791 00d4 26D8     		bhi	.L54
 177:Drivers/LCD/Src/lcd.c **** 		{ 	
 792              		.loc 1 177 3 is_stmt 1 view .LVU206
 177:Drivers/LCD/Src/lcd.c **** 		{ 	
 793              		.loc 1 177 23 is_stmt 0 view .LVU207
 794 00d6 AA46     		mov	r10, r5
 795 00d8 1A23     		movs	r3, #26
 796 00da 05FB03F3 		mul	r3, r5, r3
 797 00de 134A     		ldr	r2, .L55
 798 00e0 D25C     		ldrb	r2, [r2, r3]	@ zero_extendqisi2
 177:Drivers/LCD/Src/lcd.c **** 		{ 	
 799              		.loc 1 177 26 view .LVU208
 800 00e2 009B     		ldr	r3, [sp]
 801 00e4 1B78     		ldrb	r3, [r3]	@ zero_extendqisi2
 177:Drivers/LCD/Src/lcd.c **** 		{ 	
 802              		.loc 1 177 5 view .LVU209
 803 00e6 9A42     		cmp	r2, r3
 804 00e8 F1D1     		bne	.L37
 177:Drivers/LCD/Src/lcd.c **** 		{ 	
 805              		.loc 1 177 52 discriminator 1 view .LVU210
 806 00ea 104B     		ldr	r3, .L55
 807 00ec 1A22     		movs	r2, #26
 808 00ee 02FB0533 		mla	r3, r2, r5, r3
 809 00f2 5A78     		ldrb	r2, [r3, #1]	@ zero_extendqisi2
 177:Drivers/LCD/Src/lcd.c **** 		{ 	
 810              		.loc 1 177 55 discriminator 1 view .LVU211
 811 00f4 009B     		ldr	r3, [sp]
 812 00f6 5B78     		ldrb	r3, [r3, #1]	@ zero_extendqisi2
 177:Drivers/LCD/Src/lcd.c **** 		{ 	
 813              		.loc 1 177 33 discriminator 1 view .LVU212
 814 00f8 9A42     		cmp	r2, r3
 815 00fa E8D1     		bne	.L37
 179:Drivers/LCD/Src/lcd.c **** 			for(i=0;i<TypefaceNum;i++)
 816              		.loc 1 179 4 is_stmt 1 view .LVU213
ARM GAS  C:\Users\17832\AppData\Local\Temp\cckefvo3.s 			page 20


 179:Drivers/LCD/Src/lcd.c **** 			for(i=0;i<TypefaceNum;i++)
 817              		.loc 1 179 25 is_stmt 0 view .LVU214
 818 00fc 059B     		ldr	r3, [sp, #20]
 819 00fe DA19     		adds	r2, r3, r7
 820 0100 92B2     		uxth	r2, r2
 179:Drivers/LCD/Src/lcd.c **** 			for(i=0;i<TypefaceNum;i++)
 821              		.loc 1 179 35 view .LVU215
 822 0102 0399     		ldr	r1, [sp, #12]
 823 0104 0B44     		add	r3, r3, r1
 824 0106 9BB2     		uxth	r3, r3
 179:Drivers/LCD/Src/lcd.c **** 			for(i=0;i<TypefaceNum;i++)
 825              		.loc 1 179 4 view .LVU216
 826 0108 013B     		subs	r3, r3, #1
 827 010a 013A     		subs	r2, r2, #1
 828 010c 9BB2     		uxth	r3, r3
 829 010e 92B2     		uxth	r2, r2
 830 0110 3846     		mov	r0, r7
 831 0112 FFF7FEFF 		bl	LCD_Address_Set
 832              	.LVL88:
 180:Drivers/LCD/Src/lcd.c **** 			{
 833              		.loc 1 180 4 is_stmt 1 view .LVU217
 180:Drivers/LCD/Src/lcd.c **** 			{
 834              		.loc 1 180 9 is_stmt 0 view .LVU218
 835 0116 4FF00009 		mov	r9, #0
 836 011a 0795     		str	r5, [sp, #28]
 837 011c 5D46     		mov	r5, fp
 838              	.LVL89:
 180:Drivers/LCD/Src/lcd.c **** 			{
 839              		.loc 1 180 9 view .LVU219
 840 011e DDF818B0 		ldr	fp, [sp, #24]
 180:Drivers/LCD/Src/lcd.c **** 			{
 841              		.loc 1 180 4 view .LVU220
 842 0122 C3E7     		b	.L38
 843              	.LVL90:
 844              	.L54:
 210:Drivers/LCD/Src/lcd.c **** 	}
 211:Drivers/LCD/Src/lcd.c **** } 
 845              		.loc 1 211 1 view .LVU221
 846 0124 09B0     		add	sp, sp, #36
 847              	.LCFI13:
 848              		.cfi_def_cfa_offset 36
 849              	.LVL91:
 850              		.loc 1 211 1 view .LVU222
 851              		@ sp needed
 852 0126 BDE8F08F 		pop	{r4, r5, r6, r7, r8, r9, r10, fp, pc}
 853              	.LVL92:
 854              	.L56:
 855              		.loc 1 211 1 view .LVU223
 856 012a 00BF     		.align	2
 857              	.L55:
 858 012c 00000000 		.word	.LANCHOR0
 859              		.cfi_endproc
 860              	.LFE136:
 862              		.section	.text.LCD_ShowChinese16x16,"ax",%progbits
 863              		.align	1
 864              		.global	LCD_ShowChinese16x16
 865              		.syntax unified
ARM GAS  C:\Users\17832\AppData\Local\Temp\cckefvo3.s 			page 21


 866              		.thumb
 867              		.thumb_func
 869              	LCD_ShowChinese16x16:
 870              	.LVL93:
 871              	.LFB137:
 212:Drivers/LCD/Src/lcd.c **** 
 213:Drivers/LCD/Src/lcd.c **** /******************************************************************************
 214:Drivers/LCD/Src/lcd.c ****       函数说明：显示单个16x16汉字
 215:Drivers/LCD/Src/lcd.c ****       入口数据：x,y显示坐标
 216:Drivers/LCD/Src/lcd.c ****                 *s 要显示的汉字
 217:Drivers/LCD/Src/lcd.c ****                 fc 字的颜色
 218:Drivers/LCD/Src/lcd.c ****                 bc 字的背景色
 219:Drivers/LCD/Src/lcd.c ****                 sizey 字号
 220:Drivers/LCD/Src/lcd.c ****                 mode:  0非叠加模式  1叠加模式
 221:Drivers/LCD/Src/lcd.c ****       返回值：  无
 222:Drivers/LCD/Src/lcd.c **** ******************************************************************************/
 223:Drivers/LCD/Src/lcd.c **** void LCD_ShowChinese16x16(uint16_t x,uint16_t y,uint8_t *s,uint16_t fc,uint16_t bc,uint8_t sizey,ui
 224:Drivers/LCD/Src/lcd.c **** {
 872              		.loc 1 224 1 is_stmt 1 view -0
 873              		.cfi_startproc
 874              		@ args = 12, pretend = 0, frame = 32
 875              		@ frame_needed = 0, uses_anonymous_args = 0
 876              		.loc 1 224 1 is_stmt 0 view .LVU225
 877 0000 2DE9F04F 		push	{r4, r5, r6, r7, r8, r9, r10, fp, lr}
 878              	.LCFI14:
 879              		.cfi_def_cfa_offset 36
 880              		.cfi_offset 4, -36
 881              		.cfi_offset 5, -32
 882              		.cfi_offset 6, -28
 883              		.cfi_offset 7, -24
 884              		.cfi_offset 8, -20
 885              		.cfi_offset 9, -16
 886              		.cfi_offset 10, -12
 887              		.cfi_offset 11, -8
 888              		.cfi_offset 14, -4
 889 0004 89B0     		sub	sp, sp, #36
 890              	.LCFI15:
 891              		.cfi_def_cfa_offset 72
 892 0006 0690     		str	r0, [sp, #24]
 893 0008 0391     		str	r1, [sp, #12]
 894 000a 0092     		str	r2, [sp]
 895 000c 0193     		str	r3, [sp, #4]
 896 000e BDF84830 		ldrh	r3, [sp, #72]
 897              	.LVL94:
 898              		.loc 1 224 1 view .LVU226
 899 0012 0293     		str	r3, [sp, #8]
 900 0014 9DF84C90 		ldrb	r9, [sp, #76]	@ zero_extendqisi2
 901 0018 9DF850B0 		ldrb	fp, [sp, #80]	@ zero_extendqisi2
 225:Drivers/LCD/Src/lcd.c **** 	uint8_t i,j,m=0;
 902              		.loc 1 225 2 is_stmt 1 view .LVU227
 903              	.LVL95:
 226:Drivers/LCD/Src/lcd.c **** 	uint16_t k;
 904              		.loc 1 226 2 view .LVU228
 227:Drivers/LCD/Src/lcd.c **** 	uint16_t HZnum;//汉字数目
 905              		.loc 1 227 2 view .LVU229
 228:Drivers/LCD/Src/lcd.c **** 	uint16_t TypefaceNum;//一个字符所占字节大小
 906              		.loc 1 228 2 view .LVU230
ARM GAS  C:\Users\17832\AppData\Local\Temp\cckefvo3.s 			page 22


 229:Drivers/LCD/Src/lcd.c **** 	uint16_t x0=x;
 907              		.loc 1 229 2 view .LVU231
 230:Drivers/LCD/Src/lcd.c ****   TypefaceNum=(sizey/8+((sizey%8)?1:0))*sizey;
 908              		.loc 1 230 3 view .LVU232
 909              		.loc 1 230 36 is_stmt 0 view .LVU233
 910 001c 19F00703 		ands	r3, r9, #7
 911 0020 18BF     		it	ne
 912 0022 0123     		movne	r3, #1
 913              		.loc 1 230 23 view .LVU234
 914 0024 03EBD903 		add	r3, r3, r9, lsr #3
 915              		.loc 1 230 14 view .LVU235
 916 0028 1FFA89F2 		uxth	r2, r9
 917              	.LVL96:
 918              		.loc 1 230 14 view .LVU236
 919 002c 0592     		str	r2, [sp, #20]
 920 002e 03FB09F3 		mul	r3, r3, r9
 921 0032 0493     		str	r3, [sp, #16]
 922              	.LVL97:
 231:Drivers/LCD/Src/lcd.c **** 	HZnum=sizeof(tfont16)/sizeof(typFNT_GB16);	//统计汉字数目
 923              		.loc 1 231 2 is_stmt 1 view .LVU237
 232:Drivers/LCD/Src/lcd.c **** 	for(k=0;k<HZnum;k++) 
 924              		.loc 1 232 2 view .LVU238
 925              		.loc 1 232 2 is_stmt 0 view .LVU239
 926 0034 0746     		mov	r7, r0
 927              		.loc 1 232 7 view .LVU240
 928 0036 0024     		movs	r4, #0
 225:Drivers/LCD/Src/lcd.c **** 	uint16_t k;
 929              		.loc 1 225 14 view .LVU241
 930 0038 2646     		mov	r6, r4
 931              		.loc 1 232 2 view .LVU242
 932 003a 4CE0     		b	.L58
 933              	.LVL98:
 934              	.L62:
 233:Drivers/LCD/Src/lcd.c **** 	{
 234:Drivers/LCD/Src/lcd.c **** 		if ((tfont16[k].Index[0]==*(s))&&(tfont16[k].Index[1]==*(s+1)))
 235:Drivers/LCD/Src/lcd.c **** 		{ 	
 236:Drivers/LCD/Src/lcd.c **** 			LCD_Address_Set(x,y,x+sizey-1,y+sizey-1);
 237:Drivers/LCD/Src/lcd.c **** 			for(i=0;i<TypefaceNum;i++)
 238:Drivers/LCD/Src/lcd.c **** 			{
 239:Drivers/LCD/Src/lcd.c **** 				for(j=0;j<8;j++)
 240:Drivers/LCD/Src/lcd.c **** 				{	
 241:Drivers/LCD/Src/lcd.c **** 					if(!mode)//非叠加方式
 242:Drivers/LCD/Src/lcd.c **** 					{
 243:Drivers/LCD/Src/lcd.c **** 						if(tfont16[k].Msk[i]&(0x01<<j))LCD_WR_DATA(fc);
 244:Drivers/LCD/Src/lcd.c **** 						else LCD_WR_DATA(bc);
 935              		.loc 1 244 12 is_stmt 1 view .LVU243
 936 003c 0298     		ldr	r0, [sp, #8]
 937 003e FFF7FEFF 		bl	LCD_WR_DATA
 938              	.LVL99:
 939              	.L63:
 245:Drivers/LCD/Src/lcd.c **** 						m++;
 940              		.loc 1 245 7 view .LVU244
 941              		.loc 1 245 8 is_stmt 0 view .LVU245
 942 0042 0136     		adds	r6, r6, #1
 943              	.LVL100:
 944              		.loc 1 245 8 view .LVU246
 945 0044 F6B2     		uxtb	r6, r6
ARM GAS  C:\Users\17832\AppData\Local\Temp\cckefvo3.s 			page 23


 946              	.LVL101:
 246:Drivers/LCD/Src/lcd.c **** 						if(m%sizey==0)
 947              		.loc 1 246 7 is_stmt 1 view .LVU247
 948              		.loc 1 246 17 is_stmt 0 view .LVU248
 949 0046 B6FBF9F3 		udiv	r3, r6, r9
 950 004a 09FB1363 		mls	r3, r9, r3, r6
 951              		.loc 1 246 9 view .LVU249
 952 004e 13F0FF03 		ands	r3, r3, #255
 953 0052 3AD0     		beq	.L73
 954              	.L65:
 239:Drivers/LCD/Src/lcd.c **** 				{	
 955              		.loc 1 239 17 is_stmt 1 discriminator 2 view .LVU250
 239:Drivers/LCD/Src/lcd.c **** 				{	
 956              		.loc 1 239 18 is_stmt 0 discriminator 2 view .LVU251
 957 0054 0134     		adds	r4, r4, #1
 958              	.LVL102:
 239:Drivers/LCD/Src/lcd.c **** 				{	
 959              		.loc 1 239 18 discriminator 2 view .LVU252
 960 0056 E4B2     		uxtb	r4, r4
 961              	.LVL103:
 962              	.L68:
 239:Drivers/LCD/Src/lcd.c **** 				{	
 963              		.loc 1 239 13 is_stmt 1 discriminator 1 view .LVU253
 239:Drivers/LCD/Src/lcd.c **** 				{	
 964              		.loc 1 239 5 is_stmt 0 discriminator 1 view .LVU254
 965 0058 072C     		cmp	r4, #7
 966 005a 25D8     		bhi	.L64
 241:Drivers/LCD/Src/lcd.c **** 					{
 967              		.loc 1 241 6 is_stmt 1 view .LVU255
 241:Drivers/LCD/Src/lcd.c **** 					{
 968              		.loc 1 241 8 is_stmt 0 view .LVU256
 969 005c 75B9     		cbnz	r5, .L61
 243:Drivers/LCD/Src/lcd.c **** 						else LCD_WR_DATA(bc);
 970              		.loc 1 243 7 is_stmt 1 view .LVU257
 243:Drivers/LCD/Src/lcd.c **** 						else LCD_WR_DATA(bc);
 971              		.loc 1 243 24 is_stmt 0 view .LVU258
 972 005e 08EB0813 		add	r3, r8, r8, lsl #4
 973 0062 334A     		ldr	r2, .L77
 974 0064 02EB4303 		add	r3, r2, r3, lsl #1
 975 0068 5344     		add	r3, r3, r10
 976 006a 9B78     		ldrb	r3, [r3, #2]	@ zero_extendqisi2
 243:Drivers/LCD/Src/lcd.c **** 						else LCD_WR_DATA(bc);
 977              		.loc 1 243 10 view .LVU259
 978 006c 2341     		asrs	r3, r3, r4
 243:Drivers/LCD/Src/lcd.c **** 						else LCD_WR_DATA(bc);
 979              		.loc 1 243 9 view .LVU260
 980 006e 13F0010F 		tst	r3, #1
 981 0072 E3D0     		beq	.L62
 243:Drivers/LCD/Src/lcd.c **** 						else LCD_WR_DATA(bc);
 982              		.loc 1 243 38 is_stmt 1 discriminator 1 view .LVU261
 983 0074 0198     		ldr	r0, [sp, #4]
 984 0076 FFF7FEFF 		bl	LCD_WR_DATA
 985              	.LVL104:
 986 007a E2E7     		b	.L63
 987              	.L61:
 247:Drivers/LCD/Src/lcd.c **** 						{
 248:Drivers/LCD/Src/lcd.c **** 							m=0;
ARM GAS  C:\Users\17832\AppData\Local\Temp\cckefvo3.s 			page 24


 249:Drivers/LCD/Src/lcd.c **** 							break;
 250:Drivers/LCD/Src/lcd.c **** 						}
 251:Drivers/LCD/Src/lcd.c **** 					}
 252:Drivers/LCD/Src/lcd.c **** 					else//叠加方式
 253:Drivers/LCD/Src/lcd.c **** 					{
 254:Drivers/LCD/Src/lcd.c **** 						if(tfont16[k].Msk[i]&(0x01<<j))	LCD_DrawPoint(x,y,fc);//画一个点
 988              		.loc 1 254 7 view .LVU262
 989              		.loc 1 254 24 is_stmt 0 view .LVU263
 990 007c 08EB0813 		add	r3, r8, r8, lsl #4
 991 0080 2B4A     		ldr	r2, .L77
 992 0082 02EB4303 		add	r3, r2, r3, lsl #1
 993 0086 5344     		add	r3, r3, r10
 994 0088 9B78     		ldrb	r3, [r3, #2]	@ zero_extendqisi2
 995              		.loc 1 254 10 view .LVU264
 996 008a 2341     		asrs	r3, r3, r4
 997              		.loc 1 254 9 view .LVU265
 998 008c 13F0010F 		tst	r3, #1
 999 0090 15D1     		bne	.L74
 1000              	.L66:
 255:Drivers/LCD/Src/lcd.c **** 						x++;
 1001              		.loc 1 255 7 is_stmt 1 view .LVU266
 1002              		.loc 1 255 8 is_stmt 0 view .LVU267
 1003 0092 0137     		adds	r7, r7, #1
 1004              	.LVL105:
 1005              		.loc 1 255 8 view .LVU268
 1006 0094 BFB2     		uxth	r7, r7
 1007              	.LVL106:
 256:Drivers/LCD/Src/lcd.c **** 						if((x-x0)==sizey)
 1008              		.loc 1 256 7 is_stmt 1 view .LVU269
 1009              		.loc 1 256 12 is_stmt 0 view .LVU270
 1010 0096 A7EB0B03 		sub	r3, r7, fp
 1011              		.loc 1 256 9 view .LVU271
 1012 009a 4B45     		cmp	r3, r9
 1013 009c DAD1     		bne	.L65
 257:Drivers/LCD/Src/lcd.c **** 						{
 258:Drivers/LCD/Src/lcd.c **** 							x=x0;
 1014              		.loc 1 258 8 is_stmt 1 view .LVU272
 1015              	.LVL107:
 259:Drivers/LCD/Src/lcd.c **** 							y++;
 1016              		.loc 1 259 8 view .LVU273
 1017              		.loc 1 259 9 is_stmt 0 view .LVU274
 1018 009e 039B     		ldr	r3, [sp, #12]
 1019 00a0 0133     		adds	r3, r3, #1
 1020 00a2 9BB2     		uxth	r3, r3
 1021 00a4 0393     		str	r3, [sp, #12]
 1022              	.LVL108:
 260:Drivers/LCD/Src/lcd.c **** 							break;
 1023              		.loc 1 260 8 is_stmt 1 view .LVU275
 258:Drivers/LCD/Src/lcd.c **** 							y++;
 1024              		.loc 1 258 9 is_stmt 0 view .LVU276
 1025 00a6 5F46     		mov	r7, fp
 1026              	.LVL109:
 1027              	.L64:
 237:Drivers/LCD/Src/lcd.c **** 			{
 1028              		.loc 1 237 26 is_stmt 1 discriminator 2 view .LVU277
 237:Drivers/LCD/Src/lcd.c **** 			{
 1029              		.loc 1 237 27 is_stmt 0 discriminator 2 view .LVU278
ARM GAS  C:\Users\17832\AppData\Local\Temp\cckefvo3.s 			page 25


 1030 00a8 0AF1010A 		add	r10, r10, #1
 1031              	.LVL110:
 237:Drivers/LCD/Src/lcd.c **** 			{
 1032              		.loc 1 237 27 discriminator 2 view .LVU279
 1033 00ac 5FFA8AFA 		uxtb	r10, r10
 1034              	.LVL111:
 1035              	.L60:
 237:Drivers/LCD/Src/lcd.c **** 			{
 1036              		.loc 1 237 12 is_stmt 1 discriminator 1 view .LVU280
 237:Drivers/LCD/Src/lcd.c **** 			{
 1037              		.loc 1 237 13 is_stmt 0 discriminator 1 view .LVU281
 1038 00b0 1FFA8AF3 		uxth	r3, r10
 237:Drivers/LCD/Src/lcd.c **** 			{
 1039              		.loc 1 237 4 discriminator 1 view .LVU282
 1040 00b4 049A     		ldr	r2, [sp, #16]
 1041 00b6 9342     		cmp	r3, r2
 1042 00b8 09D2     		bcs	.L75
 239:Drivers/LCD/Src/lcd.c **** 				{	
 1043              		.loc 1 239 10 view .LVU283
 1044 00ba 0024     		movs	r4, #0
 1045 00bc CCE7     		b	.L68
 1046              	.LVL112:
 1047              	.L74:
 254:Drivers/LCD/Src/lcd.c **** 						x++;
 1048              		.loc 1 254 39 is_stmt 1 discriminator 1 view .LVU284
 1049 00be 019A     		ldr	r2, [sp, #4]
 1050 00c0 0399     		ldr	r1, [sp, #12]
 1051 00c2 3846     		mov	r0, r7
 1052 00c4 FFF7FEFF 		bl	LCD_DrawPoint
 1053              	.LVL113:
 1054 00c8 E3E7     		b	.L66
 1055              	.L73:
 248:Drivers/LCD/Src/lcd.c **** 							break;
 1056              		.loc 1 248 9 is_stmt 0 view .LVU285
 1057 00ca 1E46     		mov	r6, r3
 1058              	.LVL114:
 248:Drivers/LCD/Src/lcd.c **** 							break;
 1059              		.loc 1 248 9 view .LVU286
 1060 00cc ECE7     		b	.L64
 1061              	.LVL115:
 1062              	.L75:
 248:Drivers/LCD/Src/lcd.c **** 							break;
 1063              		.loc 1 248 9 view .LVU287
 1064 00ce 079C     		ldr	r4, [sp, #28]
 1065 00d0 AB46     		mov	fp, r5
 1066              	.LVL116:
 1067              	.L59:
 261:Drivers/LCD/Src/lcd.c **** 						}
 262:Drivers/LCD/Src/lcd.c **** 					}
 263:Drivers/LCD/Src/lcd.c **** 				}
 264:Drivers/LCD/Src/lcd.c **** 			}
 265:Drivers/LCD/Src/lcd.c **** 		}				  	
 266:Drivers/LCD/Src/lcd.c **** 		continue;  //查找到对应点阵字库立即退出，防止多个汉字重复取模带来影响
 1068              		.loc 1 266 3 is_stmt 1 view .LVU288
 232:Drivers/LCD/Src/lcd.c **** 	{
 1069              		.loc 1 232 18 view .LVU289
 232:Drivers/LCD/Src/lcd.c **** 	{
ARM GAS  C:\Users\17832\AppData\Local\Temp\cckefvo3.s 			page 26


 1070              		.loc 1 232 19 is_stmt 0 view .LVU290
 1071 00d2 0134     		adds	r4, r4, #1
 1072 00d4 A4B2     		uxth	r4, r4
 1073              	.LVL117:
 1074              	.L58:
 232:Drivers/LCD/Src/lcd.c **** 	{
 1075              		.loc 1 232 10 is_stmt 1 discriminator 1 view .LVU291
 232:Drivers/LCD/Src/lcd.c **** 	{
 1076              		.loc 1 232 2 is_stmt 0 discriminator 1 view .LVU292
 1077 00d6 042C     		cmp	r4, #4
 1078 00d8 27D8     		bhi	.L76
 234:Drivers/LCD/Src/lcd.c **** 		{ 	
 1079              		.loc 1 234 3 is_stmt 1 view .LVU293
 234:Drivers/LCD/Src/lcd.c **** 		{ 	
 1080              		.loc 1 234 24 is_stmt 0 view .LVU294
 1081 00da A046     		mov	r8, r4
 1082 00dc 04EB0413 		add	r3, r4, r4, lsl #4
 1083 00e0 134A     		ldr	r2, .L77
 1084 00e2 12F81320 		ldrb	r2, [r2, r3, lsl #1]	@ zero_extendqisi2
 234:Drivers/LCD/Src/lcd.c **** 		{ 	
 1085              		.loc 1 234 27 view .LVU295
 1086 00e6 009B     		ldr	r3, [sp]
 1087 00e8 1B78     		ldrb	r3, [r3]	@ zero_extendqisi2
 234:Drivers/LCD/Src/lcd.c **** 		{ 	
 1088              		.loc 1 234 6 view .LVU296
 1089 00ea 9A42     		cmp	r2, r3
 1090 00ec F1D1     		bne	.L59
 234:Drivers/LCD/Src/lcd.c **** 		{ 	
 1091              		.loc 1 234 53 discriminator 1 view .LVU297
 1092 00ee 04EB0413 		add	r3, r4, r4, lsl #4
 1093 00f2 0F4A     		ldr	r2, .L77
 1094 00f4 02EB4303 		add	r3, r2, r3, lsl #1
 1095 00f8 5A78     		ldrb	r2, [r3, #1]	@ zero_extendqisi2
 234:Drivers/LCD/Src/lcd.c **** 		{ 	
 1096              		.loc 1 234 56 discriminator 1 view .LVU298
 1097 00fa 009B     		ldr	r3, [sp]
 1098 00fc 5B78     		ldrb	r3, [r3, #1]	@ zero_extendqisi2
 234:Drivers/LCD/Src/lcd.c **** 		{ 	
 1099              		.loc 1 234 34 discriminator 1 view .LVU299
 1100 00fe 9A42     		cmp	r2, r3
 1101 0100 E7D1     		bne	.L59
 236:Drivers/LCD/Src/lcd.c **** 			for(i=0;i<TypefaceNum;i++)
 1102              		.loc 1 236 4 is_stmt 1 view .LVU300
 236:Drivers/LCD/Src/lcd.c **** 			for(i=0;i<TypefaceNum;i++)
 1103              		.loc 1 236 25 is_stmt 0 view .LVU301
 1104 0102 059B     		ldr	r3, [sp, #20]
 1105 0104 DA19     		adds	r2, r3, r7
 1106 0106 92B2     		uxth	r2, r2
 236:Drivers/LCD/Src/lcd.c **** 			for(i=0;i<TypefaceNum;i++)
 1107              		.loc 1 236 35 view .LVU302
 1108 0108 0399     		ldr	r1, [sp, #12]
 1109 010a 0B44     		add	r3, r3, r1
 1110 010c 9BB2     		uxth	r3, r3
 236:Drivers/LCD/Src/lcd.c **** 			for(i=0;i<TypefaceNum;i++)
 1111              		.loc 1 236 4 view .LVU303
 1112 010e 013B     		subs	r3, r3, #1
 1113 0110 013A     		subs	r2, r2, #1
ARM GAS  C:\Users\17832\AppData\Local\Temp\cckefvo3.s 			page 27


 1114 0112 9BB2     		uxth	r3, r3
 1115 0114 92B2     		uxth	r2, r2
 1116 0116 3846     		mov	r0, r7
 1117 0118 FFF7FEFF 		bl	LCD_Address_Set
 1118              	.LVL118:
 237:Drivers/LCD/Src/lcd.c **** 			{
 1119              		.loc 1 237 4 is_stmt 1 view .LVU304
 237:Drivers/LCD/Src/lcd.c **** 			{
 1120              		.loc 1 237 9 is_stmt 0 view .LVU305
 1121 011c 4FF0000A 		mov	r10, #0
 1122 0120 0794     		str	r4, [sp, #28]
 1123 0122 5D46     		mov	r5, fp
 1124 0124 DDF818B0 		ldr	fp, [sp, #24]
 237:Drivers/LCD/Src/lcd.c **** 			{
 1125              		.loc 1 237 4 view .LVU306
 1126 0128 C2E7     		b	.L60
 1127              	.LVL119:
 1128              	.L76:
 267:Drivers/LCD/Src/lcd.c **** 	}
 268:Drivers/LCD/Src/lcd.c **** } 
 1129              		.loc 1 268 1 view .LVU307
 1130 012a 09B0     		add	sp, sp, #36
 1131              	.LCFI16:
 1132              		.cfi_def_cfa_offset 36
 1133              	.LVL120:
 1134              		.loc 1 268 1 view .LVU308
 1135              		@ sp needed
 1136 012c BDE8F08F 		pop	{r4, r5, r6, r7, r8, r9, r10, fp, pc}
 1137              	.LVL121:
 1138              	.L78:
 1139              		.loc 1 268 1 view .LVU309
 1140              		.align	2
 1141              	.L77:
 1142 0130 00000000 		.word	.LANCHOR1
 1143              		.cfi_endproc
 1144              	.LFE137:
 1146              		.section	.text.LCD_ShowChinese24x24,"ax",%progbits
 1147              		.align	1
 1148              		.global	LCD_ShowChinese24x24
 1149              		.syntax unified
 1150              		.thumb
 1151              		.thumb_func
 1153              	LCD_ShowChinese24x24:
 1154              	.LVL122:
 1155              	.LFB138:
 269:Drivers/LCD/Src/lcd.c **** 
 270:Drivers/LCD/Src/lcd.c **** 
 271:Drivers/LCD/Src/lcd.c **** /******************************************************************************
 272:Drivers/LCD/Src/lcd.c ****       函数说明：显示单个24x24汉字
 273:Drivers/LCD/Src/lcd.c ****       入口数据：x,y显示坐标
 274:Drivers/LCD/Src/lcd.c ****                 *s 要显示的汉字
 275:Drivers/LCD/Src/lcd.c ****                 fc 字的颜色
 276:Drivers/LCD/Src/lcd.c ****                 bc 字的背景色
 277:Drivers/LCD/Src/lcd.c ****                 sizey 字号
 278:Drivers/LCD/Src/lcd.c ****                 mode:  0非叠加模式  1叠加模式
 279:Drivers/LCD/Src/lcd.c ****       返回值：  无
 280:Drivers/LCD/Src/lcd.c **** ******************************************************************************/
ARM GAS  C:\Users\17832\AppData\Local\Temp\cckefvo3.s 			page 28


 281:Drivers/LCD/Src/lcd.c **** void LCD_ShowChinese24x24(uint16_t x,uint16_t y,uint8_t *s,uint16_t fc,uint16_t bc,uint8_t sizey,ui
 282:Drivers/LCD/Src/lcd.c **** {
 1156              		.loc 1 282 1 is_stmt 1 view -0
 1157              		.cfi_startproc
 1158              		@ args = 12, pretend = 0, frame = 32
 1159              		@ frame_needed = 0, uses_anonymous_args = 0
 1160              		.loc 1 282 1 is_stmt 0 view .LVU311
 1161 0000 2DE9F04F 		push	{r4, r5, r6, r7, r8, r9, r10, fp, lr}
 1162              	.LCFI17:
 1163              		.cfi_def_cfa_offset 36
 1164              		.cfi_offset 4, -36
 1165              		.cfi_offset 5, -32
 1166              		.cfi_offset 6, -28
 1167              		.cfi_offset 7, -24
 1168              		.cfi_offset 8, -20
 1169              		.cfi_offset 9, -16
 1170              		.cfi_offset 10, -12
 1171              		.cfi_offset 11, -8
 1172              		.cfi_offset 14, -4
 1173 0004 89B0     		sub	sp, sp, #36
 1174              	.LCFI18:
 1175              		.cfi_def_cfa_offset 72
 1176 0006 0690     		str	r0, [sp, #24]
 1177 0008 0391     		str	r1, [sp, #12]
 1178 000a 0092     		str	r2, [sp]
 1179 000c 0193     		str	r3, [sp, #4]
 1180 000e BDF84830 		ldrh	r3, [sp, #72]
 1181              	.LVL123:
 1182              		.loc 1 282 1 view .LVU312
 1183 0012 0293     		str	r3, [sp, #8]
 1184 0014 9DF84C80 		ldrb	r8, [sp, #76]	@ zero_extendqisi2
 1185 0018 9DF850B0 		ldrb	fp, [sp, #80]	@ zero_extendqisi2
 283:Drivers/LCD/Src/lcd.c **** 	uint8_t i,j,m=0;
 1186              		.loc 1 283 2 is_stmt 1 view .LVU313
 1187              	.LVL124:
 284:Drivers/LCD/Src/lcd.c **** 	uint16_t k;
 1188              		.loc 1 284 2 view .LVU314
 285:Drivers/LCD/Src/lcd.c **** 	uint16_t HZnum;//汉字数目
 1189              		.loc 1 285 2 view .LVU315
 286:Drivers/LCD/Src/lcd.c **** 	uint16_t TypefaceNum;//一个字符所占字节大小
 1190              		.loc 1 286 2 view .LVU316
 287:Drivers/LCD/Src/lcd.c **** 	uint16_t x0=x;
 1191              		.loc 1 287 2 view .LVU317
 288:Drivers/LCD/Src/lcd.c **** 	TypefaceNum=(sizey/8+((sizey%8)?1:0))*sizey;
 1192              		.loc 1 288 2 view .LVU318
 1193              		.loc 1 288 35 is_stmt 0 view .LVU319
 1194 001c 18F00703 		ands	r3, r8, #7
 1195 0020 18BF     		it	ne
 1196 0022 0123     		movne	r3, #1
 1197              		.loc 1 288 22 view .LVU320
 1198 0024 03EBD803 		add	r3, r3, r8, lsr #3
 1199              		.loc 1 288 13 view .LVU321
 1200 0028 1FFA88F2 		uxth	r2, r8
 1201              	.LVL125:
 1202              		.loc 1 288 13 view .LVU322
 1203 002c 0592     		str	r2, [sp, #20]
 1204 002e 03FB08F3 		mul	r3, r3, r8
ARM GAS  C:\Users\17832\AppData\Local\Temp\cckefvo3.s 			page 29


 1205 0032 0493     		str	r3, [sp, #16]
 1206              	.LVL126:
 289:Drivers/LCD/Src/lcd.c **** 	HZnum=sizeof(tfont24)/sizeof(typFNT_GB24);	//统计汉字数目
 1207              		.loc 1 289 2 is_stmt 1 view .LVU323
 290:Drivers/LCD/Src/lcd.c **** 	for(k=0;k<HZnum;k++) 
 1208              		.loc 1 290 2 view .LVU324
 1209              		.loc 1 290 2 is_stmt 0 view .LVU325
 1210 0034 0746     		mov	r7, r0
 1211              		.loc 1 290 7 view .LVU326
 1212 0036 0025     		movs	r5, #0
 283:Drivers/LCD/Src/lcd.c **** 	uint16_t k;
 1213              		.loc 1 283 14 view .LVU327
 1214 0038 2E46     		mov	r6, r5
 1215              		.loc 1 290 2 view .LVU328
 1216 003a 4AE0     		b	.L80
 1217              	.LVL127:
 1218              	.L84:
 291:Drivers/LCD/Src/lcd.c **** 	{
 292:Drivers/LCD/Src/lcd.c **** 		if ((tfont24[k].Index[0]==*(s))&&(tfont24[k].Index[1]==*(s+1)))
 293:Drivers/LCD/Src/lcd.c **** 		{ 	
 294:Drivers/LCD/Src/lcd.c **** 			LCD_Address_Set(x,y,x+sizey-1,y+sizey-1);
 295:Drivers/LCD/Src/lcd.c **** 			for(i=0;i<TypefaceNum;i++)
 296:Drivers/LCD/Src/lcd.c **** 			{
 297:Drivers/LCD/Src/lcd.c **** 				for(j=0;j<8;j++)
 298:Drivers/LCD/Src/lcd.c **** 				{	
 299:Drivers/LCD/Src/lcd.c **** 					if(!mode)//非叠加方式
 300:Drivers/LCD/Src/lcd.c **** 					{
 301:Drivers/LCD/Src/lcd.c **** 						if(tfont24[k].Msk[i]&(0x01<<j))LCD_WR_DATA(fc);
 302:Drivers/LCD/Src/lcd.c **** 						else LCD_WR_DATA(bc);
 1219              		.loc 1 302 12 is_stmt 1 view .LVU329
 1220 003c 0298     		ldr	r0, [sp, #8]
 1221 003e FFF7FEFF 		bl	LCD_WR_DATA
 1222              	.LVL128:
 1223              	.L85:
 303:Drivers/LCD/Src/lcd.c **** 						m++;
 1224              		.loc 1 303 7 view .LVU330
 1225              		.loc 1 303 8 is_stmt 0 view .LVU331
 1226 0042 0136     		adds	r6, r6, #1
 1227              	.LVL129:
 1228              		.loc 1 303 8 view .LVU332
 1229 0044 F6B2     		uxtb	r6, r6
 1230              	.LVL130:
 304:Drivers/LCD/Src/lcd.c **** 						if(m%sizey==0)
 1231              		.loc 1 304 7 is_stmt 1 view .LVU333
 1232              		.loc 1 304 17 is_stmt 0 view .LVU334
 1233 0046 B6FBF8F3 		udiv	r3, r6, r8
 1234 004a 08FB1363 		mls	r3, r8, r3, r6
 1235              		.loc 1 304 9 view .LVU335
 1236 004e 13F0FF03 		ands	r3, r3, #255
 1237 0052 38D0     		beq	.L95
 1238              	.L87:
 297:Drivers/LCD/Src/lcd.c **** 				{	
 1239              		.loc 1 297 17 is_stmt 1 discriminator 2 view .LVU336
 297:Drivers/LCD/Src/lcd.c **** 				{	
 1240              		.loc 1 297 18 is_stmt 0 discriminator 2 view .LVU337
 1241 0054 0134     		adds	r4, r4, #1
 1242              	.LVL131:
ARM GAS  C:\Users\17832\AppData\Local\Temp\cckefvo3.s 			page 30


 297:Drivers/LCD/Src/lcd.c **** 				{	
 1243              		.loc 1 297 18 discriminator 2 view .LVU338
 1244 0056 E4B2     		uxtb	r4, r4
 1245              	.LVL132:
 1246              	.L90:
 297:Drivers/LCD/Src/lcd.c **** 				{	
 1247              		.loc 1 297 13 is_stmt 1 discriminator 1 view .LVU339
 297:Drivers/LCD/Src/lcd.c **** 				{	
 1248              		.loc 1 297 5 is_stmt 0 discriminator 1 view .LVU340
 1249 0058 072C     		cmp	r4, #7
 1250 005a 23D8     		bhi	.L86
 299:Drivers/LCD/Src/lcd.c **** 					{
 1251              		.loc 1 299 6 is_stmt 1 view .LVU341
 299:Drivers/LCD/Src/lcd.c **** 					{
 1252              		.loc 1 299 8 is_stmt 0 view .LVU342
 1253 005c 6DB9     		cbnz	r5, .L83
 301:Drivers/LCD/Src/lcd.c **** 						else LCD_WR_DATA(bc);
 1254              		.loc 1 301 7 is_stmt 1 view .LVU343
 301:Drivers/LCD/Src/lcd.c **** 						else LCD_WR_DATA(bc);
 1255              		.loc 1 301 24 is_stmt 0 view .LVU344
 1256 005e 334B     		ldr	r3, .L99
 1257 0060 4A22     		movs	r2, #74
 1258 0062 02FB0A33 		mla	r3, r2, r10, r3
 1259 0066 4B44     		add	r3, r3, r9
 1260 0068 9B78     		ldrb	r3, [r3, #2]	@ zero_extendqisi2
 301:Drivers/LCD/Src/lcd.c **** 						else LCD_WR_DATA(bc);
 1261              		.loc 1 301 10 view .LVU345
 1262 006a 2341     		asrs	r3, r3, r4
 301:Drivers/LCD/Src/lcd.c **** 						else LCD_WR_DATA(bc);
 1263              		.loc 1 301 9 view .LVU346
 1264 006c 13F0010F 		tst	r3, #1
 1265 0070 E4D0     		beq	.L84
 301:Drivers/LCD/Src/lcd.c **** 						else LCD_WR_DATA(bc);
 1266              		.loc 1 301 38 is_stmt 1 discriminator 1 view .LVU347
 1267 0072 0198     		ldr	r0, [sp, #4]
 1268 0074 FFF7FEFF 		bl	LCD_WR_DATA
 1269              	.LVL133:
 1270 0078 E3E7     		b	.L85
 1271              	.L83:
 305:Drivers/LCD/Src/lcd.c **** 						{
 306:Drivers/LCD/Src/lcd.c **** 							m=0;
 307:Drivers/LCD/Src/lcd.c **** 							break;
 308:Drivers/LCD/Src/lcd.c **** 						}
 309:Drivers/LCD/Src/lcd.c **** 					}
 310:Drivers/LCD/Src/lcd.c **** 					else//叠加方式
 311:Drivers/LCD/Src/lcd.c **** 					{
 312:Drivers/LCD/Src/lcd.c **** 						if(tfont24[k].Msk[i]&(0x01<<j))	LCD_DrawPoint(x,y,fc);//画一个点
 1272              		.loc 1 312 7 view .LVU348
 1273              		.loc 1 312 24 is_stmt 0 view .LVU349
 1274 007a 2C4B     		ldr	r3, .L99
 1275 007c 4A22     		movs	r2, #74
 1276 007e 02FB0A33 		mla	r3, r2, r10, r3
 1277 0082 4B44     		add	r3, r3, r9
 1278 0084 9B78     		ldrb	r3, [r3, #2]	@ zero_extendqisi2
 1279              		.loc 1 312 10 view .LVU350
 1280 0086 2341     		asrs	r3, r3, r4
 1281              		.loc 1 312 9 view .LVU351
ARM GAS  C:\Users\17832\AppData\Local\Temp\cckefvo3.s 			page 31


 1282 0088 13F0010F 		tst	r3, #1
 1283 008c 15D1     		bne	.L96
 1284              	.L88:
 313:Drivers/LCD/Src/lcd.c **** 						x++;
 1285              		.loc 1 313 7 is_stmt 1 view .LVU352
 1286              		.loc 1 313 8 is_stmt 0 view .LVU353
 1287 008e 0137     		adds	r7, r7, #1
 1288              	.LVL134:
 1289              		.loc 1 313 8 view .LVU354
 1290 0090 BFB2     		uxth	r7, r7
 1291              	.LVL135:
 314:Drivers/LCD/Src/lcd.c **** 						if((x-x0)==sizey)
 1292              		.loc 1 314 7 is_stmt 1 view .LVU355
 1293              		.loc 1 314 12 is_stmt 0 view .LVU356
 1294 0092 A7EB0B03 		sub	r3, r7, fp
 1295              		.loc 1 314 9 view .LVU357
 1296 0096 4345     		cmp	r3, r8
 1297 0098 DCD1     		bne	.L87
 315:Drivers/LCD/Src/lcd.c **** 						{
 316:Drivers/LCD/Src/lcd.c **** 							x=x0;
 1298              		.loc 1 316 8 is_stmt 1 view .LVU358
 1299              	.LVL136:
 317:Drivers/LCD/Src/lcd.c **** 							y++;
 1300              		.loc 1 317 8 view .LVU359
 1301              		.loc 1 317 9 is_stmt 0 view .LVU360
 1302 009a 039B     		ldr	r3, [sp, #12]
 1303 009c 0133     		adds	r3, r3, #1
 1304 009e 9BB2     		uxth	r3, r3
 1305 00a0 0393     		str	r3, [sp, #12]
 1306              	.LVL137:
 318:Drivers/LCD/Src/lcd.c **** 							break;
 1307              		.loc 1 318 8 is_stmt 1 view .LVU361
 316:Drivers/LCD/Src/lcd.c **** 							y++;
 1308              		.loc 1 316 9 is_stmt 0 view .LVU362
 1309 00a2 5F46     		mov	r7, fp
 1310              	.LVL138:
 1311              	.L86:
 295:Drivers/LCD/Src/lcd.c **** 			{
 1312              		.loc 1 295 26 is_stmt 1 discriminator 2 view .LVU363
 295:Drivers/LCD/Src/lcd.c **** 			{
 1313              		.loc 1 295 27 is_stmt 0 discriminator 2 view .LVU364
 1314 00a4 09F10109 		add	r9, r9, #1
 1315              	.LVL139:
 295:Drivers/LCD/Src/lcd.c **** 			{
 1316              		.loc 1 295 27 discriminator 2 view .LVU365
 1317 00a8 5FFA89F9 		uxtb	r9, r9
 1318              	.LVL140:
 1319              	.L82:
 295:Drivers/LCD/Src/lcd.c **** 			{
 1320              		.loc 1 295 12 is_stmt 1 discriminator 1 view .LVU366
 295:Drivers/LCD/Src/lcd.c **** 			{
 1321              		.loc 1 295 13 is_stmt 0 discriminator 1 view .LVU367
 1322 00ac 1FFA89F3 		uxth	r3, r9
 295:Drivers/LCD/Src/lcd.c **** 			{
 1323              		.loc 1 295 4 discriminator 1 view .LVU368
 1324 00b0 049A     		ldr	r2, [sp, #16]
 1325 00b2 9342     		cmp	r3, r2
ARM GAS  C:\Users\17832\AppData\Local\Temp\cckefvo3.s 			page 32


 1326 00b4 09D2     		bcs	.L97
 297:Drivers/LCD/Src/lcd.c **** 				{	
 1327              		.loc 1 297 10 view .LVU369
 1328 00b6 0024     		movs	r4, #0
 1329 00b8 CEE7     		b	.L90
 1330              	.LVL141:
 1331              	.L96:
 312:Drivers/LCD/Src/lcd.c **** 						x++;
 1332              		.loc 1 312 39 is_stmt 1 discriminator 1 view .LVU370
 1333 00ba 019A     		ldr	r2, [sp, #4]
 1334 00bc 0399     		ldr	r1, [sp, #12]
 1335 00be 3846     		mov	r0, r7
 1336 00c0 FFF7FEFF 		bl	LCD_DrawPoint
 1337              	.LVL142:
 1338 00c4 E3E7     		b	.L88
 1339              	.L95:
 306:Drivers/LCD/Src/lcd.c **** 							break;
 1340              		.loc 1 306 9 is_stmt 0 view .LVU371
 1341 00c6 1E46     		mov	r6, r3
 1342              	.LVL143:
 306:Drivers/LCD/Src/lcd.c **** 							break;
 1343              		.loc 1 306 9 view .LVU372
 1344 00c8 ECE7     		b	.L86
 1345              	.LVL144:
 1346              	.L97:
 306:Drivers/LCD/Src/lcd.c **** 							break;
 1347              		.loc 1 306 9 view .LVU373
 1348 00ca AB46     		mov	fp, r5
 1349 00cc 079D     		ldr	r5, [sp, #28]
 1350              	.LVL145:
 1351              	.L81:
 319:Drivers/LCD/Src/lcd.c **** 						}
 320:Drivers/LCD/Src/lcd.c **** 					}
 321:Drivers/LCD/Src/lcd.c **** 				}
 322:Drivers/LCD/Src/lcd.c **** 			}
 323:Drivers/LCD/Src/lcd.c **** 		}				  	
 324:Drivers/LCD/Src/lcd.c **** 		continue;  //查找到对应点阵字库立即退出，防止多个汉字重复取模带来影响
 1352              		.loc 1 324 3 is_stmt 1 view .LVU374
 290:Drivers/LCD/Src/lcd.c **** 	{
 1353              		.loc 1 290 18 view .LVU375
 290:Drivers/LCD/Src/lcd.c **** 	{
 1354              		.loc 1 290 19 is_stmt 0 view .LVU376
 1355 00ce 0135     		adds	r5, r5, #1
 1356 00d0 ADB2     		uxth	r5, r5
 1357              	.LVL146:
 1358              	.L80:
 290:Drivers/LCD/Src/lcd.c **** 	{
 1359              		.loc 1 290 10 is_stmt 1 discriminator 1 view .LVU377
 290:Drivers/LCD/Src/lcd.c **** 	{
 1360              		.loc 1 290 2 is_stmt 0 discriminator 1 view .LVU378
 1361 00d2 042D     		cmp	r5, #4
 1362 00d4 26D8     		bhi	.L98
 292:Drivers/LCD/Src/lcd.c **** 		{ 	
 1363              		.loc 1 292 3 is_stmt 1 view .LVU379
 292:Drivers/LCD/Src/lcd.c **** 		{ 	
 1364              		.loc 1 292 24 is_stmt 0 view .LVU380
 1365 00d6 AA46     		mov	r10, r5
ARM GAS  C:\Users\17832\AppData\Local\Temp\cckefvo3.s 			page 33


 1366 00d8 4A23     		movs	r3, #74
 1367 00da 05FB03F3 		mul	r3, r5, r3
 1368 00de 134A     		ldr	r2, .L99
 1369 00e0 D25C     		ldrb	r2, [r2, r3]	@ zero_extendqisi2
 292:Drivers/LCD/Src/lcd.c **** 		{ 	
 1370              		.loc 1 292 27 view .LVU381
 1371 00e2 009B     		ldr	r3, [sp]
 1372 00e4 1B78     		ldrb	r3, [r3]	@ zero_extendqisi2
 292:Drivers/LCD/Src/lcd.c **** 		{ 	
 1373              		.loc 1 292 6 view .LVU382
 1374 00e6 9A42     		cmp	r2, r3
 1375 00e8 F1D1     		bne	.L81
 292:Drivers/LCD/Src/lcd.c **** 		{ 	
 1376              		.loc 1 292 53 discriminator 1 view .LVU383
 1377 00ea 104B     		ldr	r3, .L99
 1378 00ec 4A22     		movs	r2, #74
 1379 00ee 02FB0533 		mla	r3, r2, r5, r3
 1380 00f2 5A78     		ldrb	r2, [r3, #1]	@ zero_extendqisi2
 292:Drivers/LCD/Src/lcd.c **** 		{ 	
 1381              		.loc 1 292 56 discriminator 1 view .LVU384
 1382 00f4 009B     		ldr	r3, [sp]
 1383 00f6 5B78     		ldrb	r3, [r3, #1]	@ zero_extendqisi2
 292:Drivers/LCD/Src/lcd.c **** 		{ 	
 1384              		.loc 1 292 34 discriminator 1 view .LVU385
 1385 00f8 9A42     		cmp	r2, r3
 1386 00fa E8D1     		bne	.L81
 294:Drivers/LCD/Src/lcd.c **** 			for(i=0;i<TypefaceNum;i++)
 1387              		.loc 1 294 4 is_stmt 1 view .LVU386
 294:Drivers/LCD/Src/lcd.c **** 			for(i=0;i<TypefaceNum;i++)
 1388              		.loc 1 294 25 is_stmt 0 view .LVU387
 1389 00fc 059B     		ldr	r3, [sp, #20]
 1390 00fe DA19     		adds	r2, r3, r7
 1391 0100 92B2     		uxth	r2, r2
 294:Drivers/LCD/Src/lcd.c **** 			for(i=0;i<TypefaceNum;i++)
 1392              		.loc 1 294 35 view .LVU388
 1393 0102 0399     		ldr	r1, [sp, #12]
 1394 0104 0B44     		add	r3, r3, r1
 1395 0106 9BB2     		uxth	r3, r3
 294:Drivers/LCD/Src/lcd.c **** 			for(i=0;i<TypefaceNum;i++)
 1396              		.loc 1 294 4 view .LVU389
 1397 0108 013B     		subs	r3, r3, #1
 1398 010a 013A     		subs	r2, r2, #1
 1399 010c 9BB2     		uxth	r3, r3
 1400 010e 92B2     		uxth	r2, r2
 1401 0110 3846     		mov	r0, r7
 1402 0112 FFF7FEFF 		bl	LCD_Address_Set
 1403              	.LVL147:
 295:Drivers/LCD/Src/lcd.c **** 			{
 1404              		.loc 1 295 4 is_stmt 1 view .LVU390
 295:Drivers/LCD/Src/lcd.c **** 			{
 1405              		.loc 1 295 9 is_stmt 0 view .LVU391
 1406 0116 4FF00009 		mov	r9, #0
 1407 011a 0795     		str	r5, [sp, #28]
 1408 011c 5D46     		mov	r5, fp
 1409              	.LVL148:
 295:Drivers/LCD/Src/lcd.c **** 			{
 1410              		.loc 1 295 9 view .LVU392
ARM GAS  C:\Users\17832\AppData\Local\Temp\cckefvo3.s 			page 34


 1411 011e DDF818B0 		ldr	fp, [sp, #24]
 295:Drivers/LCD/Src/lcd.c **** 			{
 1412              		.loc 1 295 4 view .LVU393
 1413 0122 C3E7     		b	.L82
 1414              	.LVL149:
 1415              	.L98:
 325:Drivers/LCD/Src/lcd.c **** 	}
 326:Drivers/LCD/Src/lcd.c **** } 
 1416              		.loc 1 326 1 view .LVU394
 1417 0124 09B0     		add	sp, sp, #36
 1418              	.LCFI19:
 1419              		.cfi_def_cfa_offset 36
 1420              	.LVL150:
 1421              		.loc 1 326 1 view .LVU395
 1422              		@ sp needed
 1423 0126 BDE8F08F 		pop	{r4, r5, r6, r7, r8, r9, r10, fp, pc}
 1424              	.LVL151:
 1425              	.L100:
 1426              		.loc 1 326 1 view .LVU396
 1427 012a 00BF     		.align	2
 1428              	.L99:
 1429 012c 00000000 		.word	.LANCHOR2
 1430              		.cfi_endproc
 1431              	.LFE138:
 1433              		.section	.text.LCD_ShowChinese32x32,"ax",%progbits
 1434              		.align	1
 1435              		.global	LCD_ShowChinese32x32
 1436              		.syntax unified
 1437              		.thumb
 1438              		.thumb_func
 1440              	LCD_ShowChinese32x32:
 1441              	.LVL152:
 1442              	.LFB139:
 327:Drivers/LCD/Src/lcd.c **** 
 328:Drivers/LCD/Src/lcd.c **** /******************************************************************************
 329:Drivers/LCD/Src/lcd.c ****       函数说明：显示单个32x32汉字
 330:Drivers/LCD/Src/lcd.c ****       入口数据：x,y显示坐标
 331:Drivers/LCD/Src/lcd.c ****                 *s 要显示的汉字
 332:Drivers/LCD/Src/lcd.c ****                 fc 字的颜色
 333:Drivers/LCD/Src/lcd.c ****                 bc 字的背景色
 334:Drivers/LCD/Src/lcd.c ****                 sizey 字号
 335:Drivers/LCD/Src/lcd.c ****                 mode:  0非叠加模式  1叠加模式
 336:Drivers/LCD/Src/lcd.c ****       返回值：  无
 337:Drivers/LCD/Src/lcd.c **** ******************************************************************************/
 338:Drivers/LCD/Src/lcd.c **** void LCD_ShowChinese32x32(uint16_t x,uint16_t y,uint8_t *s,uint16_t fc,uint16_t bc,uint8_t sizey,ui
 339:Drivers/LCD/Src/lcd.c **** {
 1443              		.loc 1 339 1 is_stmt 1 view -0
 1444              		.cfi_startproc
 1445              		@ args = 12, pretend = 0, frame = 32
 1446              		@ frame_needed = 0, uses_anonymous_args = 0
 1447              		.loc 1 339 1 is_stmt 0 view .LVU398
 1448 0000 2DE9F04F 		push	{r4, r5, r6, r7, r8, r9, r10, fp, lr}
 1449              	.LCFI20:
 1450              		.cfi_def_cfa_offset 36
 1451              		.cfi_offset 4, -36
 1452              		.cfi_offset 5, -32
 1453              		.cfi_offset 6, -28
ARM GAS  C:\Users\17832\AppData\Local\Temp\cckefvo3.s 			page 35


 1454              		.cfi_offset 7, -24
 1455              		.cfi_offset 8, -20
 1456              		.cfi_offset 9, -16
 1457              		.cfi_offset 10, -12
 1458              		.cfi_offset 11, -8
 1459              		.cfi_offset 14, -4
 1460 0004 89B0     		sub	sp, sp, #36
 1461              	.LCFI21:
 1462              		.cfi_def_cfa_offset 72
 1463 0006 0690     		str	r0, [sp, #24]
 1464 0008 0391     		str	r1, [sp, #12]
 1465 000a 0092     		str	r2, [sp]
 1466 000c 0193     		str	r3, [sp, #4]
 1467 000e BDF84830 		ldrh	r3, [sp, #72]
 1468              	.LVL153:
 1469              		.loc 1 339 1 view .LVU399
 1470 0012 0293     		str	r3, [sp, #8]
 1471 0014 9DF84C90 		ldrb	r9, [sp, #76]	@ zero_extendqisi2
 1472 0018 9DF850B0 		ldrb	fp, [sp, #80]	@ zero_extendqisi2
 340:Drivers/LCD/Src/lcd.c **** 	uint8_t i,j,m=0;
 1473              		.loc 1 340 2 is_stmt 1 view .LVU400
 1474              	.LVL154:
 341:Drivers/LCD/Src/lcd.c **** 	uint16_t k;
 1475              		.loc 1 341 2 view .LVU401
 342:Drivers/LCD/Src/lcd.c **** 	uint16_t HZnum;//汉字数目
 1476              		.loc 1 342 2 view .LVU402
 343:Drivers/LCD/Src/lcd.c **** 	uint16_t TypefaceNum;//一个字符所占字节大小
 1477              		.loc 1 343 2 view .LVU403
 344:Drivers/LCD/Src/lcd.c **** 	uint16_t x0=x;
 1478              		.loc 1 344 2 view .LVU404
 345:Drivers/LCD/Src/lcd.c **** 	TypefaceNum=(sizey/8+((sizey%8)?1:0))*sizey;
 1479              		.loc 1 345 2 view .LVU405
 1480              		.loc 1 345 35 is_stmt 0 view .LVU406
 1481 001c 19F00703 		ands	r3, r9, #7
 1482 0020 18BF     		it	ne
 1483 0022 0123     		movne	r3, #1
 1484              		.loc 1 345 22 view .LVU407
 1485 0024 03EBD903 		add	r3, r3, r9, lsr #3
 1486              		.loc 1 345 13 view .LVU408
 1487 0028 1FFA89F2 		uxth	r2, r9
 1488              	.LVL155:
 1489              		.loc 1 345 13 view .LVU409
 1490 002c 0592     		str	r2, [sp, #20]
 1491 002e 03FB09F3 		mul	r3, r3, r9
 1492 0032 0493     		str	r3, [sp, #16]
 1493              	.LVL156:
 346:Drivers/LCD/Src/lcd.c **** 	HZnum=sizeof(tfont32)/sizeof(typFNT_GB32);	//统计汉字数目
 1494              		.loc 1 346 2 is_stmt 1 view .LVU410
 347:Drivers/LCD/Src/lcd.c **** 	for(k=0;k<HZnum;k++) 
 1495              		.loc 1 347 2 view .LVU411
 1496              		.loc 1 347 2 is_stmt 0 view .LVU412
 1497 0034 0746     		mov	r7, r0
 1498              		.loc 1 347 7 view .LVU413
 1499 0036 0024     		movs	r4, #0
 340:Drivers/LCD/Src/lcd.c **** 	uint16_t k;
 1500              		.loc 1 340 14 view .LVU414
 1501 0038 2646     		mov	r6, r4
ARM GAS  C:\Users\17832\AppData\Local\Temp\cckefvo3.s 			page 36


 1502              		.loc 1 347 2 view .LVU415
 1503 003a 4CE0     		b	.L102
 1504              	.LVL157:
 1505              	.L106:
 348:Drivers/LCD/Src/lcd.c **** 	{
 349:Drivers/LCD/Src/lcd.c **** 		if ((tfont32[k].Index[0]==*(s))&&(tfont32[k].Index[1]==*(s+1)))
 350:Drivers/LCD/Src/lcd.c **** 		{ 	
 351:Drivers/LCD/Src/lcd.c **** 			LCD_Address_Set(x,y,x+sizey-1,y+sizey-1);
 352:Drivers/LCD/Src/lcd.c **** 			for(i=0;i<TypefaceNum;i++)
 353:Drivers/LCD/Src/lcd.c **** 			{
 354:Drivers/LCD/Src/lcd.c **** 				for(j=0;j<8;j++)
 355:Drivers/LCD/Src/lcd.c **** 				{	
 356:Drivers/LCD/Src/lcd.c **** 					if(!mode)//非叠加方式
 357:Drivers/LCD/Src/lcd.c **** 					{
 358:Drivers/LCD/Src/lcd.c **** 						if(tfont32[k].Msk[i]&(0x01<<j))LCD_WR_DATA(fc);
 359:Drivers/LCD/Src/lcd.c **** 						else LCD_WR_DATA(bc);
 1506              		.loc 1 359 12 is_stmt 1 view .LVU416
 1507 003c 0298     		ldr	r0, [sp, #8]
 1508 003e FFF7FEFF 		bl	LCD_WR_DATA
 1509              	.LVL158:
 1510              	.L107:
 360:Drivers/LCD/Src/lcd.c **** 						m++;
 1511              		.loc 1 360 7 view .LVU417
 1512              		.loc 1 360 8 is_stmt 0 view .LVU418
 1513 0042 0136     		adds	r6, r6, #1
 1514              	.LVL159:
 1515              		.loc 1 360 8 view .LVU419
 1516 0044 F6B2     		uxtb	r6, r6
 1517              	.LVL160:
 361:Drivers/LCD/Src/lcd.c **** 						if(m%sizey==0)
 1518              		.loc 1 361 7 is_stmt 1 view .LVU420
 1519              		.loc 1 361 17 is_stmt 0 view .LVU421
 1520 0046 B6FBF9F3 		udiv	r3, r6, r9
 1521 004a 09FB1363 		mls	r3, r9, r3, r6
 1522              		.loc 1 361 9 view .LVU422
 1523 004e 13F0FF03 		ands	r3, r3, #255
 1524 0052 3AD0     		beq	.L117
 1525              	.L109:
 354:Drivers/LCD/Src/lcd.c **** 				{	
 1526              		.loc 1 354 17 is_stmt 1 discriminator 2 view .LVU423
 354:Drivers/LCD/Src/lcd.c **** 				{	
 1527              		.loc 1 354 18 is_stmt 0 discriminator 2 view .LVU424
 1528 0054 0134     		adds	r4, r4, #1
 1529              	.LVL161:
 354:Drivers/LCD/Src/lcd.c **** 				{	
 1530              		.loc 1 354 18 discriminator 2 view .LVU425
 1531 0056 E4B2     		uxtb	r4, r4
 1532              	.LVL162:
 1533              	.L112:
 354:Drivers/LCD/Src/lcd.c **** 				{	
 1534              		.loc 1 354 13 is_stmt 1 discriminator 1 view .LVU426
 354:Drivers/LCD/Src/lcd.c **** 				{	
 1535              		.loc 1 354 5 is_stmt 0 discriminator 1 view .LVU427
 1536 0058 072C     		cmp	r4, #7
 1537 005a 25D8     		bhi	.L108
 356:Drivers/LCD/Src/lcd.c **** 					{
 1538              		.loc 1 356 6 is_stmt 1 view .LVU428
ARM GAS  C:\Users\17832\AppData\Local\Temp\cckefvo3.s 			page 37


 356:Drivers/LCD/Src/lcd.c **** 					{
 1539              		.loc 1 356 8 is_stmt 0 view .LVU429
 1540 005c 75B9     		cbnz	r5, .L105
 358:Drivers/LCD/Src/lcd.c **** 						else LCD_WR_DATA(bc);
 1541              		.loc 1 358 7 is_stmt 1 view .LVU430
 358:Drivers/LCD/Src/lcd.c **** 						else LCD_WR_DATA(bc);
 1542              		.loc 1 358 24 is_stmt 0 view .LVU431
 1543 005e 08EB8813 		add	r3, r8, r8, lsl #6
 1544 0062 334A     		ldr	r2, .L121
 1545 0064 02EB4303 		add	r3, r2, r3, lsl #1
 1546 0068 5344     		add	r3, r3, r10
 1547 006a 9B78     		ldrb	r3, [r3, #2]	@ zero_extendqisi2
 358:Drivers/LCD/Src/lcd.c **** 						else LCD_WR_DATA(bc);
 1548              		.loc 1 358 10 view .LVU432
 1549 006c 2341     		asrs	r3, r3, r4
 358:Drivers/LCD/Src/lcd.c **** 						else LCD_WR_DATA(bc);
 1550              		.loc 1 358 9 view .LVU433
 1551 006e 13F0010F 		tst	r3, #1
 1552 0072 E3D0     		beq	.L106
 358:Drivers/LCD/Src/lcd.c **** 						else LCD_WR_DATA(bc);
 1553              		.loc 1 358 38 is_stmt 1 discriminator 1 view .LVU434
 1554 0074 0198     		ldr	r0, [sp, #4]
 1555 0076 FFF7FEFF 		bl	LCD_WR_DATA
 1556              	.LVL163:
 1557 007a E2E7     		b	.L107
 1558              	.L105:
 362:Drivers/LCD/Src/lcd.c **** 						{
 363:Drivers/LCD/Src/lcd.c **** 							m=0;
 364:Drivers/LCD/Src/lcd.c **** 							break;
 365:Drivers/LCD/Src/lcd.c **** 						}
 366:Drivers/LCD/Src/lcd.c **** 					}
 367:Drivers/LCD/Src/lcd.c **** 					else//叠加方式
 368:Drivers/LCD/Src/lcd.c **** 					{
 369:Drivers/LCD/Src/lcd.c **** 						if(tfont32[k].Msk[i]&(0x01<<j))	LCD_DrawPoint(x,y,fc);//画一个点
 1559              		.loc 1 369 7 view .LVU435
 1560              		.loc 1 369 24 is_stmt 0 view .LVU436
 1561 007c 08EB8813 		add	r3, r8, r8, lsl #6
 1562 0080 2B4A     		ldr	r2, .L121
 1563 0082 02EB4303 		add	r3, r2, r3, lsl #1
 1564 0086 5344     		add	r3, r3, r10
 1565 0088 9B78     		ldrb	r3, [r3, #2]	@ zero_extendqisi2
 1566              		.loc 1 369 10 view .LVU437
 1567 008a 2341     		asrs	r3, r3, r4
 1568              		.loc 1 369 9 view .LVU438
 1569 008c 13F0010F 		tst	r3, #1
 1570 0090 15D1     		bne	.L118
 1571              	.L110:
 370:Drivers/LCD/Src/lcd.c **** 						x++;
 1572              		.loc 1 370 7 is_stmt 1 view .LVU439
 1573              		.loc 1 370 8 is_stmt 0 view .LVU440
 1574 0092 0137     		adds	r7, r7, #1
 1575              	.LVL164:
 1576              		.loc 1 370 8 view .LVU441
 1577 0094 BFB2     		uxth	r7, r7
 1578              	.LVL165:
 371:Drivers/LCD/Src/lcd.c **** 						if((x-x0)==sizey)
 1579              		.loc 1 371 7 is_stmt 1 view .LVU442
ARM GAS  C:\Users\17832\AppData\Local\Temp\cckefvo3.s 			page 38


 1580              		.loc 1 371 12 is_stmt 0 view .LVU443
 1581 0096 A7EB0B03 		sub	r3, r7, fp
 1582              		.loc 1 371 9 view .LVU444
 1583 009a 4B45     		cmp	r3, r9
 1584 009c DAD1     		bne	.L109
 372:Drivers/LCD/Src/lcd.c **** 						{
 373:Drivers/LCD/Src/lcd.c **** 							x=x0;
 1585              		.loc 1 373 8 is_stmt 1 view .LVU445
 1586              	.LVL166:
 374:Drivers/LCD/Src/lcd.c **** 							y++;
 1587              		.loc 1 374 8 view .LVU446
 1588              		.loc 1 374 9 is_stmt 0 view .LVU447
 1589 009e 039B     		ldr	r3, [sp, #12]
 1590 00a0 0133     		adds	r3, r3, #1
 1591 00a2 9BB2     		uxth	r3, r3
 1592 00a4 0393     		str	r3, [sp, #12]
 1593              	.LVL167:
 375:Drivers/LCD/Src/lcd.c **** 							break;
 1594              		.loc 1 375 8 is_stmt 1 view .LVU448
 373:Drivers/LCD/Src/lcd.c **** 							y++;
 1595              		.loc 1 373 9 is_stmt 0 view .LVU449
 1596 00a6 5F46     		mov	r7, fp
 1597              	.LVL168:
 1598              	.L108:
 352:Drivers/LCD/Src/lcd.c **** 			{
 1599              		.loc 1 352 26 is_stmt 1 discriminator 2 view .LVU450
 352:Drivers/LCD/Src/lcd.c **** 			{
 1600              		.loc 1 352 27 is_stmt 0 discriminator 2 view .LVU451
 1601 00a8 0AF1010A 		add	r10, r10, #1
 1602              	.LVL169:
 352:Drivers/LCD/Src/lcd.c **** 			{
 1603              		.loc 1 352 27 discriminator 2 view .LVU452
 1604 00ac 5FFA8AFA 		uxtb	r10, r10
 1605              	.LVL170:
 1606              	.L104:
 352:Drivers/LCD/Src/lcd.c **** 			{
 1607              		.loc 1 352 12 is_stmt 1 discriminator 1 view .LVU453
 352:Drivers/LCD/Src/lcd.c **** 			{
 1608              		.loc 1 352 13 is_stmt 0 discriminator 1 view .LVU454
 1609 00b0 1FFA8AF3 		uxth	r3, r10
 352:Drivers/LCD/Src/lcd.c **** 			{
 1610              		.loc 1 352 4 discriminator 1 view .LVU455
 1611 00b4 049A     		ldr	r2, [sp, #16]
 1612 00b6 9342     		cmp	r3, r2
 1613 00b8 09D2     		bcs	.L119
 354:Drivers/LCD/Src/lcd.c **** 				{	
 1614              		.loc 1 354 10 view .LVU456
 1615 00ba 0024     		movs	r4, #0
 1616 00bc CCE7     		b	.L112
 1617              	.LVL171:
 1618              	.L118:
 369:Drivers/LCD/Src/lcd.c **** 						x++;
 1619              		.loc 1 369 39 is_stmt 1 discriminator 1 view .LVU457
 1620 00be 019A     		ldr	r2, [sp, #4]
 1621 00c0 0399     		ldr	r1, [sp, #12]
 1622 00c2 3846     		mov	r0, r7
 1623 00c4 FFF7FEFF 		bl	LCD_DrawPoint
ARM GAS  C:\Users\17832\AppData\Local\Temp\cckefvo3.s 			page 39


 1624              	.LVL172:
 1625 00c8 E3E7     		b	.L110
 1626              	.L117:
 363:Drivers/LCD/Src/lcd.c **** 							break;
 1627              		.loc 1 363 9 is_stmt 0 view .LVU458
 1628 00ca 1E46     		mov	r6, r3
 1629              	.LVL173:
 363:Drivers/LCD/Src/lcd.c **** 							break;
 1630              		.loc 1 363 9 view .LVU459
 1631 00cc ECE7     		b	.L108
 1632              	.LVL174:
 1633              	.L119:
 363:Drivers/LCD/Src/lcd.c **** 							break;
 1634              		.loc 1 363 9 view .LVU460
 1635 00ce 079C     		ldr	r4, [sp, #28]
 1636 00d0 AB46     		mov	fp, r5
 1637              	.LVL175:
 1638              	.L103:
 376:Drivers/LCD/Src/lcd.c **** 						}
 377:Drivers/LCD/Src/lcd.c **** 					}
 378:Drivers/LCD/Src/lcd.c **** 				}
 379:Drivers/LCD/Src/lcd.c **** 			}
 380:Drivers/LCD/Src/lcd.c **** 		}				  	
 381:Drivers/LCD/Src/lcd.c **** 		continue;  //查找到对应点阵字库立即退出，防止多个汉字重复取模带来影响
 1639              		.loc 1 381 3 is_stmt 1 view .LVU461
 347:Drivers/LCD/Src/lcd.c **** 	{
 1640              		.loc 1 347 18 view .LVU462
 347:Drivers/LCD/Src/lcd.c **** 	{
 1641              		.loc 1 347 19 is_stmt 0 view .LVU463
 1642 00d2 0134     		adds	r4, r4, #1
 1643 00d4 A4B2     		uxth	r4, r4
 1644              	.LVL176:
 1645              	.L102:
 347:Drivers/LCD/Src/lcd.c **** 	{
 1646              		.loc 1 347 10 is_stmt 1 discriminator 1 view .LVU464
 347:Drivers/LCD/Src/lcd.c **** 	{
 1647              		.loc 1 347 2 is_stmt 0 discriminator 1 view .LVU465
 1648 00d6 042C     		cmp	r4, #4
 1649 00d8 27D8     		bhi	.L120
 349:Drivers/LCD/Src/lcd.c **** 		{ 	
 1650              		.loc 1 349 3 is_stmt 1 view .LVU466
 349:Drivers/LCD/Src/lcd.c **** 		{ 	
 1651              		.loc 1 349 24 is_stmt 0 view .LVU467
 1652 00da A046     		mov	r8, r4
 1653 00dc 04EB8413 		add	r3, r4, r4, lsl #6
 1654 00e0 134A     		ldr	r2, .L121
 1655 00e2 12F81320 		ldrb	r2, [r2, r3, lsl #1]	@ zero_extendqisi2
 349:Drivers/LCD/Src/lcd.c **** 		{ 	
 1656              		.loc 1 349 27 view .LVU468
 1657 00e6 009B     		ldr	r3, [sp]
 1658 00e8 1B78     		ldrb	r3, [r3]	@ zero_extendqisi2
 349:Drivers/LCD/Src/lcd.c **** 		{ 	
 1659              		.loc 1 349 6 view .LVU469
 1660 00ea 9A42     		cmp	r2, r3
 1661 00ec F1D1     		bne	.L103
 349:Drivers/LCD/Src/lcd.c **** 		{ 	
 1662              		.loc 1 349 53 discriminator 1 view .LVU470
ARM GAS  C:\Users\17832\AppData\Local\Temp\cckefvo3.s 			page 40


 1663 00ee 04EB8413 		add	r3, r4, r4, lsl #6
 1664 00f2 0F4A     		ldr	r2, .L121
 1665 00f4 02EB4303 		add	r3, r2, r3, lsl #1
 1666 00f8 5A78     		ldrb	r2, [r3, #1]	@ zero_extendqisi2
 349:Drivers/LCD/Src/lcd.c **** 		{ 	
 1667              		.loc 1 349 56 discriminator 1 view .LVU471
 1668 00fa 009B     		ldr	r3, [sp]
 1669 00fc 5B78     		ldrb	r3, [r3, #1]	@ zero_extendqisi2
 349:Drivers/LCD/Src/lcd.c **** 		{ 	
 1670              		.loc 1 349 34 discriminator 1 view .LVU472
 1671 00fe 9A42     		cmp	r2, r3
 1672 0100 E7D1     		bne	.L103
 351:Drivers/LCD/Src/lcd.c **** 			for(i=0;i<TypefaceNum;i++)
 1673              		.loc 1 351 4 is_stmt 1 view .LVU473
 351:Drivers/LCD/Src/lcd.c **** 			for(i=0;i<TypefaceNum;i++)
 1674              		.loc 1 351 25 is_stmt 0 view .LVU474
 1675 0102 059B     		ldr	r3, [sp, #20]
 1676 0104 DA19     		adds	r2, r3, r7
 1677 0106 92B2     		uxth	r2, r2
 351:Drivers/LCD/Src/lcd.c **** 			for(i=0;i<TypefaceNum;i++)
 1678              		.loc 1 351 35 view .LVU475
 1679 0108 0399     		ldr	r1, [sp, #12]
 1680 010a 0B44     		add	r3, r3, r1
 1681 010c 9BB2     		uxth	r3, r3
 351:Drivers/LCD/Src/lcd.c **** 			for(i=0;i<TypefaceNum;i++)
 1682              		.loc 1 351 4 view .LVU476
 1683 010e 013B     		subs	r3, r3, #1
 1684 0110 013A     		subs	r2, r2, #1
 1685 0112 9BB2     		uxth	r3, r3
 1686 0114 92B2     		uxth	r2, r2
 1687 0116 3846     		mov	r0, r7
 1688 0118 FFF7FEFF 		bl	LCD_Address_Set
 1689              	.LVL177:
 352:Drivers/LCD/Src/lcd.c **** 			{
 1690              		.loc 1 352 4 is_stmt 1 view .LVU477
 352:Drivers/LCD/Src/lcd.c **** 			{
 1691              		.loc 1 352 9 is_stmt 0 view .LVU478
 1692 011c 4FF0000A 		mov	r10, #0
 1693 0120 0794     		str	r4, [sp, #28]
 1694 0122 5D46     		mov	r5, fp
 1695 0124 DDF818B0 		ldr	fp, [sp, #24]
 352:Drivers/LCD/Src/lcd.c **** 			{
 1696              		.loc 1 352 4 view .LVU479
 1697 0128 C2E7     		b	.L104
 1698              	.LVL178:
 1699              	.L120:
 382:Drivers/LCD/Src/lcd.c **** 	}
 383:Drivers/LCD/Src/lcd.c **** }
 1700              		.loc 1 383 1 view .LVU480
 1701 012a 09B0     		add	sp, sp, #36
 1702              	.LCFI22:
 1703              		.cfi_def_cfa_offset 36
 1704              	.LVL179:
 1705              		.loc 1 383 1 view .LVU481
 1706              		@ sp needed
 1707 012c BDE8F08F 		pop	{r4, r5, r6, r7, r8, r9, r10, fp, pc}
 1708              	.LVL180:
ARM GAS  C:\Users\17832\AppData\Local\Temp\cckefvo3.s 			page 41


 1709              	.L122:
 1710              		.loc 1 383 1 view .LVU482
 1711              		.align	2
 1712              	.L121:
 1713 0130 00000000 		.word	.LANCHOR3
 1714              		.cfi_endproc
 1715              	.LFE139:
 1717              		.section	.text.LCD_ShowChinese,"ax",%progbits
 1718              		.align	1
 1719              		.global	LCD_ShowChinese
 1720              		.syntax unified
 1721              		.thumb
 1722              		.thumb_func
 1724              	LCD_ShowChinese:
 1725              	.LVL181:
 1726              	.LFB135:
 142:Drivers/LCD/Src/lcd.c **** 	while(*s!=0)
 1727              		.loc 1 142 1 is_stmt 1 view -0
 1728              		.cfi_startproc
 1729              		@ args = 12, pretend = 0, frame = 0
 1730              		@ frame_needed = 0, uses_anonymous_args = 0
 142:Drivers/LCD/Src/lcd.c **** 	while(*s!=0)
 1731              		.loc 1 142 1 is_stmt 0 view .LVU484
 1732 0000 2DE9F047 		push	{r4, r5, r6, r7, r8, r9, r10, lr}
 1733              	.LCFI23:
 1734              		.cfi_def_cfa_offset 32
 1735              		.cfi_offset 4, -32
 1736              		.cfi_offset 5, -28
 1737              		.cfi_offset 6, -24
 1738              		.cfi_offset 7, -20
 1739              		.cfi_offset 8, -16
 1740              		.cfi_offset 9, -12
 1741              		.cfi_offset 10, -8
 1742              		.cfi_offset 14, -4
 1743 0004 84B0     		sub	sp, sp, #16
 1744              	.LCFI24:
 1745              		.cfi_def_cfa_offset 48
 1746 0006 0446     		mov	r4, r0
 1747 0008 8846     		mov	r8, r1
 1748 000a 1646     		mov	r6, r2
 1749 000c 1F46     		mov	r7, r3
 1750 000e BDF830A0 		ldrh	r10, [sp, #48]
 1751 0012 9DF83450 		ldrb	r5, [sp, #52]	@ zero_extendqisi2
 1752 0016 9DF83890 		ldrb	r9, [sp, #56]	@ zero_extendqisi2
 143:Drivers/LCD/Src/lcd.c **** 	{
 1753              		.loc 1 143 2 is_stmt 1 view .LVU485
 143:Drivers/LCD/Src/lcd.c **** 	{
 1754              		.loc 1 143 7 is_stmt 0 view .LVU486
 1755 001a 0DE0     		b	.L124
 1756              	.LVL182:
 1757              	.L132:
 145:Drivers/LCD/Src/lcd.c **** 		else if(sizey==16) LCD_ShowChinese16x16(x,y,s,fc,bc,sizey,mode);
 1758              		.loc 1 145 17 is_stmt 1 discriminator 1 view .LVU487
 1759 001c CDF80890 		str	r9, [sp, #8]
 1760 0020 0195     		str	r5, [sp, #4]
 1761 0022 CDF800A0 		str	r10, [sp]
 1762 0026 3B46     		mov	r3, r7
ARM GAS  C:\Users\17832\AppData\Local\Temp\cckefvo3.s 			page 42


 1763 0028 3246     		mov	r2, r6
 1764 002a 4146     		mov	r1, r8
 1765 002c 2046     		mov	r0, r4
 1766 002e FFF7FEFF 		bl	LCD_ShowChinese12x12
 1767              	.LVL183:
 1768              	.L126:
 150:Drivers/LCD/Src/lcd.c **** 		x+=sizey;
 1769              		.loc 1 150 3 view .LVU488
 150:Drivers/LCD/Src/lcd.c **** 		x+=sizey;
 1770              		.loc 1 150 4 is_stmt 0 view .LVU489
 1771 0032 0236     		adds	r6, r6, #2
 1772              	.LVL184:
 151:Drivers/LCD/Src/lcd.c **** 	}
 1773              		.loc 1 151 3 is_stmt 1 view .LVU490
 151:Drivers/LCD/Src/lcd.c **** 	}
 1774              		.loc 1 151 4 is_stmt 0 view .LVU491
 1775 0034 2C44     		add	r4, r4, r5
 1776              	.LVL185:
 151:Drivers/LCD/Src/lcd.c **** 	}
 1777              		.loc 1 151 4 view .LVU492
 1778 0036 A4B2     		uxth	r4, r4
 1779              	.LVL186:
 1780              	.L124:
 143:Drivers/LCD/Src/lcd.c **** 	{
 1781              		.loc 1 143 7 is_stmt 1 view .LVU493
 143:Drivers/LCD/Src/lcd.c **** 	{
 1782              		.loc 1 143 8 is_stmt 0 view .LVU494
 1783 0038 3278     		ldrb	r2, [r6]	@ zero_extendqisi2
 143:Drivers/LCD/Src/lcd.c **** 	{
 1784              		.loc 1 143 7 view .LVU495
 1785 003a 5AB3     		cbz	r2, .L123
 145:Drivers/LCD/Src/lcd.c **** 		else if(sizey==16) LCD_ShowChinese16x16(x,y,s,fc,bc,sizey,mode);
 1786              		.loc 1 145 3 is_stmt 1 view .LVU496
 145:Drivers/LCD/Src/lcd.c **** 		else if(sizey==16) LCD_ShowChinese16x16(x,y,s,fc,bc,sizey,mode);
 1787              		.loc 1 145 5 is_stmt 0 view .LVU497
 1788 003c 0C2D     		cmp	r5, #12
 1789 003e EDD0     		beq	.L132
 146:Drivers/LCD/Src/lcd.c **** 		else if(sizey==24) LCD_ShowChinese24x24(x,y,s,fc,bc,sizey,mode);
 1790              		.loc 1 146 8 is_stmt 1 view .LVU498
 146:Drivers/LCD/Src/lcd.c **** 		else if(sizey==24) LCD_ShowChinese24x24(x,y,s,fc,bc,sizey,mode);
 1791              		.loc 1 146 10 is_stmt 0 view .LVU499
 1792 0040 102D     		cmp	r5, #16
 1793 0042 0FD0     		beq	.L133
 147:Drivers/LCD/Src/lcd.c **** 		else if(sizey==32) LCD_ShowChinese32x32(x,y,s,fc,bc,sizey,mode);
 1794              		.loc 1 147 8 is_stmt 1 view .LVU500
 147:Drivers/LCD/Src/lcd.c **** 		else if(sizey==32) LCD_ShowChinese32x32(x,y,s,fc,bc,sizey,mode);
 1795              		.loc 1 147 10 is_stmt 0 view .LVU501
 1796 0044 182D     		cmp	r5, #24
 1797 0046 19D0     		beq	.L134
 148:Drivers/LCD/Src/lcd.c **** 		else return;
 1798              		.loc 1 148 8 is_stmt 1 view .LVU502
 148:Drivers/LCD/Src/lcd.c **** 		else return;
 1799              		.loc 1 148 10 is_stmt 0 view .LVU503
 1800 0048 202D     		cmp	r5, #32
 1801 004a 23D1     		bne	.L123
 148:Drivers/LCD/Src/lcd.c **** 		else return;
 1802              		.loc 1 148 22 is_stmt 1 discriminator 1 view .LVU504
ARM GAS  C:\Users\17832\AppData\Local\Temp\cckefvo3.s 			page 43


 1803 004c CDF80890 		str	r9, [sp, #8]
 1804 0050 0195     		str	r5, [sp, #4]
 1805 0052 CDF800A0 		str	r10, [sp]
 1806 0056 3B46     		mov	r3, r7
 1807 0058 3246     		mov	r2, r6
 1808 005a 4146     		mov	r1, r8
 1809 005c 2046     		mov	r0, r4
 1810 005e FFF7FEFF 		bl	LCD_ShowChinese32x32
 1811              	.LVL187:
 1812 0062 E6E7     		b	.L126
 1813              	.L133:
 146:Drivers/LCD/Src/lcd.c **** 		else if(sizey==24) LCD_ShowChinese24x24(x,y,s,fc,bc,sizey,mode);
 1814              		.loc 1 146 22 discriminator 1 view .LVU505
 1815 0064 CDF80890 		str	r9, [sp, #8]
 1816 0068 0195     		str	r5, [sp, #4]
 1817 006a CDF800A0 		str	r10, [sp]
 1818 006e 3B46     		mov	r3, r7
 1819 0070 3246     		mov	r2, r6
 1820 0072 4146     		mov	r1, r8
 1821 0074 2046     		mov	r0, r4
 1822 0076 FFF7FEFF 		bl	LCD_ShowChinese16x16
 1823              	.LVL188:
 1824 007a DAE7     		b	.L126
 1825              	.L134:
 147:Drivers/LCD/Src/lcd.c **** 		else if(sizey==32) LCD_ShowChinese32x32(x,y,s,fc,bc,sizey,mode);
 1826              		.loc 1 147 22 discriminator 1 view .LVU506
 1827 007c CDF80890 		str	r9, [sp, #8]
 1828 0080 0195     		str	r5, [sp, #4]
 1829 0082 CDF800A0 		str	r10, [sp]
 1830 0086 3B46     		mov	r3, r7
 1831 0088 3246     		mov	r2, r6
 1832 008a 4146     		mov	r1, r8
 1833 008c 2046     		mov	r0, r4
 1834 008e FFF7FEFF 		bl	LCD_ShowChinese24x24
 1835              	.LVL189:
 1836 0092 CEE7     		b	.L126
 1837              	.L123:
 153:Drivers/LCD/Src/lcd.c **** 
 1838              		.loc 1 153 1 is_stmt 0 view .LVU507
 1839 0094 04B0     		add	sp, sp, #16
 1840              	.LCFI25:
 1841              		.cfi_def_cfa_offset 32
 1842              		@ sp needed
 1843 0096 BDE8F087 		pop	{r4, r5, r6, r7, r8, r9, r10, pc}
 153:Drivers/LCD/Src/lcd.c **** 
 1844              		.loc 1 153 1 view .LVU508
 1845              		.cfi_endproc
 1846              	.LFE135:
 1848              		.section	.text.LCD_ShowChar,"ax",%progbits
 1849              		.align	1
 1850              		.global	LCD_ShowChar
 1851              		.syntax unified
 1852              		.thumb
 1853              		.thumb_func
 1855              	LCD_ShowChar:
 1856              	.LVL190:
 1857              	.LFB140:
ARM GAS  C:\Users\17832\AppData\Local\Temp\cckefvo3.s 			page 44


 384:Drivers/LCD/Src/lcd.c **** 
 385:Drivers/LCD/Src/lcd.c **** 
 386:Drivers/LCD/Src/lcd.c **** /******************************************************************************
 387:Drivers/LCD/Src/lcd.c ****       函数说明：显示单个字符
 388:Drivers/LCD/Src/lcd.c ****       入口数据：x,y显示坐标
 389:Drivers/LCD/Src/lcd.c ****                 num 要显示的字符
 390:Drivers/LCD/Src/lcd.c ****                 fc 字的颜色
 391:Drivers/LCD/Src/lcd.c ****                 bc 字的背景色
 392:Drivers/LCD/Src/lcd.c ****                 sizey 字号
 393:Drivers/LCD/Src/lcd.c ****                 mode:  0非叠加模式  1叠加模式
 394:Drivers/LCD/Src/lcd.c ****       返回值：  无
 395:Drivers/LCD/Src/lcd.c **** ******************************************************************************/
 396:Drivers/LCD/Src/lcd.c **** void LCD_ShowChar(uint16_t x,uint16_t y,uint8_t num,uint16_t fc,uint16_t bc,uint8_t sizey,uint8_t m
 397:Drivers/LCD/Src/lcd.c **** {
 1858              		.loc 1 397 1 is_stmt 1 view -0
 1859              		.cfi_startproc
 1860              		@ args = 12, pretend = 0, frame = 24
 1861              		@ frame_needed = 0, uses_anonymous_args = 0
 1862              		.loc 1 397 1 is_stmt 0 view .LVU510
 1863 0000 2DE9F04F 		push	{r4, r5, r6, r7, r8, r9, r10, fp, lr}
 1864              	.LCFI26:
 1865              		.cfi_def_cfa_offset 36
 1866              		.cfi_offset 4, -36
 1867              		.cfi_offset 5, -32
 1868              		.cfi_offset 6, -28
 1869              		.cfi_offset 7, -24
 1870              		.cfi_offset 8, -20
 1871              		.cfi_offset 9, -16
 1872              		.cfi_offset 10, -12
 1873              		.cfi_offset 11, -8
 1874              		.cfi_offset 14, -4
 1875 0004 87B0     		sub	sp, sp, #28
 1876              	.LCFI27:
 1877              		.cfi_def_cfa_offset 64
 1878 0006 8346     		mov	fp, r0
 1879 0008 0391     		str	r1, [sp, #12]
 1880 000a 0093     		str	r3, [sp]
 1881 000c BDF84030 		ldrh	r3, [sp, #64]
 1882              	.LVL191:
 1883              		.loc 1 397 1 view .LVU511
 1884 0010 0293     		str	r3, [sp, #8]
 1885 0012 9DF84440 		ldrb	r4, [sp, #68]	@ zero_extendqisi2
 1886 0016 0194     		str	r4, [sp, #4]
 1887 0018 9DF84890 		ldrb	r9, [sp, #72]	@ zero_extendqisi2
 398:Drivers/LCD/Src/lcd.c **** 	uint8_t temp,sizex,t,m=0;
 1888              		.loc 1 398 2 is_stmt 1 view .LVU512
 1889              	.LVL192:
 399:Drivers/LCD/Src/lcd.c **** 	uint16_t i,TypefaceNum;//一个字符所占字节大小
 1890              		.loc 1 399 2 view .LVU513
 400:Drivers/LCD/Src/lcd.c **** 	uint16_t x0=x;
 1891              		.loc 1 400 2 view .LVU514
 401:Drivers/LCD/Src/lcd.c **** 	sizex=sizey/2;
 1892              		.loc 1 401 2 view .LVU515
 1893              		.loc 1 401 7 is_stmt 0 view .LVU516
 1894 001c 6708     		lsrs	r7, r4, #1
 1895              	.LVL193:
 402:Drivers/LCD/Src/lcd.c **** 	TypefaceNum=(sizex/8+((sizex%8)?1:0))*sizey;
ARM GAS  C:\Users\17832\AppData\Local\Temp\cckefvo3.s 			page 45


 1896              		.loc 1 402 2 is_stmt 1 view .LVU517
 1897              		.loc 1 402 35 is_stmt 0 view .LVU518
 1898 001e 14F00E03 		ands	r3, r4, #14
 1899 0022 18BF     		it	ne
 1900 0024 0123     		movne	r3, #1
 1901              		.loc 1 402 22 view .LVU519
 1902 0026 03EB1413 		add	r3, r3, r4, lsr #4
 1903              		.loc 1 402 13 view .LVU520
 1904 002a 03FB04F3 		mul	r3, r3, r4
 1905 002e 0493     		str	r3, [sp, #16]
 1906              	.LVL194:
 403:Drivers/LCD/Src/lcd.c **** 	num=num-' ';    //得到偏移后的值
 1907              		.loc 1 403 2 is_stmt 1 view .LVU521
 1908              		.loc 1 403 5 is_stmt 0 view .LVU522
 1909 0030 203A     		subs	r2, r2, #32
 1910              	.LVL195:
 1911              		.loc 1 403 5 view .LVU523
 1912 0032 D3B2     		uxtb	r3, r2
 1913 0034 0593     		str	r3, [sp, #20]
 1914              	.LVL196:
 404:Drivers/LCD/Src/lcd.c **** 	LCD_Address_Set(x,y,x+sizex-1,y+sizey-1);  //设置光标位置 
 1915              		.loc 1 404 2 is_stmt 1 view .LVU524
 1916              		.loc 1 404 23 is_stmt 0 view .LVU525
 1917 0036 00EB5402 		add	r2, r0, r4, lsr #1
 1918 003a 92B2     		uxth	r2, r2
 1919              		.loc 1 404 33 view .LVU526
 1920 003c 6318     		adds	r3, r4, r1
 1921 003e 9BB2     		uxth	r3, r3
 1922              		.loc 1 404 2 view .LVU527
 1923 0040 013B     		subs	r3, r3, #1
 1924 0042 013A     		subs	r2, r2, #1
 1925 0044 9BB2     		uxth	r3, r3
 1926 0046 92B2     		uxth	r2, r2
 1927 0048 FFF7FEFF 		bl	LCD_Address_Set
 1928              	.LVL197:
 405:Drivers/LCD/Src/lcd.c **** 	for(i=0;i<TypefaceNum;i++)
 1929              		.loc 1 405 2 is_stmt 1 view .LVU528
 1930              		.loc 1 405 2 is_stmt 0 view .LVU529
 1931 004c 5E46     		mov	r6, fp
 1932              		.loc 1 405 7 view .LVU530
 1933 004e 4FF0000A 		mov	r10, #0
 398:Drivers/LCD/Src/lcd.c **** 	uint16_t i,TypefaceNum;//一个字符所占字节大小
 1934              		.loc 1 398 23 view .LVU531
 1935 0052 5546     		mov	r5, r10
 1936              		.loc 1 405 2 view .LVU532
 1937 0054 49E0     		b	.L136
 1938              	.LVL198:
 1939              	.L155:
 406:Drivers/LCD/Src/lcd.c **** 	{ 
 407:Drivers/LCD/Src/lcd.c **** 		if(sizey==12)temp=ascii_1206[num][i];		       //调用6x12字体
 1940              		.loc 1 407 16 is_stmt 1 discriminator 1 view .LVU533
 1941              		.loc 1 407 20 is_stmt 0 discriminator 1 view .LVU534
 1942 0056 059B     		ldr	r3, [sp, #20]
 1943 0058 03EB4303 		add	r3, r3, r3, lsl #1
 1944 005c 334A     		ldr	r2, .L158
 1945 005e 02EB8303 		add	r3, r2, r3, lsl #2
 1946 0062 13F80A80 		ldrb	r8, [r3, r10]	@ zero_extendqisi2
ARM GAS  C:\Users\17832\AppData\Local\Temp\cckefvo3.s 			page 46


 1947              	.LVL199:
 1948              	.L138:
 408:Drivers/LCD/Src/lcd.c **** 		else if(sizey==16)temp=ascii_1608[num][i];		 //调用8x16字体
 409:Drivers/LCD/Src/lcd.c **** 		else if(sizey==24)temp=ascii_2412[num][i];		 //调用12x24字体
 410:Drivers/LCD/Src/lcd.c **** 		else if(sizey==32)temp=ascii_3216[num][i];		 //调用16x32字体
 411:Drivers/LCD/Src/lcd.c **** 		else return;
 412:Drivers/LCD/Src/lcd.c **** 		for(t=0;t<8;t++)
 1949              		.loc 1 412 3 is_stmt 1 view .LVU535
 1950              		.loc 1 412 8 is_stmt 0 view .LVU536
 1951 0066 0024     		movs	r4, #0
 1952              		.loc 1 412 3 view .LVU537
 1953 0068 1DE0     		b	.L142
 1954              	.LVL200:
 1955              	.L156:
 408:Drivers/LCD/Src/lcd.c **** 		else if(sizey==16)temp=ascii_1608[num][i];		 //调用8x16字体
 1956              		.loc 1 408 21 is_stmt 1 discriminator 1 view .LVU538
 408:Drivers/LCD/Src/lcd.c **** 		else if(sizey==16)temp=ascii_1608[num][i];		 //调用8x16字体
 1957              		.loc 1 408 25 is_stmt 0 discriminator 1 view .LVU539
 1958 006a 314B     		ldr	r3, .L158+4
 1959 006c 059A     		ldr	r2, [sp, #20]
 1960 006e 03EB0213 		add	r3, r3, r2, lsl #4
 1961 0072 13F80A80 		ldrb	r8, [r3, r10]	@ zero_extendqisi2
 1962              	.LVL201:
 408:Drivers/LCD/Src/lcd.c **** 		else if(sizey==16)temp=ascii_1608[num][i];		 //调用8x16字体
 1963              		.loc 1 408 25 discriminator 1 view .LVU540
 1964 0076 F6E7     		b	.L138
 1965              	.LVL202:
 1966              	.L157:
 409:Drivers/LCD/Src/lcd.c **** 		else if(sizey==32)temp=ascii_3216[num][i];		 //调用16x32字体
 1967              		.loc 1 409 21 is_stmt 1 discriminator 1 view .LVU541
 409:Drivers/LCD/Src/lcd.c **** 		else if(sizey==32)temp=ascii_3216[num][i];		 //调用16x32字体
 1968              		.loc 1 409 25 is_stmt 0 discriminator 1 view .LVU542
 1969 0078 059B     		ldr	r3, [sp, #20]
 1970 007a 03EB4303 		add	r3, r3, r3, lsl #1
 1971 007e 2D4A     		ldr	r2, .L158+8
 1972 0080 02EB0313 		add	r3, r2, r3, lsl #4
 1973 0084 13F80A80 		ldrb	r8, [r3, r10]	@ zero_extendqisi2
 1974              	.LVL203:
 409:Drivers/LCD/Src/lcd.c **** 		else if(sizey==32)temp=ascii_3216[num][i];		 //调用16x32字体
 1975              		.loc 1 409 25 discriminator 1 view .LVU543
 1976 0088 EDE7     		b	.L138
 1977              	.LVL204:
 1978              	.L144:
 413:Drivers/LCD/Src/lcd.c **** 		{
 414:Drivers/LCD/Src/lcd.c **** 			if(!mode)//非叠加模式
 415:Drivers/LCD/Src/lcd.c **** 			{
 416:Drivers/LCD/Src/lcd.c **** 				if(temp&(0x01<<t))LCD_WR_DATA(fc);
 417:Drivers/LCD/Src/lcd.c **** 				else LCD_WR_DATA(bc);
 1979              		.loc 1 417 10 is_stmt 1 view .LVU544
 1980 008a 0298     		ldr	r0, [sp, #8]
 1981 008c FFF7FEFF 		bl	LCD_WR_DATA
 1982              	.LVL205:
 1983              	.L145:
 418:Drivers/LCD/Src/lcd.c **** 				m++;
 1984              		.loc 1 418 5 view .LVU545
 1985              		.loc 1 418 6 is_stmt 0 view .LVU546
 1986 0090 0135     		adds	r5, r5, #1
ARM GAS  C:\Users\17832\AppData\Local\Temp\cckefvo3.s 			page 47


 1987              	.LVL206:
 1988              		.loc 1 418 6 view .LVU547
 1989 0092 EDB2     		uxtb	r5, r5
 1990              	.LVL207:
 419:Drivers/LCD/Src/lcd.c **** 				if(m%sizex==0)
 1991              		.loc 1 419 5 is_stmt 1 view .LVU548
 1992              		.loc 1 419 15 is_stmt 0 view .LVU549
 1993 0094 B5FBF7F3 		udiv	r3, r5, r7
 1994 0098 07FB1353 		mls	r3, r7, r3, r5
 1995              		.loc 1 419 7 view .LVU550
 1996 009c 13F0FF03 		ands	r3, r3, #255
 1997 00a0 3FD0     		beq	.L153
 1998              	.L147:
 412:Drivers/LCD/Src/lcd.c **** 		{
 1999              		.loc 1 412 15 is_stmt 1 discriminator 2 view .LVU551
 412:Drivers/LCD/Src/lcd.c **** 		{
 2000              		.loc 1 412 16 is_stmt 0 discriminator 2 view .LVU552
 2001 00a2 0134     		adds	r4, r4, #1
 2002              	.LVL208:
 412:Drivers/LCD/Src/lcd.c **** 		{
 2003              		.loc 1 412 16 discriminator 2 view .LVU553
 2004 00a4 E4B2     		uxtb	r4, r4
 2005              	.LVL209:
 2006              	.L142:
 412:Drivers/LCD/Src/lcd.c **** 		{
 2007              		.loc 1 412 11 is_stmt 1 discriminator 1 view .LVU554
 412:Drivers/LCD/Src/lcd.c **** 		{
 2008              		.loc 1 412 3 is_stmt 0 discriminator 1 view .LVU555
 2009 00a6 072C     		cmp	r4, #7
 2010 00a8 1BD8     		bhi	.L146
 414:Drivers/LCD/Src/lcd.c **** 			{
 2011              		.loc 1 414 4 is_stmt 1 view .LVU556
 414:Drivers/LCD/Src/lcd.c **** 			{
 2012              		.loc 1 414 6 is_stmt 0 view .LVU557
 2013 00aa B9F1000F 		cmp	r9, #0
 2014 00ae 08D1     		bne	.L143
 416:Drivers/LCD/Src/lcd.c **** 				else LCD_WR_DATA(bc);
 2015              		.loc 1 416 5 is_stmt 1 view .LVU558
 416:Drivers/LCD/Src/lcd.c **** 				else LCD_WR_DATA(bc);
 2016              		.loc 1 416 8 is_stmt 0 view .LVU559
 2017 00b0 48FA04F3 		asr	r3, r8, r4
 416:Drivers/LCD/Src/lcd.c **** 				else LCD_WR_DATA(bc);
 2018              		.loc 1 416 7 view .LVU560
 2019 00b4 13F0010F 		tst	r3, #1
 2020 00b8 E7D0     		beq	.L144
 416:Drivers/LCD/Src/lcd.c **** 				else LCD_WR_DATA(bc);
 2021              		.loc 1 416 23 is_stmt 1 discriminator 1 view .LVU561
 2022 00ba 0098     		ldr	r0, [sp]
 2023 00bc FFF7FEFF 		bl	LCD_WR_DATA
 2024              	.LVL210:
 2025 00c0 E6E7     		b	.L145
 2026              	.L143:
 420:Drivers/LCD/Src/lcd.c **** 				{
 421:Drivers/LCD/Src/lcd.c **** 					m=0;
 422:Drivers/LCD/Src/lcd.c **** 					break;
 423:Drivers/LCD/Src/lcd.c **** 				}
 424:Drivers/LCD/Src/lcd.c **** 			}
ARM GAS  C:\Users\17832\AppData\Local\Temp\cckefvo3.s 			page 48


 425:Drivers/LCD/Src/lcd.c **** 			else//叠加模式
 426:Drivers/LCD/Src/lcd.c **** 			{
 427:Drivers/LCD/Src/lcd.c **** 				if(temp&(0x01<<t))LCD_DrawPoint(x,y,fc);//画一个点
 2027              		.loc 1 427 5 view .LVU562
 2028              		.loc 1 427 8 is_stmt 0 view .LVU563
 2029 00c2 48FA04F3 		asr	r3, r8, r4
 2030              		.loc 1 427 7 view .LVU564
 2031 00c6 13F0010F 		tst	r3, #1
 2032 00ca 24D1     		bne	.L154
 2033              	.L148:
 428:Drivers/LCD/Src/lcd.c **** 				x++;
 2034              		.loc 1 428 5 is_stmt 1 view .LVU565
 2035              		.loc 1 428 6 is_stmt 0 view .LVU566
 2036 00cc 0136     		adds	r6, r6, #1
 2037              	.LVL211:
 2038              		.loc 1 428 6 view .LVU567
 2039 00ce B6B2     		uxth	r6, r6
 2040              	.LVL212:
 429:Drivers/LCD/Src/lcd.c **** 				if((x-x0)==sizex)
 2041              		.loc 1 429 5 is_stmt 1 view .LVU568
 2042              		.loc 1 429 10 is_stmt 0 view .LVU569
 2043 00d0 A6EB0B03 		sub	r3, r6, fp
 2044              		.loc 1 429 7 view .LVU570
 2045 00d4 BB42     		cmp	r3, r7
 2046 00d6 E4D1     		bne	.L147
 430:Drivers/LCD/Src/lcd.c **** 				{
 431:Drivers/LCD/Src/lcd.c **** 					x=x0;
 2047              		.loc 1 431 6 is_stmt 1 view .LVU571
 2048              	.LVL213:
 432:Drivers/LCD/Src/lcd.c **** 					y++;
 2049              		.loc 1 432 6 view .LVU572
 2050              		.loc 1 432 7 is_stmt 0 view .LVU573
 2051 00d8 039B     		ldr	r3, [sp, #12]
 2052 00da 0133     		adds	r3, r3, #1
 2053 00dc 9BB2     		uxth	r3, r3
 2054 00de 0393     		str	r3, [sp, #12]
 2055              	.LVL214:
 433:Drivers/LCD/Src/lcd.c **** 					break;
 2056              		.loc 1 433 6 is_stmt 1 view .LVU574
 431:Drivers/LCD/Src/lcd.c **** 					y++;
 2057              		.loc 1 431 7 is_stmt 0 view .LVU575
 2058 00e0 5E46     		mov	r6, fp
 2059              	.LVL215:
 2060              	.L146:
 405:Drivers/LCD/Src/lcd.c **** 	{ 
 2061              		.loc 1 405 24 is_stmt 1 discriminator 2 view .LVU576
 405:Drivers/LCD/Src/lcd.c **** 	{ 
 2062              		.loc 1 405 25 is_stmt 0 discriminator 2 view .LVU577
 2063 00e2 0AF1010A 		add	r10, r10, #1
 2064              	.LVL216:
 405:Drivers/LCD/Src/lcd.c **** 	{ 
 2065              		.loc 1 405 25 discriminator 2 view .LVU578
 2066 00e6 1FFA8AFA 		uxth	r10, r10
 2067              	.LVL217:
 2068              	.L136:
 405:Drivers/LCD/Src/lcd.c **** 	{ 
 2069              		.loc 1 405 10 is_stmt 1 discriminator 1 view .LVU579
ARM GAS  C:\Users\17832\AppData\Local\Temp\cckefvo3.s 			page 49


 405:Drivers/LCD/Src/lcd.c **** 	{ 
 2070              		.loc 1 405 2 is_stmt 0 discriminator 1 view .LVU580
 2071 00ea 049B     		ldr	r3, [sp, #16]
 2072 00ec 9A45     		cmp	r10, r3
 2073 00ee 1AD2     		bcs	.L135
 407:Drivers/LCD/Src/lcd.c **** 		else if(sizey==16)temp=ascii_1608[num][i];		 //调用8x16字体
 2074              		.loc 1 407 3 is_stmt 1 view .LVU581
 407:Drivers/LCD/Src/lcd.c **** 		else if(sizey==16)temp=ascii_1608[num][i];		 //调用8x16字体
 2075              		.loc 1 407 5 is_stmt 0 view .LVU582
 2076 00f0 019B     		ldr	r3, [sp, #4]
 2077 00f2 0C2B     		cmp	r3, #12
 2078 00f4 AFD0     		beq	.L155
 408:Drivers/LCD/Src/lcd.c **** 		else if(sizey==24)temp=ascii_2412[num][i];		 //调用12x24字体
 2079              		.loc 1 408 8 is_stmt 1 view .LVU583
 408:Drivers/LCD/Src/lcd.c **** 		else if(sizey==24)temp=ascii_2412[num][i];		 //调用12x24字体
 2080              		.loc 1 408 10 is_stmt 0 view .LVU584
 2081 00f6 019B     		ldr	r3, [sp, #4]
 2082 00f8 102B     		cmp	r3, #16
 2083 00fa B6D0     		beq	.L156
 409:Drivers/LCD/Src/lcd.c **** 		else if(sizey==32)temp=ascii_3216[num][i];		 //调用16x32字体
 2084              		.loc 1 409 8 is_stmt 1 view .LVU585
 409:Drivers/LCD/Src/lcd.c **** 		else if(sizey==32)temp=ascii_3216[num][i];		 //调用16x32字体
 2085              		.loc 1 409 10 is_stmt 0 view .LVU586
 2086 00fc 019B     		ldr	r3, [sp, #4]
 2087 00fe 182B     		cmp	r3, #24
 2088 0100 BAD0     		beq	.L157
 410:Drivers/LCD/Src/lcd.c **** 		else return;
 2089              		.loc 1 410 8 is_stmt 1 view .LVU587
 410:Drivers/LCD/Src/lcd.c **** 		else return;
 2090              		.loc 1 410 10 is_stmt 0 view .LVU588
 2091 0102 019B     		ldr	r3, [sp, #4]
 2092 0104 202B     		cmp	r3, #32
 2093 0106 0ED1     		bne	.L135
 410:Drivers/LCD/Src/lcd.c **** 		else return;
 2094              		.loc 1 410 21 is_stmt 1 discriminator 1 view .LVU589
 410:Drivers/LCD/Src/lcd.c **** 		else return;
 2095              		.loc 1 410 25 is_stmt 0 discriminator 1 view .LVU590
 2096 0108 0B4B     		ldr	r3, .L158+12
 2097 010a 059A     		ldr	r2, [sp, #20]
 2098 010c 03EB8213 		add	r3, r3, r2, lsl #6
 2099 0110 13F80A80 		ldrb	r8, [r3, r10]	@ zero_extendqisi2
 2100              	.LVL218:
 410:Drivers/LCD/Src/lcd.c **** 		else return;
 2101              		.loc 1 410 25 discriminator 1 view .LVU591
 2102 0114 A7E7     		b	.L138
 2103              	.LVL219:
 2104              	.L154:
 427:Drivers/LCD/Src/lcd.c **** 				x++;
 2105              		.loc 1 427 23 is_stmt 1 discriminator 1 view .LVU592
 2106 0116 009A     		ldr	r2, [sp]
 2107 0118 0399     		ldr	r1, [sp, #12]
 2108 011a 3046     		mov	r0, r6
 2109 011c FFF7FEFF 		bl	LCD_DrawPoint
 2110              	.LVL220:
 2111 0120 D4E7     		b	.L148
 2112              	.L153:
 421:Drivers/LCD/Src/lcd.c **** 					break;
ARM GAS  C:\Users\17832\AppData\Local\Temp\cckefvo3.s 			page 50


 2113              		.loc 1 421 7 is_stmt 0 view .LVU593
 2114 0122 1D46     		mov	r5, r3
 2115              	.LVL221:
 421:Drivers/LCD/Src/lcd.c **** 					break;
 2116              		.loc 1 421 7 view .LVU594
 2117 0124 DDE7     		b	.L146
 2118              	.LVL222:
 2119              	.L135:
 434:Drivers/LCD/Src/lcd.c **** 				}
 435:Drivers/LCD/Src/lcd.c **** 			}
 436:Drivers/LCD/Src/lcd.c **** 		}
 437:Drivers/LCD/Src/lcd.c **** 	}   	 	  
 438:Drivers/LCD/Src/lcd.c **** }
 2120              		.loc 1 438 1 view .LVU595
 2121 0126 07B0     		add	sp, sp, #28
 2122              	.LCFI28:
 2123              		.cfi_def_cfa_offset 36
 2124              		@ sp needed
 2125 0128 BDE8F08F 		pop	{r4, r5, r6, r7, r8, r9, r10, fp, pc}
 2126              	.LVL223:
 2127              	.L159:
 2128              		.loc 1 438 1 view .LVU596
 2129              		.align	2
 2130              	.L158:
 2131 012c 00000000 		.word	.LANCHOR4
 2132 0130 00000000 		.word	.LANCHOR5
 2133 0134 00000000 		.word	ascii_2412
 2134 0138 00000000 		.word	ascii_3216
 2135              		.cfi_endproc
 2136              	.LFE140:
 2138              		.section	.text.LCD_ShowString,"ax",%progbits
 2139              		.align	1
 2140              		.global	LCD_ShowString
 2141              		.syntax unified
 2142              		.thumb
 2143              		.thumb_func
 2145              	LCD_ShowString:
 2146              	.LVL224:
 2147              	.LFB141:
 439:Drivers/LCD/Src/lcd.c **** 
 440:Drivers/LCD/Src/lcd.c **** 
 441:Drivers/LCD/Src/lcd.c **** /******************************************************************************
 442:Drivers/LCD/Src/lcd.c ****       函数说明：显示字符串
 443:Drivers/LCD/Src/lcd.c ****       入口数据：x,y显示坐标
 444:Drivers/LCD/Src/lcd.c ****                 *p 要显示的字符串
 445:Drivers/LCD/Src/lcd.c ****                 fc 字的颜色
 446:Drivers/LCD/Src/lcd.c ****                 bc 字的背景色
 447:Drivers/LCD/Src/lcd.c ****                 sizey 字号
 448:Drivers/LCD/Src/lcd.c ****                 mode:  0非叠加模式  1叠加模式
 449:Drivers/LCD/Src/lcd.c ****       返回值：  无
 450:Drivers/LCD/Src/lcd.c **** ******************************************************************************/
 451:Drivers/LCD/Src/lcd.c **** void LCD_ShowString(uint16_t x,uint16_t y,const uint8_t *p,uint16_t fc,uint16_t bc,uint8_t sizey,ui
 452:Drivers/LCD/Src/lcd.c **** {         
 2148              		.loc 1 452 1 is_stmt 1 view -0
 2149              		.cfi_startproc
 2150              		@ args = 12, pretend = 0, frame = 0
 2151              		@ frame_needed = 0, uses_anonymous_args = 0
ARM GAS  C:\Users\17832\AppData\Local\Temp\cckefvo3.s 			page 51


 2152              		.loc 1 452 1 is_stmt 0 view .LVU598
 2153 0000 2DE9F047 		push	{r4, r5, r6, r7, r8, r9, r10, lr}
 2154              	.LCFI29:
 2155              		.cfi_def_cfa_offset 32
 2156              		.cfi_offset 4, -32
 2157              		.cfi_offset 5, -28
 2158              		.cfi_offset 6, -24
 2159              		.cfi_offset 7, -20
 2160              		.cfi_offset 8, -16
 2161              		.cfi_offset 9, -12
 2162              		.cfi_offset 10, -8
 2163              		.cfi_offset 14, -4
 2164 0004 84B0     		sub	sp, sp, #16
 2165              	.LCFI30:
 2166              		.cfi_def_cfa_offset 48
 2167 0006 0446     		mov	r4, r0
 2168 0008 8846     		mov	r8, r1
 2169 000a 1546     		mov	r5, r2
 2170 000c 1F46     		mov	r7, r3
 2171 000e BDF830A0 		ldrh	r10, [sp, #48]
 2172 0012 9DF83460 		ldrb	r6, [sp, #52]	@ zero_extendqisi2
 2173 0016 9DF83890 		ldrb	r9, [sp, #56]	@ zero_extendqisi2
 453:Drivers/LCD/Src/lcd.c **** 	while(*p!='\0')
 2174              		.loc 1 453 2 is_stmt 1 view .LVU599
 2175              		.loc 1 453 7 is_stmt 0 view .LVU600
 2176 001a 0DE0     		b	.L161
 2177              	.LVL225:
 2178              	.L162:
 454:Drivers/LCD/Src/lcd.c **** 	{       
 455:Drivers/LCD/Src/lcd.c **** 		LCD_ShowChar(x,y,*p,fc,bc,sizey,mode);
 2179              		.loc 1 455 3 is_stmt 1 view .LVU601
 2180 001c CDF80890 		str	r9, [sp, #8]
 2181 0020 0196     		str	r6, [sp, #4]
 2182 0022 CDF800A0 		str	r10, [sp]
 2183 0026 3B46     		mov	r3, r7
 2184 0028 4146     		mov	r1, r8
 2185 002a 2046     		mov	r0, r4
 2186 002c FFF7FEFF 		bl	LCD_ShowChar
 2187              	.LVL226:
 456:Drivers/LCD/Src/lcd.c **** 		x+=sizey/2;
 2188              		.loc 1 456 3 view .LVU602
 2189              		.loc 1 456 4 is_stmt 0 view .LVU603
 2190 0030 04EB5604 		add	r4, r4, r6, lsr #1
 2191              	.LVL227:
 2192              		.loc 1 456 4 view .LVU604
 2193 0034 A4B2     		uxth	r4, r4
 2194              	.LVL228:
 457:Drivers/LCD/Src/lcd.c **** 		p++;
 2195              		.loc 1 457 3 is_stmt 1 view .LVU605
 2196              		.loc 1 457 4 is_stmt 0 view .LVU606
 2197 0036 0135     		adds	r5, r5, #1
 2198              	.LVL229:
 2199              	.L161:
 453:Drivers/LCD/Src/lcd.c **** 	{       
 2200              		.loc 1 453 7 is_stmt 1 view .LVU607
 453:Drivers/LCD/Src/lcd.c **** 	{       
 2201              		.loc 1 453 8 is_stmt 0 view .LVU608
ARM GAS  C:\Users\17832\AppData\Local\Temp\cckefvo3.s 			page 52


 2202 0038 2A78     		ldrb	r2, [r5]	@ zero_extendqisi2
 453:Drivers/LCD/Src/lcd.c **** 	{       
 2203              		.loc 1 453 7 view .LVU609
 2204 003a 002A     		cmp	r2, #0
 2205 003c EED1     		bne	.L162
 458:Drivers/LCD/Src/lcd.c **** 	}  
 459:Drivers/LCD/Src/lcd.c **** }
 2206              		.loc 1 459 1 view .LVU610
 2207 003e 04B0     		add	sp, sp, #16
 2208              	.LCFI31:
 2209              		.cfi_def_cfa_offset 32
 2210              		@ sp needed
 2211 0040 BDE8F087 		pop	{r4, r5, r6, r7, r8, r9, r10, pc}
 2212              		.loc 1 459 1 view .LVU611
 2213              		.cfi_endproc
 2214              	.LFE141:
 2216              		.section	.text.mypow,"ax",%progbits
 2217              		.align	1
 2218              		.global	mypow
 2219              		.syntax unified
 2220              		.thumb
 2221              		.thumb_func
 2223              	mypow:
 2224              	.LVL230:
 2225              	.LFB142:
 460:Drivers/LCD/Src/lcd.c **** 
 461:Drivers/LCD/Src/lcd.c **** 
 462:Drivers/LCD/Src/lcd.c **** /******************************************************************************
 463:Drivers/LCD/Src/lcd.c ****       函数说明：显示数字
 464:Drivers/LCD/Src/lcd.c ****       入口数据：m底数，n指数
 465:Drivers/LCD/Src/lcd.c ****       返回值：  无
 466:Drivers/LCD/Src/lcd.c **** ******************************************************************************/
 467:Drivers/LCD/Src/lcd.c **** uint32_t mypow(uint8_t m,uint8_t n)
 468:Drivers/LCD/Src/lcd.c **** {
 2226              		.loc 1 468 1 is_stmt 1 view -0
 2227              		.cfi_startproc
 2228              		@ args = 0, pretend = 0, frame = 0
 2229              		@ frame_needed = 0, uses_anonymous_args = 0
 2230              		@ link register save eliminated.
 2231              		.loc 1 468 1 is_stmt 0 view .LVU613
 2232 0000 0246     		mov	r2, r0
 469:Drivers/LCD/Src/lcd.c **** 	uint32_t result=1;	 
 2233              		.loc 1 469 2 is_stmt 1 view .LVU614
 2234              	.LVL231:
 470:Drivers/LCD/Src/lcd.c **** 	while(n--)result*=m;
 2235              		.loc 1 470 2 view .LVU615
 469:Drivers/LCD/Src/lcd.c **** 	uint32_t result=1;	 
 2236              		.loc 1 469 11 is_stmt 0 view .LVU616
 2237 0002 0120     		movs	r0, #1
 2238              	.LVL232:
 2239              		.loc 1 470 7 view .LVU617
 2240 0004 02E0     		b	.L165
 2241              	.LVL233:
 2242              	.L166:
 2243              		.loc 1 470 12 is_stmt 1 discriminator 2 view .LVU618
 2244              		.loc 1 470 18 is_stmt 0 discriminator 2 view .LVU619
 2245 0006 02FB00F0 		mul	r0, r2, r0
ARM GAS  C:\Users\17832\AppData\Local\Temp\cckefvo3.s 			page 53


 2246              	.LVL234:
 2247              		.loc 1 470 9 discriminator 2 view .LVU620
 2248 000a 1946     		mov	r1, r3
 2249              	.LVL235:
 2250              	.L165:
 2251              		.loc 1 470 7 is_stmt 1 discriminator 1 view .LVU621
 2252              		.loc 1 470 9 is_stmt 0 discriminator 1 view .LVU622
 2253 000c 4B1E     		subs	r3, r1, #1
 2254 000e DBB2     		uxtb	r3, r3
 2255              	.LVL236:
 2256              		.loc 1 470 7 discriminator 1 view .LVU623
 2257 0010 0029     		cmp	r1, #0
 2258 0012 F8D1     		bne	.L166
 471:Drivers/LCD/Src/lcd.c **** 	return result;
 2259              		.loc 1 471 2 is_stmt 1 view .LVU624
 472:Drivers/LCD/Src/lcd.c **** }
 2260              		.loc 1 472 1 is_stmt 0 view .LVU625
 2261 0014 7047     		bx	lr
 2262              		.cfi_endproc
 2263              	.LFE142:
 2265              		.section	.text.LCD_ShowIntNum,"ax",%progbits
 2266              		.align	1
 2267              		.global	LCD_ShowIntNum
 2268              		.syntax unified
 2269              		.thumb
 2270              		.thumb_func
 2272              	LCD_ShowIntNum:
 2273              	.LVL237:
 2274              	.LFB143:
 473:Drivers/LCD/Src/lcd.c **** 
 474:Drivers/LCD/Src/lcd.c **** 
 475:Drivers/LCD/Src/lcd.c **** /******************************************************************************
 476:Drivers/LCD/Src/lcd.c ****       函数说明：显示整数变量
 477:Drivers/LCD/Src/lcd.c ****       入口数据：x,y显示坐标
 478:Drivers/LCD/Src/lcd.c ****                 num 要显示整数变量
 479:Drivers/LCD/Src/lcd.c ****                 len 要显示的位数
 480:Drivers/LCD/Src/lcd.c ****                 fc 字的颜色
 481:Drivers/LCD/Src/lcd.c ****                 bc 字的背景色
 482:Drivers/LCD/Src/lcd.c ****                 sizey 字号
 483:Drivers/LCD/Src/lcd.c ****       返回值：  无
 484:Drivers/LCD/Src/lcd.c **** ******************************************************************************/
 485:Drivers/LCD/Src/lcd.c **** void LCD_ShowIntNum(uint16_t x,uint16_t y,uint16_t num,uint8_t len,uint16_t fc,uint16_t bc,uint8_t 
 486:Drivers/LCD/Src/lcd.c **** {         	
 2275              		.loc 1 486 1 is_stmt 1 view -0
 2276              		.cfi_startproc
 2277              		@ args = 12, pretend = 0, frame = 8
 2278              		@ frame_needed = 0, uses_anonymous_args = 0
 2279              		.loc 1 486 1 is_stmt 0 view .LVU627
 2280 0000 2DE9F04F 		push	{r4, r5, r6, r7, r8, r9, r10, fp, lr}
 2281              	.LCFI32:
 2282              		.cfi_def_cfa_offset 36
 2283              		.cfi_offset 4, -36
 2284              		.cfi_offset 5, -32
 2285              		.cfi_offset 6, -28
 2286              		.cfi_offset 7, -24
 2287              		.cfi_offset 8, -20
 2288              		.cfi_offset 9, -16
ARM GAS  C:\Users\17832\AppData\Local\Temp\cckefvo3.s 			page 54


 2289              		.cfi_offset 10, -12
 2290              		.cfi_offset 11, -8
 2291              		.cfi_offset 14, -4
 2292 0004 87B0     		sub	sp, sp, #28
 2293              	.LCFI33:
 2294              		.cfi_def_cfa_offset 64
 2295 0006 8046     		mov	r8, r0
 2296 0008 0491     		str	r1, [sp, #16]
 2297 000a 1746     		mov	r7, r2
 2298 000c 1D46     		mov	r5, r3
 2299 000e BDF84030 		ldrh	r3, [sp, #64]
 2300              	.LVL238:
 2301              		.loc 1 486 1 view .LVU628
 2302 0012 0593     		str	r3, [sp, #20]
 2303 0014 BDF844B0 		ldrh	fp, [sp, #68]
 2304 0018 9DF84890 		ldrb	r9, [sp, #72]	@ zero_extendqisi2
 487:Drivers/LCD/Src/lcd.c **** 	uint8_t t,temp;
 2305              		.loc 1 487 2 is_stmt 1 view .LVU629
 488:Drivers/LCD/Src/lcd.c **** 	uint8_t enshow=0;
 2306              		.loc 1 488 2 view .LVU630
 2307              	.LVL239:
 489:Drivers/LCD/Src/lcd.c **** 	uint8_t sizex=sizey/2;
 2308              		.loc 1 489 2 view .LVU631
 2309              		.loc 1 489 10 is_stmt 0 view .LVU632
 2310 001c 4FEA590A 		lsr	r10, r9, #1
 2311              	.LVL240:
 490:Drivers/LCD/Src/lcd.c **** 	for(t=0;t<len;t++)
 2312              		.loc 1 490 2 is_stmt 1 view .LVU633
 488:Drivers/LCD/Src/lcd.c **** 	uint8_t enshow=0;
 2313              		.loc 1 488 10 is_stmt 0 view .LVU634
 2314 0020 0026     		movs	r6, #0
 2315              		.loc 1 490 7 view .LVU635
 2316 0022 3446     		mov	r4, r6
 2317              		.loc 1 490 2 view .LVU636
 2318 0024 1FE0     		b	.L168
 2319              	.LVL241:
 2320              	.L175:
 491:Drivers/LCD/Src/lcd.c **** 	{
 492:Drivers/LCD/Src/lcd.c **** 		temp=(num/mypow(10,len-t-1))%10;
 493:Drivers/LCD/Src/lcd.c **** 		if(enshow==0&&t<(len-1))
 494:Drivers/LCD/Src/lcd.c **** 		{
 495:Drivers/LCD/Src/lcd.c **** 			if(temp==0)
 496:Drivers/LCD/Src/lcd.c **** 			{
 497:Drivers/LCD/Src/lcd.c **** 				LCD_ShowChar(x+t*sizex,y,' ',fc,bc,sizey,0);
 2321              		.loc 1 497 5 is_stmt 1 view .LVU637
 2322 0026 04FB0A80 		mla	r0, r4, r10, r8
 2323 002a 0023     		movs	r3, #0
 2324 002c 0293     		str	r3, [sp, #8]
 2325 002e CDF80490 		str	r9, [sp, #4]
 2326 0032 CDF800B0 		str	fp, [sp]
 2327 0036 059B     		ldr	r3, [sp, #20]
 2328 0038 2022     		movs	r2, #32
 2329              	.LVL242:
 2330              		.loc 1 497 5 is_stmt 0 view .LVU638
 2331 003a 0499     		ldr	r1, [sp, #16]
 2332 003c 80B2     		uxth	r0, r0
 2333 003e FFF7FEFF 		bl	LCD_ShowChar
ARM GAS  C:\Users\17832\AppData\Local\Temp\cckefvo3.s 			page 55


 2334              	.LVL243:
 498:Drivers/LCD/Src/lcd.c **** 				continue;
 2335              		.loc 1 498 5 is_stmt 1 view .LVU639
 2336 0042 0EE0     		b	.L170
 2337              	.LVL244:
 2338              	.L169:
 499:Drivers/LCD/Src/lcd.c **** 			}else enshow=1; 
 500:Drivers/LCD/Src/lcd.c **** 		 	 
 501:Drivers/LCD/Src/lcd.c **** 		}
 502:Drivers/LCD/Src/lcd.c **** 	 	LCD_ShowChar(x+t*sizex,y,temp+48,fc,bc,sizey,0);
 2339              		.loc 1 502 4 view .LVU640
 2340 0044 3032     		adds	r2, r2, #48
 2341              	.LVL245:
 2342              		.loc 1 502 4 is_stmt 0 view .LVU641
 2343 0046 04FB0A80 		mla	r0, r4, r10, r8
 2344 004a 0023     		movs	r3, #0
 2345 004c 0293     		str	r3, [sp, #8]
 2346 004e CDF80490 		str	r9, [sp, #4]
 2347 0052 CDF800B0 		str	fp, [sp]
 2348 0056 059B     		ldr	r3, [sp, #20]
 2349 0058 D2B2     		uxtb	r2, r2
 2350              	.LVL246:
 2351              		.loc 1 502 4 view .LVU642
 2352 005a 0499     		ldr	r1, [sp, #16]
 2353 005c 80B2     		uxth	r0, r0
 2354 005e FFF7FEFF 		bl	LCD_ShowChar
 2355              	.LVL247:
 2356              	.L170:
 490:Drivers/LCD/Src/lcd.c **** 	{
 2357              		.loc 1 490 16 is_stmt 1 discriminator 2 view .LVU643
 490:Drivers/LCD/Src/lcd.c **** 	{
 2358              		.loc 1 490 17 is_stmt 0 discriminator 2 view .LVU644
 2359 0062 0134     		adds	r4, r4, #1
 2360              	.LVL248:
 490:Drivers/LCD/Src/lcd.c **** 	{
 2361              		.loc 1 490 17 discriminator 2 view .LVU645
 2362 0064 E4B2     		uxtb	r4, r4
 2363              	.LVL249:
 2364              	.L168:
 490:Drivers/LCD/Src/lcd.c **** 	{
 2365              		.loc 1 490 10 is_stmt 1 discriminator 1 view .LVU646
 490:Drivers/LCD/Src/lcd.c **** 	{
 2366              		.loc 1 490 2 is_stmt 0 discriminator 1 view .LVU647
 2367 0066 AC42     		cmp	r4, r5
 2368 0068 1AD2     		bcs	.L174
 492:Drivers/LCD/Src/lcd.c **** 		if(enshow==0&&t<(len-1))
 2369              		.loc 1 492 3 is_stmt 1 view .LVU648
 492:Drivers/LCD/Src/lcd.c **** 		if(enshow==0&&t<(len-1))
 2370              		.loc 1 492 25 is_stmt 0 view .LVU649
 2371 006a 291B     		subs	r1, r5, r4
 2372 006c C9B2     		uxtb	r1, r1
 492:Drivers/LCD/Src/lcd.c **** 		if(enshow==0&&t<(len-1))
 2373              		.loc 1 492 13 view .LVU650
 2374 006e 0139     		subs	r1, r1, #1
 2375 0070 C9B2     		uxtb	r1, r1
 2376 0072 0A20     		movs	r0, #10
 2377 0074 FFF7FEFF 		bl	mypow
ARM GAS  C:\Users\17832\AppData\Local\Temp\cckefvo3.s 			page 56


 2378              	.LVL250:
 492:Drivers/LCD/Src/lcd.c **** 		if(enshow==0&&t<(len-1))
 2379              		.loc 1 492 12 view .LVU651
 2380 0078 B7FBF0F0 		udiv	r0, r7, r0
 492:Drivers/LCD/Src/lcd.c **** 		if(enshow==0&&t<(len-1))
 2381              		.loc 1 492 31 view .LVU652
 2382 007c 0A4A     		ldr	r2, .L176
 2383 007e A2FB0032 		umull	r3, r2, r2, r0
 2384 0082 D208     		lsrs	r2, r2, #3
 2385 0084 02EB8202 		add	r2, r2, r2, lsl #2
 2386 0088 A0EB4202 		sub	r2, r0, r2, lsl #1
 492:Drivers/LCD/Src/lcd.c **** 		if(enshow==0&&t<(len-1))
 2387              		.loc 1 492 7 view .LVU653
 2388 008c D2B2     		uxtb	r2, r2
 2389              	.LVL251:
 493:Drivers/LCD/Src/lcd.c **** 		{
 2390              		.loc 1 493 3 is_stmt 1 view .LVU654
 493:Drivers/LCD/Src/lcd.c **** 		{
 2391              		.loc 1 493 5 is_stmt 0 view .LVU655
 2392 008e 002E     		cmp	r6, #0
 2393 0090 D8D1     		bne	.L169
 493:Drivers/LCD/Src/lcd.c **** 		{
 2394              		.loc 1 493 23 discriminator 1 view .LVU656
 2395 0092 6B1E     		subs	r3, r5, #1
 493:Drivers/LCD/Src/lcd.c **** 		{
 2396              		.loc 1 493 15 discriminator 1 view .LVU657
 2397 0094 9C42     		cmp	r4, r3
 2398 0096 D5DA     		bge	.L169
 495:Drivers/LCD/Src/lcd.c **** 			{
 2399              		.loc 1 495 4 is_stmt 1 view .LVU658
 495:Drivers/LCD/Src/lcd.c **** 			{
 2400              		.loc 1 495 6 is_stmt 0 view .LVU659
 2401 0098 002A     		cmp	r2, #0
 2402 009a C4D0     		beq	.L175
 499:Drivers/LCD/Src/lcd.c **** 		 	 
 2403              		.loc 1 499 16 view .LVU660
 2404 009c 0126     		movs	r6, #1
 2405              	.LVL252:
 499:Drivers/LCD/Src/lcd.c **** 		 	 
 2406              		.loc 1 499 16 view .LVU661
 2407 009e D1E7     		b	.L169
 2408              	.LVL253:
 2409              	.L174:
 503:Drivers/LCD/Src/lcd.c **** 	}
 504:Drivers/LCD/Src/lcd.c **** } 
 2410              		.loc 1 504 1 view .LVU662
 2411 00a0 07B0     		add	sp, sp, #28
 2412              	.LCFI34:
 2413              		.cfi_def_cfa_offset 36
 2414              		@ sp needed
 2415 00a2 BDE8F08F 		pop	{r4, r5, r6, r7, r8, r9, r10, fp, pc}
 2416              	.LVL254:
 2417              	.L177:
 2418              		.loc 1 504 1 view .LVU663
 2419 00a6 00BF     		.align	2
 2420              	.L176:
 2421 00a8 CDCCCCCC 		.word	-858993459
ARM GAS  C:\Users\17832\AppData\Local\Temp\cckefvo3.s 			page 57


 2422              		.cfi_endproc
 2423              	.LFE143:
 2425              		.section	.text.LCD_ShowFloatNum1,"ax",%progbits
 2426              		.align	1
 2427              		.global	LCD_ShowFloatNum1
 2428              		.syntax unified
 2429              		.thumb
 2430              		.thumb_func
 2432              	LCD_ShowFloatNum1:
 2433              	.LVL255:
 2434              	.LFB144:
 505:Drivers/LCD/Src/lcd.c **** 
 506:Drivers/LCD/Src/lcd.c **** 
 507:Drivers/LCD/Src/lcd.c **** /******************************************************************************
 508:Drivers/LCD/Src/lcd.c ****       函数说明：显示两位小数变量
 509:Drivers/LCD/Src/lcd.c ****       入口数据：x,y显示坐标
 510:Drivers/LCD/Src/lcd.c ****                 num 要显示小数变量
 511:Drivers/LCD/Src/lcd.c ****                 len 要显示的位数
 512:Drivers/LCD/Src/lcd.c ****                 fc 字的颜色
 513:Drivers/LCD/Src/lcd.c ****                 bc 字的背景色
 514:Drivers/LCD/Src/lcd.c ****                 sizey 字号
 515:Drivers/LCD/Src/lcd.c ****       返回值：  无
 516:Drivers/LCD/Src/lcd.c **** ******************************************************************************/
 517:Drivers/LCD/Src/lcd.c **** void LCD_ShowFloatNum1(uint16_t x,uint16_t y,float num,uint8_t len,uint16_t fc,uint16_t bc,uint8_t 
 518:Drivers/LCD/Src/lcd.c **** {         	
 2435              		.loc 1 518 1 is_stmt 1 view -0
 2436              		.cfi_startproc
 2437              		@ args = 8, pretend = 0, frame = 8
 2438              		@ frame_needed = 0, uses_anonymous_args = 0
 2439              		.loc 1 518 1 is_stmt 0 view .LVU665
 2440 0000 2DE9F04F 		push	{r4, r5, r6, r7, r8, r9, r10, fp, lr}
 2441              	.LCFI35:
 2442              		.cfi_def_cfa_offset 36
 2443              		.cfi_offset 4, -36
 2444              		.cfi_offset 5, -32
 2445              		.cfi_offset 6, -28
 2446              		.cfi_offset 7, -24
 2447              		.cfi_offset 8, -20
 2448              		.cfi_offset 9, -16
 2449              		.cfi_offset 10, -12
 2450              		.cfi_offset 11, -8
 2451              		.cfi_offset 14, -4
 2452 0004 87B0     		sub	sp, sp, #28
 2453              	.LCFI36:
 2454              		.cfi_def_cfa_offset 64
 2455 0006 8046     		mov	r8, r0
 2456 0008 0491     		str	r1, [sp, #16]
 2457 000a 1646     		mov	r6, r2
 2458 000c 0593     		str	r3, [sp, #20]
 2459 000e BDF840B0 		ldrh	fp, [sp, #64]
 2460 0012 9DF84490 		ldrb	r9, [sp, #68]	@ zero_extendqisi2
 519:Drivers/LCD/Src/lcd.c **** 	uint8_t t,temp,sizex;
 2461              		.loc 1 519 2 is_stmt 1 view .LVU666
 520:Drivers/LCD/Src/lcd.c **** 	uint16_t num1;
 2462              		.loc 1 520 2 view .LVU667
 521:Drivers/LCD/Src/lcd.c **** 	sizex=sizey/2;
 2463              		.loc 1 521 2 view .LVU668
ARM GAS  C:\Users\17832\AppData\Local\Temp\cckefvo3.s 			page 58


 2464              		.loc 1 521 7 is_stmt 0 view .LVU669
 2465 0016 4FEA590A 		lsr	r10, r9, #1
 2466              	.LVL256:
 522:Drivers/LCD/Src/lcd.c **** 	num1=num*100;
 2467              		.loc 1 522 2 is_stmt 1 view .LVU670
 2468              		.loc 1 522 10 is_stmt 0 view .LVU671
 2469 001a DFED257A 		vldr.32	s15, .L184
 2470 001e 20EE270A 		vmul.f32	s0, s0, s15
 2471              	.LVL257:
 2472              		.loc 1 522 6 view .LVU672
 2473 0022 BCEEC00A 		vcvt.u32.f32	s0, s0
 2474 0026 10EE103A 		vmov	r3, s0	@ int
 2475              	.LVL258:
 2476              		.loc 1 522 6 view .LVU673
 2477 002a 9FB2     		uxth	r7, r3
 2478              	.LVL259:
 523:Drivers/LCD/Src/lcd.c **** 	for(t=0;t<len;t++)
 2479              		.loc 1 523 2 is_stmt 1 view .LVU674
 2480              		.loc 1 523 7 is_stmt 0 view .LVU675
 2481 002c 0025     		movs	r5, #0
 2482 002e 5B46     		mov	r3, fp
 2483 0030 BB46     		mov	fp, r7
 2484 0032 1F46     		mov	r7, r3
 2485              	.LVL260:
 2486              		.loc 1 523 2 view .LVU676
 2487 0034 10E0     		b	.L179
 2488              	.LVL261:
 2489              	.L180:
 524:Drivers/LCD/Src/lcd.c **** 	{
 525:Drivers/LCD/Src/lcd.c **** 		temp=(num1/mypow(10,len-t-1))%10;
 526:Drivers/LCD/Src/lcd.c **** 		if(t==(len-2))
 527:Drivers/LCD/Src/lcd.c **** 		{
 528:Drivers/LCD/Src/lcd.c **** 			LCD_ShowChar(x+(len-2)*sizex,y,'.',fc,bc,sizey,0);
 529:Drivers/LCD/Src/lcd.c **** 			t++;
 530:Drivers/LCD/Src/lcd.c **** 			len+=1;
 531:Drivers/LCD/Src/lcd.c **** 		}
 532:Drivers/LCD/Src/lcd.c **** 	 	LCD_ShowChar(x+t*sizex,y,temp+48,fc,bc,sizey,0);
 2490              		.loc 1 532 4 is_stmt 1 discriminator 2 view .LVU677
 2491 0036 04F13002 		add	r2, r4, #48
 2492 003a 05FB0A80 		mla	r0, r5, r10, r8
 2493 003e 0023     		movs	r3, #0
 2494 0040 0293     		str	r3, [sp, #8]
 2495 0042 CDF80490 		str	r9, [sp, #4]
 2496 0046 0097     		str	r7, [sp]
 2497 0048 059B     		ldr	r3, [sp, #20]
 2498 004a D2B2     		uxtb	r2, r2
 2499 004c 0499     		ldr	r1, [sp, #16]
 2500 004e 80B2     		uxth	r0, r0
 2501 0050 FFF7FEFF 		bl	LCD_ShowChar
 2502              	.LVL262:
 523:Drivers/LCD/Src/lcd.c **** 	for(t=0;t<len;t++)
 2503              		.loc 1 523 16 discriminator 2 view .LVU678
 523:Drivers/LCD/Src/lcd.c **** 	for(t=0;t<len;t++)
 2504              		.loc 1 523 17 is_stmt 0 discriminator 2 view .LVU679
 2505 0054 0135     		adds	r5, r5, #1
 2506              	.LVL263:
 523:Drivers/LCD/Src/lcd.c **** 	for(t=0;t<len;t++)
ARM GAS  C:\Users\17832\AppData\Local\Temp\cckefvo3.s 			page 59


 2507              		.loc 1 523 17 discriminator 2 view .LVU680
 2508 0056 EDB2     		uxtb	r5, r5
 2509              	.LVL264:
 2510              	.L179:
 523:Drivers/LCD/Src/lcd.c **** 	for(t=0;t<len;t++)
 2511              		.loc 1 523 10 is_stmt 1 discriminator 1 view .LVU681
 523:Drivers/LCD/Src/lcd.c **** 	for(t=0;t<len;t++)
 2512              		.loc 1 523 2 is_stmt 0 discriminator 1 view .LVU682
 2513 0058 AE42     		cmp	r6, r5
 2514 005a 26D9     		bls	.L183
 525:Drivers/LCD/Src/lcd.c **** 		if(t==(len-2))
 2515              		.loc 1 525 3 is_stmt 1 view .LVU683
 525:Drivers/LCD/Src/lcd.c **** 		if(t==(len-2))
 2516              		.loc 1 525 26 is_stmt 0 view .LVU684
 2517 005c 711B     		subs	r1, r6, r5
 2518 005e C9B2     		uxtb	r1, r1
 525:Drivers/LCD/Src/lcd.c **** 		if(t==(len-2))
 2519              		.loc 1 525 14 view .LVU685
 2520 0060 0139     		subs	r1, r1, #1
 2521 0062 C9B2     		uxtb	r1, r1
 2522 0064 0A20     		movs	r0, #10
 2523 0066 FFF7FEFF 		bl	mypow
 2524              	.LVL265:
 525:Drivers/LCD/Src/lcd.c **** 		if(t==(len-2))
 2525              		.loc 1 525 13 view .LVU686
 2526 006a BBFBF0F0 		udiv	r0, fp, r0
 525:Drivers/LCD/Src/lcd.c **** 		if(t==(len-2))
 2527              		.loc 1 525 32 view .LVU687
 2528 006e 114C     		ldr	r4, .L184+4
 2529 0070 A4FB0034 		umull	r3, r4, r4, r0
 2530 0074 E408     		lsrs	r4, r4, #3
 2531 0076 04EB8404 		add	r4, r4, r4, lsl #2
 2532 007a A0EB4404 		sub	r4, r0, r4, lsl #1
 525:Drivers/LCD/Src/lcd.c **** 		if(t==(len-2))
 2533              		.loc 1 525 7 view .LVU688
 2534 007e E4B2     		uxtb	r4, r4
 2535              	.LVL266:
 526:Drivers/LCD/Src/lcd.c **** 		{
 2536              		.loc 1 526 3 is_stmt 1 view .LVU689
 526:Drivers/LCD/Src/lcd.c **** 		{
 2537              		.loc 1 526 13 is_stmt 0 view .LVU690
 2538 0080 B01E     		subs	r0, r6, #2
 526:Drivers/LCD/Src/lcd.c **** 		{
 2539              		.loc 1 526 5 view .LVU691
 2540 0082 8542     		cmp	r5, r0
 2541 0084 D7D1     		bne	.L180
 528:Drivers/LCD/Src/lcd.c **** 			t++;
 2542              		.loc 1 528 4 is_stmt 1 view .LVU692
 2543 0086 00FB0A80 		mla	r0, r0, r10, r8
 2544 008a 0023     		movs	r3, #0
 2545 008c 0293     		str	r3, [sp, #8]
 2546 008e CDF80490 		str	r9, [sp, #4]
 2547 0092 0097     		str	r7, [sp]
 2548 0094 059B     		ldr	r3, [sp, #20]
 2549 0096 2E22     		movs	r2, #46
 2550 0098 0499     		ldr	r1, [sp, #16]
 2551 009a 80B2     		uxth	r0, r0
ARM GAS  C:\Users\17832\AppData\Local\Temp\cckefvo3.s 			page 60


 2552 009c FFF7FEFF 		bl	LCD_ShowChar
 2553              	.LVL267:
 529:Drivers/LCD/Src/lcd.c **** 			len+=1;
 2554              		.loc 1 529 4 view .LVU693
 529:Drivers/LCD/Src/lcd.c **** 			len+=1;
 2555              		.loc 1 529 5 is_stmt 0 view .LVU694
 2556 00a0 0135     		adds	r5, r5, #1
 2557              	.LVL268:
 529:Drivers/LCD/Src/lcd.c **** 			len+=1;
 2558              		.loc 1 529 5 view .LVU695
 2559 00a2 EDB2     		uxtb	r5, r5
 2560              	.LVL269:
 530:Drivers/LCD/Src/lcd.c **** 		}
 2561              		.loc 1 530 4 is_stmt 1 view .LVU696
 530:Drivers/LCD/Src/lcd.c **** 		}
 2562              		.loc 1 530 7 is_stmt 0 view .LVU697
 2563 00a4 0136     		adds	r6, r6, #1
 2564              	.LVL270:
 530:Drivers/LCD/Src/lcd.c **** 		}
 2565              		.loc 1 530 7 view .LVU698
 2566 00a6 F6B2     		uxtb	r6, r6
 2567              	.LVL271:
 530:Drivers/LCD/Src/lcd.c **** 		}
 2568              		.loc 1 530 7 view .LVU699
 2569 00a8 C5E7     		b	.L180
 2570              	.LVL272:
 2571              	.L183:
 533:Drivers/LCD/Src/lcd.c **** 	}
 534:Drivers/LCD/Src/lcd.c **** }
 2572              		.loc 1 534 1 view .LVU700
 2573 00aa 07B0     		add	sp, sp, #28
 2574              	.LCFI37:
 2575              		.cfi_def_cfa_offset 36
 2576              		@ sp needed
 2577 00ac BDE8F08F 		pop	{r4, r5, r6, r7, r8, r9, r10, fp, pc}
 2578              	.LVL273:
 2579              	.L185:
 2580              		.loc 1 534 1 view .LVU701
 2581              		.align	2
 2582              	.L184:
 2583 00b0 0000C842 		.word	1120403456
 2584 00b4 CDCCCCCC 		.word	-858993459
 2585              		.cfi_endproc
 2586              	.LFE144:
 2588              		.section	.text.LCD_ShowPicture,"ax",%progbits
 2589              		.align	1
 2590              		.global	LCD_ShowPicture
 2591              		.syntax unified
 2592              		.thumb
 2593              		.thumb_func
 2595              	LCD_ShowPicture:
 2596              	.LVL274:
 2597              	.LFB145:
 535:Drivers/LCD/Src/lcd.c **** 
 536:Drivers/LCD/Src/lcd.c **** 
 537:Drivers/LCD/Src/lcd.c **** /******************************************************************************
 538:Drivers/LCD/Src/lcd.c ****       函数说明：显示图片
ARM GAS  C:\Users\17832\AppData\Local\Temp\cckefvo3.s 			page 61


 539:Drivers/LCD/Src/lcd.c ****       入口数据：x,y起点坐标
 540:Drivers/LCD/Src/lcd.c ****                 length 图片长度
 541:Drivers/LCD/Src/lcd.c ****                 width  图片宽度
 542:Drivers/LCD/Src/lcd.c ****                 pic[]  图片数组    
 543:Drivers/LCD/Src/lcd.c ****       返回值：  无
 544:Drivers/LCD/Src/lcd.c **** ******************************************************************************/
 545:Drivers/LCD/Src/lcd.c **** void LCD_ShowPicture(uint16_t x,uint16_t y,uint16_t length,uint16_t width,const uint8_t pic[])
 546:Drivers/LCD/Src/lcd.c **** {
 2598              		.loc 1 546 1 is_stmt 1 view -0
 2599              		.cfi_startproc
 2600              		@ args = 4, pretend = 0, frame = 0
 2601              		@ frame_needed = 0, uses_anonymous_args = 0
 2602              		.loc 1 546 1 is_stmt 0 view .LVU703
 2603 0000 2DE9F047 		push	{r4, r5, r6, r7, r8, r9, r10, lr}
 2604              	.LCFI38:
 2605              		.cfi_def_cfa_offset 32
 2606              		.cfi_offset 4, -32
 2607              		.cfi_offset 5, -28
 2608              		.cfi_offset 6, -24
 2609              		.cfi_offset 7, -20
 2610              		.cfi_offset 8, -16
 2611              		.cfi_offset 9, -12
 2612              		.cfi_offset 10, -8
 2613              		.cfi_offset 14, -4
 2614 0004 9246     		mov	r10, r2
 2615 0006 9846     		mov	r8, r3
 2616 0008 089F     		ldr	r7, [sp, #32]
 547:Drivers/LCD/Src/lcd.c **** 	uint16_t i,j;
 2617              		.loc 1 547 2 is_stmt 1 view .LVU704
 548:Drivers/LCD/Src/lcd.c **** 	uint32_t k=0;
 2618              		.loc 1 548 2 view .LVU705
 2619              	.LVL275:
 549:Drivers/LCD/Src/lcd.c **** 	LCD_Address_Set(x,y,x+length-1,y+width-1);
 2620              		.loc 1 549 2 view .LVU706
 2621              		.loc 1 549 23 is_stmt 0 view .LVU707
 2622 000a 8218     		adds	r2, r0, r2
 2623              	.LVL276:
 2624              		.loc 1 549 23 view .LVU708
 2625 000c 92B2     		uxth	r2, r2
 2626              		.loc 1 549 34 view .LVU709
 2627 000e CB18     		adds	r3, r1, r3
 2628              	.LVL277:
 2629              		.loc 1 549 34 view .LVU710
 2630 0010 9BB2     		uxth	r3, r3
 2631              		.loc 1 549 2 view .LVU711
 2632 0012 013B     		subs	r3, r3, #1
 2633 0014 013A     		subs	r2, r2, #1
 2634 0016 9BB2     		uxth	r3, r3
 2635 0018 92B2     		uxth	r2, r2
 2636 001a FFF7FEFF 		bl	LCD_Address_Set
 2637              	.LVL278:
 550:Drivers/LCD/Src/lcd.c **** 	for(i=0;i<length;i++)
 2638              		.loc 1 550 2 is_stmt 1 view .LVU712
 548:Drivers/LCD/Src/lcd.c **** 	uint32_t k=0;
 2639              		.loc 1 548 11 is_stmt 0 view .LVU713
 2640 001e 0025     		movs	r5, #0
 2641              		.loc 1 550 7 view .LVU714
ARM GAS  C:\Users\17832\AppData\Local\Temp\cckefvo3.s 			page 62


 2642 0020 A946     		mov	r9, r5
 2643              		.loc 1 550 2 view .LVU715
 2644 0022 11E0     		b	.L187
 2645              	.LVL279:
 2646              	.L188:
 551:Drivers/LCD/Src/lcd.c **** 	{
 552:Drivers/LCD/Src/lcd.c **** 		for(j=0;j<width;j++)
 553:Drivers/LCD/Src/lcd.c **** 		{
 554:Drivers/LCD/Src/lcd.c **** 			LCD_WR_DATA8(pic[k*2]);
 2647              		.loc 1 554 4 is_stmt 1 discriminator 3 view .LVU716
 2648              		.loc 1 554 22 is_stmt 0 discriminator 3 view .LVU717
 2649 0024 6E00     		lsls	r6, r5, #1
 2650              		.loc 1 554 4 discriminator 3 view .LVU718
 2651 0026 17F81500 		ldrb	r0, [r7, r5, lsl #1]	@ zero_extendqisi2
 2652 002a FFF7FEFF 		bl	LCD_WR_DATA8
 2653              	.LVL280:
 555:Drivers/LCD/Src/lcd.c **** 			LCD_WR_DATA8(pic[k*2+1]);
 2654              		.loc 1 555 4 is_stmt 1 discriminator 3 view .LVU719
 2655              		.loc 1 555 20 is_stmt 0 discriminator 3 view .LVU720
 2656 002e 0136     		adds	r6, r6, #1
 2657              		.loc 1 555 4 discriminator 3 view .LVU721
 2658 0030 B85D     		ldrb	r0, [r7, r6]	@ zero_extendqisi2
 2659 0032 FFF7FEFF 		bl	LCD_WR_DATA8
 2660              	.LVL281:
 556:Drivers/LCD/Src/lcd.c **** 			k++;
 2661              		.loc 1 556 4 is_stmt 1 discriminator 3 view .LVU722
 2662              		.loc 1 556 5 is_stmt 0 discriminator 3 view .LVU723
 2663 0036 0135     		adds	r5, r5, #1
 2664              	.LVL282:
 552:Drivers/LCD/Src/lcd.c **** 		{
 2665              		.loc 1 552 19 is_stmt 1 discriminator 3 view .LVU724
 552:Drivers/LCD/Src/lcd.c **** 		{
 2666              		.loc 1 552 20 is_stmt 0 discriminator 3 view .LVU725
 2667 0038 0134     		adds	r4, r4, #1
 2668              	.LVL283:
 552:Drivers/LCD/Src/lcd.c **** 		{
 2669              		.loc 1 552 20 discriminator 3 view .LVU726
 2670 003a A4B2     		uxth	r4, r4
 2671              	.LVL284:
 2672              	.L189:
 552:Drivers/LCD/Src/lcd.c **** 		{
 2673              		.loc 1 552 11 is_stmt 1 discriminator 1 view .LVU727
 552:Drivers/LCD/Src/lcd.c **** 		{
 2674              		.loc 1 552 3 is_stmt 0 discriminator 1 view .LVU728
 2675 003c 4445     		cmp	r4, r8
 2676 003e F1D3     		bcc	.L188
 550:Drivers/LCD/Src/lcd.c **** 	{
 2677              		.loc 1 550 19 is_stmt 1 discriminator 2 view .LVU729
 550:Drivers/LCD/Src/lcd.c **** 	{
 2678              		.loc 1 550 20 is_stmt 0 discriminator 2 view .LVU730
 2679 0040 09F10109 		add	r9, r9, #1
 2680              	.LVL285:
 550:Drivers/LCD/Src/lcd.c **** 	{
 2681              		.loc 1 550 20 discriminator 2 view .LVU731
 2682 0044 1FFA89F9 		uxth	r9, r9
 2683              	.LVL286:
 2684              	.L187:
ARM GAS  C:\Users\17832\AppData\Local\Temp\cckefvo3.s 			page 63


 550:Drivers/LCD/Src/lcd.c **** 	{
 2685              		.loc 1 550 10 is_stmt 1 discriminator 1 view .LVU732
 550:Drivers/LCD/Src/lcd.c **** 	{
 2686              		.loc 1 550 2 is_stmt 0 discriminator 1 view .LVU733
 2687 0048 D145     		cmp	r9, r10
 2688 004a 01D2     		bcs	.L192
 552:Drivers/LCD/Src/lcd.c **** 		{
 2689              		.loc 1 552 8 view .LVU734
 2690 004c 0024     		movs	r4, #0
 2691 004e F5E7     		b	.L189
 2692              	.L192:
 557:Drivers/LCD/Src/lcd.c **** 		}
 558:Drivers/LCD/Src/lcd.c **** 	}			
 559:Drivers/LCD/Src/lcd.c **** }
 2693              		.loc 1 559 1 view .LVU735
 2694 0050 BDE8F087 		pop	{r4, r5, r6, r7, r8, r9, r10, pc}
 2695              		.loc 1 559 1 view .LVU736
 2696              		.cfi_endproc
 2697              	.LFE145:
 2699              		.global	tfont32
 2700              		.global	tfont24
 2701              		.global	tfont16
 2702              		.global	tfont12
 2703              		.global	ascii_3216
 2704              		.global	ascii_2412
 2705              		.global	ascii_1608
 2706              		.global	ascii_1206
 2707              		.section	.rodata.ascii_1206,"a"
 2708              		.align	2
 2709              		.set	.LANCHOR4,. + 0
 2712              	ascii_1206:
 2713 0000 00000000 		.ascii	"\000\000\000\000\000\000\000\000\000\000\000\000"
 2713      00000000 
 2713      00000000 
 2714 000c 00000404 		.ascii	"\000\000\004\004\004\004\004\000\000\004\000\000"
 2714      04040400 
 2714      00040000 
 2715 0018 14140A00 		.ascii	"\024\024\012\000\000\000\000\000\000\000\000\000"
 2715      00000000 
 2715      00000000 
 2716 0024 00000A0A 		.ascii	"\000\000\012\012\037\012\012\037\012\012\000\000"
 2716      1F0A0A1F 
 2716      0A0A0000 
 2717 0030 00040E15 		.ascii	"\000\004\016\025\005\006\014\024\025\016\004\000"
 2717      05060C14 
 2717      150E0400 
 2718 003c 00001215 		.ascii	"\000\000\022\025\015\025.,*\022\000\000"
 2718      0D152E2C 
 2718      2A120000 
 2719 0048 0000040A 		.ascii	"\000\000\004\012\0126\025\025)\026\000\000"
 2719      0A361515 
 2719      29160000 
 2720 0054 02020100 		.ascii	"\002\002\001\000\000\000\000\000\000\000\000\000"
 2720      00000000 
 2720      00000000 
 2721 0060 10080804 		.ascii	"\020\010\010\004\004\004\004\004\010\010\020\000"
 2721      04040404 
ARM GAS  C:\Users\17832\AppData\Local\Temp\cckefvo3.s 			page 64


 2721      08081000 
 2722 006c 02040408 		.ascii	"\002\004\004\010\010\010\010\010\004\004\002\000"
 2722      08080808 
 2722      04040200 
 2723 0078 00000004 		.ascii	"\000\000\000\004\025\016\016\025\004\000\000\000"
 2723      150E0E15 
 2723      04000000 
 2724 0084 00000008 		.ascii	"\000\000\000\010\010>\010\010\000\000\000\000"
 2724      083E0808 
 2724      00000000 
 2725 0090 00000000 		.ascii	"\000\000\000\000\000\000\000\000\002\002\001\000"
 2725      00000000 
 2725      02020100 
 2726 009c 00000000 		.ascii	"\000\000\000\000\000?\000\000\000\000\000\000"
 2726      003F0000 
 2726      00000000 
 2727 00a8 00000000 		.ascii	"\000\000\000\000\000\000\000\000\000\002\000\000"
 2727      00000000 
 2727      00020000 
 2728 00b4 00201010 		.ascii	"\000 \020\020\010\010\004\004\002\002\001\000"
 2728      08080404 
 2728      02020100 
 2729 00c0 00000E11 		.ascii	"\000\000\016\021\021\021\021\021\021\016\000\000"
 2729      11111111 
 2729      110E0000 
 2730 00cc 00000406 		.ascii	"\000\000\004\006\004\004\004\004\004\016\000\000"
 2730      04040404 
 2730      040E0000 
 2731 00d8 00000E11 		.ascii	"\000\000\016\021\021\010\004\002\001\037\000\000"
 2731      11080402 
 2731      011F0000 
 2732 00e4 00000E11 		.ascii	"\000\000\016\021\020\014\020\020\021\016\000\000"
 2732      100C1010 
 2732      110E0000 
 2733 00f0 0000080C 		.ascii	"\000\000\010\014\014\012\011\037\010\034\000\000"
 2733      0C0A091F 
 2733      081C0000 
 2734 00fc 00001F01 		.ascii	"\000\000\037\001\001\017\021\020\021\016\000\000"
 2734      010F1110 
 2734      110E0000 
 2735 0108 00000C12 		.ascii	"\000\000\014\022\001\015\023\021\021\016\000\000"
 2735      010D1311 
 2735      110E0000 
 2736 0114 00001E10 		.ascii	"\000\000\036\020\010\010\004\004\004\004\000\000"
 2736      08080404 
 2736      04040000 
 2737 0120 00000E11 		.ascii	"\000\000\016\021\021\016\021\021\021\016\000\000"
 2737      110E1111 
 2737      110E0000 
 2738 012c 00000E11 		.ascii	"\000\000\016\021\021\031\026\020\011\006\000\000"
 2738      11191610 
 2738      09060000 
 2739 0138 00000000 		.ascii	"\000\000\000\000\004\000\000\000\000\004\000\000"
 2739      04000000 
 2739      00040000 
 2740 0144 00000000 		.ascii	"\000\000\000\000\000\004\000\000\000\004\004\000"
 2740      00040000 
ARM GAS  C:\Users\17832\AppData\Local\Temp\cckefvo3.s 			page 65


 2740      00040400 
 2741 0150 00001008 		.ascii	"\000\000\020\010\004\002\002\004\010\020\000\000"
 2741      04020204 
 2741      08100000 
 2742 015c 00000000 		.ascii	"\000\000\000\000?\000?\000\000\000\000\000"
 2742      3F003F00 
 2742      00000000 
 2743 0168 00000204 		.ascii	"\000\000\002\004\010\020\020\010\004\002\000\000"
 2743      08101008 
 2743      04020000 
 2744 0174 00000E11 		.ascii	"\000\000\016\021\021\010\004\004\000\004\000\000"
 2744      11080404 
 2744      00040000 
 2745 0180 00001C22 		.ascii	"\000\000\034\")--\035\"\034\000\000"
 2745      292D2D1D 
 2745      221C0000 
 2746 018c 00000404 		.ascii	"\000\000\004\004\014\012\012\036\0223\000\000"
 2746      0C0A0A1E 
 2746      12330000 
 2747 0198 00000F12 		.ascii	"\000\000\017\022\022\016\022\022\022\017\000\000"
 2747      120E1212 
 2747      120F0000 
 2748 01a4 00001E11 		.ascii	"\000\000\036\021\001\001\001\001\021\016\000\000"
 2748      01010101 
 2748      110E0000 
 2749 01b0 00000F12 		.ascii	"\000\000\017\022\022\022\022\022\022\017\000\000"
 2749      12121212 
 2749      120F0000 
 2750 01bc 00001F12 		.ascii	"\000\000\037\022\012\016\012\002\022\037\000\000"
 2750      0A0E0A02 
 2750      121F0000 
 2751 01c8 00001F12 		.ascii	"\000\000\037\022\012\016\012\002\002\007\000\000"
 2751      0A0E0A02 
 2751      02070000 
 2752 01d4 00001C12 		.ascii	"\000\000\034\022\001\0019\021\022\014\000\000"
 2752      01013911 
 2752      120C0000 
 2753 01e0 00003312 		.ascii	"\000\0003\022\022\036\022\022\0223\000\000"
 2753      121E1212 
 2753      12330000 
 2754 01ec 00001F04 		.ascii	"\000\000\037\004\004\004\004\004\004\037\000\000"
 2754      04040404 
 2754      041F0000 
 2755 01f8 00003E08 		.ascii	"\000\000>\010\010\010\010\010\010\010\011\007"
 2755      08080808 
 2755      08080907 
 2756 0204 00003712 		.ascii	"\000\0007\022\012\006\012\022\0227\000\000"
 2756      0A060A12 
 2756      12370000 
 2757 0210 00000702 		.ascii	"\000\000\007\002\002\002\002\002\"?\000\000"
 2757      02020202 
 2757      223F0000 
 2758 021c 00003B1B 		.ascii	"\000\000;\033\033\033\025\025\0255\000\000"
 2758      1B1B1515 
 2758      15350000 
 2759 0228 00003B12 		.ascii	"\000\000;\022\026\026\032\032\022\027\000\000"
 2759      16161A1A 
ARM GAS  C:\Users\17832\AppData\Local\Temp\cckefvo3.s 			page 66


 2759      12170000 
 2760 0234 00000E11 		.ascii	"\000\000\016\021\021\021\021\021\021\016\000\000"
 2760      11111111 
 2760      110E0000 
 2761 0240 00000F12 		.ascii	"\000\000\017\022\022\016\002\002\002\007\000\000"
 2761      120E0202 
 2761      02070000 
 2762 024c 00000E11 		.ascii	"\000\000\016\021\021\021\021\027\031\016\030\000"
 2762      11111117 
 2762      190E1800 
 2763 0258 00000F12 		.ascii	"\000\000\017\022\022\016\012\022\0227\000\000"
 2763      120E0A12 
 2763      12370000 
 2764 0264 00001E11 		.ascii	"\000\000\036\021\001\006\010\020\021\017\000\000"
 2764      01060810 
 2764      110F0000 
 2765 0270 00001F15 		.ascii	"\000\000\037\025\004\004\004\004\004\016\000\000"
 2765      04040404 
 2765      040E0000 
 2766 027c 00003312 		.ascii	"\000\0003\022\022\022\022\022\022\014\000\000"
 2766      12121212 
 2766      120C0000 
 2767 0288 00003312 		.ascii	"\000\0003\022\022\012\012\014\004\004\000\000"
 2767      120A0A0C 
 2767      04040000 
 2768 0294 00001515 		.ascii	"\000\000\025\025\025\025\016\012\012\012\000\000"
 2768      15150E0A 
 2768      0A0A0000 
 2769 02a0 00001B0A 		.ascii	"\000\000\033\012\012\004\004\012\012\033\000\000"
 2769      0A04040A 
 2769      0A1B0000 
 2770 02ac 00001B0A 		.ascii	"\000\000\033\012\012\012\004\004\004\016\000\000"
 2770      0A0A0404 
 2770      040E0000 
 2771 02b8 00001F09 		.ascii	"\000\000\037\011\010\004\004\002\022\037\000\000"
 2771      08040402 
 2771      121F0000 
 2772 02c4 1C040404 		.ascii	"\034\004\004\004\004\004\004\004\004\004\034\000"
 2772      04040404 
 2772      04041C00 
 2773 02d0 00020204 		.ascii	"\000\002\002\004\004\004\010\010\010\020\020\000"
 2773      04040808 
 2773      08101000 
 2774 02dc 0E080808 		.ascii	"\016\010\010\010\010\010\010\010\010\010\016\000"
 2774      08080808 
 2774      08080E00 
 2775 02e8 040A0000 		.ascii	"\004\012\000\000\000\000\000\000\000\000\000\000"
 2775      00000000 
 2775      00000000 
 2776 02f4 00000000 		.ascii	"\000\000\000\000\000\000\000\000\000\000\000?"
 2776      00000000 
 2776      0000003F 
 2777 0300 02040000 		.ascii	"\002\004\000\000\000\000\000\000\000\000\000\000"
 2777      00000000 
 2777      00000000 
 2778 030c 00000000 		.ascii	"\000\000\000\000\000\014\022\034\022<\000\000"
 2778      000C121C 
ARM GAS  C:\Users\17832\AppData\Local\Temp\cckefvo3.s 			page 67


 2778      123C0000 
 2779 0318 00030202 		.ascii	"\000\003\002\002\002\016\022\022\022\016\000\000"
 2779      020E1212 
 2779      120E0000 
 2780 0324 00000000 		.ascii	"\000\000\000\000\000\034\022\002\022\014\000\000"
 2780      001C1202 
 2780      120C0000 
 2781 0330 00181010 		.ascii	"\000\030\020\020\020\034\022\022\022<\000\000"
 2781      101C1212 
 2781      123C0000 
 2782 033c 00000000 		.ascii	"\000\000\000\000\000\014\022\036\002\034\000\000"
 2782      000C121E 
 2782      021C0000 
 2783 0348 00182404 		.ascii	"\000\030$\004\004\036\004\004\004\036\000\000"
 2783      041E0404 
 2783      041E0000 
 2784 0354 00000000 		.ascii	"\000\000\000\000\000<\022\014\002\034\"\034"
 2784      003C120C 
 2784      021C221C 
 2785 0360 00030202 		.ascii	"\000\003\002\002\002\016\022\022\0227\000\000"
 2785      020E1212 
 2785      12370000 
 2786 036c 00040400 		.ascii	"\000\004\004\000\000\006\004\004\004\016\000\000"
 2786      00060404 
 2786      040E0000 
 2787 0378 00080800 		.ascii	"\000\010\010\000\000\014\010\010\010\010\010\007"
 2787      000C0808 
 2787      08080807 
 2788 0384 00030202 		.ascii	"\000\003\002\002\002\032\012\006\012\023\000\000"
 2788      021A0A06 
 2788      0A130000 
 2789 0390 00070404 		.ascii	"\000\007\004\004\004\004\004\004\004\037\000\000"
 2789      04040404 
 2789      041F0000 
 2790 039c 00000000 		.ascii	"\000\000\000\000\000\017\025\025\025\025\000\000"
 2790      000F1515 
 2790      15150000 
 2791 03a8 00000000 		.ascii	"\000\000\000\000\000\017\022\022\0227\000\000"
 2791      000F1212 
 2791      12370000 
 2792 03b4 00000000 		.ascii	"\000\000\000\000\000\014\022\022\022\014\000\000"
 2792      000C1212 
 2792      120C0000 
 2793 03c0 00000000 		.ascii	"\000\000\000\000\000\017\022\022\022\016\002\007"
 2793      000F1212 
 2793      120E0207 
 2794 03cc 00000000 		.ascii	"\000\000\000\000\000\034\022\022\022\034\0208"
 2794      001C1212 
 2794      121C1038 
 2795 03d8 00000000 		.ascii	"\000\000\000\000\000\033\006\002\002\007\000\000"
 2795      001B0602 
 2795      02070000 
 2796 03e4 00000000 		.ascii	"\000\000\000\000\000\036\002\014\020\036\000\000"
 2796      001E020C 
 2796      101E0000 
 2797 03f0 00000004 		.ascii	"\000\000\000\004\004\036\004\004\004\034\000\000"
 2797      041E0404 
ARM GAS  C:\Users\17832\AppData\Local\Temp\cckefvo3.s 			page 68


 2797      041C0000 
 2798 03fc 00000000 		.ascii	"\000\000\000\000\000\033\022\022\022<\000\000"
 2798      001B1212 
 2798      123C0000 
 2799 0408 00000000 		.ascii	"\000\000\000\000\000\033\012\012\004\004\000\000"
 2799      001B0A0A 
 2799      04040000 
 2800 0414 00000000 		.ascii	"\000\000\000\000\000\025\025\016\012\012\000\000"
 2800      0015150E 
 2800      0A0A0000 
 2801 0420 00000000 		.ascii	"\000\000\000\000\000\033\012\004\012\033\000\000"
 2801      001B0A04 
 2801      0A1B0000 
 2802 042c 00000000 		.ascii	"\000\000\000\000\0003\022\022\014\010\004\003"
 2802      00331212 
 2802      0C080403 
 2803 0438 00000000 		.ascii	"\000\000\000\000\000\036\010\004\004\036\000\000"
 2803      001E0804 
 2803      041E0000 
 2804 0444 18080808 		.ascii	"\030\010\010\010\010\014\010\010\010\010\030\000"
 2804      080C0808 
 2804      08081800 
 2805 0450 08080808 		.ascii	"\010\010\010\010\010\010\010\010\010\010\010\010"
 2805      08080808 
 2805      08080808 
 2806 045c 06040404 		.ascii	"\006\004\004\004\004\010\004\004\004\004\006\000"
 2806      04080404 
 2806      04040600 
 2807 0468 16090000 		.ascii	"\026\011\000\000\000\000\000\000\000\000\000\000"
 2807      00000000 
 2807      00000000 
 2808              		.section	.rodata.ascii_1608,"a"
 2809              		.align	2
 2810              		.set	.LANCHOR5,. + 0
 2813              	ascii_1608:
 2814 0000 00000000 		.ascii	"\000\000\000\000\000\000\000\000\000\000\000\000\000"
 2814      00000000 
 2814      00000000 
 2814      00
 2815 000d 000000   		.ascii	"\000\000\000"
 2816 0010 00000008 		.ascii	"\000\000\000\010\010\010\010\010\010\010\000\000\030"
 2816      08080808 
 2816      08080000 
 2816      18
 2817 001d 180000   		.ascii	"\030\000\000"
 2818 0020 00486C24 		.ascii	"\000Hl$\022\000\000\000\000\000\000\000\000\000\000"
 2818      12000000 
 2818      00000000 
 2818      000000
 2819 002f 00       		.ascii	"\000"
 2820 0030 00000024 		.ascii	"\000\000\000$$$\177\022\022\022\177\022\022\022\000"
 2820      24247F12 
 2820      12127F12 
 2820      121200
 2821 003f 00       		.ascii	"\000"
 2822 0040 0000081C 		.ascii	"\000\000\010\034**\012\014\030((**\034\010\010"
 2822      2A2A0A0C 
ARM GAS  C:\Users\17832\AppData\Local\Temp\cckefvo3.s 			page 69


 2822      1828282A 
 2822      2A1C0808 
 2823 0050 00000022 		.ascii	"\000\000\000\"%\025\025\025*XTTT\"\000\000"
 2823      25151515 
 2823      2A585454 
 2823      54220000 
 2824 0060 0000000C 		.ascii	"\000\000\000\014\022\022\022\012v%)\021\221n\000\000"
 2824      1212120A 
 2824      76252911 
 2824      916E0000 
 2825 0070 00060604 		.ascii	"\000\006\006\004\003\000\000\000\000\000\000\000\000"
 2825      03000000 
 2825      00000000 
 2825      00
 2826 007d 000000   		.ascii	"\000\000\000"
 2827 0080 00402010 		.ascii	"\000@ \020\020\010\010\010\010\010\010\020\020 @\000"
 2827      10080808 
 2827      08080810 
 2827      10204000 
 2828 0090 00020408 		.ascii	"\000\002\004\010\010\020\020\020\020\020\020\010\010"
 2828      08101010 
 2828      10101008 
 2828      08
 2829 009d 040200   		.ascii	"\004\002\000"
 2830 00a0 00000000 		.ascii	"\000\000\000\000\010\010k\034\034k\010\010\000\000\000"
 2830      08086B1C 
 2830      1C6B0808 
 2830      000000
 2831 00af 00       		.ascii	"\000"
 2832 00b0 00000000 		.ascii	"\000\000\000\000\010\010\010\010\177\010\010\010\010"
 2832      08080808 
 2832      7F080808 
 2832      08
 2833 00bd 000000   		.ascii	"\000\000\000"
 2834 00c0 00000000 		.ascii	"\000\000\000\000\000\000\000\000\000\000\000\000\006"
 2834      00000000 
 2834      00000000 
 2834      06
 2835 00cd 060403   		.ascii	"\006\004\003"
 2836 00d0 00000000 		.ascii	"\000\000\000\000\000\000\000\000\376\000\000\000\000"
 2836      00000000 
 2836      FE000000 
 2836      00
 2837 00dd 000000   		.ascii	"\000\000\000"
 2838 00e0 00000000 		.ascii	"\000\000\000\000\000\000\000\000\000\000\000\000\006"
 2838      00000000 
 2838      00000000 
 2838      06
 2839 00ed 060000   		.ascii	"\006\000\000"
 2840 00f0 00008040 		.ascii	"\000\000\200@@  \020\020\010\010\004\004\002\002\000"
 2840      40202010 
 2840      10080804 
 2840      04020200 
 2841 0100 00000018 		.ascii	"\000\000\000\030$BBBBBBB$\030\000\000"
 2841      24424242 
 2841      42424242 
 2841      24180000 
ARM GAS  C:\Users\17832\AppData\Local\Temp\cckefvo3.s 			page 70


 2842 0110 00000008 		.ascii	"\000\000\000\010\016\010\010\010\010\010\010\010\010"
 2842      0E080808 
 2842      08080808 
 2842      08
 2843 011d 3E0000   		.ascii	">\000\000"
 2844 0120 0000003C 		.ascii	"\000\000\000<BBB  \020\010\004B~\000\000"
 2844      42424220 
 2844      20100804 
 2844      427E0000 
 2845 0130 0000003C 		.ascii	"\000\000\000<BB \030 @@B\"\034\000\000"
 2845      42422018 
 2845      20404042 
 2845      221C0000 
 2846 0140 00000020 		.ascii	"\000\000\000 0($$\"\"~  x\000\000"
 2846      30282424 
 2846      22227E20 
 2846      20780000 
 2847 0150 0000007E 		.ascii	"\000\000\000~\002\002\002\032&@@B\"\034\000\000"
 2847      0202021A 
 2847      26404042 
 2847      221C0000 
 2848 0160 00000038 		.ascii	"\000\000\0008$\002\002\032&BBB$\030\000\000"
 2848      2402021A 
 2848      26424242 
 2848      24180000 
 2849 0170 0000007E 		.ascii	"\000\000\000~\"\"\020\020\010\010\010\010\010\010\000"
 2849      22221010 
 2849      08080808 
 2849      080800
 2850 017f 00       		.ascii	"\000"
 2851 0180 0000003C 		.ascii	"\000\000\000<BBB$\030$BBB<\000\000"
 2851      42424224 
 2851      18244242 
 2851      423C0000 
 2852 0190 00000018 		.ascii	"\000\000\000\030$BBBdX@@$\034\000\000"
 2852      24424242 
 2852      64584040 
 2852      241C0000 
 2853 01a0 00000000 		.ascii	"\000\000\000\000\000\000\030\030\000\000\000\000\030"
 2853      00001818 
 2853      00000000 
 2853      18
 2854 01ad 180000   		.ascii	"\030\000\000"
 2855 01b0 00000000 		.ascii	"\000\000\000\000\000\000\000\010\000\000\000\000\000"
 2855      00000008 
 2855      00000000 
 2855      00
 2856 01bd 080804   		.ascii	"\010\010\004"
 2857 01c0 00000040 		.ascii	"\000\000\000@ \020\010\004\002\004\010\020 @\000\000"
 2857      20100804 
 2857      02040810 
 2857      20400000 
 2858 01d0 00000000 		.ascii	"\000\000\000\000\000\000\177\000\000\000\177\000\000"
 2858      00007F00 
 2858      00007F00 
 2858      00
 2859 01dd 000000   		.ascii	"\000\000\000"
ARM GAS  C:\Users\17832\AppData\Local\Temp\cckefvo3.s 			page 71


 2860 01e0 00000002 		.ascii	"\000\000\000\002\004\010\020 @ \020\010\004\002\000"
 2860      04081020 
 2860      40201008 
 2860      040200
 2861 01ef 00       		.ascii	"\000"
 2862 01f0 0000003C 		.ascii	"\000\000\000<BBF@ \020\020\000\030\030\000\000"
 2862      42424640 
 2862      20101000 
 2862      18180000 
 2863 0200 0000001C 		.ascii	"\000\000\000\034\"ZUUUU-B\"\034\000\000"
 2863      225A5555 
 2863      55552D42 
 2863      221C0000 
 2864 0210 00000008 		.ascii	"\000\000\000\010\010\030\024\024$<\"BB\347\000\000"
 2864      08181414 
 2864      243C2242 
 2864      42E70000 
 2865 0220 0000001F 		.ascii	"\000\000\000\037\"\"\"\036\"BBB\"\037\000\000"
 2865      2222221E 
 2865      22424242 
 2865      221F0000 
 2866 0230 0000007C 		.ascii	"\000\000\000|BB\001\001\001\001\001B\"\034\000\000"
 2866      42420101 
 2866      01010142 
 2866      221C0000 
 2867 0240 0000001F 		.ascii	"\000\000\000\037\"BBBBBBB\"\037\000\000"
 2867      22424242 
 2867      42424242 
 2867      221F0000 
 2868 0250 0000003F 		.ascii	"\000\000\000?B\022\022\036\022\022\002BB?\000\000"
 2868      4212121E 
 2868      12120242 
 2868      423F0000 
 2869 0260 0000003F 		.ascii	"\000\000\000?B\022\022\036\022\022\002\002\002\007\000"
 2869      4212121E 
 2869      12120202 
 2869      020700
 2870 026f 00       		.ascii	"\000"
 2871 0270 0000003C 		.ascii	"\000\000\000<\"\"\001\001\001q!\"\"\034\000\000"
 2871      22220101 
 2871      01712122 
 2871      221C0000 
 2872 0280 000000E7 		.ascii	"\000\000\000\347BBBB~BBBB\347\000\000"
 2872      42424242 
 2872      7E424242 
 2872      42E70000 
 2873 0290 0000003E 		.ascii	"\000\000\000>\010\010\010\010\010\010\010\010\010>\000"
 2873      08080808 
 2873      08080808 
 2873      083E00
 2874 029f 00       		.ascii	"\000"
 2875 02a0 0000007C 		.ascii	"\000\000\000|\020\020\020\020\020\020\020\020\020\020"
 2875      10101010 
 2875      10101010 
 2875      1010
 2876 02ae 110F     		.ascii	"\021\017"
 2877 02b0 00000077 		.ascii	"\000\000\000w\"\022\012\016\012\022\022\"\"w\000\000"
ARM GAS  C:\Users\17832\AppData\Local\Temp\cckefvo3.s 			page 72


 2877      22120A0E 
 2877      0A121222 
 2877      22770000 
 2878 02c0 00000007 		.ascii	"\000\000\000\007\002\002\002\002\002\002\002\002B\177"
 2878      02020202 
 2878      02020202 
 2878      427F
 2879 02ce 0000     		.ascii	"\000\000"
 2880 02d0 00000077 		.ascii	"\000\000\000w6666*****k\000\000"
 2880      36363636 
 2880      2A2A2A2A 
 2880      2A6B0000 
 2881 02e0 000000E3 		.ascii	"\000\000\000\343FFJJRRRbbG\000\000"
 2881      46464A4A 
 2881      52525262 
 2881      62470000 
 2882 02f0 0000001C 		.ascii	"\000\000\000\034\"AAAAAAA\"\034\000\000"
 2882      22414141 
 2882      41414141 
 2882      221C0000 
 2883 0300 0000003F 		.ascii	"\000\000\000?BBBB>\002\002\002\002\007\000\000"
 2883      42424242 
 2883      3E020202 
 2883      02070000 
 2884 0310 0000001C 		.ascii	"\000\000\000\034\"AAAAAMS2\034`\000"
 2884      22414141 
 2884      41414D53 
 2884      321C6000 
 2885 0320 0000003F 		.ascii	"\000\000\000?BBB>\022\022\"\"B\307\000\000"
 2885      4242423E 
 2885      12122222 
 2885      42C70000 
 2886 0330 0000007C 		.ascii	"\000\000\000|BB\002\004\030 @BB>\000\000"
 2886      42420204 
 2886      18204042 
 2886      423E0000 
 2887 0340 0000007F 		.ascii	"\000\000\000\177I\010\010\010\010\010\010\010\010\034"
 2887      49080808 
 2887      08080808 
 2887      081C
 2888 034e 0000     		.ascii	"\000\000"
 2889 0350 000000E7 		.ascii	"\000\000\000\347BBBBBBBBB<\000\000"
 2889      42424242 
 2889      42424242 
 2889      423C0000 
 2890 0360 000000E7 		.ascii	"\000\000\000\347BB\"$$\024\024\030\010\010\000\000"
 2890      42422224 
 2890      24141418 
 2890      08080000 
 2891 0370 0000006B 		.ascii	"\000\000\000kIIIIUU6\"\"\"\000\000"
 2891      49494949 
 2891      55553622 
 2891      22220000 
 2892 0380 000000E7 		.ascii	"\000\000\000\347B$$\030\030\030$$B\347\000\000"
 2892      42242418 
 2892      18182424 
 2892      42E70000 
ARM GAS  C:\Users\17832\AppData\Local\Temp\cckefvo3.s 			page 73


 2893 0390 00000077 		.ascii	"\000\000\000w\"\"\024\024\010\010\010\010\010\034\000"
 2893      22221414 
 2893      08080808 
 2893      081C00
 2894 039f 00       		.ascii	"\000"
 2895 03a0 0000007E 		.ascii	"\000\000\000~! \020\020\010\004\004BB?\000\000"
 2895      21201010 
 2895      08040442 
 2895      423F0000 
 2896 03b0 00780808 		.ascii	"\000x\010\010\010\010\010\010\010\010\010\010\010\010"
 2896      08080808 
 2896      08080808 
 2896      0808
 2897 03be 7800     		.ascii	"x\000"
 2898 03c0 00000202 		.ascii	"\000\000\002\002\004\004\010\010\010\020\020   @@"
 2898      04040808 
 2898      08101020 
 2898      20204040 
 2899 03d0 001E1010 		.ascii	"\000\036\020\020\020\020\020\020\020\020\020\020\020"
 2899      10101010 
 2899      10101010 
 2899      10
 2900 03dd 101E00   		.ascii	"\020\036\000"
 2901 03e0 00384400 		.ascii	"\0008D\000\000\000\000\000\000\000\000\000\000\000\000"
 2901      00000000 
 2901      00000000 
 2901      000000
 2902 03ef 00       		.ascii	"\000"
 2903 03f0 00000000 		.ascii	"\000\000\000\000\000\000\000\000\000\000\000\000\000"
 2903      00000000 
 2903      00000000 
 2903      00
 2904 03fd 0000FF   		.ascii	"\000\000\377"
 2905 0400 00060800 		.ascii	"\000\006\010\000\000\000\000\000\000\000\000\000\000"
 2905      00000000 
 2905      00000000 
 2905      00
 2906 040d 000000   		.ascii	"\000\000\000"
 2907 0410 00000000 		.ascii	"\000\000\000\000\000\000\000<BxDBB\374\000\000"
 2907      0000003C 
 2907      42784442 
 2907      42FC0000 
 2908 0420 00000003 		.ascii	"\000\000\000\003\002\002\002\032&BBB&\032\000\000"
 2908      0202021A 
 2908      26424242 
 2908      261A0000 
 2909 0430 00000000 		.ascii	"\000\000\000\000\000\000\0008D\002\002\002D8\000\000"
 2909      00000038 
 2909      44020202 
 2909      44380000 
 2910 0440 00000060 		.ascii	"\000\000\000`@@@xDBBBd\330\000\000"
 2910      40404078 
 2910      44424242 
 2910      64D80000 
 2911 0450 00000000 		.ascii	"\000\000\000\000\000\000\000<B~\002\002B<\000\000"
 2911      0000003C 
 2911      427E0202 
ARM GAS  C:\Users\17832\AppData\Local\Temp\cckefvo3.s 			page 74


 2911      423C0000 
 2912 0460 000000F0 		.ascii	"\000\000\000\360\210\010\010~\010\010\010\010\010>\000"
 2912      8808087E 
 2912      08080808 
 2912      083E00
 2913 046f 00       		.ascii	"\000"
 2914 0470 00000000 		.ascii	"\000\000\000\000\000\000\000|\"\"\034\002<BB<"
 2914      0000007C 
 2914      22221C02 
 2914      3C42423C 
 2915 0480 00000003 		.ascii	"\000\000\000\003\002\002\002:FBBBB\347\000\000"
 2915      0202023A 
 2915      46424242 
 2915      42E70000 
 2916 0490 0000000C 		.ascii	"\000\000\000\014\014\000\000\016\010\010\010\010\010"
 2916      0C00000E 
 2916      08080808 
 2916      08
 2917 049d 3E0000   		.ascii	">\000\000"
 2918 04a0 00000030 		.ascii	"\000\000\00000\000\0008      \"\036"
 2918      30000038 
 2918      20202020 
 2918      2020221E 
 2919 04b0 00000003 		.ascii	"\000\000\000\003\002\002\002r\022\012\026\022\"w\000"
 2919      02020272 
 2919      120A1612 
 2919      227700
 2920 04bf 00       		.ascii	"\000"
 2921 04c0 0000000E 		.ascii	"\000\000\000\016\010\010\010\010\010\010\010\010\010"
 2921      08080808 
 2921      08080808 
 2921      08
 2922 04cd 3E0000   		.ascii	">\000\000"
 2923 04d0 00000000 		.ascii	"\000\000\000\000\000\000\000\177\222\222\222\222\222"
 2923      0000007F 
 2923      92929292 
 2923      92
 2924 04dd B70000   		.ascii	"\267\000\000"
 2925 04e0 00000000 		.ascii	"\000\000\000\000\000\000\000;FBBBB\347\000\000"
 2925      0000003B 
 2925      46424242 
 2925      42E70000 
 2926 04f0 00000000 		.ascii	"\000\000\000\000\000\000\000<BBBBB<\000\000"
 2926      0000003C 
 2926      42424242 
 2926      423C0000 
 2927 0500 00000000 		.ascii	"\000\000\000\000\000\000\000\033&BBB\"\036\002\007"
 2927      0000001B 
 2927      26424242 
 2927      221E0207 
 2928 0510 00000000 		.ascii	"\000\000\000\000\000\000\000xDBBBDx@\340"
 2928      00000078 
 2928      44424242 
 2928      447840E0 
 2929 0520 00000000 		.ascii	"\000\000\000\000\000\000\000wL\004\004\004\004\037\000"
 2929      00000077 
 2929      4C040404 
ARM GAS  C:\Users\17832\AppData\Local\Temp\cckefvo3.s 			page 75


 2929      041F00
 2930 052f 00       		.ascii	"\000"
 2931 0530 00000000 		.ascii	"\000\000\000\000\000\000\000|B\002<@B>\000\000"
 2931      0000007C 
 2931      42023C40 
 2931      423E0000 
 2932 0540 00000000 		.ascii	"\000\000\000\000\000\010\010>\010\010\010\010\0100\000"
 2932      0008083E 
 2932      08080808 
 2932      083000
 2933 054f 00       		.ascii	"\000"
 2934 0550 00000000 		.ascii	"\000\000\000\000\000\000\000cBBBBb\334\000\000"
 2934      00000063 
 2934      42424242 
 2934      62DC0000 
 2935 0560 00000000 		.ascii	"\000\000\000\000\000\000\000\347B$$\024\010\010\000"
 2935      000000E7 
 2935      42242414 
 2935      080800
 2936 056f 00       		.ascii	"\000"
 2937 0570 00000000 		.ascii	"\000\000\000\000\000\000\000\353IIUU\"\"\000\000"
 2937      000000EB 
 2937      49495555 
 2937      22220000 
 2938 0580 00000000 		.ascii	"\000\000\000\000\000\000\000v$\030\030\030$n\000\000"
 2938      00000076 
 2938      24181818 
 2938      246E0000 
 2939 0590 00000000 		.ascii	"\000\000\000\000\000\000\000\347B$$\024\030\010\010"
 2939      000000E7 
 2939      42242414 
 2939      180808
 2940 059f 07       		.ascii	"\007"
 2941 05a0 00000000 		.ascii	"\000\000\000\000\000\000\000~\"\020\010\010D~\000\000"
 2941      0000007E 
 2941      22100808 
 2941      447E0000 
 2942 05b0 00C02020 		.ascii	"\000\300     \020      \300\000"
 2942      20202010 
 2942      20202020 
 2942      2020C000 
 2943 05c0 10101010 		.ascii	"\020\020\020\020\020\020\020\020\020\020\020\020\020"
 2943      10101010 
 2943      10101010 
 2943      10
 2944 05cd 101010   		.ascii	"\020\020\020"
 2945 05d0 00060808 		.ascii	"\000\006\010\010\010\010\010\020\010\010\010\010\010"
 2945      08080810 
 2945      08080808 
 2945      08
 2946 05dd 080600   		.ascii	"\010\006\000"
 2947 05e0 0C32C200 		.ascii	"\0142\302\000\000\000\000\000\000\000\000\000\000\000"
 2947      00000000 
 2947      00000000 
 2947      0000
 2948 05ee 0000     		.ascii	"\000\000"
 2949              		.section	.rodata.ascii_2412,"a"
ARM GAS  C:\Users\17832\AppData\Local\Temp\cckefvo3.s 			page 76


 2950              		.align	2
 2953              	ascii_2412:
 2954 0000 00000000 		.ascii	"\000\000\000\000\000\000\000\000\000\000\000\000\000"
 2954      00000000 
 2954      00000000 
 2954      00
 2955 000d 00000000 		.ascii	"\000\000\000\000\000\000\000\000\000\000\000\000\000"
 2955      00000000 
 2955      00000000 
 2955      00
 2956 001a 00000000 		.ascii	"\000\000\000\000\000\000\000\000\000\000\000\000\000"
 2956      00000000 
 2956      00000000 
 2956      00
 2957 0027 00000000 		.ascii	"\000\000\000\000\000\000\000\000\000"
 2957      00000000 
 2957      00
 2958 0030 00000000 		.ascii	"\000\000\000\000\000\000\000\000`\000`\000`\000`\000"
 2958      00000000 
 2958      60006000 
 2958      60006000 
 2959 0040 60006000 		.ascii	"`\000`\000`\000@\000 \000 \000 \000\000\000\000\000"
 2959      60004000 
 2959      20002000 
 2959      20000000 
 2959      0000
 2960 0052 00006000 		.ascii	"\000\000`\000`\000`\000\000\000\000\000\000\000"
 2960      60006000 
 2960      00000000 
 2960      0000
 2961 0060 00000000 		.ascii	"\000\000\000\000`\006`\0060\003\230\001\210\000D\000"
 2961      60066006 
 2961      30039801 
 2961      88004400 
 2962 0070 00000000 		.ascii	"\000\000\000\000\000\000\000\000\000\000\000\000\000"
 2962      00000000 
 2962      00000000 
 2962      00
 2963 007d 00000000 		.ascii	"\000\000\000\000\000\000\000\000\000\000\000\000\000"
 2963      00000000 
 2963      00000000 
 2963      00
 2964 008a 00000000 		.ascii	"\000\000\000\000\000\000"
 2964      0000
 2965 0090 00000000 		.ascii	"\000\000\000\000\000\000\000\000\020\002\020\002\020"
 2965      00000000 
 2965      10021002 
 2965      10
 2966 009d 021002FE 		.ascii	"\002\020\002\376\007\376\007\010\002\010\001\010\001"
 2966      07FE0708 
 2966      02080108 
 2966      01
 2967 00aa 08010801 		.ascii	"\010\001\010\001\376\007\376\007\004\001\004\001\004"
 2967      FE07FE07 
 2967      04010401 
 2967      04
 2968 00b7 01040100 		.ascii	"\001\004\001\000\000\000\000\000\000"
ARM GAS  C:\Users\17832\AppData\Local\Temp\cckefvo3.s 			page 77


 2968      00000000 
 2968      00
 2969 00c0 00000000 		.ascii	"\000\000\000\000\000\000@\000@\000\360\001X\003L\003"
 2969      00004000 
 2969      4000F001 
 2969      58034C03 
 2970 00d0 CC034C00 		.ascii	"\314\003L\000X\000p\000\340\000\300\001\300\001@\003"
 2970      58007000 
 2970      E000C001 
 2970      C0014003 
 2971 00e0 4C035C03 		.ascii	"L\003\\\003L\003H\001\360\000@\000@\000\000\000"
 2971      4C034801 
 2971      F0004000 
 2971      40000000 
 2972 00f0 00000000 		.ascii	"\000\000\000\000\000\000\000\000\016\001\012\001\221"
 2972      00000000 
 2972      0E010A01 
 2972      91
 2973 00fd 00910091 		.ascii	"\000\221\000\221\000Q\000Q\000:\000\256\003\240\002"
 2973      00510051 
 2973      003A00AE 
 2973      03A002
 2974 010c 50045004 		.ascii	"P\004P\004H\004H\004H\004\204\002\204\003\000\000\000"
 2974      48044804 
 2974      48048402 
 2974      84030000 
 2974      00
 2975 011d 000000   		.ascii	"\000\000\000"
 2976 0120 00000000 		.ascii	"\000\000\000\000\000\000\000\0008\000l\000l\000l\000"
 2976      00000000 
 2976      38006C00 
 2976      6C006C00 
 2977 0130 6C006C00 		.ascii	"l\000l\000,\000\230\007\034\001\032\0013\0013\001c\001"
 2977      2C009807 
 2977      1C011A01 
 2977      33013301 
 2977      6301
 2978 0142 E300C308 		.ascii	"\343\000\303\010\306\011<\007\000\000\000\000\000\000"
 2978      C6093C07 
 2978      00000000 
 2978      0000
 2979 0150 00000000 		.ascii	"\000\000\000\000\014\000\034\000\020\000\020\000\010"
 2979      0C001C00 
 2979      10001000 
 2979      08
 2980 015d 00040000 		.ascii	"\000\004\000\000\000\000\000\000\000\000\000\000\000"
 2980      00000000 
 2980      00000000 
 2980      00
 2981 016a 00000000 		.ascii	"\000\000\000\000\000\000\000\000\000\000\000\000\000"
 2981      00000000 
 2981      00000000 
 2981      00
 2982 0177 00000000 		.ascii	"\000\000\000\000\000\000\000\000\000"
 2982      00000000 
 2982      00
 2983 0180 00000000 		.ascii	"\000\000\000\000\000\004\000\002\000\001\200\000\200"
ARM GAS  C:\Users\17832\AppData\Local\Temp\cckefvo3.s 			page 78


 2983      00040002 
 2983      00018000 
 2983      80
 2984 018d 00400040 		.ascii	"\000@\000@\000 \000 \000 \000 \000 \000 \000 \000@\000"
 2984      00200020 
 2984      00200020 
 2984      00200020 
 2984      00200040 
 2985 01a2 40008000 		.ascii	"@\000\200\000\200\000\000\001\000\002\000\004\000\000"
 2985      80000001 
 2985      00020004 
 2985      0000
 2986 01b0 00000000 		.ascii	"\000\000\000\000\002\000\004\000\010\000\020\000\020"
 2986      02000400 
 2986      08001000 
 2986      10
 2987 01bd 00200020 		.ascii	"\000 \000 \000@\000@\000@\000@\000@\000@\000@\000 \000"
 2987      00400040 
 2987      00400040 
 2987      00400040 
 2987      00400020 
 2988 01d2 20001000 		.ascii	" \000\020\000\020\000\010\000\004\000\002\000\000\000"
 2988      10000800 
 2988      04000200 
 2988      0000
 2989 01e0 00000000 		.ascii	"\000\000\000\000\000\000\000\000\000\000\000\000@\000"
 2989      00000000 
 2989      00000000 
 2989      4000
 2990 01ee C0004000 		.ascii	"\300\000@\000F\014N\017\320\001\360\001^\017F\014@\000"
 2990      460C4E0F 
 2990      D001F001 
 2990      5E0F460C 
 2990      4000
 2991 0200 40004000 		.ascii	"@\000@\000\000\000\000\000\000\000\000\000\000\000\000"
 2991      00000000 
 2991      00000000 
 2991      000000
 2992 020f 00       		.ascii	"\000"
 2993 0210 00000000 		.ascii	"\000\000\000\000\000\000\000\000\000\000\000\000\000"
 2993      00000000 
 2993      00000000 
 2993      00
 2994 021d 00400040 		.ascii	"\000@\000@\000@\000@\000@\000\376\017@\000@\000@\000"
 2994      00400040 
 2994      004000FE 
 2994      0F400040 
 2994      004000
 2995 0230 40004000 		.ascii	"@\000@\000\000\000\000\000\000\000\000\000\000\000\000"
 2995      00000000 
 2995      00000000 
 2995      000000
 2996 023f 00       		.ascii	"\000"
 2997 0240 00000000 		.ascii	"\000\000\000\000\000\000\000\000\000\000\000\000\000"
 2997      00000000 
 2997      00000000 
 2997      00
ARM GAS  C:\Users\17832\AppData\Local\Temp\cckefvo3.s 			page 79


 2998 024d 00000000 		.ascii	"\000\000\000\000\000\000\000\000\000\000\000\000\000"
 2998      00000000 
 2998      00000000 
 2998      00
 2999 025a 00000000 		.ascii	"\000\000\000\000\000\000\000\000\000\000\014\000\034"
 2999      00000000 
 2999      00000C00 
 2999      1C
 3000 0267 00100010 		.ascii	"\000\020\000\020\000\010\000\004\000"
 3000      00080004 
 3000      00
 3001 0270 00000000 		.ascii	"\000\000\000\000\000\000\000\000\000\000\000\000\000"
 3001      00000000 
 3001      00000000 
 3001      00
 3002 027d 00000000 		.ascii	"\000\000\000\000\000\000\000\000\000\000\000\376\007"
 3002      00000000 
 3002      000000FE 
 3002      07
 3003 028a 00000000 		.ascii	"\000\000\000\000\000\000\000\000\000\000\000\000\000"
 3003      00000000 
 3003      00000000 
 3003      00
 3004 0297 00000000 		.ascii	"\000\000\000\000\000\000\000\000\000"
 3004      00000000 
 3004      00
 3005 02a0 00000000 		.ascii	"\000\000\000\000\000\000\000\000\000\000\000\000\000"
 3005      00000000 
 3005      00000000 
 3005      00
 3006 02ad 00000000 		.ascii	"\000\000\000\000\000\000\000\000\000\000\000\000\000"
 3006      00000000 
 3006      00000000 
 3006      00
 3007 02ba 00000000 		.ascii	"\000\000\000\000\000\000\000\000\000\000\034\000\034"
 3007      00000000 
 3007      00001C00 
 3007      1C
 3008 02c7 001C0000 		.ascii	"\000\034\000\000\000\000\000\000\000"
 3008      00000000 
 3008      00
 3009 02d0 00000000 		.ascii	"\000\000\000\000\000\004\000\006\000\002\000\003\000"
 3009      00040006 
 3009      00020003 
 3009      00
 3010 02dd 01000180 		.ascii	"\001\000\001\200\000\200\000@\000@\000`\000 \000 \000"
 3010      00800040 
 3010      00400060 
 3010      00200020 
 3010      00
 3011 02ee 10001000 		.ascii	"\020\000\020\000\010\000\010\000\014\000\004\000\006"
 3011      08000800 
 3011      0C000400 
 3011      06
 3012 02fb 00020000 		.ascii	"\000\002\000\000\000"
 3012      00
 3013 0300 00000000 		.ascii	"\000\000\000\000\000\000\000\000\000\000\360\000\230"
ARM GAS  C:\Users\17832\AppData\Local\Temp\cckefvo3.s 			page 80


 3013      00000000 
 3013      0000F000 
 3013      98
 3014 030d 010C030C 		.ascii	"\001\014\003\014\003\006\006\006\006\006\006\006\006"
 3014      03060606 
 3014      06060606 
 3014      06
 3015 031a 06060606 		.ascii	"\006\006\006\006\006\006\006\006\014\003\014\003\230"
 3015      06060606 
 3015      0C030C03 
 3015      98
 3016 0327 01F00000 		.ascii	"\001\360\000\000\000\000\000\000\000"
 3016      00000000 
 3016      00
 3017 0330 00000000 		.ascii	"\000\000\000\000\000\000\000\000\000\000@\000|\000`"
 3017      00000000 
 3017      00004000 
 3017      7C0060
 3018 033f 00600060 		.ascii	"\000`\000`\000`\000`\000`\000`\000`\000`\000`\000`\000"
 3018      00600060 
 3018      00600060 
 3018      00600060 
 3018      00600060 
 3019 0354 60006000 		.ascii	"`\000`\000\374\003\000\000\000\000\000\000"
 3019      FC030000 
 3019      00000000 
 3020 0360 00000000 		.ascii	"\000\000\000\000\000\000\000\000\000\000\370\000\204"
 3020      00000000 
 3020      0000F800 
 3020      84
 3021 036d 01020306 		.ascii	"\001\002\003\006\003\006\003\000\003\000\001\200\001"
 3021      03060300 
 3021      03000180 
 3021      01
 3022 037a C0006000 		.ascii	"\300\000`\000 \000\020\000\010\002\004\002\006\002\376"
 3022      20001000 
 3022      08020402 
 3022      0602FE
 3023 0389 03000000 		.ascii	"\003\000\000\000\000\000\000"
 3023      000000
 3024 0390 00000000 		.ascii	"\000\000\000\000\000\000\000\000\000\000x\000\306\000"
 3024      00000000 
 3024      00007800 
 3024      C600
 3025 039e 86018601 		.ascii	"\206\001\206\001\200\001\200\001\300\000p\000\200\001"
 3025      80018001 
 3025      C0007000 
 3025      8001
 3026 03ac 00010003 		.ascii	"\000\001\000\003\000\003\006\003\006\003\206\001\370"
 3026      00030603 
 3026      06038601 
 3026      F8
 3027 03b9 00000000 		.ascii	"\000\000\000\000\000\000\000"
 3027      000000
 3028 03c0 00000000 		.ascii	"\000\000\000\000\000\000\000\000\000\000\200\001\200"
 3028      00000000 
 3028      00008001 
ARM GAS  C:\Users\17832\AppData\Local\Temp\cckefvo3.s 			page 81


 3028      80
 3029 03cd 01C001A0 		.ascii	"\001\300\001\240\001\240\001\220\001\210\001\210\001"
 3029      01A00190 
 3029      01880188 
 3029      01
 3030 03da 84018201 		.ascii	"\204\001\202\001\376\017\200\001\200\001\200\001\200"
 3030      FE0F8001 
 3030      80018001 
 3030      80
 3031 03e7 01E00700 		.ascii	"\001\340\007\000\000\000\000\000\000"
 3031      00000000 
 3031      00
 3032 03f0 00000000 		.ascii	"\000\000\000\000\000\000\000\000\000\000\374\003\004"
 3032      00000000 
 3032      0000FC03 
 3032      04
 3033 03fd 00040004 		.ascii	"\000\004\000\004\000\004\000\004\000\364\000\214\001"
 3033      00040004 
 3033      00F4008C 
 3033      01
 3034 040a 04030003 		.ascii	"\004\003\000\003\000\003\006\003\006\003\202\001\204"
 3034      00030603 
 3034      06038201 
 3034      84
 3035 0417 01F80000 		.ascii	"\001\370\000\000\000\000\000\000\000"
 3035      00000000 
 3035      00
 3036 0420 00000000 		.ascii	"\000\000\000\000\000\000\000\000\000\000\340\001\030"
 3036      00000000 
 3036      0000E001 
 3036      18
 3037 042d 030C030C 		.ascii	"\003\014\003\014\000\004\000\006\000\346\001\026\003"
 3037      00040006 
 3037      00E60116 
 3037      03
 3038 043a 0E060606 		.ascii	"\016\006\006\006\006\006\006\006\004\006\014\002\030"
 3038      06060606 
 3038      04060C02 
 3038      18
 3039 0447 03F00000 		.ascii	"\003\360\000\000\000\000\000\000\000"
 3039      00000000 
 3039      00
 3040 0450 00000000 		.ascii	"\000\000\000\000\000\000\000\000\000\000\370\007\014"
 3040      00000000 
 3040      0000F807 
 3040      0C
 3041 045d 06040204 		.ascii	"\006\004\002\004\001\000\001\000\001\200\000\200\000"
 3041      01000100 
 3041      01800080 
 3041      00
 3042 046a 40004000 		.ascii	"@\000@\000@\000`\000`\000`\000`\000`\000\000\000\000"
 3042      40006000 
 3042      60006000 
 3042      60006000 
 3042      000000
 3043 047d 000000   		.ascii	"\000\000\000"
 3044 0480 00000000 		.ascii	"\000\000\000\000\000\000\000\000\000\000\370\001\014"
ARM GAS  C:\Users\17832\AppData\Local\Temp\cckefvo3.s 			page 82


 3044      00000000 
 3044      0000F801 
 3044      0C
 3045 048d 03060606 		.ascii	"\003\006\006\006\006\006\006\014\002\034\003\360\000"
 3045      0606060C 
 3045      021C03F0 
 3045      00
 3046 049a C8010C03 		.ascii	"\310\001\014\003\006\006\006\006\006\006\006\006\014"
 3046      06060606 
 3046      06060606 
 3046      0C
 3047 04a7 03F00100 		.ascii	"\003\360\001\000\000\000\000\000\000"
 3047      00000000 
 3047      00
 3048 04b0 00000000 		.ascii	"\000\000\000\000\000\000\000\000\000\000\360\000\014"
 3048      00000000 
 3048      0000F000 
 3048      0C
 3049 04bd 010C0306 		.ascii	"\001\014\003\006\002\006\006\006\006\006\006\006\007"
 3049      02060606 
 3049      06060606 
 3049      07
 3050 04ca 8C067806 		.ascii	"\214\006x\006\000\006\000\003\000\003\014\001\214\001"
 3050      00060003 
 3050      00030C01 
 3050      8C01
 3051 04d8 78000000 		.ascii	"x\000\000\000\000\000\000\000"
 3051      00000000 
 3052 04e0 00000000 		.ascii	"\000\000\000\000\000\000\000\000\000\000\000\000\000"
 3052      00000000 
 3052      00000000 
 3052      00
 3053 04ed 00000000 		.ascii	"\000\000\000\000\000\000\000\340\000\340\000\340\000"
 3053      000000E0 
 3053      00E000E0 
 3053      00
 3054 04fa 00000000 		.ascii	"\000\000\000\000\000\000\000\000\000\000\340\000\340"
 3054      00000000 
 3054      0000E000 
 3054      E0
 3055 0507 00E00000 		.ascii	"\000\340\000\000\000\000\000\000\000"
 3055      00000000 
 3055      00
 3056 0510 00000000 		.ascii	"\000\000\000\000\000\000\000\000\000\000\000\000\000"
 3056      00000000 
 3056      00000000 
 3056      00
 3057 051d 00000000 		.ascii	"\000\000\000\000\000\000\000`\000`\000\000\000\000\000"
 3057      00000060 
 3057      00600000 
 3057      000000
 3058 052c 00000000 		.ascii	"\000\000\000\000\000\000\000\000\000\000`\000`\000@"
 3058      00000000 
 3058      00006000 
 3058      600040
 3059 053b 00200020 		.ascii	"\000 \000 \000"
 3059      00
ARM GAS  C:\Users\17832\AppData\Local\Temp\cckefvo3.s 			page 83


 3060 0540 00000000 		.ascii	"\000\000\000\000\000\000\000\000\000\004\000\002\000"
 3060      00000000 
 3060      00040002 
 3060      00
 3061 054d 01800040 		.ascii	"\001\200\000@\000 \000\020\000\010\000\004\000\010\000"
 3061      00200010 
 3061      00080004 
 3061      000800
 3062 055c 10002000 		.ascii	"\020\000 \000@\000\200\000\000\001\000\002\000\004\000"
 3062      40008000 
 3062      00010002 
 3062      000400
 3063 056b 00000000 		.ascii	"\000\000\000\000\000"
 3063      00
 3064 0570 00000000 		.ascii	"\000\000\000\000\000\000\000\000\000\000\000\000\000"
 3064      00000000 
 3064      00000000 
 3064      00
 3065 057d 00000000 		.ascii	"\000\000\000\000\000\000\000\376\007\000\000\000\000"
 3065      000000FE 
 3065      07000000 
 3065      00
 3066 058a 0000FE07 		.ascii	"\000\000\376\007\000\000\000\000\000\000\000\000\000"
 3066      00000000 
 3066      00000000 
 3066      00
 3067 0597 00000000 		.ascii	"\000\000\000\000\000\000\000\000\000"
 3067      00000000 
 3067      00
 3068 05a0 00000000 		.ascii	"\000\000\000\000\000\000\000\000\004\000\010\000\020"
 3068      00000000 
 3068      04000800 
 3068      10
 3069 05ad 00200040 		.ascii	"\000 \000@\000\200\000\000\001\000\002\000\004\000\002"
 3069      00800000 
 3069      01000200 
 3069      040002
 3070 05bc 00018000 		.ascii	"\000\001\200\000@\000 \000\020\000\010\000\004\000\000"
 3070      40002000 
 3070      10000800 
 3070      040000
 3071 05cb 00000000 		.ascii	"\000\000\000\000\000"
 3071      00
 3072 05d0 00000000 		.ascii	"\000\000\000\000\000\000\000\000\000\000\340\003\030"
 3072      00000000 
 3072      0000E003 
 3072      18
 3073 05dd 06040C04 		.ascii	"\006\004\014\004\014\014\014\014\014\000\007\200\001"
 3073      0C0C0C0C 
 3073      0C000780 
 3073      01
 3074 05ea 40004000 		.ascii	"@\000@\000@\000\000\000\000\000\340\000\340\000\340"
 3074      40000000 
 3074      0000E000 
 3074      E000E0
 3075 05f9 00000000 		.ascii	"\000\000\000\000\000\000\000"
 3075      000000
ARM GAS  C:\Users\17832\AppData\Local\Temp\cckefvo3.s 			page 84


 3076 0600 00000000 		.ascii	"\000\000\000\000\000\000\000\000\340\000\030\003\014"
 3076      00000000 
 3076      E0001803 
 3076      0C
 3077 060d 02CC0564 		.ascii	"\002\314\005d\005f\005\246\005\266\004\266\004\266\004"
 3077      056605A6 
 3077      05B604B6 
 3077      04B604
 3078 061c B604B602 		.ascii	"\266\004\266\002\344\001\014\004\014\002\030\003\360"
 3078      E4010C04 
 3078      0C021803 
 3078      F0
 3079 0629 00000000 		.ascii	"\000\000\000\000\000\000\000"
 3079      000000
 3080 0630 00000000 		.ascii	"\000\000\000\000\000\000\000\000\000\000`\000`\000P"
 3080      00000000 
 3080      00006000 
 3080      600050
 3081 063f 00D00090 		.ascii	"\000\320\000\220\000\220\000\210\000\210\001\010\001"
 3081      00900088 
 3081      00880108 
 3081      01
 3082 064c F8010403 		.ascii	"\370\001\004\003\004\003\004\002\002\002\002\006\017"
 3082      04030402 
 3082      02020206 
 3082      0F
 3083 0659 0F000000 		.ascii	"\017\000\000\000\000\000\000"
 3083      000000
 3084 0660 00000000 		.ascii	"\000\000\000\000\000\000\000\000\000\000\376\000\214"
 3084      00000000 
 3084      0000FE00 
 3084      8C
 3085 066d 030C030C 		.ascii	"\003\014\003\014\003\014\003\014\003\214\001\374\000"
 3085      030C030C 
 3085      038C01FC 
 3085      00
 3086 067a 0C030C02 		.ascii	"\014\003\014\002\014\006\014\006\014\006\014\006\014"
 3086      0C060C06 
 3086      0C060C06 
 3086      0C
 3087 0687 03FE0100 		.ascii	"\003\376\001\000\000\000\000\000\000"
 3087      00000000 
 3087      00
 3088 0690 00000000 		.ascii	"\000\000\000\000\000\000\000\000\000\000\340\003\030"
 3088      00000000 
 3088      0000E003 
 3088      18
 3089 069d 030C060C 		.ascii	"\003\014\006\014\004\004\004\006\000\006\000\006\000"
 3089      04040406 
 3089      00060006 
 3089      00
 3090 06aa 06000600 		.ascii	"\006\000\006\000\006\000\006\004\014\004\014\002\030"
 3090      06000604 
 3090      0C040C02 
 3090      18
 3091 06b7 03F00000 		.ascii	"\003\360\000\000\000\000\000\000\000"
 3091      00000000 
ARM GAS  C:\Users\17832\AppData\Local\Temp\cckefvo3.s 			page 85


 3091      00
 3092 06c0 00000000 		.ascii	"\000\000\000\000\000\000\000\000\000\000\177\000\214"
 3092      00000000 
 3092      00007F00 
 3092      8C
 3093 06cd 010C030C 		.ascii	"\001\014\003\014\003\014\006\014\006\014\006\014\006"
 3093      030C060C 
 3093      060C060C 
 3093      06
 3094 06da 0C060C06 		.ascii	"\014\006\014\006\014\006\014\006\014\003\014\003\214"
 3094      0C060C06 
 3094      0C030C03 
 3094      8C
 3095 06e7 017F0000 		.ascii	"\001\177\000\000\000\000\000\000\000"
 3095      00000000 
 3095      00
 3096 06f0 00000000 		.ascii	"\000\000\000\000\000\000\000\000\000\000\377\003\006"
 3096      00000000 
 3096      0000FF03 
 3096      06
 3097 06fd 03060406 		.ascii	"\003\006\004\006\004\006\000\206\000\206\000\376\000"
 3097      04060086 
 3097      008600FE 
 3097      00
 3098 070a 86008600 		.ascii	"\206\000\206\000\206\000\006\000\006\004\006\004\006"
 3098      86000600 
 3098      06040604 
 3098      06
 3099 0717 02FF0300 		.ascii	"\002\377\003\000\000\000\000\000\000"
 3099      00000000 
 3099      00
 3100 0720 00000000 		.ascii	"\000\000\000\000\000\000\000\000\000\000\377\003\006"
 3100      00000000 
 3100      0000FF03 
 3100      06
 3101 072d 03060406 		.ascii	"\003\006\004\006\004\006\000\206\000\206\000\376\000"
 3101      04060086 
 3101      008600FE 
 3101      00
 3102 073a 86008600 		.ascii	"\206\000\206\000\206\000\006\000\006\000\006\000\006"
 3102      86000600 
 3102      06000600 
 3102      06
 3103 0747 001F0000 		.ascii	"\000\037\000\000\000\000\000\000\000"
 3103      00000000 
 3103      00
 3104 0750 00000000 		.ascii	"\000\000\000\000\000\000\000\000\000\000\360\000\030"
 3104      00000000 
 3104      0000F000 
 3104      18
 3105 075d 010C020C 		.ascii	"\001\014\002\014\002\004\002\006\000\006\000\006\000"
 3105      02040206 
 3105      00060006 
 3105      00
 3106 076a 0600C60F 		.ascii	"\006\000\306\017\006\003\006\003\014\003\014\003\030"
 3106      06030603 
 3106      0C030C03 
ARM GAS  C:\Users\17832\AppData\Local\Temp\cckefvo3.s 			page 86


 3106      18
 3107 0777 03F00000 		.ascii	"\003\360\000\000\000\000\000\000\000"
 3107      00000000 
 3107      00
 3108 0780 00000000 		.ascii	"\000\000\000\000\000\000\000\000\000\000\017\017\006"
 3108      00000000 
 3108      00000F0F 
 3108      06
 3109 078d 06060606 		.ascii	"\006\006\006\006\006\006\006\006\006\006\006\376\007"
 3109      06060606 
 3109      060606FE 
 3109      07
 3110 079a 06060606 		.ascii	"\006\006\006\006\006\006\006\006\006\006\006\006\006"
 3110      06060606 
 3110      06060606 
 3110      06
 3111 07a7 060F0F00 		.ascii	"\006\017\017\000\000\000\000\000\000"
 3111      00000000 
 3111      00
 3112 07b0 00000000 		.ascii	"\000\000\000\000\000\000\000\000\000\000\374\003`\000"
 3112      00000000 
 3112      0000FC03 
 3112      6000
 3113 07be 60006000 		.ascii	"`\000`\000`\000`\000`\000`\000`\000`\000`\000`\000`"
 3113      60006000 
 3113      60006000 
 3113      60006000 
 3113      60006000 
 3114 07d3 00600060 		.ascii	"\000`\000`\000\374\003\000\000\000\000\000\000"
 3114      00FC0300 
 3114      00000000 
 3114      00
 3115 07e0 00000000 		.ascii	"\000\000\000\000\000\000\000\000\000\000\370\007\300"
 3115      00000000 
 3115      0000F807 
 3115      C0
 3116 07ed 00C000C0 		.ascii	"\000\300\000\300\000\300\000\300\000\300\000\300\000"
 3116      00C000C0 
 3116      00C000C0 
 3116      00
 3117 07fa C000C000 		.ascii	"\300\000\300\000\300\000\300\000\300\000\300\000\300"
 3117      C000C000 
 3117      C000C000 
 3117      C0
 3118 0807 00C000C6 		.ascii	"\000\300\000\306\000f\000<\000"
 3118      0066003C 
 3118      00
 3119 0810 00000000 		.ascii	"\000\000\000\000\000\000\000\000\000\000\317\003\206"
 3119      00000000 
 3119      0000CF03 
 3119      86
 3120 081d 01C60046 		.ascii	"\001\306\000F\000&\000\026\0006\000.\000n\000F\000\306"
 3120      00260016 
 3120      0036002E 
 3120      006E0046 
 3120      00C6
 3121 082f 00860086 		.ascii	"\000\206\000\206\001\006\001\006\003\217\007\000\000"
ARM GAS  C:\Users\17832\AppData\Local\Temp\cckefvo3.s 			page 87


 3121      01060106 
 3121      038F0700 
 3121      00
 3122 083c 00000000 		.ascii	"\000\000\000\000"
 3123 0840 00000000 		.ascii	"\000\000\000\000\000\000\000\000\000\000\037\000\006"
 3123      00000000 
 3123      00001F00 
 3123      06
 3124 084d 00060006 		.ascii	"\000\006\000\006\000\006\000\006\000\006\000\006\000"
 3124      00060006 
 3124      00060006 
 3124      00
 3125 085a 06000600 		.ascii	"\006\000\006\000\006\000\006\000\006\004\006\004\006"
 3125      06000600 
 3125      06040604 
 3125      06
 3126 0867 02FF0300 		.ascii	"\002\377\003\000\000\000\000\000\000"
 3126      00000000 
 3126      00
 3127 0870 00000000 		.ascii	"\000\000\000\000\000\000\000\000\000\000\007\007\206"
 3127      00000000 
 3127      00000707 
 3127      86
 3128 087d 0386038E 		.ascii	"\003\206\003\216\003\216\003N\003N\003J\003Z\003Z\003"
 3128      038E034E 
 3128      034E034A 
 3128      035A035A 
 3128      03
 3129 088e 3A033203 		.ascii	":\0032\0032\0032\003\022\003\207\007\000\000\000\000"
 3129      32033203 
 3129      12038707 
 3129      00000000 
 3130 089e 0000     		.ascii	"\000\000"
 3131 08a0 00000000 		.ascii	"\000\000\000\000\000\000\000\000\000\000\216\017\014"
 3131      00000000 
 3131      00008E0F 
 3131      0C
 3132 08ad 021C021C 		.ascii	"\002\034\002\034\0024\0024\002d\002d\002D\002\304\002"
 3132      02340234 
 3132      02640264 
 3132      024402C4 
 3132      02
 3133 08be 84028403 		.ascii	"\204\002\204\003\204\003\004\003\004\003\037\002\000"
 3133      84030403 
 3133      04031F02 
 3133      00
 3134 08cb 00000000 		.ascii	"\000\000\000\000\000"
 3134      00
 3135 08d0 00000000 		.ascii	"\000\000\000\000\000\000\000\000\000\000\360\000\230"
 3135      00000000 
 3135      0000F000 
 3135      98
 3136 08dd 010C030C 		.ascii	"\001\014\003\014\002\006\006\006\006\006\006\006\006"
 3136      02060606 
 3136      06060606 
 3136      06
 3137 08ea 06060606 		.ascii	"\006\006\006\006\006\006\006\006\014\002\014\003\230"
ARM GAS  C:\Users\17832\AppData\Local\Temp\cckefvo3.s 			page 88


 3137      06060606 
 3137      0C020C03 
 3137      98
 3138 08f7 01F00000 		.ascii	"\001\360\000\000\000\000\000\000\000"
 3138      00000000 
 3138      00
 3139 0900 00000000 		.ascii	"\000\000\000\000\000\000\000\000\000\000\377\000\006"
 3139      00000000 
 3139      0000FF00 
 3139      06
 3140 090d 03060606 		.ascii	"\003\006\006\006\006\006\006\006\006\006\006\206\003"
 3140      06060606 
 3140      06060686 
 3140      03
 3141 091a FE000600 		.ascii	"\376\000\006\000\006\000\006\000\006\000\006\000\006"
 3141      06000600 
 3141      06000600 
 3141      06
 3142 0927 001F0000 		.ascii	"\000\037\000\000\000\000\000\000\000"
 3142      00000000 
 3142      00
 3143 0930 00000000 		.ascii	"\000\000\000\000\000\000\000\000\000\000\360\000\230"
 3143      00000000 
 3143      0000F000 
 3143      98
 3144 093d 010C030C 		.ascii	"\001\014\003\014\002\006\006\006\006\006\006\006\006"
 3144      02060606 
 3144      06060606 
 3144      06
 3145 094a 06060606 		.ascii	"\006\006\006\006\006\006v\006L\002\314\003\230\001\360"
 3145      06067606 
 3145      4C02CC03 
 3145      9801F0
 3146 0959 00800700 		.ascii	"\000\200\007\000\003\000\000"
 3146      030000
 3147 0960 00000000 		.ascii	"\000\000\000\000\000\000\000\000\000\000\377\001\006"
 3147      00000000 
 3147      0000FF01 
 3147      06
 3148 096d 03060606 		.ascii	"\003\006\006\006\006\006\006\006\006\006\003\376\000"
 3148      06060606 
 3148      060603FE 
 3148      00
 3149 097a 4600C600 		.ascii	"F\000\306\000\206\000\206\001\006\003\006\003\006\006"
 3149      86008601 
 3149      06030603 
 3149      0606
 3150 0988 0F0E0000 		.ascii	"\017\016\000\000\000\000\000\000"
 3150      00000000 
 3151 0990 00000000 		.ascii	"\000\000\000\000\000\000\000\000\000\000\370\002\014"
 3151      00000000 
 3151      0000F802 
 3151      0C
 3152 099d 03060206 		.ascii	"\003\006\002\006\002\006\000\016\000<\000\370\000\340"
 3152      0206000E 
 3152      003C00F8 
 3152      00E0
ARM GAS  C:\Users\17832\AppData\Local\Temp\cckefvo3.s 			page 89


 3153 09ab 03800300 		.ascii	"\003\200\003\000\007\002\006\002\006\006\006\014\003"
 3153      07020602 
 3153      0606060C 
 3153      03
 3154 09b8 F0010000 		.ascii	"\360\001\000\000\000\000\000\000"
 3154      00000000 
 3155 09c0 00000000 		.ascii	"\000\000\000\000\000\000\000\000\000\000\376\007b\004"
 3155      00000000 
 3155      0000FE07 
 3155      6204
 3156 09ce 61086108 		.ascii	"a\010a\010`\000`\000`\000`\000`\000`\000`\000`\000`"
 3156      60006000 
 3156      60006000 
 3156      60006000 
 3156      60006000 
 3157 09e3 00600060 		.ascii	"\000`\000`\000\370\001\000\000\000\000\000\000"
 3157      00F80100 
 3157      00000000 
 3157      00
 3158 09f0 00000000 		.ascii	"\000\000\000\000\000\000\000\000\000\000\036\007\014"
 3158      00000000 
 3158      00001E07 
 3158      0C
 3159 09fd 020C020C 		.ascii	"\002\014\002\014\002\014\002\014\002\014\002\014\002"
 3159      020C020C 
 3159      020C020C 
 3159      02
 3160 0a0a 0C020C02 		.ascii	"\014\002\014\002\014\002\014\002\014\002\014\002\030"
 3160      0C020C02 
 3160      0C020C02 
 3160      18
 3161 0a17 01F00000 		.ascii	"\001\360\000\000\000\000\000\000\000"
 3161      00000000 
 3161      00
 3162 0a20 00000000 		.ascii	"\000\000\000\000\000\000\000\000\000\000\017\007\006"
 3162      00000000 
 3162      00000F07 
 3162      06
 3163 0a2d 02040104 		.ascii	"\002\004\001\004\001\014\001\014\001\210\000\210\000"
 3163      010C010C 
 3163      01880088 
 3163      00
 3164 0a3a 98009800 		.ascii	"\230\000\230\000P\000P\000p\0000\000 \000 \000\000\000"
 3164      50005000 
 3164      70003000 
 3164      20002000 
 3164      0000
 3165 0a4c 00000000 		.ascii	"\000\000\000\000"
 3166 0a50 00000000 		.ascii	"\000\000\000\000\000\000\000\000\000\000\367\016b\004"
 3166      00000000 
 3166      0000F70E 
 3166      6204
 3167 0a5e 42044604 		.ascii	"B\004F\004F\004d\002d\002\344\002\344\002\234\002\234"
 3167      46046402 
 3167      6402E402 
 3167      E4029C02 
 3167      9C
ARM GAS  C:\Users\17832\AppData\Local\Temp\cckefvo3.s 			page 90


 3168 0a6f 01980198 		.ascii	"\001\230\001\230\001\210\001\210\000\210\000\000\000"
 3168      01880188 
 3168      00880000 
 3168      00
 3169 0a7c 00000000 		.ascii	"\000\000\000\000"
 3170 0a80 00000000 		.ascii	"\000\000\000\000\000\000\000\000\000\000\236\007\014"
 3170      00000000 
 3170      00009E07 
 3170      0C
 3171 0a8d 01080118 		.ascii	"\001\010\001\030\001\220\000\260\000`\000 \000`\000"
 3171      019000B0 
 3171      00600020 
 3171      006000
 3172 0a9c 6000D000 		.ascii	"`\000\320\000\220\000\210\001\010\001\004\003\216\007"
 3172      90008801 
 3172      08010403 
 3172      8E07
 3173 0aaa 00000000 		.ascii	"\000\000\000\000\000\000"
 3173      0000
 3174 0ab0 00000000 		.ascii	"\000\000\000\000\000\000\000\000\000\000\017\017\006"
 3174      00000000 
 3174      00000F0F 
 3174      06
 3175 0abd 0404020C 		.ascii	"\004\004\002\014\002\010\001\030\001\270\000\260\000"
 3175      02080118 
 3175      01B800B0 
 3175      00
 3176 0aca 70006000 		.ascii	"p\000`\000`\000`\000`\000`\000`\000\370\001\000\000"
 3176      60006000 
 3176      60006000 
 3176      6000F801 
 3176      0000
 3177 0adc 00000000 		.ascii	"\000\000\000\000"
 3178 0ae0 00000000 		.ascii	"\000\000\000\000\000\000\000\000\000\000\374\007\014"
 3178      00000000 
 3178      0000FC07 
 3178      0C
 3179 0aed 02060302 		.ascii	"\002\006\003\002\001\200\001\200\000@\000@\000 \000"
 3179      01800180 
 3179      00400040 
 3179      002000
 3180 0afc 20001000 		.ascii	" \000\020\000\030\000\010\004\014\004\004\002\376\003"
 3180      18000804 
 3180      0C040402 
 3180      FE03
 3181 0b0a 00000000 		.ascii	"\000\000\000\000\000\000"
 3181      0000
 3182 0b10 00000000 		.ascii	"\000\000\000\000\340\003 \000 \000 \000 \000 \000 \000"
 3182      E0032000 
 3182      20002000 
 3182      20002000 
 3182      2000
 3183 0b22 20002000 		.ascii	" \000 \000 \000 \000 \000 \000 \000 \000 \000 \000 "
 3183      20002000 
 3183      20002000 
 3183      20002000 
 3183      20002000 
ARM GAS  C:\Users\17832\AppData\Local\Temp\cckefvo3.s 			page 91


 3184 0b37 00200020 		.ascii	"\000 \000 \000\340\003\000\000"
 3184      00E00300 
 3184      00
 3185 0b40 00000000 		.ascii	"\000\000\000\000\000\000\000\000\004\000\004\000\010"
 3185      00000000 
 3185      04000400 
 3185      08
 3186 0b4d 00080010 		.ascii	"\000\010\000\020\000\020\000\020\000 \000 \000@\000"
 3186      00100010 
 3186      00200020 
 3186      004000
 3187 0b5c 4000C000 		.ascii	"@\000\300\000\200\000\200\000\000\001\000\001\000\002"
 3187      80008000 
 3187      00010001 
 3187      0002
 3188 0b6a 00020002 		.ascii	"\000\002\000\002\000\004"
 3188      0004
 3189 0b70 00000000 		.ascii	"\000\000\000\000|\000@\000@\000@\000@\000@\000@\000"
 3189      7C004000 
 3189      40004000 
 3189      40004000 
 3189      4000
 3190 0b82 40004000 		.ascii	"@\000@\000@\000@\000@\000@\000@\000@\000@\000@\000@"
 3190      40004000 
 3190      40004000 
 3190      40004000 
 3190      40004000 
 3191 0b97 00400040 		.ascii	"\000@\000@\000|\000\000\000"
 3191      007C0000 
 3191      00
 3192 0ba0 00006000 		.ascii	"\000\000`\000\220\000\010\001\000\000\000\000\000\000"
 3192      90000801 
 3192      00000000 
 3192      0000
 3193 0bae 00000000 		.ascii	"\000\000\000\000\000\000\000\000\000\000\000\000\000"
 3193      00000000 
 3193      00000000 
 3193      00
 3194 0bbb 00000000 		.ascii	"\000\000\000\000\000\000\000\000\000\000\000\000\000"
 3194      00000000 
 3194      00000000 
 3194      00
 3195 0bc8 00000000 		.ascii	"\000\000\000\000\000\000\000\000"
 3195      00000000 
 3196 0bd0 00000000 		.ascii	"\000\000\000\000\000\000\000\000\000\000\000\000\000"
 3196      00000000 
 3196      00000000 
 3196      00
 3197 0bdd 00000000 		.ascii	"\000\000\000\000\000\000\000\000\000\000\000\000\000"
 3197      00000000 
 3197      00000000 
 3197      00
 3198 0bea 00000000 		.ascii	"\000\000\000\000\000\000\000\000\000\000\000\000\000"
 3198      00000000 
 3198      00000000 
 3198      00
 3199 0bf7 00000000 		.ascii	"\000\000\000\000\000\000\000\377\017"
ARM GAS  C:\Users\17832\AppData\Local\Temp\cckefvo3.s 			page 92


 3199      000000FF 
 3199      0F
 3200 0c00 00000000 		.ascii	"\000\000\000\000\030\000`\000\000\000\000\000\000\000"
 3200      18006000 
 3200      00000000 
 3200      0000
 3201 0c0e 00000000 		.ascii	"\000\000\000\000\000\000\000\000\000\000\000\000\000"
 3201      00000000 
 3201      00000000 
 3201      00
 3202 0c1b 00000000 		.ascii	"\000\000\000\000\000\000\000\000\000\000\000\000\000"
 3202      00000000 
 3202      00000000 
 3202      00
 3203 0c28 00000000 		.ascii	"\000\000\000\000\000\000\000\000"
 3203      00000000 
 3204 0c30 00000000 		.ascii	"\000\000\000\000\000\000\000\000\000\000\000\000\000"
 3204      00000000 
 3204      00000000 
 3204      00
 3205 0c3d 00000000 		.ascii	"\000\000\000\000\000\000\000\360\001\014\003\014\003"
 3205      000000F0 
 3205      010C030C 
 3205      03
 3206 0c4a 0003E003 		.ascii	"\000\003\340\003\034\003\016\003\006\003\006\003\216"
 3206      1C030E03 
 3206      06030603 
 3206      8E
 3207 0c57 0B7C0E00 		.ascii	"\013|\016\000\000\000\000\000\000"
 3207      00000000 
 3207      00
 3208 0c60 00000000 		.ascii	"\000\000\000\000\000\000\000\000\010\000\016\000\014"
 3208      00000000 
 3208      08000E00 
 3208      0C
 3209 0c6d 000C000C 		.ascii	"\000\014\000\014\000\014\000\314\001<\003\034\006\014"
 3209      000C00CC 
 3209      013C031C 
 3209      060C
 3210 0c7b 060C060C 		.ascii	"\006\014\006\014\006\014\006\014\006\014\002\034\003"
 3210      060C060C 
 3210      060C021C 
 3210      03
 3211 0c88 E4010000 		.ascii	"\344\001\000\000\000\000\000\000"
 3211      00000000 
 3212 0c90 00000000 		.ascii	"\000\000\000\000\000\000\000\000\000\000\000\000\000"
 3212      00000000 
 3212      00000000 
 3212      00
 3213 0c9d 00000000 		.ascii	"\000\000\000\000\000\000\000\360\000\214\001\214\001"
 3213      000000F0 
 3213      008C018C 
 3213      01
 3214 0caa 86010600 		.ascii	"\206\001\006\000\006\000\006\000\006\002\014\002\014"
 3214      06000600 
 3214      06020C02 
 3214      0C
ARM GAS  C:\Users\17832\AppData\Local\Temp\cckefvo3.s 			page 93


 3215 0cb7 01F00000 		.ascii	"\001\360\000\000\000\000\000\000\000"
 3215      00000000 
 3215      00
 3216 0cc0 00000000 		.ascii	"\000\000\000\000\000\000\000\000\000\002\300\003\000"
 3216      00000000 
 3216      0002C003 
 3216      00
 3217 0ccd 03000300 		.ascii	"\003\000\003\000\003\000\003x\003\214\003\014\003\006"
 3217      03000378 
 3217      038C030C 
 3217      0306
 3218 0cdb 03060306 		.ascii	"\003\006\003\006\003\006\003\006\003\004\003\214\007"
 3218      03060306 
 3218      0304038C 
 3218      07
 3219 0ce8 78010000 		.ascii	"x\001\000\000\000\000\000\000"
 3219      00000000 
 3220 0cf0 00000000 		.ascii	"\000\000\000\000\000\000\000\000\000\000\000\000\000"
 3220      00000000 
 3220      00000000 
 3220      00
 3221 0cfd 00000000 		.ascii	"\000\000\000\000\000\000\000\340\001\030\003\010\002"
 3221      000000E0 
 3221      01180308 
 3221      02
 3222 0d0a 0C060C06 		.ascii	"\014\006\014\006\374\007\014\000\014\000\030\004\030"
 3222      FC070C00 
 3222      0C001804 
 3222      18
 3223 0d17 02E00100 		.ascii	"\002\340\001\000\000\000\000\000\000"
 3223      00000000 
 3223      00
 3224 0d20 00000000 		.ascii	"\000\000\000\000\000\000\000\000\000\000\300\003`\006"
 3224      00000000 
 3224      0000C003 
 3224      6006
 3225 0d2e 30063000 		.ascii	"0\0060\0000\000\376\0010\0000\0000\0000\0000\0000\000"
 3225      3000FE01 
 3225      30003000 
 3225      30003000 
 3225      30003000 
 3226 0d42 30003000 		.ascii	"0\0000\0000\000\374\001\000\000\000\000\000\000"
 3226      3000FC01 
 3226      00000000 
 3226      0000
 3227 0d50 00000000 		.ascii	"\000\000\000\000\000\000\000\000\000\000\000\000\000"
 3227      00000000 
 3227      00000000 
 3227      00
 3228 0d5d 00000000 		.ascii	"\000\000\000\000\000\000\000\360\007\330\006\214\001"
 3228      000000F0 
 3228      07D8068C 
 3228      01
 3229 0d6a 8C018C01 		.ascii	"\214\001\214\001\230\001\370\000\014\000\374\000\314"
 3229      9801F800 
 3229      0C00FC00 
 3229      CC
ARM GAS  C:\Users\17832\AppData\Local\Temp\cckefvo3.s 			page 94


 3230 0d77 03060306 		.ascii	"\003\006\003\006\003\216\003\370\000"
 3230      038E03F8 
 3230      00
 3231 0d80 00000000 		.ascii	"\000\000\000\000\000\000\000\000\010\000\016\000\014"
 3231      00000000 
 3231      08000E00 
 3231      0C
 3232 0d8d 000C000C 		.ascii	"\000\014\000\014\000\014\000\354\001\034\003\014\003"
 3232      000C00EC 
 3232      011C030C 
 3232      03
 3233 0d9a 0C030C03 		.ascii	"\014\003\014\003\014\003\014\003\014\003\014\003\014"
 3233      0C030C03 
 3233      0C030C03 
 3233      0C
 3234 0da7 039E0700 		.ascii	"\003\236\007\000\000\000\000\000\000"
 3234      00000000 
 3234      00
 3235 0db0 00000000 		.ascii	"\000\000\000\000\000\000\000\000\000\000`\000`\000\000"
 3235      00000000 
 3235      00006000 
 3235      600000
 3236 0dbf 00000040 		.ascii	"\000\000\000@\000|\000`\000`\000`\000`\000`\000`\000"
 3236      007C0060 
 3236      00600060 
 3236      00600060 
 3236      006000
 3237 0dd2 60006000 		.ascii	"`\000`\000`\000\374\003\000\000\000\000\000\000"
 3237      6000FC03 
 3237      00000000 
 3237      0000
 3238 0de0 00000000 		.ascii	"\000\000\000\000\000\000\000\000\000\000\300\001\300"
 3238      00000000 
 3238      0000C001 
 3238      C0
 3239 0ded 01000000 		.ascii	"\001\000\000\000\000\000\001\360\001\200\001\200\001"
 3239      000001F0 
 3239      01800180 
 3239      01
 3240 0dfa 80018001 		.ascii	"\200\001\200\001\200\001\200\001\200\001\200\001\200"
 3240      80018001 
 3240      80018001 
 3240      80
 3241 0e07 01800180 		.ascii	"\001\200\001\200\001\314\000|\000"
 3241      01CC007C 
 3241      00
 3242 0e10 00000000 		.ascii	"\000\000\000\000\000\000\000\000\010\000\016\000\014"
 3242      00000000 
 3242      08000E00 
 3242      0C
 3243 0e1d 000C000C 		.ascii	"\000\014\000\014\000\014\000\214\003\214\000\214\000"
 3243      000C008C 
 3243      038C008C 
 3243      00
 3244 0e2a 4C006C00 		.ascii	"L\000l\000\\\000\214\000\214\001\014\001\014\003\236"
 3244      5C008C00 
 3244      8C010C01 
ARM GAS  C:\Users\17832\AppData\Local\Temp\cckefvo3.s 			page 95


 3244      0C039E
 3245 0e39 07000000 		.ascii	"\007\000\000\000\000\000\000"
 3245      000000
 3246 0e40 00000000 		.ascii	"\000\000\000\000\000\000\000\000@\000|\000`\000`\000"
 3246      00000000 
 3246      40007C00 
 3246      60006000 
 3247 0e50 60006000 		.ascii	"`\000`\000`\000`\000`\000`\000`\000`\000`\000`\000`"
 3247      60006000 
 3247      60006000 
 3247      60006000 
 3247      60006000 
 3248 0e65 006000FC 		.ascii	"\000`\000\374\003\000\000\000\000\000\000"
 3248      03000000 
 3248      000000
 3249 0e70 00000000 		.ascii	"\000\000\000\000\000\000\000\000\000\000\000\000\000"
 3249      00000000 
 3249      00000000 
 3249      00
 3250 0e7d 00000000 		.ascii	"\000\000\000\000\000\000\0007\007\356\006f\006f\006"
 3250      00000037 
 3250      07EE0666 
 3250      066606
 3251 0e8c 66066606 		.ascii	"f\006f\006f\006f\006f\006f\006\377\017\000\000\000\000"
 3251      66066606 
 3251      66066606 
 3251      FF0F0000 
 3251      0000
 3252 0e9e 0000     		.ascii	"\000\000"
 3253 0ea0 00000000 		.ascii	"\000\000\000\000\000\000\000\000\000\000\000\000\000"
 3253      00000000 
 3253      00000000 
 3253      00
 3254 0ead 00000000 		.ascii	"\000\000\000\000\000\000\000\356\001\034\003\014\003"
 3254      000000EE 
 3254      011C030C 
 3254      03
 3255 0eba 0C030C03 		.ascii	"\014\003\014\003\014\003\014\003\014\003\014\003\014"
 3255      0C030C03 
 3255      0C030C03 
 3255      0C
 3256 0ec7 039E0700 		.ascii	"\003\236\007\000\000\000\000\000\000"
 3256      00000000 
 3256      00
 3257 0ed0 00000000 		.ascii	"\000\000\000\000\000\000\000\000\000\000\000\000\000"
 3257      00000000 
 3257      00000000 
 3257      00
 3258 0edd 00000000 		.ascii	"\000\000\000\000\000\000\000\360\000\230\001\014\003"
 3258      000000F0 
 3258      0098010C 
 3258      03
 3259 0eea 06060606 		.ascii	"\006\006\006\006\006\006\006\006\006\006\014\003\014"
 3259      06060606 
 3259      06060C03 
 3259      0C
 3260 0ef7 03F00000 		.ascii	"\003\360\000\000\000\000\000\000\000"
ARM GAS  C:\Users\17832\AppData\Local\Temp\cckefvo3.s 			page 96


 3260      00000000 
 3260      00
 3261 0f00 00000000 		.ascii	"\000\000\000\000\000\000\000\000\000\000\000\000\000"
 3261      00000000 
 3261      00000000 
 3261      00
 3262 0f0d 00000000 		.ascii	"\000\000\000\000\000\000\000\356\001\034\003\014\006"
 3262      000000EE 
 3262      011C030C 
 3262      06
 3263 0f1a 0C060C06 		.ascii	"\014\006\014\006\014\006\014\006\014\006\014\003\034"
 3263      0C060C06 
 3263      0C060C03 
 3263      1C
 3264 0f27 03EC010C 		.ascii	"\003\354\001\014\000\014\000>\000"
 3264      000C003E 
 3264      00
 3265 0f30 00000000 		.ascii	"\000\000\000\000\000\000\000\000\000\000\000\000\000"
 3265      00000000 
 3265      00000000 
 3265      00
 3266 0f3d 00000000 		.ascii	"\000\000\000\000\000\000\000x\002\214\003\014\003\006"
 3266      00000078 
 3266      028C030C 
 3266      0306
 3267 0f4b 03060306 		.ascii	"\003\006\003\006\003\006\003\006\003\004\003\214\003"
 3267      03060306 
 3267      0304038C 
 3267      03
 3268 0f58 78030003 		.ascii	"x\003\000\003\000\003\300\007"
 3268      0003C007 
 3269 0f60 00000000 		.ascii	"\000\000\000\000\000\000\000\000\000\000\000\000\000"
 3269      00000000 
 3269      00000000 
 3269      00
 3270 0f6d 00000000 		.ascii	"\000\000\000\000\000\000\000\237\003X\0068\006\030\000"
 3270      0000009F 
 3270      03580638 
 3270      061800
 3271 0f7c 18001800 		.ascii	"\030\000\030\000\030\000\030\000\030\000\030\000\377"
 3271      18001800 
 3271      18001800 
 3271      FF
 3272 0f89 00000000 		.ascii	"\000\000\000\000\000\000\000"
 3272      000000
 3273 0f90 00000000 		.ascii	"\000\000\000\000\000\000\000\000\000\000\000\000\000"
 3273      00000000 
 3273      00000000 
 3273      00
 3274 0f9d 00000000 		.ascii	"\000\000\000\000\000\000\000\360\003\034\003\014\002"
 3274      000000F0 
 3274      031C030C 
 3274      02
 3275 0faa 0C023800 		.ascii	"\014\0028\000\360\000\300\003\004\003\004\003\214\003"
 3275      F000C003 
 3275      04030403 
 3275      8C03
ARM GAS  C:\Users\17832\AppData\Local\Temp\cckefvo3.s 			page 97


 3276 0fb8 FC010000 		.ascii	"\374\001\000\000\000\000\000\000"
 3276      00000000 
 3277 0fc0 00000000 		.ascii	"\000\000\000\000\000\000\000\000\000\000\000\000 \000"
 3277      00000000 
 3277      00000000 
 3277      2000
 3278 0fce 20003000 		.ascii	" \0000\0000\000\376\0010\0000\0000\0000\0000\0000\000"
 3278      3000FE01 
 3278      30003000 
 3278      30003000 
 3278      30003000 
 3279 0fe2 30003002 		.ascii	"0\0000\0020\002\340\001\000\000\000\000\000\000"
 3279      3002E001 
 3279      00000000 
 3279      0000
 3280 0ff0 00000000 		.ascii	"\000\000\000\000\000\000\000\000\000\000\000\000\000"
 3280      00000000 
 3280      00000000 
 3280      00
 3281 0ffd 00000000 		.ascii	"\000\000\000\000\000\010\002\216\003\014\003\014\003"
 3281      0008028E 
 3281      030C030C 
 3281      03
 3282 100a 0C030C03 		.ascii	"\014\003\014\003\014\003\014\003\014\003\014\003\234"
 3282      0C030C03 
 3282      0C030C03 
 3282      9C
 3283 1017 07780100 		.ascii	"\007x\001\000\000\000\000\000\000"
 3283      00000000 
 3283      00
 3284 1020 00000000 		.ascii	"\000\000\000\000\000\000\000\000\000\000\000\000\000"
 3284      00000000 
 3284      00000000 
 3284      00
 3285 102d 00000000 		.ascii	"\000\000\000\000\000\000\000\036\007\014\002\010\001"
 3285      0000001E 
 3285      070C0208 
 3285      01
 3286 103a 08011801 		.ascii	"\010\001\030\001\220\000\260\000\260\000`\000`\000 "
 3286      9000B000 
 3286      B0006000 
 3286      600020
 3287 1049 00000000 		.ascii	"\000\000\000\000\000\000\000"
 3287      000000
 3288 1050 00000000 		.ascii	"\000\000\000\000\000\000\000\000\000\000\000\000\000"
 3288      00000000 
 3288      00000000 
 3288      00
 3289 105d 00000000 		.ascii	"\000\000\000\000\000\000\000\367\016b\004F\004d\002"
 3289      000000F7 
 3289      0E620446 
 3289      046402
 3290 106c 6402EC02 		.ascii	"d\002\354\002\234\001\230\001\230\001\230\001\010\000"
 3290      9C019801 
 3290      98019801 
 3290      0800
 3291 107a 00000000 		.ascii	"\000\000\000\000\000\000"
ARM GAS  C:\Users\17832\AppData\Local\Temp\cckefvo3.s 			page 98


 3291      0000
 3292 1080 00000000 		.ascii	"\000\000\000\000\000\000\000\000\000\000\000\000\000"
 3292      00000000 
 3292      00000000 
 3292      00
 3293 108d 00000000 		.ascii	"\000\000\000\000\000\000\000\274\007\030\001\020\001"
 3293      000000BC 
 3293      07180110 
 3293      01
 3294 109a B0006000 		.ascii	"\260\000`\000`\000\340\000\220\000\010\001\010\003\236"
 3294      6000E000 
 3294      90000801 
 3294      08039E
 3295 10a9 07000000 		.ascii	"\007\000\000\000\000\000\000"
 3295      000000
 3296 10b0 00000000 		.ascii	"\000\000\000\000\000\000\000\000\000\000\000\000\000"
 3296      00000000 
 3296      00000000 
 3296      00
 3297 10bd 00000000 		.ascii	"\000\000\000\000\000\000\000\236\007\010\001\010\001"
 3297      0000009E 
 3297      07080108 
 3297      01
 3298 10ca 08019000 		.ascii	"\010\001\220\000\220\000\260\000`\000`\000`\000 \000"
 3298      9000B000 
 3298      60006000 
 3298      60002000 
 3299 10da 20002400 		.ascii	" \000$\000\034\000"
 3299      1C00
 3300 10e0 00000000 		.ascii	"\000\000\000\000\000\000\000\000\000\000\000\000\000"
 3300      00000000 
 3300      00000000 
 3300      00
 3301 10ed 00000000 		.ascii	"\000\000\000\000\000\000\000\374\001\204\001\304\000"
 3301      000000FC 
 3301      018401C4 
 3301      00
 3302 10fa 44006000 		.ascii	"D\000`\000 \0000\000\030\002\010\002\014\003\374\001"
 3302      20003000 
 3302      18020802 
 3302      0C03FC01 
 3303 110a 00000000 		.ascii	"\000\000\000\000\000\000"
 3303      0000
 3304 1110 00000000 		.ascii	"\000\000\000\000\000\003\200\000\200\000\200\000\200"
 3304      00038000 
 3304      80008000 
 3304      80
 3305 111d 00800080 		.ascii	"\000\200\000\200\000\200\000\200\000@\000 \000@\000"
 3305      00800080 
 3305      00400020 
 3305      004000
 3306 112c 80008000 		.ascii	"\200\000\200\000\200\000\200\000\200\000\200\000\200"
 3306      80008000 
 3306      80008000 
 3306      80
 3307 1139 00800000 		.ascii	"\000\200\000\000\003\000\000"
 3307      030000
ARM GAS  C:\Users\17832\AppData\Local\Temp\cckefvo3.s 			page 99


 3308 1140 40004000 		.ascii	"@\000@\000@\000@\000@\000@\000@\000@\000@\000@\000@"
 3308      40004000 
 3308      40004000 
 3308      40004000 
 3308      40004000 
 3309 1155 00400040 		.ascii	"\000@\000@\000@\000@\000@\000@\000@\000@\000@\000@\000"
 3309      00400040 
 3309      00400040 
 3309      00400040 
 3309      00400040 
 3310 116a 40004000 		.ascii	"@\000@\000@\000"
 3310      4000
 3311 1170 00000000 		.ascii	"\000\000\000\000\014\000\020\000\020\000\020\000\020"
 3311      0C001000 
 3311      10001000 
 3311      10
 3312 117d 00100010 		.ascii	"\000\020\000\020\000\020\000\020\000 \000@\000 \000"
 3312      00100010 
 3312      00200040 
 3312      002000
 3313 118c 10001000 		.ascii	"\020\000\020\000\020\000\020\000\020\000\020\000\020"
 3313      10001000 
 3313      10001000 
 3313      10
 3314 1199 0010000C 		.ascii	"\000\020\000\014\000\000\000"
 3314      000000
 3315 11a0 00001C00 		.ascii	"\000\000\034\000\"\004\302\004\200\003\000\000\000\000"
 3315      2204C204 
 3315      80030000 
 3315      0000
 3316 11ae 00000000 		.ascii	"\000\000\000\000\000\000\000\000\000\000\000\000\000"
 3316      00000000 
 3316      00000000 
 3316      00
 3317 11bb 00000000 		.ascii	"\000\000\000\000\000\000\000\000\000\000\000\000\000"
 3317      00000000 
 3317      00000000 
 3317      00
 3318 11c8 00000000 		.ascii	"\000\000\000\000\000\000\000\000"
 3318      00000000 
 3319              		.section	.rodata.ascii_3216,"a"
 3320              		.align	2
 3323              	ascii_3216:
 3324 0000 00000000 		.ascii	"\000\000\000\000\000\000\000\000\000\000\000\000\000"
 3324      00000000 
 3324      00000000 
 3324      00
 3325 000d 00000000 		.ascii	"\000\000\000\000\000\000\000\000\000\000\000\000\000"
 3325      00000000 
 3325      00000000 
 3325      00
 3326 001a 00000000 		.ascii	"\000\000\000\000\000\000\000\000\000\000\000\000\000"
 3326      00000000 
 3326      00000000 
 3326      00
 3327 0027 00000000 		.ascii	"\000\000\000\000\000\000\000\000\000\000\000\000\000"
 3327      00000000 
ARM GAS  C:\Users\17832\AppData\Local\Temp\cckefvo3.s 			page 100


 3327      00000000 
 3327      00
 3328 0034 00000000 		.ascii	"\000\000\000\000\000\000\000\000\000\000\000\000"
 3328      00000000 
 3328      00000000 
 3329 0040 00000000 		.ascii	"\000\000\000\000\000\000\000\000\000\000\300\001\300"
 3329      00000000 
 3329      0000C001 
 3329      C0
 3330 004d 01C001C0 		.ascii	"\001\300\001\300\001\300\001\300\001\300\001\200\000"
 3330      01C001C0 
 3330      01C00180 
 3330      00
 3331 005a 80008000 		.ascii	"\200\000\200\000\200\000\200\000\200\000\200\000\000"
 3331      80008000 
 3331      80008000 
 3331      00
 3332 0067 00000000 		.ascii	"\000\000\000\000\000\000\000\200\001\300\003\300\003"
 3332      00000080 
 3332      01C003C0 
 3332      03
 3333 0074 80010000 		.ascii	"\200\001\000\000\000\000\000\000\000\000\000\000"
 3333      00000000 
 3333      00000000 
 3334 0080 00000000 		.ascii	"\000\000\000\000\000\000\340\034\340\034\360\036p\016"
 3334      0000E01C 
 3334      E01CF01E 
 3334      700E
 3335 008e 38071803 		.ascii	"8\007\030\003\010\001\204\000\000\000\000\000\000\000"
 3335      08018400 
 3335      00000000 
 3335      0000
 3336 009c 00000000 		.ascii	"\000\000\000\000\000\000\000\000\000\000\000\000\000"
 3336      00000000 
 3336      00000000 
 3336      00
 3337 00a9 00000000 		.ascii	"\000\000\000\000\000\000\000\000\000\000\000\000\000"
 3337      00000000 
 3337      00000000 
 3337      00
 3338 00b6 00000000 		.ascii	"\000\000\000\000\000\000\000\000\000\000"
 3338      00000000 
 3338      0000
 3339 00c0 00000000 		.ascii	"\000\000\000\000\000\000\000\000\000\000\000\000 \020"
 3339      00000000 
 3339      00000000 
 3339      2010
 3340 00ce 20102010 		.ascii	" \020 \020 \020 \020\376\177\376\177\020\010\020\010"
 3340      20102010 
 3340      FE7FFE7F 
 3340      10081008 
 3341 00de 10081008 		.ascii	"\020\010\020\010\020\010\020\010\020\010\376\177\376"
 3341      10081008 
 3341      1008FE7F 
 3341      FE
 3342 00eb 7F080408 		.ascii	"\177\010\004\010\004\010\004\010\004\010\004\000\000"
 3342      04080408 
ARM GAS  C:\Users\17832\AppData\Local\Temp\cckefvo3.s 			page 101


 3342      04080400 
 3342      00
 3343 00f8 00000000 		.ascii	"\000\000\000\000\000\000\000\000"
 3343      00000000 
 3344 0100 00000000 		.ascii	"\000\000\000\000\000\000\000\000\000\001\000\001\300"
 3344      00000000 
 3344      00010001 
 3344      C0
 3345 010d 07601910 		.ascii	"\007`\031\0201\0301\0309\03098\001p\001\340\001\300"
 3345      31183118 
 3345      39183938 
 3345      017001E0 
 3345      01C0
 3346 011f 03800700 		.ascii	"\003\200\007\000\017\000\035\0009\0001\0341\0341\014"
 3346      0F001D00 
 3346      3900311C 
 3346      311C310C 
 3347 012f 310C1118 		.ascii	"1\014\021\030\015\340\007\000\001\000\001\000\001\000"
 3347      0DE00700 
 3347      01000100 
 3347      0100
 3348 013d 000000   		.ascii	"\000\000\000"
 3349 0140 00000000 		.ascii	"\000\000\000\000\000\000\000\000\000\000\000\000\034"
 3349      00000000 
 3349      00000000 
 3349      1C
 3350 014d 10361863 		.ascii	"\0206\030c\010c\014c\004c\004c\002c\002c\0016\035\234"
 3350      08630C63 
 3350      04630463 
 3350      02630263 
 3350      01361D9C 
 3351 0161 37802280 		.ascii	"7\200\"\200c@c@c c c0c\020\"\0306\010\034\000\000\000"
 3351      63406340 
 3351      63206320 
 3351      63306310 
 3351      22183608 
 3352 0179 00000000 		.ascii	"\000\000\000\000\000\000\000"
 3352      000000
 3353 0180 00000000 		.ascii	"\000\000\000\000\000\000\000\000\000\000\000\000\360"
 3353      00000000 
 3353      00000000 
 3353      F0
 3354 018d 0098018C 		.ascii	"\000\230\001\214\001\214\001\214\001\214\001\214\000"
 3354      018C018C 
 3354      018C018C 
 3354      00
 3355 019a CC007800 		.ascii	"\314\000x\000\030>\034\0106\0102\010c\004c\004\303\004"
 3355      183E1C08 
 3355      36083208 
 3355      63046304 
 3355      C304
 3356 01ac C3038343 		.ascii	"\303\003\203C\006C\216&x\034\000\000\000\000\000\000"
 3356      06438E26 
 3356      781C0000 
 3356      00000000 
 3357 01bc 00000000 		.ascii	"\000\000\000\000"
 3358 01c0 00000000 		.ascii	"\000\000\000\000\000\000\034\000<\000<\0000\0000\000"
ARM GAS  C:\Users\17832\AppData\Local\Temp\cckefvo3.s 			page 102


 3358      00001C00 
 3358      3C003C00 
 3358      30003000 
 3359 01d0 10000C00 		.ascii	"\020\000\014\000\006\000\000\000\000\000\000\000\000"
 3359      06000000 
 3359      00000000 
 3359      00
 3360 01dd 00000000 		.ascii	"\000\000\000\000\000\000\000\000\000\000\000\000\000"
 3360      00000000 
 3360      00000000 
 3360      00
 3361 01ea 00000000 		.ascii	"\000\000\000\000\000\000\000\000\000\000\000\000\000"
 3361      00000000 
 3361      00000000 
 3361      00
 3362 01f7 00000000 		.ascii	"\000\000\000\000\000\000\000\000\000"
 3362      00000000 
 3362      00
 3363 0200 00000000 		.ascii	"\000\000\000\000\000\000\000@\000 \000\020\000\010\000"
 3363      00000040 
 3363      00200010 
 3363      000800
 3364 020f 0C000400 		.ascii	"\014\000\004\000\006\000\003\000\003\000\003\200\001"
 3364      06000300 
 3364      03000380 
 3364      01
 3365 021c 80018001 		.ascii	"\200\001\200\001\200\001\200\001\200\001\200\001\200"
 3365      80018001 
 3365      80018001 
 3365      80
 3366 0229 01000300 		.ascii	"\001\000\003\000\003\000\003\000\006\000\006\000\014"
 3366      03000300 
 3366      06000600 
 3366      0C
 3367 0236 00080010 		.ascii	"\000\010\000\020\000 \000@\000\000"
 3367      00200040 
 3367      0000
 3368 0240 00000000 		.ascii	"\000\000\000\000\000\000\002\000\004\000\010\000\020"
 3368      00000200 
 3368      04000800 
 3368      10
 3369 024d 00300020 		.ascii	"\0000\000 \000`\000\300\000\300\000\300\000\200\001"
 3369      006000C0 
 3369      00C000C0 
 3369      008001
 3370 025c 80018001 		.ascii	"\200\001\200\001\200\001\200\001\200\001\200\001\200"
 3370      80018001 
 3370      80018001 
 3370      80
 3371 0269 01C000C0 		.ascii	"\001\300\000\300\000\300\000`\000`\0000\000\020\000"
 3371      00C00060 
 3371      00600030 
 3371      001000
 3372 0278 08000400 		.ascii	"\010\000\004\000\002\000\000\000"
 3372      02000000 
 3373 0280 00000000 		.ascii	"\000\000\000\000\000\000\000\000\000\000\000\000\000"
 3373      00000000 
ARM GAS  C:\Users\17832\AppData\Local\Temp\cckefvo3.s 			page 103


 3373      00000000 
 3373      00
 3374 028d 00000000 		.ascii	"\000\000\000\000\001\200\003\200\003\000\001\034q<y"
 3374      01800380 
 3374      0300011C 
 3374      713C79
 3375 029c 783DC007 		.ascii	"x=\300\007\000\001\300\007x=<y\034q\000\001\200\003"
 3375      0001C007 
 3375      783D3C79 
 3375      1C710001 
 3375      8003
 3376 02ae 80038001 		.ascii	"\200\003\200\001\000\000\000\000\000\000\000\000\000"
 3376      00000000 
 3376      00000000 
 3376      00
 3377 02bb 00000000 		.ascii	"\000\000\000\000\000"
 3377      00
 3378 02c0 00000000 		.ascii	"\000\000\000\000\000\000\000\000\000\000\000\000\000"
 3378      00000000 
 3378      00000000 
 3378      00
 3379 02cd 00000000 		.ascii	"\000\000\000\000\000\000\001\000\001\000\001\000\001"
 3379      00000100 
 3379      01000100 
 3379      01
 3380 02da 00010001 		.ascii	"\000\001\000\001\000\001\374\177\000\001\000\001\000"
 3380      0001FC7F 
 3380      00010001 
 3380      00
 3381 02e7 01000100 		.ascii	"\001\000\001\000\001\000\001\000\001\000\000\000\000"
 3381      01000100 
 3381      01000000 
 3381      00
 3382 02f4 00000000 		.ascii	"\000\000\000\000\000\000\000\000\000\000\000\000"
 3382      00000000 
 3382      00000000 
 3383 0300 00000000 		.ascii	"\000\000\000\000\000\000\000\000\000\000\000\000\000"
 3383      00000000 
 3383      00000000 
 3383      00
 3384 030d 00000000 		.ascii	"\000\000\000\000\000\000\000\000\000\000\000\000\000"
 3384      00000000 
 3384      00000000 
 3384      00
 3385 031a 00000000 		.ascii	"\000\000\000\000\000\000\000\000\000\000\000\000\000"
 3385      00000000 
 3385      00000000 
 3385      00
 3386 0327 00000000 		.ascii	"\000\000\000\000\000\000\000\000\000\034\000<\000<\000"
 3386      00000000 
 3386      001C003C 
 3386      003C00
 3387 0336 30003000 		.ascii	"0\0000\000\020\000\014\000\006\000"
 3387      10000C00 
 3387      0600
 3388 0340 00000000 		.ascii	"\000\000\000\000\000\000\000\000\000\000\000\000\000"
 3388      00000000 
ARM GAS  C:\Users\17832\AppData\Local\Temp\cckefvo3.s 			page 104


 3388      00000000 
 3388      00
 3389 034d 00000000 		.ascii	"\000\000\000\000\000\000\000\000\000\000\000\000\000"
 3389      00000000 
 3389      00000000 
 3389      00
 3390 035a 00000000 		.ascii	"\000\000\000\000\000\000\376\177\000\000\000\000\000"
 3390      0000FE7F 
 3390      00000000 
 3390      00
 3391 0367 00000000 		.ascii	"\000\000\000\000\000\000\000\000\000\000\000\000\000"
 3391      00000000 
 3391      00000000 
 3391      00
 3392 0374 00000000 		.ascii	"\000\000\000\000\000\000\000\000\000\000\000\000"
 3392      00000000 
 3392      00000000 
 3393 0380 00000000 		.ascii	"\000\000\000\000\000\000\000\000\000\000\000\000\000"
 3393      00000000 
 3393      00000000 
 3393      00
 3394 038d 00000000 		.ascii	"\000\000\000\000\000\000\000\000\000\000\000\000\000"
 3394      00000000 
 3394      00000000 
 3394      00
 3395 039a 00000000 		.ascii	"\000\000\000\000\000\000\000\000\000\000\000\000\000"
 3395      00000000 
 3395      00000000 
 3395      00
 3396 03a7 00000000 		.ascii	"\000\000\000\000\000\000\000\030\000<\000<\000\030\000"
 3396      00000018 
 3396      003C003C 
 3396      001800
 3397 03b6 00000000 		.ascii	"\000\000\000\000\000\000\000\000\000\000"
 3397      00000000 
 3397      0000
 3398 03c0 00000000 		.ascii	"\000\000\000\000\000\000\000@\000`\000 \0000\000\020"
 3398      00000040 
 3398      00600020 
 3398      00300010 
 3399 03d0 00180008 		.ascii	"\000\030\000\010\000\014\000\004\000\006\000\002\000"
 3399      000C0004 
 3399      00060002 
 3399      00
 3400 03dd 03000180 		.ascii	"\003\000\001\200\001\200\000\300\000@\000`\000 \000"
 3400      018000C0 
 3400      00400060 
 3400      002000
 3401 03ec 30001000 		.ascii	"0\000\020\000\030\000\010\000\014\000\004\000\006\000"
 3401      18000800 
 3401      0C000400 
 3401      0600
 3402 03fa 02000000 		.ascii	"\002\000\000\000\000\000"
 3402      0000
 3403 0400 00000000 		.ascii	"\000\000\000\000\000\000\000\000\000\000\000\000\300"
 3403      00000000 
 3403      00000000 
ARM GAS  C:\Users\17832\AppData\Local\Temp\cckefvo3.s 			page 105


 3403      C0
 3404 040d 07600C30 		.ascii	"\007`\0140\030\0300\0300\030 \014`\014`\014`\014`\014"
 3404      18183018 
 3404      3018200C 
 3404      600C600C 
 3404      600C600C 
 3405 0421 600C600C 		.ascii	"`\014`\014`\014`\014`\030 \0300\03000\030`\014\300\007"
 3405      600C600C 
 3405      60182018 
 3405      30183030 
 3405      18600CC0 
 3406 0436 00000000 		.ascii	"\000\000\000\000\000\000\000\000\000\000"
 3406      00000000 
 3406      0000
 3407 0440 00000000 		.ascii	"\000\000\000\000\000\000\000\000\000\000\000\000\000"
 3407      00000000 
 3407      00000000 
 3407      00
 3408 044d 018001F8 		.ascii	"\001\200\001\370\001\200\001\200\001\200\001\200\001"
 3408      01800180 
 3408      01800180 
 3408      01
 3409 045a 80018001 		.ascii	"\200\001\200\001\200\001\200\001\200\001\200\001\200"
