ARM GAS  C:\Users\ADMINI~1\AppData\Local\Temp\cc93wSbm.s 			page 1


   1              		.cpu cortex-m4
   2              		.arch armv7e-m
   3              		.fpu fpv4-sp-d16
   4              		.eabi_attribute 27, 1
   5              		.eabi_attribute 28, 1
   6              		.eabi_attribute 20, 1
   7              		.eabi_attribute 21, 1
   8              		.eabi_attribute 23, 3
   9              		.eabi_attribute 24, 1
  10              		.eabi_attribute 25, 1
  11              		.eabi_attribute 26, 1
  12              		.eabi_attribute 30, 1
  13              		.eabi_attribute 34, 1
  14              		.eabi_attribute 18, 4
  15              		.file	"lv_bar.c"
  16              		.text
  17              	.Ltext0:
  18              		.cfi_sections	.debug_frame
  19              		.section	.text.lv_area_get_width,"ax",%progbits
  20              		.align	1
  21              		.syntax unified
  22              		.thumb
  23              		.thumb_func
  25              	lv_area_get_width:
  26              	.LVL0:
  27              	.LFB1:
  28              		.file 1 "Middlewares/LVGL/GUI/lvgl/src/widgets/../core/../misc/../font/../misc/lv_area.h"
   1:Middlewares/LVGL/GUI/lvgl/src/widgets/../core/../misc/../font/../misc/lv_area.h **** /**
   2:Middlewares/LVGL/GUI/lvgl/src/widgets/../core/../misc/../font/../misc/lv_area.h ****  * @file lv_area.h
   3:Middlewares/LVGL/GUI/lvgl/src/widgets/../core/../misc/../font/../misc/lv_area.h ****  *
   4:Middlewares/LVGL/GUI/lvgl/src/widgets/../core/../misc/../font/../misc/lv_area.h ****  */
   5:Middlewares/LVGL/GUI/lvgl/src/widgets/../core/../misc/../font/../misc/lv_area.h **** 
   6:Middlewares/LVGL/GUI/lvgl/src/widgets/../core/../misc/../font/../misc/lv_area.h **** #ifndef LV_AREA_H
   7:Middlewares/LVGL/GUI/lvgl/src/widgets/../core/../misc/../font/../misc/lv_area.h **** #define LV_AREA_H
   8:Middlewares/LVGL/GUI/lvgl/src/widgets/../core/../misc/../font/../misc/lv_area.h **** 
   9:Middlewares/LVGL/GUI/lvgl/src/widgets/../core/../misc/../font/../misc/lv_area.h **** #ifdef __cplusplus
  10:Middlewares/LVGL/GUI/lvgl/src/widgets/../core/../misc/../font/../misc/lv_area.h **** extern "C" {
  11:Middlewares/LVGL/GUI/lvgl/src/widgets/../core/../misc/../font/../misc/lv_area.h **** #endif
  12:Middlewares/LVGL/GUI/lvgl/src/widgets/../core/../misc/../font/../misc/lv_area.h **** 
  13:Middlewares/LVGL/GUI/lvgl/src/widgets/../core/../misc/../font/../misc/lv_area.h **** /*********************
  14:Middlewares/LVGL/GUI/lvgl/src/widgets/../core/../misc/../font/../misc/lv_area.h ****  *      INCLUDES
  15:Middlewares/LVGL/GUI/lvgl/src/widgets/../core/../misc/../font/../misc/lv_area.h ****  *********************/
  16:Middlewares/LVGL/GUI/lvgl/src/widgets/../core/../misc/../font/../misc/lv_area.h **** #include "../lv_conf_internal.h"
  17:Middlewares/LVGL/GUI/lvgl/src/widgets/../core/../misc/../font/../misc/lv_area.h **** #include <stdbool.h>
  18:Middlewares/LVGL/GUI/lvgl/src/widgets/../core/../misc/../font/../misc/lv_area.h **** #include <stdint.h>
  19:Middlewares/LVGL/GUI/lvgl/src/widgets/../core/../misc/../font/../misc/lv_area.h **** 
  20:Middlewares/LVGL/GUI/lvgl/src/widgets/../core/../misc/../font/../misc/lv_area.h **** /*********************
  21:Middlewares/LVGL/GUI/lvgl/src/widgets/../core/../misc/../font/../misc/lv_area.h ****  *      DEFINES
  22:Middlewares/LVGL/GUI/lvgl/src/widgets/../core/../misc/../font/../misc/lv_area.h ****  *********************/
  23:Middlewares/LVGL/GUI/lvgl/src/widgets/../core/../misc/../font/../misc/lv_area.h **** 
  24:Middlewares/LVGL/GUI/lvgl/src/widgets/../core/../misc/../font/../misc/lv_area.h **** #if LV_USE_LARGE_COORD
  25:Middlewares/LVGL/GUI/lvgl/src/widgets/../core/../misc/../font/../misc/lv_area.h **** typedef int32_t lv_coord_t;
  26:Middlewares/LVGL/GUI/lvgl/src/widgets/../core/../misc/../font/../misc/lv_area.h **** #else
  27:Middlewares/LVGL/GUI/lvgl/src/widgets/../core/../misc/../font/../misc/lv_area.h **** typedef int16_t lv_coord_t;
  28:Middlewares/LVGL/GUI/lvgl/src/widgets/../core/../misc/../font/../misc/lv_area.h **** #endif
  29:Middlewares/LVGL/GUI/lvgl/src/widgets/../core/../misc/../font/../misc/lv_area.h **** 
  30:Middlewares/LVGL/GUI/lvgl/src/widgets/../core/../misc/../font/../misc/lv_area.h **** /**********************
ARM GAS  C:\Users\ADMINI~1\AppData\Local\Temp\cc93wSbm.s 			page 2


  31:Middlewares/LVGL/GUI/lvgl/src/widgets/../core/../misc/../font/../misc/lv_area.h ****  *      TYPEDEFS
  32:Middlewares/LVGL/GUI/lvgl/src/widgets/../core/../misc/../font/../misc/lv_area.h ****  **********************/
  33:Middlewares/LVGL/GUI/lvgl/src/widgets/../core/../misc/../font/../misc/lv_area.h **** 
  34:Middlewares/LVGL/GUI/lvgl/src/widgets/../core/../misc/../font/../misc/lv_area.h **** /**
  35:Middlewares/LVGL/GUI/lvgl/src/widgets/../core/../misc/../font/../misc/lv_area.h ****  * Represents a point on the screen.
  36:Middlewares/LVGL/GUI/lvgl/src/widgets/../core/../misc/../font/../misc/lv_area.h ****  */
  37:Middlewares/LVGL/GUI/lvgl/src/widgets/../core/../misc/../font/../misc/lv_area.h **** typedef struct {
  38:Middlewares/LVGL/GUI/lvgl/src/widgets/../core/../misc/../font/../misc/lv_area.h ****     lv_coord_t x;
  39:Middlewares/LVGL/GUI/lvgl/src/widgets/../core/../misc/../font/../misc/lv_area.h ****     lv_coord_t y;
  40:Middlewares/LVGL/GUI/lvgl/src/widgets/../core/../misc/../font/../misc/lv_area.h **** } lv_point_t;
  41:Middlewares/LVGL/GUI/lvgl/src/widgets/../core/../misc/../font/../misc/lv_area.h **** 
  42:Middlewares/LVGL/GUI/lvgl/src/widgets/../core/../misc/../font/../misc/lv_area.h **** /** Represents an area of the screen.*/
  43:Middlewares/LVGL/GUI/lvgl/src/widgets/../core/../misc/../font/../misc/lv_area.h **** typedef struct {
  44:Middlewares/LVGL/GUI/lvgl/src/widgets/../core/../misc/../font/../misc/lv_area.h ****     lv_coord_t x1;
  45:Middlewares/LVGL/GUI/lvgl/src/widgets/../core/../misc/../font/../misc/lv_area.h ****     lv_coord_t y1;
  46:Middlewares/LVGL/GUI/lvgl/src/widgets/../core/../misc/../font/../misc/lv_area.h ****     lv_coord_t x2;
  47:Middlewares/LVGL/GUI/lvgl/src/widgets/../core/../misc/../font/../misc/lv_area.h ****     lv_coord_t y2;
  48:Middlewares/LVGL/GUI/lvgl/src/widgets/../core/../misc/../font/../misc/lv_area.h **** } lv_area_t;
  49:Middlewares/LVGL/GUI/lvgl/src/widgets/../core/../misc/../font/../misc/lv_area.h **** 
  50:Middlewares/LVGL/GUI/lvgl/src/widgets/../core/../misc/../font/../misc/lv_area.h **** /** Alignments*/
  51:Middlewares/LVGL/GUI/lvgl/src/widgets/../core/../misc/../font/../misc/lv_area.h **** enum {
  52:Middlewares/LVGL/GUI/lvgl/src/widgets/../core/../misc/../font/../misc/lv_area.h ****     LV_ALIGN_DEFAULT = 0,
  53:Middlewares/LVGL/GUI/lvgl/src/widgets/../core/../misc/../font/../misc/lv_area.h ****     LV_ALIGN_TOP_LEFT,
  54:Middlewares/LVGL/GUI/lvgl/src/widgets/../core/../misc/../font/../misc/lv_area.h ****     LV_ALIGN_TOP_MID,
  55:Middlewares/LVGL/GUI/lvgl/src/widgets/../core/../misc/../font/../misc/lv_area.h ****     LV_ALIGN_TOP_RIGHT,
  56:Middlewares/LVGL/GUI/lvgl/src/widgets/../core/../misc/../font/../misc/lv_area.h ****     LV_ALIGN_BOTTOM_LEFT,
  57:Middlewares/LVGL/GUI/lvgl/src/widgets/../core/../misc/../font/../misc/lv_area.h ****     LV_ALIGN_BOTTOM_MID,
  58:Middlewares/LVGL/GUI/lvgl/src/widgets/../core/../misc/../font/../misc/lv_area.h ****     LV_ALIGN_BOTTOM_RIGHT,
  59:Middlewares/LVGL/GUI/lvgl/src/widgets/../core/../misc/../font/../misc/lv_area.h ****     LV_ALIGN_LEFT_MID,
  60:Middlewares/LVGL/GUI/lvgl/src/widgets/../core/../misc/../font/../misc/lv_area.h ****     LV_ALIGN_RIGHT_MID,
  61:Middlewares/LVGL/GUI/lvgl/src/widgets/../core/../misc/../font/../misc/lv_area.h ****     LV_ALIGN_CENTER,
  62:Middlewares/LVGL/GUI/lvgl/src/widgets/../core/../misc/../font/../misc/lv_area.h **** 
  63:Middlewares/LVGL/GUI/lvgl/src/widgets/../core/../misc/../font/../misc/lv_area.h ****     LV_ALIGN_OUT_TOP_LEFT,
  64:Middlewares/LVGL/GUI/lvgl/src/widgets/../core/../misc/../font/../misc/lv_area.h ****     LV_ALIGN_OUT_TOP_MID,
  65:Middlewares/LVGL/GUI/lvgl/src/widgets/../core/../misc/../font/../misc/lv_area.h ****     LV_ALIGN_OUT_TOP_RIGHT,
  66:Middlewares/LVGL/GUI/lvgl/src/widgets/../core/../misc/../font/../misc/lv_area.h ****     LV_ALIGN_OUT_BOTTOM_LEFT,
  67:Middlewares/LVGL/GUI/lvgl/src/widgets/../core/../misc/../font/../misc/lv_area.h ****     LV_ALIGN_OUT_BOTTOM_MID,
  68:Middlewares/LVGL/GUI/lvgl/src/widgets/../core/../misc/../font/../misc/lv_area.h ****     LV_ALIGN_OUT_BOTTOM_RIGHT,
  69:Middlewares/LVGL/GUI/lvgl/src/widgets/../core/../misc/../font/../misc/lv_area.h ****     LV_ALIGN_OUT_LEFT_TOP,
  70:Middlewares/LVGL/GUI/lvgl/src/widgets/../core/../misc/../font/../misc/lv_area.h ****     LV_ALIGN_OUT_LEFT_MID,
  71:Middlewares/LVGL/GUI/lvgl/src/widgets/../core/../misc/../font/../misc/lv_area.h ****     LV_ALIGN_OUT_LEFT_BOTTOM,
  72:Middlewares/LVGL/GUI/lvgl/src/widgets/../core/../misc/../font/../misc/lv_area.h ****     LV_ALIGN_OUT_RIGHT_TOP,
  73:Middlewares/LVGL/GUI/lvgl/src/widgets/../core/../misc/../font/../misc/lv_area.h ****     LV_ALIGN_OUT_RIGHT_MID,
  74:Middlewares/LVGL/GUI/lvgl/src/widgets/../core/../misc/../font/../misc/lv_area.h ****     LV_ALIGN_OUT_RIGHT_BOTTOM,
  75:Middlewares/LVGL/GUI/lvgl/src/widgets/../core/../misc/../font/../misc/lv_area.h **** };
  76:Middlewares/LVGL/GUI/lvgl/src/widgets/../core/../misc/../font/../misc/lv_area.h **** typedef uint8_t lv_align_t;
  77:Middlewares/LVGL/GUI/lvgl/src/widgets/../core/../misc/../font/../misc/lv_area.h **** 
  78:Middlewares/LVGL/GUI/lvgl/src/widgets/../core/../misc/../font/../misc/lv_area.h **** enum {
  79:Middlewares/LVGL/GUI/lvgl/src/widgets/../core/../misc/../font/../misc/lv_area.h ****     LV_DIR_NONE     = 0x00,
  80:Middlewares/LVGL/GUI/lvgl/src/widgets/../core/../misc/../font/../misc/lv_area.h ****     LV_DIR_LEFT     = (1 << 0),
  81:Middlewares/LVGL/GUI/lvgl/src/widgets/../core/../misc/../font/../misc/lv_area.h ****     LV_DIR_RIGHT    = (1 << 1),
  82:Middlewares/LVGL/GUI/lvgl/src/widgets/../core/../misc/../font/../misc/lv_area.h ****     LV_DIR_TOP      = (1 << 2),
  83:Middlewares/LVGL/GUI/lvgl/src/widgets/../core/../misc/../font/../misc/lv_area.h ****     LV_DIR_BOTTOM   = (1 << 3),
  84:Middlewares/LVGL/GUI/lvgl/src/widgets/../core/../misc/../font/../misc/lv_area.h ****     LV_DIR_HOR      = LV_DIR_LEFT | LV_DIR_RIGHT,
  85:Middlewares/LVGL/GUI/lvgl/src/widgets/../core/../misc/../font/../misc/lv_area.h ****     LV_DIR_VER      = LV_DIR_TOP | LV_DIR_BOTTOM,
  86:Middlewares/LVGL/GUI/lvgl/src/widgets/../core/../misc/../font/../misc/lv_area.h ****     LV_DIR_ALL      = LV_DIR_HOR | LV_DIR_VER,
  87:Middlewares/LVGL/GUI/lvgl/src/widgets/../core/../misc/../font/../misc/lv_area.h **** };
ARM GAS  C:\Users\ADMINI~1\AppData\Local\Temp\cc93wSbm.s 			page 3


  88:Middlewares/LVGL/GUI/lvgl/src/widgets/../core/../misc/../font/../misc/lv_area.h **** 
  89:Middlewares/LVGL/GUI/lvgl/src/widgets/../core/../misc/../font/../misc/lv_area.h **** typedef uint8_t lv_dir_t;
  90:Middlewares/LVGL/GUI/lvgl/src/widgets/../core/../misc/../font/../misc/lv_area.h **** 
  91:Middlewares/LVGL/GUI/lvgl/src/widgets/../core/../misc/../font/../misc/lv_area.h **** /**********************
  92:Middlewares/LVGL/GUI/lvgl/src/widgets/../core/../misc/../font/../misc/lv_area.h ****  * GLOBAL PROTOTYPES
  93:Middlewares/LVGL/GUI/lvgl/src/widgets/../core/../misc/../font/../misc/lv_area.h ****  **********************/
  94:Middlewares/LVGL/GUI/lvgl/src/widgets/../core/../misc/../font/../misc/lv_area.h **** 
  95:Middlewares/LVGL/GUI/lvgl/src/widgets/../core/../misc/../font/../misc/lv_area.h **** /**
  96:Middlewares/LVGL/GUI/lvgl/src/widgets/../core/../misc/../font/../misc/lv_area.h ****  * Initialize an area
  97:Middlewares/LVGL/GUI/lvgl/src/widgets/../core/../misc/../font/../misc/lv_area.h ****  * @param area_p pointer to an area
  98:Middlewares/LVGL/GUI/lvgl/src/widgets/../core/../misc/../font/../misc/lv_area.h ****  * @param x1 left coordinate of the area
  99:Middlewares/LVGL/GUI/lvgl/src/widgets/../core/../misc/../font/../misc/lv_area.h ****  * @param y1 top coordinate of the area
 100:Middlewares/LVGL/GUI/lvgl/src/widgets/../core/../misc/../font/../misc/lv_area.h ****  * @param x2 right coordinate of the area
 101:Middlewares/LVGL/GUI/lvgl/src/widgets/../core/../misc/../font/../misc/lv_area.h ****  * @param y2 bottom coordinate of the area
 102:Middlewares/LVGL/GUI/lvgl/src/widgets/../core/../misc/../font/../misc/lv_area.h ****  */
 103:Middlewares/LVGL/GUI/lvgl/src/widgets/../core/../misc/../font/../misc/lv_area.h **** void lv_area_set(lv_area_t * area_p, lv_coord_t x1, lv_coord_t y1, lv_coord_t x2, lv_coord_t y2);
 104:Middlewares/LVGL/GUI/lvgl/src/widgets/../core/../misc/../font/../misc/lv_area.h **** 
 105:Middlewares/LVGL/GUI/lvgl/src/widgets/../core/../misc/../font/../misc/lv_area.h **** /**
 106:Middlewares/LVGL/GUI/lvgl/src/widgets/../core/../misc/../font/../misc/lv_area.h ****  * Copy an area
 107:Middlewares/LVGL/GUI/lvgl/src/widgets/../core/../misc/../font/../misc/lv_area.h ****  * @param dest pointer to the destination area
 108:Middlewares/LVGL/GUI/lvgl/src/widgets/../core/../misc/../font/../misc/lv_area.h ****  * @param src pointer to the source area
 109:Middlewares/LVGL/GUI/lvgl/src/widgets/../core/../misc/../font/../misc/lv_area.h ****  */
 110:Middlewares/LVGL/GUI/lvgl/src/widgets/../core/../misc/../font/../misc/lv_area.h **** inline static void lv_area_copy(lv_area_t * dest, const lv_area_t * src)
 111:Middlewares/LVGL/GUI/lvgl/src/widgets/../core/../misc/../font/../misc/lv_area.h **** {
 112:Middlewares/LVGL/GUI/lvgl/src/widgets/../core/../misc/../font/../misc/lv_area.h ****     dest->x1 = src->x1;
 113:Middlewares/LVGL/GUI/lvgl/src/widgets/../core/../misc/../font/../misc/lv_area.h ****     dest->y1 = src->y1;
 114:Middlewares/LVGL/GUI/lvgl/src/widgets/../core/../misc/../font/../misc/lv_area.h ****     dest->x2 = src->x2;
 115:Middlewares/LVGL/GUI/lvgl/src/widgets/../core/../misc/../font/../misc/lv_area.h ****     dest->y2 = src->y2;
 116:Middlewares/LVGL/GUI/lvgl/src/widgets/../core/../misc/../font/../misc/lv_area.h **** }
 117:Middlewares/LVGL/GUI/lvgl/src/widgets/../core/../misc/../font/../misc/lv_area.h **** 
 118:Middlewares/LVGL/GUI/lvgl/src/widgets/../core/../misc/../font/../misc/lv_area.h **** /**
 119:Middlewares/LVGL/GUI/lvgl/src/widgets/../core/../misc/../font/../misc/lv_area.h ****  * Get the width of an area
 120:Middlewares/LVGL/GUI/lvgl/src/widgets/../core/../misc/../font/../misc/lv_area.h ****  * @param area_p pointer to an area
 121:Middlewares/LVGL/GUI/lvgl/src/widgets/../core/../misc/../font/../misc/lv_area.h ****  * @return the width of the area (if x1 == x2 -> width = 1)
 122:Middlewares/LVGL/GUI/lvgl/src/widgets/../core/../misc/../font/../misc/lv_area.h ****  */
 123:Middlewares/LVGL/GUI/lvgl/src/widgets/../core/../misc/../font/../misc/lv_area.h **** static inline lv_coord_t lv_area_get_width(const lv_area_t * area_p)
 124:Middlewares/LVGL/GUI/lvgl/src/widgets/../core/../misc/../font/../misc/lv_area.h **** {
  29              		.loc 1 124 1 view -0
  30              		.cfi_startproc
  31              		@ args = 0, pretend = 0, frame = 0
  32              		@ frame_needed = 0, uses_anonymous_args = 0
  33              		@ link register save eliminated.
 125:Middlewares/LVGL/GUI/lvgl/src/widgets/../core/../misc/../font/../misc/lv_area.h ****     return (lv_coord_t)(area_p->x2 - area_p->x1 + 1);
  34              		.loc 1 125 5 view .LVU1
  35              		.loc 1 125 31 is_stmt 0 view .LVU2
  36 0000 8368     		ldr	r3, [r0, #8]
  37              		.loc 1 125 44 view .LVU3
  38 0002 0068     		ldr	r0, [r0]
  39              	.LVL1:
  40              		.loc 1 125 36 view .LVU4
  41 0004 181A     		subs	r0, r3, r0
 126:Middlewares/LVGL/GUI/lvgl/src/widgets/../core/../misc/../font/../misc/lv_area.h **** }
  42              		.loc 1 126 1 view .LVU5
  43 0006 0130     		adds	r0, r0, #1
  44 0008 7047     		bx	lr
  45              		.cfi_endproc
  46              	.LFE1:
ARM GAS  C:\Users\ADMINI~1\AppData\Local\Temp\cc93wSbm.s 			page 4


  48              		.section	.text.lv_area_get_height,"ax",%progbits
  49              		.align	1
  50              		.syntax unified
  51              		.thumb
  52              		.thumb_func
  54              	lv_area_get_height:
  55              	.LVL2:
  56              	.LFB2:
 127:Middlewares/LVGL/GUI/lvgl/src/widgets/../core/../misc/../font/../misc/lv_area.h **** 
 128:Middlewares/LVGL/GUI/lvgl/src/widgets/../core/../misc/../font/../misc/lv_area.h **** /**
 129:Middlewares/LVGL/GUI/lvgl/src/widgets/../core/../misc/../font/../misc/lv_area.h ****  * Get the height of an area
 130:Middlewares/LVGL/GUI/lvgl/src/widgets/../core/../misc/../font/../misc/lv_area.h ****  * @param area_p pointer to an area
 131:Middlewares/LVGL/GUI/lvgl/src/widgets/../core/../misc/../font/../misc/lv_area.h ****  * @return the height of the area (if y1 == y2 -> height = 1)
 132:Middlewares/LVGL/GUI/lvgl/src/widgets/../core/../misc/../font/../misc/lv_area.h ****  */
 133:Middlewares/LVGL/GUI/lvgl/src/widgets/../core/../misc/../font/../misc/lv_area.h **** static inline lv_coord_t lv_area_get_height(const lv_area_t * area_p)
 134:Middlewares/LVGL/GUI/lvgl/src/widgets/../core/../misc/../font/../misc/lv_area.h **** {
  57              		.loc 1 134 1 is_stmt 1 view -0
  58              		.cfi_startproc
  59              		@ args = 0, pretend = 0, frame = 0
  60              		@ frame_needed = 0, uses_anonymous_args = 0
  61              		@ link register save eliminated.
 135:Middlewares/LVGL/GUI/lvgl/src/widgets/../core/../misc/../font/../misc/lv_area.h ****     return (lv_coord_t)(area_p->y2 - area_p->y1 + 1);
  62              		.loc 1 135 5 view .LVU7
  63              		.loc 1 135 31 is_stmt 0 view .LVU8
  64 0000 C368     		ldr	r3, [r0, #12]
  65              		.loc 1 135 44 view .LVU9
  66 0002 4068     		ldr	r0, [r0, #4]
  67              	.LVL3:
  68              		.loc 1 135 36 view .LVU10
  69 0004 181A     		subs	r0, r3, r0
 136:Middlewares/LVGL/GUI/lvgl/src/widgets/../core/../misc/../font/../misc/lv_area.h **** }
  70              		.loc 1 136 1 view .LVU11
  71 0006 0130     		adds	r0, r0, #1
  72 0008 7047     		bx	lr
  73              		.cfi_endproc
  74              	.LFE2:
  76              		.section	.text.lv_bar_init_anim,"ax",%progbits
  77              		.align	1
  78              		.syntax unified
  79              		.thumb
  80              		.thumb_func
  82              	lv_bar_init_anim:
  83              	.LVL4:
  84              	.LFB170:
  85              		.file 2 "Middlewares/LVGL/GUI/lvgl/src/widgets/lv_bar.c"
   1:Middlewares/LVGL/GUI/lvgl/src/widgets/lv_bar.c **** /**
   2:Middlewares/LVGL/GUI/lvgl/src/widgets/lv_bar.c ****  * @file lv_bar.c
   3:Middlewares/LVGL/GUI/lvgl/src/widgets/lv_bar.c ****  *
   4:Middlewares/LVGL/GUI/lvgl/src/widgets/lv_bar.c ****  */
   5:Middlewares/LVGL/GUI/lvgl/src/widgets/lv_bar.c **** 
   6:Middlewares/LVGL/GUI/lvgl/src/widgets/lv_bar.c **** /*********************
   7:Middlewares/LVGL/GUI/lvgl/src/widgets/lv_bar.c ****  *      INCLUDES
   8:Middlewares/LVGL/GUI/lvgl/src/widgets/lv_bar.c ****  *********************/
   9:Middlewares/LVGL/GUI/lvgl/src/widgets/lv_bar.c **** #include "lv_bar.h"
  10:Middlewares/LVGL/GUI/lvgl/src/widgets/lv_bar.c **** #if LV_USE_BAR != 0
  11:Middlewares/LVGL/GUI/lvgl/src/widgets/lv_bar.c **** 
  12:Middlewares/LVGL/GUI/lvgl/src/widgets/lv_bar.c **** #include "../misc/lv_assert.h"
ARM GAS  C:\Users\ADMINI~1\AppData\Local\Temp\cc93wSbm.s 			page 5


  13:Middlewares/LVGL/GUI/lvgl/src/widgets/lv_bar.c **** #include "../draw/lv_draw.h"
  14:Middlewares/LVGL/GUI/lvgl/src/widgets/lv_bar.c **** #include "../misc/lv_anim.h"
  15:Middlewares/LVGL/GUI/lvgl/src/widgets/lv_bar.c **** #include "../misc/lv_math.h"
  16:Middlewares/LVGL/GUI/lvgl/src/widgets/lv_bar.c **** 
  17:Middlewares/LVGL/GUI/lvgl/src/widgets/lv_bar.c **** /*********************
  18:Middlewares/LVGL/GUI/lvgl/src/widgets/lv_bar.c ****  *      DEFINES
  19:Middlewares/LVGL/GUI/lvgl/src/widgets/lv_bar.c ****  *********************/
  20:Middlewares/LVGL/GUI/lvgl/src/widgets/lv_bar.c **** #define MY_CLASS &lv_bar_class
  21:Middlewares/LVGL/GUI/lvgl/src/widgets/lv_bar.c **** 
  22:Middlewares/LVGL/GUI/lvgl/src/widgets/lv_bar.c **** /** hor. pad and ver. pad cannot make the indicator smaller than this [px]*/
  23:Middlewares/LVGL/GUI/lvgl/src/widgets/lv_bar.c **** #define LV_BAR_SIZE_MIN  4
  24:Middlewares/LVGL/GUI/lvgl/src/widgets/lv_bar.c **** 
  25:Middlewares/LVGL/GUI/lvgl/src/widgets/lv_bar.c **** #define LV_BAR_IS_ANIMATING(anim_struct) (((anim_struct).anim_state) != LV_BAR_ANIM_STATE_INV)
  26:Middlewares/LVGL/GUI/lvgl/src/widgets/lv_bar.c **** #define LV_BAR_GET_ANIM_VALUE(orig_value, anim_struct) (LV_BAR_IS_ANIMATING(anim_struct) ? ((anim_s
  27:Middlewares/LVGL/GUI/lvgl/src/widgets/lv_bar.c **** 
  28:Middlewares/LVGL/GUI/lvgl/src/widgets/lv_bar.c **** /** Bar animation start value. (Not the real value of the Bar just indicates process animation)*/
  29:Middlewares/LVGL/GUI/lvgl/src/widgets/lv_bar.c **** #define LV_BAR_ANIM_STATE_START 0
  30:Middlewares/LVGL/GUI/lvgl/src/widgets/lv_bar.c **** 
  31:Middlewares/LVGL/GUI/lvgl/src/widgets/lv_bar.c **** /** Bar animation end value.  (Not the real value of the Bar just indicates process animation)*/
  32:Middlewares/LVGL/GUI/lvgl/src/widgets/lv_bar.c **** #define LV_BAR_ANIM_STATE_END   256
  33:Middlewares/LVGL/GUI/lvgl/src/widgets/lv_bar.c **** 
  34:Middlewares/LVGL/GUI/lvgl/src/widgets/lv_bar.c **** /** Mark no animation is in progress*/
  35:Middlewares/LVGL/GUI/lvgl/src/widgets/lv_bar.c **** #define LV_BAR_ANIM_STATE_INV   -1
  36:Middlewares/LVGL/GUI/lvgl/src/widgets/lv_bar.c **** 
  37:Middlewares/LVGL/GUI/lvgl/src/widgets/lv_bar.c **** /** log2(LV_BAR_ANIM_STATE_END) used to normalize data*/
  38:Middlewares/LVGL/GUI/lvgl/src/widgets/lv_bar.c **** #define LV_BAR_ANIM_STATE_NORM  8
  39:Middlewares/LVGL/GUI/lvgl/src/widgets/lv_bar.c **** 
  40:Middlewares/LVGL/GUI/lvgl/src/widgets/lv_bar.c **** /**********************
  41:Middlewares/LVGL/GUI/lvgl/src/widgets/lv_bar.c ****  *      TYPEDEFS
  42:Middlewares/LVGL/GUI/lvgl/src/widgets/lv_bar.c ****  **********************/
  43:Middlewares/LVGL/GUI/lvgl/src/widgets/lv_bar.c **** 
  44:Middlewares/LVGL/GUI/lvgl/src/widgets/lv_bar.c **** /**********************
  45:Middlewares/LVGL/GUI/lvgl/src/widgets/lv_bar.c ****  *  STATIC PROTOTYPES
  46:Middlewares/LVGL/GUI/lvgl/src/widgets/lv_bar.c ****  **********************/
  47:Middlewares/LVGL/GUI/lvgl/src/widgets/lv_bar.c **** static void lv_bar_constructor(const lv_obj_class_t * class_p, lv_obj_t * obj);
  48:Middlewares/LVGL/GUI/lvgl/src/widgets/lv_bar.c **** static void lv_bar_destructor(const lv_obj_class_t * class_p, lv_obj_t * obj);
  49:Middlewares/LVGL/GUI/lvgl/src/widgets/lv_bar.c **** static void lv_bar_event(const lv_obj_class_t * class_p, lv_event_t * e);
  50:Middlewares/LVGL/GUI/lvgl/src/widgets/lv_bar.c **** static void draw_indic(lv_event_t * e);
  51:Middlewares/LVGL/GUI/lvgl/src/widgets/lv_bar.c **** static void lv_bar_set_value_with_anim(lv_obj_t * obj, int32_t new_value, int32_t * value_ptr,
  52:Middlewares/LVGL/GUI/lvgl/src/widgets/lv_bar.c ****                                        _lv_bar_anim_t * anim_info, lv_anim_enable_t en);
  53:Middlewares/LVGL/GUI/lvgl/src/widgets/lv_bar.c **** static void lv_bar_init_anim(lv_obj_t * bar, _lv_bar_anim_t * bar_anim);
  54:Middlewares/LVGL/GUI/lvgl/src/widgets/lv_bar.c **** static void lv_bar_anim(void * bar, int32_t value);
  55:Middlewares/LVGL/GUI/lvgl/src/widgets/lv_bar.c **** static void lv_bar_anim_ready(lv_anim_t * a);
  56:Middlewares/LVGL/GUI/lvgl/src/widgets/lv_bar.c **** 
  57:Middlewares/LVGL/GUI/lvgl/src/widgets/lv_bar.c **** /**********************
  58:Middlewares/LVGL/GUI/lvgl/src/widgets/lv_bar.c ****  *  STATIC VARIABLES
  59:Middlewares/LVGL/GUI/lvgl/src/widgets/lv_bar.c ****  **********************/
  60:Middlewares/LVGL/GUI/lvgl/src/widgets/lv_bar.c **** const lv_obj_class_t lv_bar_class = {
  61:Middlewares/LVGL/GUI/lvgl/src/widgets/lv_bar.c ****     .constructor_cb = lv_bar_constructor,
  62:Middlewares/LVGL/GUI/lvgl/src/widgets/lv_bar.c ****     .destructor_cb = lv_bar_destructor,
  63:Middlewares/LVGL/GUI/lvgl/src/widgets/lv_bar.c ****     .event_cb = lv_bar_event,
  64:Middlewares/LVGL/GUI/lvgl/src/widgets/lv_bar.c ****     .width_def = LV_DPI_DEF * 2,
  65:Middlewares/LVGL/GUI/lvgl/src/widgets/lv_bar.c ****     .height_def = LV_DPI_DEF / 10,
  66:Middlewares/LVGL/GUI/lvgl/src/widgets/lv_bar.c ****     .instance_size = sizeof(lv_bar_t),
  67:Middlewares/LVGL/GUI/lvgl/src/widgets/lv_bar.c ****     .base_class = &lv_obj_class
  68:Middlewares/LVGL/GUI/lvgl/src/widgets/lv_bar.c **** };
  69:Middlewares/LVGL/GUI/lvgl/src/widgets/lv_bar.c **** 
ARM GAS  C:\Users\ADMINI~1\AppData\Local\Temp\cc93wSbm.s 			page 6


  70:Middlewares/LVGL/GUI/lvgl/src/widgets/lv_bar.c **** /**********************
  71:Middlewares/LVGL/GUI/lvgl/src/widgets/lv_bar.c ****  *      MACROS
  72:Middlewares/LVGL/GUI/lvgl/src/widgets/lv_bar.c ****  **********************/
  73:Middlewares/LVGL/GUI/lvgl/src/widgets/lv_bar.c **** 
  74:Middlewares/LVGL/GUI/lvgl/src/widgets/lv_bar.c **** /**********************
  75:Middlewares/LVGL/GUI/lvgl/src/widgets/lv_bar.c ****  *   GLOBAL FUNCTIONS
  76:Middlewares/LVGL/GUI/lvgl/src/widgets/lv_bar.c ****  **********************/
  77:Middlewares/LVGL/GUI/lvgl/src/widgets/lv_bar.c **** 
  78:Middlewares/LVGL/GUI/lvgl/src/widgets/lv_bar.c **** lv_obj_t * lv_bar_create(lv_obj_t * parent)
  79:Middlewares/LVGL/GUI/lvgl/src/widgets/lv_bar.c **** {
  80:Middlewares/LVGL/GUI/lvgl/src/widgets/lv_bar.c ****     LV_LOG_INFO("begin");
  81:Middlewares/LVGL/GUI/lvgl/src/widgets/lv_bar.c ****     lv_obj_t * obj = lv_obj_class_create_obj(MY_CLASS, parent);
  82:Middlewares/LVGL/GUI/lvgl/src/widgets/lv_bar.c ****     lv_obj_class_init_obj(obj);
  83:Middlewares/LVGL/GUI/lvgl/src/widgets/lv_bar.c ****     return obj;
  84:Middlewares/LVGL/GUI/lvgl/src/widgets/lv_bar.c **** }
  85:Middlewares/LVGL/GUI/lvgl/src/widgets/lv_bar.c **** 
  86:Middlewares/LVGL/GUI/lvgl/src/widgets/lv_bar.c **** /*=====================
  87:Middlewares/LVGL/GUI/lvgl/src/widgets/lv_bar.c ****  * Setter functions
  88:Middlewares/LVGL/GUI/lvgl/src/widgets/lv_bar.c ****  *====================*/
  89:Middlewares/LVGL/GUI/lvgl/src/widgets/lv_bar.c **** 
  90:Middlewares/LVGL/GUI/lvgl/src/widgets/lv_bar.c **** void lv_bar_set_value(lv_obj_t * obj, int32_t value, lv_anim_enable_t anim)
  91:Middlewares/LVGL/GUI/lvgl/src/widgets/lv_bar.c **** {
  92:Middlewares/LVGL/GUI/lvgl/src/widgets/lv_bar.c ****     LV_ASSERT_OBJ(obj, MY_CLASS);
  93:Middlewares/LVGL/GUI/lvgl/src/widgets/lv_bar.c ****     lv_bar_t * bar = (lv_bar_t *)obj;
  94:Middlewares/LVGL/GUI/lvgl/src/widgets/lv_bar.c **** 
  95:Middlewares/LVGL/GUI/lvgl/src/widgets/lv_bar.c ****     if(bar->cur_value == value) return;
  96:Middlewares/LVGL/GUI/lvgl/src/widgets/lv_bar.c **** 
  97:Middlewares/LVGL/GUI/lvgl/src/widgets/lv_bar.c ****     value = LV_CLAMP(bar->min_value, value, bar->max_value);
  98:Middlewares/LVGL/GUI/lvgl/src/widgets/lv_bar.c ****     value = value < bar->start_value ? bar->start_value : value; /*Can't be smaller than the left v
  99:Middlewares/LVGL/GUI/lvgl/src/widgets/lv_bar.c **** 
 100:Middlewares/LVGL/GUI/lvgl/src/widgets/lv_bar.c ****     if(bar->cur_value == value) return;
 101:Middlewares/LVGL/GUI/lvgl/src/widgets/lv_bar.c ****     lv_bar_set_value_with_anim(obj, value, &bar->cur_value, &bar->cur_value_anim, anim);
 102:Middlewares/LVGL/GUI/lvgl/src/widgets/lv_bar.c **** }
 103:Middlewares/LVGL/GUI/lvgl/src/widgets/lv_bar.c **** 
 104:Middlewares/LVGL/GUI/lvgl/src/widgets/lv_bar.c **** void lv_bar_set_start_value(lv_obj_t * obj, int32_t value, lv_anim_enable_t anim)
 105:Middlewares/LVGL/GUI/lvgl/src/widgets/lv_bar.c **** {
 106:Middlewares/LVGL/GUI/lvgl/src/widgets/lv_bar.c ****     LV_ASSERT_OBJ(obj, MY_CLASS);
 107:Middlewares/LVGL/GUI/lvgl/src/widgets/lv_bar.c **** 
 108:Middlewares/LVGL/GUI/lvgl/src/widgets/lv_bar.c ****     lv_bar_t * bar = (lv_bar_t *)obj;
 109:Middlewares/LVGL/GUI/lvgl/src/widgets/lv_bar.c **** 
 110:Middlewares/LVGL/GUI/lvgl/src/widgets/lv_bar.c ****     if(bar->mode != LV_BAR_MODE_RANGE) {
 111:Middlewares/LVGL/GUI/lvgl/src/widgets/lv_bar.c ****         return;
 112:Middlewares/LVGL/GUI/lvgl/src/widgets/lv_bar.c ****     }
 113:Middlewares/LVGL/GUI/lvgl/src/widgets/lv_bar.c **** 
 114:Middlewares/LVGL/GUI/lvgl/src/widgets/lv_bar.c ****     value = LV_CLAMP(bar->min_value, value, bar->max_value);
 115:Middlewares/LVGL/GUI/lvgl/src/widgets/lv_bar.c ****     value = value > bar->cur_value ? bar->cur_value : value; /*Can't be greater than the right valu
 116:Middlewares/LVGL/GUI/lvgl/src/widgets/lv_bar.c **** 
 117:Middlewares/LVGL/GUI/lvgl/src/widgets/lv_bar.c ****     if(bar->start_value == value) return;
 118:Middlewares/LVGL/GUI/lvgl/src/widgets/lv_bar.c ****     lv_bar_set_value_with_anim(obj, value, &bar->start_value, &bar->start_value_anim, anim);
 119:Middlewares/LVGL/GUI/lvgl/src/widgets/lv_bar.c **** }
 120:Middlewares/LVGL/GUI/lvgl/src/widgets/lv_bar.c **** 
 121:Middlewares/LVGL/GUI/lvgl/src/widgets/lv_bar.c **** void lv_bar_set_range(lv_obj_t * obj, int32_t min, int32_t max)
 122:Middlewares/LVGL/GUI/lvgl/src/widgets/lv_bar.c **** {
 123:Middlewares/LVGL/GUI/lvgl/src/widgets/lv_bar.c ****     LV_ASSERT_OBJ(obj, MY_CLASS);
 124:Middlewares/LVGL/GUI/lvgl/src/widgets/lv_bar.c **** 
 125:Middlewares/LVGL/GUI/lvgl/src/widgets/lv_bar.c ****     lv_bar_t * bar = (lv_bar_t *)obj;
 126:Middlewares/LVGL/GUI/lvgl/src/widgets/lv_bar.c **** 
ARM GAS  C:\Users\ADMINI~1\AppData\Local\Temp\cc93wSbm.s 			page 7


 127:Middlewares/LVGL/GUI/lvgl/src/widgets/lv_bar.c ****     if(bar->min_value == min && bar->max_value == max) return;
 128:Middlewares/LVGL/GUI/lvgl/src/widgets/lv_bar.c **** 
 129:Middlewares/LVGL/GUI/lvgl/src/widgets/lv_bar.c ****     bar->max_value = max;
 130:Middlewares/LVGL/GUI/lvgl/src/widgets/lv_bar.c ****     bar->min_value = min;
 131:Middlewares/LVGL/GUI/lvgl/src/widgets/lv_bar.c **** 
 132:Middlewares/LVGL/GUI/lvgl/src/widgets/lv_bar.c ****     if(lv_bar_get_mode(obj) != LV_BAR_MODE_RANGE)
 133:Middlewares/LVGL/GUI/lvgl/src/widgets/lv_bar.c ****         bar->start_value = min;
 134:Middlewares/LVGL/GUI/lvgl/src/widgets/lv_bar.c **** 
 135:Middlewares/LVGL/GUI/lvgl/src/widgets/lv_bar.c ****     if(bar->cur_value > max) {
 136:Middlewares/LVGL/GUI/lvgl/src/widgets/lv_bar.c ****         bar->cur_value = max;
 137:Middlewares/LVGL/GUI/lvgl/src/widgets/lv_bar.c ****         lv_bar_set_value(obj, bar->cur_value, LV_ANIM_OFF);
 138:Middlewares/LVGL/GUI/lvgl/src/widgets/lv_bar.c ****     }
 139:Middlewares/LVGL/GUI/lvgl/src/widgets/lv_bar.c ****     if(bar->cur_value < min) {
 140:Middlewares/LVGL/GUI/lvgl/src/widgets/lv_bar.c ****         bar->cur_value = min;
 141:Middlewares/LVGL/GUI/lvgl/src/widgets/lv_bar.c ****         lv_bar_set_value(obj, bar->cur_value, LV_ANIM_OFF);
 142:Middlewares/LVGL/GUI/lvgl/src/widgets/lv_bar.c ****     }
 143:Middlewares/LVGL/GUI/lvgl/src/widgets/lv_bar.c ****     lv_obj_invalidate(obj);
 144:Middlewares/LVGL/GUI/lvgl/src/widgets/lv_bar.c **** }
 145:Middlewares/LVGL/GUI/lvgl/src/widgets/lv_bar.c **** 
 146:Middlewares/LVGL/GUI/lvgl/src/widgets/lv_bar.c **** void lv_bar_set_mode(lv_obj_t * obj, lv_bar_mode_t mode)
 147:Middlewares/LVGL/GUI/lvgl/src/widgets/lv_bar.c **** {
 148:Middlewares/LVGL/GUI/lvgl/src/widgets/lv_bar.c ****     LV_ASSERT_OBJ(obj, MY_CLASS);
 149:Middlewares/LVGL/GUI/lvgl/src/widgets/lv_bar.c ****     lv_bar_t * bar = (lv_bar_t *)obj;
 150:Middlewares/LVGL/GUI/lvgl/src/widgets/lv_bar.c **** 
 151:Middlewares/LVGL/GUI/lvgl/src/widgets/lv_bar.c ****     bar->mode = mode;
 152:Middlewares/LVGL/GUI/lvgl/src/widgets/lv_bar.c ****     if(bar->mode != LV_BAR_MODE_RANGE) {
 153:Middlewares/LVGL/GUI/lvgl/src/widgets/lv_bar.c ****         bar->start_value = bar->min_value;
 154:Middlewares/LVGL/GUI/lvgl/src/widgets/lv_bar.c ****     }
 155:Middlewares/LVGL/GUI/lvgl/src/widgets/lv_bar.c **** 
 156:Middlewares/LVGL/GUI/lvgl/src/widgets/lv_bar.c ****     lv_obj_invalidate(obj);
 157:Middlewares/LVGL/GUI/lvgl/src/widgets/lv_bar.c **** }
 158:Middlewares/LVGL/GUI/lvgl/src/widgets/lv_bar.c **** 
 159:Middlewares/LVGL/GUI/lvgl/src/widgets/lv_bar.c **** /*=====================
 160:Middlewares/LVGL/GUI/lvgl/src/widgets/lv_bar.c ****  * Getter functions
 161:Middlewares/LVGL/GUI/lvgl/src/widgets/lv_bar.c ****  *====================*/
 162:Middlewares/LVGL/GUI/lvgl/src/widgets/lv_bar.c **** 
 163:Middlewares/LVGL/GUI/lvgl/src/widgets/lv_bar.c **** int32_t lv_bar_get_value(const lv_obj_t * obj)
 164:Middlewares/LVGL/GUI/lvgl/src/widgets/lv_bar.c **** {
 165:Middlewares/LVGL/GUI/lvgl/src/widgets/lv_bar.c ****     LV_ASSERT_OBJ(obj, MY_CLASS);
 166:Middlewares/LVGL/GUI/lvgl/src/widgets/lv_bar.c ****     lv_bar_t * bar = (lv_bar_t *)obj;
 167:Middlewares/LVGL/GUI/lvgl/src/widgets/lv_bar.c **** 
 168:Middlewares/LVGL/GUI/lvgl/src/widgets/lv_bar.c ****     return LV_BAR_GET_ANIM_VALUE(bar->cur_value, bar->cur_value_anim);
 169:Middlewares/LVGL/GUI/lvgl/src/widgets/lv_bar.c **** }
 170:Middlewares/LVGL/GUI/lvgl/src/widgets/lv_bar.c **** 
 171:Middlewares/LVGL/GUI/lvgl/src/widgets/lv_bar.c **** int32_t lv_bar_get_start_value(const lv_obj_t * obj)
 172:Middlewares/LVGL/GUI/lvgl/src/widgets/lv_bar.c **** {
 173:Middlewares/LVGL/GUI/lvgl/src/widgets/lv_bar.c ****     LV_ASSERT_OBJ(obj, MY_CLASS);
 174:Middlewares/LVGL/GUI/lvgl/src/widgets/lv_bar.c ****     lv_bar_t * bar = (lv_bar_t *)obj;
 175:Middlewares/LVGL/GUI/lvgl/src/widgets/lv_bar.c **** 
 176:Middlewares/LVGL/GUI/lvgl/src/widgets/lv_bar.c ****     if(bar->mode != LV_BAR_MODE_RANGE) return bar->min_value;
 177:Middlewares/LVGL/GUI/lvgl/src/widgets/lv_bar.c **** 
 178:Middlewares/LVGL/GUI/lvgl/src/widgets/lv_bar.c ****     return LV_BAR_GET_ANIM_VALUE(bar->start_value, bar->start_value_anim);
 179:Middlewares/LVGL/GUI/lvgl/src/widgets/lv_bar.c **** }
 180:Middlewares/LVGL/GUI/lvgl/src/widgets/lv_bar.c **** 
 181:Middlewares/LVGL/GUI/lvgl/src/widgets/lv_bar.c **** int32_t lv_bar_get_min_value(const lv_obj_t * obj)
 182:Middlewares/LVGL/GUI/lvgl/src/widgets/lv_bar.c **** {
 183:Middlewares/LVGL/GUI/lvgl/src/widgets/lv_bar.c ****     LV_ASSERT_OBJ(obj, MY_CLASS);
ARM GAS  C:\Users\ADMINI~1\AppData\Local\Temp\cc93wSbm.s 			page 8


 184:Middlewares/LVGL/GUI/lvgl/src/widgets/lv_bar.c ****     lv_bar_t * bar = (lv_bar_t *)obj;
 185:Middlewares/LVGL/GUI/lvgl/src/widgets/lv_bar.c ****     return bar->min_value;
 186:Middlewares/LVGL/GUI/lvgl/src/widgets/lv_bar.c **** }
 187:Middlewares/LVGL/GUI/lvgl/src/widgets/lv_bar.c **** 
 188:Middlewares/LVGL/GUI/lvgl/src/widgets/lv_bar.c **** int32_t lv_bar_get_max_value(const lv_obj_t * obj)
 189:Middlewares/LVGL/GUI/lvgl/src/widgets/lv_bar.c **** {
 190:Middlewares/LVGL/GUI/lvgl/src/widgets/lv_bar.c ****     LV_ASSERT_OBJ(obj, MY_CLASS);
 191:Middlewares/LVGL/GUI/lvgl/src/widgets/lv_bar.c ****     lv_bar_t * bar = (lv_bar_t *)obj;
 192:Middlewares/LVGL/GUI/lvgl/src/widgets/lv_bar.c **** 
 193:Middlewares/LVGL/GUI/lvgl/src/widgets/lv_bar.c ****     return bar->max_value;
 194:Middlewares/LVGL/GUI/lvgl/src/widgets/lv_bar.c **** }
 195:Middlewares/LVGL/GUI/lvgl/src/widgets/lv_bar.c **** 
 196:Middlewares/LVGL/GUI/lvgl/src/widgets/lv_bar.c **** lv_bar_mode_t lv_bar_get_mode(lv_obj_t * obj)
 197:Middlewares/LVGL/GUI/lvgl/src/widgets/lv_bar.c **** {
 198:Middlewares/LVGL/GUI/lvgl/src/widgets/lv_bar.c ****     LV_ASSERT_OBJ(obj, MY_CLASS);
 199:Middlewares/LVGL/GUI/lvgl/src/widgets/lv_bar.c ****     lv_bar_t * bar = (lv_bar_t *)obj;
 200:Middlewares/LVGL/GUI/lvgl/src/widgets/lv_bar.c **** 
 201:Middlewares/LVGL/GUI/lvgl/src/widgets/lv_bar.c ****     return bar->mode;
 202:Middlewares/LVGL/GUI/lvgl/src/widgets/lv_bar.c **** }
 203:Middlewares/LVGL/GUI/lvgl/src/widgets/lv_bar.c **** 
 204:Middlewares/LVGL/GUI/lvgl/src/widgets/lv_bar.c **** /**********************
 205:Middlewares/LVGL/GUI/lvgl/src/widgets/lv_bar.c ****  *   STATIC FUNCTIONS
 206:Middlewares/LVGL/GUI/lvgl/src/widgets/lv_bar.c ****  **********************/
 207:Middlewares/LVGL/GUI/lvgl/src/widgets/lv_bar.c **** 
 208:Middlewares/LVGL/GUI/lvgl/src/widgets/lv_bar.c **** static void lv_bar_constructor(const lv_obj_class_t * class_p, lv_obj_t * obj)
 209:Middlewares/LVGL/GUI/lvgl/src/widgets/lv_bar.c **** {
 210:Middlewares/LVGL/GUI/lvgl/src/widgets/lv_bar.c ****     LV_UNUSED(class_p);
 211:Middlewares/LVGL/GUI/lvgl/src/widgets/lv_bar.c ****     LV_TRACE_OBJ_CREATE("begin");
 212:Middlewares/LVGL/GUI/lvgl/src/widgets/lv_bar.c **** 
 213:Middlewares/LVGL/GUI/lvgl/src/widgets/lv_bar.c ****     lv_bar_t * bar = (lv_bar_t *)obj;
 214:Middlewares/LVGL/GUI/lvgl/src/widgets/lv_bar.c ****     bar->min_value = 0;
 215:Middlewares/LVGL/GUI/lvgl/src/widgets/lv_bar.c ****     bar->max_value = 100;
 216:Middlewares/LVGL/GUI/lvgl/src/widgets/lv_bar.c ****     bar->start_value = 0;
 217:Middlewares/LVGL/GUI/lvgl/src/widgets/lv_bar.c ****     bar->cur_value = 0;
 218:Middlewares/LVGL/GUI/lvgl/src/widgets/lv_bar.c ****     bar->indic_area.x1 = 0;
 219:Middlewares/LVGL/GUI/lvgl/src/widgets/lv_bar.c ****     bar->indic_area.x2 = 0;
 220:Middlewares/LVGL/GUI/lvgl/src/widgets/lv_bar.c ****     bar->indic_area.y1 = 0;
 221:Middlewares/LVGL/GUI/lvgl/src/widgets/lv_bar.c ****     bar->indic_area.y2 = 0;
 222:Middlewares/LVGL/GUI/lvgl/src/widgets/lv_bar.c ****     bar->mode = LV_BAR_MODE_NORMAL;
 223:Middlewares/LVGL/GUI/lvgl/src/widgets/lv_bar.c **** 
 224:Middlewares/LVGL/GUI/lvgl/src/widgets/lv_bar.c ****     lv_bar_init_anim(obj, &bar->cur_value_anim);
 225:Middlewares/LVGL/GUI/lvgl/src/widgets/lv_bar.c ****     lv_bar_init_anim(obj, &bar->start_value_anim);
 226:Middlewares/LVGL/GUI/lvgl/src/widgets/lv_bar.c **** 
 227:Middlewares/LVGL/GUI/lvgl/src/widgets/lv_bar.c ****     lv_obj_clear_flag(obj, LV_OBJ_FLAG_CHECKABLE);
 228:Middlewares/LVGL/GUI/lvgl/src/widgets/lv_bar.c ****     lv_obj_clear_flag(obj, LV_OBJ_FLAG_SCROLLABLE);
 229:Middlewares/LVGL/GUI/lvgl/src/widgets/lv_bar.c ****     lv_bar_set_value(obj, 0, LV_ANIM_OFF);
 230:Middlewares/LVGL/GUI/lvgl/src/widgets/lv_bar.c **** 
 231:Middlewares/LVGL/GUI/lvgl/src/widgets/lv_bar.c ****     LV_TRACE_OBJ_CREATE("finished");
 232:Middlewares/LVGL/GUI/lvgl/src/widgets/lv_bar.c **** }
 233:Middlewares/LVGL/GUI/lvgl/src/widgets/lv_bar.c **** 
 234:Middlewares/LVGL/GUI/lvgl/src/widgets/lv_bar.c **** static void lv_bar_destructor(const lv_obj_class_t * class_p, lv_obj_t * obj)
 235:Middlewares/LVGL/GUI/lvgl/src/widgets/lv_bar.c **** {
 236:Middlewares/LVGL/GUI/lvgl/src/widgets/lv_bar.c ****     LV_UNUSED(class_p);
 237:Middlewares/LVGL/GUI/lvgl/src/widgets/lv_bar.c ****     lv_bar_t * bar = (lv_bar_t *)obj;
 238:Middlewares/LVGL/GUI/lvgl/src/widgets/lv_bar.c **** 
 239:Middlewares/LVGL/GUI/lvgl/src/widgets/lv_bar.c ****     lv_anim_del(&bar->cur_value_anim, NULL);
 240:Middlewares/LVGL/GUI/lvgl/src/widgets/lv_bar.c ****     lv_anim_del(&bar->start_value_anim, NULL);
ARM GAS  C:\Users\ADMINI~1\AppData\Local\Temp\cc93wSbm.s 			page 9


 241:Middlewares/LVGL/GUI/lvgl/src/widgets/lv_bar.c **** }
 242:Middlewares/LVGL/GUI/lvgl/src/widgets/lv_bar.c **** 
 243:Middlewares/LVGL/GUI/lvgl/src/widgets/lv_bar.c **** static void draw_indic(lv_event_t * e)
 244:Middlewares/LVGL/GUI/lvgl/src/widgets/lv_bar.c **** {
 245:Middlewares/LVGL/GUI/lvgl/src/widgets/lv_bar.c ****     lv_obj_t * obj = lv_event_get_target(e);
 246:Middlewares/LVGL/GUI/lvgl/src/widgets/lv_bar.c ****     lv_bar_t * bar = (lv_bar_t *)obj;
 247:Middlewares/LVGL/GUI/lvgl/src/widgets/lv_bar.c **** 
 248:Middlewares/LVGL/GUI/lvgl/src/widgets/lv_bar.c ****     lv_draw_ctx_t * draw_ctx = lv_event_get_draw_ctx(e);
 249:Middlewares/LVGL/GUI/lvgl/src/widgets/lv_bar.c **** 
 250:Middlewares/LVGL/GUI/lvgl/src/widgets/lv_bar.c ****     lv_area_t bar_coords;
 251:Middlewares/LVGL/GUI/lvgl/src/widgets/lv_bar.c ****     lv_obj_get_coords(obj, &bar_coords);
 252:Middlewares/LVGL/GUI/lvgl/src/widgets/lv_bar.c **** 
 253:Middlewares/LVGL/GUI/lvgl/src/widgets/lv_bar.c ****     lv_coord_t transf_w = lv_obj_get_style_transform_width(obj, LV_PART_MAIN);
 254:Middlewares/LVGL/GUI/lvgl/src/widgets/lv_bar.c ****     lv_coord_t transf_h = lv_obj_get_style_transform_height(obj, LV_PART_MAIN);
 255:Middlewares/LVGL/GUI/lvgl/src/widgets/lv_bar.c ****     bar_coords.x1 -= transf_w;
 256:Middlewares/LVGL/GUI/lvgl/src/widgets/lv_bar.c ****     bar_coords.x2 += transf_w;
 257:Middlewares/LVGL/GUI/lvgl/src/widgets/lv_bar.c ****     bar_coords.y1 -= transf_h;
 258:Middlewares/LVGL/GUI/lvgl/src/widgets/lv_bar.c ****     bar_coords.y2 += transf_h;
 259:Middlewares/LVGL/GUI/lvgl/src/widgets/lv_bar.c ****     lv_coord_t barw = lv_area_get_width(&bar_coords);
 260:Middlewares/LVGL/GUI/lvgl/src/widgets/lv_bar.c ****     lv_coord_t barh = lv_area_get_height(&bar_coords);
 261:Middlewares/LVGL/GUI/lvgl/src/widgets/lv_bar.c ****     int32_t range = bar->max_value - bar->min_value;
 262:Middlewares/LVGL/GUI/lvgl/src/widgets/lv_bar.c ****     bool hor = barw >= barh ? true : false;
 263:Middlewares/LVGL/GUI/lvgl/src/widgets/lv_bar.c ****     bool sym = false;
 264:Middlewares/LVGL/GUI/lvgl/src/widgets/lv_bar.c ****     if(bar->mode == LV_BAR_MODE_SYMMETRICAL && bar->min_value < 0 && bar->max_value > 0 &&
 265:Middlewares/LVGL/GUI/lvgl/src/widgets/lv_bar.c ****        bar->start_value == bar->min_value) sym = true;
 266:Middlewares/LVGL/GUI/lvgl/src/widgets/lv_bar.c **** 
 267:Middlewares/LVGL/GUI/lvgl/src/widgets/lv_bar.c ****     /*Calculate the indicator area*/
 268:Middlewares/LVGL/GUI/lvgl/src/widgets/lv_bar.c ****     lv_coord_t bg_left = lv_obj_get_style_pad_left(obj,     LV_PART_MAIN);
 269:Middlewares/LVGL/GUI/lvgl/src/widgets/lv_bar.c ****     lv_coord_t bg_right = lv_obj_get_style_pad_right(obj,   LV_PART_MAIN);
 270:Middlewares/LVGL/GUI/lvgl/src/widgets/lv_bar.c ****     lv_coord_t bg_top = lv_obj_get_style_pad_top(obj,       LV_PART_MAIN);
 271:Middlewares/LVGL/GUI/lvgl/src/widgets/lv_bar.c ****     lv_coord_t bg_bottom = lv_obj_get_style_pad_bottom(obj, LV_PART_MAIN);
 272:Middlewares/LVGL/GUI/lvgl/src/widgets/lv_bar.c ****     /*Respect padding and minimum width/height too*/
 273:Middlewares/LVGL/GUI/lvgl/src/widgets/lv_bar.c ****     lv_area_copy(&bar->indic_area, &bar_coords);
 274:Middlewares/LVGL/GUI/lvgl/src/widgets/lv_bar.c ****     bar->indic_area.x1 += bg_left;
 275:Middlewares/LVGL/GUI/lvgl/src/widgets/lv_bar.c ****     bar->indic_area.x2 -= bg_right;
 276:Middlewares/LVGL/GUI/lvgl/src/widgets/lv_bar.c ****     bar->indic_area.y1 += bg_top;
 277:Middlewares/LVGL/GUI/lvgl/src/widgets/lv_bar.c ****     bar->indic_area.y2 -= bg_bottom;
 278:Middlewares/LVGL/GUI/lvgl/src/widgets/lv_bar.c **** 
 279:Middlewares/LVGL/GUI/lvgl/src/widgets/lv_bar.c ****     if(hor && lv_area_get_height(&bar->indic_area) < LV_BAR_SIZE_MIN) {
 280:Middlewares/LVGL/GUI/lvgl/src/widgets/lv_bar.c ****         bar->indic_area.y1 = obj->coords.y1 + (barh / 2) - (LV_BAR_SIZE_MIN / 2);
 281:Middlewares/LVGL/GUI/lvgl/src/widgets/lv_bar.c ****         bar->indic_area.y2 = bar->indic_area.y1 + LV_BAR_SIZE_MIN;
 282:Middlewares/LVGL/GUI/lvgl/src/widgets/lv_bar.c ****     }
 283:Middlewares/LVGL/GUI/lvgl/src/widgets/lv_bar.c ****     else if(!hor && lv_area_get_width(&bar->indic_area) < LV_BAR_SIZE_MIN) {
 284:Middlewares/LVGL/GUI/lvgl/src/widgets/lv_bar.c ****         bar->indic_area.x1 = obj->coords.x1 + (barw / 2) - (LV_BAR_SIZE_MIN / 2);
 285:Middlewares/LVGL/GUI/lvgl/src/widgets/lv_bar.c ****         bar->indic_area.x2 = bar->indic_area.x1 + LV_BAR_SIZE_MIN;
 286:Middlewares/LVGL/GUI/lvgl/src/widgets/lv_bar.c ****     }
 287:Middlewares/LVGL/GUI/lvgl/src/widgets/lv_bar.c **** 
 288:Middlewares/LVGL/GUI/lvgl/src/widgets/lv_bar.c ****     lv_coord_t indicw = lv_area_get_width(&bar->indic_area);
 289:Middlewares/LVGL/GUI/lvgl/src/widgets/lv_bar.c ****     lv_coord_t indich = lv_area_get_height(&bar->indic_area);
 290:Middlewares/LVGL/GUI/lvgl/src/widgets/lv_bar.c **** 
 291:Middlewares/LVGL/GUI/lvgl/src/widgets/lv_bar.c ****     /*Calculate the indicator length*/
 292:Middlewares/LVGL/GUI/lvgl/src/widgets/lv_bar.c ****     lv_coord_t anim_length = hor ? indicw : indich;
 293:Middlewares/LVGL/GUI/lvgl/src/widgets/lv_bar.c **** 
 294:Middlewares/LVGL/GUI/lvgl/src/widgets/lv_bar.c ****     lv_coord_t anim_cur_value_x, anim_start_value_x;
 295:Middlewares/LVGL/GUI/lvgl/src/widgets/lv_bar.c **** 
 296:Middlewares/LVGL/GUI/lvgl/src/widgets/lv_bar.c ****     lv_coord_t * axis1, * axis2;
 297:Middlewares/LVGL/GUI/lvgl/src/widgets/lv_bar.c ****     lv_coord_t (*indic_length_calc)(const lv_area_t * area);
ARM GAS  C:\Users\ADMINI~1\AppData\Local\Temp\cc93wSbm.s 			page 10


 298:Middlewares/LVGL/GUI/lvgl/src/widgets/lv_bar.c **** 
 299:Middlewares/LVGL/GUI/lvgl/src/widgets/lv_bar.c ****     if(hor) {
 300:Middlewares/LVGL/GUI/lvgl/src/widgets/lv_bar.c ****         axis1 = &bar->indic_area.x1;
 301:Middlewares/LVGL/GUI/lvgl/src/widgets/lv_bar.c ****         axis2 = &bar->indic_area.x2;
 302:Middlewares/LVGL/GUI/lvgl/src/widgets/lv_bar.c ****         indic_length_calc = lv_area_get_width;
 303:Middlewares/LVGL/GUI/lvgl/src/widgets/lv_bar.c ****     }
 304:Middlewares/LVGL/GUI/lvgl/src/widgets/lv_bar.c ****     else {
 305:Middlewares/LVGL/GUI/lvgl/src/widgets/lv_bar.c ****         axis1 = &bar->indic_area.y1;
 306:Middlewares/LVGL/GUI/lvgl/src/widgets/lv_bar.c ****         axis2 = &bar->indic_area.y2;
 307:Middlewares/LVGL/GUI/lvgl/src/widgets/lv_bar.c ****         indic_length_calc = lv_area_get_height;
 308:Middlewares/LVGL/GUI/lvgl/src/widgets/lv_bar.c ****     }
 309:Middlewares/LVGL/GUI/lvgl/src/widgets/lv_bar.c **** 
 310:Middlewares/LVGL/GUI/lvgl/src/widgets/lv_bar.c ****     if(LV_BAR_IS_ANIMATING(bar->start_value_anim)) {
 311:Middlewares/LVGL/GUI/lvgl/src/widgets/lv_bar.c ****         lv_coord_t anim_start_value_start_x =
 312:Middlewares/LVGL/GUI/lvgl/src/widgets/lv_bar.c ****             (int32_t)((int32_t)anim_length * (bar->start_value_anim.anim_start - bar->min_value)) /
 313:Middlewares/LVGL/GUI/lvgl/src/widgets/lv_bar.c ****         lv_coord_t anim_start_value_end_x =
 314:Middlewares/LVGL/GUI/lvgl/src/widgets/lv_bar.c ****             (int32_t)((int32_t)anim_length * (bar->start_value_anim.anim_end - bar->min_value)) / r
 315:Middlewares/LVGL/GUI/lvgl/src/widgets/lv_bar.c **** 
 316:Middlewares/LVGL/GUI/lvgl/src/widgets/lv_bar.c ****         anim_start_value_x = (((anim_start_value_end_x - anim_start_value_start_x) * bar->start_val
 317:Middlewares/LVGL/GUI/lvgl/src/widgets/lv_bar.c ****                               LV_BAR_ANIM_STATE_END);
 318:Middlewares/LVGL/GUI/lvgl/src/widgets/lv_bar.c **** 
 319:Middlewares/LVGL/GUI/lvgl/src/widgets/lv_bar.c ****         anim_start_value_x += anim_start_value_start_x;
 320:Middlewares/LVGL/GUI/lvgl/src/widgets/lv_bar.c ****     }
 321:Middlewares/LVGL/GUI/lvgl/src/widgets/lv_bar.c ****     else {
 322:Middlewares/LVGL/GUI/lvgl/src/widgets/lv_bar.c ****         anim_start_value_x = (int32_t)((int32_t)anim_length * (bar->start_value - bar->min_value)) 
 323:Middlewares/LVGL/GUI/lvgl/src/widgets/lv_bar.c ****     }
 324:Middlewares/LVGL/GUI/lvgl/src/widgets/lv_bar.c **** 
 325:Middlewares/LVGL/GUI/lvgl/src/widgets/lv_bar.c ****     if(LV_BAR_IS_ANIMATING(bar->cur_value_anim)) {
 326:Middlewares/LVGL/GUI/lvgl/src/widgets/lv_bar.c ****         lv_coord_t anim_cur_value_start_x =
 327:Middlewares/LVGL/GUI/lvgl/src/widgets/lv_bar.c ****             (int32_t)((int32_t)anim_length * (bar->cur_value_anim.anim_start - bar->min_value)) / r
 328:Middlewares/LVGL/GUI/lvgl/src/widgets/lv_bar.c ****         lv_coord_t anim_cur_value_end_x =
 329:Middlewares/LVGL/GUI/lvgl/src/widgets/lv_bar.c ****             (int32_t)((int32_t)anim_length * (bar->cur_value_anim.anim_end - bar->min_value)) / ran
 330:Middlewares/LVGL/GUI/lvgl/src/widgets/lv_bar.c **** 
 331:Middlewares/LVGL/GUI/lvgl/src/widgets/lv_bar.c ****         anim_cur_value_x = anim_cur_value_start_x + (((anim_cur_value_end_x - anim_cur_value_start_
 332:Middlewares/LVGL/GUI/lvgl/src/widgets/lv_bar.c ****                                                       bar->cur_value_anim.anim_state) /
 333:Middlewares/LVGL/GUI/lvgl/src/widgets/lv_bar.c ****                                                      LV_BAR_ANIM_STATE_END);
 334:Middlewares/LVGL/GUI/lvgl/src/widgets/lv_bar.c ****     }
 335:Middlewares/LVGL/GUI/lvgl/src/widgets/lv_bar.c ****     else {
 336:Middlewares/LVGL/GUI/lvgl/src/widgets/lv_bar.c ****         anim_cur_value_x = (int32_t)((int32_t)anim_length * (bar->cur_value - bar->min_value)) / ra
 337:Middlewares/LVGL/GUI/lvgl/src/widgets/lv_bar.c ****     }
 338:Middlewares/LVGL/GUI/lvgl/src/widgets/lv_bar.c **** 
 339:Middlewares/LVGL/GUI/lvgl/src/widgets/lv_bar.c ****     lv_base_dir_t base_dir = lv_obj_get_style_base_dir(obj, LV_PART_MAIN);
 340:Middlewares/LVGL/GUI/lvgl/src/widgets/lv_bar.c ****     if(hor && base_dir == LV_BASE_DIR_RTL) {
 341:Middlewares/LVGL/GUI/lvgl/src/widgets/lv_bar.c ****         /*Swap axes*/
 342:Middlewares/LVGL/GUI/lvgl/src/widgets/lv_bar.c ****         lv_coord_t * tmp;
 343:Middlewares/LVGL/GUI/lvgl/src/widgets/lv_bar.c ****         tmp = axis1;
 344:Middlewares/LVGL/GUI/lvgl/src/widgets/lv_bar.c ****         axis1 = axis2;
 345:Middlewares/LVGL/GUI/lvgl/src/widgets/lv_bar.c ****         axis2 = tmp;
 346:Middlewares/LVGL/GUI/lvgl/src/widgets/lv_bar.c ****         anim_cur_value_x = -anim_cur_value_x;
 347:Middlewares/LVGL/GUI/lvgl/src/widgets/lv_bar.c ****         anim_start_value_x = -anim_start_value_x;
 348:Middlewares/LVGL/GUI/lvgl/src/widgets/lv_bar.c ****     }
 349:Middlewares/LVGL/GUI/lvgl/src/widgets/lv_bar.c **** 
 350:Middlewares/LVGL/GUI/lvgl/src/widgets/lv_bar.c ****     /*Set the indicator length*/
 351:Middlewares/LVGL/GUI/lvgl/src/widgets/lv_bar.c ****     if(hor) {
 352:Middlewares/LVGL/GUI/lvgl/src/widgets/lv_bar.c ****         *axis2 = *axis1 + anim_cur_value_x;
 353:Middlewares/LVGL/GUI/lvgl/src/widgets/lv_bar.c ****         *axis1 += anim_start_value_x;
 354:Middlewares/LVGL/GUI/lvgl/src/widgets/lv_bar.c ****     }
ARM GAS  C:\Users\ADMINI~1\AppData\Local\Temp\cc93wSbm.s 			page 11


 355:Middlewares/LVGL/GUI/lvgl/src/widgets/lv_bar.c ****     else {
 356:Middlewares/LVGL/GUI/lvgl/src/widgets/lv_bar.c ****         *axis1 = *axis2 - anim_cur_value_x + 1;
 357:Middlewares/LVGL/GUI/lvgl/src/widgets/lv_bar.c ****         *axis2 -= anim_start_value_x;
 358:Middlewares/LVGL/GUI/lvgl/src/widgets/lv_bar.c ****     }
 359:Middlewares/LVGL/GUI/lvgl/src/widgets/lv_bar.c ****     if(sym) {
 360:Middlewares/LVGL/GUI/lvgl/src/widgets/lv_bar.c ****         lv_coord_t zero, shift;
 361:Middlewares/LVGL/GUI/lvgl/src/widgets/lv_bar.c ****         shift = (-bar->min_value * anim_length) / range;
 362:Middlewares/LVGL/GUI/lvgl/src/widgets/lv_bar.c ****         if(hor) {
 363:Middlewares/LVGL/GUI/lvgl/src/widgets/lv_bar.c ****             zero = *axis1 + shift;
 364:Middlewares/LVGL/GUI/lvgl/src/widgets/lv_bar.c ****             if(*axis2 > zero)
 365:Middlewares/LVGL/GUI/lvgl/src/widgets/lv_bar.c ****                 *axis1 = zero;
 366:Middlewares/LVGL/GUI/lvgl/src/widgets/lv_bar.c ****             else {
 367:Middlewares/LVGL/GUI/lvgl/src/widgets/lv_bar.c ****                 *axis1 = *axis2;
 368:Middlewares/LVGL/GUI/lvgl/src/widgets/lv_bar.c ****                 *axis2 = zero;
 369:Middlewares/LVGL/GUI/lvgl/src/widgets/lv_bar.c ****             }
 370:Middlewares/LVGL/GUI/lvgl/src/widgets/lv_bar.c ****         }
 371:Middlewares/LVGL/GUI/lvgl/src/widgets/lv_bar.c ****         else {
 372:Middlewares/LVGL/GUI/lvgl/src/widgets/lv_bar.c ****             zero = *axis2 - shift + 1;
 373:Middlewares/LVGL/GUI/lvgl/src/widgets/lv_bar.c ****             if(*axis1 > zero)
 374:Middlewares/LVGL/GUI/lvgl/src/widgets/lv_bar.c ****                 *axis2 = zero;
 375:Middlewares/LVGL/GUI/lvgl/src/widgets/lv_bar.c ****             else {
 376:Middlewares/LVGL/GUI/lvgl/src/widgets/lv_bar.c ****                 *axis2 = *axis1;
 377:Middlewares/LVGL/GUI/lvgl/src/widgets/lv_bar.c ****                 *axis1 = zero;
 378:Middlewares/LVGL/GUI/lvgl/src/widgets/lv_bar.c ****             }
 379:Middlewares/LVGL/GUI/lvgl/src/widgets/lv_bar.c ****             if(*axis2 < *axis1) {
 380:Middlewares/LVGL/GUI/lvgl/src/widgets/lv_bar.c ****                 /*swap*/
 381:Middlewares/LVGL/GUI/lvgl/src/widgets/lv_bar.c ****                 zero = *axis1;
 382:Middlewares/LVGL/GUI/lvgl/src/widgets/lv_bar.c ****                 *axis1 = *axis2;
 383:Middlewares/LVGL/GUI/lvgl/src/widgets/lv_bar.c ****                 *axis2 = zero;
 384:Middlewares/LVGL/GUI/lvgl/src/widgets/lv_bar.c ****             }
 385:Middlewares/LVGL/GUI/lvgl/src/widgets/lv_bar.c ****         }
 386:Middlewares/LVGL/GUI/lvgl/src/widgets/lv_bar.c ****     }
 387:Middlewares/LVGL/GUI/lvgl/src/widgets/lv_bar.c **** 
 388:Middlewares/LVGL/GUI/lvgl/src/widgets/lv_bar.c ****     /*Do not draw a zero length indicator but at least call the draw part events*/
 389:Middlewares/LVGL/GUI/lvgl/src/widgets/lv_bar.c ****     if(!sym && indic_length_calc(&bar->indic_area) <= 1) {
 390:Middlewares/LVGL/GUI/lvgl/src/widgets/lv_bar.c **** 
 391:Middlewares/LVGL/GUI/lvgl/src/widgets/lv_bar.c ****         lv_obj_draw_part_dsc_t part_draw_dsc;
 392:Middlewares/LVGL/GUI/lvgl/src/widgets/lv_bar.c ****         lv_obj_draw_dsc_init(&part_draw_dsc, draw_ctx);
 393:Middlewares/LVGL/GUI/lvgl/src/widgets/lv_bar.c ****         part_draw_dsc.part = LV_PART_INDICATOR;
 394:Middlewares/LVGL/GUI/lvgl/src/widgets/lv_bar.c ****         part_draw_dsc.class_p = MY_CLASS;
 395:Middlewares/LVGL/GUI/lvgl/src/widgets/lv_bar.c ****         part_draw_dsc.type = LV_BAR_DRAW_PART_INDICATOR;
 396:Middlewares/LVGL/GUI/lvgl/src/widgets/lv_bar.c ****         part_draw_dsc.draw_area = &bar->indic_area;
 397:Middlewares/LVGL/GUI/lvgl/src/widgets/lv_bar.c **** 
 398:Middlewares/LVGL/GUI/lvgl/src/widgets/lv_bar.c ****         lv_event_send(obj, LV_EVENT_DRAW_PART_BEGIN, &part_draw_dsc);
 399:Middlewares/LVGL/GUI/lvgl/src/widgets/lv_bar.c ****         lv_event_send(obj, LV_EVENT_DRAW_PART_END, &part_draw_dsc);
 400:Middlewares/LVGL/GUI/lvgl/src/widgets/lv_bar.c ****         return;
 401:Middlewares/LVGL/GUI/lvgl/src/widgets/lv_bar.c ****     }
 402:Middlewares/LVGL/GUI/lvgl/src/widgets/lv_bar.c **** 
 403:Middlewares/LVGL/GUI/lvgl/src/widgets/lv_bar.c ****     lv_area_t indic_area;
 404:Middlewares/LVGL/GUI/lvgl/src/widgets/lv_bar.c ****     lv_area_copy(&indic_area, &bar->indic_area);
 405:Middlewares/LVGL/GUI/lvgl/src/widgets/lv_bar.c **** 
 406:Middlewares/LVGL/GUI/lvgl/src/widgets/lv_bar.c ****     lv_draw_rect_dsc_t draw_rect_dsc;
 407:Middlewares/LVGL/GUI/lvgl/src/widgets/lv_bar.c ****     lv_draw_rect_dsc_init(&draw_rect_dsc);
 408:Middlewares/LVGL/GUI/lvgl/src/widgets/lv_bar.c ****     lv_obj_init_draw_rect_dsc(obj, LV_PART_INDICATOR, &draw_rect_dsc);
 409:Middlewares/LVGL/GUI/lvgl/src/widgets/lv_bar.c **** 
 410:Middlewares/LVGL/GUI/lvgl/src/widgets/lv_bar.c ****     lv_obj_draw_part_dsc_t part_draw_dsc;
 411:Middlewares/LVGL/GUI/lvgl/src/widgets/lv_bar.c ****     lv_obj_draw_dsc_init(&part_draw_dsc, draw_ctx);
ARM GAS  C:\Users\ADMINI~1\AppData\Local\Temp\cc93wSbm.s 			page 12


 412:Middlewares/LVGL/GUI/lvgl/src/widgets/lv_bar.c ****     part_draw_dsc.part = LV_PART_INDICATOR;
 413:Middlewares/LVGL/GUI/lvgl/src/widgets/lv_bar.c ****     part_draw_dsc.class_p = MY_CLASS;
 414:Middlewares/LVGL/GUI/lvgl/src/widgets/lv_bar.c ****     part_draw_dsc.type = LV_BAR_DRAW_PART_INDICATOR;
 415:Middlewares/LVGL/GUI/lvgl/src/widgets/lv_bar.c ****     part_draw_dsc.rect_dsc = &draw_rect_dsc;
 416:Middlewares/LVGL/GUI/lvgl/src/widgets/lv_bar.c ****     part_draw_dsc.draw_area = &bar->indic_area;
 417:Middlewares/LVGL/GUI/lvgl/src/widgets/lv_bar.c **** 
 418:Middlewares/LVGL/GUI/lvgl/src/widgets/lv_bar.c ****     lv_event_send(obj, LV_EVENT_DRAW_PART_BEGIN, &part_draw_dsc);
 419:Middlewares/LVGL/GUI/lvgl/src/widgets/lv_bar.c **** 
 420:Middlewares/LVGL/GUI/lvgl/src/widgets/lv_bar.c ****     lv_coord_t bg_radius = lv_obj_get_style_radius(obj, LV_PART_MAIN);
 421:Middlewares/LVGL/GUI/lvgl/src/widgets/lv_bar.c ****     lv_coord_t short_side = LV_MIN(barw, barh);
 422:Middlewares/LVGL/GUI/lvgl/src/widgets/lv_bar.c ****     if(bg_radius > short_side >> 1) bg_radius = short_side >> 1;
 423:Middlewares/LVGL/GUI/lvgl/src/widgets/lv_bar.c **** 
 424:Middlewares/LVGL/GUI/lvgl/src/widgets/lv_bar.c ****     lv_coord_t indic_radius = draw_rect_dsc.radius;
 425:Middlewares/LVGL/GUI/lvgl/src/widgets/lv_bar.c ****     short_side = LV_MIN(indicw, indich);
 426:Middlewares/LVGL/GUI/lvgl/src/widgets/lv_bar.c ****     if(indic_radius > short_side >> 1) indic_radius = short_side >> 1;
 427:Middlewares/LVGL/GUI/lvgl/src/widgets/lv_bar.c **** 
 428:Middlewares/LVGL/GUI/lvgl/src/widgets/lv_bar.c ****     /*Draw only the shadow and outline only if the indicator is long enough.
 429:Middlewares/LVGL/GUI/lvgl/src/widgets/lv_bar.c ****      *The radius of the bg and the indicator can make a strange shape where
 430:Middlewares/LVGL/GUI/lvgl/src/widgets/lv_bar.c ****      *it'd be very difficult to draw shadow.*/
 431:Middlewares/LVGL/GUI/lvgl/src/widgets/lv_bar.c ****     if((hor && lv_area_get_width(&bar->indic_area) > indic_radius * 2) ||
 432:Middlewares/LVGL/GUI/lvgl/src/widgets/lv_bar.c ****        (!hor && lv_area_get_height(&bar->indic_area) > indic_radius * 2)) {
 433:Middlewares/LVGL/GUI/lvgl/src/widgets/lv_bar.c ****         lv_opa_t bg_opa = draw_rect_dsc.bg_opa;
 434:Middlewares/LVGL/GUI/lvgl/src/widgets/lv_bar.c ****         lv_opa_t bg_img_opa = draw_rect_dsc.bg_img_opa;
 435:Middlewares/LVGL/GUI/lvgl/src/widgets/lv_bar.c ****         lv_opa_t border_opa = draw_rect_dsc.border_opa;
 436:Middlewares/LVGL/GUI/lvgl/src/widgets/lv_bar.c ****         draw_rect_dsc.bg_opa = LV_OPA_TRANSP;
 437:Middlewares/LVGL/GUI/lvgl/src/widgets/lv_bar.c ****         draw_rect_dsc.bg_img_opa = LV_OPA_TRANSP;
 438:Middlewares/LVGL/GUI/lvgl/src/widgets/lv_bar.c ****         draw_rect_dsc.border_opa = LV_OPA_TRANSP;
 439:Middlewares/LVGL/GUI/lvgl/src/widgets/lv_bar.c **** 
 440:Middlewares/LVGL/GUI/lvgl/src/widgets/lv_bar.c ****         lv_draw_rect(draw_ctx, &draw_rect_dsc, &bar->indic_area);
 441:Middlewares/LVGL/GUI/lvgl/src/widgets/lv_bar.c **** 
 442:Middlewares/LVGL/GUI/lvgl/src/widgets/lv_bar.c ****         draw_rect_dsc.bg_opa = bg_opa;
 443:Middlewares/LVGL/GUI/lvgl/src/widgets/lv_bar.c ****         draw_rect_dsc.bg_img_opa = bg_img_opa;
 444:Middlewares/LVGL/GUI/lvgl/src/widgets/lv_bar.c ****         draw_rect_dsc.border_opa = border_opa;
 445:Middlewares/LVGL/GUI/lvgl/src/widgets/lv_bar.c ****     }
 446:Middlewares/LVGL/GUI/lvgl/src/widgets/lv_bar.c **** 
 447:Middlewares/LVGL/GUI/lvgl/src/widgets/lv_bar.c **** #if LV_DRAW_COMPLEX
 448:Middlewares/LVGL/GUI/lvgl/src/widgets/lv_bar.c ****     lv_draw_mask_radius_param_t mask_bg_param;
 449:Middlewares/LVGL/GUI/lvgl/src/widgets/lv_bar.c ****     lv_area_t bg_mask_area;
 450:Middlewares/LVGL/GUI/lvgl/src/widgets/lv_bar.c ****     bg_mask_area.x1 = obj->coords.x1 + bg_left;
 451:Middlewares/LVGL/GUI/lvgl/src/widgets/lv_bar.c ****     bg_mask_area.x2 = obj->coords.x2 - bg_right;
 452:Middlewares/LVGL/GUI/lvgl/src/widgets/lv_bar.c ****     bg_mask_area.y1 = obj->coords.y1 + bg_top;
 453:Middlewares/LVGL/GUI/lvgl/src/widgets/lv_bar.c ****     bg_mask_area.y2 = obj->coords.y2 - bg_bottom;
 454:Middlewares/LVGL/GUI/lvgl/src/widgets/lv_bar.c **** 
 455:Middlewares/LVGL/GUI/lvgl/src/widgets/lv_bar.c ****     lv_draw_mask_radius_init(&mask_bg_param, &bg_mask_area, bg_radius, false);
 456:Middlewares/LVGL/GUI/lvgl/src/widgets/lv_bar.c ****     lv_coord_t mask_bg_id = lv_draw_mask_add(&mask_bg_param, NULL);
 457:Middlewares/LVGL/GUI/lvgl/src/widgets/lv_bar.c **** #endif
 458:Middlewares/LVGL/GUI/lvgl/src/widgets/lv_bar.c **** 
 459:Middlewares/LVGL/GUI/lvgl/src/widgets/lv_bar.c ****     /*Draw_only the background and background image*/
 460:Middlewares/LVGL/GUI/lvgl/src/widgets/lv_bar.c ****     lv_opa_t shadow_opa = draw_rect_dsc.shadow_opa;
 461:Middlewares/LVGL/GUI/lvgl/src/widgets/lv_bar.c ****     lv_opa_t border_opa = draw_rect_dsc.border_opa;
 462:Middlewares/LVGL/GUI/lvgl/src/widgets/lv_bar.c ****     draw_rect_dsc.border_opa = LV_OPA_TRANSP;
 463:Middlewares/LVGL/GUI/lvgl/src/widgets/lv_bar.c ****     draw_rect_dsc.shadow_opa = LV_OPA_TRANSP;
 464:Middlewares/LVGL/GUI/lvgl/src/widgets/lv_bar.c **** 
 465:Middlewares/LVGL/GUI/lvgl/src/widgets/lv_bar.c ****     /*Get the max possible indicator area. The gradient should be applied on this*/
 466:Middlewares/LVGL/GUI/lvgl/src/widgets/lv_bar.c ****     lv_area_t mask_indic_max_area;
 467:Middlewares/LVGL/GUI/lvgl/src/widgets/lv_bar.c ****     lv_area_copy(&mask_indic_max_area, &bar_coords);
 468:Middlewares/LVGL/GUI/lvgl/src/widgets/lv_bar.c ****     mask_indic_max_area.x1 += bg_left;
ARM GAS  C:\Users\ADMINI~1\AppData\Local\Temp\cc93wSbm.s 			page 13


 469:Middlewares/LVGL/GUI/lvgl/src/widgets/lv_bar.c ****     mask_indic_max_area.y1 += bg_top;
 470:Middlewares/LVGL/GUI/lvgl/src/widgets/lv_bar.c ****     mask_indic_max_area.x2 -= bg_right;
 471:Middlewares/LVGL/GUI/lvgl/src/widgets/lv_bar.c ****     mask_indic_max_area.y2 -= bg_bottom;
 472:Middlewares/LVGL/GUI/lvgl/src/widgets/lv_bar.c ****     if(hor && lv_area_get_height(&mask_indic_max_area) < LV_BAR_SIZE_MIN) {
 473:Middlewares/LVGL/GUI/lvgl/src/widgets/lv_bar.c ****         mask_indic_max_area.y1 = obj->coords.y1 + (barh / 2) - (LV_BAR_SIZE_MIN / 2);
 474:Middlewares/LVGL/GUI/lvgl/src/widgets/lv_bar.c ****         mask_indic_max_area.y2 = mask_indic_max_area.y1 + LV_BAR_SIZE_MIN;
 475:Middlewares/LVGL/GUI/lvgl/src/widgets/lv_bar.c ****     }
 476:Middlewares/LVGL/GUI/lvgl/src/widgets/lv_bar.c ****     else if(!hor && lv_area_get_width(&mask_indic_max_area) < LV_BAR_SIZE_MIN) {
 477:Middlewares/LVGL/GUI/lvgl/src/widgets/lv_bar.c ****         mask_indic_max_area.x1 = obj->coords.x1 + (barw / 2) - (LV_BAR_SIZE_MIN / 2);
 478:Middlewares/LVGL/GUI/lvgl/src/widgets/lv_bar.c ****         mask_indic_max_area.x2 = mask_indic_max_area.x1 + LV_BAR_SIZE_MIN;
 479:Middlewares/LVGL/GUI/lvgl/src/widgets/lv_bar.c ****     }
 480:Middlewares/LVGL/GUI/lvgl/src/widgets/lv_bar.c **** 
 481:Middlewares/LVGL/GUI/lvgl/src/widgets/lv_bar.c **** #if LV_DRAW_COMPLEX
 482:Middlewares/LVGL/GUI/lvgl/src/widgets/lv_bar.c ****     /*Create a mask to the current indicator area to see only this part from the whole gradient.*/
 483:Middlewares/LVGL/GUI/lvgl/src/widgets/lv_bar.c ****     lv_draw_mask_radius_param_t mask_indic_param;
 484:Middlewares/LVGL/GUI/lvgl/src/widgets/lv_bar.c ****     lv_draw_mask_radius_init(&mask_indic_param, &bar->indic_area, draw_rect_dsc.radius, false);
 485:Middlewares/LVGL/GUI/lvgl/src/widgets/lv_bar.c ****     int16_t mask_indic_id = lv_draw_mask_add(&mask_indic_param, NULL);
 486:Middlewares/LVGL/GUI/lvgl/src/widgets/lv_bar.c **** #endif
 487:Middlewares/LVGL/GUI/lvgl/src/widgets/lv_bar.c **** 
 488:Middlewares/LVGL/GUI/lvgl/src/widgets/lv_bar.c ****     lv_draw_rect(draw_ctx, &draw_rect_dsc, &mask_indic_max_area);
 489:Middlewares/LVGL/GUI/lvgl/src/widgets/lv_bar.c ****     draw_rect_dsc.border_opa = border_opa;
 490:Middlewares/LVGL/GUI/lvgl/src/widgets/lv_bar.c ****     draw_rect_dsc.shadow_opa = shadow_opa;
 491:Middlewares/LVGL/GUI/lvgl/src/widgets/lv_bar.c **** 
 492:Middlewares/LVGL/GUI/lvgl/src/widgets/lv_bar.c ****     /*Draw the border*/
 493:Middlewares/LVGL/GUI/lvgl/src/widgets/lv_bar.c ****     draw_rect_dsc.bg_opa = LV_OPA_TRANSP;
 494:Middlewares/LVGL/GUI/lvgl/src/widgets/lv_bar.c ****     draw_rect_dsc.bg_img_opa = LV_OPA_TRANSP;
 495:Middlewares/LVGL/GUI/lvgl/src/widgets/lv_bar.c ****     draw_rect_dsc.shadow_opa = LV_OPA_TRANSP;
 496:Middlewares/LVGL/GUI/lvgl/src/widgets/lv_bar.c ****     lv_draw_rect(draw_ctx, &draw_rect_dsc, &bar->indic_area);
 497:Middlewares/LVGL/GUI/lvgl/src/widgets/lv_bar.c **** 
 498:Middlewares/LVGL/GUI/lvgl/src/widgets/lv_bar.c **** #if LV_DRAW_COMPLEX
 499:Middlewares/LVGL/GUI/lvgl/src/widgets/lv_bar.c ****     lv_draw_mask_free_param(&mask_indic_param);
 500:Middlewares/LVGL/GUI/lvgl/src/widgets/lv_bar.c ****     lv_draw_mask_free_param(&mask_bg_param);
 501:Middlewares/LVGL/GUI/lvgl/src/widgets/lv_bar.c ****     lv_draw_mask_remove_id(mask_indic_id);
 502:Middlewares/LVGL/GUI/lvgl/src/widgets/lv_bar.c ****     lv_draw_mask_remove_id(mask_bg_id);
 503:Middlewares/LVGL/GUI/lvgl/src/widgets/lv_bar.c **** #endif
 504:Middlewares/LVGL/GUI/lvgl/src/widgets/lv_bar.c **** 
 505:Middlewares/LVGL/GUI/lvgl/src/widgets/lv_bar.c ****     lv_event_send(obj, LV_EVENT_DRAW_PART_END, &part_draw_dsc);
 506:Middlewares/LVGL/GUI/lvgl/src/widgets/lv_bar.c **** }
 507:Middlewares/LVGL/GUI/lvgl/src/widgets/lv_bar.c **** 
 508:Middlewares/LVGL/GUI/lvgl/src/widgets/lv_bar.c **** static void lv_bar_event(const lv_obj_class_t * class_p, lv_event_t * e)
 509:Middlewares/LVGL/GUI/lvgl/src/widgets/lv_bar.c **** {
 510:Middlewares/LVGL/GUI/lvgl/src/widgets/lv_bar.c ****     LV_UNUSED(class_p);
 511:Middlewares/LVGL/GUI/lvgl/src/widgets/lv_bar.c **** 
 512:Middlewares/LVGL/GUI/lvgl/src/widgets/lv_bar.c ****     lv_res_t res;
 513:Middlewares/LVGL/GUI/lvgl/src/widgets/lv_bar.c **** 
 514:Middlewares/LVGL/GUI/lvgl/src/widgets/lv_bar.c ****     /*Call the ancestor's event handler*/
 515:Middlewares/LVGL/GUI/lvgl/src/widgets/lv_bar.c ****     res = lv_obj_event_base(MY_CLASS, e);
 516:Middlewares/LVGL/GUI/lvgl/src/widgets/lv_bar.c ****     if(res != LV_RES_OK) return;
 517:Middlewares/LVGL/GUI/lvgl/src/widgets/lv_bar.c **** 
 518:Middlewares/LVGL/GUI/lvgl/src/widgets/lv_bar.c ****     lv_event_code_t code = lv_event_get_code(e);
 519:Middlewares/LVGL/GUI/lvgl/src/widgets/lv_bar.c ****     lv_obj_t * obj = lv_event_get_target(e);
 520:Middlewares/LVGL/GUI/lvgl/src/widgets/lv_bar.c **** 
 521:Middlewares/LVGL/GUI/lvgl/src/widgets/lv_bar.c ****     if(code == LV_EVENT_REFR_EXT_DRAW_SIZE) {
 522:Middlewares/LVGL/GUI/lvgl/src/widgets/lv_bar.c ****         lv_coord_t indic_size;
 523:Middlewares/LVGL/GUI/lvgl/src/widgets/lv_bar.c ****         indic_size = lv_obj_calculate_ext_draw_size(obj, LV_PART_INDICATOR);
 524:Middlewares/LVGL/GUI/lvgl/src/widgets/lv_bar.c **** 
 525:Middlewares/LVGL/GUI/lvgl/src/widgets/lv_bar.c ****         /*Bg size is handled by lv_obj*/
ARM GAS  C:\Users\ADMINI~1\AppData\Local\Temp\cc93wSbm.s 			page 14


 526:Middlewares/LVGL/GUI/lvgl/src/widgets/lv_bar.c ****         lv_coord_t * s = lv_event_get_param(e);
 527:Middlewares/LVGL/GUI/lvgl/src/widgets/lv_bar.c ****         *s = LV_MAX(*s, indic_size);
 528:Middlewares/LVGL/GUI/lvgl/src/widgets/lv_bar.c **** 
 529:Middlewares/LVGL/GUI/lvgl/src/widgets/lv_bar.c ****         /*Calculate the indicator area*/
 530:Middlewares/LVGL/GUI/lvgl/src/widgets/lv_bar.c ****         lv_coord_t bg_left = lv_obj_get_style_pad_left(obj, LV_PART_MAIN);
 531:Middlewares/LVGL/GUI/lvgl/src/widgets/lv_bar.c ****         lv_coord_t bg_right = lv_obj_get_style_pad_right(obj, LV_PART_MAIN);
 532:Middlewares/LVGL/GUI/lvgl/src/widgets/lv_bar.c ****         lv_coord_t bg_top = lv_obj_get_style_pad_top(obj, LV_PART_MAIN);
 533:Middlewares/LVGL/GUI/lvgl/src/widgets/lv_bar.c ****         lv_coord_t bg_bottom = lv_obj_get_style_pad_bottom(obj, LV_PART_MAIN);
 534:Middlewares/LVGL/GUI/lvgl/src/widgets/lv_bar.c **** 
 535:Middlewares/LVGL/GUI/lvgl/src/widgets/lv_bar.c ****         lv_coord_t pad = LV_MIN4(bg_left, bg_right, bg_top, bg_bottom);
 536:Middlewares/LVGL/GUI/lvgl/src/widgets/lv_bar.c ****         if(pad < 0) {
 537:Middlewares/LVGL/GUI/lvgl/src/widgets/lv_bar.c ****             *s = LV_MAX(*s, -pad);
 538:Middlewares/LVGL/GUI/lvgl/src/widgets/lv_bar.c ****         }
 539:Middlewares/LVGL/GUI/lvgl/src/widgets/lv_bar.c ****     }
 540:Middlewares/LVGL/GUI/lvgl/src/widgets/lv_bar.c ****     else if(code == LV_EVENT_PRESSED || code == LV_EVENT_RELEASED) {
 541:Middlewares/LVGL/GUI/lvgl/src/widgets/lv_bar.c ****         lv_bar_t * bar = (lv_bar_t *)obj;
 542:Middlewares/LVGL/GUI/lvgl/src/widgets/lv_bar.c ****         lv_obj_invalidate_area(obj, &bar->indic_area);
 543:Middlewares/LVGL/GUI/lvgl/src/widgets/lv_bar.c ****     }
 544:Middlewares/LVGL/GUI/lvgl/src/widgets/lv_bar.c ****     else if(code == LV_EVENT_DRAW_MAIN) {
 545:Middlewares/LVGL/GUI/lvgl/src/widgets/lv_bar.c ****         draw_indic(e);
 546:Middlewares/LVGL/GUI/lvgl/src/widgets/lv_bar.c ****     }
 547:Middlewares/LVGL/GUI/lvgl/src/widgets/lv_bar.c **** }
 548:Middlewares/LVGL/GUI/lvgl/src/widgets/lv_bar.c **** 
 549:Middlewares/LVGL/GUI/lvgl/src/widgets/lv_bar.c **** static void lv_bar_anim(void * var, int32_t value)
 550:Middlewares/LVGL/GUI/lvgl/src/widgets/lv_bar.c **** {
 551:Middlewares/LVGL/GUI/lvgl/src/widgets/lv_bar.c ****     _lv_bar_anim_t * bar_anim = var;
 552:Middlewares/LVGL/GUI/lvgl/src/widgets/lv_bar.c ****     bar_anim->anim_state    = value;
 553:Middlewares/LVGL/GUI/lvgl/src/widgets/lv_bar.c ****     lv_obj_invalidate(bar_anim->bar);
 554:Middlewares/LVGL/GUI/lvgl/src/widgets/lv_bar.c **** }
 555:Middlewares/LVGL/GUI/lvgl/src/widgets/lv_bar.c **** 
 556:Middlewares/LVGL/GUI/lvgl/src/widgets/lv_bar.c **** static void lv_bar_anim_ready(lv_anim_t * a)
 557:Middlewares/LVGL/GUI/lvgl/src/widgets/lv_bar.c **** {
 558:Middlewares/LVGL/GUI/lvgl/src/widgets/lv_bar.c ****     _lv_bar_anim_t * var = a->var;
 559:Middlewares/LVGL/GUI/lvgl/src/widgets/lv_bar.c ****     lv_obj_t * obj = (lv_obj_t *)var->bar;
 560:Middlewares/LVGL/GUI/lvgl/src/widgets/lv_bar.c ****     lv_bar_t * bar = (lv_bar_t *)obj;
 561:Middlewares/LVGL/GUI/lvgl/src/widgets/lv_bar.c **** 
 562:Middlewares/LVGL/GUI/lvgl/src/widgets/lv_bar.c ****     var->anim_state = LV_BAR_ANIM_STATE_INV;
 563:Middlewares/LVGL/GUI/lvgl/src/widgets/lv_bar.c ****     if(var == &bar->cur_value_anim)
 564:Middlewares/LVGL/GUI/lvgl/src/widgets/lv_bar.c ****         bar->cur_value = var->anim_end;
 565:Middlewares/LVGL/GUI/lvgl/src/widgets/lv_bar.c ****     else if(var == &bar->start_value_anim)
 566:Middlewares/LVGL/GUI/lvgl/src/widgets/lv_bar.c ****         bar->start_value = var->anim_end;
 567:Middlewares/LVGL/GUI/lvgl/src/widgets/lv_bar.c ****     lv_obj_invalidate(var->bar);
 568:Middlewares/LVGL/GUI/lvgl/src/widgets/lv_bar.c **** }
 569:Middlewares/LVGL/GUI/lvgl/src/widgets/lv_bar.c **** 
 570:Middlewares/LVGL/GUI/lvgl/src/widgets/lv_bar.c **** static void lv_bar_set_value_with_anim(lv_obj_t * obj, int32_t new_value, int32_t * value_ptr,
 571:Middlewares/LVGL/GUI/lvgl/src/widgets/lv_bar.c ****                                        _lv_bar_anim_t * anim_info, lv_anim_enable_t en)
 572:Middlewares/LVGL/GUI/lvgl/src/widgets/lv_bar.c **** {
 573:Middlewares/LVGL/GUI/lvgl/src/widgets/lv_bar.c ****     if(en == LV_ANIM_OFF) {
 574:Middlewares/LVGL/GUI/lvgl/src/widgets/lv_bar.c ****         *value_ptr = new_value;
 575:Middlewares/LVGL/GUI/lvgl/src/widgets/lv_bar.c ****         lv_obj_invalidate((lv_obj_t *)obj);
 576:Middlewares/LVGL/GUI/lvgl/src/widgets/lv_bar.c ****     }
 577:Middlewares/LVGL/GUI/lvgl/src/widgets/lv_bar.c ****     else {
 578:Middlewares/LVGL/GUI/lvgl/src/widgets/lv_bar.c ****         /*No animation in progress -> simply set the values*/
 579:Middlewares/LVGL/GUI/lvgl/src/widgets/lv_bar.c ****         if(anim_info->anim_state == LV_BAR_ANIM_STATE_INV) {
 580:Middlewares/LVGL/GUI/lvgl/src/widgets/lv_bar.c ****             anim_info->anim_start = *value_ptr;
 581:Middlewares/LVGL/GUI/lvgl/src/widgets/lv_bar.c ****             anim_info->anim_end   = new_value;
 582:Middlewares/LVGL/GUI/lvgl/src/widgets/lv_bar.c ****         }
ARM GAS  C:\Users\ADMINI~1\AppData\Local\Temp\cc93wSbm.s 			page 15


 583:Middlewares/LVGL/GUI/lvgl/src/widgets/lv_bar.c ****         /*Animation in progress. Start from the animation end value*/
 584:Middlewares/LVGL/GUI/lvgl/src/widgets/lv_bar.c ****         else {
 585:Middlewares/LVGL/GUI/lvgl/src/widgets/lv_bar.c ****             anim_info->anim_start = anim_info->anim_end;
 586:Middlewares/LVGL/GUI/lvgl/src/widgets/lv_bar.c ****             anim_info->anim_end   = new_value;
 587:Middlewares/LVGL/GUI/lvgl/src/widgets/lv_bar.c ****         }
 588:Middlewares/LVGL/GUI/lvgl/src/widgets/lv_bar.c ****         *value_ptr = new_value;
 589:Middlewares/LVGL/GUI/lvgl/src/widgets/lv_bar.c ****         /*Stop the previous animation if it exists*/
 590:Middlewares/LVGL/GUI/lvgl/src/widgets/lv_bar.c ****         lv_anim_del(anim_info, NULL);
 591:Middlewares/LVGL/GUI/lvgl/src/widgets/lv_bar.c **** 
 592:Middlewares/LVGL/GUI/lvgl/src/widgets/lv_bar.c ****         lv_anim_t a;
 593:Middlewares/LVGL/GUI/lvgl/src/widgets/lv_bar.c ****         lv_anim_init(&a);
 594:Middlewares/LVGL/GUI/lvgl/src/widgets/lv_bar.c ****         lv_anim_set_var(&a, anim_info);
 595:Middlewares/LVGL/GUI/lvgl/src/widgets/lv_bar.c ****         lv_anim_set_exec_cb(&a, lv_bar_anim);
 596:Middlewares/LVGL/GUI/lvgl/src/widgets/lv_bar.c ****         lv_anim_set_values(&a, LV_BAR_ANIM_STATE_START, LV_BAR_ANIM_STATE_END);
 597:Middlewares/LVGL/GUI/lvgl/src/widgets/lv_bar.c ****         lv_anim_set_ready_cb(&a, lv_bar_anim_ready);
 598:Middlewares/LVGL/GUI/lvgl/src/widgets/lv_bar.c ****         lv_anim_set_time(&a, lv_obj_get_style_anim_time(obj, LV_PART_MAIN));
 599:Middlewares/LVGL/GUI/lvgl/src/widgets/lv_bar.c ****         lv_anim_start(&a);
 600:Middlewares/LVGL/GUI/lvgl/src/widgets/lv_bar.c ****     }
 601:Middlewares/LVGL/GUI/lvgl/src/widgets/lv_bar.c **** }
 602:Middlewares/LVGL/GUI/lvgl/src/widgets/lv_bar.c **** 
 603:Middlewares/LVGL/GUI/lvgl/src/widgets/lv_bar.c **** static void lv_bar_init_anim(lv_obj_t * obj, _lv_bar_anim_t * bar_anim)
 604:Middlewares/LVGL/GUI/lvgl/src/widgets/lv_bar.c **** {
  86              		.loc 2 604 1 is_stmt 1 view -0
  87              		.cfi_startproc
  88              		@ args = 0, pretend = 0, frame = 0
  89              		@ frame_needed = 0, uses_anonymous_args = 0
  90              		@ link register save eliminated.
 605:Middlewares/LVGL/GUI/lvgl/src/widgets/lv_bar.c ****     bar_anim->bar = obj;
  91              		.loc 2 605 5 view .LVU13
  92              		.loc 2 605 19 is_stmt 0 view .LVU14
  93 0000 0860     		str	r0, [r1]
 606:Middlewares/LVGL/GUI/lvgl/src/widgets/lv_bar.c ****     bar_anim->anim_start = 0;
  94              		.loc 2 606 5 is_stmt 1 view .LVU15
  95              		.loc 2 606 26 is_stmt 0 view .LVU16
  96 0002 0023     		movs	r3, #0
  97 0004 4B60     		str	r3, [r1, #4]
 607:Middlewares/LVGL/GUI/lvgl/src/widgets/lv_bar.c ****     bar_anim->anim_end = 0;
  98              		.loc 2 607 5 is_stmt 1 view .LVU17
  99              		.loc 2 607 24 is_stmt 0 view .LVU18
 100 0006 8B60     		str	r3, [r1, #8]
 608:Middlewares/LVGL/GUI/lvgl/src/widgets/lv_bar.c ****     bar_anim->anim_state = LV_BAR_ANIM_STATE_INV;
 101              		.loc 2 608 5 is_stmt 1 view .LVU19
 102              		.loc 2 608 26 is_stmt 0 view .LVU20
 103 0008 4FF0FF33 		mov	r3, #-1
 104 000c CB60     		str	r3, [r1, #12]
 609:Middlewares/LVGL/GUI/lvgl/src/widgets/lv_bar.c **** }
 105              		.loc 2 609 1 view .LVU21
 106 000e 7047     		bx	lr
 107              		.cfi_endproc
 108              	.LFE170:
 110              		.section	.text.draw_indic,"ax",%progbits
 111              		.align	1
 112              		.syntax unified
 113              		.thumb
 114              		.thumb_func
 116              	draw_indic:
 117              	.LVL5:
ARM GAS  C:\Users\ADMINI~1\AppData\Local\Temp\cc93wSbm.s 			page 16


 118              	.LFB165:
 244:Middlewares/LVGL/GUI/lvgl/src/widgets/lv_bar.c ****     lv_obj_t * obj = lv_event_get_target(e);
 119              		.loc 2 244 1 is_stmt 1 view -0
 120              		.cfi_startproc
 121              		@ args = 0, pretend = 0, frame = 408
 122              		@ frame_needed = 0, uses_anonymous_args = 0
 244:Middlewares/LVGL/GUI/lvgl/src/widgets/lv_bar.c ****     lv_obj_t * obj = lv_event_get_target(e);
 123              		.loc 2 244 1 is_stmt 0 view .LVU23
 124 0000 2DE9F04F 		push	{r4, r5, r6, r7, r8, r9, r10, fp, lr}
 125              	.LCFI0:
 126              		.cfi_def_cfa_offset 36
 127              		.cfi_offset 4, -36
 128              		.cfi_offset 5, -32
 129              		.cfi_offset 6, -28
 130              		.cfi_offset 7, -24
 131              		.cfi_offset 8, -20
 132              		.cfi_offset 9, -16
 133              		.cfi_offset 10, -12
 134              		.cfi_offset 11, -8
 135              		.cfi_offset 14, -4
 136 0004 E7B0     		sub	sp, sp, #412
 137              	.LCFI1:
 138              		.cfi_def_cfa_offset 448
 139 0006 0546     		mov	r5, r0
 245:Middlewares/LVGL/GUI/lvgl/src/widgets/lv_bar.c ****     lv_bar_t * bar = (lv_bar_t *)obj;
 140              		.loc 2 245 5 is_stmt 1 view .LVU24
 245:Middlewares/LVGL/GUI/lvgl/src/widgets/lv_bar.c ****     lv_bar_t * bar = (lv_bar_t *)obj;
 141              		.loc 2 245 22 is_stmt 0 view .LVU25
 142 0008 FFF7FEFF 		bl	lv_event_get_target
 143              	.LVL6:
 245:Middlewares/LVGL/GUI/lvgl/src/widgets/lv_bar.c ****     lv_bar_t * bar = (lv_bar_t *)obj;
 144              		.loc 2 245 22 view .LVU26
 145 000c 0446     		mov	r4, r0
 146              	.LVL7:
 246:Middlewares/LVGL/GUI/lvgl/src/widgets/lv_bar.c **** 
 147              		.loc 2 246 5 is_stmt 1 view .LVU27
 248:Middlewares/LVGL/GUI/lvgl/src/widgets/lv_bar.c **** 
 148              		.loc 2 248 5 view .LVU28
 248:Middlewares/LVGL/GUI/lvgl/src/widgets/lv_bar.c **** 
 149              		.loc 2 248 32 is_stmt 0 view .LVU29
 150 000e 2846     		mov	r0, r5
 151              	.LVL8:
 248:Middlewares/LVGL/GUI/lvgl/src/widgets/lv_bar.c **** 
 152              		.loc 2 248 32 view .LVU30
 153 0010 FFF7FEFF 		bl	lv_event_get_draw_ctx
 154              	.LVL9:
 155 0014 0390     		str	r0, [sp, #12]
 156              	.LVL10:
 250:Middlewares/LVGL/GUI/lvgl/src/widgets/lv_bar.c ****     lv_obj_get_coords(obj, &bar_coords);
 157              		.loc 2 250 5 is_stmt 1 view .LVU31
 251:Middlewares/LVGL/GUI/lvgl/src/widgets/lv_bar.c **** 
 158              		.loc 2 251 5 view .LVU32
 159 0016 62A9     		add	r1, sp, #392
 160 0018 2046     		mov	r0, r4
 161              	.LVL11:
 251:Middlewares/LVGL/GUI/lvgl/src/widgets/lv_bar.c **** 
 162              		.loc 2 251 5 is_stmt 0 view .LVU33
ARM GAS  C:\Users\ADMINI~1\AppData\Local\Temp\cc93wSbm.s 			page 17


 163 001a FFF7FEFF 		bl	lv_obj_get_coords
 164              	.LVL12:
 253:Middlewares/LVGL/GUI/lvgl/src/widgets/lv_bar.c ****     lv_coord_t transf_h = lv_obj_get_style_transform_height(obj, LV_PART_MAIN);
 165              		.loc 2 253 5 is_stmt 1 view .LVU34
 166              	.LBB73:
 167              	.LBI73:
 168              		.file 3 "Middlewares/LVGL/GUI/lvgl/src/widgets/../core/lv_obj_style_gen.h"
   1:Middlewares/LVGL/GUI/lvgl/src/widgets/../core/lv_obj_style_gen.h **** static inline lv_coord_t lv_obj_get_style_width(const struct _lv_obj_t * obj, uint32_t part)
   2:Middlewares/LVGL/GUI/lvgl/src/widgets/../core/lv_obj_style_gen.h **** {
   3:Middlewares/LVGL/GUI/lvgl/src/widgets/../core/lv_obj_style_gen.h ****     lv_style_value_t v = lv_obj_get_style_prop(obj, part, LV_STYLE_WIDTH);
   4:Middlewares/LVGL/GUI/lvgl/src/widgets/../core/lv_obj_style_gen.h ****     return (lv_coord_t)v.num;
   5:Middlewares/LVGL/GUI/lvgl/src/widgets/../core/lv_obj_style_gen.h **** }
   6:Middlewares/LVGL/GUI/lvgl/src/widgets/../core/lv_obj_style_gen.h **** 
   7:Middlewares/LVGL/GUI/lvgl/src/widgets/../core/lv_obj_style_gen.h **** static inline lv_coord_t lv_obj_get_style_min_width(const struct _lv_obj_t * obj, uint32_t part)
   8:Middlewares/LVGL/GUI/lvgl/src/widgets/../core/lv_obj_style_gen.h **** {
   9:Middlewares/LVGL/GUI/lvgl/src/widgets/../core/lv_obj_style_gen.h ****     lv_style_value_t v = lv_obj_get_style_prop(obj, part, LV_STYLE_MIN_WIDTH);
  10:Middlewares/LVGL/GUI/lvgl/src/widgets/../core/lv_obj_style_gen.h ****     return (lv_coord_t)v.num;
  11:Middlewares/LVGL/GUI/lvgl/src/widgets/../core/lv_obj_style_gen.h **** }
  12:Middlewares/LVGL/GUI/lvgl/src/widgets/../core/lv_obj_style_gen.h **** 
  13:Middlewares/LVGL/GUI/lvgl/src/widgets/../core/lv_obj_style_gen.h **** static inline lv_coord_t lv_obj_get_style_max_width(const struct _lv_obj_t * obj, uint32_t part)
  14:Middlewares/LVGL/GUI/lvgl/src/widgets/../core/lv_obj_style_gen.h **** {
  15:Middlewares/LVGL/GUI/lvgl/src/widgets/../core/lv_obj_style_gen.h ****     lv_style_value_t v = lv_obj_get_style_prop(obj, part, LV_STYLE_MAX_WIDTH);
  16:Middlewares/LVGL/GUI/lvgl/src/widgets/../core/lv_obj_style_gen.h ****     return (lv_coord_t)v.num;
  17:Middlewares/LVGL/GUI/lvgl/src/widgets/../core/lv_obj_style_gen.h **** }
  18:Middlewares/LVGL/GUI/lvgl/src/widgets/../core/lv_obj_style_gen.h **** 
  19:Middlewares/LVGL/GUI/lvgl/src/widgets/../core/lv_obj_style_gen.h **** static inline lv_coord_t lv_obj_get_style_height(const struct _lv_obj_t * obj, uint32_t part)
  20:Middlewares/LVGL/GUI/lvgl/src/widgets/../core/lv_obj_style_gen.h **** {
  21:Middlewares/LVGL/GUI/lvgl/src/widgets/../core/lv_obj_style_gen.h ****     lv_style_value_t v = lv_obj_get_style_prop(obj, part, LV_STYLE_HEIGHT);
  22:Middlewares/LVGL/GUI/lvgl/src/widgets/../core/lv_obj_style_gen.h ****     return (lv_coord_t)v.num;
  23:Middlewares/LVGL/GUI/lvgl/src/widgets/../core/lv_obj_style_gen.h **** }
  24:Middlewares/LVGL/GUI/lvgl/src/widgets/../core/lv_obj_style_gen.h **** 
  25:Middlewares/LVGL/GUI/lvgl/src/widgets/../core/lv_obj_style_gen.h **** static inline lv_coord_t lv_obj_get_style_min_height(const struct _lv_obj_t * obj, uint32_t part)
  26:Middlewares/LVGL/GUI/lvgl/src/widgets/../core/lv_obj_style_gen.h **** {
  27:Middlewares/LVGL/GUI/lvgl/src/widgets/../core/lv_obj_style_gen.h ****     lv_style_value_t v = lv_obj_get_style_prop(obj, part, LV_STYLE_MIN_HEIGHT);
  28:Middlewares/LVGL/GUI/lvgl/src/widgets/../core/lv_obj_style_gen.h ****     return (lv_coord_t)v.num;
  29:Middlewares/LVGL/GUI/lvgl/src/widgets/../core/lv_obj_style_gen.h **** }
  30:Middlewares/LVGL/GUI/lvgl/src/widgets/../core/lv_obj_style_gen.h **** 
  31:Middlewares/LVGL/GUI/lvgl/src/widgets/../core/lv_obj_style_gen.h **** static inline lv_coord_t lv_obj_get_style_max_height(const struct _lv_obj_t * obj, uint32_t part)
  32:Middlewares/LVGL/GUI/lvgl/src/widgets/../core/lv_obj_style_gen.h **** {
  33:Middlewares/LVGL/GUI/lvgl/src/widgets/../core/lv_obj_style_gen.h ****     lv_style_value_t v = lv_obj_get_style_prop(obj, part, LV_STYLE_MAX_HEIGHT);
  34:Middlewares/LVGL/GUI/lvgl/src/widgets/../core/lv_obj_style_gen.h ****     return (lv_coord_t)v.num;
  35:Middlewares/LVGL/GUI/lvgl/src/widgets/../core/lv_obj_style_gen.h **** }
  36:Middlewares/LVGL/GUI/lvgl/src/widgets/../core/lv_obj_style_gen.h **** 
  37:Middlewares/LVGL/GUI/lvgl/src/widgets/../core/lv_obj_style_gen.h **** static inline lv_coord_t lv_obj_get_style_x(const struct _lv_obj_t * obj, uint32_t part)
  38:Middlewares/LVGL/GUI/lvgl/src/widgets/../core/lv_obj_style_gen.h **** {
  39:Middlewares/LVGL/GUI/lvgl/src/widgets/../core/lv_obj_style_gen.h ****     lv_style_value_t v = lv_obj_get_style_prop(obj, part, LV_STYLE_X);
  40:Middlewares/LVGL/GUI/lvgl/src/widgets/../core/lv_obj_style_gen.h ****     return (lv_coord_t)v.num;
  41:Middlewares/LVGL/GUI/lvgl/src/widgets/../core/lv_obj_style_gen.h **** }
  42:Middlewares/LVGL/GUI/lvgl/src/widgets/../core/lv_obj_style_gen.h **** 
  43:Middlewares/LVGL/GUI/lvgl/src/widgets/../core/lv_obj_style_gen.h **** static inline lv_coord_t lv_obj_get_style_y(const struct _lv_obj_t * obj, uint32_t part)
  44:Middlewares/LVGL/GUI/lvgl/src/widgets/../core/lv_obj_style_gen.h **** {
  45:Middlewares/LVGL/GUI/lvgl/src/widgets/../core/lv_obj_style_gen.h ****     lv_style_value_t v = lv_obj_get_style_prop(obj, part, LV_STYLE_Y);
  46:Middlewares/LVGL/GUI/lvgl/src/widgets/../core/lv_obj_style_gen.h ****     return (lv_coord_t)v.num;
  47:Middlewares/LVGL/GUI/lvgl/src/widgets/../core/lv_obj_style_gen.h **** }
  48:Middlewares/LVGL/GUI/lvgl/src/widgets/../core/lv_obj_style_gen.h **** 
  49:Middlewares/LVGL/GUI/lvgl/src/widgets/../core/lv_obj_style_gen.h **** static inline lv_align_t lv_obj_get_style_align(const struct _lv_obj_t * obj, uint32_t part)
  50:Middlewares/LVGL/GUI/lvgl/src/widgets/../core/lv_obj_style_gen.h **** {
ARM GAS  C:\Users\ADMINI~1\AppData\Local\Temp\cc93wSbm.s 			page 18


  51:Middlewares/LVGL/GUI/lvgl/src/widgets/../core/lv_obj_style_gen.h ****     lv_style_value_t v = lv_obj_get_style_prop(obj, part, LV_STYLE_ALIGN);
  52:Middlewares/LVGL/GUI/lvgl/src/widgets/../core/lv_obj_style_gen.h ****     return (lv_align_t)v.num;
  53:Middlewares/LVGL/GUI/lvgl/src/widgets/../core/lv_obj_style_gen.h **** }
  54:Middlewares/LVGL/GUI/lvgl/src/widgets/../core/lv_obj_style_gen.h **** 
  55:Middlewares/LVGL/GUI/lvgl/src/widgets/../core/lv_obj_style_gen.h **** static inline lv_coord_t lv_obj_get_style_transform_width(const struct _lv_obj_t * obj, uint32_t pa
 169              		.loc 3 55 26 view .LVU35
 170              	.LBB74:
  56:Middlewares/LVGL/GUI/lvgl/src/widgets/../core/lv_obj_style_gen.h **** {
  57:Middlewares/LVGL/GUI/lvgl/src/widgets/../core/lv_obj_style_gen.h ****     lv_style_value_t v = lv_obj_get_style_prop(obj, part, LV_STYLE_TRANSFORM_WIDTH);
 171              		.loc 3 57 5 view .LVU36
 172              		.loc 3 57 26 is_stmt 0 view .LVU37
 173 001e 40F60A02 		movw	r2, #2058
 174 0022 0021     		movs	r1, #0
 175 0024 2046     		mov	r0, r4
 176 0026 FFF7FEFF 		bl	lv_obj_get_style_prop
 177              	.LVL13:
 178 002a 0546     		mov	r5, r0
 179              	.LVL14:
  58:Middlewares/LVGL/GUI/lvgl/src/widgets/../core/lv_obj_style_gen.h ****     return (lv_coord_t)v.num;
 180              		.loc 3 58 5 is_stmt 1 view .LVU38
 181              		.loc 3 58 5 is_stmt 0 view .LVU39
 182              	.LBE74:
 183              	.LBE73:
 254:Middlewares/LVGL/GUI/lvgl/src/widgets/lv_bar.c ****     bar_coords.x1 -= transf_w;
 184              		.loc 2 254 5 is_stmt 1 view .LVU40
 185              	.LBB75:
 186              	.LBI75:
  59:Middlewares/LVGL/GUI/lvgl/src/widgets/../core/lv_obj_style_gen.h **** }
  60:Middlewares/LVGL/GUI/lvgl/src/widgets/../core/lv_obj_style_gen.h **** 
  61:Middlewares/LVGL/GUI/lvgl/src/widgets/../core/lv_obj_style_gen.h **** static inline lv_coord_t lv_obj_get_style_transform_height(const struct _lv_obj_t * obj, uint32_t p
 187              		.loc 3 61 26 view .LVU41
 188              	.LBB76:
  62:Middlewares/LVGL/GUI/lvgl/src/widgets/../core/lv_obj_style_gen.h **** {
  63:Middlewares/LVGL/GUI/lvgl/src/widgets/../core/lv_obj_style_gen.h ****     lv_style_value_t v = lv_obj_get_style_prop(obj, part, LV_STYLE_TRANSFORM_HEIGHT);
 189              		.loc 3 63 5 view .LVU42
 190              		.loc 3 63 26 is_stmt 0 view .LVU43
 191 002c 40F60B02 		movw	r2, #2059
 192 0030 0021     		movs	r1, #0
 193 0032 2046     		mov	r0, r4
 194              	.LVL15:
 195              		.loc 3 63 26 view .LVU44
 196 0034 FFF7FEFF 		bl	lv_obj_get_style_prop
 197              	.LVL16:
  64:Middlewares/LVGL/GUI/lvgl/src/widgets/../core/lv_obj_style_gen.h ****     return (lv_coord_t)v.num;
 198              		.loc 3 64 5 is_stmt 1 view .LVU45
 199              		.loc 3 64 5 is_stmt 0 view .LVU46
 200              	.LBE76:
 201              	.LBE75:
 255:Middlewares/LVGL/GUI/lvgl/src/widgets/lv_bar.c ****     bar_coords.x2 += transf_w;
 202              		.loc 2 255 5 is_stmt 1 view .LVU47
 255:Middlewares/LVGL/GUI/lvgl/src/widgets/lv_bar.c ****     bar_coords.x2 += transf_w;
 203              		.loc 2 255 19 is_stmt 0 view .LVU48
 204 0038 629E     		ldr	r6, [sp, #392]
 205 003a 721B     		subs	r2, r6, r5
 206 003c 6292     		str	r2, [sp, #392]
 256:Middlewares/LVGL/GUI/lvgl/src/widgets/lv_bar.c ****     bar_coords.y1 -= transf_h;
 207              		.loc 2 256 5 is_stmt 1 view .LVU49
ARM GAS  C:\Users\ADMINI~1\AppData\Local\Temp\cc93wSbm.s 			page 19


 256:Middlewares/LVGL/GUI/lvgl/src/widgets/lv_bar.c ****     bar_coords.y1 -= transf_h;
 208              		.loc 2 256 19 is_stmt 0 view .LVU50
 209 003e 649E     		ldr	r6, [sp, #400]
 210 0040 2E44     		add	r6, r6, r5
 211 0042 6496     		str	r6, [sp, #400]
 257:Middlewares/LVGL/GUI/lvgl/src/widgets/lv_bar.c ****     bar_coords.y2 += transf_h;
 212              		.loc 2 257 5 is_stmt 1 view .LVU51
 257:Middlewares/LVGL/GUI/lvgl/src/widgets/lv_bar.c ****     bar_coords.y2 += transf_h;
 213              		.loc 2 257 19 is_stmt 0 view .LVU52
 214 0044 639D     		ldr	r5, [sp, #396]
 215              	.LVL17:
 257:Middlewares/LVGL/GUI/lvgl/src/widgets/lv_bar.c ****     bar_coords.y2 += transf_h;
 216              		.loc 2 257 19 view .LVU53
 217 0046 2B1A     		subs	r3, r5, r0
 218 0048 6393     		str	r3, [sp, #396]
 258:Middlewares/LVGL/GUI/lvgl/src/widgets/lv_bar.c ****     lv_coord_t barw = lv_area_get_width(&bar_coords);
 219              		.loc 2 258 5 is_stmt 1 view .LVU54
 258:Middlewares/LVGL/GUI/lvgl/src/widgets/lv_bar.c ****     lv_coord_t barw = lv_area_get_width(&bar_coords);
 220              		.loc 2 258 19 is_stmt 0 view .LVU55
 221 004a 659D     		ldr	r5, [sp, #404]
 222 004c 0544     		add	r5, r5, r0
 223 004e 6595     		str	r5, [sp, #404]
 259:Middlewares/LVGL/GUI/lvgl/src/widgets/lv_bar.c ****     lv_coord_t barh = lv_area_get_height(&bar_coords);
 224              		.loc 2 259 5 is_stmt 1 view .LVU56
 225              	.LVL18:
 226              	.LBB77:
 227              	.LBI77:
 123:Middlewares/LVGL/GUI/lvgl/src/widgets/../core/../misc/../font/../misc/lv_area.h **** {
 228              		.loc 1 123 26 view .LVU57
 229              	.LBB78:
 125:Middlewares/LVGL/GUI/lvgl/src/widgets/../core/../misc/../font/../misc/lv_area.h **** }
 230              		.loc 1 125 5 view .LVU58
 125:Middlewares/LVGL/GUI/lvgl/src/widgets/../core/../misc/../font/../misc/lv_area.h **** }
 231              		.loc 1 125 36 is_stmt 0 view .LVU59
 232 0050 B61A     		subs	r6, r6, r2
 125:Middlewares/LVGL/GUI/lvgl/src/widgets/../core/../misc/../font/../misc/lv_area.h **** }
 233              		.loc 1 125 12 view .LVU60
 234 0052 721C     		adds	r2, r6, #1
 235 0054 0B92     		str	r2, [sp, #44]
 236              	.LVL19:
 125:Middlewares/LVGL/GUI/lvgl/src/widgets/../core/../misc/../font/../misc/lv_area.h **** }
 237              		.loc 1 125 12 view .LVU61
 238              	.LBE78:
 239              	.LBE77:
 260:Middlewares/LVGL/GUI/lvgl/src/widgets/lv_bar.c ****     int32_t range = bar->max_value - bar->min_value;
 240              		.loc 2 260 5 is_stmt 1 view .LVU62
 241              	.LBB79:
 242              	.LBI79:
 133:Middlewares/LVGL/GUI/lvgl/src/widgets/../core/../misc/../font/../misc/lv_area.h **** {
 243              		.loc 1 133 26 view .LVU63
 244              	.LBB80:
 135:Middlewares/LVGL/GUI/lvgl/src/widgets/../core/../misc/../font/../misc/lv_area.h **** }
 245              		.loc 1 135 5 view .LVU64
 135:Middlewares/LVGL/GUI/lvgl/src/widgets/../core/../misc/../font/../misc/lv_area.h **** }
 246              		.loc 1 135 36 is_stmt 0 view .LVU65
 247 0056 ED1A     		subs	r5, r5, r3
 135:Middlewares/LVGL/GUI/lvgl/src/widgets/../core/../misc/../font/../misc/lv_area.h **** }
ARM GAS  C:\Users\ADMINI~1\AppData\Local\Temp\cc93wSbm.s 			page 20


 248              		.loc 1 135 12 view .LVU66
 249 0058 6B1C     		adds	r3, r5, #1
 250 005a 0A93     		str	r3, [sp, #40]
 251              	.LVL20:
 135:Middlewares/LVGL/GUI/lvgl/src/widgets/../core/../misc/../font/../misc/lv_area.h **** }
 252              		.loc 1 135 12 view .LVU67
 253              	.LBE80:
 254              	.LBE79:
 261:Middlewares/LVGL/GUI/lvgl/src/widgets/lv_bar.c ****     bool hor = barw >= barh ? true : false;
 255              		.loc 2 261 5 is_stmt 1 view .LVU68
 261:Middlewares/LVGL/GUI/lvgl/src/widgets/lv_bar.c ****     bool hor = barw >= barh ? true : false;
 256              		.loc 2 261 24 is_stmt 0 view .LVU69
 257 005c 616B     		ldr	r1, [r4, #52]
 261:Middlewares/LVGL/GUI/lvgl/src/widgets/lv_bar.c ****     bool hor = barw >= barh ? true : false;
 258              		.loc 2 261 41 view .LVU70
 259 005e 226B     		ldr	r2, [r4, #48]
 260              	.LVL21:
 261:Middlewares/LVGL/GUI/lvgl/src/widgets/lv_bar.c ****     bool hor = barw >= barh ? true : false;
 261              		.loc 2 261 13 view .LVU71
 262 0060 8B1A     		subs	r3, r1, r2
 263              	.LVL22:
 261:Middlewares/LVGL/GUI/lvgl/src/widgets/lv_bar.c ****     bool hor = barw >= barh ? true : false;
 264              		.loc 2 261 13 view .LVU72
 265 0062 0293     		str	r3, [sp, #8]
 266              	.LVL23:
 262:Middlewares/LVGL/GUI/lvgl/src/widgets/lv_bar.c ****     bool sym = false;
 267              		.loc 2 262 5 is_stmt 1 view .LVU73
 263:Middlewares/LVGL/GUI/lvgl/src/widgets/lv_bar.c ****     if(bar->mode == LV_BAR_MODE_SYMMETRICAL && bar->min_value < 0 && bar->max_value > 0 &&
 268              		.loc 2 263 5 view .LVU74
 264:Middlewares/LVGL/GUI/lvgl/src/widgets/lv_bar.c ****        bar->start_value == bar->min_value) sym = true;
 269              		.loc 2 264 5 view .LVU75
 264:Middlewares/LVGL/GUI/lvgl/src/widgets/lv_bar.c ****        bar->start_value == bar->min_value) sym = true;
 270              		.loc 2 264 18 is_stmt 0 view .LVU76
 271 0064 94F86C30 		ldrb	r3, [r4, #108]	@ zero_extendqisi2
 272              	.LVL24:
 264:Middlewares/LVGL/GUI/lvgl/src/widgets/lv_bar.c ****        bar->start_value == bar->min_value) sym = true;
 273              		.loc 2 264 18 view .LVU77
 274 0068 03F00303 		and	r3, r3, #3
 264:Middlewares/LVGL/GUI/lvgl/src/widgets/lv_bar.c ****        bar->start_value == bar->min_value) sym = true;
 275              		.loc 2 264 7 view .LVU78
 276 006c 012B     		cmp	r3, #1
 277 006e 00F0BA81 		beq	.L40
 263:Middlewares/LVGL/GUI/lvgl/src/widgets/lv_bar.c ****     if(bar->mode == LV_BAR_MODE_SYMMETRICAL && bar->min_value < 0 && bar->max_value > 0 &&
 278              		.loc 2 263 10 view .LVU79
 279 0072 0023     		movs	r3, #0
 280 0074 0493     		str	r3, [sp, #16]
 281              	.L5:
 282              	.LVL25:
 268:Middlewares/LVGL/GUI/lvgl/src/widgets/lv_bar.c ****     lv_coord_t bg_right = lv_obj_get_style_pad_right(obj,   LV_PART_MAIN);
 283              		.loc 2 268 5 is_stmt 1 view .LVU80
 284              	.LBB81:
 285              	.LBI81:
  65:Middlewares/LVGL/GUI/lvgl/src/widgets/../core/lv_obj_style_gen.h **** }
  66:Middlewares/LVGL/GUI/lvgl/src/widgets/../core/lv_obj_style_gen.h **** 
  67:Middlewares/LVGL/GUI/lvgl/src/widgets/../core/lv_obj_style_gen.h **** static inline lv_coord_t lv_obj_get_style_translate_x(const struct _lv_obj_t * obj, uint32_t part)
  68:Middlewares/LVGL/GUI/lvgl/src/widgets/../core/lv_obj_style_gen.h **** {
  69:Middlewares/LVGL/GUI/lvgl/src/widgets/../core/lv_obj_style_gen.h ****     lv_style_value_t v = lv_obj_get_style_prop(obj, part, LV_STYLE_TRANSLATE_X);
ARM GAS  C:\Users\ADMINI~1\AppData\Local\Temp\cc93wSbm.s 			page 21


  70:Middlewares/LVGL/GUI/lvgl/src/widgets/../core/lv_obj_style_gen.h ****     return (lv_coord_t)v.num;
  71:Middlewares/LVGL/GUI/lvgl/src/widgets/../core/lv_obj_style_gen.h **** }
  72:Middlewares/LVGL/GUI/lvgl/src/widgets/../core/lv_obj_style_gen.h **** 
  73:Middlewares/LVGL/GUI/lvgl/src/widgets/../core/lv_obj_style_gen.h **** static inline lv_coord_t lv_obj_get_style_translate_y(const struct _lv_obj_t * obj, uint32_t part)
  74:Middlewares/LVGL/GUI/lvgl/src/widgets/../core/lv_obj_style_gen.h **** {
  75:Middlewares/LVGL/GUI/lvgl/src/widgets/../core/lv_obj_style_gen.h ****     lv_style_value_t v = lv_obj_get_style_prop(obj, part, LV_STYLE_TRANSLATE_Y);
  76:Middlewares/LVGL/GUI/lvgl/src/widgets/../core/lv_obj_style_gen.h ****     return (lv_coord_t)v.num;
  77:Middlewares/LVGL/GUI/lvgl/src/widgets/../core/lv_obj_style_gen.h **** }
  78:Middlewares/LVGL/GUI/lvgl/src/widgets/../core/lv_obj_style_gen.h **** 
  79:Middlewares/LVGL/GUI/lvgl/src/widgets/../core/lv_obj_style_gen.h **** static inline lv_coord_t lv_obj_get_style_transform_zoom(const struct _lv_obj_t * obj, uint32_t par
  80:Middlewares/LVGL/GUI/lvgl/src/widgets/../core/lv_obj_style_gen.h **** {
  81:Middlewares/LVGL/GUI/lvgl/src/widgets/../core/lv_obj_style_gen.h ****     lv_style_value_t v = lv_obj_get_style_prop(obj, part, LV_STYLE_TRANSFORM_ZOOM);
  82:Middlewares/LVGL/GUI/lvgl/src/widgets/../core/lv_obj_style_gen.h ****     return (lv_coord_t)v.num;
  83:Middlewares/LVGL/GUI/lvgl/src/widgets/../core/lv_obj_style_gen.h **** }
  84:Middlewares/LVGL/GUI/lvgl/src/widgets/../core/lv_obj_style_gen.h **** 
  85:Middlewares/LVGL/GUI/lvgl/src/widgets/../core/lv_obj_style_gen.h **** static inline lv_coord_t lv_obj_get_style_transform_angle(const struct _lv_obj_t * obj, uint32_t pa
  86:Middlewares/LVGL/GUI/lvgl/src/widgets/../core/lv_obj_style_gen.h **** {
  87:Middlewares/LVGL/GUI/lvgl/src/widgets/../core/lv_obj_style_gen.h ****     lv_style_value_t v = lv_obj_get_style_prop(obj, part, LV_STYLE_TRANSFORM_ANGLE);
  88:Middlewares/LVGL/GUI/lvgl/src/widgets/../core/lv_obj_style_gen.h ****     return (lv_coord_t)v.num;
  89:Middlewares/LVGL/GUI/lvgl/src/widgets/../core/lv_obj_style_gen.h **** }
  90:Middlewares/LVGL/GUI/lvgl/src/widgets/../core/lv_obj_style_gen.h **** 
  91:Middlewares/LVGL/GUI/lvgl/src/widgets/../core/lv_obj_style_gen.h **** static inline lv_coord_t lv_obj_get_style_pad_top(const struct _lv_obj_t * obj, uint32_t part)
  92:Middlewares/LVGL/GUI/lvgl/src/widgets/../core/lv_obj_style_gen.h **** {
  93:Middlewares/LVGL/GUI/lvgl/src/widgets/../core/lv_obj_style_gen.h ****     lv_style_value_t v = lv_obj_get_style_prop(obj, part, LV_STYLE_PAD_TOP);
  94:Middlewares/LVGL/GUI/lvgl/src/widgets/../core/lv_obj_style_gen.h ****     return (lv_coord_t)v.num;
  95:Middlewares/LVGL/GUI/lvgl/src/widgets/../core/lv_obj_style_gen.h **** }
  96:Middlewares/LVGL/GUI/lvgl/src/widgets/../core/lv_obj_style_gen.h **** 
  97:Middlewares/LVGL/GUI/lvgl/src/widgets/../core/lv_obj_style_gen.h **** static inline lv_coord_t lv_obj_get_style_pad_bottom(const struct _lv_obj_t * obj, uint32_t part)
  98:Middlewares/LVGL/GUI/lvgl/src/widgets/../core/lv_obj_style_gen.h **** {
  99:Middlewares/LVGL/GUI/lvgl/src/widgets/../core/lv_obj_style_gen.h ****     lv_style_value_t v = lv_obj_get_style_prop(obj, part, LV_STYLE_PAD_BOTTOM);
 100:Middlewares/LVGL/GUI/lvgl/src/widgets/../core/lv_obj_style_gen.h ****     return (lv_coord_t)v.num;
 101:Middlewares/LVGL/GUI/lvgl/src/widgets/../core/lv_obj_style_gen.h **** }
 102:Middlewares/LVGL/GUI/lvgl/src/widgets/../core/lv_obj_style_gen.h **** 
 103:Middlewares/LVGL/GUI/lvgl/src/widgets/../core/lv_obj_style_gen.h **** static inline lv_coord_t lv_obj_get_style_pad_left(const struct _lv_obj_t * obj, uint32_t part)
 286              		.loc 3 103 26 view .LVU81
 287              	.LBB82:
 104:Middlewares/LVGL/GUI/lvgl/src/widgets/../core/lv_obj_style_gen.h **** {
 105:Middlewares/LVGL/GUI/lvgl/src/widgets/../core/lv_obj_style_gen.h ****     lv_style_value_t v = lv_obj_get_style_prop(obj, part, LV_STYLE_PAD_LEFT);
 288              		.loc 3 105 5 view .LVU82
 289              		.loc 3 105 26 is_stmt 0 view .LVU83
 290 0076 41F61202 		movw	r2, #6162
 291 007a 0021     		movs	r1, #0
 292 007c 2046     		mov	r0, r4
 293              	.LVL26:
 294              		.loc 3 105 26 view .LVU84
 295 007e FFF7FEFF 		bl	lv_obj_get_style_prop
 296              	.LVL27:
 297 0082 0746     		mov	r7, r0
 298 0084 0890     		str	r0, [sp, #32]
 106:Middlewares/LVGL/GUI/lvgl/src/widgets/../core/lv_obj_style_gen.h ****     return (lv_coord_t)v.num;
 299              		.loc 3 106 5 is_stmt 1 view .LVU85
 300              	.LVL28:
 301              		.loc 3 106 5 is_stmt 0 view .LVU86
 302              	.LBE82:
 303              	.LBE81:
 269:Middlewares/LVGL/GUI/lvgl/src/widgets/lv_bar.c ****     lv_coord_t bg_top = lv_obj_get_style_pad_top(obj,       LV_PART_MAIN);
 304              		.loc 2 269 5 is_stmt 1 view .LVU87
ARM GAS  C:\Users\ADMINI~1\AppData\Local\Temp\cc93wSbm.s 			page 22


 305              	.LBB83:
 306              	.LBI83:
 107:Middlewares/LVGL/GUI/lvgl/src/widgets/../core/lv_obj_style_gen.h **** }
 108:Middlewares/LVGL/GUI/lvgl/src/widgets/../core/lv_obj_style_gen.h **** 
 109:Middlewares/LVGL/GUI/lvgl/src/widgets/../core/lv_obj_style_gen.h **** static inline lv_coord_t lv_obj_get_style_pad_right(const struct _lv_obj_t * obj, uint32_t part)
 307              		.loc 3 109 26 view .LVU88
 308              	.LBB84:
 110:Middlewares/LVGL/GUI/lvgl/src/widgets/../core/lv_obj_style_gen.h **** {
 111:Middlewares/LVGL/GUI/lvgl/src/widgets/../core/lv_obj_style_gen.h ****     lv_style_value_t v = lv_obj_get_style_prop(obj, part, LV_STYLE_PAD_RIGHT);
 309              		.loc 3 111 5 view .LVU89
 310              		.loc 3 111 26 is_stmt 0 view .LVU90
 311 0086 41F61302 		movw	r2, #6163
 312 008a 0021     		movs	r1, #0
 313 008c 2046     		mov	r0, r4
 314              	.LVL29:
 315              		.loc 3 111 26 view .LVU91
 316 008e FFF7FEFF 		bl	lv_obj_get_style_prop
 317              	.LVL30:
 318 0092 8146     		mov	r9, r0
 319 0094 0790     		str	r0, [sp, #28]
 112:Middlewares/LVGL/GUI/lvgl/src/widgets/../core/lv_obj_style_gen.h ****     return (lv_coord_t)v.num;
 320              		.loc 3 112 5 is_stmt 1 view .LVU92
 321              	.LVL31:
 322              		.loc 3 112 5 is_stmt 0 view .LVU93
 323              	.LBE84:
 324              	.LBE83:
 270:Middlewares/LVGL/GUI/lvgl/src/widgets/lv_bar.c ****     lv_coord_t bg_bottom = lv_obj_get_style_pad_bottom(obj, LV_PART_MAIN);
 325              		.loc 2 270 5 is_stmt 1 view .LVU94
 326              	.LBB85:
 327              	.LBI85:
  91:Middlewares/LVGL/GUI/lvgl/src/widgets/../core/lv_obj_style_gen.h **** {
 328              		.loc 3 91 26 view .LVU95
 329              	.LBB86:
  93:Middlewares/LVGL/GUI/lvgl/src/widgets/../core/lv_obj_style_gen.h ****     return (lv_coord_t)v.num;
 330              		.loc 3 93 5 view .LVU96
  93:Middlewares/LVGL/GUI/lvgl/src/widgets/../core/lv_obj_style_gen.h ****     return (lv_coord_t)v.num;
 331              		.loc 3 93 26 is_stmt 0 view .LVU97
 332 0096 41F61002 		movw	r2, #6160
 333 009a 0021     		movs	r1, #0
 334 009c 2046     		mov	r0, r4
 335              	.LVL32:
  93:Middlewares/LVGL/GUI/lvgl/src/widgets/../core/lv_obj_style_gen.h ****     return (lv_coord_t)v.num;
 336              		.loc 3 93 26 view .LVU98
 337 009e FFF7FEFF 		bl	lv_obj_get_style_prop
 338              	.LVL33:
 339 00a2 8046     		mov	r8, r0
 340 00a4 0690     		str	r0, [sp, #24]
  94:Middlewares/LVGL/GUI/lvgl/src/widgets/../core/lv_obj_style_gen.h **** }
 341              		.loc 3 94 5 is_stmt 1 view .LVU99
 342              	.LVL34:
  94:Middlewares/LVGL/GUI/lvgl/src/widgets/../core/lv_obj_style_gen.h **** }
 343              		.loc 3 94 5 is_stmt 0 view .LVU100
 344              	.LBE86:
 345              	.LBE85:
 271:Middlewares/LVGL/GUI/lvgl/src/widgets/lv_bar.c ****     /*Respect padding and minimum width/height too*/
 346              		.loc 2 271 5 is_stmt 1 view .LVU101
 347              	.LBB87:
ARM GAS  C:\Users\ADMINI~1\AppData\Local\Temp\cc93wSbm.s 			page 23


 348              	.LBI87:
  97:Middlewares/LVGL/GUI/lvgl/src/widgets/../core/lv_obj_style_gen.h **** {
 349              		.loc 3 97 26 view .LVU102
 350              	.LBB88:
  99:Middlewares/LVGL/GUI/lvgl/src/widgets/../core/lv_obj_style_gen.h ****     return (lv_coord_t)v.num;
 351              		.loc 3 99 5 view .LVU103
  99:Middlewares/LVGL/GUI/lvgl/src/widgets/../core/lv_obj_style_gen.h ****     return (lv_coord_t)v.num;
 352              		.loc 3 99 26 is_stmt 0 view .LVU104
 353 00a6 41F61102 		movw	r2, #6161
 354 00aa 0021     		movs	r1, #0
 355 00ac 2046     		mov	r0, r4
 356              	.LVL35:
  99:Middlewares/LVGL/GUI/lvgl/src/widgets/../core/lv_obj_style_gen.h ****     return (lv_coord_t)v.num;
 357              		.loc 3 99 26 view .LVU105
 358 00ae FFF7FEFF 		bl	lv_obj_get_style_prop
 359              	.LVL36:
 360 00b2 8446     		mov	ip, r0
 361 00b4 0590     		str	r0, [sp, #20]
 100:Middlewares/LVGL/GUI/lvgl/src/widgets/../core/lv_obj_style_gen.h **** }
 362              		.loc 3 100 5 is_stmt 1 view .LVU106
 363              	.LVL37:
 100:Middlewares/LVGL/GUI/lvgl/src/widgets/../core/lv_obj_style_gen.h **** }
 364              		.loc 3 100 5 is_stmt 0 view .LVU107
 365              	.LBE88:
 366              	.LBE87:
 273:Middlewares/LVGL/GUI/lvgl/src/widgets/lv_bar.c ****     bar->indic_area.x1 += bg_left;
 367              		.loc 2 273 5 is_stmt 1 view .LVU108
 368 00b6 04F13C03 		add	r3, r4, #60
 369 00ba 0193     		str	r3, [sp, #4]
 370              	.LVL38:
 371              	.LBB89:
 372              	.LBI89:
 110:Middlewares/LVGL/GUI/lvgl/src/widgets/../core/../misc/../font/../misc/lv_area.h **** {
 373              		.loc 1 110 20 view .LVU109
 374              	.LBB90:
 112:Middlewares/LVGL/GUI/lvgl/src/widgets/../core/../misc/../font/../misc/lv_area.h ****     dest->y1 = src->y1;
 375              		.loc 1 112 5 view .LVU110
 112:Middlewares/LVGL/GUI/lvgl/src/widgets/../core/../misc/../font/../misc/lv_area.h ****     dest->y1 = src->y1;
 376              		.loc 1 112 19 is_stmt 0 view .LVU111
 377 00bc 6298     		ldr	r0, [sp, #392]
 378              	.LVL39:
 112:Middlewares/LVGL/GUI/lvgl/src/widgets/../core/../misc/../font/../misc/lv_area.h ****     dest->y1 = src->y1;
 379              		.loc 1 112 14 view .LVU112
 380 00be E063     		str	r0, [r4, #60]
 113:Middlewares/LVGL/GUI/lvgl/src/widgets/../core/../misc/../font/../misc/lv_area.h ****     dest->x2 = src->x2;
 381              		.loc 1 113 5 is_stmt 1 view .LVU113
 113:Middlewares/LVGL/GUI/lvgl/src/widgets/../core/../misc/../font/../misc/lv_area.h ****     dest->x2 = src->x2;
 382              		.loc 1 113 19 is_stmt 0 view .LVU114
 383 00c0 6399     		ldr	r1, [sp, #396]
 113:Middlewares/LVGL/GUI/lvgl/src/widgets/../core/../misc/../font/../misc/lv_area.h ****     dest->x2 = src->x2;
 384              		.loc 1 113 14 view .LVU115
 385 00c2 2164     		str	r1, [r4, #64]
 114:Middlewares/LVGL/GUI/lvgl/src/widgets/../core/../misc/../font/../misc/lv_area.h ****     dest->y2 = src->y2;
 386              		.loc 1 114 5 is_stmt 1 view .LVU116
 114:Middlewares/LVGL/GUI/lvgl/src/widgets/../core/../misc/../font/../misc/lv_area.h ****     dest->y2 = src->y2;
 387              		.loc 1 114 19 is_stmt 0 view .LVU117
 388 00c4 649A     		ldr	r2, [sp, #400]
ARM GAS  C:\Users\ADMINI~1\AppData\Local\Temp\cc93wSbm.s 			page 24


 114:Middlewares/LVGL/GUI/lvgl/src/widgets/../core/../misc/../font/../misc/lv_area.h ****     dest->y2 = src->y2;
 389              		.loc 1 114 14 view .LVU118
 390 00c6 6264     		str	r2, [r4, #68]
 115:Middlewares/LVGL/GUI/lvgl/src/widgets/../core/../misc/../font/../misc/lv_area.h **** }
 391              		.loc 1 115 5 is_stmt 1 view .LVU119
 115:Middlewares/LVGL/GUI/lvgl/src/widgets/../core/../misc/../font/../misc/lv_area.h **** }
 392              		.loc 1 115 19 is_stmt 0 view .LVU120
 393 00c8 659B     		ldr	r3, [sp, #404]
 394              	.LVL40:
 115:Middlewares/LVGL/GUI/lvgl/src/widgets/../core/../misc/../font/../misc/lv_area.h **** }
 395              		.loc 1 115 14 view .LVU121
 396 00ca A364     		str	r3, [r4, #72]
 397              	.LVL41:
 115:Middlewares/LVGL/GUI/lvgl/src/widgets/../core/../misc/../font/../misc/lv_area.h **** }
 398              		.loc 1 115 14 view .LVU122
 399              	.LBE90:
 400              	.LBE89:
 274:Middlewares/LVGL/GUI/lvgl/src/widgets/lv_bar.c ****     bar->indic_area.x2 -= bg_right;
 401              		.loc 2 274 5 is_stmt 1 view .LVU123
 274:Middlewares/LVGL/GUI/lvgl/src/widgets/lv_bar.c ****     bar->indic_area.x2 -= bg_right;
 402              		.loc 2 274 24 is_stmt 0 view .LVU124
 403 00cc 3844     		add	r0, r0, r7
 404 00ce E063     		str	r0, [r4, #60]
 275:Middlewares/LVGL/GUI/lvgl/src/widgets/lv_bar.c ****     bar->indic_area.y1 += bg_top;
 405              		.loc 2 275 5 is_stmt 1 view .LVU125
 275:Middlewares/LVGL/GUI/lvgl/src/widgets/lv_bar.c ****     bar->indic_area.y1 += bg_top;
 406              		.loc 2 275 24 is_stmt 0 view .LVU126
 407 00d0 4F46     		mov	r7, r9
 408              	.LVL42:
 275:Middlewares/LVGL/GUI/lvgl/src/widgets/lv_bar.c ****     bar->indic_area.y1 += bg_top;
 409              		.loc 2 275 24 view .LVU127
 410 00d2 D21B     		subs	r2, r2, r7
 411 00d4 6264     		str	r2, [r4, #68]
 276:Middlewares/LVGL/GUI/lvgl/src/widgets/lv_bar.c ****     bar->indic_area.y2 -= bg_bottom;
 412              		.loc 2 276 5 is_stmt 1 view .LVU128
 276:Middlewares/LVGL/GUI/lvgl/src/widgets/lv_bar.c ****     bar->indic_area.y2 -= bg_bottom;
 413              		.loc 2 276 24 is_stmt 0 view .LVU129
 414 00d6 4144     		add	r1, r1, r8
 415 00d8 2164     		str	r1, [r4, #64]
 277:Middlewares/LVGL/GUI/lvgl/src/widgets/lv_bar.c **** 
 416              		.loc 2 277 5 is_stmt 1 view .LVU130
 277:Middlewares/LVGL/GUI/lvgl/src/widgets/lv_bar.c **** 
 417              		.loc 2 277 24 is_stmt 0 view .LVU131
 418 00da 6746     		mov	r7, ip
 419 00dc DB1B     		subs	r3, r3, r7
 420 00de A364     		str	r3, [r4, #72]
 279:Middlewares/LVGL/GUI/lvgl/src/widgets/lv_bar.c ****         bar->indic_area.y1 = obj->coords.y1 + (barh / 2) - (LV_BAR_SIZE_MIN / 2);
 421              		.loc 2 279 5 is_stmt 1 view .LVU132
 279:Middlewares/LVGL/GUI/lvgl/src/widgets/lv_bar.c ****         bar->indic_area.y1 = obj->coords.y1 + (barh / 2) - (LV_BAR_SIZE_MIN / 2);
 422              		.loc 2 279 7 is_stmt 0 view .LVU133
 423 00e0 AE42     		cmp	r6, r5
 424 00e2 C0F29781 		blt	.L6
 425              	.LVL43:
 426              	.LBB91:
 427              	.LBI91:
 133:Middlewares/LVGL/GUI/lvgl/src/widgets/../core/../misc/../font/../misc/lv_area.h **** {
 428              		.loc 1 133 26 is_stmt 1 discriminator 1 view .LVU134
ARM GAS  C:\Users\ADMINI~1\AppData\Local\Temp\cc93wSbm.s 			page 25


 429              	.LBB92:
 135:Middlewares/LVGL/GUI/lvgl/src/widgets/../core/../misc/../font/../misc/lv_area.h **** }
 430              		.loc 1 135 5 discriminator 1 view .LVU135
 135:Middlewares/LVGL/GUI/lvgl/src/widgets/../core/../misc/../font/../misc/lv_area.h **** }
 431              		.loc 1 135 36 is_stmt 0 discriminator 1 view .LVU136
 432 00e6 5B1A     		subs	r3, r3, r1
 433              	.LVL44:
 135:Middlewares/LVGL/GUI/lvgl/src/widgets/../core/../misc/../font/../misc/lv_area.h **** }
 434              		.loc 1 135 36 discriminator 1 view .LVU137
 435              	.LBE92:
 436              	.LBE91:
 279:Middlewares/LVGL/GUI/lvgl/src/widgets/lv_bar.c ****         bar->indic_area.y1 = obj->coords.y1 + (barh / 2) - (LV_BAR_SIZE_MIN / 2);
 437              		.loc 2 279 12 discriminator 1 view .LVU138
 438 00e8 022B     		cmp	r3, #2
 439 00ea 00F39381 		bgt	.L6
 280:Middlewares/LVGL/GUI/lvgl/src/widgets/lv_bar.c ****         bar->indic_area.y2 = bar->indic_area.y1 + LV_BAR_SIZE_MIN;
 440              		.loc 2 280 9 is_stmt 1 view .LVU139
 280:Middlewares/LVGL/GUI/lvgl/src/widgets/lv_bar.c ****         bar->indic_area.y2 = bar->indic_area.y1 + LV_BAR_SIZE_MIN;
 441              		.loc 2 280 41 is_stmt 0 view .LVU140
 442 00ee A369     		ldr	r3, [r4, #24]
 280:Middlewares/LVGL/GUI/lvgl/src/widgets/lv_bar.c ****         bar->indic_area.y2 = bar->indic_area.y1 + LV_BAR_SIZE_MIN;
 443              		.loc 2 280 53 view .LVU141
 444 00f0 0A9A     		ldr	r2, [sp, #40]
 445 00f2 02EBD272 		add	r2, r2, r2, lsr #31
 280:Middlewares/LVGL/GUI/lvgl/src/widgets/lv_bar.c ****         bar->indic_area.y2 = bar->indic_area.y1 + LV_BAR_SIZE_MIN;
 446              		.loc 2 280 45 view .LVU142
 447 00f6 03EB6203 		add	r3, r3, r2, asr #1
 280:Middlewares/LVGL/GUI/lvgl/src/widgets/lv_bar.c ****         bar->indic_area.y2 = bar->indic_area.y1 + LV_BAR_SIZE_MIN;
 448              		.loc 2 280 58 view .LVU143
 449 00fa 9A1E     		subs	r2, r3, #2
 280:Middlewares/LVGL/GUI/lvgl/src/widgets/lv_bar.c ****         bar->indic_area.y2 = bar->indic_area.y1 + LV_BAR_SIZE_MIN;
 450              		.loc 2 280 28 view .LVU144
 451 00fc 2264     		str	r2, [r4, #64]
 281:Middlewares/LVGL/GUI/lvgl/src/widgets/lv_bar.c ****     }
 452              		.loc 2 281 9 is_stmt 1 view .LVU145
 281:Middlewares/LVGL/GUI/lvgl/src/widgets/lv_bar.c ****     }
 453              		.loc 2 281 49 is_stmt 0 view .LVU146
 454 00fe 0233     		adds	r3, r3, #2
 281:Middlewares/LVGL/GUI/lvgl/src/widgets/lv_bar.c ****     }
 455              		.loc 2 281 28 view .LVU147
 456 0100 A364     		str	r3, [r4, #72]
 457              	.L7:
 288:Middlewares/LVGL/GUI/lvgl/src/widgets/lv_bar.c ****     lv_coord_t indich = lv_area_get_height(&bar->indic_area);
 458              		.loc 2 288 5 is_stmt 1 view .LVU148
 459              	.LVL45:
 460              	.LBB93:
 461              	.LBI93:
 123:Middlewares/LVGL/GUI/lvgl/src/widgets/../core/../misc/../font/../misc/lv_area.h **** {
 462              		.loc 1 123 26 view .LVU149
 463              	.LBB94:
 125:Middlewares/LVGL/GUI/lvgl/src/widgets/../core/../misc/../font/../misc/lv_area.h **** }
 464              		.loc 1 125 5 view .LVU150
 125:Middlewares/LVGL/GUI/lvgl/src/widgets/../core/../misc/../font/../misc/lv_area.h **** }
 465              		.loc 1 125 31 is_stmt 0 view .LVU151
 466 0102 636C     		ldr	r3, [r4, #68]
 125:Middlewares/LVGL/GUI/lvgl/src/widgets/../core/../misc/../font/../misc/lv_area.h **** }
 467              		.loc 1 125 44 view .LVU152
ARM GAS  C:\Users\ADMINI~1\AppData\Local\Temp\cc93wSbm.s 			page 26


 468 0104 E26B     		ldr	r2, [r4, #60]
 125:Middlewares/LVGL/GUI/lvgl/src/widgets/../core/../misc/../font/../misc/lv_area.h **** }
 469              		.loc 1 125 36 view .LVU153
 470 0106 9B1A     		subs	r3, r3, r2
 125:Middlewares/LVGL/GUI/lvgl/src/widgets/../core/../misc/../font/../misc/lv_area.h **** }
 471              		.loc 1 125 12 view .LVU154
 472 0108 591C     		adds	r1, r3, #1
 473 010a 0C91     		str	r1, [sp, #48]
 474              	.LVL46:
 125:Middlewares/LVGL/GUI/lvgl/src/widgets/../core/../misc/../font/../misc/lv_area.h **** }
 475              		.loc 1 125 12 view .LVU155
 476              	.LBE94:
 477              	.LBE93:
 289:Middlewares/LVGL/GUI/lvgl/src/widgets/lv_bar.c **** 
 478              		.loc 2 289 5 is_stmt 1 view .LVU156
 479              	.LBB95:
 480              	.LBI95:
 133:Middlewares/LVGL/GUI/lvgl/src/widgets/../core/../misc/../font/../misc/lv_area.h **** {
 481              		.loc 1 133 26 view .LVU157
 482              	.LBB96:
 135:Middlewares/LVGL/GUI/lvgl/src/widgets/../core/../misc/../font/../misc/lv_area.h **** }
 483              		.loc 1 135 5 view .LVU158
 135:Middlewares/LVGL/GUI/lvgl/src/widgets/../core/../misc/../font/../misc/lv_area.h **** }
 484              		.loc 1 135 31 is_stmt 0 view .LVU159
 485 010c A36C     		ldr	r3, [r4, #72]
 135:Middlewares/LVGL/GUI/lvgl/src/widgets/../core/../misc/../font/../misc/lv_area.h **** }
 486              		.loc 1 135 44 view .LVU160
 487 010e 226C     		ldr	r2, [r4, #64]
 135:Middlewares/LVGL/GUI/lvgl/src/widgets/../core/../misc/../font/../misc/lv_area.h **** }
 488              		.loc 1 135 36 view .LVU161
 489 0110 9B1A     		subs	r3, r3, r2
 135:Middlewares/LVGL/GUI/lvgl/src/widgets/../core/../misc/../font/../misc/lv_area.h **** }
 490              		.loc 1 135 12 view .LVU162
 491 0112 0133     		adds	r3, r3, #1
 492 0114 0993     		str	r3, [sp, #36]
 493              	.LVL47:
 135:Middlewares/LVGL/GUI/lvgl/src/widgets/../core/../misc/../font/../misc/lv_area.h **** }
 494              		.loc 1 135 12 view .LVU163
 495              	.LBE96:
 496              	.LBE95:
 292:Middlewares/LVGL/GUI/lvgl/src/widgets/lv_bar.c **** 
 497              		.loc 2 292 5 is_stmt 1 view .LVU164
 292:Middlewares/LVGL/GUI/lvgl/src/widgets/lv_bar.c **** 
 498              		.loc 2 292 43 is_stmt 0 view .LVU165
 499 0116 AE42     		cmp	r6, r5
 500 0118 C0F28E81 		blt	.L38
 501 011c 8946     		mov	r9, r1
 502              	.LVL48:
 503              	.L8:
 294:Middlewares/LVGL/GUI/lvgl/src/widgets/lv_bar.c **** 
 504              		.loc 2 294 5 is_stmt 1 discriminator 4 view .LVU166
 296:Middlewares/LVGL/GUI/lvgl/src/widgets/lv_bar.c ****     lv_coord_t (*indic_length_calc)(const lv_area_t * area);
 505              		.loc 2 296 5 discriminator 4 view .LVU167
 297:Middlewares/LVGL/GUI/lvgl/src/widgets/lv_bar.c **** 
 506              		.loc 2 297 5 discriminator 4 view .LVU168
 299:Middlewares/LVGL/GUI/lvgl/src/widgets/lv_bar.c ****         axis1 = &bar->indic_area.x1;
 507              		.loc 2 299 5 discriminator 4 view .LVU169
ARM GAS  C:\Users\ADMINI~1\AppData\Local\Temp\cc93wSbm.s 			page 27


 299:Middlewares/LVGL/GUI/lvgl/src/widgets/lv_bar.c ****         axis1 = &bar->indic_area.x1;
 508              		.loc 2 299 7 is_stmt 0 discriminator 4 view .LVU170
 509 011e AE42     		cmp	r6, r5
 510 0120 C0F28D81 		blt	.L9
 300:Middlewares/LVGL/GUI/lvgl/src/widgets/lv_bar.c ****         axis2 = &bar->indic_area.x2;
 511              		.loc 2 300 9 is_stmt 1 view .LVU171
 300:Middlewares/LVGL/GUI/lvgl/src/widgets/lv_bar.c ****         axis2 = &bar->indic_area.x2;
 512              		.loc 2 300 15 is_stmt 0 view .LVU172
 513 0124 04F13C0B 		add	fp, r4, #60
 514              	.LVL49:
 301:Middlewares/LVGL/GUI/lvgl/src/widgets/lv_bar.c ****         indic_length_calc = lv_area_get_width;
 515              		.loc 2 301 9 is_stmt 1 view .LVU173
 301:Middlewares/LVGL/GUI/lvgl/src/widgets/lv_bar.c ****         indic_length_calc = lv_area_get_width;
 516              		.loc 2 301 15 is_stmt 0 view .LVU174
 517 0128 04F1440A 		add	r10, r4, #68
 518              	.LVL50:
 302:Middlewares/LVGL/GUI/lvgl/src/widgets/lv_bar.c ****     }
 519              		.loc 2 302 9 is_stmt 1 view .LVU175
 302:Middlewares/LVGL/GUI/lvgl/src/widgets/lv_bar.c ****     }
 520              		.loc 2 302 27 is_stmt 0 view .LVU176
 521 012c B74B     		ldr	r3, .L46
 522              	.LVL51:
 302:Middlewares/LVGL/GUI/lvgl/src/widgets/lv_bar.c ****     }
 523              		.loc 2 302 27 view .LVU177
 524 012e 0D93     		str	r3, [sp, #52]
 525              	.L10:
 526              	.LVL52:
 310:Middlewares/LVGL/GUI/lvgl/src/widgets/lv_bar.c ****         lv_coord_t anim_start_value_start_x =
 527              		.loc 2 310 5 is_stmt 1 view .LVU178
 310:Middlewares/LVGL/GUI/lvgl/src/widgets/lv_bar.c ****         lv_coord_t anim_start_value_start_x =
 528              		.loc 2 310 8 is_stmt 0 view .LVU179
 529 0130 A26E     		ldr	r2, [r4, #104]
 310:Middlewares/LVGL/GUI/lvgl/src/widgets/lv_bar.c ****         lv_coord_t anim_start_value_start_x =
 530              		.loc 2 310 7 view .LVU180
 531 0132 B2F1FF3F 		cmp	r2, #-1
 532 0136 00F08B81 		beq	.L11
 533              	.LBB97:
 311:Middlewares/LVGL/GUI/lvgl/src/widgets/lv_bar.c ****             (int32_t)((int32_t)anim_length * (bar->start_value_anim.anim_start - bar->min_value)) /
 534              		.loc 2 311 9 is_stmt 1 view .LVU181
 312:Middlewares/LVGL/GUI/lvgl/src/widgets/lv_bar.c ****         lv_coord_t anim_start_value_end_x =
 535              		.loc 2 312 68 is_stmt 0 view .LVU182
 536 013a 276E     		ldr	r7, [r4, #96]
 312:Middlewares/LVGL/GUI/lvgl/src/widgets/lv_bar.c ****         lv_coord_t anim_start_value_end_x =
 537              		.loc 2 312 85 view .LVU183
 538 013c 216B     		ldr	r1, [r4, #48]
 539              	.LVL53:
 312:Middlewares/LVGL/GUI/lvgl/src/widgets/lv_bar.c ****         lv_coord_t anim_start_value_end_x =
 540              		.loc 2 312 80 view .LVU184
 541 013e 7F1A     		subs	r7, r7, r1
 312:Middlewares/LVGL/GUI/lvgl/src/widgets/lv_bar.c ****         lv_coord_t anim_start_value_end_x =
 542              		.loc 2 312 13 view .LVU185
 543 0140 09FB07F7 		mul	r7, r9, r7
 311:Middlewares/LVGL/GUI/lvgl/src/widgets/lv_bar.c ****             (int32_t)((int32_t)anim_length * (bar->start_value_anim.anim_start - bar->min_value)) /
 544              		.loc 2 311 20 view .LVU186
 545 0144 0298     		ldr	r0, [sp, #8]
 546 0146 97FBF0F7 		sdiv	r7, r7, r0
 547              	.LVL54:
ARM GAS  C:\Users\ADMINI~1\AppData\Local\Temp\cc93wSbm.s 			page 28


 313:Middlewares/LVGL/GUI/lvgl/src/widgets/lv_bar.c ****             (int32_t)((int32_t)anim_length * (bar->start_value_anim.anim_end - bar->min_value)) / r
 548              		.loc 2 313 9 is_stmt 1 view .LVU187
 314:Middlewares/LVGL/GUI/lvgl/src/widgets/lv_bar.c **** 
 549              		.loc 2 314 68 is_stmt 0 view .LVU188
 550 014a 636E     		ldr	r3, [r4, #100]
 314:Middlewares/LVGL/GUI/lvgl/src/widgets/lv_bar.c **** 
 551              		.loc 2 314 78 view .LVU189
 552 014c 5B1A     		subs	r3, r3, r1
 314:Middlewares/LVGL/GUI/lvgl/src/widgets/lv_bar.c **** 
 553              		.loc 2 314 13 view .LVU190
 554 014e 09FB03F3 		mul	r3, r9, r3
 313:Middlewares/LVGL/GUI/lvgl/src/widgets/lv_bar.c ****             (int32_t)((int32_t)anim_length * (bar->start_value_anim.anim_end - bar->min_value)) / r
 555              		.loc 2 313 20 view .LVU191
 556 0152 93FBF0F3 		sdiv	r3, r3, r0
 557              	.LVL55:
 316:Middlewares/LVGL/GUI/lvgl/src/widgets/lv_bar.c ****                               LV_BAR_ANIM_STATE_END);
 558              		.loc 2 316 9 is_stmt 1 view .LVU192
 316:Middlewares/LVGL/GUI/lvgl/src/widgets/lv_bar.c ****                               LV_BAR_ANIM_STATE_END);
 559              		.loc 2 316 56 is_stmt 0 view .LVU193
 560 0156 DB1B     		subs	r3, r3, r7
 561              	.LVL56:
 316:Middlewares/LVGL/GUI/lvgl/src/widgets/lv_bar.c ****                               LV_BAR_ANIM_STATE_END);
 562              		.loc 2 316 84 view .LVU194
 563 0158 02FB03F3 		mul	r3, r2, r3
 316:Middlewares/LVGL/GUI/lvgl/src/widgets/lv_bar.c ****                               LV_BAR_ANIM_STATE_END);
 564              		.loc 2 316 28 view .LVU195
 565 015c 002B     		cmp	r3, #0
 566 015e C0F27581 		blt	.L41
 567              	.L12:
 568              	.LVL57:
 319:Middlewares/LVGL/GUI/lvgl/src/widgets/lv_bar.c ****     }
 569              		.loc 2 319 9 is_stmt 1 view .LVU196
 319:Middlewares/LVGL/GUI/lvgl/src/widgets/lv_bar.c ****     }
 570              		.loc 2 319 28 is_stmt 0 view .LVU197
 571 0162 07EB2327 		add	r7, r7, r3, asr #8
 572              	.LVL58:
 573              	.L13:
 319:Middlewares/LVGL/GUI/lvgl/src/widgets/lv_bar.c ****     }
 574              		.loc 2 319 28 view .LVU198
 575              	.LBE97:
 325:Middlewares/LVGL/GUI/lvgl/src/widgets/lv_bar.c ****         lv_coord_t anim_cur_value_start_x =
 576              		.loc 2 325 5 is_stmt 1 view .LVU199
 325:Middlewares/LVGL/GUI/lvgl/src/widgets/lv_bar.c ****         lv_coord_t anim_cur_value_start_x =
 577              		.loc 2 325 8 is_stmt 0 view .LVU200
 578 0166 A26D     		ldr	r2, [r4, #88]
 325:Middlewares/LVGL/GUI/lvgl/src/widgets/lv_bar.c ****         lv_coord_t anim_cur_value_start_x =
 579              		.loc 2 325 7 view .LVU201
 580 0168 B2F1FF3F 		cmp	r2, #-1
 581 016c 00F07B81 		beq	.L14
 582              	.LBB98:
 326:Middlewares/LVGL/GUI/lvgl/src/widgets/lv_bar.c ****             (int32_t)((int32_t)anim_length * (bar->cur_value_anim.anim_start - bar->min_value)) / r
 583              		.loc 2 326 9 is_stmt 1 view .LVU202
 327:Middlewares/LVGL/GUI/lvgl/src/widgets/lv_bar.c ****         lv_coord_t anim_cur_value_end_x =
 584              		.loc 2 327 66 is_stmt 0 view .LVU203
 585 0170 216D     		ldr	r1, [r4, #80]
 327:Middlewares/LVGL/GUI/lvgl/src/widgets/lv_bar.c ****         lv_coord_t anim_cur_value_end_x =
 586              		.loc 2 327 83 view .LVU204
ARM GAS  C:\Users\ADMINI~1\AppData\Local\Temp\cc93wSbm.s 			page 29


 587 0172 206B     		ldr	r0, [r4, #48]
 327:Middlewares/LVGL/GUI/lvgl/src/widgets/lv_bar.c ****         lv_coord_t anim_cur_value_end_x =
 588              		.loc 2 327 78 view .LVU205
 589 0174 A1EB0008 		sub	r8, r1, r0
 590              	.LVL59:
 327:Middlewares/LVGL/GUI/lvgl/src/widgets/lv_bar.c ****         lv_coord_t anim_cur_value_end_x =
 591              		.loc 2 327 13 view .LVU206
 592 0178 09FB08F8 		mul	r8, r9, r8
 326:Middlewares/LVGL/GUI/lvgl/src/widgets/lv_bar.c ****             (int32_t)((int32_t)anim_length * (bar->cur_value_anim.anim_start - bar->min_value)) / r
 593              		.loc 2 326 20 view .LVU207
 594 017c 0299     		ldr	r1, [sp, #8]
 595 017e 98FBF1F8 		sdiv	r8, r8, r1
 596              	.LVL60:
 328:Middlewares/LVGL/GUI/lvgl/src/widgets/lv_bar.c ****             (int32_t)((int32_t)anim_length * (bar->cur_value_anim.anim_end - bar->min_value)) / ran
 597              		.loc 2 328 9 is_stmt 1 view .LVU208
 329:Middlewares/LVGL/GUI/lvgl/src/widgets/lv_bar.c **** 
 598              		.loc 2 329 66 is_stmt 0 view .LVU209
 599 0182 636D     		ldr	r3, [r4, #84]
 329:Middlewares/LVGL/GUI/lvgl/src/widgets/lv_bar.c **** 
 600              		.loc 2 329 76 view .LVU210
 601 0184 1B1A     		subs	r3, r3, r0
 329:Middlewares/LVGL/GUI/lvgl/src/widgets/lv_bar.c **** 
 602              		.loc 2 329 13 view .LVU211
 603 0186 09FB03F3 		mul	r3, r9, r3
 328:Middlewares/LVGL/GUI/lvgl/src/widgets/lv_bar.c ****             (int32_t)((int32_t)anim_length * (bar->cur_value_anim.anim_end - bar->min_value)) / ran
 604              		.loc 2 328 20 view .LVU212
 605 018a 93FBF1F3 		sdiv	r3, r3, r1
 606              	.LVL61:
 331:Middlewares/LVGL/GUI/lvgl/src/widgets/lv_bar.c ****                                                       bar->cur_value_anim.anim_state) /
 607              		.loc 2 331 9 is_stmt 1 view .LVU213
 331:Middlewares/LVGL/GUI/lvgl/src/widgets/lv_bar.c ****                                                       bar->cur_value_anim.anim_state) /
 608              		.loc 2 331 77 is_stmt 0 view .LVU214
 609 018e A3EB0803 		sub	r3, r3, r8
 610              	.LVL62:
 331:Middlewares/LVGL/GUI/lvgl/src/widgets/lv_bar.c ****                                                       bar->cur_value_anim.anim_state) /
 611              		.loc 2 331 103 view .LVU215
 612 0192 02FB03F3 		mul	r3, r2, r3
 332:Middlewares/LVGL/GUI/lvgl/src/widgets/lv_bar.c ****                                                      LV_BAR_ANIM_STATE_END);
 613              		.loc 2 332 87 view .LVU216
 614 0196 002B     		cmp	r3, #0
 615 0198 C0F26381 		blt	.L42
 616              	.L15:
 331:Middlewares/LVGL/GUI/lvgl/src/widgets/lv_bar.c ****                                                       bar->cur_value_anim.anim_state) /
 617              		.loc 2 331 26 view .LVU217
 618 019c 08EB2328 		add	r8, r8, r3, asr #8
 619              	.LVL63:
 620              	.L16:
 331:Middlewares/LVGL/GUI/lvgl/src/widgets/lv_bar.c ****                                                       bar->cur_value_anim.anim_state) /
 621              		.loc 2 331 26 view .LVU218
 622              	.LBE98:
 339:Middlewares/LVGL/GUI/lvgl/src/widgets/lv_bar.c ****     if(hor && base_dir == LV_BASE_DIR_RTL) {
 623              		.loc 2 339 5 is_stmt 1 view .LVU219
 624              	.LBB99:
 625              	.LBI99:
 113:Middlewares/LVGL/GUI/lvgl/src/widgets/../core/lv_obj_style_gen.h **** }
 114:Middlewares/LVGL/GUI/lvgl/src/widgets/../core/lv_obj_style_gen.h **** 
 115:Middlewares/LVGL/GUI/lvgl/src/widgets/../core/lv_obj_style_gen.h **** static inline lv_coord_t lv_obj_get_style_pad_row(const struct _lv_obj_t * obj, uint32_t part)
ARM GAS  C:\Users\ADMINI~1\AppData\Local\Temp\cc93wSbm.s 			page 30


 116:Middlewares/LVGL/GUI/lvgl/src/widgets/../core/lv_obj_style_gen.h **** {
 117:Middlewares/LVGL/GUI/lvgl/src/widgets/../core/lv_obj_style_gen.h ****     lv_style_value_t v = lv_obj_get_style_prop(obj, part, LV_STYLE_PAD_ROW);
 118:Middlewares/LVGL/GUI/lvgl/src/widgets/../core/lv_obj_style_gen.h ****     return (lv_coord_t)v.num;
 119:Middlewares/LVGL/GUI/lvgl/src/widgets/../core/lv_obj_style_gen.h **** }
 120:Middlewares/LVGL/GUI/lvgl/src/widgets/../core/lv_obj_style_gen.h **** 
 121:Middlewares/LVGL/GUI/lvgl/src/widgets/../core/lv_obj_style_gen.h **** static inline lv_coord_t lv_obj_get_style_pad_column(const struct _lv_obj_t * obj, uint32_t part)
 122:Middlewares/LVGL/GUI/lvgl/src/widgets/../core/lv_obj_style_gen.h **** {
 123:Middlewares/LVGL/GUI/lvgl/src/widgets/../core/lv_obj_style_gen.h ****     lv_style_value_t v = lv_obj_get_style_prop(obj, part, LV_STYLE_PAD_COLUMN);
 124:Middlewares/LVGL/GUI/lvgl/src/widgets/../core/lv_obj_style_gen.h ****     return (lv_coord_t)v.num;
 125:Middlewares/LVGL/GUI/lvgl/src/widgets/../core/lv_obj_style_gen.h **** }
 126:Middlewares/LVGL/GUI/lvgl/src/widgets/../core/lv_obj_style_gen.h **** 
 127:Middlewares/LVGL/GUI/lvgl/src/widgets/../core/lv_obj_style_gen.h **** static inline lv_color_t lv_obj_get_style_bg_color(const struct _lv_obj_t * obj, uint32_t part)
 128:Middlewares/LVGL/GUI/lvgl/src/widgets/../core/lv_obj_style_gen.h **** {
 129:Middlewares/LVGL/GUI/lvgl/src/widgets/../core/lv_obj_style_gen.h ****     lv_style_value_t v = lv_obj_get_style_prop(obj, part, LV_STYLE_BG_COLOR);
 130:Middlewares/LVGL/GUI/lvgl/src/widgets/../core/lv_obj_style_gen.h ****     return v.color;
 131:Middlewares/LVGL/GUI/lvgl/src/widgets/../core/lv_obj_style_gen.h **** }
 132:Middlewares/LVGL/GUI/lvgl/src/widgets/../core/lv_obj_style_gen.h **** 
 133:Middlewares/LVGL/GUI/lvgl/src/widgets/../core/lv_obj_style_gen.h **** static inline lv_color_t lv_obj_get_style_bg_color_filtered(const struct _lv_obj_t * obj, uint32_t 
 134:Middlewares/LVGL/GUI/lvgl/src/widgets/../core/lv_obj_style_gen.h **** {
 135:Middlewares/LVGL/GUI/lvgl/src/widgets/../core/lv_obj_style_gen.h ****     lv_style_value_t v = lv_obj_get_style_prop(obj, part, LV_STYLE_BG_COLOR_FILTERED);
 136:Middlewares/LVGL/GUI/lvgl/src/widgets/../core/lv_obj_style_gen.h ****     return v.color;
 137:Middlewares/LVGL/GUI/lvgl/src/widgets/../core/lv_obj_style_gen.h **** }
 138:Middlewares/LVGL/GUI/lvgl/src/widgets/../core/lv_obj_style_gen.h **** 
 139:Middlewares/LVGL/GUI/lvgl/src/widgets/../core/lv_obj_style_gen.h **** static inline lv_opa_t lv_obj_get_style_bg_opa(const struct _lv_obj_t * obj, uint32_t part)
 140:Middlewares/LVGL/GUI/lvgl/src/widgets/../core/lv_obj_style_gen.h **** {
 141:Middlewares/LVGL/GUI/lvgl/src/widgets/../core/lv_obj_style_gen.h ****     lv_style_value_t v = lv_obj_get_style_prop(obj, part, LV_STYLE_BG_OPA);
 142:Middlewares/LVGL/GUI/lvgl/src/widgets/../core/lv_obj_style_gen.h ****     return (lv_opa_t)v.num;
 143:Middlewares/LVGL/GUI/lvgl/src/widgets/../core/lv_obj_style_gen.h **** }
 144:Middlewares/LVGL/GUI/lvgl/src/widgets/../core/lv_obj_style_gen.h **** 
 145:Middlewares/LVGL/GUI/lvgl/src/widgets/../core/lv_obj_style_gen.h **** static inline lv_color_t lv_obj_get_style_bg_grad_color(const struct _lv_obj_t * obj, uint32_t part
 146:Middlewares/LVGL/GUI/lvgl/src/widgets/../core/lv_obj_style_gen.h **** {
 147:Middlewares/LVGL/GUI/lvgl/src/widgets/../core/lv_obj_style_gen.h ****     lv_style_value_t v = lv_obj_get_style_prop(obj, part, LV_STYLE_BG_GRAD_COLOR);
 148:Middlewares/LVGL/GUI/lvgl/src/widgets/../core/lv_obj_style_gen.h ****     return v.color;
 149:Middlewares/LVGL/GUI/lvgl/src/widgets/../core/lv_obj_style_gen.h **** }
 150:Middlewares/LVGL/GUI/lvgl/src/widgets/../core/lv_obj_style_gen.h **** 
 151:Middlewares/LVGL/GUI/lvgl/src/widgets/../core/lv_obj_style_gen.h **** static inline lv_color_t lv_obj_get_style_bg_grad_color_filtered(const struct _lv_obj_t * obj, uint
 152:Middlewares/LVGL/GUI/lvgl/src/widgets/../core/lv_obj_style_gen.h **** {
 153:Middlewares/LVGL/GUI/lvgl/src/widgets/../core/lv_obj_style_gen.h ****     lv_style_value_t v = lv_obj_get_style_prop(obj, part, LV_STYLE_BG_GRAD_COLOR_FILTERED);
 154:Middlewares/LVGL/GUI/lvgl/src/widgets/../core/lv_obj_style_gen.h ****     return v.color;
 155:Middlewares/LVGL/GUI/lvgl/src/widgets/../core/lv_obj_style_gen.h **** }
 156:Middlewares/LVGL/GUI/lvgl/src/widgets/../core/lv_obj_style_gen.h **** 
 157:Middlewares/LVGL/GUI/lvgl/src/widgets/../core/lv_obj_style_gen.h **** static inline lv_grad_dir_t lv_obj_get_style_bg_grad_dir(const struct _lv_obj_t * obj, uint32_t par
 158:Middlewares/LVGL/GUI/lvgl/src/widgets/../core/lv_obj_style_gen.h **** {
 159:Middlewares/LVGL/GUI/lvgl/src/widgets/../core/lv_obj_style_gen.h ****     lv_style_value_t v = lv_obj_get_style_prop(obj, part, LV_STYLE_BG_GRAD_DIR);
 160:Middlewares/LVGL/GUI/lvgl/src/widgets/../core/lv_obj_style_gen.h ****     return (lv_grad_dir_t)v.num;
 161:Middlewares/LVGL/GUI/lvgl/src/widgets/../core/lv_obj_style_gen.h **** }
 162:Middlewares/LVGL/GUI/lvgl/src/widgets/../core/lv_obj_style_gen.h **** 
 163:Middlewares/LVGL/GUI/lvgl/src/widgets/../core/lv_obj_style_gen.h **** static inline lv_coord_t lv_obj_get_style_bg_main_stop(const struct _lv_obj_t * obj, uint32_t part)
 164:Middlewares/LVGL/GUI/lvgl/src/widgets/../core/lv_obj_style_gen.h **** {
 165:Middlewares/LVGL/GUI/lvgl/src/widgets/../core/lv_obj_style_gen.h ****     lv_style_value_t v = lv_obj_get_style_prop(obj, part, LV_STYLE_BG_MAIN_STOP);
 166:Middlewares/LVGL/GUI/lvgl/src/widgets/../core/lv_obj_style_gen.h ****     return (lv_coord_t)v.num;
 167:Middlewares/LVGL/GUI/lvgl/src/widgets/../core/lv_obj_style_gen.h **** }
 168:Middlewares/LVGL/GUI/lvgl/src/widgets/../core/lv_obj_style_gen.h **** 
 169:Middlewares/LVGL/GUI/lvgl/src/widgets/../core/lv_obj_style_gen.h **** static inline lv_coord_t lv_obj_get_style_bg_grad_stop(const struct _lv_obj_t * obj, uint32_t part)
 170:Middlewares/LVGL/GUI/lvgl/src/widgets/../core/lv_obj_style_gen.h **** {
 171:Middlewares/LVGL/GUI/lvgl/src/widgets/../core/lv_obj_style_gen.h ****     lv_style_value_t v = lv_obj_get_style_prop(obj, part, LV_STYLE_BG_GRAD_STOP);
 172:Middlewares/LVGL/GUI/lvgl/src/widgets/../core/lv_obj_style_gen.h ****     return (lv_coord_t)v.num;
ARM GAS  C:\Users\ADMINI~1\AppData\Local\Temp\cc93wSbm.s 			page 31


 173:Middlewares/LVGL/GUI/lvgl/src/widgets/../core/lv_obj_style_gen.h **** }
 174:Middlewares/LVGL/GUI/lvgl/src/widgets/../core/lv_obj_style_gen.h **** 
 175:Middlewares/LVGL/GUI/lvgl/src/widgets/../core/lv_obj_style_gen.h **** static inline const lv_grad_dsc_t * lv_obj_get_style_bg_grad(const struct _lv_obj_t * obj, uint32_t
 176:Middlewares/LVGL/GUI/lvgl/src/widgets/../core/lv_obj_style_gen.h **** {
 177:Middlewares/LVGL/GUI/lvgl/src/widgets/../core/lv_obj_style_gen.h ****     lv_style_value_t v = lv_obj_get_style_prop(obj, part, LV_STYLE_BG_GRAD);
 178:Middlewares/LVGL/GUI/lvgl/src/widgets/../core/lv_obj_style_gen.h ****     return (const lv_grad_dsc_t *)v.ptr;
 179:Middlewares/LVGL/GUI/lvgl/src/widgets/../core/lv_obj_style_gen.h **** }
 180:Middlewares/LVGL/GUI/lvgl/src/widgets/../core/lv_obj_style_gen.h **** 
 181:Middlewares/LVGL/GUI/lvgl/src/widgets/../core/lv_obj_style_gen.h **** static inline lv_dither_mode_t lv_obj_get_style_bg_dither_mode(const struct _lv_obj_t * obj, uint32
 182:Middlewares/LVGL/GUI/lvgl/src/widgets/../core/lv_obj_style_gen.h **** {
 183:Middlewares/LVGL/GUI/lvgl/src/widgets/../core/lv_obj_style_gen.h ****     lv_style_value_t v = lv_obj_get_style_prop(obj, part, LV_STYLE_BG_DITHER_MODE);
 184:Middlewares/LVGL/GUI/lvgl/src/widgets/../core/lv_obj_style_gen.h ****     return (lv_dither_mode_t)v.num;
 185:Middlewares/LVGL/GUI/lvgl/src/widgets/../core/lv_obj_style_gen.h **** }
 186:Middlewares/LVGL/GUI/lvgl/src/widgets/../core/lv_obj_style_gen.h **** 
 187:Middlewares/LVGL/GUI/lvgl/src/widgets/../core/lv_obj_style_gen.h **** static inline const void * lv_obj_get_style_bg_img_src(const struct _lv_obj_t * obj, uint32_t part)
 188:Middlewares/LVGL/GUI/lvgl/src/widgets/../core/lv_obj_style_gen.h **** {
 189:Middlewares/LVGL/GUI/lvgl/src/widgets/../core/lv_obj_style_gen.h ****     lv_style_value_t v = lv_obj_get_style_prop(obj, part, LV_STYLE_BG_IMG_SRC);
 190:Middlewares/LVGL/GUI/lvgl/src/widgets/../core/lv_obj_style_gen.h ****     return (const void *)v.ptr;
 191:Middlewares/LVGL/GUI/lvgl/src/widgets/../core/lv_obj_style_gen.h **** }
 192:Middlewares/LVGL/GUI/lvgl/src/widgets/../core/lv_obj_style_gen.h **** 
 193:Middlewares/LVGL/GUI/lvgl/src/widgets/../core/lv_obj_style_gen.h **** static inline lv_opa_t lv_obj_get_style_bg_img_opa(const struct _lv_obj_t * obj, uint32_t part)
 194:Middlewares/LVGL/GUI/lvgl/src/widgets/../core/lv_obj_style_gen.h **** {
 195:Middlewares/LVGL/GUI/lvgl/src/widgets/../core/lv_obj_style_gen.h ****     lv_style_value_t v = lv_obj_get_style_prop(obj, part, LV_STYLE_BG_IMG_OPA);
 196:Middlewares/LVGL/GUI/lvgl/src/widgets/../core/lv_obj_style_gen.h ****     return (lv_opa_t)v.num;
 197:Middlewares/LVGL/GUI/lvgl/src/widgets/../core/lv_obj_style_gen.h **** }
 198:Middlewares/LVGL/GUI/lvgl/src/widgets/../core/lv_obj_style_gen.h **** 
 199:Middlewares/LVGL/GUI/lvgl/src/widgets/../core/lv_obj_style_gen.h **** static inline lv_color_t lv_obj_get_style_bg_img_recolor(const struct _lv_obj_t * obj, uint32_t par
 200:Middlewares/LVGL/GUI/lvgl/src/widgets/../core/lv_obj_style_gen.h **** {
 201:Middlewares/LVGL/GUI/lvgl/src/widgets/../core/lv_obj_style_gen.h ****     lv_style_value_t v = lv_obj_get_style_prop(obj, part, LV_STYLE_BG_IMG_RECOLOR);
 202:Middlewares/LVGL/GUI/lvgl/src/widgets/../core/lv_obj_style_gen.h ****     return v.color;
 203:Middlewares/LVGL/GUI/lvgl/src/widgets/../core/lv_obj_style_gen.h **** }
 204:Middlewares/LVGL/GUI/lvgl/src/widgets/../core/lv_obj_style_gen.h **** 
 205:Middlewares/LVGL/GUI/lvgl/src/widgets/../core/lv_obj_style_gen.h **** static inline lv_color_t lv_obj_get_style_bg_img_recolor_filtered(const struct _lv_obj_t * obj, uin
 206:Middlewares/LVGL/GUI/lvgl/src/widgets/../core/lv_obj_style_gen.h **** {
 207:Middlewares/LVGL/GUI/lvgl/src/widgets/../core/lv_obj_style_gen.h ****     lv_style_value_t v = lv_obj_get_style_prop(obj, part, LV_STYLE_BG_IMG_RECOLOR_FILTERED);
 208:Middlewares/LVGL/GUI/lvgl/src/widgets/../core/lv_obj_style_gen.h ****     return v.color;
 209:Middlewares/LVGL/GUI/lvgl/src/widgets/../core/lv_obj_style_gen.h **** }
 210:Middlewares/LVGL/GUI/lvgl/src/widgets/../core/lv_obj_style_gen.h **** 
 211:Middlewares/LVGL/GUI/lvgl/src/widgets/../core/lv_obj_style_gen.h **** static inline lv_opa_t lv_obj_get_style_bg_img_recolor_opa(const struct _lv_obj_t * obj, uint32_t p
 212:Middlewares/LVGL/GUI/lvgl/src/widgets/../core/lv_obj_style_gen.h **** {
 213:Middlewares/LVGL/GUI/lvgl/src/widgets/../core/lv_obj_style_gen.h ****     lv_style_value_t v = lv_obj_get_style_prop(obj, part, LV_STYLE_BG_IMG_RECOLOR_OPA);
 214:Middlewares/LVGL/GUI/lvgl/src/widgets/../core/lv_obj_style_gen.h ****     return (lv_opa_t)v.num;
 215:Middlewares/LVGL/GUI/lvgl/src/widgets/../core/lv_obj_style_gen.h **** }
 216:Middlewares/LVGL/GUI/lvgl/src/widgets/../core/lv_obj_style_gen.h **** 
 217:Middlewares/LVGL/GUI/lvgl/src/widgets/../core/lv_obj_style_gen.h **** static inline bool lv_obj_get_style_bg_img_tiled(const struct _lv_obj_t * obj, uint32_t part)
 218:Middlewares/LVGL/GUI/lvgl/src/widgets/../core/lv_obj_style_gen.h **** {
 219:Middlewares/LVGL/GUI/lvgl/src/widgets/../core/lv_obj_style_gen.h ****     lv_style_value_t v = lv_obj_get_style_prop(obj, part, LV_STYLE_BG_IMG_TILED);
 220:Middlewares/LVGL/GUI/lvgl/src/widgets/../core/lv_obj_style_gen.h ****     return (bool)v.num;
 221:Middlewares/LVGL/GUI/lvgl/src/widgets/../core/lv_obj_style_gen.h **** }
 222:Middlewares/LVGL/GUI/lvgl/src/widgets/../core/lv_obj_style_gen.h **** 
 223:Middlewares/LVGL/GUI/lvgl/src/widgets/../core/lv_obj_style_gen.h **** static inline lv_color_t lv_obj_get_style_border_color(const struct _lv_obj_t * obj, uint32_t part)
 224:Middlewares/LVGL/GUI/lvgl/src/widgets/../core/lv_obj_style_gen.h **** {
 225:Middlewares/LVGL/GUI/lvgl/src/widgets/../core/lv_obj_style_gen.h ****     lv_style_value_t v = lv_obj_get_style_prop(obj, part, LV_STYLE_BORDER_COLOR);
 226:Middlewares/LVGL/GUI/lvgl/src/widgets/../core/lv_obj_style_gen.h ****     return v.color;
 227:Middlewares/LVGL/GUI/lvgl/src/widgets/../core/lv_obj_style_gen.h **** }
 228:Middlewares/LVGL/GUI/lvgl/src/widgets/../core/lv_obj_style_gen.h **** 
 229:Middlewares/LVGL/GUI/lvgl/src/widgets/../core/lv_obj_style_gen.h **** static inline lv_color_t lv_obj_get_style_border_color_filtered(const struct _lv_obj_t * obj, uint3
ARM GAS  C:\Users\ADMINI~1\AppData\Local\Temp\cc93wSbm.s 			page 32


 230:Middlewares/LVGL/GUI/lvgl/src/widgets/../core/lv_obj_style_gen.h **** {
 231:Middlewares/LVGL/GUI/lvgl/src/widgets/../core/lv_obj_style_gen.h ****     lv_style_value_t v = lv_obj_get_style_prop(obj, part, LV_STYLE_BORDER_COLOR_FILTERED);
 232:Middlewares/LVGL/GUI/lvgl/src/widgets/../core/lv_obj_style_gen.h ****     return v.color;
 233:Middlewares/LVGL/GUI/lvgl/src/widgets/../core/lv_obj_style_gen.h **** }
 234:Middlewares/LVGL/GUI/lvgl/src/widgets/../core/lv_obj_style_gen.h **** 
 235:Middlewares/LVGL/GUI/lvgl/src/widgets/../core/lv_obj_style_gen.h **** static inline lv_opa_t lv_obj_get_style_border_opa(const struct _lv_obj_t * obj, uint32_t part)
 236:Middlewares/LVGL/GUI/lvgl/src/widgets/../core/lv_obj_style_gen.h **** {
 237:Middlewares/LVGL/GUI/lvgl/src/widgets/../core/lv_obj_style_gen.h ****     lv_style_value_t v = lv_obj_get_style_prop(obj, part, LV_STYLE_BORDER_OPA);
 238:Middlewares/LVGL/GUI/lvgl/src/widgets/../core/lv_obj_style_gen.h ****     return (lv_opa_t)v.num;
 239:Middlewares/LVGL/GUI/lvgl/src/widgets/../core/lv_obj_style_gen.h **** }
 240:Middlewares/LVGL/GUI/lvgl/src/widgets/../core/lv_obj_style_gen.h **** 
 241:Middlewares/LVGL/GUI/lvgl/src/widgets/../core/lv_obj_style_gen.h **** static inline lv_coord_t lv_obj_get_style_border_width(const struct _lv_obj_t * obj, uint32_t part)
 242:Middlewares/LVGL/GUI/lvgl/src/widgets/../core/lv_obj_style_gen.h **** {
 243:Middlewares/LVGL/GUI/lvgl/src/widgets/../core/lv_obj_style_gen.h ****     lv_style_value_t v = lv_obj_get_style_prop(obj, part, LV_STYLE_BORDER_WIDTH);
 244:Middlewares/LVGL/GUI/lvgl/src/widgets/../core/lv_obj_style_gen.h ****     return (lv_coord_t)v.num;
 245:Middlewares/LVGL/GUI/lvgl/src/widgets/../core/lv_obj_style_gen.h **** }
 246:Middlewares/LVGL/GUI/lvgl/src/widgets/../core/lv_obj_style_gen.h **** 
 247:Middlewares/LVGL/GUI/lvgl/src/widgets/../core/lv_obj_style_gen.h **** static inline lv_border_side_t lv_obj_get_style_border_side(const struct _lv_obj_t * obj, uint32_t 
 248:Middlewares/LVGL/GUI/lvgl/src/widgets/../core/lv_obj_style_gen.h **** {
 249:Middlewares/LVGL/GUI/lvgl/src/widgets/../core/lv_obj_style_gen.h ****     lv_style_value_t v = lv_obj_get_style_prop(obj, part, LV_STYLE_BORDER_SIDE);
 250:Middlewares/LVGL/GUI/lvgl/src/widgets/../core/lv_obj_style_gen.h ****     return (lv_border_side_t)v.num;
 251:Middlewares/LVGL/GUI/lvgl/src/widgets/../core/lv_obj_style_gen.h **** }
 252:Middlewares/LVGL/GUI/lvgl/src/widgets/../core/lv_obj_style_gen.h **** 
 253:Middlewares/LVGL/GUI/lvgl/src/widgets/../core/lv_obj_style_gen.h **** static inline bool lv_obj_get_style_border_post(const struct _lv_obj_t * obj, uint32_t part)
 254:Middlewares/LVGL/GUI/lvgl/src/widgets/../core/lv_obj_style_gen.h **** {
 255:Middlewares/LVGL/GUI/lvgl/src/widgets/../core/lv_obj_style_gen.h ****     lv_style_value_t v = lv_obj_get_style_prop(obj, part, LV_STYLE_BORDER_POST);
 256:Middlewares/LVGL/GUI/lvgl/src/widgets/../core/lv_obj_style_gen.h ****     return (bool)v.num;
 257:Middlewares/LVGL/GUI/lvgl/src/widgets/../core/lv_obj_style_gen.h **** }
 258:Middlewares/LVGL/GUI/lvgl/src/widgets/../core/lv_obj_style_gen.h **** 
 259:Middlewares/LVGL/GUI/lvgl/src/widgets/../core/lv_obj_style_gen.h **** static inline lv_coord_t lv_obj_get_style_outline_width(const struct _lv_obj_t * obj, uint32_t part
 260:Middlewares/LVGL/GUI/lvgl/src/widgets/../core/lv_obj_style_gen.h **** {
 261:Middlewares/LVGL/GUI/lvgl/src/widgets/../core/lv_obj_style_gen.h ****     lv_style_value_t v = lv_obj_get_style_prop(obj, part, LV_STYLE_OUTLINE_WIDTH);
 262:Middlewares/LVGL/GUI/lvgl/src/widgets/../core/lv_obj_style_gen.h ****     return (lv_coord_t)v.num;
 263:Middlewares/LVGL/GUI/lvgl/src/widgets/../core/lv_obj_style_gen.h **** }
 264:Middlewares/LVGL/GUI/lvgl/src/widgets/../core/lv_obj_style_gen.h **** 
 265:Middlewares/LVGL/GUI/lvgl/src/widgets/../core/lv_obj_style_gen.h **** static inline lv_color_t lv_obj_get_style_outline_color(const struct _lv_obj_t * obj, uint32_t part
 266:Middlewares/LVGL/GUI/lvgl/src/widgets/../core/lv_obj_style_gen.h **** {
 267:Middlewares/LVGL/GUI/lvgl/src/widgets/../core/lv_obj_style_gen.h ****     lv_style_value_t v = lv_obj_get_style_prop(obj, part, LV_STYLE_OUTLINE_COLOR);
 268:Middlewares/LVGL/GUI/lvgl/src/widgets/../core/lv_obj_style_gen.h ****     return v.color;
 269:Middlewares/LVGL/GUI/lvgl/src/widgets/../core/lv_obj_style_gen.h **** }
 270:Middlewares/LVGL/GUI/lvgl/src/widgets/../core/lv_obj_style_gen.h **** 
 271:Middlewares/LVGL/GUI/lvgl/src/widgets/../core/lv_obj_style_gen.h **** static inline lv_color_t lv_obj_get_style_outline_color_filtered(const struct _lv_obj_t * obj, uint
 272:Middlewares/LVGL/GUI/lvgl/src/widgets/../core/lv_obj_style_gen.h **** {
 273:Middlewares/LVGL/GUI/lvgl/src/widgets/../core/lv_obj_style_gen.h ****     lv_style_value_t v = lv_obj_get_style_prop(obj, part, LV_STYLE_OUTLINE_COLOR_FILTERED);
 274:Middlewares/LVGL/GUI/lvgl/src/widgets/../core/lv_obj_style_gen.h ****     return v.color;
 275:Middlewares/LVGL/GUI/lvgl/src/widgets/../core/lv_obj_style_gen.h **** }
 276:Middlewares/LVGL/GUI/lvgl/src/widgets/../core/lv_obj_style_gen.h **** 
 277:Middlewares/LVGL/GUI/lvgl/src/widgets/../core/lv_obj_style_gen.h **** static inline lv_opa_t lv_obj_get_style_outline_opa(const struct _lv_obj_t * obj, uint32_t part)
 278:Middlewares/LVGL/GUI/lvgl/src/widgets/../core/lv_obj_style_gen.h **** {
 279:Middlewares/LVGL/GUI/lvgl/src/widgets/../core/lv_obj_style_gen.h ****     lv_style_value_t v = lv_obj_get_style_prop(obj, part, LV_STYLE_OUTLINE_OPA);
 280:Middlewares/LVGL/GUI/lvgl/src/widgets/../core/lv_obj_style_gen.h ****     return (lv_opa_t)v.num;
 281:Middlewares/LVGL/GUI/lvgl/src/widgets/../core/lv_obj_style_gen.h **** }
 282:Middlewares/LVGL/GUI/lvgl/src/widgets/../core/lv_obj_style_gen.h **** 
 283:Middlewares/LVGL/GUI/lvgl/src/widgets/../core/lv_obj_style_gen.h **** static inline lv_coord_t lv_obj_get_style_outline_pad(const struct _lv_obj_t * obj, uint32_t part)
 284:Middlewares/LVGL/GUI/lvgl/src/widgets/../core/lv_obj_style_gen.h **** {
 285:Middlewares/LVGL/GUI/lvgl/src/widgets/../core/lv_obj_style_gen.h ****     lv_style_value_t v = lv_obj_get_style_prop(obj, part, LV_STYLE_OUTLINE_PAD);
 286:Middlewares/LVGL/GUI/lvgl/src/widgets/../core/lv_obj_style_gen.h ****     return (lv_coord_t)v.num;
ARM GAS  C:\Users\ADMINI~1\AppData\Local\Temp\cc93wSbm.s 			page 33


 287:Middlewares/LVGL/GUI/lvgl/src/widgets/../core/lv_obj_style_gen.h **** }
 288:Middlewares/LVGL/GUI/lvgl/src/widgets/../core/lv_obj_style_gen.h **** 
 289:Middlewares/LVGL/GUI/lvgl/src/widgets/../core/lv_obj_style_gen.h **** static inline lv_coord_t lv_obj_get_style_shadow_width(const struct _lv_obj_t * obj, uint32_t part)
 290:Middlewares/LVGL/GUI/lvgl/src/widgets/../core/lv_obj_style_gen.h **** {
 291:Middlewares/LVGL/GUI/lvgl/src/widgets/../core/lv_obj_style_gen.h ****     lv_style_value_t v = lv_obj_get_style_prop(obj, part, LV_STYLE_SHADOW_WIDTH);
 292:Middlewares/LVGL/GUI/lvgl/src/widgets/../core/lv_obj_style_gen.h ****     return (lv_coord_t)v.num;
 293:Middlewares/LVGL/GUI/lvgl/src/widgets/../core/lv_obj_style_gen.h **** }
 294:Middlewares/LVGL/GUI/lvgl/src/widgets/../core/lv_obj_style_gen.h **** 
 295:Middlewares/LVGL/GUI/lvgl/src/widgets/../core/lv_obj_style_gen.h **** static inline lv_coord_t lv_obj_get_style_shadow_ofs_x(const struct _lv_obj_t * obj, uint32_t part)
 296:Middlewares/LVGL/GUI/lvgl/src/widgets/../core/lv_obj_style_gen.h **** {
 297:Middlewares/LVGL/GUI/lvgl/src/widgets/../core/lv_obj_style_gen.h ****     lv_style_value_t v = lv_obj_get_style_prop(obj, part, LV_STYLE_SHADOW_OFS_X);
 298:Middlewares/LVGL/GUI/lvgl/src/widgets/../core/lv_obj_style_gen.h ****     return (lv_coord_t)v.num;
 299:Middlewares/LVGL/GUI/lvgl/src/widgets/../core/lv_obj_style_gen.h **** }
 300:Middlewares/LVGL/GUI/lvgl/src/widgets/../core/lv_obj_style_gen.h **** 
 301:Middlewares/LVGL/GUI/lvgl/src/widgets/../core/lv_obj_style_gen.h **** static inline lv_coord_t lv_obj_get_style_shadow_ofs_y(const struct _lv_obj_t * obj, uint32_t part)
 302:Middlewares/LVGL/GUI/lvgl/src/widgets/../core/lv_obj_style_gen.h **** {
 303:Middlewares/LVGL/GUI/lvgl/src/widgets/../core/lv_obj_style_gen.h ****     lv_style_value_t v = lv_obj_get_style_prop(obj, part, LV_STYLE_SHADOW_OFS_Y);
 304:Middlewares/LVGL/GUI/lvgl/src/widgets/../core/lv_obj_style_gen.h ****     return (lv_coord_t)v.num;
 305:Middlewares/LVGL/GUI/lvgl/src/widgets/../core/lv_obj_style_gen.h **** }
 306:Middlewares/LVGL/GUI/lvgl/src/widgets/../core/lv_obj_style_gen.h **** 
 307:Middlewares/LVGL/GUI/lvgl/src/widgets/../core/lv_obj_style_gen.h **** static inline lv_coord_t lv_obj_get_style_shadow_spread(const struct _lv_obj_t * obj, uint32_t part
 308:Middlewares/LVGL/GUI/lvgl/src/widgets/../core/lv_obj_style_gen.h **** {
 309:Middlewares/LVGL/GUI/lvgl/src/widgets/../core/lv_obj_style_gen.h ****     lv_style_value_t v = lv_obj_get_style_prop(obj, part, LV_STYLE_SHADOW_SPREAD);
 310:Middlewares/LVGL/GUI/lvgl/src/widgets/../core/lv_obj_style_gen.h ****     return (lv_coord_t)v.num;
 311:Middlewares/LVGL/GUI/lvgl/src/widgets/../core/lv_obj_style_gen.h **** }
 312:Middlewares/LVGL/GUI/lvgl/src/widgets/../core/lv_obj_style_gen.h **** 
 313:Middlewares/LVGL/GUI/lvgl/src/widgets/../core/lv_obj_style_gen.h **** static inline lv_color_t lv_obj_get_style_shadow_color(const struct _lv_obj_t * obj, uint32_t part)
 314:Middlewares/LVGL/GUI/lvgl/src/widgets/../core/lv_obj_style_gen.h **** {
 315:Middlewares/LVGL/GUI/lvgl/src/widgets/../core/lv_obj_style_gen.h ****     lv_style_value_t v = lv_obj_get_style_prop(obj, part, LV_STYLE_SHADOW_COLOR);
 316:Middlewares/LVGL/GUI/lvgl/src/widgets/../core/lv_obj_style_gen.h ****     return v.color;
 317:Middlewares/LVGL/GUI/lvgl/src/widgets/../core/lv_obj_style_gen.h **** }
 318:Middlewares/LVGL/GUI/lvgl/src/widgets/../core/lv_obj_style_gen.h **** 
 319:Middlewares/LVGL/GUI/lvgl/src/widgets/../core/lv_obj_style_gen.h **** static inline lv_color_t lv_obj_get_style_shadow_color_filtered(const struct _lv_obj_t * obj, uint3
 320:Middlewares/LVGL/GUI/lvgl/src/widgets/../core/lv_obj_style_gen.h **** {
 321:Middlewares/LVGL/GUI/lvgl/src/widgets/../core/lv_obj_style_gen.h ****     lv_style_value_t v = lv_obj_get_style_prop(obj, part, LV_STYLE_SHADOW_COLOR_FILTERED);
 322:Middlewares/LVGL/GUI/lvgl/src/widgets/../core/lv_obj_style_gen.h ****     return v.color;
 323:Middlewares/LVGL/GUI/lvgl/src/widgets/../core/lv_obj_style_gen.h **** }
 324:Middlewares/LVGL/GUI/lvgl/src/widgets/../core/lv_obj_style_gen.h **** 
 325:Middlewares/LVGL/GUI/lvgl/src/widgets/../core/lv_obj_style_gen.h **** static inline lv_opa_t lv_obj_get_style_shadow_opa(const struct _lv_obj_t * obj, uint32_t part)
 326:Middlewares/LVGL/GUI/lvgl/src/widgets/../core/lv_obj_style_gen.h **** {
 327:Middlewares/LVGL/GUI/lvgl/src/widgets/../core/lv_obj_style_gen.h ****     lv_style_value_t v = lv_obj_get_style_prop(obj, part, LV_STYLE_SHADOW_OPA);
 328:Middlewares/LVGL/GUI/lvgl/src/widgets/../core/lv_obj_style_gen.h ****     return (lv_opa_t)v.num;
 329:Middlewares/LVGL/GUI/lvgl/src/widgets/../core/lv_obj_style_gen.h **** }
 330:Middlewares/LVGL/GUI/lvgl/src/widgets/../core/lv_obj_style_gen.h **** 
 331:Middlewares/LVGL/GUI/lvgl/src/widgets/../core/lv_obj_style_gen.h **** static inline lv_opa_t lv_obj_get_style_img_opa(const struct _lv_obj_t * obj, uint32_t part)
 332:Middlewares/LVGL/GUI/lvgl/src/widgets/../core/lv_obj_style_gen.h **** {
 333:Middlewares/LVGL/GUI/lvgl/src/widgets/../core/lv_obj_style_gen.h ****     lv_style_value_t v = lv_obj_get_style_prop(obj, part, LV_STYLE_IMG_OPA);
 334:Middlewares/LVGL/GUI/lvgl/src/widgets/../core/lv_obj_style_gen.h ****     return (lv_opa_t)v.num;
 335:Middlewares/LVGL/GUI/lvgl/src/widgets/../core/lv_obj_style_gen.h **** }
 336:Middlewares/LVGL/GUI/lvgl/src/widgets/../core/lv_obj_style_gen.h **** 
 337:Middlewares/LVGL/GUI/lvgl/src/widgets/../core/lv_obj_style_gen.h **** static inline lv_color_t lv_obj_get_style_img_recolor(const struct _lv_obj_t * obj, uint32_t part)
 338:Middlewares/LVGL/GUI/lvgl/src/widgets/../core/lv_obj_style_gen.h **** {
 339:Middlewares/LVGL/GUI/lvgl/src/widgets/../core/lv_obj_style_gen.h ****     lv_style_value_t v = lv_obj_get_style_prop(obj, part, LV_STYLE_IMG_RECOLOR);
 340:Middlewares/LVGL/GUI/lvgl/src/widgets/../core/lv_obj_style_gen.h ****     return v.color;
 341:Middlewares/LVGL/GUI/lvgl/src/widgets/../core/lv_obj_style_gen.h **** }
 342:Middlewares/LVGL/GUI/lvgl/src/widgets/../core/lv_obj_style_gen.h **** 
 343:Middlewares/LVGL/GUI/lvgl/src/widgets/../core/lv_obj_style_gen.h **** static inline lv_color_t lv_obj_get_style_img_recolor_filtered(const struct _lv_obj_t * obj, uint32
ARM GAS  C:\Users\ADMINI~1\AppData\Local\Temp\cc93wSbm.s 			page 34


 344:Middlewares/LVGL/GUI/lvgl/src/widgets/../core/lv_obj_style_gen.h **** {
 345:Middlewares/LVGL/GUI/lvgl/src/widgets/../core/lv_obj_style_gen.h ****     lv_style_value_t v = lv_obj_get_style_prop(obj, part, LV_STYLE_IMG_RECOLOR_FILTERED);
 346:Middlewares/LVGL/GUI/lvgl/src/widgets/../core/lv_obj_style_gen.h ****     return v.color;
 347:Middlewares/LVGL/GUI/lvgl/src/widgets/../core/lv_obj_style_gen.h **** }
 348:Middlewares/LVGL/GUI/lvgl/src/widgets/../core/lv_obj_style_gen.h **** 
 349:Middlewares/LVGL/GUI/lvgl/src/widgets/../core/lv_obj_style_gen.h **** static inline lv_opa_t lv_obj_get_style_img_recolor_opa(const struct _lv_obj_t * obj, uint32_t part
 350:Middlewares/LVGL/GUI/lvgl/src/widgets/../core/lv_obj_style_gen.h **** {
 351:Middlewares/LVGL/GUI/lvgl/src/widgets/../core/lv_obj_style_gen.h ****     lv_style_value_t v = lv_obj_get_style_prop(obj, part, LV_STYLE_IMG_RECOLOR_OPA);
 352:Middlewares/LVGL/GUI/lvgl/src/widgets/../core/lv_obj_style_gen.h ****     return (lv_opa_t)v.num;
 353:Middlewares/LVGL/GUI/lvgl/src/widgets/../core/lv_obj_style_gen.h **** }
 354:Middlewares/LVGL/GUI/lvgl/src/widgets/../core/lv_obj_style_gen.h **** 
 355:Middlewares/LVGL/GUI/lvgl/src/widgets/../core/lv_obj_style_gen.h **** static inline lv_coord_t lv_obj_get_style_line_width(const struct _lv_obj_t * obj, uint32_t part)
 356:Middlewares/LVGL/GUI/lvgl/src/widgets/../core/lv_obj_style_gen.h **** {
 357:Middlewares/LVGL/GUI/lvgl/src/widgets/../core/lv_obj_style_gen.h ****     lv_style_value_t v = lv_obj_get_style_prop(obj, part, LV_STYLE_LINE_WIDTH);
 358:Middlewares/LVGL/GUI/lvgl/src/widgets/../core/lv_obj_style_gen.h ****     return (lv_coord_t)v.num;
 359:Middlewares/LVGL/GUI/lvgl/src/widgets/../core/lv_obj_style_gen.h **** }
 360:Middlewares/LVGL/GUI/lvgl/src/widgets/../core/lv_obj_style_gen.h **** 
 361:Middlewares/LVGL/GUI/lvgl/src/widgets/../core/lv_obj_style_gen.h **** static inline lv_coord_t lv_obj_get_style_line_dash_width(const struct _lv_obj_t * obj, uint32_t pa
 362:Middlewares/LVGL/GUI/lvgl/src/widgets/../core/lv_obj_style_gen.h **** {
 363:Middlewares/LVGL/GUI/lvgl/src/widgets/../core/lv_obj_style_gen.h ****     lv_style_value_t v = lv_obj_get_style_prop(obj, part, LV_STYLE_LINE_DASH_WIDTH);
 364:Middlewares/LVGL/GUI/lvgl/src/widgets/../core/lv_obj_style_gen.h ****     return (lv_coord_t)v.num;
 365:Middlewares/LVGL/GUI/lvgl/src/widgets/../core/lv_obj_style_gen.h **** }
 366:Middlewares/LVGL/GUI/lvgl/src/widgets/../core/lv_obj_style_gen.h **** 
 367:Middlewares/LVGL/GUI/lvgl/src/widgets/../core/lv_obj_style_gen.h **** static inline lv_coord_t lv_obj_get_style_line_dash_gap(const struct _lv_obj_t * obj, uint32_t part
 368:Middlewares/LVGL/GUI/lvgl/src/widgets/../core/lv_obj_style_gen.h **** {
 369:Middlewares/LVGL/GUI/lvgl/src/widgets/../core/lv_obj_style_gen.h ****     lv_style_value_t v = lv_obj_get_style_prop(obj, part, LV_STYLE_LINE_DASH_GAP);
 370:Middlewares/LVGL/GUI/lvgl/src/widgets/../core/lv_obj_style_gen.h ****     return (lv_coord_t)v.num;
 371:Middlewares/LVGL/GUI/lvgl/src/widgets/../core/lv_obj_style_gen.h **** }
 372:Middlewares/LVGL/GUI/lvgl/src/widgets/../core/lv_obj_style_gen.h **** 
 373:Middlewares/LVGL/GUI/lvgl/src/widgets/../core/lv_obj_style_gen.h **** static inline bool lv_obj_get_style_line_rounded(const struct _lv_obj_t * obj, uint32_t part)
 374:Middlewares/LVGL/GUI/lvgl/src/widgets/../core/lv_obj_style_gen.h **** {
 375:Middlewares/LVGL/GUI/lvgl/src/widgets/../core/lv_obj_style_gen.h ****     lv_style_value_t v = lv_obj_get_style_prop(obj, part, LV_STYLE_LINE_ROUNDED);
 376:Middlewares/LVGL/GUI/lvgl/src/widgets/../core/lv_obj_style_gen.h ****     return (bool)v.num;
 377:Middlewares/LVGL/GUI/lvgl/src/widgets/../core/lv_obj_style_gen.h **** }
 378:Middlewares/LVGL/GUI/lvgl/src/widgets/../core/lv_obj_style_gen.h **** 
 379:Middlewares/LVGL/GUI/lvgl/src/widgets/../core/lv_obj_style_gen.h **** static inline lv_color_t lv_obj_get_style_line_color(const struct _lv_obj_t * obj, uint32_t part)
 380:Middlewares/LVGL/GUI/lvgl/src/widgets/../core/lv_obj_style_gen.h **** {
 381:Middlewares/LVGL/GUI/lvgl/src/widgets/../core/lv_obj_style_gen.h ****     lv_style_value_t v = lv_obj_get_style_prop(obj, part, LV_STYLE_LINE_COLOR);
 382:Middlewares/LVGL/GUI/lvgl/src/widgets/../core/lv_obj_style_gen.h ****     return v.color;
 383:Middlewares/LVGL/GUI/lvgl/src/widgets/../core/lv_obj_style_gen.h **** }
 384:Middlewares/LVGL/GUI/lvgl/src/widgets/../core/lv_obj_style_gen.h **** 
 385:Middlewares/LVGL/GUI/lvgl/src/widgets/../core/lv_obj_style_gen.h **** static inline lv_color_t lv_obj_get_style_line_color_filtered(const struct _lv_obj_t * obj, uint32_
 386:Middlewares/LVGL/GUI/lvgl/src/widgets/../core/lv_obj_style_gen.h **** {
 387:Middlewares/LVGL/GUI/lvgl/src/widgets/../core/lv_obj_style_gen.h ****     lv_style_value_t v = lv_obj_get_style_prop(obj, part, LV_STYLE_LINE_COLOR_FILTERED);
 388:Middlewares/LVGL/GUI/lvgl/src/widgets/../core/lv_obj_style_gen.h ****     return v.color;
 389:Middlewares/LVGL/GUI/lvgl/src/widgets/../core/lv_obj_style_gen.h **** }
 390:Middlewares/LVGL/GUI/lvgl/src/widgets/../core/lv_obj_style_gen.h **** 
 391:Middlewares/LVGL/GUI/lvgl/src/widgets/../core/lv_obj_style_gen.h **** static inline lv_opa_t lv_obj_get_style_line_opa(const struct _lv_obj_t * obj, uint32_t part)
 392:Middlewares/LVGL/GUI/lvgl/src/widgets/../core/lv_obj_style_gen.h **** {
 393:Middlewares/LVGL/GUI/lvgl/src/widgets/../core/lv_obj_style_gen.h ****     lv_style_value_t v = lv_obj_get_style_prop(obj, part, LV_STYLE_LINE_OPA);
 394:Middlewares/LVGL/GUI/lvgl/src/widgets/../core/lv_obj_style_gen.h ****     return (lv_opa_t)v.num;
 395:Middlewares/LVGL/GUI/lvgl/src/widgets/../core/lv_obj_style_gen.h **** }
 396:Middlewares/LVGL/GUI/lvgl/src/widgets/../core/lv_obj_style_gen.h **** 
 397:Middlewares/LVGL/GUI/lvgl/src/widgets/../core/lv_obj_style_gen.h **** static inline lv_coord_t lv_obj_get_style_arc_width(const struct _lv_obj_t * obj, uint32_t part)
 398:Middlewares/LVGL/GUI/lvgl/src/widgets/../core/lv_obj_style_gen.h **** {
 399:Middlewares/LVGL/GUI/lvgl/src/widgets/../core/lv_obj_style_gen.h ****     lv_style_value_t v = lv_obj_get_style_prop(obj, part, LV_STYLE_ARC_WIDTH);
 400:Middlewares/LVGL/GUI/lvgl/src/widgets/../core/lv_obj_style_gen.h ****     return (lv_coord_t)v.num;
ARM GAS  C:\Users\ADMINI~1\AppData\Local\Temp\cc93wSbm.s 			page 35


 401:Middlewares/LVGL/GUI/lvgl/src/widgets/../core/lv_obj_style_gen.h **** }
 402:Middlewares/LVGL/GUI/lvgl/src/widgets/../core/lv_obj_style_gen.h **** 
 403:Middlewares/LVGL/GUI/lvgl/src/widgets/../core/lv_obj_style_gen.h **** static inline bool lv_obj_get_style_arc_rounded(const struct _lv_obj_t * obj, uint32_t part)
 404:Middlewares/LVGL/GUI/lvgl/src/widgets/../core/lv_obj_style_gen.h **** {
 405:Middlewares/LVGL/GUI/lvgl/src/widgets/../core/lv_obj_style_gen.h ****     lv_style_value_t v = lv_obj_get_style_prop(obj, part, LV_STYLE_ARC_ROUNDED);
 406:Middlewares/LVGL/GUI/lvgl/src/widgets/../core/lv_obj_style_gen.h ****     return (bool)v.num;
 407:Middlewares/LVGL/GUI/lvgl/src/widgets/../core/lv_obj_style_gen.h **** }
 408:Middlewares/LVGL/GUI/lvgl/src/widgets/../core/lv_obj_style_gen.h **** 
 409:Middlewares/LVGL/GUI/lvgl/src/widgets/../core/lv_obj_style_gen.h **** static inline lv_color_t lv_obj_get_style_arc_color(const struct _lv_obj_t * obj, uint32_t part)
 410:Middlewares/LVGL/GUI/lvgl/src/widgets/../core/lv_obj_style_gen.h **** {
 411:Middlewares/LVGL/GUI/lvgl/src/widgets/../core/lv_obj_style_gen.h ****     lv_style_value_t v = lv_obj_get_style_prop(obj, part, LV_STYLE_ARC_COLOR);
 412:Middlewares/LVGL/GUI/lvgl/src/widgets/../core/lv_obj_style_gen.h ****     return v.color;
 413:Middlewares/LVGL/GUI/lvgl/src/widgets/../core/lv_obj_style_gen.h **** }
 414:Middlewares/LVGL/GUI/lvgl/src/widgets/../core/lv_obj_style_gen.h **** 
 415:Middlewares/LVGL/GUI/lvgl/src/widgets/../core/lv_obj_style_gen.h **** static inline lv_color_t lv_obj_get_style_arc_color_filtered(const struct _lv_obj_t * obj, uint32_t
 416:Middlewares/LVGL/GUI/lvgl/src/widgets/../core/lv_obj_style_gen.h **** {
 417:Middlewares/LVGL/GUI/lvgl/src/widgets/../core/lv_obj_style_gen.h ****     lv_style_value_t v = lv_obj_get_style_prop(obj, part, LV_STYLE_ARC_COLOR_FILTERED);
 418:Middlewares/LVGL/GUI/lvgl/src/widgets/../core/lv_obj_style_gen.h ****     return v.color;
 419:Middlewares/LVGL/GUI/lvgl/src/widgets/../core/lv_obj_style_gen.h **** }
 420:Middlewares/LVGL/GUI/lvgl/src/widgets/../core/lv_obj_style_gen.h **** 
 421:Middlewares/LVGL/GUI/lvgl/src/widgets/../core/lv_obj_style_gen.h **** static inline lv_opa_t lv_obj_get_style_arc_opa(const struct _lv_obj_t * obj, uint32_t part)
 422:Middlewares/LVGL/GUI/lvgl/src/widgets/../core/lv_obj_style_gen.h **** {
 423:Middlewares/LVGL/GUI/lvgl/src/widgets/../core/lv_obj_style_gen.h ****     lv_style_value_t v = lv_obj_get_style_prop(obj, part, LV_STYLE_ARC_OPA);
 424:Middlewares/LVGL/GUI/lvgl/src/widgets/../core/lv_obj_style_gen.h ****     return (lv_opa_t)v.num;
 425:Middlewares/LVGL/GUI/lvgl/src/widgets/../core/lv_obj_style_gen.h **** }
 426:Middlewares/LVGL/GUI/lvgl/src/widgets/../core/lv_obj_style_gen.h **** 
 427:Middlewares/LVGL/GUI/lvgl/src/widgets/../core/lv_obj_style_gen.h **** static inline const void * lv_obj_get_style_arc_img_src(const struct _lv_obj_t * obj, uint32_t part
 428:Middlewares/LVGL/GUI/lvgl/src/widgets/../core/lv_obj_style_gen.h **** {
 429:Middlewares/LVGL/GUI/lvgl/src/widgets/../core/lv_obj_style_gen.h ****     lv_style_value_t v = lv_obj_get_style_prop(obj, part, LV_STYLE_ARC_IMG_SRC);
 430:Middlewares/LVGL/GUI/lvgl/src/widgets/../core/lv_obj_style_gen.h ****     return (const void *)v.ptr;
 431:Middlewares/LVGL/GUI/lvgl/src/widgets/../core/lv_obj_style_gen.h **** }
 432:Middlewares/LVGL/GUI/lvgl/src/widgets/../core/lv_obj_style_gen.h **** 
 433:Middlewares/LVGL/GUI/lvgl/src/widgets/../core/lv_obj_style_gen.h **** static inline lv_color_t lv_obj_get_style_text_color(const struct _lv_obj_t * obj, uint32_t part)
 434:Middlewares/LVGL/GUI/lvgl/src/widgets/../core/lv_obj_style_gen.h **** {
 435:Middlewares/LVGL/GUI/lvgl/src/widgets/../core/lv_obj_style_gen.h ****     lv_style_value_t v = lv_obj_get_style_prop(obj, part, LV_STYLE_TEXT_COLOR);
 436:Middlewares/LVGL/GUI/lvgl/src/widgets/../core/lv_obj_style_gen.h ****     return v.color;
 437:Middlewares/LVGL/GUI/lvgl/src/widgets/../core/lv_obj_style_gen.h **** }
 438:Middlewares/LVGL/GUI/lvgl/src/widgets/../core/lv_obj_style_gen.h **** 
 439:Middlewares/LVGL/GUI/lvgl/src/widgets/../core/lv_obj_style_gen.h **** static inline lv_color_t lv_obj_get_style_text_color_filtered(const struct _lv_obj_t * obj, uint32_
 440:Middlewares/LVGL/GUI/lvgl/src/widgets/../core/lv_obj_style_gen.h **** {
 441:Middlewares/LVGL/GUI/lvgl/src/widgets/../core/lv_obj_style_gen.h ****     lv_style_value_t v = lv_obj_get_style_prop(obj, part, LV_STYLE_TEXT_COLOR_FILTERED);
 442:Middlewares/LVGL/GUI/lvgl/src/widgets/../core/lv_obj_style_gen.h ****     return v.color;
 443:Middlewares/LVGL/GUI/lvgl/src/widgets/../core/lv_obj_style_gen.h **** }
 444:Middlewares/LVGL/GUI/lvgl/src/widgets/../core/lv_obj_style_gen.h **** 
 445:Middlewares/LVGL/GUI/lvgl/src/widgets/../core/lv_obj_style_gen.h **** static inline lv_opa_t lv_obj_get_style_text_opa(const struct _lv_obj_t * obj, uint32_t part)
 446:Middlewares/LVGL/GUI/lvgl/src/widgets/../core/lv_obj_style_gen.h **** {
 447:Middlewares/LVGL/GUI/lvgl/src/widgets/../core/lv_obj_style_gen.h ****     lv_style_value_t v = lv_obj_get_style_prop(obj, part, LV_STYLE_TEXT_OPA);
 448:Middlewares/LVGL/GUI/lvgl/src/widgets/../core/lv_obj_style_gen.h ****     return (lv_opa_t)v.num;
 449:Middlewares/LVGL/GUI/lvgl/src/widgets/../core/lv_obj_style_gen.h **** }
 450:Middlewares/LVGL/GUI/lvgl/src/widgets/../core/lv_obj_style_gen.h **** 
 451:Middlewares/LVGL/GUI/lvgl/src/widgets/../core/lv_obj_style_gen.h **** static inline const lv_font_t * lv_obj_get_style_text_font(const struct _lv_obj_t * obj, uint32_t p
 452:Middlewares/LVGL/GUI/lvgl/src/widgets/../core/lv_obj_style_gen.h **** {
 453:Middlewares/LVGL/GUI/lvgl/src/widgets/../core/lv_obj_style_gen.h ****     lv_style_value_t v = lv_obj_get_style_prop(obj, part, LV_STYLE_TEXT_FONT);
 454:Middlewares/LVGL/GUI/lvgl/src/widgets/../core/lv_obj_style_gen.h ****     return (const lv_font_t *)v.ptr;
 455:Middlewares/LVGL/GUI/lvgl/src/widgets/../core/lv_obj_style_gen.h **** }
 456:Middlewares/LVGL/GUI/lvgl/src/widgets/../core/lv_obj_style_gen.h **** 
 457:Middlewares/LVGL/GUI/lvgl/src/widgets/../core/lv_obj_style_gen.h **** static inline lv_coord_t lv_obj_get_style_text_letter_space(const struct _lv_obj_t * obj, uint32_t 
ARM GAS  C:\Users\ADMINI~1\AppData\Local\Temp\cc93wSbm.s 			page 36


 458:Middlewares/LVGL/GUI/lvgl/src/widgets/../core/lv_obj_style_gen.h **** {
 459:Middlewares/LVGL/GUI/lvgl/src/widgets/../core/lv_obj_style_gen.h ****     lv_style_value_t v = lv_obj_get_style_prop(obj, part, LV_STYLE_TEXT_LETTER_SPACE);
 460:Middlewares/LVGL/GUI/lvgl/src/widgets/../core/lv_obj_style_gen.h ****     return (lv_coord_t)v.num;
 461:Middlewares/LVGL/GUI/lvgl/src/widgets/../core/lv_obj_style_gen.h **** }
 462:Middlewares/LVGL/GUI/lvgl/src/widgets/../core/lv_obj_style_gen.h **** 
 463:Middlewares/LVGL/GUI/lvgl/src/widgets/../core/lv_obj_style_gen.h **** static inline lv_coord_t lv_obj_get_style_text_line_space(const struct _lv_obj_t * obj, uint32_t pa
 464:Middlewares/LVGL/GUI/lvgl/src/widgets/../core/lv_obj_style_gen.h **** {
 465:Middlewares/LVGL/GUI/lvgl/src/widgets/../core/lv_obj_style_gen.h ****     lv_style_value_t v = lv_obj_get_style_prop(obj, part, LV_STYLE_TEXT_LINE_SPACE);
 466:Middlewares/LVGL/GUI/lvgl/src/widgets/../core/lv_obj_style_gen.h ****     return (lv_coord_t)v.num;
 467:Middlewares/LVGL/GUI/lvgl/src/widgets/../core/lv_obj_style_gen.h **** }
 468:Middlewares/LVGL/GUI/lvgl/src/widgets/../core/lv_obj_style_gen.h **** 
 469:Middlewares/LVGL/GUI/lvgl/src/widgets/../core/lv_obj_style_gen.h **** static inline lv_text_decor_t lv_obj_get_style_text_decor(const struct _lv_obj_t * obj, uint32_t pa
 470:Middlewares/LVGL/GUI/lvgl/src/widgets/../core/lv_obj_style_gen.h **** {
 471:Middlewares/LVGL/GUI/lvgl/src/widgets/../core/lv_obj_style_gen.h ****     lv_style_value_t v = lv_obj_get_style_prop(obj, part, LV_STYLE_TEXT_DECOR);
 472:Middlewares/LVGL/GUI/lvgl/src/widgets/../core/lv_obj_style_gen.h ****     return (lv_text_decor_t)v.num;
 473:Middlewares/LVGL/GUI/lvgl/src/widgets/../core/lv_obj_style_gen.h **** }
 474:Middlewares/LVGL/GUI/lvgl/src/widgets/../core/lv_obj_style_gen.h **** 
 475:Middlewares/LVGL/GUI/lvgl/src/widgets/../core/lv_obj_style_gen.h **** static inline lv_text_align_t lv_obj_get_style_text_align(const struct _lv_obj_t * obj, uint32_t pa
 476:Middlewares/LVGL/GUI/lvgl/src/widgets/../core/lv_obj_style_gen.h **** {
 477:Middlewares/LVGL/GUI/lvgl/src/widgets/../core/lv_obj_style_gen.h ****     lv_style_value_t v = lv_obj_get_style_prop(obj, part, LV_STYLE_TEXT_ALIGN);
 478:Middlewares/LVGL/GUI/lvgl/src/widgets/../core/lv_obj_style_gen.h ****     return (lv_text_align_t)v.num;
 479:Middlewares/LVGL/GUI/lvgl/src/widgets/../core/lv_obj_style_gen.h **** }
 480:Middlewares/LVGL/GUI/lvgl/src/widgets/../core/lv_obj_style_gen.h **** 
 481:Middlewares/LVGL/GUI/lvgl/src/widgets/../core/lv_obj_style_gen.h **** static inline lv_coord_t lv_obj_get_style_radius(const struct _lv_obj_t * obj, uint32_t part)
 482:Middlewares/LVGL/GUI/lvgl/src/widgets/../core/lv_obj_style_gen.h **** {
 483:Middlewares/LVGL/GUI/lvgl/src/widgets/../core/lv_obj_style_gen.h ****     lv_style_value_t v = lv_obj_get_style_prop(obj, part, LV_STYLE_RADIUS);
 484:Middlewares/LVGL/GUI/lvgl/src/widgets/../core/lv_obj_style_gen.h ****     return (lv_coord_t)v.num;
 485:Middlewares/LVGL/GUI/lvgl/src/widgets/../core/lv_obj_style_gen.h **** }
 486:Middlewares/LVGL/GUI/lvgl/src/widgets/../core/lv_obj_style_gen.h **** 
 487:Middlewares/LVGL/GUI/lvgl/src/widgets/../core/lv_obj_style_gen.h **** static inline bool lv_obj_get_style_clip_corner(const struct _lv_obj_t * obj, uint32_t part)
 488:Middlewares/LVGL/GUI/lvgl/src/widgets/../core/lv_obj_style_gen.h **** {
 489:Middlewares/LVGL/GUI/lvgl/src/widgets/../core/lv_obj_style_gen.h ****     lv_style_value_t v = lv_obj_get_style_prop(obj, part, LV_STYLE_CLIP_CORNER);
 490:Middlewares/LVGL/GUI/lvgl/src/widgets/../core/lv_obj_style_gen.h ****     return (bool)v.num;
 491:Middlewares/LVGL/GUI/lvgl/src/widgets/../core/lv_obj_style_gen.h **** }
 492:Middlewares/LVGL/GUI/lvgl/src/widgets/../core/lv_obj_style_gen.h **** 
 493:Middlewares/LVGL/GUI/lvgl/src/widgets/../core/lv_obj_style_gen.h **** static inline lv_opa_t lv_obj_get_style_opa(const struct _lv_obj_t * obj, uint32_t part)
 494:Middlewares/LVGL/GUI/lvgl/src/widgets/../core/lv_obj_style_gen.h **** {
 495:Middlewares/LVGL/GUI/lvgl/src/widgets/../core/lv_obj_style_gen.h ****     lv_style_value_t v = lv_obj_get_style_prop(obj, part, LV_STYLE_OPA);
 496:Middlewares/LVGL/GUI/lvgl/src/widgets/../core/lv_obj_style_gen.h ****     return (lv_opa_t)v.num;
 497:Middlewares/LVGL/GUI/lvgl/src/widgets/../core/lv_obj_style_gen.h **** }
 498:Middlewares/LVGL/GUI/lvgl/src/widgets/../core/lv_obj_style_gen.h **** 
 499:Middlewares/LVGL/GUI/lvgl/src/widgets/../core/lv_obj_style_gen.h **** static inline const lv_color_filter_dsc_t * lv_obj_get_style_color_filter_dsc(const struct _lv_obj_
 500:Middlewares/LVGL/GUI/lvgl/src/widgets/../core/lv_obj_style_gen.h ****                                                                               uint32_t part)
 501:Middlewares/LVGL/GUI/lvgl/src/widgets/../core/lv_obj_style_gen.h **** {
 502:Middlewares/LVGL/GUI/lvgl/src/widgets/../core/lv_obj_style_gen.h ****     lv_style_value_t v = lv_obj_get_style_prop(obj, part, LV_STYLE_COLOR_FILTER_DSC);
 503:Middlewares/LVGL/GUI/lvgl/src/widgets/../core/lv_obj_style_gen.h ****     return (const lv_color_filter_dsc_t *)v.ptr;
 504:Middlewares/LVGL/GUI/lvgl/src/widgets/../core/lv_obj_style_gen.h **** }
 505:Middlewares/LVGL/GUI/lvgl/src/widgets/../core/lv_obj_style_gen.h **** 
 506:Middlewares/LVGL/GUI/lvgl/src/widgets/../core/lv_obj_style_gen.h **** static inline lv_opa_t lv_obj_get_style_color_filter_opa(const struct _lv_obj_t * obj, uint32_t par
 507:Middlewares/LVGL/GUI/lvgl/src/widgets/../core/lv_obj_style_gen.h **** {
 508:Middlewares/LVGL/GUI/lvgl/src/widgets/../core/lv_obj_style_gen.h ****     lv_style_value_t v = lv_obj_get_style_prop(obj, part, LV_STYLE_COLOR_FILTER_OPA);
 509:Middlewares/LVGL/GUI/lvgl/src/widgets/../core/lv_obj_style_gen.h ****     return (lv_opa_t)v.num;
 510:Middlewares/LVGL/GUI/lvgl/src/widgets/../core/lv_obj_style_gen.h **** }
 511:Middlewares/LVGL/GUI/lvgl/src/widgets/../core/lv_obj_style_gen.h **** 
 512:Middlewares/LVGL/GUI/lvgl/src/widgets/../core/lv_obj_style_gen.h **** static inline uint32_t lv_obj_get_style_anim_time(const struct _lv_obj_t * obj, uint32_t part)
 513:Middlewares/LVGL/GUI/lvgl/src/widgets/../core/lv_obj_style_gen.h **** {
 514:Middlewares/LVGL/GUI/lvgl/src/widgets/../core/lv_obj_style_gen.h ****     lv_style_value_t v = lv_obj_get_style_prop(obj, part, LV_STYLE_ANIM_TIME);
ARM GAS  C:\Users\ADMINI~1\AppData\Local\Temp\cc93wSbm.s 			page 37


 515:Middlewares/LVGL/GUI/lvgl/src/widgets/../core/lv_obj_style_gen.h ****     return (uint32_t)v.num;
 516:Middlewares/LVGL/GUI/lvgl/src/widgets/../core/lv_obj_style_gen.h **** }
 517:Middlewares/LVGL/GUI/lvgl/src/widgets/../core/lv_obj_style_gen.h **** 
 518:Middlewares/LVGL/GUI/lvgl/src/widgets/../core/lv_obj_style_gen.h **** static inline uint32_t lv_obj_get_style_anim_speed(const struct _lv_obj_t * obj, uint32_t part)
 519:Middlewares/LVGL/GUI/lvgl/src/widgets/../core/lv_obj_style_gen.h **** {
 520:Middlewares/LVGL/GUI/lvgl/src/widgets/../core/lv_obj_style_gen.h ****     lv_style_value_t v = lv_obj_get_style_prop(obj, part, LV_STYLE_ANIM_SPEED);
 521:Middlewares/LVGL/GUI/lvgl/src/widgets/../core/lv_obj_style_gen.h ****     return (uint32_t)v.num;
 522:Middlewares/LVGL/GUI/lvgl/src/widgets/../core/lv_obj_style_gen.h **** }
 523:Middlewares/LVGL/GUI/lvgl/src/widgets/../core/lv_obj_style_gen.h **** 
 524:Middlewares/LVGL/GUI/lvgl/src/widgets/../core/lv_obj_style_gen.h **** static inline const lv_style_transition_dsc_t * lv_obj_get_style_transition(const struct _lv_obj_t 
 525:Middlewares/LVGL/GUI/lvgl/src/widgets/../core/lv_obj_style_gen.h **** {
 526:Middlewares/LVGL/GUI/lvgl/src/widgets/../core/lv_obj_style_gen.h ****     lv_style_value_t v = lv_obj_get_style_prop(obj, part, LV_STYLE_TRANSITION);
 527:Middlewares/LVGL/GUI/lvgl/src/widgets/../core/lv_obj_style_gen.h ****     return (const lv_style_transition_dsc_t *)v.ptr;
 528:Middlewares/LVGL/GUI/lvgl/src/widgets/../core/lv_obj_style_gen.h **** }
 529:Middlewares/LVGL/GUI/lvgl/src/widgets/../core/lv_obj_style_gen.h **** 
 530:Middlewares/LVGL/GUI/lvgl/src/widgets/../core/lv_obj_style_gen.h **** static inline lv_blend_mode_t lv_obj_get_style_blend_mode(const struct _lv_obj_t * obj, uint32_t pa
 531:Middlewares/LVGL/GUI/lvgl/src/widgets/../core/lv_obj_style_gen.h **** {
 532:Middlewares/LVGL/GUI/lvgl/src/widgets/../core/lv_obj_style_gen.h ****     lv_style_value_t v = lv_obj_get_style_prop(obj, part, LV_STYLE_BLEND_MODE);
 533:Middlewares/LVGL/GUI/lvgl/src/widgets/../core/lv_obj_style_gen.h ****     return (lv_blend_mode_t)v.num;
 534:Middlewares/LVGL/GUI/lvgl/src/widgets/../core/lv_obj_style_gen.h **** }
 535:Middlewares/LVGL/GUI/lvgl/src/widgets/../core/lv_obj_style_gen.h **** 
 536:Middlewares/LVGL/GUI/lvgl/src/widgets/../core/lv_obj_style_gen.h **** static inline uint16_t lv_obj_get_style_layout(const struct _lv_obj_t * obj, uint32_t part)
 537:Middlewares/LVGL/GUI/lvgl/src/widgets/../core/lv_obj_style_gen.h **** {
 538:Middlewares/LVGL/GUI/lvgl/src/widgets/../core/lv_obj_style_gen.h ****     lv_style_value_t v = lv_obj_get_style_prop(obj, part, LV_STYLE_LAYOUT);
 539:Middlewares/LVGL/GUI/lvgl/src/widgets/../core/lv_obj_style_gen.h ****     return (uint16_t)v.num;
 540:Middlewares/LVGL/GUI/lvgl/src/widgets/../core/lv_obj_style_gen.h **** }
 541:Middlewares/LVGL/GUI/lvgl/src/widgets/../core/lv_obj_style_gen.h **** 
 542:Middlewares/LVGL/GUI/lvgl/src/widgets/../core/lv_obj_style_gen.h **** static inline lv_base_dir_t lv_obj_get_style_base_dir(const struct _lv_obj_t * obj, uint32_t part)
 626              		.loc 3 542 29 view .LVU220
 627              	.LBB100:
 543:Middlewares/LVGL/GUI/lvgl/src/widgets/../core/lv_obj_style_gen.h **** {
 544:Middlewares/LVGL/GUI/lvgl/src/widgets/../core/lv_obj_style_gen.h ****     lv_style_value_t v = lv_obj_get_style_prop(obj, part, LV_STYLE_BASE_DIR);
 628              		.loc 3 544 5 view .LVU221
 629              		.loc 3 544 26 is_stmt 0 view .LVU222
 630 01a0 41F26A42 		movw	r2, #5226
 631 01a4 0021     		movs	r1, #0
 632 01a6 2046     		mov	r0, r4
 633 01a8 FFF7FEFF 		bl	lv_obj_get_style_prop
 634              	.LVL64:
 545:Middlewares/LVGL/GUI/lvgl/src/widgets/../core/lv_obj_style_gen.h ****     return (lv_base_dir_t)v.num;
 635              		.loc 3 545 5 is_stmt 1 view .LVU223
 636              		.loc 3 545 12 is_stmt 0 view .LVU224
 637 01ac C0B2     		uxtb	r0, r0
 638              	.LVL65:
 639              		.loc 3 545 12 view .LVU225
 640              	.LBE100:
 641              	.LBE99:
 340:Middlewares/LVGL/GUI/lvgl/src/widgets/lv_bar.c ****         /*Swap axes*/
 642              		.loc 2 340 5 is_stmt 1 view .LVU226
 340:Middlewares/LVGL/GUI/lvgl/src/widgets/lv_bar.c ****         /*Swap axes*/
 643              		.loc 2 340 7 is_stmt 0 view .LVU227
 644 01ae AE42     		cmp	r6, r5
 645 01b0 02DB     		blt	.L17
 340:Middlewares/LVGL/GUI/lvgl/src/widgets/lv_bar.c ****         /*Swap axes*/
 646              		.loc 2 340 12 discriminator 1 view .LVU228
 647 01b2 0128     		cmp	r0, #1
 648 01b4 00F06181 		beq	.L43
ARM GAS  C:\Users\ADMINI~1\AppData\Local\Temp\cc93wSbm.s 			page 38


 649              	.L17:
 351:Middlewares/LVGL/GUI/lvgl/src/widgets/lv_bar.c ****         *axis2 = *axis1 + anim_cur_value_x;
 650              		.loc 2 351 5 is_stmt 1 view .LVU229
 351:Middlewares/LVGL/GUI/lvgl/src/widgets/lv_bar.c ****         *axis2 = *axis1 + anim_cur_value_x;
 651              		.loc 2 351 7 is_stmt 0 view .LVU230
 652 01b8 AE42     		cmp	r6, r5
 653 01ba C0F26581 		blt	.L18
 352:Middlewares/LVGL/GUI/lvgl/src/widgets/lv_bar.c ****         *axis1 += anim_start_value_x;
 654              		.loc 2 352 9 is_stmt 1 view .LVU231
 352:Middlewares/LVGL/GUI/lvgl/src/widgets/lv_bar.c ****         *axis1 += anim_start_value_x;
 655              		.loc 2 352 18 is_stmt 0 view .LVU232
 656 01be DBF80030 		ldr	r3, [fp]
 352:Middlewares/LVGL/GUI/lvgl/src/widgets/lv_bar.c ****         *axis1 += anim_start_value_x;
 657              		.loc 2 352 25 view .LVU233
 658 01c2 4344     		add	r3, r3, r8
 352:Middlewares/LVGL/GUI/lvgl/src/widgets/lv_bar.c ****         *axis1 += anim_start_value_x;
 659              		.loc 2 352 16 view .LVU234
 660 01c4 CAF80030 		str	r3, [r10]
 353:Middlewares/LVGL/GUI/lvgl/src/widgets/lv_bar.c ****     }
 661              		.loc 2 353 9 is_stmt 1 view .LVU235
 353:Middlewares/LVGL/GUI/lvgl/src/widgets/lv_bar.c ****     }
 662              		.loc 2 353 16 is_stmt 0 view .LVU236
 663 01c8 DBF80030 		ldr	r3, [fp]
 664 01cc 3B44     		add	r3, r3, r7
 665 01ce CBF80030 		str	r3, [fp]
 666              	.L19:
 359:Middlewares/LVGL/GUI/lvgl/src/widgets/lv_bar.c ****         lv_coord_t zero, shift;
 667              		.loc 2 359 5 is_stmt 1 view .LVU237
 359:Middlewares/LVGL/GUI/lvgl/src/widgets/lv_bar.c ****         lv_coord_t zero, shift;
 668              		.loc 2 359 7 is_stmt 0 view .LVU238
 669 01d2 049B     		ldr	r3, [sp, #16]
 670 01d4 9BB1     		cbz	r3, .L20
 671              	.LBB101:
 360:Middlewares/LVGL/GUI/lvgl/src/widgets/lv_bar.c ****         shift = (-bar->min_value * anim_length) / range;
 672              		.loc 2 360 9 is_stmt 1 view .LVU239
 361:Middlewares/LVGL/GUI/lvgl/src/widgets/lv_bar.c ****         if(hor) {
 673              		.loc 2 361 9 view .LVU240
 361:Middlewares/LVGL/GUI/lvgl/src/widgets/lv_bar.c ****         if(hor) {
 674              		.loc 2 361 22 is_stmt 0 view .LVU241
 675 01d6 236B     		ldr	r3, [r4, #48]
 361:Middlewares/LVGL/GUI/lvgl/src/widgets/lv_bar.c ****         if(hor) {
 676              		.loc 2 361 18 view .LVU242
 677 01d8 5B42     		rsbs	r3, r3, #0
 361:Middlewares/LVGL/GUI/lvgl/src/widgets/lv_bar.c ****         if(hor) {
 678              		.loc 2 361 34 view .LVU243
 679 01da 09FB03F9 		mul	r9, r9, r3
 680              	.LVL66:
 361:Middlewares/LVGL/GUI/lvgl/src/widgets/lv_bar.c ****         if(hor) {
 681              		.loc 2 361 15 view .LVU244
 682 01de 029B     		ldr	r3, [sp, #8]
 683 01e0 99FBF3F9 		sdiv	r9, r9, r3
 684              	.LVL67:
 362:Middlewares/LVGL/GUI/lvgl/src/widgets/lv_bar.c ****             zero = *axis1 + shift;
 685              		.loc 2 362 9 is_stmt 1 view .LVU245
 362:Middlewares/LVGL/GUI/lvgl/src/widgets/lv_bar.c ****             zero = *axis1 + shift;
 686              		.loc 2 362 11 is_stmt 0 view .LVU246
 687 01e4 AE42     		cmp	r6, r5
ARM GAS  C:\Users\ADMINI~1\AppData\Local\Temp\cc93wSbm.s 			page 39


 688 01e6 C0F26181 		blt	.L21
 363:Middlewares/LVGL/GUI/lvgl/src/widgets/lv_bar.c ****             if(*axis2 > zero)
 689              		.loc 2 363 13 is_stmt 1 view .LVU247
 363:Middlewares/LVGL/GUI/lvgl/src/widgets/lv_bar.c ****             if(*axis2 > zero)
 690              		.loc 2 363 20 is_stmt 0 view .LVU248
 691 01ea DBF80030 		ldr	r3, [fp]
 363:Middlewares/LVGL/GUI/lvgl/src/widgets/lv_bar.c ****             if(*axis2 > zero)
 692              		.loc 2 363 18 view .LVU249
 693 01ee 4B44     		add	r3, r3, r9
 694              	.LVL68:
 364:Middlewares/LVGL/GUI/lvgl/src/widgets/lv_bar.c ****                 *axis1 = zero;
 695              		.loc 2 364 13 is_stmt 1 view .LVU250
 364:Middlewares/LVGL/GUI/lvgl/src/widgets/lv_bar.c ****                 *axis1 = zero;
 696              		.loc 2 364 16 is_stmt 0 view .LVU251
 697 01f0 DAF80020 		ldr	r2, [r10]
 364:Middlewares/LVGL/GUI/lvgl/src/widgets/lv_bar.c ****                 *axis1 = zero;
 698              		.loc 2 364 15 view .LVU252
 699 01f4 9A42     		cmp	r2, r3
 700 01f6 40F35481 		ble	.L22
 365:Middlewares/LVGL/GUI/lvgl/src/widgets/lv_bar.c ****             else {
 701              		.loc 2 365 17 is_stmt 1 view .LVU253
 365:Middlewares/LVGL/GUI/lvgl/src/widgets/lv_bar.c ****             else {
 702              		.loc 2 365 24 is_stmt 0 view .LVU254
 703 01fa CBF80030 		str	r3, [fp]
 704              	.LVL69:
 705              	.L20:
 365:Middlewares/LVGL/GUI/lvgl/src/widgets/lv_bar.c ****             else {
 706              		.loc 2 365 24 view .LVU255
 707              	.LBE101:
 389:Middlewares/LVGL/GUI/lvgl/src/widgets/lv_bar.c **** 
 708              		.loc 2 389 5 is_stmt 1 view .LVU256
 389:Middlewares/LVGL/GUI/lvgl/src/widgets/lv_bar.c **** 
 709              		.loc 2 389 7 is_stmt 0 view .LVU257
 710 01fe 049B     		ldr	r3, [sp, #16]
 711 0200 2BB9     		cbnz	r3, .L25
 389:Middlewares/LVGL/GUI/lvgl/src/widgets/lv_bar.c **** 
 712              		.loc 2 389 16 discriminator 1 view .LVU258
 713 0202 0198     		ldr	r0, [sp, #4]
 714              	.LVL70:
 389:Middlewares/LVGL/GUI/lvgl/src/widgets/lv_bar.c **** 
 715              		.loc 2 389 16 discriminator 1 view .LVU259
 716 0204 0D9B     		ldr	r3, [sp, #52]
 717 0206 9847     		blx	r3
 718              	.LVL71:
 389:Middlewares/LVGL/GUI/lvgl/src/widgets/lv_bar.c **** 
 719              		.loc 2 389 13 discriminator 1 view .LVU260
 720 0208 0128     		cmp	r0, #1
 721 020a 40F36B81 		ble	.L44
 722              	.L25:
 403:Middlewares/LVGL/GUI/lvgl/src/widgets/lv_bar.c ****     lv_area_copy(&indic_area, &bar->indic_area);
 723              		.loc 2 403 5 is_stmt 1 view .LVU261
 404:Middlewares/LVGL/GUI/lvgl/src/widgets/lv_bar.c **** 
 724              		.loc 2 404 5 view .LVU262
 725              	.LVL72:
 726              	.LBB102:
 727              	.LBI102:
 110:Middlewares/LVGL/GUI/lvgl/src/widgets/../core/../misc/../font/../misc/lv_area.h **** {
ARM GAS  C:\Users\ADMINI~1\AppData\Local\Temp\cc93wSbm.s 			page 40


 728              		.loc 1 110 20 view .LVU263
 729              	.LBB103:
 112:Middlewares/LVGL/GUI/lvgl/src/widgets/../core/../misc/../font/../misc/lv_area.h ****     dest->y1 = src->y1;
 730              		.loc 1 112 5 view .LVU264
 112:Middlewares/LVGL/GUI/lvgl/src/widgets/../core/../misc/../font/../misc/lv_area.h ****     dest->y1 = src->y1;
 731              		.loc 1 112 19 is_stmt 0 view .LVU265
 732 020e E36B     		ldr	r3, [r4, #60]
 112:Middlewares/LVGL/GUI/lvgl/src/widgets/../core/../misc/../font/../misc/lv_area.h ****     dest->y1 = src->y1;
 733              		.loc 1 112 14 view .LVU266
 734 0210 5E93     		str	r3, [sp, #376]
 113:Middlewares/LVGL/GUI/lvgl/src/widgets/../core/../misc/../font/../misc/lv_area.h ****     dest->x2 = src->x2;
 735              		.loc 1 113 5 is_stmt 1 view .LVU267
 113:Middlewares/LVGL/GUI/lvgl/src/widgets/../core/../misc/../font/../misc/lv_area.h ****     dest->x2 = src->x2;
 736              		.loc 1 113 19 is_stmt 0 view .LVU268
 737 0212 236C     		ldr	r3, [r4, #64]
 113:Middlewares/LVGL/GUI/lvgl/src/widgets/../core/../misc/../font/../misc/lv_area.h ****     dest->x2 = src->x2;
 738              		.loc 1 113 14 view .LVU269
 739 0214 5F93     		str	r3, [sp, #380]
 114:Middlewares/LVGL/GUI/lvgl/src/widgets/../core/../misc/../font/../misc/lv_area.h ****     dest->y2 = src->y2;
 740              		.loc 1 114 5 is_stmt 1 view .LVU270
 114:Middlewares/LVGL/GUI/lvgl/src/widgets/../core/../misc/../font/../misc/lv_area.h ****     dest->y2 = src->y2;
 741              		.loc 1 114 19 is_stmt 0 view .LVU271
 742 0216 636C     		ldr	r3, [r4, #68]
 114:Middlewares/LVGL/GUI/lvgl/src/widgets/../core/../misc/../font/../misc/lv_area.h ****     dest->y2 = src->y2;
 743              		.loc 1 114 14 view .LVU272
 744 0218 6093     		str	r3, [sp, #384]
 115:Middlewares/LVGL/GUI/lvgl/src/widgets/../core/../misc/../font/../misc/lv_area.h **** }
 745              		.loc 1 115 5 is_stmt 1 view .LVU273
 115:Middlewares/LVGL/GUI/lvgl/src/widgets/../core/../misc/../font/../misc/lv_area.h **** }
 746              		.loc 1 115 19 is_stmt 0 view .LVU274
 747 021a A36C     		ldr	r3, [r4, #72]
 115:Middlewares/LVGL/GUI/lvgl/src/widgets/../core/../misc/../font/../misc/lv_area.h **** }
 748              		.loc 1 115 14 view .LVU275
 749 021c 6193     		str	r3, [sp, #388]
 750              	.LVL73:
 115:Middlewares/LVGL/GUI/lvgl/src/widgets/../core/../misc/../font/../misc/lv_area.h **** }
 751              		.loc 1 115 14 view .LVU276
 752              	.LBE103:
 753              	.LBE102:
 406:Middlewares/LVGL/GUI/lvgl/src/widgets/lv_bar.c ****     lv_draw_rect_dsc_init(&draw_rect_dsc);
 754              		.loc 2 406 5 is_stmt 1 view .LVU277
 407:Middlewares/LVGL/GUI/lvgl/src/widgets/lv_bar.c ****     lv_obj_init_draw_rect_dsc(obj, LV_PART_INDICATOR, &draw_rect_dsc);
 755              		.loc 2 407 5 view .LVU278
 756 021e 4CAF     		add	r7, sp, #304
 757              	.LVL74:
 407:Middlewares/LVGL/GUI/lvgl/src/widgets/lv_bar.c ****     lv_obj_init_draw_rect_dsc(obj, LV_PART_INDICATOR, &draw_rect_dsc);
 758              		.loc 2 407 5 is_stmt 0 view .LVU279
 759 0220 3846     		mov	r0, r7
 760 0222 FFF7FEFF 		bl	lv_draw_rect_dsc_init
 761              	.LVL75:
 408:Middlewares/LVGL/GUI/lvgl/src/widgets/lv_bar.c **** 
 762              		.loc 2 408 5 is_stmt 1 view .LVU280
 763 0226 3A46     		mov	r2, r7
 764 0228 4FF40031 		mov	r1, #131072
 765 022c 2046     		mov	r0, r4
 766 022e FFF7FEFF 		bl	lv_obj_init_draw_rect_dsc
 767              	.LVL76:
ARM GAS  C:\Users\ADMINI~1\AppData\Local\Temp\cc93wSbm.s 			page 41


 410:Middlewares/LVGL/GUI/lvgl/src/widgets/lv_bar.c ****     lv_obj_draw_dsc_init(&part_draw_dsc, draw_ctx);
 768              		.loc 2 410 5 view .LVU281
 411:Middlewares/LVGL/GUI/lvgl/src/widgets/lv_bar.c ****     part_draw_dsc.part = LV_PART_INDICATOR;
 769              		.loc 2 411 5 view .LVU282
 770 0232 0399     		ldr	r1, [sp, #12]
 771 0234 3AA8     		add	r0, sp, #232
 772 0236 FFF7FEFF 		bl	lv_obj_draw_dsc_init
 773              	.LVL77:
 412:Middlewares/LVGL/GUI/lvgl/src/widgets/lv_bar.c ****     part_draw_dsc.class_p = MY_CLASS;
 774              		.loc 2 412 5 view .LVU283
 412:Middlewares/LVGL/GUI/lvgl/src/widgets/lv_bar.c ****     part_draw_dsc.class_p = MY_CLASS;
 775              		.loc 2 412 24 is_stmt 0 view .LVU284
 776 023a 4FF40033 		mov	r3, #131072
 777 023e 4793     		str	r3, [sp, #284]
 413:Middlewares/LVGL/GUI/lvgl/src/widgets/lv_bar.c ****     part_draw_dsc.type = LV_BAR_DRAW_PART_INDICATOR;
 778              		.loc 2 413 5 is_stmt 1 view .LVU285
 413:Middlewares/LVGL/GUI/lvgl/src/widgets/lv_bar.c ****     part_draw_dsc.type = LV_BAR_DRAW_PART_INDICATOR;
 779              		.loc 2 413 27 is_stmt 0 view .LVU286
 780 0240 734B     		ldr	r3, .L46+4
 781 0242 3B93     		str	r3, [sp, #236]
 414:Middlewares/LVGL/GUI/lvgl/src/widgets/lv_bar.c ****     part_draw_dsc.rect_dsc = &draw_rect_dsc;
 782              		.loc 2 414 5 is_stmt 1 view .LVU287
 414:Middlewares/LVGL/GUI/lvgl/src/widgets/lv_bar.c ****     part_draw_dsc.rect_dsc = &draw_rect_dsc;
 783              		.loc 2 414 24 is_stmt 0 view .LVU288
 784 0244 4FF00008 		mov	r8, #0
 785              	.LVL78:
 414:Middlewares/LVGL/GUI/lvgl/src/widgets/lv_bar.c ****     part_draw_dsc.rect_dsc = &draw_rect_dsc;
 786              		.loc 2 414 24 view .LVU289
 787 0248 CDF8F080 		str	r8, [sp, #240]
 415:Middlewares/LVGL/GUI/lvgl/src/widgets/lv_bar.c ****     part_draw_dsc.draw_area = &bar->indic_area;
 788              		.loc 2 415 5 is_stmt 1 view .LVU290
 415:Middlewares/LVGL/GUI/lvgl/src/widgets/lv_bar.c ****     part_draw_dsc.draw_area = &bar->indic_area;
 789              		.loc 2 415 28 is_stmt 0 view .LVU291
 790 024c 3E97     		str	r7, [sp, #248]
 416:Middlewares/LVGL/GUI/lvgl/src/widgets/lv_bar.c **** 
 791              		.loc 2 416 5 is_stmt 1 view .LVU292
 416:Middlewares/LVGL/GUI/lvgl/src/widgets/lv_bar.c **** 
 792              		.loc 2 416 29 is_stmt 0 view .LVU293
 793 024e 019B     		ldr	r3, [sp, #4]
 794 0250 3D93     		str	r3, [sp, #244]
 418:Middlewares/LVGL/GUI/lvgl/src/widgets/lv_bar.c **** 
 795              		.loc 2 418 5 is_stmt 1 view .LVU294
 796 0252 3AAA     		add	r2, sp, #232
 797 0254 1A21     		movs	r1, #26
 798 0256 2046     		mov	r0, r4
 799 0258 FFF7FEFF 		bl	lv_event_send
 800              	.LVL79:
 420:Middlewares/LVGL/GUI/lvgl/src/widgets/lv_bar.c ****     lv_coord_t short_side = LV_MIN(barw, barh);
 801              		.loc 2 420 5 view .LVU295
 802              	.LBB104:
 803              	.LBI104:
 481:Middlewares/LVGL/GUI/lvgl/src/widgets/../core/lv_obj_style_gen.h **** {
 804              		.loc 3 481 26 view .LVU296
 805              	.LBB105:
 483:Middlewares/LVGL/GUI/lvgl/src/widgets/../core/lv_obj_style_gen.h ****     return (lv_coord_t)v.num;
 806              		.loc 3 483 5 view .LVU297
 483:Middlewares/LVGL/GUI/lvgl/src/widgets/../core/lv_obj_style_gen.h ****     return (lv_coord_t)v.num;
ARM GAS  C:\Users\ADMINI~1\AppData\Local\Temp\cc93wSbm.s 			page 42


 807              		.loc 3 483 26 is_stmt 0 view .LVU298
 808 025c 6022     		movs	r2, #96
 809 025e 4146     		mov	r1, r8
 810 0260 2046     		mov	r0, r4
 811 0262 FFF7FEFF 		bl	lv_obj_get_style_prop
 812              	.LVL80:
 484:Middlewares/LVGL/GUI/lvgl/src/widgets/../core/lv_obj_style_gen.h **** }
 813              		.loc 3 484 5 is_stmt 1 view .LVU299
 484:Middlewares/LVGL/GUI/lvgl/src/widgets/../core/lv_obj_style_gen.h **** }
 814              		.loc 3 484 5 is_stmt 0 view .LVU300
 815              	.LBE105:
 816              	.LBE104:
 421:Middlewares/LVGL/GUI/lvgl/src/widgets/lv_bar.c ****     if(bg_radius > short_side >> 1) bg_radius = short_side >> 1;
 817              		.loc 2 421 5 is_stmt 1 view .LVU301
 421:Middlewares/LVGL/GUI/lvgl/src/widgets/lv_bar.c ****     if(bg_radius > short_side >> 1) bg_radius = short_side >> 1;
 818              		.loc 2 421 16 is_stmt 0 view .LVU302
 819 0266 0B9B     		ldr	r3, [sp, #44]
 820 0268 0A9A     		ldr	r2, [sp, #40]
 821 026a 9342     		cmp	r3, r2
 822 026c A8BF     		it	ge
 823 026e 1346     		movge	r3, r2
 824              	.LVL81:
 422:Middlewares/LVGL/GUI/lvgl/src/widgets/lv_bar.c **** 
 825              		.loc 2 422 5 is_stmt 1 view .LVU303
 422:Middlewares/LVGL/GUI/lvgl/src/widgets/lv_bar.c **** 
 826              		.loc 2 422 31 is_stmt 0 view .LVU304
 827 0270 5F10     		asrs	r7, r3, #1
 422:Middlewares/LVGL/GUI/lvgl/src/widgets/lv_bar.c **** 
 828              		.loc 2 422 7 view .LVU305
 829 0272 B0EB630F 		cmp	r0, r3, asr #1
 830 0276 00DC     		bgt	.L27
 420:Middlewares/LVGL/GUI/lvgl/src/widgets/lv_bar.c ****     lv_coord_t short_side = LV_MIN(barw, barh);
 831              		.loc 2 420 28 view .LVU306
 832 0278 0746     		mov	r7, r0
 833              	.L27:
 834              	.LVL82:
 424:Middlewares/LVGL/GUI/lvgl/src/widgets/lv_bar.c ****     short_side = LV_MIN(indicw, indich);
 835              		.loc 2 424 5 is_stmt 1 view .LVU307
 424:Middlewares/LVGL/GUI/lvgl/src/widgets/lv_bar.c ****     short_side = LV_MIN(indicw, indich);
 836              		.loc 2 424 16 is_stmt 0 view .LVU308
 837 027a 4C9A     		ldr	r2, [sp, #304]
 838              	.LVL83:
 425:Middlewares/LVGL/GUI/lvgl/src/widgets/lv_bar.c ****     if(indic_radius > short_side >> 1) indic_radius = short_side >> 1;
 839              		.loc 2 425 5 is_stmt 1 view .LVU309
 425:Middlewares/LVGL/GUI/lvgl/src/widgets/lv_bar.c ****     if(indic_radius > short_side >> 1) indic_radius = short_side >> 1;
 840              		.loc 2 425 16 is_stmt 0 view .LVU310
 841 027c 099B     		ldr	r3, [sp, #36]
 842              	.LVL84:
 425:Middlewares/LVGL/GUI/lvgl/src/widgets/lv_bar.c ****     if(indic_radius > short_side >> 1) indic_radius = short_side >> 1;
 843              		.loc 2 425 16 view .LVU311
 844 027e 0C99     		ldr	r1, [sp, #48]
 845 0280 8B42     		cmp	r3, r1
 846 0282 A8BF     		it	ge
 847 0284 0B46     		movge	r3, r1
 848              	.LVL85:
 426:Middlewares/LVGL/GUI/lvgl/src/widgets/lv_bar.c **** 
 849              		.loc 2 426 5 is_stmt 1 view .LVU312
ARM GAS  C:\Users\ADMINI~1\AppData\Local\Temp\cc93wSbm.s 			page 43


 426:Middlewares/LVGL/GUI/lvgl/src/widgets/lv_bar.c **** 
 850              		.loc 2 426 34 is_stmt 0 view .LVU313
 851 0286 5910     		asrs	r1, r3, #1
 426:Middlewares/LVGL/GUI/lvgl/src/widgets/lv_bar.c **** 
 852              		.loc 2 426 7 view .LVU314
 853 0288 B2EB630F 		cmp	r2, r3, asr #1
 854 028c 00DC     		bgt	.L28
 424:Middlewares/LVGL/GUI/lvgl/src/widgets/lv_bar.c ****     short_side = LV_MIN(indicw, indich);
 855              		.loc 2 424 16 view .LVU315
 856 028e 1146     		mov	r1, r2
 857              	.L28:
 858              	.LVL86:
 431:Middlewares/LVGL/GUI/lvgl/src/widgets/lv_bar.c ****        (!hor && lv_area_get_height(&bar->indic_area) > indic_radius * 2)) {
 859              		.loc 2 431 5 is_stmt 1 view .LVU316
 431:Middlewares/LVGL/GUI/lvgl/src/widgets/lv_bar.c ****        (!hor && lv_area_get_height(&bar->indic_area) > indic_radius * 2)) {
 860              		.loc 2 431 7 is_stmt 0 view .LVU317
 861 0290 AE42     		cmp	r6, r5
 862 0292 05DB     		blt	.L29
 863              	.LVL87:
 864              	.LBB106:
 865              	.LBI106:
 123:Middlewares/LVGL/GUI/lvgl/src/widgets/../core/../misc/../font/../misc/lv_area.h **** {
 866              		.loc 1 123 26 is_stmt 1 discriminator 1 view .LVU318
 867              	.LBB107:
 125:Middlewares/LVGL/GUI/lvgl/src/widgets/../core/../misc/../font/../misc/lv_area.h **** }
 868              		.loc 1 125 5 discriminator 1 view .LVU319
 125:Middlewares/LVGL/GUI/lvgl/src/widgets/../core/../misc/../font/../misc/lv_area.h **** }
 869              		.loc 1 125 31 is_stmt 0 discriminator 1 view .LVU320
 870 0294 636C     		ldr	r3, [r4, #68]
 871              	.LVL88:
 125:Middlewares/LVGL/GUI/lvgl/src/widgets/../core/../misc/../font/../misc/lv_area.h **** }
 872              		.loc 1 125 44 discriminator 1 view .LVU321
 873 0296 E26B     		ldr	r2, [r4, #60]
 125:Middlewares/LVGL/GUI/lvgl/src/widgets/../core/../misc/../font/../misc/lv_area.h **** }
 874              		.loc 1 125 36 discriminator 1 view .LVU322
 875 0298 9B1A     		subs	r3, r3, r2
 876              	.LVL89:
 125:Middlewares/LVGL/GUI/lvgl/src/widgets/../core/../misc/../font/../misc/lv_area.h **** }
 877              		.loc 1 125 36 discriminator 1 view .LVU323
 878              	.LBE107:
 879              	.LBE106:
 431:Middlewares/LVGL/GUI/lvgl/src/widgets/lv_bar.c ****        (!hor && lv_area_get_height(&bar->indic_area) > indic_radius * 2)) {
 880              		.loc 2 431 13 discriminator 1 view .LVU324
 881 029a B3EB410F 		cmp	r3, r1, lsl #1
 882 029e 07DA     		bge	.L30
 883              	.L29:
 431:Middlewares/LVGL/GUI/lvgl/src/widgets/lv_bar.c ****        (!hor && lv_area_get_height(&bar->indic_area) > indic_radius * 2)) {
 884              		.loc 2 431 72 discriminator 3 view .LVU325
 885 02a0 AE42     		cmp	r6, r5
 886 02a2 1DDA     		bge	.L31
 887              	.LVL90:
 888              	.LBB108:
 889              	.LBI108:
 133:Middlewares/LVGL/GUI/lvgl/src/widgets/../core/../misc/../font/../misc/lv_area.h **** {
 890              		.loc 1 133 26 is_stmt 1 view .LVU326
 891              	.LBB109:
 135:Middlewares/LVGL/GUI/lvgl/src/widgets/../core/../misc/../font/../misc/lv_area.h **** }
ARM GAS  C:\Users\ADMINI~1\AppData\Local\Temp\cc93wSbm.s 			page 44


 892              		.loc 1 135 5 view .LVU327
 135:Middlewares/LVGL/GUI/lvgl/src/widgets/../core/../misc/../font/../misc/lv_area.h **** }
 893              		.loc 1 135 31 is_stmt 0 view .LVU328
 894 02a4 A36C     		ldr	r3, [r4, #72]
 135:Middlewares/LVGL/GUI/lvgl/src/widgets/../core/../misc/../font/../misc/lv_area.h **** }
 895              		.loc 1 135 44 view .LVU329
 896 02a6 226C     		ldr	r2, [r4, #64]
 135:Middlewares/LVGL/GUI/lvgl/src/widgets/../core/../misc/../font/../misc/lv_area.h **** }
 897              		.loc 1 135 36 view .LVU330
 898 02a8 9B1A     		subs	r3, r3, r2
 899              	.LVL91:
 135:Middlewares/LVGL/GUI/lvgl/src/widgets/../core/../misc/../font/../misc/lv_area.h **** }
 900              		.loc 1 135 36 view .LVU331
 901              	.LBE109:
 902              	.LBE108:
 432:Middlewares/LVGL/GUI/lvgl/src/widgets/lv_bar.c ****         lv_opa_t bg_opa = draw_rect_dsc.bg_opa;
 903              		.loc 2 432 14 view .LVU332
 904 02aa B3EB410F 		cmp	r3, r1, lsl #1
 905 02ae 17DB     		blt	.L31
 906              	.L30:
 907              	.LBB110:
 433:Middlewares/LVGL/GUI/lvgl/src/widgets/lv_bar.c ****         lv_opa_t bg_img_opa = draw_rect_dsc.bg_img_opa;
 908              		.loc 2 433 9 is_stmt 1 view .LVU333
 433:Middlewares/LVGL/GUI/lvgl/src/widgets/lv_bar.c ****         lv_opa_t bg_img_opa = draw_rect_dsc.bg_img_opa;
 909              		.loc 2 433 18 is_stmt 0 view .LVU334
 910 02b0 9DF835A1 		ldrb	r10, [sp, #309]	@ zero_extendqisi2
 911              	.LVL92:
 434:Middlewares/LVGL/GUI/lvgl/src/widgets/lv_bar.c ****         lv_opa_t border_opa = draw_rect_dsc.border_opa;
 912              		.loc 2 434 9 is_stmt 1 view .LVU335
 434:Middlewares/LVGL/GUI/lvgl/src/widgets/lv_bar.c ****         lv_opa_t border_opa = draw_rect_dsc.border_opa;
 913              		.loc 2 434 18 is_stmt 0 view .LVU336
 914 02b4 9DF84A91 		ldrb	r9, [sp, #330]	@ zero_extendqisi2
 915              	.LVL93:
 435:Middlewares/LVGL/GUI/lvgl/src/widgets/lv_bar.c ****         draw_rect_dsc.bg_opa = LV_OPA_TRANSP;
 916              		.loc 2 435 9 is_stmt 1 view .LVU337
 435:Middlewares/LVGL/GUI/lvgl/src/widgets/lv_bar.c ****         draw_rect_dsc.bg_opa = LV_OPA_TRANSP;
 917              		.loc 2 435 18 is_stmt 0 view .LVU338
 918 02b8 9DF85481 		ldrb	r8, [sp, #340]	@ zero_extendqisi2
 919              	.LVL94:
 436:Middlewares/LVGL/GUI/lvgl/src/widgets/lv_bar.c ****         draw_rect_dsc.bg_img_opa = LV_OPA_TRANSP;
 920              		.loc 2 436 9 is_stmt 1 view .LVU339
 436:Middlewares/LVGL/GUI/lvgl/src/widgets/lv_bar.c ****         draw_rect_dsc.bg_img_opa = LV_OPA_TRANSP;
 921              		.loc 2 436 30 is_stmt 0 view .LVU340
 922 02bc 0023     		movs	r3, #0
 923 02be 8DF83531 		strb	r3, [sp, #309]
 437:Middlewares/LVGL/GUI/lvgl/src/widgets/lv_bar.c ****         draw_rect_dsc.border_opa = LV_OPA_TRANSP;
 924              		.loc 2 437 9 is_stmt 1 view .LVU341
 437:Middlewares/LVGL/GUI/lvgl/src/widgets/lv_bar.c ****         draw_rect_dsc.border_opa = LV_OPA_TRANSP;
 925              		.loc 2 437 34 is_stmt 0 view .LVU342
 926 02c2 8DF84A31 		strb	r3, [sp, #330]
 438:Middlewares/LVGL/GUI/lvgl/src/widgets/lv_bar.c **** 
 927              		.loc 2 438 9 is_stmt 1 view .LVU343
 438:Middlewares/LVGL/GUI/lvgl/src/widgets/lv_bar.c **** 
 928              		.loc 2 438 34 is_stmt 0 view .LVU344
 929 02c6 8DF85431 		strb	r3, [sp, #340]
 440:Middlewares/LVGL/GUI/lvgl/src/widgets/lv_bar.c **** 
 930              		.loc 2 440 9 is_stmt 1 view .LVU345
ARM GAS  C:\Users\ADMINI~1\AppData\Local\Temp\cc93wSbm.s 			page 45


 931 02ca 019A     		ldr	r2, [sp, #4]
 932 02cc 4CA9     		add	r1, sp, #304
 933              	.LVL95:
 440:Middlewares/LVGL/GUI/lvgl/src/widgets/lv_bar.c **** 
 934              		.loc 2 440 9 is_stmt 0 view .LVU346
 935 02ce 0398     		ldr	r0, [sp, #12]
 936 02d0 FFF7FEFF 		bl	lv_draw_rect
 937              	.LVL96:
 442:Middlewares/LVGL/GUI/lvgl/src/widgets/lv_bar.c ****         draw_rect_dsc.bg_img_opa = bg_img_opa;
 938              		.loc 2 442 9 is_stmt 1 view .LVU347
 442:Middlewares/LVGL/GUI/lvgl/src/widgets/lv_bar.c ****         draw_rect_dsc.bg_img_opa = bg_img_opa;
 939              		.loc 2 442 30 is_stmt 0 view .LVU348
 940 02d4 8DF835A1 		strb	r10, [sp, #309]
 443:Middlewares/LVGL/GUI/lvgl/src/widgets/lv_bar.c ****         draw_rect_dsc.border_opa = border_opa;
 941              		.loc 2 443 9 is_stmt 1 view .LVU349
 443:Middlewares/LVGL/GUI/lvgl/src/widgets/lv_bar.c ****         draw_rect_dsc.border_opa = border_opa;
 942              		.loc 2 443 34 is_stmt 0 view .LVU350
 943 02d8 8DF84A91 		strb	r9, [sp, #330]
 444:Middlewares/LVGL/GUI/lvgl/src/widgets/lv_bar.c ****     }
 944              		.loc 2 444 9 is_stmt 1 view .LVU351
 444:Middlewares/LVGL/GUI/lvgl/src/widgets/lv_bar.c ****     }
 945              		.loc 2 444 34 is_stmt 0 view .LVU352
 946 02dc 8DF85481 		strb	r8, [sp, #340]
 947              	.LVL97:
 948              	.L31:
 444:Middlewares/LVGL/GUI/lvgl/src/widgets/lv_bar.c ****     }
 949              		.loc 2 444 34 view .LVU353
 950              	.LBE110:
 448:Middlewares/LVGL/GUI/lvgl/src/widgets/lv_bar.c ****     lv_area_t bg_mask_area;
 951              		.loc 2 448 5 is_stmt 1 view .LVU354
 449:Middlewares/LVGL/GUI/lvgl/src/widgets/lv_bar.c ****     bg_mask_area.x1 = obj->coords.x1 + bg_left;
 952              		.loc 2 449 5 view .LVU355
 450:Middlewares/LVGL/GUI/lvgl/src/widgets/lv_bar.c ****     bg_mask_area.x2 = obj->coords.x2 - bg_right;
 953              		.loc 2 450 5 view .LVU356
 450:Middlewares/LVGL/GUI/lvgl/src/widgets/lv_bar.c ****     bg_mask_area.x2 = obj->coords.x2 - bg_right;
 954              		.loc 2 450 34 is_stmt 0 view .LVU357
 955 02e0 6369     		ldr	r3, [r4, #20]
 450:Middlewares/LVGL/GUI/lvgl/src/widgets/lv_bar.c ****     bg_mask_area.x2 = obj->coords.x2 - bg_right;
 956              		.loc 2 450 38 view .LVU358
 957 02e2 089A     		ldr	r2, [sp, #32]
 958 02e4 1344     		add	r3, r3, r2
 450:Middlewares/LVGL/GUI/lvgl/src/widgets/lv_bar.c ****     bg_mask_area.x2 = obj->coords.x2 - bg_right;
 959              		.loc 2 450 21 view .LVU359
 960 02e6 2D93     		str	r3, [sp, #180]
 451:Middlewares/LVGL/GUI/lvgl/src/widgets/lv_bar.c ****     bg_mask_area.y1 = obj->coords.y1 + bg_top;
 961              		.loc 2 451 5 is_stmt 1 view .LVU360
 451:Middlewares/LVGL/GUI/lvgl/src/widgets/lv_bar.c ****     bg_mask_area.y1 = obj->coords.y1 + bg_top;
 962              		.loc 2 451 34 is_stmt 0 view .LVU361
 963 02e8 E369     		ldr	r3, [r4, #28]
 451:Middlewares/LVGL/GUI/lvgl/src/widgets/lv_bar.c ****     bg_mask_area.y1 = obj->coords.y1 + bg_top;
 964              		.loc 2 451 38 view .LVU362
 965 02ea 0799     		ldr	r1, [sp, #28]
 966 02ec 5B1A     		subs	r3, r3, r1
 451:Middlewares/LVGL/GUI/lvgl/src/widgets/lv_bar.c ****     bg_mask_area.y1 = obj->coords.y1 + bg_top;
 967              		.loc 2 451 21 view .LVU363
 968 02ee 2F93     		str	r3, [sp, #188]
 452:Middlewares/LVGL/GUI/lvgl/src/widgets/lv_bar.c ****     bg_mask_area.y2 = obj->coords.y2 - bg_bottom;
ARM GAS  C:\Users\ADMINI~1\AppData\Local\Temp\cc93wSbm.s 			page 46


 969              		.loc 2 452 5 is_stmt 1 view .LVU364
 452:Middlewares/LVGL/GUI/lvgl/src/widgets/lv_bar.c ****     bg_mask_area.y2 = obj->coords.y2 - bg_bottom;
 970              		.loc 2 452 34 is_stmt 0 view .LVU365
 971 02f0 A369     		ldr	r3, [r4, #24]
 452:Middlewares/LVGL/GUI/lvgl/src/widgets/lv_bar.c ****     bg_mask_area.y2 = obj->coords.y2 - bg_bottom;
 972              		.loc 2 452 38 view .LVU366
 973 02f2 0698     		ldr	r0, [sp, #24]
 974 02f4 0344     		add	r3, r3, r0
 452:Middlewares/LVGL/GUI/lvgl/src/widgets/lv_bar.c ****     bg_mask_area.y2 = obj->coords.y2 - bg_bottom;
 975              		.loc 2 452 21 view .LVU367
 976 02f6 2E93     		str	r3, [sp, #184]
 453:Middlewares/LVGL/GUI/lvgl/src/widgets/lv_bar.c **** 
 977              		.loc 2 453 5 is_stmt 1 view .LVU368
 453:Middlewares/LVGL/GUI/lvgl/src/widgets/lv_bar.c **** 
 978              		.loc 2 453 34 is_stmt 0 view .LVU369
 979 02f8 236A     		ldr	r3, [r4, #32]
 453:Middlewares/LVGL/GUI/lvgl/src/widgets/lv_bar.c **** 
 980              		.loc 2 453 38 view .LVU370
 981 02fa 059A     		ldr	r2, [sp, #20]
 982 02fc 9B1A     		subs	r3, r3, r2
 453:Middlewares/LVGL/GUI/lvgl/src/widgets/lv_bar.c **** 
 983              		.loc 2 453 21 view .LVU371
 984 02fe 3093     		str	r3, [sp, #192]
 455:Middlewares/LVGL/GUI/lvgl/src/widgets/lv_bar.c ****     lv_coord_t mask_bg_id = lv_draw_mask_add(&mask_bg_param, NULL);
 985              		.loc 2 455 5 is_stmt 1 view .LVU372
 986 0300 0023     		movs	r3, #0
 987 0302 3A46     		mov	r2, r7
 988 0304 2DA9     		add	r1, sp, #180
 989 0306 31A8     		add	r0, sp, #196
 990 0308 FFF7FEFF 		bl	lv_draw_mask_radius_init
 991              	.LVL98:
 456:Middlewares/LVGL/GUI/lvgl/src/widgets/lv_bar.c **** #endif
 992              		.loc 2 456 5 view .LVU373
 456:Middlewares/LVGL/GUI/lvgl/src/widgets/lv_bar.c **** #endif
 993              		.loc 2 456 29 is_stmt 0 view .LVU374
 994 030c 0021     		movs	r1, #0
 995 030e 31A8     		add	r0, sp, #196
 996 0310 FFF7FEFF 		bl	lv_draw_mask_add
 997              	.LVL99:
 998 0314 0746     		mov	r7, r0
 999              	.LVL100:
 460:Middlewares/LVGL/GUI/lvgl/src/widgets/lv_bar.c ****     lv_opa_t border_opa = draw_rect_dsc.border_opa;
 1000              		.loc 2 460 5 is_stmt 1 view .LVU375
 460:Middlewares/LVGL/GUI/lvgl/src/widgets/lv_bar.c ****     lv_opa_t border_opa = draw_rect_dsc.border_opa;
 1001              		.loc 2 460 14 is_stmt 0 view .LVU376
 1002 0316 9DF87481 		ldrb	r8, [sp, #372]	@ zero_extendqisi2
 1003              	.LVL101:
 461:Middlewares/LVGL/GUI/lvgl/src/widgets/lv_bar.c ****     draw_rect_dsc.border_opa = LV_OPA_TRANSP;
 1004              		.loc 2 461 5 is_stmt 1 view .LVU377
 461:Middlewares/LVGL/GUI/lvgl/src/widgets/lv_bar.c ****     draw_rect_dsc.border_opa = LV_OPA_TRANSP;
 1005              		.loc 2 461 14 is_stmt 0 view .LVU378
 1006 031a 9DF85491 		ldrb	r9, [sp, #340]	@ zero_extendqisi2
 1007              	.LVL102:
 462:Middlewares/LVGL/GUI/lvgl/src/widgets/lv_bar.c ****     draw_rect_dsc.shadow_opa = LV_OPA_TRANSP;
 1008              		.loc 2 462 5 is_stmt 1 view .LVU379
 462:Middlewares/LVGL/GUI/lvgl/src/widgets/lv_bar.c ****     draw_rect_dsc.shadow_opa = LV_OPA_TRANSP;
 1009              		.loc 2 462 30 is_stmt 0 view .LVU380
ARM GAS  C:\Users\ADMINI~1\AppData\Local\Temp\cc93wSbm.s 			page 47


 1010 031e 0023     		movs	r3, #0
 1011 0320 8DF85431 		strb	r3, [sp, #340]
 463:Middlewares/LVGL/GUI/lvgl/src/widgets/lv_bar.c **** 
 1012              		.loc 2 463 5 is_stmt 1 view .LVU381
 463:Middlewares/LVGL/GUI/lvgl/src/widgets/lv_bar.c **** 
 1013              		.loc 2 463 30 is_stmt 0 view .LVU382
 1014 0324 8DF87431 		strb	r3, [sp, #372]
 466:Middlewares/LVGL/GUI/lvgl/src/widgets/lv_bar.c ****     lv_area_copy(&mask_indic_max_area, &bar_coords);
 1015              		.loc 2 466 5 is_stmt 1 view .LVU383
 467:Middlewares/LVGL/GUI/lvgl/src/widgets/lv_bar.c ****     mask_indic_max_area.x1 += bg_left;
 1016              		.loc 2 467 5 view .LVU384
 1017              	.LVL103:
 1018              	.LBB111:
 1019              	.LBI111:
 110:Middlewares/LVGL/GUI/lvgl/src/widgets/../core/../misc/../font/../misc/lv_area.h **** {
 1020              		.loc 1 110 20 view .LVU385
 1021              	.LBB112:
 112:Middlewares/LVGL/GUI/lvgl/src/widgets/../core/../misc/../font/../misc/lv_area.h ****     dest->y1 = src->y1;
 1022              		.loc 1 112 5 view .LVU386
 112:Middlewares/LVGL/GUI/lvgl/src/widgets/../core/../misc/../font/../misc/lv_area.h ****     dest->y1 = src->y1;
 1023              		.loc 1 112 19 is_stmt 0 view .LVU387
 1024 0328 6299     		ldr	r1, [sp, #392]
 112:Middlewares/LVGL/GUI/lvgl/src/widgets/../core/../misc/../font/../misc/lv_area.h ****     dest->y1 = src->y1;
 1025              		.loc 1 112 14 view .LVU388
 1026 032a 2991     		str	r1, [sp, #164]
 113:Middlewares/LVGL/GUI/lvgl/src/widgets/../core/../misc/../font/../misc/lv_area.h ****     dest->x2 = src->x2;
 1027              		.loc 1 113 5 is_stmt 1 view .LVU389
 113:Middlewares/LVGL/GUI/lvgl/src/widgets/../core/../misc/../font/../misc/lv_area.h ****     dest->x2 = src->x2;
 1028              		.loc 1 113 19 is_stmt 0 view .LVU390
 1029 032c 6398     		ldr	r0, [sp, #396]
 113:Middlewares/LVGL/GUI/lvgl/src/widgets/../core/../misc/../font/../misc/lv_area.h ****     dest->x2 = src->x2;
 1030              		.loc 1 113 14 view .LVU391
 1031 032e 2A90     		str	r0, [sp, #168]
 114:Middlewares/LVGL/GUI/lvgl/src/widgets/../core/../misc/../font/../misc/lv_area.h ****     dest->y2 = src->y2;
 1032              		.loc 1 114 5 is_stmt 1 view .LVU392
 114:Middlewares/LVGL/GUI/lvgl/src/widgets/../core/../misc/../font/../misc/lv_area.h ****     dest->y2 = src->y2;
 1033              		.loc 1 114 19 is_stmt 0 view .LVU393
 1034 0330 649A     		ldr	r2, [sp, #400]
 114:Middlewares/LVGL/GUI/lvgl/src/widgets/../core/../misc/../font/../misc/lv_area.h ****     dest->y2 = src->y2;
 1035              		.loc 1 114 14 view .LVU394
 1036 0332 2B92     		str	r2, [sp, #172]
 115:Middlewares/LVGL/GUI/lvgl/src/widgets/../core/../misc/../font/../misc/lv_area.h **** }
 1037              		.loc 1 115 5 is_stmt 1 view .LVU395
 115:Middlewares/LVGL/GUI/lvgl/src/widgets/../core/../misc/../font/../misc/lv_area.h **** }
 1038              		.loc 1 115 19 is_stmt 0 view .LVU396
 1039 0334 DDF894C1 		ldr	ip, [sp, #404]
 115:Middlewares/LVGL/GUI/lvgl/src/widgets/../core/../misc/../font/../misc/lv_area.h **** }
 1040              		.loc 1 115 14 view .LVU397
 1041 0338 CDF8B0C0 		str	ip, [sp, #176]
 1042              	.LVL104:
 115:Middlewares/LVGL/GUI/lvgl/src/widgets/../core/../misc/../font/../misc/lv_area.h **** }
 1043              		.loc 1 115 14 view .LVU398
 1044              	.LBE112:
 1045              	.LBE111:
 468:Middlewares/LVGL/GUI/lvgl/src/widgets/lv_bar.c ****     mask_indic_max_area.y1 += bg_top;
 1046              		.loc 2 468 5 is_stmt 1 view .LVU399
 468:Middlewares/LVGL/GUI/lvgl/src/widgets/lv_bar.c ****     mask_indic_max_area.y1 += bg_top;
ARM GAS  C:\Users\ADMINI~1\AppData\Local\Temp\cc93wSbm.s 			page 48


 1047              		.loc 2 468 28 is_stmt 0 view .LVU400
 1048 033c 089B     		ldr	r3, [sp, #32]
 1049 033e 1944     		add	r1, r1, r3
 1050 0340 2991     		str	r1, [sp, #164]
 469:Middlewares/LVGL/GUI/lvgl/src/widgets/lv_bar.c ****     mask_indic_max_area.x2 -= bg_right;
 1051              		.loc 2 469 5 is_stmt 1 view .LVU401
 469:Middlewares/LVGL/GUI/lvgl/src/widgets/lv_bar.c ****     mask_indic_max_area.x2 -= bg_right;
 1052              		.loc 2 469 28 is_stmt 0 view .LVU402
 1053 0342 069B     		ldr	r3, [sp, #24]
 1054 0344 1844     		add	r0, r0, r3
 1055 0346 2A90     		str	r0, [sp, #168]
 470:Middlewares/LVGL/GUI/lvgl/src/widgets/lv_bar.c ****     mask_indic_max_area.y2 -= bg_bottom;
 1056              		.loc 2 470 5 is_stmt 1 view .LVU403
 470:Middlewares/LVGL/GUI/lvgl/src/widgets/lv_bar.c ****     mask_indic_max_area.y2 -= bg_bottom;
 1057              		.loc 2 470 28 is_stmt 0 view .LVU404
 1058 0348 079B     		ldr	r3, [sp, #28]
 1059 034a D21A     		subs	r2, r2, r3
 1060 034c 2B92     		str	r2, [sp, #172]
 471:Middlewares/LVGL/GUI/lvgl/src/widgets/lv_bar.c ****     if(hor && lv_area_get_height(&mask_indic_max_area) < LV_BAR_SIZE_MIN) {
 1061              		.loc 2 471 5 is_stmt 1 view .LVU405
 471:Middlewares/LVGL/GUI/lvgl/src/widgets/lv_bar.c ****     if(hor && lv_area_get_height(&mask_indic_max_area) < LV_BAR_SIZE_MIN) {
 1062              		.loc 2 471 28 is_stmt 0 view .LVU406
 1063 034e 059B     		ldr	r3, [sp, #20]
 1064 0350 ACEB0303 		sub	r3, ip, r3
 1065 0354 2C93     		str	r3, [sp, #176]
 472:Middlewares/LVGL/GUI/lvgl/src/widgets/lv_bar.c ****         mask_indic_max_area.y1 = obj->coords.y1 + (barh / 2) - (LV_BAR_SIZE_MIN / 2);
 1066              		.loc 2 472 5 is_stmt 1 view .LVU407
 472:Middlewares/LVGL/GUI/lvgl/src/widgets/lv_bar.c ****         mask_indic_max_area.y1 = obj->coords.y1 + (barh / 2) - (LV_BAR_SIZE_MIN / 2);
 1067              		.loc 2 472 7 is_stmt 0 view .LVU408
 1068 0356 AE42     		cmp	r6, r5
 1069 0358 C0F2DC80 		blt	.L32
 1070              	.LVL105:
 1071              	.LBB113:
 1072              	.LBI113:
 133:Middlewares/LVGL/GUI/lvgl/src/widgets/../core/../misc/../font/../misc/lv_area.h **** {
 1073              		.loc 1 133 26 is_stmt 1 view .LVU409
 1074              	.LBB114:
 135:Middlewares/LVGL/GUI/lvgl/src/widgets/../core/../misc/../font/../misc/lv_area.h **** }
 1075              		.loc 1 135 5 view .LVU410
 135:Middlewares/LVGL/GUI/lvgl/src/widgets/../core/../misc/../font/../misc/lv_area.h **** }
 1076              		.loc 1 135 36 is_stmt 0 view .LVU411
 1077 035c 1B1A     		subs	r3, r3, r0
 1078              	.LVL106:
 135:Middlewares/LVGL/GUI/lvgl/src/widgets/../core/../misc/../font/../misc/lv_area.h **** }
 1079              		.loc 1 135 36 view .LVU412
 1080              	.LBE114:
 1081              	.LBE113:
 472:Middlewares/LVGL/GUI/lvgl/src/widgets/lv_bar.c ****         mask_indic_max_area.y1 = obj->coords.y1 + (barh / 2) - (LV_BAR_SIZE_MIN / 2);
 1082              		.loc 2 472 12 view .LVU413
 1083 035e 022B     		cmp	r3, #2
 1084 0360 00F3D880 		bgt	.L32
 473:Middlewares/LVGL/GUI/lvgl/src/widgets/lv_bar.c ****         mask_indic_max_area.y2 = mask_indic_max_area.y1 + LV_BAR_SIZE_MIN;
 1085              		.loc 2 473 9 is_stmt 1 view .LVU414
 473:Middlewares/LVGL/GUI/lvgl/src/widgets/lv_bar.c ****         mask_indic_max_area.y2 = mask_indic_max_area.y1 + LV_BAR_SIZE_MIN;
 1086              		.loc 2 473 45 is_stmt 0 view .LVU415
 1087 0364 A269     		ldr	r2, [r4, #24]
 473:Middlewares/LVGL/GUI/lvgl/src/widgets/lv_bar.c ****         mask_indic_max_area.y2 = mask_indic_max_area.y1 + LV_BAR_SIZE_MIN;
ARM GAS  C:\Users\ADMINI~1\AppData\Local\Temp\cc93wSbm.s 			page 49


 1088              		.loc 2 473 57 view .LVU416
 1089 0366 0A9B     		ldr	r3, [sp, #40]
 1090 0368 03EBD373 		add	r3, r3, r3, lsr #31
 473:Middlewares/LVGL/GUI/lvgl/src/widgets/lv_bar.c ****         mask_indic_max_area.y2 = mask_indic_max_area.y1 + LV_BAR_SIZE_MIN;
 1091              		.loc 2 473 49 view .LVU417
 1092 036c 02EB6303 		add	r3, r2, r3, asr #1
 473:Middlewares/LVGL/GUI/lvgl/src/widgets/lv_bar.c ****         mask_indic_max_area.y2 = mask_indic_max_area.y1 + LV_BAR_SIZE_MIN;
 1093              		.loc 2 473 62 view .LVU418
 1094 0370 9A1E     		subs	r2, r3, #2
 473:Middlewares/LVGL/GUI/lvgl/src/widgets/lv_bar.c ****         mask_indic_max_area.y2 = mask_indic_max_area.y1 + LV_BAR_SIZE_MIN;
 1095              		.loc 2 473 32 view .LVU419
 1096 0372 2A92     		str	r2, [sp, #168]
 474:Middlewares/LVGL/GUI/lvgl/src/widgets/lv_bar.c ****     }
 1097              		.loc 2 474 9 is_stmt 1 view .LVU420
 474:Middlewares/LVGL/GUI/lvgl/src/widgets/lv_bar.c ****     }
 1098              		.loc 2 474 57 is_stmt 0 view .LVU421
 1099 0374 0233     		adds	r3, r3, #2
 474:Middlewares/LVGL/GUI/lvgl/src/widgets/lv_bar.c ****     }
 1100              		.loc 2 474 32 view .LVU422
 1101 0376 2C93     		str	r3, [sp, #176]
 1102              	.L33:
 483:Middlewares/LVGL/GUI/lvgl/src/widgets/lv_bar.c ****     lv_draw_mask_radius_init(&mask_indic_param, &bar->indic_area, draw_rect_dsc.radius, false);
 1103              		.loc 2 483 5 is_stmt 1 view .LVU423
 484:Middlewares/LVGL/GUI/lvgl/src/widgets/lv_bar.c ****     int16_t mask_indic_id = lv_draw_mask_add(&mask_indic_param, NULL);
 1104              		.loc 2 484 5 view .LVU424
 1105 0378 0023     		movs	r3, #0
 1106 037a 4C9A     		ldr	r2, [sp, #304]
 1107 037c DDF804A0 		ldr	r10, [sp, #4]
 1108 0380 5146     		mov	r1, r10
 1109 0382 20A8     		add	r0, sp, #128
 1110 0384 FFF7FEFF 		bl	lv_draw_mask_radius_init
 1111              	.LVL107:
 485:Middlewares/LVGL/GUI/lvgl/src/widgets/lv_bar.c **** #endif
 1112              		.loc 2 485 5 view .LVU425
 485:Middlewares/LVGL/GUI/lvgl/src/widgets/lv_bar.c **** #endif
 1113              		.loc 2 485 29 is_stmt 0 view .LVU426
 1114 0388 0021     		movs	r1, #0
 1115 038a 20A8     		add	r0, sp, #128
 1116 038c FFF7FEFF 		bl	lv_draw_mask_add
 1117              	.LVL108:
 1118 0390 0546     		mov	r5, r0
 1119              	.LVL109:
 488:Middlewares/LVGL/GUI/lvgl/src/widgets/lv_bar.c ****     draw_rect_dsc.border_opa = border_opa;
 1120              		.loc 2 488 5 is_stmt 1 view .LVU427
 1121 0392 29AA     		add	r2, sp, #164
 1122 0394 4CA9     		add	r1, sp, #304
 1123 0396 039E     		ldr	r6, [sp, #12]
 1124              	.LVL110:
 488:Middlewares/LVGL/GUI/lvgl/src/widgets/lv_bar.c ****     draw_rect_dsc.border_opa = border_opa;
 1125              		.loc 2 488 5 is_stmt 0 view .LVU428
 1126 0398 3046     		mov	r0, r6
 1127 039a FFF7FEFF 		bl	lv_draw_rect
 1128              	.LVL111:
 489:Middlewares/LVGL/GUI/lvgl/src/widgets/lv_bar.c ****     draw_rect_dsc.shadow_opa = shadow_opa;
 1129              		.loc 2 489 5 is_stmt 1 view .LVU429
 489:Middlewares/LVGL/GUI/lvgl/src/widgets/lv_bar.c ****     draw_rect_dsc.shadow_opa = shadow_opa;
 1130              		.loc 2 489 30 is_stmt 0 view .LVU430
ARM GAS  C:\Users\ADMINI~1\AppData\Local\Temp\cc93wSbm.s 			page 50


 1131 039e 8DF85491 		strb	r9, [sp, #340]
 490:Middlewares/LVGL/GUI/lvgl/src/widgets/lv_bar.c **** 
 1132              		.loc 2 490 5 is_stmt 1 view .LVU431
 490:Middlewares/LVGL/GUI/lvgl/src/widgets/lv_bar.c **** 
 1133              		.loc 2 490 30 is_stmt 0 view .LVU432
 1134 03a2 8DF87481 		strb	r8, [sp, #372]
 493:Middlewares/LVGL/GUI/lvgl/src/widgets/lv_bar.c ****     draw_rect_dsc.bg_img_opa = LV_OPA_TRANSP;
 1135              		.loc 2 493 5 is_stmt 1 view .LVU433
 493:Middlewares/LVGL/GUI/lvgl/src/widgets/lv_bar.c ****     draw_rect_dsc.bg_img_opa = LV_OPA_TRANSP;
 1136              		.loc 2 493 26 is_stmt 0 view .LVU434
 1137 03a6 0023     		movs	r3, #0
 1138 03a8 8DF83531 		strb	r3, [sp, #309]
 494:Middlewares/LVGL/GUI/lvgl/src/widgets/lv_bar.c ****     draw_rect_dsc.shadow_opa = LV_OPA_TRANSP;
 1139              		.loc 2 494 5 is_stmt 1 view .LVU435
 494:Middlewares/LVGL/GUI/lvgl/src/widgets/lv_bar.c ****     draw_rect_dsc.shadow_opa = LV_OPA_TRANSP;
 1140              		.loc 2 494 30 is_stmt 0 view .LVU436
 1141 03ac 8DF84A31 		strb	r3, [sp, #330]
 495:Middlewares/LVGL/GUI/lvgl/src/widgets/lv_bar.c ****     lv_draw_rect(draw_ctx, &draw_rect_dsc, &bar->indic_area);
 1142              		.loc 2 495 5 is_stmt 1 view .LVU437
 495:Middlewares/LVGL/GUI/lvgl/src/widgets/lv_bar.c ****     lv_draw_rect(draw_ctx, &draw_rect_dsc, &bar->indic_area);
 1143              		.loc 2 495 30 is_stmt 0 view .LVU438
 1144 03b0 8DF87431 		strb	r3, [sp, #372]
 496:Middlewares/LVGL/GUI/lvgl/src/widgets/lv_bar.c **** 
 1145              		.loc 2 496 5 is_stmt 1 view .LVU439
 1146 03b4 5246     		mov	r2, r10
 1147 03b6 4CA9     		add	r1, sp, #304
 1148 03b8 3046     		mov	r0, r6
 1149 03ba FFF7FEFF 		bl	lv_draw_rect
 1150              	.LVL112:
 499:Middlewares/LVGL/GUI/lvgl/src/widgets/lv_bar.c ****     lv_draw_mask_free_param(&mask_bg_param);
 1151              		.loc 2 499 5 view .LVU440
 1152 03be 20A8     		add	r0, sp, #128
 1153 03c0 FFF7FEFF 		bl	lv_draw_mask_free_param
 1154              	.LVL113:
 500:Middlewares/LVGL/GUI/lvgl/src/widgets/lv_bar.c ****     lv_draw_mask_remove_id(mask_indic_id);
 1155              		.loc 2 500 5 view .LVU441
 1156 03c4 31A8     		add	r0, sp, #196
 1157 03c6 FFF7FEFF 		bl	lv_draw_mask_free_param
 1158              	.LVL114:
 501:Middlewares/LVGL/GUI/lvgl/src/widgets/lv_bar.c ****     lv_draw_mask_remove_id(mask_bg_id);
 1159              		.loc 2 501 5 view .LVU442
 1160 03ca 2846     		mov	r0, r5
 1161 03cc FFF7FEFF 		bl	lv_draw_mask_remove_id
 1162              	.LVL115:
 502:Middlewares/LVGL/GUI/lvgl/src/widgets/lv_bar.c **** #endif
 1163              		.loc 2 502 5 view .LVU443
 1164 03d0 3846     		mov	r0, r7
 1165 03d2 FFF7FEFF 		bl	lv_draw_mask_remove_id
 1166              	.LVL116:
 505:Middlewares/LVGL/GUI/lvgl/src/widgets/lv_bar.c **** }
 1167              		.loc 2 505 5 view .LVU444
 1168 03d6 3AAA     		add	r2, sp, #232
 1169 03d8 1B21     		movs	r1, #27
 1170 03da 2046     		mov	r0, r4
 1171 03dc FFF7FEFF 		bl	lv_event_send
 1172              	.LVL117:
 1173              	.L4:
ARM GAS  C:\Users\ADMINI~1\AppData\Local\Temp\cc93wSbm.s 			page 51


 506:Middlewares/LVGL/GUI/lvgl/src/widgets/lv_bar.c **** 
 1174              		.loc 2 506 1 is_stmt 0 view .LVU445
 1175 03e0 67B0     		add	sp, sp, #412
 1176              	.LCFI2:
 1177              		.cfi_remember_state
 1178              		.cfi_def_cfa_offset 36
 1179              		@ sp needed
 1180 03e2 BDE8F08F 		pop	{r4, r5, r6, r7, r8, r9, r10, fp, pc}
 1181              	.LVL118:
 1182              	.L40:
 1183              	.LCFI3:
 1184              		.cfi_restore_state
 264:Middlewares/LVGL/GUI/lvgl/src/widgets/lv_bar.c ****        bar->start_value == bar->min_value) sym = true;
 1185              		.loc 2 264 45 discriminator 1 view .LVU446
 1186 03e6 002A     		cmp	r2, #0
 1187 03e8 02DB     		blt	.L45
 263:Middlewares/LVGL/GUI/lvgl/src/widgets/lv_bar.c ****     if(bar->mode == LV_BAR_MODE_SYMMETRICAL && bar->min_value < 0 && bar->max_value > 0 &&
 1188              		.loc 2 263 10 view .LVU447
 1189 03ea 0023     		movs	r3, #0
 1190 03ec 0493     		str	r3, [sp, #16]
 1191 03ee 42E6     		b	.L5
 1192              	.L45:
 264:Middlewares/LVGL/GUI/lvgl/src/widgets/lv_bar.c ****        bar->start_value == bar->min_value) sym = true;
 1193              		.loc 2 264 67 discriminator 2 view .LVU448
 1194 03f0 0029     		cmp	r1, #0
 1195 03f2 05DD     		ble	.L36
 265:Middlewares/LVGL/GUI/lvgl/src/widgets/lv_bar.c **** 
 1196              		.loc 2 265 11 discriminator 3 view .LVU449
 1197 03f4 A36B     		ldr	r3, [r4, #56]
 264:Middlewares/LVGL/GUI/lvgl/src/widgets/lv_bar.c ****        bar->start_value == bar->min_value) sym = true;
 1198              		.loc 2 264 89 discriminator 3 view .LVU450
 1199 03f6 9A42     		cmp	r2, r3
 1200 03f8 05D0     		beq	.L37
 263:Middlewares/LVGL/GUI/lvgl/src/widgets/lv_bar.c ****     if(bar->mode == LV_BAR_MODE_SYMMETRICAL && bar->min_value < 0 && bar->max_value > 0 &&
 1201              		.loc 2 263 10 view .LVU451
 1202 03fa 0023     		movs	r3, #0
 1203 03fc 0493     		str	r3, [sp, #16]
 1204 03fe 3AE6     		b	.L5
 1205              	.L36:
 263:Middlewares/LVGL/GUI/lvgl/src/widgets/lv_bar.c ****     if(bar->mode == LV_BAR_MODE_SYMMETRICAL && bar->min_value < 0 && bar->max_value > 0 &&
 1206              		.loc 2 263 10 view .LVU452
 1207 0400 0023     		movs	r3, #0
 1208 0402 0493     		str	r3, [sp, #16]
 1209 0404 37E6     		b	.L5
 1210              	.L37:
 265:Middlewares/LVGL/GUI/lvgl/src/widgets/lv_bar.c **** 
 1211              		.loc 2 265 48 view .LVU453
 1212 0406 0123     		movs	r3, #1
 1213 0408 0493     		str	r3, [sp, #16]
 1214 040a 34E6     		b	.L5
 1215              	.L47:
 1216              		.align	2
 1217              	.L46:
 1218 040c 00000000 		.word	lv_area_get_width
 1219 0410 00000000 		.word	.LANCHOR0
 1220              	.LVL119:
 1221              	.L6:
ARM GAS  C:\Users\ADMINI~1\AppData\Local\Temp\cc93wSbm.s 			page 52


 283:Middlewares/LVGL/GUI/lvgl/src/widgets/lv_bar.c ****         bar->indic_area.x1 = obj->coords.x1 + (barw / 2) - (LV_BAR_SIZE_MIN / 2);
 1222              		.loc 2 283 10 is_stmt 1 view .LVU454
 283:Middlewares/LVGL/GUI/lvgl/src/widgets/lv_bar.c ****         bar->indic_area.x1 = obj->coords.x1 + (barw / 2) - (LV_BAR_SIZE_MIN / 2);
 1223              		.loc 2 283 12 is_stmt 0 view .LVU455
 1224 0414 AE42     		cmp	r6, r5
 1225 0416 BFF674AE 		bge	.L7
 1226              	.LVL120:
 1227              	.LBB115:
 1228              	.LBI115:
 123:Middlewares/LVGL/GUI/lvgl/src/widgets/../core/../misc/../font/../misc/lv_area.h **** {
 1229              		.loc 1 123 26 is_stmt 1 discriminator 1 view .LVU456
 1230              	.LBB116:
 125:Middlewares/LVGL/GUI/lvgl/src/widgets/../core/../misc/../font/../misc/lv_area.h **** }
 1231              		.loc 1 125 5 discriminator 1 view .LVU457
 125:Middlewares/LVGL/GUI/lvgl/src/widgets/../core/../misc/../font/../misc/lv_area.h **** }
 1232              		.loc 1 125 36 is_stmt 0 discriminator 1 view .LVU458
 1233 041a 121A     		subs	r2, r2, r0
 1234              	.LVL121:
 125:Middlewares/LVGL/GUI/lvgl/src/widgets/../core/../misc/../font/../misc/lv_area.h **** }
 1235              		.loc 1 125 36 discriminator 1 view .LVU459
 1236              	.LBE116:
 1237              	.LBE115:
 283:Middlewares/LVGL/GUI/lvgl/src/widgets/lv_bar.c ****         bar->indic_area.x1 = obj->coords.x1 + (barw / 2) - (LV_BAR_SIZE_MIN / 2);
 1238              		.loc 2 283 18 discriminator 1 view .LVU460
 1239 041c 022A     		cmp	r2, #2
 1240 041e 3FF770AE 		bgt	.L7
 284:Middlewares/LVGL/GUI/lvgl/src/widgets/lv_bar.c ****         bar->indic_area.x2 = bar->indic_area.x1 + LV_BAR_SIZE_MIN;
 1241              		.loc 2 284 9 is_stmt 1 view .LVU461
 284:Middlewares/LVGL/GUI/lvgl/src/widgets/lv_bar.c ****         bar->indic_area.x2 = bar->indic_area.x1 + LV_BAR_SIZE_MIN;
 1242              		.loc 2 284 41 is_stmt 0 view .LVU462
 1243 0422 6369     		ldr	r3, [r4, #20]
 284:Middlewares/LVGL/GUI/lvgl/src/widgets/lv_bar.c ****         bar->indic_area.x2 = bar->indic_area.x1 + LV_BAR_SIZE_MIN;
 1244              		.loc 2 284 53 view .LVU463
 1245 0424 0B9A     		ldr	r2, [sp, #44]
 1246 0426 02EBD272 		add	r2, r2, r2, lsr #31
 284:Middlewares/LVGL/GUI/lvgl/src/widgets/lv_bar.c ****         bar->indic_area.x2 = bar->indic_area.x1 + LV_BAR_SIZE_MIN;
 1247              		.loc 2 284 45 view .LVU464
 1248 042a 03EB6203 		add	r3, r3, r2, asr #1
 284:Middlewares/LVGL/GUI/lvgl/src/widgets/lv_bar.c ****         bar->indic_area.x2 = bar->indic_area.x1 + LV_BAR_SIZE_MIN;
 1249              		.loc 2 284 58 view .LVU465
 1250 042e 9A1E     		subs	r2, r3, #2
 284:Middlewares/LVGL/GUI/lvgl/src/widgets/lv_bar.c ****         bar->indic_area.x2 = bar->indic_area.x1 + LV_BAR_SIZE_MIN;
 1251              		.loc 2 284 28 view .LVU466
 1252 0430 E263     		str	r2, [r4, #60]
 285:Middlewares/LVGL/GUI/lvgl/src/widgets/lv_bar.c ****     }
 1253              		.loc 2 285 9 is_stmt 1 view .LVU467
 285:Middlewares/LVGL/GUI/lvgl/src/widgets/lv_bar.c ****     }
 1254              		.loc 2 285 49 is_stmt 0 view .LVU468
 1255 0432 0233     		adds	r3, r3, #2
 285:Middlewares/LVGL/GUI/lvgl/src/widgets/lv_bar.c ****     }
 1256              		.loc 2 285 28 view .LVU469
 1257 0434 6364     		str	r3, [r4, #68]
 1258 0436 64E6     		b	.L7
 1259              	.LVL122:
 1260              	.L38:
 292:Middlewares/LVGL/GUI/lvgl/src/widgets/lv_bar.c **** 
 1261              		.loc 2 292 43 view .LVU470
ARM GAS  C:\Users\ADMINI~1\AppData\Local\Temp\cc93wSbm.s 			page 53


 1262 0438 DDF82490 		ldr	r9, [sp, #36]
 1263              	.LVL123:
 292:Middlewares/LVGL/GUI/lvgl/src/widgets/lv_bar.c **** 
 1264              		.loc 2 292 43 view .LVU471
 1265 043c 6FE6     		b	.L8
 1266              	.LVL124:
 1267              	.L9:
 305:Middlewares/LVGL/GUI/lvgl/src/widgets/lv_bar.c ****         axis2 = &bar->indic_area.y2;
 1268              		.loc 2 305 9 is_stmt 1 view .LVU472
 305:Middlewares/LVGL/GUI/lvgl/src/widgets/lv_bar.c ****         axis2 = &bar->indic_area.y2;
 1269              		.loc 2 305 15 is_stmt 0 view .LVU473
 1270 043e 04F1400B 		add	fp, r4, #64
 1271              	.LVL125:
 306:Middlewares/LVGL/GUI/lvgl/src/widgets/lv_bar.c ****         indic_length_calc = lv_area_get_height;
 1272              		.loc 2 306 9 is_stmt 1 view .LVU474
 306:Middlewares/LVGL/GUI/lvgl/src/widgets/lv_bar.c ****         indic_length_calc = lv_area_get_height;
 1273              		.loc 2 306 15 is_stmt 0 view .LVU475
 1274 0442 04F1480A 		add	r10, r4, #72
 1275              	.LVL126:
 307:Middlewares/LVGL/GUI/lvgl/src/widgets/lv_bar.c ****     }
 1276              		.loc 2 307 9 is_stmt 1 view .LVU476
 307:Middlewares/LVGL/GUI/lvgl/src/widgets/lv_bar.c ****     }
 1277              		.loc 2 307 27 is_stmt 0 view .LVU477
 1278 0446 3C4B     		ldr	r3, .L48
 1279              	.LVL127:
 307:Middlewares/LVGL/GUI/lvgl/src/widgets/lv_bar.c ****     }
 1280              		.loc 2 307 27 view .LVU478
 1281 0448 0D93     		str	r3, [sp, #52]
 1282 044a 71E6     		b	.L10
 1283              	.LVL128:
 1284              	.L41:
 1285              	.LBB117:
 316:Middlewares/LVGL/GUI/lvgl/src/widgets/lv_bar.c ****                               LV_BAR_ANIM_STATE_END);
 1286              		.loc 2 316 28 view .LVU479
 1287 044c FF33     		adds	r3, r3, #255
 1288 044e 88E6     		b	.L12
 1289              	.LVL129:
 1290              	.L11:
 316:Middlewares/LVGL/GUI/lvgl/src/widgets/lv_bar.c ****                               LV_BAR_ANIM_STATE_END);
 1291              		.loc 2 316 28 view .LVU480
 1292              	.LBE117:
 322:Middlewares/LVGL/GUI/lvgl/src/widgets/lv_bar.c ****     }
 1293              		.loc 2 322 9 is_stmt 1 view .LVU481
 322:Middlewares/LVGL/GUI/lvgl/src/widgets/lv_bar.c ****     }
 1294              		.loc 2 322 67 is_stmt 0 view .LVU482
 1295 0450 A76B     		ldr	r7, [r4, #56]
 1296              	.LVL130:
 322:Middlewares/LVGL/GUI/lvgl/src/widgets/lv_bar.c ****     }
 1297              		.loc 2 322 86 view .LVU483
 1298 0452 236B     		ldr	r3, [r4, #48]
 322:Middlewares/LVGL/GUI/lvgl/src/widgets/lv_bar.c ****     }
 1299              		.loc 2 322 81 view .LVU484
 1300 0454 FF1A     		subs	r7, r7, r3
 322:Middlewares/LVGL/GUI/lvgl/src/widgets/lv_bar.c ****     }
 1301              		.loc 2 322 30 view .LVU485
 1302 0456 09FB07F7 		mul	r7, r9, r7
 322:Middlewares/LVGL/GUI/lvgl/src/widgets/lv_bar.c ****     }
ARM GAS  C:\Users\ADMINI~1\AppData\Local\Temp\cc93wSbm.s 			page 54


 1303              		.loc 2 322 28 view .LVU486
 1304 045a 029B     		ldr	r3, [sp, #8]
 1305 045c 97FBF3F7 		sdiv	r7, r7, r3
 1306              	.LVL131:
 322:Middlewares/LVGL/GUI/lvgl/src/widgets/lv_bar.c ****     }
 1307              		.loc 2 322 28 view .LVU487
 1308 0460 81E6     		b	.L13
 1309              	.LVL132:
 1310              	.L42:
 1311              	.LBB118:
 332:Middlewares/LVGL/GUI/lvgl/src/widgets/lv_bar.c ****                                                      LV_BAR_ANIM_STATE_END);
 1312              		.loc 2 332 87 view .LVU488
 1313 0462 FF33     		adds	r3, r3, #255
 1314 0464 9AE6     		b	.L15
 1315              	.LVL133:
 1316              	.L14:
 332:Middlewares/LVGL/GUI/lvgl/src/widgets/lv_bar.c ****                                                      LV_BAR_ANIM_STATE_END);
 1317              		.loc 2 332 87 view .LVU489
 1318              	.LBE118:
 336:Middlewares/LVGL/GUI/lvgl/src/widgets/lv_bar.c ****     }
 1319              		.loc 2 336 9 is_stmt 1 view .LVU490
 336:Middlewares/LVGL/GUI/lvgl/src/widgets/lv_bar.c ****     }
 1320              		.loc 2 336 65 is_stmt 0 view .LVU491
 1321 0466 E36A     		ldr	r3, [r4, #44]
 336:Middlewares/LVGL/GUI/lvgl/src/widgets/lv_bar.c ****     }
 1322              		.loc 2 336 82 view .LVU492
 1323 0468 226B     		ldr	r2, [r4, #48]
 336:Middlewares/LVGL/GUI/lvgl/src/widgets/lv_bar.c ****     }
 1324              		.loc 2 336 77 view .LVU493
 1325 046a A3EB0208 		sub	r8, r3, r2
 1326              	.LVL134:
 336:Middlewares/LVGL/GUI/lvgl/src/widgets/lv_bar.c ****     }
 1327              		.loc 2 336 28 view .LVU494
 1328 046e 09FB08F8 		mul	r8, r9, r8
 336:Middlewares/LVGL/GUI/lvgl/src/widgets/lv_bar.c ****     }
 1329              		.loc 2 336 26 view .LVU495
 1330 0472 029B     		ldr	r3, [sp, #8]
 1331 0474 98FBF3F8 		sdiv	r8, r8, r3
 1332              	.LVL135:
 336:Middlewares/LVGL/GUI/lvgl/src/widgets/lv_bar.c ****     }
 1333              		.loc 2 336 26 view .LVU496
 1334 0478 92E6     		b	.L16
 1335              	.LVL136:
 1336              	.L43:
 1337              	.LBB119:
 342:Middlewares/LVGL/GUI/lvgl/src/widgets/lv_bar.c ****         tmp = axis1;
 1338              		.loc 2 342 9 is_stmt 1 view .LVU497
 343:Middlewares/LVGL/GUI/lvgl/src/widgets/lv_bar.c ****         axis1 = axis2;
 1339              		.loc 2 343 9 view .LVU498
 344:Middlewares/LVGL/GUI/lvgl/src/widgets/lv_bar.c ****         axis2 = tmp;
 1340              		.loc 2 344 9 view .LVU499
 345:Middlewares/LVGL/GUI/lvgl/src/widgets/lv_bar.c ****         anim_cur_value_x = -anim_cur_value_x;
 1341              		.loc 2 345 9 view .LVU500
 346:Middlewares/LVGL/GUI/lvgl/src/widgets/lv_bar.c ****         anim_start_value_x = -anim_start_value_x;
 1342              		.loc 2 346 9 view .LVU501
 346:Middlewares/LVGL/GUI/lvgl/src/widgets/lv_bar.c ****         anim_start_value_x = -anim_start_value_x;
 1343              		.loc 2 346 26 is_stmt 0 view .LVU502
ARM GAS  C:\Users\ADMINI~1\AppData\Local\Temp\cc93wSbm.s 			page 55


 1344 047a C8F10008 		rsb	r8, r8, #0
 1345              	.LVL137:
 347:Middlewares/LVGL/GUI/lvgl/src/widgets/lv_bar.c ****     }
 1346              		.loc 2 347 9 is_stmt 1 view .LVU503
 347:Middlewares/LVGL/GUI/lvgl/src/widgets/lv_bar.c ****     }
 1347              		.loc 2 347 28 is_stmt 0 view .LVU504
 1348 047e 7F42     		rsbs	r7, r7, #0
 1349              	.LVL138:
 347:Middlewares/LVGL/GUI/lvgl/src/widgets/lv_bar.c ****     }
 1350              		.loc 2 347 28 view .LVU505
 1351 0480 5B46     		mov	r3, fp
 344:Middlewares/LVGL/GUI/lvgl/src/widgets/lv_bar.c ****         axis2 = tmp;
 1352              		.loc 2 344 15 view .LVU506
 1353 0482 D346     		mov	fp, r10
 1354              	.LVL139:
 345:Middlewares/LVGL/GUI/lvgl/src/widgets/lv_bar.c ****         anim_cur_value_x = -anim_cur_value_x;
 1355              		.loc 2 345 15 view .LVU507
 1356 0484 9A46     		mov	r10, r3
 1357              	.LVL140:
 345:Middlewares/LVGL/GUI/lvgl/src/widgets/lv_bar.c ****         anim_cur_value_x = -anim_cur_value_x;
 1358              		.loc 2 345 15 view .LVU508
 1359 0486 97E6     		b	.L17
 1360              	.LVL141:
 1361              	.L18:
 345:Middlewares/LVGL/GUI/lvgl/src/widgets/lv_bar.c ****         anim_cur_value_x = -anim_cur_value_x;
 1362              		.loc 2 345 15 view .LVU509
 1363              	.LBE119:
 356:Middlewares/LVGL/GUI/lvgl/src/widgets/lv_bar.c ****         *axis2 -= anim_start_value_x;
 1364              		.loc 2 356 9 is_stmt 1 view .LVU510
 356:Middlewares/LVGL/GUI/lvgl/src/widgets/lv_bar.c ****         *axis2 -= anim_start_value_x;
 1365              		.loc 2 356 18 is_stmt 0 view .LVU511
 1366 0488 DAF80030 		ldr	r3, [r10]
 356:Middlewares/LVGL/GUI/lvgl/src/widgets/lv_bar.c ****         *axis2 -= anim_start_value_x;
 1367              		.loc 2 356 25 view .LVU512
 1368 048c A3EB0803 		sub	r3, r3, r8
 356:Middlewares/LVGL/GUI/lvgl/src/widgets/lv_bar.c ****         *axis2 -= anim_start_value_x;
 1369              		.loc 2 356 44 view .LVU513
 1370 0490 0133     		adds	r3, r3, #1
 356:Middlewares/LVGL/GUI/lvgl/src/widgets/lv_bar.c ****         *axis2 -= anim_start_value_x;
 1371              		.loc 2 356 16 view .LVU514
 1372 0492 CBF80030 		str	r3, [fp]
 357:Middlewares/LVGL/GUI/lvgl/src/widgets/lv_bar.c ****     }
 1373              		.loc 2 357 9 is_stmt 1 view .LVU515
 357:Middlewares/LVGL/GUI/lvgl/src/widgets/lv_bar.c ****     }
 1374              		.loc 2 357 16 is_stmt 0 view .LVU516
 1375 0496 DAF80030 		ldr	r3, [r10]
 1376 049a DB1B     		subs	r3, r3, r7
 1377 049c CAF80030 		str	r3, [r10]
 1378 04a0 97E6     		b	.L19
 1379              	.LVL142:
 1380              	.L22:
 1381              	.LBB120:
 367:Middlewares/LVGL/GUI/lvgl/src/widgets/lv_bar.c ****                 *axis2 = zero;
 1382              		.loc 2 367 17 is_stmt 1 view .LVU517
 367:Middlewares/LVGL/GUI/lvgl/src/widgets/lv_bar.c ****                 *axis2 = zero;
 1383              		.loc 2 367 24 is_stmt 0 view .LVU518
 1384 04a2 CBF80020 		str	r2, [fp]
ARM GAS  C:\Users\ADMINI~1\AppData\Local\Temp\cc93wSbm.s 			page 56


 368:Middlewares/LVGL/GUI/lvgl/src/widgets/lv_bar.c ****             }
 1385              		.loc 2 368 17 is_stmt 1 view .LVU519
 368:Middlewares/LVGL/GUI/lvgl/src/widgets/lv_bar.c ****             }
 1386              		.loc 2 368 24 is_stmt 0 view .LVU520
 1387 04a6 CAF80030 		str	r3, [r10]
 1388 04aa A8E6     		b	.L20
 1389              	.LVL143:
 1390              	.L21:
 372:Middlewares/LVGL/GUI/lvgl/src/widgets/lv_bar.c ****             if(*axis1 > zero)
 1391              		.loc 2 372 13 is_stmt 1 view .LVU521
 372:Middlewares/LVGL/GUI/lvgl/src/widgets/lv_bar.c ****             if(*axis1 > zero)
 1392              		.loc 2 372 20 is_stmt 0 view .LVU522
 1393 04ac DAF80030 		ldr	r3, [r10]
 372:Middlewares/LVGL/GUI/lvgl/src/widgets/lv_bar.c ****             if(*axis1 > zero)
 1394              		.loc 2 372 27 view .LVU523
 1395 04b0 A3EB0903 		sub	r3, r3, r9
 372:Middlewares/LVGL/GUI/lvgl/src/widgets/lv_bar.c ****             if(*axis1 > zero)
 1396              		.loc 2 372 18 view .LVU524
 1397 04b4 0133     		adds	r3, r3, #1
 1398              	.LVL144:
 373:Middlewares/LVGL/GUI/lvgl/src/widgets/lv_bar.c ****                 *axis2 = zero;
 1399              		.loc 2 373 13 is_stmt 1 view .LVU525
 373:Middlewares/LVGL/GUI/lvgl/src/widgets/lv_bar.c ****                 *axis2 = zero;
 1400              		.loc 2 373 16 is_stmt 0 view .LVU526
 1401 04b6 DBF80020 		ldr	r2, [fp]
 373:Middlewares/LVGL/GUI/lvgl/src/widgets/lv_bar.c ****                 *axis2 = zero;
 1402              		.loc 2 373 15 view .LVU527
 1403 04ba 9A42     		cmp	r2, r3
 1404 04bc 0DDD     		ble	.L23
 374:Middlewares/LVGL/GUI/lvgl/src/widgets/lv_bar.c ****             else {
 1405              		.loc 2 374 17 is_stmt 1 view .LVU528
 374:Middlewares/LVGL/GUI/lvgl/src/widgets/lv_bar.c ****             else {
 1406              		.loc 2 374 24 is_stmt 0 view .LVU529
 1407 04be CAF80030 		str	r3, [r10]
 1408              	.L24:
 379:Middlewares/LVGL/GUI/lvgl/src/widgets/lv_bar.c ****                 /*swap*/
 1409              		.loc 2 379 13 is_stmt 1 view .LVU530
 379:Middlewares/LVGL/GUI/lvgl/src/widgets/lv_bar.c ****                 /*swap*/
 1410              		.loc 2 379 16 is_stmt 0 view .LVU531
 1411 04c2 DAF80020 		ldr	r2, [r10]
 379:Middlewares/LVGL/GUI/lvgl/src/widgets/lv_bar.c ****                 /*swap*/
 1412              		.loc 2 379 25 view .LVU532
 1413 04c6 DBF80030 		ldr	r3, [fp]
 1414              	.LVL145:
 379:Middlewares/LVGL/GUI/lvgl/src/widgets/lv_bar.c ****                 /*swap*/
 1415              		.loc 2 379 15 view .LVU533
 1416 04ca 9A42     		cmp	r2, r3
 1417 04cc BFF697AE 		bge	.L20
 381:Middlewares/LVGL/GUI/lvgl/src/widgets/lv_bar.c ****                 *axis1 = *axis2;
 1418              		.loc 2 381 17 is_stmt 1 view .LVU534
 1419              	.LVL146:
 382:Middlewares/LVGL/GUI/lvgl/src/widgets/lv_bar.c ****                 *axis2 = zero;
 1420              		.loc 2 382 17 view .LVU535
 382:Middlewares/LVGL/GUI/lvgl/src/widgets/lv_bar.c ****                 *axis2 = zero;
 1421              		.loc 2 382 24 is_stmt 0 view .LVU536
 1422 04d0 CBF80020 		str	r2, [fp]
 383:Middlewares/LVGL/GUI/lvgl/src/widgets/lv_bar.c ****             }
ARM GAS  C:\Users\ADMINI~1\AppData\Local\Temp\cc93wSbm.s 			page 57


 1423              		.loc 2 383 17 is_stmt 1 view .LVU537
 383:Middlewares/LVGL/GUI/lvgl/src/widgets/lv_bar.c ****             }
 1424              		.loc 2 383 24 is_stmt 0 view .LVU538
 1425 04d4 CAF80030 		str	r3, [r10]
 1426 04d8 91E6     		b	.L20
 1427              	.L23:
 376:Middlewares/LVGL/GUI/lvgl/src/widgets/lv_bar.c ****                 *axis1 = zero;
 1428              		.loc 2 376 17 is_stmt 1 view .LVU539
 376:Middlewares/LVGL/GUI/lvgl/src/widgets/lv_bar.c ****                 *axis1 = zero;
 1429              		.loc 2 376 24 is_stmt 0 view .LVU540
 1430 04da CAF80020 		str	r2, [r10]
 377:Middlewares/LVGL/GUI/lvgl/src/widgets/lv_bar.c ****             }
 1431              		.loc 2 377 17 is_stmt 1 view .LVU541
 377:Middlewares/LVGL/GUI/lvgl/src/widgets/lv_bar.c ****             }
 1432              		.loc 2 377 24 is_stmt 0 view .LVU542
 1433 04de CBF80030 		str	r3, [fp]
 1434 04e2 EEE7     		b	.L24
 1435              	.LVL147:
 1436              	.L44:
 377:Middlewares/LVGL/GUI/lvgl/src/widgets/lv_bar.c ****             }
 1437              		.loc 2 377 24 view .LVU543
 1438              	.LBE120:
 1439              	.LBB121:
 391:Middlewares/LVGL/GUI/lvgl/src/widgets/lv_bar.c ****         lv_obj_draw_dsc_init(&part_draw_dsc, draw_ctx);
 1440              		.loc 2 391 9 is_stmt 1 view .LVU544
 392:Middlewares/LVGL/GUI/lvgl/src/widgets/lv_bar.c ****         part_draw_dsc.part = LV_PART_INDICATOR;
 1441              		.loc 2 392 9 view .LVU545
 1442 04e4 0399     		ldr	r1, [sp, #12]
 1443 04e6 0EA8     		add	r0, sp, #56
 1444 04e8 FFF7FEFF 		bl	lv_obj_draw_dsc_init
 1445              	.LVL148:
 393:Middlewares/LVGL/GUI/lvgl/src/widgets/lv_bar.c ****         part_draw_dsc.class_p = MY_CLASS;
 1446              		.loc 2 393 9 view .LVU546
 393:Middlewares/LVGL/GUI/lvgl/src/widgets/lv_bar.c ****         part_draw_dsc.class_p = MY_CLASS;
 1447              		.loc 2 393 28 is_stmt 0 view .LVU547
 1448 04ec 4FF40033 		mov	r3, #131072
 1449 04f0 1B93     		str	r3, [sp, #108]
 394:Middlewares/LVGL/GUI/lvgl/src/widgets/lv_bar.c ****         part_draw_dsc.type = LV_BAR_DRAW_PART_INDICATOR;
 1450              		.loc 2 394 9 is_stmt 1 view .LVU548
 394:Middlewares/LVGL/GUI/lvgl/src/widgets/lv_bar.c ****         part_draw_dsc.type = LV_BAR_DRAW_PART_INDICATOR;
 1451              		.loc 2 394 31 is_stmt 0 view .LVU549
 1452 04f2 124B     		ldr	r3, .L48+4
 1453 04f4 0F93     		str	r3, [sp, #60]
 395:Middlewares/LVGL/GUI/lvgl/src/widgets/lv_bar.c ****         part_draw_dsc.draw_area = &bar->indic_area;
 1454              		.loc 2 395 9 is_stmt 1 view .LVU550
 395:Middlewares/LVGL/GUI/lvgl/src/widgets/lv_bar.c ****         part_draw_dsc.draw_area = &bar->indic_area;
 1455              		.loc 2 395 28 is_stmt 0 view .LVU551
 1456 04f6 0023     		movs	r3, #0
 1457 04f8 1093     		str	r3, [sp, #64]
 396:Middlewares/LVGL/GUI/lvgl/src/widgets/lv_bar.c **** 
 1458              		.loc 2 396 9 is_stmt 1 view .LVU552
 396:Middlewares/LVGL/GUI/lvgl/src/widgets/lv_bar.c **** 
 1459              		.loc 2 396 33 is_stmt 0 view .LVU553
 1460 04fa 019B     		ldr	r3, [sp, #4]
 1461 04fc 1193     		str	r3, [sp, #68]
 398:Middlewares/LVGL/GUI/lvgl/src/widgets/lv_bar.c ****         lv_event_send(obj, LV_EVENT_DRAW_PART_END, &part_draw_dsc);
 1462              		.loc 2 398 9 is_stmt 1 view .LVU554
ARM GAS  C:\Users\ADMINI~1\AppData\Local\Temp\cc93wSbm.s 			page 58


 1463 04fe 0EAA     		add	r2, sp, #56
 1464 0500 1A21     		movs	r1, #26
 1465 0502 2046     		mov	r0, r4
 1466 0504 FFF7FEFF 		bl	lv_event_send
 1467              	.LVL149:
 399:Middlewares/LVGL/GUI/lvgl/src/widgets/lv_bar.c ****         return;
 1468              		.loc 2 399 9 view .LVU555
 1469 0508 0EAA     		add	r2, sp, #56
 1470 050a 1B21     		movs	r1, #27
 1471 050c 2046     		mov	r0, r4
 1472 050e FFF7FEFF 		bl	lv_event_send
 1473              	.LVL150:
 400:Middlewares/LVGL/GUI/lvgl/src/widgets/lv_bar.c ****     }
 1474              		.loc 2 400 9 view .LVU556
 1475 0512 65E7     		b	.L4
 1476              	.LVL151:
 1477              	.L32:
 400:Middlewares/LVGL/GUI/lvgl/src/widgets/lv_bar.c ****     }
 1478              		.loc 2 400 9 is_stmt 0 view .LVU557
 1479              	.LBE121:
 476:Middlewares/LVGL/GUI/lvgl/src/widgets/lv_bar.c ****         mask_indic_max_area.x1 = obj->coords.x1 + (barw / 2) - (LV_BAR_SIZE_MIN / 2);
 1480              		.loc 2 476 10 is_stmt 1 view .LVU558
 476:Middlewares/LVGL/GUI/lvgl/src/widgets/lv_bar.c ****         mask_indic_max_area.x1 = obj->coords.x1 + (barw / 2) - (LV_BAR_SIZE_MIN / 2);
 1481              		.loc 2 476 12 is_stmt 0 view .LVU559
 1482 0514 AE42     		cmp	r6, r5
 1483 0516 BFF62FAF 		bge	.L33
 1484              	.LVL152:
 1485              	.LBB122:
 1486              	.LBI122:
 123:Middlewares/LVGL/GUI/lvgl/src/widgets/../core/../misc/../font/../misc/lv_area.h **** {
 1487              		.loc 1 123 26 is_stmt 1 view .LVU560
 1488              	.LBB123:
 125:Middlewares/LVGL/GUI/lvgl/src/widgets/../core/../misc/../font/../misc/lv_area.h **** }
 1489              		.loc 1 125 5 view .LVU561
 125:Middlewares/LVGL/GUI/lvgl/src/widgets/../core/../misc/../font/../misc/lv_area.h **** }
 1490              		.loc 1 125 36 is_stmt 0 view .LVU562
 1491 051a 521A     		subs	r2, r2, r1
 1492              	.LVL153:
 125:Middlewares/LVGL/GUI/lvgl/src/widgets/../core/../misc/../font/../misc/lv_area.h **** }
 1493              		.loc 1 125 36 view .LVU563
 1494              	.LBE123:
 1495              	.LBE122:
 476:Middlewares/LVGL/GUI/lvgl/src/widgets/lv_bar.c ****         mask_indic_max_area.x1 = obj->coords.x1 + (barw / 2) - (LV_BAR_SIZE_MIN / 2);
 1496              		.loc 2 476 18 view .LVU564
 1497 051c 022A     		cmp	r2, #2
 1498 051e 3FF72BAF 		bgt	.L33
 477:Middlewares/LVGL/GUI/lvgl/src/widgets/lv_bar.c ****         mask_indic_max_area.x2 = mask_indic_max_area.x1 + LV_BAR_SIZE_MIN;
 1499              		.loc 2 477 9 is_stmt 1 view .LVU565
 477:Middlewares/LVGL/GUI/lvgl/src/widgets/lv_bar.c ****         mask_indic_max_area.x2 = mask_indic_max_area.x1 + LV_BAR_SIZE_MIN;
 1500              		.loc 2 477 45 is_stmt 0 view .LVU566
 1501 0522 6269     		ldr	r2, [r4, #20]
 477:Middlewares/LVGL/GUI/lvgl/src/widgets/lv_bar.c ****         mask_indic_max_area.x2 = mask_indic_max_area.x1 + LV_BAR_SIZE_MIN;
 1502              		.loc 2 477 57 view .LVU567
 1503 0524 0B9B     		ldr	r3, [sp, #44]
 1504 0526 03EBD373 		add	r3, r3, r3, lsr #31
 477:Middlewares/LVGL/GUI/lvgl/src/widgets/lv_bar.c ****         mask_indic_max_area.x2 = mask_indic_max_area.x1 + LV_BAR_SIZE_MIN;
 1505              		.loc 2 477 49 view .LVU568
ARM GAS  C:\Users\ADMINI~1\AppData\Local\Temp\cc93wSbm.s 			page 59


 1506 052a 02EB6303 		add	r3, r2, r3, asr #1
 477:Middlewares/LVGL/GUI/lvgl/src/widgets/lv_bar.c ****         mask_indic_max_area.x2 = mask_indic_max_area.x1 + LV_BAR_SIZE_MIN;
 1507              		.loc 2 477 62 view .LVU569
 1508 052e 9A1E     		subs	r2, r3, #2
 477:Middlewares/LVGL/GUI/lvgl/src/widgets/lv_bar.c ****         mask_indic_max_area.x2 = mask_indic_max_area.x1 + LV_BAR_SIZE_MIN;
 1509              		.loc 2 477 32 view .LVU570
 1510 0530 2992     		str	r2, [sp, #164]
 478:Middlewares/LVGL/GUI/lvgl/src/widgets/lv_bar.c ****     }
 1511              		.loc 2 478 9 is_stmt 1 view .LVU571
 478:Middlewares/LVGL/GUI/lvgl/src/widgets/lv_bar.c ****     }
 1512              		.loc 2 478 57 is_stmt 0 view .LVU572
 1513 0532 0233     		adds	r3, r3, #2
 478:Middlewares/LVGL/GUI/lvgl/src/widgets/lv_bar.c ****     }
 1514              		.loc 2 478 32 view .LVU573
 1515 0534 2B93     		str	r3, [sp, #172]
 1516 0536 1FE7     		b	.L33
 1517              	.L49:
 1518              		.align	2
 1519              	.L48:
 1520 0538 00000000 		.word	lv_area_get_height
 1521 053c 00000000 		.word	.LANCHOR0
 1522              		.cfi_endproc
 1523              	.LFE165:
 1525              		.section	.text.lv_bar_event,"ax",%progbits
 1526              		.align	1
 1527              		.syntax unified
 1528              		.thumb
 1529              		.thumb_func
 1531              	lv_bar_event:
 1532              	.LVL154:
 1533              	.LFB166:
 509:Middlewares/LVGL/GUI/lvgl/src/widgets/lv_bar.c ****     LV_UNUSED(class_p);
 1534              		.loc 2 509 1 is_stmt 1 view -0
 1535              		.cfi_startproc
 1536              		@ args = 0, pretend = 0, frame = 0
 1537              		@ frame_needed = 0, uses_anonymous_args = 0
 509:Middlewares/LVGL/GUI/lvgl/src/widgets/lv_bar.c ****     LV_UNUSED(class_p);
 1538              		.loc 2 509 1 is_stmt 0 view .LVU575
 1539 0000 2DE9F041 		push	{r4, r5, r6, r7, r8, lr}
 1540              	.LCFI4:
 1541              		.cfi_def_cfa_offset 24
 1542              		.cfi_offset 4, -24
 1543              		.cfi_offset 5, -20
 1544              		.cfi_offset 6, -16
 1545              		.cfi_offset 7, -12
 1546              		.cfi_offset 8, -8
 1547              		.cfi_offset 14, -4
 1548 0004 0C46     		mov	r4, r1
 510:Middlewares/LVGL/GUI/lvgl/src/widgets/lv_bar.c **** 
 1549              		.loc 2 510 5 is_stmt 1 view .LVU576
 512:Middlewares/LVGL/GUI/lvgl/src/widgets/lv_bar.c **** 
 1550              		.loc 2 512 5 view .LVU577
 515:Middlewares/LVGL/GUI/lvgl/src/widgets/lv_bar.c ****     if(res != LV_RES_OK) return;
 1551              		.loc 2 515 5 view .LVU578
 515:Middlewares/LVGL/GUI/lvgl/src/widgets/lv_bar.c ****     if(res != LV_RES_OK) return;
 1552              		.loc 2 515 11 is_stmt 0 view .LVU579
 1553 0006 2E48     		ldr	r0, .L58
ARM GAS  C:\Users\ADMINI~1\AppData\Local\Temp\cc93wSbm.s 			page 60


 1554              	.LVL155:
 515:Middlewares/LVGL/GUI/lvgl/src/widgets/lv_bar.c ****     if(res != LV_RES_OK) return;
 1555              		.loc 2 515 11 view .LVU580
 1556 0008 FFF7FEFF 		bl	lv_obj_event_base
 1557              	.LVL156:
 516:Middlewares/LVGL/GUI/lvgl/src/widgets/lv_bar.c **** 
 1558              		.loc 2 516 5 is_stmt 1 view .LVU581
 516:Middlewares/LVGL/GUI/lvgl/src/widgets/lv_bar.c **** 
 1559              		.loc 2 516 7 is_stmt 0 view .LVU582
 1560 000c 0128     		cmp	r0, #1
 1561 000e 01D0     		beq	.L56
 1562              	.LVL157:
 1563              	.L50:
 547:Middlewares/LVGL/GUI/lvgl/src/widgets/lv_bar.c **** 
 1564              		.loc 2 547 1 view .LVU583
 1565 0010 BDE8F081 		pop	{r4, r5, r6, r7, r8, pc}
 1566              	.LVL158:
 1567              	.L56:
 518:Middlewares/LVGL/GUI/lvgl/src/widgets/lv_bar.c ****     lv_obj_t * obj = lv_event_get_target(e);
 1568              		.loc 2 518 5 is_stmt 1 view .LVU584
 518:Middlewares/LVGL/GUI/lvgl/src/widgets/lv_bar.c ****     lv_obj_t * obj = lv_event_get_target(e);
