ARM GAS  C:\Users\ADMINI~1\AppData\Local\Temp\ccbAf2nk.s 			page 1


   1              		.cpu cortex-m4
   2              		.arch armv7e-m
   3              		.fpu fpv4-sp-d16
   4              		.eabi_attribute 27, 1
   5              		.eabi_attribute 28, 1
   6              		.eabi_attribute 20, 1
   7              		.eabi_attribute 21, 1
   8              		.eabi_attribute 23, 3
   9              		.eabi_attribute 24, 1
  10              		.eabi_attribute 25, 1
  11              		.eabi_attribute 26, 1
  12              		.eabi_attribute 30, 1
  13              		.eabi_attribute 34, 1
  14              		.eabi_attribute 18, 4
  15              		.file	"lv_calendar_header_arrow.c"
  16              		.text
  17              	.Ltext0:
  18              		.cfi_sections	.debug_frame
  19              		.section	.rodata.my_constructor.str1.4,"aMS",%progbits,1
  20              		.align	2
  21              	.LC0:
  22 0000 EF819300 		.ascii	"\357\201\223\000"
  23              		.align	2
  24              	.LC1:
  25 0004 EF819400 		.ascii	"\357\201\224\000"
  26              		.section	.text.my_constructor,"ax",%progbits
  27              		.align	1
  28              		.syntax unified
  29              		.thumb
  30              		.thumb_func
  32              	my_constructor:
  33              	.LVL0:
  34              	.LFB159:
  35              		.file 1 "Middlewares/LVGL/GUI/lvgl/src/extra/widgets/calendar/lv_calendar_header_arrow.c"
   1:Middlewares/LVGL/GUI/lvgl/src/extra/widgets/calendar/lv_calendar_header_arrow.c **** /**
   2:Middlewares/LVGL/GUI/lvgl/src/extra/widgets/calendar/lv_calendar_header_arrow.c ****  * @file lv_calendar_header_arrow.c
   3:Middlewares/LVGL/GUI/lvgl/src/extra/widgets/calendar/lv_calendar_header_arrow.c ****  *
   4:Middlewares/LVGL/GUI/lvgl/src/extra/widgets/calendar/lv_calendar_header_arrow.c ****  */
   5:Middlewares/LVGL/GUI/lvgl/src/extra/widgets/calendar/lv_calendar_header_arrow.c **** 
   6:Middlewares/LVGL/GUI/lvgl/src/extra/widgets/calendar/lv_calendar_header_arrow.c **** /*********************
   7:Middlewares/LVGL/GUI/lvgl/src/extra/widgets/calendar/lv_calendar_header_arrow.c ****  *      INCLUDES
   8:Middlewares/LVGL/GUI/lvgl/src/extra/widgets/calendar/lv_calendar_header_arrow.c ****  *********************/
   9:Middlewares/LVGL/GUI/lvgl/src/extra/widgets/calendar/lv_calendar_header_arrow.c **** #include "lv_calendar_header_arrow.h"
  10:Middlewares/LVGL/GUI/lvgl/src/extra/widgets/calendar/lv_calendar_header_arrow.c **** #if LV_USE_CALENDAR_HEADER_ARROW
  11:Middlewares/LVGL/GUI/lvgl/src/extra/widgets/calendar/lv_calendar_header_arrow.c **** 
  12:Middlewares/LVGL/GUI/lvgl/src/extra/widgets/calendar/lv_calendar_header_arrow.c **** #include "lv_calendar.h"
  13:Middlewares/LVGL/GUI/lvgl/src/extra/widgets/calendar/lv_calendar_header_arrow.c **** #include "../../../widgets/lv_btn.h"
  14:Middlewares/LVGL/GUI/lvgl/src/extra/widgets/calendar/lv_calendar_header_arrow.c **** #include "../../../widgets/lv_label.h"
  15:Middlewares/LVGL/GUI/lvgl/src/extra/widgets/calendar/lv_calendar_header_arrow.c **** #include "../../layouts/flex/lv_flex.h"
  16:Middlewares/LVGL/GUI/lvgl/src/extra/widgets/calendar/lv_calendar_header_arrow.c **** 
  17:Middlewares/LVGL/GUI/lvgl/src/extra/widgets/calendar/lv_calendar_header_arrow.c **** /*********************
  18:Middlewares/LVGL/GUI/lvgl/src/extra/widgets/calendar/lv_calendar_header_arrow.c ****  *      DEFINES
  19:Middlewares/LVGL/GUI/lvgl/src/extra/widgets/calendar/lv_calendar_header_arrow.c ****  *********************/
  20:Middlewares/LVGL/GUI/lvgl/src/extra/widgets/calendar/lv_calendar_header_arrow.c **** 
  21:Middlewares/LVGL/GUI/lvgl/src/extra/widgets/calendar/lv_calendar_header_arrow.c **** /**********************
  22:Middlewares/LVGL/GUI/lvgl/src/extra/widgets/calendar/lv_calendar_header_arrow.c ****  *      TYPEDEFS
  23:Middlewares/LVGL/GUI/lvgl/src/extra/widgets/calendar/lv_calendar_header_arrow.c ****  **********************/
ARM GAS  C:\Users\ADMINI~1\AppData\Local\Temp\ccbAf2nk.s 			page 2


  24:Middlewares/LVGL/GUI/lvgl/src/extra/widgets/calendar/lv_calendar_header_arrow.c **** 
  25:Middlewares/LVGL/GUI/lvgl/src/extra/widgets/calendar/lv_calendar_header_arrow.c **** /**********************
  26:Middlewares/LVGL/GUI/lvgl/src/extra/widgets/calendar/lv_calendar_header_arrow.c ****  *  STATIC PROTOTYPES
  27:Middlewares/LVGL/GUI/lvgl/src/extra/widgets/calendar/lv_calendar_header_arrow.c ****  **********************/
  28:Middlewares/LVGL/GUI/lvgl/src/extra/widgets/calendar/lv_calendar_header_arrow.c **** static void my_constructor(const lv_obj_class_t * class_p, lv_obj_t * obj);
  29:Middlewares/LVGL/GUI/lvgl/src/extra/widgets/calendar/lv_calendar_header_arrow.c **** static void month_event_cb(lv_event_t * e);
  30:Middlewares/LVGL/GUI/lvgl/src/extra/widgets/calendar/lv_calendar_header_arrow.c **** static void value_changed_event_cb(lv_event_t * e);
  31:Middlewares/LVGL/GUI/lvgl/src/extra/widgets/calendar/lv_calendar_header_arrow.c **** 
  32:Middlewares/LVGL/GUI/lvgl/src/extra/widgets/calendar/lv_calendar_header_arrow.c **** /**********************
  33:Middlewares/LVGL/GUI/lvgl/src/extra/widgets/calendar/lv_calendar_header_arrow.c ****  *  STATIC VARIABLES
  34:Middlewares/LVGL/GUI/lvgl/src/extra/widgets/calendar/lv_calendar_header_arrow.c ****  **********************/
  35:Middlewares/LVGL/GUI/lvgl/src/extra/widgets/calendar/lv_calendar_header_arrow.c **** const lv_obj_class_t lv_calendar_header_arrow_class = {
  36:Middlewares/LVGL/GUI/lvgl/src/extra/widgets/calendar/lv_calendar_header_arrow.c ****     .base_class = &lv_obj_class,
  37:Middlewares/LVGL/GUI/lvgl/src/extra/widgets/calendar/lv_calendar_header_arrow.c ****     .constructor_cb = my_constructor,
  38:Middlewares/LVGL/GUI/lvgl/src/extra/widgets/calendar/lv_calendar_header_arrow.c ****     .width_def = LV_PCT(100),
  39:Middlewares/LVGL/GUI/lvgl/src/extra/widgets/calendar/lv_calendar_header_arrow.c ****     .height_def = LV_DPI_DEF / 3
  40:Middlewares/LVGL/GUI/lvgl/src/extra/widgets/calendar/lv_calendar_header_arrow.c **** };
  41:Middlewares/LVGL/GUI/lvgl/src/extra/widgets/calendar/lv_calendar_header_arrow.c **** 
  42:Middlewares/LVGL/GUI/lvgl/src/extra/widgets/calendar/lv_calendar_header_arrow.c **** static const char * month_names_def[12] = LV_CALENDAR_DEFAULT_MONTH_NAMES;
  43:Middlewares/LVGL/GUI/lvgl/src/extra/widgets/calendar/lv_calendar_header_arrow.c **** 
  44:Middlewares/LVGL/GUI/lvgl/src/extra/widgets/calendar/lv_calendar_header_arrow.c **** /**********************
  45:Middlewares/LVGL/GUI/lvgl/src/extra/widgets/calendar/lv_calendar_header_arrow.c ****  *      MACROS
  46:Middlewares/LVGL/GUI/lvgl/src/extra/widgets/calendar/lv_calendar_header_arrow.c ****  **********************/
  47:Middlewares/LVGL/GUI/lvgl/src/extra/widgets/calendar/lv_calendar_header_arrow.c **** 
  48:Middlewares/LVGL/GUI/lvgl/src/extra/widgets/calendar/lv_calendar_header_arrow.c **** /**********************
  49:Middlewares/LVGL/GUI/lvgl/src/extra/widgets/calendar/lv_calendar_header_arrow.c ****  *   GLOBAL FUNCTIONS
  50:Middlewares/LVGL/GUI/lvgl/src/extra/widgets/calendar/lv_calendar_header_arrow.c ****  **********************/
  51:Middlewares/LVGL/GUI/lvgl/src/extra/widgets/calendar/lv_calendar_header_arrow.c **** 
  52:Middlewares/LVGL/GUI/lvgl/src/extra/widgets/calendar/lv_calendar_header_arrow.c **** lv_obj_t * lv_calendar_header_arrow_create(lv_obj_t * parent)
  53:Middlewares/LVGL/GUI/lvgl/src/extra/widgets/calendar/lv_calendar_header_arrow.c **** {
  54:Middlewares/LVGL/GUI/lvgl/src/extra/widgets/calendar/lv_calendar_header_arrow.c ****     lv_obj_t * obj = lv_obj_class_create_obj(&lv_calendar_header_arrow_class, parent);
  55:Middlewares/LVGL/GUI/lvgl/src/extra/widgets/calendar/lv_calendar_header_arrow.c ****     lv_obj_class_init_obj(obj);
  56:Middlewares/LVGL/GUI/lvgl/src/extra/widgets/calendar/lv_calendar_header_arrow.c ****     return obj;
  57:Middlewares/LVGL/GUI/lvgl/src/extra/widgets/calendar/lv_calendar_header_arrow.c **** }
  58:Middlewares/LVGL/GUI/lvgl/src/extra/widgets/calendar/lv_calendar_header_arrow.c **** 
  59:Middlewares/LVGL/GUI/lvgl/src/extra/widgets/calendar/lv_calendar_header_arrow.c **** /**********************
  60:Middlewares/LVGL/GUI/lvgl/src/extra/widgets/calendar/lv_calendar_header_arrow.c ****  *  STATIC FUNCTIONS
  61:Middlewares/LVGL/GUI/lvgl/src/extra/widgets/calendar/lv_calendar_header_arrow.c ****  **********************/
  62:Middlewares/LVGL/GUI/lvgl/src/extra/widgets/calendar/lv_calendar_header_arrow.c **** 
  63:Middlewares/LVGL/GUI/lvgl/src/extra/widgets/calendar/lv_calendar_header_arrow.c **** static void my_constructor(const lv_obj_class_t * class_p, lv_obj_t * obj)
  64:Middlewares/LVGL/GUI/lvgl/src/extra/widgets/calendar/lv_calendar_header_arrow.c **** {
  36              		.loc 1 64 1 view -0
  37              		.cfi_startproc
  38              		@ args = 0, pretend = 0, frame = 0
  39              		@ frame_needed = 0, uses_anonymous_args = 0
  40              		.loc 1 64 1 is_stmt 0 view .LVU1
  41 0000 F8B5     		push	{r3, r4, r5, r6, r7, lr}
  42              	.LCFI0:
  43              		.cfi_def_cfa_offset 24
  44              		.cfi_offset 3, -24
  45              		.cfi_offset 4, -20
  46              		.cfi_offset 5, -16
  47              		.cfi_offset 6, -12
  48              		.cfi_offset 7, -8
  49              		.cfi_offset 14, -4
  50 0002 0C46     		mov	r4, r1
  65:Middlewares/LVGL/GUI/lvgl/src/extra/widgets/calendar/lv_calendar_header_arrow.c ****     LV_TRACE_OBJ_CREATE("begin");
ARM GAS  C:\Users\ADMINI~1\AppData\Local\Temp\ccbAf2nk.s 			page 3


  51              		.loc 1 65 33 is_stmt 1 view .LVU2
  66:Middlewares/LVGL/GUI/lvgl/src/extra/widgets/calendar/lv_calendar_header_arrow.c **** 
  67:Middlewares/LVGL/GUI/lvgl/src/extra/widgets/calendar/lv_calendar_header_arrow.c ****     LV_UNUSED(class_p);
  52              		.loc 1 67 5 view .LVU3
  68:Middlewares/LVGL/GUI/lvgl/src/extra/widgets/calendar/lv_calendar_header_arrow.c **** 
  69:Middlewares/LVGL/GUI/lvgl/src/extra/widgets/calendar/lv_calendar_header_arrow.c ****     lv_obj_move_to_index(obj, 0);
  53              		.loc 1 69 5 view .LVU4
  54 0004 0021     		movs	r1, #0
  55              	.LVL1:
  56              		.loc 1 69 5 is_stmt 0 view .LVU5
  57 0006 2046     		mov	r0, r4
  58              	.LVL2:
  59              		.loc 1 69 5 view .LVU6
  60 0008 FFF7FEFF 		bl	lv_obj_move_to_index
  61              	.LVL3:
  70:Middlewares/LVGL/GUI/lvgl/src/extra/widgets/calendar/lv_calendar_header_arrow.c **** 
  71:Middlewares/LVGL/GUI/lvgl/src/extra/widgets/calendar/lv_calendar_header_arrow.c ****     lv_obj_set_flex_flow(obj, LV_FLEX_FLOW_ROW);
  62              		.loc 1 71 5 is_stmt 1 view .LVU7
  63 000c 0021     		movs	r1, #0
  64 000e 2046     		mov	r0, r4
  65 0010 FFF7FEFF 		bl	lv_obj_set_flex_flow
  66              	.LVL4:
  72:Middlewares/LVGL/GUI/lvgl/src/extra/widgets/calendar/lv_calendar_header_arrow.c ****     lv_obj_set_flex_align(obj, LV_FLEX_ALIGN_START, LV_FLEX_ALIGN_CENTER, LV_FLEX_ALIGN_START);
  67              		.loc 1 72 5 view .LVU8
  68 0014 0023     		movs	r3, #0
  69 0016 0222     		movs	r2, #2
  70 0018 1946     		mov	r1, r3
  71 001a 2046     		mov	r0, r4
  72 001c FFF7FEFF 		bl	lv_obj_set_flex_align
  73              	.LVL5:
  73:Middlewares/LVGL/GUI/lvgl/src/extra/widgets/calendar/lv_calendar_header_arrow.c **** 
  74:Middlewares/LVGL/GUI/lvgl/src/extra/widgets/calendar/lv_calendar_header_arrow.c ****     lv_obj_t * mo_prev = lv_btn_create(obj);
  74              		.loc 1 74 5 view .LVU9
  75              		.loc 1 74 26 is_stmt 0 view .LVU10
  76 0020 2046     		mov	r0, r4
  77 0022 FFF7FEFF 		bl	lv_btn_create
  78              	.LVL6:
  79 0026 0546     		mov	r5, r0
  80              	.LVL7:
  75:Middlewares/LVGL/GUI/lvgl/src/extra/widgets/calendar/lv_calendar_header_arrow.c ****     lv_obj_set_style_bg_img_src(mo_prev, LV_SYMBOL_LEFT, 0);
  81              		.loc 1 75 5 is_stmt 1 view .LVU11
  82 0028 0022     		movs	r2, #0
  83 002a 2849     		ldr	r1, .L3
  84 002c FFF7FEFF 		bl	lv_obj_set_style_bg_img_src
  85              	.LVL8:
  76:Middlewares/LVGL/GUI/lvgl/src/extra/widgets/calendar/lv_calendar_header_arrow.c ****     lv_obj_set_height(mo_prev, lv_pct(100));
  86              		.loc 1 76 5 view .LVU12
  87              		.file 2 "Middlewares/LVGL/GUI/lvgl/src/extra/widgets/calendar/../../../core/../misc/../font/../mis
   1:Middlewares/LVGL/GUI/lvgl/src/extra/widgets/calendar/../../../core/../misc/../font/../misc/lv_area.h **** /**
   2:Middlewares/LVGL/GUI/lvgl/src/extra/widgets/calendar/../../../core/../misc/../font/../misc/lv_area.h ****  * @file lv_area.h
   3:Middlewares/LVGL/GUI/lvgl/src/extra/widgets/calendar/../../../core/../misc/../font/../misc/lv_area.h ****  *
   4:Middlewares/LVGL/GUI/lvgl/src/extra/widgets/calendar/../../../core/../misc/../font/../misc/lv_area.h ****  */
   5:Middlewares/LVGL/GUI/lvgl/src/extra/widgets/calendar/../../../core/../misc/../font/../misc/lv_area.h **** 
   6:Middlewares/LVGL/GUI/lvgl/src/extra/widgets/calendar/../../../core/../misc/../font/../misc/lv_area.h **** #ifndef LV_AREA_H
   7:Middlewares/LVGL/GUI/lvgl/src/extra/widgets/calendar/../../../core/../misc/../font/../misc/lv_area.h **** #define LV_AREA_H
   8:Middlewares/LVGL/GUI/lvgl/src/extra/widgets/calendar/../../../core/../misc/../font/../misc/lv_area.h **** 
   9:Middlewares/LVGL/GUI/lvgl/src/extra/widgets/calendar/../../../core/../misc/../font/../misc/lv_area.h **** #ifdef __cplusplus
ARM GAS  C:\Users\ADMINI~1\AppData\Local\Temp\ccbAf2nk.s 			page 4


  10:Middlewares/LVGL/GUI/lvgl/src/extra/widgets/calendar/../../../core/../misc/../font/../misc/lv_area.h **** extern "C" {
  11:Middlewares/LVGL/GUI/lvgl/src/extra/widgets/calendar/../../../core/../misc/../font/../misc/lv_area.h **** #endif
  12:Middlewares/LVGL/GUI/lvgl/src/extra/widgets/calendar/../../../core/../misc/../font/../misc/lv_area.h **** 
  13:Middlewares/LVGL/GUI/lvgl/src/extra/widgets/calendar/../../../core/../misc/../font/../misc/lv_area.h **** /*********************
  14:Middlewares/LVGL/GUI/lvgl/src/extra/widgets/calendar/../../../core/../misc/../font/../misc/lv_area.h ****  *      INCLUDES
  15:Middlewares/LVGL/GUI/lvgl/src/extra/widgets/calendar/../../../core/../misc/../font/../misc/lv_area.h ****  *********************/
  16:Middlewares/LVGL/GUI/lvgl/src/extra/widgets/calendar/../../../core/../misc/../font/../misc/lv_area.h **** #include "../lv_conf_internal.h"
  17:Middlewares/LVGL/GUI/lvgl/src/extra/widgets/calendar/../../../core/../misc/../font/../misc/lv_area.h **** #include <stdbool.h>
  18:Middlewares/LVGL/GUI/lvgl/src/extra/widgets/calendar/../../../core/../misc/../font/../misc/lv_area.h **** #include <stdint.h>
  19:Middlewares/LVGL/GUI/lvgl/src/extra/widgets/calendar/../../../core/../misc/../font/../misc/lv_area.h **** 
  20:Middlewares/LVGL/GUI/lvgl/src/extra/widgets/calendar/../../../core/../misc/../font/../misc/lv_area.h **** /*********************
  21:Middlewares/LVGL/GUI/lvgl/src/extra/widgets/calendar/../../../core/../misc/../font/../misc/lv_area.h ****  *      DEFINES
  22:Middlewares/LVGL/GUI/lvgl/src/extra/widgets/calendar/../../../core/../misc/../font/../misc/lv_area.h ****  *********************/
  23:Middlewares/LVGL/GUI/lvgl/src/extra/widgets/calendar/../../../core/../misc/../font/../misc/lv_area.h **** 
  24:Middlewares/LVGL/GUI/lvgl/src/extra/widgets/calendar/../../../core/../misc/../font/../misc/lv_area.h **** #if LV_USE_LARGE_COORD
  25:Middlewares/LVGL/GUI/lvgl/src/extra/widgets/calendar/../../../core/../misc/../font/../misc/lv_area.h **** typedef int32_t lv_coord_t;
  26:Middlewares/LVGL/GUI/lvgl/src/extra/widgets/calendar/../../../core/../misc/../font/../misc/lv_area.h **** #else
  27:Middlewares/LVGL/GUI/lvgl/src/extra/widgets/calendar/../../../core/../misc/../font/../misc/lv_area.h **** typedef int16_t lv_coord_t;
  28:Middlewares/LVGL/GUI/lvgl/src/extra/widgets/calendar/../../../core/../misc/../font/../misc/lv_area.h **** #endif
  29:Middlewares/LVGL/GUI/lvgl/src/extra/widgets/calendar/../../../core/../misc/../font/../misc/lv_area.h **** 
  30:Middlewares/LVGL/GUI/lvgl/src/extra/widgets/calendar/../../../core/../misc/../font/../misc/lv_area.h **** /**********************
  31:Middlewares/LVGL/GUI/lvgl/src/extra/widgets/calendar/../../../core/../misc/../font/../misc/lv_area.h ****  *      TYPEDEFS
  32:Middlewares/LVGL/GUI/lvgl/src/extra/widgets/calendar/../../../core/../misc/../font/../misc/lv_area.h ****  **********************/
  33:Middlewares/LVGL/GUI/lvgl/src/extra/widgets/calendar/../../../core/../misc/../font/../misc/lv_area.h **** 
  34:Middlewares/LVGL/GUI/lvgl/src/extra/widgets/calendar/../../../core/../misc/../font/../misc/lv_area.h **** /**
  35:Middlewares/LVGL/GUI/lvgl/src/extra/widgets/calendar/../../../core/../misc/../font/../misc/lv_area.h ****  * Represents a point on the screen.
  36:Middlewares/LVGL/GUI/lvgl/src/extra/widgets/calendar/../../../core/../misc/../font/../misc/lv_area.h ****  */
  37:Middlewares/LVGL/GUI/lvgl/src/extra/widgets/calendar/../../../core/../misc/../font/../misc/lv_area.h **** typedef struct {
  38:Middlewares/LVGL/GUI/lvgl/src/extra/widgets/calendar/../../../core/../misc/../font/../misc/lv_area.h ****     lv_coord_t x;
  39:Middlewares/LVGL/GUI/lvgl/src/extra/widgets/calendar/../../../core/../misc/../font/../misc/lv_area.h ****     lv_coord_t y;
  40:Middlewares/LVGL/GUI/lvgl/src/extra/widgets/calendar/../../../core/../misc/../font/../misc/lv_area.h **** } lv_point_t;
  41:Middlewares/LVGL/GUI/lvgl/src/extra/widgets/calendar/../../../core/../misc/../font/../misc/lv_area.h **** 
  42:Middlewares/LVGL/GUI/lvgl/src/extra/widgets/calendar/../../../core/../misc/../font/../misc/lv_area.h **** /** Represents an area of the screen.*/
  43:Middlewares/LVGL/GUI/lvgl/src/extra/widgets/calendar/../../../core/../misc/../font/../misc/lv_area.h **** typedef struct {
  44:Middlewares/LVGL/GUI/lvgl/src/extra/widgets/calendar/../../../core/../misc/../font/../misc/lv_area.h ****     lv_coord_t x1;
  45:Middlewares/LVGL/GUI/lvgl/src/extra/widgets/calendar/../../../core/../misc/../font/../misc/lv_area.h ****     lv_coord_t y1;
  46:Middlewares/LVGL/GUI/lvgl/src/extra/widgets/calendar/../../../core/../misc/../font/../misc/lv_area.h ****     lv_coord_t x2;
  47:Middlewares/LVGL/GUI/lvgl/src/extra/widgets/calendar/../../../core/../misc/../font/../misc/lv_area.h ****     lv_coord_t y2;
  48:Middlewares/LVGL/GUI/lvgl/src/extra/widgets/calendar/../../../core/../misc/../font/../misc/lv_area.h **** } lv_area_t;
  49:Middlewares/LVGL/GUI/lvgl/src/extra/widgets/calendar/../../../core/../misc/../font/../misc/lv_area.h **** 
  50:Middlewares/LVGL/GUI/lvgl/src/extra/widgets/calendar/../../../core/../misc/../font/../misc/lv_area.h **** /** Alignments*/
  51:Middlewares/LVGL/GUI/lvgl/src/extra/widgets/calendar/../../../core/../misc/../font/../misc/lv_area.h **** enum {
  52:Middlewares/LVGL/GUI/lvgl/src/extra/widgets/calendar/../../../core/../misc/../font/../misc/lv_area.h ****     LV_ALIGN_DEFAULT = 0,
  53:Middlewares/LVGL/GUI/lvgl/src/extra/widgets/calendar/../../../core/../misc/../font/../misc/lv_area.h ****     LV_ALIGN_TOP_LEFT,
  54:Middlewares/LVGL/GUI/lvgl/src/extra/widgets/calendar/../../../core/../misc/../font/../misc/lv_area.h ****     LV_ALIGN_TOP_MID,
  55:Middlewares/LVGL/GUI/lvgl/src/extra/widgets/calendar/../../../core/../misc/../font/../misc/lv_area.h ****     LV_ALIGN_TOP_RIGHT,
  56:Middlewares/LVGL/GUI/lvgl/src/extra/widgets/calendar/../../../core/../misc/../font/../misc/lv_area.h ****     LV_ALIGN_BOTTOM_LEFT,
  57:Middlewares/LVGL/GUI/lvgl/src/extra/widgets/calendar/../../../core/../misc/../font/../misc/lv_area.h ****     LV_ALIGN_BOTTOM_MID,
  58:Middlewares/LVGL/GUI/lvgl/src/extra/widgets/calendar/../../../core/../misc/../font/../misc/lv_area.h ****     LV_ALIGN_BOTTOM_RIGHT,
  59:Middlewares/LVGL/GUI/lvgl/src/extra/widgets/calendar/../../../core/../misc/../font/../misc/lv_area.h ****     LV_ALIGN_LEFT_MID,
  60:Middlewares/LVGL/GUI/lvgl/src/extra/widgets/calendar/../../../core/../misc/../font/../misc/lv_area.h ****     LV_ALIGN_RIGHT_MID,
  61:Middlewares/LVGL/GUI/lvgl/src/extra/widgets/calendar/../../../core/../misc/../font/../misc/lv_area.h ****     LV_ALIGN_CENTER,
  62:Middlewares/LVGL/GUI/lvgl/src/extra/widgets/calendar/../../../core/../misc/../font/../misc/lv_area.h **** 
  63:Middlewares/LVGL/GUI/lvgl/src/extra/widgets/calendar/../../../core/../misc/../font/../misc/lv_area.h ****     LV_ALIGN_OUT_TOP_LEFT,
  64:Middlewares/LVGL/GUI/lvgl/src/extra/widgets/calendar/../../../core/../misc/../font/../misc/lv_area.h ****     LV_ALIGN_OUT_TOP_MID,
  65:Middlewares/LVGL/GUI/lvgl/src/extra/widgets/calendar/../../../core/../misc/../font/../misc/lv_area.h ****     LV_ALIGN_OUT_TOP_RIGHT,
  66:Middlewares/LVGL/GUI/lvgl/src/extra/widgets/calendar/../../../core/../misc/../font/../misc/lv_area.h ****     LV_ALIGN_OUT_BOTTOM_LEFT,
ARM GAS  C:\Users\ADMINI~1\AppData\Local\Temp\ccbAf2nk.s 			page 5


  67:Middlewares/LVGL/GUI/lvgl/src/extra/widgets/calendar/../../../core/../misc/../font/../misc/lv_area.h ****     LV_ALIGN_OUT_BOTTOM_MID,
  68:Middlewares/LVGL/GUI/lvgl/src/extra/widgets/calendar/../../../core/../misc/../font/../misc/lv_area.h ****     LV_ALIGN_OUT_BOTTOM_RIGHT,
  69:Middlewares/LVGL/GUI/lvgl/src/extra/widgets/calendar/../../../core/../misc/../font/../misc/lv_area.h ****     LV_ALIGN_OUT_LEFT_TOP,
  70:Middlewares/LVGL/GUI/lvgl/src/extra/widgets/calendar/../../../core/../misc/../font/../misc/lv_area.h ****     LV_ALIGN_OUT_LEFT_MID,
  71:Middlewares/LVGL/GUI/lvgl/src/extra/widgets/calendar/../../../core/../misc/../font/../misc/lv_area.h ****     LV_ALIGN_OUT_LEFT_BOTTOM,
  72:Middlewares/LVGL/GUI/lvgl/src/extra/widgets/calendar/../../../core/../misc/../font/../misc/lv_area.h ****     LV_ALIGN_OUT_RIGHT_TOP,
  73:Middlewares/LVGL/GUI/lvgl/src/extra/widgets/calendar/../../../core/../misc/../font/../misc/lv_area.h ****     LV_ALIGN_OUT_RIGHT_MID,
  74:Middlewares/LVGL/GUI/lvgl/src/extra/widgets/calendar/../../../core/../misc/../font/../misc/lv_area.h ****     LV_ALIGN_OUT_RIGHT_BOTTOM,
  75:Middlewares/LVGL/GUI/lvgl/src/extra/widgets/calendar/../../../core/../misc/../font/../misc/lv_area.h **** };
  76:Middlewares/LVGL/GUI/lvgl/src/extra/widgets/calendar/../../../core/../misc/../font/../misc/lv_area.h **** typedef uint8_t lv_align_t;
  77:Middlewares/LVGL/GUI/lvgl/src/extra/widgets/calendar/../../../core/../misc/../font/../misc/lv_area.h **** 
  78:Middlewares/LVGL/GUI/lvgl/src/extra/widgets/calendar/../../../core/../misc/../font/../misc/lv_area.h **** enum {
  79:Middlewares/LVGL/GUI/lvgl/src/extra/widgets/calendar/../../../core/../misc/../font/../misc/lv_area.h ****     LV_DIR_NONE     = 0x00,
  80:Middlewares/LVGL/GUI/lvgl/src/extra/widgets/calendar/../../../core/../misc/../font/../misc/lv_area.h ****     LV_DIR_LEFT     = (1 << 0),
  81:Middlewares/LVGL/GUI/lvgl/src/extra/widgets/calendar/../../../core/../misc/../font/../misc/lv_area.h ****     LV_DIR_RIGHT    = (1 << 1),
  82:Middlewares/LVGL/GUI/lvgl/src/extra/widgets/calendar/../../../core/../misc/../font/../misc/lv_area.h ****     LV_DIR_TOP      = (1 << 2),
  83:Middlewares/LVGL/GUI/lvgl/src/extra/widgets/calendar/../../../core/../misc/../font/../misc/lv_area.h ****     LV_DIR_BOTTOM   = (1 << 3),
  84:Middlewares/LVGL/GUI/lvgl/src/extra/widgets/calendar/../../../core/../misc/../font/../misc/lv_area.h ****     LV_DIR_HOR      = LV_DIR_LEFT | LV_DIR_RIGHT,
  85:Middlewares/LVGL/GUI/lvgl/src/extra/widgets/calendar/../../../core/../misc/../font/../misc/lv_area.h ****     LV_DIR_VER      = LV_DIR_TOP | LV_DIR_BOTTOM,
  86:Middlewares/LVGL/GUI/lvgl/src/extra/widgets/calendar/../../../core/../misc/../font/../misc/lv_area.h ****     LV_DIR_ALL      = LV_DIR_HOR | LV_DIR_VER,
  87:Middlewares/LVGL/GUI/lvgl/src/extra/widgets/calendar/../../../core/../misc/../font/../misc/lv_area.h **** };
  88:Middlewares/LVGL/GUI/lvgl/src/extra/widgets/calendar/../../../core/../misc/../font/../misc/lv_area.h **** 
  89:Middlewares/LVGL/GUI/lvgl/src/extra/widgets/calendar/../../../core/../misc/../font/../misc/lv_area.h **** typedef uint8_t lv_dir_t;
  90:Middlewares/LVGL/GUI/lvgl/src/extra/widgets/calendar/../../../core/../misc/../font/../misc/lv_area.h **** 
  91:Middlewares/LVGL/GUI/lvgl/src/extra/widgets/calendar/../../../core/../misc/../font/../misc/lv_area.h **** /**********************
  92:Middlewares/LVGL/GUI/lvgl/src/extra/widgets/calendar/../../../core/../misc/../font/../misc/lv_area.h ****  * GLOBAL PROTOTYPES
  93:Middlewares/LVGL/GUI/lvgl/src/extra/widgets/calendar/../../../core/../misc/../font/../misc/lv_area.h ****  **********************/
  94:Middlewares/LVGL/GUI/lvgl/src/extra/widgets/calendar/../../../core/../misc/../font/../misc/lv_area.h **** 
  95:Middlewares/LVGL/GUI/lvgl/src/extra/widgets/calendar/../../../core/../misc/../font/../misc/lv_area.h **** /**
  96:Middlewares/LVGL/GUI/lvgl/src/extra/widgets/calendar/../../../core/../misc/../font/../misc/lv_area.h ****  * Initialize an area
  97:Middlewares/LVGL/GUI/lvgl/src/extra/widgets/calendar/../../../core/../misc/../font/../misc/lv_area.h ****  * @param area_p pointer to an area
  98:Middlewares/LVGL/GUI/lvgl/src/extra/widgets/calendar/../../../core/../misc/../font/../misc/lv_area.h ****  * @param x1 left coordinate of the area
  99:Middlewares/LVGL/GUI/lvgl/src/extra/widgets/calendar/../../../core/../misc/../font/../misc/lv_area.h ****  * @param y1 top coordinate of the area
 100:Middlewares/LVGL/GUI/lvgl/src/extra/widgets/calendar/../../../core/../misc/../font/../misc/lv_area.h ****  * @param x2 right coordinate of the area
 101:Middlewares/LVGL/GUI/lvgl/src/extra/widgets/calendar/../../../core/../misc/../font/../misc/lv_area.h ****  * @param y2 bottom coordinate of the area
 102:Middlewares/LVGL/GUI/lvgl/src/extra/widgets/calendar/../../../core/../misc/../font/../misc/lv_area.h ****  */
 103:Middlewares/LVGL/GUI/lvgl/src/extra/widgets/calendar/../../../core/../misc/../font/../misc/lv_area.h **** void lv_area_set(lv_area_t * area_p, lv_coord_t x1, lv_coord_t y1, lv_coord_t x2, lv_coord_t y2);
 104:Middlewares/LVGL/GUI/lvgl/src/extra/widgets/calendar/../../../core/../misc/../font/../misc/lv_area.h **** 
 105:Middlewares/LVGL/GUI/lvgl/src/extra/widgets/calendar/../../../core/../misc/../font/../misc/lv_area.h **** /**
 106:Middlewares/LVGL/GUI/lvgl/src/extra/widgets/calendar/../../../core/../misc/../font/../misc/lv_area.h ****  * Copy an area
 107:Middlewares/LVGL/GUI/lvgl/src/extra/widgets/calendar/../../../core/../misc/../font/../misc/lv_area.h ****  * @param dest pointer to the destination area
 108:Middlewares/LVGL/GUI/lvgl/src/extra/widgets/calendar/../../../core/../misc/../font/../misc/lv_area.h ****  * @param src pointer to the source area
 109:Middlewares/LVGL/GUI/lvgl/src/extra/widgets/calendar/../../../core/../misc/../font/../misc/lv_area.h ****  */
 110:Middlewares/LVGL/GUI/lvgl/src/extra/widgets/calendar/../../../core/../misc/../font/../misc/lv_area.h **** inline static void lv_area_copy(lv_area_t * dest, const lv_area_t * src)
 111:Middlewares/LVGL/GUI/lvgl/src/extra/widgets/calendar/../../../core/../misc/../font/../misc/lv_area.h **** {
 112:Middlewares/LVGL/GUI/lvgl/src/extra/widgets/calendar/../../../core/../misc/../font/../misc/lv_area.h ****     dest->x1 = src->x1;
 113:Middlewares/LVGL/GUI/lvgl/src/extra/widgets/calendar/../../../core/../misc/../font/../misc/lv_area.h ****     dest->y1 = src->y1;
 114:Middlewares/LVGL/GUI/lvgl/src/extra/widgets/calendar/../../../core/../misc/../font/../misc/lv_area.h ****     dest->x2 = src->x2;
 115:Middlewares/LVGL/GUI/lvgl/src/extra/widgets/calendar/../../../core/../misc/../font/../misc/lv_area.h ****     dest->y2 = src->y2;
 116:Middlewares/LVGL/GUI/lvgl/src/extra/widgets/calendar/../../../core/../misc/../font/../misc/lv_area.h **** }
 117:Middlewares/LVGL/GUI/lvgl/src/extra/widgets/calendar/../../../core/../misc/../font/../misc/lv_area.h **** 
 118:Middlewares/LVGL/GUI/lvgl/src/extra/widgets/calendar/../../../core/../misc/../font/../misc/lv_area.h **** /**
 119:Middlewares/LVGL/GUI/lvgl/src/extra/widgets/calendar/../../../core/../misc/../font/../misc/lv_area.h ****  * Get the width of an area
 120:Middlewares/LVGL/GUI/lvgl/src/extra/widgets/calendar/../../../core/../misc/../font/../misc/lv_area.h ****  * @param area_p pointer to an area
 121:Middlewares/LVGL/GUI/lvgl/src/extra/widgets/calendar/../../../core/../misc/../font/../misc/lv_area.h ****  * @return the width of the area (if x1 == x2 -> width = 1)
 122:Middlewares/LVGL/GUI/lvgl/src/extra/widgets/calendar/../../../core/../misc/../font/../misc/lv_area.h ****  */
 123:Middlewares/LVGL/GUI/lvgl/src/extra/widgets/calendar/../../../core/../misc/../font/../misc/lv_area.h **** static inline lv_coord_t lv_area_get_width(const lv_area_t * area_p)
ARM GAS  C:\Users\ADMINI~1\AppData\Local\Temp\ccbAf2nk.s 			page 6


 124:Middlewares/LVGL/GUI/lvgl/src/extra/widgets/calendar/../../../core/../misc/../font/../misc/lv_area.h **** {
 125:Middlewares/LVGL/GUI/lvgl/src/extra/widgets/calendar/../../../core/../misc/../font/../misc/lv_area.h ****     return (lv_coord_t)(area_p->x2 - area_p->x1 + 1);
 126:Middlewares/LVGL/GUI/lvgl/src/extra/widgets/calendar/../../../core/../misc/../font/../misc/lv_area.h **** }
 127:Middlewares/LVGL/GUI/lvgl/src/extra/widgets/calendar/../../../core/../misc/../font/../misc/lv_area.h **** 
 128:Middlewares/LVGL/GUI/lvgl/src/extra/widgets/calendar/../../../core/../misc/../font/../misc/lv_area.h **** /**
 129:Middlewares/LVGL/GUI/lvgl/src/extra/widgets/calendar/../../../core/../misc/../font/../misc/lv_area.h ****  * Get the height of an area
 130:Middlewares/LVGL/GUI/lvgl/src/extra/widgets/calendar/../../../core/../misc/../font/../misc/lv_area.h ****  * @param area_p pointer to an area
 131:Middlewares/LVGL/GUI/lvgl/src/extra/widgets/calendar/../../../core/../misc/../font/../misc/lv_area.h ****  * @return the height of the area (if y1 == y2 -> height = 1)
 132:Middlewares/LVGL/GUI/lvgl/src/extra/widgets/calendar/../../../core/../misc/../font/../misc/lv_area.h ****  */
 133:Middlewares/LVGL/GUI/lvgl/src/extra/widgets/calendar/../../../core/../misc/../font/../misc/lv_area.h **** static inline lv_coord_t lv_area_get_height(const lv_area_t * area_p)
 134:Middlewares/LVGL/GUI/lvgl/src/extra/widgets/calendar/../../../core/../misc/../font/../misc/lv_area.h **** {
 135:Middlewares/LVGL/GUI/lvgl/src/extra/widgets/calendar/../../../core/../misc/../font/../misc/lv_area.h ****     return (lv_coord_t)(area_p->y2 - area_p->y1 + 1);
 136:Middlewares/LVGL/GUI/lvgl/src/extra/widgets/calendar/../../../core/../misc/../font/../misc/lv_area.h **** }
 137:Middlewares/LVGL/GUI/lvgl/src/extra/widgets/calendar/../../../core/../misc/../font/../misc/lv_area.h **** 
 138:Middlewares/LVGL/GUI/lvgl/src/extra/widgets/calendar/../../../core/../misc/../font/../misc/lv_area.h **** /**
 139:Middlewares/LVGL/GUI/lvgl/src/extra/widgets/calendar/../../../core/../misc/../font/../misc/lv_area.h ****  * Set the width of an area
 140:Middlewares/LVGL/GUI/lvgl/src/extra/widgets/calendar/../../../core/../misc/../font/../misc/lv_area.h ****  * @param area_p pointer to an area
 141:Middlewares/LVGL/GUI/lvgl/src/extra/widgets/calendar/../../../core/../misc/../font/../misc/lv_area.h ****  * @param w the new width of the area (w == 1 makes x1 == x2)
 142:Middlewares/LVGL/GUI/lvgl/src/extra/widgets/calendar/../../../core/../misc/../font/../misc/lv_area.h ****  */
 143:Middlewares/LVGL/GUI/lvgl/src/extra/widgets/calendar/../../../core/../misc/../font/../misc/lv_area.h **** void lv_area_set_width(lv_area_t * area_p, lv_coord_t w);
 144:Middlewares/LVGL/GUI/lvgl/src/extra/widgets/calendar/../../../core/../misc/../font/../misc/lv_area.h **** 
 145:Middlewares/LVGL/GUI/lvgl/src/extra/widgets/calendar/../../../core/../misc/../font/../misc/lv_area.h **** /**
 146:Middlewares/LVGL/GUI/lvgl/src/extra/widgets/calendar/../../../core/../misc/../font/../misc/lv_area.h ****  * Set the height of an area
 147:Middlewares/LVGL/GUI/lvgl/src/extra/widgets/calendar/../../../core/../misc/../font/../misc/lv_area.h ****  * @param area_p pointer to an area
 148:Middlewares/LVGL/GUI/lvgl/src/extra/widgets/calendar/../../../core/../misc/../font/../misc/lv_area.h ****  * @param h the new height of the area (h == 1 makes y1 == y2)
 149:Middlewares/LVGL/GUI/lvgl/src/extra/widgets/calendar/../../../core/../misc/../font/../misc/lv_area.h ****  */
 150:Middlewares/LVGL/GUI/lvgl/src/extra/widgets/calendar/../../../core/../misc/../font/../misc/lv_area.h **** void lv_area_set_height(lv_area_t * area_p, lv_coord_t h);
 151:Middlewares/LVGL/GUI/lvgl/src/extra/widgets/calendar/../../../core/../misc/../font/../misc/lv_area.h **** 
 152:Middlewares/LVGL/GUI/lvgl/src/extra/widgets/calendar/../../../core/../misc/../font/../misc/lv_area.h **** /**
 153:Middlewares/LVGL/GUI/lvgl/src/extra/widgets/calendar/../../../core/../misc/../font/../misc/lv_area.h ****  * Set the position of an area (width and height will be kept)
 154:Middlewares/LVGL/GUI/lvgl/src/extra/widgets/calendar/../../../core/../misc/../font/../misc/lv_area.h ****  * @param area_p pointer to an area
 155:Middlewares/LVGL/GUI/lvgl/src/extra/widgets/calendar/../../../core/../misc/../font/../misc/lv_area.h ****  * @param x the new x coordinate of the area
 156:Middlewares/LVGL/GUI/lvgl/src/extra/widgets/calendar/../../../core/../misc/../font/../misc/lv_area.h ****  * @param y the new y coordinate of the area
 157:Middlewares/LVGL/GUI/lvgl/src/extra/widgets/calendar/../../../core/../misc/../font/../misc/lv_area.h ****  */
 158:Middlewares/LVGL/GUI/lvgl/src/extra/widgets/calendar/../../../core/../misc/../font/../misc/lv_area.h **** void _lv_area_set_pos(lv_area_t * area_p, lv_coord_t x, lv_coord_t y);
 159:Middlewares/LVGL/GUI/lvgl/src/extra/widgets/calendar/../../../core/../misc/../font/../misc/lv_area.h **** 
 160:Middlewares/LVGL/GUI/lvgl/src/extra/widgets/calendar/../../../core/../misc/../font/../misc/lv_area.h **** /**
 161:Middlewares/LVGL/GUI/lvgl/src/extra/widgets/calendar/../../../core/../misc/../font/../misc/lv_area.h ****  * Return with area of an area (x * y)
 162:Middlewares/LVGL/GUI/lvgl/src/extra/widgets/calendar/../../../core/../misc/../font/../misc/lv_area.h ****  * @param area_p pointer to an area
 163:Middlewares/LVGL/GUI/lvgl/src/extra/widgets/calendar/../../../core/../misc/../font/../misc/lv_area.h ****  * @return size of area
 164:Middlewares/LVGL/GUI/lvgl/src/extra/widgets/calendar/../../../core/../misc/../font/../misc/lv_area.h ****  */
 165:Middlewares/LVGL/GUI/lvgl/src/extra/widgets/calendar/../../../core/../misc/../font/../misc/lv_area.h **** uint32_t lv_area_get_size(const lv_area_t * area_p);
 166:Middlewares/LVGL/GUI/lvgl/src/extra/widgets/calendar/../../../core/../misc/../font/../misc/lv_area.h **** 
 167:Middlewares/LVGL/GUI/lvgl/src/extra/widgets/calendar/../../../core/../misc/../font/../misc/lv_area.h **** void lv_area_increase(lv_area_t * area, lv_coord_t w_extra, lv_coord_t h_extra);
 168:Middlewares/LVGL/GUI/lvgl/src/extra/widgets/calendar/../../../core/../misc/../font/../misc/lv_area.h **** 
 169:Middlewares/LVGL/GUI/lvgl/src/extra/widgets/calendar/../../../core/../misc/../font/../misc/lv_area.h **** void lv_area_move(lv_area_t * area, lv_coord_t x_ofs, lv_coord_t y_ofs);
 170:Middlewares/LVGL/GUI/lvgl/src/extra/widgets/calendar/../../../core/../misc/../font/../misc/lv_area.h **** 
 171:Middlewares/LVGL/GUI/lvgl/src/extra/widgets/calendar/../../../core/../misc/../font/../misc/lv_area.h **** /**
 172:Middlewares/LVGL/GUI/lvgl/src/extra/widgets/calendar/../../../core/../misc/../font/../misc/lv_area.h ****  * Get the common parts of two areas
 173:Middlewares/LVGL/GUI/lvgl/src/extra/widgets/calendar/../../../core/../misc/../font/../misc/lv_area.h ****  * @param res_p pointer to an area, the result will be stored her
 174:Middlewares/LVGL/GUI/lvgl/src/extra/widgets/calendar/../../../core/../misc/../font/../misc/lv_area.h ****  * @param a1_p pointer to the first area
 175:Middlewares/LVGL/GUI/lvgl/src/extra/widgets/calendar/../../../core/../misc/../font/../misc/lv_area.h ****  * @param a2_p pointer to the second area
 176:Middlewares/LVGL/GUI/lvgl/src/extra/widgets/calendar/../../../core/../misc/../font/../misc/lv_area.h ****  * @return false: the two area has NO common parts, res_p is invalid
 177:Middlewares/LVGL/GUI/lvgl/src/extra/widgets/calendar/../../../core/../misc/../font/../misc/lv_area.h ****  */
 178:Middlewares/LVGL/GUI/lvgl/src/extra/widgets/calendar/../../../core/../misc/../font/../misc/lv_area.h **** bool _lv_area_intersect(lv_area_t * res_p, const lv_area_t * a1_p, const lv_area_t * a2_p);
 179:Middlewares/LVGL/GUI/lvgl/src/extra/widgets/calendar/../../../core/../misc/../font/../misc/lv_area.h **** 
 180:Middlewares/LVGL/GUI/lvgl/src/extra/widgets/calendar/../../../core/../misc/../font/../misc/lv_area.h **** /**
ARM GAS  C:\Users\ADMINI~1\AppData\Local\Temp\ccbAf2nk.s 			page 7


 181:Middlewares/LVGL/GUI/lvgl/src/extra/widgets/calendar/../../../core/../misc/../font/../misc/lv_area.h ****  * Join two areas into a third which involves the other two
 182:Middlewares/LVGL/GUI/lvgl/src/extra/widgets/calendar/../../../core/../misc/../font/../misc/lv_area.h ****  * @param res_p pointer to an area, the result will be stored here
 183:Middlewares/LVGL/GUI/lvgl/src/extra/widgets/calendar/../../../core/../misc/../font/../misc/lv_area.h ****  * @param a1_p pointer to the first area
 184:Middlewares/LVGL/GUI/lvgl/src/extra/widgets/calendar/../../../core/../misc/../font/../misc/lv_area.h ****  * @param a2_p pointer to the second area
 185:Middlewares/LVGL/GUI/lvgl/src/extra/widgets/calendar/../../../core/../misc/../font/../misc/lv_area.h ****  */
 186:Middlewares/LVGL/GUI/lvgl/src/extra/widgets/calendar/../../../core/../misc/../font/../misc/lv_area.h **** void _lv_area_join(lv_area_t * a_res_p, const lv_area_t * a1_p, const lv_area_t * a2_p);
 187:Middlewares/LVGL/GUI/lvgl/src/extra/widgets/calendar/../../../core/../misc/../font/../misc/lv_area.h **** 
 188:Middlewares/LVGL/GUI/lvgl/src/extra/widgets/calendar/../../../core/../misc/../font/../misc/lv_area.h **** /**
 189:Middlewares/LVGL/GUI/lvgl/src/extra/widgets/calendar/../../../core/../misc/../font/../misc/lv_area.h ****  * Check if a point is on an area
 190:Middlewares/LVGL/GUI/lvgl/src/extra/widgets/calendar/../../../core/../misc/../font/../misc/lv_area.h ****  * @param a_p pointer to an area
 191:Middlewares/LVGL/GUI/lvgl/src/extra/widgets/calendar/../../../core/../misc/../font/../misc/lv_area.h ****  * @param p_p pointer to a point
 192:Middlewares/LVGL/GUI/lvgl/src/extra/widgets/calendar/../../../core/../misc/../font/../misc/lv_area.h ****  * @param radius radius of area (e.g. for rounded rectangle)
 193:Middlewares/LVGL/GUI/lvgl/src/extra/widgets/calendar/../../../core/../misc/../font/../misc/lv_area.h ****  * @return false:the point is out of the area
 194:Middlewares/LVGL/GUI/lvgl/src/extra/widgets/calendar/../../../core/../misc/../font/../misc/lv_area.h ****  */
 195:Middlewares/LVGL/GUI/lvgl/src/extra/widgets/calendar/../../../core/../misc/../font/../misc/lv_area.h **** bool _lv_area_is_point_on(const lv_area_t * a_p, const lv_point_t * p_p, lv_coord_t radius);
 196:Middlewares/LVGL/GUI/lvgl/src/extra/widgets/calendar/../../../core/../misc/../font/../misc/lv_area.h **** 
 197:Middlewares/LVGL/GUI/lvgl/src/extra/widgets/calendar/../../../core/../misc/../font/../misc/lv_area.h **** /**
 198:Middlewares/LVGL/GUI/lvgl/src/extra/widgets/calendar/../../../core/../misc/../font/../misc/lv_area.h ****  * Check if two area has common parts
 199:Middlewares/LVGL/GUI/lvgl/src/extra/widgets/calendar/../../../core/../misc/../font/../misc/lv_area.h ****  * @param a1_p pointer to an area.
 200:Middlewares/LVGL/GUI/lvgl/src/extra/widgets/calendar/../../../core/../misc/../font/../misc/lv_area.h ****  * @param a2_p pointer to an other area
 201:Middlewares/LVGL/GUI/lvgl/src/extra/widgets/calendar/../../../core/../misc/../font/../misc/lv_area.h ****  * @return false: a1_p and a2_p has no common parts
 202:Middlewares/LVGL/GUI/lvgl/src/extra/widgets/calendar/../../../core/../misc/../font/../misc/lv_area.h ****  */
 203:Middlewares/LVGL/GUI/lvgl/src/extra/widgets/calendar/../../../core/../misc/../font/../misc/lv_area.h **** bool _lv_area_is_on(const lv_area_t * a1_p, const lv_area_t * a2_p);
 204:Middlewares/LVGL/GUI/lvgl/src/extra/widgets/calendar/../../../core/../misc/../font/../misc/lv_area.h **** 
 205:Middlewares/LVGL/GUI/lvgl/src/extra/widgets/calendar/../../../core/../misc/../font/../misc/lv_area.h **** /**
 206:Middlewares/LVGL/GUI/lvgl/src/extra/widgets/calendar/../../../core/../misc/../font/../misc/lv_area.h ****  * Check if an area is fully on an other
 207:Middlewares/LVGL/GUI/lvgl/src/extra/widgets/calendar/../../../core/../misc/../font/../misc/lv_area.h ****  * @param ain_p pointer to an area which could be in 'aholder_p'
 208:Middlewares/LVGL/GUI/lvgl/src/extra/widgets/calendar/../../../core/../misc/../font/../misc/lv_area.h ****  * @param aholder_p pointer to an area which could involve 'ain_p'
 209:Middlewares/LVGL/GUI/lvgl/src/extra/widgets/calendar/../../../core/../misc/../font/../misc/lv_area.h ****  * @param radius radius of `aholder_p` (e.g. for rounded rectangle)
 210:Middlewares/LVGL/GUI/lvgl/src/extra/widgets/calendar/../../../core/../misc/../font/../misc/lv_area.h ****  * @return true: `ain_p` is fully inside `aholder_p`
 211:Middlewares/LVGL/GUI/lvgl/src/extra/widgets/calendar/../../../core/../misc/../font/../misc/lv_area.h ****  */
 212:Middlewares/LVGL/GUI/lvgl/src/extra/widgets/calendar/../../../core/../misc/../font/../misc/lv_area.h **** bool _lv_area_is_in(const lv_area_t * ain_p, const lv_area_t * aholder_p, lv_coord_t radius);
 213:Middlewares/LVGL/GUI/lvgl/src/extra/widgets/calendar/../../../core/../misc/../font/../misc/lv_area.h **** 
 214:Middlewares/LVGL/GUI/lvgl/src/extra/widgets/calendar/../../../core/../misc/../font/../misc/lv_area.h **** 
 215:Middlewares/LVGL/GUI/lvgl/src/extra/widgets/calendar/../../../core/../misc/../font/../misc/lv_area.h **** /**
 216:Middlewares/LVGL/GUI/lvgl/src/extra/widgets/calendar/../../../core/../misc/../font/../misc/lv_area.h ****  * Check if an area is fully out of an other
 217:Middlewares/LVGL/GUI/lvgl/src/extra/widgets/calendar/../../../core/../misc/../font/../misc/lv_area.h ****  * @param aout_p pointer to an area which could be in 'aholder_p'
 218:Middlewares/LVGL/GUI/lvgl/src/extra/widgets/calendar/../../../core/../misc/../font/../misc/lv_area.h ****  * @param aholder_p pointer to an area which could involve 'ain_p'
 219:Middlewares/LVGL/GUI/lvgl/src/extra/widgets/calendar/../../../core/../misc/../font/../misc/lv_area.h ****  * @param radius radius of `aholder_p` (e.g. for rounded rectangle)
 220:Middlewares/LVGL/GUI/lvgl/src/extra/widgets/calendar/../../../core/../misc/../font/../misc/lv_area.h ****  * @return true: `aout_p` is fully outside `aholder_p`
 221:Middlewares/LVGL/GUI/lvgl/src/extra/widgets/calendar/../../../core/../misc/../font/../misc/lv_area.h ****  */
 222:Middlewares/LVGL/GUI/lvgl/src/extra/widgets/calendar/../../../core/../misc/../font/../misc/lv_area.h **** bool _lv_area_is_out(const lv_area_t * aout_p, const lv_area_t * aholder_p, lv_coord_t radius);
 223:Middlewares/LVGL/GUI/lvgl/src/extra/widgets/calendar/../../../core/../misc/../font/../misc/lv_area.h **** 
 224:Middlewares/LVGL/GUI/lvgl/src/extra/widgets/calendar/../../../core/../misc/../font/../misc/lv_area.h **** /**
 225:Middlewares/LVGL/GUI/lvgl/src/extra/widgets/calendar/../../../core/../misc/../font/../misc/lv_area.h ****  * Check if 2 area is the same
 226:Middlewares/LVGL/GUI/lvgl/src/extra/widgets/calendar/../../../core/../misc/../font/../misc/lv_area.h ****  * @param a pointer to an area
 227:Middlewares/LVGL/GUI/lvgl/src/extra/widgets/calendar/../../../core/../misc/../font/../misc/lv_area.h ****  * @param b pointer to another area
 228:Middlewares/LVGL/GUI/lvgl/src/extra/widgets/calendar/../../../core/../misc/../font/../misc/lv_area.h ****  */
 229:Middlewares/LVGL/GUI/lvgl/src/extra/widgets/calendar/../../../core/../misc/../font/../misc/lv_area.h **** bool _lv_area_is_equal(const lv_area_t * a, const lv_area_t * b);
 230:Middlewares/LVGL/GUI/lvgl/src/extra/widgets/calendar/../../../core/../misc/../font/../misc/lv_area.h **** 
 231:Middlewares/LVGL/GUI/lvgl/src/extra/widgets/calendar/../../../core/../misc/../font/../misc/lv_area.h **** /**
 232:Middlewares/LVGL/GUI/lvgl/src/extra/widgets/calendar/../../../core/../misc/../font/../misc/lv_area.h ****  * Align an area to an other
 233:Middlewares/LVGL/GUI/lvgl/src/extra/widgets/calendar/../../../core/../misc/../font/../misc/lv_area.h ****  * @param base an are where the other will be aligned
 234:Middlewares/LVGL/GUI/lvgl/src/extra/widgets/calendar/../../../core/../misc/../font/../misc/lv_area.h ****  * @param to_align the area to align
 235:Middlewares/LVGL/GUI/lvgl/src/extra/widgets/calendar/../../../core/../misc/../font/../misc/lv_area.h ****  * @param align `LV_ALIGN_...`
 236:Middlewares/LVGL/GUI/lvgl/src/extra/widgets/calendar/../../../core/../misc/../font/../misc/lv_area.h ****  */
 237:Middlewares/LVGL/GUI/lvgl/src/extra/widgets/calendar/../../../core/../misc/../font/../misc/lv_area.h **** void lv_area_align(const lv_area_t * base, lv_area_t * to_align, lv_align_t align, lv_coord_t ofs_x
ARM GAS  C:\Users\ADMINI~1\AppData\Local\Temp\ccbAf2nk.s 			page 8


 238:Middlewares/LVGL/GUI/lvgl/src/extra/widgets/calendar/../../../core/../misc/../font/../misc/lv_area.h **** 
 239:Middlewares/LVGL/GUI/lvgl/src/extra/widgets/calendar/../../../core/../misc/../font/../misc/lv_area.h **** /**********************
 240:Middlewares/LVGL/GUI/lvgl/src/extra/widgets/calendar/../../../core/../misc/../font/../misc/lv_area.h ****  *      MACROS
 241:Middlewares/LVGL/GUI/lvgl/src/extra/widgets/calendar/../../../core/../misc/../font/../misc/lv_area.h ****  **********************/
 242:Middlewares/LVGL/GUI/lvgl/src/extra/widgets/calendar/../../../core/../misc/../font/../misc/lv_area.h **** 
 243:Middlewares/LVGL/GUI/lvgl/src/extra/widgets/calendar/../../../core/../misc/../font/../misc/lv_area.h **** #if LV_USE_LARGE_COORD
 244:Middlewares/LVGL/GUI/lvgl/src/extra/widgets/calendar/../../../core/../misc/../font/../misc/lv_area.h **** #define _LV_COORD_TYPE_SHIFT    (29U)
 245:Middlewares/LVGL/GUI/lvgl/src/extra/widgets/calendar/../../../core/../misc/../font/../misc/lv_area.h **** #else
 246:Middlewares/LVGL/GUI/lvgl/src/extra/widgets/calendar/../../../core/../misc/../font/../misc/lv_area.h **** #define _LV_COORD_TYPE_SHIFT    (13U)
 247:Middlewares/LVGL/GUI/lvgl/src/extra/widgets/calendar/../../../core/../misc/../font/../misc/lv_area.h **** #endif
 248:Middlewares/LVGL/GUI/lvgl/src/extra/widgets/calendar/../../../core/../misc/../font/../misc/lv_area.h **** 
 249:Middlewares/LVGL/GUI/lvgl/src/extra/widgets/calendar/../../../core/../misc/../font/../misc/lv_area.h **** #define _LV_COORD_TYPE_MASK     (3 << _LV_COORD_TYPE_SHIFT)
 250:Middlewares/LVGL/GUI/lvgl/src/extra/widgets/calendar/../../../core/../misc/../font/../misc/lv_area.h **** #define _LV_COORD_TYPE(x)       ((x) & _LV_COORD_TYPE_MASK)  /*Extract type specifiers*/
 251:Middlewares/LVGL/GUI/lvgl/src/extra/widgets/calendar/../../../core/../misc/../font/../misc/lv_area.h **** #define _LV_COORD_PLAIN(x)      ((x) & ~_LV_COORD_TYPE_MASK) /*Remove type specifiers*/
 252:Middlewares/LVGL/GUI/lvgl/src/extra/widgets/calendar/../../../core/../misc/../font/../misc/lv_area.h **** 
 253:Middlewares/LVGL/GUI/lvgl/src/extra/widgets/calendar/../../../core/../misc/../font/../misc/lv_area.h **** #define _LV_COORD_TYPE_PX       (0 << _LV_COORD_TYPE_SHIFT)
 254:Middlewares/LVGL/GUI/lvgl/src/extra/widgets/calendar/../../../core/../misc/../font/../misc/lv_area.h **** #define _LV_COORD_TYPE_SPEC     (1 << _LV_COORD_TYPE_SHIFT)
 255:Middlewares/LVGL/GUI/lvgl/src/extra/widgets/calendar/../../../core/../misc/../font/../misc/lv_area.h **** #define _LV_COORD_TYPE_PX_NEG   (3 << _LV_COORD_TYPE_SHIFT)
 256:Middlewares/LVGL/GUI/lvgl/src/extra/widgets/calendar/../../../core/../misc/../font/../misc/lv_area.h **** 
 257:Middlewares/LVGL/GUI/lvgl/src/extra/widgets/calendar/../../../core/../misc/../font/../misc/lv_area.h **** #define LV_COORD_IS_PX(x)       (_LV_COORD_TYPE(x) == _LV_COORD_TYPE_PX || \
 258:Middlewares/LVGL/GUI/lvgl/src/extra/widgets/calendar/../../../core/../misc/../font/../misc/lv_area.h ****                                  _LV_COORD_TYPE(x) == _LV_COORD_TYPE_PX_NEG ? true : false)
 259:Middlewares/LVGL/GUI/lvgl/src/extra/widgets/calendar/../../../core/../misc/../font/../misc/lv_area.h **** #define LV_COORD_IS_SPEC(x)     (_LV_COORD_TYPE(x) == _LV_COORD_TYPE_SPEC ? true : false)
 260:Middlewares/LVGL/GUI/lvgl/src/extra/widgets/calendar/../../../core/../misc/../font/../misc/lv_area.h **** 
 261:Middlewares/LVGL/GUI/lvgl/src/extra/widgets/calendar/../../../core/../misc/../font/../misc/lv_area.h **** #define LV_COORD_SET_SPEC(x)    ((x) | _LV_COORD_TYPE_SPEC)
 262:Middlewares/LVGL/GUI/lvgl/src/extra/widgets/calendar/../../../core/../misc/../font/../misc/lv_area.h **** 
 263:Middlewares/LVGL/GUI/lvgl/src/extra/widgets/calendar/../../../core/../misc/../font/../misc/lv_area.h **** /*Special coordinates*/
 264:Middlewares/LVGL/GUI/lvgl/src/extra/widgets/calendar/../../../core/../misc/../font/../misc/lv_area.h **** #define LV_PCT(x)               (x < 0 ? LV_COORD_SET_SPEC(1000 - (x)) : LV_COORD_SET_SPEC(x))
 265:Middlewares/LVGL/GUI/lvgl/src/extra/widgets/calendar/../../../core/../misc/../font/../misc/lv_area.h **** #define LV_COORD_IS_PCT(x)      ((LV_COORD_IS_SPEC(x) && _LV_COORD_PLAIN(x) <= 2000) ? true : false
 266:Middlewares/LVGL/GUI/lvgl/src/extra/widgets/calendar/../../../core/../misc/../font/../misc/lv_area.h **** #define LV_COORD_GET_PCT(x)     (_LV_COORD_PLAIN(x) > 1000 ? 1000 - _LV_COORD_PLAIN(x) : _LV_COORD_
 267:Middlewares/LVGL/GUI/lvgl/src/extra/widgets/calendar/../../../core/../misc/../font/../misc/lv_area.h **** #define LV_SIZE_CONTENT         LV_COORD_SET_SPEC(2001)
 268:Middlewares/LVGL/GUI/lvgl/src/extra/widgets/calendar/../../../core/../misc/../font/../misc/lv_area.h **** 
 269:Middlewares/LVGL/GUI/lvgl/src/extra/widgets/calendar/../../../core/../misc/../font/../misc/lv_area.h **** LV_EXPORT_CONST_INT(LV_SIZE_CONTENT);
 270:Middlewares/LVGL/GUI/lvgl/src/extra/widgets/calendar/../../../core/../misc/../font/../misc/lv_area.h **** 
 271:Middlewares/LVGL/GUI/lvgl/src/extra/widgets/calendar/../../../core/../misc/../font/../misc/lv_area.h **** /*Max coordinate value*/
 272:Middlewares/LVGL/GUI/lvgl/src/extra/widgets/calendar/../../../core/../misc/../font/../misc/lv_area.h **** #define LV_COORD_MAX            ((1 << _LV_COORD_TYPE_SHIFT) - 1)
 273:Middlewares/LVGL/GUI/lvgl/src/extra/widgets/calendar/../../../core/../misc/../font/../misc/lv_area.h **** #define LV_COORD_MIN            (-LV_COORD_MAX)
 274:Middlewares/LVGL/GUI/lvgl/src/extra/widgets/calendar/../../../core/../misc/../font/../misc/lv_area.h **** 
 275:Middlewares/LVGL/GUI/lvgl/src/extra/widgets/calendar/../../../core/../misc/../font/../misc/lv_area.h **** LV_EXPORT_CONST_INT(LV_COORD_MAX);
 276:Middlewares/LVGL/GUI/lvgl/src/extra/widgets/calendar/../../../core/../misc/../font/../misc/lv_area.h **** LV_EXPORT_CONST_INT(LV_COORD_MIN);
 277:Middlewares/LVGL/GUI/lvgl/src/extra/widgets/calendar/../../../core/../misc/../font/../misc/lv_area.h **** 
 278:Middlewares/LVGL/GUI/lvgl/src/extra/widgets/calendar/../../../core/../misc/../font/../misc/lv_area.h **** /**
 279:Middlewares/LVGL/GUI/lvgl/src/extra/widgets/calendar/../../../core/../misc/../font/../misc/lv_area.h ****  * Convert a percentage value to `lv_coord_t`.
 280:Middlewares/LVGL/GUI/lvgl/src/extra/widgets/calendar/../../../core/../misc/../font/../misc/lv_area.h ****  * Percentage values are stored in special range
 281:Middlewares/LVGL/GUI/lvgl/src/extra/widgets/calendar/../../../core/../misc/../font/../misc/lv_area.h ****  * @param x the percentage (0..1000)
 282:Middlewares/LVGL/GUI/lvgl/src/extra/widgets/calendar/../../../core/../misc/../font/../misc/lv_area.h ****  * @return a coordinate that stores the percentage
 283:Middlewares/LVGL/GUI/lvgl/src/extra/widgets/calendar/../../../core/../misc/../font/../misc/lv_area.h ****  */
 284:Middlewares/LVGL/GUI/lvgl/src/extra/widgets/calendar/../../../core/../misc/../font/../misc/lv_area.h **** static inline lv_coord_t lv_pct(lv_coord_t x)
 285:Middlewares/LVGL/GUI/lvgl/src/extra/widgets/calendar/../../../core/../misc/../font/../misc/lv_area.h **** {
 286:Middlewares/LVGL/GUI/lvgl/src/extra/widgets/calendar/../../../core/../misc/../font/../misc/lv_area.h ****     return LV_PCT(x);
  88              		.loc 2 286 5 view .LVU13
  89              		.loc 1 76 5 is_stmt 0 view .LVU14
  90 0030 2749     		ldr	r1, .L3+4
  91 0032 2846     		mov	r0, r5
  92 0034 FFF7FEFF 		bl	lv_obj_set_height
  93              	.LVL9:
  77:Middlewares/LVGL/GUI/lvgl/src/extra/widgets/calendar/lv_calendar_header_arrow.c ****     lv_obj_update_layout(mo_prev);
  94              		.loc 1 77 5 is_stmt 1 view .LVU15
ARM GAS  C:\Users\ADMINI~1\AppData\Local\Temp\ccbAf2nk.s 			page 9


  95 0038 2846     		mov	r0, r5
  96 003a FFF7FEFF 		bl	lv_obj_update_layout
  97              	.LVL10:
  78:Middlewares/LVGL/GUI/lvgl/src/extra/widgets/calendar/lv_calendar_header_arrow.c ****     lv_coord_t btn_size = lv_obj_get_height(mo_prev);
  98              		.loc 1 78 5 view .LVU16
  99              		.loc 1 78 27 is_stmt 0 view .LVU17
 100 003e 2846     		mov	r0, r5
 101 0040 FFF7FEFF 		bl	lv_obj_get_height
 102              	.LVL11:
 103 0044 0646     		mov	r6, r0
 104              	.LVL12:
  79:Middlewares/LVGL/GUI/lvgl/src/extra/widgets/calendar/lv_calendar_header_arrow.c ****     lv_obj_set_width(mo_prev, btn_size);
 105              		.loc 1 79 5 is_stmt 1 view .LVU18
 106 0046 0146     		mov	r1, r0
 107 0048 2846     		mov	r0, r5
 108              	.LVL13:
 109              		.loc 1 79 5 is_stmt 0 view .LVU19
 110 004a FFF7FEFF 		bl	lv_obj_set_width
 111              	.LVL14:
  80:Middlewares/LVGL/GUI/lvgl/src/extra/widgets/calendar/lv_calendar_header_arrow.c **** 
  81:Middlewares/LVGL/GUI/lvgl/src/extra/widgets/calendar/lv_calendar_header_arrow.c ****     lv_obj_add_event_cb(mo_prev, month_event_cb, LV_EVENT_CLICKED, NULL);
 112              		.loc 1 81 5 is_stmt 1 view .LVU20
 113 004e 214F     		ldr	r7, .L3+8
 114 0050 0023     		movs	r3, #0
 115 0052 0722     		movs	r2, #7
 116 0054 3946     		mov	r1, r7
 117 0056 2846     		mov	r0, r5
 118 0058 FFF7FEFF 		bl	lv_obj_add_event_cb
 119              	.LVL15:
  82:Middlewares/LVGL/GUI/lvgl/src/extra/widgets/calendar/lv_calendar_header_arrow.c ****     lv_obj_clear_flag(mo_prev, LV_OBJ_FLAG_CLICK_FOCUSABLE);
 120              		.loc 1 82 5 view .LVU21
 121 005c 0421     		movs	r1, #4
 122 005e 2846     		mov	r0, r5
 123 0060 FFF7FEFF 		bl	lv_obj_clear_flag
 124              	.LVL16:
  83:Middlewares/LVGL/GUI/lvgl/src/extra/widgets/calendar/lv_calendar_header_arrow.c **** 
  84:Middlewares/LVGL/GUI/lvgl/src/extra/widgets/calendar/lv_calendar_header_arrow.c ****     lv_obj_t * label = lv_label_create(obj);
 125              		.loc 1 84 5 view .LVU22
 126              		.loc 1 84 24 is_stmt 0 view .LVU23
 127 0064 2046     		mov	r0, r4
 128 0066 FFF7FEFF 		bl	lv_label_create
 129              	.LVL17:
 130 006a 0546     		mov	r5, r0
 131              	.LVL18:
  85:Middlewares/LVGL/GUI/lvgl/src/extra/widgets/calendar/lv_calendar_header_arrow.c ****     lv_label_set_long_mode(label, LV_LABEL_LONG_SCROLL_CIRCULAR);
 132              		.loc 1 85 5 is_stmt 1 view .LVU24
 133 006c 0321     		movs	r1, #3
 134 006e FFF7FEFF 		bl	lv_label_set_long_mode
 135              	.LVL19:
  86:Middlewares/LVGL/GUI/lvgl/src/extra/widgets/calendar/lv_calendar_header_arrow.c ****     lv_obj_set_style_text_align(label, LV_TEXT_ALIGN_CENTER, 0);
 136              		.loc 1 86 5 view .LVU25
 137 0072 0022     		movs	r2, #0
 138 0074 0221     		movs	r1, #2
 139 0076 2846     		mov	r0, r5
 140 0078 FFF7FEFF 		bl	lv_obj_set_style_text_align
 141              	.LVL20:
  87:Middlewares/LVGL/GUI/lvgl/src/extra/widgets/calendar/lv_calendar_header_arrow.c ****     lv_obj_set_flex_grow(label, 1);
ARM GAS  C:\Users\ADMINI~1\AppData\Local\Temp\ccbAf2nk.s 			page 10


 142              		.loc 1 87 5 view .LVU26
 143 007c 0121     		movs	r1, #1
 144 007e 2846     		mov	r0, r5
 145 0080 FFF7FEFF 		bl	lv_obj_set_flex_grow
 146              	.LVL21:
  88:Middlewares/LVGL/GUI/lvgl/src/extra/widgets/calendar/lv_calendar_header_arrow.c **** 
  89:Middlewares/LVGL/GUI/lvgl/src/extra/widgets/calendar/lv_calendar_header_arrow.c ****     lv_obj_t * mo_next = lv_btn_create(obj);
 147              		.loc 1 89 5 view .LVU27
 148              		.loc 1 89 26 is_stmt 0 view .LVU28
 149 0084 2046     		mov	r0, r4
 150 0086 FFF7FEFF 		bl	lv_btn_create
 151              	.LVL22:
 152 008a 0546     		mov	r5, r0
 153              	.LVL23:
  90:Middlewares/LVGL/GUI/lvgl/src/extra/widgets/calendar/lv_calendar_header_arrow.c ****     lv_obj_set_style_bg_img_src(mo_next, LV_SYMBOL_RIGHT, 0);
 154              		.loc 1 90 5 is_stmt 1 view .LVU29
 155 008c 0022     		movs	r2, #0
 156 008e 1249     		ldr	r1, .L3+12
 157 0090 FFF7FEFF 		bl	lv_obj_set_style_bg_img_src
 158              	.LVL24:
  91:Middlewares/LVGL/GUI/lvgl/src/extra/widgets/calendar/lv_calendar_header_arrow.c ****     lv_obj_set_size(mo_next, btn_size, btn_size);
 159              		.loc 1 91 5 view .LVU30
 160 0094 3246     		mov	r2, r6
 161 0096 3146     		mov	r1, r6
 162 0098 2846     		mov	r0, r5
 163 009a FFF7FEFF 		bl	lv_obj_set_size
 164              	.LVL25:
  92:Middlewares/LVGL/GUI/lvgl/src/extra/widgets/calendar/lv_calendar_header_arrow.c **** 
  93:Middlewares/LVGL/GUI/lvgl/src/extra/widgets/calendar/lv_calendar_header_arrow.c ****     lv_obj_add_event_cb(mo_next, month_event_cb, LV_EVENT_CLICKED, NULL);
 165              		.loc 1 93 5 view .LVU31
 166 009e 0023     		movs	r3, #0
 167 00a0 0722     		movs	r2, #7
 168 00a2 3946     		mov	r1, r7
 169 00a4 2846     		mov	r0, r5
 170 00a6 FFF7FEFF 		bl	lv_obj_add_event_cb
 171              	.LVL26:
  94:Middlewares/LVGL/GUI/lvgl/src/extra/widgets/calendar/lv_calendar_header_arrow.c ****     lv_obj_clear_flag(mo_next, LV_OBJ_FLAG_CLICK_FOCUSABLE);
 172              		.loc 1 94 5 view .LVU32
 173 00aa 0421     		movs	r1, #4
 174 00ac 2846     		mov	r0, r5
 175 00ae FFF7FEFF 		bl	lv_obj_clear_flag
 176              	.LVL27:
  95:Middlewares/LVGL/GUI/lvgl/src/extra/widgets/calendar/lv_calendar_header_arrow.c **** 
  96:Middlewares/LVGL/GUI/lvgl/src/extra/widgets/calendar/lv_calendar_header_arrow.c ****     lv_obj_add_event_cb(obj, value_changed_event_cb, LV_EVENT_VALUE_CHANGED, NULL);
 177              		.loc 1 96 5 view .LVU33
 178 00b2 0023     		movs	r3, #0
 179 00b4 1C22     		movs	r2, #28
 180 00b6 0949     		ldr	r1, .L3+16
 181 00b8 2046     		mov	r0, r4
 182 00ba FFF7FEFF 		bl	lv_obj_add_event_cb
 183              	.LVL28:
  97:Middlewares/LVGL/GUI/lvgl/src/extra/widgets/calendar/lv_calendar_header_arrow.c ****     /*Refresh the drop downs*/
  98:Middlewares/LVGL/GUI/lvgl/src/extra/widgets/calendar/lv_calendar_header_arrow.c ****     lv_event_send(obj, LV_EVENT_VALUE_CHANGED, NULL);
 184              		.loc 1 98 5 view .LVU34
 185 00be 0022     		movs	r2, #0
 186 00c0 1C21     		movs	r1, #28
 187 00c2 2046     		mov	r0, r4
ARM GAS  C:\Users\ADMINI~1\AppData\Local\Temp\ccbAf2nk.s 			page 11


 188 00c4 FFF7FEFF 		bl	lv_event_send
 189              	.LVL29:
  99:Middlewares/LVGL/GUI/lvgl/src/extra/widgets/calendar/lv_calendar_header_arrow.c **** }
 190              		.loc 1 99 1 is_stmt 0 view .LVU35
 191 00c8 F8BD     		pop	{r3, r4, r5, r6, r7, pc}
 192              	.LVL30:
 193              	.L4:
 194              		.loc 1 99 1 view .LVU36
 195 00ca 00BF     		.align	2
 196              	.L3:
 197 00cc 00000000 		.word	.LC0
 198 00d0 64000020 		.word	536871012
 199 00d4 00000000 		.word	month_event_cb
 200 00d8 04000000 		.word	.LC1
 201 00dc 00000000 		.word	value_changed_event_cb
 202              		.cfi_endproc
 203              	.LFE159:
 205              		.section	.rodata.value_changed_event_cb.str1.4,"aMS",%progbits,1
 206              		.align	2
 207              	.LC2:
 208 0000 25642025 		.ascii	"%d %s\000"
 208      7300
 209              		.section	.text.value_changed_event_cb,"ax",%progbits
 210              		.align	1
 211              		.syntax unified
 212              		.thumb
 213              		.thumb_func
 215              	value_changed_event_cb:
 216              	.LVL31:
 217              	.LFB161:
 100:Middlewares/LVGL/GUI/lvgl/src/extra/widgets/calendar/lv_calendar_header_arrow.c **** 
 101:Middlewares/LVGL/GUI/lvgl/src/extra/widgets/calendar/lv_calendar_header_arrow.c **** static void month_event_cb(lv_event_t * e)
 102:Middlewares/LVGL/GUI/lvgl/src/extra/widgets/calendar/lv_calendar_header_arrow.c **** {
 103:Middlewares/LVGL/GUI/lvgl/src/extra/widgets/calendar/lv_calendar_header_arrow.c ****     lv_obj_t * btn = lv_event_get_target(e);
 104:Middlewares/LVGL/GUI/lvgl/src/extra/widgets/calendar/lv_calendar_header_arrow.c **** 
 105:Middlewares/LVGL/GUI/lvgl/src/extra/widgets/calendar/lv_calendar_header_arrow.c ****     lv_obj_t * header = lv_obj_get_parent(btn);
 106:Middlewares/LVGL/GUI/lvgl/src/extra/widgets/calendar/lv_calendar_header_arrow.c ****     lv_obj_t * calendar = lv_obj_get_parent(header);
 107:Middlewares/LVGL/GUI/lvgl/src/extra/widgets/calendar/lv_calendar_header_arrow.c **** 
 108:Middlewares/LVGL/GUI/lvgl/src/extra/widgets/calendar/lv_calendar_header_arrow.c ****     const lv_calendar_date_t * d;
 109:Middlewares/LVGL/GUI/lvgl/src/extra/widgets/calendar/lv_calendar_header_arrow.c ****     d = lv_calendar_get_showed_date(calendar);
 110:Middlewares/LVGL/GUI/lvgl/src/extra/widgets/calendar/lv_calendar_header_arrow.c ****     lv_calendar_date_t newd = *d;
 111:Middlewares/LVGL/GUI/lvgl/src/extra/widgets/calendar/lv_calendar_header_arrow.c **** 
 112:Middlewares/LVGL/GUI/lvgl/src/extra/widgets/calendar/lv_calendar_header_arrow.c ****     /*The last child is the right button*/
 113:Middlewares/LVGL/GUI/lvgl/src/extra/widgets/calendar/lv_calendar_header_arrow.c ****     if(lv_obj_get_child(header, 0) == btn) {
 114:Middlewares/LVGL/GUI/lvgl/src/extra/widgets/calendar/lv_calendar_header_arrow.c ****         if(newd.month == 1) {
 115:Middlewares/LVGL/GUI/lvgl/src/extra/widgets/calendar/lv_calendar_header_arrow.c ****             newd.month = 12;
 116:Middlewares/LVGL/GUI/lvgl/src/extra/widgets/calendar/lv_calendar_header_arrow.c ****             newd.year --;
 117:Middlewares/LVGL/GUI/lvgl/src/extra/widgets/calendar/lv_calendar_header_arrow.c ****         }
 118:Middlewares/LVGL/GUI/lvgl/src/extra/widgets/calendar/lv_calendar_header_arrow.c ****         else {
 119:Middlewares/LVGL/GUI/lvgl/src/extra/widgets/calendar/lv_calendar_header_arrow.c ****             newd.month --;
 120:Middlewares/LVGL/GUI/lvgl/src/extra/widgets/calendar/lv_calendar_header_arrow.c ****         }
 121:Middlewares/LVGL/GUI/lvgl/src/extra/widgets/calendar/lv_calendar_header_arrow.c ****     }
 122:Middlewares/LVGL/GUI/lvgl/src/extra/widgets/calendar/lv_calendar_header_arrow.c ****     else {
 123:Middlewares/LVGL/GUI/lvgl/src/extra/widgets/calendar/lv_calendar_header_arrow.c ****         if(newd.month == 12) {
 124:Middlewares/LVGL/GUI/lvgl/src/extra/widgets/calendar/lv_calendar_header_arrow.c ****             newd.month = 1;
 125:Middlewares/LVGL/GUI/lvgl/src/extra/widgets/calendar/lv_calendar_header_arrow.c ****             newd.year ++;
 126:Middlewares/LVGL/GUI/lvgl/src/extra/widgets/calendar/lv_calendar_header_arrow.c ****         }
ARM GAS  C:\Users\ADMINI~1\AppData\Local\Temp\ccbAf2nk.s 			page 12


 127:Middlewares/LVGL/GUI/lvgl/src/extra/widgets/calendar/lv_calendar_header_arrow.c ****         else {
 128:Middlewares/LVGL/GUI/lvgl/src/extra/widgets/calendar/lv_calendar_header_arrow.c ****             newd.month ++;
 129:Middlewares/LVGL/GUI/lvgl/src/extra/widgets/calendar/lv_calendar_header_arrow.c ****         }
 130:Middlewares/LVGL/GUI/lvgl/src/extra/widgets/calendar/lv_calendar_header_arrow.c ****     }
 131:Middlewares/LVGL/GUI/lvgl/src/extra/widgets/calendar/lv_calendar_header_arrow.c **** 
 132:Middlewares/LVGL/GUI/lvgl/src/extra/widgets/calendar/lv_calendar_header_arrow.c ****     lv_calendar_set_showed_date(calendar, newd.year, newd.month);
 133:Middlewares/LVGL/GUI/lvgl/src/extra/widgets/calendar/lv_calendar_header_arrow.c **** 
 134:Middlewares/LVGL/GUI/lvgl/src/extra/widgets/calendar/lv_calendar_header_arrow.c ****     lv_obj_t * label = lv_obj_get_child(header, 1);
 135:Middlewares/LVGL/GUI/lvgl/src/extra/widgets/calendar/lv_calendar_header_arrow.c ****     lv_label_set_text_fmt(label, "%d %s", newd.year, month_names_def[newd.month - 1]);
 136:Middlewares/LVGL/GUI/lvgl/src/extra/widgets/calendar/lv_calendar_header_arrow.c **** }
 137:Middlewares/LVGL/GUI/lvgl/src/extra/widgets/calendar/lv_calendar_header_arrow.c **** 
 138:Middlewares/LVGL/GUI/lvgl/src/extra/widgets/calendar/lv_calendar_header_arrow.c **** static void value_changed_event_cb(lv_event_t * e)
 139:Middlewares/LVGL/GUI/lvgl/src/extra/widgets/calendar/lv_calendar_header_arrow.c **** {
 218              		.loc 1 139 1 is_stmt 1 view -0
 219              		.cfi_startproc
 220              		@ args = 0, pretend = 0, frame = 0
 221              		@ frame_needed = 0, uses_anonymous_args = 0
 222              		.loc 1 139 1 is_stmt 0 view .LVU38
 223 0000 38B5     		push	{r3, r4, r5, lr}
 224              	.LCFI1:
 225              		.cfi_def_cfa_offset 16
 226              		.cfi_offset 3, -16
 227              		.cfi_offset 4, -12
 228              		.cfi_offset 5, -8
 229              		.cfi_offset 14, -4
 140:Middlewares/LVGL/GUI/lvgl/src/extra/widgets/calendar/lv_calendar_header_arrow.c ****     lv_obj_t * header = lv_event_get_target(e);
 230              		.loc 1 140 5 is_stmt 1 view .LVU39
 231              		.loc 1 140 25 is_stmt 0 view .LVU40
 232 0002 FFF7FEFF 		bl	lv_event_get_target
 233              	.LVL32:
 234              		.loc 1 140 25 view .LVU41
 235 0006 0546     		mov	r5, r0
 236              	.LVL33:
 141:Middlewares/LVGL/GUI/lvgl/src/extra/widgets/calendar/lv_calendar_header_arrow.c ****     lv_obj_t * calendar = lv_obj_get_parent(header);
 237              		.loc 1 141 5 is_stmt 1 view .LVU42
 238              		.loc 1 141 27 is_stmt 0 view .LVU43
 239 0008 FFF7FEFF 		bl	lv_obj_get_parent
 240              	.LVL34:
 142:Middlewares/LVGL/GUI/lvgl/src/extra/widgets/calendar/lv_calendar_header_arrow.c **** 
 143:Middlewares/LVGL/GUI/lvgl/src/extra/widgets/calendar/lv_calendar_header_arrow.c ****     const lv_calendar_date_t * cur_date = lv_calendar_get_showed_date(calendar);
 241              		.loc 1 143 5 is_stmt 1 view .LVU44
 242              		.loc 1 143 43 is_stmt 0 view .LVU45
 243 000c FFF7FEFF 		bl	lv_calendar_get_showed_date
 244              	.LVL35:
 245              		.loc 1 143 43 view .LVU46
 246 0010 0446     		mov	r4, r0
 247              	.LVL36:
 144:Middlewares/LVGL/GUI/lvgl/src/extra/widgets/calendar/lv_calendar_header_arrow.c ****     lv_obj_t * label = lv_obj_get_child(header, 1);
 248              		.loc 1 144 5 is_stmt 1 view .LVU47
 249              		.loc 1 144 24 is_stmt 0 view .LVU48
 250 0012 0121     		movs	r1, #1
 251 0014 2846     		mov	r0, r5
 252              	.LVL37:
 253              		.loc 1 144 24 view .LVU49
 254 0016 FFF7FEFF 		bl	lv_obj_get_child
 255              	.LVL38:
 145:Middlewares/LVGL/GUI/lvgl/src/extra/widgets/calendar/lv_calendar_header_arrow.c ****     lv_label_set_text_fmt(label, "%d %s", cur_date->year, month_names_def[cur_date->month - 1]);
ARM GAS  C:\Users\ADMINI~1\AppData\Local\Temp\ccbAf2nk.s 			page 13


 256              		.loc 1 145 5 is_stmt 1 view .LVU50
 257              		.loc 1 145 83 is_stmt 0 view .LVU51
 258 001a 94F90230 		ldrsb	r3, [r4, #2]
 259              		.loc 1 145 91 view .LVU52
 260 001e 013B     		subs	r3, r3, #1
 261              		.loc 1 145 5 view .LVU53
 262 0020 034A     		ldr	r2, .L7
 263 0022 52F82330 		ldr	r3, [r2, r3, lsl #2]
 264 0026 2288     		ldrh	r2, [r4]
 265 0028 0249     		ldr	r1, .L7+4
 266 002a FFF7FEFF 		bl	lv_label_set_text_fmt
 267              	.LVL39:
 146:Middlewares/LVGL/GUI/lvgl/src/extra/widgets/calendar/lv_calendar_header_arrow.c **** }
 268              		.loc 1 146 1 view .LVU54
 269 002e 38BD     		pop	{r3, r4, r5, pc}
 270              	.LVL40:
 271              	.L8:
 272              		.loc 1 146 1 view .LVU55
 273              		.align	2
 274              	.L7:
 275 0030 00000000 		.word	.LANCHOR0
 276 0034 00000000 		.word	.LC2
 277              		.cfi_endproc
 278              	.LFE161:
 280              		.section	.text.month_event_cb,"ax",%progbits
 281              		.align	1
 282              		.syntax unified
 283              		.thumb
 284              		.thumb_func
 286              	month_event_cb:
 287              	.LVL41:
 288              	.LFB160:
 102:Middlewares/LVGL/GUI/lvgl/src/extra/widgets/calendar/lv_calendar_header_arrow.c ****     lv_obj_t * btn = lv_event_get_target(e);
 289              		.loc 1 102 1 is_stmt 1 view -0
 290              		.cfi_startproc
 291              		@ args = 0, pretend = 0, frame = 8
 292              		@ frame_needed = 0, uses_anonymous_args = 0
 102:Middlewares/LVGL/GUI/lvgl/src/extra/widgets/calendar/lv_calendar_header_arrow.c ****     lv_obj_t * btn = lv_event_get_target(e);
 293              		.loc 1 102 1 is_stmt 0 view .LVU57
 294 0000 F0B5     		push	{r4, r5, r6, r7, lr}
 295              	.LCFI2:
 296              		.cfi_def_cfa_offset 20
 297              		.cfi_offset 4, -20
 298              		.cfi_offset 5, -16
 299              		.cfi_offset 6, -12
 300              		.cfi_offset 7, -8
 301              		.cfi_offset 14, -4
 302 0002 83B0     		sub	sp, sp, #12
 303              	.LCFI3:
 304              		.cfi_def_cfa_offset 32
 103:Middlewares/LVGL/GUI/lvgl/src/extra/widgets/calendar/lv_calendar_header_arrow.c **** 
 305              		.loc 1 103 5 is_stmt 1 view .LVU58
 103:Middlewares/LVGL/GUI/lvgl/src/extra/widgets/calendar/lv_calendar_header_arrow.c **** 
 306              		.loc 1 103 22 is_stmt 0 view .LVU59
 307 0004 FFF7FEFF 		bl	lv_event_get_target
 308              	.LVL42:
 103:Middlewares/LVGL/GUI/lvgl/src/extra/widgets/calendar/lv_calendar_header_arrow.c **** 
ARM GAS  C:\Users\ADMINI~1\AppData\Local\Temp\ccbAf2nk.s 			page 14


 309              		.loc 1 103 22 view .LVU60
 310 0008 0446     		mov	r4, r0
 311              	.LVL43:
 105:Middlewares/LVGL/GUI/lvgl/src/extra/widgets/calendar/lv_calendar_header_arrow.c ****     lv_obj_t * calendar = lv_obj_get_parent(header);
 312              		.loc 1 105 5 is_stmt 1 view .LVU61
 105:Middlewares/LVGL/GUI/lvgl/src/extra/widgets/calendar/lv_calendar_header_arrow.c ****     lv_obj_t * calendar = lv_obj_get_parent(header);
 313              		.loc 1 105 25 is_stmt 0 view .LVU62
 314 000a FFF7FEFF 		bl	lv_obj_get_parent
 315              	.LVL44:
 105:Middlewares/LVGL/GUI/lvgl/src/extra/widgets/calendar/lv_calendar_header_arrow.c ****     lv_obj_t * calendar = lv_obj_get_parent(header);
 316              		.loc 1 105 25 view .LVU63
 317 000e 0546     		mov	r5, r0
 318              	.LVL45:
 106:Middlewares/LVGL/GUI/lvgl/src/extra/widgets/calendar/lv_calendar_header_arrow.c **** 
 319              		.loc 1 106 5 is_stmt 1 view .LVU64
 106:Middlewares/LVGL/GUI/lvgl/src/extra/widgets/calendar/lv_calendar_header_arrow.c **** 
 320              		.loc 1 106 27 is_stmt 0 view .LVU65
 321 0010 FFF7FEFF 		bl	lv_obj_get_parent
 322              	.LVL46:
 106:Middlewares/LVGL/GUI/lvgl/src/extra/widgets/calendar/lv_calendar_header_arrow.c **** 
 323              		.loc 1 106 27 view .LVU66
 324 0014 0646     		mov	r6, r0
 325              	.LVL47:
 108:Middlewares/LVGL/GUI/lvgl/src/extra/widgets/calendar/lv_calendar_header_arrow.c ****     d = lv_calendar_get_showed_date(calendar);
 326              		.loc 1 108 5 is_stmt 1 view .LVU67
 109:Middlewares/LVGL/GUI/lvgl/src/extra/widgets/calendar/lv_calendar_header_arrow.c ****     lv_calendar_date_t newd = *d;
 327              		.loc 1 109 5 view .LVU68
 109:Middlewares/LVGL/GUI/lvgl/src/extra/widgets/calendar/lv_calendar_header_arrow.c ****     lv_calendar_date_t newd = *d;
 328              		.loc 1 109 9 is_stmt 0 view .LVU69
 329 0016 FFF7FEFF 		bl	lv_calendar_get_showed_date
 330              	.LVL48:
 110:Middlewares/LVGL/GUI/lvgl/src/extra/widgets/calendar/lv_calendar_header_arrow.c **** 
 331              		.loc 1 110 5 is_stmt 1 view .LVU70
 110:Middlewares/LVGL/GUI/lvgl/src/extra/widgets/calendar/lv_calendar_header_arrow.c **** 
 332              		.loc 1 110 24 is_stmt 0 view .LVU71
 333 001a 0068     		ldr	r0, [r0]	@ unaligned
 334              	.LVL49:
 110:Middlewares/LVGL/GUI/lvgl/src/extra/widgets/calendar/lv_calendar_header_arrow.c **** 
 335              		.loc 1 110 24 view .LVU72
 336 001c 0190     		str	r0, [sp, #4]
 113:Middlewares/LVGL/GUI/lvgl/src/extra/widgets/calendar/lv_calendar_header_arrow.c ****         if(newd.month == 1) {
 337              		.loc 1 113 5 is_stmt 1 view .LVU73
 113:Middlewares/LVGL/GUI/lvgl/src/extra/widgets/calendar/lv_calendar_header_arrow.c ****         if(newd.month == 1) {
 338              		.loc 1 113 8 is_stmt 0 view .LVU74
 339 001e 0021     		movs	r1, #0
 340 0020 2846     		mov	r0, r5
 341 0022 FFF7FEFF 		bl	lv_obj_get_child
 342              	.LVL50:
 113:Middlewares/LVGL/GUI/lvgl/src/extra/widgets/calendar/lv_calendar_header_arrow.c ****         if(newd.month == 1) {
 343              		.loc 1 113 7 view .LVU75
 344 0026 8442     		cmp	r4, r0
 345 0028 1DD0     		beq	.L15
 123:Middlewares/LVGL/GUI/lvgl/src/extra/widgets/calendar/lv_calendar_header_arrow.c ****             newd.month = 1;
 346              		.loc 1 123 9 is_stmt 1 view .LVU76
 123:Middlewares/LVGL/GUI/lvgl/src/extra/widgets/calendar/lv_calendar_header_arrow.c ****             newd.month = 1;
 347              		.loc 1 123 16 is_stmt 0 view .LVU77
 348 002a 9DF90630 		ldrsb	r3, [sp, #6]
ARM GAS  C:\Users\ADMINI~1\AppData\Local\Temp\ccbAf2nk.s 			page 15


 123:Middlewares/LVGL/GUI/lvgl/src/extra/widgets/calendar/lv_calendar_header_arrow.c ****             newd.month = 1;
 349              		.loc 1 123 11 view .LVU78
 350 002e 0C2B     		cmp	r3, #12
 351 0030 2AD0     		beq	.L16
 128:Middlewares/LVGL/GUI/lvgl/src/extra/widgets/calendar/lv_calendar_header_arrow.c ****         }
 352              		.loc 1 128 13 is_stmt 1 view .LVU79
 128:Middlewares/LVGL/GUI/lvgl/src/extra/widgets/calendar/lv_calendar_header_arrow.c ****         }
 353              		.loc 1 128 24 is_stmt 0 view .LVU80
 354 0032 0133     		adds	r3, r3, #1
 355 0034 8DF80630 		strb	r3, [sp, #6]
 356              	.L12:
 132:Middlewares/LVGL/GUI/lvgl/src/extra/widgets/calendar/lv_calendar_header_arrow.c **** 
 357              		.loc 1 132 5 is_stmt 1 view .LVU81
 132:Middlewares/LVGL/GUI/lvgl/src/extra/widgets/calendar/lv_calendar_header_arrow.c **** 
 358              		.loc 1 132 47 is_stmt 0 view .LVU82
 359 0038 BDF80470 		ldrh	r7, [sp, #4]
 132:Middlewares/LVGL/GUI/lvgl/src/extra/widgets/calendar/lv_calendar_header_arrow.c **** 
 360              		.loc 1 132 58 view .LVU83
 361 003c 9DF90640 		ldrsb	r4, [sp, #6]
 362              	.LVL51:
 132:Middlewares/LVGL/GUI/lvgl/src/extra/widgets/calendar/lv_calendar_header_arrow.c **** 
 363              		.loc 1 132 5 view .LVU84
 364 0040 2246     		mov	r2, r4
 365 0042 3946     		mov	r1, r7
 366 0044 3046     		mov	r0, r6
 367 0046 FFF7FEFF 		bl	lv_calendar_set_showed_date
 368              	.LVL52:
 134:Middlewares/LVGL/GUI/lvgl/src/extra/widgets/calendar/lv_calendar_header_arrow.c ****     lv_label_set_text_fmt(label, "%d %s", newd.year, month_names_def[newd.month - 1]);
 369              		.loc 1 134 5 is_stmt 1 view .LVU85
 134:Middlewares/LVGL/GUI/lvgl/src/extra/widgets/calendar/lv_calendar_header_arrow.c ****     lv_label_set_text_fmt(label, "%d %s", newd.year, month_names_def[newd.month - 1]);
 370              		.loc 1 134 24 is_stmt 0 view .LVU86
 371 004a 0121     		movs	r1, #1
 372 004c 2846     		mov	r0, r5
 373 004e FFF7FEFF 		bl	lv_obj_get_child
 374              	.LVL53:
 135:Middlewares/LVGL/GUI/lvgl/src/extra/widgets/calendar/lv_calendar_header_arrow.c **** }
 375              		.loc 1 135 5 is_stmt 1 view .LVU87
 135:Middlewares/LVGL/GUI/lvgl/src/extra/widgets/calendar/lv_calendar_header_arrow.c **** }
 376              		.loc 1 135 81 is_stmt 0 view .LVU88
 377 0052 013C     		subs	r4, r4, #1
 135:Middlewares/LVGL/GUI/lvgl/src/extra/widgets/calendar/lv_calendar_header_arrow.c **** }
 378              		.loc 1 135 5 view .LVU89
 379 0054 114B     		ldr	r3, .L18
 380 0056 53F82430 		ldr	r3, [r3, r4, lsl #2]
 381 005a 3A46     		mov	r2, r7
 382 005c 1049     		ldr	r1, .L18+4
 383 005e FFF7FEFF 		bl	lv_label_set_text_fmt
 384              	.LVL54:
 136:Middlewares/LVGL/GUI/lvgl/src/extra/widgets/calendar/lv_calendar_header_arrow.c **** 
 385              		.loc 1 136 1 view .LVU90
 386 0062 03B0     		add	sp, sp, #12
 387              	.LCFI4:
 388              		.cfi_remember_state
 389              		.cfi_def_cfa_offset 20
 390              		@ sp needed
 391 0064 F0BD     		pop	{r4, r5, r6, r7, pc}
 392              	.LVL55:
ARM GAS  C:\Users\ADMINI~1\AppData\Local\Temp\ccbAf2nk.s 			page 16


 393              	.L15:
 394              	.LCFI5:
 395              		.cfi_restore_state
 114:Middlewares/LVGL/GUI/lvgl/src/extra/widgets/calendar/lv_calendar_header_arrow.c ****             newd.month = 12;
 396              		.loc 1 114 9 is_stmt 1 view .LVU91
 114:Middlewares/LVGL/GUI/lvgl/src/extra/widgets/calendar/lv_calendar_header_arrow.c ****             newd.month = 12;
 397              		.loc 1 114 16 is_stmt 0 view .LVU92
 398 0066 9DF90630 		ldrsb	r3, [sp, #6]
 114:Middlewares/LVGL/GUI/lvgl/src/extra/widgets/calendar/lv_calendar_header_arrow.c ****             newd.month = 12;
 399              		.loc 1 114 11 view .LVU93
 400 006a 012B     		cmp	r3, #1
 401 006c 03D0     		beq	.L17
 119:Middlewares/LVGL/GUI/lvgl/src/extra/widgets/calendar/lv_calendar_header_arrow.c ****         }
 402              		.loc 1 119 13 is_stmt 1 view .LVU94
 119:Middlewares/LVGL/GUI/lvgl/src/extra/widgets/calendar/lv_calendar_header_arrow.c ****         }
 403              		.loc 1 119 24 is_stmt 0 view .LVU95
 404 006e 013B     		subs	r3, r3, #1
 405 0070 8DF80630 		strb	r3, [sp, #6]
 406 0074 E0E7     		b	.L12
 407              	.L17:
 115:Middlewares/LVGL/GUI/lvgl/src/extra/widgets/calendar/lv_calendar_header_arrow.c ****             newd.year --;
 408              		.loc 1 115 13 is_stmt 1 view .LVU96
 115:Middlewares/LVGL/GUI/lvgl/src/extra/widgets/calendar/lv_calendar_header_arrow.c ****             newd.year --;
 409              		.loc 1 115 24 is_stmt 0 view .LVU97
 410 0076 0C23     		movs	r3, #12
 411 0078 8DF80630 		strb	r3, [sp, #6]
 116:Middlewares/LVGL/GUI/lvgl/src/extra/widgets/calendar/lv_calendar_header_arrow.c ****         }
 412              		.loc 1 116 13 is_stmt 1 view .LVU98
 116:Middlewares/LVGL/GUI/lvgl/src/extra/widgets/calendar/lv_calendar_header_arrow.c ****         }
 413              		.loc 1 116 17 is_stmt 0 view .LVU99
 414 007c BDF80430 		ldrh	r3, [sp, #4]
 116:Middlewares/LVGL/GUI/lvgl/src/extra/widgets/calendar/lv_calendar_header_arrow.c ****         }
 415              		.loc 1 116 23 view .LVU100
 416 0080 013B     		subs	r3, r3, #1
 417 0082 ADF80430 		strh	r3, [sp, #4]	@ movhi
 418 0086 D7E7     		b	.L12
 419              	.L16:
 124:Middlewares/LVGL/GUI/lvgl/src/extra/widgets/calendar/lv_calendar_header_arrow.c ****             newd.year ++;
 420              		.loc 1 124 13 is_stmt 1 view .LVU101
 124:Middlewares/LVGL/GUI/lvgl/src/extra/widgets/calendar/lv_calendar_header_arrow.c ****             newd.year ++;
 421              		.loc 1 124 24 is_stmt 0 view .LVU102
 422 0088 0123     		movs	r3, #1
 423 008a 8DF80630 		strb	r3, [sp, #6]
 125:Middlewares/LVGL/GUI/lvgl/src/extra/widgets/calendar/lv_calendar_header_arrow.c ****         }
 424              		.loc 1 125 13 is_stmt 1 view .LVU103
 125:Middlewares/LVGL/GUI/lvgl/src/extra/widgets/calendar/lv_calendar_header_arrow.c ****         }
 425              		.loc 1 125 17 is_stmt 0 view .LVU104
 426 008e BDF80430 		ldrh	r3, [sp, #4]
 125:Middlewares/LVGL/GUI/lvgl/src/extra/widgets/calendar/lv_calendar_header_arrow.c ****         }
 427              		.loc 1 125 23 view .LVU105
 428 0092 0133     		adds	r3, r3, #1
 429 0094 ADF80430 		strh	r3, [sp, #4]	@ movhi
 430 0098 CEE7     		b	.L12
 431              	.L19:
 432 009a 00BF     		.align	2
 433              	.L18:
 434 009c 00000000 		.word	.LANCHOR0
ARM GAS  C:\Users\ADMINI~1\AppData\Local\Temp\ccbAf2nk.s 			page 17


 435 00a0 00000000 		.word	.LC2
 436              		.cfi_endproc
 437              	.LFE160:
 439              		.section	.text.lv_calendar_header_arrow_create,"ax",%progbits
 440              		.align	1
 441              		.global	lv_calendar_header_arrow_create
 442              		.syntax unified
 443              		.thumb
 444              		.thumb_func
 446              	lv_calendar_header_arrow_create:
 447              	.LVL56:
 448              	.LFB158:
  53:Middlewares/LVGL/GUI/lvgl/src/extra/widgets/calendar/lv_calendar_header_arrow.c ****     lv_obj_t * obj = lv_obj_class_create_obj(&lv_calendar_header_arrow_class, parent);
 449              		.loc 1 53 1 is_stmt 1 view -0
 450              		.cfi_startproc
 451              		@ args = 0, pretend = 0, frame = 0
 452              		@ frame_needed = 0, uses_anonymous_args = 0
  53:Middlewares/LVGL/GUI/lvgl/src/extra/widgets/calendar/lv_calendar_header_arrow.c ****     lv_obj_t * obj = lv_obj_class_create_obj(&lv_calendar_header_arrow_class, parent);
 453              		.loc 1 53 1 is_stmt 0 view .LVU107
 454 0000 10B5     		push	{r4, lr}
 455              	.LCFI6:
 456              		.cfi_def_cfa_offset 8
 457              		.cfi_offset 4, -8
 458              		.cfi_offset 14, -4
 459 0002 0146     		mov	r1, r0
  54:Middlewares/LVGL/GUI/lvgl/src/extra/widgets/calendar/lv_calendar_header_arrow.c ****     lv_obj_class_init_obj(obj);
 460              		.loc 1 54 5 is_stmt 1 view .LVU108
  54:Middlewares/LVGL/GUI/lvgl/src/extra/widgets/calendar/lv_calendar_header_arrow.c ****     lv_obj_class_init_obj(obj);
 461              		.loc 1 54 22 is_stmt 0 view .LVU109
 462 0004 0348     		ldr	r0, .L22
 463              	.LVL57:
  54:Middlewares/LVGL/GUI/lvgl/src/extra/widgets/calendar/lv_calendar_header_arrow.c ****     lv_obj_class_init_obj(obj);
 464              		.loc 1 54 22 view .LVU110
 465 0006 FFF7FEFF 		bl	lv_obj_class_create_obj
 466              	.LVL58:
  54:Middlewares/LVGL/GUI/lvgl/src/extra/widgets/calendar/lv_calendar_header_arrow.c ****     lv_obj_class_init_obj(obj);
 467              		.loc 1 54 22 view .LVU111
 468 000a 0446     		mov	r4, r0
 469              	.LVL59:
  55:Middlewares/LVGL/GUI/lvgl/src/extra/widgets/calendar/lv_calendar_header_arrow.c ****     return obj;
 470              		.loc 1 55 5 is_stmt 1 view .LVU112
 471 000c FFF7FEFF 		bl	lv_obj_class_init_obj
 472              	.LVL60:
  56:Middlewares/LVGL/GUI/lvgl/src/extra/widgets/calendar/lv_calendar_header_arrow.c **** }
 473              		.loc 1 56 5 view .LVU113
  57:Middlewares/LVGL/GUI/lvgl/src/extra/widgets/calendar/lv_calendar_header_arrow.c **** 
 474              		.loc 1 57 1 is_stmt 0 view .LVU114
 475 0010 2046     		mov	r0, r4
 476 0012 10BD     		pop	{r4, pc}
 477              	.LVL61:
 478              	.L23:
  57:Middlewares/LVGL/GUI/lvgl/src/extra/widgets/calendar/lv_calendar_header_arrow.c **** 
 479              		.loc 1 57 1 view .LVU115
 480              		.align	2
 481              	.L22:
 482 0014 00000000 		.word	.LANCHOR1
 483              		.cfi_endproc
ARM GAS  C:\Users\ADMINI~1\AppData\Local\Temp\ccbAf2nk.s 			page 18


 484              	.LFE158:
 486              		.section	.rodata.str1.4,"aMS",%progbits,1
 487              		.align	2
 488              	.LC3:
 489 0000 4A616E75 		.ascii	"January\000"
 489      61727900 
 490              		.align	2
 491              	.LC4:
 492 0008 46656272 		.ascii	"February\000"
 492      75617279 
 492      00
 493 0011 000000   		.align	2
 494              	.LC5:
 495 0014 4D617263 		.ascii	"March\000"
 495      6800
 496 001a 0000     		.align	2
 497              	.LC6:
 498 001c 41707269 		.ascii	"April\000"
 498      6C00
 499 0022 0000     		.align	2
 500              	.LC7:
 501 0024 4D617900 		.ascii	"May\000"
 502              		.align	2
 503              	.LC8:
 504 0028 4A756E65 		.ascii	"June\000"
 504      00
 505 002d 000000   		.align	2
 506              	.LC9:
 507 0030 4A756C79 		.ascii	"July\000"
 507      00
 508 0035 000000   		.align	2
 509              	.LC10:
 510 0038 41756775 		.ascii	"August\000"
 510      737400
 511 003f 00       		.align	2
 512              	.LC11:
 513 0040 53657074 		.ascii	"September\000"
 513      656D6265 
 513      7200
 514 004a 0000     		.align	2
 515              	.LC12:
 516 004c 4F63746F 		.ascii	"October\000"
 516      62657200 
 517              		.align	2
 518              	.LC13:
 519 0054 4E6F7665 		.ascii	"November\000"
 519      6D626572 
 519      00
 520 005d 000000   		.align	2
 521              	.LC14:
 522 0060 44656365 		.ascii	"December\000"
 522      6D626572 
 522      00
 523              		.global	lv_calendar_header_arrow_class
 524              		.section	.rodata.lv_calendar_header_arrow_class,"a"
 525              		.align	2
 526              		.set	.LANCHOR1,. + 0
ARM GAS  C:\Users\ADMINI~1\AppData\Local\Temp\ccbAf2nk.s 			page 19


 529              	lv_calendar_header_arrow_class:
 530 0000 00000000 		.word	lv_obj_class
 531 0004 00000000 		.word	my_constructor
 532 0008 00000000 		.space	12
 532      00000000 
 532      00000000 
 533 0014 64000020 		.word	536871012
 534 0018 2B000000 		.word	43
 535 001c 00000000 		.space	4
 536              		.section	.rodata.month_names_def,"a"
 537              		.align	2
 538              		.set	.LANCHOR0,. + 0
 541              	month_names_def:
 542 0000 00000000 		.word	.LC3
 543 0004 08000000 		.word	.LC4
 544 0008 14000000 		.word	.LC5
 545 000c 1C000000 		.word	.LC6
 546 0010 24000000 		.word	.LC7
 547 0014 28000000 		.word	.LC8
 548 0018 30000000 		.word	.LC9
 549 001c 38000000 		.word	.LC10
 550 0020 40000000 		.word	.LC11
 551 0024 4C000000 		.word	.LC12
 552 0028 54000000 		.word	.LC13
 553 002c 60000000 		.word	.LC14
 554              		.text
 555              	.Letext0:
 556              		.file 3 "c:\\gnu arm embedded toolchain\\10 2021.10\\arm-none-eabi\\include\\machine\\_default_typ
 557              		.file 4 "c:\\gnu arm embedded toolchain\\10 2021.10\\arm-none-eabi\\include\\sys\\_stdint.h"
 558              		.file 5 "Middlewares/LVGL/GUI/lvgl/src/extra/widgets/calendar/../../../core/../misc/lv_color.h"
 559              		.file 6 "Middlewares/LVGL/GUI/lvgl/src/extra/widgets/calendar/../../../core/../misc/lv_style.h"
 560              		.file 7 "Middlewares/LVGL/GUI/lvgl/src/extra/widgets/calendar/../../../core/../misc/lv_txt.h"
 561              		.file 8 "Middlewares/LVGL/GUI/lvgl/src/extra/widgets/calendar/../../../core/lv_obj.h"
 562              		.file 9 "Middlewares/LVGL/GUI/lvgl/src/extra/widgets/calendar/../../../core/../hal/../misc/lv_ll.h
 563              		.file 10 "Middlewares/LVGL/GUI/lvgl/src/extra/widgets/calendar/../../../core/lv_group.h"
 564              		.file 11 "Middlewares/LVGL/GUI/lvgl/src/extra/widgets/calendar/../../../core/lv_obj_scroll.h"
 565              		.file 12 "Middlewares/LVGL/GUI/lvgl/src/extra/widgets/calendar/../../../core/lv_obj_style.h"
 566              		.file 13 "Middlewares/LVGL/GUI/lvgl/src/extra/widgets/calendar/../../../core/lv_obj_class.h"
 567              		.file 14 "Middlewares/LVGL/GUI/lvgl/src/extra/widgets/calendar/../../../core/lv_event.h"
 568              		.file 15 "Middlewares/LVGL/GUI/lvgl/src/extra/widgets/calendar/lv_calendar_header_arrow.h"
 569              		.file 16 "Middlewares/LVGL/GUI/lvgl/src/extra/widgets/calendar/lv_calendar.h"
 570              		.file 17 "Middlewares/LVGL/GUI/lvgl/src/extra/widgets/calendar/../../../widgets/lv_label.h"
 571              		.file 18 "Middlewares/LVGL/GUI/lvgl/src/extra/widgets/calendar/../../layouts/flex/lv_flex.h"
 572              		.file 19 "Middlewares/LVGL/GUI/lvgl/src/extra/widgets/calendar/../../../core/lv_obj_tree.h"
 573              		.file 20 "Middlewares/LVGL/GUI/lvgl/src/extra/widgets/calendar/../../../widgets/lv_btn.h"
 574              		.file 21 "Middlewares/LVGL/GUI/lvgl/src/extra/widgets/calendar/../../../core/lv_obj_style_gen.h"
 575              		.file 22 "Middlewares/LVGL/GUI/lvgl/src/extra/widgets/calendar/../../../core/../hal/../draw/sw/../
ARM GAS  C:\Users\ADMINI~1\AppData\Local\Temp\ccbAf2nk.s 			page 20

