ARM GAS  C:\Users\ADMINI~1\AppData\Local\Temp\ccD8dPMj.s 			page 1


   1              		.cpu cortex-m4
   2              		.arch armv7e-m
   3              		.fpu fpv4-sp-d16
   4              		.eabi_attribute 27, 1
   5              		.eabi_attribute 28, 1
   6              		.eabi_attribute 20, 1
   7              		.eabi_attribute 21, 1
   8              		.eabi_attribute 23, 3
   9              		.eabi_attribute 24, 1
  10              		.eabi_attribute 25, 1
  11              		.eabi_attribute 26, 1
  12              		.eabi_attribute 30, 1
  13              		.eabi_attribute 34, 1
  14              		.eabi_attribute 18, 4
  15              		.file	"lv_calendar_header_dropdown.c"
  16              		.text
  17              	.Ltext0:
  18              		.cfi_sections	.debug_frame
  19              		.section	.rodata.my_constructor.str1.4,"aMS",%progbits,1
  20              		.align	2
  21              	.LC0:
  22 0000 32303233 		.ascii	"2023\0122022\0122021\0122020\0122019\0122018\012201"
  22      0A323032 
  22      320A3230 
  22      32310A32 
  22      3032300A 
  23 0021 370A3230 		.ascii	"7\0122016\0122015\0122014\0122013\0122012\0122011\012"
  23      31360A32 
  23      3031350A 
  23      32303134 
  23      0A323031 
  24 0041 32303130 		.ascii	"2010\0122009\0122008\0122007\0122006\0122005\012200"
  24      0A323030 
  24      390A3230 
  24      30380A32 
  24      3030370A 
  25 0062 340A3230 		.ascii	"4\0122003\0122002\0122001\0122000\0121999\0121998\012"
  25      30330A32 
  25      3030320A 
  25      32303031 
  25      0A323030 
  26 0082 31393937 		.ascii	"1997\0121996\0121995\0121994\0121993\0121992\012199"
  26      0A313939 
  26      360A3139 
  26      39350A31 
  26      3939340A 
  27 00a3 310A3139 		.ascii	"1\0121990\0121989\0121988\0121987\0121986\0121985\012"
  27      39300A31 
  27      3938390A 
  27      31393838 
  27      0A313938 
  28 00c3 31393834 		.ascii	"1984\0121983\0121982\0121981\0121980\0121979\012197"
  28      0A313938 
  28      330A3139 
  28      38320A31 
  28      3938310A 
  29 00e4 380A3139 		.ascii	"8\0121977\0121976\0121975\0121974\0121973\0121972\012"
ARM GAS  C:\Users\ADMINI~1\AppData\Local\Temp\ccD8dPMj.s 			page 2


  29      37370A31 
  29      3937360A 
  29      31393735 
  29      0A313937 
  30 0104 31393731 		.ascii	"1971\0121970\0121969\0121968\0121967\0121966\012196"
  30      0A313937 
  30      300A3139 
  30      36390A31 
  30      3936380A 
  31 0125 350A3139 		.ascii	"5\0121964\0121963\0121962\0121961\0121960\0121959\012"
  31      36340A31 
  31      3936330A 
  31      31393632 
  31      0A313936 
  32 0145 31393538 		.ascii	"1958\0121957\0121956\0121955\0121954\0121953\012195"
  32      0A313935 
  32      370A3139 
  32      35360A31 
  32      3935350A 
  33 0166 320A3139 		.ascii	"2\0121951\0121950\0121949\0121948\0121947\0121946\012"
  33      35310A31 
  33      3935300A 
  33      31393439 
  33      0A313934 
  34 0186 31393435 		.ascii	"1945\0121944\0121943\0121942\0121941\0121940\012193"
  34      0A313934 
  34      340A3139 
  34      34330A31 
  34      3934320A 
  35 01a7 390A3139 		.ascii	"9\0121938\0121937\0121936\0121935\0121934\0121933\012"
  35      33380A31 
  35      3933370A 
  35      31393336 
  35      0A313933 
  36 01c7 31393332 		.ascii	"1932\0121931\0121930\0121929\0121928\0121927\012192"
  36      0A313933 
  36      310A3139 
  36      33300A31 
  36      3932390A 
  37 01e8 360A3139 		.ascii	"6\0121925\0121924\0121923\0121922\0121921\0121920\012"
  37      32350A31 
  37      3932340A 
  37      31393233 
  37      0A313932 
  38 0208 31393139 		.ascii	"1919\0121918\0121917\0121916\0121915\0121914\012191"
  38      0A313931 
  38      380A3139 
  38      31370A31 
  38      3931360A 
  39 0229 330A3139 		.ascii	"3\0121912\0121911\0121910\0121909\0121908\0121907\012"
  39      31320A31 
  39      3931310A 
  39      31393130 
  39      0A313930 
  40 0249 31393036 		.ascii	"1906\0121905\0121904\0121903\0121902\0121901\000"
  40      0A313930 
  40      350A3139 
ARM GAS  C:\Users\ADMINI~1\AppData\Local\Temp\ccD8dPMj.s 			page 3


  40      30340A31 
  40      3930330A 
  41 0267 00       		.align	2
  42              	.LC1:
  43 0268 30310A30 		.ascii	"01\01202\01203\01204\01205\01206\01207\01208\01209\012"
  43      320A3033 
  43      0A30340A 
  43      30350A30 
  43      360A3037 
  44 0283 31300A31 		.ascii	"10\01211\01212\000"
  44      310A3132 
  44      00
  45              		.section	.text.my_constructor,"ax",%progbits
  46              		.align	1
  47              		.syntax unified
  48              		.thumb
  49              		.thumb_func
  51              	my_constructor:
  52              	.LVL0:
  53              	.LFB159:
  54              		.file 1 "Middlewares/LVGL/GUI/lvgl/src/extra/widgets/calendar/lv_calendar_header_dropdown.c"
   1:Middlewares/LVGL/GUI/lvgl/src/extra/widgets/calendar/lv_calendar_header_dropdown.c **** /**
   2:Middlewares/LVGL/GUI/lvgl/src/extra/widgets/calendar/lv_calendar_header_dropdown.c ****  * @file lv_calendar_obj_dropdown.c
   3:Middlewares/LVGL/GUI/lvgl/src/extra/widgets/calendar/lv_calendar_header_dropdown.c ****  *
   4:Middlewares/LVGL/GUI/lvgl/src/extra/widgets/calendar/lv_calendar_header_dropdown.c ****  */
   5:Middlewares/LVGL/GUI/lvgl/src/extra/widgets/calendar/lv_calendar_header_dropdown.c **** 
   6:Middlewares/LVGL/GUI/lvgl/src/extra/widgets/calendar/lv_calendar_header_dropdown.c **** /*********************
   7:Middlewares/LVGL/GUI/lvgl/src/extra/widgets/calendar/lv_calendar_header_dropdown.c ****  *      INCLUDES
   8:Middlewares/LVGL/GUI/lvgl/src/extra/widgets/calendar/lv_calendar_header_dropdown.c ****  *********************/
   9:Middlewares/LVGL/GUI/lvgl/src/extra/widgets/calendar/lv_calendar_header_dropdown.c **** #include "lv_calendar_header_dropdown.h"
  10:Middlewares/LVGL/GUI/lvgl/src/extra/widgets/calendar/lv_calendar_header_dropdown.c **** #if LV_USE_CALENDAR_HEADER_DROPDOWN
  11:Middlewares/LVGL/GUI/lvgl/src/extra/widgets/calendar/lv_calendar_header_dropdown.c **** 
  12:Middlewares/LVGL/GUI/lvgl/src/extra/widgets/calendar/lv_calendar_header_dropdown.c **** #include "lv_calendar.h"
  13:Middlewares/LVGL/GUI/lvgl/src/extra/widgets/calendar/lv_calendar_header_dropdown.c **** #include "../../../widgets/lv_dropdown.h"
  14:Middlewares/LVGL/GUI/lvgl/src/extra/widgets/calendar/lv_calendar_header_dropdown.c **** #include "../../layouts/flex/lv_flex.h"
  15:Middlewares/LVGL/GUI/lvgl/src/extra/widgets/calendar/lv_calendar_header_dropdown.c **** 
  16:Middlewares/LVGL/GUI/lvgl/src/extra/widgets/calendar/lv_calendar_header_dropdown.c **** /*********************
  17:Middlewares/LVGL/GUI/lvgl/src/extra/widgets/calendar/lv_calendar_header_dropdown.c ****  *      DEFINES
  18:Middlewares/LVGL/GUI/lvgl/src/extra/widgets/calendar/lv_calendar_header_dropdown.c ****  *********************/
  19:Middlewares/LVGL/GUI/lvgl/src/extra/widgets/calendar/lv_calendar_header_dropdown.c **** 
  20:Middlewares/LVGL/GUI/lvgl/src/extra/widgets/calendar/lv_calendar_header_dropdown.c **** /**********************
  21:Middlewares/LVGL/GUI/lvgl/src/extra/widgets/calendar/lv_calendar_header_dropdown.c ****  *      TYPEDEFS
  22:Middlewares/LVGL/GUI/lvgl/src/extra/widgets/calendar/lv_calendar_header_dropdown.c ****  **********************/
  23:Middlewares/LVGL/GUI/lvgl/src/extra/widgets/calendar/lv_calendar_header_dropdown.c **** 
  24:Middlewares/LVGL/GUI/lvgl/src/extra/widgets/calendar/lv_calendar_header_dropdown.c **** /**********************
  25:Middlewares/LVGL/GUI/lvgl/src/extra/widgets/calendar/lv_calendar_header_dropdown.c ****  *  STATIC PROTOTYPES
  26:Middlewares/LVGL/GUI/lvgl/src/extra/widgets/calendar/lv_calendar_header_dropdown.c ****  **********************/
  27:Middlewares/LVGL/GUI/lvgl/src/extra/widgets/calendar/lv_calendar_header_dropdown.c **** static void my_constructor(const lv_obj_class_t * class_p, lv_obj_t * obj);
  28:Middlewares/LVGL/GUI/lvgl/src/extra/widgets/calendar/lv_calendar_header_dropdown.c **** static void year_event_cb(lv_event_t * e);
  29:Middlewares/LVGL/GUI/lvgl/src/extra/widgets/calendar/lv_calendar_header_dropdown.c **** static void month_event_cb(lv_event_t * e);
  30:Middlewares/LVGL/GUI/lvgl/src/extra/widgets/calendar/lv_calendar_header_dropdown.c **** static void value_changed_event_cb(lv_event_t * e);
  31:Middlewares/LVGL/GUI/lvgl/src/extra/widgets/calendar/lv_calendar_header_dropdown.c **** 
  32:Middlewares/LVGL/GUI/lvgl/src/extra/widgets/calendar/lv_calendar_header_dropdown.c **** /**********************
  33:Middlewares/LVGL/GUI/lvgl/src/extra/widgets/calendar/lv_calendar_header_dropdown.c ****  *  STATIC VARIABLES
  34:Middlewares/LVGL/GUI/lvgl/src/extra/widgets/calendar/lv_calendar_header_dropdown.c ****  **********************/
  35:Middlewares/LVGL/GUI/lvgl/src/extra/widgets/calendar/lv_calendar_header_dropdown.c **** const lv_obj_class_t lv_calendar_header_dropdown_class = {
  36:Middlewares/LVGL/GUI/lvgl/src/extra/widgets/calendar/lv_calendar_header_dropdown.c ****     .base_class = &lv_obj_class,
ARM GAS  C:\Users\ADMINI~1\AppData\Local\Temp\ccD8dPMj.s 			page 4


  37:Middlewares/LVGL/GUI/lvgl/src/extra/widgets/calendar/lv_calendar_header_dropdown.c ****     .width_def = LV_PCT(100),
  38:Middlewares/LVGL/GUI/lvgl/src/extra/widgets/calendar/lv_calendar_header_dropdown.c ****     .height_def = LV_SIZE_CONTENT,
  39:Middlewares/LVGL/GUI/lvgl/src/extra/widgets/calendar/lv_calendar_header_dropdown.c ****     .constructor_cb = my_constructor
  40:Middlewares/LVGL/GUI/lvgl/src/extra/widgets/calendar/lv_calendar_header_dropdown.c **** };
  41:Middlewares/LVGL/GUI/lvgl/src/extra/widgets/calendar/lv_calendar_header_dropdown.c **** 
  42:Middlewares/LVGL/GUI/lvgl/src/extra/widgets/calendar/lv_calendar_header_dropdown.c **** static const char * month_list = "01\n02\n03\n04\n05\n06\n07\n08\n09\n10\n11\n12";
  43:Middlewares/LVGL/GUI/lvgl/src/extra/widgets/calendar/lv_calendar_header_dropdown.c **** static const char * year_list = {
  44:Middlewares/LVGL/GUI/lvgl/src/extra/widgets/calendar/lv_calendar_header_dropdown.c ****     "2023\n2022\n2021\n"
  45:Middlewares/LVGL/GUI/lvgl/src/extra/widgets/calendar/lv_calendar_header_dropdown.c ****     "2020\n2019\n2018\n2017\n2016\n2015\n2014\n2013\n2012\n2011\n2010\n2009\n2008\n2007\n2006\n2005
  46:Middlewares/LVGL/GUI/lvgl/src/extra/widgets/calendar/lv_calendar_header_dropdown.c ****     "2000\n1999\n1998\n1997\n1996\n1995\n1994\n1993\n1992\n1991\n1990\n1989\n1988\n1987\n1986\n1985
  47:Middlewares/LVGL/GUI/lvgl/src/extra/widgets/calendar/lv_calendar_header_dropdown.c ****     "1980\n1979\n1978\n1977\n1976\n1975\n1974\n1973\n1972\n1971\n1970\n1969\n1968\n1967\n1966\n1965
  48:Middlewares/LVGL/GUI/lvgl/src/extra/widgets/calendar/lv_calendar_header_dropdown.c ****     "1960\n1959\n1958\n1957\n1956\n1955\n1954\n1953\n1952\n1951\n1950\n1949\n1948\n1947\n1946\n1945
  49:Middlewares/LVGL/GUI/lvgl/src/extra/widgets/calendar/lv_calendar_header_dropdown.c ****     "1940\n1939\n1938\n1937\n1936\n1935\n1934\n1933\n1932\n1931\n1930\n1929\n1928\n1927\n1926\n1925
  50:Middlewares/LVGL/GUI/lvgl/src/extra/widgets/calendar/lv_calendar_header_dropdown.c ****     "1920\n1919\n1918\n1917\n1916\n1915\n1914\n1913\n1912\n1911\n1910\n1909\n1908\n1907\n1906\n1905
  51:Middlewares/LVGL/GUI/lvgl/src/extra/widgets/calendar/lv_calendar_header_dropdown.c **** };
  52:Middlewares/LVGL/GUI/lvgl/src/extra/widgets/calendar/lv_calendar_header_dropdown.c **** 
  53:Middlewares/LVGL/GUI/lvgl/src/extra/widgets/calendar/lv_calendar_header_dropdown.c **** /**********************
  54:Middlewares/LVGL/GUI/lvgl/src/extra/widgets/calendar/lv_calendar_header_dropdown.c ****  *      MACROS
  55:Middlewares/LVGL/GUI/lvgl/src/extra/widgets/calendar/lv_calendar_header_dropdown.c ****  **********************/
  56:Middlewares/LVGL/GUI/lvgl/src/extra/widgets/calendar/lv_calendar_header_dropdown.c **** 
  57:Middlewares/LVGL/GUI/lvgl/src/extra/widgets/calendar/lv_calendar_header_dropdown.c **** /**********************
  58:Middlewares/LVGL/GUI/lvgl/src/extra/widgets/calendar/lv_calendar_header_dropdown.c ****  *   GLOBAL FUNCTIONS
  59:Middlewares/LVGL/GUI/lvgl/src/extra/widgets/calendar/lv_calendar_header_dropdown.c ****  **********************/
  60:Middlewares/LVGL/GUI/lvgl/src/extra/widgets/calendar/lv_calendar_header_dropdown.c **** 
  61:Middlewares/LVGL/GUI/lvgl/src/extra/widgets/calendar/lv_calendar_header_dropdown.c **** lv_obj_t * lv_calendar_header_dropdown_create(lv_obj_t * parent)
  62:Middlewares/LVGL/GUI/lvgl/src/extra/widgets/calendar/lv_calendar_header_dropdown.c **** {
  63:Middlewares/LVGL/GUI/lvgl/src/extra/widgets/calendar/lv_calendar_header_dropdown.c ****     lv_obj_t * obj = lv_obj_class_create_obj(&lv_calendar_header_dropdown_class, parent);
  64:Middlewares/LVGL/GUI/lvgl/src/extra/widgets/calendar/lv_calendar_header_dropdown.c ****     lv_obj_class_init_obj(obj);
  65:Middlewares/LVGL/GUI/lvgl/src/extra/widgets/calendar/lv_calendar_header_dropdown.c **** 
  66:Middlewares/LVGL/GUI/lvgl/src/extra/widgets/calendar/lv_calendar_header_dropdown.c ****     return obj;
  67:Middlewares/LVGL/GUI/lvgl/src/extra/widgets/calendar/lv_calendar_header_dropdown.c **** }
  68:Middlewares/LVGL/GUI/lvgl/src/extra/widgets/calendar/lv_calendar_header_dropdown.c **** 
  69:Middlewares/LVGL/GUI/lvgl/src/extra/widgets/calendar/lv_calendar_header_dropdown.c **** /**********************
  70:Middlewares/LVGL/GUI/lvgl/src/extra/widgets/calendar/lv_calendar_header_dropdown.c ****  *  STATIC FUNCTIONS
  71:Middlewares/LVGL/GUI/lvgl/src/extra/widgets/calendar/lv_calendar_header_dropdown.c ****  **********************/
  72:Middlewares/LVGL/GUI/lvgl/src/extra/widgets/calendar/lv_calendar_header_dropdown.c **** 
  73:Middlewares/LVGL/GUI/lvgl/src/extra/widgets/calendar/lv_calendar_header_dropdown.c **** static void my_constructor(const lv_obj_class_t * class_p, lv_obj_t * obj)
  74:Middlewares/LVGL/GUI/lvgl/src/extra/widgets/calendar/lv_calendar_header_dropdown.c **** {
  55              		.loc 1 74 1 view -0
  56              		.cfi_startproc
  57              		@ args = 0, pretend = 0, frame = 0
  58              		@ frame_needed = 0, uses_anonymous_args = 0
  59              		.loc 1 74 1 is_stmt 0 view .LVU1
  60 0000 70B5     		push	{r4, r5, r6, lr}
  61              	.LCFI0:
  62              		.cfi_def_cfa_offset 16
  63              		.cfi_offset 4, -16
  64              		.cfi_offset 5, -12
  65              		.cfi_offset 6, -8
  66              		.cfi_offset 14, -4
  67 0002 0C46     		mov	r4, r1
  75:Middlewares/LVGL/GUI/lvgl/src/extra/widgets/calendar/lv_calendar_header_dropdown.c ****     LV_TRACE_OBJ_CREATE("begin");
  68              		.loc 1 75 33 is_stmt 1 view .LVU2
  76:Middlewares/LVGL/GUI/lvgl/src/extra/widgets/calendar/lv_calendar_header_dropdown.c **** 
  77:Middlewares/LVGL/GUI/lvgl/src/extra/widgets/calendar/lv_calendar_header_dropdown.c ****     LV_UNUSED(class_p);
  69              		.loc 1 77 5 view .LVU3
  78:Middlewares/LVGL/GUI/lvgl/src/extra/widgets/calendar/lv_calendar_header_dropdown.c **** 
ARM GAS  C:\Users\ADMINI~1\AppData\Local\Temp\ccD8dPMj.s 			page 5


  79:Middlewares/LVGL/GUI/lvgl/src/extra/widgets/calendar/lv_calendar_header_dropdown.c ****     lv_obj_t * calendar = lv_obj_get_parent(obj);
  70              		.loc 1 79 5 view .LVU4
  71              		.loc 1 79 27 is_stmt 0 view .LVU5
  72 0004 0846     		mov	r0, r1
  73              	.LVL1:
  74              		.loc 1 79 27 view .LVU6
  75 0006 FFF7FEFF 		bl	lv_obj_get_parent
  76              	.LVL2:
  77              		.loc 1 79 27 view .LVU7
  78 000a 0646     		mov	r6, r0
  79              	.LVL3:
  80:Middlewares/LVGL/GUI/lvgl/src/extra/widgets/calendar/lv_calendar_header_dropdown.c ****     lv_obj_move_to_index(obj, 0);
  80              		.loc 1 80 5 is_stmt 1 view .LVU8
  81 000c 0021     		movs	r1, #0
  82 000e 2046     		mov	r0, r4
  83              	.LVL4:
  84              		.loc 1 80 5 is_stmt 0 view .LVU9
  85 0010 FFF7FEFF 		bl	lv_obj_move_to_index
  86              	.LVL5:
  81:Middlewares/LVGL/GUI/lvgl/src/extra/widgets/calendar/lv_calendar_header_dropdown.c ****     lv_obj_set_flex_flow(obj, LV_FLEX_FLOW_ROW);
  87              		.loc 1 81 5 is_stmt 1 view .LVU10
  88 0014 0021     		movs	r1, #0
  89 0016 2046     		mov	r0, r4
  90 0018 FFF7FEFF 		bl	lv_obj_set_flex_flow
  91              	.LVL6:
  82:Middlewares/LVGL/GUI/lvgl/src/extra/widgets/calendar/lv_calendar_header_dropdown.c **** 
  83:Middlewares/LVGL/GUI/lvgl/src/extra/widgets/calendar/lv_calendar_header_dropdown.c ****     lv_obj_t * year_dd = lv_dropdown_create(obj);
  92              		.loc 1 83 5 view .LVU11
  93              		.loc 1 83 26 is_stmt 0 view .LVU12
  94 001c 2046     		mov	r0, r4
  95 001e FFF7FEFF 		bl	lv_dropdown_create
  96              	.LVL7:
  97 0022 0546     		mov	r5, r0
  98              	.LVL8:
  84:Middlewares/LVGL/GUI/lvgl/src/extra/widgets/calendar/lv_calendar_header_dropdown.c ****     lv_dropdown_set_options(year_dd, year_list);
  99              		.loc 1 84 5 is_stmt 1 view .LVU13
 100 0024 1449     		ldr	r1, .L3
 101 0026 FFF7FEFF 		bl	lv_dropdown_set_options
 102              	.LVL9:
  85:Middlewares/LVGL/GUI/lvgl/src/extra/widgets/calendar/lv_calendar_header_dropdown.c ****     lv_obj_add_event_cb(year_dd, year_event_cb, LV_EVENT_VALUE_CHANGED, calendar);
 103              		.loc 1 85 5 view .LVU14
 104 002a 3346     		mov	r3, r6
 105 002c 1C22     		movs	r2, #28
 106 002e 1349     		ldr	r1, .L3+4
 107 0030 2846     		mov	r0, r5
 108 0032 FFF7FEFF 		bl	lv_obj_add_event_cb
 109              	.LVL10:
  86:Middlewares/LVGL/GUI/lvgl/src/extra/widgets/calendar/lv_calendar_header_dropdown.c ****     lv_obj_set_flex_grow(year_dd, 1);
 110              		.loc 1 86 5 view .LVU15
 111 0036 0121     		movs	r1, #1
 112 0038 2846     		mov	r0, r5
 113 003a FFF7FEFF 		bl	lv_obj_set_flex_grow
 114              	.LVL11:
  87:Middlewares/LVGL/GUI/lvgl/src/extra/widgets/calendar/lv_calendar_header_dropdown.c **** 
  88:Middlewares/LVGL/GUI/lvgl/src/extra/widgets/calendar/lv_calendar_header_dropdown.c ****     lv_obj_t * month_dd = lv_dropdown_create(obj);
 115              		.loc 1 88 5 view .LVU16
 116              		.loc 1 88 27 is_stmt 0 view .LVU17
ARM GAS  C:\Users\ADMINI~1\AppData\Local\Temp\ccD8dPMj.s 			page 6


 117 003e 2046     		mov	r0, r4
 118 0040 FFF7FEFF 		bl	lv_dropdown_create
 119              	.LVL12:
 120 0044 0546     		mov	r5, r0
 121              	.LVL13:
  89:Middlewares/LVGL/GUI/lvgl/src/extra/widgets/calendar/lv_calendar_header_dropdown.c ****     lv_dropdown_set_options(month_dd, month_list);
 122              		.loc 1 89 5 is_stmt 1 view .LVU18
 123 0046 0E49     		ldr	r1, .L3+8
 124 0048 FFF7FEFF 		bl	lv_dropdown_set_options
 125              	.LVL14:
  90:Middlewares/LVGL/GUI/lvgl/src/extra/widgets/calendar/lv_calendar_header_dropdown.c ****     lv_obj_add_event_cb(month_dd, month_event_cb, LV_EVENT_VALUE_CHANGED, calendar);
 126              		.loc 1 90 5 view .LVU19
 127 004c 3346     		mov	r3, r6
 128 004e 1C22     		movs	r2, #28
 129 0050 0C49     		ldr	r1, .L3+12
 130 0052 2846     		mov	r0, r5
 131 0054 FFF7FEFF 		bl	lv_obj_add_event_cb
 132              	.LVL15:
  91:Middlewares/LVGL/GUI/lvgl/src/extra/widgets/calendar/lv_calendar_header_dropdown.c ****     lv_obj_set_flex_grow(month_dd, 1);
 133              		.loc 1 91 5 view .LVU20
 134 0058 0121     		movs	r1, #1
 135 005a 2846     		mov	r0, r5
 136 005c FFF7FEFF 		bl	lv_obj_set_flex_grow
 137              	.LVL16:
  92:Middlewares/LVGL/GUI/lvgl/src/extra/widgets/calendar/lv_calendar_header_dropdown.c **** 
  93:Middlewares/LVGL/GUI/lvgl/src/extra/widgets/calendar/lv_calendar_header_dropdown.c ****     lv_obj_add_event_cb(obj, value_changed_event_cb, LV_EVENT_VALUE_CHANGED, NULL);
 138              		.loc 1 93 5 view .LVU21
 139 0060 0023     		movs	r3, #0
 140 0062 1C22     		movs	r2, #28
 141 0064 0849     		ldr	r1, .L3+16
 142 0066 2046     		mov	r0, r4
 143 0068 FFF7FEFF 		bl	lv_obj_add_event_cb
 144              	.LVL17:
  94:Middlewares/LVGL/GUI/lvgl/src/extra/widgets/calendar/lv_calendar_header_dropdown.c ****     /*Refresh the drop downs*/
  95:Middlewares/LVGL/GUI/lvgl/src/extra/widgets/calendar/lv_calendar_header_dropdown.c ****     lv_event_send(obj, LV_EVENT_VALUE_CHANGED, NULL);
 145              		.loc 1 95 5 view .LVU22
 146 006c 0022     		movs	r2, #0
 147 006e 1C21     		movs	r1, #28
 148 0070 2046     		mov	r0, r4
 149 0072 FFF7FEFF 		bl	lv_event_send
 150              	.LVL18:
  96:Middlewares/LVGL/GUI/lvgl/src/extra/widgets/calendar/lv_calendar_header_dropdown.c **** }
 151              		.loc 1 96 1 is_stmt 0 view .LVU23
 152 0076 70BD     		pop	{r4, r5, r6, pc}
 153              	.LVL19:
 154              	.L4:
 155              		.loc 1 96 1 view .LVU24
 156              		.align	2
 157              	.L3:
 158 0078 00000000 		.word	.LC0
 159 007c 00000000 		.word	year_event_cb
 160 0080 68020000 		.word	.LC1
 161 0084 00000000 		.word	month_event_cb
 162 0088 00000000 		.word	value_changed_event_cb
 163              		.cfi_endproc
 164              	.LFE159:
 166              		.section	.text.value_changed_event_cb,"ax",%progbits
ARM GAS  C:\Users\ADMINI~1\AppData\Local\Temp\ccD8dPMj.s 			page 7


 167              		.align	1
 168              		.syntax unified
 169              		.thumb
 170              		.thumb_func
 172              	value_changed_event_cb:
 173              	.LVL20:
 174              	.LFB162:
  97:Middlewares/LVGL/GUI/lvgl/src/extra/widgets/calendar/lv_calendar_header_dropdown.c **** 
  98:Middlewares/LVGL/GUI/lvgl/src/extra/widgets/calendar/lv_calendar_header_dropdown.c **** static void month_event_cb(lv_event_t * e)
  99:Middlewares/LVGL/GUI/lvgl/src/extra/widgets/calendar/lv_calendar_header_dropdown.c **** {
 100:Middlewares/LVGL/GUI/lvgl/src/extra/widgets/calendar/lv_calendar_header_dropdown.c ****     lv_obj_t * dropdown = lv_event_get_target(e);
 101:Middlewares/LVGL/GUI/lvgl/src/extra/widgets/calendar/lv_calendar_header_dropdown.c ****     lv_obj_t * calendar = lv_event_get_user_data(e);
 102:Middlewares/LVGL/GUI/lvgl/src/extra/widgets/calendar/lv_calendar_header_dropdown.c **** 
 103:Middlewares/LVGL/GUI/lvgl/src/extra/widgets/calendar/lv_calendar_header_dropdown.c ****     uint16_t sel = lv_dropdown_get_selected(dropdown);
 104:Middlewares/LVGL/GUI/lvgl/src/extra/widgets/calendar/lv_calendar_header_dropdown.c **** 
 105:Middlewares/LVGL/GUI/lvgl/src/extra/widgets/calendar/lv_calendar_header_dropdown.c ****     const lv_calendar_date_t * d;
 106:Middlewares/LVGL/GUI/lvgl/src/extra/widgets/calendar/lv_calendar_header_dropdown.c ****     d = lv_calendar_get_showed_date(calendar);
 107:Middlewares/LVGL/GUI/lvgl/src/extra/widgets/calendar/lv_calendar_header_dropdown.c ****     lv_calendar_date_t newd = *d;
 108:Middlewares/LVGL/GUI/lvgl/src/extra/widgets/calendar/lv_calendar_header_dropdown.c ****     newd.month = sel + 1;
 109:Middlewares/LVGL/GUI/lvgl/src/extra/widgets/calendar/lv_calendar_header_dropdown.c **** 
 110:Middlewares/LVGL/GUI/lvgl/src/extra/widgets/calendar/lv_calendar_header_dropdown.c ****     lv_calendar_set_showed_date(calendar, newd.year, newd.month);
 111:Middlewares/LVGL/GUI/lvgl/src/extra/widgets/calendar/lv_calendar_header_dropdown.c **** }
 112:Middlewares/LVGL/GUI/lvgl/src/extra/widgets/calendar/lv_calendar_header_dropdown.c **** 
 113:Middlewares/LVGL/GUI/lvgl/src/extra/widgets/calendar/lv_calendar_header_dropdown.c **** static void year_event_cb(lv_event_t * e)
 114:Middlewares/LVGL/GUI/lvgl/src/extra/widgets/calendar/lv_calendar_header_dropdown.c **** {
 115:Middlewares/LVGL/GUI/lvgl/src/extra/widgets/calendar/lv_calendar_header_dropdown.c ****     lv_obj_t * dropdown = lv_event_get_target(e);
 116:Middlewares/LVGL/GUI/lvgl/src/extra/widgets/calendar/lv_calendar_header_dropdown.c ****     lv_obj_t * calendar = lv_event_get_user_data(e);
 117:Middlewares/LVGL/GUI/lvgl/src/extra/widgets/calendar/lv_calendar_header_dropdown.c **** 
 118:Middlewares/LVGL/GUI/lvgl/src/extra/widgets/calendar/lv_calendar_header_dropdown.c ****     uint16_t sel = lv_dropdown_get_selected(dropdown);
 119:Middlewares/LVGL/GUI/lvgl/src/extra/widgets/calendar/lv_calendar_header_dropdown.c **** 
 120:Middlewares/LVGL/GUI/lvgl/src/extra/widgets/calendar/lv_calendar_header_dropdown.c ****     const lv_calendar_date_t * d;
 121:Middlewares/LVGL/GUI/lvgl/src/extra/widgets/calendar/lv_calendar_header_dropdown.c ****     d = lv_calendar_get_showed_date(calendar);
 122:Middlewares/LVGL/GUI/lvgl/src/extra/widgets/calendar/lv_calendar_header_dropdown.c ****     lv_calendar_date_t newd = *d;
 123:Middlewares/LVGL/GUI/lvgl/src/extra/widgets/calendar/lv_calendar_header_dropdown.c ****     newd.year = 2023 - sel;
 124:Middlewares/LVGL/GUI/lvgl/src/extra/widgets/calendar/lv_calendar_header_dropdown.c **** 
 125:Middlewares/LVGL/GUI/lvgl/src/extra/widgets/calendar/lv_calendar_header_dropdown.c ****     lv_calendar_set_showed_date(calendar, newd.year, newd.month);
 126:Middlewares/LVGL/GUI/lvgl/src/extra/widgets/calendar/lv_calendar_header_dropdown.c **** }
 127:Middlewares/LVGL/GUI/lvgl/src/extra/widgets/calendar/lv_calendar_header_dropdown.c **** 
 128:Middlewares/LVGL/GUI/lvgl/src/extra/widgets/calendar/lv_calendar_header_dropdown.c **** static void value_changed_event_cb(lv_event_t * e)
 129:Middlewares/LVGL/GUI/lvgl/src/extra/widgets/calendar/lv_calendar_header_dropdown.c **** {
 175              		.loc 1 129 1 is_stmt 1 view -0
 176              		.cfi_startproc
 177              		@ args = 0, pretend = 0, frame = 0
 178              		@ frame_needed = 0, uses_anonymous_args = 0
 179              		.loc 1 129 1 is_stmt 0 view .LVU26
 180 0000 38B5     		push	{r3, r4, r5, lr}
 181              	.LCFI1:
 182              		.cfi_def_cfa_offset 16
 183              		.cfi_offset 3, -16
 184              		.cfi_offset 4, -12
 185              		.cfi_offset 5, -8
 186              		.cfi_offset 14, -4
 130:Middlewares/LVGL/GUI/lvgl/src/extra/widgets/calendar/lv_calendar_header_dropdown.c ****     lv_obj_t * header = lv_event_get_target(e);
 187              		.loc 1 130 5 is_stmt 1 view .LVU27
 188              		.loc 1 130 25 is_stmt 0 view .LVU28
 189 0002 FFF7FEFF 		bl	lv_event_get_target
 190              	.LVL21:
ARM GAS  C:\Users\ADMINI~1\AppData\Local\Temp\ccD8dPMj.s 			page 8


 191              		.loc 1 130 25 view .LVU29
 192 0006 0546     		mov	r5, r0
 193              	.LVL22:
 131:Middlewares/LVGL/GUI/lvgl/src/extra/widgets/calendar/lv_calendar_header_dropdown.c ****     lv_obj_t * calendar = lv_obj_get_parent(header);
 194              		.loc 1 131 5 is_stmt 1 view .LVU30
 195              		.loc 1 131 27 is_stmt 0 view .LVU31
 196 0008 FFF7FEFF 		bl	lv_obj_get_parent
 197              	.LVL23:
 132:Middlewares/LVGL/GUI/lvgl/src/extra/widgets/calendar/lv_calendar_header_dropdown.c ****     const lv_calendar_date_t * cur_date = lv_calendar_get_showed_date(calendar);
 198              		.loc 1 132 5 is_stmt 1 view .LVU32
 199              		.loc 1 132 43 is_stmt 0 view .LVU33
 200 000c FFF7FEFF 		bl	lv_calendar_get_showed_date
 201              	.LVL24:
 202              		.loc 1 132 43 view .LVU34
 203 0010 0446     		mov	r4, r0
 204              	.LVL25:
 133:Middlewares/LVGL/GUI/lvgl/src/extra/widgets/calendar/lv_calendar_header_dropdown.c **** 
 134:Middlewares/LVGL/GUI/lvgl/src/extra/widgets/calendar/lv_calendar_header_dropdown.c ****     lv_obj_t * year_dd = lv_obj_get_child(header, 0);
 205              		.loc 1 134 5 is_stmt 1 view .LVU35
 206              		.loc 1 134 26 is_stmt 0 view .LVU36
 207 0012 0021     		movs	r1, #0
 208 0014 2846     		mov	r0, r5
 209              	.LVL26:
 210              		.loc 1 134 26 view .LVU37
 211 0016 FFF7FEFF 		bl	lv_obj_get_child
 212              	.LVL27:
 135:Middlewares/LVGL/GUI/lvgl/src/extra/widgets/calendar/lv_calendar_header_dropdown.c ****     lv_dropdown_set_selected(year_dd, 2023 - cur_date->year);
 213              		.loc 1 135 5 is_stmt 1 view .LVU38
 214              		.loc 1 135 54 is_stmt 0 view .LVU39
 215 001a 2188     		ldrh	r1, [r4]
 216              		.loc 1 135 5 view .LVU40
 217 001c C1F5FC61 		rsb	r1, r1, #2016
 218 0020 0731     		adds	r1, r1, #7
 219 0022 89B2     		uxth	r1, r1
 220 0024 FFF7FEFF 		bl	lv_dropdown_set_selected
 221              	.LVL28:
 136:Middlewares/LVGL/GUI/lvgl/src/extra/widgets/calendar/lv_calendar_header_dropdown.c **** 
 137:Middlewares/LVGL/GUI/lvgl/src/extra/widgets/calendar/lv_calendar_header_dropdown.c ****     lv_obj_t * month_dd = lv_obj_get_child(header, 1);
 222              		.loc 1 137 5 is_stmt 1 view .LVU41
 223              		.loc 1 137 27 is_stmt 0 view .LVU42
 224 0028 0121     		movs	r1, #1
 225 002a 2846     		mov	r0, r5
 226 002c FFF7FEFF 		bl	lv_obj_get_child
 227              	.LVL29:
 138:Middlewares/LVGL/GUI/lvgl/src/extra/widgets/calendar/lv_calendar_header_dropdown.c ****     lv_dropdown_set_selected(month_dd, cur_date->month - 1);
 228              		.loc 1 138 5 is_stmt 1 view .LVU43
 229              		.loc 1 138 48 is_stmt 0 view .LVU44
 230 0030 94F90210 		ldrsb	r1, [r4, #2]
 231 0034 89B2     		uxth	r1, r1
 232              		.loc 1 138 5 view .LVU45
 233 0036 0139     		subs	r1, r1, #1
 234 0038 89B2     		uxth	r1, r1
 235 003a FFF7FEFF 		bl	lv_dropdown_set_selected
 236              	.LVL30:
 139:Middlewares/LVGL/GUI/lvgl/src/extra/widgets/calendar/lv_calendar_header_dropdown.c **** }
 237              		.loc 1 139 1 view .LVU46
 238 003e 38BD     		pop	{r3, r4, r5, pc}
ARM GAS  C:\Users\ADMINI~1\AppData\Local\Temp\ccD8dPMj.s 			page 9


 239              		.loc 1 139 1 view .LVU47
 240              		.cfi_endproc
 241              	.LFE162:
 243              		.section	.text.month_event_cb,"ax",%progbits
 244              		.align	1
 245              		.syntax unified
 246              		.thumb
 247              		.thumb_func
 249              	month_event_cb:
 250              	.LVL31:
 251              	.LFB160:
  99:Middlewares/LVGL/GUI/lvgl/src/extra/widgets/calendar/lv_calendar_header_dropdown.c ****     lv_obj_t * dropdown = lv_event_get_target(e);
 252              		.loc 1 99 1 is_stmt 1 view -0
 253              		.cfi_startproc
 254              		@ args = 0, pretend = 0, frame = 8
 255              		@ frame_needed = 0, uses_anonymous_args = 0
  99:Middlewares/LVGL/GUI/lvgl/src/extra/widgets/calendar/lv_calendar_header_dropdown.c ****     lv_obj_t * dropdown = lv_event_get_target(e);
 256              		.loc 1 99 1 is_stmt 0 view .LVU49
 257 0000 30B5     		push	{r4, r5, lr}
 258              	.LCFI2:
 259              		.cfi_def_cfa_offset 12
 260              		.cfi_offset 4, -12
 261              		.cfi_offset 5, -8
 262              		.cfi_offset 14, -4
 263 0002 83B0     		sub	sp, sp, #12
 264              	.LCFI3:
 265              		.cfi_def_cfa_offset 24
 266 0004 0546     		mov	r5, r0
 100:Middlewares/LVGL/GUI/lvgl/src/extra/widgets/calendar/lv_calendar_header_dropdown.c ****     lv_obj_t * calendar = lv_event_get_user_data(e);
 267              		.loc 1 100 5 is_stmt 1 view .LVU50
 100:Middlewares/LVGL/GUI/lvgl/src/extra/widgets/calendar/lv_calendar_header_dropdown.c ****     lv_obj_t * calendar = lv_event_get_user_data(e);
 268              		.loc 1 100 27 is_stmt 0 view .LVU51
 269 0006 FFF7FEFF 		bl	lv_event_get_target
 270              	.LVL32:
 100:Middlewares/LVGL/GUI/lvgl/src/extra/widgets/calendar/lv_calendar_header_dropdown.c ****     lv_obj_t * calendar = lv_event_get_user_data(e);
 271              		.loc 1 100 27 view .LVU52
 272 000a 0446     		mov	r4, r0
 273              	.LVL33:
 101:Middlewares/LVGL/GUI/lvgl/src/extra/widgets/calendar/lv_calendar_header_dropdown.c **** 
 274              		.loc 1 101 5 is_stmt 1 view .LVU53
 101:Middlewares/LVGL/GUI/lvgl/src/extra/widgets/calendar/lv_calendar_header_dropdown.c **** 
 275              		.loc 1 101 27 is_stmt 0 view .LVU54
 276 000c 2846     		mov	r0, r5
 277              	.LVL34:
 101:Middlewares/LVGL/GUI/lvgl/src/extra/widgets/calendar/lv_calendar_header_dropdown.c **** 
 278              		.loc 1 101 27 view .LVU55
 279 000e FFF7FEFF 		bl	lv_event_get_user_data
 280              	.LVL35:
 281 0012 0546     		mov	r5, r0
 282              	.LVL36:
 103:Middlewares/LVGL/GUI/lvgl/src/extra/widgets/calendar/lv_calendar_header_dropdown.c **** 
 283              		.loc 1 103 5 is_stmt 1 view .LVU56
 103:Middlewares/LVGL/GUI/lvgl/src/extra/widgets/calendar/lv_calendar_header_dropdown.c **** 
 284              		.loc 1 103 20 is_stmt 0 view .LVU57
 285 0014 2046     		mov	r0, r4
 286              	.LVL37:
 103:Middlewares/LVGL/GUI/lvgl/src/extra/widgets/calendar/lv_calendar_header_dropdown.c **** 
ARM GAS  C:\Users\ADMINI~1\AppData\Local\Temp\ccD8dPMj.s 			page 10


 287              		.loc 1 103 20 view .LVU58
 288 0016 FFF7FEFF 		bl	lv_dropdown_get_selected
 289              	.LVL38:
 290 001a 0446     		mov	r4, r0
 291              	.LVL39:
 105:Middlewares/LVGL/GUI/lvgl/src/extra/widgets/calendar/lv_calendar_header_dropdown.c ****     d = lv_calendar_get_showed_date(calendar);
 292              		.loc 1 105 5 is_stmt 1 view .LVU59
 106:Middlewares/LVGL/GUI/lvgl/src/extra/widgets/calendar/lv_calendar_header_dropdown.c ****     lv_calendar_date_t newd = *d;
 293              		.loc 1 106 5 view .LVU60
 106:Middlewares/LVGL/GUI/lvgl/src/extra/widgets/calendar/lv_calendar_header_dropdown.c ****     lv_calendar_date_t newd = *d;
 294              		.loc 1 106 9 is_stmt 0 view .LVU61
 295 001c 2846     		mov	r0, r5
 296 001e FFF7FEFF 		bl	lv_calendar_get_showed_date
 297              	.LVL40:
 107:Middlewares/LVGL/GUI/lvgl/src/extra/widgets/calendar/lv_calendar_header_dropdown.c ****     newd.month = sel + 1;
 298              		.loc 1 107 5 is_stmt 1 view .LVU62
 107:Middlewares/LVGL/GUI/lvgl/src/extra/widgets/calendar/lv_calendar_header_dropdown.c ****     newd.month = sel + 1;
 299              		.loc 1 107 24 is_stmt 0 view .LVU63
 300 0022 0068     		ldr	r0, [r0]	@ unaligned
 301              	.LVL41:
 107:Middlewares/LVGL/GUI/lvgl/src/extra/widgets/calendar/lv_calendar_header_dropdown.c ****     newd.month = sel + 1;
 302              		.loc 1 107 24 view .LVU64
 303 0024 0190     		str	r0, [sp, #4]
 108:Middlewares/LVGL/GUI/lvgl/src/extra/widgets/calendar/lv_calendar_header_dropdown.c **** 
 304              		.loc 1 108 5 is_stmt 1 view .LVU65
 108:Middlewares/LVGL/GUI/lvgl/src/extra/widgets/calendar/lv_calendar_header_dropdown.c **** 
 305              		.loc 1 108 22 is_stmt 0 view .LVU66
 306 0026 621C     		adds	r2, r4, #1
 307 0028 52B2     		sxtb	r2, r2
 108:Middlewares/LVGL/GUI/lvgl/src/extra/widgets/calendar/lv_calendar_header_dropdown.c **** 
 308              		.loc 1 108 16 view .LVU67
 309 002a 8DF80620 		strb	r2, [sp, #6]
 110:Middlewares/LVGL/GUI/lvgl/src/extra/widgets/calendar/lv_calendar_header_dropdown.c **** }
 310              		.loc 1 110 5 is_stmt 1 view .LVU68
 311 002e BDF80410 		ldrh	r1, [sp, #4]
 312 0032 2846     		mov	r0, r5
 313 0034 FFF7FEFF 		bl	lv_calendar_set_showed_date
 314              	.LVL42:
 111:Middlewares/LVGL/GUI/lvgl/src/extra/widgets/calendar/lv_calendar_header_dropdown.c **** 
 315              		.loc 1 111 1 is_stmt 0 view .LVU69
 316 0038 03B0     		add	sp, sp, #12
 317              	.LCFI4:
 318              		.cfi_def_cfa_offset 12
 319              		@ sp needed
 320 003a 30BD     		pop	{r4, r5, pc}
 111:Middlewares/LVGL/GUI/lvgl/src/extra/widgets/calendar/lv_calendar_header_dropdown.c **** 
 321              		.loc 1 111 1 view .LVU70
 322              		.cfi_endproc
 323              	.LFE160:
 325              		.section	.text.year_event_cb,"ax",%progbits
 326              		.align	1
 327              		.syntax unified
 328              		.thumb
 329              		.thumb_func
 331              	year_event_cb:
 332              	.LVL43:
 333              	.LFB161:
ARM GAS  C:\Users\ADMINI~1\AppData\Local\Temp\ccD8dPMj.s 			page 11


 114:Middlewares/LVGL/GUI/lvgl/src/extra/widgets/calendar/lv_calendar_header_dropdown.c ****     lv_obj_t * dropdown = lv_event_get_target(e);
 334              		.loc 1 114 1 is_stmt 1 view -0
 335              		.cfi_startproc
 336              		@ args = 0, pretend = 0, frame = 8
 337              		@ frame_needed = 0, uses_anonymous_args = 0
 114:Middlewares/LVGL/GUI/lvgl/src/extra/widgets/calendar/lv_calendar_header_dropdown.c ****     lv_obj_t * dropdown = lv_event_get_target(e);
 338              		.loc 1 114 1 is_stmt 0 view .LVU72
 339 0000 30B5     		push	{r4, r5, lr}
 340              	.LCFI5:
 341              		.cfi_def_cfa_offset 12
 342              		.cfi_offset 4, -12
 343              		.cfi_offset 5, -8
 344              		.cfi_offset 14, -4
 345 0002 83B0     		sub	sp, sp, #12
 346              	.LCFI6:
 347              		.cfi_def_cfa_offset 24
 348 0004 0546     		mov	r5, r0
 115:Middlewares/LVGL/GUI/lvgl/src/extra/widgets/calendar/lv_calendar_header_dropdown.c ****     lv_obj_t * calendar = lv_event_get_user_data(e);
 349              		.loc 1 115 5 is_stmt 1 view .LVU73
 115:Middlewares/LVGL/GUI/lvgl/src/extra/widgets/calendar/lv_calendar_header_dropdown.c ****     lv_obj_t * calendar = lv_event_get_user_data(e);
 350              		.loc 1 115 27 is_stmt 0 view .LVU74
 351 0006 FFF7FEFF 		bl	lv_event_get_target
 352              	.LVL44:
 115:Middlewares/LVGL/GUI/lvgl/src/extra/widgets/calendar/lv_calendar_header_dropdown.c ****     lv_obj_t * calendar = lv_event_get_user_data(e);
 353              		.loc 1 115 27 view .LVU75
 354 000a 0446     		mov	r4, r0
 355              	.LVL45:
 116:Middlewares/LVGL/GUI/lvgl/src/extra/widgets/calendar/lv_calendar_header_dropdown.c **** 
 356              		.loc 1 116 5 is_stmt 1 view .LVU76
 116:Middlewares/LVGL/GUI/lvgl/src/extra/widgets/calendar/lv_calendar_header_dropdown.c **** 
 357              		.loc 1 116 27 is_stmt 0 view .LVU77
 358 000c 2846     		mov	r0, r5
 359              	.LVL46:
 116:Middlewares/LVGL/GUI/lvgl/src/extra/widgets/calendar/lv_calendar_header_dropdown.c **** 
 360              		.loc 1 116 27 view .LVU78
 361 000e FFF7FEFF 		bl	lv_event_get_user_data
 362              	.LVL47:
 363 0012 0546     		mov	r5, r0
 364              	.LVL48:
 118:Middlewares/LVGL/GUI/lvgl/src/extra/widgets/calendar/lv_calendar_header_dropdown.c **** 
 365              		.loc 1 118 5 is_stmt 1 view .LVU79
 118:Middlewares/LVGL/GUI/lvgl/src/extra/widgets/calendar/lv_calendar_header_dropdown.c **** 
 366              		.loc 1 118 20 is_stmt 0 view .LVU80
 367 0014 2046     		mov	r0, r4
 368              	.LVL49:
 118:Middlewares/LVGL/GUI/lvgl/src/extra/widgets/calendar/lv_calendar_header_dropdown.c **** 
 369              		.loc 1 118 20 view .LVU81
 370 0016 FFF7FEFF 		bl	lv_dropdown_get_selected
 371              	.LVL50:
 372 001a 0446     		mov	r4, r0
 373              	.LVL51:
 120:Middlewares/LVGL/GUI/lvgl/src/extra/widgets/calendar/lv_calendar_header_dropdown.c ****     d = lv_calendar_get_showed_date(calendar);
 374              		.loc 1 120 5 is_stmt 1 view .LVU82
 121:Middlewares/LVGL/GUI/lvgl/src/extra/widgets/calendar/lv_calendar_header_dropdown.c ****     lv_calendar_date_t newd = *d;
 375              		.loc 1 121 5 view .LVU83
 121:Middlewares/LVGL/GUI/lvgl/src/extra/widgets/calendar/lv_calendar_header_dropdown.c ****     lv_calendar_date_t newd = *d;
 376              		.loc 1 121 9 is_stmt 0 view .LVU84
ARM GAS  C:\Users\ADMINI~1\AppData\Local\Temp\ccD8dPMj.s 			page 12


 377 001c 2846     		mov	r0, r5
 378 001e FFF7FEFF 		bl	lv_calendar_get_showed_date
 379              	.LVL52:
 122:Middlewares/LVGL/GUI/lvgl/src/extra/widgets/calendar/lv_calendar_header_dropdown.c ****     newd.year = 2023 - sel;
 380              		.loc 1 122 5 is_stmt 1 view .LVU85
 122:Middlewares/LVGL/GUI/lvgl/src/extra/widgets/calendar/lv_calendar_header_dropdown.c ****     newd.year = 2023 - sel;
 381              		.loc 1 122 24 is_stmt 0 view .LVU86
 382 0022 0068     		ldr	r0, [r0]	@ unaligned
 383              	.LVL53:
 122:Middlewares/LVGL/GUI/lvgl/src/extra/widgets/calendar/lv_calendar_header_dropdown.c ****     newd.year = 2023 - sel;
 384              		.loc 1 122 24 view .LVU87
 385 0024 0190     		str	r0, [sp, #4]
 123:Middlewares/LVGL/GUI/lvgl/src/extra/widgets/calendar/lv_calendar_header_dropdown.c **** 
 386              		.loc 1 123 5 is_stmt 1 view .LVU88
 123:Middlewares/LVGL/GUI/lvgl/src/extra/widgets/calendar/lv_calendar_header_dropdown.c **** 
 387              		.loc 1 123 22 is_stmt 0 view .LVU89
 388 0026 C4F5FC61 		rsb	r1, r4, #2016
 389 002a 0731     		adds	r1, r1, #7
 390 002c 89B2     		uxth	r1, r1
 123:Middlewares/LVGL/GUI/lvgl/src/extra/widgets/calendar/lv_calendar_header_dropdown.c **** 
 391              		.loc 1 123 15 view .LVU90
 392 002e ADF80410 		strh	r1, [sp, #4]	@ movhi
 125:Middlewares/LVGL/GUI/lvgl/src/extra/widgets/calendar/lv_calendar_header_dropdown.c **** }
 393              		.loc 1 125 5 is_stmt 1 view .LVU91
 394 0032 9DF90620 		ldrsb	r2, [sp, #6]
 395 0036 2846     		mov	r0, r5
 396 0038 FFF7FEFF 		bl	lv_calendar_set_showed_date
 397              	.LVL54:
 126:Middlewares/LVGL/GUI/lvgl/src/extra/widgets/calendar/lv_calendar_header_dropdown.c **** 
 398              		.loc 1 126 1 is_stmt 0 view .LVU92
 399 003c 03B0     		add	sp, sp, #12
 400              	.LCFI7:
 401              		.cfi_def_cfa_offset 12
 402              		@ sp needed
 403 003e 30BD     		pop	{r4, r5, pc}
 126:Middlewares/LVGL/GUI/lvgl/src/extra/widgets/calendar/lv_calendar_header_dropdown.c **** 
 404              		.loc 1 126 1 view .LVU93
 405              		.cfi_endproc
 406              	.LFE161:
 408              		.section	.text.lv_calendar_header_dropdown_create,"ax",%progbits
 409              		.align	1
 410              		.global	lv_calendar_header_dropdown_create
 411              		.syntax unified
 412              		.thumb
 413              		.thumb_func
 415              	lv_calendar_header_dropdown_create:
 416              	.LVL55:
 417              	.LFB158:
  62:Middlewares/LVGL/GUI/lvgl/src/extra/widgets/calendar/lv_calendar_header_dropdown.c ****     lv_obj_t * obj = lv_obj_class_create_obj(&lv_calendar_header_dropdown_class, parent);
 418              		.loc 1 62 1 is_stmt 1 view -0
 419              		.cfi_startproc
 420              		@ args = 0, pretend = 0, frame = 0
 421              		@ frame_needed = 0, uses_anonymous_args = 0
  62:Middlewares/LVGL/GUI/lvgl/src/extra/widgets/calendar/lv_calendar_header_dropdown.c ****     lv_obj_t * obj = lv_obj_class_create_obj(&lv_calendar_header_dropdown_class, parent);
 422              		.loc 1 62 1 is_stmt 0 view .LVU95
 423 0000 10B5     		push	{r4, lr}
 424              	.LCFI8:
ARM GAS  C:\Users\ADMINI~1\AppData\Local\Temp\ccD8dPMj.s 			page 13


 425              		.cfi_def_cfa_offset 8
 426              		.cfi_offset 4, -8
 427              		.cfi_offset 14, -4
 428 0002 0146     		mov	r1, r0
  63:Middlewares/LVGL/GUI/lvgl/src/extra/widgets/calendar/lv_calendar_header_dropdown.c ****     lv_obj_class_init_obj(obj);
 429              		.loc 1 63 5 is_stmt 1 view .LVU96
  63:Middlewares/LVGL/GUI/lvgl/src/extra/widgets/calendar/lv_calendar_header_dropdown.c ****     lv_obj_class_init_obj(obj);
 430              		.loc 1 63 22 is_stmt 0 view .LVU97
 431 0004 0348     		ldr	r0, .L13
 432              	.LVL56:
  63:Middlewares/LVGL/GUI/lvgl/src/extra/widgets/calendar/lv_calendar_header_dropdown.c ****     lv_obj_class_init_obj(obj);
 433              		.loc 1 63 22 view .LVU98
 434 0006 FFF7FEFF 		bl	lv_obj_class_create_obj
 435              	.LVL57:
  63:Middlewares/LVGL/GUI/lvgl/src/extra/widgets/calendar/lv_calendar_header_dropdown.c ****     lv_obj_class_init_obj(obj);
 436              		.loc 1 63 22 view .LVU99
 437 000a 0446     		mov	r4, r0
 438              	.LVL58:
  64:Middlewares/LVGL/GUI/lvgl/src/extra/widgets/calendar/lv_calendar_header_dropdown.c **** 
 439              		.loc 1 64 5 is_stmt 1 view .LVU100
 440 000c FFF7FEFF 		bl	lv_obj_class_init_obj
 441              	.LVL59:
  66:Middlewares/LVGL/GUI/lvgl/src/extra/widgets/calendar/lv_calendar_header_dropdown.c **** }
 442              		.loc 1 66 5 view .LVU101
  67:Middlewares/LVGL/GUI/lvgl/src/extra/widgets/calendar/lv_calendar_header_dropdown.c **** 
 443              		.loc 1 67 1 is_stmt 0 view .LVU102
 444 0010 2046     		mov	r0, r4
 445 0012 10BD     		pop	{r4, pc}
 446              	.LVL60:
 447              	.L14:
  67:Middlewares/LVGL/GUI/lvgl/src/extra/widgets/calendar/lv_calendar_header_dropdown.c **** 
 448              		.loc 1 67 1 view .LVU103
 449              		.align	2
 450              	.L13:
 451 0014 00000000 		.word	.LANCHOR0
 452              		.cfi_endproc
 453              	.LFE158:
 455              		.global	lv_calendar_header_dropdown_class
 456              		.section	.rodata.lv_calendar_header_dropdown_class,"a"
 457              		.align	2
 458              		.set	.LANCHOR0,. + 0
 461              	lv_calendar_header_dropdown_class:
 462 0000 00000000 		.word	lv_obj_class
 463 0004 00000000 		.word	my_constructor
 464 0008 00000000 		.space	12
 464      00000000 
 464      00000000 
 465 0014 64000020 		.word	536871012
 466 0018 D1070020 		.word	536872913
 467 001c 00000000 		.space	4
 468              		.text
 469              	.Letext0:
 470              		.file 2 "c:\\gnu arm embedded toolchain\\10 2021.10\\arm-none-eabi\\include\\machine\\_default_typ
 471              		.file 3 "c:\\gnu arm embedded toolchain\\10 2021.10\\arm-none-eabi\\include\\sys\\_stdint.h"
 472              		.file 4 "Middlewares/LVGL/GUI/lvgl/src/extra/widgets/calendar/../../../core/../misc/../font/../mis
 473              		.file 5 "Middlewares/LVGL/GUI/lvgl/src/extra/widgets/calendar/../../../core/../misc/lv_color.h"
 474              		.file 6 "Middlewares/LVGL/GUI/lvgl/src/extra/widgets/calendar/../../../core/../misc/lv_style.h"
ARM GAS  C:\Users\ADMINI~1\AppData\Local\Temp\ccD8dPMj.s 			page 14


 475              		.file 7 "Middlewares/LVGL/GUI/lvgl/src/extra/widgets/calendar/../../../core/lv_obj.h"
 476              		.file 8 "Middlewares/LVGL/GUI/lvgl/src/extra/widgets/calendar/../../../core/../hal/../misc/lv_ll.h
 477              		.file 9 "Middlewares/LVGL/GUI/lvgl/src/extra/widgets/calendar/../../../core/lv_group.h"
 478              		.file 10 "Middlewares/LVGL/GUI/lvgl/src/extra/widgets/calendar/../../../core/lv_obj_scroll.h"
 479              		.file 11 "Middlewares/LVGL/GUI/lvgl/src/extra/widgets/calendar/../../../core/lv_obj_style.h"
 480              		.file 12 "Middlewares/LVGL/GUI/lvgl/src/extra/widgets/calendar/../../../core/lv_obj_class.h"
 481              		.file 13 "Middlewares/LVGL/GUI/lvgl/src/extra/widgets/calendar/../../../core/lv_event.h"
 482              		.file 14 "Middlewares/LVGL/GUI/lvgl/src/extra/widgets/calendar/lv_calendar_header_dropdown.h"
 483              		.file 15 "Middlewares/LVGL/GUI/lvgl/src/extra/widgets/calendar/lv_calendar.h"
 484              		.file 16 "Middlewares/LVGL/GUI/lvgl/src/extra/widgets/calendar/../../layouts/flex/lv_flex.h"
 485              		.file 17 "Middlewares/LVGL/GUI/lvgl/src/extra/widgets/calendar/../../../core/lv_obj_tree.h"
 486              		.file 18 "Middlewares/LVGL/GUI/lvgl/src/extra/widgets/calendar/../../../widgets/lv_dropdown.h"
ARM GAS  C:\Users\ADMINI~1\AppData\Local\Temp\ccD8dPMj.s 			page 15

