ARM GAS  C:\Users\ADMINI~1\AppData\Local\Temp\ccM5otpk.s 			page 1


   1              		.cpu cortex-m4
   2              		.arch armv7e-m
   3              		.fpu fpv4-sp-d16
   4              		.eabi_attribute 27, 1
   5              		.eabi_attribute 28, 1
   6              		.eabi_attribute 20, 1
   7              		.eabi_attribute 21, 1
   8              		.eabi_attribute 23, 3
   9              		.eabi_attribute 24, 1
  10              		.eabi_attribute 25, 1
  11              		.eabi_attribute 26, 1
  12              		.eabi_attribute 30, 1
  13              		.eabi_attribute 34, 1
  14              		.eabi_attribute 18, 4
  15              		.file	"lv_draw_label.c"
  16              		.text
  17              	.Ltext0:
  18              		.cfi_sections	.debug_frame
  19              		.section	.text.hex_char_to_num,"ax",%progbits
  20              		.align	1
  21              		.syntax unified
  22              		.thumb
  23              		.thumb_func
  25              	hex_char_to_num:
  26              	.LVL0:
  27              	.LFB156:
  28              		.file 1 "Middlewares/LVGL/GUI/lvgl/src/draw/lv_draw_label.c"
   1:Middlewares/LVGL/GUI/lvgl/src/draw/lv_draw_label.c **** /**
   2:Middlewares/LVGL/GUI/lvgl/src/draw/lv_draw_label.c ****  * @file lv_draw_label.c
   3:Middlewares/LVGL/GUI/lvgl/src/draw/lv_draw_label.c ****  *
   4:Middlewares/LVGL/GUI/lvgl/src/draw/lv_draw_label.c ****  */
   5:Middlewares/LVGL/GUI/lvgl/src/draw/lv_draw_label.c **** 
   6:Middlewares/LVGL/GUI/lvgl/src/draw/lv_draw_label.c **** /*********************
   7:Middlewares/LVGL/GUI/lvgl/src/draw/lv_draw_label.c ****  *      INCLUDES
   8:Middlewares/LVGL/GUI/lvgl/src/draw/lv_draw_label.c ****  *********************/
   9:Middlewares/LVGL/GUI/lvgl/src/draw/lv_draw_label.c **** #include "lv_draw.h"
  10:Middlewares/LVGL/GUI/lvgl/src/draw/lv_draw_label.c **** #include "lv_draw_label.h"
  11:Middlewares/LVGL/GUI/lvgl/src/draw/lv_draw_label.c **** #include "../misc/lv_math.h"
  12:Middlewares/LVGL/GUI/lvgl/src/draw/lv_draw_label.c **** #include "../hal/lv_hal_disp.h"
  13:Middlewares/LVGL/GUI/lvgl/src/draw/lv_draw_label.c **** #include "../core/lv_refr.h"
  14:Middlewares/LVGL/GUI/lvgl/src/draw/lv_draw_label.c **** #include "../misc/lv_bidi.h"
  15:Middlewares/LVGL/GUI/lvgl/src/draw/lv_draw_label.c **** #include "../misc/lv_assert.h"
  16:Middlewares/LVGL/GUI/lvgl/src/draw/lv_draw_label.c **** 
  17:Middlewares/LVGL/GUI/lvgl/src/draw/lv_draw_label.c **** /*********************
  18:Middlewares/LVGL/GUI/lvgl/src/draw/lv_draw_label.c ****  *      DEFINES
  19:Middlewares/LVGL/GUI/lvgl/src/draw/lv_draw_label.c ****  *********************/
  20:Middlewares/LVGL/GUI/lvgl/src/draw/lv_draw_label.c **** #define LABEL_RECOLOR_PAR_LENGTH 6
  21:Middlewares/LVGL/GUI/lvgl/src/draw/lv_draw_label.c **** #define LV_LABEL_HINT_UPDATE_TH 1024 /*Update the "hint" if the label's y coordinates have changed 
  22:Middlewares/LVGL/GUI/lvgl/src/draw/lv_draw_label.c **** 
  23:Middlewares/LVGL/GUI/lvgl/src/draw/lv_draw_label.c **** /**********************
  24:Middlewares/LVGL/GUI/lvgl/src/draw/lv_draw_label.c ****  *      TYPEDEFS
  25:Middlewares/LVGL/GUI/lvgl/src/draw/lv_draw_label.c ****  **********************/
  26:Middlewares/LVGL/GUI/lvgl/src/draw/lv_draw_label.c **** enum {
  27:Middlewares/LVGL/GUI/lvgl/src/draw/lv_draw_label.c ****     CMD_STATE_WAIT,
  28:Middlewares/LVGL/GUI/lvgl/src/draw/lv_draw_label.c ****     CMD_STATE_PAR,
  29:Middlewares/LVGL/GUI/lvgl/src/draw/lv_draw_label.c ****     CMD_STATE_IN,
  30:Middlewares/LVGL/GUI/lvgl/src/draw/lv_draw_label.c **** };
ARM GAS  C:\Users\ADMINI~1\AppData\Local\Temp\ccM5otpk.s 			page 2


  31:Middlewares/LVGL/GUI/lvgl/src/draw/lv_draw_label.c **** typedef uint8_t cmd_state_t;
  32:Middlewares/LVGL/GUI/lvgl/src/draw/lv_draw_label.c **** 
  33:Middlewares/LVGL/GUI/lvgl/src/draw/lv_draw_label.c **** /**********************
  34:Middlewares/LVGL/GUI/lvgl/src/draw/lv_draw_label.c ****  *  STATIC PROTOTYPES
  35:Middlewares/LVGL/GUI/lvgl/src/draw/lv_draw_label.c ****  **********************/
  36:Middlewares/LVGL/GUI/lvgl/src/draw/lv_draw_label.c **** 
  37:Middlewares/LVGL/GUI/lvgl/src/draw/lv_draw_label.c **** static uint8_t hex_char_to_num(char hex);
  38:Middlewares/LVGL/GUI/lvgl/src/draw/lv_draw_label.c **** 
  39:Middlewares/LVGL/GUI/lvgl/src/draw/lv_draw_label.c **** /**********************
  40:Middlewares/LVGL/GUI/lvgl/src/draw/lv_draw_label.c ****  *  STATIC VARIABLES
  41:Middlewares/LVGL/GUI/lvgl/src/draw/lv_draw_label.c ****  **********************/
  42:Middlewares/LVGL/GUI/lvgl/src/draw/lv_draw_label.c **** 
  43:Middlewares/LVGL/GUI/lvgl/src/draw/lv_draw_label.c **** /**********************
  44:Middlewares/LVGL/GUI/lvgl/src/draw/lv_draw_label.c ****  *  GLOBAL VARIABLES
  45:Middlewares/LVGL/GUI/lvgl/src/draw/lv_draw_label.c ****  **********************/
  46:Middlewares/LVGL/GUI/lvgl/src/draw/lv_draw_label.c **** 
  47:Middlewares/LVGL/GUI/lvgl/src/draw/lv_draw_label.c **** /**********************
  48:Middlewares/LVGL/GUI/lvgl/src/draw/lv_draw_label.c ****  *      MACROS
  49:Middlewares/LVGL/GUI/lvgl/src/draw/lv_draw_label.c ****  **********************/
  50:Middlewares/LVGL/GUI/lvgl/src/draw/lv_draw_label.c **** 
  51:Middlewares/LVGL/GUI/lvgl/src/draw/lv_draw_label.c **** /**********************
  52:Middlewares/LVGL/GUI/lvgl/src/draw/lv_draw_label.c ****  *   GLOBAL FUNCTIONS
  53:Middlewares/LVGL/GUI/lvgl/src/draw/lv_draw_label.c ****  **********************/
  54:Middlewares/LVGL/GUI/lvgl/src/draw/lv_draw_label.c **** 
  55:Middlewares/LVGL/GUI/lvgl/src/draw/lv_draw_label.c **** void lv_draw_label_dsc_init(lv_draw_label_dsc_t * dsc)
  56:Middlewares/LVGL/GUI/lvgl/src/draw/lv_draw_label.c **** {
  57:Middlewares/LVGL/GUI/lvgl/src/draw/lv_draw_label.c ****     lv_memset_00(dsc, sizeof(lv_draw_label_dsc_t));
  58:Middlewares/LVGL/GUI/lvgl/src/draw/lv_draw_label.c ****     dsc->opa = LV_OPA_COVER;
  59:Middlewares/LVGL/GUI/lvgl/src/draw/lv_draw_label.c ****     dsc->color = lv_color_black();
  60:Middlewares/LVGL/GUI/lvgl/src/draw/lv_draw_label.c ****     dsc->font = LV_FONT_DEFAULT;
  61:Middlewares/LVGL/GUI/lvgl/src/draw/lv_draw_label.c ****     dsc->sel_start = LV_DRAW_LABEL_NO_TXT_SEL;
  62:Middlewares/LVGL/GUI/lvgl/src/draw/lv_draw_label.c ****     dsc->sel_end = LV_DRAW_LABEL_NO_TXT_SEL;
  63:Middlewares/LVGL/GUI/lvgl/src/draw/lv_draw_label.c ****     dsc->sel_color = lv_color_black();
  64:Middlewares/LVGL/GUI/lvgl/src/draw/lv_draw_label.c ****     dsc->sel_bg_color = lv_palette_main(LV_PALETTE_BLUE);
  65:Middlewares/LVGL/GUI/lvgl/src/draw/lv_draw_label.c ****     dsc->bidi_dir = LV_BASE_DIR_LTR;
  66:Middlewares/LVGL/GUI/lvgl/src/draw/lv_draw_label.c **** }
  67:Middlewares/LVGL/GUI/lvgl/src/draw/lv_draw_label.c **** 
  68:Middlewares/LVGL/GUI/lvgl/src/draw/lv_draw_label.c **** /**
  69:Middlewares/LVGL/GUI/lvgl/src/draw/lv_draw_label.c ****  * Write a text
  70:Middlewares/LVGL/GUI/lvgl/src/draw/lv_draw_label.c ****  * @param coords coordinates of the label
  71:Middlewares/LVGL/GUI/lvgl/src/draw/lv_draw_label.c ****  * @param mask the label will be drawn only in this area
  72:Middlewares/LVGL/GUI/lvgl/src/draw/lv_draw_label.c ****  * @param dsc pointer to draw descriptor
  73:Middlewares/LVGL/GUI/lvgl/src/draw/lv_draw_label.c ****  * @param txt `\0` terminated text to write
  74:Middlewares/LVGL/GUI/lvgl/src/draw/lv_draw_label.c ****  * @param hint pointer to a `lv_draw_label_hint_t` variable.
  75:Middlewares/LVGL/GUI/lvgl/src/draw/lv_draw_label.c ****  * It is managed by the draw to speed up the drawing of very long texts (thousands of lines).
  76:Middlewares/LVGL/GUI/lvgl/src/draw/lv_draw_label.c ****  */
  77:Middlewares/LVGL/GUI/lvgl/src/draw/lv_draw_label.c **** LV_ATTRIBUTE_FAST_MEM void lv_draw_label(lv_draw_ctx_t * draw_ctx, const lv_draw_label_dsc_t * dsc,
  78:Middlewares/LVGL/GUI/lvgl/src/draw/lv_draw_label.c ****                                          const lv_area_t * coords, const char * txt, lv_draw_label_
  79:Middlewares/LVGL/GUI/lvgl/src/draw/lv_draw_label.c **** {
  80:Middlewares/LVGL/GUI/lvgl/src/draw/lv_draw_label.c ****     if(dsc->opa <= LV_OPA_MIN) return;
  81:Middlewares/LVGL/GUI/lvgl/src/draw/lv_draw_label.c ****     if(dsc->font == NULL) {
  82:Middlewares/LVGL/GUI/lvgl/src/draw/lv_draw_label.c ****         LV_LOG_WARN("dsc->font == NULL");
  83:Middlewares/LVGL/GUI/lvgl/src/draw/lv_draw_label.c ****         return;
  84:Middlewares/LVGL/GUI/lvgl/src/draw/lv_draw_label.c ****     }
  85:Middlewares/LVGL/GUI/lvgl/src/draw/lv_draw_label.c **** 
  86:Middlewares/LVGL/GUI/lvgl/src/draw/lv_draw_label.c ****     if(draw_ctx->draw_letter == NULL) {
  87:Middlewares/LVGL/GUI/lvgl/src/draw/lv_draw_label.c ****         LV_LOG_WARN("draw->draw_letter == NULL (there is no function to draw letters)");
ARM GAS  C:\Users\ADMINI~1\AppData\Local\Temp\ccM5otpk.s 			page 3


  88:Middlewares/LVGL/GUI/lvgl/src/draw/lv_draw_label.c ****         return;
  89:Middlewares/LVGL/GUI/lvgl/src/draw/lv_draw_label.c ****     }
  90:Middlewares/LVGL/GUI/lvgl/src/draw/lv_draw_label.c **** 
  91:Middlewares/LVGL/GUI/lvgl/src/draw/lv_draw_label.c ****     lv_draw_label_dsc_t dsc_mod = *dsc;
  92:Middlewares/LVGL/GUI/lvgl/src/draw/lv_draw_label.c **** 
  93:Middlewares/LVGL/GUI/lvgl/src/draw/lv_draw_label.c ****     const lv_font_t * font = dsc->font;
  94:Middlewares/LVGL/GUI/lvgl/src/draw/lv_draw_label.c ****     int32_t w;
  95:Middlewares/LVGL/GUI/lvgl/src/draw/lv_draw_label.c **** 
  96:Middlewares/LVGL/GUI/lvgl/src/draw/lv_draw_label.c ****     /*No need to waste processor time if string is empty*/
  97:Middlewares/LVGL/GUI/lvgl/src/draw/lv_draw_label.c ****     if(txt == NULL || txt[0] == '\0')
  98:Middlewares/LVGL/GUI/lvgl/src/draw/lv_draw_label.c ****         return;
  99:Middlewares/LVGL/GUI/lvgl/src/draw/lv_draw_label.c **** 
 100:Middlewares/LVGL/GUI/lvgl/src/draw/lv_draw_label.c ****     lv_area_t clipped_area;
 101:Middlewares/LVGL/GUI/lvgl/src/draw/lv_draw_label.c ****     bool clip_ok = _lv_area_intersect(&clipped_area, coords, draw_ctx->clip_area);
 102:Middlewares/LVGL/GUI/lvgl/src/draw/lv_draw_label.c ****     if(!clip_ok) return;
 103:Middlewares/LVGL/GUI/lvgl/src/draw/lv_draw_label.c **** 
 104:Middlewares/LVGL/GUI/lvgl/src/draw/lv_draw_label.c ****     lv_text_align_t align = dsc->align;
 105:Middlewares/LVGL/GUI/lvgl/src/draw/lv_draw_label.c ****     lv_base_dir_t base_dir = dsc->bidi_dir;
 106:Middlewares/LVGL/GUI/lvgl/src/draw/lv_draw_label.c **** 
 107:Middlewares/LVGL/GUI/lvgl/src/draw/lv_draw_label.c ****     lv_bidi_calculate_align(&align, &base_dir, txt);
 108:Middlewares/LVGL/GUI/lvgl/src/draw/lv_draw_label.c **** 
 109:Middlewares/LVGL/GUI/lvgl/src/draw/lv_draw_label.c ****     if((dsc->flag & LV_TEXT_FLAG_EXPAND) == 0) {
 110:Middlewares/LVGL/GUI/lvgl/src/draw/lv_draw_label.c ****         /*Normally use the label's width as width*/
 111:Middlewares/LVGL/GUI/lvgl/src/draw/lv_draw_label.c ****         w = lv_area_get_width(coords);
 112:Middlewares/LVGL/GUI/lvgl/src/draw/lv_draw_label.c ****     }
 113:Middlewares/LVGL/GUI/lvgl/src/draw/lv_draw_label.c ****     else {
 114:Middlewares/LVGL/GUI/lvgl/src/draw/lv_draw_label.c ****         /*If EXPAND is enabled then not limit the text's width to the object's width*/
 115:Middlewares/LVGL/GUI/lvgl/src/draw/lv_draw_label.c ****         lv_point_t p;
 116:Middlewares/LVGL/GUI/lvgl/src/draw/lv_draw_label.c ****         lv_txt_get_size(&p, txt, dsc->font, dsc->letter_space, dsc->line_space, LV_COORD_MAX,
 117:Middlewares/LVGL/GUI/lvgl/src/draw/lv_draw_label.c ****                         dsc->flag);
 118:Middlewares/LVGL/GUI/lvgl/src/draw/lv_draw_label.c ****         w = p.x;
 119:Middlewares/LVGL/GUI/lvgl/src/draw/lv_draw_label.c ****     }
 120:Middlewares/LVGL/GUI/lvgl/src/draw/lv_draw_label.c **** 
 121:Middlewares/LVGL/GUI/lvgl/src/draw/lv_draw_label.c ****     int32_t line_height_font = lv_font_get_line_height(font);
 122:Middlewares/LVGL/GUI/lvgl/src/draw/lv_draw_label.c ****     int32_t line_height = line_height_font + dsc->line_space;
 123:Middlewares/LVGL/GUI/lvgl/src/draw/lv_draw_label.c **** 
 124:Middlewares/LVGL/GUI/lvgl/src/draw/lv_draw_label.c ****     /*Init variables for the first line*/
 125:Middlewares/LVGL/GUI/lvgl/src/draw/lv_draw_label.c ****     int32_t line_width = 0;
 126:Middlewares/LVGL/GUI/lvgl/src/draw/lv_draw_label.c ****     lv_point_t pos;
 127:Middlewares/LVGL/GUI/lvgl/src/draw/lv_draw_label.c ****     pos.x = coords->x1;
 128:Middlewares/LVGL/GUI/lvgl/src/draw/lv_draw_label.c ****     pos.y = coords->y1;
 129:Middlewares/LVGL/GUI/lvgl/src/draw/lv_draw_label.c **** 
 130:Middlewares/LVGL/GUI/lvgl/src/draw/lv_draw_label.c ****     int32_t x_ofs = 0;
 131:Middlewares/LVGL/GUI/lvgl/src/draw/lv_draw_label.c ****     int32_t y_ofs = 0;
 132:Middlewares/LVGL/GUI/lvgl/src/draw/lv_draw_label.c ****     x_ofs = dsc->ofs_x;
 133:Middlewares/LVGL/GUI/lvgl/src/draw/lv_draw_label.c ****     y_ofs = dsc->ofs_y;
 134:Middlewares/LVGL/GUI/lvgl/src/draw/lv_draw_label.c ****     pos.y += y_ofs;
 135:Middlewares/LVGL/GUI/lvgl/src/draw/lv_draw_label.c **** 
 136:Middlewares/LVGL/GUI/lvgl/src/draw/lv_draw_label.c ****     uint32_t line_start     = 0;
 137:Middlewares/LVGL/GUI/lvgl/src/draw/lv_draw_label.c ****     int32_t last_line_start = -1;
 138:Middlewares/LVGL/GUI/lvgl/src/draw/lv_draw_label.c **** 
 139:Middlewares/LVGL/GUI/lvgl/src/draw/lv_draw_label.c ****     /*Check the hint to use the cached info*/
 140:Middlewares/LVGL/GUI/lvgl/src/draw/lv_draw_label.c ****     if(hint && y_ofs == 0 && coords->y1 < 0) {
 141:Middlewares/LVGL/GUI/lvgl/src/draw/lv_draw_label.c ****         /*If the label changed too much recalculate the hint.*/
 142:Middlewares/LVGL/GUI/lvgl/src/draw/lv_draw_label.c ****         if(LV_ABS(hint->coord_y - coords->y1) > LV_LABEL_HINT_UPDATE_TH - 2 * line_height) {
 143:Middlewares/LVGL/GUI/lvgl/src/draw/lv_draw_label.c ****             hint->line_start = -1;
 144:Middlewares/LVGL/GUI/lvgl/src/draw/lv_draw_label.c ****         }
ARM GAS  C:\Users\ADMINI~1\AppData\Local\Temp\ccM5otpk.s 			page 4


 145:Middlewares/LVGL/GUI/lvgl/src/draw/lv_draw_label.c ****         last_line_start = hint->line_start;
 146:Middlewares/LVGL/GUI/lvgl/src/draw/lv_draw_label.c ****     }
 147:Middlewares/LVGL/GUI/lvgl/src/draw/lv_draw_label.c **** 
 148:Middlewares/LVGL/GUI/lvgl/src/draw/lv_draw_label.c ****     /*Use the hint if it's valid*/
 149:Middlewares/LVGL/GUI/lvgl/src/draw/lv_draw_label.c ****     if(hint && last_line_start >= 0) {
 150:Middlewares/LVGL/GUI/lvgl/src/draw/lv_draw_label.c ****         line_start = last_line_start;
 151:Middlewares/LVGL/GUI/lvgl/src/draw/lv_draw_label.c ****         pos.y += hint->y;
 152:Middlewares/LVGL/GUI/lvgl/src/draw/lv_draw_label.c ****     }
 153:Middlewares/LVGL/GUI/lvgl/src/draw/lv_draw_label.c **** 
 154:Middlewares/LVGL/GUI/lvgl/src/draw/lv_draw_label.c ****     uint32_t line_end = line_start + _lv_txt_get_next_line(&txt[line_start], font, dsc->letter_spac
 155:Middlewares/LVGL/GUI/lvgl/src/draw/lv_draw_label.c **** 
 156:Middlewares/LVGL/GUI/lvgl/src/draw/lv_draw_label.c ****     /*Go the first visible line*/
 157:Middlewares/LVGL/GUI/lvgl/src/draw/lv_draw_label.c ****     while(pos.y + line_height_font < draw_ctx->clip_area->y1) {
 158:Middlewares/LVGL/GUI/lvgl/src/draw/lv_draw_label.c ****         /*Go to next line*/
 159:Middlewares/LVGL/GUI/lvgl/src/draw/lv_draw_label.c ****         line_start = line_end;
 160:Middlewares/LVGL/GUI/lvgl/src/draw/lv_draw_label.c ****         line_end += _lv_txt_get_next_line(&txt[line_start], font, dsc->letter_space, w, NULL, dsc->
 161:Middlewares/LVGL/GUI/lvgl/src/draw/lv_draw_label.c ****         pos.y += line_height;
 162:Middlewares/LVGL/GUI/lvgl/src/draw/lv_draw_label.c **** 
 163:Middlewares/LVGL/GUI/lvgl/src/draw/lv_draw_label.c ****         /*Save at the threshold coordinate*/
 164:Middlewares/LVGL/GUI/lvgl/src/draw/lv_draw_label.c ****         if(hint && pos.y >= -LV_LABEL_HINT_UPDATE_TH && hint->line_start < 0) {
 165:Middlewares/LVGL/GUI/lvgl/src/draw/lv_draw_label.c ****             hint->line_start = line_start;
 166:Middlewares/LVGL/GUI/lvgl/src/draw/lv_draw_label.c ****             hint->y          = pos.y - coords->y1;
 167:Middlewares/LVGL/GUI/lvgl/src/draw/lv_draw_label.c ****             hint->coord_y    = coords->y1;
 168:Middlewares/LVGL/GUI/lvgl/src/draw/lv_draw_label.c ****         }
 169:Middlewares/LVGL/GUI/lvgl/src/draw/lv_draw_label.c **** 
 170:Middlewares/LVGL/GUI/lvgl/src/draw/lv_draw_label.c ****         if(txt[line_start] == '\0') return;
 171:Middlewares/LVGL/GUI/lvgl/src/draw/lv_draw_label.c ****     }
 172:Middlewares/LVGL/GUI/lvgl/src/draw/lv_draw_label.c **** 
 173:Middlewares/LVGL/GUI/lvgl/src/draw/lv_draw_label.c ****     /*Align to middle*/
 174:Middlewares/LVGL/GUI/lvgl/src/draw/lv_draw_label.c ****     if(align == LV_TEXT_ALIGN_CENTER) {
 175:Middlewares/LVGL/GUI/lvgl/src/draw/lv_draw_label.c ****         line_width = lv_txt_get_width(&txt[line_start], line_end - line_start, font, dsc->letter_sp
 176:Middlewares/LVGL/GUI/lvgl/src/draw/lv_draw_label.c **** 
 177:Middlewares/LVGL/GUI/lvgl/src/draw/lv_draw_label.c ****         pos.x += (lv_area_get_width(coords) - line_width) / 2;
 178:Middlewares/LVGL/GUI/lvgl/src/draw/lv_draw_label.c **** 
 179:Middlewares/LVGL/GUI/lvgl/src/draw/lv_draw_label.c ****     }
 180:Middlewares/LVGL/GUI/lvgl/src/draw/lv_draw_label.c ****     /*Align to the right*/
 181:Middlewares/LVGL/GUI/lvgl/src/draw/lv_draw_label.c ****     else if(align == LV_TEXT_ALIGN_RIGHT) {
 182:Middlewares/LVGL/GUI/lvgl/src/draw/lv_draw_label.c ****         line_width = lv_txt_get_width(&txt[line_start], line_end - line_start, font, dsc->letter_sp
 183:Middlewares/LVGL/GUI/lvgl/src/draw/lv_draw_label.c ****         pos.x += lv_area_get_width(coords) - line_width;
 184:Middlewares/LVGL/GUI/lvgl/src/draw/lv_draw_label.c ****     }
 185:Middlewares/LVGL/GUI/lvgl/src/draw/lv_draw_label.c ****     uint32_t sel_start = dsc->sel_start;
 186:Middlewares/LVGL/GUI/lvgl/src/draw/lv_draw_label.c ****     uint32_t sel_end = dsc->sel_end;
 187:Middlewares/LVGL/GUI/lvgl/src/draw/lv_draw_label.c ****     if(sel_start > sel_end) {
 188:Middlewares/LVGL/GUI/lvgl/src/draw/lv_draw_label.c ****         uint32_t tmp = sel_start;
 189:Middlewares/LVGL/GUI/lvgl/src/draw/lv_draw_label.c ****         sel_start = sel_end;
 190:Middlewares/LVGL/GUI/lvgl/src/draw/lv_draw_label.c ****         sel_end = tmp;
 191:Middlewares/LVGL/GUI/lvgl/src/draw/lv_draw_label.c ****     }
 192:Middlewares/LVGL/GUI/lvgl/src/draw/lv_draw_label.c ****     lv_draw_line_dsc_t line_dsc;
 193:Middlewares/LVGL/GUI/lvgl/src/draw/lv_draw_label.c **** 
 194:Middlewares/LVGL/GUI/lvgl/src/draw/lv_draw_label.c ****     if((dsc->decor & LV_TEXT_DECOR_UNDERLINE) || (dsc->decor & LV_TEXT_DECOR_STRIKETHROUGH)) {
 195:Middlewares/LVGL/GUI/lvgl/src/draw/lv_draw_label.c ****         lv_draw_line_dsc_init(&line_dsc);
 196:Middlewares/LVGL/GUI/lvgl/src/draw/lv_draw_label.c ****         line_dsc.color = dsc->color;
 197:Middlewares/LVGL/GUI/lvgl/src/draw/lv_draw_label.c ****         line_dsc.width = font->underline_thickness ? font->underline_thickness : 1;
 198:Middlewares/LVGL/GUI/lvgl/src/draw/lv_draw_label.c ****         line_dsc.opa = dsc->opa;
 199:Middlewares/LVGL/GUI/lvgl/src/draw/lv_draw_label.c ****         line_dsc.blend_mode = dsc->blend_mode;
 200:Middlewares/LVGL/GUI/lvgl/src/draw/lv_draw_label.c ****     }
 201:Middlewares/LVGL/GUI/lvgl/src/draw/lv_draw_label.c **** 
ARM GAS  C:\Users\ADMINI~1\AppData\Local\Temp\ccM5otpk.s 			page 5


 202:Middlewares/LVGL/GUI/lvgl/src/draw/lv_draw_label.c ****     cmd_state_t cmd_state = CMD_STATE_WAIT;
 203:Middlewares/LVGL/GUI/lvgl/src/draw/lv_draw_label.c ****     uint32_t i;
 204:Middlewares/LVGL/GUI/lvgl/src/draw/lv_draw_label.c ****     uint32_t par_start = 0;
 205:Middlewares/LVGL/GUI/lvgl/src/draw/lv_draw_label.c ****     lv_color_t recolor;
 206:Middlewares/LVGL/GUI/lvgl/src/draw/lv_draw_label.c ****     lv_color_t color = lv_color_black();
 207:Middlewares/LVGL/GUI/lvgl/src/draw/lv_draw_label.c ****     int32_t letter_w;
 208:Middlewares/LVGL/GUI/lvgl/src/draw/lv_draw_label.c **** 
 209:Middlewares/LVGL/GUI/lvgl/src/draw/lv_draw_label.c ****     lv_draw_rect_dsc_t draw_dsc_sel;
 210:Middlewares/LVGL/GUI/lvgl/src/draw/lv_draw_label.c ****     lv_draw_rect_dsc_init(&draw_dsc_sel);
 211:Middlewares/LVGL/GUI/lvgl/src/draw/lv_draw_label.c ****     draw_dsc_sel.bg_color = dsc->sel_bg_color;
 212:Middlewares/LVGL/GUI/lvgl/src/draw/lv_draw_label.c **** 
 213:Middlewares/LVGL/GUI/lvgl/src/draw/lv_draw_label.c ****     int32_t pos_x_start = pos.x;
 214:Middlewares/LVGL/GUI/lvgl/src/draw/lv_draw_label.c ****     /*Write out all lines*/
 215:Middlewares/LVGL/GUI/lvgl/src/draw/lv_draw_label.c ****     while(txt[line_start] != '\0') {
 216:Middlewares/LVGL/GUI/lvgl/src/draw/lv_draw_label.c ****         pos.x += x_ofs;
 217:Middlewares/LVGL/GUI/lvgl/src/draw/lv_draw_label.c **** 
 218:Middlewares/LVGL/GUI/lvgl/src/draw/lv_draw_label.c ****         /*Write all letter of a line*/
 219:Middlewares/LVGL/GUI/lvgl/src/draw/lv_draw_label.c ****         cmd_state = CMD_STATE_WAIT;
 220:Middlewares/LVGL/GUI/lvgl/src/draw/lv_draw_label.c ****         i         = 0;
 221:Middlewares/LVGL/GUI/lvgl/src/draw/lv_draw_label.c **** #if LV_USE_BIDI
 222:Middlewares/LVGL/GUI/lvgl/src/draw/lv_draw_label.c ****         char * bidi_txt = lv_mem_buf_get(line_end - line_start + 1);
 223:Middlewares/LVGL/GUI/lvgl/src/draw/lv_draw_label.c ****         _lv_bidi_process_paragraph(txt + line_start, bidi_txt, line_end - line_start, base_dir, NUL
 224:Middlewares/LVGL/GUI/lvgl/src/draw/lv_draw_label.c **** #else
 225:Middlewares/LVGL/GUI/lvgl/src/draw/lv_draw_label.c ****         const char * bidi_txt = txt + line_start;
 226:Middlewares/LVGL/GUI/lvgl/src/draw/lv_draw_label.c **** #endif
 227:Middlewares/LVGL/GUI/lvgl/src/draw/lv_draw_label.c **** 
 228:Middlewares/LVGL/GUI/lvgl/src/draw/lv_draw_label.c ****         while(i < line_end - line_start) {
 229:Middlewares/LVGL/GUI/lvgl/src/draw/lv_draw_label.c ****             uint32_t logical_char_pos = 0;
 230:Middlewares/LVGL/GUI/lvgl/src/draw/lv_draw_label.c ****             if(sel_start != 0xFFFF && sel_end != 0xFFFF) {
 231:Middlewares/LVGL/GUI/lvgl/src/draw/lv_draw_label.c **** #if LV_USE_BIDI
 232:Middlewares/LVGL/GUI/lvgl/src/draw/lv_draw_label.c ****                 logical_char_pos = _lv_txt_encoded_get_char_id(txt, line_start);
 233:Middlewares/LVGL/GUI/lvgl/src/draw/lv_draw_label.c ****                 uint32_t t = _lv_txt_encoded_get_char_id(bidi_txt, i);
 234:Middlewares/LVGL/GUI/lvgl/src/draw/lv_draw_label.c ****                 logical_char_pos += _lv_bidi_get_logical_pos(bidi_txt, NULL, line_end - line_start,
 235:Middlewares/LVGL/GUI/lvgl/src/draw/lv_draw_label.c **** #else
 236:Middlewares/LVGL/GUI/lvgl/src/draw/lv_draw_label.c ****                 logical_char_pos = _lv_txt_encoded_get_char_id(txt, line_start + i);
 237:Middlewares/LVGL/GUI/lvgl/src/draw/lv_draw_label.c **** #endif
 238:Middlewares/LVGL/GUI/lvgl/src/draw/lv_draw_label.c ****             }
 239:Middlewares/LVGL/GUI/lvgl/src/draw/lv_draw_label.c **** 
 240:Middlewares/LVGL/GUI/lvgl/src/draw/lv_draw_label.c ****             uint32_t letter;
 241:Middlewares/LVGL/GUI/lvgl/src/draw/lv_draw_label.c ****             uint32_t letter_next;
 242:Middlewares/LVGL/GUI/lvgl/src/draw/lv_draw_label.c ****             _lv_txt_encoded_letter_next_2(bidi_txt, &letter, &letter_next, &i);
 243:Middlewares/LVGL/GUI/lvgl/src/draw/lv_draw_label.c ****             /*Handle the re-color command*/
 244:Middlewares/LVGL/GUI/lvgl/src/draw/lv_draw_label.c ****             if((dsc->flag & LV_TEXT_FLAG_RECOLOR) != 0) {
 245:Middlewares/LVGL/GUI/lvgl/src/draw/lv_draw_label.c ****                 if(letter == (uint32_t)LV_TXT_COLOR_CMD[0]) {
 246:Middlewares/LVGL/GUI/lvgl/src/draw/lv_draw_label.c ****                     if(cmd_state == CMD_STATE_WAIT) { /*Start char*/
 247:Middlewares/LVGL/GUI/lvgl/src/draw/lv_draw_label.c ****                         par_start = i;
 248:Middlewares/LVGL/GUI/lvgl/src/draw/lv_draw_label.c ****                         cmd_state = CMD_STATE_PAR;
 249:Middlewares/LVGL/GUI/lvgl/src/draw/lv_draw_label.c ****                         continue;
 250:Middlewares/LVGL/GUI/lvgl/src/draw/lv_draw_label.c ****                     }
 251:Middlewares/LVGL/GUI/lvgl/src/draw/lv_draw_label.c ****                     else if(cmd_state == CMD_STATE_PAR) {   /*Other start char in parameter escaped
 252:Middlewares/LVGL/GUI/lvgl/src/draw/lv_draw_label.c ****                         cmd_state = CMD_STATE_WAIT;
 253:Middlewares/LVGL/GUI/lvgl/src/draw/lv_draw_label.c ****                     }
 254:Middlewares/LVGL/GUI/lvgl/src/draw/lv_draw_label.c ****                     else if(cmd_state == CMD_STATE_IN) {   /*Command end*/
 255:Middlewares/LVGL/GUI/lvgl/src/draw/lv_draw_label.c ****                         cmd_state = CMD_STATE_WAIT;
 256:Middlewares/LVGL/GUI/lvgl/src/draw/lv_draw_label.c ****                         continue;
 257:Middlewares/LVGL/GUI/lvgl/src/draw/lv_draw_label.c ****                     }
 258:Middlewares/LVGL/GUI/lvgl/src/draw/lv_draw_label.c ****                 }
ARM GAS  C:\Users\ADMINI~1\AppData\Local\Temp\ccM5otpk.s 			page 6


 259:Middlewares/LVGL/GUI/lvgl/src/draw/lv_draw_label.c **** 
 260:Middlewares/LVGL/GUI/lvgl/src/draw/lv_draw_label.c ****                 /*Skip the color parameter and wait the space after it*/
 261:Middlewares/LVGL/GUI/lvgl/src/draw/lv_draw_label.c ****                 if(cmd_state == CMD_STATE_PAR) {
 262:Middlewares/LVGL/GUI/lvgl/src/draw/lv_draw_label.c ****                     if(letter == ' ') {
 263:Middlewares/LVGL/GUI/lvgl/src/draw/lv_draw_label.c ****                         /*Get the parameter*/
 264:Middlewares/LVGL/GUI/lvgl/src/draw/lv_draw_label.c ****                         if(i - par_start == LABEL_RECOLOR_PAR_LENGTH + 1) {
 265:Middlewares/LVGL/GUI/lvgl/src/draw/lv_draw_label.c ****                             char buf[LABEL_RECOLOR_PAR_LENGTH + 1];
 266:Middlewares/LVGL/GUI/lvgl/src/draw/lv_draw_label.c ****                             lv_memcpy_small(buf, &bidi_txt[par_start], LABEL_RECOLOR_PAR_LENGTH);
 267:Middlewares/LVGL/GUI/lvgl/src/draw/lv_draw_label.c ****                             buf[LABEL_RECOLOR_PAR_LENGTH] = '\0';
 268:Middlewares/LVGL/GUI/lvgl/src/draw/lv_draw_label.c ****                             int r, g, b;
 269:Middlewares/LVGL/GUI/lvgl/src/draw/lv_draw_label.c ****                             r       = (hex_char_to_num(buf[0]) << 4) + hex_char_to_num(buf[1]);
 270:Middlewares/LVGL/GUI/lvgl/src/draw/lv_draw_label.c ****                             g       = (hex_char_to_num(buf[2]) << 4) + hex_char_to_num(buf[3]);
 271:Middlewares/LVGL/GUI/lvgl/src/draw/lv_draw_label.c ****                             b       = (hex_char_to_num(buf[4]) << 4) + hex_char_to_num(buf[5]);
 272:Middlewares/LVGL/GUI/lvgl/src/draw/lv_draw_label.c ****                             recolor = lv_color_make(r, g, b);
 273:Middlewares/LVGL/GUI/lvgl/src/draw/lv_draw_label.c ****                         }
 274:Middlewares/LVGL/GUI/lvgl/src/draw/lv_draw_label.c ****                         else {
 275:Middlewares/LVGL/GUI/lvgl/src/draw/lv_draw_label.c ****                             recolor.full = dsc->color.full;
 276:Middlewares/LVGL/GUI/lvgl/src/draw/lv_draw_label.c ****                         }
 277:Middlewares/LVGL/GUI/lvgl/src/draw/lv_draw_label.c ****                         cmd_state = CMD_STATE_IN; /*After the parameter the text is in the command*
 278:Middlewares/LVGL/GUI/lvgl/src/draw/lv_draw_label.c ****                     }
 279:Middlewares/LVGL/GUI/lvgl/src/draw/lv_draw_label.c ****                     continue;
 280:Middlewares/LVGL/GUI/lvgl/src/draw/lv_draw_label.c ****                 }
 281:Middlewares/LVGL/GUI/lvgl/src/draw/lv_draw_label.c ****             }
 282:Middlewares/LVGL/GUI/lvgl/src/draw/lv_draw_label.c **** 
 283:Middlewares/LVGL/GUI/lvgl/src/draw/lv_draw_label.c ****             color = dsc->color;
 284:Middlewares/LVGL/GUI/lvgl/src/draw/lv_draw_label.c **** 
 285:Middlewares/LVGL/GUI/lvgl/src/draw/lv_draw_label.c ****             if(cmd_state == CMD_STATE_IN) color = recolor;
 286:Middlewares/LVGL/GUI/lvgl/src/draw/lv_draw_label.c **** 
 287:Middlewares/LVGL/GUI/lvgl/src/draw/lv_draw_label.c ****             letter_w = lv_font_get_glyph_width(font, letter, letter_next);
 288:Middlewares/LVGL/GUI/lvgl/src/draw/lv_draw_label.c **** 
 289:Middlewares/LVGL/GUI/lvgl/src/draw/lv_draw_label.c ****             if(sel_start != 0xFFFF && sel_end != 0xFFFF) {
 290:Middlewares/LVGL/GUI/lvgl/src/draw/lv_draw_label.c ****                 if(logical_char_pos >= sel_start && logical_char_pos < sel_end) {
 291:Middlewares/LVGL/GUI/lvgl/src/draw/lv_draw_label.c ****                     lv_area_t sel_coords;
 292:Middlewares/LVGL/GUI/lvgl/src/draw/lv_draw_label.c ****                     sel_coords.x1 = pos.x;
 293:Middlewares/LVGL/GUI/lvgl/src/draw/lv_draw_label.c ****                     sel_coords.y1 = pos.y;
 294:Middlewares/LVGL/GUI/lvgl/src/draw/lv_draw_label.c ****                     sel_coords.x2 = pos.x + letter_w + dsc->letter_space - 1;
 295:Middlewares/LVGL/GUI/lvgl/src/draw/lv_draw_label.c ****                     sel_coords.y2 = pos.y + line_height - 1;
 296:Middlewares/LVGL/GUI/lvgl/src/draw/lv_draw_label.c ****                     lv_draw_rect(draw_ctx, &draw_dsc_sel, &sel_coords);
 297:Middlewares/LVGL/GUI/lvgl/src/draw/lv_draw_label.c ****                     color = dsc->sel_color;
 298:Middlewares/LVGL/GUI/lvgl/src/draw/lv_draw_label.c ****                 }
 299:Middlewares/LVGL/GUI/lvgl/src/draw/lv_draw_label.c ****             }
 300:Middlewares/LVGL/GUI/lvgl/src/draw/lv_draw_label.c **** 
 301:Middlewares/LVGL/GUI/lvgl/src/draw/lv_draw_label.c ****             dsc_mod.color = color;
 302:Middlewares/LVGL/GUI/lvgl/src/draw/lv_draw_label.c ****             lv_draw_letter(draw_ctx, &dsc_mod, &pos, letter);
 303:Middlewares/LVGL/GUI/lvgl/src/draw/lv_draw_label.c **** 
 304:Middlewares/LVGL/GUI/lvgl/src/draw/lv_draw_label.c ****             if(letter_w > 0) {
 305:Middlewares/LVGL/GUI/lvgl/src/draw/lv_draw_label.c ****                 pos.x += letter_w + dsc->letter_space;
 306:Middlewares/LVGL/GUI/lvgl/src/draw/lv_draw_label.c ****             }
 307:Middlewares/LVGL/GUI/lvgl/src/draw/lv_draw_label.c ****         }
 308:Middlewares/LVGL/GUI/lvgl/src/draw/lv_draw_label.c **** 
 309:Middlewares/LVGL/GUI/lvgl/src/draw/lv_draw_label.c ****         if(dsc->decor & LV_TEXT_DECOR_STRIKETHROUGH) {
 310:Middlewares/LVGL/GUI/lvgl/src/draw/lv_draw_label.c ****             lv_point_t p1;
 311:Middlewares/LVGL/GUI/lvgl/src/draw/lv_draw_label.c ****             lv_point_t p2;
 312:Middlewares/LVGL/GUI/lvgl/src/draw/lv_draw_label.c ****             p1.x = pos_x_start;
 313:Middlewares/LVGL/GUI/lvgl/src/draw/lv_draw_label.c ****             p1.y = pos.y + (dsc->font->line_height / 2)  + line_dsc.width / 2;
 314:Middlewares/LVGL/GUI/lvgl/src/draw/lv_draw_label.c ****             p2.x = pos.x;
 315:Middlewares/LVGL/GUI/lvgl/src/draw/lv_draw_label.c ****             p2.y = p1.y;
ARM GAS  C:\Users\ADMINI~1\AppData\Local\Temp\ccM5otpk.s 			page 7


 316:Middlewares/LVGL/GUI/lvgl/src/draw/lv_draw_label.c ****             line_dsc.color = color;
 317:Middlewares/LVGL/GUI/lvgl/src/draw/lv_draw_label.c ****             lv_draw_line(draw_ctx, &line_dsc, &p1, &p2);
 318:Middlewares/LVGL/GUI/lvgl/src/draw/lv_draw_label.c ****         }
 319:Middlewares/LVGL/GUI/lvgl/src/draw/lv_draw_label.c **** 
 320:Middlewares/LVGL/GUI/lvgl/src/draw/lv_draw_label.c ****         if(dsc->decor  & LV_TEXT_DECOR_UNDERLINE) {
 321:Middlewares/LVGL/GUI/lvgl/src/draw/lv_draw_label.c ****             lv_point_t p1;
 322:Middlewares/LVGL/GUI/lvgl/src/draw/lv_draw_label.c ****             lv_point_t p2;
 323:Middlewares/LVGL/GUI/lvgl/src/draw/lv_draw_label.c ****             p1.x = pos_x_start;
 324:Middlewares/LVGL/GUI/lvgl/src/draw/lv_draw_label.c ****             p1.y = pos.y + dsc->font->line_height - dsc->font->base_line - font->underline_position
 325:Middlewares/LVGL/GUI/lvgl/src/draw/lv_draw_label.c ****             p2.x = pos.x;
 326:Middlewares/LVGL/GUI/lvgl/src/draw/lv_draw_label.c ****             p2.y = p1.y;
 327:Middlewares/LVGL/GUI/lvgl/src/draw/lv_draw_label.c ****             line_dsc.color = color;
 328:Middlewares/LVGL/GUI/lvgl/src/draw/lv_draw_label.c ****             lv_draw_line(draw_ctx, &line_dsc, &p1, &p2);
 329:Middlewares/LVGL/GUI/lvgl/src/draw/lv_draw_label.c ****         }
 330:Middlewares/LVGL/GUI/lvgl/src/draw/lv_draw_label.c **** 
 331:Middlewares/LVGL/GUI/lvgl/src/draw/lv_draw_label.c **** #if LV_USE_BIDI
 332:Middlewares/LVGL/GUI/lvgl/src/draw/lv_draw_label.c ****         lv_mem_buf_release(bidi_txt);
 333:Middlewares/LVGL/GUI/lvgl/src/draw/lv_draw_label.c ****         bidi_txt = NULL;
 334:Middlewares/LVGL/GUI/lvgl/src/draw/lv_draw_label.c **** #endif
 335:Middlewares/LVGL/GUI/lvgl/src/draw/lv_draw_label.c ****         /*Go to next line*/
 336:Middlewares/LVGL/GUI/lvgl/src/draw/lv_draw_label.c ****         line_start = line_end;
 337:Middlewares/LVGL/GUI/lvgl/src/draw/lv_draw_label.c ****         line_end += _lv_txt_get_next_line(&txt[line_start], font, dsc->letter_space, w, NULL, dsc->
 338:Middlewares/LVGL/GUI/lvgl/src/draw/lv_draw_label.c **** 
 339:Middlewares/LVGL/GUI/lvgl/src/draw/lv_draw_label.c ****         pos.x = coords->x1;
 340:Middlewares/LVGL/GUI/lvgl/src/draw/lv_draw_label.c ****         /*Align to middle*/
 341:Middlewares/LVGL/GUI/lvgl/src/draw/lv_draw_label.c ****         if(align == LV_TEXT_ALIGN_CENTER) {
 342:Middlewares/LVGL/GUI/lvgl/src/draw/lv_draw_label.c ****             line_width =
 343:Middlewares/LVGL/GUI/lvgl/src/draw/lv_draw_label.c ****                 lv_txt_get_width(&txt[line_start], line_end - line_start, font, dsc->letter_space, 
 344:Middlewares/LVGL/GUI/lvgl/src/draw/lv_draw_label.c **** 
 345:Middlewares/LVGL/GUI/lvgl/src/draw/lv_draw_label.c ****             pos.x += (lv_area_get_width(coords) - line_width) / 2;
 346:Middlewares/LVGL/GUI/lvgl/src/draw/lv_draw_label.c **** 
 347:Middlewares/LVGL/GUI/lvgl/src/draw/lv_draw_label.c ****         }
 348:Middlewares/LVGL/GUI/lvgl/src/draw/lv_draw_label.c ****         /*Align to the right*/
 349:Middlewares/LVGL/GUI/lvgl/src/draw/lv_draw_label.c ****         else if(align == LV_TEXT_ALIGN_RIGHT) {
 350:Middlewares/LVGL/GUI/lvgl/src/draw/lv_draw_label.c ****             line_width =
 351:Middlewares/LVGL/GUI/lvgl/src/draw/lv_draw_label.c ****                 lv_txt_get_width(&txt[line_start], line_end - line_start, font, dsc->letter_space, 
 352:Middlewares/LVGL/GUI/lvgl/src/draw/lv_draw_label.c ****             pos.x += lv_area_get_width(coords) - line_width;
 353:Middlewares/LVGL/GUI/lvgl/src/draw/lv_draw_label.c ****         }
 354:Middlewares/LVGL/GUI/lvgl/src/draw/lv_draw_label.c **** 
 355:Middlewares/LVGL/GUI/lvgl/src/draw/lv_draw_label.c ****         /*Go the next line position*/
 356:Middlewares/LVGL/GUI/lvgl/src/draw/lv_draw_label.c ****         pos.y += line_height;
 357:Middlewares/LVGL/GUI/lvgl/src/draw/lv_draw_label.c **** 
 358:Middlewares/LVGL/GUI/lvgl/src/draw/lv_draw_label.c ****         if(pos.y > draw_ctx->clip_area->y2) return;
 359:Middlewares/LVGL/GUI/lvgl/src/draw/lv_draw_label.c ****     }
 360:Middlewares/LVGL/GUI/lvgl/src/draw/lv_draw_label.c **** 
 361:Middlewares/LVGL/GUI/lvgl/src/draw/lv_draw_label.c ****     LV_ASSERT_MEM_INTEGRITY();
 362:Middlewares/LVGL/GUI/lvgl/src/draw/lv_draw_label.c **** }
 363:Middlewares/LVGL/GUI/lvgl/src/draw/lv_draw_label.c **** 
 364:Middlewares/LVGL/GUI/lvgl/src/draw/lv_draw_label.c **** void lv_draw_letter(lv_draw_ctx_t * draw_ctx, const lv_draw_label_dsc_t * dsc,  const lv_point_t * 
 365:Middlewares/LVGL/GUI/lvgl/src/draw/lv_draw_label.c ****                     uint32_t letter)
 366:Middlewares/LVGL/GUI/lvgl/src/draw/lv_draw_label.c **** {
 367:Middlewares/LVGL/GUI/lvgl/src/draw/lv_draw_label.c ****     draw_ctx->draw_letter(draw_ctx, dsc, pos_p, letter);
 368:Middlewares/LVGL/GUI/lvgl/src/draw/lv_draw_label.c **** }
 369:Middlewares/LVGL/GUI/lvgl/src/draw/lv_draw_label.c **** 
 370:Middlewares/LVGL/GUI/lvgl/src/draw/lv_draw_label.c **** 
 371:Middlewares/LVGL/GUI/lvgl/src/draw/lv_draw_label.c **** /**********************
 372:Middlewares/LVGL/GUI/lvgl/src/draw/lv_draw_label.c ****  *   STATIC FUNCTIONS
ARM GAS  C:\Users\ADMINI~1\AppData\Local\Temp\ccM5otpk.s 			page 8


 373:Middlewares/LVGL/GUI/lvgl/src/draw/lv_draw_label.c ****  **********************/
 374:Middlewares/LVGL/GUI/lvgl/src/draw/lv_draw_label.c **** 
 375:Middlewares/LVGL/GUI/lvgl/src/draw/lv_draw_label.c **** /**
 376:Middlewares/LVGL/GUI/lvgl/src/draw/lv_draw_label.c ****  * Convert a hexadecimal characters to a number (0..15)
 377:Middlewares/LVGL/GUI/lvgl/src/draw/lv_draw_label.c ****  * @param hex Pointer to a hexadecimal character (0..9, A..F)
 378:Middlewares/LVGL/GUI/lvgl/src/draw/lv_draw_label.c ****  * @return the numerical value of `hex` or 0 on error
 379:Middlewares/LVGL/GUI/lvgl/src/draw/lv_draw_label.c ****  */
 380:Middlewares/LVGL/GUI/lvgl/src/draw/lv_draw_label.c **** static uint8_t hex_char_to_num(char hex)
 381:Middlewares/LVGL/GUI/lvgl/src/draw/lv_draw_label.c **** {
  29              		.loc 1 381 1 view -0
  30              		.cfi_startproc
  31              		@ args = 0, pretend = 0, frame = 0
  32              		@ frame_needed = 0, uses_anonymous_args = 0
  33              		@ link register save eliminated.
  34              		.loc 1 381 1 is_stmt 0 view .LVU1
  35 0000 0346     		mov	r3, r0
 382:Middlewares/LVGL/GUI/lvgl/src/draw/lv_draw_label.c ****     uint8_t result = 0;
  36              		.loc 1 382 5 is_stmt 1 view .LVU2
  37              	.LVL1:
 383:Middlewares/LVGL/GUI/lvgl/src/draw/lv_draw_label.c **** 
 384:Middlewares/LVGL/GUI/lvgl/src/draw/lv_draw_label.c ****     if(hex >= '0' && hex <= '9') {
  38              		.loc 1 384 5 view .LVU3
  39              		.loc 1 384 19 is_stmt 0 view .LVU4
  40 0002 3038     		subs	r0, r0, #48
  41              	.LVL2:
  42              		.loc 1 384 19 view .LVU5
  43 0004 C0B2     		uxtb	r0, r0
  44              		.loc 1 384 7 view .LVU6
  45 0006 0928     		cmp	r0, #9
  46 0008 18D9     		bls	.L2
 385:Middlewares/LVGL/GUI/lvgl/src/draw/lv_draw_label.c ****         result = hex - '0';
 386:Middlewares/LVGL/GUI/lvgl/src/draw/lv_draw_label.c ****     }
 387:Middlewares/LVGL/GUI/lvgl/src/draw/lv_draw_label.c ****     else {
 388:Middlewares/LVGL/GUI/lvgl/src/draw/lv_draw_label.c ****         if(hex >= 'a') hex -= 'a' - 'A'; /*Convert to upper case*/
  47              		.loc 1 388 9 is_stmt 1 view .LVU7
  48              		.loc 1 388 11 is_stmt 0 view .LVU8
  49 000a 602B     		cmp	r3, #96
  50 000c 01D9     		bls	.L3
  51              		.loc 1 388 24 is_stmt 1 discriminator 1 view .LVU9
  52              		.loc 1 388 28 is_stmt 0 discriminator 1 view .LVU10
  53 000e 203B     		subs	r3, r3, #32
  54 0010 DBB2     		uxtb	r3, r3
  55              	.LVL3:
  56              	.L3:
 389:Middlewares/LVGL/GUI/lvgl/src/draw/lv_draw_label.c **** 
 390:Middlewares/LVGL/GUI/lvgl/src/draw/lv_draw_label.c ****         switch(hex) {
  57              		.loc 1 390 9 is_stmt 1 view .LVU11
  58 0012 413B     		subs	r3, r3, #65
  59              	.LVL4:
  60              		.loc 1 390 9 is_stmt 0 view .LVU12
  61 0014 052B     		cmp	r3, #5
  62 0016 0ED8     		bhi	.L4
  63 0018 DFE803F0 		tbb	[pc, r3]
  64              	.L6:
  65 001c 03       		.byte	(.L10-.L6)/2
  66 001d 0F       		.byte	(.L11-.L6)/2
  67 001e 05       		.byte	(.L9-.L6)/2
ARM GAS  C:\Users\ADMINI~1\AppData\Local\Temp\ccM5otpk.s 			page 9


  68 001f 07       		.byte	(.L8-.L6)/2
  69 0020 09       		.byte	(.L7-.L6)/2
  70 0021 0B       		.byte	(.L5-.L6)/2
  71              		.p2align 1
  72              	.L10:
  73 0022 0A20     		movs	r0, #10
  74 0024 7047     		bx	lr
  75              	.L9:
 391:Middlewares/LVGL/GUI/lvgl/src/draw/lv_draw_label.c ****             case 'A':
 392:Middlewares/LVGL/GUI/lvgl/src/draw/lv_draw_label.c ****                 result = 10;
 393:Middlewares/LVGL/GUI/lvgl/src/draw/lv_draw_label.c ****                 break;
 394:Middlewares/LVGL/GUI/lvgl/src/draw/lv_draw_label.c ****             case 'B':
 395:Middlewares/LVGL/GUI/lvgl/src/draw/lv_draw_label.c ****                 result = 11;
 396:Middlewares/LVGL/GUI/lvgl/src/draw/lv_draw_label.c ****                 break;
 397:Middlewares/LVGL/GUI/lvgl/src/draw/lv_draw_label.c ****             case 'C':
 398:Middlewares/LVGL/GUI/lvgl/src/draw/lv_draw_label.c ****                 result = 12;
  76              		.loc 1 398 17 is_stmt 1 view .LVU13
  77              	.LVL5:
 399:Middlewares/LVGL/GUI/lvgl/src/draw/lv_draw_label.c ****                 break;
  78              		.loc 1 399 17 view .LVU14
 398:Middlewares/LVGL/GUI/lvgl/src/draw/lv_draw_label.c ****                 break;
  79              		.loc 1 398 24 is_stmt 0 view .LVU15
  80 0026 0C20     		movs	r0, #12
  81              		.loc 1 399 17 view .LVU16
  82 0028 7047     		bx	lr
  83              	.LVL6:
  84              	.L8:
 400:Middlewares/LVGL/GUI/lvgl/src/draw/lv_draw_label.c ****             case 'D':
 401:Middlewares/LVGL/GUI/lvgl/src/draw/lv_draw_label.c ****                 result = 13;
  85              		.loc 1 401 17 is_stmt 1 view .LVU17
 402:Middlewares/LVGL/GUI/lvgl/src/draw/lv_draw_label.c ****                 break;
  86              		.loc 1 402 17 view .LVU18
 401:Middlewares/LVGL/GUI/lvgl/src/draw/lv_draw_label.c ****                 break;
  87              		.loc 1 401 24 is_stmt 0 view .LVU19
  88 002a 0D20     		movs	r0, #13
  89              		.loc 1 402 17 view .LVU20
  90 002c 7047     		bx	lr
  91              	.LVL7:
  92              	.L7:
 403:Middlewares/LVGL/GUI/lvgl/src/draw/lv_draw_label.c ****             case 'E':
 404:Middlewares/LVGL/GUI/lvgl/src/draw/lv_draw_label.c ****                 result = 14;
  93              		.loc 1 404 17 is_stmt 1 view .LVU21
 405:Middlewares/LVGL/GUI/lvgl/src/draw/lv_draw_label.c ****                 break;
  94              		.loc 1 405 17 view .LVU22
 404:Middlewares/LVGL/GUI/lvgl/src/draw/lv_draw_label.c ****                 break;
  95              		.loc 1 404 24 is_stmt 0 view .LVU23
  96 002e 0E20     		movs	r0, #14
  97              		.loc 1 405 17 view .LVU24
  98 0030 7047     		bx	lr
  99              	.LVL8:
 100              	.L5:
 406:Middlewares/LVGL/GUI/lvgl/src/draw/lv_draw_label.c ****             case 'F':
 407:Middlewares/LVGL/GUI/lvgl/src/draw/lv_draw_label.c ****                 result = 15;
 101              		.loc 1 407 17 is_stmt 1 view .LVU25
 408:Middlewares/LVGL/GUI/lvgl/src/draw/lv_draw_label.c ****                 break;
 102              		.loc 1 408 17 view .LVU26
 407:Middlewares/LVGL/GUI/lvgl/src/draw/lv_draw_label.c ****                 break;
ARM GAS  C:\Users\ADMINI~1\AppData\Local\Temp\ccM5otpk.s 			page 10


 103              		.loc 1 407 24 is_stmt 0 view .LVU27
 104 0032 0F20     		movs	r0, #15
 105              		.loc 1 408 17 view .LVU28
 106 0034 7047     		bx	lr
 107              	.LVL9:
 108              	.L4:
 409:Middlewares/LVGL/GUI/lvgl/src/draw/lv_draw_label.c ****             default:
 410:Middlewares/LVGL/GUI/lvgl/src/draw/lv_draw_label.c ****                 result = 0;
 109              		.loc 1 410 17 is_stmt 1 view .LVU29
 411:Middlewares/LVGL/GUI/lvgl/src/draw/lv_draw_label.c ****                 break;
 110              		.loc 1 411 17 view .LVU30
 410:Middlewares/LVGL/GUI/lvgl/src/draw/lv_draw_label.c ****                 break;
 111              		.loc 1 410 24 is_stmt 0 view .LVU31
 112 0036 0020     		movs	r0, #0
 113              		.loc 1 411 17 view .LVU32
 114 0038 7047     		bx	lr
 115              	.L11:
 395:Middlewares/LVGL/GUI/lvgl/src/draw/lv_draw_label.c ****                 break;
 116              		.loc 1 395 24 view .LVU33
 117 003a 0B20     		movs	r0, #11
 118              	.L2:
 119              	.LVL10:
 412:Middlewares/LVGL/GUI/lvgl/src/draw/lv_draw_label.c ****         }
 413:Middlewares/LVGL/GUI/lvgl/src/draw/lv_draw_label.c ****     }
 414:Middlewares/LVGL/GUI/lvgl/src/draw/lv_draw_label.c **** 
 415:Middlewares/LVGL/GUI/lvgl/src/draw/lv_draw_label.c ****     return result;
 120              		.loc 1 415 5 is_stmt 1 view .LVU34
 416:Middlewares/LVGL/GUI/lvgl/src/draw/lv_draw_label.c **** }
 121              		.loc 1 416 1 is_stmt 0 view .LVU35
 122 003c 7047     		bx	lr
 123              		.cfi_endproc
 124              	.LFE156:
 126              		.section	.text.lv_draw_label_dsc_init,"ax",%progbits
 127              		.align	1
 128              		.global	lv_draw_label_dsc_init
 129              		.syntax unified
 130              		.thumb
 131              		.thumb_func
 133              	lv_draw_label_dsc_init:
 134              	.LVL11:
 135              	.LFB153:
  56:Middlewares/LVGL/GUI/lvgl/src/draw/lv_draw_label.c ****     lv_memset_00(dsc, sizeof(lv_draw_label_dsc_t));
 136              		.loc 1 56 1 is_stmt 1 view -0
 137              		.cfi_startproc
 138              		@ args = 0, pretend = 0, frame = 0
 139              		@ frame_needed = 0, uses_anonymous_args = 0
  56:Middlewares/LVGL/GUI/lvgl/src/draw/lv_draw_label.c ****     lv_memset_00(dsc, sizeof(lv_draw_label_dsc_t));
 140              		.loc 1 56 1 is_stmt 0 view .LVU37
 141 0000 10B5     		push	{r4, lr}
 142              	.LCFI0:
 143              		.cfi_def_cfa_offset 8
 144              		.cfi_offset 4, -8
 145              		.cfi_offset 14, -4
 146 0002 0446     		mov	r4, r0
  57:Middlewares/LVGL/GUI/lvgl/src/draw/lv_draw_label.c ****     dsc->opa = LV_OPA_COVER;
 147              		.loc 1 57 5 is_stmt 1 view .LVU38
 148 0004 2C21     		movs	r1, #44
ARM GAS  C:\Users\ADMINI~1\AppData\Local\Temp\ccM5otpk.s 			page 11


 149 0006 FFF7FEFF 		bl	lv_memset_00
 150              	.LVL12:
  58:Middlewares/LVGL/GUI/lvgl/src/draw/lv_draw_label.c ****     dsc->color = lv_color_black();
 151              		.loc 1 58 5 view .LVU39
  58:Middlewares/LVGL/GUI/lvgl/src/draw/lv_draw_label.c ****     dsc->color = lv_color_black();
 152              		.loc 1 58 14 is_stmt 0 view .LVU40
 153 000a FF23     		movs	r3, #255
 154 000c 84F82430 		strb	r3, [r4, #36]
  59:Middlewares/LVGL/GUI/lvgl/src/draw/lv_draw_label.c ****     dsc->font = LV_FONT_DEFAULT;
 155              		.loc 1 59 5 is_stmt 1 view .LVU41
 156              	.LBB42:
 157              	.LBI42:
 158              		.file 2 "Middlewares/LVGL/GUI/lvgl/src/draw/../misc/lv_color.h"
   1:Middlewares/LVGL/GUI/lvgl/src/draw/../misc/lv_color.h **** /**
   2:Middlewares/LVGL/GUI/lvgl/src/draw/../misc/lv_color.h ****  * @file lv_color.h
   3:Middlewares/LVGL/GUI/lvgl/src/draw/../misc/lv_color.h ****  *
   4:Middlewares/LVGL/GUI/lvgl/src/draw/../misc/lv_color.h ****  */
   5:Middlewares/LVGL/GUI/lvgl/src/draw/../misc/lv_color.h **** 
   6:Middlewares/LVGL/GUI/lvgl/src/draw/../misc/lv_color.h **** #ifndef LV_COLOR_H
   7:Middlewares/LVGL/GUI/lvgl/src/draw/../misc/lv_color.h **** #define LV_COLOR_H
   8:Middlewares/LVGL/GUI/lvgl/src/draw/../misc/lv_color.h **** 
   9:Middlewares/LVGL/GUI/lvgl/src/draw/../misc/lv_color.h **** #ifdef __cplusplus
  10:Middlewares/LVGL/GUI/lvgl/src/draw/../misc/lv_color.h **** extern "C" {
  11:Middlewares/LVGL/GUI/lvgl/src/draw/../misc/lv_color.h **** #endif
  12:Middlewares/LVGL/GUI/lvgl/src/draw/../misc/lv_color.h **** 
  13:Middlewares/LVGL/GUI/lvgl/src/draw/../misc/lv_color.h **** /*********************
  14:Middlewares/LVGL/GUI/lvgl/src/draw/../misc/lv_color.h ****  *      INCLUDES
  15:Middlewares/LVGL/GUI/lvgl/src/draw/../misc/lv_color.h ****  *********************/
  16:Middlewares/LVGL/GUI/lvgl/src/draw/../misc/lv_color.h **** #include "../lv_conf_internal.h"
  17:Middlewares/LVGL/GUI/lvgl/src/draw/../misc/lv_color.h **** #include "lv_assert.h"
  18:Middlewares/LVGL/GUI/lvgl/src/draw/../misc/lv_color.h **** #include "lv_math.h"
  19:Middlewares/LVGL/GUI/lvgl/src/draw/../misc/lv_color.h **** #include "lv_types.h"
  20:Middlewares/LVGL/GUI/lvgl/src/draw/../misc/lv_color.h **** 
  21:Middlewares/LVGL/GUI/lvgl/src/draw/../misc/lv_color.h **** /*Error checking*/
  22:Middlewares/LVGL/GUI/lvgl/src/draw/../misc/lv_color.h **** #if LV_COLOR_DEPTH == 24
  23:Middlewares/LVGL/GUI/lvgl/src/draw/../misc/lv_color.h **** #error "LV_COLOR_DEPTH 24 is deprecated. Use LV_COLOR_DEPTH 32 instead (lv_conf.h)"
  24:Middlewares/LVGL/GUI/lvgl/src/draw/../misc/lv_color.h **** #endif
  25:Middlewares/LVGL/GUI/lvgl/src/draw/../misc/lv_color.h **** 
  26:Middlewares/LVGL/GUI/lvgl/src/draw/../misc/lv_color.h **** #if LV_COLOR_DEPTH != 32 && LV_COLOR_SCREEN_TRANSP != 0
  27:Middlewares/LVGL/GUI/lvgl/src/draw/../misc/lv_color.h **** #error "LV_COLOR_SCREEN_TRANSP requires LV_COLOR_DEPTH == 32. Set it in lv_conf.h"
  28:Middlewares/LVGL/GUI/lvgl/src/draw/../misc/lv_color.h **** #endif
  29:Middlewares/LVGL/GUI/lvgl/src/draw/../misc/lv_color.h **** 
  30:Middlewares/LVGL/GUI/lvgl/src/draw/../misc/lv_color.h **** #if LV_COLOR_DEPTH != 16 && LV_COLOR_16_SWAP != 0
  31:Middlewares/LVGL/GUI/lvgl/src/draw/../misc/lv_color.h **** #error "LV_COLOR_16_SWAP requires LV_COLOR_DEPTH == 16. Set it in lv_conf.h"
  32:Middlewares/LVGL/GUI/lvgl/src/draw/../misc/lv_color.h **** #endif
  33:Middlewares/LVGL/GUI/lvgl/src/draw/../misc/lv_color.h **** 
  34:Middlewares/LVGL/GUI/lvgl/src/draw/../misc/lv_color.h **** #include <stdint.h>
  35:Middlewares/LVGL/GUI/lvgl/src/draw/../misc/lv_color.h **** 
  36:Middlewares/LVGL/GUI/lvgl/src/draw/../misc/lv_color.h **** /*********************
  37:Middlewares/LVGL/GUI/lvgl/src/draw/../misc/lv_color.h ****  *      DEFINES
  38:Middlewares/LVGL/GUI/lvgl/src/draw/../misc/lv_color.h ****  *********************/
  39:Middlewares/LVGL/GUI/lvgl/src/draw/../misc/lv_color.h **** LV_EXPORT_CONST_INT(LV_COLOR_DEPTH);
  40:Middlewares/LVGL/GUI/lvgl/src/draw/../misc/lv_color.h **** LV_EXPORT_CONST_INT(LV_COLOR_16_SWAP);
  41:Middlewares/LVGL/GUI/lvgl/src/draw/../misc/lv_color.h **** 
  42:Middlewares/LVGL/GUI/lvgl/src/draw/../misc/lv_color.h **** /**
  43:Middlewares/LVGL/GUI/lvgl/src/draw/../misc/lv_color.h ****  * Opacity percentages.
  44:Middlewares/LVGL/GUI/lvgl/src/draw/../misc/lv_color.h ****  */
ARM GAS  C:\Users\ADMINI~1\AppData\Local\Temp\ccM5otpk.s 			page 12


  45:Middlewares/LVGL/GUI/lvgl/src/draw/../misc/lv_color.h **** enum {
  46:Middlewares/LVGL/GUI/lvgl/src/draw/../misc/lv_color.h ****     LV_OPA_TRANSP = 0,
  47:Middlewares/LVGL/GUI/lvgl/src/draw/../misc/lv_color.h ****     LV_OPA_0      = 0,
  48:Middlewares/LVGL/GUI/lvgl/src/draw/../misc/lv_color.h ****     LV_OPA_10     = 25,
  49:Middlewares/LVGL/GUI/lvgl/src/draw/../misc/lv_color.h ****     LV_OPA_20     = 51,
  50:Middlewares/LVGL/GUI/lvgl/src/draw/../misc/lv_color.h ****     LV_OPA_30     = 76,
  51:Middlewares/LVGL/GUI/lvgl/src/draw/../misc/lv_color.h ****     LV_OPA_40     = 102,
  52:Middlewares/LVGL/GUI/lvgl/src/draw/../misc/lv_color.h ****     LV_OPA_50     = 127,
  53:Middlewares/LVGL/GUI/lvgl/src/draw/../misc/lv_color.h ****     LV_OPA_60     = 153,
  54:Middlewares/LVGL/GUI/lvgl/src/draw/../misc/lv_color.h ****     LV_OPA_70     = 178,
  55:Middlewares/LVGL/GUI/lvgl/src/draw/../misc/lv_color.h ****     LV_OPA_80     = 204,
  56:Middlewares/LVGL/GUI/lvgl/src/draw/../misc/lv_color.h ****     LV_OPA_90     = 229,
  57:Middlewares/LVGL/GUI/lvgl/src/draw/../misc/lv_color.h ****     LV_OPA_100    = 255,
  58:Middlewares/LVGL/GUI/lvgl/src/draw/../misc/lv_color.h ****     LV_OPA_COVER  = 255,
  59:Middlewares/LVGL/GUI/lvgl/src/draw/../misc/lv_color.h **** };
  60:Middlewares/LVGL/GUI/lvgl/src/draw/../misc/lv_color.h **** 
  61:Middlewares/LVGL/GUI/lvgl/src/draw/../misc/lv_color.h **** #define LV_OPA_MIN 2    /*Opacities below this will be transparent*/
  62:Middlewares/LVGL/GUI/lvgl/src/draw/../misc/lv_color.h **** #define LV_OPA_MAX 253  /*Opacities above this will fully cover*/
  63:Middlewares/LVGL/GUI/lvgl/src/draw/../misc/lv_color.h **** 
  64:Middlewares/LVGL/GUI/lvgl/src/draw/../misc/lv_color.h **** #if LV_COLOR_DEPTH == 1
  65:Middlewares/LVGL/GUI/lvgl/src/draw/../misc/lv_color.h **** #define LV_COLOR_SIZE 8
  66:Middlewares/LVGL/GUI/lvgl/src/draw/../misc/lv_color.h **** #elif LV_COLOR_DEPTH == 8
  67:Middlewares/LVGL/GUI/lvgl/src/draw/../misc/lv_color.h **** #define LV_COLOR_SIZE 8
  68:Middlewares/LVGL/GUI/lvgl/src/draw/../misc/lv_color.h **** #elif LV_COLOR_DEPTH == 16
  69:Middlewares/LVGL/GUI/lvgl/src/draw/../misc/lv_color.h **** #define LV_COLOR_SIZE 16
  70:Middlewares/LVGL/GUI/lvgl/src/draw/../misc/lv_color.h **** #elif LV_COLOR_DEPTH == 32
  71:Middlewares/LVGL/GUI/lvgl/src/draw/../misc/lv_color.h **** #define LV_COLOR_SIZE 32
  72:Middlewares/LVGL/GUI/lvgl/src/draw/../misc/lv_color.h **** #else
  73:Middlewares/LVGL/GUI/lvgl/src/draw/../misc/lv_color.h **** #error "Invalid LV_COLOR_DEPTH in lv_conf.h! Set it to 1, 8, 16 or 32!"
  74:Middlewares/LVGL/GUI/lvgl/src/draw/../misc/lv_color.h **** #endif
  75:Middlewares/LVGL/GUI/lvgl/src/draw/../misc/lv_color.h **** 
  76:Middlewares/LVGL/GUI/lvgl/src/draw/../misc/lv_color.h **** #if defined(__cplusplus) && !defined(_LV_COLOR_HAS_MODERN_CPP)
  77:Middlewares/LVGL/GUI/lvgl/src/draw/../misc/lv_color.h **** /**
  78:Middlewares/LVGL/GUI/lvgl/src/draw/../misc/lv_color.h **** * MSVC compiler's definition of the __cplusplus indicating 199711L regardless to C++ standard versi
  79:Middlewares/LVGL/GUI/lvgl/src/draw/../misc/lv_color.h **** * see https://devblogs.microsoft.com/cppblog/msvc-now-correctly-reports-cplusplus
  80:Middlewares/LVGL/GUI/lvgl/src/draw/../misc/lv_color.h **** * so we use _MSC_VER macro instead of __cplusplus
  81:Middlewares/LVGL/GUI/lvgl/src/draw/../misc/lv_color.h **** */
  82:Middlewares/LVGL/GUI/lvgl/src/draw/../misc/lv_color.h **** #ifdef _MSC_VER
  83:Middlewares/LVGL/GUI/lvgl/src/draw/../misc/lv_color.h **** #if _MSC_VER >= 1900 /*Visual Studio 2015*/
  84:Middlewares/LVGL/GUI/lvgl/src/draw/../misc/lv_color.h **** #define _LV_COLOR_HAS_MODERN_CPP 1
  85:Middlewares/LVGL/GUI/lvgl/src/draw/../misc/lv_color.h **** #endif
  86:Middlewares/LVGL/GUI/lvgl/src/draw/../misc/lv_color.h **** #else
  87:Middlewares/LVGL/GUI/lvgl/src/draw/../misc/lv_color.h **** #if __cplusplus >= 201103L
  88:Middlewares/LVGL/GUI/lvgl/src/draw/../misc/lv_color.h **** #define _LV_COLOR_HAS_MODERN_CPP 1
  89:Middlewares/LVGL/GUI/lvgl/src/draw/../misc/lv_color.h **** #endif
  90:Middlewares/LVGL/GUI/lvgl/src/draw/../misc/lv_color.h **** #endif
  91:Middlewares/LVGL/GUI/lvgl/src/draw/../misc/lv_color.h **** #endif /*__cplusplus*/
  92:Middlewares/LVGL/GUI/lvgl/src/draw/../misc/lv_color.h **** 
  93:Middlewares/LVGL/GUI/lvgl/src/draw/../misc/lv_color.h **** #ifndef _LV_COLOR_HAS_MODERN_CPP
  94:Middlewares/LVGL/GUI/lvgl/src/draw/../misc/lv_color.h **** #define _LV_COLOR_HAS_MODERN_CPP 0
  95:Middlewares/LVGL/GUI/lvgl/src/draw/../misc/lv_color.h **** #endif
  96:Middlewares/LVGL/GUI/lvgl/src/draw/../misc/lv_color.h **** 
  97:Middlewares/LVGL/GUI/lvgl/src/draw/../misc/lv_color.h **** #if _LV_COLOR_HAS_MODERN_CPP
  98:Middlewares/LVGL/GUI/lvgl/src/draw/../misc/lv_color.h **** /*Fix msvc compiler error C4576 inside C++ code*/
  99:Middlewares/LVGL/GUI/lvgl/src/draw/../misc/lv_color.h **** #define _LV_COLOR_MAKE_TYPE_HELPER lv_color_t
 100:Middlewares/LVGL/GUI/lvgl/src/draw/../misc/lv_color.h **** #else
 101:Middlewares/LVGL/GUI/lvgl/src/draw/../misc/lv_color.h **** #define _LV_COLOR_MAKE_TYPE_HELPER (lv_color_t)
ARM GAS  C:\Users\ADMINI~1\AppData\Local\Temp\ccM5otpk.s 			page 13


 102:Middlewares/LVGL/GUI/lvgl/src/draw/../misc/lv_color.h **** #endif
 103:Middlewares/LVGL/GUI/lvgl/src/draw/../misc/lv_color.h **** 
 104:Middlewares/LVGL/GUI/lvgl/src/draw/../misc/lv_color.h **** /*---------------------------------------
 105:Middlewares/LVGL/GUI/lvgl/src/draw/../misc/lv_color.h ****  * Macros for all existing color depths
 106:Middlewares/LVGL/GUI/lvgl/src/draw/../misc/lv_color.h ****  * to set/get values of the color channels
 107:Middlewares/LVGL/GUI/lvgl/src/draw/../misc/lv_color.h ****  *------------------------------------------*/
 108:Middlewares/LVGL/GUI/lvgl/src/draw/../misc/lv_color.h **** # define LV_COLOR_SET_R1(c, v) (c).ch.red = (uint8_t)((v) & 0x1)
 109:Middlewares/LVGL/GUI/lvgl/src/draw/../misc/lv_color.h **** # define LV_COLOR_SET_G1(c, v) (c).ch.green = (uint8_t)((v) & 0x1)
 110:Middlewares/LVGL/GUI/lvgl/src/draw/../misc/lv_color.h **** # define LV_COLOR_SET_B1(c, v) (c).ch.blue = (uint8_t)((v) & 0x1)
 111:Middlewares/LVGL/GUI/lvgl/src/draw/../misc/lv_color.h **** # define LV_COLOR_SET_A1(c, v) do {} while(0)
 112:Middlewares/LVGL/GUI/lvgl/src/draw/../misc/lv_color.h **** 
 113:Middlewares/LVGL/GUI/lvgl/src/draw/../misc/lv_color.h **** # define LV_COLOR_GET_R1(c) (c).ch.red
 114:Middlewares/LVGL/GUI/lvgl/src/draw/../misc/lv_color.h **** # define LV_COLOR_GET_G1(c) (c).ch.green
 115:Middlewares/LVGL/GUI/lvgl/src/draw/../misc/lv_color.h **** # define LV_COLOR_GET_B1(c) (c).ch.blue
 116:Middlewares/LVGL/GUI/lvgl/src/draw/../misc/lv_color.h **** # define LV_COLOR_GET_A1(c) 0xFF
 117:Middlewares/LVGL/GUI/lvgl/src/draw/../misc/lv_color.h **** 
 118:Middlewares/LVGL/GUI/lvgl/src/draw/../misc/lv_color.h **** # define _LV_COLOR_ZERO_INITIALIZER1 {0x00}
 119:Middlewares/LVGL/GUI/lvgl/src/draw/../misc/lv_color.h **** # define LV_COLOR_MAKE1(r8, g8, b8)  {(uint8_t)((b8 >> 7) | (g8 >> 7) | (r8 >> 7))}
 120:Middlewares/LVGL/GUI/lvgl/src/draw/../misc/lv_color.h **** 
 121:Middlewares/LVGL/GUI/lvgl/src/draw/../misc/lv_color.h **** # define LV_COLOR_SET_R8(c, v) (c).ch.red = (uint8_t)((v) & 0x7U)
 122:Middlewares/LVGL/GUI/lvgl/src/draw/../misc/lv_color.h **** # define LV_COLOR_SET_G8(c, v) (c).ch.green = (uint8_t)((v) & 0x7U)
 123:Middlewares/LVGL/GUI/lvgl/src/draw/../misc/lv_color.h **** # define LV_COLOR_SET_B8(c, v) (c).ch.blue = (uint8_t)((v) & 0x3U)
 124:Middlewares/LVGL/GUI/lvgl/src/draw/../misc/lv_color.h **** # define LV_COLOR_SET_A8(c, v) do {} while(0)
 125:Middlewares/LVGL/GUI/lvgl/src/draw/../misc/lv_color.h **** 
 126:Middlewares/LVGL/GUI/lvgl/src/draw/../misc/lv_color.h **** # define LV_COLOR_GET_R8(c) (c).ch.red
 127:Middlewares/LVGL/GUI/lvgl/src/draw/../misc/lv_color.h **** # define LV_COLOR_GET_G8(c) (c).ch.green
 128:Middlewares/LVGL/GUI/lvgl/src/draw/../misc/lv_color.h **** # define LV_COLOR_GET_B8(c) (c).ch.blue
 129:Middlewares/LVGL/GUI/lvgl/src/draw/../misc/lv_color.h **** # define LV_COLOR_GET_A8(c) 0xFF
 130:Middlewares/LVGL/GUI/lvgl/src/draw/../misc/lv_color.h **** 
 131:Middlewares/LVGL/GUI/lvgl/src/draw/../misc/lv_color.h **** # define _LV_COLOR_ZERO_INITIALIZER8 {{0x00, 0x00, 0x00}}
 132:Middlewares/LVGL/GUI/lvgl/src/draw/../misc/lv_color.h **** # define LV_COLOR_MAKE8(r8, g8, b8) {{(uint8_t)((b8 >> 6) & 0x3U), (uint8_t)((g8 >> 5) & 0x7U), (ui
 133:Middlewares/LVGL/GUI/lvgl/src/draw/../misc/lv_color.h **** 
 134:Middlewares/LVGL/GUI/lvgl/src/draw/../misc/lv_color.h **** # define LV_COLOR_SET_R16(c, v) (c).ch.red = (uint8_t)((v) & 0x1FU)
 135:Middlewares/LVGL/GUI/lvgl/src/draw/../misc/lv_color.h **** #if LV_COLOR_16_SWAP == 0
 136:Middlewares/LVGL/GUI/lvgl/src/draw/../misc/lv_color.h **** # define LV_COLOR_SET_G16(c, v) (c).ch.green = (uint8_t)((v) & 0x3FU)
 137:Middlewares/LVGL/GUI/lvgl/src/draw/../misc/lv_color.h **** #else
 138:Middlewares/LVGL/GUI/lvgl/src/draw/../misc/lv_color.h **** # define LV_COLOR_SET_G16(c, v) {(c).ch.green_h = (uint8_t)(((v) >> 3) & 0x7); (c).ch.green_l = (ui
 139:Middlewares/LVGL/GUI/lvgl/src/draw/../misc/lv_color.h **** #endif
 140:Middlewares/LVGL/GUI/lvgl/src/draw/../misc/lv_color.h **** # define LV_COLOR_SET_B16(c, v) (c).ch.blue = (uint8_t)((v) & 0x1FU)
 141:Middlewares/LVGL/GUI/lvgl/src/draw/../misc/lv_color.h **** # define LV_COLOR_SET_A16(c, v) do {} while(0)
 142:Middlewares/LVGL/GUI/lvgl/src/draw/../misc/lv_color.h **** 
 143:Middlewares/LVGL/GUI/lvgl/src/draw/../misc/lv_color.h **** # define LV_COLOR_GET_R16(c) (c).ch.red
 144:Middlewares/LVGL/GUI/lvgl/src/draw/../misc/lv_color.h **** #if LV_COLOR_16_SWAP == 0
 145:Middlewares/LVGL/GUI/lvgl/src/draw/../misc/lv_color.h **** # define LV_COLOR_GET_G16(c) (c).ch.green
 146:Middlewares/LVGL/GUI/lvgl/src/draw/../misc/lv_color.h **** #else
 147:Middlewares/LVGL/GUI/lvgl/src/draw/../misc/lv_color.h **** # define LV_COLOR_GET_G16(c) (((c).ch.green_h << 3) + (c).ch.green_l)
 148:Middlewares/LVGL/GUI/lvgl/src/draw/../misc/lv_color.h **** #endif
 149:Middlewares/LVGL/GUI/lvgl/src/draw/../misc/lv_color.h **** # define LV_COLOR_GET_B16(c) (c).ch.blue
 150:Middlewares/LVGL/GUI/lvgl/src/draw/../misc/lv_color.h **** # define LV_COLOR_GET_A16(c) 0xFF
 151:Middlewares/LVGL/GUI/lvgl/src/draw/../misc/lv_color.h **** 
 152:Middlewares/LVGL/GUI/lvgl/src/draw/../misc/lv_color.h **** #if LV_COLOR_16_SWAP == 0
 153:Middlewares/LVGL/GUI/lvgl/src/draw/../misc/lv_color.h **** # define _LV_COLOR_ZERO_INITIALIZER16  {{0x00, 0x00, 0x00}}
 154:Middlewares/LVGL/GUI/lvgl/src/draw/../misc/lv_color.h **** # define LV_COLOR_MAKE16(r8, g8, b8) {{(uint8_t)((b8 >> 3) & 0x1FU), (uint8_t)((g8 >> 2) & 0x3FU), 
 155:Middlewares/LVGL/GUI/lvgl/src/draw/../misc/lv_color.h **** #else
 156:Middlewares/LVGL/GUI/lvgl/src/draw/../misc/lv_color.h **** # define _LV_COLOR_ZERO_INITIALIZER16 {{0x00, 0x00, 0x00, 0x00}}
 157:Middlewares/LVGL/GUI/lvgl/src/draw/../misc/lv_color.h **** # define LV_COLOR_MAKE16(r8, g8, b8) {{(uint8_t)((g8 >> 5) & 0x7U), (uint8_t)((r8 >> 3) & 0x1FU), (
 158:Middlewares/LVGL/GUI/lvgl/src/draw/../misc/lv_color.h **** #endif
ARM GAS  C:\Users\ADMINI~1\AppData\Local\Temp\ccM5otpk.s 			page 14


 159:Middlewares/LVGL/GUI/lvgl/src/draw/../misc/lv_color.h **** 
 160:Middlewares/LVGL/GUI/lvgl/src/draw/../misc/lv_color.h **** # define LV_COLOR_SET_R32(c, v) (c).ch.red = (uint8_t)((v) & 0xFF)
 161:Middlewares/LVGL/GUI/lvgl/src/draw/../misc/lv_color.h **** # define LV_COLOR_SET_G32(c, v) (c).ch.green = (uint8_t)((v) & 0xFF)
 162:Middlewares/LVGL/GUI/lvgl/src/draw/../misc/lv_color.h **** # define LV_COLOR_SET_B32(c, v) (c).ch.blue = (uint8_t)((v) & 0xFF)
 163:Middlewares/LVGL/GUI/lvgl/src/draw/../misc/lv_color.h **** # define LV_COLOR_SET_A32(c, v) (c).ch.alpha = (uint8_t)((v) & 0xFF)
 164:Middlewares/LVGL/GUI/lvgl/src/draw/../misc/lv_color.h **** 
 165:Middlewares/LVGL/GUI/lvgl/src/draw/../misc/lv_color.h **** # define LV_COLOR_GET_R32(c) (c).ch.red
 166:Middlewares/LVGL/GUI/lvgl/src/draw/../misc/lv_color.h **** # define LV_COLOR_GET_G32(c) (c).ch.green
 167:Middlewares/LVGL/GUI/lvgl/src/draw/../misc/lv_color.h **** # define LV_COLOR_GET_B32(c) (c).ch.blue
 168:Middlewares/LVGL/GUI/lvgl/src/draw/../misc/lv_color.h **** # define LV_COLOR_GET_A32(c) (c).ch.alpha
 169:Middlewares/LVGL/GUI/lvgl/src/draw/../misc/lv_color.h **** 
 170:Middlewares/LVGL/GUI/lvgl/src/draw/../misc/lv_color.h **** # define _LV_COLOR_ZERO_INITIALIZER32  {{0x00, 0x00, 0x00, 0x00}}
 171:Middlewares/LVGL/GUI/lvgl/src/draw/../misc/lv_color.h **** # define LV_COLOR_MAKE32(r8, g8, b8) {{b8, g8, r8, 0xff}} /*Fix 0xff alpha*/
 172:Middlewares/LVGL/GUI/lvgl/src/draw/../misc/lv_color.h **** 
 173:Middlewares/LVGL/GUI/lvgl/src/draw/../misc/lv_color.h **** /*---------------------------------------
 174:Middlewares/LVGL/GUI/lvgl/src/draw/../misc/lv_color.h ****  * Macros for the current color depth
 175:Middlewares/LVGL/GUI/lvgl/src/draw/../misc/lv_color.h ****  * to set/get values of the color channels
 176:Middlewares/LVGL/GUI/lvgl/src/draw/../misc/lv_color.h ****  *------------------------------------------*/
 177:Middlewares/LVGL/GUI/lvgl/src/draw/../misc/lv_color.h **** #define LV_COLOR_SET_R(c, v) LV_CONCAT(LV_COLOR_SET_R, LV_COLOR_DEPTH)(c, v)
 178:Middlewares/LVGL/GUI/lvgl/src/draw/../misc/lv_color.h **** #define LV_COLOR_SET_G(c, v) LV_CONCAT(LV_COLOR_SET_G, LV_COLOR_DEPTH)(c, v)
 179:Middlewares/LVGL/GUI/lvgl/src/draw/../misc/lv_color.h **** #define LV_COLOR_SET_B(c, v) LV_CONCAT(LV_COLOR_SET_B, LV_COLOR_DEPTH)(c, v)
 180:Middlewares/LVGL/GUI/lvgl/src/draw/../misc/lv_color.h **** #define LV_COLOR_SET_A(c, v) LV_CONCAT(LV_COLOR_SET_A, LV_COLOR_DEPTH)(c, v)
 181:Middlewares/LVGL/GUI/lvgl/src/draw/../misc/lv_color.h **** 
 182:Middlewares/LVGL/GUI/lvgl/src/draw/../misc/lv_color.h **** #define LV_COLOR_GET_R(c) LV_CONCAT(LV_COLOR_GET_R, LV_COLOR_DEPTH)(c)
 183:Middlewares/LVGL/GUI/lvgl/src/draw/../misc/lv_color.h **** #define LV_COLOR_GET_G(c) LV_CONCAT(LV_COLOR_GET_G, LV_COLOR_DEPTH)(c)
 184:Middlewares/LVGL/GUI/lvgl/src/draw/../misc/lv_color.h **** #define LV_COLOR_GET_B(c) LV_CONCAT(LV_COLOR_GET_B, LV_COLOR_DEPTH)(c)
 185:Middlewares/LVGL/GUI/lvgl/src/draw/../misc/lv_color.h **** #define LV_COLOR_GET_A(c) LV_CONCAT(LV_COLOR_GET_A, LV_COLOR_DEPTH)(c)
 186:Middlewares/LVGL/GUI/lvgl/src/draw/../misc/lv_color.h **** 
 187:Middlewares/LVGL/GUI/lvgl/src/draw/../misc/lv_color.h **** #define _LV_COLOR_ZERO_INITIALIZER LV_CONCAT(_LV_COLOR_ZERO_INITIALIZER, LV_COLOR_DEPTH)
 188:Middlewares/LVGL/GUI/lvgl/src/draw/../misc/lv_color.h **** #define LV_COLOR_MAKE(r8, g8, b8) LV_CONCAT(LV_COLOR_MAKE, LV_COLOR_DEPTH)(r8, g8, b8)
 189:Middlewares/LVGL/GUI/lvgl/src/draw/../misc/lv_color.h **** 
 190:Middlewares/LVGL/GUI/lvgl/src/draw/../misc/lv_color.h **** /**********************
 191:Middlewares/LVGL/GUI/lvgl/src/draw/../misc/lv_color.h ****  *      TYPEDEFS
 192:Middlewares/LVGL/GUI/lvgl/src/draw/../misc/lv_color.h ****  **********************/
 193:Middlewares/LVGL/GUI/lvgl/src/draw/../misc/lv_color.h **** 
 194:Middlewares/LVGL/GUI/lvgl/src/draw/../misc/lv_color.h **** typedef union {
 195:Middlewares/LVGL/GUI/lvgl/src/draw/../misc/lv_color.h ****     uint8_t full; /*must be declared first to set all bits of byte via initializer list*/
 196:Middlewares/LVGL/GUI/lvgl/src/draw/../misc/lv_color.h ****     union {
 197:Middlewares/LVGL/GUI/lvgl/src/draw/../misc/lv_color.h ****         uint8_t blue : 1;
 198:Middlewares/LVGL/GUI/lvgl/src/draw/../misc/lv_color.h ****         uint8_t green : 1;
 199:Middlewares/LVGL/GUI/lvgl/src/draw/../misc/lv_color.h ****         uint8_t red : 1;
 200:Middlewares/LVGL/GUI/lvgl/src/draw/../misc/lv_color.h ****     } ch;
 201:Middlewares/LVGL/GUI/lvgl/src/draw/../misc/lv_color.h **** } lv_color1_t;
 202:Middlewares/LVGL/GUI/lvgl/src/draw/../misc/lv_color.h **** 
 203:Middlewares/LVGL/GUI/lvgl/src/draw/../misc/lv_color.h **** typedef union {
 204:Middlewares/LVGL/GUI/lvgl/src/draw/../misc/lv_color.h ****     struct {
 205:Middlewares/LVGL/GUI/lvgl/src/draw/../misc/lv_color.h ****         uint8_t blue : 2;
 206:Middlewares/LVGL/GUI/lvgl/src/draw/../misc/lv_color.h ****         uint8_t green : 3;
 207:Middlewares/LVGL/GUI/lvgl/src/draw/../misc/lv_color.h ****         uint8_t red : 3;
 208:Middlewares/LVGL/GUI/lvgl/src/draw/../misc/lv_color.h ****     } ch;
 209:Middlewares/LVGL/GUI/lvgl/src/draw/../misc/lv_color.h ****     uint8_t full;
 210:Middlewares/LVGL/GUI/lvgl/src/draw/../misc/lv_color.h **** } lv_color8_t;
 211:Middlewares/LVGL/GUI/lvgl/src/draw/../misc/lv_color.h **** 
 212:Middlewares/LVGL/GUI/lvgl/src/draw/../misc/lv_color.h **** typedef union {
 213:Middlewares/LVGL/GUI/lvgl/src/draw/../misc/lv_color.h ****     struct {
 214:Middlewares/LVGL/GUI/lvgl/src/draw/../misc/lv_color.h **** #if LV_COLOR_16_SWAP == 0
 215:Middlewares/LVGL/GUI/lvgl/src/draw/../misc/lv_color.h ****         uint16_t blue : 5;
ARM GAS  C:\Users\ADMINI~1\AppData\Local\Temp\ccM5otpk.s 			page 15


 216:Middlewares/LVGL/GUI/lvgl/src/draw/../misc/lv_color.h ****         uint16_t green : 6;
 217:Middlewares/LVGL/GUI/lvgl/src/draw/../misc/lv_color.h ****         uint16_t red : 5;
 218:Middlewares/LVGL/GUI/lvgl/src/draw/../misc/lv_color.h **** #else
 219:Middlewares/LVGL/GUI/lvgl/src/draw/../misc/lv_color.h ****         uint16_t green_h : 3;
 220:Middlewares/LVGL/GUI/lvgl/src/draw/../misc/lv_color.h ****         uint16_t red : 5;
 221:Middlewares/LVGL/GUI/lvgl/src/draw/../misc/lv_color.h ****         uint16_t blue : 5;
 222:Middlewares/LVGL/GUI/lvgl/src/draw/../misc/lv_color.h ****         uint16_t green_l : 3;
 223:Middlewares/LVGL/GUI/lvgl/src/draw/../misc/lv_color.h **** #endif
 224:Middlewares/LVGL/GUI/lvgl/src/draw/../misc/lv_color.h ****     } ch;
 225:Middlewares/LVGL/GUI/lvgl/src/draw/../misc/lv_color.h ****     uint16_t full;
 226:Middlewares/LVGL/GUI/lvgl/src/draw/../misc/lv_color.h **** } lv_color16_t;
 227:Middlewares/LVGL/GUI/lvgl/src/draw/../misc/lv_color.h **** 
 228:Middlewares/LVGL/GUI/lvgl/src/draw/../misc/lv_color.h **** typedef union {
 229:Middlewares/LVGL/GUI/lvgl/src/draw/../misc/lv_color.h ****     struct {
 230:Middlewares/LVGL/GUI/lvgl/src/draw/../misc/lv_color.h ****         uint8_t blue;
 231:Middlewares/LVGL/GUI/lvgl/src/draw/../misc/lv_color.h ****         uint8_t green;
 232:Middlewares/LVGL/GUI/lvgl/src/draw/../misc/lv_color.h ****         uint8_t red;
 233:Middlewares/LVGL/GUI/lvgl/src/draw/../misc/lv_color.h ****         uint8_t alpha;
 234:Middlewares/LVGL/GUI/lvgl/src/draw/../misc/lv_color.h ****     } ch;
 235:Middlewares/LVGL/GUI/lvgl/src/draw/../misc/lv_color.h ****     uint32_t full;
 236:Middlewares/LVGL/GUI/lvgl/src/draw/../misc/lv_color.h **** } lv_color32_t;
 237:Middlewares/LVGL/GUI/lvgl/src/draw/../misc/lv_color.h **** 
 238:Middlewares/LVGL/GUI/lvgl/src/draw/../misc/lv_color.h **** typedef LV_CONCAT3(uint, LV_COLOR_SIZE, _t) lv_color_int_t;
 239:Middlewares/LVGL/GUI/lvgl/src/draw/../misc/lv_color.h **** typedef LV_CONCAT3(lv_color, LV_COLOR_DEPTH, _t) lv_color_t;
 240:Middlewares/LVGL/GUI/lvgl/src/draw/../misc/lv_color.h **** 
 241:Middlewares/LVGL/GUI/lvgl/src/draw/../misc/lv_color.h **** typedef struct {
 242:Middlewares/LVGL/GUI/lvgl/src/draw/../misc/lv_color.h ****     uint16_t h;
 243:Middlewares/LVGL/GUI/lvgl/src/draw/../misc/lv_color.h ****     uint8_t s;
 244:Middlewares/LVGL/GUI/lvgl/src/draw/../misc/lv_color.h ****     uint8_t v;
 245:Middlewares/LVGL/GUI/lvgl/src/draw/../misc/lv_color.h **** } lv_color_hsv_t;
 246:Middlewares/LVGL/GUI/lvgl/src/draw/../misc/lv_color.h **** 
 247:Middlewares/LVGL/GUI/lvgl/src/draw/../misc/lv_color.h **** //! @cond Doxygen_Suppress
 248:Middlewares/LVGL/GUI/lvgl/src/draw/../misc/lv_color.h **** /*No idea where the guard is required but else throws warnings in the docs*/
 249:Middlewares/LVGL/GUI/lvgl/src/draw/../misc/lv_color.h **** typedef uint8_t lv_opa_t;
 250:Middlewares/LVGL/GUI/lvgl/src/draw/../misc/lv_color.h **** //! @endcond
 251:Middlewares/LVGL/GUI/lvgl/src/draw/../misc/lv_color.h **** 
 252:Middlewares/LVGL/GUI/lvgl/src/draw/../misc/lv_color.h **** struct _lv_color_filter_dsc_t;
 253:Middlewares/LVGL/GUI/lvgl/src/draw/../misc/lv_color.h **** 
 254:Middlewares/LVGL/GUI/lvgl/src/draw/../misc/lv_color.h **** typedef lv_color_t (*lv_color_filter_cb_t)(const struct _lv_color_filter_dsc_t *, lv_color_t, lv_op
 255:Middlewares/LVGL/GUI/lvgl/src/draw/../misc/lv_color.h **** 
 256:Middlewares/LVGL/GUI/lvgl/src/draw/../misc/lv_color.h **** typedef struct _lv_color_filter_dsc_t {
 257:Middlewares/LVGL/GUI/lvgl/src/draw/../misc/lv_color.h ****     lv_color_filter_cb_t filter_cb;
 258:Middlewares/LVGL/GUI/lvgl/src/draw/../misc/lv_color.h ****     void * user_data;
 259:Middlewares/LVGL/GUI/lvgl/src/draw/../misc/lv_color.h **** } lv_color_filter_dsc_t;
 260:Middlewares/LVGL/GUI/lvgl/src/draw/../misc/lv_color.h **** 
 261:Middlewares/LVGL/GUI/lvgl/src/draw/../misc/lv_color.h **** 
 262:Middlewares/LVGL/GUI/lvgl/src/draw/../misc/lv_color.h **** typedef enum {
 263:Middlewares/LVGL/GUI/lvgl/src/draw/../misc/lv_color.h ****     LV_PALETTE_RED,
 264:Middlewares/LVGL/GUI/lvgl/src/draw/../misc/lv_color.h ****     LV_PALETTE_PINK,
 265:Middlewares/LVGL/GUI/lvgl/src/draw/../misc/lv_color.h ****     LV_PALETTE_PURPLE,
 266:Middlewares/LVGL/GUI/lvgl/src/draw/../misc/lv_color.h ****     LV_PALETTE_DEEP_PURPLE,
 267:Middlewares/LVGL/GUI/lvgl/src/draw/../misc/lv_color.h ****     LV_PALETTE_INDIGO,
 268:Middlewares/LVGL/GUI/lvgl/src/draw/../misc/lv_color.h ****     LV_PALETTE_BLUE,
 269:Middlewares/LVGL/GUI/lvgl/src/draw/../misc/lv_color.h ****     LV_PALETTE_LIGHT_BLUE,
 270:Middlewares/LVGL/GUI/lvgl/src/draw/../misc/lv_color.h ****     LV_PALETTE_CYAN,
 271:Middlewares/LVGL/GUI/lvgl/src/draw/../misc/lv_color.h ****     LV_PALETTE_TEAL,
 272:Middlewares/LVGL/GUI/lvgl/src/draw/../misc/lv_color.h ****     LV_PALETTE_GREEN,
ARM GAS  C:\Users\ADMINI~1\AppData\Local\Temp\ccM5otpk.s 			page 16


 273:Middlewares/LVGL/GUI/lvgl/src/draw/../misc/lv_color.h ****     LV_PALETTE_LIGHT_GREEN,
 274:Middlewares/LVGL/GUI/lvgl/src/draw/../misc/lv_color.h ****     LV_PALETTE_LIME,
 275:Middlewares/LVGL/GUI/lvgl/src/draw/../misc/lv_color.h ****     LV_PALETTE_YELLOW,
 276:Middlewares/LVGL/GUI/lvgl/src/draw/../misc/lv_color.h ****     LV_PALETTE_AMBER,
 277:Middlewares/LVGL/GUI/lvgl/src/draw/../misc/lv_color.h ****     LV_PALETTE_ORANGE,
 278:Middlewares/LVGL/GUI/lvgl/src/draw/../misc/lv_color.h ****     LV_PALETTE_DEEP_ORANGE,
 279:Middlewares/LVGL/GUI/lvgl/src/draw/../misc/lv_color.h ****     LV_PALETTE_BROWN,
 280:Middlewares/LVGL/GUI/lvgl/src/draw/../misc/lv_color.h ****     LV_PALETTE_BLUE_GREY,
 281:Middlewares/LVGL/GUI/lvgl/src/draw/../misc/lv_color.h ****     LV_PALETTE_GREY,
 282:Middlewares/LVGL/GUI/lvgl/src/draw/../misc/lv_color.h ****     _LV_PALETTE_LAST,
 283:Middlewares/LVGL/GUI/lvgl/src/draw/../misc/lv_color.h ****     LV_PALETTE_NONE = 0xff,
 284:Middlewares/LVGL/GUI/lvgl/src/draw/../misc/lv_color.h **** } lv_palette_t;
 285:Middlewares/LVGL/GUI/lvgl/src/draw/../misc/lv_color.h **** 
 286:Middlewares/LVGL/GUI/lvgl/src/draw/../misc/lv_color.h **** /**********************
 287:Middlewares/LVGL/GUI/lvgl/src/draw/../misc/lv_color.h ****  * GLOBAL PROTOTYPES
 288:Middlewares/LVGL/GUI/lvgl/src/draw/../misc/lv_color.h ****  **********************/
 289:Middlewares/LVGL/GUI/lvgl/src/draw/../misc/lv_color.h **** 
 290:Middlewares/LVGL/GUI/lvgl/src/draw/../misc/lv_color.h **** /*In color conversations:
 291:Middlewares/LVGL/GUI/lvgl/src/draw/../misc/lv_color.h ****  * - When converting to bigger color type the LSB weight of 1 LSB is calculated
 292:Middlewares/LVGL/GUI/lvgl/src/draw/../misc/lv_color.h ****  *   E.g. 16 bit Red has 5 bits
 293:Middlewares/LVGL/GUI/lvgl/src/draw/../misc/lv_color.h ****  *         8 bit Red has 3 bits
 294:Middlewares/LVGL/GUI/lvgl/src/draw/../misc/lv_color.h ****  *        ----------------------
 295:Middlewares/LVGL/GUI/lvgl/src/draw/../misc/lv_color.h ****  *        8 bit red LSB = (2^5 - 1) / (2^3 - 1) = 31 / 7 = 4
 296:Middlewares/LVGL/GUI/lvgl/src/draw/../misc/lv_color.h ****  *
 297:Middlewares/LVGL/GUI/lvgl/src/draw/../misc/lv_color.h ****  * - When calculating to smaller color type simply shift out the LSBs
 298:Middlewares/LVGL/GUI/lvgl/src/draw/../misc/lv_color.h ****  *   E.g.  8 bit Red has 3 bits
 299:Middlewares/LVGL/GUI/lvgl/src/draw/../misc/lv_color.h ****  *        16 bit Red has 5 bits
 300:Middlewares/LVGL/GUI/lvgl/src/draw/../misc/lv_color.h ****  *        ----------------------
 301:Middlewares/LVGL/GUI/lvgl/src/draw/../misc/lv_color.h ****  *         Shift right with 5 - 3 = 2
 302:Middlewares/LVGL/GUI/lvgl/src/draw/../misc/lv_color.h ****  */
 303:Middlewares/LVGL/GUI/lvgl/src/draw/../misc/lv_color.h **** static inline uint8_t lv_color_to1(lv_color_t color)
 304:Middlewares/LVGL/GUI/lvgl/src/draw/../misc/lv_color.h **** {
 305:Middlewares/LVGL/GUI/lvgl/src/draw/../misc/lv_color.h **** #if LV_COLOR_DEPTH == 1
 306:Middlewares/LVGL/GUI/lvgl/src/draw/../misc/lv_color.h ****     return color.full;
 307:Middlewares/LVGL/GUI/lvgl/src/draw/../misc/lv_color.h **** #elif LV_COLOR_DEPTH == 8
 308:Middlewares/LVGL/GUI/lvgl/src/draw/../misc/lv_color.h ****     if((LV_COLOR_GET_R(color) & 0x4) || (LV_COLOR_GET_G(color) & 0x4) || (LV_COLOR_GET_B(color) & 0
 309:Middlewares/LVGL/GUI/lvgl/src/draw/../misc/lv_color.h ****         return 1;
 310:Middlewares/LVGL/GUI/lvgl/src/draw/../misc/lv_color.h ****     }
 311:Middlewares/LVGL/GUI/lvgl/src/draw/../misc/lv_color.h ****     else {
 312:Middlewares/LVGL/GUI/lvgl/src/draw/../misc/lv_color.h ****         return 0;
 313:Middlewares/LVGL/GUI/lvgl/src/draw/../misc/lv_color.h ****     }
 314:Middlewares/LVGL/GUI/lvgl/src/draw/../misc/lv_color.h **** #elif LV_COLOR_DEPTH == 16
 315:Middlewares/LVGL/GUI/lvgl/src/draw/../misc/lv_color.h ****     if((LV_COLOR_GET_R(color) & 0x10) || (LV_COLOR_GET_G(color) & 0x20) || (LV_COLOR_GET_B(color) &
 316:Middlewares/LVGL/GUI/lvgl/src/draw/../misc/lv_color.h ****         return 1;
 317:Middlewares/LVGL/GUI/lvgl/src/draw/../misc/lv_color.h ****     }
 318:Middlewares/LVGL/GUI/lvgl/src/draw/../misc/lv_color.h ****     else {
 319:Middlewares/LVGL/GUI/lvgl/src/draw/../misc/lv_color.h ****         return 0;
 320:Middlewares/LVGL/GUI/lvgl/src/draw/../misc/lv_color.h ****     }
 321:Middlewares/LVGL/GUI/lvgl/src/draw/../misc/lv_color.h **** #elif LV_COLOR_DEPTH == 32
 322:Middlewares/LVGL/GUI/lvgl/src/draw/../misc/lv_color.h ****     if((LV_COLOR_GET_R(color) & 0x80) || (LV_COLOR_GET_G(color) & 0x80) || (LV_COLOR_GET_B(color) &
 323:Middlewares/LVGL/GUI/lvgl/src/draw/../misc/lv_color.h ****         return 1;
 324:Middlewares/LVGL/GUI/lvgl/src/draw/../misc/lv_color.h ****     }
 325:Middlewares/LVGL/GUI/lvgl/src/draw/../misc/lv_color.h ****     else {
 326:Middlewares/LVGL/GUI/lvgl/src/draw/../misc/lv_color.h ****         return 0;
 327:Middlewares/LVGL/GUI/lvgl/src/draw/../misc/lv_color.h ****     }
 328:Middlewares/LVGL/GUI/lvgl/src/draw/../misc/lv_color.h **** #endif
 329:Middlewares/LVGL/GUI/lvgl/src/draw/../misc/lv_color.h **** }
ARM GAS  C:\Users\ADMINI~1\AppData\Local\Temp\ccM5otpk.s 			page 17


 330:Middlewares/LVGL/GUI/lvgl/src/draw/../misc/lv_color.h **** 
 331:Middlewares/LVGL/GUI/lvgl/src/draw/../misc/lv_color.h **** static inline uint8_t lv_color_to8(lv_color_t color)
 332:Middlewares/LVGL/GUI/lvgl/src/draw/../misc/lv_color.h **** {
 333:Middlewares/LVGL/GUI/lvgl/src/draw/../misc/lv_color.h **** #if LV_COLOR_DEPTH == 1
 334:Middlewares/LVGL/GUI/lvgl/src/draw/../misc/lv_color.h ****     if(color.full == 0)
 335:Middlewares/LVGL/GUI/lvgl/src/draw/../misc/lv_color.h ****         return 0;
 336:Middlewares/LVGL/GUI/lvgl/src/draw/../misc/lv_color.h ****     else
 337:Middlewares/LVGL/GUI/lvgl/src/draw/../misc/lv_color.h ****         return 0xFF;
 338:Middlewares/LVGL/GUI/lvgl/src/draw/../misc/lv_color.h **** #elif LV_COLOR_DEPTH == 8
 339:Middlewares/LVGL/GUI/lvgl/src/draw/../misc/lv_color.h ****     return color.full;
 340:Middlewares/LVGL/GUI/lvgl/src/draw/../misc/lv_color.h **** #elif LV_COLOR_DEPTH == 16
 341:Middlewares/LVGL/GUI/lvgl/src/draw/../misc/lv_color.h ****     lv_color8_t ret;
 342:Middlewares/LVGL/GUI/lvgl/src/draw/../misc/lv_color.h ****     LV_COLOR_SET_R8(ret, LV_COLOR_GET_R(color) >> 2); /*5 - 3  = 2*/
 343:Middlewares/LVGL/GUI/lvgl/src/draw/../misc/lv_color.h ****     LV_COLOR_SET_G8(ret, LV_COLOR_GET_G(color) >> 3); /*6 - 3  = 3*/
 344:Middlewares/LVGL/GUI/lvgl/src/draw/../misc/lv_color.h ****     LV_COLOR_SET_B8(ret, LV_COLOR_GET_B(color) >> 3); /*5 - 2  = 3*/
 345:Middlewares/LVGL/GUI/lvgl/src/draw/../misc/lv_color.h ****     return ret.full;
 346:Middlewares/LVGL/GUI/lvgl/src/draw/../misc/lv_color.h **** #elif LV_COLOR_DEPTH == 32
 347:Middlewares/LVGL/GUI/lvgl/src/draw/../misc/lv_color.h ****     lv_color8_t ret;
 348:Middlewares/LVGL/GUI/lvgl/src/draw/../misc/lv_color.h ****     LV_COLOR_SET_R8(ret, LV_COLOR_GET_R(color) >> 5); /*8 - 3  = 5*/
 349:Middlewares/LVGL/GUI/lvgl/src/draw/../misc/lv_color.h ****     LV_COLOR_SET_G8(ret, LV_COLOR_GET_G(color) >> 5); /*8 - 3  = 5*/
 350:Middlewares/LVGL/GUI/lvgl/src/draw/../misc/lv_color.h ****     LV_COLOR_SET_B8(ret, LV_COLOR_GET_B(color) >> 6); /*8 - 2  = 6*/
 351:Middlewares/LVGL/GUI/lvgl/src/draw/../misc/lv_color.h ****     return ret.full;
 352:Middlewares/LVGL/GUI/lvgl/src/draw/../misc/lv_color.h **** #endif
 353:Middlewares/LVGL/GUI/lvgl/src/draw/../misc/lv_color.h **** }
 354:Middlewares/LVGL/GUI/lvgl/src/draw/../misc/lv_color.h **** 
 355:Middlewares/LVGL/GUI/lvgl/src/draw/../misc/lv_color.h **** static inline uint16_t lv_color_to16(lv_color_t color)
 356:Middlewares/LVGL/GUI/lvgl/src/draw/../misc/lv_color.h **** {
 357:Middlewares/LVGL/GUI/lvgl/src/draw/../misc/lv_color.h **** #if LV_COLOR_DEPTH == 1
 358:Middlewares/LVGL/GUI/lvgl/src/draw/../misc/lv_color.h ****     if(color.full == 0)
 359:Middlewares/LVGL/GUI/lvgl/src/draw/../misc/lv_color.h ****         return 0;
 360:Middlewares/LVGL/GUI/lvgl/src/draw/../misc/lv_color.h ****     else
 361:Middlewares/LVGL/GUI/lvgl/src/draw/../misc/lv_color.h ****         return 0xFFFF;
 362:Middlewares/LVGL/GUI/lvgl/src/draw/../misc/lv_color.h **** #elif LV_COLOR_DEPTH == 8
 363:Middlewares/LVGL/GUI/lvgl/src/draw/../misc/lv_color.h ****     lv_color16_t ret;
 364:Middlewares/LVGL/GUI/lvgl/src/draw/../misc/lv_color.h ****     LV_COLOR_SET_R16(ret, LV_COLOR_GET_R(color) * 4);  /*(2^5 - 1)/(2^3 - 1) = 31/7 = 4*/
 365:Middlewares/LVGL/GUI/lvgl/src/draw/../misc/lv_color.h ****     LV_COLOR_SET_G16(ret, LV_COLOR_GET_G(color) * 9);  /*(2^6 - 1)/(2^3 - 1) = 63/7 = 9*/
 366:Middlewares/LVGL/GUI/lvgl/src/draw/../misc/lv_color.h ****     LV_COLOR_SET_B16(ret, LV_COLOR_GET_B(color) * 10); /*(2^5 - 1)/(2^2 - 1) = 31/3 = 10*/
 367:Middlewares/LVGL/GUI/lvgl/src/draw/../misc/lv_color.h ****     return ret.full;
 368:Middlewares/LVGL/GUI/lvgl/src/draw/../misc/lv_color.h **** #elif LV_COLOR_DEPTH == 16
 369:Middlewares/LVGL/GUI/lvgl/src/draw/../misc/lv_color.h ****     return color.full;
 370:Middlewares/LVGL/GUI/lvgl/src/draw/../misc/lv_color.h **** #elif LV_COLOR_DEPTH == 32
 371:Middlewares/LVGL/GUI/lvgl/src/draw/../misc/lv_color.h ****     lv_color16_t ret;
 372:Middlewares/LVGL/GUI/lvgl/src/draw/../misc/lv_color.h ****     LV_COLOR_SET_R16(ret, LV_COLOR_GET_R(color) >> 3); /*8 - 5  = 3*/
 373:Middlewares/LVGL/GUI/lvgl/src/draw/../misc/lv_color.h ****     LV_COLOR_SET_G16(ret, LV_COLOR_GET_G(color) >> 2); /*8 - 6  = 2*/
 374:Middlewares/LVGL/GUI/lvgl/src/draw/../misc/lv_color.h ****     LV_COLOR_SET_B16(ret, LV_COLOR_GET_B(color) >> 3); /*8 - 5  = 3*/
 375:Middlewares/LVGL/GUI/lvgl/src/draw/../misc/lv_color.h ****     return ret.full;
 376:Middlewares/LVGL/GUI/lvgl/src/draw/../misc/lv_color.h **** #endif
 377:Middlewares/LVGL/GUI/lvgl/src/draw/../misc/lv_color.h **** }
 378:Middlewares/LVGL/GUI/lvgl/src/draw/../misc/lv_color.h **** 
 379:Middlewares/LVGL/GUI/lvgl/src/draw/../misc/lv_color.h **** static inline uint32_t lv_color_to32(lv_color_t color)
 380:Middlewares/LVGL/GUI/lvgl/src/draw/../misc/lv_color.h **** {
 381:Middlewares/LVGL/GUI/lvgl/src/draw/../misc/lv_color.h **** #if LV_COLOR_DEPTH == 1
 382:Middlewares/LVGL/GUI/lvgl/src/draw/../misc/lv_color.h ****     if(color.full == 0)
 383:Middlewares/LVGL/GUI/lvgl/src/draw/../misc/lv_color.h ****         return 0xFF000000;
 384:Middlewares/LVGL/GUI/lvgl/src/draw/../misc/lv_color.h ****     else
 385:Middlewares/LVGL/GUI/lvgl/src/draw/../misc/lv_color.h ****         return 0xFFFFFFFF;
 386:Middlewares/LVGL/GUI/lvgl/src/draw/../misc/lv_color.h **** #elif LV_COLOR_DEPTH == 8
ARM GAS  C:\Users\ADMINI~1\AppData\Local\Temp\ccM5otpk.s 			page 18


 387:Middlewares/LVGL/GUI/lvgl/src/draw/../misc/lv_color.h ****     lv_color32_t ret;
 388:Middlewares/LVGL/GUI/lvgl/src/draw/../misc/lv_color.h ****     LV_COLOR_SET_R32(ret, LV_COLOR_GET_R(color) * 36); /*(2^8 - 1)/(2^3 - 1) = 255/7 = 36*/
 389:Middlewares/LVGL/GUI/lvgl/src/draw/../misc/lv_color.h ****     LV_COLOR_SET_G32(ret, LV_COLOR_GET_G(color) * 36); /*(2^8 - 1)/(2^3 - 1) = 255/7 = 36*/
 390:Middlewares/LVGL/GUI/lvgl/src/draw/../misc/lv_color.h ****     LV_COLOR_SET_B32(ret, LV_COLOR_GET_B(color) * 85); /*(2^8 - 1)/(2^2 - 1) = 255/3 = 85*/
 391:Middlewares/LVGL/GUI/lvgl/src/draw/../misc/lv_color.h ****     LV_COLOR_SET_A32(ret, 0xFF);
 392:Middlewares/LVGL/GUI/lvgl/src/draw/../misc/lv_color.h ****     return ret.full;
 393:Middlewares/LVGL/GUI/lvgl/src/draw/../misc/lv_color.h **** #elif LV_COLOR_DEPTH == 16
 394:Middlewares/LVGL/GUI/lvgl/src/draw/../misc/lv_color.h ****     /**
 395:Middlewares/LVGL/GUI/lvgl/src/draw/../misc/lv_color.h ****      * The floating point math for conversion is:
 396:Middlewares/LVGL/GUI/lvgl/src/draw/../misc/lv_color.h ****      *  valueto = valuefrom * ( (2^bitsto - 1) / (float)(2^bitsfrom - 1) )
 397:Middlewares/LVGL/GUI/lvgl/src/draw/../misc/lv_color.h ****      * The faster integer math for conversion is:
 398:Middlewares/LVGL/GUI/lvgl/src/draw/../misc/lv_color.h ****      *  valueto = ( valuefrom * multiplier + adder ) >> divisor
 399:Middlewares/LVGL/GUI/lvgl/src/draw/../misc/lv_color.h ****      *   multiplier = FLOOR( ( (2^bitsto - 1) << divisor ) / (float)(2^bitsfrom - 1) )
 400:Middlewares/LVGL/GUI/lvgl/src/draw/../misc/lv_color.h ****      *
 401:Middlewares/LVGL/GUI/lvgl/src/draw/../misc/lv_color.h ****      * Find the first divisor where ( adder >> divisor ) <= 0
 402:Middlewares/LVGL/GUI/lvgl/src/draw/../misc/lv_color.h ****      *
 403:Middlewares/LVGL/GUI/lvgl/src/draw/../misc/lv_color.h ****      * 5-bit to 8-bit: ( 31 * multiplier + adder ) >> divisor = 255
 404:Middlewares/LVGL/GUI/lvgl/src/draw/../misc/lv_color.h ****      * divisor  multiplier  adder  min (0)  max (31)
 405:Middlewares/LVGL/GUI/lvgl/src/draw/../misc/lv_color.h ****      *       0           8      7        7       255
 406:Middlewares/LVGL/GUI/lvgl/src/draw/../misc/lv_color.h ****      *       1          16     14        7       255
 407:Middlewares/LVGL/GUI/lvgl/src/draw/../misc/lv_color.h ****      *       2          32     28        7       255
 408:Middlewares/LVGL/GUI/lvgl/src/draw/../misc/lv_color.h ****      *       3          65     25        3       255
 409:Middlewares/LVGL/GUI/lvgl/src/draw/../misc/lv_color.h ****      *       4         131     19        1       255
 410:Middlewares/LVGL/GUI/lvgl/src/draw/../misc/lv_color.h ****      *       5         263      7        0       255
 411:Middlewares/LVGL/GUI/lvgl/src/draw/../misc/lv_color.h ****      *
 412:Middlewares/LVGL/GUI/lvgl/src/draw/../misc/lv_color.h ****      * 6-bit to 8-bit: 255 = ( 63 * multiplier + adder ) >> divisor
 413:Middlewares/LVGL/GUI/lvgl/src/draw/../misc/lv_color.h ****      * divisor  multiplier  adder  min (0)  max (63)
 414:Middlewares/LVGL/GUI/lvgl/src/draw/../misc/lv_color.h ****      *       0           4      3        3       255
 415:Middlewares/LVGL/GUI/lvgl/src/draw/../misc/lv_color.h ****      *       1           8      6        3       255
 416:Middlewares/LVGL/GUI/lvgl/src/draw/../misc/lv_color.h ****      *       2          16     12        3       255
 417:Middlewares/LVGL/GUI/lvgl/src/draw/../misc/lv_color.h ****      *       3          32     24        3       255
 418:Middlewares/LVGL/GUI/lvgl/src/draw/../misc/lv_color.h ****      *       4          64     48        3       255
 419:Middlewares/LVGL/GUI/lvgl/src/draw/../misc/lv_color.h ****      *       5         129     33        1       255
 420:Middlewares/LVGL/GUI/lvgl/src/draw/../misc/lv_color.h ****      *       6         259      3        0       255
 421:Middlewares/LVGL/GUI/lvgl/src/draw/../misc/lv_color.h ****      */
 422:Middlewares/LVGL/GUI/lvgl/src/draw/../misc/lv_color.h **** 
 423:Middlewares/LVGL/GUI/lvgl/src/draw/../misc/lv_color.h ****     lv_color32_t ret;
 424:Middlewares/LVGL/GUI/lvgl/src/draw/../misc/lv_color.h ****     LV_COLOR_SET_R32(ret, (LV_COLOR_GET_R(color) * 263 + 7) >> 5);
 425:Middlewares/LVGL/GUI/lvgl/src/draw/../misc/lv_color.h ****     LV_COLOR_SET_G32(ret, (LV_COLOR_GET_G(color) * 259 + 3) >> 6);
 426:Middlewares/LVGL/GUI/lvgl/src/draw/../misc/lv_color.h ****     LV_COLOR_SET_B32(ret, (LV_COLOR_GET_B(color) * 263 + 7) >> 5);
 427:Middlewares/LVGL/GUI/lvgl/src/draw/../misc/lv_color.h ****     LV_COLOR_SET_A32(ret, 0xFF);
 428:Middlewares/LVGL/GUI/lvgl/src/draw/../misc/lv_color.h ****     return ret.full;
 429:Middlewares/LVGL/GUI/lvgl/src/draw/../misc/lv_color.h **** #elif LV_COLOR_DEPTH == 32
 430:Middlewares/LVGL/GUI/lvgl/src/draw/../misc/lv_color.h ****     return color.full;
 431:Middlewares/LVGL/GUI/lvgl/src/draw/../misc/lv_color.h **** #endif
 432:Middlewares/LVGL/GUI/lvgl/src/draw/../misc/lv_color.h **** }
 433:Middlewares/LVGL/GUI/lvgl/src/draw/../misc/lv_color.h **** 
 434:Middlewares/LVGL/GUI/lvgl/src/draw/../misc/lv_color.h **** //! @cond Doxygen_Suppress
 435:Middlewares/LVGL/GUI/lvgl/src/draw/../misc/lv_color.h **** 
 436:Middlewares/LVGL/GUI/lvgl/src/draw/../misc/lv_color.h **** /**
 437:Middlewares/LVGL/GUI/lvgl/src/draw/../misc/lv_color.h ****  * Mix two colors with a given ratio.
 438:Middlewares/LVGL/GUI/lvgl/src/draw/../misc/lv_color.h ****  * @param c1 the first color to mix (usually the foreground)
 439:Middlewares/LVGL/GUI/lvgl/src/draw/../misc/lv_color.h ****  * @param c2 the second color to mix (usually the background)
 440:Middlewares/LVGL/GUI/lvgl/src/draw/../misc/lv_color.h ****  * @param mix The ratio of the colors. 0: full `c2`, 255: full `c1`, 127: half `c1` and half`c2`
 441:Middlewares/LVGL/GUI/lvgl/src/draw/../misc/lv_color.h ****  * @return the mixed color
 442:Middlewares/LVGL/GUI/lvgl/src/draw/../misc/lv_color.h ****  */
 443:Middlewares/LVGL/GUI/lvgl/src/draw/../misc/lv_color.h **** LV_ATTRIBUTE_FAST_MEM static inline lv_color_t lv_color_mix(lv_color_t c1, lv_color_t c2, uint8_t m
ARM GAS  C:\Users\ADMINI~1\AppData\Local\Temp\ccM5otpk.s 			page 19


 444:Middlewares/LVGL/GUI/lvgl/src/draw/../misc/lv_color.h **** {
 445:Middlewares/LVGL/GUI/lvgl/src/draw/../misc/lv_color.h ****     lv_color_t ret;
 446:Middlewares/LVGL/GUI/lvgl/src/draw/../misc/lv_color.h **** 
 447:Middlewares/LVGL/GUI/lvgl/src/draw/../misc/lv_color.h **** #if LV_COLOR_DEPTH == 16 && LV_COLOR_16_SWAP == 0
 448:Middlewares/LVGL/GUI/lvgl/src/draw/../misc/lv_color.h ****     /*Source: https://stackoverflow.com/a/50012418/1999969*/
 449:Middlewares/LVGL/GUI/lvgl/src/draw/../misc/lv_color.h ****     mix = (mix + 4) >> 3;
 450:Middlewares/LVGL/GUI/lvgl/src/draw/../misc/lv_color.h ****     uint32_t bg = (uint32_t)((uint32_t)c2.full | ((uint32_t)c2.full << 16)) &
 451:Middlewares/LVGL/GUI/lvgl/src/draw/../misc/lv_color.h ****                   0x7E0F81F; /*0b00000111111000001111100000011111*/
 452:Middlewares/LVGL/GUI/lvgl/src/draw/../misc/lv_color.h ****     uint32_t fg = (uint32_t)((uint32_t)c1.full | ((uint32_t)c1.full << 16)) & 0x7E0F81F;
 453:Middlewares/LVGL/GUI/lvgl/src/draw/../misc/lv_color.h ****     uint32_t result = ((((fg - bg) * mix) >> 5) + bg) & 0x7E0F81F;
 454:Middlewares/LVGL/GUI/lvgl/src/draw/../misc/lv_color.h ****     ret.full = (uint16_t)((result >> 16) | result);
 455:Middlewares/LVGL/GUI/lvgl/src/draw/../misc/lv_color.h **** #elif LV_COLOR_DEPTH != 1
 456:Middlewares/LVGL/GUI/lvgl/src/draw/../misc/lv_color.h ****     /*LV_COLOR_DEPTH == 8, 16 or 32*/
 457:Middlewares/LVGL/GUI/lvgl/src/draw/../misc/lv_color.h ****     LV_COLOR_SET_R(ret, LV_UDIV255((uint16_t)LV_COLOR_GET_R(c1) * mix + LV_COLOR_GET_R(c2) *
 458:Middlewares/LVGL/GUI/lvgl/src/draw/../misc/lv_color.h ****                                    (255 - mix) + LV_COLOR_MIX_ROUND_OFS));
 459:Middlewares/LVGL/GUI/lvgl/src/draw/../misc/lv_color.h ****     LV_COLOR_SET_G(ret, LV_UDIV255((uint16_t)LV_COLOR_GET_G(c1) * mix + LV_COLOR_GET_G(c2) *
 460:Middlewares/LVGL/GUI/lvgl/src/draw/../misc/lv_color.h ****                                    (255 - mix) + LV_COLOR_MIX_ROUND_OFS));
 461:Middlewares/LVGL/GUI/lvgl/src/draw/../misc/lv_color.h ****     LV_COLOR_SET_B(ret, LV_UDIV255((uint16_t)LV_COLOR_GET_B(c1) * mix + LV_COLOR_GET_B(c2) *
 462:Middlewares/LVGL/GUI/lvgl/src/draw/../misc/lv_color.h ****                                    (255 - mix) + LV_COLOR_MIX_ROUND_OFS));
 463:Middlewares/LVGL/GUI/lvgl/src/draw/../misc/lv_color.h ****     LV_COLOR_SET_A(ret, 0xFF);
 464:Middlewares/LVGL/GUI/lvgl/src/draw/../misc/lv_color.h **** #else
 465:Middlewares/LVGL/GUI/lvgl/src/draw/../misc/lv_color.h ****     /*LV_COLOR_DEPTH == 1*/
 466:Middlewares/LVGL/GUI/lvgl/src/draw/../misc/lv_color.h ****     ret.full = mix > LV_OPA_50 ? c1.full : c2.full;
 467:Middlewares/LVGL/GUI/lvgl/src/draw/../misc/lv_color.h **** #endif
 468:Middlewares/LVGL/GUI/lvgl/src/draw/../misc/lv_color.h **** 
 469:Middlewares/LVGL/GUI/lvgl/src/draw/../misc/lv_color.h ****     return ret;
 470:Middlewares/LVGL/GUI/lvgl/src/draw/../misc/lv_color.h **** }
 471:Middlewares/LVGL/GUI/lvgl/src/draw/../misc/lv_color.h **** 
 472:Middlewares/LVGL/GUI/lvgl/src/draw/../misc/lv_color.h **** LV_ATTRIBUTE_FAST_MEM static inline void lv_color_premult(lv_color_t c, uint8_t mix, uint16_t * out
 473:Middlewares/LVGL/GUI/lvgl/src/draw/../misc/lv_color.h **** {
 474:Middlewares/LVGL/GUI/lvgl/src/draw/../misc/lv_color.h **** #if LV_COLOR_DEPTH != 1
 475:Middlewares/LVGL/GUI/lvgl/src/draw/../misc/lv_color.h ****     out[0] = (uint16_t)LV_COLOR_GET_R(c) * mix;
 476:Middlewares/LVGL/GUI/lvgl/src/draw/../misc/lv_color.h ****     out[1] = (uint16_t)LV_COLOR_GET_G(c) * mix;
 477:Middlewares/LVGL/GUI/lvgl/src/draw/../misc/lv_color.h ****     out[2] = (uint16_t)LV_COLOR_GET_B(c) * mix;
 478:Middlewares/LVGL/GUI/lvgl/src/draw/../misc/lv_color.h **** #else
 479:Middlewares/LVGL/GUI/lvgl/src/draw/../misc/lv_color.h ****     (void) mix;
 480:Middlewares/LVGL/GUI/lvgl/src/draw/../misc/lv_color.h ****     /*Pre-multiplication can't be used with 1 bpp*/
 481:Middlewares/LVGL/GUI/lvgl/src/draw/../misc/lv_color.h ****     out[0] = LV_COLOR_GET_R(c);
 482:Middlewares/LVGL/GUI/lvgl/src/draw/../misc/lv_color.h ****     out[1] = LV_COLOR_GET_G(c);
 483:Middlewares/LVGL/GUI/lvgl/src/draw/../misc/lv_color.h ****     out[2] = LV_COLOR_GET_B(c);
 484:Middlewares/LVGL/GUI/lvgl/src/draw/../misc/lv_color.h **** #endif
 485:Middlewares/LVGL/GUI/lvgl/src/draw/../misc/lv_color.h **** 
 486:Middlewares/LVGL/GUI/lvgl/src/draw/../misc/lv_color.h **** }
 487:Middlewares/LVGL/GUI/lvgl/src/draw/../misc/lv_color.h **** 
 488:Middlewares/LVGL/GUI/lvgl/src/draw/../misc/lv_color.h **** /**
 489:Middlewares/LVGL/GUI/lvgl/src/draw/../misc/lv_color.h ****  * Mix two colors with a given ratio. It runs faster then `lv_color_mix` but requires some pre comp
 490:Middlewares/LVGL/GUI/lvgl/src/draw/../misc/lv_color.h ****  * @param premult_c1 The first color. Should be preprocessed with `lv_color_premult(c1)`
 491:Middlewares/LVGL/GUI/lvgl/src/draw/../misc/lv_color.h ****  * @param c2 The second color. As it is no pre computation required on it
 492:Middlewares/LVGL/GUI/lvgl/src/draw/../misc/lv_color.h ****  * @param mix The ratio of the colors. 0: full `c1`, 255: full `c2`, 127: half `c1` and half `c2`.
 493:Middlewares/LVGL/GUI/lvgl/src/draw/../misc/lv_color.h ****  *            Should be modified like mix = `255 - mix`
 494:Middlewares/LVGL/GUI/lvgl/src/draw/../misc/lv_color.h ****  * @return the mixed color
 495:Middlewares/LVGL/GUI/lvgl/src/draw/../misc/lv_color.h ****  * @note 255 won't give clearly `c1`.
 496:Middlewares/LVGL/GUI/lvgl/src/draw/../misc/lv_color.h ****  */
 497:Middlewares/LVGL/GUI/lvgl/src/draw/../misc/lv_color.h **** LV_ATTRIBUTE_FAST_MEM static inline lv_color_t lv_color_mix_premult(uint16_t * premult_c1, lv_color
 498:Middlewares/LVGL/GUI/lvgl/src/draw/../misc/lv_color.h **** {
 499:Middlewares/LVGL/GUI/lvgl/src/draw/../misc/lv_color.h ****     lv_color_t ret;
 500:Middlewares/LVGL/GUI/lvgl/src/draw/../misc/lv_color.h **** #if LV_COLOR_DEPTH != 1
ARM GAS  C:\Users\ADMINI~1\AppData\Local\Temp\ccM5otpk.s 			page 20


 501:Middlewares/LVGL/GUI/lvgl/src/draw/../misc/lv_color.h ****     /*LV_COLOR_DEPTH == 8 or 32*/
 502:Middlewares/LVGL/GUI/lvgl/src/draw/../misc/lv_color.h ****     LV_COLOR_SET_R(ret, LV_UDIV255(premult_c1[0] + LV_COLOR_GET_R(c2) * mix + LV_COLOR_MIX_ROUND_OF
 503:Middlewares/LVGL/GUI/lvgl/src/draw/../misc/lv_color.h ****     LV_COLOR_SET_G(ret, LV_UDIV255(premult_c1[1] + LV_COLOR_GET_G(c2) * mix + LV_COLOR_MIX_ROUND_OF
 504:Middlewares/LVGL/GUI/lvgl/src/draw/../misc/lv_color.h ****     LV_COLOR_SET_B(ret, LV_UDIV255(premult_c1[2] + LV_COLOR_GET_B(c2) * mix + LV_COLOR_MIX_ROUND_OF
 505:Middlewares/LVGL/GUI/lvgl/src/draw/../misc/lv_color.h ****     LV_COLOR_SET_A(ret, 0xFF);
 506:Middlewares/LVGL/GUI/lvgl/src/draw/../misc/lv_color.h **** #else
 507:Middlewares/LVGL/GUI/lvgl/src/draw/../misc/lv_color.h ****     /*LV_COLOR_DEPTH == 1*/
 508:Middlewares/LVGL/GUI/lvgl/src/draw/../misc/lv_color.h ****     /*Restore color1*/
 509:Middlewares/LVGL/GUI/lvgl/src/draw/../misc/lv_color.h ****     lv_color_t c1;
 510:Middlewares/LVGL/GUI/lvgl/src/draw/../misc/lv_color.h ****     LV_COLOR_SET_R(c1, premult_c1[0]);
 511:Middlewares/LVGL/GUI/lvgl/src/draw/../misc/lv_color.h ****     LV_COLOR_SET_G(c1, premult_c1[1]);
 512:Middlewares/LVGL/GUI/lvgl/src/draw/../misc/lv_color.h ****     LV_COLOR_SET_B(c1, premult_c1[2]);
 513:Middlewares/LVGL/GUI/lvgl/src/draw/../misc/lv_color.h ****     ret.full = mix > LV_OPA_50 ? c2.full : c1.full;
 514:Middlewares/LVGL/GUI/lvgl/src/draw/../misc/lv_color.h **** #endif
 515:Middlewares/LVGL/GUI/lvgl/src/draw/../misc/lv_color.h **** 
 516:Middlewares/LVGL/GUI/lvgl/src/draw/../misc/lv_color.h ****     return ret;
 517:Middlewares/LVGL/GUI/lvgl/src/draw/../misc/lv_color.h **** }
 518:Middlewares/LVGL/GUI/lvgl/src/draw/../misc/lv_color.h **** 
 519:Middlewares/LVGL/GUI/lvgl/src/draw/../misc/lv_color.h **** /**
 520:Middlewares/LVGL/GUI/lvgl/src/draw/../misc/lv_color.h ****  * Mix two colors. Both color can have alpha value.
 521:Middlewares/LVGL/GUI/lvgl/src/draw/../misc/lv_color.h ****  * @param bg_color background color
 522:Middlewares/LVGL/GUI/lvgl/src/draw/../misc/lv_color.h ****  * @param bg_opa alpha of the background color
 523:Middlewares/LVGL/GUI/lvgl/src/draw/../misc/lv_color.h ****  * @param fg_color foreground color
 524:Middlewares/LVGL/GUI/lvgl/src/draw/../misc/lv_color.h ****  * @param fg_opa alpha of the foreground color
 525:Middlewares/LVGL/GUI/lvgl/src/draw/../misc/lv_color.h ****  * @param res_color the result color
 526:Middlewares/LVGL/GUI/lvgl/src/draw/../misc/lv_color.h ****  * @param res_opa the result opacity
 527:Middlewares/LVGL/GUI/lvgl/src/draw/../misc/lv_color.h ****  */
 528:Middlewares/LVGL/GUI/lvgl/src/draw/../misc/lv_color.h **** LV_ATTRIBUTE_FAST_MEM static inline void lv_color_mix_with_alpha(lv_color_t bg_color, lv_opa_t bg_o
 529:Middlewares/LVGL/GUI/lvgl/src/draw/../misc/lv_color.h ****                                                                  lv_color_t fg_color, lv_opa_t fg_o
 530:Middlewares/LVGL/GUI/lvgl/src/draw/../misc/lv_color.h ****                                                                  lv_color_t * res_color, lv_opa_t *
 531:Middlewares/LVGL/GUI/lvgl/src/draw/../misc/lv_color.h **** {
 532:Middlewares/LVGL/GUI/lvgl/src/draw/../misc/lv_color.h ****     /*Pick the foreground if it's fully opaque or the Background is fully transparent*/
 533:Middlewares/LVGL/GUI/lvgl/src/draw/../misc/lv_color.h ****     if(fg_opa >= LV_OPA_MAX || bg_opa <= LV_OPA_MIN) {
 534:Middlewares/LVGL/GUI/lvgl/src/draw/../misc/lv_color.h ****         res_color->full = fg_color.full;
 535:Middlewares/LVGL/GUI/lvgl/src/draw/../misc/lv_color.h ****         *res_opa = fg_opa;
 536:Middlewares/LVGL/GUI/lvgl/src/draw/../misc/lv_color.h ****     }
 537:Middlewares/LVGL/GUI/lvgl/src/draw/../misc/lv_color.h ****     /*Transparent foreground: use the Background*/
 538:Middlewares/LVGL/GUI/lvgl/src/draw/../misc/lv_color.h ****     else if(fg_opa <= LV_OPA_MIN) {
 539:Middlewares/LVGL/GUI/lvgl/src/draw/../misc/lv_color.h ****         res_color->full = bg_color.full;
 540:Middlewares/LVGL/GUI/lvgl/src/draw/../misc/lv_color.h ****         *res_opa = bg_opa;
 541:Middlewares/LVGL/GUI/lvgl/src/draw/../misc/lv_color.h ****     }
 542:Middlewares/LVGL/GUI/lvgl/src/draw/../misc/lv_color.h ****     /*Opaque background: use simple mix*/
 543:Middlewares/LVGL/GUI/lvgl/src/draw/../misc/lv_color.h ****     else if(bg_opa >= LV_OPA_MAX) {
 544:Middlewares/LVGL/GUI/lvgl/src/draw/../misc/lv_color.h ****         *res_color = lv_color_mix(fg_color, bg_color, fg_opa);
 545:Middlewares/LVGL/GUI/lvgl/src/draw/../misc/lv_color.h ****         *res_opa = LV_OPA_COVER;
 546:Middlewares/LVGL/GUI/lvgl/src/draw/../misc/lv_color.h ****     }
 547:Middlewares/LVGL/GUI/lvgl/src/draw/../misc/lv_color.h ****     /*Both colors have alpha. Expensive calculation need to be applied*/
 548:Middlewares/LVGL/GUI/lvgl/src/draw/../misc/lv_color.h ****     else {
 549:Middlewares/LVGL/GUI/lvgl/src/draw/../misc/lv_color.h ****         /*Save the parameters and the result. If they will be asked again don't compute again*/
 550:Middlewares/LVGL/GUI/lvgl/src/draw/../misc/lv_color.h ****         static lv_opa_t fg_opa_save     = 0;
 551:Middlewares/LVGL/GUI/lvgl/src/draw/../misc/lv_color.h ****         static lv_opa_t bg_opa_save     = 0;
 552:Middlewares/LVGL/GUI/lvgl/src/draw/../misc/lv_color.h ****         static lv_color_t fg_color_save = _LV_COLOR_ZERO_INITIALIZER;
 553:Middlewares/LVGL/GUI/lvgl/src/draw/../misc/lv_color.h ****         static lv_color_t bg_color_save = _LV_COLOR_ZERO_INITIALIZER;
 554:Middlewares/LVGL/GUI/lvgl/src/draw/../misc/lv_color.h ****         static lv_color_t res_color_saved = _LV_COLOR_ZERO_INITIALIZER;
 555:Middlewares/LVGL/GUI/lvgl/src/draw/../misc/lv_color.h ****         static lv_opa_t res_opa_saved = 0;
 556:Middlewares/LVGL/GUI/lvgl/src/draw/../misc/lv_color.h **** 
 557:Middlewares/LVGL/GUI/lvgl/src/draw/../misc/lv_color.h ****         if(fg_opa != fg_opa_save || bg_opa != bg_opa_save || fg_color.full != fg_color_save.full ||
ARM GAS  C:\Users\ADMINI~1\AppData\Local\Temp\ccM5otpk.s 			page 21


 558:Middlewares/LVGL/GUI/lvgl/src/draw/../misc/lv_color.h ****            bg_color.full != bg_color_save.full) {
 559:Middlewares/LVGL/GUI/lvgl/src/draw/../misc/lv_color.h ****             fg_opa_save        = fg_opa;
 560:Middlewares/LVGL/GUI/lvgl/src/draw/../misc/lv_color.h ****             bg_opa_save        = bg_opa;
 561:Middlewares/LVGL/GUI/lvgl/src/draw/../misc/lv_color.h ****             fg_color_save.full = fg_color.full;
 562:Middlewares/LVGL/GUI/lvgl/src/draw/../misc/lv_color.h ****             bg_color_save.full = bg_color.full;
 563:Middlewares/LVGL/GUI/lvgl/src/draw/../misc/lv_color.h ****             /*Info:
 564:Middlewares/LVGL/GUI/lvgl/src/draw/../misc/lv_color.h ****              * https://en.wikipedia.org/wiki/Alpha_compositing#Analytical_derivation_of_the_over_op
 565:Middlewares/LVGL/GUI/lvgl/src/draw/../misc/lv_color.h ****             res_opa_saved = 255 - ((uint16_t)((uint16_t)(255 - fg_opa) * (255 - bg_opa)) >> 8);
 566:Middlewares/LVGL/GUI/lvgl/src/draw/../misc/lv_color.h ****             LV_ASSERT(res_opa_saved != 0);
 567:Middlewares/LVGL/GUI/lvgl/src/draw/../misc/lv_color.h ****             lv_opa_t ratio = (uint16_t)((uint16_t)fg_opa * 255) / res_opa_saved;
 568:Middlewares/LVGL/GUI/lvgl/src/draw/../misc/lv_color.h ****             res_color_saved = lv_color_mix(fg_color, bg_color, ratio);
 569:Middlewares/LVGL/GUI/lvgl/src/draw/../misc/lv_color.h **** 
 570:Middlewares/LVGL/GUI/lvgl/src/draw/../misc/lv_color.h ****         }
 571:Middlewares/LVGL/GUI/lvgl/src/draw/../misc/lv_color.h **** 
 572:Middlewares/LVGL/GUI/lvgl/src/draw/../misc/lv_color.h ****         res_color->full = res_color_saved.full;
 573:Middlewares/LVGL/GUI/lvgl/src/draw/../misc/lv_color.h ****         *res_opa = res_opa_saved;
 574:Middlewares/LVGL/GUI/lvgl/src/draw/../misc/lv_color.h ****     }
 575:Middlewares/LVGL/GUI/lvgl/src/draw/../misc/lv_color.h **** }
 576:Middlewares/LVGL/GUI/lvgl/src/draw/../misc/lv_color.h **** 
 577:Middlewares/LVGL/GUI/lvgl/src/draw/../misc/lv_color.h **** //! @endcond
 578:Middlewares/LVGL/GUI/lvgl/src/draw/../misc/lv_color.h **** 
 579:Middlewares/LVGL/GUI/lvgl/src/draw/../misc/lv_color.h **** /**
 580:Middlewares/LVGL/GUI/lvgl/src/draw/../misc/lv_color.h ****  * Get the brightness of a color
 581:Middlewares/LVGL/GUI/lvgl/src/draw/../misc/lv_color.h ****  * @param color a color
 582:Middlewares/LVGL/GUI/lvgl/src/draw/../misc/lv_color.h ****  * @return the brightness [0..255]
 583:Middlewares/LVGL/GUI/lvgl/src/draw/../misc/lv_color.h ****  */
 584:Middlewares/LVGL/GUI/lvgl/src/draw/../misc/lv_color.h **** static inline uint8_t lv_color_brightness(lv_color_t color)
 585:Middlewares/LVGL/GUI/lvgl/src/draw/../misc/lv_color.h **** {
 586:Middlewares/LVGL/GUI/lvgl/src/draw/../misc/lv_color.h ****     lv_color32_t c32;
 587:Middlewares/LVGL/GUI/lvgl/src/draw/../misc/lv_color.h ****     c32.full        = lv_color_to32(color);
 588:Middlewares/LVGL/GUI/lvgl/src/draw/../misc/lv_color.h ****     uint16_t bright = (uint16_t)(3u * LV_COLOR_GET_R32(c32) + LV_COLOR_GET_B32(c32) + 4u * LV_COLOR
 589:Middlewares/LVGL/GUI/lvgl/src/draw/../misc/lv_color.h ****     return (uint8_t)(bright >> 3);
 590:Middlewares/LVGL/GUI/lvgl/src/draw/../misc/lv_color.h **** }
 591:Middlewares/LVGL/GUI/lvgl/src/draw/../misc/lv_color.h **** 
 592:Middlewares/LVGL/GUI/lvgl/src/draw/../misc/lv_color.h **** static inline lv_color_t lv_color_make(uint8_t r, uint8_t g, uint8_t b)
 593:Middlewares/LVGL/GUI/lvgl/src/draw/../misc/lv_color.h **** {
 594:Middlewares/LVGL/GUI/lvgl/src/draw/../misc/lv_color.h ****     return _LV_COLOR_MAKE_TYPE_HELPER LV_COLOR_MAKE(r, g, b);
 595:Middlewares/LVGL/GUI/lvgl/src/draw/../misc/lv_color.h **** }
 596:Middlewares/LVGL/GUI/lvgl/src/draw/../misc/lv_color.h **** 
 597:Middlewares/LVGL/GUI/lvgl/src/draw/../misc/lv_color.h **** static inline lv_color_t lv_color_hex(uint32_t c)
 598:Middlewares/LVGL/GUI/lvgl/src/draw/../misc/lv_color.h **** {
 599:Middlewares/LVGL/GUI/lvgl/src/draw/../misc/lv_color.h **** #if LV_COLOR_DEPTH == 16
 600:Middlewares/LVGL/GUI/lvgl/src/draw/../misc/lv_color.h ****     lv_color_t r;
 601:Middlewares/LVGL/GUI/lvgl/src/draw/../misc/lv_color.h **** #if LV_COLOR_16_SWAP == 0
 602:Middlewares/LVGL/GUI/lvgl/src/draw/../misc/lv_color.h ****     /* Convert a 4 bytes per pixel in format ARGB32 to R5G6B5 format
 603:Middlewares/LVGL/GUI/lvgl/src/draw/../misc/lv_color.h ****         naive way (by calling lv_color_make with components):
 604:Middlewares/LVGL/GUI/lvgl/src/draw/../misc/lv_color.h ****                     r = ((c & 0xFF0000) >> 19)
 605:Middlewares/LVGL/GUI/lvgl/src/draw/../misc/lv_color.h ****                     g = ((c & 0xFF00) >> 10)
 606:Middlewares/LVGL/GUI/lvgl/src/draw/../misc/lv_color.h ****                     b = ((c & 0xFF) >> 3)
 607:Middlewares/LVGL/GUI/lvgl/src/draw/../misc/lv_color.h ****                     rgb565 = (r << 11) | (g << 5) | b
 608:Middlewares/LVGL/GUI/lvgl/src/draw/../misc/lv_color.h ****         That's 3 mask, 5 bitshift and 2 or operations
 609:Middlewares/LVGL/GUI/lvgl/src/draw/../misc/lv_color.h **** 
 610:Middlewares/LVGL/GUI/lvgl/src/draw/../misc/lv_color.h ****         A bit better:
 611:Middlewares/LVGL/GUI/lvgl/src/draw/../misc/lv_color.h ****                     r = ((c & 0xF80000) >> 8)
 612:Middlewares/LVGL/GUI/lvgl/src/draw/../misc/lv_color.h ****                     g = ((c & 0xFC00) >> 5)
 613:Middlewares/LVGL/GUI/lvgl/src/draw/../misc/lv_color.h ****                     b = ((c & 0xFF) >> 3)
 614:Middlewares/LVGL/GUI/lvgl/src/draw/../misc/lv_color.h ****                     rgb565 = r | g | b
ARM GAS  C:\Users\ADMINI~1\AppData\Local\Temp\ccM5otpk.s 			page 22


 615:Middlewares/LVGL/GUI/lvgl/src/draw/../misc/lv_color.h ****         That's 3 mask, 3 bitshifts and 2 or operations */
 616:Middlewares/LVGL/GUI/lvgl/src/draw/../misc/lv_color.h ****     r.full = (uint16_t)(((c & 0xF80000) >> 8) | ((c & 0xFC00) >> 5) | ((c & 0xFF) >> 3));
 617:Middlewares/LVGL/GUI/lvgl/src/draw/../misc/lv_color.h **** #else
 618:Middlewares/LVGL/GUI/lvgl/src/draw/../misc/lv_color.h ****     /* We want: rrrr rrrr GGGg gggg bbbb bbbb => gggb bbbb rrrr rGGG */
 619:Middlewares/LVGL/GUI/lvgl/src/draw/../misc/lv_color.h ****     r.full = (uint16_t)(((c & 0xF80000) >> 16) | ((c & 0xFC00) >> 13) | ((c & 0x1C00) << 3) | ((c &
 620:Middlewares/LVGL/GUI/lvgl/src/draw/../misc/lv_color.h **** #endif
 621:Middlewares/LVGL/GUI/lvgl/src/draw/../misc/lv_color.h ****     return r;
 622:Middlewares/LVGL/GUI/lvgl/src/draw/../misc/lv_color.h **** #elif LV_COLOR_DEPTH == 32
 623:Middlewares/LVGL/GUI/lvgl/src/draw/../misc/lv_color.h ****     lv_color_t r;
 624:Middlewares/LVGL/GUI/lvgl/src/draw/../misc/lv_color.h ****     r.full = c | 0xFF000000;
 625:Middlewares/LVGL/GUI/lvgl/src/draw/../misc/lv_color.h ****     return r;
 626:Middlewares/LVGL/GUI/lvgl/src/draw/../misc/lv_color.h **** #else /*LV_COLOR_DEPTH == 8*/
 627:Middlewares/LVGL/GUI/lvgl/src/draw/../misc/lv_color.h ****     return lv_color_make((uint8_t)((c >> 16) & 0xFF), (uint8_t)((c >> 8) & 0xFF), (uint8_t)(c & 0xF
 628:Middlewares/LVGL/GUI/lvgl/src/draw/../misc/lv_color.h **** #endif
 629:Middlewares/LVGL/GUI/lvgl/src/draw/../misc/lv_color.h **** }
 630:Middlewares/LVGL/GUI/lvgl/src/draw/../misc/lv_color.h **** 
 631:Middlewares/LVGL/GUI/lvgl/src/draw/../misc/lv_color.h **** static inline lv_color_t lv_color_hex3(uint32_t c)
 632:Middlewares/LVGL/GUI/lvgl/src/draw/../misc/lv_color.h **** {
 633:Middlewares/LVGL/GUI/lvgl/src/draw/../misc/lv_color.h ****     return lv_color_make((uint8_t)(((c >> 4) & 0xF0) | ((c >> 8) & 0xF)), (uint8_t)((c & 0xF0) | ((
 634:Middlewares/LVGL/GUI/lvgl/src/draw/../misc/lv_color.h ****                          (uint8_t)((c & 0xF) | ((c & 0xF) << 4)));
 635:Middlewares/LVGL/GUI/lvgl/src/draw/../misc/lv_color.h **** }
 636:Middlewares/LVGL/GUI/lvgl/src/draw/../misc/lv_color.h **** 
 637:Middlewares/LVGL/GUI/lvgl/src/draw/../misc/lv_color.h **** static inline void lv_color_filter_dsc_init(lv_color_filter_dsc_t * dsc, lv_color_filter_cb_t cb)
 638:Middlewares/LVGL/GUI/lvgl/src/draw/../misc/lv_color.h **** {
 639:Middlewares/LVGL/GUI/lvgl/src/draw/../misc/lv_color.h ****     dsc->filter_cb = cb;
 640:Middlewares/LVGL/GUI/lvgl/src/draw/../misc/lv_color.h **** }
 641:Middlewares/LVGL/GUI/lvgl/src/draw/../misc/lv_color.h **** 
 642:Middlewares/LVGL/GUI/lvgl/src/draw/../misc/lv_color.h **** //! @cond Doxygen_Suppress
 643:Middlewares/LVGL/GUI/lvgl/src/draw/../misc/lv_color.h **** //!
 644:Middlewares/LVGL/GUI/lvgl/src/draw/../misc/lv_color.h **** LV_ATTRIBUTE_FAST_MEM void lv_color_fill(lv_color_t * buf, lv_color_t color, uint32_t px_num);
 645:Middlewares/LVGL/GUI/lvgl/src/draw/../misc/lv_color.h **** 
 646:Middlewares/LVGL/GUI/lvgl/src/draw/../misc/lv_color.h **** //! @endcond
 647:Middlewares/LVGL/GUI/lvgl/src/draw/../misc/lv_color.h **** lv_color_t lv_color_lighten(lv_color_t c, lv_opa_t lvl);
 648:Middlewares/LVGL/GUI/lvgl/src/draw/../misc/lv_color.h **** 
 649:Middlewares/LVGL/GUI/lvgl/src/draw/../misc/lv_color.h **** lv_color_t lv_color_darken(lv_color_t c, lv_opa_t lvl);
 650:Middlewares/LVGL/GUI/lvgl/src/draw/../misc/lv_color.h **** 
 651:Middlewares/LVGL/GUI/lvgl/src/draw/../misc/lv_color.h **** lv_color_t lv_color_change_lightness(lv_color_t c, lv_opa_t lvl);
 652:Middlewares/LVGL/GUI/lvgl/src/draw/../misc/lv_color.h **** 
 653:Middlewares/LVGL/GUI/lvgl/src/draw/../misc/lv_color.h **** /**
 654:Middlewares/LVGL/GUI/lvgl/src/draw/../misc/lv_color.h ****  * Convert a HSV color to RGB
 655:Middlewares/LVGL/GUI/lvgl/src/draw/../misc/lv_color.h ****  * @param h hue [0..359]
 656:Middlewares/LVGL/GUI/lvgl/src/draw/../misc/lv_color.h ****  * @param s saturation [0..100]
 657:Middlewares/LVGL/GUI/lvgl/src/draw/../misc/lv_color.h ****  * @param v value [0..100]
 658:Middlewares/LVGL/GUI/lvgl/src/draw/../misc/lv_color.h ****  * @return the given RGB color in RGB (with LV_COLOR_DEPTH depth)
 659:Middlewares/LVGL/GUI/lvgl/src/draw/../misc/lv_color.h ****  */
 660:Middlewares/LVGL/GUI/lvgl/src/draw/../misc/lv_color.h **** lv_color_t lv_color_hsv_to_rgb(uint16_t h, uint8_t s, uint8_t v);
 661:Middlewares/LVGL/GUI/lvgl/src/draw/../misc/lv_color.h **** 
 662:Middlewares/LVGL/GUI/lvgl/src/draw/../misc/lv_color.h **** /**
 663:Middlewares/LVGL/GUI/lvgl/src/draw/../misc/lv_color.h ****  * Convert a 32-bit RGB color to HSV
 664:Middlewares/LVGL/GUI/lvgl/src/draw/../misc/lv_color.h ****  * @param r8 8-bit red
 665:Middlewares/LVGL/GUI/lvgl/src/draw/../misc/lv_color.h ****  * @param g8 8-bit green
 666:Middlewares/LVGL/GUI/lvgl/src/draw/../misc/lv_color.h ****  * @param b8 8-bit blue
 667:Middlewares/LVGL/GUI/lvgl/src/draw/../misc/lv_color.h ****  * @return the given RGB color in HSV
 668:Middlewares/LVGL/GUI/lvgl/src/draw/../misc/lv_color.h ****  */
 669:Middlewares/LVGL/GUI/lvgl/src/draw/../misc/lv_color.h **** lv_color_hsv_t lv_color_rgb_to_hsv(uint8_t r8, uint8_t g8, uint8_t b8);
 670:Middlewares/LVGL/GUI/lvgl/src/draw/../misc/lv_color.h **** 
 671:Middlewares/LVGL/GUI/lvgl/src/draw/../misc/lv_color.h **** /**
ARM GAS  C:\Users\ADMINI~1\AppData\Local\Temp\ccM5otpk.s 			page 23


 672:Middlewares/LVGL/GUI/lvgl/src/draw/../misc/lv_color.h ****  * Convert a color to HSV
 673:Middlewares/LVGL/GUI/lvgl/src/draw/../misc/lv_color.h ****  * @param color color
 674:Middlewares/LVGL/GUI/lvgl/src/draw/../misc/lv_color.h ****  * @return the given color in HSV
 675:Middlewares/LVGL/GUI/lvgl/src/draw/../misc/lv_color.h ****  */
 676:Middlewares/LVGL/GUI/lvgl/src/draw/../misc/lv_color.h **** lv_color_hsv_t lv_color_to_hsv(lv_color_t color);
 677:Middlewares/LVGL/GUI/lvgl/src/draw/../misc/lv_color.h **** 
 678:Middlewares/LVGL/GUI/lvgl/src/draw/../misc/lv_color.h **** /**
 679:Middlewares/LVGL/GUI/lvgl/src/draw/../misc/lv_color.h ****  * Just a wrapper around LV_COLOR_CHROMA_KEY because it might be more convenient to use a function 
 680:Middlewares/LVGL/GUI/lvgl/src/draw/../misc/lv_color.h ****  * @return LV_COLOR_CHROMA_KEY
 681:Middlewares/LVGL/GUI/lvgl/src/draw/../misc/lv_color.h ****  */
 682:Middlewares/LVGL/GUI/lvgl/src/draw/../misc/lv_color.h **** static inline lv_color_t lv_color_chroma_key(void)
 683:Middlewares/LVGL/GUI/lvgl/src/draw/../misc/lv_color.h **** {
 684:Middlewares/LVGL/GUI/lvgl/src/draw/../misc/lv_color.h ****     return LV_COLOR_CHROMA_KEY;
 685:Middlewares/LVGL/GUI/lvgl/src/draw/../misc/lv_color.h **** }
 686:Middlewares/LVGL/GUI/lvgl/src/draw/../misc/lv_color.h **** 
 687:Middlewares/LVGL/GUI/lvgl/src/draw/../misc/lv_color.h **** /**********************
 688:Middlewares/LVGL/GUI/lvgl/src/draw/../misc/lv_color.h ****  *  PREDEFINED COLORS
 689:Middlewares/LVGL/GUI/lvgl/src/draw/../misc/lv_color.h ****  **********************/
 690:Middlewares/LVGL/GUI/lvgl/src/draw/../misc/lv_color.h **** /*Source: https://vuetifyjs.com/en/styles/colors/#material-colors*/
 691:Middlewares/LVGL/GUI/lvgl/src/draw/../misc/lv_color.h **** 
 692:Middlewares/LVGL/GUI/lvgl/src/draw/../misc/lv_color.h **** lv_color_t lv_palette_main(lv_palette_t p);
 693:Middlewares/LVGL/GUI/lvgl/src/draw/../misc/lv_color.h **** static inline lv_color_t lv_color_white(void)
 694:Middlewares/LVGL/GUI/lvgl/src/draw/../misc/lv_color.h **** {
 695:Middlewares/LVGL/GUI/lvgl/src/draw/../misc/lv_color.h ****     return lv_color_make(0xff, 0xff, 0xff);
 696:Middlewares/LVGL/GUI/lvgl/src/draw/../misc/lv_color.h **** }
 697:Middlewares/LVGL/GUI/lvgl/src/draw/../misc/lv_color.h **** static inline lv_color_t lv_color_black(void)
 159              		.loc 2 697 26 view .LVU42
 160              	.LBE42:
 698:Middlewares/LVGL/GUI/lvgl/src/draw/../misc/lv_color.h **** {
 699:Middlewares/LVGL/GUI/lvgl/src/draw/../misc/lv_color.h ****     return lv_color_make(0x00, 0x0, 0x00);
 161              		.loc 2 699 5 view .LVU43
 162              	.LVL13:
 163              	.LBB45:
 164              	.LBB43:
 165              	.LBI43:
 592:Middlewares/LVGL/GUI/lvgl/src/draw/../misc/lv_color.h **** {
 166              		.loc 2 592 26 view .LVU44
 167              	.LBB44:
 594:Middlewares/LVGL/GUI/lvgl/src/draw/../misc/lv_color.h **** }
 168              		.loc 2 594 5 view .LVU45
 594:Middlewares/LVGL/GUI/lvgl/src/draw/../misc/lv_color.h **** }
 169              		.loc 2 594 12 is_stmt 0 view .LVU46
 170 0010 4FF00003 		mov	r3, #0	@ movhi
 171              	.LVL14:
 594:Middlewares/LVGL/GUI/lvgl/src/draw/../misc/lv_color.h **** }
 172              		.loc 2 594 12 view .LVU47
 173              	.LBE44:
 174              	.LBE43:
 175              	.LBE45:
  59:Middlewares/LVGL/GUI/lvgl/src/draw/lv_draw_label.c ****     dsc->font = LV_FONT_DEFAULT;
 176              		.loc 1 59 18 view .LVU48
 177 0014 A381     		strh	r3, [r4, #12]	@ movhi
  60:Middlewares/LVGL/GUI/lvgl/src/draw/lv_draw_label.c ****     dsc->sel_start = LV_DRAW_LABEL_NO_TXT_SEL;
 178              		.loc 1 60 5 is_stmt 1 view .LVU49
  60:Middlewares/LVGL/GUI/lvgl/src/draw/lv_draw_label.c ****     dsc->sel_start = LV_DRAW_LABEL_NO_TXT_SEL;
 179              		.loc 1 60 15 is_stmt 0 view .LVU50
 180 0016 084B     		ldr	r3, .L14
ARM GAS  C:\Users\ADMINI~1\AppData\Local\Temp\ccM5otpk.s 			page 24


 181 0018 2360     		str	r3, [r4]
  61:Middlewares/LVGL/GUI/lvgl/src/draw/lv_draw_label.c ****     dsc->sel_end = LV_DRAW_LABEL_NO_TXT_SEL;
 182              		.loc 1 61 5 is_stmt 1 view .LVU51
  61:Middlewares/LVGL/GUI/lvgl/src/draw/lv_draw_label.c ****     dsc->sel_end = LV_DRAW_LABEL_NO_TXT_SEL;
 183              		.loc 1 61 20 is_stmt 0 view .LVU52
 184 001a 4FF6FF73 		movw	r3, #65535
 185 001e 6360     		str	r3, [r4, #4]
  62:Middlewares/LVGL/GUI/lvgl/src/draw/lv_draw_label.c ****     dsc->sel_color = lv_color_black();
 186              		.loc 1 62 5 is_stmt 1 view .LVU53
  62:Middlewares/LVGL/GUI/lvgl/src/draw/lv_draw_label.c ****     dsc->sel_color = lv_color_black();
 187              		.loc 1 62 18 is_stmt 0 view .LVU54
 188 0020 A360     		str	r3, [r4, #8]
  63:Middlewares/LVGL/GUI/lvgl/src/draw/lv_draw_label.c ****     dsc->sel_bg_color = lv_palette_main(LV_PALETTE_BLUE);
 189              		.loc 1 63 5 is_stmt 1 view .LVU55
 190              	.LBB46:
 191              	.LBI46:
 697:Middlewares/LVGL/GUI/lvgl/src/draw/../misc/lv_color.h **** {
 192              		.loc 2 697 26 view .LVU56
 193              	.LBE46:
 194              		.loc 2 699 5 view .LVU57
 195              	.LVL15:
 196              	.LBB49:
 197              	.LBB47:
 198              	.LBI47:
 592:Middlewares/LVGL/GUI/lvgl/src/draw/../misc/lv_color.h **** {
 199              		.loc 2 592 26 view .LVU58
 200              	.LBB48:
 594:Middlewares/LVGL/GUI/lvgl/src/draw/../misc/lv_color.h **** }
 201              		.loc 2 594 5 view .LVU59
 594:Middlewares/LVGL/GUI/lvgl/src/draw/../misc/lv_color.h **** }
 202              		.loc 2 594 12 is_stmt 0 view .LVU60
 203 0022 4FF00003 		mov	r3, #0	@ movhi
 204              	.LVL16:
 594:Middlewares/LVGL/GUI/lvgl/src/draw/../misc/lv_color.h **** }
 205              		.loc 2 594 12 view .LVU61
 206              	.LBE48:
 207              	.LBE47:
 208              	.LBE49:
  63:Middlewares/LVGL/GUI/lvgl/src/draw/lv_draw_label.c ****     dsc->sel_bg_color = lv_palette_main(LV_PALETTE_BLUE);
 209              		.loc 1 63 22 view .LVU62
 210 0026 E381     		strh	r3, [r4, #14]	@ movhi
  64:Middlewares/LVGL/GUI/lvgl/src/draw/lv_draw_label.c ****     dsc->bidi_dir = LV_BASE_DIR_LTR;
 211              		.loc 1 64 5 is_stmt 1 view .LVU63
  64:Middlewares/LVGL/GUI/lvgl/src/draw/lv_draw_label.c ****     dsc->bidi_dir = LV_BASE_DIR_LTR;
 212              		.loc 1 64 25 is_stmt 0 view .LVU64
 213 0028 0520     		movs	r0, #5
 214 002a FFF7FEFF 		bl	lv_palette_main
 215              	.LVL17:
 216 002e 2082     		strh	r0, [r4, #16]	@ movhi
  65:Middlewares/LVGL/GUI/lvgl/src/draw/lv_draw_label.c **** }
 217              		.loc 1 65 5 is_stmt 1 view .LVU65
  65:Middlewares/LVGL/GUI/lvgl/src/draw/lv_draw_label.c **** }
 218              		.loc 1 65 19 is_stmt 0 view .LVU66
 219 0030 0023     		movs	r3, #0
 220 0032 84F82530 		strb	r3, [r4, #37]
  66:Middlewares/LVGL/GUI/lvgl/src/draw/lv_draw_label.c **** 
 221              		.loc 1 66 1 view .LVU67
ARM GAS  C:\Users\ADMINI~1\AppData\Local\Temp\ccM5otpk.s 			page 25


 222 0036 10BD     		pop	{r4, pc}
 223              	.LVL18:
 224              	.L15:
  66:Middlewares/LVGL/GUI/lvgl/src/draw/lv_draw_label.c **** 
 225              		.loc 1 66 1 view .LVU68
 226              		.align	2
 227              	.L14:
 228 0038 00000000 		.word	lv_font_montserrat_14
 229              		.cfi_endproc
 230              	.LFE153:
 232              		.section	.text.lv_draw_letter,"ax",%progbits
 233              		.align	1
 234              		.global	lv_draw_letter
 235              		.syntax unified
 236              		.thumb
 237              		.thumb_func
 239              	lv_draw_letter:
 240              	.LVL19:
 241              	.LFB155:
 366:Middlewares/LVGL/GUI/lvgl/src/draw/lv_draw_label.c ****     draw_ctx->draw_letter(draw_ctx, dsc, pos_p, letter);
 242              		.loc 1 366 1 is_stmt 1 view -0
 243              		.cfi_startproc
 244              		@ args = 0, pretend = 0, frame = 0
 245              		@ frame_needed = 0, uses_anonymous_args = 0
 366:Middlewares/LVGL/GUI/lvgl/src/draw/lv_draw_label.c ****     draw_ctx->draw_letter(draw_ctx, dsc, pos_p, letter);
 246              		.loc 1 366 1 is_stmt 0 view .LVU70
 247 0000 10B5     		push	{r4, lr}
 248              	.LCFI1:
 249              		.cfi_def_cfa_offset 8
 250              		.cfi_offset 4, -8
 251              		.cfi_offset 14, -4
 367:Middlewares/LVGL/GUI/lvgl/src/draw/lv_draw_label.c **** }
 252              		.loc 1 367 5 is_stmt 1 view .LVU71
 367:Middlewares/LVGL/GUI/lvgl/src/draw/lv_draw_label.c **** }
 253              		.loc 1 367 13 is_stmt 0 view .LVU72
 254 0002 C469     		ldr	r4, [r0, #28]
 367:Middlewares/LVGL/GUI/lvgl/src/draw/lv_draw_label.c **** }
 255              		.loc 1 367 5 view .LVU73
 256 0004 A047     		blx	r4
 257              	.LVL20:
 368:Middlewares/LVGL/GUI/lvgl/src/draw/lv_draw_label.c **** 
 258              		.loc 1 368 1 view .LVU74
 259 0006 10BD     		pop	{r4, pc}
 260              		.cfi_endproc
 261              	.LFE155:
 263              		.section	.text.lv_draw_label,"ax",%progbits
 264              		.align	1
 265              		.global	lv_draw_label
 266              		.syntax unified
 267              		.thumb
 268              		.thumb_func
 270              	lv_draw_label:
 271              	.LVL21:
 272              	.LFB154:
  79:Middlewares/LVGL/GUI/lvgl/src/draw/lv_draw_label.c ****     if(dsc->opa <= LV_OPA_MIN) return;
 273              		.loc 1 79 1 is_stmt 1 view -0
 274              		.cfi_startproc
ARM GAS  C:\Users\ADMINI~1\AppData\Local\Temp\ccM5otpk.s 			page 26


 275              		@ args = 4, pretend = 0, frame = 248
 276              		@ frame_needed = 0, uses_anonymous_args = 0
  79:Middlewares/LVGL/GUI/lvgl/src/draw/lv_draw_label.c ****     if(dsc->opa <= LV_OPA_MIN) return;
 277              		.loc 1 79 1 is_stmt 0 view .LVU76
 278 0000 2DE9F04F 		push	{r4, r5, r6, r7, r8, r9, r10, fp, lr}
 279              	.LCFI2:
 280              		.cfi_def_cfa_offset 36
 281              		.cfi_offset 4, -36
 282              		.cfi_offset 5, -32
 283              		.cfi_offset 6, -28
 284              		.cfi_offset 7, -24
 285              		.cfi_offset 8, -20
 286              		.cfi_offset 9, -16
 287              		.cfi_offset 10, -12
 288              		.cfi_offset 11, -8
 289              		.cfi_offset 14, -4
 290 0004 C3B0     		sub	sp, sp, #268
 291              	.LCFI3:
 292              		.cfi_def_cfa_offset 304
 293 0006 0992     		str	r2, [sp, #36]
 294 0008 9C46     		mov	ip, r3
 295 000a 0893     		str	r3, [sp, #32]
 296 000c 4C9D     		ldr	r5, [sp, #304]
  80:Middlewares/LVGL/GUI/lvgl/src/draw/lv_draw_label.c ****     if(dsc->font == NULL) {
 297              		.loc 1 80 5 is_stmt 1 view .LVU77
  80:Middlewares/LVGL/GUI/lvgl/src/draw/lv_draw_label.c ****     if(dsc->font == NULL) {
 298              		.loc 1 80 11 is_stmt 0 view .LVU78
 299 000e 91F82430 		ldrb	r3, [r1, #36]	@ zero_extendqisi2
 300              	.LVL22:
  80:Middlewares/LVGL/GUI/lvgl/src/draw/lv_draw_label.c ****     if(dsc->font == NULL) {
 301              		.loc 1 80 7 view .LVU79
 302 0012 022B     		cmp	r3, #2
 303 0014 17D9     		bls	.L18
 304 0016 8146     		mov	r9, r0
 305 0018 0C46     		mov	r4, r1
 306 001a 9646     		mov	lr, r2
  81:Middlewares/LVGL/GUI/lvgl/src/draw/lv_draw_label.c ****         LV_LOG_WARN("dsc->font == NULL");
 307              		.loc 1 81 5 is_stmt 1 view .LVU80
  81:Middlewares/LVGL/GUI/lvgl/src/draw/lv_draw_label.c ****         LV_LOG_WARN("dsc->font == NULL");
 308              		.loc 1 81 11 is_stmt 0 view .LVU81
 309 001c 0B68     		ldr	r3, [r1]
  81:Middlewares/LVGL/GUI/lvgl/src/draw/lv_draw_label.c ****         LV_LOG_WARN("dsc->font == NULL");
 310              		.loc 1 81 7 view .LVU82
 311 001e 93B1     		cbz	r3, .L18
  86:Middlewares/LVGL/GUI/lvgl/src/draw/lv_draw_label.c ****         LV_LOG_WARN("draw->draw_letter == NULL (there is no function to draw letters)");
 312              		.loc 1 86 5 is_stmt 1 view .LVU83
  86:Middlewares/LVGL/GUI/lvgl/src/draw/lv_draw_label.c ****         LV_LOG_WARN("draw->draw_letter == NULL (there is no function to draw letters)");
 313              		.loc 1 86 16 is_stmt 0 view .LVU84
 314 0020 C369     		ldr	r3, [r0, #28]
  86:Middlewares/LVGL/GUI/lvgl/src/draw/lv_draw_label.c ****         LV_LOG_WARN("draw->draw_letter == NULL (there is no function to draw letters)");
 315              		.loc 1 86 7 view .LVU85
 316 0022 83B1     		cbz	r3, .L18
  91:Middlewares/LVGL/GUI/lvgl/src/draw/lv_draw_label.c **** 
 317              		.loc 1 91 5 is_stmt 1 view .LVU86
  91:Middlewares/LVGL/GUI/lvgl/src/draw/lv_draw_label.c **** 
 318              		.loc 1 91 25 is_stmt 0 view .LVU87
 319 0024 37AE     		add	r6, sp, #220
ARM GAS  C:\Users\ADMINI~1\AppData\Local\Temp\ccM5otpk.s 			page 27


 320 0026 0F46     		mov	r7, r1
 321 0028 0FCF     		ldmia	r7!, {r0, r1, r2, r3}
 322              	.LVL23:
  91:Middlewares/LVGL/GUI/lvgl/src/draw/lv_draw_label.c **** 
 323              		.loc 1 91 25 view .LVU88
 324 002a 0FC6     		stmia	r6!, {r0, r1, r2, r3}
 325 002c 0FCF     		ldmia	r7!, {r0, r1, r2, r3}
 326 002e 0FC6     		stmia	r6!, {r0, r1, r2, r3}
 327 0030 97E80700 		ldm	r7, {r0, r1, r2}
 328 0034 86E80700 		stm	r6, {r0, r1, r2}
  93:Middlewares/LVGL/GUI/lvgl/src/draw/lv_draw_label.c ****     int32_t w;
 329              		.loc 1 93 5 is_stmt 1 view .LVU89
  93:Middlewares/LVGL/GUI/lvgl/src/draw/lv_draw_label.c ****     int32_t w;
 330              		.loc 1 93 23 is_stmt 0 view .LVU90
 331 0038 2068     		ldr	r0, [r4]
 332 003a 0490     		str	r0, [sp, #16]
 333              	.LVL24:
  94:Middlewares/LVGL/GUI/lvgl/src/draw/lv_draw_label.c **** 
 334              		.loc 1 94 5 is_stmt 1 view .LVU91
  97:Middlewares/LVGL/GUI/lvgl/src/draw/lv_draw_label.c ****         return;
 335              		.loc 1 97 5 view .LVU92
  97:Middlewares/LVGL/GUI/lvgl/src/draw/lv_draw_label.c ****         return;
 336              		.loc 1 97 7 is_stmt 0 view .LVU93
 337 003c 6346     		mov	r3, ip
 338 003e 13B1     		cbz	r3, .L18
  97:Middlewares/LVGL/GUI/lvgl/src/draw/lv_draw_label.c ****         return;
 339              		.loc 1 97 26 discriminator 1 view .LVU94
 340 0040 9CF80030 		ldrb	r3, [ip]	@ zero_extendqisi2
  97:Middlewares/LVGL/GUI/lvgl/src/draw/lv_draw_label.c ****         return;
 341              		.loc 1 97 20 discriminator 1 view .LVU95
 342 0044 13B9     		cbnz	r3, .L68
 343              	.LVL25:
 344              	.L18:
 362:Middlewares/LVGL/GUI/lvgl/src/draw/lv_draw_label.c **** 
 345              		.loc 1 362 1 view .LVU96
 346 0046 43B0     		add	sp, sp, #268
 347              	.LCFI4:
 348              		.cfi_remember_state
 349              		.cfi_def_cfa_offset 36
 350              		@ sp needed
 351 0048 BDE8F08F 		pop	{r4, r5, r6, r7, r8, r9, r10, fp, pc}
 352              	.LVL26:
 353              	.L68:
 354              	.LCFI5:
 355              		.cfi_restore_state
 100:Middlewares/LVGL/GUI/lvgl/src/draw/lv_draw_label.c ****     bool clip_ok = _lv_area_intersect(&clipped_area, coords, draw_ctx->clip_area);
 356              		.loc 1 100 5 is_stmt 1 view .LVU97
 101:Middlewares/LVGL/GUI/lvgl/src/draw/lv_draw_label.c ****     if(!clip_ok) return;
 357              		.loc 1 101 5 view .LVU98
 101:Middlewares/LVGL/GUI/lvgl/src/draw/lv_draw_label.c ****     if(!clip_ok) return;
 358              		.loc 1 101 20 is_stmt 0 view .LVU99
 359 004c D9F80820 		ldr	r2, [r9, #8]
 360 0050 7146     		mov	r1, lr
 361 0052 33A8     		add	r0, sp, #204
 362              	.LVL27:
 101:Middlewares/LVGL/GUI/lvgl/src/draw/lv_draw_label.c ****     if(!clip_ok) return;
 363              		.loc 1 101 20 view .LVU100
ARM GAS  C:\Users\ADMINI~1\AppData\Local\Temp\ccM5otpk.s 			page 28


 364 0054 FFF7FEFF 		bl	_lv_area_intersect
 365              	.LVL28:
 102:Middlewares/LVGL/GUI/lvgl/src/draw/lv_draw_label.c **** 
 366              		.loc 1 102 5 is_stmt 1 view .LVU101
 102:Middlewares/LVGL/GUI/lvgl/src/draw/lv_draw_label.c **** 
 367              		.loc 1 102 7 is_stmt 0 view .LVU102
 368 0058 0028     		cmp	r0, #0
 369 005a F4D0     		beq	.L18
 104:Middlewares/LVGL/GUI/lvgl/src/draw/lv_draw_label.c ****     lv_base_dir_t base_dir = dsc->bidi_dir;
 370              		.loc 1 104 5 is_stmt 1 view .LVU103
 104:Middlewares/LVGL/GUI/lvgl/src/draw/lv_draw_label.c ****     lv_base_dir_t base_dir = dsc->bidi_dir;
 371              		.loc 1 104 32 is_stmt 0 view .LVU104
 372 005c 94F82630 		ldrb	r3, [r4, #38]	@ zero_extendqisi2
 373 0060 0C93     		str	r3, [sp, #48]
 374              	.LVL29:
 105:Middlewares/LVGL/GUI/lvgl/src/draw/lv_draw_label.c **** 
 375              		.loc 1 105 5 is_stmt 1 view .LVU105
 107:Middlewares/LVGL/GUI/lvgl/src/draw/lv_draw_label.c **** 
 376              		.loc 1 107 5 view .LVU106
 377              	.LBB50:
 378              	.LBI50:
 379              		.file 3 "Middlewares/LVGL/GUI/lvgl/src/draw/../misc/lv_bidi.h"
   1:Middlewares/LVGL/GUI/lvgl/src/draw/../misc/lv_bidi.h **** /**
   2:Middlewares/LVGL/GUI/lvgl/src/draw/../misc/lv_bidi.h ****  * @file lv_bidi.h
   3:Middlewares/LVGL/GUI/lvgl/src/draw/../misc/lv_bidi.h ****  *
   4:Middlewares/LVGL/GUI/lvgl/src/draw/../misc/lv_bidi.h ****  */
   5:Middlewares/LVGL/GUI/lvgl/src/draw/../misc/lv_bidi.h **** 
   6:Middlewares/LVGL/GUI/lvgl/src/draw/../misc/lv_bidi.h **** #ifndef LV_BIDI_H
   7:Middlewares/LVGL/GUI/lvgl/src/draw/../misc/lv_bidi.h **** #define LV_BIDI_H
   8:Middlewares/LVGL/GUI/lvgl/src/draw/../misc/lv_bidi.h **** 
   9:Middlewares/LVGL/GUI/lvgl/src/draw/../misc/lv_bidi.h **** #ifdef __cplusplus
  10:Middlewares/LVGL/GUI/lvgl/src/draw/../misc/lv_bidi.h **** extern "C" {
  11:Middlewares/LVGL/GUI/lvgl/src/draw/../misc/lv_bidi.h **** #endif
  12:Middlewares/LVGL/GUI/lvgl/src/draw/../misc/lv_bidi.h **** 
  13:Middlewares/LVGL/GUI/lvgl/src/draw/../misc/lv_bidi.h **** /*********************
  14:Middlewares/LVGL/GUI/lvgl/src/draw/../misc/lv_bidi.h ****  *      INCLUDES
  15:Middlewares/LVGL/GUI/lvgl/src/draw/../misc/lv_bidi.h ****  *********************/
  16:Middlewares/LVGL/GUI/lvgl/src/draw/../misc/lv_bidi.h **** #include "../lv_conf_internal.h"
  17:Middlewares/LVGL/GUI/lvgl/src/draw/../misc/lv_bidi.h **** 
  18:Middlewares/LVGL/GUI/lvgl/src/draw/../misc/lv_bidi.h **** #include <stdbool.h>
  19:Middlewares/LVGL/GUI/lvgl/src/draw/../misc/lv_bidi.h **** #include <stdint.h>
  20:Middlewares/LVGL/GUI/lvgl/src/draw/../misc/lv_bidi.h **** #include "lv_txt.h"
  21:Middlewares/LVGL/GUI/lvgl/src/draw/../misc/lv_bidi.h **** 
  22:Middlewares/LVGL/GUI/lvgl/src/draw/../misc/lv_bidi.h **** /*********************
  23:Middlewares/LVGL/GUI/lvgl/src/draw/../misc/lv_bidi.h ****  *      DEFINES
  24:Middlewares/LVGL/GUI/lvgl/src/draw/../misc/lv_bidi.h ****  *********************/
  25:Middlewares/LVGL/GUI/lvgl/src/draw/../misc/lv_bidi.h **** /*Special non printable strong characters.
  26:Middlewares/LVGL/GUI/lvgl/src/draw/../misc/lv_bidi.h ****  *They can be inserted to texts to affect the run's direction*/
  27:Middlewares/LVGL/GUI/lvgl/src/draw/../misc/lv_bidi.h **** #define LV_BIDI_LRO  "\xE2\x80\xAD" /*U+202D*/
  28:Middlewares/LVGL/GUI/lvgl/src/draw/../misc/lv_bidi.h **** #define LV_BIDI_RLO  "\xE2\x80\xAE" /*U+202E*/
  29:Middlewares/LVGL/GUI/lvgl/src/draw/../misc/lv_bidi.h **** 
  30:Middlewares/LVGL/GUI/lvgl/src/draw/../misc/lv_bidi.h **** /**********************
  31:Middlewares/LVGL/GUI/lvgl/src/draw/../misc/lv_bidi.h ****  *      TYPEDEFS
  32:Middlewares/LVGL/GUI/lvgl/src/draw/../misc/lv_bidi.h ****  **********************/
  33:Middlewares/LVGL/GUI/lvgl/src/draw/../misc/lv_bidi.h **** enum {
  34:Middlewares/LVGL/GUI/lvgl/src/draw/../misc/lv_bidi.h ****     LV_BASE_DIR_LTR      = 0x00,
  35:Middlewares/LVGL/GUI/lvgl/src/draw/../misc/lv_bidi.h ****     LV_BASE_DIR_RTL      = 0x01,
ARM GAS  C:\Users\ADMINI~1\AppData\Local\Temp\ccM5otpk.s 			page 29


  36:Middlewares/LVGL/GUI/lvgl/src/draw/../misc/lv_bidi.h ****     LV_BASE_DIR_AUTO     = 0x02,
  37:Middlewares/LVGL/GUI/lvgl/src/draw/../misc/lv_bidi.h **** 
  38:Middlewares/LVGL/GUI/lvgl/src/draw/../misc/lv_bidi.h ****     LV_BASE_DIR_NEUTRAL  = 0x20,
  39:Middlewares/LVGL/GUI/lvgl/src/draw/../misc/lv_bidi.h ****     LV_BASE_DIR_WEAK     = 0x21,
  40:Middlewares/LVGL/GUI/lvgl/src/draw/../misc/lv_bidi.h **** };
  41:Middlewares/LVGL/GUI/lvgl/src/draw/../misc/lv_bidi.h **** 
  42:Middlewares/LVGL/GUI/lvgl/src/draw/../misc/lv_bidi.h **** typedef uint8_t lv_base_dir_t;
  43:Middlewares/LVGL/GUI/lvgl/src/draw/../misc/lv_bidi.h **** 
  44:Middlewares/LVGL/GUI/lvgl/src/draw/../misc/lv_bidi.h **** /**********************
  45:Middlewares/LVGL/GUI/lvgl/src/draw/../misc/lv_bidi.h ****  * GLOBAL PROTOTYPES
  46:Middlewares/LVGL/GUI/lvgl/src/draw/../misc/lv_bidi.h ****  **********************/
  47:Middlewares/LVGL/GUI/lvgl/src/draw/../misc/lv_bidi.h **** #if LV_USE_BIDI
  48:Middlewares/LVGL/GUI/lvgl/src/draw/../misc/lv_bidi.h **** 
  49:Middlewares/LVGL/GUI/lvgl/src/draw/../misc/lv_bidi.h **** /**
  50:Middlewares/LVGL/GUI/lvgl/src/draw/../misc/lv_bidi.h ****  * Convert a text to get the characters in the correct visual order according to
  51:Middlewares/LVGL/GUI/lvgl/src/draw/../misc/lv_bidi.h ****  * Unicode Bidirectional Algorithm
  52:Middlewares/LVGL/GUI/lvgl/src/draw/../misc/lv_bidi.h ****  * @param str_in the text to process
  53:Middlewares/LVGL/GUI/lvgl/src/draw/../misc/lv_bidi.h ****  * @param str_out store the result here. Has the be `strlen(str_in)` length
  54:Middlewares/LVGL/GUI/lvgl/src/draw/../misc/lv_bidi.h ****  * @param base_dir `LV_BASE_DIR_LTR` or `LV_BASE_DIR_RTL`
  55:Middlewares/LVGL/GUI/lvgl/src/draw/../misc/lv_bidi.h ****  */
  56:Middlewares/LVGL/GUI/lvgl/src/draw/../misc/lv_bidi.h **** void _lv_bidi_process(const char * str_in, char * str_out, lv_base_dir_t base_dir);
  57:Middlewares/LVGL/GUI/lvgl/src/draw/../misc/lv_bidi.h **** 
  58:Middlewares/LVGL/GUI/lvgl/src/draw/../misc/lv_bidi.h **** /**
  59:Middlewares/LVGL/GUI/lvgl/src/draw/../misc/lv_bidi.h ****  * Auto-detect the direction of a text based on the first strong character
  60:Middlewares/LVGL/GUI/lvgl/src/draw/../misc/lv_bidi.h ****  * @param txt the text to process
  61:Middlewares/LVGL/GUI/lvgl/src/draw/../misc/lv_bidi.h ****  * @return `LV_BASE_DIR_LTR` or `LV_BASE_DIR_RTL`
  62:Middlewares/LVGL/GUI/lvgl/src/draw/../misc/lv_bidi.h ****  */
  63:Middlewares/LVGL/GUI/lvgl/src/draw/../misc/lv_bidi.h **** lv_base_dir_t _lv_bidi_detect_base_dir(const char * txt);
  64:Middlewares/LVGL/GUI/lvgl/src/draw/../misc/lv_bidi.h **** 
  65:Middlewares/LVGL/GUI/lvgl/src/draw/../misc/lv_bidi.h **** /**
  66:Middlewares/LVGL/GUI/lvgl/src/draw/../misc/lv_bidi.h ****  * Get the logical position of a character in a line
  67:Middlewares/LVGL/GUI/lvgl/src/draw/../misc/lv_bidi.h ****  * @param str_in the input string. Can be only one line.
  68:Middlewares/LVGL/GUI/lvgl/src/draw/../misc/lv_bidi.h ****  * @param bidi_txt internally the text is bidi processed which buffer can be get here.
  69:Middlewares/LVGL/GUI/lvgl/src/draw/../misc/lv_bidi.h ****  * If not required anymore has to freed with `lv_mem_free()`
  70:Middlewares/LVGL/GUI/lvgl/src/draw/../misc/lv_bidi.h ****  * Can be `NULL` is unused
  71:Middlewares/LVGL/GUI/lvgl/src/draw/../misc/lv_bidi.h ****  * @param len length of the line in character count
  72:Middlewares/LVGL/GUI/lvgl/src/draw/../misc/lv_bidi.h ****  * @param base_dir base direction of the text: `LV_BASE_DIR_LTR` or `LV_BASE_DIR_RTL`
  73:Middlewares/LVGL/GUI/lvgl/src/draw/../misc/lv_bidi.h ****  * @param visual_pos the visual character position which logical position should be get
  74:Middlewares/LVGL/GUI/lvgl/src/draw/../misc/lv_bidi.h ****  * @param is_rtl tell the char at `visual_pos` is RTL or LTR context
  75:Middlewares/LVGL/GUI/lvgl/src/draw/../misc/lv_bidi.h ****  * @return the logical character position
  76:Middlewares/LVGL/GUI/lvgl/src/draw/../misc/lv_bidi.h ****  */
  77:Middlewares/LVGL/GUI/lvgl/src/draw/../misc/lv_bidi.h **** uint16_t _lv_bidi_get_logical_pos(const char * str_in, char ** bidi_txt, uint32_t len, lv_base_dir_
  78:Middlewares/LVGL/GUI/lvgl/src/draw/../misc/lv_bidi.h ****                                   uint32_t visual_pos, bool * is_rtl);
  79:Middlewares/LVGL/GUI/lvgl/src/draw/../misc/lv_bidi.h **** 
  80:Middlewares/LVGL/GUI/lvgl/src/draw/../misc/lv_bidi.h **** /**
  81:Middlewares/LVGL/GUI/lvgl/src/draw/../misc/lv_bidi.h ****  * Get the visual position of a character in a line
  82:Middlewares/LVGL/GUI/lvgl/src/draw/../misc/lv_bidi.h ****  * @param str_in the input string. Can be only one line.
  83:Middlewares/LVGL/GUI/lvgl/src/draw/../misc/lv_bidi.h ****  * @param bidi_txt internally the text is bidi processed which buffer can be get here.
  84:Middlewares/LVGL/GUI/lvgl/src/draw/../misc/lv_bidi.h ****  * If not required anymore has to freed with `lv_mem_free()`
  85:Middlewares/LVGL/GUI/lvgl/src/draw/../misc/lv_bidi.h ****  * Can be `NULL` is unused
  86:Middlewares/LVGL/GUI/lvgl/src/draw/../misc/lv_bidi.h ****  * @param len length of the line in character count
  87:Middlewares/LVGL/GUI/lvgl/src/draw/../misc/lv_bidi.h ****  * @param base_dir base direction of the text: `LV_BASE_DIR_LTR` or `LV_BASE_DIR_RTL`
  88:Middlewares/LVGL/GUI/lvgl/src/draw/../misc/lv_bidi.h ****  * @param logical_pos the logical character position which visual position should be get
  89:Middlewares/LVGL/GUI/lvgl/src/draw/../misc/lv_bidi.h ****  * @param is_rtl tell the char at `logical_pos` is RTL or LTR context
  90:Middlewares/LVGL/GUI/lvgl/src/draw/../misc/lv_bidi.h ****  * @return the visual character position
  91:Middlewares/LVGL/GUI/lvgl/src/draw/../misc/lv_bidi.h ****  */
  92:Middlewares/LVGL/GUI/lvgl/src/draw/../misc/lv_bidi.h **** uint16_t _lv_bidi_get_visual_pos(const char * str_in, char ** bidi_txt, uint16_t len, lv_base_dir_t
ARM GAS  C:\Users\ADMINI~1\AppData\Local\Temp\ccM5otpk.s 			page 30


  93:Middlewares/LVGL/GUI/lvgl/src/draw/../misc/lv_bidi.h ****                                  uint32_t logical_pos, bool * is_rtl);
  94:Middlewares/LVGL/GUI/lvgl/src/draw/../misc/lv_bidi.h **** 
  95:Middlewares/LVGL/GUI/lvgl/src/draw/../misc/lv_bidi.h **** /**
  96:Middlewares/LVGL/GUI/lvgl/src/draw/../misc/lv_bidi.h ****  * Bidi process a paragraph of text
  97:Middlewares/LVGL/GUI/lvgl/src/draw/../misc/lv_bidi.h ****  * @param str_in the string to process
  98:Middlewares/LVGL/GUI/lvgl/src/draw/../misc/lv_bidi.h ****  * @param str_out store the result here
  99:Middlewares/LVGL/GUI/lvgl/src/draw/../misc/lv_bidi.h ****  * @param len length of the text
 100:Middlewares/LVGL/GUI/lvgl/src/draw/../misc/lv_bidi.h ****  * @param base_dir base dir of the text
 101:Middlewares/LVGL/GUI/lvgl/src/draw/../misc/lv_bidi.h ****  * @param pos_conv_out an `uint16_t` array to store the related logical position of the character.
 102:Middlewares/LVGL/GUI/lvgl/src/draw/../misc/lv_bidi.h ****  * Can be `NULL` is unused
 103:Middlewares/LVGL/GUI/lvgl/src/draw/../misc/lv_bidi.h ****  * @param pos_conv_len length of `pos_conv_out` in element count
 104:Middlewares/LVGL/GUI/lvgl/src/draw/../misc/lv_bidi.h ****  */
 105:Middlewares/LVGL/GUI/lvgl/src/draw/../misc/lv_bidi.h **** void _lv_bidi_process_paragraph(const char * str_in, char * str_out, uint32_t len, lv_base_dir_t ba
 106:Middlewares/LVGL/GUI/lvgl/src/draw/../misc/lv_bidi.h ****                                 uint16_t * pos_conv_out, uint16_t pos_conv_len);
 107:Middlewares/LVGL/GUI/lvgl/src/draw/../misc/lv_bidi.h **** 
 108:Middlewares/LVGL/GUI/lvgl/src/draw/../misc/lv_bidi.h **** /**
 109:Middlewares/LVGL/GUI/lvgl/src/draw/../misc/lv_bidi.h ****  * Get the real text alignment from the a text alignment, base direction and a text.
 110:Middlewares/LVGL/GUI/lvgl/src/draw/../misc/lv_bidi.h ****  * @param align     LV_TEXT_ALIGN_..., write back the calculated align here (LV_TEXT_ALIGN_LEFT/RIG
 111:Middlewares/LVGL/GUI/lvgl/src/draw/../misc/lv_bidi.h ****  * @param base_dir  LV_BASE_DIR_..., write the calculated base dir here (LV_BASE_DIR_LTR/RTL)
 112:Middlewares/LVGL/GUI/lvgl/src/draw/../misc/lv_bidi.h ****  * @param txt       a text, used with LV_BASE_DIR_AUTO to determine the base direction
 113:Middlewares/LVGL/GUI/lvgl/src/draw/../misc/lv_bidi.h ****  */
 114:Middlewares/LVGL/GUI/lvgl/src/draw/../misc/lv_bidi.h **** void lv_bidi_calculate_align(lv_text_align_t * align, lv_base_dir_t * base_dir, const char * txt);
 115:Middlewares/LVGL/GUI/lvgl/src/draw/../misc/lv_bidi.h **** 
 116:Middlewares/LVGL/GUI/lvgl/src/draw/../misc/lv_bidi.h **** 
 117:Middlewares/LVGL/GUI/lvgl/src/draw/../misc/lv_bidi.h **** /**********************
 118:Middlewares/LVGL/GUI/lvgl/src/draw/../misc/lv_bidi.h ****  *      MACROS
 119:Middlewares/LVGL/GUI/lvgl/src/draw/../misc/lv_bidi.h ****  **********************/
 120:Middlewares/LVGL/GUI/lvgl/src/draw/../misc/lv_bidi.h **** 
 121:Middlewares/LVGL/GUI/lvgl/src/draw/../misc/lv_bidi.h **** #else /*LV_USE_BIDI*/
 122:Middlewares/LVGL/GUI/lvgl/src/draw/../misc/lv_bidi.h **** /**
 123:Middlewares/LVGL/GUI/lvgl/src/draw/../misc/lv_bidi.h ****  * For compatibility if LV_USE_BIDI = 0
 124:Middlewares/LVGL/GUI/lvgl/src/draw/../misc/lv_bidi.h ****  * Get the real text alignment from the a text alignment, base direction and a text.
 125:Middlewares/LVGL/GUI/lvgl/src/draw/../misc/lv_bidi.h ****  * @param align     For LV_TEXT_ALIGN_AUTO give LV_TEXT_ALIGN_LEFT else leave unchanged, write back
 126:Middlewares/LVGL/GUI/lvgl/src/draw/../misc/lv_bidi.h ****  * @param base_dir  Unused
 127:Middlewares/LVGL/GUI/lvgl/src/draw/../misc/lv_bidi.h ****  * @param txt       Unused
 128:Middlewares/LVGL/GUI/lvgl/src/draw/../misc/lv_bidi.h ****  */
 129:Middlewares/LVGL/GUI/lvgl/src/draw/../misc/lv_bidi.h **** static inline void lv_bidi_calculate_align(lv_text_align_t * align, lv_base_dir_t * base_dir, const
 380              		.loc 3 129 20 view .LVU107
 381              	.LBB51:
 130:Middlewares/LVGL/GUI/lvgl/src/draw/../misc/lv_bidi.h **** {
 131:Middlewares/LVGL/GUI/lvgl/src/draw/../misc/lv_bidi.h ****     LV_UNUSED(txt);
 382              		.loc 3 131 5 view .LVU108
 132:Middlewares/LVGL/GUI/lvgl/src/draw/../misc/lv_bidi.h ****     LV_UNUSED(base_dir);
 383              		.loc 3 132 5 view .LVU109
 133:Middlewares/LVGL/GUI/lvgl/src/draw/../misc/lv_bidi.h ****     if(*align == LV_TEXT_ALIGN_AUTO) * align = LV_TEXT_ALIGN_LEFT;
 384              		.loc 3 133 5 view .LVU110
 385              		.loc 3 133 7 is_stmt 0 view .LVU111
 386 0062 0BB9     		cbnz	r3, .L20
 387              		.loc 3 133 46 view .LVU112
 388 0064 0123     		movs	r3, #1
 389              	.LVL30:
 390              		.loc 3 133 46 view .LVU113
 391 0066 0C93     		str	r3, [sp, #48]
 392              	.LVL31:
 393              	.L20:
 394              		.loc 3 133 46 view .LVU114
 395              	.LBE51:
ARM GAS  C:\Users\ADMINI~1\AppData\Local\Temp\ccM5otpk.s 			page 31


 396              	.LBE50:
 109:Middlewares/LVGL/GUI/lvgl/src/draw/lv_draw_label.c ****         /*Normally use the label's width as width*/
 397              		.loc 1 109 5 is_stmt 1 view .LVU115
 109:Middlewares/LVGL/GUI/lvgl/src/draw/lv_draw_label.c ****         /*Normally use the label's width as width*/
 398              		.loc 1 109 12 is_stmt 0 view .LVU116
 399 0068 94F82730 		ldrb	r3, [r4, #39]	@ zero_extendqisi2
 109:Middlewares/LVGL/GUI/lvgl/src/draw/lv_draw_label.c ****         /*Normally use the label's width as width*/
 400              		.loc 1 109 7 view .LVU117
 401 006c 13F0020F 		tst	r3, #2
 402 0070 1CD1     		bne	.L21
 111:Middlewares/LVGL/GUI/lvgl/src/draw/lv_draw_label.c ****     }
 403              		.loc 1 111 9 is_stmt 1 view .LVU118
 404              	.LVL32:
 405              	.LBB52:
 406              	.LBI52:
 407              		.file 4 "Middlewares/LVGL/GUI/lvgl/src/draw/../misc/../font/../misc/lv_area.h"
   1:Middlewares/LVGL/GUI/lvgl/src/draw/../misc/../font/../misc/lv_area.h **** /**
   2:Middlewares/LVGL/GUI/lvgl/src/draw/../misc/../font/../misc/lv_area.h ****  * @file lv_area.h
   3:Middlewares/LVGL/GUI/lvgl/src/draw/../misc/../font/../misc/lv_area.h ****  *
   4:Middlewares/LVGL/GUI/lvgl/src/draw/../misc/../font/../misc/lv_area.h ****  */
   5:Middlewares/LVGL/GUI/lvgl/src/draw/../misc/../font/../misc/lv_area.h **** 
   6:Middlewares/LVGL/GUI/lvgl/src/draw/../misc/../font/../misc/lv_area.h **** #ifndef LV_AREA_H
   7:Middlewares/LVGL/GUI/lvgl/src/draw/../misc/../font/../misc/lv_area.h **** #define LV_AREA_H
   8:Middlewares/LVGL/GUI/lvgl/src/draw/../misc/../font/../misc/lv_area.h **** 
   9:Middlewares/LVGL/GUI/lvgl/src/draw/../misc/../font/../misc/lv_area.h **** #ifdef __cplusplus
  10:Middlewares/LVGL/GUI/lvgl/src/draw/../misc/../font/../misc/lv_area.h **** extern "C" {
  11:Middlewares/LVGL/GUI/lvgl/src/draw/../misc/../font/../misc/lv_area.h **** #endif
  12:Middlewares/LVGL/GUI/lvgl/src/draw/../misc/../font/../misc/lv_area.h **** 
  13:Middlewares/LVGL/GUI/lvgl/src/draw/../misc/../font/../misc/lv_area.h **** /*********************
  14:Middlewares/LVGL/GUI/lvgl/src/draw/../misc/../font/../misc/lv_area.h ****  *      INCLUDES
  15:Middlewares/LVGL/GUI/lvgl/src/draw/../misc/../font/../misc/lv_area.h ****  *********************/
  16:Middlewares/LVGL/GUI/lvgl/src/draw/../misc/../font/../misc/lv_area.h **** #include "../lv_conf_internal.h"
  17:Middlewares/LVGL/GUI/lvgl/src/draw/../misc/../font/../misc/lv_area.h **** #include <stdbool.h>
  18:Middlewares/LVGL/GUI/lvgl/src/draw/../misc/../font/../misc/lv_area.h **** #include <stdint.h>
  19:Middlewares/LVGL/GUI/lvgl/src/draw/../misc/../font/../misc/lv_area.h **** 
  20:Middlewares/LVGL/GUI/lvgl/src/draw/../misc/../font/../misc/lv_area.h **** /*********************
  21:Middlewares/LVGL/GUI/lvgl/src/draw/../misc/../font/../misc/lv_area.h ****  *      DEFINES
  22:Middlewares/LVGL/GUI/lvgl/src/draw/../misc/../font/../misc/lv_area.h ****  *********************/
  23:Middlewares/LVGL/GUI/lvgl/src/draw/../misc/../font/../misc/lv_area.h **** 
  24:Middlewares/LVGL/GUI/lvgl/src/draw/../misc/../font/../misc/lv_area.h **** #if LV_USE_LARGE_COORD
  25:Middlewares/LVGL/GUI/lvgl/src/draw/../misc/../font/../misc/lv_area.h **** typedef int32_t lv_coord_t;
  26:Middlewares/LVGL/GUI/lvgl/src/draw/../misc/../font/../misc/lv_area.h **** #else
  27:Middlewares/LVGL/GUI/lvgl/src/draw/../misc/../font/../misc/lv_area.h **** typedef int16_t lv_coord_t;
  28:Middlewares/LVGL/GUI/lvgl/src/draw/../misc/../font/../misc/lv_area.h **** #endif
  29:Middlewares/LVGL/GUI/lvgl/src/draw/../misc/../font/../misc/lv_area.h **** 
  30:Middlewares/LVGL/GUI/lvgl/src/draw/../misc/../font/../misc/lv_area.h **** /**********************
  31:Middlewares/LVGL/GUI/lvgl/src/draw/../misc/../font/../misc/lv_area.h ****  *      TYPEDEFS
  32:Middlewares/LVGL/GUI/lvgl/src/draw/../misc/../font/../misc/lv_area.h ****  **********************/
  33:Middlewares/LVGL/GUI/lvgl/src/draw/../misc/../font/../misc/lv_area.h **** 
  34:Middlewares/LVGL/GUI/lvgl/src/draw/../misc/../font/../misc/lv_area.h **** /**
  35:Middlewares/LVGL/GUI/lvgl/src/draw/../misc/../font/../misc/lv_area.h ****  * Represents a point on the screen.
  36:Middlewares/LVGL/GUI/lvgl/src/draw/../misc/../font/../misc/lv_area.h ****  */
  37:Middlewares/LVGL/GUI/lvgl/src/draw/../misc/../font/../misc/lv_area.h **** typedef struct {
  38:Middlewares/LVGL/GUI/lvgl/src/draw/../misc/../font/../misc/lv_area.h ****     lv_coord_t x;
  39:Middlewares/LVGL/GUI/lvgl/src/draw/../misc/../font/../misc/lv_area.h ****     lv_coord_t y;
  40:Middlewares/LVGL/GUI/lvgl/src/draw/../misc/../font/../misc/lv_area.h **** } lv_point_t;
  41:Middlewares/LVGL/GUI/lvgl/src/draw/../misc/../font/../misc/lv_area.h **** 
ARM GAS  C:\Users\ADMINI~1\AppData\Local\Temp\ccM5otpk.s 			page 32


  42:Middlewares/LVGL/GUI/lvgl/src/draw/../misc/../font/../misc/lv_area.h **** /** Represents an area of the screen.*/
  43:Middlewares/LVGL/GUI/lvgl/src/draw/../misc/../font/../misc/lv_area.h **** typedef struct {
  44:Middlewares/LVGL/GUI/lvgl/src/draw/../misc/../font/../misc/lv_area.h ****     lv_coord_t x1;
  45:Middlewares/LVGL/GUI/lvgl/src/draw/../misc/../font/../misc/lv_area.h ****     lv_coord_t y1;
  46:Middlewares/LVGL/GUI/lvgl/src/draw/../misc/../font/../misc/lv_area.h ****     lv_coord_t x2;
  47:Middlewares/LVGL/GUI/lvgl/src/draw/../misc/../font/../misc/lv_area.h ****     lv_coord_t y2;
  48:Middlewares/LVGL/GUI/lvgl/src/draw/../misc/../font/../misc/lv_area.h **** } lv_area_t;
  49:Middlewares/LVGL/GUI/lvgl/src/draw/../misc/../font/../misc/lv_area.h **** 
  50:Middlewares/LVGL/GUI/lvgl/src/draw/../misc/../font/../misc/lv_area.h **** /** Alignments*/
  51:Middlewares/LVGL/GUI/lvgl/src/draw/../misc/../font/../misc/lv_area.h **** enum {
  52:Middlewares/LVGL/GUI/lvgl/src/draw/../misc/../font/../misc/lv_area.h ****     LV_ALIGN_DEFAULT = 0,
  53:Middlewares/LVGL/GUI/lvgl/src/draw/../misc/../font/../misc/lv_area.h ****     LV_ALIGN_TOP_LEFT,
  54:Middlewares/LVGL/GUI/lvgl/src/draw/../misc/../font/../misc/lv_area.h ****     LV_ALIGN_TOP_MID,
  55:Middlewares/LVGL/GUI/lvgl/src/draw/../misc/../font/../misc/lv_area.h ****     LV_ALIGN_TOP_RIGHT,
  56:Middlewares/LVGL/GUI/lvgl/src/draw/../misc/../font/../misc/lv_area.h ****     LV_ALIGN_BOTTOM_LEFT,
  57:Middlewares/LVGL/GUI/lvgl/src/draw/../misc/../font/../misc/lv_area.h ****     LV_ALIGN_BOTTOM_MID,
  58:Middlewares/LVGL/GUI/lvgl/src/draw/../misc/../font/../misc/lv_area.h ****     LV_ALIGN_BOTTOM_RIGHT,
  59:Middlewares/LVGL/GUI/lvgl/src/draw/../misc/../font/../misc/lv_area.h ****     LV_ALIGN_LEFT_MID,
  60:Middlewares/LVGL/GUI/lvgl/src/draw/../misc/../font/../misc/lv_area.h ****     LV_ALIGN_RIGHT_MID,
  61:Middlewares/LVGL/GUI/lvgl/src/draw/../misc/../font/../misc/lv_area.h ****     LV_ALIGN_CENTER,
  62:Middlewares/LVGL/GUI/lvgl/src/draw/../misc/../font/../misc/lv_area.h **** 
  63:Middlewares/LVGL/GUI/lvgl/src/draw/../misc/../font/../misc/lv_area.h ****     LV_ALIGN_OUT_TOP_LEFT,
  64:Middlewares/LVGL/GUI/lvgl/src/draw/../misc/../font/../misc/lv_area.h ****     LV_ALIGN_OUT_TOP_MID,
  65:Middlewares/LVGL/GUI/lvgl/src/draw/../misc/../font/../misc/lv_area.h ****     LV_ALIGN_OUT_TOP_RIGHT,
  66:Middlewares/LVGL/GUI/lvgl/src/draw/../misc/../font/../misc/lv_area.h ****     LV_ALIGN_OUT_BOTTOM_LEFT,
  67:Middlewares/LVGL/GUI/lvgl/src/draw/../misc/../font/../misc/lv_area.h ****     LV_ALIGN_OUT_BOTTOM_MID,
  68:Middlewares/LVGL/GUI/lvgl/src/draw/../misc/../font/../misc/lv_area.h ****     LV_ALIGN_OUT_BOTTOM_RIGHT,
  69:Middlewares/LVGL/GUI/lvgl/src/draw/../misc/../font/../misc/lv_area.h ****     LV_ALIGN_OUT_LEFT_TOP,
  70:Middlewares/LVGL/GUI/lvgl/src/draw/../misc/../font/../misc/lv_area.h ****     LV_ALIGN_OUT_LEFT_MID,
  71:Middlewares/LVGL/GUI/lvgl/src/draw/../misc/../font/../misc/lv_area.h ****     LV_ALIGN_OUT_LEFT_BOTTOM,
  72:Middlewares/LVGL/GUI/lvgl/src/draw/../misc/../font/../misc/lv_area.h ****     LV_ALIGN_OUT_RIGHT_TOP,
  73:Middlewares/LVGL/GUI/lvgl/src/draw/../misc/../font/../misc/lv_area.h ****     LV_ALIGN_OUT_RIGHT_MID,
  74:Middlewares/LVGL/GUI/lvgl/src/draw/../misc/../font/../misc/lv_area.h ****     LV_ALIGN_OUT_RIGHT_BOTTOM,
  75:Middlewares/LVGL/GUI/lvgl/src/draw/../misc/../font/../misc/lv_area.h **** };
  76:Middlewares/LVGL/GUI/lvgl/src/draw/../misc/../font/../misc/lv_area.h **** typedef uint8_t lv_align_t;
  77:Middlewares/LVGL/GUI/lvgl/src/draw/../misc/../font/../misc/lv_area.h **** 
  78:Middlewares/LVGL/GUI/lvgl/src/draw/../misc/../font/../misc/lv_area.h **** enum {
  79:Middlewares/LVGL/GUI/lvgl/src/draw/../misc/../font/../misc/lv_area.h ****     LV_DIR_NONE     = 0x00,
  80:Middlewares/LVGL/GUI/lvgl/src/draw/../misc/../font/../misc/lv_area.h ****     LV_DIR_LEFT     = (1 << 0),
  81:Middlewares/LVGL/GUI/lvgl/src/draw/../misc/../font/../misc/lv_area.h ****     LV_DIR_RIGHT    = (1 << 1),
  82:Middlewares/LVGL/GUI/lvgl/src/draw/../misc/../font/../misc/lv_area.h ****     LV_DIR_TOP      = (1 << 2),
  83:Middlewares/LVGL/GUI/lvgl/src/draw/../misc/../font/../misc/lv_area.h ****     LV_DIR_BOTTOM   = (1 << 3),
  84:Middlewares/LVGL/GUI/lvgl/src/draw/../misc/../font/../misc/lv_area.h ****     LV_DIR_HOR      = LV_DIR_LEFT | LV_DIR_RIGHT,
  85:Middlewares/LVGL/GUI/lvgl/src/draw/../misc/../font/../misc/lv_area.h ****     LV_DIR_VER      = LV_DIR_TOP | LV_DIR_BOTTOM,
  86:Middlewares/LVGL/GUI/lvgl/src/draw/../misc/../font/../misc/lv_area.h ****     LV_DIR_ALL      = LV_DIR_HOR | LV_DIR_VER,
  87:Middlewares/LVGL/GUI/lvgl/src/draw/../misc/../font/../misc/lv_area.h **** };
  88:Middlewares/LVGL/GUI/lvgl/src/draw/../misc/../font/../misc/lv_area.h **** 
  89:Middlewares/LVGL/GUI/lvgl/src/draw/../misc/../font/../misc/lv_area.h **** typedef uint8_t lv_dir_t;
  90:Middlewares/LVGL/GUI/lvgl/src/draw/../misc/../font/../misc/lv_area.h **** 
  91:Middlewares/LVGL/GUI/lvgl/src/draw/../misc/../font/../misc/lv_area.h **** /**********************
  92:Middlewares/LVGL/GUI/lvgl/src/draw/../misc/../font/../misc/lv_area.h ****  * GLOBAL PROTOTYPES
  93:Middlewares/LVGL/GUI/lvgl/src/draw/../misc/../font/../misc/lv_area.h ****  **********************/
  94:Middlewares/LVGL/GUI/lvgl/src/draw/../misc/../font/../misc/lv_area.h **** 
  95:Middlewares/LVGL/GUI/lvgl/src/draw/../misc/../font/../misc/lv_area.h **** /**
  96:Middlewares/LVGL/GUI/lvgl/src/draw/../misc/../font/../misc/lv_area.h ****  * Initialize an area
  97:Middlewares/LVGL/GUI/lvgl/src/draw/../misc/../font/../misc/lv_area.h ****  * @param area_p pointer to an area
  98:Middlewares/LVGL/GUI/lvgl/src/draw/../misc/../font/../misc/lv_area.h ****  * @param x1 left coordinate of the area
ARM GAS  C:\Users\ADMINI~1\AppData\Local\Temp\ccM5otpk.s 			page 33


  99:Middlewares/LVGL/GUI/lvgl/src/draw/../misc/../font/../misc/lv_area.h ****  * @param y1 top coordinate of the area
 100:Middlewares/LVGL/GUI/lvgl/src/draw/../misc/../font/../misc/lv_area.h ****  * @param x2 right coordinate of the area
 101:Middlewares/LVGL/GUI/lvgl/src/draw/../misc/../font/../misc/lv_area.h ****  * @param y2 bottom coordinate of the area
 102:Middlewares/LVGL/GUI/lvgl/src/draw/../misc/../font/../misc/lv_area.h ****  */
 103:Middlewares/LVGL/GUI/lvgl/src/draw/../misc/../font/../misc/lv_area.h **** void lv_area_set(lv_area_t * area_p, lv_coord_t x1, lv_coord_t y1, lv_coord_t x2, lv_coord_t y2);
 104:Middlewares/LVGL/GUI/lvgl/src/draw/../misc/../font/../misc/lv_area.h **** 
 105:Middlewares/LVGL/GUI/lvgl/src/draw/../misc/../font/../misc/lv_area.h **** /**
 106:Middlewares/LVGL/GUI/lvgl/src/draw/../misc/../font/../misc/lv_area.h ****  * Copy an area
 107:Middlewares/LVGL/GUI/lvgl/src/draw/../misc/../font/../misc/lv_area.h ****  * @param dest pointer to the destination area
 108:Middlewares/LVGL/GUI/lvgl/src/draw/../misc/../font/../misc/lv_area.h ****  * @param src pointer to the source area
 109:Middlewares/LVGL/GUI/lvgl/src/draw/../misc/../font/../misc/lv_area.h ****  */
 110:Middlewares/LVGL/GUI/lvgl/src/draw/../misc/../font/../misc/lv_area.h **** inline static void lv_area_copy(lv_area_t * dest, const lv_area_t * src)
 111:Middlewares/LVGL/GUI/lvgl/src/draw/../misc/../font/../misc/lv_area.h **** {
 112:Middlewares/LVGL/GUI/lvgl/src/draw/../misc/../font/../misc/lv_area.h ****     dest->x1 = src->x1;
 113:Middlewares/LVGL/GUI/lvgl/src/draw/../misc/../font/../misc/lv_area.h ****     dest->y1 = src->y1;
 114:Middlewares/LVGL/GUI/lvgl/src/draw/../misc/../font/../misc/lv_area.h ****     dest->x2 = src->x2;
 115:Middlewares/LVGL/GUI/lvgl/src/draw/../misc/../font/../misc/lv_area.h ****     dest->y2 = src->y2;
 116:Middlewares/LVGL/GUI/lvgl/src/draw/../misc/../font/../misc/lv_area.h **** }
 117:Middlewares/LVGL/GUI/lvgl/src/draw/../misc/../font/../misc/lv_area.h **** 
 118:Middlewares/LVGL/GUI/lvgl/src/draw/../misc/../font/../misc/lv_area.h **** /**
 119:Middlewares/LVGL/GUI/lvgl/src/draw/../misc/../font/../misc/lv_area.h ****  * Get the width of an area
 120:Middlewares/LVGL/GUI/lvgl/src/draw/../misc/../font/../misc/lv_area.h ****  * @param area_p pointer to an area
 121:Middlewares/LVGL/GUI/lvgl/src/draw/../misc/../font/../misc/lv_area.h ****  * @return the width of the area (if x1 == x2 -> width = 1)
 122:Middlewares/LVGL/GUI/lvgl/src/draw/../misc/../font/../misc/lv_area.h ****  */
 123:Middlewares/LVGL/GUI/lvgl/src/draw/../misc/../font/../misc/lv_area.h **** static inline lv_coord_t lv_area_get_width(const lv_area_t * area_p)
 408              		.loc 4 123 26 view .LVU119
 409              	.LBB53:
 124:Middlewares/LVGL/GUI/lvgl/src/draw/../misc/../font/../misc/lv_area.h **** {
 125:Middlewares/LVGL/GUI/lvgl/src/draw/../misc/../font/../misc/lv_area.h ****     return (lv_coord_t)(area_p->x2 - area_p->x1 + 1);
 410              		.loc 4 125 5 view .LVU120
 411              		.loc 4 125 31 is_stmt 0 view .LVU121
 412 0072 099A     		ldr	r2, [sp, #36]
 413 0074 9368     		ldr	r3, [r2, #8]
 414              		.loc 4 125 44 view .LVU122
 415 0076 1268     		ldr	r2, [r2]
 416              		.loc 4 125 36 view .LVU123
 417 0078 9B1A     		subs	r3, r3, r2
 418              		.loc 4 125 12 view .LVU124
 419 007a 0133     		adds	r3, r3, #1
 420 007c 0A93     		str	r3, [sp, #40]
 421              	.LVL33:
 422              	.L22:
 423              		.loc 4 125 12 view .LVU125
 424              	.LBE53:
 425              	.LBE52:
 121:Middlewares/LVGL/GUI/lvgl/src/draw/lv_draw_label.c ****     int32_t line_height = line_height_font + dsc->line_space;
 426              		.loc 1 121 5 is_stmt 1 view .LVU126
 427              	.LBB54:
 428              	.LBI54:
 429              		.file 5 "Middlewares/LVGL/GUI/lvgl/src/draw/../misc/../font/lv_font.h"
   1:Middlewares/LVGL/GUI/lvgl/src/draw/../misc/../font/lv_font.h **** /**
   2:Middlewares/LVGL/GUI/lvgl/src/draw/../misc/../font/lv_font.h ****  * @file lv_font.h
   3:Middlewares/LVGL/GUI/lvgl/src/draw/../misc/../font/lv_font.h ****  *
   4:Middlewares/LVGL/GUI/lvgl/src/draw/../misc/../font/lv_font.h ****  */
   5:Middlewares/LVGL/GUI/lvgl/src/draw/../misc/../font/lv_font.h **** 
   6:Middlewares/LVGL/GUI/lvgl/src/draw/../misc/../font/lv_font.h **** #ifndef LV_FONT_H
   7:Middlewares/LVGL/GUI/lvgl/src/draw/../misc/../font/lv_font.h **** #define LV_FONT_H
ARM GAS  C:\Users\ADMINI~1\AppData\Local\Temp\ccM5otpk.s 			page 34


   8:Middlewares/LVGL/GUI/lvgl/src/draw/../misc/../font/lv_font.h **** 
   9:Middlewares/LVGL/GUI/lvgl/src/draw/../misc/../font/lv_font.h **** #ifdef __cplusplus
  10:Middlewares/LVGL/GUI/lvgl/src/draw/../misc/../font/lv_font.h **** extern "C" {
  11:Middlewares/LVGL/GUI/lvgl/src/draw/../misc/../font/lv_font.h **** #endif
  12:Middlewares/LVGL/GUI/lvgl/src/draw/../misc/../font/lv_font.h **** 
  13:Middlewares/LVGL/GUI/lvgl/src/draw/../misc/../font/lv_font.h **** /*********************
  14:Middlewares/LVGL/GUI/lvgl/src/draw/../misc/../font/lv_font.h ****  *      INCLUDES
  15:Middlewares/LVGL/GUI/lvgl/src/draw/../misc/../font/lv_font.h ****  *********************/
  16:Middlewares/LVGL/GUI/lvgl/src/draw/../misc/../font/lv_font.h **** #include "../lv_conf_internal.h"
  17:Middlewares/LVGL/GUI/lvgl/src/draw/../misc/../font/lv_font.h **** #include <stdint.h>
  18:Middlewares/LVGL/GUI/lvgl/src/draw/../misc/../font/lv_font.h **** #include <stddef.h>
  19:Middlewares/LVGL/GUI/lvgl/src/draw/../misc/../font/lv_font.h **** #include <stdbool.h>
  20:Middlewares/LVGL/GUI/lvgl/src/draw/../misc/../font/lv_font.h **** 
  21:Middlewares/LVGL/GUI/lvgl/src/draw/../misc/../font/lv_font.h **** #include "lv_symbol_def.h"
  22:Middlewares/LVGL/GUI/lvgl/src/draw/../misc/../font/lv_font.h **** #include "../misc/lv_area.h"
  23:Middlewares/LVGL/GUI/lvgl/src/draw/../misc/../font/lv_font.h **** 
  24:Middlewares/LVGL/GUI/lvgl/src/draw/../misc/../font/lv_font.h **** /*********************
  25:Middlewares/LVGL/GUI/lvgl/src/draw/../misc/../font/lv_font.h ****  *      DEFINES
  26:Middlewares/LVGL/GUI/lvgl/src/draw/../misc/../font/lv_font.h ****  *********************/
  27:Middlewares/LVGL/GUI/lvgl/src/draw/../misc/../font/lv_font.h **** 
  28:Middlewares/LVGL/GUI/lvgl/src/draw/../misc/../font/lv_font.h **** /**********************
  29:Middlewares/LVGL/GUI/lvgl/src/draw/../misc/../font/lv_font.h ****  *      TYPEDEFS
  30:Middlewares/LVGL/GUI/lvgl/src/draw/../misc/../font/lv_font.h ****  **********************/
  31:Middlewares/LVGL/GUI/lvgl/src/draw/../misc/../font/lv_font.h **** 
  32:Middlewares/LVGL/GUI/lvgl/src/draw/../misc/../font/lv_font.h **** /*------------------
  33:Middlewares/LVGL/GUI/lvgl/src/draw/../misc/../font/lv_font.h ****  * General types
  34:Middlewares/LVGL/GUI/lvgl/src/draw/../misc/../font/lv_font.h ****  *-----------------*/
  35:Middlewares/LVGL/GUI/lvgl/src/draw/../misc/../font/lv_font.h **** 
  36:Middlewares/LVGL/GUI/lvgl/src/draw/../misc/../font/lv_font.h **** struct _lv_font_t;
  37:Middlewares/LVGL/GUI/lvgl/src/draw/../misc/../font/lv_font.h **** /** Describes the properties of a glyph.*/
  38:Middlewares/LVGL/GUI/lvgl/src/draw/../misc/../font/lv_font.h **** typedef struct {
  39:Middlewares/LVGL/GUI/lvgl/src/draw/../misc/../font/lv_font.h ****     const struct _lv_font_t *
  40:Middlewares/LVGL/GUI/lvgl/src/draw/../misc/../font/lv_font.h ****         resolved_font; /**< Pointer to a font where the gylph was actually found after handling fal
  41:Middlewares/LVGL/GUI/lvgl/src/draw/../misc/../font/lv_font.h ****     uint16_t adv_w; /**< The glyph needs this space. Draw the next glyph after this width.*/
  42:Middlewares/LVGL/GUI/lvgl/src/draw/../misc/../font/lv_font.h ****     uint16_t box_w; /**< Width of the glyph's bounding box*/
  43:Middlewares/LVGL/GUI/lvgl/src/draw/../misc/../font/lv_font.h ****     uint16_t box_h; /**< Height of the glyph's bounding box*/
  44:Middlewares/LVGL/GUI/lvgl/src/draw/../misc/../font/lv_font.h ****     int16_t ofs_x;  /**< x offset of the bounding box*/
  45:Middlewares/LVGL/GUI/lvgl/src/draw/../misc/../font/lv_font.h ****     int16_t ofs_y;  /**< y offset of the bounding box*/
  46:Middlewares/LVGL/GUI/lvgl/src/draw/../misc/../font/lv_font.h ****     uint8_t bpp: 4;  /**< Bit-per-pixel: 1, 2, 4, 8*/
  47:Middlewares/LVGL/GUI/lvgl/src/draw/../misc/../font/lv_font.h ****     uint8_t is_placeholder: 1; /** Glyph is missing. But placeholder will still be displayed */
  48:Middlewares/LVGL/GUI/lvgl/src/draw/../misc/../font/lv_font.h **** } lv_font_glyph_dsc_t;
  49:Middlewares/LVGL/GUI/lvgl/src/draw/../misc/../font/lv_font.h **** 
  50:Middlewares/LVGL/GUI/lvgl/src/draw/../misc/../font/lv_font.h **** /** The bitmaps might be upscaled by 3 to achieve subpixel rendering.*/
  51:Middlewares/LVGL/GUI/lvgl/src/draw/../misc/../font/lv_font.h **** enum {
  52:Middlewares/LVGL/GUI/lvgl/src/draw/../misc/../font/lv_font.h ****     LV_FONT_SUBPX_NONE,
  53:Middlewares/LVGL/GUI/lvgl/src/draw/../misc/../font/lv_font.h ****     LV_FONT_SUBPX_HOR,
  54:Middlewares/LVGL/GUI/lvgl/src/draw/../misc/../font/lv_font.h ****     LV_FONT_SUBPX_VER,
  55:Middlewares/LVGL/GUI/lvgl/src/draw/../misc/../font/lv_font.h ****     LV_FONT_SUBPX_BOTH,
  56:Middlewares/LVGL/GUI/lvgl/src/draw/../misc/../font/lv_font.h **** };
  57:Middlewares/LVGL/GUI/lvgl/src/draw/../misc/../font/lv_font.h **** 
  58:Middlewares/LVGL/GUI/lvgl/src/draw/../misc/../font/lv_font.h **** typedef uint8_t lv_font_subpx_t;
  59:Middlewares/LVGL/GUI/lvgl/src/draw/../misc/../font/lv_font.h **** 
  60:Middlewares/LVGL/GUI/lvgl/src/draw/../misc/../font/lv_font.h **** /** Describe the properties of a font*/
  61:Middlewares/LVGL/GUI/lvgl/src/draw/../misc/../font/lv_font.h **** typedef struct _lv_font_t {
  62:Middlewares/LVGL/GUI/lvgl/src/draw/../misc/../font/lv_font.h ****     /** Get a glyph's descriptor from a font*/
  63:Middlewares/LVGL/GUI/lvgl/src/draw/../misc/../font/lv_font.h ****     bool (*get_glyph_dsc)(const struct _lv_font_t *, lv_font_glyph_dsc_t *, uint32_t letter, uint32
  64:Middlewares/LVGL/GUI/lvgl/src/draw/../misc/../font/lv_font.h **** 
ARM GAS  C:\Users\ADMINI~1\AppData\Local\Temp\ccM5otpk.s 			page 35


  65:Middlewares/LVGL/GUI/lvgl/src/draw/../misc/../font/lv_font.h ****     /** Get a glyph's bitmap from a font*/
  66:Middlewares/LVGL/GUI/lvgl/src/draw/../misc/../font/lv_font.h ****     const uint8_t * (*get_glyph_bitmap)(const struct _lv_font_t *, uint32_t);
  67:Middlewares/LVGL/GUI/lvgl/src/draw/../misc/../font/lv_font.h **** 
  68:Middlewares/LVGL/GUI/lvgl/src/draw/../misc/../font/lv_font.h ****     /*Pointer to the font in a font pack (must have the same line height)*/
  69:Middlewares/LVGL/GUI/lvgl/src/draw/../misc/../font/lv_font.h ****     lv_coord_t line_height;         /**< The real line height where any text fits*/
  70:Middlewares/LVGL/GUI/lvgl/src/draw/../misc/../font/lv_font.h ****     lv_coord_t base_line;           /**< Base line measured from the top of the line_height*/
  71:Middlewares/LVGL/GUI/lvgl/src/draw/../misc/../font/lv_font.h ****     uint8_t subpx  : 2;             /**< An element of `lv_font_subpx_t`*/
  72:Middlewares/LVGL/GUI/lvgl/src/draw/../misc/../font/lv_font.h **** 
  73:Middlewares/LVGL/GUI/lvgl/src/draw/../misc/../font/lv_font.h ****     int8_t underline_position;      /**< Distance between the top of the underline and base line (<
  74:Middlewares/LVGL/GUI/lvgl/src/draw/../misc/../font/lv_font.h ****     int8_t underline_thickness;     /**< Thickness of the underline*/
  75:Middlewares/LVGL/GUI/lvgl/src/draw/../misc/../font/lv_font.h **** 
  76:Middlewares/LVGL/GUI/lvgl/src/draw/../misc/../font/lv_font.h ****     const void * dsc;               /**< Store implementation specific or run_time data or caching 
  77:Middlewares/LVGL/GUI/lvgl/src/draw/../misc/../font/lv_font.h ****     const struct _lv_font_t * fallback;   /**< Fallback font for missing glyph. Resolved recursivel
  78:Middlewares/LVGL/GUI/lvgl/src/draw/../misc/../font/lv_font.h **** #if LV_USE_USER_DATA
  79:Middlewares/LVGL/GUI/lvgl/src/draw/../misc/../font/lv_font.h ****     void * user_data;               /**< Custom user data for font.*/
  80:Middlewares/LVGL/GUI/lvgl/src/draw/../misc/../font/lv_font.h **** #endif
  81:Middlewares/LVGL/GUI/lvgl/src/draw/../misc/../font/lv_font.h **** } lv_font_t;
  82:Middlewares/LVGL/GUI/lvgl/src/draw/../misc/../font/lv_font.h **** 
  83:Middlewares/LVGL/GUI/lvgl/src/draw/../misc/../font/lv_font.h **** /**********************
  84:Middlewares/LVGL/GUI/lvgl/src/draw/../misc/../font/lv_font.h ****  * GLOBAL PROTOTYPES
  85:Middlewares/LVGL/GUI/lvgl/src/draw/../misc/../font/lv_font.h ****  **********************/
  86:Middlewares/LVGL/GUI/lvgl/src/draw/../misc/../font/lv_font.h **** 
  87:Middlewares/LVGL/GUI/lvgl/src/draw/../misc/../font/lv_font.h **** /**
  88:Middlewares/LVGL/GUI/lvgl/src/draw/../misc/../font/lv_font.h ****  * Return with the bitmap of a font.
  89:Middlewares/LVGL/GUI/lvgl/src/draw/../misc/../font/lv_font.h ****  * @param font_p pointer to a font
  90:Middlewares/LVGL/GUI/lvgl/src/draw/../misc/../font/lv_font.h ****  * @param letter an UNICODE character code
  91:Middlewares/LVGL/GUI/lvgl/src/draw/../misc/../font/lv_font.h ****  * @return pointer to the bitmap of the letter
  92:Middlewares/LVGL/GUI/lvgl/src/draw/../misc/../font/lv_font.h ****  */
  93:Middlewares/LVGL/GUI/lvgl/src/draw/../misc/../font/lv_font.h **** const uint8_t * lv_font_get_glyph_bitmap(const lv_font_t * font_p, uint32_t letter);
  94:Middlewares/LVGL/GUI/lvgl/src/draw/../misc/../font/lv_font.h **** 
  95:Middlewares/LVGL/GUI/lvgl/src/draw/../misc/../font/lv_font.h **** /**
  96:Middlewares/LVGL/GUI/lvgl/src/draw/../misc/../font/lv_font.h ****  * Get the descriptor of a glyph
  97:Middlewares/LVGL/GUI/lvgl/src/draw/../misc/../font/lv_font.h ****  * @param font_p pointer to font
  98:Middlewares/LVGL/GUI/lvgl/src/draw/../misc/../font/lv_font.h ****  * @param dsc_out store the result descriptor here
  99:Middlewares/LVGL/GUI/lvgl/src/draw/../misc/../font/lv_font.h ****  * @param letter an UNICODE letter code
 100:Middlewares/LVGL/GUI/lvgl/src/draw/../misc/../font/lv_font.h ****  * @param letter_next the next letter after `letter`. Used for kerning
 101:Middlewares/LVGL/GUI/lvgl/src/draw/../misc/../font/lv_font.h ****  * @return true: descriptor is successfully loaded into `dsc_out`.
 102:Middlewares/LVGL/GUI/lvgl/src/draw/../misc/../font/lv_font.h ****  *         false: the letter was not found, no data is loaded to `dsc_out`
 103:Middlewares/LVGL/GUI/lvgl/src/draw/../misc/../font/lv_font.h ****  */
 104:Middlewares/LVGL/GUI/lvgl/src/draw/../misc/../font/lv_font.h **** bool lv_font_get_glyph_dsc(const lv_font_t * font_p, lv_font_glyph_dsc_t * dsc_out, uint32_t letter
 105:Middlewares/LVGL/GUI/lvgl/src/draw/../misc/../font/lv_font.h ****                            uint32_t letter_next);
 106:Middlewares/LVGL/GUI/lvgl/src/draw/../misc/../font/lv_font.h **** 
 107:Middlewares/LVGL/GUI/lvgl/src/draw/../misc/../font/lv_font.h **** /**
 108:Middlewares/LVGL/GUI/lvgl/src/draw/../misc/../font/lv_font.h ****  * Get the width of a glyph with kerning
 109:Middlewares/LVGL/GUI/lvgl/src/draw/../misc/../font/lv_font.h ****  * @param font pointer to a font
 110:Middlewares/LVGL/GUI/lvgl/src/draw/../misc/../font/lv_font.h ****  * @param letter an UNICODE letter
 111:Middlewares/LVGL/GUI/lvgl/src/draw/../misc/../font/lv_font.h ****  * @param letter_next the next letter after `letter`. Used for kerning
 112:Middlewares/LVGL/GUI/lvgl/src/draw/../misc/../font/lv_font.h ****  * @return the width of the glyph
 113:Middlewares/LVGL/GUI/lvgl/src/draw/../misc/../font/lv_font.h ****  */
 114:Middlewares/LVGL/GUI/lvgl/src/draw/../misc/../font/lv_font.h **** uint16_t lv_font_get_glyph_width(const lv_font_t * font, uint32_t letter, uint32_t letter_next);
 115:Middlewares/LVGL/GUI/lvgl/src/draw/../misc/../font/lv_font.h **** 
 116:Middlewares/LVGL/GUI/lvgl/src/draw/../misc/../font/lv_font.h **** /**
 117:Middlewares/LVGL/GUI/lvgl/src/draw/../misc/../font/lv_font.h ****  * Get the line height of a font. All characters fit into this height
 118:Middlewares/LVGL/GUI/lvgl/src/draw/../misc/../font/lv_font.h ****  * @param font_p pointer to a font
 119:Middlewares/LVGL/GUI/lvgl/src/draw/../misc/../font/lv_font.h ****  * @return the height of a font
 120:Middlewares/LVGL/GUI/lvgl/src/draw/../misc/../font/lv_font.h ****  */
 121:Middlewares/LVGL/GUI/lvgl/src/draw/../misc/../font/lv_font.h **** static inline lv_coord_t lv_font_get_line_height(const lv_font_t * font_p)
ARM GAS  C:\Users\ADMINI~1\AppData\Local\Temp\ccM5otpk.s 			page 36


 430              		.loc 5 121 26 view .LVU127
 431              	.LBB55:
 122:Middlewares/LVGL/GUI/lvgl/src/draw/../misc/../font/lv_font.h **** {
 123:Middlewares/LVGL/GUI/lvgl/src/draw/../misc/../font/lv_font.h ****     return font_p->line_height;
 432              		.loc 5 123 5 view .LVU128
 433              		.loc 5 123 18 is_stmt 0 view .LVU129
 434 007e 049B     		ldr	r3, [sp, #16]
 435 0080 9E68     		ldr	r6, [r3, #8]
 436              	.LVL34:
 437              		.loc 5 123 18 view .LVU130
 438              	.LBE55:
 439              	.LBE54:
 122:Middlewares/LVGL/GUI/lvgl/src/draw/lv_draw_label.c **** 
 440              		.loc 1 122 5 is_stmt 1 view .LVU131
 122:Middlewares/LVGL/GUI/lvgl/src/draw/lv_draw_label.c **** 
 441              		.loc 1 122 49 is_stmt 0 view .LVU132
 442 0082 6369     		ldr	r3, [r4, #20]
 122:Middlewares/LVGL/GUI/lvgl/src/draw/lv_draw_label.c **** 
 443              		.loc 1 122 13 view .LVU133
 444 0084 9819     		adds	r0, r3, r6
 445 0086 0D90     		str	r0, [sp, #52]
 446              	.LVL35:
 125:Middlewares/LVGL/GUI/lvgl/src/draw/lv_draw_label.c ****     lv_point_t pos;
 447              		.loc 1 125 5 is_stmt 1 view .LVU134
 126:Middlewares/LVGL/GUI/lvgl/src/draw/lv_draw_label.c ****     pos.x = coords->x1;
 448              		.loc 1 126 5 view .LVU135
 127:Middlewares/LVGL/GUI/lvgl/src/draw/lv_draw_label.c ****     pos.y = coords->y1;
 449              		.loc 1 127 5 view .LVU136
 127:Middlewares/LVGL/GUI/lvgl/src/draw/lv_draw_label.c ****     pos.y = coords->y1;
 450              		.loc 1 127 19 is_stmt 0 view .LVU137
 451 0088 0999     		ldr	r1, [sp, #36]
 452 008a 0B68     		ldr	r3, [r1]
 127:Middlewares/LVGL/GUI/lvgl/src/draw/lv_draw_label.c ****     pos.y = coords->y1;
 453              		.loc 1 127 11 view .LVU138
 454 008c 3193     		str	r3, [sp, #196]
 128:Middlewares/LVGL/GUI/lvgl/src/draw/lv_draw_label.c **** 
 455              		.loc 1 128 5 is_stmt 1 view .LVU139
 128:Middlewares/LVGL/GUI/lvgl/src/draw/lv_draw_label.c **** 
 456              		.loc 1 128 19 is_stmt 0 view .LVU140
 457 008e 4B68     		ldr	r3, [r1, #4]
 128:Middlewares/LVGL/GUI/lvgl/src/draw/lv_draw_label.c **** 
 458              		.loc 1 128 11 view .LVU141
 459 0090 3293     		str	r3, [sp, #200]
 130:Middlewares/LVGL/GUI/lvgl/src/draw/lv_draw_label.c ****     int32_t y_ofs = 0;
 460              		.loc 1 130 5 is_stmt 1 view .LVU142
 461              	.LVL36:
 131:Middlewares/LVGL/GUI/lvgl/src/draw/lv_draw_label.c ****     x_ofs = dsc->ofs_x;
 462              		.loc 1 131 5 view .LVU143
 132:Middlewares/LVGL/GUI/lvgl/src/draw/lv_draw_label.c ****     y_ofs = dsc->ofs_y;
 463              		.loc 1 132 5 view .LVU144
 132:Middlewares/LVGL/GUI/lvgl/src/draw/lv_draw_label.c ****     y_ofs = dsc->ofs_y;
 464              		.loc 1 132 11 is_stmt 0 view .LVU145
 465 0092 E269     		ldr	r2, [r4, #28]
 466 0094 0E92     		str	r2, [sp, #56]
 467              	.LVL37:
 133:Middlewares/LVGL/GUI/lvgl/src/draw/lv_draw_label.c ****     pos.y += y_ofs;
 468              		.loc 1 133 5 is_stmt 1 view .LVU146
ARM GAS  C:\Users\ADMINI~1\AppData\Local\Temp\ccM5otpk.s 			page 37


 133:Middlewares/LVGL/GUI/lvgl/src/draw/lv_draw_label.c ****     pos.y += y_ofs;
 469              		.loc 1 133 11 is_stmt 0 view .LVU147
 470 0096 226A     		ldr	r2, [r4, #32]
 471              	.LVL38:
 134:Middlewares/LVGL/GUI/lvgl/src/draw/lv_draw_label.c **** 
 472              		.loc 1 134 5 is_stmt 1 view .LVU148
 134:Middlewares/LVGL/GUI/lvgl/src/draw/lv_draw_label.c **** 
 473              		.loc 1 134 11 is_stmt 0 view .LVU149
 474 0098 1344     		add	r3, r3, r2
 475 009a 3293     		str	r3, [sp, #200]
 136:Middlewares/LVGL/GUI/lvgl/src/draw/lv_draw_label.c ****     int32_t last_line_start = -1;
 476              		.loc 1 136 5 is_stmt 1 view .LVU150
 477              	.LVL39:
 137:Middlewares/LVGL/GUI/lvgl/src/draw/lv_draw_label.c **** 
 478              		.loc 1 137 5 view .LVU151
 140:Middlewares/LVGL/GUI/lvgl/src/draw/lv_draw_label.c ****         /*If the label changed too much recalculate the hint.*/
 479              		.loc 1 140 5 view .LVU152
 140:Middlewares/LVGL/GUI/lvgl/src/draw/lv_draw_label.c ****         /*If the label changed too much recalculate the hint.*/
 480              		.loc 1 140 7 is_stmt 0 view .LVU153
 481 009c 25B3     		cbz	r5, .L57
 140:Middlewares/LVGL/GUI/lvgl/src/draw/lv_draw_label.c ****         /*If the label changed too much recalculate the hint.*/
 482              		.loc 1 140 13 discriminator 1 view .LVU154
 483 009e 32BB     		cbnz	r2, .L58
 140:Middlewares/LVGL/GUI/lvgl/src/draw/lv_draw_label.c ****         /*If the label changed too much recalculate the hint.*/
 484              		.loc 1 140 36 discriminator 2 view .LVU155
 485 00a0 4B68     		ldr	r3, [r1, #4]
 140:Middlewares/LVGL/GUI/lvgl/src/draw/lv_draw_label.c ****         /*If the label changed too much recalculate the hint.*/
 486              		.loc 1 140 27 discriminator 2 view .LVU156
 487 00a2 002B     		cmp	r3, #0
 488 00a4 11DB     		blt	.L69
 137:Middlewares/LVGL/GUI/lvgl/src/draw/lv_draw_label.c **** 
 489              		.loc 1 137 13 view .LVU157
 490 00a6 4FF0FF37 		mov	r7, #-1
 491 00aa 22E0     		b	.L23
 492              	.LVL40:
 493              	.L21:
 494              	.LBB56:
 115:Middlewares/LVGL/GUI/lvgl/src/draw/lv_draw_label.c ****         lv_txt_get_size(&p, txt, dsc->font, dsc->letter_space, dsc->line_space, LV_COORD_MAX,
 495              		.loc 1 115 9 is_stmt 1 view .LVU158
 116:Middlewares/LVGL/GUI/lvgl/src/draw/lv_draw_label.c ****                         dsc->flag);
 496              		.loc 1 116 9 view .LVU159
 497 00ac 0293     		str	r3, [sp, #8]
 498              	.LVL41:
 116:Middlewares/LVGL/GUI/lvgl/src/draw/lv_draw_label.c ****                         dsc->flag);
 499              		.loc 1 116 9 is_stmt 0 view .LVU160
 500 00ae 6FF06043 		mvn	r3, #-536870912
 501 00b2 0193     		str	r3, [sp, #4]
 502 00b4 6369     		ldr	r3, [r4, #20]
 503 00b6 0093     		str	r3, [sp]
 504 00b8 A369     		ldr	r3, [r4, #24]
 505 00ba 2268     		ldr	r2, [r4]
 506 00bc 0899     		ldr	r1, [sp, #32]
 507 00be 15A8     		add	r0, sp, #84
 508              	.LVL42:
 116:Middlewares/LVGL/GUI/lvgl/src/draw/lv_draw_label.c ****                         dsc->flag);
 509              		.loc 1 116 9 view .LVU161
 510 00c0 FFF7FEFF 		bl	lv_txt_get_size
ARM GAS  C:\Users\ADMINI~1\AppData\Local\Temp\ccM5otpk.s 			page 38


 511              	.LVL43:
 118:Middlewares/LVGL/GUI/lvgl/src/draw/lv_draw_label.c ****     }
 512              		.loc 1 118 9 is_stmt 1 view .LVU162
 118:Middlewares/LVGL/GUI/lvgl/src/draw/lv_draw_label.c ****     }
 513              		.loc 1 118 11 is_stmt 0 view .LVU163
 514 00c4 159B     		ldr	r3, [sp, #84]
 515 00c6 0A93     		str	r3, [sp, #40]
 516              	.LVL44:
 118:Middlewares/LVGL/GUI/lvgl/src/draw/lv_draw_label.c ****     }
 517              		.loc 1 118 11 view .LVU164
 518 00c8 D9E7     		b	.L22
 519              	.LVL45:
 520              	.L69:
 118:Middlewares/LVGL/GUI/lvgl/src/draw/lv_draw_label.c ****     }
 521              		.loc 1 118 11 view .LVU165
 522              	.LBE56:
 142:Middlewares/LVGL/GUI/lvgl/src/draw/lv_draw_label.c ****             hint->line_start = -1;
 523              		.loc 1 142 9 is_stmt 1 view .LVU166
 142:Middlewares/LVGL/GUI/lvgl/src/draw/lv_draw_label.c ****             hint->line_start = -1;
 524              		.loc 1 142 12 is_stmt 0 view .LVU167
 525 00ca AA68     		ldr	r2, [r5, #8]
 526              	.LVL46:
 142:Middlewares/LVGL/GUI/lvgl/src/draw/lv_draw_label.c ****             hint->line_start = -1;
 527              		.loc 1 142 12 view .LVU168
 528 00cc D31A     		subs	r3, r2, r3
 529 00ce 002B     		cmp	r3, #0
 530 00d0 B8BF     		it	lt
 531 00d2 5B42     		rsblt	r3, r3, #0
 142:Middlewares/LVGL/GUI/lvgl/src/draw/lv_draw_label.c ****             hint->line_start = -1;
 532              		.loc 1 142 73 view .LVU169
 533 00d4 C0F50072 		rsb	r2, r0, #512
 142:Middlewares/LVGL/GUI/lvgl/src/draw/lv_draw_label.c ****             hint->line_start = -1;
 534              		.loc 1 142 11 view .LVU170
 535 00d8 B3EB420F 		cmp	r3, r2, lsl #1
 536 00dc 02DD     		ble	.L24
 143:Middlewares/LVGL/GUI/lvgl/src/draw/lv_draw_label.c ****         }
 537              		.loc 1 143 13 is_stmt 1 view .LVU171
 143:Middlewares/LVGL/GUI/lvgl/src/draw/lv_draw_label.c ****         }
 538              		.loc 1 143 30 is_stmt 0 view .LVU172
 539 00de 4FF0FF33 		mov	r3, #-1
 540 00e2 2B60     		str	r3, [r5]
 541              	.LVL47:
 542              	.L24:
 145:Middlewares/LVGL/GUI/lvgl/src/draw/lv_draw_label.c ****     }
 543              		.loc 1 145 9 is_stmt 1 view .LVU173
 145:Middlewares/LVGL/GUI/lvgl/src/draw/lv_draw_label.c ****     }
 544              		.loc 1 145 25 is_stmt 0 view .LVU174
 545 00e4 2F68     		ldr	r7, [r5]
 546              	.LVL48:
 145:Middlewares/LVGL/GUI/lvgl/src/draw/lv_draw_label.c ****     }
 547              		.loc 1 145 25 view .LVU175
 548 00e6 04E0     		b	.L23
 549              	.LVL49:
 550              	.L57:
 137:Middlewares/LVGL/GUI/lvgl/src/draw/lv_draw_label.c **** 
 551              		.loc 1 137 13 view .LVU176
 552 00e8 4FF0FF37 		mov	r7, #-1
ARM GAS  C:\Users\ADMINI~1\AppData\Local\Temp\ccM5otpk.s 			page 39


 553 00ec 01E0     		b	.L23
 554              	.L58:
 555 00ee 4FF0FF37 		mov	r7, #-1
 556              	.LVL50:
 557              	.L23:
 149:Middlewares/LVGL/GUI/lvgl/src/draw/lv_draw_label.c ****         line_start = last_line_start;
 558              		.loc 1 149 5 is_stmt 1 view .LVU177
 149:Middlewares/LVGL/GUI/lvgl/src/draw/lv_draw_label.c ****         line_start = last_line_start;
 559              		.loc 1 149 7 is_stmt 0 view .LVU178
 560 00f2 C5B1     		cbz	r5, .L60
 149:Middlewares/LVGL/GUI/lvgl/src/draw/lv_draw_label.c ****         line_start = last_line_start;
 561              		.loc 1 149 13 discriminator 1 view .LVU179
 562 00f4 002F     		cmp	r7, #0
 563 00f6 18DB     		blt	.L61
 150:Middlewares/LVGL/GUI/lvgl/src/draw/lv_draw_label.c ****         pos.y += hint->y;
 564              		.loc 1 150 9 is_stmt 1 view .LVU180
 565              	.LVL51:
 151:Middlewares/LVGL/GUI/lvgl/src/draw/lv_draw_label.c ****     }
 566              		.loc 1 151 9 view .LVU181
 151:Middlewares/LVGL/GUI/lvgl/src/draw/lv_draw_label.c ****     }
 567              		.loc 1 151 22 is_stmt 0 view .LVU182
 568 00f8 6A68     		ldr	r2, [r5, #4]
 151:Middlewares/LVGL/GUI/lvgl/src/draw/lv_draw_label.c ****     }
 569              		.loc 1 151 15 view .LVU183
 570 00fa 329B     		ldr	r3, [sp, #200]
 571 00fc 1344     		add	r3, r3, r2
 572 00fe 3293     		str	r3, [sp, #200]
 573              	.LVL52:
 574              	.L25:
 154:Middlewares/LVGL/GUI/lvgl/src/draw/lv_draw_label.c **** 
 575              		.loc 1 154 5 is_stmt 1 view .LVU184
 154:Middlewares/LVGL/GUI/lvgl/src/draw/lv_draw_label.c **** 
 576              		.loc 1 154 38 is_stmt 0 view .LVU185
 577 0100 94F82730 		ldrb	r3, [r4, #39]	@ zero_extendqisi2
 578 0104 0193     		str	r3, [sp, #4]
 579 0106 0023     		movs	r3, #0
 580 0108 0093     		str	r3, [sp]
 581 010a 0A9B     		ldr	r3, [sp, #40]
 582 010c A269     		ldr	r2, [r4, #24]
 583 010e 0499     		ldr	r1, [sp, #16]
 584 0110 0898     		ldr	r0, [sp, #32]
 585              	.LVL53:
 154:Middlewares/LVGL/GUI/lvgl/src/draw/lv_draw_label.c **** 
 586              		.loc 1 154 38 view .LVU186
 587 0112 3844     		add	r0, r0, r7
 588 0114 FFF7FEFF 		bl	_lv_txt_get_next_line
 589              	.LVL54:
 154:Middlewares/LVGL/GUI/lvgl/src/draw/lv_draw_label.c **** 
 590              		.loc 1 154 14 view .LVU187
 591 0118 00EB070B 		add	fp, r0, r7
 592              	.LVL55:
 157:Middlewares/LVGL/GUI/lvgl/src/draw/lv_draw_label.c ****         /*Go to next line*/
 593              		.loc 1 157 5 is_stmt 1 view .LVU188
 594 011c DDF83480 		ldr	r8, [sp, #52]
 595 0120 DDF820A0 		ldr	r10, [sp, #32]
 157:Middlewares/LVGL/GUI/lvgl/src/draw/lv_draw_label.c ****         /*Go to next line*/
 596              		.loc 1 157 10 is_stmt 0 view .LVU189
ARM GAS  C:\Users\ADMINI~1\AppData\Local\Temp\ccM5otpk.s 			page 40


 597 0124 08E0     		b	.L26
 598              	.LVL56:
 599              	.L60:
 136:Middlewares/LVGL/GUI/lvgl/src/draw/lv_draw_label.c ****     int32_t last_line_start = -1;
 600              		.loc 1 136 14 view .LVU190
 601 0126 0027     		movs	r7, #0
 602              	.LVL57:
 136:Middlewares/LVGL/GUI/lvgl/src/draw/lv_draw_label.c ****     int32_t last_line_start = -1;
 603              		.loc 1 136 14 view .LVU191
 604 0128 EAE7     		b	.L25
 605              	.LVL58:
 606              	.L61:
 136:Middlewares/LVGL/GUI/lvgl/src/draw/lv_draw_label.c ****     int32_t last_line_start = -1;
 607              		.loc 1 136 14 view .LVU192
 608 012a 0027     		movs	r7, #0
 609              	.LVL59:
 136:Middlewares/LVGL/GUI/lvgl/src/draw/lv_draw_label.c ****     int32_t last_line_start = -1;
 610              		.loc 1 136 14 view .LVU193
 611 012c E8E7     		b	.L25
 612              	.LVL60:
 613              	.L27:
 170:Middlewares/LVGL/GUI/lvgl/src/draw/lv_draw_label.c ****     }
 614              		.loc 1 170 9 is_stmt 1 view .LVU194
 170:Middlewares/LVGL/GUI/lvgl/src/draw/lv_draw_label.c ****     }
 615              		.loc 1 170 15 is_stmt 0 view .LVU195
 616 012e 3B78     		ldrb	r3, [r7]	@ zero_extendqisi2
 159:Middlewares/LVGL/GUI/lvgl/src/draw/lv_draw_label.c ****         line_end += _lv_txt_get_next_line(&txt[line_start], font, dsc->letter_space, w, NULL, dsc->
 617              		.loc 1 159 20 view .LVU196
 618 0130 5F46     		mov	r7, fp
 170:Middlewares/LVGL/GUI/lvgl/src/draw/lv_draw_label.c ****     }
 619              		.loc 1 170 11 view .LVU197
 620 0132 002B     		cmp	r3, #0
 621 0134 87D0     		beq	.L18
 622              	.LVL61:
 160:Middlewares/LVGL/GUI/lvgl/src/draw/lv_draw_label.c ****         pos.y += line_height;
 623              		.loc 1 160 18 view .LVU198
 624 0136 8346     		mov	fp, r0
 625              	.LVL62:
 626              	.L26:
 157:Middlewares/LVGL/GUI/lvgl/src/draw/lv_draw_label.c ****         /*Go to next line*/
 627              		.loc 1 157 10 is_stmt 1 view .LVU199
 157:Middlewares/LVGL/GUI/lvgl/src/draw/lv_draw_label.c ****         /*Go to next line*/
 628              		.loc 1 157 14 is_stmt 0 view .LVU200
 629 0138 329B     		ldr	r3, [sp, #200]
 157:Middlewares/LVGL/GUI/lvgl/src/draw/lv_draw_label.c ****         /*Go to next line*/
 630              		.loc 1 157 17 view .LVU201
 631 013a 3344     		add	r3, r3, r6
 157:Middlewares/LVGL/GUI/lvgl/src/draw/lv_draw_label.c ****         /*Go to next line*/
 632              		.loc 1 157 46 view .LVU202
 633 013c D9F80820 		ldr	r2, [r9, #8]
 157:Middlewares/LVGL/GUI/lvgl/src/draw/lv_draw_label.c ****         /*Go to next line*/
 634              		.loc 1 157 57 view .LVU203
 635 0140 5268     		ldr	r2, [r2, #4]
 157:Middlewares/LVGL/GUI/lvgl/src/draw/lv_draw_label.c ****         /*Go to next line*/
 636              		.loc 1 157 10 view .LVU204
 637 0142 9342     		cmp	r3, r2
 638 0144 22DA     		bge	.L70
ARM GAS  C:\Users\ADMINI~1\AppData\Local\Temp\ccM5otpk.s 			page 41


 159:Middlewares/LVGL/GUI/lvgl/src/draw/lv_draw_label.c ****         line_end += _lv_txt_get_next_line(&txt[line_start], font, dsc->letter_space, w, NULL, dsc->
 639              		.loc 1 159 9 is_stmt 1 view .LVU205
 640              	.LVL63:
 160:Middlewares/LVGL/GUI/lvgl/src/draw/lv_draw_label.c ****         pos.y += line_height;
 641              		.loc 1 160 9 view .LVU206
 160:Middlewares/LVGL/GUI/lvgl/src/draw/lv_draw_label.c ****         pos.y += line_height;
 642              		.loc 1 160 21 is_stmt 0 view .LVU207
 643 0146 0AEB0B07 		add	r7, r10, fp
 644 014a 94F82730 		ldrb	r3, [r4, #39]	@ zero_extendqisi2
 645 014e 0193     		str	r3, [sp, #4]
 646 0150 0023     		movs	r3, #0
 647 0152 0093     		str	r3, [sp]
 648 0154 0A9B     		ldr	r3, [sp, #40]
 649 0156 A269     		ldr	r2, [r4, #24]
 650 0158 0499     		ldr	r1, [sp, #16]
 651 015a 3846     		mov	r0, r7
 652 015c FFF7FEFF 		bl	_lv_txt_get_next_line
 653              	.LVL64:
 160:Middlewares/LVGL/GUI/lvgl/src/draw/lv_draw_label.c ****         pos.y += line_height;
 654              		.loc 1 160 18 view .LVU208
 655 0160 5844     		add	r0, r0, fp
 656              	.LVL65:
 161:Middlewares/LVGL/GUI/lvgl/src/draw/lv_draw_label.c **** 
 657              		.loc 1 161 9 is_stmt 1 view .LVU209
 161:Middlewares/LVGL/GUI/lvgl/src/draw/lv_draw_label.c **** 
 658              		.loc 1 161 15 is_stmt 0 view .LVU210
 659 0162 329B     		ldr	r3, [sp, #200]
 660 0164 4344     		add	r3, r3, r8
 661 0166 3293     		str	r3, [sp, #200]
 164:Middlewares/LVGL/GUI/lvgl/src/draw/lv_draw_label.c ****             hint->line_start = line_start;
 662              		.loc 1 164 9 is_stmt 1 view .LVU211
 164:Middlewares/LVGL/GUI/lvgl/src/draw/lv_draw_label.c ****             hint->line_start = line_start;
 663              		.loc 1 164 11 is_stmt 0 view .LVU212
 664 0168 002D     		cmp	r5, #0
 665 016a E0D0     		beq	.L27
 164:Middlewares/LVGL/GUI/lvgl/src/draw/lv_draw_label.c ****             hint->line_start = line_start;
 666              		.loc 1 164 17 discriminator 1 view .LVU213
 667 016c 13F5806F 		cmn	r3, #1024
 668 0170 DDDB     		blt	.L27
 164:Middlewares/LVGL/GUI/lvgl/src/draw/lv_draw_label.c ****             hint->line_start = line_start;
 669              		.loc 1 164 61 discriminator 2 view .LVU214
 670 0172 2B68     		ldr	r3, [r5]
 164:Middlewares/LVGL/GUI/lvgl/src/draw/lv_draw_label.c ****             hint->line_start = line_start;
 671              		.loc 1 164 54 discriminator 2 view .LVU215
 672 0174 002B     		cmp	r3, #0
 673 0176 DADA     		bge	.L27
 165:Middlewares/LVGL/GUI/lvgl/src/draw/lv_draw_label.c ****             hint->y          = pos.y - coords->y1;
 674              		.loc 1 165 13 is_stmt 1 view .LVU216
 165:Middlewares/LVGL/GUI/lvgl/src/draw/lv_draw_label.c ****             hint->y          = pos.y - coords->y1;
 675              		.loc 1 165 30 is_stmt 0 view .LVU217
 676 0178 C5F800B0 		str	fp, [r5]
 166:Middlewares/LVGL/GUI/lvgl/src/draw/lv_draw_label.c ****             hint->coord_y    = coords->y1;
 677              		.loc 1 166 13 is_stmt 1 view .LVU218
 166:Middlewares/LVGL/GUI/lvgl/src/draw/lv_draw_label.c ****             hint->coord_y    = coords->y1;
 678              		.loc 1 166 46 is_stmt 0 view .LVU219
 679 017c 0999     		ldr	r1, [sp, #36]
 680 017e 4A68     		ldr	r2, [r1, #4]
ARM GAS  C:\Users\ADMINI~1\AppData\Local\Temp\ccM5otpk.s 			page 42


 166:Middlewares/LVGL/GUI/lvgl/src/draw/lv_draw_label.c ****             hint->coord_y    = coords->y1;
 681              		.loc 1 166 38 view .LVU220
 682 0180 329B     		ldr	r3, [sp, #200]
 683 0182 9B1A     		subs	r3, r3, r2
 166:Middlewares/LVGL/GUI/lvgl/src/draw/lv_draw_label.c ****             hint->coord_y    = coords->y1;
 684              		.loc 1 166 30 view .LVU221
 685 0184 6B60     		str	r3, [r5, #4]
 167:Middlewares/LVGL/GUI/lvgl/src/draw/lv_draw_label.c ****         }
 686              		.loc 1 167 13 is_stmt 1 view .LVU222
 167:Middlewares/LVGL/GUI/lvgl/src/draw/lv_draw_label.c ****         }
 687              		.loc 1 167 38 is_stmt 0 view .LVU223
 688 0186 4B68     		ldr	r3, [r1, #4]
 167:Middlewares/LVGL/GUI/lvgl/src/draw/lv_draw_label.c ****         }
 689              		.loc 1 167 30 view .LVU224
 690 0188 AB60     		str	r3, [r5, #8]
 691 018a D0E7     		b	.L27
 692              	.LVL66:
 693              	.L70:
 174:Middlewares/LVGL/GUI/lvgl/src/draw/lv_draw_label.c ****         line_width = lv_txt_get_width(&txt[line_start], line_end - line_start, font, dsc->letter_sp
 694              		.loc 1 174 5 is_stmt 1 view .LVU225
 174:Middlewares/LVGL/GUI/lvgl/src/draw/lv_draw_label.c ****         line_width = lv_txt_get_width(&txt[line_start], line_end - line_start, font, dsc->letter_sp
 695              		.loc 1 174 7 is_stmt 0 view .LVU226
 696 018c 0C9B     		ldr	r3, [sp, #48]
 697 018e 022B     		cmp	r3, #2
 698 0190 21D0     		beq	.L71
 181:Middlewares/LVGL/GUI/lvgl/src/draw/lv_draw_label.c ****         line_width = lv_txt_get_width(&txt[line_start], line_end - line_start, font, dsc->letter_sp
 699              		.loc 1 181 10 is_stmt 1 view .LVU227
 181:Middlewares/LVGL/GUI/lvgl/src/draw/lv_draw_label.c ****         line_width = lv_txt_get_width(&txt[line_start], line_end - line_start, font, dsc->letter_sp
 700              		.loc 1 181 12 is_stmt 0 view .LVU228
 701 0192 0C9B     		ldr	r3, [sp, #48]
 702 0194 032B     		cmp	r3, #3
 703 0196 36D0     		beq	.L72
 704              	.LVL67:
 705              	.L30:
 185:Middlewares/LVGL/GUI/lvgl/src/draw/lv_draw_label.c ****     uint32_t sel_end = dsc->sel_end;
 706              		.loc 1 185 5 is_stmt 1 view .LVU229
 185:Middlewares/LVGL/GUI/lvgl/src/draw/lv_draw_label.c ****     uint32_t sel_end = dsc->sel_end;
 707              		.loc 1 185 14 is_stmt 0 view .LVU230
 708 0198 6268     		ldr	r2, [r4, #4]
 709 019a 1546     		mov	r5, r2
 710              	.LVL68:
 186:Middlewares/LVGL/GUI/lvgl/src/draw/lv_draw_label.c ****     if(sel_start > sel_end) {
 711              		.loc 1 186 5 is_stmt 1 view .LVU231
 186:Middlewares/LVGL/GUI/lvgl/src/draw/lv_draw_label.c ****     if(sel_start > sel_end) {
 712              		.loc 1 186 14 is_stmt 0 view .LVU232
 713 019c D4F80880 		ldr	r8, [r4, #8]
 714              	.LVL69:
 187:Middlewares/LVGL/GUI/lvgl/src/draw/lv_draw_label.c ****         uint32_t tmp = sel_start;
 715              		.loc 1 187 5 is_stmt 1 view .LVU233
 187:Middlewares/LVGL/GUI/lvgl/src/draw/lv_draw_label.c ****         uint32_t tmp = sel_start;
 716              		.loc 1 187 7 is_stmt 0 view .LVU234
 717 01a0 4245     		cmp	r2, r8
 718 01a2 02D8     		bhi	.L31
 719 01a4 4346     		mov	r3, r8
 185:Middlewares/LVGL/GUI/lvgl/src/draw/lv_draw_label.c ****     uint32_t sel_end = dsc->sel_end;
 720              		.loc 1 185 14 view .LVU235
 721 01a6 9046     		mov	r8, r2
ARM GAS  C:\Users\ADMINI~1\AppData\Local\Temp\ccM5otpk.s 			page 43


 722              	.LVL70:
 186:Middlewares/LVGL/GUI/lvgl/src/draw/lv_draw_label.c ****     if(sel_start > sel_end) {
 723              		.loc 1 186 14 view .LVU236
 724 01a8 1D46     		mov	r5, r3
 725              	.LVL71:
 726              	.L31:
 192:Middlewares/LVGL/GUI/lvgl/src/draw/lv_draw_label.c **** 
 727              		.loc 1 192 5 is_stmt 1 view .LVU237
 194:Middlewares/LVGL/GUI/lvgl/src/draw/lv_draw_label.c ****         lv_draw_line_dsc_init(&line_dsc);
 728              		.loc 1 194 5 view .LVU238
 194:Middlewares/LVGL/GUI/lvgl/src/draw/lv_draw_label.c ****         lv_draw_line_dsc_init(&line_dsc);
 729              		.loc 1 194 12 is_stmt 0 view .LVU239
 730 01aa 94F82830 		ldrb	r3, [r4, #40]	@ zero_extendqisi2
 194:Middlewares/LVGL/GUI/lvgl/src/draw/lv_draw_label.c ****         lv_draw_line_dsc_init(&line_dsc);
 731              		.loc 1 194 7 view .LVU240
 732 01ae 13F0030F 		tst	r3, #3
 733 01b2 3DD1     		bne	.L73
 734              	.L32:
 202:Middlewares/LVGL/GUI/lvgl/src/draw/lv_draw_label.c ****     uint32_t i;
 735              		.loc 1 202 5 is_stmt 1 view .LVU241
 736              	.LVL72:
 203:Middlewares/LVGL/GUI/lvgl/src/draw/lv_draw_label.c ****     uint32_t par_start = 0;
 737              		.loc 1 203 5 view .LVU242
 204:Middlewares/LVGL/GUI/lvgl/src/draw/lv_draw_label.c ****     lv_color_t recolor;
 738              		.loc 1 204 5 view .LVU243
 205:Middlewares/LVGL/GUI/lvgl/src/draw/lv_draw_label.c ****     lv_color_t color = lv_color_black();
 739              		.loc 1 205 5 view .LVU244
 206:Middlewares/LVGL/GUI/lvgl/src/draw/lv_draw_label.c ****     int32_t letter_w;
 740              		.loc 1 206 5 view .LVU245
 741              	.LBB57:
 742              	.LBI57:
 697:Middlewares/LVGL/GUI/lvgl/src/draw/../misc/lv_color.h **** {
 743              		.loc 2 697 26 view .LVU246
 744              	.LBE57:
 745              		.loc 2 699 5 view .LVU247
 746              	.LBB60:
 747              	.LBB58:
 748              	.LBI58:
 592:Middlewares/LVGL/GUI/lvgl/src/draw/../misc/lv_color.h **** {
 749              		.loc 2 592 26 view .LVU248
 750              	.LBB59:
 594:Middlewares/LVGL/GUI/lvgl/src/draw/../misc/lv_color.h **** }
 751              		.loc 2 594 5 view .LVU249
 594:Middlewares/LVGL/GUI/lvgl/src/draw/../misc/lv_color.h **** }
 752              		.loc 2 594 5 is_stmt 0 view .LVU250
 753 01b4 4FF0000A 		mov	r10, #0	@ movhi
 594:Middlewares/LVGL/GUI/lvgl/src/draw/../misc/lv_color.h **** }
 754              		.loc 2 594 5 view .LVU251
 755              	.LBE59:
 756              	.LBE58:
 757              	.LBE60:
 207:Middlewares/LVGL/GUI/lvgl/src/draw/lv_draw_label.c **** 
 758              		.loc 1 207 5 is_stmt 1 view .LVU252
 209:Middlewares/LVGL/GUI/lvgl/src/draw/lv_draw_label.c ****     lv_draw_rect_dsc_init(&draw_dsc_sel);
 759              		.loc 1 209 5 view .LVU253
 210:Middlewares/LVGL/GUI/lvgl/src/draw/lv_draw_label.c ****     draw_dsc_sel.bg_color = dsc->sel_bg_color;
 760              		.loc 1 210 5 view .LVU254
ARM GAS  C:\Users\ADMINI~1\AppData\Local\Temp\ccM5otpk.s 			page 44


 761 01b8 19A8     		add	r0, sp, #100
 762 01ba FFF7FEFF 		bl	lv_draw_rect_dsc_init
 763              	.LVL73:
 211:Middlewares/LVGL/GUI/lvgl/src/draw/lv_draw_label.c **** 
 764              		.loc 1 211 5 view .LVU255
 211:Middlewares/LVGL/GUI/lvgl/src/draw/lv_draw_label.c **** 
 765              		.loc 1 211 27 is_stmt 0 view .LVU256
 766 01be 238A     		ldrh	r3, [r4, #16]
 767 01c0 ADF86A30 		strh	r3, [sp, #106]	@ movhi
 213:Middlewares/LVGL/GUI/lvgl/src/draw/lv_draw_label.c ****     /*Write out all lines*/
 768              		.loc 1 213 5 is_stmt 1 view .LVU257
 213:Middlewares/LVGL/GUI/lvgl/src/draw/lv_draw_label.c ****     /*Write out all lines*/
 769              		.loc 1 213 13 is_stmt 0 view .LVU258
 770 01c4 319B     		ldr	r3, [sp, #196]
 771 01c6 1093     		str	r3, [sp, #64]
 772              	.LVL74:
 215:Middlewares/LVGL/GUI/lvgl/src/draw/lv_draw_label.c ****         pos.x += x_ofs;
 773              		.loc 1 215 5 is_stmt 1 view .LVU259
 204:Middlewares/LVGL/GUI/lvgl/src/draw/lv_draw_label.c ****     lv_color_t recolor;
 774              		.loc 1 204 14 is_stmt 0 view .LVU260
 775 01c8 0023     		movs	r3, #0
 776              	.LVL75:
 204:Middlewares/LVGL/GUI/lvgl/src/draw/lv_draw_label.c ****     lv_color_t recolor;
 777              		.loc 1 204 14 view .LVU261
 778 01ca 0F93     		str	r3, [sp, #60]
 779 01cc 2E46     		mov	r6, r5
 780              	.LVL76:
 204:Middlewares/LVGL/GUI/lvgl/src/draw/lv_draw_label.c ****     lv_color_t recolor;
 781              		.loc 1 204 14 view .LVU262
 782 01ce CDF81C90 		str	r9, [sp, #28]
 783 01d2 B946     		mov	r9, r7
 784              	.LVL77:
 215:Middlewares/LVGL/GUI/lvgl/src/draw/lv_draw_label.c ****         pos.x += x_ofs;
 785              		.loc 1 215 10 view .LVU263
 786 01d4 37E1     		b	.L34
 787              	.LVL78:
 788              	.L71:
 175:Middlewares/LVGL/GUI/lvgl/src/draw/lv_draw_label.c **** 
 789              		.loc 1 175 9 is_stmt 1 view .LVU264
 175:Middlewares/LVGL/GUI/lvgl/src/draw/lv_draw_label.c **** 
 790              		.loc 1 175 22 is_stmt 0 view .LVU265
 791 01d6 94F82730 		ldrb	r3, [r4, #39]	@ zero_extendqisi2
 792 01da 0093     		str	r3, [sp]
 793 01dc A369     		ldr	r3, [r4, #24]
 794 01de 049A     		ldr	r2, [sp, #16]
 795 01e0 ABEB0701 		sub	r1, fp, r7
 796 01e4 0898     		ldr	r0, [sp, #32]
 797 01e6 3844     		add	r0, r0, r7
 798 01e8 FFF7FEFF 		bl	lv_txt_get_width
 799              	.LVL79:
 177:Middlewares/LVGL/GUI/lvgl/src/draw/lv_draw_label.c **** 
 800              		.loc 1 177 9 is_stmt 1 view .LVU266
 801              	.LBB61:
 802              	.LBI61:
 123:Middlewares/LVGL/GUI/lvgl/src/draw/../misc/../font/../misc/lv_area.h **** {
 803              		.loc 4 123 26 view .LVU267
 804              	.LBB62:
ARM GAS  C:\Users\ADMINI~1\AppData\Local\Temp\ccM5otpk.s 			page 45


 805              		.loc 4 125 5 view .LVU268
 806              		.loc 4 125 31 is_stmt 0 view .LVU269
 807 01ec 099A     		ldr	r2, [sp, #36]
 808 01ee 9368     		ldr	r3, [r2, #8]
 809              		.loc 4 125 44 view .LVU270
 810 01f0 1268     		ldr	r2, [r2]
 811              		.loc 4 125 36 view .LVU271
 812 01f2 9B1A     		subs	r3, r3, r2
 813              		.loc 4 125 12 view .LVU272
 814 01f4 0133     		adds	r3, r3, #1
 815              	.LVL80:
 816              		.loc 4 125 12 view .LVU273
 817              	.LBE62:
 818              	.LBE61:
 177:Middlewares/LVGL/GUI/lvgl/src/draw/lv_draw_label.c **** 
 819              		.loc 1 177 45 view .LVU274
 820 01f6 1B1A     		subs	r3, r3, r0
 177:Middlewares/LVGL/GUI/lvgl/src/draw/lv_draw_label.c **** 
 821              		.loc 1 177 59 view .LVU275
 822 01f8 03EBD373 		add	r3, r3, r3, lsr #31
 177:Middlewares/LVGL/GUI/lvgl/src/draw/lv_draw_label.c **** 
 823              		.loc 1 177 15 view .LVU276
 824 01fc 319A     		ldr	r2, [sp, #196]
 825 01fe 02EB6303 		add	r3, r2, r3, asr #1
 826 0202 3193     		str	r3, [sp, #196]
 827 0204 C8E7     		b	.L30
 828              	.LVL81:
 829              	.L72:
 182:Middlewares/LVGL/GUI/lvgl/src/draw/lv_draw_label.c ****         pos.x += lv_area_get_width(coords) - line_width;
 830              		.loc 1 182 9 is_stmt 1 view .LVU277
 182:Middlewares/LVGL/GUI/lvgl/src/draw/lv_draw_label.c ****         pos.x += lv_area_get_width(coords) - line_width;
 831              		.loc 1 182 22 is_stmt 0 view .LVU278
 832 0206 94F82730 		ldrb	r3, [r4, #39]	@ zero_extendqisi2
 833 020a 0093     		str	r3, [sp]
 834 020c A369     		ldr	r3, [r4, #24]
 835 020e 049A     		ldr	r2, [sp, #16]
 836 0210 ABEB0701 		sub	r1, fp, r7
 837 0214 0898     		ldr	r0, [sp, #32]
 838 0216 3844     		add	r0, r0, r7
 839 0218 FFF7FEFF 		bl	lv_txt_get_width
 840              	.LVL82:
 183:Middlewares/LVGL/GUI/lvgl/src/draw/lv_draw_label.c ****     }
 841              		.loc 1 183 9 is_stmt 1 view .LVU279
 842              	.LBB63:
 843              	.LBI63:
 123:Middlewares/LVGL/GUI/lvgl/src/draw/../misc/../font/../misc/lv_area.h **** {
 844              		.loc 4 123 26 view .LVU280
 845              	.LBB64:
 846              		.loc 4 125 5 view .LVU281
 847              		.loc 4 125 31 is_stmt 0 view .LVU282
 848 021c 099A     		ldr	r2, [sp, #36]
 849 021e 9368     		ldr	r3, [r2, #8]
 850              		.loc 4 125 44 view .LVU283
 851 0220 1268     		ldr	r2, [r2]
 852              		.loc 4 125 36 view .LVU284
 853 0222 9B1A     		subs	r3, r3, r2
 854              		.loc 4 125 12 view .LVU285
ARM GAS  C:\Users\ADMINI~1\AppData\Local\Temp\ccM5otpk.s 			page 46


 855 0224 0133     		adds	r3, r3, #1
 856              	.LVL83:
 857              		.loc 4 125 12 view .LVU286
 858              	.LBE64:
 859              	.LBE63:
 183:Middlewares/LVGL/GUI/lvgl/src/draw/lv_draw_label.c ****     }
 860              		.loc 1 183 44 view .LVU287
 861 0226 1B1A     		subs	r3, r3, r0
 183:Middlewares/LVGL/GUI/lvgl/src/draw/lv_draw_label.c ****     }
 862              		.loc 1 183 15 view .LVU288
 863 0228 319A     		ldr	r2, [sp, #196]
 864 022a 1344     		add	r3, r3, r2
 865 022c 3193     		str	r3, [sp, #196]
 866 022e B3E7     		b	.L30
 867              	.LVL84:
 868              	.L73:
 195:Middlewares/LVGL/GUI/lvgl/src/draw/lv_draw_label.c ****         line_dsc.color = dsc->color;
 869              		.loc 1 195 9 is_stmt 1 view .LVU289
 870 0230 2CA8     		add	r0, sp, #176
 871 0232 FFF7FEFF 		bl	lv_draw_line_dsc_init
 872              	.LVL85:
 196:Middlewares/LVGL/GUI/lvgl/src/draw/lv_draw_label.c ****         line_dsc.width = font->underline_thickness ? font->underline_thickness : 1;
 873              		.loc 1 196 9 view .LVU290
 196:Middlewares/LVGL/GUI/lvgl/src/draw/lv_draw_label.c ****         line_dsc.width = font->underline_thickness ? font->underline_thickness : 1;
 874              		.loc 1 196 24 is_stmt 0 view .LVU291
 875 0236 A389     		ldrh	r3, [r4, #12]
 876 0238 ADF8B030 		strh	r3, [sp, #176]	@ movhi
 197:Middlewares/LVGL/GUI/lvgl/src/draw/lv_draw_label.c ****         line_dsc.opa = dsc->opa;
 877              		.loc 1 197 9 is_stmt 1 view .LVU292
 197:Middlewares/LVGL/GUI/lvgl/src/draw/lv_draw_label.c ****         line_dsc.opa = dsc->opa;
 878              		.loc 1 197 30 is_stmt 0 view .LVU293
 879 023c 049B     		ldr	r3, [sp, #16]
 880 023e 93F91230 		ldrsb	r3, [r3, #18]
 197:Middlewares/LVGL/GUI/lvgl/src/draw/lv_draw_label.c ****         line_dsc.opa = dsc->opa;
 881              		.loc 1 197 80 view .LVU294
 882 0242 03B9     		cbnz	r3, .L33
 883 0244 0123     		movs	r3, #1
 884              	.L33:
 197:Middlewares/LVGL/GUI/lvgl/src/draw/lv_draw_label.c ****         line_dsc.opa = dsc->opa;
 885              		.loc 1 197 24 discriminator 4 view .LVU295
 886 0246 2D93     		str	r3, [sp, #180]
 198:Middlewares/LVGL/GUI/lvgl/src/draw/lv_draw_label.c ****         line_dsc.blend_mode = dsc->blend_mode;
 887              		.loc 1 198 9 is_stmt 1 discriminator 4 view .LVU296
 198:Middlewares/LVGL/GUI/lvgl/src/draw/lv_draw_label.c ****         line_dsc.blend_mode = dsc->blend_mode;
 888              		.loc 1 198 27 is_stmt 0 discriminator 4 view .LVU297
 889 0248 94F82430 		ldrb	r3, [r4, #36]	@ zero_extendqisi2
 198:Middlewares/LVGL/GUI/lvgl/src/draw/lv_draw_label.c ****         line_dsc.blend_mode = dsc->blend_mode;
 890              		.loc 1 198 22 discriminator 4 view .LVU298
 891 024c 8DF8C030 		strb	r3, [sp, #192]
 199:Middlewares/LVGL/GUI/lvgl/src/draw/lv_draw_label.c ****     }
 892              		.loc 1 199 9 is_stmt 1 discriminator 4 view .LVU299
 199:Middlewares/LVGL/GUI/lvgl/src/draw/lv_draw_label.c ****     }
 893              		.loc 1 199 34 is_stmt 0 discriminator 4 view .LVU300
 894 0250 94F82830 		ldrb	r3, [r4, #40]	@ zero_extendqisi2
 895 0254 C3F3C103 		ubfx	r3, r3, #3, #2
 199:Middlewares/LVGL/GUI/lvgl/src/draw/lv_draw_label.c ****     }
 896              		.loc 1 199 29 discriminator 4 view .LVU301
ARM GAS  C:\Users\ADMINI~1\AppData\Local\Temp\ccM5otpk.s 			page 47


 897 0258 9DF8C120 		ldrb	r2, [sp, #193]	@ zero_extendqisi2
 898 025c 63F30102 		bfi	r2, r3, #0, #2
 899 0260 8DF8C120 		strb	r2, [sp, #193]
 900 0264 A6E7     		b	.L32
 901              	.LVL86:
 902              	.L63:
 903              	.LBB65:
 904              	.LBB66:
 229:Middlewares/LVGL/GUI/lvgl/src/draw/lv_draw_label.c ****             if(sel_start != 0xFFFF && sel_end != 0xFFFF) {
 905              		.loc 1 229 22 view .LVU302
 906 0266 0023     		movs	r3, #0
 907 0268 0593     		str	r3, [sp, #20]
 908 026a 81E0     		b	.L36
 909              	.L64:
 229:Middlewares/LVGL/GUI/lvgl/src/draw/lv_draw_label.c ****             if(sel_start != 0xFFFF && sel_end != 0xFFFF) {
 910              		.loc 1 229 22 view .LVU303
 911 026c 0023     		movs	r3, #0
 912 026e 0593     		str	r3, [sp, #20]
 913 0270 7EE0     		b	.L36
 914              	.LVL87:
 915              	.L77:
 246:Middlewares/LVGL/GUI/lvgl/src/draw/lv_draw_label.c ****                         par_start = i;
 916              		.loc 1 246 21 is_stmt 1 view .LVU304
 246:Middlewares/LVGL/GUI/lvgl/src/draw/lv_draw_label.c ****                         par_start = i;
 917              		.loc 1 246 23 is_stmt 0 view .LVU305
 918 0272 37B1     		cbz	r7, .L74
 251:Middlewares/LVGL/GUI/lvgl/src/draw/lv_draw_label.c ****                         cmd_state = CMD_STATE_WAIT;
 919              		.loc 1 251 26 is_stmt 1 view .LVU306
 251:Middlewares/LVGL/GUI/lvgl/src/draw/lv_draw_label.c ****                         cmd_state = CMD_STATE_WAIT;
 920              		.loc 1 251 28 is_stmt 0 view .LVU307
 921 0274 012F     		cmp	r7, #1
 922 0276 56D0     		beq	.L65
 254:Middlewares/LVGL/GUI/lvgl/src/draw/lv_draw_label.c ****                         cmd_state = CMD_STATE_WAIT;
 923              		.loc 1 254 26 is_stmt 1 view .LVU308
 254:Middlewares/LVGL/GUI/lvgl/src/draw/lv_draw_label.c ****                         cmd_state = CMD_STATE_WAIT;
 924              		.loc 1 254 28 is_stmt 0 view .LVU309
 925 0278 022F     		cmp	r7, #2
 926 027a 40F08880 		bne	.L38
 255:Middlewares/LVGL/GUI/lvgl/src/draw/lv_draw_label.c ****                         continue;
 927              		.loc 1 255 35 view .LVU310
 928 027e 0027     		movs	r7, #0
 929              	.LVL88:
 255:Middlewares/LVGL/GUI/lvgl/src/draw/lv_draw_label.c ****                         continue;
 930              		.loc 1 255 35 view .LVU311
 931 0280 65E0     		b	.L35
 932              	.LVL89:
 933              	.L74:
 247:Middlewares/LVGL/GUI/lvgl/src/draw/lv_draw_label.c ****                         cmd_state = CMD_STATE_PAR;
 934              		.loc 1 247 25 is_stmt 1 view .LVU312
 247:Middlewares/LVGL/GUI/lvgl/src/draw/lv_draw_label.c ****                         cmd_state = CMD_STATE_PAR;
 935              		.loc 1 247 35 is_stmt 0 view .LVU313
 936 0282 2B9B     		ldr	r3, [sp, #172]
 937 0284 0F93     		str	r3, [sp, #60]
 938              	.LVL90:
 248:Middlewares/LVGL/GUI/lvgl/src/draw/lv_draw_label.c ****                         continue;
 939              		.loc 1 248 25 is_stmt 1 view .LVU314
 249:Middlewares/LVGL/GUI/lvgl/src/draw/lv_draw_label.c ****                     }
ARM GAS  C:\Users\ADMINI~1\AppData\Local\Temp\ccM5otpk.s 			page 48


 940              		.loc 1 249 25 view .LVU315
 248:Middlewares/LVGL/GUI/lvgl/src/draw/lv_draw_label.c ****                         continue;
 941              		.loc 1 248 35 is_stmt 0 view .LVU316
 942 0286 0127     		movs	r7, #1
 249:Middlewares/LVGL/GUI/lvgl/src/draw/lv_draw_label.c ****                     }
 943              		.loc 1 249 25 view .LVU317
 944 0288 61E0     		b	.L35
 945              	.LVL91:
 946              	.L78:
 262:Middlewares/LVGL/GUI/lvgl/src/draw/lv_draw_label.c ****                         /*Get the parameter*/
 947              		.loc 1 262 21 is_stmt 1 view .LVU318
 262:Middlewares/LVGL/GUI/lvgl/src/draw/lv_draw_label.c ****                         /*Get the parameter*/
 948              		.loc 1 262 23 is_stmt 0 view .LVU319
 949 028a 202B     		cmp	r3, #32
 950 028c 5FD1     		bne	.L35
 264:Middlewares/LVGL/GUI/lvgl/src/draw/lv_draw_label.c ****                             char buf[LABEL_RECOLOR_PAR_LENGTH + 1];
 951              		.loc 1 264 25 is_stmt 1 view .LVU320
 264:Middlewares/LVGL/GUI/lvgl/src/draw/lv_draw_label.c ****                             char buf[LABEL_RECOLOR_PAR_LENGTH + 1];
 952              		.loc 1 264 30 is_stmt 0 view .LVU321
 953 028e 2B9B     		ldr	r3, [sp, #172]
 954 0290 0F9A     		ldr	r2, [sp, #60]
 955 0292 9B1A     		subs	r3, r3, r2
 264:Middlewares/LVGL/GUI/lvgl/src/draw/lv_draw_label.c ****                             char buf[LABEL_RECOLOR_PAR_LENGTH + 1];
 956              		.loc 1 264 27 view .LVU322
 957 0294 072B     		cmp	r3, #7
 958 0296 04D0     		beq	.L75
 275:Middlewares/LVGL/GUI/lvgl/src/draw/lv_draw_label.c ****                         }
 959              		.loc 1 275 29 is_stmt 1 view .LVU323
 275:Middlewares/LVGL/GUI/lvgl/src/draw/lv_draw_label.c ****                         }
 960              		.loc 1 275 42 is_stmt 0 view .LVU324
 961 0298 A389     		ldrh	r3, [r4, #12]
 962              	.LVL92:
 275:Middlewares/LVGL/GUI/lvgl/src/draw/lv_draw_label.c ****                         }
 963              		.loc 1 275 42 view .LVU325
 964 029a ADF82E30 		strh	r3, [sp, #46]	@ movhi
 277:Middlewares/LVGL/GUI/lvgl/src/draw/lv_draw_label.c ****                     }
 965              		.loc 1 277 35 view .LVU326
 966 029e 0227     		movs	r7, #2
 967              	.LVL93:
 279:Middlewares/LVGL/GUI/lvgl/src/draw/lv_draw_label.c ****                 }
 968              		.loc 1 279 21 is_stmt 1 view .LVU327
 969 02a0 55E0     		b	.L35
 970              	.LVL94:
 971              	.L75:
 972              	.LBB67:
 265:Middlewares/LVGL/GUI/lvgl/src/draw/lv_draw_label.c ****                             lv_memcpy_small(buf, &bidi_txt[par_start], LABEL_RECOLOR_PAR_LENGTH);
 973              		.loc 1 265 29 view .LVU328
 266:Middlewares/LVGL/GUI/lvgl/src/draw/lv_draw_label.c ****                             buf[LABEL_RECOLOR_PAR_LENGTH] = '\0';
 974              		.loc 1 266 29 view .LVU329
 266:Middlewares/LVGL/GUI/lvgl/src/draw/lv_draw_label.c ****                             buf[LABEL_RECOLOR_PAR_LENGTH] = '\0';
 975              		.loc 1 266 50 is_stmt 0 view .LVU330
 976 02a2 069B     		ldr	r3, [sp, #24]
 977 02a4 9918     		adds	r1, r3, r2
 978              	.LVL95:
 979              	.LBB68:
 980              	.LBI68:
 981              		.file 6 "Middlewares/LVGL/GUI/lvgl/src/draw/../misc/lv_mem.h"
ARM GAS  C:\Users\ADMINI~1\AppData\Local\Temp\ccM5otpk.s 			page 49


   1:Middlewares/LVGL/GUI/lvgl/src/draw/../misc/lv_mem.h **** /**
   2:Middlewares/LVGL/GUI/lvgl/src/draw/../misc/lv_mem.h ****  * @file lv_mem.h
   3:Middlewares/LVGL/GUI/lvgl/src/draw/../misc/lv_mem.h ****  *
   4:Middlewares/LVGL/GUI/lvgl/src/draw/../misc/lv_mem.h ****  */
   5:Middlewares/LVGL/GUI/lvgl/src/draw/../misc/lv_mem.h **** 
   6:Middlewares/LVGL/GUI/lvgl/src/draw/../misc/lv_mem.h **** #ifndef LV_MEM_H
   7:Middlewares/LVGL/GUI/lvgl/src/draw/../misc/lv_mem.h **** #define LV_MEM_H
   8:Middlewares/LVGL/GUI/lvgl/src/draw/../misc/lv_mem.h **** 
   9:Middlewares/LVGL/GUI/lvgl/src/draw/../misc/lv_mem.h **** #ifdef __cplusplus
  10:Middlewares/LVGL/GUI/lvgl/src/draw/../misc/lv_mem.h **** extern "C" {
  11:Middlewares/LVGL/GUI/lvgl/src/draw/../misc/lv_mem.h **** #endif
  12:Middlewares/LVGL/GUI/lvgl/src/draw/../misc/lv_mem.h **** 
  13:Middlewares/LVGL/GUI/lvgl/src/draw/../misc/lv_mem.h **** /*********************
  14:Middlewares/LVGL/GUI/lvgl/src/draw/../misc/lv_mem.h ****  *      INCLUDES
  15:Middlewares/LVGL/GUI/lvgl/src/draw/../misc/lv_mem.h ****  *********************/
  16:Middlewares/LVGL/GUI/lvgl/src/draw/../misc/lv_mem.h **** #include "../lv_conf_internal.h"
  17:Middlewares/LVGL/GUI/lvgl/src/draw/../misc/lv_mem.h **** 
  18:Middlewares/LVGL/GUI/lvgl/src/draw/../misc/lv_mem.h **** #include <stdint.h>
  19:Middlewares/LVGL/GUI/lvgl/src/draw/../misc/lv_mem.h **** #include <stddef.h>
  20:Middlewares/LVGL/GUI/lvgl/src/draw/../misc/lv_mem.h **** #include <string.h>
  21:Middlewares/LVGL/GUI/lvgl/src/draw/../misc/lv_mem.h **** 
  22:Middlewares/LVGL/GUI/lvgl/src/draw/../misc/lv_mem.h **** #include "lv_types.h"
  23:Middlewares/LVGL/GUI/lvgl/src/draw/../misc/lv_mem.h **** 
  24:Middlewares/LVGL/GUI/lvgl/src/draw/../misc/lv_mem.h **** /*********************
  25:Middlewares/LVGL/GUI/lvgl/src/draw/../misc/lv_mem.h ****  *      DEFINES
  26:Middlewares/LVGL/GUI/lvgl/src/draw/../misc/lv_mem.h ****  *********************/
  27:Middlewares/LVGL/GUI/lvgl/src/draw/../misc/lv_mem.h **** 
  28:Middlewares/LVGL/GUI/lvgl/src/draw/../misc/lv_mem.h **** /**********************
  29:Middlewares/LVGL/GUI/lvgl/src/draw/../misc/lv_mem.h ****  *      TYPEDEFS
  30:Middlewares/LVGL/GUI/lvgl/src/draw/../misc/lv_mem.h ****  **********************/
  31:Middlewares/LVGL/GUI/lvgl/src/draw/../misc/lv_mem.h **** 
  32:Middlewares/LVGL/GUI/lvgl/src/draw/../misc/lv_mem.h **** /**
  33:Middlewares/LVGL/GUI/lvgl/src/draw/../misc/lv_mem.h ****  * Heap information structure.
  34:Middlewares/LVGL/GUI/lvgl/src/draw/../misc/lv_mem.h ****  */
  35:Middlewares/LVGL/GUI/lvgl/src/draw/../misc/lv_mem.h **** typedef struct {
  36:Middlewares/LVGL/GUI/lvgl/src/draw/../misc/lv_mem.h ****     uint32_t total_size; /**< Total heap size*/
  37:Middlewares/LVGL/GUI/lvgl/src/draw/../misc/lv_mem.h ****     uint32_t free_cnt;
  38:Middlewares/LVGL/GUI/lvgl/src/draw/../misc/lv_mem.h ****     uint32_t free_size; /**< Size of available memory*/
  39:Middlewares/LVGL/GUI/lvgl/src/draw/../misc/lv_mem.h ****     uint32_t free_biggest_size;
  40:Middlewares/LVGL/GUI/lvgl/src/draw/../misc/lv_mem.h ****     uint32_t used_cnt;
  41:Middlewares/LVGL/GUI/lvgl/src/draw/../misc/lv_mem.h ****     uint32_t max_used; /**< Max size of Heap memory used*/
  42:Middlewares/LVGL/GUI/lvgl/src/draw/../misc/lv_mem.h ****     uint8_t used_pct; /**< Percentage used*/
  43:Middlewares/LVGL/GUI/lvgl/src/draw/../misc/lv_mem.h ****     uint8_t frag_pct; /**< Amount of fragmentation*/
  44:Middlewares/LVGL/GUI/lvgl/src/draw/../misc/lv_mem.h **** } lv_mem_monitor_t;
  45:Middlewares/LVGL/GUI/lvgl/src/draw/../misc/lv_mem.h **** 
  46:Middlewares/LVGL/GUI/lvgl/src/draw/../misc/lv_mem.h **** typedef struct {
  47:Middlewares/LVGL/GUI/lvgl/src/draw/../misc/lv_mem.h ****     void * p;
  48:Middlewares/LVGL/GUI/lvgl/src/draw/../misc/lv_mem.h ****     uint16_t size;
  49:Middlewares/LVGL/GUI/lvgl/src/draw/../misc/lv_mem.h ****     uint8_t used : 1;
  50:Middlewares/LVGL/GUI/lvgl/src/draw/../misc/lv_mem.h **** } lv_mem_buf_t;
  51:Middlewares/LVGL/GUI/lvgl/src/draw/../misc/lv_mem.h **** 
  52:Middlewares/LVGL/GUI/lvgl/src/draw/../misc/lv_mem.h **** typedef lv_mem_buf_t lv_mem_buf_arr_t[LV_MEM_BUF_MAX_NUM];
  53:Middlewares/LVGL/GUI/lvgl/src/draw/../misc/lv_mem.h **** 
  54:Middlewares/LVGL/GUI/lvgl/src/draw/../misc/lv_mem.h **** /**********************
  55:Middlewares/LVGL/GUI/lvgl/src/draw/../misc/lv_mem.h ****  * GLOBAL PROTOTYPES
  56:Middlewares/LVGL/GUI/lvgl/src/draw/../misc/lv_mem.h ****  **********************/
  57:Middlewares/LVGL/GUI/lvgl/src/draw/../misc/lv_mem.h **** 
ARM GAS  C:\Users\ADMINI~1\AppData\Local\Temp\ccM5otpk.s 			page 50


  58:Middlewares/LVGL/GUI/lvgl/src/draw/../misc/lv_mem.h **** /**
  59:Middlewares/LVGL/GUI/lvgl/src/draw/../misc/lv_mem.h ****  * Initialize the dyn_mem module (work memory and other variables)
  60:Middlewares/LVGL/GUI/lvgl/src/draw/../misc/lv_mem.h ****  */
  61:Middlewares/LVGL/GUI/lvgl/src/draw/../misc/lv_mem.h **** void lv_mem_init(void);
  62:Middlewares/LVGL/GUI/lvgl/src/draw/../misc/lv_mem.h **** 
  63:Middlewares/LVGL/GUI/lvgl/src/draw/../misc/lv_mem.h **** /**
  64:Middlewares/LVGL/GUI/lvgl/src/draw/../misc/lv_mem.h ****  * Clean up the memory buffer which frees all the allocated memories.
  65:Middlewares/LVGL/GUI/lvgl/src/draw/../misc/lv_mem.h ****  * @note It work only if `LV_MEM_CUSTOM == 0`
  66:Middlewares/LVGL/GUI/lvgl/src/draw/../misc/lv_mem.h ****  */
  67:Middlewares/LVGL/GUI/lvgl/src/draw/../misc/lv_mem.h **** void lv_mem_deinit(void);
  68:Middlewares/LVGL/GUI/lvgl/src/draw/../misc/lv_mem.h **** 
  69:Middlewares/LVGL/GUI/lvgl/src/draw/../misc/lv_mem.h **** /**
  70:Middlewares/LVGL/GUI/lvgl/src/draw/../misc/lv_mem.h ****  * Allocate a memory dynamically
  71:Middlewares/LVGL/GUI/lvgl/src/draw/../misc/lv_mem.h ****  * @param size size of the memory to allocate in bytes
  72:Middlewares/LVGL/GUI/lvgl/src/draw/../misc/lv_mem.h ****  * @return pointer to the allocated memory
  73:Middlewares/LVGL/GUI/lvgl/src/draw/../misc/lv_mem.h ****  */
  74:Middlewares/LVGL/GUI/lvgl/src/draw/../misc/lv_mem.h **** void * lv_mem_alloc(size_t size);
  75:Middlewares/LVGL/GUI/lvgl/src/draw/../misc/lv_mem.h **** 
  76:Middlewares/LVGL/GUI/lvgl/src/draw/../misc/lv_mem.h **** /**
  77:Middlewares/LVGL/GUI/lvgl/src/draw/../misc/lv_mem.h ****  * Free an allocated data
  78:Middlewares/LVGL/GUI/lvgl/src/draw/../misc/lv_mem.h ****  * @param data pointer to an allocated memory
  79:Middlewares/LVGL/GUI/lvgl/src/draw/../misc/lv_mem.h ****  */
  80:Middlewares/LVGL/GUI/lvgl/src/draw/../misc/lv_mem.h **** void lv_mem_free(void * data);
  81:Middlewares/LVGL/GUI/lvgl/src/draw/../misc/lv_mem.h **** 
  82:Middlewares/LVGL/GUI/lvgl/src/draw/../misc/lv_mem.h **** /**
  83:Middlewares/LVGL/GUI/lvgl/src/draw/../misc/lv_mem.h ****  * Reallocate a memory with a new size. The old content will be kept.
  84:Middlewares/LVGL/GUI/lvgl/src/draw/../misc/lv_mem.h ****  * @param data pointer to an allocated memory.
  85:Middlewares/LVGL/GUI/lvgl/src/draw/../misc/lv_mem.h ****  * Its content will be copied to the new memory block and freed
  86:Middlewares/LVGL/GUI/lvgl/src/draw/../misc/lv_mem.h ****  * @param new_size the desired new size in byte
  87:Middlewares/LVGL/GUI/lvgl/src/draw/../misc/lv_mem.h ****  * @return pointer to the new memory, NULL on failure
  88:Middlewares/LVGL/GUI/lvgl/src/draw/../misc/lv_mem.h ****  */
  89:Middlewares/LVGL/GUI/lvgl/src/draw/../misc/lv_mem.h **** void * lv_mem_realloc(void * data_p, size_t new_size);
  90:Middlewares/LVGL/GUI/lvgl/src/draw/../misc/lv_mem.h **** 
  91:Middlewares/LVGL/GUI/lvgl/src/draw/../misc/lv_mem.h **** /**
  92:Middlewares/LVGL/GUI/lvgl/src/draw/../misc/lv_mem.h ****  *
  93:Middlewares/LVGL/GUI/lvgl/src/draw/../misc/lv_mem.h ****  * @return
  94:Middlewares/LVGL/GUI/lvgl/src/draw/../misc/lv_mem.h ****  */
  95:Middlewares/LVGL/GUI/lvgl/src/draw/../misc/lv_mem.h **** lv_res_t lv_mem_test(void);
  96:Middlewares/LVGL/GUI/lvgl/src/draw/../misc/lv_mem.h **** 
  97:Middlewares/LVGL/GUI/lvgl/src/draw/../misc/lv_mem.h **** /**
  98:Middlewares/LVGL/GUI/lvgl/src/draw/../misc/lv_mem.h ****  * Give information about the work memory of dynamic allocation
  99:Middlewares/LVGL/GUI/lvgl/src/draw/../misc/lv_mem.h ****  * @param mon_p pointer to a lv_mem_monitor_t variable,
 100:Middlewares/LVGL/GUI/lvgl/src/draw/../misc/lv_mem.h ****  *              the result of the analysis will be stored here
 101:Middlewares/LVGL/GUI/lvgl/src/draw/../misc/lv_mem.h ****  */
 102:Middlewares/LVGL/GUI/lvgl/src/draw/../misc/lv_mem.h **** void lv_mem_monitor(lv_mem_monitor_t * mon_p);
 103:Middlewares/LVGL/GUI/lvgl/src/draw/../misc/lv_mem.h **** 
 104:Middlewares/LVGL/GUI/lvgl/src/draw/../misc/lv_mem.h **** 
 105:Middlewares/LVGL/GUI/lvgl/src/draw/../misc/lv_mem.h **** /**
 106:Middlewares/LVGL/GUI/lvgl/src/draw/../misc/lv_mem.h ****  * Get a temporal buffer with the given size.
 107:Middlewares/LVGL/GUI/lvgl/src/draw/../misc/lv_mem.h ****  * @param size the required size
 108:Middlewares/LVGL/GUI/lvgl/src/draw/../misc/lv_mem.h ****  */
 109:Middlewares/LVGL/GUI/lvgl/src/draw/../misc/lv_mem.h **** void * lv_mem_buf_get(uint32_t size);
 110:Middlewares/LVGL/GUI/lvgl/src/draw/../misc/lv_mem.h **** 
 111:Middlewares/LVGL/GUI/lvgl/src/draw/../misc/lv_mem.h **** /**
 112:Middlewares/LVGL/GUI/lvgl/src/draw/../misc/lv_mem.h ****  * Release a memory buffer
 113:Middlewares/LVGL/GUI/lvgl/src/draw/../misc/lv_mem.h ****  * @param p buffer to release
 114:Middlewares/LVGL/GUI/lvgl/src/draw/../misc/lv_mem.h ****  */
ARM GAS  C:\Users\ADMINI~1\AppData\Local\Temp\ccM5otpk.s 			page 51


 115:Middlewares/LVGL/GUI/lvgl/src/draw/../misc/lv_mem.h **** void lv_mem_buf_release(void * p);
 116:Middlewares/LVGL/GUI/lvgl/src/draw/../misc/lv_mem.h **** 
 117:Middlewares/LVGL/GUI/lvgl/src/draw/../misc/lv_mem.h **** /**
 118:Middlewares/LVGL/GUI/lvgl/src/draw/../misc/lv_mem.h ****  * Free all memory buffers
 119:Middlewares/LVGL/GUI/lvgl/src/draw/../misc/lv_mem.h ****  */
 120:Middlewares/LVGL/GUI/lvgl/src/draw/../misc/lv_mem.h **** void lv_mem_buf_free_all(void);
 121:Middlewares/LVGL/GUI/lvgl/src/draw/../misc/lv_mem.h **** 
 122:Middlewares/LVGL/GUI/lvgl/src/draw/../misc/lv_mem.h **** //! @cond Doxygen_Suppress
 123:Middlewares/LVGL/GUI/lvgl/src/draw/../misc/lv_mem.h **** 
 124:Middlewares/LVGL/GUI/lvgl/src/draw/../misc/lv_mem.h **** #if LV_MEMCPY_MEMSET_STD
 125:Middlewares/LVGL/GUI/lvgl/src/draw/../misc/lv_mem.h **** 
 126:Middlewares/LVGL/GUI/lvgl/src/draw/../misc/lv_mem.h **** /**
 127:Middlewares/LVGL/GUI/lvgl/src/draw/../misc/lv_mem.h ****  * Wrapper for the standard memcpy
 128:Middlewares/LVGL/GUI/lvgl/src/draw/../misc/lv_mem.h ****  * @param dst pointer to the destination buffer
 129:Middlewares/LVGL/GUI/lvgl/src/draw/../misc/lv_mem.h ****  * @param src pointer to the source buffer
 130:Middlewares/LVGL/GUI/lvgl/src/draw/../misc/lv_mem.h ****  * @param len number of byte to copy
 131:Middlewares/LVGL/GUI/lvgl/src/draw/../misc/lv_mem.h ****  */
 132:Middlewares/LVGL/GUI/lvgl/src/draw/../misc/lv_mem.h **** static inline void * lv_memcpy(void * dst, const void * src, size_t len)
 133:Middlewares/LVGL/GUI/lvgl/src/draw/../misc/lv_mem.h **** {
 134:Middlewares/LVGL/GUI/lvgl/src/draw/../misc/lv_mem.h ****     return memcpy(dst, src, len);
 135:Middlewares/LVGL/GUI/lvgl/src/draw/../misc/lv_mem.h **** }
 136:Middlewares/LVGL/GUI/lvgl/src/draw/../misc/lv_mem.h **** 
 137:Middlewares/LVGL/GUI/lvgl/src/draw/../misc/lv_mem.h **** /**
 138:Middlewares/LVGL/GUI/lvgl/src/draw/../misc/lv_mem.h ****  * Wrapper for the standard memcpy
 139:Middlewares/LVGL/GUI/lvgl/src/draw/../misc/lv_mem.h ****  * @param dst pointer to the destination buffer
 140:Middlewares/LVGL/GUI/lvgl/src/draw/../misc/lv_mem.h ****  * @param src pointer to the source buffer
 141:Middlewares/LVGL/GUI/lvgl/src/draw/../misc/lv_mem.h ****  * @param len number of byte to copy
 142:Middlewares/LVGL/GUI/lvgl/src/draw/../misc/lv_mem.h ****  */
 143:Middlewares/LVGL/GUI/lvgl/src/draw/../misc/lv_mem.h **** static inline void * lv_memcpy_small(void * dst, const void * src, size_t len)
 144:Middlewares/LVGL/GUI/lvgl/src/draw/../misc/lv_mem.h **** {
 145:Middlewares/LVGL/GUI/lvgl/src/draw/../misc/lv_mem.h ****     return memcpy(dst, src, len);
 146:Middlewares/LVGL/GUI/lvgl/src/draw/../misc/lv_mem.h **** }
 147:Middlewares/LVGL/GUI/lvgl/src/draw/../misc/lv_mem.h **** 
 148:Middlewares/LVGL/GUI/lvgl/src/draw/../misc/lv_mem.h **** /**
 149:Middlewares/LVGL/GUI/lvgl/src/draw/../misc/lv_mem.h ****  * Wrapper for the standard memset
 150:Middlewares/LVGL/GUI/lvgl/src/draw/../misc/lv_mem.h ****  * @param dst pointer to the destination buffer
 151:Middlewares/LVGL/GUI/lvgl/src/draw/../misc/lv_mem.h ****  * @param v value to set [0..255]
 152:Middlewares/LVGL/GUI/lvgl/src/draw/../misc/lv_mem.h ****  * @param len number of byte to set
 153:Middlewares/LVGL/GUI/lvgl/src/draw/../misc/lv_mem.h ****  */
 154:Middlewares/LVGL/GUI/lvgl/src/draw/../misc/lv_mem.h **** static inline void lv_memset(void * dst, uint8_t v, size_t len)
 155:Middlewares/LVGL/GUI/lvgl/src/draw/../misc/lv_mem.h **** {
 156:Middlewares/LVGL/GUI/lvgl/src/draw/../misc/lv_mem.h ****     memset(dst, v, len);
 157:Middlewares/LVGL/GUI/lvgl/src/draw/../misc/lv_mem.h **** }
 158:Middlewares/LVGL/GUI/lvgl/src/draw/../misc/lv_mem.h **** 
 159:Middlewares/LVGL/GUI/lvgl/src/draw/../misc/lv_mem.h **** /**
 160:Middlewares/LVGL/GUI/lvgl/src/draw/../misc/lv_mem.h ****  * Wrapper for the standard memset with fixed 0x00 value
 161:Middlewares/LVGL/GUI/lvgl/src/draw/../misc/lv_mem.h ****  * @param dst pointer to the destination buffer
 162:Middlewares/LVGL/GUI/lvgl/src/draw/../misc/lv_mem.h ****  * @param len number of byte to set
 163:Middlewares/LVGL/GUI/lvgl/src/draw/../misc/lv_mem.h ****  */
 164:Middlewares/LVGL/GUI/lvgl/src/draw/../misc/lv_mem.h **** static inline void lv_memset_00(void * dst, size_t len)
 165:Middlewares/LVGL/GUI/lvgl/src/draw/../misc/lv_mem.h **** {
 166:Middlewares/LVGL/GUI/lvgl/src/draw/../misc/lv_mem.h ****     memset(dst, 0x00, len);
 167:Middlewares/LVGL/GUI/lvgl/src/draw/../misc/lv_mem.h **** }
 168:Middlewares/LVGL/GUI/lvgl/src/draw/../misc/lv_mem.h **** 
 169:Middlewares/LVGL/GUI/lvgl/src/draw/../misc/lv_mem.h **** /**
 170:Middlewares/LVGL/GUI/lvgl/src/draw/../misc/lv_mem.h ****  * Wrapper for the standard memset with fixed 0xFF value
 171:Middlewares/LVGL/GUI/lvgl/src/draw/../misc/lv_mem.h ****  * @param dst pointer to the destination buffer
ARM GAS  C:\Users\ADMINI~1\AppData\Local\Temp\ccM5otpk.s 			page 52


 172:Middlewares/LVGL/GUI/lvgl/src/draw/../misc/lv_mem.h ****  * @param len number of byte to set
 173:Middlewares/LVGL/GUI/lvgl/src/draw/../misc/lv_mem.h ****  */
 174:Middlewares/LVGL/GUI/lvgl/src/draw/../misc/lv_mem.h **** static inline void lv_memset_ff(void * dst, size_t len)
 175:Middlewares/LVGL/GUI/lvgl/src/draw/../misc/lv_mem.h **** {
 176:Middlewares/LVGL/GUI/lvgl/src/draw/../misc/lv_mem.h ****     memset(dst, 0xFF, len);
 177:Middlewares/LVGL/GUI/lvgl/src/draw/../misc/lv_mem.h **** }
 178:Middlewares/LVGL/GUI/lvgl/src/draw/../misc/lv_mem.h **** 
 179:Middlewares/LVGL/GUI/lvgl/src/draw/../misc/lv_mem.h **** #else
 180:Middlewares/LVGL/GUI/lvgl/src/draw/../misc/lv_mem.h **** /**
 181:Middlewares/LVGL/GUI/lvgl/src/draw/../misc/lv_mem.h ****  * Same as `memcpy` but optimized for 4 byte operation.
 182:Middlewares/LVGL/GUI/lvgl/src/draw/../misc/lv_mem.h ****  * @param dst pointer to the destination buffer
 183:Middlewares/LVGL/GUI/lvgl/src/draw/../misc/lv_mem.h ****  * @param src pointer to the source buffer
 184:Middlewares/LVGL/GUI/lvgl/src/draw/../misc/lv_mem.h ****  * @param len number of byte to copy
 185:Middlewares/LVGL/GUI/lvgl/src/draw/../misc/lv_mem.h ****  */
 186:Middlewares/LVGL/GUI/lvgl/src/draw/../misc/lv_mem.h **** LV_ATTRIBUTE_FAST_MEM void * lv_memcpy(void * dst, const void * src, size_t len);
 187:Middlewares/LVGL/GUI/lvgl/src/draw/../misc/lv_mem.h **** 
 188:Middlewares/LVGL/GUI/lvgl/src/draw/../misc/lv_mem.h **** /**
 189:Middlewares/LVGL/GUI/lvgl/src/draw/../misc/lv_mem.h ****  * Same as `memcpy` but optimized to copy only a few bytes.
 190:Middlewares/LVGL/GUI/lvgl/src/draw/../misc/lv_mem.h ****  * @param dst pointer to the destination buffer
 191:Middlewares/LVGL/GUI/lvgl/src/draw/../misc/lv_mem.h ****  * @param src pointer to the source buffer
 192:Middlewares/LVGL/GUI/lvgl/src/draw/../misc/lv_mem.h ****  * @param len number of byte to copy
 193:Middlewares/LVGL/GUI/lvgl/src/draw/../misc/lv_mem.h ****  */
 194:Middlewares/LVGL/GUI/lvgl/src/draw/../misc/lv_mem.h **** LV_ATTRIBUTE_FAST_MEM static inline void * lv_memcpy_small(void * dst, const void * src, size_t len
 982              		.loc 6 194 44 is_stmt 1 view .LVU331
 983              	.LBB69:
 195:Middlewares/LVGL/GUI/lvgl/src/draw/../misc/lv_mem.h **** {
 196:Middlewares/LVGL/GUI/lvgl/src/draw/../misc/lv_mem.h ****     uint8_t * d8 = (uint8_t *)dst;
 984              		.loc 6 196 5 view .LVU332
 197:Middlewares/LVGL/GUI/lvgl/src/draw/../misc/lv_mem.h ****     const uint8_t * s8 = (const uint8_t *)src;
 985              		.loc 6 197 5 view .LVU333
 198:Middlewares/LVGL/GUI/lvgl/src/draw/../misc/lv_mem.h **** 
 199:Middlewares/LVGL/GUI/lvgl/src/draw/../misc/lv_mem.h ****     while(len) {
 986              		.loc 6 199 5 view .LVU334
 196:Middlewares/LVGL/GUI/lvgl/src/draw/../misc/lv_mem.h ****     const uint8_t * s8 = (const uint8_t *)src;
 987              		.loc 6 196 15 is_stmt 0 view .LVU335
 988 02a6 15AA     		add	r2, sp, #84
 989              	.LVL96:
 990              		.loc 6 199 10 view .LVU336
 991 02a8 0623     		movs	r3, #6
 992 02aa 04E0     		b	.L43
 993              	.LVL97:
 994              	.L44:
 200:Middlewares/LVGL/GUI/lvgl/src/draw/../misc/lv_mem.h ****         *d8 = *s8;
 995              		.loc 6 200 9 is_stmt 1 view .LVU337
 996              		.loc 6 200 15 is_stmt 0 view .LVU338
 997 02ac 11F8010B 		ldrb	r0, [r1], #1	@ zero_extendqisi2
 998              	.LVL98:
 999              		.loc 6 200 13 view .LVU339
 1000 02b0 02F8010B 		strb	r0, [r2], #1
 1001              	.LVL99:
 201:Middlewares/LVGL/GUI/lvgl/src/draw/../misc/lv_mem.h ****         d8++;
 1002              		.loc 6 201 9 is_stmt 1 view .LVU340
 202:Middlewares/LVGL/GUI/lvgl/src/draw/../misc/lv_mem.h ****         s8++;
 1003              		.loc 6 202 9 view .LVU341
 203:Middlewares/LVGL/GUI/lvgl/src/draw/../misc/lv_mem.h ****         len--;
 1004              		.loc 6 203 9 view .LVU342
 1005              		.loc 6 203 12 is_stmt 0 view .LVU343
ARM GAS  C:\Users\ADMINI~1\AppData\Local\Temp\ccM5otpk.s 			page 53


 1006 02b4 013B     		subs	r3, r3, #1
 1007              	.LVL100:
 1008              	.L43:
 199:Middlewares/LVGL/GUI/lvgl/src/draw/../misc/lv_mem.h ****         *d8 = *s8;
 1009              		.loc 6 199 10 is_stmt 1 view .LVU344
 1010 02b6 002B     		cmp	r3, #0
 1011 02b8 F8D1     		bne	.L44
 204:Middlewares/LVGL/GUI/lvgl/src/draw/../misc/lv_mem.h ****     }
 205:Middlewares/LVGL/GUI/lvgl/src/draw/../misc/lv_mem.h **** 
 206:Middlewares/LVGL/GUI/lvgl/src/draw/../misc/lv_mem.h ****     return dst;
 1012              		.loc 6 206 5 view .LVU345
 1013              	.LVL101:
 1014              		.loc 6 206 5 is_stmt 0 view .LVU346
 1015              	.LBE69:
 1016              	.LBE68:
 267:Middlewares/LVGL/GUI/lvgl/src/draw/lv_draw_label.c ****                             int r, g, b;
 1017              		.loc 1 267 29 is_stmt 1 view .LVU347
 267:Middlewares/LVGL/GUI/lvgl/src/draw/lv_draw_label.c ****                             int r, g, b;
 1018              		.loc 1 267 59 is_stmt 0 view .LVU348
 1019 02ba 8DF85A30 		strb	r3, [sp, #90]
 268:Middlewares/LVGL/GUI/lvgl/src/draw/lv_draw_label.c ****                             r       = (hex_char_to_num(buf[0]) << 4) + hex_char_to_num(buf[1]);
 1020              		.loc 1 268 29 is_stmt 1 view .LVU349
 269:Middlewares/LVGL/GUI/lvgl/src/draw/lv_draw_label.c ****                             g       = (hex_char_to_num(buf[2]) << 4) + hex_char_to_num(buf[3]);
 1021              		.loc 1 269 29 view .LVU350
 269:Middlewares/LVGL/GUI/lvgl/src/draw/lv_draw_label.c ****                             g       = (hex_char_to_num(buf[2]) << 4) + hex_char_to_num(buf[3]);
 1022              		.loc 1 269 40 is_stmt 0 view .LVU351
 1023 02be 9DF85400 		ldrb	r0, [sp, #84]	@ zero_extendqisi2
 1024 02c2 FFF7FEFF 		bl	hex_char_to_num
 1025              	.LVL102:
 269:Middlewares/LVGL/GUI/lvgl/src/draw/lv_draw_label.c ****                             g       = (hex_char_to_num(buf[2]) << 4) + hex_char_to_num(buf[3]);
 1026              		.loc 1 269 64 view .LVU352
 1027 02c6 0501     		lsls	r5, r0, #4
 269:Middlewares/LVGL/GUI/lvgl/src/draw/lv_draw_label.c ****                             g       = (hex_char_to_num(buf[2]) << 4) + hex_char_to_num(buf[3]);
 1028              		.loc 1 269 72 view .LVU353
 1029 02c8 9DF85500 		ldrb	r0, [sp, #85]	@ zero_extendqisi2
 1030 02cc FFF7FEFF 		bl	hex_char_to_num
 1031              	.LVL103:
 269:Middlewares/LVGL/GUI/lvgl/src/draw/lv_draw_label.c ****                             g       = (hex_char_to_num(buf[2]) << 4) + hex_char_to_num(buf[3]);
 1032              		.loc 1 269 37 view .LVU354
 1033 02d0 2B18     		adds	r3, r5, r0
 1034 02d2 0593     		str	r3, [sp, #20]
 1035              	.LVL104:
 270:Middlewares/LVGL/GUI/lvgl/src/draw/lv_draw_label.c ****                             b       = (hex_char_to_num(buf[4]) << 4) + hex_char_to_num(buf[5]);
 1036              		.loc 1 270 29 is_stmt 1 view .LVU355
 270:Middlewares/LVGL/GUI/lvgl/src/draw/lv_draw_label.c ****                             b       = (hex_char_to_num(buf[4]) << 4) + hex_char_to_num(buf[5]);
 1037              		.loc 1 270 40 is_stmt 0 view .LVU356
 1038 02d4 9DF85600 		ldrb	r0, [sp, #86]	@ zero_extendqisi2
 1039 02d8 FFF7FEFF 		bl	hex_char_to_num
 1040              	.LVL105:
 270:Middlewares/LVGL/GUI/lvgl/src/draw/lv_draw_label.c ****                             b       = (hex_char_to_num(buf[4]) << 4) + hex_char_to_num(buf[5]);
 1041              		.loc 1 270 64 view .LVU357
 1042 02dc 0501     		lsls	r5, r0, #4
 270:Middlewares/LVGL/GUI/lvgl/src/draw/lv_draw_label.c ****                             b       = (hex_char_to_num(buf[4]) << 4) + hex_char_to_num(buf[5]);
 1043              		.loc 1 270 72 view .LVU358
 1044 02de 9DF85700 		ldrb	r0, [sp, #87]	@ zero_extendqisi2
 1045 02e2 FFF7FEFF 		bl	hex_char_to_num
 1046              	.LVL106:
ARM GAS  C:\Users\ADMINI~1\AppData\Local\Temp\ccM5otpk.s 			page 54


 270:Middlewares/LVGL/GUI/lvgl/src/draw/lv_draw_label.c ****                             b       = (hex_char_to_num(buf[4]) << 4) + hex_char_to_num(buf[5]);
 1047              		.loc 1 270 37 view .LVU359
 1048 02e6 0544     		add	r5, r5, r0
 1049              	.LVL107:
 271:Middlewares/LVGL/GUI/lvgl/src/draw/lv_draw_label.c ****                             recolor = lv_color_make(r, g, b);
 1050              		.loc 1 271 29 is_stmt 1 view .LVU360
 271:Middlewares/LVGL/GUI/lvgl/src/draw/lv_draw_label.c ****                             recolor = lv_color_make(r, g, b);
 1051              		.loc 1 271 40 is_stmt 0 view .LVU361
 1052 02e8 9DF85800 		ldrb	r0, [sp, #88]	@ zero_extendqisi2
 1053 02ec FFF7FEFF 		bl	hex_char_to_num
 1054              	.LVL108:
 271:Middlewares/LVGL/GUI/lvgl/src/draw/lv_draw_label.c ****                             recolor = lv_color_make(r, g, b);
 1055              		.loc 1 271 64 view .LVU362
 1056 02f0 0701     		lsls	r7, r0, #4
 1057              	.LVL109:
 271:Middlewares/LVGL/GUI/lvgl/src/draw/lv_draw_label.c ****                             recolor = lv_color_make(r, g, b);
 1058              		.loc 1 271 72 view .LVU363
 1059 02f2 9DF85900 		ldrb	r0, [sp, #89]	@ zero_extendqisi2
 1060 02f6 FFF7FEFF 		bl	hex_char_to_num
 1061              	.LVL110:
 271:Middlewares/LVGL/GUI/lvgl/src/draw/lv_draw_label.c ****                             recolor = lv_color_make(r, g, b);
 1062              		.loc 1 271 37 view .LVU364
 1063 02fa 3B18     		adds	r3, r7, r0
 1064              	.LVL111:
 272:Middlewares/LVGL/GUI/lvgl/src/draw/lv_draw_label.c ****                         }
 1065              		.loc 1 272 29 is_stmt 1 view .LVU365
 1066              	.LBB70:
 1067              	.LBI70:
 592:Middlewares/LVGL/GUI/lvgl/src/draw/../misc/lv_color.h **** {
 1068              		.loc 2 592 26 view .LVU366
 1069              	.LBB71:
 594:Middlewares/LVGL/GUI/lvgl/src/draw/../misc/lv_color.h **** }
 1070              		.loc 2 594 5 view .LVU367
 594:Middlewares/LVGL/GUI/lvgl/src/draw/../misc/lv_color.h **** }
 1071              		.loc 2 594 39 is_stmt 0 view .LVU368
 1072 02fc C3F3C403 		ubfx	r3, r3, #3, #5
 1073              	.LVL112:
 594:Middlewares/LVGL/GUI/lvgl/src/draw/../misc/lv_color.h **** }
 1074              		.loc 2 594 39 view .LVU369
 1075 0300 C5F38505 		ubfx	r5, r5, #2, #6
 1076              	.LVL113:
 594:Middlewares/LVGL/GUI/lvgl/src/draw/../misc/lv_color.h **** }
 1077              		.loc 2 594 39 view .LVU370
 1078 0304 059A     		ldr	r2, [sp, #20]
 1079 0306 C2F3C402 		ubfx	r2, r2, #3, #5
 594:Middlewares/LVGL/GUI/lvgl/src/draw/../misc/lv_color.h **** }
 1080              		.loc 2 594 12 view .LVU371
 1081 030a 1199     		ldr	r1, [sp, #68]
 1082 030c 63F30401 		bfi	r1, r3, #0, #5
 1083 0310 0B46     		mov	r3, r1
 1084 0312 65F34A13 		bfi	r3, r5, #5, #6
 1085 0316 62F3CF23 		bfi	r3, r2, #11, #5
 1086 031a ADF84430 		strh	r3, [sp, #68]	@ movhi
 1087 031e ADF82E30 		strh	r3, [sp, #46]	@ movhi
 1088              	.LVL114:
 594:Middlewares/LVGL/GUI/lvgl/src/draw/../misc/lv_color.h **** }
 1089              		.loc 2 594 12 view .LVU372
ARM GAS  C:\Users\ADMINI~1\AppData\Local\Temp\ccM5otpk.s 			page 55


 1090              	.LBE71:
 1091              	.LBE70:
 1092              	.LBE67:
 277:Middlewares/LVGL/GUI/lvgl/src/draw/lv_draw_label.c ****                     }
 1093              		.loc 1 277 35 view .LVU373
 1094 0322 0227     		movs	r7, #2
 1095              	.LVL115:
 277:Middlewares/LVGL/GUI/lvgl/src/draw/lv_draw_label.c ****                     }
 1096              		.loc 1 277 35 view .LVU374
 1097 0324 13E0     		b	.L35
 1098              	.LVL116:
 1099              	.L65:
 252:Middlewares/LVGL/GUI/lvgl/src/draw/lv_draw_label.c ****                     }
 1100              		.loc 1 252 35 view .LVU375
 1101 0326 0027     		movs	r7, #0
 1102              	.LVL117:
 252:Middlewares/LVGL/GUI/lvgl/src/draw/lv_draw_label.c ****                     }
 1103              		.loc 1 252 35 view .LVU376
 1104 0328 34E0     		b	.L37
 1105              	.LVL118:
 1106              	.L79:
 285:Middlewares/LVGL/GUI/lvgl/src/draw/lv_draw_label.c **** 
 1107              		.loc 1 285 43 is_stmt 1 discriminator 1 view .LVU377
 285:Middlewares/LVGL/GUI/lvgl/src/draw/lv_draw_label.c **** 
 1108              		.loc 1 285 49 is_stmt 0 discriminator 1 view .LVU378
 1109 032a BDF82EA0 		ldrh	r10, [sp, #46]
 1110 032e 35E0     		b	.L45
 1111              	.LVL119:
 1112              	.L46:
 301:Middlewares/LVGL/GUI/lvgl/src/draw/lv_draw_label.c ****             lv_draw_letter(draw_ctx, &dsc_mod, &pos, letter);
 1113              		.loc 1 301 13 is_stmt 1 view .LVU379
 301:Middlewares/LVGL/GUI/lvgl/src/draw/lv_draw_label.c ****             lv_draw_letter(draw_ctx, &dsc_mod, &pos, letter);
 1114              		.loc 1 301 27 is_stmt 0 view .LVU380
 1115 0330 ADF8E8A0 		strh	r10, [sp, #232]	@ movhi
 302:Middlewares/LVGL/GUI/lvgl/src/draw/lv_draw_label.c **** 
 1116              		.loc 1 302 13 is_stmt 1 view .LVU381
 1117 0334 129B     		ldr	r3, [sp, #72]
 1118 0336 31AA     		add	r2, sp, #196
 1119 0338 37A9     		add	r1, sp, #220
 1120 033a 0798     		ldr	r0, [sp, #28]
 1121 033c FFF7FEFF 		bl	lv_draw_letter
 1122              	.LVL120:
 304:Middlewares/LVGL/GUI/lvgl/src/draw/lv_draw_label.c ****                 pos.x += letter_w + dsc->letter_space;
 1123              		.loc 1 304 13 view .LVU382
 304:Middlewares/LVGL/GUI/lvgl/src/draw/lv_draw_label.c ****                 pos.x += letter_w + dsc->letter_space;
 1124              		.loc 1 304 15 is_stmt 0 view .LVU383
 1125 0340 002D     		cmp	r5, #0
 1126 0342 04DD     		ble	.L35
 305:Middlewares/LVGL/GUI/lvgl/src/draw/lv_draw_label.c ****             }
 1127              		.loc 1 305 17 is_stmt 1 view .LVU384
 305:Middlewares/LVGL/GUI/lvgl/src/draw/lv_draw_label.c ****             }
 1128              		.loc 1 305 40 is_stmt 0 view .LVU385
 1129 0344 A369     		ldr	r3, [r4, #24]
 305:Middlewares/LVGL/GUI/lvgl/src/draw/lv_draw_label.c ****             }
 1130              		.loc 1 305 35 view .LVU386
 1131 0346 1D44     		add	r5, r5, r3
 1132              	.LVL121:
ARM GAS  C:\Users\ADMINI~1\AppData\Local\Temp\ccM5otpk.s 			page 56


 305:Middlewares/LVGL/GUI/lvgl/src/draw/lv_draw_label.c ****             }
 1133              		.loc 1 305 23 view .LVU387
 1134 0348 319B     		ldr	r3, [sp, #196]
 1135 034a 2B44     		add	r3, r3, r5
 1136 034c 3193     		str	r3, [sp, #196]
 1137              	.LVL122:
 1138              	.L35:
 305:Middlewares/LVGL/GUI/lvgl/src/draw/lv_draw_label.c ****             }
 1139              		.loc 1 305 23 view .LVU388
 1140              	.LBE66:
 228:Middlewares/LVGL/GUI/lvgl/src/draw/lv_draw_label.c ****             uint32_t logical_char_pos = 0;
 1141              		.loc 1 228 14 is_stmt 1 view .LVU389
 228:Middlewares/LVGL/GUI/lvgl/src/draw/lv_draw_label.c ****             uint32_t logical_char_pos = 0;
 1142              		.loc 1 228 28 is_stmt 0 view .LVU390
 1143 034e ABEB0903 		sub	r3, fp, r9
 1144              	.LVL123:
 228:Middlewares/LVGL/GUI/lvgl/src/draw/lv_draw_label.c ****             uint32_t logical_char_pos = 0;
 1145              		.loc 1 228 17 view .LVU391
 1146 0352 2B99     		ldr	r1, [sp, #172]
 228:Middlewares/LVGL/GUI/lvgl/src/draw/lv_draw_label.c ****             uint32_t logical_char_pos = 0;
 1147              		.loc 1 228 14 view .LVU392
 1148 0354 8B42     		cmp	r3, r1
 1149 0356 47D9     		bls	.L76
 1150              	.LBB73:
 229:Middlewares/LVGL/GUI/lvgl/src/draw/lv_draw_label.c ****             if(sel_start != 0xFFFF && sel_end != 0xFFFF) {
 1151              		.loc 1 229 13 is_stmt 1 view .LVU393
 1152              	.LVL124:
 230:Middlewares/LVGL/GUI/lvgl/src/draw/lv_draw_label.c **** #if LV_USE_BIDI
 1153              		.loc 1 230 13 view .LVU394
 230:Middlewares/LVGL/GUI/lvgl/src/draw/lv_draw_label.c **** #if LV_USE_BIDI
 1154              		.loc 1 230 15 is_stmt 0 view .LVU395
 1155 0358 4FF6FF73 		movw	r3, #65535
 1156 035c 9845     		cmp	r8, r3
 1157 035e 82D0     		beq	.L63
 230:Middlewares/LVGL/GUI/lvgl/src/draw/lv_draw_label.c **** #if LV_USE_BIDI
 1158              		.loc 1 230 36 discriminator 1 view .LVU396
 1159 0360 9E42     		cmp	r6, r3
 1160 0362 83D0     		beq	.L64
 236:Middlewares/LVGL/GUI/lvgl/src/draw/lv_draw_label.c **** #endif
 1161              		.loc 1 236 17 is_stmt 1 view .LVU397
 236:Middlewares/LVGL/GUI/lvgl/src/draw/lv_draw_label.c **** #endif
 1162              		.loc 1 236 36 is_stmt 0 view .LVU398
 1163 0364 6E4B     		ldr	r3, .L84
 1164 0366 1B68     		ldr	r3, [r3]
 1165 0368 4944     		add	r1, r1, r9
 1166 036a 0898     		ldr	r0, [sp, #32]
 1167 036c 9847     		blx	r3
 1168              	.LVL125:
 1169 036e 0590     		str	r0, [sp, #20]
 1170              	.LVL126:
 1171              	.L36:
 240:Middlewares/LVGL/GUI/lvgl/src/draw/lv_draw_label.c ****             uint32_t letter_next;
 1172              		.loc 1 240 13 is_stmt 1 view .LVU399
 241:Middlewares/LVGL/GUI/lvgl/src/draw/lv_draw_label.c ****             _lv_txt_encoded_letter_next_2(bidi_txt, &letter, &letter_next, &i);
 1173              		.loc 1 241 13 view .LVU400
 242:Middlewares/LVGL/GUI/lvgl/src/draw/lv_draw_label.c ****             /*Handle the re-color command*/
 1174              		.loc 1 242 13 view .LVU401
ARM GAS  C:\Users\ADMINI~1\AppData\Local\Temp\ccM5otpk.s 			page 57


 1175 0370 2BAB     		add	r3, sp, #172
 1176 0372 13AA     		add	r2, sp, #76
 1177 0374 12A9     		add	r1, sp, #72
 1178 0376 0698     		ldr	r0, [sp, #24]
 1179 0378 FFF7FEFF 		bl	_lv_txt_encoded_letter_next_2
 1180              	.LVL127:
 244:Middlewares/LVGL/GUI/lvgl/src/draw/lv_draw_label.c ****                 if(letter == (uint32_t)LV_TXT_COLOR_CMD[0]) {
 1181              		.loc 1 244 13 view .LVU402
 244:Middlewares/LVGL/GUI/lvgl/src/draw/lv_draw_label.c ****                 if(letter == (uint32_t)LV_TXT_COLOR_CMD[0]) {
 1182              		.loc 1 244 20 is_stmt 0 view .LVU403
 1183 037c 94F82730 		ldrb	r3, [r4, #39]	@ zero_extendqisi2
 244:Middlewares/LVGL/GUI/lvgl/src/draw/lv_draw_label.c ****                 if(letter == (uint32_t)LV_TXT_COLOR_CMD[0]) {
 1184              		.loc 1 244 15 view .LVU404
 1185 0380 13F0010F 		tst	r3, #1
 1186 0384 06D0     		beq	.L37
 245:Middlewares/LVGL/GUI/lvgl/src/draw/lv_draw_label.c ****                     if(cmd_state == CMD_STATE_WAIT) { /*Start char*/
 1187              		.loc 1 245 17 is_stmt 1 view .LVU405
 245:Middlewares/LVGL/GUI/lvgl/src/draw/lv_draw_label.c ****                     if(cmd_state == CMD_STATE_WAIT) { /*Start char*/
 1188              		.loc 1 245 27 is_stmt 0 view .LVU406
 1189 0386 129B     		ldr	r3, [sp, #72]
 245:Middlewares/LVGL/GUI/lvgl/src/draw/lv_draw_label.c ****                     if(cmd_state == CMD_STATE_WAIT) { /*Start char*/
 1190              		.loc 1 245 19 view .LVU407
 1191 0388 232B     		cmp	r3, #35
 1192 038a 3FF472AF 		beq	.L77
 1193              	.L38:
 261:Middlewares/LVGL/GUI/lvgl/src/draw/lv_draw_label.c ****                     if(letter == ' ') {
 1194              		.loc 1 261 17 is_stmt 1 view .LVU408
 261:Middlewares/LVGL/GUI/lvgl/src/draw/lv_draw_label.c ****                     if(letter == ' ') {
 1195              		.loc 1 261 19 is_stmt 0 view .LVU409
 1196 038e 012F     		cmp	r7, #1
 1197 0390 3FF47BAF 		beq	.L78
 1198              	.LVL128:
 1199              	.L37:
 283:Middlewares/LVGL/GUI/lvgl/src/draw/lv_draw_label.c **** 
 1200              		.loc 1 283 13 is_stmt 1 view .LVU410
 283:Middlewares/LVGL/GUI/lvgl/src/draw/lv_draw_label.c **** 
 1201              		.loc 1 283 19 is_stmt 0 view .LVU411
 1202 0394 B4F80CA0 		ldrh	r10, [r4, #12]
 1203              	.LVL129:
 285:Middlewares/LVGL/GUI/lvgl/src/draw/lv_draw_label.c **** 
 1204              		.loc 1 285 13 is_stmt 1 view .LVU412
 285:Middlewares/LVGL/GUI/lvgl/src/draw/lv_draw_label.c **** 
 1205              		.loc 1 285 15 is_stmt 0 view .LVU413
 1206 0398 022F     		cmp	r7, #2
 1207 039a C6D0     		beq	.L79
 1208              	.L45:
 287:Middlewares/LVGL/GUI/lvgl/src/draw/lv_draw_label.c **** 
 1209              		.loc 1 287 13 is_stmt 1 view .LVU414
 287:Middlewares/LVGL/GUI/lvgl/src/draw/lv_draw_label.c **** 
 1210              		.loc 1 287 24 is_stmt 0 view .LVU415
 1211 039c 139A     		ldr	r2, [sp, #76]
 1212 039e 1299     		ldr	r1, [sp, #72]
 1213 03a0 0498     		ldr	r0, [sp, #16]
 1214 03a2 FFF7FEFF 		bl	lv_font_get_glyph_width
 1215              	.LVL130:
 1216 03a6 0546     		mov	r5, r0
 1217              	.LVL131:
ARM GAS  C:\Users\ADMINI~1\AppData\Local\Temp\ccM5otpk.s 			page 58


 289:Middlewares/LVGL/GUI/lvgl/src/draw/lv_draw_label.c ****                 if(logical_char_pos >= sel_start && logical_char_pos < sel_end) {
 1218              		.loc 1 289 13 is_stmt 1 view .LVU416
 289:Middlewares/LVGL/GUI/lvgl/src/draw/lv_draw_label.c ****                 if(logical_char_pos >= sel_start && logical_char_pos < sel_end) {
 1219              		.loc 1 289 15 is_stmt 0 view .LVU417
 1220 03a8 4FF6FF73 		movw	r3, #65535
 1221 03ac 9845     		cmp	r8, r3
 1222 03ae BFD0     		beq	.L46
 289:Middlewares/LVGL/GUI/lvgl/src/draw/lv_draw_label.c ****                 if(logical_char_pos >= sel_start && logical_char_pos < sel_end) {
 1223              		.loc 1 289 36 discriminator 1 view .LVU418
 1224 03b0 9E42     		cmp	r6, r3
 1225 03b2 BDD0     		beq	.L46
 290:Middlewares/LVGL/GUI/lvgl/src/draw/lv_draw_label.c ****                     lv_area_t sel_coords;
 1226              		.loc 1 290 17 is_stmt 1 view .LVU419
 290:Middlewares/LVGL/GUI/lvgl/src/draw/lv_draw_label.c ****                     lv_area_t sel_coords;
 1227              		.loc 1 290 19 is_stmt 0 view .LVU420
 1228 03b4 059B     		ldr	r3, [sp, #20]
 1229 03b6 9845     		cmp	r8, r3
 1230 03b8 BAD8     		bhi	.L46
 290:Middlewares/LVGL/GUI/lvgl/src/draw/lv_draw_label.c ****                     lv_area_t sel_coords;
 1231              		.loc 1 290 50 discriminator 1 view .LVU421
 1232 03ba 9E42     		cmp	r6, r3
 1233 03bc B8D9     		bls	.L46
 1234              	.LBB72:
 291:Middlewares/LVGL/GUI/lvgl/src/draw/lv_draw_label.c ****                     sel_coords.x1 = pos.x;
 1235              		.loc 1 291 21 is_stmt 1 view .LVU422
 292:Middlewares/LVGL/GUI/lvgl/src/draw/lv_draw_label.c ****                     sel_coords.y1 = pos.y;
 1236              		.loc 1 292 21 view .LVU423
 292:Middlewares/LVGL/GUI/lvgl/src/draw/lv_draw_label.c ****                     sel_coords.y1 = pos.y;
 1237              		.loc 1 292 40 is_stmt 0 view .LVU424
 1238 03be 319B     		ldr	r3, [sp, #196]
 292:Middlewares/LVGL/GUI/lvgl/src/draw/lv_draw_label.c ****                     sel_coords.y1 = pos.y;
 1239              		.loc 1 292 35 view .LVU425
 1240 03c0 1593     		str	r3, [sp, #84]
 293:Middlewares/LVGL/GUI/lvgl/src/draw/lv_draw_label.c ****                     sel_coords.x2 = pos.x + letter_w + dsc->letter_space - 1;
 1241              		.loc 1 293 21 is_stmt 1 view .LVU426
 293:Middlewares/LVGL/GUI/lvgl/src/draw/lv_draw_label.c ****                     sel_coords.x2 = pos.x + letter_w + dsc->letter_space - 1;
 1242              		.loc 1 293 40 is_stmt 0 view .LVU427
 1243 03c2 329A     		ldr	r2, [sp, #200]
 293:Middlewares/LVGL/GUI/lvgl/src/draw/lv_draw_label.c ****                     sel_coords.x2 = pos.x + letter_w + dsc->letter_space - 1;
 1244              		.loc 1 293 35 view .LVU428
 1245 03c4 1692     		str	r2, [sp, #88]
 294:Middlewares/LVGL/GUI/lvgl/src/draw/lv_draw_label.c ****                     sel_coords.y2 = pos.y + line_height - 1;
 1246              		.loc 1 294 21 is_stmt 1 view .LVU429
 294:Middlewares/LVGL/GUI/lvgl/src/draw/lv_draw_label.c ****                     sel_coords.y2 = pos.y + line_height - 1;
 1247              		.loc 1 294 43 is_stmt 0 view .LVU430
 1248 03c6 0344     		add	r3, r3, r0
 294:Middlewares/LVGL/GUI/lvgl/src/draw/lv_draw_label.c ****                     sel_coords.y2 = pos.y + line_height - 1;
 1249              		.loc 1 294 59 view .LVU431
 1250 03c8 A169     		ldr	r1, [r4, #24]
 294:Middlewares/LVGL/GUI/lvgl/src/draw/lv_draw_label.c ****                     sel_coords.y2 = pos.y + line_height - 1;
 1251              		.loc 1 294 54 view .LVU432
 1252 03ca 0B44     		add	r3, r3, r1
 294:Middlewares/LVGL/GUI/lvgl/src/draw/lv_draw_label.c ****                     sel_coords.y2 = pos.y + line_height - 1;
 1253              		.loc 1 294 74 view .LVU433
 1254 03cc 013B     		subs	r3, r3, #1
 294:Middlewares/LVGL/GUI/lvgl/src/draw/lv_draw_label.c ****                     sel_coords.y2 = pos.y + line_height - 1;
 1255              		.loc 1 294 35 view .LVU434
ARM GAS  C:\Users\ADMINI~1\AppData\Local\Temp\ccM5otpk.s 			page 59


 1256 03ce 1793     		str	r3, [sp, #92]
 295:Middlewares/LVGL/GUI/lvgl/src/draw/lv_draw_label.c ****                     lv_draw_rect(draw_ctx, &draw_dsc_sel, &sel_coords);
 1257              		.loc 1 295 21 is_stmt 1 view .LVU435
 295:Middlewares/LVGL/GUI/lvgl/src/draw/lv_draw_label.c ****                     lv_draw_rect(draw_ctx, &draw_dsc_sel, &sel_coords);
 1258              		.loc 1 295 43 is_stmt 0 view .LVU436
 1259 03d0 0D9B     		ldr	r3, [sp, #52]
 1260 03d2 1A44     		add	r2, r2, r3
 295:Middlewares/LVGL/GUI/lvgl/src/draw/lv_draw_label.c ****                     lv_draw_rect(draw_ctx, &draw_dsc_sel, &sel_coords);
 1261              		.loc 1 295 57 view .LVU437
 1262 03d4 013A     		subs	r2, r2, #1
 295:Middlewares/LVGL/GUI/lvgl/src/draw/lv_draw_label.c ****                     lv_draw_rect(draw_ctx, &draw_dsc_sel, &sel_coords);
 1263              		.loc 1 295 35 view .LVU438
 1264 03d6 1892     		str	r2, [sp, #96]
 296:Middlewares/LVGL/GUI/lvgl/src/draw/lv_draw_label.c ****                     color = dsc->sel_color;
 1265              		.loc 1 296 21 is_stmt 1 view .LVU439
 1266 03d8 15AA     		add	r2, sp, #84
 1267 03da 19A9     		add	r1, sp, #100
 1268 03dc 0798     		ldr	r0, [sp, #28]
 1269              	.LVL132:
 296:Middlewares/LVGL/GUI/lvgl/src/draw/lv_draw_label.c ****                     color = dsc->sel_color;
 1270              		.loc 1 296 21 is_stmt 0 view .LVU440
 1271 03de FFF7FEFF 		bl	lv_draw_rect
 1272              	.LVL133:
 297:Middlewares/LVGL/GUI/lvgl/src/draw/lv_draw_label.c ****                 }
 1273              		.loc 1 297 21 is_stmt 1 view .LVU441
 297:Middlewares/LVGL/GUI/lvgl/src/draw/lv_draw_label.c ****                 }
 1274              		.loc 1 297 27 is_stmt 0 view .LVU442
 1275 03e2 B4F80EA0 		ldrh	r10, [r4, #14]
 1276 03e6 A3E7     		b	.L46
 1277              	.LVL134:
 1278              	.L76:
 297:Middlewares/LVGL/GUI/lvgl/src/draw/lv_draw_label.c ****                 }
 1279              		.loc 1 297 27 view .LVU443
 1280              	.LBE72:
 1281              	.LBE73:
 309:Middlewares/LVGL/GUI/lvgl/src/draw/lv_draw_label.c ****             lv_point_t p1;
 1282              		.loc 1 309 9 is_stmt 1 view .LVU444
 309:Middlewares/LVGL/GUI/lvgl/src/draw/lv_draw_label.c ****             lv_point_t p1;
 1283              		.loc 1 309 15 is_stmt 0 view .LVU445
 1284 03e8 94F82830 		ldrb	r3, [r4, #40]	@ zero_extendqisi2
 309:Middlewares/LVGL/GUI/lvgl/src/draw/lv_draw_label.c ****             lv_point_t p1;
 1285              		.loc 1 309 11 view .LVU446
 1286 03ec 13F0020F 		tst	r3, #2
 1287 03f0 39D1     		bne	.L80
 1288              	.L50:
 320:Middlewares/LVGL/GUI/lvgl/src/draw/lv_draw_label.c ****             lv_point_t p1;
 1289              		.loc 1 320 9 is_stmt 1 view .LVU447
 320:Middlewares/LVGL/GUI/lvgl/src/draw/lv_draw_label.c ****             lv_point_t p1;
 1290              		.loc 1 320 15 is_stmt 0 view .LVU448
 1291 03f2 94F82830 		ldrb	r3, [r4, #40]	@ zero_extendqisi2
 320:Middlewares/LVGL/GUI/lvgl/src/draw/lv_draw_label.c ****             lv_point_t p1;
 1292              		.loc 1 320 11 view .LVU449
 1293 03f6 13F0010F 		tst	r3, #1
 1294 03fa 4FD1     		bne	.L81
 1295              	.L51:
 336:Middlewares/LVGL/GUI/lvgl/src/draw/lv_draw_label.c ****         line_end += _lv_txt_get_next_line(&txt[line_start], font, dsc->letter_space, w, NULL, dsc->
 1296              		.loc 1 336 9 is_stmt 1 view .LVU450
ARM GAS  C:\Users\ADMINI~1\AppData\Local\Temp\ccM5otpk.s 			page 60


 1297              	.LVL135:
 337:Middlewares/LVGL/GUI/lvgl/src/draw/lv_draw_label.c **** 
 1298              		.loc 1 337 9 view .LVU451
 337:Middlewares/LVGL/GUI/lvgl/src/draw/lv_draw_label.c **** 
 1299              		.loc 1 337 21 is_stmt 0 view .LVU452
 1300 03fc 089B     		ldr	r3, [sp, #32]
 1301 03fe 03EB0B05 		add	r5, r3, fp
 1302 0402 94F82730 		ldrb	r3, [r4, #39]	@ zero_extendqisi2
 1303 0406 0193     		str	r3, [sp, #4]
 1304 0408 0023     		movs	r3, #0
 1305 040a 0093     		str	r3, [sp]
 1306 040c 0A9B     		ldr	r3, [sp, #40]
 1307 040e A269     		ldr	r2, [r4, #24]
 1308 0410 0499     		ldr	r1, [sp, #16]
 1309 0412 2846     		mov	r0, r5
 1310 0414 FFF7FEFF 		bl	_lv_txt_get_next_line
 1311              	.LVL136:
 337:Middlewares/LVGL/GUI/lvgl/src/draw/lv_draw_label.c **** 
 1312              		.loc 1 337 18 view .LVU453
 1313 0418 0BEB0007 		add	r7, fp, r0
 1314              	.LVL137:
 339:Middlewares/LVGL/GUI/lvgl/src/draw/lv_draw_label.c ****         /*Align to middle*/
 1315              		.loc 1 339 9 is_stmt 1 view .LVU454
 339:Middlewares/LVGL/GUI/lvgl/src/draw/lv_draw_label.c ****         /*Align to middle*/
 1316              		.loc 1 339 23 is_stmt 0 view .LVU455
 1317 041c 099B     		ldr	r3, [sp, #36]
 1318 041e 1B68     		ldr	r3, [r3]
 339:Middlewares/LVGL/GUI/lvgl/src/draw/lv_draw_label.c ****         /*Align to middle*/
 1319              		.loc 1 339 15 view .LVU456
 1320 0420 3193     		str	r3, [sp, #196]
 341:Middlewares/LVGL/GUI/lvgl/src/draw/lv_draw_label.c ****             line_width =
 1321              		.loc 1 341 9 is_stmt 1 view .LVU457
 341:Middlewares/LVGL/GUI/lvgl/src/draw/lv_draw_label.c ****             line_width =
 1322              		.loc 1 341 11 is_stmt 0 view .LVU458
 1323 0422 0C9B     		ldr	r3, [sp, #48]
 1324 0424 022B     		cmp	r3, #2
 1325 0426 52D0     		beq	.L82
 349:Middlewares/LVGL/GUI/lvgl/src/draw/lv_draw_label.c ****             line_width =
 1326              		.loc 1 349 14 is_stmt 1 view .LVU459
 349:Middlewares/LVGL/GUI/lvgl/src/draw/lv_draw_label.c ****             line_width =
 1327              		.loc 1 349 16 is_stmt 0 view .LVU460
 1328 0428 0C9B     		ldr	r3, [sp, #48]
 1329 042a 032B     		cmp	r3, #3
 1330 042c 65D0     		beq	.L83
 1331              	.L53:
 356:Middlewares/LVGL/GUI/lvgl/src/draw/lv_draw_label.c **** 
 1332              		.loc 1 356 9 is_stmt 1 view .LVU461
 356:Middlewares/LVGL/GUI/lvgl/src/draw/lv_draw_label.c **** 
 1333              		.loc 1 356 15 is_stmt 0 view .LVU462
 1334 042e 329B     		ldr	r3, [sp, #200]
 1335 0430 0D9A     		ldr	r2, [sp, #52]
 1336 0432 1344     		add	r3, r3, r2
 1337 0434 3293     		str	r3, [sp, #200]
 358:Middlewares/LVGL/GUI/lvgl/src/draw/lv_draw_label.c ****     }
 1338              		.loc 1 358 9 is_stmt 1 view .LVU463
 358:Middlewares/LVGL/GUI/lvgl/src/draw/lv_draw_label.c ****     }
 1339              		.loc 1 358 28 is_stmt 0 view .LVU464
ARM GAS  C:\Users\ADMINI~1\AppData\Local\Temp\ccM5otpk.s 			page 61


 1340 0436 079A     		ldr	r2, [sp, #28]
 1341 0438 9268     		ldr	r2, [r2, #8]
 358:Middlewares/LVGL/GUI/lvgl/src/draw/lv_draw_label.c ****     }
 1342              		.loc 1 358 39 view .LVU465
 1343 043a D268     		ldr	r2, [r2, #12]
 336:Middlewares/LVGL/GUI/lvgl/src/draw/lv_draw_label.c ****         line_end += _lv_txt_get_next_line(&txt[line_start], font, dsc->letter_space, w, NULL, dsc->
 1344              		.loc 1 336 20 view .LVU466
 1345 043c D946     		mov	r9, fp
 358:Middlewares/LVGL/GUI/lvgl/src/draw/lv_draw_label.c ****     }
 1346              		.loc 1 358 11 view .LVU467
 1347 043e 9342     		cmp	r3, r2
 1348 0440 3FF701AE 		bgt	.L18
 1349              	.LVL138:
 337:Middlewares/LVGL/GUI/lvgl/src/draw/lv_draw_label.c **** 
 1350              		.loc 1 337 18 view .LVU468
 1351 0444 BB46     		mov	fp, r7
 1352              	.LVL139:
 1353              	.L34:
 337:Middlewares/LVGL/GUI/lvgl/src/draw/lv_draw_label.c **** 
 1354              		.loc 1 337 18 view .LVU469
 1355              	.LBE65:
 215:Middlewares/LVGL/GUI/lvgl/src/draw/lv_draw_label.c ****         pos.x += x_ofs;
 1356              		.loc 1 215 10 is_stmt 1 view .LVU470
 215:Middlewares/LVGL/GUI/lvgl/src/draw/lv_draw_label.c ****         pos.x += x_ofs;
 1357              		.loc 1 215 14 is_stmt 0 view .LVU471
 1358 0446 089B     		ldr	r3, [sp, #32]
 1359 0448 03EB0902 		add	r2, r3, r9
 1360 044c 0692     		str	r2, [sp, #24]
 1361 044e 13F80930 		ldrb	r3, [r3, r9]	@ zero_extendqisi2
 215:Middlewares/LVGL/GUI/lvgl/src/draw/lv_draw_label.c ****         pos.x += x_ofs;
 1362              		.loc 1 215 10 view .LVU472
 1363 0452 002B     		cmp	r3, #0
 1364 0454 3FF4F7AD 		beq	.L18
 1365              	.LBB80:
 216:Middlewares/LVGL/GUI/lvgl/src/draw/lv_draw_label.c **** 
 1366              		.loc 1 216 9 is_stmt 1 view .LVU473
 216:Middlewares/LVGL/GUI/lvgl/src/draw/lv_draw_label.c **** 
 1367              		.loc 1 216 15 is_stmt 0 view .LVU474
 1368 0458 319B     		ldr	r3, [sp, #196]
 1369 045a 0E9A     		ldr	r2, [sp, #56]
 1370 045c 1344     		add	r3, r3, r2
 1371 045e 3193     		str	r3, [sp, #196]
 219:Middlewares/LVGL/GUI/lvgl/src/draw/lv_draw_label.c ****         i         = 0;
 1372              		.loc 1 219 9 is_stmt 1 view .LVU475
 1373              	.LVL140:
 220:Middlewares/LVGL/GUI/lvgl/src/draw/lv_draw_label.c **** #if LV_USE_BIDI
 1374              		.loc 1 220 9 view .LVU476
 220:Middlewares/LVGL/GUI/lvgl/src/draw/lv_draw_label.c **** #if LV_USE_BIDI
 1375              		.loc 1 220 19 is_stmt 0 view .LVU477
 1376 0460 0027     		movs	r7, #0
 1377 0462 2B97     		str	r7, [sp, #172]
 225:Middlewares/LVGL/GUI/lvgl/src/draw/lv_draw_label.c **** #endif
 1378              		.loc 1 225 9 is_stmt 1 view .LVU478
 1379              	.LVL141:
 228:Middlewares/LVGL/GUI/lvgl/src/draw/lv_draw_label.c ****             uint32_t logical_char_pos = 0;
 1380              		.loc 1 228 9 view .LVU479
 228:Middlewares/LVGL/GUI/lvgl/src/draw/lv_draw_label.c ****             uint32_t logical_char_pos = 0;
ARM GAS  C:\Users\ADMINI~1\AppData\Local\Temp\ccM5otpk.s 			page 62


 1381              		.loc 1 228 14 is_stmt 0 view .LVU480
 1382 0464 73E7     		b	.L35
 1383              	.LVL142:
 1384              	.L80:
 1385              	.LBB74:
 310:Middlewares/LVGL/GUI/lvgl/src/draw/lv_draw_label.c ****             lv_point_t p2;
 1386              		.loc 1 310 13 is_stmt 1 view .LVU481
 311:Middlewares/LVGL/GUI/lvgl/src/draw/lv_draw_label.c ****             p1.x = pos_x_start;
 1387              		.loc 1 311 13 view .LVU482
 312:Middlewares/LVGL/GUI/lvgl/src/draw/lv_draw_label.c ****             p1.y = pos.y + (dsc->font->line_height / 2)  + line_dsc.width / 2;
 1388              		.loc 1 312 13 view .LVU483
 312:Middlewares/LVGL/GUI/lvgl/src/draw/lv_draw_label.c ****             p1.y = pos.y + (dsc->font->line_height / 2)  + line_dsc.width / 2;
 1389              		.loc 1 312 18 is_stmt 0 view .LVU484
 1390 0466 109B     		ldr	r3, [sp, #64]
 1391 0468 1393     		str	r3, [sp, #76]
 313:Middlewares/LVGL/GUI/lvgl/src/draw/lv_draw_label.c ****             p2.x = pos.x;
 1392              		.loc 1 313 13 is_stmt 1 view .LVU485
 313:Middlewares/LVGL/GUI/lvgl/src/draw/lv_draw_label.c ****             p2.x = pos.x;
 1393              		.loc 1 313 32 is_stmt 0 view .LVU486
 1394 046a 2368     		ldr	r3, [r4]
 313:Middlewares/LVGL/GUI/lvgl/src/draw/lv_draw_label.c ****             p2.x = pos.x;
 1395              		.loc 1 313 38 view .LVU487
 1396 046c 9A68     		ldr	r2, [r3, #8]
 313:Middlewares/LVGL/GUI/lvgl/src/draw/lv_draw_label.c ****             p2.x = pos.x;
 1397              		.loc 1 313 52 view .LVU488
 1398 046e 02EBD272 		add	r2, r2, r2, lsr #31
 313:Middlewares/LVGL/GUI/lvgl/src/draw/lv_draw_label.c ****             p2.x = pos.x;
 1399              		.loc 1 313 26 view .LVU489
 1400 0472 329B     		ldr	r3, [sp, #200]
 1401 0474 03EB6203 		add	r3, r3, r2, asr #1
 313:Middlewares/LVGL/GUI/lvgl/src/draw/lv_draw_label.c ****             p2.x = pos.x;
 1402              		.loc 1 313 68 view .LVU490
 1403 0478 2D9A     		ldr	r2, [sp, #180]
 313:Middlewares/LVGL/GUI/lvgl/src/draw/lv_draw_label.c ****             p2.x = pos.x;
 1404              		.loc 1 313 75 view .LVU491
 1405 047a 02EBD272 		add	r2, r2, r2, lsr #31
 313:Middlewares/LVGL/GUI/lvgl/src/draw/lv_draw_label.c ****             p2.x = pos.x;
 1406              		.loc 1 313 58 view .LVU492
 1407 047e 03EB6203 		add	r3, r3, r2, asr #1
 313:Middlewares/LVGL/GUI/lvgl/src/draw/lv_draw_label.c ****             p2.x = pos.x;
 1408              		.loc 1 313 18 view .LVU493
 1409 0482 1493     		str	r3, [sp, #80]
 314:Middlewares/LVGL/GUI/lvgl/src/draw/lv_draw_label.c ****             p2.y = p1.y;
 1410              		.loc 1 314 13 is_stmt 1 view .LVU494
 314:Middlewares/LVGL/GUI/lvgl/src/draw/lv_draw_label.c ****             p2.y = p1.y;
 1411              		.loc 1 314 23 is_stmt 0 view .LVU495
 1412 0484 319A     		ldr	r2, [sp, #196]
 314:Middlewares/LVGL/GUI/lvgl/src/draw/lv_draw_label.c ****             p2.y = p1.y;
 1413              		.loc 1 314 18 view .LVU496
 1414 0486 1592     		str	r2, [sp, #84]
 315:Middlewares/LVGL/GUI/lvgl/src/draw/lv_draw_label.c ****             line_dsc.color = color;
 1415              		.loc 1 315 13 is_stmt 1 view .LVU497
 315:Middlewares/LVGL/GUI/lvgl/src/draw/lv_draw_label.c ****             line_dsc.color = color;
 1416              		.loc 1 315 18 is_stmt 0 view .LVU498
 1417 0488 1693     		str	r3, [sp, #88]
 316:Middlewares/LVGL/GUI/lvgl/src/draw/lv_draw_label.c ****             lv_draw_line(draw_ctx, &line_dsc, &p1, &p2);
 1418              		.loc 1 316 13 is_stmt 1 view .LVU499
ARM GAS  C:\Users\ADMINI~1\AppData\Local\Temp\ccM5otpk.s 			page 63


 316:Middlewares/LVGL/GUI/lvgl/src/draw/lv_draw_label.c ****             lv_draw_line(draw_ctx, &line_dsc, &p1, &p2);
 1419              		.loc 1 316 28 is_stmt 0 view .LVU500
 1420 048a ADF8B0A0 		strh	r10, [sp, #176]	@ movhi
 317:Middlewares/LVGL/GUI/lvgl/src/draw/lv_draw_label.c ****         }
 1421              		.loc 1 317 13 is_stmt 1 view .LVU501
 1422 048e 15AB     		add	r3, sp, #84
 1423 0490 13AA     		add	r2, sp, #76
 1424 0492 2CA9     		add	r1, sp, #176
 1425 0494 0798     		ldr	r0, [sp, #28]
 1426 0496 FFF7FEFF 		bl	lv_draw_line
 1427              	.LVL143:
 1428 049a AAE7     		b	.L50
 1429              	.L81:
 317:Middlewares/LVGL/GUI/lvgl/src/draw/lv_draw_label.c ****         }
 1430              		.loc 1 317 13 is_stmt 0 view .LVU502
 1431              	.LBE74:
 1432              	.LBB75:
 321:Middlewares/LVGL/GUI/lvgl/src/draw/lv_draw_label.c ****             lv_point_t p2;
 1433              		.loc 1 321 13 is_stmt 1 view .LVU503
 322:Middlewares/LVGL/GUI/lvgl/src/draw/lv_draw_label.c ****             p1.x = pos_x_start;
 1434              		.loc 1 322 13 view .LVU504
 323:Middlewares/LVGL/GUI/lvgl/src/draw/lv_draw_label.c ****             p1.y = pos.y + dsc->font->line_height - dsc->font->base_line - font->underline_position
 1435              		.loc 1 323 13 view .LVU505
 323:Middlewares/LVGL/GUI/lvgl/src/draw/lv_draw_label.c ****             p1.y = pos.y + dsc->font->line_height - dsc->font->base_line - font->underline_position
 1436              		.loc 1 323 18 is_stmt 0 view .LVU506
 1437 049c 109B     		ldr	r3, [sp, #64]
 1438 049e 1393     		str	r3, [sp, #76]
 324:Middlewares/LVGL/GUI/lvgl/src/draw/lv_draw_label.c ****             p2.x = pos.x;
 1439              		.loc 1 324 13 is_stmt 1 view .LVU507
 324:Middlewares/LVGL/GUI/lvgl/src/draw/lv_draw_label.c ****             p2.x = pos.x;
 1440              		.loc 1 324 31 is_stmt 0 view .LVU508
 1441 04a0 2268     		ldr	r2, [r4]
 324:Middlewares/LVGL/GUI/lvgl/src/draw/lv_draw_label.c ****             p2.x = pos.x;
 1442              		.loc 1 324 37 view .LVU509
 1443 04a2 9168     		ldr	r1, [r2, #8]
 324:Middlewares/LVGL/GUI/lvgl/src/draw/lv_draw_label.c ****             p2.x = pos.x;
 1444              		.loc 1 324 26 view .LVU510
 1445 04a4 329B     		ldr	r3, [sp, #200]
 1446 04a6 0B44     		add	r3, r3, r1
 324:Middlewares/LVGL/GUI/lvgl/src/draw/lv_draw_label.c ****             p2.x = pos.x;
 1447              		.loc 1 324 62 view .LVU511
 1448 04a8 D268     		ldr	r2, [r2, #12]
 324:Middlewares/LVGL/GUI/lvgl/src/draw/lv_draw_label.c ****             p2.x = pos.x;
 1449              		.loc 1 324 51 view .LVU512
 1450 04aa 9B1A     		subs	r3, r3, r2
 324:Middlewares/LVGL/GUI/lvgl/src/draw/lv_draw_label.c ****             p2.x = pos.x;
 1451              		.loc 1 324 80 view .LVU513
 1452 04ac 049A     		ldr	r2, [sp, #16]
 1453 04ae 92F91120 		ldrsb	r2, [r2, #17]
 324:Middlewares/LVGL/GUI/lvgl/src/draw/lv_draw_label.c ****             p2.x = pos.x;
 1454              		.loc 1 324 74 view .LVU514
 1455 04b2 9B1A     		subs	r3, r3, r2
 324:Middlewares/LVGL/GUI/lvgl/src/draw/lv_draw_label.c ****             p2.x = pos.x;
 1456              		.loc 1 324 18 view .LVU515
 1457 04b4 1493     		str	r3, [sp, #80]
 325:Middlewares/LVGL/GUI/lvgl/src/draw/lv_draw_label.c ****             p2.y = p1.y;
 1458              		.loc 1 325 13 is_stmt 1 view .LVU516
ARM GAS  C:\Users\ADMINI~1\AppData\Local\Temp\ccM5otpk.s 			page 64


 325:Middlewares/LVGL/GUI/lvgl/src/draw/lv_draw_label.c ****             p2.y = p1.y;
 1459              		.loc 1 325 23 is_stmt 0 view .LVU517
 1460 04b6 319A     		ldr	r2, [sp, #196]
 325:Middlewares/LVGL/GUI/lvgl/src/draw/lv_draw_label.c ****             p2.y = p1.y;
 1461              		.loc 1 325 18 view .LVU518
 1462 04b8 1592     		str	r2, [sp, #84]
 326:Middlewares/LVGL/GUI/lvgl/src/draw/lv_draw_label.c ****             line_dsc.color = color;
 1463              		.loc 1 326 13 is_stmt 1 view .LVU519
 326:Middlewares/LVGL/GUI/lvgl/src/draw/lv_draw_label.c ****             line_dsc.color = color;
 1464              		.loc 1 326 18 is_stmt 0 view .LVU520
 1465 04ba 1693     		str	r3, [sp, #88]
 327:Middlewares/LVGL/GUI/lvgl/src/draw/lv_draw_label.c ****             lv_draw_line(draw_ctx, &line_dsc, &p1, &p2);
 1466              		.loc 1 327 13 is_stmt 1 view .LVU521
 327:Middlewares/LVGL/GUI/lvgl/src/draw/lv_draw_label.c ****             lv_draw_line(draw_ctx, &line_dsc, &p1, &p2);
 1467              		.loc 1 327 28 is_stmt 0 view .LVU522
 1468 04bc ADF8B0A0 		strh	r10, [sp, #176]	@ movhi
 328:Middlewares/LVGL/GUI/lvgl/src/draw/lv_draw_label.c ****         }
 1469              		.loc 1 328 13 is_stmt 1 view .LVU523
 1470 04c0 15AB     		add	r3, sp, #84
 1471 04c2 13AA     		add	r2, sp, #76
 1472 04c4 2CA9     		add	r1, sp, #176
 1473 04c6 0798     		ldr	r0, [sp, #28]
 1474 04c8 FFF7FEFF 		bl	lv_draw_line
 1475              	.LVL144:
 1476 04cc 96E7     		b	.L51
 1477              	.LVL145:
 1478              	.L82:
 328:Middlewares/LVGL/GUI/lvgl/src/draw/lv_draw_label.c ****         }
 1479              		.loc 1 328 13 is_stmt 0 view .LVU524
 1480              	.LBE75:
 342:Middlewares/LVGL/GUI/lvgl/src/draw/lv_draw_label.c ****                 lv_txt_get_width(&txt[line_start], line_end - line_start, font, dsc->letter_space, 
 1481              		.loc 1 342 13 is_stmt 1 view .LVU525
 343:Middlewares/LVGL/GUI/lvgl/src/draw/lv_draw_label.c **** 
 1482              		.loc 1 343 17 is_stmt 0 view .LVU526
 1483 04ce 94F82730 		ldrb	r3, [r4, #39]	@ zero_extendqisi2
 1484 04d2 0093     		str	r3, [sp]
 1485 04d4 A369     		ldr	r3, [r4, #24]
 1486 04d6 049A     		ldr	r2, [sp, #16]
 1487 04d8 0146     		mov	r1, r0
 1488 04da 2846     		mov	r0, r5
 1489 04dc FFF7FEFF 		bl	lv_txt_get_width
 1490              	.LVL146:
 345:Middlewares/LVGL/GUI/lvgl/src/draw/lv_draw_label.c **** 
 1491              		.loc 1 345 13 is_stmt 1 view .LVU527
 1492              	.LBB76:
 1493              	.LBI76:
 123:Middlewares/LVGL/GUI/lvgl/src/draw/../misc/../font/../misc/lv_area.h **** {
 1494              		.loc 4 123 26 view .LVU528
 1495              	.LBB77:
 1496              		.loc 4 125 5 view .LVU529
 1497              		.loc 4 125 31 is_stmt 0 view .LVU530
 1498 04e0 099A     		ldr	r2, [sp, #36]
 1499 04e2 9368     		ldr	r3, [r2, #8]
 1500              		.loc 4 125 44 view .LVU531
 1501 04e4 1268     		ldr	r2, [r2]
 1502              		.loc 4 125 36 view .LVU532
 1503 04e6 9B1A     		subs	r3, r3, r2
ARM GAS  C:\Users\ADMINI~1\AppData\Local\Temp\ccM5otpk.s 			page 65


 1504              		.loc 4 125 12 view .LVU533
 1505 04e8 0133     		adds	r3, r3, #1
 1506              	.LVL147:
 1507              		.loc 4 125 12 view .LVU534
 1508              	.LBE77:
 1509              	.LBE76:
 345:Middlewares/LVGL/GUI/lvgl/src/draw/lv_draw_label.c **** 
 1510              		.loc 1 345 49 view .LVU535
 1511 04ea 181A     		subs	r0, r3, r0
 1512              	.LVL148:
 345:Middlewares/LVGL/GUI/lvgl/src/draw/lv_draw_label.c **** 
 1513              		.loc 1 345 63 view .LVU536
 1514 04ec 00EBD070 		add	r0, r0, r0, lsr #31
 345:Middlewares/LVGL/GUI/lvgl/src/draw/lv_draw_label.c **** 
 1515              		.loc 1 345 19 view .LVU537
 1516 04f0 319B     		ldr	r3, [sp, #196]
 1517 04f2 03EB6000 		add	r0, r3, r0, asr #1
 1518 04f6 3190     		str	r0, [sp, #196]
 1519 04f8 99E7     		b	.L53
 1520              	.L83:
 350:Middlewares/LVGL/GUI/lvgl/src/draw/lv_draw_label.c ****                 lv_txt_get_width(&txt[line_start], line_end - line_start, font, dsc->letter_space, 
 1521              		.loc 1 350 13 is_stmt 1 view .LVU538
 351:Middlewares/LVGL/GUI/lvgl/src/draw/lv_draw_label.c ****             pos.x += lv_area_get_width(coords) - line_width;
 1522              		.loc 1 351 17 is_stmt 0 view .LVU539
 1523 04fa 94F82730 		ldrb	r3, [r4, #39]	@ zero_extendqisi2
 1524 04fe 0093     		str	r3, [sp]
 1525 0500 A369     		ldr	r3, [r4, #24]
 1526 0502 049A     		ldr	r2, [sp, #16]
 1527 0504 0146     		mov	r1, r0
 1528 0506 2846     		mov	r0, r5
 1529 0508 FFF7FEFF 		bl	lv_txt_get_width
 1530              	.LVL149:
 352:Middlewares/LVGL/GUI/lvgl/src/draw/lv_draw_label.c ****         }
 1531              		.loc 1 352 13 is_stmt 1 view .LVU540
 1532              	.LBB78:
 1533              	.LBI78:
 123:Middlewares/LVGL/GUI/lvgl/src/draw/../misc/../font/../misc/lv_area.h **** {
 1534              		.loc 4 123 26 view .LVU541
 1535              	.LBB79:
 1536              		.loc 4 125 5 view .LVU542
 1537              		.loc 4 125 31 is_stmt 0 view .LVU543
 1538 050c 099A     		ldr	r2, [sp, #36]
 1539 050e 9368     		ldr	r3, [r2, #8]
 1540              		.loc 4 125 44 view .LVU544
 1541 0510 1268     		ldr	r2, [r2]
 1542              		.loc 4 125 36 view .LVU545
 1543 0512 9B1A     		subs	r3, r3, r2
 1544              		.loc 4 125 12 view .LVU546
 1545 0514 0133     		adds	r3, r3, #1
 1546              	.LVL150:
 1547              		.loc 4 125 12 view .LVU547
 1548              	.LBE79:
 1549              	.LBE78:
 352:Middlewares/LVGL/GUI/lvgl/src/draw/lv_draw_label.c ****         }
 1550              		.loc 1 352 48 view .LVU548
 1551 0516 1B1A     		subs	r3, r3, r0
 352:Middlewares/LVGL/GUI/lvgl/src/draw/lv_draw_label.c ****         }
ARM GAS  C:\Users\ADMINI~1\AppData\Local\Temp\ccM5otpk.s 			page 66


 1552              		.loc 1 352 19 view .LVU549
 1553 0518 319A     		ldr	r2, [sp, #196]
 1554 051a 1344     		add	r3, r3, r2
 1555 051c 3193     		str	r3, [sp, #196]
 1556 051e 86E7     		b	.L53
 1557              	.L85:
 1558              		.align	2
 1559              	.L84:
 1560 0520 00000000 		.word	_lv_txt_encoded_get_char_id
 1561              	.LBE80:
 1562              		.cfi_endproc
 1563              	.LFE154:
 1565              		.text
 1566              	.Letext0:
 1567              		.file 7 "c:\\gnu arm embedded toolchain\\10 2021.10\\arm-none-eabi\\include\\machine\\_default_typ
 1568              		.file 8 "c:\\gnu arm embedded toolchain\\10 2021.10\\arm-none-eabi\\include\\sys\\_stdint.h"
 1569              		.file 9 "c:\\gnu arm embedded toolchain\\10 2021.10\\lib\\gcc\\arm-none-eabi\\10.3.1\\include\\std
 1570              		.file 10 "Middlewares/LVGL/GUI/lvgl/src/draw/../misc/lv_types.h"
 1571              		.file 11 "Middlewares/LVGL/GUI/lvgl/src/draw/../misc/lv_txt.h"
 1572              		.file 12 "Middlewares/LVGL/GUI/lvgl/src/draw/../misc/lv_style.h"
 1573              		.file 13 "Middlewares/LVGL/GUI/lvgl/src/draw/lv_img_buf.h"
 1574              		.file 14 "Middlewares/LVGL/GUI/lvgl/src/draw/lv_draw_rect.h"
 1575              		.file 15 "Middlewares/LVGL/GUI/lvgl/src/draw/lv_draw_label.h"
 1576              		.file 16 "Middlewares/LVGL/GUI/lvgl/src/draw/lv_draw_img.h"
 1577              		.file 17 "Middlewares/LVGL/GUI/lvgl/src/draw/lv_draw_line.h"
 1578              		.file 18 "Middlewares/LVGL/GUI/lvgl/src/draw/lv_draw_arc.h"
 1579              		.file 19 "Middlewares/LVGL/GUI/lvgl/src/draw/lv_draw.h"
ARM GAS  C:\Users\ADMINI~1\AppData\Local\Temp\ccM5otpk.s 			page 67


DEFINED SYMBOLS
                            *ABS*:00000000 lv_draw_label.c
C:\Users\ADMINI~1\AppData\Local\Temp\ccM5otpk.s:20     .text.hex_char_to_num:00000000 $t
C:\Users\ADMINI~1\AppData\Local\Temp\ccM5otpk.s:25     .text.hex_char_to_num:00000000 hex_char_to_num
C:\Users\ADMINI~1\AppData\Local\Temp\ccM5otpk.s:65     .text.hex_char_to_num:0000001c $d
C:\Users\ADMINI~1\AppData\Local\Temp\ccM5otpk.s:71     .text.hex_char_to_num:00000022 $t
C:\Users\ADMINI~1\AppData\Local\Temp\ccM5otpk.s:127    .text.lv_draw_label_dsc_init:00000000 $t
C:\Users\ADMINI~1\AppData\Local\Temp\ccM5otpk.s:133    .text.lv_draw_label_dsc_init:00000000 lv_draw_label_dsc_init
C:\Users\ADMINI~1\AppData\Local\Temp\ccM5otpk.s:228    .text.lv_draw_label_dsc_init:00000038 $d
C:\Users\ADMINI~1\AppData\Local\Temp\ccM5otpk.s:233    .text.lv_draw_letter:00000000 $t
C:\Users\ADMINI~1\AppData\Local\Temp\ccM5otpk.s:239    .text.lv_draw_letter:00000000 lv_draw_letter
C:\Users\ADMINI~1\AppData\Local\Temp\ccM5otpk.s:264    .text.lv_draw_label:00000000 $t
C:\Users\ADMINI~1\AppData\Local\Temp\ccM5otpk.s:270    .text.lv_draw_label:00000000 lv_draw_label
C:\Users\ADMINI~1\AppData\Local\Temp\ccM5otpk.s:1560   .text.lv_draw_label:00000520 $d

UNDEFINED SYMBOLS
lv_memset_00
lv_palette_main
lv_font_montserrat_14
_lv_area_intersect
lv_txt_get_size
_lv_txt_get_next_line
lv_draw_rect_dsc_init
lv_txt_get_width
lv_draw_line_dsc_init
_lv_txt_encoded_letter_next_2
lv_font_get_glyph_width
lv_draw_rect
lv_draw_line
_lv_txt_encoded_get_char_id
