ARM GAS  C:\Users\ADMINI~1\AppData\Local\Temp\cciH6Em7.s 			page 1


   1              		.cpu cortex-m4
   2              		.arch armv7e-m
   3              		.fpu fpv4-sp-d16
   4              		.eabi_attribute 27, 1
   5              		.eabi_attribute 28, 1
   6              		.eabi_attribute 20, 1
   7              		.eabi_attribute 21, 1
   8              		.eabi_attribute 23, 3
   9              		.eabi_attribute 24, 1
  10              		.eabi_attribute 25, 1
  11              		.eabi_attribute 26, 1
  12              		.eabi_attribute 30, 1
  13              		.eabi_attribute 34, 1
  14              		.eabi_attribute 18, 4
  15              		.file	"lv_fs.c"
  16              		.text
  17              	.Ltext0:
  18              		.cfi_sections	.debug_frame
  19              		.section	.text.lv_fs_get_real_path,"ax",%progbits
  20              		.align	1
  21              		.syntax unified
  22              		.thumb
  23              		.thumb_func
  25              	lv_fs_get_real_path:
  26              	.LVL0:
  27              	.LFB42:
  28              		.file 1 "Middlewares/LVGL/GUI/lvgl/src/misc/lv_fs.c"
   1:Middlewares/LVGL/GUI/lvgl/src/misc/lv_fs.c **** /**
   2:Middlewares/LVGL/GUI/lvgl/src/misc/lv_fs.c ****  * @file lv_fs.c
   3:Middlewares/LVGL/GUI/lvgl/src/misc/lv_fs.c ****  *
   4:Middlewares/LVGL/GUI/lvgl/src/misc/lv_fs.c ****  */
   5:Middlewares/LVGL/GUI/lvgl/src/misc/lv_fs.c **** 
   6:Middlewares/LVGL/GUI/lvgl/src/misc/lv_fs.c **** /*********************
   7:Middlewares/LVGL/GUI/lvgl/src/misc/lv_fs.c ****  *      INCLUDES
   8:Middlewares/LVGL/GUI/lvgl/src/misc/lv_fs.c ****  *********************/
   9:Middlewares/LVGL/GUI/lvgl/src/misc/lv_fs.c **** #include "lv_fs.h"
  10:Middlewares/LVGL/GUI/lvgl/src/misc/lv_fs.c **** 
  11:Middlewares/LVGL/GUI/lvgl/src/misc/lv_fs.c **** #include "../misc/lv_assert.h"
  12:Middlewares/LVGL/GUI/lvgl/src/misc/lv_fs.c **** #include "lv_ll.h"
  13:Middlewares/LVGL/GUI/lvgl/src/misc/lv_fs.c **** #include <string.h>
  14:Middlewares/LVGL/GUI/lvgl/src/misc/lv_fs.c **** #include "lv_gc.h"
  15:Middlewares/LVGL/GUI/lvgl/src/misc/lv_fs.c **** 
  16:Middlewares/LVGL/GUI/lvgl/src/misc/lv_fs.c **** /*********************
  17:Middlewares/LVGL/GUI/lvgl/src/misc/lv_fs.c ****  *      DEFINES
  18:Middlewares/LVGL/GUI/lvgl/src/misc/lv_fs.c ****  *********************/
  19:Middlewares/LVGL/GUI/lvgl/src/misc/lv_fs.c **** 
  20:Middlewares/LVGL/GUI/lvgl/src/misc/lv_fs.c **** /**********************
  21:Middlewares/LVGL/GUI/lvgl/src/misc/lv_fs.c ****  *      TYPEDEFS
  22:Middlewares/LVGL/GUI/lvgl/src/misc/lv_fs.c ****  **********************/
  23:Middlewares/LVGL/GUI/lvgl/src/misc/lv_fs.c **** 
  24:Middlewares/LVGL/GUI/lvgl/src/misc/lv_fs.c **** /**********************
  25:Middlewares/LVGL/GUI/lvgl/src/misc/lv_fs.c ****  *  STATIC PROTOTYPES
  26:Middlewares/LVGL/GUI/lvgl/src/misc/lv_fs.c ****  **********************/
  27:Middlewares/LVGL/GUI/lvgl/src/misc/lv_fs.c **** static const char * lv_fs_get_real_path(const char * path);
  28:Middlewares/LVGL/GUI/lvgl/src/misc/lv_fs.c **** 
  29:Middlewares/LVGL/GUI/lvgl/src/misc/lv_fs.c **** /**********************
  30:Middlewares/LVGL/GUI/lvgl/src/misc/lv_fs.c ****  *  STATIC VARIABLES
ARM GAS  C:\Users\ADMINI~1\AppData\Local\Temp\cciH6Em7.s 			page 2


  31:Middlewares/LVGL/GUI/lvgl/src/misc/lv_fs.c ****  **********************/
  32:Middlewares/LVGL/GUI/lvgl/src/misc/lv_fs.c **** 
  33:Middlewares/LVGL/GUI/lvgl/src/misc/lv_fs.c **** /**********************
  34:Middlewares/LVGL/GUI/lvgl/src/misc/lv_fs.c ****  *      MACROS
  35:Middlewares/LVGL/GUI/lvgl/src/misc/lv_fs.c ****  **********************/
  36:Middlewares/LVGL/GUI/lvgl/src/misc/lv_fs.c **** 
  37:Middlewares/LVGL/GUI/lvgl/src/misc/lv_fs.c **** /**********************
  38:Middlewares/LVGL/GUI/lvgl/src/misc/lv_fs.c ****  *   GLOBAL FUNCTIONS
  39:Middlewares/LVGL/GUI/lvgl/src/misc/lv_fs.c ****  **********************/
  40:Middlewares/LVGL/GUI/lvgl/src/misc/lv_fs.c **** 
  41:Middlewares/LVGL/GUI/lvgl/src/misc/lv_fs.c **** void _lv_fs_init(void)
  42:Middlewares/LVGL/GUI/lvgl/src/misc/lv_fs.c **** {
  43:Middlewares/LVGL/GUI/lvgl/src/misc/lv_fs.c ****     _lv_ll_init(&LV_GC_ROOT(_lv_fsdrv_ll), sizeof(lv_fs_drv_t *));
  44:Middlewares/LVGL/GUI/lvgl/src/misc/lv_fs.c **** }
  45:Middlewares/LVGL/GUI/lvgl/src/misc/lv_fs.c **** 
  46:Middlewares/LVGL/GUI/lvgl/src/misc/lv_fs.c **** bool lv_fs_is_ready(char letter)
  47:Middlewares/LVGL/GUI/lvgl/src/misc/lv_fs.c **** {
  48:Middlewares/LVGL/GUI/lvgl/src/misc/lv_fs.c ****     lv_fs_drv_t * drv = lv_fs_get_drv(letter);
  49:Middlewares/LVGL/GUI/lvgl/src/misc/lv_fs.c **** 
  50:Middlewares/LVGL/GUI/lvgl/src/misc/lv_fs.c ****     if(drv == NULL) return false; /*An unknown driver in not ready*/
  51:Middlewares/LVGL/GUI/lvgl/src/misc/lv_fs.c **** 
  52:Middlewares/LVGL/GUI/lvgl/src/misc/lv_fs.c ****     if(drv->ready_cb == NULL) return true; /*Assume the driver is always ready if no handler provid
  53:Middlewares/LVGL/GUI/lvgl/src/misc/lv_fs.c **** 
  54:Middlewares/LVGL/GUI/lvgl/src/misc/lv_fs.c ****     return drv->ready_cb(drv);
  55:Middlewares/LVGL/GUI/lvgl/src/misc/lv_fs.c **** }
  56:Middlewares/LVGL/GUI/lvgl/src/misc/lv_fs.c **** 
  57:Middlewares/LVGL/GUI/lvgl/src/misc/lv_fs.c **** lv_fs_res_t lv_fs_open(lv_fs_file_t * file_p, const char * path, lv_fs_mode_t mode)
  58:Middlewares/LVGL/GUI/lvgl/src/misc/lv_fs.c **** {
  59:Middlewares/LVGL/GUI/lvgl/src/misc/lv_fs.c ****     if(path == NULL) {
  60:Middlewares/LVGL/GUI/lvgl/src/misc/lv_fs.c ****         LV_LOG_WARN("Can't open file: path is NULL");
  61:Middlewares/LVGL/GUI/lvgl/src/misc/lv_fs.c ****         return LV_FS_RES_INV_PARAM;
  62:Middlewares/LVGL/GUI/lvgl/src/misc/lv_fs.c ****     }
  63:Middlewares/LVGL/GUI/lvgl/src/misc/lv_fs.c **** 
  64:Middlewares/LVGL/GUI/lvgl/src/misc/lv_fs.c ****     char letter = path[0];
  65:Middlewares/LVGL/GUI/lvgl/src/misc/lv_fs.c ****     lv_fs_drv_t * drv = lv_fs_get_drv(letter);
  66:Middlewares/LVGL/GUI/lvgl/src/misc/lv_fs.c **** 
  67:Middlewares/LVGL/GUI/lvgl/src/misc/lv_fs.c ****     if(drv == NULL) {
  68:Middlewares/LVGL/GUI/lvgl/src/misc/lv_fs.c ****         LV_LOG_WARN("Can't open file (%s): unknown driver letter", path);
  69:Middlewares/LVGL/GUI/lvgl/src/misc/lv_fs.c ****         return LV_FS_RES_NOT_EX;
  70:Middlewares/LVGL/GUI/lvgl/src/misc/lv_fs.c ****     }
  71:Middlewares/LVGL/GUI/lvgl/src/misc/lv_fs.c **** 
  72:Middlewares/LVGL/GUI/lvgl/src/misc/lv_fs.c ****     if(drv->ready_cb) {
  73:Middlewares/LVGL/GUI/lvgl/src/misc/lv_fs.c ****         if(drv->ready_cb(drv) == false) {
  74:Middlewares/LVGL/GUI/lvgl/src/misc/lv_fs.c ****             LV_LOG_WARN("Can't open file (%s): driver not ready", path);
  75:Middlewares/LVGL/GUI/lvgl/src/misc/lv_fs.c ****             return LV_FS_RES_HW_ERR;
  76:Middlewares/LVGL/GUI/lvgl/src/misc/lv_fs.c ****         }
  77:Middlewares/LVGL/GUI/lvgl/src/misc/lv_fs.c ****     }
  78:Middlewares/LVGL/GUI/lvgl/src/misc/lv_fs.c **** 
  79:Middlewares/LVGL/GUI/lvgl/src/misc/lv_fs.c ****     if(drv->open_cb == NULL) {
  80:Middlewares/LVGL/GUI/lvgl/src/misc/lv_fs.c ****         LV_LOG_WARN("Can't open file (%s): open function not exists", path);
  81:Middlewares/LVGL/GUI/lvgl/src/misc/lv_fs.c ****         return LV_FS_RES_NOT_IMP;
  82:Middlewares/LVGL/GUI/lvgl/src/misc/lv_fs.c ****     }
  83:Middlewares/LVGL/GUI/lvgl/src/misc/lv_fs.c **** 
  84:Middlewares/LVGL/GUI/lvgl/src/misc/lv_fs.c ****     const char * real_path = lv_fs_get_real_path(path);
  85:Middlewares/LVGL/GUI/lvgl/src/misc/lv_fs.c ****     void * file_d = drv->open_cb(drv, real_path, mode);
  86:Middlewares/LVGL/GUI/lvgl/src/misc/lv_fs.c **** 
  87:Middlewares/LVGL/GUI/lvgl/src/misc/lv_fs.c ****     if(file_d == NULL || file_d == (void *)(-1)) {
ARM GAS  C:\Users\ADMINI~1\AppData\Local\Temp\cciH6Em7.s 			page 3


  88:Middlewares/LVGL/GUI/lvgl/src/misc/lv_fs.c ****         return LV_FS_RES_UNKNOWN;
  89:Middlewares/LVGL/GUI/lvgl/src/misc/lv_fs.c ****     }
  90:Middlewares/LVGL/GUI/lvgl/src/misc/lv_fs.c **** 
  91:Middlewares/LVGL/GUI/lvgl/src/misc/lv_fs.c ****     file_p->drv = drv;
  92:Middlewares/LVGL/GUI/lvgl/src/misc/lv_fs.c ****     file_p->file_d = file_d;
  93:Middlewares/LVGL/GUI/lvgl/src/misc/lv_fs.c **** 
  94:Middlewares/LVGL/GUI/lvgl/src/misc/lv_fs.c ****     if(drv->cache_size) {
  95:Middlewares/LVGL/GUI/lvgl/src/misc/lv_fs.c ****         file_p->cache = lv_mem_alloc(sizeof(lv_fs_file_cache_t));
  96:Middlewares/LVGL/GUI/lvgl/src/misc/lv_fs.c ****         LV_ASSERT_MALLOC(file_p->cache);
  97:Middlewares/LVGL/GUI/lvgl/src/misc/lv_fs.c ****         lv_memset_00(file_p->cache, sizeof(lv_fs_file_cache_t));
  98:Middlewares/LVGL/GUI/lvgl/src/misc/lv_fs.c ****     }
  99:Middlewares/LVGL/GUI/lvgl/src/misc/lv_fs.c **** 
 100:Middlewares/LVGL/GUI/lvgl/src/misc/lv_fs.c ****     return LV_FS_RES_OK;
 101:Middlewares/LVGL/GUI/lvgl/src/misc/lv_fs.c **** }
 102:Middlewares/LVGL/GUI/lvgl/src/misc/lv_fs.c **** 
 103:Middlewares/LVGL/GUI/lvgl/src/misc/lv_fs.c **** lv_fs_res_t lv_fs_close(lv_fs_file_t * file_p)
 104:Middlewares/LVGL/GUI/lvgl/src/misc/lv_fs.c **** {
 105:Middlewares/LVGL/GUI/lvgl/src/misc/lv_fs.c ****     if(file_p->drv == NULL) {
 106:Middlewares/LVGL/GUI/lvgl/src/misc/lv_fs.c ****         return LV_FS_RES_INV_PARAM;
 107:Middlewares/LVGL/GUI/lvgl/src/misc/lv_fs.c ****     }
 108:Middlewares/LVGL/GUI/lvgl/src/misc/lv_fs.c **** 
 109:Middlewares/LVGL/GUI/lvgl/src/misc/lv_fs.c ****     if(file_p->drv->close_cb == NULL) {
 110:Middlewares/LVGL/GUI/lvgl/src/misc/lv_fs.c ****         return LV_FS_RES_NOT_IMP;
 111:Middlewares/LVGL/GUI/lvgl/src/misc/lv_fs.c ****     }
 112:Middlewares/LVGL/GUI/lvgl/src/misc/lv_fs.c **** 
 113:Middlewares/LVGL/GUI/lvgl/src/misc/lv_fs.c ****     lv_fs_res_t res = file_p->drv->close_cb(file_p->drv, file_p->file_d);
 114:Middlewares/LVGL/GUI/lvgl/src/misc/lv_fs.c **** 
 115:Middlewares/LVGL/GUI/lvgl/src/misc/lv_fs.c ****     if(file_p->drv->cache_size && file_p->cache) {
 116:Middlewares/LVGL/GUI/lvgl/src/misc/lv_fs.c ****         if(file_p->cache->buffer) {
 117:Middlewares/LVGL/GUI/lvgl/src/misc/lv_fs.c ****             lv_mem_free(file_p->cache->buffer);
 118:Middlewares/LVGL/GUI/lvgl/src/misc/lv_fs.c ****         }
 119:Middlewares/LVGL/GUI/lvgl/src/misc/lv_fs.c **** 
 120:Middlewares/LVGL/GUI/lvgl/src/misc/lv_fs.c ****         lv_mem_free(file_p->cache);
 121:Middlewares/LVGL/GUI/lvgl/src/misc/lv_fs.c ****     }
 122:Middlewares/LVGL/GUI/lvgl/src/misc/lv_fs.c **** 
 123:Middlewares/LVGL/GUI/lvgl/src/misc/lv_fs.c ****     file_p->file_d = NULL;
 124:Middlewares/LVGL/GUI/lvgl/src/misc/lv_fs.c ****     file_p->drv    = NULL;
 125:Middlewares/LVGL/GUI/lvgl/src/misc/lv_fs.c ****     file_p->cache  = NULL;
 126:Middlewares/LVGL/GUI/lvgl/src/misc/lv_fs.c **** 
 127:Middlewares/LVGL/GUI/lvgl/src/misc/lv_fs.c ****     return res;
 128:Middlewares/LVGL/GUI/lvgl/src/misc/lv_fs.c **** }
 129:Middlewares/LVGL/GUI/lvgl/src/misc/lv_fs.c **** 
 130:Middlewares/LVGL/GUI/lvgl/src/misc/lv_fs.c **** static lv_fs_res_t lv_fs_read_cached(lv_fs_file_t * file_p, char * buf, uint32_t btr, uint32_t * br
 131:Middlewares/LVGL/GUI/lvgl/src/misc/lv_fs.c **** {
 132:Middlewares/LVGL/GUI/lvgl/src/misc/lv_fs.c ****     lv_fs_res_t res = LV_FS_RES_OK;
 133:Middlewares/LVGL/GUI/lvgl/src/misc/lv_fs.c ****     uint32_t file_position = file_p->cache->file_position;
 134:Middlewares/LVGL/GUI/lvgl/src/misc/lv_fs.c ****     uint32_t start = file_p->cache->start;
 135:Middlewares/LVGL/GUI/lvgl/src/misc/lv_fs.c ****     uint32_t end = file_p->cache->end;
 136:Middlewares/LVGL/GUI/lvgl/src/misc/lv_fs.c ****     char * buffer = file_p->cache->buffer;
 137:Middlewares/LVGL/GUI/lvgl/src/misc/lv_fs.c ****     uint16_t buffer_size = file_p->drv->cache_size;
 138:Middlewares/LVGL/GUI/lvgl/src/misc/lv_fs.c **** 
 139:Middlewares/LVGL/GUI/lvgl/src/misc/lv_fs.c ****     if(start <= file_position && file_position < end) {
 140:Middlewares/LVGL/GUI/lvgl/src/misc/lv_fs.c ****         /* Data can be read from cache buffer */
 141:Middlewares/LVGL/GUI/lvgl/src/misc/lv_fs.c **** 
 142:Middlewares/LVGL/GUI/lvgl/src/misc/lv_fs.c ****         uint16_t buffer_offset = file_position - start;
 143:Middlewares/LVGL/GUI/lvgl/src/misc/lv_fs.c ****         uint16_t buffer_remaining_length = buffer_size - buffer_offset;
 144:Middlewares/LVGL/GUI/lvgl/src/misc/lv_fs.c **** 
ARM GAS  C:\Users\ADMINI~1\AppData\Local\Temp\cciH6Em7.s 			page 4


 145:Middlewares/LVGL/GUI/lvgl/src/misc/lv_fs.c ****         if(btr <= buffer_remaining_length) {
 146:Middlewares/LVGL/GUI/lvgl/src/misc/lv_fs.c ****             /*Data is in cache buffer, and buffer end not reached, no need to read from FS*/
 147:Middlewares/LVGL/GUI/lvgl/src/misc/lv_fs.c ****             lv_memcpy(buf, buffer + buffer_offset, btr);
 148:Middlewares/LVGL/GUI/lvgl/src/misc/lv_fs.c ****         }
 149:Middlewares/LVGL/GUI/lvgl/src/misc/lv_fs.c ****         else {
 150:Middlewares/LVGL/GUI/lvgl/src/misc/lv_fs.c ****             /*First part of data is in cache buffer, but we need to read rest of data from FS*/
 151:Middlewares/LVGL/GUI/lvgl/src/misc/lv_fs.c ****             lv_memcpy(buf, buffer + buffer_offset, buffer_remaining_length);
 152:Middlewares/LVGL/GUI/lvgl/src/misc/lv_fs.c **** 
 153:Middlewares/LVGL/GUI/lvgl/src/misc/lv_fs.c ****             if(btr > buffer_size) {
 154:Middlewares/LVGL/GUI/lvgl/src/misc/lv_fs.c ****                 /*If remaining data chuck is bigger than buffer size, then do not use cache, instea
 155:Middlewares/LVGL/GUI/lvgl/src/misc/lv_fs.c ****                 res = file_p->drv->read_cb(file_p->drv, file_p->file_d, (void *)(buf + buffer_remai
 156:Middlewares/LVGL/GUI/lvgl/src/misc/lv_fs.c ****                                            btr - buffer_remaining_length, br);
 157:Middlewares/LVGL/GUI/lvgl/src/misc/lv_fs.c ****             }
 158:Middlewares/LVGL/GUI/lvgl/src/misc/lv_fs.c ****             else {
 159:Middlewares/LVGL/GUI/lvgl/src/misc/lv_fs.c ****                 /*If remaining data chunk is smaller than buffer size, then read into cache buffer*
 160:Middlewares/LVGL/GUI/lvgl/src/misc/lv_fs.c ****                 uint32_t bytes_read_to_buffer = 0;
 161:Middlewares/LVGL/GUI/lvgl/src/misc/lv_fs.c **** 
 162:Middlewares/LVGL/GUI/lvgl/src/misc/lv_fs.c ****                 /*Read into cache buffer:*/
 163:Middlewares/LVGL/GUI/lvgl/src/misc/lv_fs.c ****                 res = file_p->drv->read_cb(file_p->drv, file_p->file_d, (void *)buffer, buffer_size
 164:Middlewares/LVGL/GUI/lvgl/src/misc/lv_fs.c ****                 file_p->cache->start = file_p->cache->end + 1;
 165:Middlewares/LVGL/GUI/lvgl/src/misc/lv_fs.c ****                 file_p->cache->end = file_p->cache->start + bytes_read_to_buffer;
 166:Middlewares/LVGL/GUI/lvgl/src/misc/lv_fs.c **** 
 167:Middlewares/LVGL/GUI/lvgl/src/misc/lv_fs.c ****                 uint16_t data_chunk_remaining = btr - buffer_remaining_length;
 168:Middlewares/LVGL/GUI/lvgl/src/misc/lv_fs.c ****                 memcpy(buf + buffer_remaining_length, buffer, data_chunk_remaining);
 169:Middlewares/LVGL/GUI/lvgl/src/misc/lv_fs.c ****             }
 170:Middlewares/LVGL/GUI/lvgl/src/misc/lv_fs.c ****         }
 171:Middlewares/LVGL/GUI/lvgl/src/misc/lv_fs.c ****     }
 172:Middlewares/LVGL/GUI/lvgl/src/misc/lv_fs.c ****     else {
 173:Middlewares/LVGL/GUI/lvgl/src/misc/lv_fs.c ****         /*Data is not in cache buffer*/
 174:Middlewares/LVGL/GUI/lvgl/src/misc/lv_fs.c **** 
 175:Middlewares/LVGL/GUI/lvgl/src/misc/lv_fs.c ****         if(btr > buffer_size) {
 176:Middlewares/LVGL/GUI/lvgl/src/misc/lv_fs.c ****             /*If bigger data is requested, then do not use cache, instead read it directly*/
 177:Middlewares/LVGL/GUI/lvgl/src/misc/lv_fs.c ****             res = file_p->drv->read_cb(file_p->drv, file_p->file_d, (void *)buf, btr, br);
 178:Middlewares/LVGL/GUI/lvgl/src/misc/lv_fs.c ****         }
 179:Middlewares/LVGL/GUI/lvgl/src/misc/lv_fs.c ****         else {
 180:Middlewares/LVGL/GUI/lvgl/src/misc/lv_fs.c ****             /*If small data is requested, then read from FS into cache buffer*/
 181:Middlewares/LVGL/GUI/lvgl/src/misc/lv_fs.c ****             if(buffer == NULL) {
 182:Middlewares/LVGL/GUI/lvgl/src/misc/lv_fs.c ****                 file_p->cache->buffer = lv_mem_alloc(buffer_size);
 183:Middlewares/LVGL/GUI/lvgl/src/misc/lv_fs.c ****                 LV_ASSERT_MALLOC(file_p->cache->buffer);
 184:Middlewares/LVGL/GUI/lvgl/src/misc/lv_fs.c ****                 buffer = file_p->cache->buffer;
 185:Middlewares/LVGL/GUI/lvgl/src/misc/lv_fs.c ****             }
 186:Middlewares/LVGL/GUI/lvgl/src/misc/lv_fs.c **** 
 187:Middlewares/LVGL/GUI/lvgl/src/misc/lv_fs.c ****             uint32_t bytes_read_to_buffer = 0;
 188:Middlewares/LVGL/GUI/lvgl/src/misc/lv_fs.c ****             res = file_p->drv->read_cb(file_p->drv, file_p->file_d, (void *)buffer, buffer_size, &b
 189:Middlewares/LVGL/GUI/lvgl/src/misc/lv_fs.c ****             file_p->cache->start = file_position;
 190:Middlewares/LVGL/GUI/lvgl/src/misc/lv_fs.c ****             file_p->cache->end = file_p->cache->start + bytes_read_to_buffer;
 191:Middlewares/LVGL/GUI/lvgl/src/misc/lv_fs.c **** 
 192:Middlewares/LVGL/GUI/lvgl/src/misc/lv_fs.c ****             memcpy(buf, buffer, btr);
 193:Middlewares/LVGL/GUI/lvgl/src/misc/lv_fs.c ****         }
 194:Middlewares/LVGL/GUI/lvgl/src/misc/lv_fs.c ****     }
 195:Middlewares/LVGL/GUI/lvgl/src/misc/lv_fs.c **** 
 196:Middlewares/LVGL/GUI/lvgl/src/misc/lv_fs.c ****     if(res == LV_FS_RES_OK) {
 197:Middlewares/LVGL/GUI/lvgl/src/misc/lv_fs.c ****         *br = btr;
 198:Middlewares/LVGL/GUI/lvgl/src/misc/lv_fs.c ****         file_p->cache->file_position += btr;
 199:Middlewares/LVGL/GUI/lvgl/src/misc/lv_fs.c ****     }
 200:Middlewares/LVGL/GUI/lvgl/src/misc/lv_fs.c **** 
 201:Middlewares/LVGL/GUI/lvgl/src/misc/lv_fs.c ****     return res;
ARM GAS  C:\Users\ADMINI~1\AppData\Local\Temp\cciH6Em7.s 			page 5


 202:Middlewares/LVGL/GUI/lvgl/src/misc/lv_fs.c **** }
 203:Middlewares/LVGL/GUI/lvgl/src/misc/lv_fs.c **** 
 204:Middlewares/LVGL/GUI/lvgl/src/misc/lv_fs.c **** lv_fs_res_t lv_fs_read(lv_fs_file_t * file_p, void * buf, uint32_t btr, uint32_t * br)
 205:Middlewares/LVGL/GUI/lvgl/src/misc/lv_fs.c **** {
 206:Middlewares/LVGL/GUI/lvgl/src/misc/lv_fs.c ****     if(br != NULL) *br = 0;
 207:Middlewares/LVGL/GUI/lvgl/src/misc/lv_fs.c ****     if(file_p->drv == NULL) return LV_FS_RES_INV_PARAM;
 208:Middlewares/LVGL/GUI/lvgl/src/misc/lv_fs.c ****     if(file_p->drv->read_cb == NULL) return LV_FS_RES_NOT_IMP;
 209:Middlewares/LVGL/GUI/lvgl/src/misc/lv_fs.c **** 
 210:Middlewares/LVGL/GUI/lvgl/src/misc/lv_fs.c ****     uint32_t br_tmp = 0;
 211:Middlewares/LVGL/GUI/lvgl/src/misc/lv_fs.c ****     lv_fs_res_t res;
 212:Middlewares/LVGL/GUI/lvgl/src/misc/lv_fs.c **** 
 213:Middlewares/LVGL/GUI/lvgl/src/misc/lv_fs.c ****     if(file_p->drv->cache_size) {
 214:Middlewares/LVGL/GUI/lvgl/src/misc/lv_fs.c ****         res = lv_fs_read_cached(file_p, (char *)buf, btr, &br_tmp);
 215:Middlewares/LVGL/GUI/lvgl/src/misc/lv_fs.c ****     }
 216:Middlewares/LVGL/GUI/lvgl/src/misc/lv_fs.c ****     else {
 217:Middlewares/LVGL/GUI/lvgl/src/misc/lv_fs.c ****         res = file_p->drv->read_cb(file_p->drv, file_p->file_d, buf, btr, &br_tmp);
 218:Middlewares/LVGL/GUI/lvgl/src/misc/lv_fs.c ****     }
 219:Middlewares/LVGL/GUI/lvgl/src/misc/lv_fs.c **** 
 220:Middlewares/LVGL/GUI/lvgl/src/misc/lv_fs.c ****     if(br != NULL) *br = br_tmp;
 221:Middlewares/LVGL/GUI/lvgl/src/misc/lv_fs.c **** 
 222:Middlewares/LVGL/GUI/lvgl/src/misc/lv_fs.c ****     return res;
 223:Middlewares/LVGL/GUI/lvgl/src/misc/lv_fs.c **** }
 224:Middlewares/LVGL/GUI/lvgl/src/misc/lv_fs.c **** 
 225:Middlewares/LVGL/GUI/lvgl/src/misc/lv_fs.c **** lv_fs_res_t lv_fs_write(lv_fs_file_t * file_p, const void * buf, uint32_t btw, uint32_t * bw)
 226:Middlewares/LVGL/GUI/lvgl/src/misc/lv_fs.c **** {
 227:Middlewares/LVGL/GUI/lvgl/src/misc/lv_fs.c ****     if(bw != NULL) *bw = 0;
 228:Middlewares/LVGL/GUI/lvgl/src/misc/lv_fs.c **** 
 229:Middlewares/LVGL/GUI/lvgl/src/misc/lv_fs.c ****     if(file_p->drv == NULL) {
 230:Middlewares/LVGL/GUI/lvgl/src/misc/lv_fs.c ****         return LV_FS_RES_INV_PARAM;
 231:Middlewares/LVGL/GUI/lvgl/src/misc/lv_fs.c ****     }
 232:Middlewares/LVGL/GUI/lvgl/src/misc/lv_fs.c **** 
 233:Middlewares/LVGL/GUI/lvgl/src/misc/lv_fs.c ****     if(file_p->drv->write_cb == NULL) {
 234:Middlewares/LVGL/GUI/lvgl/src/misc/lv_fs.c ****         return LV_FS_RES_NOT_IMP;
 235:Middlewares/LVGL/GUI/lvgl/src/misc/lv_fs.c ****     }
 236:Middlewares/LVGL/GUI/lvgl/src/misc/lv_fs.c **** 
 237:Middlewares/LVGL/GUI/lvgl/src/misc/lv_fs.c ****     uint32_t bw_tmp = 0;
 238:Middlewares/LVGL/GUI/lvgl/src/misc/lv_fs.c ****     lv_fs_res_t res = file_p->drv->write_cb(file_p->drv, file_p->file_d, buf, btw, &bw_tmp);
 239:Middlewares/LVGL/GUI/lvgl/src/misc/lv_fs.c ****     if(bw != NULL) *bw = bw_tmp;
 240:Middlewares/LVGL/GUI/lvgl/src/misc/lv_fs.c **** 
 241:Middlewares/LVGL/GUI/lvgl/src/misc/lv_fs.c ****     return res;
 242:Middlewares/LVGL/GUI/lvgl/src/misc/lv_fs.c **** }
 243:Middlewares/LVGL/GUI/lvgl/src/misc/lv_fs.c **** 
 244:Middlewares/LVGL/GUI/lvgl/src/misc/lv_fs.c **** lv_fs_res_t lv_fs_seek(lv_fs_file_t * file_p, uint32_t pos, lv_fs_whence_t whence)
 245:Middlewares/LVGL/GUI/lvgl/src/misc/lv_fs.c **** {
 246:Middlewares/LVGL/GUI/lvgl/src/misc/lv_fs.c ****     if(file_p->drv == NULL) {
 247:Middlewares/LVGL/GUI/lvgl/src/misc/lv_fs.c ****         return LV_FS_RES_INV_PARAM;
 248:Middlewares/LVGL/GUI/lvgl/src/misc/lv_fs.c ****     }
 249:Middlewares/LVGL/GUI/lvgl/src/misc/lv_fs.c **** 
 250:Middlewares/LVGL/GUI/lvgl/src/misc/lv_fs.c ****     if(file_p->drv->seek_cb == NULL) {
 251:Middlewares/LVGL/GUI/lvgl/src/misc/lv_fs.c ****         return LV_FS_RES_NOT_IMP;
 252:Middlewares/LVGL/GUI/lvgl/src/misc/lv_fs.c ****     }
 253:Middlewares/LVGL/GUI/lvgl/src/misc/lv_fs.c **** 
 254:Middlewares/LVGL/GUI/lvgl/src/misc/lv_fs.c ****     lv_fs_res_t res = LV_FS_RES_OK;
 255:Middlewares/LVGL/GUI/lvgl/src/misc/lv_fs.c ****     if(file_p->drv->cache_size) {
 256:Middlewares/LVGL/GUI/lvgl/src/misc/lv_fs.c ****         switch(whence) {
 257:Middlewares/LVGL/GUI/lvgl/src/misc/lv_fs.c ****             case LV_FS_SEEK_SET: {
 258:Middlewares/LVGL/GUI/lvgl/src/misc/lv_fs.c ****                     file_p->cache->file_position = pos;
ARM GAS  C:\Users\ADMINI~1\AppData\Local\Temp\cciH6Em7.s 			page 6


 259:Middlewares/LVGL/GUI/lvgl/src/misc/lv_fs.c **** 
 260:Middlewares/LVGL/GUI/lvgl/src/misc/lv_fs.c ****                     /*FS seek if new position is outside cache buffer*/
 261:Middlewares/LVGL/GUI/lvgl/src/misc/lv_fs.c ****                     if(file_p->cache->file_position < file_p->cache->start || file_p->cache->file_p
 262:Middlewares/LVGL/GUI/lvgl/src/misc/lv_fs.c ****                         res = file_p->drv->seek_cb(file_p->drv, file_p->file_d, file_p->cache->file
 263:Middlewares/LVGL/GUI/lvgl/src/misc/lv_fs.c ****                     }
 264:Middlewares/LVGL/GUI/lvgl/src/misc/lv_fs.c **** 
 265:Middlewares/LVGL/GUI/lvgl/src/misc/lv_fs.c ****                     break;
 266:Middlewares/LVGL/GUI/lvgl/src/misc/lv_fs.c ****                 }
 267:Middlewares/LVGL/GUI/lvgl/src/misc/lv_fs.c ****             case LV_FS_SEEK_CUR: {
 268:Middlewares/LVGL/GUI/lvgl/src/misc/lv_fs.c ****                     file_p->cache->file_position += pos;
 269:Middlewares/LVGL/GUI/lvgl/src/misc/lv_fs.c **** 
 270:Middlewares/LVGL/GUI/lvgl/src/misc/lv_fs.c ****                     /*FS seek if new position is outside cache buffer*/
 271:Middlewares/LVGL/GUI/lvgl/src/misc/lv_fs.c ****                     if(file_p->cache->file_position < file_p->cache->start || file_p->cache->file_p
 272:Middlewares/LVGL/GUI/lvgl/src/misc/lv_fs.c ****                         res = file_p->drv->seek_cb(file_p->drv, file_p->file_d, file_p->cache->file
 273:Middlewares/LVGL/GUI/lvgl/src/misc/lv_fs.c ****                     }
 274:Middlewares/LVGL/GUI/lvgl/src/misc/lv_fs.c **** 
 275:Middlewares/LVGL/GUI/lvgl/src/misc/lv_fs.c ****                     break;
 276:Middlewares/LVGL/GUI/lvgl/src/misc/lv_fs.c ****                 }
 277:Middlewares/LVGL/GUI/lvgl/src/misc/lv_fs.c ****             case LV_FS_SEEK_END: {
 278:Middlewares/LVGL/GUI/lvgl/src/misc/lv_fs.c ****                     /*Because we don't know the file size, we do a little trick: do a FS seek, then
 279:Middlewares/LVGL/GUI/lvgl/src/misc/lv_fs.c ****                     res = file_p->drv->seek_cb(file_p->drv, file_p->file_d, pos, whence);
 280:Middlewares/LVGL/GUI/lvgl/src/misc/lv_fs.c ****                     if(res == LV_FS_RES_OK) {
 281:Middlewares/LVGL/GUI/lvgl/src/misc/lv_fs.c ****                         uint32_t tmp_position;
 282:Middlewares/LVGL/GUI/lvgl/src/misc/lv_fs.c ****                         res = file_p->drv->tell_cb(file_p->drv, file_p->file_d, &tmp_position);
 283:Middlewares/LVGL/GUI/lvgl/src/misc/lv_fs.c **** 
 284:Middlewares/LVGL/GUI/lvgl/src/misc/lv_fs.c ****                         if(res == LV_FS_RES_OK) {
 285:Middlewares/LVGL/GUI/lvgl/src/misc/lv_fs.c ****                             file_p->cache->file_position = tmp_position;
 286:Middlewares/LVGL/GUI/lvgl/src/misc/lv_fs.c ****                         }
 287:Middlewares/LVGL/GUI/lvgl/src/misc/lv_fs.c ****                     }
 288:Middlewares/LVGL/GUI/lvgl/src/misc/lv_fs.c ****                     break;
 289:Middlewares/LVGL/GUI/lvgl/src/misc/lv_fs.c ****                 }
 290:Middlewares/LVGL/GUI/lvgl/src/misc/lv_fs.c ****         }
 291:Middlewares/LVGL/GUI/lvgl/src/misc/lv_fs.c ****     }
 292:Middlewares/LVGL/GUI/lvgl/src/misc/lv_fs.c ****     else {
 293:Middlewares/LVGL/GUI/lvgl/src/misc/lv_fs.c ****         res = file_p->drv->seek_cb(file_p->drv, file_p->file_d, pos, whence);
 294:Middlewares/LVGL/GUI/lvgl/src/misc/lv_fs.c ****     }
 295:Middlewares/LVGL/GUI/lvgl/src/misc/lv_fs.c **** 
 296:Middlewares/LVGL/GUI/lvgl/src/misc/lv_fs.c ****     return res;
 297:Middlewares/LVGL/GUI/lvgl/src/misc/lv_fs.c **** }
 298:Middlewares/LVGL/GUI/lvgl/src/misc/lv_fs.c **** 
 299:Middlewares/LVGL/GUI/lvgl/src/misc/lv_fs.c **** lv_fs_res_t lv_fs_tell(lv_fs_file_t * file_p, uint32_t * pos)
 300:Middlewares/LVGL/GUI/lvgl/src/misc/lv_fs.c **** {
 301:Middlewares/LVGL/GUI/lvgl/src/misc/lv_fs.c ****     if(file_p->drv == NULL) {
 302:Middlewares/LVGL/GUI/lvgl/src/misc/lv_fs.c ****         *pos = 0;
 303:Middlewares/LVGL/GUI/lvgl/src/misc/lv_fs.c ****         return LV_FS_RES_INV_PARAM;
 304:Middlewares/LVGL/GUI/lvgl/src/misc/lv_fs.c ****     }
 305:Middlewares/LVGL/GUI/lvgl/src/misc/lv_fs.c **** 
 306:Middlewares/LVGL/GUI/lvgl/src/misc/lv_fs.c ****     if(file_p->drv->tell_cb == NULL) {
 307:Middlewares/LVGL/GUI/lvgl/src/misc/lv_fs.c ****         *pos = 0;
 308:Middlewares/LVGL/GUI/lvgl/src/misc/lv_fs.c ****         return LV_FS_RES_NOT_IMP;
 309:Middlewares/LVGL/GUI/lvgl/src/misc/lv_fs.c ****     }
 310:Middlewares/LVGL/GUI/lvgl/src/misc/lv_fs.c **** 
 311:Middlewares/LVGL/GUI/lvgl/src/misc/lv_fs.c ****     lv_fs_res_t res;
 312:Middlewares/LVGL/GUI/lvgl/src/misc/lv_fs.c ****     if(file_p->drv->cache_size) {
 313:Middlewares/LVGL/GUI/lvgl/src/misc/lv_fs.c ****         *pos = file_p->cache->file_position;
 314:Middlewares/LVGL/GUI/lvgl/src/misc/lv_fs.c ****         res = LV_FS_RES_OK;
 315:Middlewares/LVGL/GUI/lvgl/src/misc/lv_fs.c ****     }
ARM GAS  C:\Users\ADMINI~1\AppData\Local\Temp\cciH6Em7.s 			page 7


 316:Middlewares/LVGL/GUI/lvgl/src/misc/lv_fs.c ****     else {
 317:Middlewares/LVGL/GUI/lvgl/src/misc/lv_fs.c ****         res = file_p->drv->tell_cb(file_p->drv, file_p->file_d, pos);
 318:Middlewares/LVGL/GUI/lvgl/src/misc/lv_fs.c ****     }
 319:Middlewares/LVGL/GUI/lvgl/src/misc/lv_fs.c **** 
 320:Middlewares/LVGL/GUI/lvgl/src/misc/lv_fs.c ****     return res;
 321:Middlewares/LVGL/GUI/lvgl/src/misc/lv_fs.c **** }
 322:Middlewares/LVGL/GUI/lvgl/src/misc/lv_fs.c **** 
 323:Middlewares/LVGL/GUI/lvgl/src/misc/lv_fs.c **** lv_fs_res_t lv_fs_dir_open(lv_fs_dir_t * rddir_p, const char * path)
 324:Middlewares/LVGL/GUI/lvgl/src/misc/lv_fs.c **** {
 325:Middlewares/LVGL/GUI/lvgl/src/misc/lv_fs.c ****     if(path == NULL) return LV_FS_RES_INV_PARAM;
 326:Middlewares/LVGL/GUI/lvgl/src/misc/lv_fs.c **** 
 327:Middlewares/LVGL/GUI/lvgl/src/misc/lv_fs.c ****     char letter = path[0];
 328:Middlewares/LVGL/GUI/lvgl/src/misc/lv_fs.c ****     lv_fs_drv_t * drv = lv_fs_get_drv(letter);
 329:Middlewares/LVGL/GUI/lvgl/src/misc/lv_fs.c **** 
 330:Middlewares/LVGL/GUI/lvgl/src/misc/lv_fs.c ****     if(drv == NULL) {
 331:Middlewares/LVGL/GUI/lvgl/src/misc/lv_fs.c ****         return LV_FS_RES_NOT_EX;
 332:Middlewares/LVGL/GUI/lvgl/src/misc/lv_fs.c ****     }
 333:Middlewares/LVGL/GUI/lvgl/src/misc/lv_fs.c **** 
 334:Middlewares/LVGL/GUI/lvgl/src/misc/lv_fs.c ****     if(drv->ready_cb) {
 335:Middlewares/LVGL/GUI/lvgl/src/misc/lv_fs.c ****         if(drv->ready_cb(drv) == false) {
 336:Middlewares/LVGL/GUI/lvgl/src/misc/lv_fs.c ****             return LV_FS_RES_HW_ERR;
 337:Middlewares/LVGL/GUI/lvgl/src/misc/lv_fs.c ****         }
 338:Middlewares/LVGL/GUI/lvgl/src/misc/lv_fs.c ****     }
 339:Middlewares/LVGL/GUI/lvgl/src/misc/lv_fs.c **** 
 340:Middlewares/LVGL/GUI/lvgl/src/misc/lv_fs.c ****     if(drv->dir_open_cb == NULL) {
 341:Middlewares/LVGL/GUI/lvgl/src/misc/lv_fs.c ****         return LV_FS_RES_NOT_IMP;
 342:Middlewares/LVGL/GUI/lvgl/src/misc/lv_fs.c ****     }
 343:Middlewares/LVGL/GUI/lvgl/src/misc/lv_fs.c **** 
 344:Middlewares/LVGL/GUI/lvgl/src/misc/lv_fs.c ****     const char * real_path = lv_fs_get_real_path(path);
 345:Middlewares/LVGL/GUI/lvgl/src/misc/lv_fs.c ****     void * dir_d = drv->dir_open_cb(drv, real_path);
 346:Middlewares/LVGL/GUI/lvgl/src/misc/lv_fs.c **** 
 347:Middlewares/LVGL/GUI/lvgl/src/misc/lv_fs.c ****     if(dir_d == NULL || dir_d == (void *)(-1)) {
 348:Middlewares/LVGL/GUI/lvgl/src/misc/lv_fs.c ****         return LV_FS_RES_UNKNOWN;
 349:Middlewares/LVGL/GUI/lvgl/src/misc/lv_fs.c ****     }
 350:Middlewares/LVGL/GUI/lvgl/src/misc/lv_fs.c **** 
 351:Middlewares/LVGL/GUI/lvgl/src/misc/lv_fs.c ****     rddir_p->drv = drv;
 352:Middlewares/LVGL/GUI/lvgl/src/misc/lv_fs.c ****     rddir_p->dir_d = dir_d;
 353:Middlewares/LVGL/GUI/lvgl/src/misc/lv_fs.c **** 
 354:Middlewares/LVGL/GUI/lvgl/src/misc/lv_fs.c ****     return LV_FS_RES_OK;
 355:Middlewares/LVGL/GUI/lvgl/src/misc/lv_fs.c **** }
 356:Middlewares/LVGL/GUI/lvgl/src/misc/lv_fs.c **** 
 357:Middlewares/LVGL/GUI/lvgl/src/misc/lv_fs.c **** lv_fs_res_t lv_fs_dir_read(lv_fs_dir_t * rddir_p, char * fn)
 358:Middlewares/LVGL/GUI/lvgl/src/misc/lv_fs.c **** {
 359:Middlewares/LVGL/GUI/lvgl/src/misc/lv_fs.c ****     if(rddir_p->drv == NULL || rddir_p->dir_d == NULL) {
 360:Middlewares/LVGL/GUI/lvgl/src/misc/lv_fs.c ****         fn[0] = '\0';
 361:Middlewares/LVGL/GUI/lvgl/src/misc/lv_fs.c ****         return LV_FS_RES_INV_PARAM;
 362:Middlewares/LVGL/GUI/lvgl/src/misc/lv_fs.c ****     }
 363:Middlewares/LVGL/GUI/lvgl/src/misc/lv_fs.c **** 
 364:Middlewares/LVGL/GUI/lvgl/src/misc/lv_fs.c ****     if(rddir_p->drv->dir_read_cb == NULL) {
 365:Middlewares/LVGL/GUI/lvgl/src/misc/lv_fs.c ****         fn[0] = '\0';
 366:Middlewares/LVGL/GUI/lvgl/src/misc/lv_fs.c ****         return LV_FS_RES_NOT_IMP;
 367:Middlewares/LVGL/GUI/lvgl/src/misc/lv_fs.c ****     }
 368:Middlewares/LVGL/GUI/lvgl/src/misc/lv_fs.c **** 
 369:Middlewares/LVGL/GUI/lvgl/src/misc/lv_fs.c ****     lv_fs_res_t res = rddir_p->drv->dir_read_cb(rddir_p->drv, rddir_p->dir_d, fn);
 370:Middlewares/LVGL/GUI/lvgl/src/misc/lv_fs.c **** 
 371:Middlewares/LVGL/GUI/lvgl/src/misc/lv_fs.c ****     return res;
 372:Middlewares/LVGL/GUI/lvgl/src/misc/lv_fs.c **** }
ARM GAS  C:\Users\ADMINI~1\AppData\Local\Temp\cciH6Em7.s 			page 8


 373:Middlewares/LVGL/GUI/lvgl/src/misc/lv_fs.c **** 
 374:Middlewares/LVGL/GUI/lvgl/src/misc/lv_fs.c **** lv_fs_res_t lv_fs_dir_close(lv_fs_dir_t * rddir_p)
 375:Middlewares/LVGL/GUI/lvgl/src/misc/lv_fs.c **** {
 376:Middlewares/LVGL/GUI/lvgl/src/misc/lv_fs.c ****     if(rddir_p->drv == NULL || rddir_p->dir_d == NULL) {
 377:Middlewares/LVGL/GUI/lvgl/src/misc/lv_fs.c ****         return LV_FS_RES_INV_PARAM;
 378:Middlewares/LVGL/GUI/lvgl/src/misc/lv_fs.c ****     }
 379:Middlewares/LVGL/GUI/lvgl/src/misc/lv_fs.c **** 
 380:Middlewares/LVGL/GUI/lvgl/src/misc/lv_fs.c ****     if(rddir_p->drv->dir_close_cb == NULL) {
 381:Middlewares/LVGL/GUI/lvgl/src/misc/lv_fs.c ****         return LV_FS_RES_NOT_IMP;
 382:Middlewares/LVGL/GUI/lvgl/src/misc/lv_fs.c ****     }
 383:Middlewares/LVGL/GUI/lvgl/src/misc/lv_fs.c **** 
 384:Middlewares/LVGL/GUI/lvgl/src/misc/lv_fs.c ****     lv_fs_res_t res = rddir_p->drv->dir_close_cb(rddir_p->drv, rddir_p->dir_d);
 385:Middlewares/LVGL/GUI/lvgl/src/misc/lv_fs.c **** 
 386:Middlewares/LVGL/GUI/lvgl/src/misc/lv_fs.c ****     rddir_p->dir_d = NULL;
 387:Middlewares/LVGL/GUI/lvgl/src/misc/lv_fs.c ****     rddir_p->drv   = NULL;
 388:Middlewares/LVGL/GUI/lvgl/src/misc/lv_fs.c **** 
 389:Middlewares/LVGL/GUI/lvgl/src/misc/lv_fs.c ****     return res;
 390:Middlewares/LVGL/GUI/lvgl/src/misc/lv_fs.c **** }
 391:Middlewares/LVGL/GUI/lvgl/src/misc/lv_fs.c **** 
 392:Middlewares/LVGL/GUI/lvgl/src/misc/lv_fs.c **** void lv_fs_drv_init(lv_fs_drv_t * drv)
 393:Middlewares/LVGL/GUI/lvgl/src/misc/lv_fs.c **** {
 394:Middlewares/LVGL/GUI/lvgl/src/misc/lv_fs.c ****     lv_memset_00(drv, sizeof(lv_fs_drv_t));
 395:Middlewares/LVGL/GUI/lvgl/src/misc/lv_fs.c **** }
 396:Middlewares/LVGL/GUI/lvgl/src/misc/lv_fs.c **** 
 397:Middlewares/LVGL/GUI/lvgl/src/misc/lv_fs.c **** void lv_fs_drv_register(lv_fs_drv_t * drv_p)
 398:Middlewares/LVGL/GUI/lvgl/src/misc/lv_fs.c **** {
 399:Middlewares/LVGL/GUI/lvgl/src/misc/lv_fs.c ****     /*Save the new driver*/
 400:Middlewares/LVGL/GUI/lvgl/src/misc/lv_fs.c ****     lv_fs_drv_t ** new_drv;
 401:Middlewares/LVGL/GUI/lvgl/src/misc/lv_fs.c ****     new_drv = _lv_ll_ins_head(&LV_GC_ROOT(_lv_fsdrv_ll));
 402:Middlewares/LVGL/GUI/lvgl/src/misc/lv_fs.c ****     LV_ASSERT_MALLOC(new_drv);
 403:Middlewares/LVGL/GUI/lvgl/src/misc/lv_fs.c ****     if(new_drv == NULL) return;
 404:Middlewares/LVGL/GUI/lvgl/src/misc/lv_fs.c **** 
 405:Middlewares/LVGL/GUI/lvgl/src/misc/lv_fs.c ****     *new_drv = drv_p;
 406:Middlewares/LVGL/GUI/lvgl/src/misc/lv_fs.c **** }
 407:Middlewares/LVGL/GUI/lvgl/src/misc/lv_fs.c **** 
 408:Middlewares/LVGL/GUI/lvgl/src/misc/lv_fs.c **** lv_fs_drv_t * lv_fs_get_drv(char letter)
 409:Middlewares/LVGL/GUI/lvgl/src/misc/lv_fs.c **** {
 410:Middlewares/LVGL/GUI/lvgl/src/misc/lv_fs.c ****     lv_fs_drv_t ** drv;
 411:Middlewares/LVGL/GUI/lvgl/src/misc/lv_fs.c **** 
 412:Middlewares/LVGL/GUI/lvgl/src/misc/lv_fs.c ****     _LV_LL_READ(&LV_GC_ROOT(_lv_fsdrv_ll), drv) {
 413:Middlewares/LVGL/GUI/lvgl/src/misc/lv_fs.c ****         if((*drv)->letter == letter) {
 414:Middlewares/LVGL/GUI/lvgl/src/misc/lv_fs.c ****             return *drv;
 415:Middlewares/LVGL/GUI/lvgl/src/misc/lv_fs.c ****         }
 416:Middlewares/LVGL/GUI/lvgl/src/misc/lv_fs.c ****     }
 417:Middlewares/LVGL/GUI/lvgl/src/misc/lv_fs.c **** 
 418:Middlewares/LVGL/GUI/lvgl/src/misc/lv_fs.c ****     return NULL;
 419:Middlewares/LVGL/GUI/lvgl/src/misc/lv_fs.c **** }
 420:Middlewares/LVGL/GUI/lvgl/src/misc/lv_fs.c **** 
 421:Middlewares/LVGL/GUI/lvgl/src/misc/lv_fs.c **** char * lv_fs_get_letters(char * buf)
 422:Middlewares/LVGL/GUI/lvgl/src/misc/lv_fs.c **** {
 423:Middlewares/LVGL/GUI/lvgl/src/misc/lv_fs.c ****     lv_fs_drv_t ** drv;
 424:Middlewares/LVGL/GUI/lvgl/src/misc/lv_fs.c ****     uint8_t i = 0;
 425:Middlewares/LVGL/GUI/lvgl/src/misc/lv_fs.c **** 
 426:Middlewares/LVGL/GUI/lvgl/src/misc/lv_fs.c ****     _LV_LL_READ(&LV_GC_ROOT(_lv_fsdrv_ll), drv) {
 427:Middlewares/LVGL/GUI/lvgl/src/misc/lv_fs.c ****         buf[i] = (*drv)->letter;
 428:Middlewares/LVGL/GUI/lvgl/src/misc/lv_fs.c ****         i++;
 429:Middlewares/LVGL/GUI/lvgl/src/misc/lv_fs.c ****     }
ARM GAS  C:\Users\ADMINI~1\AppData\Local\Temp\cciH6Em7.s 			page 9


 430:Middlewares/LVGL/GUI/lvgl/src/misc/lv_fs.c **** 
 431:Middlewares/LVGL/GUI/lvgl/src/misc/lv_fs.c ****     buf[i] = '\0';
 432:Middlewares/LVGL/GUI/lvgl/src/misc/lv_fs.c **** 
 433:Middlewares/LVGL/GUI/lvgl/src/misc/lv_fs.c ****     return buf;
 434:Middlewares/LVGL/GUI/lvgl/src/misc/lv_fs.c **** }
 435:Middlewares/LVGL/GUI/lvgl/src/misc/lv_fs.c **** 
 436:Middlewares/LVGL/GUI/lvgl/src/misc/lv_fs.c **** const char * lv_fs_get_ext(const char * fn)
 437:Middlewares/LVGL/GUI/lvgl/src/misc/lv_fs.c **** {
 438:Middlewares/LVGL/GUI/lvgl/src/misc/lv_fs.c ****     size_t i;
 439:Middlewares/LVGL/GUI/lvgl/src/misc/lv_fs.c ****     for(i = strlen(fn); i > 0; i--) {
 440:Middlewares/LVGL/GUI/lvgl/src/misc/lv_fs.c ****         if(fn[i] == '.') {
 441:Middlewares/LVGL/GUI/lvgl/src/misc/lv_fs.c ****             return &fn[i + 1];
 442:Middlewares/LVGL/GUI/lvgl/src/misc/lv_fs.c ****         }
 443:Middlewares/LVGL/GUI/lvgl/src/misc/lv_fs.c ****         else if(fn[i] == '/' || fn[i] == '\\') {
 444:Middlewares/LVGL/GUI/lvgl/src/misc/lv_fs.c ****             return ""; /*No extension if a '\' or '/' found*/
 445:Middlewares/LVGL/GUI/lvgl/src/misc/lv_fs.c ****         }
 446:Middlewares/LVGL/GUI/lvgl/src/misc/lv_fs.c ****     }
 447:Middlewares/LVGL/GUI/lvgl/src/misc/lv_fs.c **** 
 448:Middlewares/LVGL/GUI/lvgl/src/misc/lv_fs.c ****     return ""; /*Empty string if no '.' in the file name.*/
 449:Middlewares/LVGL/GUI/lvgl/src/misc/lv_fs.c **** }
 450:Middlewares/LVGL/GUI/lvgl/src/misc/lv_fs.c **** 
 451:Middlewares/LVGL/GUI/lvgl/src/misc/lv_fs.c **** char * lv_fs_up(char * path)
 452:Middlewares/LVGL/GUI/lvgl/src/misc/lv_fs.c **** {
 453:Middlewares/LVGL/GUI/lvgl/src/misc/lv_fs.c ****     size_t len = strlen(path);
 454:Middlewares/LVGL/GUI/lvgl/src/misc/lv_fs.c ****     if(len == 0) return path;
 455:Middlewares/LVGL/GUI/lvgl/src/misc/lv_fs.c **** 
 456:Middlewares/LVGL/GUI/lvgl/src/misc/lv_fs.c ****     len--; /*Go before the trailing '\0'*/
 457:Middlewares/LVGL/GUI/lvgl/src/misc/lv_fs.c **** 
 458:Middlewares/LVGL/GUI/lvgl/src/misc/lv_fs.c ****     /*Ignore trailing '/' or '\'*/
 459:Middlewares/LVGL/GUI/lvgl/src/misc/lv_fs.c ****     while(path[len] == '/' || path[len] == '\\') {
 460:Middlewares/LVGL/GUI/lvgl/src/misc/lv_fs.c ****         path[len] = '\0';
 461:Middlewares/LVGL/GUI/lvgl/src/misc/lv_fs.c ****         if(len > 0)
 462:Middlewares/LVGL/GUI/lvgl/src/misc/lv_fs.c ****             len--;
 463:Middlewares/LVGL/GUI/lvgl/src/misc/lv_fs.c ****         else
 464:Middlewares/LVGL/GUI/lvgl/src/misc/lv_fs.c ****             return path;
 465:Middlewares/LVGL/GUI/lvgl/src/misc/lv_fs.c ****     }
 466:Middlewares/LVGL/GUI/lvgl/src/misc/lv_fs.c **** 
 467:Middlewares/LVGL/GUI/lvgl/src/misc/lv_fs.c ****     size_t i;
 468:Middlewares/LVGL/GUI/lvgl/src/misc/lv_fs.c ****     for(i = len; i > 0; i--) {
 469:Middlewares/LVGL/GUI/lvgl/src/misc/lv_fs.c ****         if(path[i] == '/' || path[i] == '\\') break;
 470:Middlewares/LVGL/GUI/lvgl/src/misc/lv_fs.c ****     }
 471:Middlewares/LVGL/GUI/lvgl/src/misc/lv_fs.c **** 
 472:Middlewares/LVGL/GUI/lvgl/src/misc/lv_fs.c ****     if(i > 0) path[i] = '\0';
 473:Middlewares/LVGL/GUI/lvgl/src/misc/lv_fs.c **** 
 474:Middlewares/LVGL/GUI/lvgl/src/misc/lv_fs.c ****     return path;
 475:Middlewares/LVGL/GUI/lvgl/src/misc/lv_fs.c **** }
 476:Middlewares/LVGL/GUI/lvgl/src/misc/lv_fs.c **** 
 477:Middlewares/LVGL/GUI/lvgl/src/misc/lv_fs.c **** const char * lv_fs_get_last(const char * path)
 478:Middlewares/LVGL/GUI/lvgl/src/misc/lv_fs.c **** {
 479:Middlewares/LVGL/GUI/lvgl/src/misc/lv_fs.c ****     size_t len = strlen(path);
 480:Middlewares/LVGL/GUI/lvgl/src/misc/lv_fs.c ****     if(len == 0) return path;
 481:Middlewares/LVGL/GUI/lvgl/src/misc/lv_fs.c **** 
 482:Middlewares/LVGL/GUI/lvgl/src/misc/lv_fs.c ****     len--; /*Go before the trailing '\0'*/
 483:Middlewares/LVGL/GUI/lvgl/src/misc/lv_fs.c **** 
 484:Middlewares/LVGL/GUI/lvgl/src/misc/lv_fs.c ****     /*Ignore trailing '/' or '\'*/
 485:Middlewares/LVGL/GUI/lvgl/src/misc/lv_fs.c ****     while(path[len] == '/' || path[len] == '\\') {
 486:Middlewares/LVGL/GUI/lvgl/src/misc/lv_fs.c ****         if(len > 0)
ARM GAS  C:\Users\ADMINI~1\AppData\Local\Temp\cciH6Em7.s 			page 10


 487:Middlewares/LVGL/GUI/lvgl/src/misc/lv_fs.c ****             len--;
 488:Middlewares/LVGL/GUI/lvgl/src/misc/lv_fs.c ****         else
 489:Middlewares/LVGL/GUI/lvgl/src/misc/lv_fs.c ****             return path;
 490:Middlewares/LVGL/GUI/lvgl/src/misc/lv_fs.c ****     }
 491:Middlewares/LVGL/GUI/lvgl/src/misc/lv_fs.c **** 
 492:Middlewares/LVGL/GUI/lvgl/src/misc/lv_fs.c ****     size_t i;
 493:Middlewares/LVGL/GUI/lvgl/src/misc/lv_fs.c ****     for(i = len; i > 0; i--) {
 494:Middlewares/LVGL/GUI/lvgl/src/misc/lv_fs.c ****         if(path[i] == '/' || path[i] == '\\') break;
 495:Middlewares/LVGL/GUI/lvgl/src/misc/lv_fs.c ****     }
 496:Middlewares/LVGL/GUI/lvgl/src/misc/lv_fs.c **** 
 497:Middlewares/LVGL/GUI/lvgl/src/misc/lv_fs.c ****     /*No '/' or '\' in the path so return with path itself*/
 498:Middlewares/LVGL/GUI/lvgl/src/misc/lv_fs.c ****     if(i == 0) return path;
 499:Middlewares/LVGL/GUI/lvgl/src/misc/lv_fs.c **** 
 500:Middlewares/LVGL/GUI/lvgl/src/misc/lv_fs.c ****     return &path[i + 1];
 501:Middlewares/LVGL/GUI/lvgl/src/misc/lv_fs.c **** }
 502:Middlewares/LVGL/GUI/lvgl/src/misc/lv_fs.c **** /**********************
 503:Middlewares/LVGL/GUI/lvgl/src/misc/lv_fs.c ****  *   STATIC FUNCTIONS
 504:Middlewares/LVGL/GUI/lvgl/src/misc/lv_fs.c ****  **********************/
 505:Middlewares/LVGL/GUI/lvgl/src/misc/lv_fs.c **** 
 506:Middlewares/LVGL/GUI/lvgl/src/misc/lv_fs.c **** /**
 507:Middlewares/LVGL/GUI/lvgl/src/misc/lv_fs.c ****  * Skip the driver letter and the possible : after the letter
 508:Middlewares/LVGL/GUI/lvgl/src/misc/lv_fs.c ****  * @param path path string (E.g. S:/folder/file.txt)
 509:Middlewares/LVGL/GUI/lvgl/src/misc/lv_fs.c ****  * @return pointer to the beginning of the real path (E.g. /folder/file.txt)
 510:Middlewares/LVGL/GUI/lvgl/src/misc/lv_fs.c ****  */
 511:Middlewares/LVGL/GUI/lvgl/src/misc/lv_fs.c **** static const char * lv_fs_get_real_path(const char * path)
 512:Middlewares/LVGL/GUI/lvgl/src/misc/lv_fs.c **** {
  29              		.loc 1 512 1 view -0
  30              		.cfi_startproc
  31              		@ args = 0, pretend = 0, frame = 0
  32              		@ frame_needed = 0, uses_anonymous_args = 0
  33              		@ link register save eliminated.
  34              		.loc 1 512 1 is_stmt 0 view .LVU1
  35 0000 0346     		mov	r3, r0
 513:Middlewares/LVGL/GUI/lvgl/src/misc/lv_fs.c ****     path++; /*Ignore the driver letter*/
  36              		.loc 1 513 5 is_stmt 1 view .LVU2
  37              		.loc 1 513 9 is_stmt 0 view .LVU3
  38 0002 0130     		adds	r0, r0, #1
  39              	.LVL1:
 514:Middlewares/LVGL/GUI/lvgl/src/misc/lv_fs.c ****     if(*path == ':') path++;
  40              		.loc 1 514 5 is_stmt 1 view .LVU4
  41              		.loc 1 514 8 is_stmt 0 view .LVU5
  42 0004 5A78     		ldrb	r2, [r3, #1]	@ zero_extendqisi2
  43              		.loc 1 514 7 view .LVU6
  44 0006 3A2A     		cmp	r2, #58
  45 0008 00D0     		beq	.L3
  46              	.L1:
 515:Middlewares/LVGL/GUI/lvgl/src/misc/lv_fs.c **** 
 516:Middlewares/LVGL/GUI/lvgl/src/misc/lv_fs.c ****     return path;
 517:Middlewares/LVGL/GUI/lvgl/src/misc/lv_fs.c **** }
  47              		.loc 1 517 1 view .LVU7
  48 000a 7047     		bx	lr
  49              	.L3:
 514:Middlewares/LVGL/GUI/lvgl/src/misc/lv_fs.c ****     if(*path == ':') path++;
  50              		.loc 1 514 22 is_stmt 1 discriminator 1 view .LVU8
 514:Middlewares/LVGL/GUI/lvgl/src/misc/lv_fs.c ****     if(*path == ':') path++;
  51              		.loc 1 514 26 is_stmt 0 discriminator 1 view .LVU9
  52 000c 981C     		adds	r0, r3, #2
ARM GAS  C:\Users\ADMINI~1\AppData\Local\Temp\cciH6Em7.s 			page 11


  53              	.LVL2:
 516:Middlewares/LVGL/GUI/lvgl/src/misc/lv_fs.c **** }
  54              		.loc 1 516 5 is_stmt 1 discriminator 1 view .LVU10
 516:Middlewares/LVGL/GUI/lvgl/src/misc/lv_fs.c **** }
  55              		.loc 1 516 12 is_stmt 0 discriminator 1 view .LVU11
  56 000e FCE7     		b	.L1
  57              		.cfi_endproc
  58              	.LFE42:
  60              		.section	.text.lv_fs_read_cached,"ax",%progbits
  61              		.align	1
  62              		.syntax unified
  63              		.thumb
  64              		.thumb_func
  66              	lv_fs_read_cached:
  67              	.LVL3:
  68              	.LFB27:
 131:Middlewares/LVGL/GUI/lvgl/src/misc/lv_fs.c ****     lv_fs_res_t res = LV_FS_RES_OK;
  69              		.loc 1 131 1 is_stmt 1 view -0
  70              		.cfi_startproc
  71              		@ args = 0, pretend = 0, frame = 8
  72              		@ frame_needed = 0, uses_anonymous_args = 0
 131:Middlewares/LVGL/GUI/lvgl/src/misc/lv_fs.c ****     lv_fs_res_t res = LV_FS_RES_OK;
  73              		.loc 1 131 1 is_stmt 0 view .LVU13
  74 0000 2DE9F04F 		push	{r4, r5, r6, r7, r8, r9, r10, fp, lr}
  75              	.LCFI0:
  76              		.cfi_def_cfa_offset 36
  77              		.cfi_offset 4, -36
  78              		.cfi_offset 5, -32
  79              		.cfi_offset 6, -28
  80              		.cfi_offset 7, -24
  81              		.cfi_offset 8, -20
  82              		.cfi_offset 9, -16
  83              		.cfi_offset 10, -12
  84              		.cfi_offset 11, -8
  85              		.cfi_offset 14, -4
  86 0004 85B0     		sub	sp, sp, #20
  87              	.LCFI1:
  88              		.cfi_def_cfa_offset 56
  89 0006 0446     		mov	r4, r0
  90 0008 0F46     		mov	r7, r1
  91 000a 1546     		mov	r5, r2
  92 000c 9846     		mov	r8, r3
 132:Middlewares/LVGL/GUI/lvgl/src/misc/lv_fs.c ****     uint32_t file_position = file_p->cache->file_position;
  93              		.loc 1 132 5 is_stmt 1 view .LVU14
  94              	.LVL4:
 133:Middlewares/LVGL/GUI/lvgl/src/misc/lv_fs.c ****     uint32_t start = file_p->cache->start;
  95              		.loc 1 133 5 view .LVU15
 133:Middlewares/LVGL/GUI/lvgl/src/misc/lv_fs.c ****     uint32_t start = file_p->cache->start;
  96              		.loc 1 133 36 is_stmt 0 view .LVU16
  97 000e 8668     		ldr	r6, [r0, #8]
 133:Middlewares/LVGL/GUI/lvgl/src/misc/lv_fs.c ****     uint32_t start = file_p->cache->start;
  98              		.loc 1 133 14 view .LVU17
  99 0010 D6F80890 		ldr	r9, [r6, #8]
 100              	.LVL5:
 134:Middlewares/LVGL/GUI/lvgl/src/misc/lv_fs.c ****     uint32_t end = file_p->cache->end;
 101              		.loc 1 134 5 is_stmt 1 view .LVU18
 134:Middlewares/LVGL/GUI/lvgl/src/misc/lv_fs.c ****     uint32_t end = file_p->cache->end;
ARM GAS  C:\Users\ADMINI~1\AppData\Local\Temp\cciH6Em7.s 			page 12


 102              		.loc 1 134 14 is_stmt 0 view .LVU19
 103 0014 3368     		ldr	r3, [r6]
 104              	.LVL6:
 135:Middlewares/LVGL/GUI/lvgl/src/misc/lv_fs.c ****     char * buffer = file_p->cache->buffer;
 105              		.loc 1 135 5 is_stmt 1 view .LVU20
 135:Middlewares/LVGL/GUI/lvgl/src/misc/lv_fs.c ****     char * buffer = file_p->cache->buffer;
 106              		.loc 1 135 14 is_stmt 0 view .LVU21
 107 0016 7268     		ldr	r2, [r6, #4]
 108              	.LVL7:
 136:Middlewares/LVGL/GUI/lvgl/src/misc/lv_fs.c ****     uint16_t buffer_size = file_p->drv->cache_size;
 109              		.loc 1 136 5 is_stmt 1 view .LVU22
 136:Middlewares/LVGL/GUI/lvgl/src/misc/lv_fs.c ****     uint16_t buffer_size = file_p->drv->cache_size;
 110              		.loc 1 136 12 is_stmt 0 view .LVU23
 111 0018 D6F80CB0 		ldr	fp, [r6, #12]
 112              	.LVL8:
 137:Middlewares/LVGL/GUI/lvgl/src/misc/lv_fs.c **** 
 113              		.loc 1 137 5 is_stmt 1 view .LVU24
 137:Middlewares/LVGL/GUI/lvgl/src/misc/lv_fs.c **** 
 114              		.loc 1 137 34 is_stmt 0 view .LVU25
 115 001c 4068     		ldr	r0, [r0, #4]
 116              	.LVL9:
 137:Middlewares/LVGL/GUI/lvgl/src/misc/lv_fs.c **** 
 117              		.loc 1 137 14 view .LVU26
 118 001e B0F802A0 		ldrh	r10, [r0, #2]
 119              	.LVL10:
 139:Middlewares/LVGL/GUI/lvgl/src/misc/lv_fs.c ****         /* Data can be read from cache buffer */
 120              		.loc 1 139 5 is_stmt 1 view .LVU27
 139:Middlewares/LVGL/GUI/lvgl/src/misc/lv_fs.c ****         /* Data can be read from cache buffer */
 121              		.loc 1 139 7 is_stmt 0 view .LVU28
 122 0022 9945     		cmp	r9, r3
 123 0024 43D3     		bcc	.L5
 139:Middlewares/LVGL/GUI/lvgl/src/misc/lv_fs.c ****         /* Data can be read from cache buffer */
 124              		.loc 1 139 31 discriminator 1 view .LVU29
 125 0026 9145     		cmp	r9, r2
 126 0028 41D2     		bcs	.L5
 127              	.LBB2:
 142:Middlewares/LVGL/GUI/lvgl/src/misc/lv_fs.c ****         uint16_t buffer_remaining_length = buffer_size - buffer_offset;
 128              		.loc 1 142 9 is_stmt 1 view .LVU30
 142:Middlewares/LVGL/GUI/lvgl/src/misc/lv_fs.c ****         uint16_t buffer_remaining_length = buffer_size - buffer_offset;
 129              		.loc 1 142 48 is_stmt 0 view .LVU31
 130 002a 1FFA89F6 		uxth	r6, r9
 131 002e 9BB2     		uxth	r3, r3
 132              	.LVL11:
 142:Middlewares/LVGL/GUI/lvgl/src/misc/lv_fs.c ****         uint16_t buffer_remaining_length = buffer_size - buffer_offset;
 133              		.loc 1 142 18 view .LVU32
 134 0030 F11A     		subs	r1, r6, r3
 135              	.LVL12:
 142:Middlewares/LVGL/GUI/lvgl/src/misc/lv_fs.c ****         uint16_t buffer_remaining_length = buffer_size - buffer_offset;
 136              		.loc 1 142 18 view .LVU33
 137 0032 89B2     		uxth	r1, r1
 138              	.LVL13:
 143:Middlewares/LVGL/GUI/lvgl/src/misc/lv_fs.c **** 
 139              		.loc 1 143 9 is_stmt 1 view .LVU34
 143:Middlewares/LVGL/GUI/lvgl/src/misc/lv_fs.c **** 
 140              		.loc 1 143 18 is_stmt 0 view .LVU35
 141 0034 9B1B     		subs	r3, r3, r6
 142 0036 0AEB0306 		add	r6, r10, r3
ARM GAS  C:\Users\ADMINI~1\AppData\Local\Temp\cciH6Em7.s 			page 13


 143 003a B6B2     		uxth	r6, r6
 144              	.LVL14:
 145:Middlewares/LVGL/GUI/lvgl/src/misc/lv_fs.c ****             /*Data is in cache buffer, and buffer end not reached, no need to read from FS*/
 145              		.loc 1 145 9 is_stmt 1 view .LVU36
 145:Middlewares/LVGL/GUI/lvgl/src/misc/lv_fs.c ****             /*Data is in cache buffer, and buffer end not reached, no need to read from FS*/
 146              		.loc 1 145 11 is_stmt 0 view .LVU37
 147 003c AE42     		cmp	r6, r5
 148 003e 07D3     		bcc	.L6
 147:Middlewares/LVGL/GUI/lvgl/src/misc/lv_fs.c ****         }
 149              		.loc 1 147 13 is_stmt 1 view .LVU38
 150 0040 2A46     		mov	r2, r5
 151              	.LVL15:
 147:Middlewares/LVGL/GUI/lvgl/src/misc/lv_fs.c ****         }
 152              		.loc 1 147 13 is_stmt 0 view .LVU39
 153 0042 5944     		add	r1, r1, fp
 154              	.LVL16:
 147:Middlewares/LVGL/GUI/lvgl/src/misc/lv_fs.c ****         }
 155              		.loc 1 147 13 view .LVU40
 156 0044 3846     		mov	r0, r7
 157 0046 FFF7FEFF 		bl	lv_memcpy
 158              	.LVL17:
 147:Middlewares/LVGL/GUI/lvgl/src/misc/lv_fs.c ****         }
 159              		.loc 1 147 13 view .LVU41
 160              	.LBE2:
 196:Middlewares/LVGL/GUI/lvgl/src/misc/lv_fs.c ****         *br = btr;
 161              		.loc 1 196 5 is_stmt 1 view .LVU42
 132:Middlewares/LVGL/GUI/lvgl/src/misc/lv_fs.c ****     uint32_t file_position = file_p->cache->file_position;
 162              		.loc 1 132 17 is_stmt 0 view .LVU43
 163 004a 4FF0000A 		mov	r10, #0
 164              	.LVL18:
 132:Middlewares/LVGL/GUI/lvgl/src/misc/lv_fs.c ****     uint32_t file_position = file_p->cache->file_position;
 165              		.loc 1 132 17 view .LVU44
 166 004e 3BE0     		b	.L7
 167              	.LVL19:
 168              	.L6:
 169              	.LBB4:
 151:Middlewares/LVGL/GUI/lvgl/src/misc/lv_fs.c **** 
 170              		.loc 1 151 13 is_stmt 1 view .LVU45
 171 0050 3246     		mov	r2, r6
 172              	.LVL20:
 151:Middlewares/LVGL/GUI/lvgl/src/misc/lv_fs.c **** 
 173              		.loc 1 151 13 is_stmt 0 view .LVU46
 174 0052 5944     		add	r1, r1, fp
 175              	.LVL21:
 151:Middlewares/LVGL/GUI/lvgl/src/misc/lv_fs.c **** 
 176              		.loc 1 151 13 view .LVU47
 177 0054 3846     		mov	r0, r7
 178 0056 FFF7FEFF 		bl	lv_memcpy
 179              	.LVL22:
 153:Middlewares/LVGL/GUI/lvgl/src/misc/lv_fs.c ****                 /*If remaining data chuck is bigger than buffer size, then do not use cache, instea
 180              		.loc 1 153 13 is_stmt 1 view .LVU48
 153:Middlewares/LVGL/GUI/lvgl/src/misc/lv_fs.c ****                 /*If remaining data chuck is bigger than buffer size, then do not use cache, instea
 181              		.loc 1 153 15 is_stmt 0 view .LVU49
 182 005a AA45     		cmp	r10, r5
 183 005c 0AD2     		bcs	.L8
 155:Middlewares/LVGL/GUI/lvgl/src/misc/lv_fs.c ****                                            btr - buffer_remaining_length, br);
 184              		.loc 1 155 17 is_stmt 1 view .LVU50
ARM GAS  C:\Users\ADMINI~1\AppData\Local\Temp\cciH6Em7.s 			page 14


 155:Middlewares/LVGL/GUI/lvgl/src/misc/lv_fs.c ****                                            btr - buffer_remaining_length, br);
 185              		.loc 1 155 29 is_stmt 0 view .LVU51
 186 005e 6068     		ldr	r0, [r4, #4]
 155:Middlewares/LVGL/GUI/lvgl/src/misc/lv_fs.c ****                                            btr - buffer_remaining_length, br);
 187              		.loc 1 155 34 view .LVU52
 188 0060 D0F81090 		ldr	r9, [r0, #16]
 189              	.LVL23:
 155:Middlewares/LVGL/GUI/lvgl/src/misc/lv_fs.c ****                                            btr - buffer_remaining_length, br);
 190              		.loc 1 155 23 view .LVU53
 191 0064 CDF80080 		str	r8, [sp]
 192 0068 AB1B     		subs	r3, r5, r6
 193 006a BA19     		adds	r2, r7, r6
 194 006c 2168     		ldr	r1, [r4]
 195 006e C847     		blx	r9
 196              	.LVL24:
 197 0070 8246     		mov	r10, r0
 198              	.LVL25:
 155:Middlewares/LVGL/GUI/lvgl/src/misc/lv_fs.c ****                                            btr - buffer_remaining_length, br);
 199              		.loc 1 155 23 view .LVU54
 200 0072 26E0     		b	.L9
 201              	.LVL26:
 202              	.L8:
 203              	.LBB3:
 160:Middlewares/LVGL/GUI/lvgl/src/misc/lv_fs.c **** 
 204              		.loc 1 160 17 is_stmt 1 view .LVU55
 160:Middlewares/LVGL/GUI/lvgl/src/misc/lv_fs.c **** 
 205              		.loc 1 160 26 is_stmt 0 view .LVU56
 206 0074 0023     		movs	r3, #0
 207 0076 0393     		str	r3, [sp, #12]
 163:Middlewares/LVGL/GUI/lvgl/src/misc/lv_fs.c ****                 file_p->cache->start = file_p->cache->end + 1;
 208              		.loc 1 163 17 is_stmt 1 view .LVU57
 163:Middlewares/LVGL/GUI/lvgl/src/misc/lv_fs.c ****                 file_p->cache->start = file_p->cache->end + 1;
 209              		.loc 1 163 29 is_stmt 0 view .LVU58
 210 0078 6068     		ldr	r0, [r4, #4]
 163:Middlewares/LVGL/GUI/lvgl/src/misc/lv_fs.c ****                 file_p->cache->start = file_p->cache->end + 1;
 211              		.loc 1 163 34 view .LVU59
 212 007a D0F81090 		ldr	r9, [r0, #16]
 213              	.LVL27:
 163:Middlewares/LVGL/GUI/lvgl/src/misc/lv_fs.c ****                 file_p->cache->start = file_p->cache->end + 1;
 214              		.loc 1 163 23 view .LVU60
 215 007e 03AB     		add	r3, sp, #12
 216 0080 0093     		str	r3, [sp]
 217 0082 5346     		mov	r3, r10
 218 0084 5A46     		mov	r2, fp
 219 0086 2168     		ldr	r1, [r4]
 220 0088 C847     		blx	r9
 221              	.LVL28:
 222 008a 8246     		mov	r10, r0
 223              	.LVL29:
 164:Middlewares/LVGL/GUI/lvgl/src/misc/lv_fs.c ****                 file_p->cache->end = file_p->cache->start + bytes_read_to_buffer;
 224              		.loc 1 164 17 is_stmt 1 view .LVU61
 164:Middlewares/LVGL/GUI/lvgl/src/misc/lv_fs.c ****                 file_p->cache->end = file_p->cache->start + bytes_read_to_buffer;
 225              		.loc 1 164 46 is_stmt 0 view .LVU62
 226 008c A268     		ldr	r2, [r4, #8]
 164:Middlewares/LVGL/GUI/lvgl/src/misc/lv_fs.c ****                 file_p->cache->end = file_p->cache->start + bytes_read_to_buffer;
 227              		.loc 1 164 53 view .LVU63
 228 008e 5368     		ldr	r3, [r2, #4]
ARM GAS  C:\Users\ADMINI~1\AppData\Local\Temp\cciH6Em7.s 			page 15


 164:Middlewares/LVGL/GUI/lvgl/src/misc/lv_fs.c ****                 file_p->cache->end = file_p->cache->start + bytes_read_to_buffer;
 229              		.loc 1 164 59 view .LVU64
 230 0090 0133     		adds	r3, r3, #1
 164:Middlewares/LVGL/GUI/lvgl/src/misc/lv_fs.c ****                 file_p->cache->end = file_p->cache->start + bytes_read_to_buffer;
 231              		.loc 1 164 38 view .LVU65
 232 0092 1360     		str	r3, [r2]
 165:Middlewares/LVGL/GUI/lvgl/src/misc/lv_fs.c **** 
 233              		.loc 1 165 17 is_stmt 1 view .LVU66
 165:Middlewares/LVGL/GUI/lvgl/src/misc/lv_fs.c **** 
 234              		.loc 1 165 44 is_stmt 0 view .LVU67
 235 0094 A268     		ldr	r2, [r4, #8]
 165:Middlewares/LVGL/GUI/lvgl/src/misc/lv_fs.c **** 
 236              		.loc 1 165 51 view .LVU68
 237 0096 1368     		ldr	r3, [r2]
 165:Middlewares/LVGL/GUI/lvgl/src/misc/lv_fs.c **** 
 238              		.loc 1 165 59 view .LVU69
 239 0098 0399     		ldr	r1, [sp, #12]
 240 009a 0B44     		add	r3, r3, r1
 165:Middlewares/LVGL/GUI/lvgl/src/misc/lv_fs.c **** 
 241              		.loc 1 165 36 view .LVU70
 242 009c 5360     		str	r3, [r2, #4]
 167:Middlewares/LVGL/GUI/lvgl/src/misc/lv_fs.c ****                 memcpy(buf + buffer_remaining_length, buffer, data_chunk_remaining);
 243              		.loc 1 167 17 is_stmt 1 view .LVU71
 167:Middlewares/LVGL/GUI/lvgl/src/misc/lv_fs.c ****                 memcpy(buf + buffer_remaining_length, buffer, data_chunk_remaining);
 244              		.loc 1 167 53 is_stmt 0 view .LVU72
 245 009e AAB2     		uxth	r2, r5
 167:Middlewares/LVGL/GUI/lvgl/src/misc/lv_fs.c ****                 memcpy(buf + buffer_remaining_length, buffer, data_chunk_remaining);
 246              		.loc 1 167 26 view .LVU73
 247 00a0 921B     		subs	r2, r2, r6
 248              	.LVL30:
 168:Middlewares/LVGL/GUI/lvgl/src/misc/lv_fs.c ****             }
 249              		.loc 1 168 17 is_stmt 1 view .LVU74
 250 00a2 92B2     		uxth	r2, r2
 168:Middlewares/LVGL/GUI/lvgl/src/misc/lv_fs.c ****             }
 251              		.loc 1 168 17 is_stmt 0 view .LVU75
 252 00a4 5946     		mov	r1, fp
 253 00a6 B819     		adds	r0, r7, r6
 254 00a8 FFF7FEFF 		bl	memcpy
 255              	.LVL31:
 168:Middlewares/LVGL/GUI/lvgl/src/misc/lv_fs.c ****             }
 256              		.loc 1 168 17 view .LVU76
 257 00ac 09E0     		b	.L9
 258              	.LVL32:
 259              	.L5:
 168:Middlewares/LVGL/GUI/lvgl/src/misc/lv_fs.c ****             }
 260              		.loc 1 168 17 view .LVU77
 261              	.LBE3:
 262              	.LBE4:
 175:Middlewares/LVGL/GUI/lvgl/src/misc/lv_fs.c ****             /*If bigger data is requested, then do not use cache, instead read it directly*/
 263              		.loc 1 175 9 is_stmt 1 view .LVU78
 175:Middlewares/LVGL/GUI/lvgl/src/misc/lv_fs.c ****             /*If bigger data is requested, then do not use cache, instead read it directly*/
 264              		.loc 1 175 11 is_stmt 0 view .LVU79
 265 00ae AA45     		cmp	r10, r5
 266 00b0 14D2     		bcs	.L10
 177:Middlewares/LVGL/GUI/lvgl/src/misc/lv_fs.c ****         }
 267              		.loc 1 177 13 is_stmt 1 view .LVU80
 177:Middlewares/LVGL/GUI/lvgl/src/misc/lv_fs.c ****         }
ARM GAS  C:\Users\ADMINI~1\AppData\Local\Temp\cciH6Em7.s 			page 16


 268              		.loc 1 177 30 is_stmt 0 view .LVU81
 269 00b2 0669     		ldr	r6, [r0, #16]
 177:Middlewares/LVGL/GUI/lvgl/src/misc/lv_fs.c ****         }
 270              		.loc 1 177 19 view .LVU82
 271 00b4 CDF80080 		str	r8, [sp]
 272 00b8 2B46     		mov	r3, r5
 273              	.LVL33:
 177:Middlewares/LVGL/GUI/lvgl/src/misc/lv_fs.c ****         }
 274              		.loc 1 177 19 view .LVU83
 275 00ba 3A46     		mov	r2, r7
 276              	.LVL34:
 177:Middlewares/LVGL/GUI/lvgl/src/misc/lv_fs.c ****         }
 277              		.loc 1 177 19 view .LVU84
 278 00bc 2168     		ldr	r1, [r4]
 279              	.LVL35:
 177:Middlewares/LVGL/GUI/lvgl/src/misc/lv_fs.c ****         }
 280              		.loc 1 177 19 view .LVU85
 281 00be B047     		blx	r6
 282              	.LVL36:
 283 00c0 8246     		mov	r10, r0
 284              	.LVL37:
 285              	.L9:
 196:Middlewares/LVGL/GUI/lvgl/src/misc/lv_fs.c ****         *br = btr;
 286              		.loc 1 196 5 is_stmt 1 view .LVU86
 196:Middlewares/LVGL/GUI/lvgl/src/misc/lv_fs.c ****         *br = btr;
 287              		.loc 1 196 7 is_stmt 0 view .LVU87
 288 00c2 BAF1000F 		cmp	r10, #0
 289 00c6 05D1     		bne	.L13
 290              	.LVL38:
 291              	.L7:
 197:Middlewares/LVGL/GUI/lvgl/src/misc/lv_fs.c ****         file_p->cache->file_position += btr;
 292              		.loc 1 197 9 is_stmt 1 view .LVU88
 197:Middlewares/LVGL/GUI/lvgl/src/misc/lv_fs.c ****         file_p->cache->file_position += btr;
 293              		.loc 1 197 13 is_stmt 0 view .LVU89
 294 00c8 C8F80050 		str	r5, [r8]
 198:Middlewares/LVGL/GUI/lvgl/src/misc/lv_fs.c ****     }
 295              		.loc 1 198 9 is_stmt 1 view .LVU90
 198:Middlewares/LVGL/GUI/lvgl/src/misc/lv_fs.c ****     }
 296              		.loc 1 198 15 is_stmt 0 view .LVU91
 297 00cc A368     		ldr	r3, [r4, #8]
 198:Middlewares/LVGL/GUI/lvgl/src/misc/lv_fs.c ****     }
 298              		.loc 1 198 38 view .LVU92
 299 00ce 9A68     		ldr	r2, [r3, #8]
 300 00d0 2A44     		add	r2, r2, r5
 301 00d2 9A60     		str	r2, [r3, #8]
 302              	.L13:
 201:Middlewares/LVGL/GUI/lvgl/src/misc/lv_fs.c **** }
 303              		.loc 1 201 5 is_stmt 1 view .LVU93
 202:Middlewares/LVGL/GUI/lvgl/src/misc/lv_fs.c **** 
 304              		.loc 1 202 1 is_stmt 0 view .LVU94
 305 00d4 5046     		mov	r0, r10
 306 00d6 05B0     		add	sp, sp, #20
 307              	.LCFI2:
 308              		.cfi_remember_state
 309              		.cfi_def_cfa_offset 36
 310              		@ sp needed
 311 00d8 BDE8F08F 		pop	{r4, r5, r6, r7, r8, r9, r10, fp, pc}
ARM GAS  C:\Users\ADMINI~1\AppData\Local\Temp\cciH6Em7.s 			page 17


 312              	.LVL39:
 313              	.L10:
 314              	.LCFI3:
 315              		.cfi_restore_state
 316              	.LBB5:
 181:Middlewares/LVGL/GUI/lvgl/src/misc/lv_fs.c ****                 file_p->cache->buffer = lv_mem_alloc(buffer_size);
 317              		.loc 1 181 13 is_stmt 1 view .LVU95
 181:Middlewares/LVGL/GUI/lvgl/src/misc/lv_fs.c ****                 file_p->cache->buffer = lv_mem_alloc(buffer_size);
 318              		.loc 1 181 15 is_stmt 0 view .LVU96
 319 00dc BBF1000F 		cmp	fp, #0
 320 00e0 18D0     		beq	.L15
 321              	.LVL40:
 322              	.L11:
 187:Middlewares/LVGL/GUI/lvgl/src/misc/lv_fs.c ****             res = file_p->drv->read_cb(file_p->drv, file_p->file_d, (void *)buffer, buffer_size, &b
 323              		.loc 1 187 13 is_stmt 1 view .LVU97
 187:Middlewares/LVGL/GUI/lvgl/src/misc/lv_fs.c ****             res = file_p->drv->read_cb(file_p->drv, file_p->file_d, (void *)buffer, buffer_size, &b
 324              		.loc 1 187 22 is_stmt 0 view .LVU98
 325 00e2 0023     		movs	r3, #0
 326 00e4 0393     		str	r3, [sp, #12]
 188:Middlewares/LVGL/GUI/lvgl/src/misc/lv_fs.c ****             file_p->cache->start = file_position;
 327              		.loc 1 188 13 is_stmt 1 view .LVU99
 188:Middlewares/LVGL/GUI/lvgl/src/misc/lv_fs.c ****             file_p->cache->start = file_position;
 328              		.loc 1 188 25 is_stmt 0 view .LVU100
 329 00e6 6068     		ldr	r0, [r4, #4]
 188:Middlewares/LVGL/GUI/lvgl/src/misc/lv_fs.c ****             file_p->cache->start = file_position;
 330              		.loc 1 188 30 view .LVU101
 331 00e8 0669     		ldr	r6, [r0, #16]
 188:Middlewares/LVGL/GUI/lvgl/src/misc/lv_fs.c ****             file_p->cache->start = file_position;
 332              		.loc 1 188 19 view .LVU102
 333 00ea 03AB     		add	r3, sp, #12
 334 00ec 0093     		str	r3, [sp]
 335 00ee 5346     		mov	r3, r10
 336 00f0 5A46     		mov	r2, fp
 337 00f2 2168     		ldr	r1, [r4]
 338 00f4 B047     		blx	r6
 339              	.LVL41:
 340 00f6 8246     		mov	r10, r0
 341              	.LVL42:
 189:Middlewares/LVGL/GUI/lvgl/src/misc/lv_fs.c ****             file_p->cache->end = file_p->cache->start + bytes_read_to_buffer;
 342              		.loc 1 189 13 is_stmt 1 view .LVU103
 189:Middlewares/LVGL/GUI/lvgl/src/misc/lv_fs.c ****             file_p->cache->end = file_p->cache->start + bytes_read_to_buffer;
 343              		.loc 1 189 19 is_stmt 0 view .LVU104
 344 00f8 A368     		ldr	r3, [r4, #8]
 189:Middlewares/LVGL/GUI/lvgl/src/misc/lv_fs.c ****             file_p->cache->end = file_p->cache->start + bytes_read_to_buffer;
 345              		.loc 1 189 34 view .LVU105
 346 00fa C3F80090 		str	r9, [r3]
 190:Middlewares/LVGL/GUI/lvgl/src/misc/lv_fs.c **** 
 347              		.loc 1 190 13 is_stmt 1 view .LVU106
 190:Middlewares/LVGL/GUI/lvgl/src/misc/lv_fs.c **** 
 348              		.loc 1 190 40 is_stmt 0 view .LVU107
 349 00fe A268     		ldr	r2, [r4, #8]
 190:Middlewares/LVGL/GUI/lvgl/src/misc/lv_fs.c **** 
 350              		.loc 1 190 47 view .LVU108
 351 0100 1368     		ldr	r3, [r2]
 190:Middlewares/LVGL/GUI/lvgl/src/misc/lv_fs.c **** 
 352              		.loc 1 190 55 view .LVU109
 353 0102 0399     		ldr	r1, [sp, #12]
ARM GAS  C:\Users\ADMINI~1\AppData\Local\Temp\cciH6Em7.s 			page 18


 354 0104 0B44     		add	r3, r3, r1
 190:Middlewares/LVGL/GUI/lvgl/src/misc/lv_fs.c **** 
 355              		.loc 1 190 32 view .LVU110
 356 0106 5360     		str	r3, [r2, #4]
 192:Middlewares/LVGL/GUI/lvgl/src/misc/lv_fs.c ****         }
 357              		.loc 1 192 13 is_stmt 1 view .LVU111
 358 0108 2A46     		mov	r2, r5
 359 010a 5946     		mov	r1, fp
 360 010c 3846     		mov	r0, r7
 361 010e FFF7FEFF 		bl	memcpy
 362              	.LVL43:
 363 0112 D6E7     		b	.L9
 364              	.LVL44:
 365              	.L15:
 182:Middlewares/LVGL/GUI/lvgl/src/misc/lv_fs.c ****                 LV_ASSERT_MALLOC(file_p->cache->buffer);
 366              		.loc 1 182 17 view .LVU112
 182:Middlewares/LVGL/GUI/lvgl/src/misc/lv_fs.c ****                 LV_ASSERT_MALLOC(file_p->cache->buffer);
 367              		.loc 1 182 41 is_stmt 0 view .LVU113
 368 0114 5046     		mov	r0, r10
 369 0116 FFF7FEFF 		bl	lv_mem_alloc
 370              	.LVL45:
 182:Middlewares/LVGL/GUI/lvgl/src/misc/lv_fs.c ****                 LV_ASSERT_MALLOC(file_p->cache->buffer);
 371              		.loc 1 182 39 view .LVU114
 372 011a F060     		str	r0, [r6, #12]
 183:Middlewares/LVGL/GUI/lvgl/src/misc/lv_fs.c ****                 buffer = file_p->cache->buffer;
 373              		.loc 1 183 17 is_stmt 1 view .LVU115
 183:Middlewares/LVGL/GUI/lvgl/src/misc/lv_fs.c ****                 buffer = file_p->cache->buffer;
 374              		.loc 1 183 17 view .LVU116
 375 011c A368     		ldr	r3, [r4, #8]
 376 011e D3F80CB0 		ldr	fp, [r3, #12]
 377              	.LVL46:
 183:Middlewares/LVGL/GUI/lvgl/src/misc/lv_fs.c ****                 buffer = file_p->cache->buffer;
 378              		.loc 1 183 17 is_stmt 0 view .LVU117
 379 0122 BBF1000F 		cmp	fp, #0
 380 0126 DCD1     		bne	.L11
 381              	.L12:
 183:Middlewares/LVGL/GUI/lvgl/src/misc/lv_fs.c ****                 buffer = file_p->cache->buffer;
 382              		.loc 1 183 17 is_stmt 1 discriminator 2 view .LVU118
 183:Middlewares/LVGL/GUI/lvgl/src/misc/lv_fs.c ****                 buffer = file_p->cache->buffer;
 383              		.loc 1 183 17 discriminator 2 view .LVU119
 183:Middlewares/LVGL/GUI/lvgl/src/misc/lv_fs.c ****                 buffer = file_p->cache->buffer;
 384              		.loc 1 183 17 discriminator 2 view .LVU120
 183:Middlewares/LVGL/GUI/lvgl/src/misc/lv_fs.c ****                 buffer = file_p->cache->buffer;
 385              		.loc 1 183 17 discriminator 2 view .LVU121
 183:Middlewares/LVGL/GUI/lvgl/src/misc/lv_fs.c ****                 buffer = file_p->cache->buffer;
 386              		.loc 1 183 17 discriminator 2 view .LVU122
 183:Middlewares/LVGL/GUI/lvgl/src/misc/lv_fs.c ****                 buffer = file_p->cache->buffer;
 387              		.loc 1 183 17 discriminator 2 view .LVU123
 388 0128 FEE7     		b	.L12
 389              	.LBE5:
 390              		.cfi_endproc
 391              	.LFE27:
 393              		.section	.text._lv_fs_init,"ax",%progbits
 394              		.align	1
 395              		.global	_lv_fs_init
 396              		.syntax unified
 397              		.thumb
ARM GAS  C:\Users\ADMINI~1\AppData\Local\Temp\cciH6Em7.s 			page 19


 398              		.thumb_func
 400              	_lv_fs_init:
 401              	.LFB23:
  42:Middlewares/LVGL/GUI/lvgl/src/misc/lv_fs.c ****     _lv_ll_init(&LV_GC_ROOT(_lv_fsdrv_ll), sizeof(lv_fs_drv_t *));
 402              		.loc 1 42 1 view -0
 403              		.cfi_startproc
 404              		@ args = 0, pretend = 0, frame = 0
 405              		@ frame_needed = 0, uses_anonymous_args = 0
 406 0000 08B5     		push	{r3, lr}
 407              	.LCFI4:
 408              		.cfi_def_cfa_offset 8
 409              		.cfi_offset 3, -8
 410              		.cfi_offset 14, -4
  43:Middlewares/LVGL/GUI/lvgl/src/misc/lv_fs.c **** }
 411              		.loc 1 43 5 view .LVU125
 412 0002 0421     		movs	r1, #4
 413 0004 0148     		ldr	r0, .L18
 414 0006 FFF7FEFF 		bl	_lv_ll_init
 415              	.LVL47:
  44:Middlewares/LVGL/GUI/lvgl/src/misc/lv_fs.c **** 
 416              		.loc 1 44 1 is_stmt 0 view .LVU126
 417 000a 08BD     		pop	{r3, pc}
 418              	.L19:
 419              		.align	2
 420              	.L18:
 421 000c 00000000 		.word	_lv_fsdrv_ll
 422              		.cfi_endproc
 423              	.LFE23:
 425              		.section	.text.lv_fs_close,"ax",%progbits
 426              		.align	1
 427              		.global	lv_fs_close
 428              		.syntax unified
 429              		.thumb
 430              		.thumb_func
 432              	lv_fs_close:
 433              	.LVL48:
 434              	.LFB26:
 104:Middlewares/LVGL/GUI/lvgl/src/misc/lv_fs.c ****     if(file_p->drv == NULL) {
 435              		.loc 1 104 1 is_stmt 1 view -0
 436              		.cfi_startproc
 437              		@ args = 0, pretend = 0, frame = 0
 438              		@ frame_needed = 0, uses_anonymous_args = 0
 104:Middlewares/LVGL/GUI/lvgl/src/misc/lv_fs.c ****     if(file_p->drv == NULL) {
 439              		.loc 1 104 1 is_stmt 0 view .LVU128
 440 0000 38B5     		push	{r3, r4, r5, lr}
 441              	.LCFI5:
 442              		.cfi_def_cfa_offset 16
 443              		.cfi_offset 3, -16
 444              		.cfi_offset 4, -12
 445              		.cfi_offset 5, -8
 446              		.cfi_offset 14, -4
 447 0002 0446     		mov	r4, r0
 105:Middlewares/LVGL/GUI/lvgl/src/misc/lv_fs.c ****         return LV_FS_RES_INV_PARAM;
 448              		.loc 1 105 5 is_stmt 1 view .LVU129
 105:Middlewares/LVGL/GUI/lvgl/src/misc/lv_fs.c ****         return LV_FS_RES_INV_PARAM;
 449              		.loc 1 105 14 is_stmt 0 view .LVU130
 450 0004 4068     		ldr	r0, [r0, #4]
ARM GAS  C:\Users\ADMINI~1\AppData\Local\Temp\cciH6Em7.s 			page 20


 451              	.LVL49:
 105:Middlewares/LVGL/GUI/lvgl/src/misc/lv_fs.c ****         return LV_FS_RES_INV_PARAM;
 452              		.loc 1 105 7 view .LVU131
 453 0006 B0B1     		cbz	r0, .L24
 109:Middlewares/LVGL/GUI/lvgl/src/misc/lv_fs.c ****         return LV_FS_RES_NOT_IMP;
 454              		.loc 1 109 5 is_stmt 1 view .LVU132
 109:Middlewares/LVGL/GUI/lvgl/src/misc/lv_fs.c ****         return LV_FS_RES_NOT_IMP;
 455              		.loc 1 109 19 is_stmt 0 view .LVU133
 456 0008 C368     		ldr	r3, [r0, #12]
 109:Middlewares/LVGL/GUI/lvgl/src/misc/lv_fs.c ****         return LV_FS_RES_NOT_IMP;
 457              		.loc 1 109 7 view .LVU134
 458 000a B3B1     		cbz	r3, .L25
 113:Middlewares/LVGL/GUI/lvgl/src/misc/lv_fs.c **** 
 459              		.loc 1 113 5 is_stmt 1 view .LVU135
 113:Middlewares/LVGL/GUI/lvgl/src/misc/lv_fs.c **** 
 460              		.loc 1 113 23 is_stmt 0 view .LVU136
 461 000c 2168     		ldr	r1, [r4]
 462 000e 9847     		blx	r3
 463              	.LVL50:
 464 0010 0546     		mov	r5, r0
 465              	.LVL51:
 115:Middlewares/LVGL/GUI/lvgl/src/misc/lv_fs.c ****         if(file_p->cache->buffer) {
 466              		.loc 1 115 5 is_stmt 1 view .LVU137
 115:Middlewares/LVGL/GUI/lvgl/src/misc/lv_fs.c ****         if(file_p->cache->buffer) {
 467              		.loc 1 115 14 is_stmt 0 view .LVU138
 468 0012 6368     		ldr	r3, [r4, #4]
 115:Middlewares/LVGL/GUI/lvgl/src/misc/lv_fs.c ****         if(file_p->cache->buffer) {
 469              		.loc 1 115 19 view .LVU139
 470 0014 5B88     		ldrh	r3, [r3, #2]
 115:Middlewares/LVGL/GUI/lvgl/src/misc/lv_fs.c ****         if(file_p->cache->buffer) {
 471              		.loc 1 115 7 view .LVU140
 472 0016 43B1     		cbz	r3, .L22
 115:Middlewares/LVGL/GUI/lvgl/src/misc/lv_fs.c ****         if(file_p->cache->buffer) {
 473              		.loc 1 115 41 discriminator 1 view .LVU141
 474 0018 A368     		ldr	r3, [r4, #8]
 115:Middlewares/LVGL/GUI/lvgl/src/misc/lv_fs.c ****         if(file_p->cache->buffer) {
 475              		.loc 1 115 32 discriminator 1 view .LVU142
 476 001a 33B1     		cbz	r3, .L22
 116:Middlewares/LVGL/GUI/lvgl/src/misc/lv_fs.c ****             lv_mem_free(file_p->cache->buffer);
 477              		.loc 1 116 9 is_stmt 1 view .LVU143
 116:Middlewares/LVGL/GUI/lvgl/src/misc/lv_fs.c ****             lv_mem_free(file_p->cache->buffer);
 478              		.loc 1 116 25 is_stmt 0 view .LVU144
 479 001c D868     		ldr	r0, [r3, #12]
 116:Middlewares/LVGL/GUI/lvgl/src/misc/lv_fs.c ****             lv_mem_free(file_p->cache->buffer);
 480              		.loc 1 116 11 view .LVU145
 481 001e 08B1     		cbz	r0, .L23
 117:Middlewares/LVGL/GUI/lvgl/src/misc/lv_fs.c ****         }
 482              		.loc 1 117 13 is_stmt 1 view .LVU146
 483 0020 FFF7FEFF 		bl	lv_mem_free
 484              	.LVL52:
 485              	.L23:
 120:Middlewares/LVGL/GUI/lvgl/src/misc/lv_fs.c ****     }
 486              		.loc 1 120 9 view .LVU147
 487 0024 A068     		ldr	r0, [r4, #8]
 488 0026 FFF7FEFF 		bl	lv_mem_free
 489              	.LVL53:
 490              	.L22:
ARM GAS  C:\Users\ADMINI~1\AppData\Local\Temp\cciH6Em7.s 			page 21


 123:Middlewares/LVGL/GUI/lvgl/src/misc/lv_fs.c ****     file_p->drv    = NULL;
 491              		.loc 1 123 5 view .LVU148
 123:Middlewares/LVGL/GUI/lvgl/src/misc/lv_fs.c ****     file_p->drv    = NULL;
 492              		.loc 1 123 20 is_stmt 0 view .LVU149
 493 002a 0023     		movs	r3, #0
 494 002c 2360     		str	r3, [r4]
 124:Middlewares/LVGL/GUI/lvgl/src/misc/lv_fs.c ****     file_p->cache  = NULL;
 495              		.loc 1 124 5 is_stmt 1 view .LVU150
 124:Middlewares/LVGL/GUI/lvgl/src/misc/lv_fs.c ****     file_p->cache  = NULL;
 496              		.loc 1 124 20 is_stmt 0 view .LVU151
 497 002e 6360     		str	r3, [r4, #4]
 125:Middlewares/LVGL/GUI/lvgl/src/misc/lv_fs.c **** 
 498              		.loc 1 125 5 is_stmt 1 view .LVU152
 125:Middlewares/LVGL/GUI/lvgl/src/misc/lv_fs.c **** 
 499              		.loc 1 125 20 is_stmt 0 view .LVU153
 500 0030 A360     		str	r3, [r4, #8]
 127:Middlewares/LVGL/GUI/lvgl/src/misc/lv_fs.c **** }
 501              		.loc 1 127 5 is_stmt 1 view .LVU154
 502              	.LVL54:
 503              	.L21:
 128:Middlewares/LVGL/GUI/lvgl/src/misc/lv_fs.c **** 
 504              		.loc 1 128 1 is_stmt 0 view .LVU155
 505 0032 2846     		mov	r0, r5
 506 0034 38BD     		pop	{r3, r4, r5, pc}
 507              	.LVL55:
 508              	.L24:
 106:Middlewares/LVGL/GUI/lvgl/src/misc/lv_fs.c ****     }
 509              		.loc 1 106 16 view .LVU156
 510 0036 0B25     		movs	r5, #11
 511 0038 FBE7     		b	.L21
 512              	.L25:
 110:Middlewares/LVGL/GUI/lvgl/src/misc/lv_fs.c ****     }
 513              		.loc 1 110 16 view .LVU157
 514 003a 0925     		movs	r5, #9
 515 003c F9E7     		b	.L21
 516              		.cfi_endproc
 517              	.LFE26:
 519              		.section	.text.lv_fs_read,"ax",%progbits
 520              		.align	1
 521              		.global	lv_fs_read
 522              		.syntax unified
 523              		.thumb
 524              		.thumb_func
 526              	lv_fs_read:
 527              	.LVL56:
 528              	.LFB28:
 205:Middlewares/LVGL/GUI/lvgl/src/misc/lv_fs.c ****     if(br != NULL) *br = 0;
 529              		.loc 1 205 1 is_stmt 1 view -0
 530              		.cfi_startproc
 531              		@ args = 0, pretend = 0, frame = 8
 532              		@ frame_needed = 0, uses_anonymous_args = 0
 205:Middlewares/LVGL/GUI/lvgl/src/misc/lv_fs.c ****     if(br != NULL) *br = 0;
 533              		.loc 1 205 1 is_stmt 0 view .LVU159
 534 0000 30B5     		push	{r4, r5, lr}
 535              	.LCFI6:
 536              		.cfi_def_cfa_offset 12
 537              		.cfi_offset 4, -12
ARM GAS  C:\Users\ADMINI~1\AppData\Local\Temp\cciH6Em7.s 			page 22


 538              		.cfi_offset 5, -8
 539              		.cfi_offset 14, -4
 540 0002 85B0     		sub	sp, sp, #20
 541              	.LCFI7:
 542              		.cfi_def_cfa_offset 32
 543 0004 8446     		mov	ip, r0
 206:Middlewares/LVGL/GUI/lvgl/src/misc/lv_fs.c ****     if(file_p->drv == NULL) return LV_FS_RES_INV_PARAM;
 544              		.loc 1 206 5 is_stmt 1 view .LVU160
 206:Middlewares/LVGL/GUI/lvgl/src/misc/lv_fs.c ****     if(file_p->drv == NULL) return LV_FS_RES_INV_PARAM;
 545              		.loc 1 206 7 is_stmt 0 view .LVU161
 546 0006 1C46     		mov	r4, r3
 547 0008 0BB1     		cbz	r3, .L28
 206:Middlewares/LVGL/GUI/lvgl/src/misc/lv_fs.c ****     if(file_p->drv == NULL) return LV_FS_RES_INV_PARAM;
 548              		.loc 1 206 20 is_stmt 1 discriminator 1 view .LVU162
 206:Middlewares/LVGL/GUI/lvgl/src/misc/lv_fs.c ****     if(file_p->drv == NULL) return LV_FS_RES_INV_PARAM;
 549              		.loc 1 206 24 is_stmt 0 discriminator 1 view .LVU163
 550 000a 0023     		movs	r3, #0
 551              	.LVL57:
 206:Middlewares/LVGL/GUI/lvgl/src/misc/lv_fs.c ****     if(file_p->drv == NULL) return LV_FS_RES_INV_PARAM;
 552              		.loc 1 206 24 discriminator 1 view .LVU164
 553 000c 2360     		str	r3, [r4]
 554              	.L28:
 207:Middlewares/LVGL/GUI/lvgl/src/misc/lv_fs.c ****     if(file_p->drv->read_cb == NULL) return LV_FS_RES_NOT_IMP;
 555              		.loc 1 207 5 is_stmt 1 view .LVU165
 207:Middlewares/LVGL/GUI/lvgl/src/misc/lv_fs.c ****     if(file_p->drv->read_cb == NULL) return LV_FS_RES_NOT_IMP;
 556              		.loc 1 207 14 is_stmt 0 view .LVU166
 557 000e DCF80400 		ldr	r0, [ip, #4]
 558              	.LVL58:
 207:Middlewares/LVGL/GUI/lvgl/src/misc/lv_fs.c ****     if(file_p->drv->read_cb == NULL) return LV_FS_RES_NOT_IMP;
 559              		.loc 1 207 7 view .LVU167
 560 0012 B0B1     		cbz	r0, .L32
 208:Middlewares/LVGL/GUI/lvgl/src/misc/lv_fs.c **** 
 561              		.loc 1 208 5 is_stmt 1 view .LVU168
 208:Middlewares/LVGL/GUI/lvgl/src/misc/lv_fs.c **** 
 562              		.loc 1 208 19 is_stmt 0 view .LVU169
 563 0014 0569     		ldr	r5, [r0, #16]
 208:Middlewares/LVGL/GUI/lvgl/src/misc/lv_fs.c **** 
 564              		.loc 1 208 7 view .LVU170
 565 0016 B5B1     		cbz	r5, .L33
 210:Middlewares/LVGL/GUI/lvgl/src/misc/lv_fs.c ****     lv_fs_res_t res;
 566              		.loc 1 210 5 is_stmt 1 view .LVU171
 210:Middlewares/LVGL/GUI/lvgl/src/misc/lv_fs.c ****     lv_fs_res_t res;
 567              		.loc 1 210 14 is_stmt 0 view .LVU172
 568 0018 0023     		movs	r3, #0
 569 001a 0393     		str	r3, [sp, #12]
 211:Middlewares/LVGL/GUI/lvgl/src/misc/lv_fs.c **** 
 570              		.loc 1 211 5 is_stmt 1 view .LVU173
 213:Middlewares/LVGL/GUI/lvgl/src/misc/lv_fs.c ****         res = lv_fs_read_cached(file_p, (char *)buf, btr, &br_tmp);
 571              		.loc 1 213 5 view .LVU174
 213:Middlewares/LVGL/GUI/lvgl/src/misc/lv_fs.c ****         res = lv_fs_read_cached(file_p, (char *)buf, btr, &br_tmp);
 572              		.loc 1 213 19 is_stmt 0 view .LVU175
 573 001c 4388     		ldrh	r3, [r0, #2]
 213:Middlewares/LVGL/GUI/lvgl/src/misc/lv_fs.c ****         res = lv_fs_read_cached(file_p, (char *)buf, btr, &br_tmp);
 574              		.loc 1 213 7 view .LVU176
 575 001e 5BB9     		cbnz	r3, .L35
 217:Middlewares/LVGL/GUI/lvgl/src/misc/lv_fs.c ****     }
 576              		.loc 1 217 9 is_stmt 1 view .LVU177
ARM GAS  C:\Users\ADMINI~1\AppData\Local\Temp\cciH6Em7.s 			page 23


 217:Middlewares/LVGL/GUI/lvgl/src/misc/lv_fs.c ****     }
 577              		.loc 1 217 15 is_stmt 0 view .LVU178
 578 0020 03AB     		add	r3, sp, #12
 579 0022 0093     		str	r3, [sp]
 580 0024 1346     		mov	r3, r2
 581 0026 0A46     		mov	r2, r1
 582              	.LVL59:
 217:Middlewares/LVGL/GUI/lvgl/src/misc/lv_fs.c ****     }
 583              		.loc 1 217 15 view .LVU179
 584 0028 DCF80010 		ldr	r1, [ip]
 585              	.LVL60:
 217:Middlewares/LVGL/GUI/lvgl/src/misc/lv_fs.c ****     }
 586              		.loc 1 217 15 view .LVU180
 587 002c A847     		blx	r5
 588              	.LVL61:
 589              	.L31:
 220:Middlewares/LVGL/GUI/lvgl/src/misc/lv_fs.c **** 
 590              		.loc 1 220 5 is_stmt 1 view .LVU181
 220:Middlewares/LVGL/GUI/lvgl/src/misc/lv_fs.c **** 
 591              		.loc 1 220 7 is_stmt 0 view .LVU182
 592 002e 0CB1     		cbz	r4, .L29
 220:Middlewares/LVGL/GUI/lvgl/src/misc/lv_fs.c **** 
 593              		.loc 1 220 20 is_stmt 1 discriminator 1 view .LVU183
 220:Middlewares/LVGL/GUI/lvgl/src/misc/lv_fs.c **** 
 594              		.loc 1 220 24 is_stmt 0 discriminator 1 view .LVU184
 595 0030 039B     		ldr	r3, [sp, #12]
 596 0032 2360     		str	r3, [r4]
 597              	.LVL62:
 598              	.L29:
 223:Middlewares/LVGL/GUI/lvgl/src/misc/lv_fs.c **** 
 599              		.loc 1 223 1 view .LVU185
 600 0034 05B0     		add	sp, sp, #20
 601              	.LCFI8:
 602              		.cfi_remember_state
 603              		.cfi_def_cfa_offset 12
 604              		@ sp needed
 605 0036 30BD     		pop	{r4, r5, pc}
 606              	.LVL63:
 607              	.L35:
 608              	.LCFI9:
 609              		.cfi_restore_state
 214:Middlewares/LVGL/GUI/lvgl/src/misc/lv_fs.c ****     }
 610              		.loc 1 214 9 is_stmt 1 view .LVU186
 214:Middlewares/LVGL/GUI/lvgl/src/misc/lv_fs.c ****     }
 611              		.loc 1 214 15 is_stmt 0 view .LVU187
 612 0038 03AB     		add	r3, sp, #12
 613 003a 6046     		mov	r0, ip
 614 003c FFF7FEFF 		bl	lv_fs_read_cached
 615              	.LVL64:
 214:Middlewares/LVGL/GUI/lvgl/src/misc/lv_fs.c ****     }
 616              		.loc 1 214 15 view .LVU188
 617 0040 F5E7     		b	.L31
 618              	.LVL65:
 619              	.L32:
 207:Middlewares/LVGL/GUI/lvgl/src/misc/lv_fs.c ****     if(file_p->drv->read_cb == NULL) return LV_FS_RES_NOT_IMP;
 620              		.loc 1 207 36 view .LVU189
 621 0042 0B20     		movs	r0, #11
ARM GAS  C:\Users\ADMINI~1\AppData\Local\Temp\cciH6Em7.s 			page 24


 622 0044 F6E7     		b	.L29
 623              	.L33:
 208:Middlewares/LVGL/GUI/lvgl/src/misc/lv_fs.c **** 
 624              		.loc 1 208 45 view .LVU190
 625 0046 0920     		movs	r0, #9
 626 0048 F4E7     		b	.L29
 627              		.cfi_endproc
 628              	.LFE28:
 630              		.section	.text.lv_fs_write,"ax",%progbits
 631              		.align	1
 632              		.global	lv_fs_write
 633              		.syntax unified
 634              		.thumb
 635              		.thumb_func
 637              	lv_fs_write:
 638              	.LVL66:
 639              	.LFB29:
 226:Middlewares/LVGL/GUI/lvgl/src/misc/lv_fs.c ****     if(bw != NULL) *bw = 0;
 640              		.loc 1 226 1 is_stmt 1 view -0
 641              		.cfi_startproc
 642              		@ args = 0, pretend = 0, frame = 8
 643              		@ frame_needed = 0, uses_anonymous_args = 0
 226:Middlewares/LVGL/GUI/lvgl/src/misc/lv_fs.c ****     if(bw != NULL) *bw = 0;
 644              		.loc 1 226 1 is_stmt 0 view .LVU192
 645 0000 30B5     		push	{r4, r5, lr}
 646              	.LCFI10:
 647              		.cfi_def_cfa_offset 12
 648              		.cfi_offset 4, -12
 649              		.cfi_offset 5, -8
 650              		.cfi_offset 14, -4
 651 0002 85B0     		sub	sp, sp, #20
 652              	.LCFI11:
 653              		.cfi_def_cfa_offset 32
 654 0004 8446     		mov	ip, r0
 227:Middlewares/LVGL/GUI/lvgl/src/misc/lv_fs.c **** 
 655              		.loc 1 227 5 is_stmt 1 view .LVU193
 227:Middlewares/LVGL/GUI/lvgl/src/misc/lv_fs.c **** 
 656              		.loc 1 227 7 is_stmt 0 view .LVU194
 657 0006 1C46     		mov	r4, r3
 658 0008 0BB1     		cbz	r3, .L37
 227:Middlewares/LVGL/GUI/lvgl/src/misc/lv_fs.c **** 
 659              		.loc 1 227 20 is_stmt 1 discriminator 1 view .LVU195
 227:Middlewares/LVGL/GUI/lvgl/src/misc/lv_fs.c **** 
 660              		.loc 1 227 24 is_stmt 0 discriminator 1 view .LVU196
 661 000a 0023     		movs	r3, #0
 662              	.LVL67:
 227:Middlewares/LVGL/GUI/lvgl/src/misc/lv_fs.c **** 
 663              		.loc 1 227 24 discriminator 1 view .LVU197
 664 000c 2360     		str	r3, [r4]
 665              	.L37:
 229:Middlewares/LVGL/GUI/lvgl/src/misc/lv_fs.c ****         return LV_FS_RES_INV_PARAM;
 666              		.loc 1 229 5 is_stmt 1 view .LVU198
 229:Middlewares/LVGL/GUI/lvgl/src/misc/lv_fs.c ****         return LV_FS_RES_INV_PARAM;
 667              		.loc 1 229 14 is_stmt 0 view .LVU199
 668 000e DCF80400 		ldr	r0, [ip, #4]
 669              	.LVL68:
 229:Middlewares/LVGL/GUI/lvgl/src/misc/lv_fs.c ****         return LV_FS_RES_INV_PARAM;
ARM GAS  C:\Users\ADMINI~1\AppData\Local\Temp\cciH6Em7.s 			page 25


 670              		.loc 1 229 7 view .LVU200
 671 0012 78B1     		cbz	r0, .L39
 233:Middlewares/LVGL/GUI/lvgl/src/misc/lv_fs.c ****         return LV_FS_RES_NOT_IMP;
 672              		.loc 1 233 5 is_stmt 1 view .LVU201
 233:Middlewares/LVGL/GUI/lvgl/src/misc/lv_fs.c ****         return LV_FS_RES_NOT_IMP;
 673              		.loc 1 233 19 is_stmt 0 view .LVU202
 674 0014 4569     		ldr	r5, [r0, #20]
 233:Middlewares/LVGL/GUI/lvgl/src/misc/lv_fs.c ****         return LV_FS_RES_NOT_IMP;
 675              		.loc 1 233 7 view .LVU203
 676 0016 7DB1     		cbz	r5, .L40
 237:Middlewares/LVGL/GUI/lvgl/src/misc/lv_fs.c ****     lv_fs_res_t res = file_p->drv->write_cb(file_p->drv, file_p->file_d, buf, btw, &bw_tmp);
 677              		.loc 1 237 5 is_stmt 1 view .LVU204
 237:Middlewares/LVGL/GUI/lvgl/src/misc/lv_fs.c ****     lv_fs_res_t res = file_p->drv->write_cb(file_p->drv, file_p->file_d, buf, btw, &bw_tmp);
 678              		.loc 1 237 14 is_stmt 0 view .LVU205
 679 0018 0023     		movs	r3, #0
 680 001a 0393     		str	r3, [sp, #12]
 238:Middlewares/LVGL/GUI/lvgl/src/misc/lv_fs.c ****     if(bw != NULL) *bw = bw_tmp;
 681              		.loc 1 238 5 is_stmt 1 view .LVU206
 238:Middlewares/LVGL/GUI/lvgl/src/misc/lv_fs.c ****     if(bw != NULL) *bw = bw_tmp;
 682              		.loc 1 238 23 is_stmt 0 view .LVU207
 683 001c 03AB     		add	r3, sp, #12
 684 001e 0093     		str	r3, [sp]
 685 0020 1346     		mov	r3, r2
 686 0022 0A46     		mov	r2, r1
 687              	.LVL69:
 238:Middlewares/LVGL/GUI/lvgl/src/misc/lv_fs.c ****     if(bw != NULL) *bw = bw_tmp;
 688              		.loc 1 238 23 view .LVU208
 689 0024 DCF80010 		ldr	r1, [ip]
 690              	.LVL70:
 238:Middlewares/LVGL/GUI/lvgl/src/misc/lv_fs.c ****     if(bw != NULL) *bw = bw_tmp;
 691              		.loc 1 238 23 view .LVU209
 692 0028 A847     		blx	r5
 693              	.LVL71:
 239:Middlewares/LVGL/GUI/lvgl/src/misc/lv_fs.c **** 
 694              		.loc 1 239 5 is_stmt 1 view .LVU210
 239:Middlewares/LVGL/GUI/lvgl/src/misc/lv_fs.c **** 
 695              		.loc 1 239 7 is_stmt 0 view .LVU211
 696 002a 0CB1     		cbz	r4, .L38
 239:Middlewares/LVGL/GUI/lvgl/src/misc/lv_fs.c **** 
 697              		.loc 1 239 20 is_stmt 1 discriminator 1 view .LVU212
 239:Middlewares/LVGL/GUI/lvgl/src/misc/lv_fs.c **** 
 698              		.loc 1 239 24 is_stmt 0 discriminator 1 view .LVU213
 699 002c 039B     		ldr	r3, [sp, #12]
 700 002e 2360     		str	r3, [r4]
 701              	.LVL72:
 702              	.L38:
 242:Middlewares/LVGL/GUI/lvgl/src/misc/lv_fs.c **** 
 703              		.loc 1 242 1 view .LVU214
 704 0030 05B0     		add	sp, sp, #20
 705              	.LCFI12:
 706              		.cfi_remember_state
 707              		.cfi_def_cfa_offset 12
 708              		@ sp needed
 709 0032 30BD     		pop	{r4, r5, pc}
 710              	.LVL73:
 711              	.L39:
 712              	.LCFI13:
ARM GAS  C:\Users\ADMINI~1\AppData\Local\Temp\cciH6Em7.s 			page 26


 713              		.cfi_restore_state
 230:Middlewares/LVGL/GUI/lvgl/src/misc/lv_fs.c ****     }
 714              		.loc 1 230 16 view .LVU215
 715 0034 0B20     		movs	r0, #11
 716 0036 FBE7     		b	.L38
 717              	.L40:
 234:Middlewares/LVGL/GUI/lvgl/src/misc/lv_fs.c ****     }
 718              		.loc 1 234 16 view .LVU216
 719 0038 0920     		movs	r0, #9
 720 003a F9E7     		b	.L38
 721              		.cfi_endproc
 722              	.LFE29:
 724              		.section	.text.lv_fs_seek,"ax",%progbits
 725              		.align	1
 726              		.global	lv_fs_seek
 727              		.syntax unified
 728              		.thumb
 729              		.thumb_func
 731              	lv_fs_seek:
 732              	.LVL74:
 733              	.LFB30:
 245:Middlewares/LVGL/GUI/lvgl/src/misc/lv_fs.c ****     if(file_p->drv == NULL) {
 734              		.loc 1 245 1 is_stmt 1 view -0
 735              		.cfi_startproc
 736              		@ args = 0, pretend = 0, frame = 8
 737              		@ frame_needed = 0, uses_anonymous_args = 0
 245:Middlewares/LVGL/GUI/lvgl/src/misc/lv_fs.c ****     if(file_p->drv == NULL) {
 738              		.loc 1 245 1 is_stmt 0 view .LVU218
 739 0000 30B5     		push	{r4, r5, lr}
 740              	.LCFI14:
 741              		.cfi_def_cfa_offset 12
 742              		.cfi_offset 4, -12
 743              		.cfi_offset 5, -8
 744              		.cfi_offset 14, -4
 745 0002 83B0     		sub	sp, sp, #12
 746              	.LCFI15:
 747              		.cfi_def_cfa_offset 24
 748 0004 0446     		mov	r4, r0
 246:Middlewares/LVGL/GUI/lvgl/src/misc/lv_fs.c ****         return LV_FS_RES_INV_PARAM;
 749              		.loc 1 246 5 is_stmt 1 view .LVU219
 246:Middlewares/LVGL/GUI/lvgl/src/misc/lv_fs.c ****         return LV_FS_RES_INV_PARAM;
 750              		.loc 1 246 14 is_stmt 0 view .LVU220
 751 0006 4068     		ldr	r0, [r0, #4]
 752              	.LVL75:
 246:Middlewares/LVGL/GUI/lvgl/src/misc/lv_fs.c ****         return LV_FS_RES_INV_PARAM;
 753              		.loc 1 246 7 view .LVU221
 754 0008 0028     		cmp	r0, #0
 755 000a 42D0     		beq	.L50
 756 000c 1346     		mov	r3, r2
 250:Middlewares/LVGL/GUI/lvgl/src/misc/lv_fs.c ****         return LV_FS_RES_NOT_IMP;
 757              		.loc 1 250 5 is_stmt 1 view .LVU222
 250:Middlewares/LVGL/GUI/lvgl/src/misc/lv_fs.c ****         return LV_FS_RES_NOT_IMP;
 758              		.loc 1 250 19 is_stmt 0 view .LVU223
 759 000e 8569     		ldr	r5, [r0, #24]
 250:Middlewares/LVGL/GUI/lvgl/src/misc/lv_fs.c ****         return LV_FS_RES_NOT_IMP;
 760              		.loc 1 250 7 view .LVU224
 761 0010 002D     		cmp	r5, #0
ARM GAS  C:\Users\ADMINI~1\AppData\Local\Temp\cciH6Em7.s 			page 27


 762 0012 40D0     		beq	.L51
 254:Middlewares/LVGL/GUI/lvgl/src/misc/lv_fs.c ****     if(file_p->drv->cache_size) {
 763              		.loc 1 254 5 is_stmt 1 view .LVU225
 764              	.LVL76:
 255:Middlewares/LVGL/GUI/lvgl/src/misc/lv_fs.c ****         switch(whence) {
 765              		.loc 1 255 5 view .LVU226
 255:Middlewares/LVGL/GUI/lvgl/src/misc/lv_fs.c ****         switch(whence) {
 766              		.loc 1 255 19 is_stmt 0 view .LVU227
 767 0014 4288     		ldrh	r2, [r0, #2]
 768              	.LVL77:
 255:Middlewares/LVGL/GUI/lvgl/src/misc/lv_fs.c ****         switch(whence) {
 769              		.loc 1 255 7 view .LVU228
 770 0016 002A     		cmp	r2, #0
 771 0018 36D0     		beq	.L44
 256:Middlewares/LVGL/GUI/lvgl/src/misc/lv_fs.c ****             case LV_FS_SEEK_SET: {
 772              		.loc 1 256 9 is_stmt 1 view .LVU229
 773 001a 012B     		cmp	r3, #1
 774 001c 14D0     		beq	.L45
 775 001e 022B     		cmp	r3, #2
 776 0020 24D0     		beq	.L46
 777 0022 0BB1     		cbz	r3, .L56
 778 0024 0020     		movs	r0, #0
 779 0026 32E0     		b	.L43
 780              	.L56:
 258:Middlewares/LVGL/GUI/lvgl/src/misc/lv_fs.c **** 
 781              		.loc 1 258 21 view .LVU230
 258:Middlewares/LVGL/GUI/lvgl/src/misc/lv_fs.c **** 
 782              		.loc 1 258 27 is_stmt 0 view .LVU231
 783 0028 A268     		ldr	r2, [r4, #8]
 258:Middlewares/LVGL/GUI/lvgl/src/misc/lv_fs.c **** 
 784              		.loc 1 258 50 view .LVU232
 785 002a 9160     		str	r1, [r2, #8]
 261:Middlewares/LVGL/GUI/lvgl/src/misc/lv_fs.c ****                         res = file_p->drv->seek_cb(file_p->drv, file_p->file_d, file_p->cache->file
 786              		.loc 1 261 21 is_stmt 1 view .LVU233
 261:Middlewares/LVGL/GUI/lvgl/src/misc/lv_fs.c ****                         res = file_p->drv->seek_cb(file_p->drv, file_p->file_d, file_p->cache->file
 787              		.loc 1 261 30 is_stmt 0 view .LVU234
 788 002c A168     		ldr	r1, [r4, #8]
 789              	.LVL78:
 261:Middlewares/LVGL/GUI/lvgl/src/misc/lv_fs.c ****                         res = file_p->drv->seek_cb(file_p->drv, file_p->file_d, file_p->cache->file
 790              		.loc 1 261 37 view .LVU235
 791 002e 8A68     		ldr	r2, [r1, #8]
 792              	.LVL79:
 261:Middlewares/LVGL/GUI/lvgl/src/misc/lv_fs.c ****                         res = file_p->drv->seek_cb(file_p->drv, file_p->file_d, file_p->cache->file
 793              		.loc 1 261 68 view .LVU236
 794 0030 0868     		ldr	r0, [r1]
 261:Middlewares/LVGL/GUI/lvgl/src/misc/lv_fs.c ****                         res = file_p->drv->seek_cb(file_p->drv, file_p->file_d, file_p->cache->file
 795              		.loc 1 261 23 view .LVU237
 796 0032 8242     		cmp	r2, r0
 797 0034 02D3     		bcc	.L47
 261:Middlewares/LVGL/GUI/lvgl/src/misc/lv_fs.c ****                         res = file_p->drv->seek_cb(file_p->drv, file_p->file_d, file_p->cache->file
 798              		.loc 1 261 123 discriminator 1 view .LVU238
 799 0036 4968     		ldr	r1, [r1, #4]
 261:Middlewares/LVGL/GUI/lvgl/src/misc/lv_fs.c ****                         res = file_p->drv->seek_cb(file_p->drv, file_p->file_d, file_p->cache->file
 800              		.loc 1 261 76 discriminator 1 view .LVU239
 801 0038 8A42     		cmp	r2, r1
 802 003a 2ED9     		bls	.L53
 803              	.L47:
ARM GAS  C:\Users\ADMINI~1\AppData\Local\Temp\cciH6Em7.s 			page 28


 262:Middlewares/LVGL/GUI/lvgl/src/misc/lv_fs.c ****                     }
 804              		.loc 1 262 25 is_stmt 1 view .LVU240
 262:Middlewares/LVGL/GUI/lvgl/src/misc/lv_fs.c ****                     }
 805              		.loc 1 262 37 is_stmt 0 view .LVU241
 806 003c 6068     		ldr	r0, [r4, #4]
 262:Middlewares/LVGL/GUI/lvgl/src/misc/lv_fs.c ****                     }
 807              		.loc 1 262 42 view .LVU242
 808 003e 8569     		ldr	r5, [r0, #24]
 262:Middlewares/LVGL/GUI/lvgl/src/misc/lv_fs.c ****                     }
 809              		.loc 1 262 31 view .LVU243
 810 0040 0023     		movs	r3, #0
 811 0042 2168     		ldr	r1, [r4]
 812 0044 A847     		blx	r5
 813              	.LVL80:
 262:Middlewares/LVGL/GUI/lvgl/src/misc/lv_fs.c ****                     }
 814              		.loc 1 262 31 view .LVU244
 815 0046 22E0     		b	.L43
 816              	.LVL81:
 817              	.L45:
 268:Middlewares/LVGL/GUI/lvgl/src/misc/lv_fs.c **** 
 818              		.loc 1 268 21 is_stmt 1 view .LVU245
 268:Middlewares/LVGL/GUI/lvgl/src/misc/lv_fs.c **** 
 819              		.loc 1 268 27 is_stmt 0 view .LVU246
 820 0048 A268     		ldr	r2, [r4, #8]
 268:Middlewares/LVGL/GUI/lvgl/src/misc/lv_fs.c **** 
 821              		.loc 1 268 50 view .LVU247
 822 004a 9368     		ldr	r3, [r2, #8]
 823 004c 1944     		add	r1, r1, r3
 824              	.LVL82:
 268:Middlewares/LVGL/GUI/lvgl/src/misc/lv_fs.c **** 
 825              		.loc 1 268 50 view .LVU248
 826 004e 9160     		str	r1, [r2, #8]
 271:Middlewares/LVGL/GUI/lvgl/src/misc/lv_fs.c ****                         res = file_p->drv->seek_cb(file_p->drv, file_p->file_d, file_p->cache->file
 827              		.loc 1 271 21 is_stmt 1 view .LVU249
 271:Middlewares/LVGL/GUI/lvgl/src/misc/lv_fs.c ****                         res = file_p->drv->seek_cb(file_p->drv, file_p->file_d, file_p->cache->file
 828              		.loc 1 271 30 is_stmt 0 view .LVU250
 829 0050 A368     		ldr	r3, [r4, #8]
 271:Middlewares/LVGL/GUI/lvgl/src/misc/lv_fs.c ****                         res = file_p->drv->seek_cb(file_p->drv, file_p->file_d, file_p->cache->file
 830              		.loc 1 271 37 view .LVU251
 831 0052 9A68     		ldr	r2, [r3, #8]
 271:Middlewares/LVGL/GUI/lvgl/src/misc/lv_fs.c ****                         res = file_p->drv->seek_cb(file_p->drv, file_p->file_d, file_p->cache->file
 832              		.loc 1 271 68 view .LVU252
 833 0054 1968     		ldr	r1, [r3]
 271:Middlewares/LVGL/GUI/lvgl/src/misc/lv_fs.c ****                         res = file_p->drv->seek_cb(file_p->drv, file_p->file_d, file_p->cache->file
 834              		.loc 1 271 23 view .LVU253
 835 0056 8A42     		cmp	r2, r1
 836 0058 02D3     		bcc	.L48
 271:Middlewares/LVGL/GUI/lvgl/src/misc/lv_fs.c ****                         res = file_p->drv->seek_cb(file_p->drv, file_p->file_d, file_p->cache->file
 837              		.loc 1 271 123 discriminator 1 view .LVU254
 838 005a 5B68     		ldr	r3, [r3, #4]
 271:Middlewares/LVGL/GUI/lvgl/src/misc/lv_fs.c ****                         res = file_p->drv->seek_cb(file_p->drv, file_p->file_d, file_p->cache->file
 839              		.loc 1 271 76 discriminator 1 view .LVU255
 840 005c 9A42     		cmp	r2, r3
 841 005e 1ED9     		bls	.L54
 842              	.L48:
 272:Middlewares/LVGL/GUI/lvgl/src/misc/lv_fs.c ****                     }
 843              		.loc 1 272 25 is_stmt 1 view .LVU256
ARM GAS  C:\Users\ADMINI~1\AppData\Local\Temp\cciH6Em7.s 			page 29


 272:Middlewares/LVGL/GUI/lvgl/src/misc/lv_fs.c ****                     }
 844              		.loc 1 272 37 is_stmt 0 view .LVU257
 845 0060 6068     		ldr	r0, [r4, #4]
 272:Middlewares/LVGL/GUI/lvgl/src/misc/lv_fs.c ****                     }
 846              		.loc 1 272 42 view .LVU258
 847 0062 8569     		ldr	r5, [r0, #24]
 272:Middlewares/LVGL/GUI/lvgl/src/misc/lv_fs.c ****                     }
 848              		.loc 1 272 31 view .LVU259
 849 0064 0023     		movs	r3, #0
 850 0066 2168     		ldr	r1, [r4]
 851 0068 A847     		blx	r5
 852              	.LVL83:
 272:Middlewares/LVGL/GUI/lvgl/src/misc/lv_fs.c ****                     }
 853              		.loc 1 272 31 view .LVU260
 854 006a 10E0     		b	.L43
 855              	.LVL84:
 856              	.L46:
 279:Middlewares/LVGL/GUI/lvgl/src/misc/lv_fs.c ****                     if(res == LV_FS_RES_OK) {
 857              		.loc 1 279 21 is_stmt 1 view .LVU261
 279:Middlewares/LVGL/GUI/lvgl/src/misc/lv_fs.c ****                     if(res == LV_FS_RES_OK) {
 858              		.loc 1 279 27 is_stmt 0 view .LVU262
 859 006c 0A46     		mov	r2, r1
 860 006e 2168     		ldr	r1, [r4]
 861              	.LVL85:
 279:Middlewares/LVGL/GUI/lvgl/src/misc/lv_fs.c ****                     if(res == LV_FS_RES_OK) {
 862              		.loc 1 279 27 view .LVU263
 863 0070 A847     		blx	r5
 864              	.LVL86:
 280:Middlewares/LVGL/GUI/lvgl/src/misc/lv_fs.c ****                         uint32_t tmp_position;
 865              		.loc 1 280 21 is_stmt 1 view .LVU264
 280:Middlewares/LVGL/GUI/lvgl/src/misc/lv_fs.c ****                         uint32_t tmp_position;
 866              		.loc 1 280 23 is_stmt 0 view .LVU265
 867 0072 60B9     		cbnz	r0, .L43
 868              	.LBB6:
 281:Middlewares/LVGL/GUI/lvgl/src/misc/lv_fs.c ****                         res = file_p->drv->tell_cb(file_p->drv, file_p->file_d, &tmp_position);
 869              		.loc 1 281 25 is_stmt 1 view .LVU266
 282:Middlewares/LVGL/GUI/lvgl/src/misc/lv_fs.c **** 
 870              		.loc 1 282 25 view .LVU267
 282:Middlewares/LVGL/GUI/lvgl/src/misc/lv_fs.c **** 
 871              		.loc 1 282 37 is_stmt 0 view .LVU268
 872 0074 6068     		ldr	r0, [r4, #4]
 873              	.LVL87:
 282:Middlewares/LVGL/GUI/lvgl/src/misc/lv_fs.c **** 
 874              		.loc 1 282 42 view .LVU269
 875 0076 C369     		ldr	r3, [r0, #28]
 282:Middlewares/LVGL/GUI/lvgl/src/misc/lv_fs.c **** 
 876              		.loc 1 282 31 view .LVU270
 877 0078 01AA     		add	r2, sp, #4
 878 007a 2168     		ldr	r1, [r4]
 879 007c 9847     		blx	r3
 880              	.LVL88:
 284:Middlewares/LVGL/GUI/lvgl/src/misc/lv_fs.c ****                             file_p->cache->file_position = tmp_position;
 881              		.loc 1 284 25 is_stmt 1 view .LVU271
 284:Middlewares/LVGL/GUI/lvgl/src/misc/lv_fs.c ****                             file_p->cache->file_position = tmp_position;
 882              		.loc 1 284 27 is_stmt 0 view .LVU272
 883 007e 30B9     		cbnz	r0, .L43
 285:Middlewares/LVGL/GUI/lvgl/src/misc/lv_fs.c ****                         }
ARM GAS  C:\Users\ADMINI~1\AppData\Local\Temp\cciH6Em7.s 			page 30


 884              		.loc 1 285 29 is_stmt 1 view .LVU273
 285:Middlewares/LVGL/GUI/lvgl/src/misc/lv_fs.c ****                         }
 885              		.loc 1 285 35 is_stmt 0 view .LVU274
 886 0080 A368     		ldr	r3, [r4, #8]
 285:Middlewares/LVGL/GUI/lvgl/src/misc/lv_fs.c ****                         }
 887              		.loc 1 285 58 view .LVU275
 888 0082 019A     		ldr	r2, [sp, #4]
 889 0084 9A60     		str	r2, [r3, #8]
 890 0086 02E0     		b	.L43
 891              	.LVL89:
 892              	.L44:
 285:Middlewares/LVGL/GUI/lvgl/src/misc/lv_fs.c ****                         }
 893              		.loc 1 285 58 view .LVU276
 894              	.LBE6:
 293:Middlewares/LVGL/GUI/lvgl/src/misc/lv_fs.c ****     }
 895              		.loc 1 293 9 is_stmt 1 view .LVU277
 293:Middlewares/LVGL/GUI/lvgl/src/misc/lv_fs.c ****     }
 896              		.loc 1 293 15 is_stmt 0 view .LVU278
 897 0088 0A46     		mov	r2, r1
 898 008a 2168     		ldr	r1, [r4]
 899              	.LVL90:
 293:Middlewares/LVGL/GUI/lvgl/src/misc/lv_fs.c ****     }
 900              		.loc 1 293 15 view .LVU279
 901 008c A847     		blx	r5
 902              	.LVL91:
 903              	.L43:
 297:Middlewares/LVGL/GUI/lvgl/src/misc/lv_fs.c **** 
 904              		.loc 1 297 1 view .LVU280
 905 008e 03B0     		add	sp, sp, #12
 906              	.LCFI16:
 907              		.cfi_remember_state
 908              		.cfi_def_cfa_offset 12
 909              		@ sp needed
 910 0090 30BD     		pop	{r4, r5, pc}
 911              	.LVL92:
 912              	.L50:
 913              	.LCFI17:
 914              		.cfi_restore_state
 247:Middlewares/LVGL/GUI/lvgl/src/misc/lv_fs.c ****     }
 915              		.loc 1 247 16 view .LVU281
 916 0092 0B20     		movs	r0, #11
 917 0094 FBE7     		b	.L43
 918              	.L51:
 251:Middlewares/LVGL/GUI/lvgl/src/misc/lv_fs.c ****     }
 919              		.loc 1 251 16 view .LVU282
 920 0096 0920     		movs	r0, #9
 921 0098 F9E7     		b	.L43
 922              	.LVL93:
 923              	.L53:
 254:Middlewares/LVGL/GUI/lvgl/src/misc/lv_fs.c ****     if(file_p->drv->cache_size) {
 924              		.loc 1 254 17 view .LVU283
 925 009a 1846     		mov	r0, r3
 926 009c F7E7     		b	.L43
 927              	.L54:
 254:Middlewares/LVGL/GUI/lvgl/src/misc/lv_fs.c ****     if(file_p->drv->cache_size) {
 928              		.loc 1 254 17 view .LVU284
 929 009e 0020     		movs	r0, #0
ARM GAS  C:\Users\ADMINI~1\AppData\Local\Temp\cciH6Em7.s 			page 31


 930 00a0 F5E7     		b	.L43
 931              		.cfi_endproc
 932              	.LFE30:
 934              		.section	.text.lv_fs_tell,"ax",%progbits
 935              		.align	1
 936              		.global	lv_fs_tell
 937              		.syntax unified
 938              		.thumb
 939              		.thumb_func
 941              	lv_fs_tell:
 942              	.LVL94:
 943              	.LFB31:
 300:Middlewares/LVGL/GUI/lvgl/src/misc/lv_fs.c ****     if(file_p->drv == NULL) {
 944              		.loc 1 300 1 is_stmt 1 view -0
 945              		.cfi_startproc
 946              		@ args = 0, pretend = 0, frame = 0
 947              		@ frame_needed = 0, uses_anonymous_args = 0
 300:Middlewares/LVGL/GUI/lvgl/src/misc/lv_fs.c ****     if(file_p->drv == NULL) {
 948              		.loc 1 300 1 is_stmt 0 view .LVU286
 949 0000 0346     		mov	r3, r0
 301:Middlewares/LVGL/GUI/lvgl/src/misc/lv_fs.c ****         *pos = 0;
 950              		.loc 1 301 5 is_stmt 1 view .LVU287
 301:Middlewares/LVGL/GUI/lvgl/src/misc/lv_fs.c ****         *pos = 0;
 951              		.loc 1 301 14 is_stmt 0 view .LVU288
 952 0002 4068     		ldr	r0, [r0, #4]
 953              	.LVL95:
 301:Middlewares/LVGL/GUI/lvgl/src/misc/lv_fs.c ****         *pos = 0;
 954              		.loc 1 301 7 view .LVU289
 955 0004 48B1     		cbz	r0, .L65
 300:Middlewares/LVGL/GUI/lvgl/src/misc/lv_fs.c ****     if(file_p->drv == NULL) {
 956              		.loc 1 300 1 view .LVU290
 957 0006 10B5     		push	{r4, lr}
 958              	.LCFI18:
 959              		.cfi_def_cfa_offset 8
 960              		.cfi_offset 4, -8
 961              		.cfi_offset 14, -4
 306:Middlewares/LVGL/GUI/lvgl/src/misc/lv_fs.c ****         *pos = 0;
 962              		.loc 1 306 5 is_stmt 1 view .LVU291
 306:Middlewares/LVGL/GUI/lvgl/src/misc/lv_fs.c ****         *pos = 0;
 963              		.loc 1 306 19 is_stmt 0 view .LVU292
 964 0008 C469     		ldr	r4, [r0, #28]
 306:Middlewares/LVGL/GUI/lvgl/src/misc/lv_fs.c ****         *pos = 0;
 965              		.loc 1 306 7 view .LVU293
 966 000a 54B1     		cbz	r4, .L66
 311:Middlewares/LVGL/GUI/lvgl/src/misc/lv_fs.c ****     if(file_p->drv->cache_size) {
 967              		.loc 1 311 5 is_stmt 1 view .LVU294
 312:Middlewares/LVGL/GUI/lvgl/src/misc/lv_fs.c ****         *pos = file_p->cache->file_position;
 968              		.loc 1 312 5 view .LVU295
 312:Middlewares/LVGL/GUI/lvgl/src/misc/lv_fs.c ****         *pos = file_p->cache->file_position;
 969              		.loc 1 312 19 is_stmt 0 view .LVU296
 970 000c 4288     		ldrh	r2, [r0, #2]
 312:Middlewares/LVGL/GUI/lvgl/src/misc/lv_fs.c ****         *pos = file_p->cache->file_position;
 971              		.loc 1 312 7 view .LVU297
 972 000e 62B1     		cbz	r2, .L61
 313:Middlewares/LVGL/GUI/lvgl/src/misc/lv_fs.c ****         res = LV_FS_RES_OK;
 973              		.loc 1 313 9 is_stmt 1 view .LVU298
 313:Middlewares/LVGL/GUI/lvgl/src/misc/lv_fs.c ****         res = LV_FS_RES_OK;
ARM GAS  C:\Users\ADMINI~1\AppData\Local\Temp\cciH6Em7.s 			page 32


 974              		.loc 1 313 22 is_stmt 0 view .LVU299
 975 0010 9B68     		ldr	r3, [r3, #8]
 976              	.LVL96:
 313:Middlewares/LVGL/GUI/lvgl/src/misc/lv_fs.c ****         res = LV_FS_RES_OK;
 977              		.loc 1 313 29 view .LVU300
 978 0012 9B68     		ldr	r3, [r3, #8]
 313:Middlewares/LVGL/GUI/lvgl/src/misc/lv_fs.c ****         res = LV_FS_RES_OK;
 979              		.loc 1 313 14 view .LVU301
 980 0014 0B60     		str	r3, [r1]
 314:Middlewares/LVGL/GUI/lvgl/src/misc/lv_fs.c ****     }
 981              		.loc 1 314 9 is_stmt 1 view .LVU302
 982              	.LVL97:
 314:Middlewares/LVGL/GUI/lvgl/src/misc/lv_fs.c ****     }
 983              		.loc 1 314 13 is_stmt 0 view .LVU303
 984 0016 0020     		movs	r0, #0
 985              	.LVL98:
 986              	.L59:
 321:Middlewares/LVGL/GUI/lvgl/src/misc/lv_fs.c **** 
 987              		.loc 1 321 1 view .LVU304
 988 0018 10BD     		pop	{r4, pc}
 989              	.LVL99:
 990              	.L65:
 991              	.LCFI19:
 992              		.cfi_def_cfa_offset 0
 993              		.cfi_restore 4
 994              		.cfi_restore 14
 302:Middlewares/LVGL/GUI/lvgl/src/misc/lv_fs.c ****         return LV_FS_RES_INV_PARAM;
 995              		.loc 1 302 9 is_stmt 1 view .LVU305
 302:Middlewares/LVGL/GUI/lvgl/src/misc/lv_fs.c ****         return LV_FS_RES_INV_PARAM;
 996              		.loc 1 302 14 is_stmt 0 view .LVU306
 997 001a 0023     		movs	r3, #0
 998              	.LVL100:
 302:Middlewares/LVGL/GUI/lvgl/src/misc/lv_fs.c ****         return LV_FS_RES_INV_PARAM;
 999              		.loc 1 302 14 view .LVU307
 1000 001c 0B60     		str	r3, [r1]
 303:Middlewares/LVGL/GUI/lvgl/src/misc/lv_fs.c ****     }
 1001              		.loc 1 303 9 is_stmt 1 view .LVU308
 303:Middlewares/LVGL/GUI/lvgl/src/misc/lv_fs.c ****     }
 1002              		.loc 1 303 16 is_stmt 0 view .LVU309
 1003 001e 0B20     		movs	r0, #11
 321:Middlewares/LVGL/GUI/lvgl/src/misc/lv_fs.c **** 
 1004              		.loc 1 321 1 view .LVU310
 1005 0020 7047     		bx	lr
 1006              	.LVL101:
 1007              	.L66:
 1008              	.LCFI20:
 1009              		.cfi_def_cfa_offset 8
 1010              		.cfi_offset 4, -8
 1011              		.cfi_offset 14, -4
 307:Middlewares/LVGL/GUI/lvgl/src/misc/lv_fs.c ****         return LV_FS_RES_NOT_IMP;
 1012              		.loc 1 307 9 is_stmt 1 view .LVU311
 307:Middlewares/LVGL/GUI/lvgl/src/misc/lv_fs.c ****         return LV_FS_RES_NOT_IMP;
 1013              		.loc 1 307 14 is_stmt 0 view .LVU312
 1014 0022 0023     		movs	r3, #0
 1015              	.LVL102:
 307:Middlewares/LVGL/GUI/lvgl/src/misc/lv_fs.c ****         return LV_FS_RES_NOT_IMP;
 1016              		.loc 1 307 14 view .LVU313
ARM GAS  C:\Users\ADMINI~1\AppData\Local\Temp\cciH6Em7.s 			page 33


 1017 0024 0B60     		str	r3, [r1]
 308:Middlewares/LVGL/GUI/lvgl/src/misc/lv_fs.c ****     }
 1018              		.loc 1 308 9 is_stmt 1 view .LVU314
 308:Middlewares/LVGL/GUI/lvgl/src/misc/lv_fs.c ****     }
 1019              		.loc 1 308 16 is_stmt 0 view .LVU315
 1020 0026 0920     		movs	r0, #9
 1021 0028 F6E7     		b	.L59
 1022              	.LVL103:
 1023              	.L61:
 317:Middlewares/LVGL/GUI/lvgl/src/misc/lv_fs.c ****     }
 1024              		.loc 1 317 9 is_stmt 1 view .LVU316
 317:Middlewares/LVGL/GUI/lvgl/src/misc/lv_fs.c ****     }
 1025              		.loc 1 317 15 is_stmt 0 view .LVU317
 1026 002a 0A46     		mov	r2, r1
 1027 002c 1968     		ldr	r1, [r3]
 1028              	.LVL104:
 317:Middlewares/LVGL/GUI/lvgl/src/misc/lv_fs.c ****     }
 1029              		.loc 1 317 15 view .LVU318
 1030 002e A047     		blx	r4
 1031              	.LVL105:
 317:Middlewares/LVGL/GUI/lvgl/src/misc/lv_fs.c ****     }
 1032              		.loc 1 317 15 view .LVU319
 1033 0030 F2E7     		b	.L59
 1034              		.cfi_endproc
 1035              	.LFE31:
 1037              		.section	.text.lv_fs_dir_read,"ax",%progbits
 1038              		.align	1
 1039              		.global	lv_fs_dir_read
 1040              		.syntax unified
 1041              		.thumb
 1042              		.thumb_func
 1044              	lv_fs_dir_read:
 1045              	.LVL106:
 1046              	.LFB33:
 358:Middlewares/LVGL/GUI/lvgl/src/misc/lv_fs.c ****     if(rddir_p->drv == NULL || rddir_p->dir_d == NULL) {
 1047              		.loc 1 358 1 is_stmt 1 view -0
 1048              		.cfi_startproc
 1049              		@ args = 0, pretend = 0, frame = 0
 1050              		@ frame_needed = 0, uses_anonymous_args = 0
 358:Middlewares/LVGL/GUI/lvgl/src/misc/lv_fs.c ****     if(rddir_p->drv == NULL || rddir_p->dir_d == NULL) {
 1051              		.loc 1 358 1 is_stmt 0 view .LVU321
 1052 0000 08B5     		push	{r3, lr}
 1053              	.LCFI21:
 1054              		.cfi_def_cfa_offset 8
 1055              		.cfi_offset 3, -8
 1056              		.cfi_offset 14, -4
 1057 0002 0346     		mov	r3, r0
 1058 0004 0A46     		mov	r2, r1
 359:Middlewares/LVGL/GUI/lvgl/src/misc/lv_fs.c ****         fn[0] = '\0';
 1059              		.loc 1 359 5 is_stmt 1 view .LVU322
 359:Middlewares/LVGL/GUI/lvgl/src/misc/lv_fs.c ****         fn[0] = '\0';
 1060              		.loc 1 359 15 is_stmt 0 view .LVU323
 1061 0006 4068     		ldr	r0, [r0, #4]
 1062              	.LVL107:
 359:Middlewares/LVGL/GUI/lvgl/src/misc/lv_fs.c ****         fn[0] = '\0';
 1063              		.loc 1 359 7 view .LVU324
 1064 0008 28B1     		cbz	r0, .L68
ARM GAS  C:\Users\ADMINI~1\AppData\Local\Temp\cciH6Em7.s 			page 34


 359:Middlewares/LVGL/GUI/lvgl/src/misc/lv_fs.c ****         fn[0] = '\0';
 1065              		.loc 1 359 39 discriminator 1 view .LVU325
 1066 000a 1968     		ldr	r1, [r3]
 1067              	.LVL108:
 359:Middlewares/LVGL/GUI/lvgl/src/misc/lv_fs.c ****         fn[0] = '\0';
 1068              		.loc 1 359 29 discriminator 1 view .LVU326
 1069 000c 19B1     		cbz	r1, .L68
 364:Middlewares/LVGL/GUI/lvgl/src/misc/lv_fs.c ****         fn[0] = '\0';
 1070              		.loc 1 364 5 is_stmt 1 view .LVU327
 364:Middlewares/LVGL/GUI/lvgl/src/misc/lv_fs.c ****         fn[0] = '\0';
 1071              		.loc 1 364 20 is_stmt 0 view .LVU328
 1072 000e 436A     		ldr	r3, [r0, #36]
 1073              	.LVL109:
 364:Middlewares/LVGL/GUI/lvgl/src/misc/lv_fs.c ****         fn[0] = '\0';
 1074              		.loc 1 364 7 view .LVU329
 1075 0010 2BB1     		cbz	r3, .L73
 369:Middlewares/LVGL/GUI/lvgl/src/misc/lv_fs.c **** 
 1076              		.loc 1 369 5 is_stmt 1 view .LVU330
 369:Middlewares/LVGL/GUI/lvgl/src/misc/lv_fs.c **** 
 1077              		.loc 1 369 23 is_stmt 0 view .LVU331
 1078 0012 9847     		blx	r3
 1079              	.LVL110:
 371:Middlewares/LVGL/GUI/lvgl/src/misc/lv_fs.c **** }
 1080              		.loc 1 371 5 is_stmt 1 view .LVU332
 1081              	.L70:
 372:Middlewares/LVGL/GUI/lvgl/src/misc/lv_fs.c **** 
 1082              		.loc 1 372 1 is_stmt 0 view .LVU333
 1083 0014 08BD     		pop	{r3, pc}
 1084              	.LVL111:
 1085              	.L68:
 360:Middlewares/LVGL/GUI/lvgl/src/misc/lv_fs.c ****         return LV_FS_RES_INV_PARAM;
 1086              		.loc 1 360 9 is_stmt 1 view .LVU334
 360:Middlewares/LVGL/GUI/lvgl/src/misc/lv_fs.c ****         return LV_FS_RES_INV_PARAM;
 1087              		.loc 1 360 15 is_stmt 0 view .LVU335
 1088 0016 0023     		movs	r3, #0
 1089              	.LVL112:
 360:Middlewares/LVGL/GUI/lvgl/src/misc/lv_fs.c ****         return LV_FS_RES_INV_PARAM;
 1090              		.loc 1 360 15 view .LVU336
 1091 0018 1370     		strb	r3, [r2]
 361:Middlewares/LVGL/GUI/lvgl/src/misc/lv_fs.c ****     }
 1092              		.loc 1 361 9 is_stmt 1 view .LVU337
 361:Middlewares/LVGL/GUI/lvgl/src/misc/lv_fs.c ****     }
 1093              		.loc 1 361 16 is_stmt 0 view .LVU338
 1094 001a 0B20     		movs	r0, #11
 1095 001c FAE7     		b	.L70
 1096              	.L73:
 365:Middlewares/LVGL/GUI/lvgl/src/misc/lv_fs.c ****         return LV_FS_RES_NOT_IMP;
 1097              		.loc 1 365 9 is_stmt 1 view .LVU339
 365:Middlewares/LVGL/GUI/lvgl/src/misc/lv_fs.c ****         return LV_FS_RES_NOT_IMP;
 1098              		.loc 1 365 15 is_stmt 0 view .LVU340
 1099 001e 1370     		strb	r3, [r2]
 366:Middlewares/LVGL/GUI/lvgl/src/misc/lv_fs.c ****     }
 1100              		.loc 1 366 9 is_stmt 1 view .LVU341
 366:Middlewares/LVGL/GUI/lvgl/src/misc/lv_fs.c ****     }
 1101              		.loc 1 366 16 is_stmt 0 view .LVU342
 1102 0020 0920     		movs	r0, #9
 1103 0022 F7E7     		b	.L70
ARM GAS  C:\Users\ADMINI~1\AppData\Local\Temp\cciH6Em7.s 			page 35


 1104              		.cfi_endproc
 1105              	.LFE33:
 1107              		.section	.text.lv_fs_dir_close,"ax",%progbits
 1108              		.align	1
 1109              		.global	lv_fs_dir_close
 1110              		.syntax unified
 1111              		.thumb
 1112              		.thumb_func
 1114              	lv_fs_dir_close:
 1115              	.LVL113:
 1116              	.LFB34:
 375:Middlewares/LVGL/GUI/lvgl/src/misc/lv_fs.c ****     if(rddir_p->drv == NULL || rddir_p->dir_d == NULL) {
 1117              		.loc 1 375 1 is_stmt 1 view -0
 1118              		.cfi_startproc
 1119              		@ args = 0, pretend = 0, frame = 0
 1120              		@ frame_needed = 0, uses_anonymous_args = 0
 375:Middlewares/LVGL/GUI/lvgl/src/misc/lv_fs.c ****     if(rddir_p->drv == NULL || rddir_p->dir_d == NULL) {
 1121              		.loc 1 375 1 is_stmt 0 view .LVU344
 1122 0000 10B5     		push	{r4, lr}
 1123              	.LCFI22:
 1124              		.cfi_def_cfa_offset 8
 1125              		.cfi_offset 4, -8
 1126              		.cfi_offset 14, -4
 1127 0002 0446     		mov	r4, r0
 376:Middlewares/LVGL/GUI/lvgl/src/misc/lv_fs.c ****         return LV_FS_RES_INV_PARAM;
 1128              		.loc 1 376 5 is_stmt 1 view .LVU345
 376:Middlewares/LVGL/GUI/lvgl/src/misc/lv_fs.c ****         return LV_FS_RES_INV_PARAM;
 1129              		.loc 1 376 15 is_stmt 0 view .LVU346
 1130 0004 4068     		ldr	r0, [r0, #4]
 1131              	.LVL114:
 376:Middlewares/LVGL/GUI/lvgl/src/misc/lv_fs.c ****         return LV_FS_RES_INV_PARAM;
 1132              		.loc 1 376 7 view .LVU347
 1133 0006 40B1     		cbz	r0, .L76
 376:Middlewares/LVGL/GUI/lvgl/src/misc/lv_fs.c ****         return LV_FS_RES_INV_PARAM;
 1134              		.loc 1 376 39 discriminator 1 view .LVU348
 1135 0008 2168     		ldr	r1, [r4]
 376:Middlewares/LVGL/GUI/lvgl/src/misc/lv_fs.c ****         return LV_FS_RES_INV_PARAM;
 1136              		.loc 1 376 29 discriminator 1 view .LVU349
 1137 000a 41B1     		cbz	r1, .L77
 380:Middlewares/LVGL/GUI/lvgl/src/misc/lv_fs.c ****         return LV_FS_RES_NOT_IMP;
 1138              		.loc 1 380 5 is_stmt 1 view .LVU350
 380:Middlewares/LVGL/GUI/lvgl/src/misc/lv_fs.c ****         return LV_FS_RES_NOT_IMP;
 1139              		.loc 1 380 20 is_stmt 0 view .LVU351
 1140 000c 836A     		ldr	r3, [r0, #40]
 380:Middlewares/LVGL/GUI/lvgl/src/misc/lv_fs.c ****         return LV_FS_RES_NOT_IMP;
 1141              		.loc 1 380 7 view .LVU352
 1142 000e 43B1     		cbz	r3, .L78
 384:Middlewares/LVGL/GUI/lvgl/src/misc/lv_fs.c **** 
 1143              		.loc 1 384 5 is_stmt 1 view .LVU353
 384:Middlewares/LVGL/GUI/lvgl/src/misc/lv_fs.c **** 
 1144              		.loc 1 384 23 is_stmt 0 view .LVU354
 1145 0010 9847     		blx	r3
 1146              	.LVL115:
 386:Middlewares/LVGL/GUI/lvgl/src/misc/lv_fs.c ****     rddir_p->drv   = NULL;
 1147              		.loc 1 386 5 is_stmt 1 view .LVU355
 386:Middlewares/LVGL/GUI/lvgl/src/misc/lv_fs.c ****     rddir_p->drv   = NULL;
 1148              		.loc 1 386 20 is_stmt 0 view .LVU356
ARM GAS  C:\Users\ADMINI~1\AppData\Local\Temp\cciH6Em7.s 			page 36


 1149 0012 0023     		movs	r3, #0
 1150 0014 2360     		str	r3, [r4]
 387:Middlewares/LVGL/GUI/lvgl/src/misc/lv_fs.c **** 
 1151              		.loc 1 387 5 is_stmt 1 view .LVU357
 387:Middlewares/LVGL/GUI/lvgl/src/misc/lv_fs.c **** 
 1152              		.loc 1 387 20 is_stmt 0 view .LVU358
 1153 0016 6360     		str	r3, [r4, #4]
 389:Middlewares/LVGL/GUI/lvgl/src/misc/lv_fs.c **** }
 1154              		.loc 1 389 5 is_stmt 1 view .LVU359
 1155              	.LVL116:
 1156              	.L75:
 390:Middlewares/LVGL/GUI/lvgl/src/misc/lv_fs.c **** 
 1157              		.loc 1 390 1 is_stmt 0 view .LVU360
 1158 0018 10BD     		pop	{r4, pc}
 1159              	.LVL117:
 1160              	.L76:
 377:Middlewares/LVGL/GUI/lvgl/src/misc/lv_fs.c ****     }
 1161              		.loc 1 377 16 view .LVU361
 1162 001a 0B20     		movs	r0, #11
 1163 001c FCE7     		b	.L75
 1164              	.L77:
 1165 001e 0B20     		movs	r0, #11
 1166 0020 FAE7     		b	.L75
 1167              	.L78:
 381:Middlewares/LVGL/GUI/lvgl/src/misc/lv_fs.c ****     }
 1168              		.loc 1 381 16 view .LVU362
 1169 0022 0920     		movs	r0, #9
 1170 0024 F8E7     		b	.L75
 1171              		.cfi_endproc
 1172              	.LFE34:
 1174              		.section	.text.lv_fs_drv_init,"ax",%progbits
 1175              		.align	1
 1176              		.global	lv_fs_drv_init
 1177              		.syntax unified
 1178              		.thumb
 1179              		.thumb_func
 1181              	lv_fs_drv_init:
 1182              	.LVL118:
 1183              	.LFB35:
 393:Middlewares/LVGL/GUI/lvgl/src/misc/lv_fs.c ****     lv_memset_00(drv, sizeof(lv_fs_drv_t));
 1184              		.loc 1 393 1 is_stmt 1 view -0
 1185              		.cfi_startproc
 1186              		@ args = 0, pretend = 0, frame = 0
 1187              		@ frame_needed = 0, uses_anonymous_args = 0
 393:Middlewares/LVGL/GUI/lvgl/src/misc/lv_fs.c ****     lv_memset_00(drv, sizeof(lv_fs_drv_t));
 1188              		.loc 1 393 1 is_stmt 0 view .LVU364
 1189 0000 08B5     		push	{r3, lr}
 1190              	.LCFI23:
 1191              		.cfi_def_cfa_offset 8
 1192              		.cfi_offset 3, -8
 1193              		.cfi_offset 14, -4
 394:Middlewares/LVGL/GUI/lvgl/src/misc/lv_fs.c **** }
 1194              		.loc 1 394 5 is_stmt 1 view .LVU365
 1195 0002 3021     		movs	r1, #48
 1196 0004 FFF7FEFF 		bl	lv_memset_00
 1197              	.LVL119:
 395:Middlewares/LVGL/GUI/lvgl/src/misc/lv_fs.c **** 
ARM GAS  C:\Users\ADMINI~1\AppData\Local\Temp\cciH6Em7.s 			page 37


 1198              		.loc 1 395 1 is_stmt 0 view .LVU366
 1199 0008 08BD     		pop	{r3, pc}
 1200              		.cfi_endproc
 1201              	.LFE35:
 1203              		.section	.text.lv_fs_drv_register,"ax",%progbits
 1204              		.align	1
 1205              		.global	lv_fs_drv_register
 1206              		.syntax unified
 1207              		.thumb
 1208              		.thumb_func
 1210              	lv_fs_drv_register:
 1211              	.LVL120:
 1212              	.LFB36:
 398:Middlewares/LVGL/GUI/lvgl/src/misc/lv_fs.c ****     /*Save the new driver*/
 1213              		.loc 1 398 1 is_stmt 1 view -0
 1214              		.cfi_startproc
 1215              		@ args = 0, pretend = 0, frame = 0
 1216              		@ frame_needed = 0, uses_anonymous_args = 0
 398:Middlewares/LVGL/GUI/lvgl/src/misc/lv_fs.c ****     /*Save the new driver*/
 1217              		.loc 1 398 1 is_stmt 0 view .LVU368
 1218 0000 10B5     		push	{r4, lr}
 1219              	.LCFI24:
 1220              		.cfi_def_cfa_offset 8
 1221              		.cfi_offset 4, -8
 1222              		.cfi_offset 14, -4
 1223 0002 0446     		mov	r4, r0
 400:Middlewares/LVGL/GUI/lvgl/src/misc/lv_fs.c ****     new_drv = _lv_ll_ins_head(&LV_GC_ROOT(_lv_fsdrv_ll));
 1224              		.loc 1 400 5 is_stmt 1 view .LVU369
 401:Middlewares/LVGL/GUI/lvgl/src/misc/lv_fs.c ****     LV_ASSERT_MALLOC(new_drv);
 1225              		.loc 1 401 5 view .LVU370
 401:Middlewares/LVGL/GUI/lvgl/src/misc/lv_fs.c ****     LV_ASSERT_MALLOC(new_drv);
 1226              		.loc 1 401 15 is_stmt 0 view .LVU371
 1227 0004 0348     		ldr	r0, .L86
 1228              	.LVL121:
 401:Middlewares/LVGL/GUI/lvgl/src/misc/lv_fs.c ****     LV_ASSERT_MALLOC(new_drv);
 1229              		.loc 1 401 15 view .LVU372
 1230 0006 FFF7FEFF 		bl	_lv_ll_ins_head
 1231              	.LVL122:
 402:Middlewares/LVGL/GUI/lvgl/src/misc/lv_fs.c ****     if(new_drv == NULL) return;
 1232              		.loc 1 402 5 is_stmt 1 view .LVU373
 402:Middlewares/LVGL/GUI/lvgl/src/misc/lv_fs.c ****     if(new_drv == NULL) return;
 1233              		.loc 1 402 5 view .LVU374
 1234 000a 08B1     		cbz	r0, .L84
 402:Middlewares/LVGL/GUI/lvgl/src/misc/lv_fs.c ****     if(new_drv == NULL) return;
 1235              		.loc 1 402 5 view .LVU375
 402:Middlewares/LVGL/GUI/lvgl/src/misc/lv_fs.c ****     if(new_drv == NULL) return;
 1236              		.loc 1 402 30 view .LVU376
 403:Middlewares/LVGL/GUI/lvgl/src/misc/lv_fs.c **** 
 1237              		.loc 1 403 5 view .LVU377
 405:Middlewares/LVGL/GUI/lvgl/src/misc/lv_fs.c **** }
 1238              		.loc 1 405 5 view .LVU378
 405:Middlewares/LVGL/GUI/lvgl/src/misc/lv_fs.c **** }
 1239              		.loc 1 405 14 is_stmt 0 view .LVU379
 1240 000c 0460     		str	r4, [r0]
 406:Middlewares/LVGL/GUI/lvgl/src/misc/lv_fs.c **** 
 1241              		.loc 1 406 1 view .LVU380
 1242 000e 10BD     		pop	{r4, pc}
ARM GAS  C:\Users\ADMINI~1\AppData\Local\Temp\cciH6Em7.s 			page 38


 1243              	.LVL123:
 1244              	.L84:
 402:Middlewares/LVGL/GUI/lvgl/src/misc/lv_fs.c ****     if(new_drv == NULL) return;
 1245              		.loc 1 402 5 is_stmt 1 discriminator 1 view .LVU381
 402:Middlewares/LVGL/GUI/lvgl/src/misc/lv_fs.c ****     if(new_drv == NULL) return;
 1246              		.loc 1 402 5 discriminator 1 view .LVU382
 402:Middlewares/LVGL/GUI/lvgl/src/misc/lv_fs.c ****     if(new_drv == NULL) return;
 1247              		.loc 1 402 5 discriminator 1 view .LVU383
 402:Middlewares/LVGL/GUI/lvgl/src/misc/lv_fs.c ****     if(new_drv == NULL) return;
 1248              		.loc 1 402 5 discriminator 1 view .LVU384
 402:Middlewares/LVGL/GUI/lvgl/src/misc/lv_fs.c ****     if(new_drv == NULL) return;
 1249              		.loc 1 402 5 discriminator 1 view .LVU385
 402:Middlewares/LVGL/GUI/lvgl/src/misc/lv_fs.c ****     if(new_drv == NULL) return;
 1250              		.loc 1 402 5 discriminator 1 view .LVU386
 1251 0010 FEE7     		b	.L84
 1252              	.L87:
 1253 0012 00BF     		.align	2
 1254              	.L86:
 1255 0014 00000000 		.word	_lv_fsdrv_ll
 1256              		.cfi_endproc
 1257              	.LFE36:
 1259              		.section	.text.lv_fs_get_drv,"ax",%progbits
 1260              		.align	1
 1261              		.global	lv_fs_get_drv
 1262              		.syntax unified
 1263              		.thumb
 1264              		.thumb_func
 1266              	lv_fs_get_drv:
 1267              	.LVL124:
 1268              	.LFB37:
 409:Middlewares/LVGL/GUI/lvgl/src/misc/lv_fs.c ****     lv_fs_drv_t ** drv;
 1269              		.loc 1 409 1 view -0
 1270              		.cfi_startproc
 1271              		@ args = 0, pretend = 0, frame = 0
 1272              		@ frame_needed = 0, uses_anonymous_args = 0
 409:Middlewares/LVGL/GUI/lvgl/src/misc/lv_fs.c ****     lv_fs_drv_t ** drv;
 1273              		.loc 1 409 1 is_stmt 0 view .LVU388
 1274 0000 10B5     		push	{r4, lr}
 1275              	.LCFI25:
 1276              		.cfi_def_cfa_offset 8
 1277              		.cfi_offset 4, -8
 1278              		.cfi_offset 14, -4
 1279 0002 0446     		mov	r4, r0
 410:Middlewares/LVGL/GUI/lvgl/src/misc/lv_fs.c **** 
 1280              		.loc 1 410 5 is_stmt 1 view .LVU389
 412:Middlewares/LVGL/GUI/lvgl/src/misc/lv_fs.c ****         if((*drv)->letter == letter) {
 1281              		.loc 1 412 5 view .LVU390
 1282 0004 0848     		ldr	r0, .L95
 1283              	.LVL125:
 412:Middlewares/LVGL/GUI/lvgl/src/misc/lv_fs.c ****         if((*drv)->letter == letter) {
 1284              		.loc 1 412 5 is_stmt 0 view .LVU391
 1285 0006 FFF7FEFF 		bl	_lv_ll_get_head
 1286              	.LVL126:
 1287 000a 0146     		mov	r1, r0
 1288              	.LVL127:
 412:Middlewares/LVGL/GUI/lvgl/src/misc/lv_fs.c ****         if((*drv)->letter == letter) {
 1289              		.loc 1 412 5 view .LVU392
ARM GAS  C:\Users\ADMINI~1\AppData\Local\Temp\cciH6Em7.s 			page 39


 1290 000c 03E0     		b	.L89
 1291              	.L94:
 412:Middlewares/LVGL/GUI/lvgl/src/misc/lv_fs.c ****         if((*drv)->letter == letter) {
 1292              		.loc 1 412 5 is_stmt 1 discriminator 2 view .LVU393
 1293 000e 0648     		ldr	r0, .L95
 1294              	.LVL128:
 412:Middlewares/LVGL/GUI/lvgl/src/misc/lv_fs.c ****         if((*drv)->letter == letter) {
 1295              		.loc 1 412 5 is_stmt 0 discriminator 2 view .LVU394
 1296 0010 FFF7FEFF 		bl	_lv_ll_get_next
 1297              	.LVL129:
 412:Middlewares/LVGL/GUI/lvgl/src/misc/lv_fs.c ****         if((*drv)->letter == letter) {
 1298              		.loc 1 412 5 discriminator 2 view .LVU395
 1299 0014 0146     		mov	r1, r0
 1300              	.LVL130:
 1301              	.L89:
 412:Middlewares/LVGL/GUI/lvgl/src/misc/lv_fs.c ****         if((*drv)->letter == letter) {
 1302              		.loc 1 412 5 is_stmt 1 discriminator 1 view .LVU396
 1303 0016 21B1     		cbz	r1, .L88
 413:Middlewares/LVGL/GUI/lvgl/src/misc/lv_fs.c ****             return *drv;
 1304              		.loc 1 413 9 view .LVU397
 413:Middlewares/LVGL/GUI/lvgl/src/misc/lv_fs.c ****             return *drv;
 1305              		.loc 1 413 13 is_stmt 0 view .LVU398
 1306 0018 0B68     		ldr	r3, [r1]
 413:Middlewares/LVGL/GUI/lvgl/src/misc/lv_fs.c ****             return *drv;
 1307              		.loc 1 413 18 view .LVU399
 1308 001a 1A78     		ldrb	r2, [r3]	@ zero_extendqisi2
 413:Middlewares/LVGL/GUI/lvgl/src/misc/lv_fs.c ****             return *drv;
 1309              		.loc 1 413 11 view .LVU400
 1310 001c A242     		cmp	r2, r4
 1311 001e F6D1     		bne	.L94
 414:Middlewares/LVGL/GUI/lvgl/src/misc/lv_fs.c ****         }
 1312              		.loc 1 414 20 view .LVU401
 1313 0020 1946     		mov	r1, r3
 1314              	.L88:
 419:Middlewares/LVGL/GUI/lvgl/src/misc/lv_fs.c **** 
 1315              		.loc 1 419 1 view .LVU402
 1316 0022 0846     		mov	r0, r1
 1317              	.LVL131:
 419:Middlewares/LVGL/GUI/lvgl/src/misc/lv_fs.c **** 
 1318              		.loc 1 419 1 view .LVU403
 1319 0024 10BD     		pop	{r4, pc}
 1320              	.L96:
 1321 0026 00BF     		.align	2
 1322              	.L95:
 1323 0028 00000000 		.word	_lv_fsdrv_ll
 1324              		.cfi_endproc
 1325              	.LFE37:
 1327              		.section	.text.lv_fs_is_ready,"ax",%progbits
 1328              		.align	1
 1329              		.global	lv_fs_is_ready
 1330              		.syntax unified
 1331              		.thumb
 1332              		.thumb_func
 1334              	lv_fs_is_ready:
 1335              	.LVL132:
 1336              	.LFB24:
  47:Middlewares/LVGL/GUI/lvgl/src/misc/lv_fs.c ****     lv_fs_drv_t * drv = lv_fs_get_drv(letter);
ARM GAS  C:\Users\ADMINI~1\AppData\Local\Temp\cciH6Em7.s 			page 40


 1337              		.loc 1 47 1 is_stmt 1 view -0
 1338              		.cfi_startproc
 1339              		@ args = 0, pretend = 0, frame = 0
 1340              		@ frame_needed = 0, uses_anonymous_args = 0
  47:Middlewares/LVGL/GUI/lvgl/src/misc/lv_fs.c ****     lv_fs_drv_t * drv = lv_fs_get_drv(letter);
 1341              		.loc 1 47 1 is_stmt 0 view .LVU405
 1342 0000 08B5     		push	{r3, lr}
 1343              	.LCFI26:
 1344              		.cfi_def_cfa_offset 8
 1345              		.cfi_offset 3, -8
 1346              		.cfi_offset 14, -4
  48:Middlewares/LVGL/GUI/lvgl/src/misc/lv_fs.c **** 
 1347              		.loc 1 48 5 is_stmt 1 view .LVU406
  48:Middlewares/LVGL/GUI/lvgl/src/misc/lv_fs.c **** 
 1348              		.loc 1 48 25 is_stmt 0 view .LVU407
 1349 0002 FFF7FEFF 		bl	lv_fs_get_drv
 1350              	.LVL133:
  50:Middlewares/LVGL/GUI/lvgl/src/misc/lv_fs.c **** 
 1351              		.loc 1 50 5 is_stmt 1 view .LVU408
  50:Middlewares/LVGL/GUI/lvgl/src/misc/lv_fs.c **** 
 1352              		.loc 1 50 7 is_stmt 0 view .LVU409
 1353 0006 18B1     		cbz	r0, .L99
  52:Middlewares/LVGL/GUI/lvgl/src/misc/lv_fs.c **** 
 1354              		.loc 1 52 5 is_stmt 1 view .LVU410
  52:Middlewares/LVGL/GUI/lvgl/src/misc/lv_fs.c **** 
 1355              		.loc 1 52 11 is_stmt 0 view .LVU411
 1356 0008 4268     		ldr	r2, [r0, #4]
  52:Middlewares/LVGL/GUI/lvgl/src/misc/lv_fs.c **** 
 1357              		.loc 1 52 7 view .LVU412
 1358 000a 1AB1     		cbz	r2, .L100
  54:Middlewares/LVGL/GUI/lvgl/src/misc/lv_fs.c **** }
 1359              		.loc 1 54 5 is_stmt 1 view .LVU413
  54:Middlewares/LVGL/GUI/lvgl/src/misc/lv_fs.c **** }
 1360              		.loc 1 54 12 is_stmt 0 view .LVU414
 1361 000c 9047     		blx	r2
 1362              	.LVL134:
 1363              	.L98:
  55:Middlewares/LVGL/GUI/lvgl/src/misc/lv_fs.c **** 
 1364              		.loc 1 55 1 view .LVU415
 1365 000e 08BD     		pop	{r3, pc}
 1366              	.LVL135:
 1367              	.L99:
  50:Middlewares/LVGL/GUI/lvgl/src/misc/lv_fs.c **** 
 1368              		.loc 1 50 28 view .LVU416
 1369 0010 0020     		movs	r0, #0
 1370              	.LVL136:
  50:Middlewares/LVGL/GUI/lvgl/src/misc/lv_fs.c **** 
 1371              		.loc 1 50 28 view .LVU417
 1372 0012 FCE7     		b	.L98
 1373              	.LVL137:
 1374              	.L100:
  52:Middlewares/LVGL/GUI/lvgl/src/misc/lv_fs.c **** 
 1375              		.loc 1 52 38 view .LVU418
 1376 0014 0120     		movs	r0, #1
 1377              	.LVL138:
  52:Middlewares/LVGL/GUI/lvgl/src/misc/lv_fs.c **** 
 1378              		.loc 1 52 38 view .LVU419
ARM GAS  C:\Users\ADMINI~1\AppData\Local\Temp\cciH6Em7.s 			page 41


 1379 0016 FAE7     		b	.L98
 1380              		.cfi_endproc
 1381              	.LFE24:
 1383              		.section	.text.lv_fs_open,"ax",%progbits
 1384              		.align	1
 1385              		.global	lv_fs_open
 1386              		.syntax unified
 1387              		.thumb
 1388              		.thumb_func
 1390              	lv_fs_open:
 1391              	.LVL139:
 1392              	.LFB25:
  58:Middlewares/LVGL/GUI/lvgl/src/misc/lv_fs.c ****     if(path == NULL) {
 1393              		.loc 1 58 1 is_stmt 1 view -0
 1394              		.cfi_startproc
 1395              		@ args = 0, pretend = 0, frame = 0
 1396              		@ frame_needed = 0, uses_anonymous_args = 0
  59:Middlewares/LVGL/GUI/lvgl/src/misc/lv_fs.c ****         LV_LOG_WARN("Can't open file: path is NULL");
 1397              		.loc 1 59 5 view .LVU421
  59:Middlewares/LVGL/GUI/lvgl/src/misc/lv_fs.c ****         LV_LOG_WARN("Can't open file: path is NULL");
 1398              		.loc 1 59 7 is_stmt 0 view .LVU422
 1399 0000 79B3     		cbz	r1, .L107
  58:Middlewares/LVGL/GUI/lvgl/src/misc/lv_fs.c ****     if(path == NULL) {
 1400              		.loc 1 58 1 view .LVU423
 1401 0002 2DE9F041 		push	{r4, r5, r6, r7, r8, lr}
 1402              	.LCFI27:
 1403              		.cfi_def_cfa_offset 24
 1404              		.cfi_offset 4, -24
 1405              		.cfi_offset 5, -20
 1406              		.cfi_offset 6, -16
 1407              		.cfi_offset 7, -12
 1408              		.cfi_offset 8, -8
 1409              		.cfi_offset 14, -4
 1410 0006 0446     		mov	r4, r0
 1411 0008 1646     		mov	r6, r2
 1412 000a 0F46     		mov	r7, r1
  64:Middlewares/LVGL/GUI/lvgl/src/misc/lv_fs.c ****     lv_fs_drv_t * drv = lv_fs_get_drv(letter);
 1413              		.loc 1 64 5 is_stmt 1 view .LVU424
 1414              	.LVL140:
  65:Middlewares/LVGL/GUI/lvgl/src/misc/lv_fs.c **** 
 1415              		.loc 1 65 5 view .LVU425
  65:Middlewares/LVGL/GUI/lvgl/src/misc/lv_fs.c **** 
 1416              		.loc 1 65 25 is_stmt 0 view .LVU426
 1417 000c 0878     		ldrb	r0, [r1]	@ zero_extendqisi2
 1418              	.LVL141:
  65:Middlewares/LVGL/GUI/lvgl/src/misc/lv_fs.c **** 
 1419              		.loc 1 65 25 view .LVU427
 1420 000e FFF7FEFF 		bl	lv_fs_get_drv
 1421              	.LVL142:
  67:Middlewares/LVGL/GUI/lvgl/src/misc/lv_fs.c ****         LV_LOG_WARN("Can't open file (%s): unknown driver letter", path);
 1422              		.loc 1 67 5 is_stmt 1 view .LVU428
  67:Middlewares/LVGL/GUI/lvgl/src/misc/lv_fs.c ****         LV_LOG_WARN("Can't open file (%s): unknown driver letter", path);
 1423              		.loc 1 67 7 is_stmt 0 view .LVU429
 1424 0012 0546     		mov	r5, r0
 1425 0014 38B3     		cbz	r0, .L108
  72:Middlewares/LVGL/GUI/lvgl/src/misc/lv_fs.c ****         if(drv->ready_cb(drv) == false) {
 1426              		.loc 1 72 5 is_stmt 1 view .LVU430
ARM GAS  C:\Users\ADMINI~1\AppData\Local\Temp\cciH6Em7.s 			page 42


  72:Middlewares/LVGL/GUI/lvgl/src/misc/lv_fs.c ****         if(drv->ready_cb(drv) == false) {
 1427              		.loc 1 72 11 is_stmt 0 view .LVU431
 1428 0016 4368     		ldr	r3, [r0, #4]
  72:Middlewares/LVGL/GUI/lvgl/src/misc/lv_fs.c ****         if(drv->ready_cb(drv) == false) {
 1429              		.loc 1 72 7 view .LVU432
 1430 0018 0BB1     		cbz	r3, .L104
  73:Middlewares/LVGL/GUI/lvgl/src/misc/lv_fs.c ****             LV_LOG_WARN("Can't open file (%s): driver not ready", path);
 1431              		.loc 1 73 9 is_stmt 1 view .LVU433
  73:Middlewares/LVGL/GUI/lvgl/src/misc/lv_fs.c ****             LV_LOG_WARN("Can't open file (%s): driver not ready", path);
 1432              		.loc 1 73 12 is_stmt 0 view .LVU434
 1433 001a 9847     		blx	r3
 1434              	.LVL143:
  73:Middlewares/LVGL/GUI/lvgl/src/misc/lv_fs.c ****             LV_LOG_WARN("Can't open file (%s): driver not ready", path);
 1435              		.loc 1 73 11 view .LVU435
 1436 001c 28B3     		cbz	r0, .L109
 1437              	.L104:
  79:Middlewares/LVGL/GUI/lvgl/src/misc/lv_fs.c ****         LV_LOG_WARN("Can't open file (%s): open function not exists", path);
 1438              		.loc 1 79 5 is_stmt 1 view .LVU436
  79:Middlewares/LVGL/GUI/lvgl/src/misc/lv_fs.c ****         LV_LOG_WARN("Can't open file (%s): open function not exists", path);
 1439              		.loc 1 79 11 is_stmt 0 view .LVU437
 1440 001e D5F80880 		ldr	r8, [r5, #8]
  79:Middlewares/LVGL/GUI/lvgl/src/misc/lv_fs.c ****         LV_LOG_WARN("Can't open file (%s): open function not exists", path);
 1441              		.loc 1 79 7 view .LVU438
 1442 0022 B8F1000F 		cmp	r8, #0
 1443 0026 22D0     		beq	.L110
  84:Middlewares/LVGL/GUI/lvgl/src/misc/lv_fs.c ****     void * file_d = drv->open_cb(drv, real_path, mode);
 1444              		.loc 1 84 5 is_stmt 1 view .LVU439
  84:Middlewares/LVGL/GUI/lvgl/src/misc/lv_fs.c ****     void * file_d = drv->open_cb(drv, real_path, mode);
 1445              		.loc 1 84 30 is_stmt 0 view .LVU440
 1446 0028 3846     		mov	r0, r7
 1447 002a FFF7FEFF 		bl	lv_fs_get_real_path
 1448              	.LVL144:
 1449 002e 0146     		mov	r1, r0
 1450              	.LVL145:
  85:Middlewares/LVGL/GUI/lvgl/src/misc/lv_fs.c **** 
 1451              		.loc 1 85 5 is_stmt 1 view .LVU441
  85:Middlewares/LVGL/GUI/lvgl/src/misc/lv_fs.c **** 
 1452              		.loc 1 85 21 is_stmt 0 view .LVU442
 1453 0030 3246     		mov	r2, r6
 1454 0032 2846     		mov	r0, r5
 1455              	.LVL146:
  85:Middlewares/LVGL/GUI/lvgl/src/misc/lv_fs.c **** 
 1456              		.loc 1 85 21 view .LVU443
 1457 0034 C047     		blx	r8
 1458              	.LVL147:
  87:Middlewares/LVGL/GUI/lvgl/src/misc/lv_fs.c ****         return LV_FS_RES_UNKNOWN;
 1459              		.loc 1 87 5 is_stmt 1 view .LVU444
  87:Middlewares/LVGL/GUI/lvgl/src/misc/lv_fs.c ****         return LV_FS_RES_UNKNOWN;
 1460              		.loc 1 87 23 is_stmt 0 view .LVU445
 1461 0036 431E     		subs	r3, r0, #1
  87:Middlewares/LVGL/GUI/lvgl/src/misc/lv_fs.c ****         return LV_FS_RES_UNKNOWN;
 1462              		.loc 1 87 7 view .LVU446
 1463 0038 13F1030F 		cmn	r3, #3
 1464 003c 19D8     		bhi	.L111
  91:Middlewares/LVGL/GUI/lvgl/src/misc/lv_fs.c ****     file_p->file_d = file_d;
 1465              		.loc 1 91 5 is_stmt 1 view .LVU447
  91:Middlewares/LVGL/GUI/lvgl/src/misc/lv_fs.c ****     file_p->file_d = file_d;
ARM GAS  C:\Users\ADMINI~1\AppData\Local\Temp\cciH6Em7.s 			page 43


 1466              		.loc 1 91 17 is_stmt 0 view .LVU448
 1467 003e 6560     		str	r5, [r4, #4]
  92:Middlewares/LVGL/GUI/lvgl/src/misc/lv_fs.c **** 
 1468              		.loc 1 92 5 is_stmt 1 view .LVU449
  92:Middlewares/LVGL/GUI/lvgl/src/misc/lv_fs.c **** 
 1469              		.loc 1 92 20 is_stmt 0 view .LVU450
 1470 0040 2060     		str	r0, [r4]
  94:Middlewares/LVGL/GUI/lvgl/src/misc/lv_fs.c ****         file_p->cache = lv_mem_alloc(sizeof(lv_fs_file_cache_t));
 1471              		.loc 1 94 5 is_stmt 1 view .LVU451
  94:Middlewares/LVGL/GUI/lvgl/src/misc/lv_fs.c ****         file_p->cache = lv_mem_alloc(sizeof(lv_fs_file_cache_t));
 1472              		.loc 1 94 11 is_stmt 0 view .LVU452
 1473 0042 6B88     		ldrh	r3, [r5, #2]
  94:Middlewares/LVGL/GUI/lvgl/src/misc/lv_fs.c ****         file_p->cache = lv_mem_alloc(sizeof(lv_fs_file_cache_t));
 1474              		.loc 1 94 7 view .LVU453
 1475 0044 13B9     		cbnz	r3, .L117
 100:Middlewares/LVGL/GUI/lvgl/src/misc/lv_fs.c **** }
 1476              		.loc 1 100 12 view .LVU454
 1477 0046 0020     		movs	r0, #0
 1478              	.LVL148:
 1479              	.L103:
 101:Middlewares/LVGL/GUI/lvgl/src/misc/lv_fs.c **** 
 1480              		.loc 1 101 1 view .LVU455
 1481 0048 BDE8F081 		pop	{r4, r5, r6, r7, r8, pc}
 1482              	.LVL149:
 1483              	.L117:
  95:Middlewares/LVGL/GUI/lvgl/src/misc/lv_fs.c ****         LV_ASSERT_MALLOC(file_p->cache);
 1484              		.loc 1 95 9 is_stmt 1 view .LVU456
  95:Middlewares/LVGL/GUI/lvgl/src/misc/lv_fs.c ****         LV_ASSERT_MALLOC(file_p->cache);
 1485              		.loc 1 95 25 is_stmt 0 view .LVU457
 1486 004c 1020     		movs	r0, #16
 1487              	.LVL150:
  95:Middlewares/LVGL/GUI/lvgl/src/misc/lv_fs.c ****         LV_ASSERT_MALLOC(file_p->cache);
 1488              		.loc 1 95 25 view .LVU458
 1489 004e FFF7FEFF 		bl	lv_mem_alloc
 1490              	.LVL151:
  95:Middlewares/LVGL/GUI/lvgl/src/misc/lv_fs.c ****         LV_ASSERT_MALLOC(file_p->cache);
 1491              		.loc 1 95 23 view .LVU459
 1492 0052 A060     		str	r0, [r4, #8]
  96:Middlewares/LVGL/GUI/lvgl/src/misc/lv_fs.c ****         lv_memset_00(file_p->cache, sizeof(lv_fs_file_cache_t));
 1493              		.loc 1 96 9 is_stmt 1 view .LVU460
  96:Middlewares/LVGL/GUI/lvgl/src/misc/lv_fs.c ****         lv_memset_00(file_p->cache, sizeof(lv_fs_file_cache_t));
 1494              		.loc 1 96 9 view .LVU461
 1495 0054 20B1     		cbz	r0, .L106
  96:Middlewares/LVGL/GUI/lvgl/src/misc/lv_fs.c ****         lv_memset_00(file_p->cache, sizeof(lv_fs_file_cache_t));
 1496              		.loc 1 96 9 discriminator 2 view .LVU462
  96:Middlewares/LVGL/GUI/lvgl/src/misc/lv_fs.c ****         lv_memset_00(file_p->cache, sizeof(lv_fs_file_cache_t));
 1497              		.loc 1 96 40 discriminator 2 view .LVU463
  97:Middlewares/LVGL/GUI/lvgl/src/misc/lv_fs.c ****     }
 1498              		.loc 1 97 9 discriminator 2 view .LVU464
 1499 0056 1021     		movs	r1, #16
 1500 0058 FFF7FEFF 		bl	lv_memset_00
 1501              	.LVL152:
 100:Middlewares/LVGL/GUI/lvgl/src/misc/lv_fs.c **** }
 1502              		.loc 1 100 12 is_stmt 0 discriminator 2 view .LVU465
 1503 005c 0020     		movs	r0, #0
 1504 005e F3E7     		b	.L103
 1505              	.L106:
ARM GAS  C:\Users\ADMINI~1\AppData\Local\Temp\cciH6Em7.s 			page 44


  96:Middlewares/LVGL/GUI/lvgl/src/misc/lv_fs.c ****         lv_memset_00(file_p->cache, sizeof(lv_fs_file_cache_t));
 1506              		.loc 1 96 9 is_stmt 1 discriminator 1 view .LVU466
  96:Middlewares/LVGL/GUI/lvgl/src/misc/lv_fs.c ****         lv_memset_00(file_p->cache, sizeof(lv_fs_file_cache_t));
 1507              		.loc 1 96 9 discriminator 1 view .LVU467
  96:Middlewares/LVGL/GUI/lvgl/src/misc/lv_fs.c ****         lv_memset_00(file_p->cache, sizeof(lv_fs_file_cache_t));
 1508              		.loc 1 96 9 discriminator 1 view .LVU468
  96:Middlewares/LVGL/GUI/lvgl/src/misc/lv_fs.c ****         lv_memset_00(file_p->cache, sizeof(lv_fs_file_cache_t));
 1509              		.loc 1 96 9 discriminator 1 view .LVU469
  96:Middlewares/LVGL/GUI/lvgl/src/misc/lv_fs.c ****         lv_memset_00(file_p->cache, sizeof(lv_fs_file_cache_t));
 1510              		.loc 1 96 9 discriminator 1 view .LVU470
  96:Middlewares/LVGL/GUI/lvgl/src/misc/lv_fs.c ****         lv_memset_00(file_p->cache, sizeof(lv_fs_file_cache_t));
 1511              		.loc 1 96 9 discriminator 1 view .LVU471
 1512 0060 FEE7     		b	.L106
 1513              	.LVL153:
 1514              	.L107:
 1515              	.LCFI28:
 1516              		.cfi_def_cfa_offset 0
 1517              		.cfi_restore 4
 1518              		.cfi_restore 5
 1519              		.cfi_restore 6
 1520              		.cfi_restore 7
 1521              		.cfi_restore 8
 1522              		.cfi_restore 14
  61:Middlewares/LVGL/GUI/lvgl/src/misc/lv_fs.c ****     }
 1523              		.loc 1 61 16 is_stmt 0 view .LVU472
 1524 0062 0B20     		movs	r0, #11
 1525              	.LVL154:
 101:Middlewares/LVGL/GUI/lvgl/src/misc/lv_fs.c **** 
 1526              		.loc 1 101 1 view .LVU473
 1527 0064 7047     		bx	lr
 1528              	.LVL155:
 1529              	.L108:
 1530              	.LCFI29:
 1531              		.cfi_def_cfa_offset 24
 1532              		.cfi_offset 4, -24
 1533              		.cfi_offset 5, -20
 1534              		.cfi_offset 6, -16
 1535              		.cfi_offset 7, -12
 1536              		.cfi_offset 8, -8
 1537              		.cfi_offset 14, -4
  69:Middlewares/LVGL/GUI/lvgl/src/misc/lv_fs.c ****     }
 1538              		.loc 1 69 16 view .LVU474
 1539 0066 0320     		movs	r0, #3
 1540              	.LVL156:
  69:Middlewares/LVGL/GUI/lvgl/src/misc/lv_fs.c ****     }
 1541              		.loc 1 69 16 view .LVU475
 1542 0068 EEE7     		b	.L103
 1543              	.L109:
  75:Middlewares/LVGL/GUI/lvgl/src/misc/lv_fs.c ****         }
 1544              		.loc 1 75 20 view .LVU476
 1545 006a 0120     		movs	r0, #1
 1546 006c ECE7     		b	.L103
 1547              	.L110:
  81:Middlewares/LVGL/GUI/lvgl/src/misc/lv_fs.c ****     }
 1548              		.loc 1 81 16 view .LVU477
 1549 006e 0920     		movs	r0, #9
 1550 0070 EAE7     		b	.L103
ARM GAS  C:\Users\ADMINI~1\AppData\Local\Temp\cciH6Em7.s 			page 45


 1551              	.LVL157:
 1552              	.L111:
  88:Middlewares/LVGL/GUI/lvgl/src/misc/lv_fs.c ****     }
 1553              		.loc 1 88 16 view .LVU478
 1554 0072 0C20     		movs	r0, #12
 1555              	.LVL158:
  88:Middlewares/LVGL/GUI/lvgl/src/misc/lv_fs.c ****     }
 1556              		.loc 1 88 16 view .LVU479
 1557 0074 E8E7     		b	.L103
 1558              		.cfi_endproc
 1559              	.LFE25:
 1561              		.section	.text.lv_fs_dir_open,"ax",%progbits
 1562              		.align	1
 1563              		.global	lv_fs_dir_open
 1564              		.syntax unified
 1565              		.thumb
 1566              		.thumb_func
 1568              	lv_fs_dir_open:
 1569              	.LVL159:
 1570              	.LFB32:
 324:Middlewares/LVGL/GUI/lvgl/src/misc/lv_fs.c ****     if(path == NULL) return LV_FS_RES_INV_PARAM;
 1571              		.loc 1 324 1 is_stmt 1 view -0
 1572              		.cfi_startproc
 1573              		@ args = 0, pretend = 0, frame = 0
 1574              		@ frame_needed = 0, uses_anonymous_args = 0
 325:Middlewares/LVGL/GUI/lvgl/src/misc/lv_fs.c **** 
 1575              		.loc 1 325 5 view .LVU481
 325:Middlewares/LVGL/GUI/lvgl/src/misc/lv_fs.c **** 
 1576              		.loc 1 325 7 is_stmt 0 view .LVU482
 1577 0000 D9B1     		cbz	r1, .L121
 324:Middlewares/LVGL/GUI/lvgl/src/misc/lv_fs.c ****     if(path == NULL) return LV_FS_RES_INV_PARAM;
 1578              		.loc 1 324 1 view .LVU483
 1579 0002 F8B5     		push	{r3, r4, r5, r6, r7, lr}
 1580              	.LCFI30:
 1581              		.cfi_def_cfa_offset 24
 1582              		.cfi_offset 3, -24
 1583              		.cfi_offset 4, -20
 1584              		.cfi_offset 5, -16
 1585              		.cfi_offset 6, -12
 1586              		.cfi_offset 7, -8
 1587              		.cfi_offset 14, -4
 1588 0004 0646     		mov	r6, r0
 1589 0006 0D46     		mov	r5, r1
 327:Middlewares/LVGL/GUI/lvgl/src/misc/lv_fs.c ****     lv_fs_drv_t * drv = lv_fs_get_drv(letter);
 1590              		.loc 1 327 5 is_stmt 1 view .LVU484
 1591              	.LVL160:
 328:Middlewares/LVGL/GUI/lvgl/src/misc/lv_fs.c **** 
 1592              		.loc 1 328 5 view .LVU485
 328:Middlewares/LVGL/GUI/lvgl/src/misc/lv_fs.c **** 
 1593              		.loc 1 328 25 is_stmt 0 view .LVU486
 1594 0008 0878     		ldrb	r0, [r1]	@ zero_extendqisi2
 1595              	.LVL161:
 328:Middlewares/LVGL/GUI/lvgl/src/misc/lv_fs.c **** 
 1596              		.loc 1 328 25 view .LVU487
 1597 000a FFF7FEFF 		bl	lv_fs_get_drv
 1598              	.LVL162:
 330:Middlewares/LVGL/GUI/lvgl/src/misc/lv_fs.c ****         return LV_FS_RES_NOT_EX;
ARM GAS  C:\Users\ADMINI~1\AppData\Local\Temp\cciH6Em7.s 			page 46


 1599              		.loc 1 330 5 is_stmt 1 view .LVU488
 330:Middlewares/LVGL/GUI/lvgl/src/misc/lv_fs.c ****         return LV_FS_RES_NOT_EX;
 1600              		.loc 1 330 7 is_stmt 0 view .LVU489
 1601 000e 0446     		mov	r4, r0
 1602 0010 A8B1     		cbz	r0, .L122
 334:Middlewares/LVGL/GUI/lvgl/src/misc/lv_fs.c ****         if(drv->ready_cb(drv) == false) {
 1603              		.loc 1 334 5 is_stmt 1 view .LVU490
 334:Middlewares/LVGL/GUI/lvgl/src/misc/lv_fs.c ****         if(drv->ready_cb(drv) == false) {
 1604              		.loc 1 334 11 is_stmt 0 view .LVU491
 1605 0012 4368     		ldr	r3, [r0, #4]
 334:Middlewares/LVGL/GUI/lvgl/src/misc/lv_fs.c ****         if(drv->ready_cb(drv) == false) {
 1606              		.loc 1 334 7 view .LVU492
 1607 0014 0BB1     		cbz	r3, .L120
 335:Middlewares/LVGL/GUI/lvgl/src/misc/lv_fs.c ****             return LV_FS_RES_HW_ERR;
 1608              		.loc 1 335 9 is_stmt 1 view .LVU493
 335:Middlewares/LVGL/GUI/lvgl/src/misc/lv_fs.c ****             return LV_FS_RES_HW_ERR;
 1609              		.loc 1 335 12 is_stmt 0 view .LVU494
 1610 0016 9847     		blx	r3
 1611              	.LVL163:
 335:Middlewares/LVGL/GUI/lvgl/src/misc/lv_fs.c ****             return LV_FS_RES_HW_ERR;
 1612              		.loc 1 335 11 view .LVU495
 1613 0018 98B1     		cbz	r0, .L123
 1614              	.L120:
 340:Middlewares/LVGL/GUI/lvgl/src/misc/lv_fs.c ****         return LV_FS_RES_NOT_IMP;
 1615              		.loc 1 340 5 is_stmt 1 view .LVU496
 340:Middlewares/LVGL/GUI/lvgl/src/misc/lv_fs.c ****         return LV_FS_RES_NOT_IMP;
 1616              		.loc 1 340 11 is_stmt 0 view .LVU497
 1617 001a 276A     		ldr	r7, [r4, #32]
 340:Middlewares/LVGL/GUI/lvgl/src/misc/lv_fs.c ****         return LV_FS_RES_NOT_IMP;
 1618              		.loc 1 340 7 view .LVU498
 1619 001c 9FB1     		cbz	r7, .L124
 344:Middlewares/LVGL/GUI/lvgl/src/misc/lv_fs.c ****     void * dir_d = drv->dir_open_cb(drv, real_path);
 1620              		.loc 1 344 5 is_stmt 1 view .LVU499
 344:Middlewares/LVGL/GUI/lvgl/src/misc/lv_fs.c ****     void * dir_d = drv->dir_open_cb(drv, real_path);
 1621              		.loc 1 344 30 is_stmt 0 view .LVU500
 1622 001e 2846     		mov	r0, r5
 1623 0020 FFF7FEFF 		bl	lv_fs_get_real_path
 1624              	.LVL164:
 1625 0024 0146     		mov	r1, r0
 1626              	.LVL165:
 345:Middlewares/LVGL/GUI/lvgl/src/misc/lv_fs.c **** 
 1627              		.loc 1 345 5 is_stmt 1 view .LVU501
 345:Middlewares/LVGL/GUI/lvgl/src/misc/lv_fs.c **** 
 1628              		.loc 1 345 20 is_stmt 0 view .LVU502
 1629 0026 2046     		mov	r0, r4
 1630              	.LVL166:
 345:Middlewares/LVGL/GUI/lvgl/src/misc/lv_fs.c **** 
 1631              		.loc 1 345 20 view .LVU503
 1632 0028 B847     		blx	r7
 1633              	.LVL167:
 347:Middlewares/LVGL/GUI/lvgl/src/misc/lv_fs.c ****         return LV_FS_RES_UNKNOWN;
 1634              		.loc 1 347 5 is_stmt 1 view .LVU504
 347:Middlewares/LVGL/GUI/lvgl/src/misc/lv_fs.c ****         return LV_FS_RES_UNKNOWN;
 1635              		.loc 1 347 22 is_stmt 0 view .LVU505
 1636 002a 421E     		subs	r2, r0, #1
 347:Middlewares/LVGL/GUI/lvgl/src/misc/lv_fs.c ****         return LV_FS_RES_UNKNOWN;
 1637              		.loc 1 347 7 view .LVU506
ARM GAS  C:\Users\ADMINI~1\AppData\Local\Temp\cciH6Em7.s 			page 47


 1638 002c 12F1030F 		cmn	r2, #3
 1639 0030 0BD8     		bhi	.L125
 351:Middlewares/LVGL/GUI/lvgl/src/misc/lv_fs.c ****     rddir_p->dir_d = dir_d;
 1640              		.loc 1 351 5 is_stmt 1 view .LVU507
 351:Middlewares/LVGL/GUI/lvgl/src/misc/lv_fs.c ****     rddir_p->dir_d = dir_d;
 1641              		.loc 1 351 18 is_stmt 0 view .LVU508
 1642 0032 7460     		str	r4, [r6, #4]
 352:Middlewares/LVGL/GUI/lvgl/src/misc/lv_fs.c **** 
 1643              		.loc 1 352 5 is_stmt 1 view .LVU509
 352:Middlewares/LVGL/GUI/lvgl/src/misc/lv_fs.c **** 
 1644              		.loc 1 352 20 is_stmt 0 view .LVU510
 1645 0034 3060     		str	r0, [r6]
 354:Middlewares/LVGL/GUI/lvgl/src/misc/lv_fs.c **** }
 1646              		.loc 1 354 5 is_stmt 1 view .LVU511
 354:Middlewares/LVGL/GUI/lvgl/src/misc/lv_fs.c **** }
 1647              		.loc 1 354 12 is_stmt 0 view .LVU512
 1648 0036 0020     		movs	r0, #0
 1649              	.LVL168:
 1650              	.L119:
 355:Middlewares/LVGL/GUI/lvgl/src/misc/lv_fs.c **** 
 1651              		.loc 1 355 1 view .LVU513
 1652 0038 F8BD     		pop	{r3, r4, r5, r6, r7, pc}
 1653              	.LVL169:
 1654              	.L121:
 1655              	.LCFI31:
 1656              		.cfi_def_cfa_offset 0
 1657              		.cfi_restore 3
 1658              		.cfi_restore 4
 1659              		.cfi_restore 5
 1660              		.cfi_restore 6
 1661              		.cfi_restore 7
 1662              		.cfi_restore 14
 325:Middlewares/LVGL/GUI/lvgl/src/misc/lv_fs.c **** 
 1663              		.loc 1 325 29 view .LVU514
 1664 003a 0B20     		movs	r0, #11
 1665              	.LVL170:
 355:Middlewares/LVGL/GUI/lvgl/src/misc/lv_fs.c **** 
 1666              		.loc 1 355 1 view .LVU515
 1667 003c 7047     		bx	lr
 1668              	.LVL171:
 1669              	.L122:
 1670              	.LCFI32:
 1671              		.cfi_def_cfa_offset 24
 1672              		.cfi_offset 3, -24
 1673              		.cfi_offset 4, -20
 1674              		.cfi_offset 5, -16
 1675              		.cfi_offset 6, -12
 1676              		.cfi_offset 7, -8
 1677              		.cfi_offset 14, -4
 331:Middlewares/LVGL/GUI/lvgl/src/misc/lv_fs.c ****     }
 1678              		.loc 1 331 16 view .LVU516
 1679 003e 0320     		movs	r0, #3
 1680              	.LVL172:
 331:Middlewares/LVGL/GUI/lvgl/src/misc/lv_fs.c ****     }
 1681              		.loc 1 331 16 view .LVU517
 1682 0040 FAE7     		b	.L119
 1683              	.L123:
ARM GAS  C:\Users\ADMINI~1\AppData\Local\Temp\cciH6Em7.s 			page 48


 336:Middlewares/LVGL/GUI/lvgl/src/misc/lv_fs.c ****         }
 1684              		.loc 1 336 20 view .LVU518
 1685 0042 0120     		movs	r0, #1
 1686 0044 F8E7     		b	.L119
 1687              	.L124:
 341:Middlewares/LVGL/GUI/lvgl/src/misc/lv_fs.c ****     }
 1688              		.loc 1 341 16 view .LVU519
 1689 0046 0920     		movs	r0, #9
 1690 0048 F6E7     		b	.L119
 1691              	.LVL173:
 1692              	.L125:
 348:Middlewares/LVGL/GUI/lvgl/src/misc/lv_fs.c ****     }
 1693              		.loc 1 348 16 view .LVU520
 1694 004a 0C20     		movs	r0, #12
 1695              	.LVL174:
 348:Middlewares/LVGL/GUI/lvgl/src/misc/lv_fs.c ****     }
 1696              		.loc 1 348 16 view .LVU521
 1697 004c F4E7     		b	.L119
 1698              		.cfi_endproc
 1699              	.LFE32:
 1701              		.section	.text.lv_fs_get_letters,"ax",%progbits
 1702              		.align	1
 1703              		.global	lv_fs_get_letters
 1704              		.syntax unified
 1705              		.thumb
 1706              		.thumb_func
 1708              	lv_fs_get_letters:
 1709              	.LVL175:
 1710              	.LFB38:
 422:Middlewares/LVGL/GUI/lvgl/src/misc/lv_fs.c ****     lv_fs_drv_t ** drv;
 1711              		.loc 1 422 1 is_stmt 1 view -0
 1712              		.cfi_startproc
 1713              		@ args = 0, pretend = 0, frame = 0
 1714              		@ frame_needed = 0, uses_anonymous_args = 0
 422:Middlewares/LVGL/GUI/lvgl/src/misc/lv_fs.c ****     lv_fs_drv_t ** drv;
 1715              		.loc 1 422 1 is_stmt 0 view .LVU523
 1716 0000 38B5     		push	{r3, r4, r5, lr}
 1717              	.LCFI33:
 1718              		.cfi_def_cfa_offset 16
 1719              		.cfi_offset 3, -16
 1720              		.cfi_offset 4, -12
 1721              		.cfi_offset 5, -8
 1722              		.cfi_offset 14, -4
 1723 0002 0546     		mov	r5, r0
 423:Middlewares/LVGL/GUI/lvgl/src/misc/lv_fs.c ****     uint8_t i = 0;
 1724              		.loc 1 423 5 is_stmt 1 view .LVU524
 424:Middlewares/LVGL/GUI/lvgl/src/misc/lv_fs.c **** 
 1725              		.loc 1 424 5 view .LVU525
 1726              	.LVL176:
 426:Middlewares/LVGL/GUI/lvgl/src/misc/lv_fs.c ****         buf[i] = (*drv)->letter;
 1727              		.loc 1 426 5 view .LVU526
 1728 0004 0A48     		ldr	r0, .L134
 1729              	.LVL177:
 426:Middlewares/LVGL/GUI/lvgl/src/misc/lv_fs.c ****         buf[i] = (*drv)->letter;
 1730              		.loc 1 426 5 is_stmt 0 view .LVU527
 1731 0006 FFF7FEFF 		bl	_lv_ll_get_head
 1732              	.LVL178:
ARM GAS  C:\Users\ADMINI~1\AppData\Local\Temp\cciH6Em7.s 			page 49


 1733 000a 0146     		mov	r1, r0
 1734              	.LVL179:
 424:Middlewares/LVGL/GUI/lvgl/src/misc/lv_fs.c **** 
 1735              		.loc 1 424 13 view .LVU528
 1736 000c 0024     		movs	r4, #0
 426:Middlewares/LVGL/GUI/lvgl/src/misc/lv_fs.c ****         buf[i] = (*drv)->letter;
 1737              		.loc 1 426 5 view .LVU529
 1738 000e 08E0     		b	.L131
 1739              	.LVL180:
 1740              	.L132:
 427:Middlewares/LVGL/GUI/lvgl/src/misc/lv_fs.c ****         i++;
 1741              		.loc 1 427 9 is_stmt 1 discriminator 3 view .LVU530
 427:Middlewares/LVGL/GUI/lvgl/src/misc/lv_fs.c ****         i++;
 1742              		.loc 1 427 19 is_stmt 0 discriminator 3 view .LVU531
 1743 0010 0B68     		ldr	r3, [r1]
 427:Middlewares/LVGL/GUI/lvgl/src/misc/lv_fs.c ****         i++;
 1744              		.loc 1 427 24 discriminator 3 view .LVU532
 1745 0012 1B78     		ldrb	r3, [r3]	@ zero_extendqisi2
 427:Middlewares/LVGL/GUI/lvgl/src/misc/lv_fs.c ****         i++;
 1746              		.loc 1 427 16 discriminator 3 view .LVU533
 1747 0014 2B55     		strb	r3, [r5, r4]
 428:Middlewares/LVGL/GUI/lvgl/src/misc/lv_fs.c ****     }
 1748              		.loc 1 428 9 is_stmt 1 discriminator 3 view .LVU534
 428:Middlewares/LVGL/GUI/lvgl/src/misc/lv_fs.c ****     }
 1749              		.loc 1 428 10 is_stmt 0 discriminator 3 view .LVU535
 1750 0016 0134     		adds	r4, r4, #1
 1751              	.LVL181:
 428:Middlewares/LVGL/GUI/lvgl/src/misc/lv_fs.c ****     }
 1752              		.loc 1 428 10 discriminator 3 view .LVU536
 1753 0018 E4B2     		uxtb	r4, r4
 1754              	.LVL182:
 426:Middlewares/LVGL/GUI/lvgl/src/misc/lv_fs.c ****         buf[i] = (*drv)->letter;
 1755              		.loc 1 426 5 is_stmt 1 discriminator 3 view .LVU537
 1756 001a 0548     		ldr	r0, .L134
 1757              	.LVL183:
 426:Middlewares/LVGL/GUI/lvgl/src/misc/lv_fs.c ****         buf[i] = (*drv)->letter;
 1758              		.loc 1 426 5 is_stmt 0 discriminator 3 view .LVU538
 1759 001c FFF7FEFF 		bl	_lv_ll_get_next
 1760              	.LVL184:
 426:Middlewares/LVGL/GUI/lvgl/src/misc/lv_fs.c ****         buf[i] = (*drv)->letter;
 1761              		.loc 1 426 5 discriminator 3 view .LVU539
 1762 0020 0146     		mov	r1, r0
 1763              	.LVL185:
 1764              	.L131:
 426:Middlewares/LVGL/GUI/lvgl/src/misc/lv_fs.c ****         buf[i] = (*drv)->letter;
 1765              		.loc 1 426 5 is_stmt 1 discriminator 1 view .LVU540
 1766 0022 0029     		cmp	r1, #0
 1767 0024 F4D1     		bne	.L132
 431:Middlewares/LVGL/GUI/lvgl/src/misc/lv_fs.c **** 
 1768              		.loc 1 431 5 view .LVU541
 431:Middlewares/LVGL/GUI/lvgl/src/misc/lv_fs.c **** 
 1769              		.loc 1 431 12 is_stmt 0 view .LVU542
 1770 0026 0023     		movs	r3, #0
 1771 0028 2B55     		strb	r3, [r5, r4]
 433:Middlewares/LVGL/GUI/lvgl/src/misc/lv_fs.c **** }
 1772              		.loc 1 433 5 is_stmt 1 view .LVU543
 434:Middlewares/LVGL/GUI/lvgl/src/misc/lv_fs.c **** 
ARM GAS  C:\Users\ADMINI~1\AppData\Local\Temp\cciH6Em7.s 			page 50


 1773              		.loc 1 434 1 is_stmt 0 view .LVU544
 1774 002a 2846     		mov	r0, r5
 1775              	.LVL186:
 434:Middlewares/LVGL/GUI/lvgl/src/misc/lv_fs.c **** 
 1776              		.loc 1 434 1 view .LVU545
 1777 002c 38BD     		pop	{r3, r4, r5, pc}
 1778              	.LVL187:
 1779              	.L135:
 434:Middlewares/LVGL/GUI/lvgl/src/misc/lv_fs.c **** 
 1780              		.loc 1 434 1 view .LVU546
 1781 002e 00BF     		.align	2
 1782              	.L134:
 1783 0030 00000000 		.word	_lv_fsdrv_ll
 1784              		.cfi_endproc
 1785              	.LFE38:
 1787              		.section	.rodata.lv_fs_get_ext.str1.4,"aMS",%progbits,1
 1788              		.align	2
 1789              	.LC0:
 1790 0000 00       		.ascii	"\000"
 1791              		.section	.text.lv_fs_get_ext,"ax",%progbits
 1792              		.align	1
 1793              		.global	lv_fs_get_ext
 1794              		.syntax unified
 1795              		.thumb
 1796              		.thumb_func
 1798              	lv_fs_get_ext:
 1799              	.LVL188:
 1800              	.LFB39:
 437:Middlewares/LVGL/GUI/lvgl/src/misc/lv_fs.c ****     size_t i;
 1801              		.loc 1 437 1 is_stmt 1 view -0
 1802              		.cfi_startproc
 1803              		@ args = 0, pretend = 0, frame = 0
 1804              		@ frame_needed = 0, uses_anonymous_args = 0
 437:Middlewares/LVGL/GUI/lvgl/src/misc/lv_fs.c ****     size_t i;
 1805              		.loc 1 437 1 is_stmt 0 view .LVU548
 1806 0000 10B5     		push	{r4, lr}
 1807              	.LCFI34:
 1808              		.cfi_def_cfa_offset 8
 1809              		.cfi_offset 4, -8
 1810              		.cfi_offset 14, -4
 1811 0002 0446     		mov	r4, r0
 438:Middlewares/LVGL/GUI/lvgl/src/misc/lv_fs.c ****     for(i = strlen(fn); i > 0; i--) {
 1812              		.loc 1 438 5 is_stmt 1 view .LVU549
 439:Middlewares/LVGL/GUI/lvgl/src/misc/lv_fs.c ****         if(fn[i] == '.') {
 1813              		.loc 1 439 5 view .LVU550
 439:Middlewares/LVGL/GUI/lvgl/src/misc/lv_fs.c ****         if(fn[i] == '.') {
 1814              		.loc 1 439 13 is_stmt 0 view .LVU551
 1815 0004 FFF7FEFF 		bl	strlen
 1816              	.LVL189:
 1817              	.L137:
 439:Middlewares/LVGL/GUI/lvgl/src/misc/lv_fs.c ****         if(fn[i] == '.') {
 1818              		.loc 1 439 25 is_stmt 1 discriminator 1 view .LVU552
 439:Middlewares/LVGL/GUI/lvgl/src/misc/lv_fs.c ****         if(fn[i] == '.') {
 1819              		.loc 1 439 5 is_stmt 0 discriminator 1 view .LVU553
 1820 0008 58B1     		cbz	r0, .L144
 440:Middlewares/LVGL/GUI/lvgl/src/misc/lv_fs.c ****             return &fn[i + 1];
 1821              		.loc 1 440 9 is_stmt 1 view .LVU554
ARM GAS  C:\Users\ADMINI~1\AppData\Local\Temp\cciH6Em7.s 			page 51


 440:Middlewares/LVGL/GUI/lvgl/src/misc/lv_fs.c ****             return &fn[i + 1];
 1822              		.loc 1 440 14 is_stmt 0 view .LVU555
 1823 000a 235C     		ldrb	r3, [r4, r0]	@ zero_extendqisi2
 440:Middlewares/LVGL/GUI/lvgl/src/misc/lv_fs.c ****             return &fn[i + 1];
 1824              		.loc 1 440 11 view .LVU556
 1825 000c 2E2B     		cmp	r3, #46
 1826 000e 05D0     		beq	.L145
 443:Middlewares/LVGL/GUI/lvgl/src/misc/lv_fs.c ****             return ""; /*No extension if a '\' or '/' found*/
 1827              		.loc 1 443 14 is_stmt 1 view .LVU557
 443:Middlewares/LVGL/GUI/lvgl/src/misc/lv_fs.c ****             return ""; /*No extension if a '\' or '/' found*/
 1828              		.loc 1 443 16 is_stmt 0 view .LVU558
 1829 0010 2F2B     		cmp	r3, #47
 1830 0012 08D0     		beq	.L141
 443:Middlewares/LVGL/GUI/lvgl/src/misc/lv_fs.c ****             return ""; /*No extension if a '\' or '/' found*/
 1831              		.loc 1 443 30 discriminator 1 view .LVU559
 1832 0014 5C2B     		cmp	r3, #92
 1833 0016 08D0     		beq	.L142
 439:Middlewares/LVGL/GUI/lvgl/src/misc/lv_fs.c ****         if(fn[i] == '.') {
 1834              		.loc 1 439 32 is_stmt 1 discriminator 2 view .LVU560
 439:Middlewares/LVGL/GUI/lvgl/src/misc/lv_fs.c ****         if(fn[i] == '.') {
 1835              		.loc 1 439 33 is_stmt 0 discriminator 2 view .LVU561
 1836 0018 0138     		subs	r0, r0, #1
 1837              	.LVL190:
 439:Middlewares/LVGL/GUI/lvgl/src/misc/lv_fs.c ****         if(fn[i] == '.') {
 1838              		.loc 1 439 33 discriminator 2 view .LVU562
 1839 001a F5E7     		b	.L137
 1840              	.L145:
 441:Middlewares/LVGL/GUI/lvgl/src/misc/lv_fs.c ****         }
 1841              		.loc 1 441 13 is_stmt 1 view .LVU563
 441:Middlewares/LVGL/GUI/lvgl/src/misc/lv_fs.c ****         }
 1842              		.loc 1 441 23 is_stmt 0 view .LVU564
 1843 001c 431C     		adds	r3, r0, #1
 441:Middlewares/LVGL/GUI/lvgl/src/misc/lv_fs.c ****         }
 1844              		.loc 1 441 20 view .LVU565
 1845 001e E018     		adds	r0, r4, r3
 1846              	.LVL191:
 441:Middlewares/LVGL/GUI/lvgl/src/misc/lv_fs.c ****         }
 1847              		.loc 1 441 20 view .LVU566
 1848 0020 00E0     		b	.L136
 1849              	.LVL192:
 1850              	.L144:
 448:Middlewares/LVGL/GUI/lvgl/src/misc/lv_fs.c **** }
 1851              		.loc 1 448 12 view .LVU567
 1852 0022 0348     		ldr	r0, .L146
 1853              	.LVL193:
 1854              	.L136:
 449:Middlewares/LVGL/GUI/lvgl/src/misc/lv_fs.c **** 
 1855              		.loc 1 449 1 view .LVU568
 1856 0024 10BD     		pop	{r4, pc}
 1857              	.LVL194:
 1858              	.L141:
 444:Middlewares/LVGL/GUI/lvgl/src/misc/lv_fs.c ****         }
 1859              		.loc 1 444 20 view .LVU569
 1860 0026 0248     		ldr	r0, .L146
 1861              	.LVL195:
 444:Middlewares/LVGL/GUI/lvgl/src/misc/lv_fs.c ****         }
 1862              		.loc 1 444 20 view .LVU570
ARM GAS  C:\Users\ADMINI~1\AppData\Local\Temp\cciH6Em7.s 			page 52


 1863 0028 FCE7     		b	.L136
 1864              	.LVL196:
 1865              	.L142:
 444:Middlewares/LVGL/GUI/lvgl/src/misc/lv_fs.c ****         }
 1866              		.loc 1 444 20 view .LVU571
 1867 002a 0148     		ldr	r0, .L146
 1868              	.LVL197:
 444:Middlewares/LVGL/GUI/lvgl/src/misc/lv_fs.c ****         }
 1869              		.loc 1 444 20 view .LVU572
 1870 002c FAE7     		b	.L136
 1871              	.L147:
 1872 002e 00BF     		.align	2
 1873              	.L146:
 1874 0030 00000000 		.word	.LC0
 1875              		.cfi_endproc
 1876              	.LFE39:
 1878              		.section	.text.lv_fs_up,"ax",%progbits
 1879              		.align	1
 1880              		.global	lv_fs_up
 1881              		.syntax unified
 1882              		.thumb
 1883              		.thumb_func
 1885              	lv_fs_up:
 1886              	.LVL198:
 1887              	.LFB40:
 452:Middlewares/LVGL/GUI/lvgl/src/misc/lv_fs.c ****     size_t len = strlen(path);
 1888              		.loc 1 452 1 is_stmt 1 view -0
 1889              		.cfi_startproc
 1890              		@ args = 0, pretend = 0, frame = 0
 1891              		@ frame_needed = 0, uses_anonymous_args = 0
 452:Middlewares/LVGL/GUI/lvgl/src/misc/lv_fs.c ****     size_t len = strlen(path);
 1892              		.loc 1 452 1 is_stmt 0 view .LVU574
 1893 0000 10B5     		push	{r4, lr}
 1894              	.LCFI35:
 1895              		.cfi_def_cfa_offset 8
 1896              		.cfi_offset 4, -8
 1897              		.cfi_offset 14, -4
 1898 0002 0446     		mov	r4, r0
 453:Middlewares/LVGL/GUI/lvgl/src/misc/lv_fs.c ****     if(len == 0) return path;
 1899              		.loc 1 453 5 is_stmt 1 view .LVU575
 453:Middlewares/LVGL/GUI/lvgl/src/misc/lv_fs.c ****     if(len == 0) return path;
 1900              		.loc 1 453 18 is_stmt 0 view .LVU576
 1901 0004 FFF7FEFF 		bl	strlen
 1902              	.LVL199:
 454:Middlewares/LVGL/GUI/lvgl/src/misc/lv_fs.c **** 
 1903              		.loc 1 454 5 is_stmt 1 view .LVU577
 454:Middlewares/LVGL/GUI/lvgl/src/misc/lv_fs.c **** 
 1904              		.loc 1 454 7 is_stmt 0 view .LVU578
 1905 0008 B0B1     		cbz	r0, .L149
 456:Middlewares/LVGL/GUI/lvgl/src/misc/lv_fs.c **** 
 1906              		.loc 1 456 5 is_stmt 1 view .LVU579
 456:Middlewares/LVGL/GUI/lvgl/src/misc/lv_fs.c **** 
 1907              		.loc 1 456 8 is_stmt 0 view .LVU580
 1908 000a 431E     		subs	r3, r0, #1
 1909              	.LVL200:
 459:Middlewares/LVGL/GUI/lvgl/src/misc/lv_fs.c ****         path[len] = '\0';
 1910              		.loc 1 459 5 is_stmt 1 view .LVU581
ARM GAS  C:\Users\ADMINI~1\AppData\Local\Temp\cciH6Em7.s 			page 53


 459:Middlewares/LVGL/GUI/lvgl/src/misc/lv_fs.c ****         path[len] = '\0';
 1911              		.loc 1 459 10 is_stmt 0 view .LVU582
 1912 000c 03E0     		b	.L150
 1913              	.L151:
 460:Middlewares/LVGL/GUI/lvgl/src/misc/lv_fs.c ****         if(len > 0)
 1914              		.loc 1 460 9 is_stmt 1 view .LVU583
 460:Middlewares/LVGL/GUI/lvgl/src/misc/lv_fs.c ****         if(len > 0)
 1915              		.loc 1 460 19 is_stmt 0 view .LVU584
 1916 000e 0022     		movs	r2, #0
 1917 0010 0A70     		strb	r2, [r1]
 461:Middlewares/LVGL/GUI/lvgl/src/misc/lv_fs.c ****             len--;
 1918              		.loc 1 461 9 is_stmt 1 view .LVU585
 461:Middlewares/LVGL/GUI/lvgl/src/misc/lv_fs.c ****             len--;
 1919              		.loc 1 461 11 is_stmt 0 view .LVU586
 1920 0012 8BB1     		cbz	r3, .L149
 462:Middlewares/LVGL/GUI/lvgl/src/misc/lv_fs.c ****         else
 1921              		.loc 1 462 13 is_stmt 1 view .LVU587
 462:Middlewares/LVGL/GUI/lvgl/src/misc/lv_fs.c ****         else
 1922              		.loc 1 462 16 is_stmt 0 view .LVU588
 1923 0014 013B     		subs	r3, r3, #1
 1924              	.LVL201:
 1925              	.L150:
 459:Middlewares/LVGL/GUI/lvgl/src/misc/lv_fs.c ****         path[len] = '\0';
 1926              		.loc 1 459 10 is_stmt 1 view .LVU589
 459:Middlewares/LVGL/GUI/lvgl/src/misc/lv_fs.c ****         path[len] = '\0';
 1927              		.loc 1 459 15 is_stmt 0 view .LVU590
 1928 0016 E118     		adds	r1, r4, r3
 1929 0018 E25C     		ldrb	r2, [r4, r3]	@ zero_extendqisi2
 459:Middlewares/LVGL/GUI/lvgl/src/misc/lv_fs.c ****         path[len] = '\0';
 1930              		.loc 1 459 10 view .LVU591
 1931 001a 2F2A     		cmp	r2, #47
 1932 001c F7D0     		beq	.L151
 459:Middlewares/LVGL/GUI/lvgl/src/misc/lv_fs.c ****         path[len] = '\0';
 1933              		.loc 1 459 28 discriminator 1 view .LVU592
 1934 001e 5C2A     		cmp	r2, #92
 1935 0020 F5D0     		beq	.L151
 1936              	.LVL202:
 1937              	.L152:
 468:Middlewares/LVGL/GUI/lvgl/src/misc/lv_fs.c ****         if(path[i] == '/' || path[i] == '\\') break;
 1938              		.loc 1 468 18 is_stmt 1 discriminator 1 view .LVU593
 468:Middlewares/LVGL/GUI/lvgl/src/misc/lv_fs.c ****         if(path[i] == '/' || path[i] == '\\') break;
 1939              		.loc 1 468 5 is_stmt 0 discriminator 1 view .LVU594
 1940 0022 33B1     		cbz	r3, .L153
 469:Middlewares/LVGL/GUI/lvgl/src/misc/lv_fs.c ****     }
 1941              		.loc 1 469 9 is_stmt 1 view .LVU595
 469:Middlewares/LVGL/GUI/lvgl/src/misc/lv_fs.c ****     }
 1942              		.loc 1 469 16 is_stmt 0 view .LVU596
 1943 0024 E25C     		ldrb	r2, [r4, r3]	@ zero_extendqisi2
 469:Middlewares/LVGL/GUI/lvgl/src/misc/lv_fs.c ****     }
 1944              		.loc 1 469 11 view .LVU597
 1945 0026 2F2A     		cmp	r2, #47
 1946 0028 03D0     		beq	.L153
 469:Middlewares/LVGL/GUI/lvgl/src/misc/lv_fs.c ****     }
 1947              		.loc 1 469 27 discriminator 1 view .LVU598
 1948 002a 5C2A     		cmp	r2, #92
 1949 002c 01D0     		beq	.L153
 468:Middlewares/LVGL/GUI/lvgl/src/misc/lv_fs.c ****         if(path[i] == '/' || path[i] == '\\') break;
ARM GAS  C:\Users\ADMINI~1\AppData\Local\Temp\cciH6Em7.s 			page 54


 1950              		.loc 1 468 25 is_stmt 1 discriminator 2 view .LVU599
 468:Middlewares/LVGL/GUI/lvgl/src/misc/lv_fs.c ****         if(path[i] == '/' || path[i] == '\\') break;
 1951              		.loc 1 468 26 is_stmt 0 discriminator 2 view .LVU600
 1952 002e 013B     		subs	r3, r3, #1
 1953              	.LVL203:
 468:Middlewares/LVGL/GUI/lvgl/src/misc/lv_fs.c ****         if(path[i] == '/' || path[i] == '\\') break;
 1954              		.loc 1 468 26 discriminator 2 view .LVU601
 1955 0030 F7E7     		b	.L152
 1956              	.L153:
 472:Middlewares/LVGL/GUI/lvgl/src/misc/lv_fs.c **** 
 1957              		.loc 1 472 5 is_stmt 1 view .LVU602
 472:Middlewares/LVGL/GUI/lvgl/src/misc/lv_fs.c **** 
 1958              		.loc 1 472 7 is_stmt 0 view .LVU603
 1959 0032 0BB1     		cbz	r3, .L149
 472:Middlewares/LVGL/GUI/lvgl/src/misc/lv_fs.c **** 
 1960              		.loc 1 472 15 is_stmt 1 discriminator 1 view .LVU604
 472:Middlewares/LVGL/GUI/lvgl/src/misc/lv_fs.c **** 
 1961              		.loc 1 472 23 is_stmt 0 discriminator 1 view .LVU605
 1962 0034 0022     		movs	r2, #0
 1963 0036 E254     		strb	r2, [r4, r3]
 1964              	.LVL204:
 1965              	.L149:
 475:Middlewares/LVGL/GUI/lvgl/src/misc/lv_fs.c **** 
 1966              		.loc 1 475 1 view .LVU606
 1967 0038 2046     		mov	r0, r4
 1968 003a 10BD     		pop	{r4, pc}
 475:Middlewares/LVGL/GUI/lvgl/src/misc/lv_fs.c **** 
 1969              		.loc 1 475 1 view .LVU607
 1970              		.cfi_endproc
 1971              	.LFE40:
 1973              		.section	.text.lv_fs_get_last,"ax",%progbits
 1974              		.align	1
 1975              		.global	lv_fs_get_last
 1976              		.syntax unified
 1977              		.thumb
 1978              		.thumb_func
 1980              	lv_fs_get_last:
 1981              	.LVL205:
 1982              	.LFB41:
 478:Middlewares/LVGL/GUI/lvgl/src/misc/lv_fs.c ****     size_t len = strlen(path);
 1983              		.loc 1 478 1 is_stmt 1 view -0
 1984              		.cfi_startproc
 1985              		@ args = 0, pretend = 0, frame = 0
 1986              		@ frame_needed = 0, uses_anonymous_args = 0
 478:Middlewares/LVGL/GUI/lvgl/src/misc/lv_fs.c ****     size_t len = strlen(path);
 1987              		.loc 1 478 1 is_stmt 0 view .LVU609
 1988 0000 10B5     		push	{r4, lr}
 1989              	.LCFI36:
 1990              		.cfi_def_cfa_offset 8
 1991              		.cfi_offset 4, -8
 1992              		.cfi_offset 14, -4
 1993 0002 0446     		mov	r4, r0
 479:Middlewares/LVGL/GUI/lvgl/src/misc/lv_fs.c ****     if(len == 0) return path;
 1994              		.loc 1 479 5 is_stmt 1 view .LVU610
 479:Middlewares/LVGL/GUI/lvgl/src/misc/lv_fs.c ****     if(len == 0) return path;
 1995              		.loc 1 479 18 is_stmt 0 view .LVU611
 1996 0004 FFF7FEFF 		bl	strlen
ARM GAS  C:\Users\ADMINI~1\AppData\Local\Temp\cciH6Em7.s 			page 55


 1997              	.LVL206:
 480:Middlewares/LVGL/GUI/lvgl/src/misc/lv_fs.c **** 
 1998              		.loc 1 480 5 is_stmt 1 view .LVU612
 480:Middlewares/LVGL/GUI/lvgl/src/misc/lv_fs.c **** 
 1999              		.loc 1 480 7 is_stmt 0 view .LVU613
 2000 0008 98B1     		cbz	r0, .L157
 482:Middlewares/LVGL/GUI/lvgl/src/misc/lv_fs.c **** 
 2001              		.loc 1 482 5 is_stmt 1 view .LVU614
 482:Middlewares/LVGL/GUI/lvgl/src/misc/lv_fs.c **** 
 2002              		.loc 1 482 8 is_stmt 0 view .LVU615
 2003 000a 431E     		subs	r3, r0, #1
 2004              	.LVL207:
 485:Middlewares/LVGL/GUI/lvgl/src/misc/lv_fs.c ****         if(len > 0)
 2005              		.loc 1 485 5 is_stmt 1 view .LVU616
 485:Middlewares/LVGL/GUI/lvgl/src/misc/lv_fs.c ****         if(len > 0)
 2006              		.loc 1 485 10 is_stmt 0 view .LVU617
 2007 000c 01E0     		b	.L158
 2008              	.L159:
 486:Middlewares/LVGL/GUI/lvgl/src/misc/lv_fs.c ****             len--;
 2009              		.loc 1 486 9 is_stmt 1 view .LVU618
 486:Middlewares/LVGL/GUI/lvgl/src/misc/lv_fs.c ****             len--;
 2010              		.loc 1 486 11 is_stmt 0 view .LVU619
 2011 000e 83B1     		cbz	r3, .L157
 487:Middlewares/LVGL/GUI/lvgl/src/misc/lv_fs.c ****         else
 2012              		.loc 1 487 13 is_stmt 1 view .LVU620
 487:Middlewares/LVGL/GUI/lvgl/src/misc/lv_fs.c ****         else
 2013              		.loc 1 487 16 is_stmt 0 view .LVU621
 2014 0010 013B     		subs	r3, r3, #1
 2015              	.LVL208:
 2016              	.L158:
 485:Middlewares/LVGL/GUI/lvgl/src/misc/lv_fs.c ****         if(len > 0)
 2017              		.loc 1 485 10 is_stmt 1 view .LVU622
 485:Middlewares/LVGL/GUI/lvgl/src/misc/lv_fs.c ****         if(len > 0)
 2018              		.loc 1 485 15 is_stmt 0 view .LVU623
 2019 0012 E25C     		ldrb	r2, [r4, r3]	@ zero_extendqisi2
 485:Middlewares/LVGL/GUI/lvgl/src/misc/lv_fs.c ****         if(len > 0)
 2020              		.loc 1 485 10 view .LVU624
 2021 0014 2F2A     		cmp	r2, #47
 2022 0016 FAD0     		beq	.L159
 485:Middlewares/LVGL/GUI/lvgl/src/misc/lv_fs.c ****         if(len > 0)
 2023              		.loc 1 485 28 discriminator 1 view .LVU625
 2024 0018 5C2A     		cmp	r2, #92
 2025 001a F8D0     		beq	.L159
 2026              	.LVL209:
 2027              	.L160:
 493:Middlewares/LVGL/GUI/lvgl/src/misc/lv_fs.c ****         if(path[i] == '/' || path[i] == '\\') break;
 2028              		.loc 1 493 18 is_stmt 1 discriminator 1 view .LVU626
 493:Middlewares/LVGL/GUI/lvgl/src/misc/lv_fs.c ****         if(path[i] == '/' || path[i] == '\\') break;
 2029              		.loc 1 493 5 is_stmt 0 discriminator 1 view .LVU627
 2030 001c 33B1     		cbz	r3, .L161
 494:Middlewares/LVGL/GUI/lvgl/src/misc/lv_fs.c ****     }
 2031              		.loc 1 494 9 is_stmt 1 view .LVU628
 494:Middlewares/LVGL/GUI/lvgl/src/misc/lv_fs.c ****     }
 2032              		.loc 1 494 16 is_stmt 0 view .LVU629
 2033 001e E25C     		ldrb	r2, [r4, r3]	@ zero_extendqisi2
 494:Middlewares/LVGL/GUI/lvgl/src/misc/lv_fs.c ****     }
 2034              		.loc 1 494 11 view .LVU630
ARM GAS  C:\Users\ADMINI~1\AppData\Local\Temp\cciH6Em7.s 			page 56


 2035 0020 2F2A     		cmp	r2, #47
 2036 0022 03D0     		beq	.L161
 494:Middlewares/LVGL/GUI/lvgl/src/misc/lv_fs.c ****     }
 2037              		.loc 1 494 27 discriminator 1 view .LVU631
 2038 0024 5C2A     		cmp	r2, #92
 2039 0026 01D0     		beq	.L161
 493:Middlewares/LVGL/GUI/lvgl/src/misc/lv_fs.c ****         if(path[i] == '/' || path[i] == '\\') break;
 2040              		.loc 1 493 25 is_stmt 1 discriminator 2 view .LVU632
 493:Middlewares/LVGL/GUI/lvgl/src/misc/lv_fs.c ****         if(path[i] == '/' || path[i] == '\\') break;
 2041              		.loc 1 493 26 is_stmt 0 discriminator 2 view .LVU633
 2042 0028 013B     		subs	r3, r3, #1
 2043              	.LVL210:
 493:Middlewares/LVGL/GUI/lvgl/src/misc/lv_fs.c ****         if(path[i] == '/' || path[i] == '\\') break;
 2044              		.loc 1 493 26 discriminator 2 view .LVU634
 2045 002a F7E7     		b	.L160
 2046              	.L161:
 498:Middlewares/LVGL/GUI/lvgl/src/misc/lv_fs.c **** 
 2047              		.loc 1 498 5 is_stmt 1 view .LVU635
 498:Middlewares/LVGL/GUI/lvgl/src/misc/lv_fs.c **** 
 2048              		.loc 1 498 7 is_stmt 0 view .LVU636
 2049 002c 0BB1     		cbz	r3, .L157
 500:Middlewares/LVGL/GUI/lvgl/src/misc/lv_fs.c **** }
 2050              		.loc 1 500 5 is_stmt 1 view .LVU637
 500:Middlewares/LVGL/GUI/lvgl/src/misc/lv_fs.c **** }
 2051              		.loc 1 500 17 is_stmt 0 view .LVU638
 2052 002e 0133     		adds	r3, r3, #1
 2053              	.LVL211:
 500:Middlewares/LVGL/GUI/lvgl/src/misc/lv_fs.c **** }
 2054              		.loc 1 500 12 view .LVU639
 2055 0030 1C44     		add	r4, r4, r3
 2056              	.LVL212:
 2057              	.L157:
 501:Middlewares/LVGL/GUI/lvgl/src/misc/lv_fs.c **** /**********************
 2058              		.loc 1 501 1 view .LVU640
 2059 0032 2046     		mov	r0, r4
 2060 0034 10BD     		pop	{r4, pc}
 2061              		.cfi_endproc
 2062              	.LFE41:
 2064              		.text
 2065              	.Letext0:
 2066              		.file 2 "c:\\gnu arm embedded toolchain\\10 2021.10\\arm-none-eabi\\include\\machine\\_default_typ
 2067              		.file 3 "c:\\gnu arm embedded toolchain\\10 2021.10\\arm-none-eabi\\include\\sys\\_stdint.h"
 2068              		.file 4 "Middlewares/LVGL/GUI/lvgl/src/misc/lv_fs.h"
 2069              		.file 5 "c:\\gnu arm embedded toolchain\\10 2021.10\\lib\\gcc\\arm-none-eabi\\10.3.1\\include\\std
 2070              		.file 6 "Middlewares/LVGL/GUI/lvgl/src/misc/lv_ll.h"
 2071              		.file 7 "Middlewares/LVGL/GUI/lvgl/src/misc/lv_gc.h"
 2072              		.file 8 "c:\\gnu arm embedded toolchain\\10 2021.10\\arm-none-eabi\\include\\string.h"
 2073              		.file 9 "Middlewares/LVGL/GUI/lvgl/src/misc/../misc/lv_mem.h"
 2074              		.file 10 "<built-in>"
ARM GAS  C:\Users\ADMINI~1\AppData\Local\Temp\cciH6Em7.s 			page 57

