ARM GAS  C:\Users\ADMINI~1\AppData\Local\Temp\ccyi9XNv.s 			page 1


   1              		.cpu cortex-m4
   2              		.arch armv7e-m
   3              		.fpu fpv4-sp-d16
   4              		.eabi_attribute 27, 1
   5              		.eabi_attribute 28, 1
   6              		.eabi_attribute 20, 1
   7              		.eabi_attribute 21, 1
   8              		.eabi_attribute 23, 3
   9              		.eabi_attribute 24, 1
  10              		.eabi_attribute 25, 1
  11              		.eabi_attribute 26, 1
  12              		.eabi_attribute 30, 1
  13              		.eabi_attribute 34, 1
  14              		.eabi_attribute 18, 4
  15              		.file	"lv_flex.c"
  16              		.text
  17              	.Ltext0:
  18              		.cfi_sections	.debug_frame
  19              		.section	.text.lv_area_get_width,"ax",%progbits
  20              		.align	1
  21              		.syntax unified
  22              		.thumb
  23              		.thumb_func
  25              	lv_area_get_width:
  26              	.LVL0:
  27              	.LFB1:
  28              		.file 1 "Middlewares/LVGL/GUI/lvgl/src/extra/layouts/flex/../flex/../../../core/../misc/../font/..
   1:Middlewares/LVGL/GUI/lvgl/src/extra/layouts/flex/../flex/../../../core/../misc/../font/../misc/lv_area.h **** /**
   2:Middlewares/LVGL/GUI/lvgl/src/extra/layouts/flex/../flex/../../../core/../misc/../font/../misc/lv_area.h ****  * @file lv_area.h
   3:Middlewares/LVGL/GUI/lvgl/src/extra/layouts/flex/../flex/../../../core/../misc/../font/../misc/lv_area.h ****  *
   4:Middlewares/LVGL/GUI/lvgl/src/extra/layouts/flex/../flex/../../../core/../misc/../font/../misc/lv_area.h ****  */
   5:Middlewares/LVGL/GUI/lvgl/src/extra/layouts/flex/../flex/../../../core/../misc/../font/../misc/lv_area.h **** 
   6:Middlewares/LVGL/GUI/lvgl/src/extra/layouts/flex/../flex/../../../core/../misc/../font/../misc/lv_area.h **** #ifndef LV_AREA_H
   7:Middlewares/LVGL/GUI/lvgl/src/extra/layouts/flex/../flex/../../../core/../misc/../font/../misc/lv_area.h **** #define LV_AREA_H
   8:Middlewares/LVGL/GUI/lvgl/src/extra/layouts/flex/../flex/../../../core/../misc/../font/../misc/lv_area.h **** 
   9:Middlewares/LVGL/GUI/lvgl/src/extra/layouts/flex/../flex/../../../core/../misc/../font/../misc/lv_area.h **** #ifdef __cplusplus
  10:Middlewares/LVGL/GUI/lvgl/src/extra/layouts/flex/../flex/../../../core/../misc/../font/../misc/lv_area.h **** extern "C" {
  11:Middlewares/LVGL/GUI/lvgl/src/extra/layouts/flex/../flex/../../../core/../misc/../font/../misc/lv_area.h **** #endif
  12:Middlewares/LVGL/GUI/lvgl/src/extra/layouts/flex/../flex/../../../core/../misc/../font/../misc/lv_area.h **** 
  13:Middlewares/LVGL/GUI/lvgl/src/extra/layouts/flex/../flex/../../../core/../misc/../font/../misc/lv_area.h **** /*********************
  14:Middlewares/LVGL/GUI/lvgl/src/extra/layouts/flex/../flex/../../../core/../misc/../font/../misc/lv_area.h ****  *      INCLUDES
  15:Middlewares/LVGL/GUI/lvgl/src/extra/layouts/flex/../flex/../../../core/../misc/../font/../misc/lv_area.h ****  *********************/
  16:Middlewares/LVGL/GUI/lvgl/src/extra/layouts/flex/../flex/../../../core/../misc/../font/../misc/lv_area.h **** #include "../lv_conf_internal.h"
  17:Middlewares/LVGL/GUI/lvgl/src/extra/layouts/flex/../flex/../../../core/../misc/../font/../misc/lv_area.h **** #include <stdbool.h>
  18:Middlewares/LVGL/GUI/lvgl/src/extra/layouts/flex/../flex/../../../core/../misc/../font/../misc/lv_area.h **** #include <stdint.h>
  19:Middlewares/LVGL/GUI/lvgl/src/extra/layouts/flex/../flex/../../../core/../misc/../font/../misc/lv_area.h **** 
  20:Middlewares/LVGL/GUI/lvgl/src/extra/layouts/flex/../flex/../../../core/../misc/../font/../misc/lv_area.h **** /*********************
  21:Middlewares/LVGL/GUI/lvgl/src/extra/layouts/flex/../flex/../../../core/../misc/../font/../misc/lv_area.h ****  *      DEFINES
  22:Middlewares/LVGL/GUI/lvgl/src/extra/layouts/flex/../flex/../../../core/../misc/../font/../misc/lv_area.h ****  *********************/
  23:Middlewares/LVGL/GUI/lvgl/src/extra/layouts/flex/../flex/../../../core/../misc/../font/../misc/lv_area.h **** 
  24:Middlewares/LVGL/GUI/lvgl/src/extra/layouts/flex/../flex/../../../core/../misc/../font/../misc/lv_area.h **** #if LV_USE_LARGE_COORD
  25:Middlewares/LVGL/GUI/lvgl/src/extra/layouts/flex/../flex/../../../core/../misc/../font/../misc/lv_area.h **** typedef int32_t lv_coord_t;
  26:Middlewares/LVGL/GUI/lvgl/src/extra/layouts/flex/../flex/../../../core/../misc/../font/../misc/lv_area.h **** #else
  27:Middlewares/LVGL/GUI/lvgl/src/extra/layouts/flex/../flex/../../../core/../misc/../font/../misc/lv_area.h **** typedef int16_t lv_coord_t;
  28:Middlewares/LVGL/GUI/lvgl/src/extra/layouts/flex/../flex/../../../core/../misc/../font/../misc/lv_area.h **** #endif
  29:Middlewares/LVGL/GUI/lvgl/src/extra/layouts/flex/../flex/../../../core/../misc/../font/../misc/lv_area.h **** 
  30:Middlewares/LVGL/GUI/lvgl/src/extra/layouts/flex/../flex/../../../core/../misc/../font/../misc/lv_area.h **** /**********************
ARM GAS  C:\Users\ADMINI~1\AppData\Local\Temp\ccyi9XNv.s 			page 2


  31:Middlewares/LVGL/GUI/lvgl/src/extra/layouts/flex/../flex/../../../core/../misc/../font/../misc/lv_area.h ****  *      TYPEDEFS
  32:Middlewares/LVGL/GUI/lvgl/src/extra/layouts/flex/../flex/../../../core/../misc/../font/../misc/lv_area.h ****  **********************/
  33:Middlewares/LVGL/GUI/lvgl/src/extra/layouts/flex/../flex/../../../core/../misc/../font/../misc/lv_area.h **** 
  34:Middlewares/LVGL/GUI/lvgl/src/extra/layouts/flex/../flex/../../../core/../misc/../font/../misc/lv_area.h **** /**
  35:Middlewares/LVGL/GUI/lvgl/src/extra/layouts/flex/../flex/../../../core/../misc/../font/../misc/lv_area.h ****  * Represents a point on the screen.
  36:Middlewares/LVGL/GUI/lvgl/src/extra/layouts/flex/../flex/../../../core/../misc/../font/../misc/lv_area.h ****  */
  37:Middlewares/LVGL/GUI/lvgl/src/extra/layouts/flex/../flex/../../../core/../misc/../font/../misc/lv_area.h **** typedef struct {
  38:Middlewares/LVGL/GUI/lvgl/src/extra/layouts/flex/../flex/../../../core/../misc/../font/../misc/lv_area.h ****     lv_coord_t x;
  39:Middlewares/LVGL/GUI/lvgl/src/extra/layouts/flex/../flex/../../../core/../misc/../font/../misc/lv_area.h ****     lv_coord_t y;
  40:Middlewares/LVGL/GUI/lvgl/src/extra/layouts/flex/../flex/../../../core/../misc/../font/../misc/lv_area.h **** } lv_point_t;
  41:Middlewares/LVGL/GUI/lvgl/src/extra/layouts/flex/../flex/../../../core/../misc/../font/../misc/lv_area.h **** 
  42:Middlewares/LVGL/GUI/lvgl/src/extra/layouts/flex/../flex/../../../core/../misc/../font/../misc/lv_area.h **** /** Represents an area of the screen.*/
  43:Middlewares/LVGL/GUI/lvgl/src/extra/layouts/flex/../flex/../../../core/../misc/../font/../misc/lv_area.h **** typedef struct {
  44:Middlewares/LVGL/GUI/lvgl/src/extra/layouts/flex/../flex/../../../core/../misc/../font/../misc/lv_area.h ****     lv_coord_t x1;
  45:Middlewares/LVGL/GUI/lvgl/src/extra/layouts/flex/../flex/../../../core/../misc/../font/../misc/lv_area.h ****     lv_coord_t y1;
  46:Middlewares/LVGL/GUI/lvgl/src/extra/layouts/flex/../flex/../../../core/../misc/../font/../misc/lv_area.h ****     lv_coord_t x2;
  47:Middlewares/LVGL/GUI/lvgl/src/extra/layouts/flex/../flex/../../../core/../misc/../font/../misc/lv_area.h ****     lv_coord_t y2;
  48:Middlewares/LVGL/GUI/lvgl/src/extra/layouts/flex/../flex/../../../core/../misc/../font/../misc/lv_area.h **** } lv_area_t;
  49:Middlewares/LVGL/GUI/lvgl/src/extra/layouts/flex/../flex/../../../core/../misc/../font/../misc/lv_area.h **** 
  50:Middlewares/LVGL/GUI/lvgl/src/extra/layouts/flex/../flex/../../../core/../misc/../font/../misc/lv_area.h **** /** Alignments*/
  51:Middlewares/LVGL/GUI/lvgl/src/extra/layouts/flex/../flex/../../../core/../misc/../font/../misc/lv_area.h **** enum {
  52:Middlewares/LVGL/GUI/lvgl/src/extra/layouts/flex/../flex/../../../core/../misc/../font/../misc/lv_area.h ****     LV_ALIGN_DEFAULT = 0,
  53:Middlewares/LVGL/GUI/lvgl/src/extra/layouts/flex/../flex/../../../core/../misc/../font/../misc/lv_area.h ****     LV_ALIGN_TOP_LEFT,
  54:Middlewares/LVGL/GUI/lvgl/src/extra/layouts/flex/../flex/../../../core/../misc/../font/../misc/lv_area.h ****     LV_ALIGN_TOP_MID,
  55:Middlewares/LVGL/GUI/lvgl/src/extra/layouts/flex/../flex/../../../core/../misc/../font/../misc/lv_area.h ****     LV_ALIGN_TOP_RIGHT,
  56:Middlewares/LVGL/GUI/lvgl/src/extra/layouts/flex/../flex/../../../core/../misc/../font/../misc/lv_area.h ****     LV_ALIGN_BOTTOM_LEFT,
  57:Middlewares/LVGL/GUI/lvgl/src/extra/layouts/flex/../flex/../../../core/../misc/../font/../misc/lv_area.h ****     LV_ALIGN_BOTTOM_MID,
  58:Middlewares/LVGL/GUI/lvgl/src/extra/layouts/flex/../flex/../../../core/../misc/../font/../misc/lv_area.h ****     LV_ALIGN_BOTTOM_RIGHT,
  59:Middlewares/LVGL/GUI/lvgl/src/extra/layouts/flex/../flex/../../../core/../misc/../font/../misc/lv_area.h ****     LV_ALIGN_LEFT_MID,
  60:Middlewares/LVGL/GUI/lvgl/src/extra/layouts/flex/../flex/../../../core/../misc/../font/../misc/lv_area.h ****     LV_ALIGN_RIGHT_MID,
  61:Middlewares/LVGL/GUI/lvgl/src/extra/layouts/flex/../flex/../../../core/../misc/../font/../misc/lv_area.h ****     LV_ALIGN_CENTER,
  62:Middlewares/LVGL/GUI/lvgl/src/extra/layouts/flex/../flex/../../../core/../misc/../font/../misc/lv_area.h **** 
  63:Middlewares/LVGL/GUI/lvgl/src/extra/layouts/flex/../flex/../../../core/../misc/../font/../misc/lv_area.h ****     LV_ALIGN_OUT_TOP_LEFT,
  64:Middlewares/LVGL/GUI/lvgl/src/extra/layouts/flex/../flex/../../../core/../misc/../font/../misc/lv_area.h ****     LV_ALIGN_OUT_TOP_MID,
  65:Middlewares/LVGL/GUI/lvgl/src/extra/layouts/flex/../flex/../../../core/../misc/../font/../misc/lv_area.h ****     LV_ALIGN_OUT_TOP_RIGHT,
  66:Middlewares/LVGL/GUI/lvgl/src/extra/layouts/flex/../flex/../../../core/../misc/../font/../misc/lv_area.h ****     LV_ALIGN_OUT_BOTTOM_LEFT,
  67:Middlewares/LVGL/GUI/lvgl/src/extra/layouts/flex/../flex/../../../core/../misc/../font/../misc/lv_area.h ****     LV_ALIGN_OUT_BOTTOM_MID,
  68:Middlewares/LVGL/GUI/lvgl/src/extra/layouts/flex/../flex/../../../core/../misc/../font/../misc/lv_area.h ****     LV_ALIGN_OUT_BOTTOM_RIGHT,
  69:Middlewares/LVGL/GUI/lvgl/src/extra/layouts/flex/../flex/../../../core/../misc/../font/../misc/lv_area.h ****     LV_ALIGN_OUT_LEFT_TOP,
  70:Middlewares/LVGL/GUI/lvgl/src/extra/layouts/flex/../flex/../../../core/../misc/../font/../misc/lv_area.h ****     LV_ALIGN_OUT_LEFT_MID,
  71:Middlewares/LVGL/GUI/lvgl/src/extra/layouts/flex/../flex/../../../core/../misc/../font/../misc/lv_area.h ****     LV_ALIGN_OUT_LEFT_BOTTOM,
  72:Middlewares/LVGL/GUI/lvgl/src/extra/layouts/flex/../flex/../../../core/../misc/../font/../misc/lv_area.h ****     LV_ALIGN_OUT_RIGHT_TOP,
  73:Middlewares/LVGL/GUI/lvgl/src/extra/layouts/flex/../flex/../../../core/../misc/../font/../misc/lv_area.h ****     LV_ALIGN_OUT_RIGHT_MID,
  74:Middlewares/LVGL/GUI/lvgl/src/extra/layouts/flex/../flex/../../../core/../misc/../font/../misc/lv_area.h ****     LV_ALIGN_OUT_RIGHT_BOTTOM,
  75:Middlewares/LVGL/GUI/lvgl/src/extra/layouts/flex/../flex/../../../core/../misc/../font/../misc/lv_area.h **** };
  76:Middlewares/LVGL/GUI/lvgl/src/extra/layouts/flex/../flex/../../../core/../misc/../font/../misc/lv_area.h **** typedef uint8_t lv_align_t;
  77:Middlewares/LVGL/GUI/lvgl/src/extra/layouts/flex/../flex/../../../core/../misc/../font/../misc/lv_area.h **** 
  78:Middlewares/LVGL/GUI/lvgl/src/extra/layouts/flex/../flex/../../../core/../misc/../font/../misc/lv_area.h **** enum {
  79:Middlewares/LVGL/GUI/lvgl/src/extra/layouts/flex/../flex/../../../core/../misc/../font/../misc/lv_area.h ****     LV_DIR_NONE     = 0x00,
  80:Middlewares/LVGL/GUI/lvgl/src/extra/layouts/flex/../flex/../../../core/../misc/../font/../misc/lv_area.h ****     LV_DIR_LEFT     = (1 << 0),
  81:Middlewares/LVGL/GUI/lvgl/src/extra/layouts/flex/../flex/../../../core/../misc/../font/../misc/lv_area.h ****     LV_DIR_RIGHT    = (1 << 1),
  82:Middlewares/LVGL/GUI/lvgl/src/extra/layouts/flex/../flex/../../../core/../misc/../font/../misc/lv_area.h ****     LV_DIR_TOP      = (1 << 2),
  83:Middlewares/LVGL/GUI/lvgl/src/extra/layouts/flex/../flex/../../../core/../misc/../font/../misc/lv_area.h ****     LV_DIR_BOTTOM   = (1 << 3),
  84:Middlewares/LVGL/GUI/lvgl/src/extra/layouts/flex/../flex/../../../core/../misc/../font/../misc/lv_area.h ****     LV_DIR_HOR      = LV_DIR_LEFT | LV_DIR_RIGHT,
  85:Middlewares/LVGL/GUI/lvgl/src/extra/layouts/flex/../flex/../../../core/../misc/../font/../misc/lv_area.h ****     LV_DIR_VER      = LV_DIR_TOP | LV_DIR_BOTTOM,
  86:Middlewares/LVGL/GUI/lvgl/src/extra/layouts/flex/../flex/../../../core/../misc/../font/../misc/lv_area.h ****     LV_DIR_ALL      = LV_DIR_HOR | LV_DIR_VER,
  87:Middlewares/LVGL/GUI/lvgl/src/extra/layouts/flex/../flex/../../../core/../misc/../font/../misc/lv_area.h **** };
ARM GAS  C:\Users\ADMINI~1\AppData\Local\Temp\ccyi9XNv.s 			page 3


  88:Middlewares/LVGL/GUI/lvgl/src/extra/layouts/flex/../flex/../../../core/../misc/../font/../misc/lv_area.h **** 
  89:Middlewares/LVGL/GUI/lvgl/src/extra/layouts/flex/../flex/../../../core/../misc/../font/../misc/lv_area.h **** typedef uint8_t lv_dir_t;
  90:Middlewares/LVGL/GUI/lvgl/src/extra/layouts/flex/../flex/../../../core/../misc/../font/../misc/lv_area.h **** 
  91:Middlewares/LVGL/GUI/lvgl/src/extra/layouts/flex/../flex/../../../core/../misc/../font/../misc/lv_area.h **** /**********************
  92:Middlewares/LVGL/GUI/lvgl/src/extra/layouts/flex/../flex/../../../core/../misc/../font/../misc/lv_area.h ****  * GLOBAL PROTOTYPES
  93:Middlewares/LVGL/GUI/lvgl/src/extra/layouts/flex/../flex/../../../core/../misc/../font/../misc/lv_area.h ****  **********************/
  94:Middlewares/LVGL/GUI/lvgl/src/extra/layouts/flex/../flex/../../../core/../misc/../font/../misc/lv_area.h **** 
  95:Middlewares/LVGL/GUI/lvgl/src/extra/layouts/flex/../flex/../../../core/../misc/../font/../misc/lv_area.h **** /**
  96:Middlewares/LVGL/GUI/lvgl/src/extra/layouts/flex/../flex/../../../core/../misc/../font/../misc/lv_area.h ****  * Initialize an area
  97:Middlewares/LVGL/GUI/lvgl/src/extra/layouts/flex/../flex/../../../core/../misc/../font/../misc/lv_area.h ****  * @param area_p pointer to an area
  98:Middlewares/LVGL/GUI/lvgl/src/extra/layouts/flex/../flex/../../../core/../misc/../font/../misc/lv_area.h ****  * @param x1 left coordinate of the area
  99:Middlewares/LVGL/GUI/lvgl/src/extra/layouts/flex/../flex/../../../core/../misc/../font/../misc/lv_area.h ****  * @param y1 top coordinate of the area
 100:Middlewares/LVGL/GUI/lvgl/src/extra/layouts/flex/../flex/../../../core/../misc/../font/../misc/lv_area.h ****  * @param x2 right coordinate of the area
 101:Middlewares/LVGL/GUI/lvgl/src/extra/layouts/flex/../flex/../../../core/../misc/../font/../misc/lv_area.h ****  * @param y2 bottom coordinate of the area
 102:Middlewares/LVGL/GUI/lvgl/src/extra/layouts/flex/../flex/../../../core/../misc/../font/../misc/lv_area.h ****  */
 103:Middlewares/LVGL/GUI/lvgl/src/extra/layouts/flex/../flex/../../../core/../misc/../font/../misc/lv_area.h **** void lv_area_set(lv_area_t * area_p, lv_coord_t x1, lv_coord_t y1, lv_coord_t x2, lv_coord_t y2);
 104:Middlewares/LVGL/GUI/lvgl/src/extra/layouts/flex/../flex/../../../core/../misc/../font/../misc/lv_area.h **** 
 105:Middlewares/LVGL/GUI/lvgl/src/extra/layouts/flex/../flex/../../../core/../misc/../font/../misc/lv_area.h **** /**
 106:Middlewares/LVGL/GUI/lvgl/src/extra/layouts/flex/../flex/../../../core/../misc/../font/../misc/lv_area.h ****  * Copy an area
 107:Middlewares/LVGL/GUI/lvgl/src/extra/layouts/flex/../flex/../../../core/../misc/../font/../misc/lv_area.h ****  * @param dest pointer to the destination area
 108:Middlewares/LVGL/GUI/lvgl/src/extra/layouts/flex/../flex/../../../core/../misc/../font/../misc/lv_area.h ****  * @param src pointer to the source area
 109:Middlewares/LVGL/GUI/lvgl/src/extra/layouts/flex/../flex/../../../core/../misc/../font/../misc/lv_area.h ****  */
 110:Middlewares/LVGL/GUI/lvgl/src/extra/layouts/flex/../flex/../../../core/../misc/../font/../misc/lv_area.h **** inline static void lv_area_copy(lv_area_t * dest, const lv_area_t * src)
 111:Middlewares/LVGL/GUI/lvgl/src/extra/layouts/flex/../flex/../../../core/../misc/../font/../misc/lv_area.h **** {
 112:Middlewares/LVGL/GUI/lvgl/src/extra/layouts/flex/../flex/../../../core/../misc/../font/../misc/lv_area.h ****     dest->x1 = src->x1;
 113:Middlewares/LVGL/GUI/lvgl/src/extra/layouts/flex/../flex/../../../core/../misc/../font/../misc/lv_area.h ****     dest->y1 = src->y1;
 114:Middlewares/LVGL/GUI/lvgl/src/extra/layouts/flex/../flex/../../../core/../misc/../font/../misc/lv_area.h ****     dest->x2 = src->x2;
 115:Middlewares/LVGL/GUI/lvgl/src/extra/layouts/flex/../flex/../../../core/../misc/../font/../misc/lv_area.h ****     dest->y2 = src->y2;
 116:Middlewares/LVGL/GUI/lvgl/src/extra/layouts/flex/../flex/../../../core/../misc/../font/../misc/lv_area.h **** }
 117:Middlewares/LVGL/GUI/lvgl/src/extra/layouts/flex/../flex/../../../core/../misc/../font/../misc/lv_area.h **** 
 118:Middlewares/LVGL/GUI/lvgl/src/extra/layouts/flex/../flex/../../../core/../misc/../font/../misc/lv_area.h **** /**
 119:Middlewares/LVGL/GUI/lvgl/src/extra/layouts/flex/../flex/../../../core/../misc/../font/../misc/lv_area.h ****  * Get the width of an area
 120:Middlewares/LVGL/GUI/lvgl/src/extra/layouts/flex/../flex/../../../core/../misc/../font/../misc/lv_area.h ****  * @param area_p pointer to an area
 121:Middlewares/LVGL/GUI/lvgl/src/extra/layouts/flex/../flex/../../../core/../misc/../font/../misc/lv_area.h ****  * @return the width of the area (if x1 == x2 -> width = 1)
 122:Middlewares/LVGL/GUI/lvgl/src/extra/layouts/flex/../flex/../../../core/../misc/../font/../misc/lv_area.h ****  */
 123:Middlewares/LVGL/GUI/lvgl/src/extra/layouts/flex/../flex/../../../core/../misc/../font/../misc/lv_area.h **** static inline lv_coord_t lv_area_get_width(const lv_area_t * area_p)
 124:Middlewares/LVGL/GUI/lvgl/src/extra/layouts/flex/../flex/../../../core/../misc/../font/../misc/lv_area.h **** {
  29              		.loc 1 124 1 view -0
  30              		.cfi_startproc
  31              		@ args = 0, pretend = 0, frame = 0
  32              		@ frame_needed = 0, uses_anonymous_args = 0
  33              		@ link register save eliminated.
 125:Middlewares/LVGL/GUI/lvgl/src/extra/layouts/flex/../flex/../../../core/../misc/../font/../misc/lv_area.h ****     return (lv_coord_t)(area_p->x2 - area_p->x1 + 1);
  34              		.loc 1 125 5 view .LVU1
  35              		.loc 1 125 31 is_stmt 0 view .LVU2
  36 0000 8368     		ldr	r3, [r0, #8]
  37              		.loc 1 125 44 view .LVU3
  38 0002 0068     		ldr	r0, [r0]
  39              	.LVL1:
  40              		.loc 1 125 36 view .LVU4
  41 0004 181A     		subs	r0, r3, r0
 126:Middlewares/LVGL/GUI/lvgl/src/extra/layouts/flex/../flex/../../../core/../misc/../font/../misc/lv_area.h **** }
  42              		.loc 1 126 1 view .LVU5
  43 0006 0130     		adds	r0, r0, #1
  44 0008 7047     		bx	lr
  45              		.cfi_endproc
  46              	.LFE1:
ARM GAS  C:\Users\ADMINI~1\AppData\Local\Temp\ccyi9XNv.s 			page 4


  48              		.section	.text.lv_area_get_height,"ax",%progbits
  49              		.align	1
  50              		.syntax unified
  51              		.thumb
  52              		.thumb_func
  54              	lv_area_get_height:
  55              	.LVL2:
  56              	.LFB2:
 127:Middlewares/LVGL/GUI/lvgl/src/extra/layouts/flex/../flex/../../../core/../misc/../font/../misc/lv_area.h **** 
 128:Middlewares/LVGL/GUI/lvgl/src/extra/layouts/flex/../flex/../../../core/../misc/../font/../misc/lv_area.h **** /**
 129:Middlewares/LVGL/GUI/lvgl/src/extra/layouts/flex/../flex/../../../core/../misc/../font/../misc/lv_area.h ****  * Get the height of an area
 130:Middlewares/LVGL/GUI/lvgl/src/extra/layouts/flex/../flex/../../../core/../misc/../font/../misc/lv_area.h ****  * @param area_p pointer to an area
 131:Middlewares/LVGL/GUI/lvgl/src/extra/layouts/flex/../flex/../../../core/../misc/../font/../misc/lv_area.h ****  * @return the height of the area (if y1 == y2 -> height = 1)
 132:Middlewares/LVGL/GUI/lvgl/src/extra/layouts/flex/../flex/../../../core/../misc/../font/../misc/lv_area.h ****  */
 133:Middlewares/LVGL/GUI/lvgl/src/extra/layouts/flex/../flex/../../../core/../misc/../font/../misc/lv_area.h **** static inline lv_coord_t lv_area_get_height(const lv_area_t * area_p)
 134:Middlewares/LVGL/GUI/lvgl/src/extra/layouts/flex/../flex/../../../core/../misc/../font/../misc/lv_area.h **** {
  57              		.loc 1 134 1 is_stmt 1 view -0
  58              		.cfi_startproc
  59              		@ args = 0, pretend = 0, frame = 0
  60              		@ frame_needed = 0, uses_anonymous_args = 0
  61              		@ link register save eliminated.
 135:Middlewares/LVGL/GUI/lvgl/src/extra/layouts/flex/../flex/../../../core/../misc/../font/../misc/lv_area.h ****     return (lv_coord_t)(area_p->y2 - area_p->y1 + 1);
  62              		.loc 1 135 5 view .LVU7
  63              		.loc 1 135 31 is_stmt 0 view .LVU8
  64 0000 C368     		ldr	r3, [r0, #12]
  65              		.loc 1 135 44 view .LVU9
  66 0002 4068     		ldr	r0, [r0, #4]
  67              	.LVL3:
  68              		.loc 1 135 36 view .LVU10
  69 0004 181A     		subs	r0, r3, r0
 136:Middlewares/LVGL/GUI/lvgl/src/extra/layouts/flex/../flex/../../../core/../misc/../font/../misc/lv_area.h **** }
  70              		.loc 1 136 1 view .LVU11
  71 0006 0130     		adds	r0, r0, #1
  72 0008 7047     		bx	lr
  73              		.cfi_endproc
  74              	.LFE2:
  76              		.section	.text.place_content,"ax",%progbits
  77              		.align	1
  78              		.syntax unified
  79              		.thumb
  80              		.thumb_func
  82              	place_content:
  83              	.LVL4:
  84              	.LFB186:
  85              		.file 2 "Middlewares/LVGL/GUI/lvgl/src/extra/layouts/flex/lv_flex.c"
   1:Middlewares/LVGL/GUI/lvgl/src/extra/layouts/flex/lv_flex.c **** /**
   2:Middlewares/LVGL/GUI/lvgl/src/extra/layouts/flex/lv_flex.c ****  * @file lv_flex.c
   3:Middlewares/LVGL/GUI/lvgl/src/extra/layouts/flex/lv_flex.c ****  *
   4:Middlewares/LVGL/GUI/lvgl/src/extra/layouts/flex/lv_flex.c ****  */
   5:Middlewares/LVGL/GUI/lvgl/src/extra/layouts/flex/lv_flex.c **** 
   6:Middlewares/LVGL/GUI/lvgl/src/extra/layouts/flex/lv_flex.c **** /*********************
   7:Middlewares/LVGL/GUI/lvgl/src/extra/layouts/flex/lv_flex.c ****  *      INCLUDES
   8:Middlewares/LVGL/GUI/lvgl/src/extra/layouts/flex/lv_flex.c ****  *********************/
   9:Middlewares/LVGL/GUI/lvgl/src/extra/layouts/flex/lv_flex.c **** #include "../lv_layouts.h"
  10:Middlewares/LVGL/GUI/lvgl/src/extra/layouts/flex/lv_flex.c **** 
  11:Middlewares/LVGL/GUI/lvgl/src/extra/layouts/flex/lv_flex.c **** #if LV_USE_FLEX
  12:Middlewares/LVGL/GUI/lvgl/src/extra/layouts/flex/lv_flex.c **** 
ARM GAS  C:\Users\ADMINI~1\AppData\Local\Temp\ccyi9XNv.s 			page 5


  13:Middlewares/LVGL/GUI/lvgl/src/extra/layouts/flex/lv_flex.c **** /*********************
  14:Middlewares/LVGL/GUI/lvgl/src/extra/layouts/flex/lv_flex.c ****  *      DEFINES
  15:Middlewares/LVGL/GUI/lvgl/src/extra/layouts/flex/lv_flex.c ****  *********************/
  16:Middlewares/LVGL/GUI/lvgl/src/extra/layouts/flex/lv_flex.c **** 
  17:Middlewares/LVGL/GUI/lvgl/src/extra/layouts/flex/lv_flex.c **** /**********************
  18:Middlewares/LVGL/GUI/lvgl/src/extra/layouts/flex/lv_flex.c ****  *      TYPEDEFS
  19:Middlewares/LVGL/GUI/lvgl/src/extra/layouts/flex/lv_flex.c ****  **********************/
  20:Middlewares/LVGL/GUI/lvgl/src/extra/layouts/flex/lv_flex.c **** typedef struct {
  21:Middlewares/LVGL/GUI/lvgl/src/extra/layouts/flex/lv_flex.c ****     lv_flex_align_t main_place;
  22:Middlewares/LVGL/GUI/lvgl/src/extra/layouts/flex/lv_flex.c ****     lv_flex_align_t cross_place;
  23:Middlewares/LVGL/GUI/lvgl/src/extra/layouts/flex/lv_flex.c ****     lv_flex_align_t track_place;
  24:Middlewares/LVGL/GUI/lvgl/src/extra/layouts/flex/lv_flex.c ****     uint8_t row : 1;
  25:Middlewares/LVGL/GUI/lvgl/src/extra/layouts/flex/lv_flex.c ****     uint8_t wrap : 1;
  26:Middlewares/LVGL/GUI/lvgl/src/extra/layouts/flex/lv_flex.c ****     uint8_t rev : 1;
  27:Middlewares/LVGL/GUI/lvgl/src/extra/layouts/flex/lv_flex.c **** } flex_t;
  28:Middlewares/LVGL/GUI/lvgl/src/extra/layouts/flex/lv_flex.c **** 
  29:Middlewares/LVGL/GUI/lvgl/src/extra/layouts/flex/lv_flex.c **** typedef struct {
  30:Middlewares/LVGL/GUI/lvgl/src/extra/layouts/flex/lv_flex.c ****     lv_obj_t * item;
  31:Middlewares/LVGL/GUI/lvgl/src/extra/layouts/flex/lv_flex.c ****     lv_coord_t min_size;
  32:Middlewares/LVGL/GUI/lvgl/src/extra/layouts/flex/lv_flex.c ****     lv_coord_t max_size;
  33:Middlewares/LVGL/GUI/lvgl/src/extra/layouts/flex/lv_flex.c ****     lv_coord_t final_size;
  34:Middlewares/LVGL/GUI/lvgl/src/extra/layouts/flex/lv_flex.c ****     uint32_t grow_value;
  35:Middlewares/LVGL/GUI/lvgl/src/extra/layouts/flex/lv_flex.c ****     uint32_t clamped : 1;
  36:Middlewares/LVGL/GUI/lvgl/src/extra/layouts/flex/lv_flex.c **** } grow_dsc_t;
  37:Middlewares/LVGL/GUI/lvgl/src/extra/layouts/flex/lv_flex.c **** 
  38:Middlewares/LVGL/GUI/lvgl/src/extra/layouts/flex/lv_flex.c **** typedef struct {
  39:Middlewares/LVGL/GUI/lvgl/src/extra/layouts/flex/lv_flex.c ****     lv_coord_t track_cross_size;
  40:Middlewares/LVGL/GUI/lvgl/src/extra/layouts/flex/lv_flex.c ****     lv_coord_t track_main_size;         /*For all items*/
  41:Middlewares/LVGL/GUI/lvgl/src/extra/layouts/flex/lv_flex.c ****     lv_coord_t track_fix_main_size;     /*For non grow items*/
  42:Middlewares/LVGL/GUI/lvgl/src/extra/layouts/flex/lv_flex.c ****     uint32_t item_cnt;
  43:Middlewares/LVGL/GUI/lvgl/src/extra/layouts/flex/lv_flex.c ****     grow_dsc_t * grow_dsc;
  44:Middlewares/LVGL/GUI/lvgl/src/extra/layouts/flex/lv_flex.c ****     uint32_t grow_item_cnt;
  45:Middlewares/LVGL/GUI/lvgl/src/extra/layouts/flex/lv_flex.c ****     uint32_t grow_dsc_calc : 1;
  46:Middlewares/LVGL/GUI/lvgl/src/extra/layouts/flex/lv_flex.c **** } track_t;
  47:Middlewares/LVGL/GUI/lvgl/src/extra/layouts/flex/lv_flex.c **** 
  48:Middlewares/LVGL/GUI/lvgl/src/extra/layouts/flex/lv_flex.c **** 
  49:Middlewares/LVGL/GUI/lvgl/src/extra/layouts/flex/lv_flex.c **** /**********************
  50:Middlewares/LVGL/GUI/lvgl/src/extra/layouts/flex/lv_flex.c ****  *  GLOBAL PROTOTYPES
  51:Middlewares/LVGL/GUI/lvgl/src/extra/layouts/flex/lv_flex.c ****  **********************/
  52:Middlewares/LVGL/GUI/lvgl/src/extra/layouts/flex/lv_flex.c **** 
  53:Middlewares/LVGL/GUI/lvgl/src/extra/layouts/flex/lv_flex.c **** /**********************
  54:Middlewares/LVGL/GUI/lvgl/src/extra/layouts/flex/lv_flex.c ****  *  STATIC PROTOTYPES
  55:Middlewares/LVGL/GUI/lvgl/src/extra/layouts/flex/lv_flex.c ****  **********************/
  56:Middlewares/LVGL/GUI/lvgl/src/extra/layouts/flex/lv_flex.c **** static void flex_update(lv_obj_t * cont, void * user_data);
  57:Middlewares/LVGL/GUI/lvgl/src/extra/layouts/flex/lv_flex.c **** static int32_t find_track_end(lv_obj_t * cont, flex_t * f, int32_t item_start_id, lv_coord_t max_ma
  58:Middlewares/LVGL/GUI/lvgl/src/extra/layouts/flex/lv_flex.c ****                               lv_coord_t item_gap, track_t * t);
  59:Middlewares/LVGL/GUI/lvgl/src/extra/layouts/flex/lv_flex.c **** static void children_repos(lv_obj_t * cont, flex_t * f, int32_t item_first_id, int32_t item_last_id
  60:Middlewares/LVGL/GUI/lvgl/src/extra/layouts/flex/lv_flex.c ****                            lv_coord_t abs_y, lv_coord_t max_main_size, lv_coord_t item_gap, track_t
  61:Middlewares/LVGL/GUI/lvgl/src/extra/layouts/flex/lv_flex.c **** static void place_content(lv_flex_align_t place, lv_coord_t max_size, lv_coord_t content_size, lv_c
  62:Middlewares/LVGL/GUI/lvgl/src/extra/layouts/flex/lv_flex.c ****                           lv_coord_t * start_pos, lv_coord_t * gap);
  63:Middlewares/LVGL/GUI/lvgl/src/extra/layouts/flex/lv_flex.c **** static lv_obj_t * get_next_item(lv_obj_t * cont, bool rev, int32_t * item_id);
  64:Middlewares/LVGL/GUI/lvgl/src/extra/layouts/flex/lv_flex.c **** 
  65:Middlewares/LVGL/GUI/lvgl/src/extra/layouts/flex/lv_flex.c **** /**********************
  66:Middlewares/LVGL/GUI/lvgl/src/extra/layouts/flex/lv_flex.c ****  *  GLOBAL VARIABLES
  67:Middlewares/LVGL/GUI/lvgl/src/extra/layouts/flex/lv_flex.c ****  **********************/
  68:Middlewares/LVGL/GUI/lvgl/src/extra/layouts/flex/lv_flex.c **** uint32_t LV_LAYOUT_FLEX;
  69:Middlewares/LVGL/GUI/lvgl/src/extra/layouts/flex/lv_flex.c **** lv_style_prop_t LV_STYLE_FLEX_FLOW;
ARM GAS  C:\Users\ADMINI~1\AppData\Local\Temp\ccyi9XNv.s 			page 6


  70:Middlewares/LVGL/GUI/lvgl/src/extra/layouts/flex/lv_flex.c **** lv_style_prop_t LV_STYLE_FLEX_MAIN_PLACE;
  71:Middlewares/LVGL/GUI/lvgl/src/extra/layouts/flex/lv_flex.c **** lv_style_prop_t LV_STYLE_FLEX_CROSS_PLACE;
  72:Middlewares/LVGL/GUI/lvgl/src/extra/layouts/flex/lv_flex.c **** lv_style_prop_t LV_STYLE_FLEX_TRACK_PLACE;
  73:Middlewares/LVGL/GUI/lvgl/src/extra/layouts/flex/lv_flex.c **** lv_style_prop_t LV_STYLE_FLEX_GROW;
  74:Middlewares/LVGL/GUI/lvgl/src/extra/layouts/flex/lv_flex.c **** 
  75:Middlewares/LVGL/GUI/lvgl/src/extra/layouts/flex/lv_flex.c **** 
  76:Middlewares/LVGL/GUI/lvgl/src/extra/layouts/flex/lv_flex.c **** /**********************
  77:Middlewares/LVGL/GUI/lvgl/src/extra/layouts/flex/lv_flex.c ****  *  STATIC VARIABLES
  78:Middlewares/LVGL/GUI/lvgl/src/extra/layouts/flex/lv_flex.c ****  **********************/
  79:Middlewares/LVGL/GUI/lvgl/src/extra/layouts/flex/lv_flex.c **** 
  80:Middlewares/LVGL/GUI/lvgl/src/extra/layouts/flex/lv_flex.c **** /**********************
  81:Middlewares/LVGL/GUI/lvgl/src/extra/layouts/flex/lv_flex.c ****  *      MACROS
  82:Middlewares/LVGL/GUI/lvgl/src/extra/layouts/flex/lv_flex.c ****  **********************/
  83:Middlewares/LVGL/GUI/lvgl/src/extra/layouts/flex/lv_flex.c **** 
  84:Middlewares/LVGL/GUI/lvgl/src/extra/layouts/flex/lv_flex.c **** /**********************
  85:Middlewares/LVGL/GUI/lvgl/src/extra/layouts/flex/lv_flex.c ****  *   GLOBAL FUNCTIONS
  86:Middlewares/LVGL/GUI/lvgl/src/extra/layouts/flex/lv_flex.c ****  **********************/
  87:Middlewares/LVGL/GUI/lvgl/src/extra/layouts/flex/lv_flex.c **** 
  88:Middlewares/LVGL/GUI/lvgl/src/extra/layouts/flex/lv_flex.c **** /*=====================
  89:Middlewares/LVGL/GUI/lvgl/src/extra/layouts/flex/lv_flex.c ****  * Setter functions
  90:Middlewares/LVGL/GUI/lvgl/src/extra/layouts/flex/lv_flex.c ****  *====================*/
  91:Middlewares/LVGL/GUI/lvgl/src/extra/layouts/flex/lv_flex.c **** 
  92:Middlewares/LVGL/GUI/lvgl/src/extra/layouts/flex/lv_flex.c **** void lv_flex_init(void)
  93:Middlewares/LVGL/GUI/lvgl/src/extra/layouts/flex/lv_flex.c **** {
  94:Middlewares/LVGL/GUI/lvgl/src/extra/layouts/flex/lv_flex.c ****     LV_LAYOUT_FLEX = lv_layout_register(flex_update, NULL);
  95:Middlewares/LVGL/GUI/lvgl/src/extra/layouts/flex/lv_flex.c **** 
  96:Middlewares/LVGL/GUI/lvgl/src/extra/layouts/flex/lv_flex.c ****     LV_STYLE_FLEX_FLOW = lv_style_register_prop();
  97:Middlewares/LVGL/GUI/lvgl/src/extra/layouts/flex/lv_flex.c ****     LV_STYLE_FLEX_MAIN_PLACE = lv_style_register_prop() | LV_STYLE_PROP_LAYOUT_REFR;
  98:Middlewares/LVGL/GUI/lvgl/src/extra/layouts/flex/lv_flex.c ****     LV_STYLE_FLEX_CROSS_PLACE = lv_style_register_prop() | LV_STYLE_PROP_LAYOUT_REFR;
  99:Middlewares/LVGL/GUI/lvgl/src/extra/layouts/flex/lv_flex.c ****     LV_STYLE_FLEX_TRACK_PLACE = lv_style_register_prop() | LV_STYLE_PROP_LAYOUT_REFR;
 100:Middlewares/LVGL/GUI/lvgl/src/extra/layouts/flex/lv_flex.c **** }
 101:Middlewares/LVGL/GUI/lvgl/src/extra/layouts/flex/lv_flex.c **** 
 102:Middlewares/LVGL/GUI/lvgl/src/extra/layouts/flex/lv_flex.c **** void lv_obj_set_flex_flow(lv_obj_t * obj, lv_flex_flow_t flow)
 103:Middlewares/LVGL/GUI/lvgl/src/extra/layouts/flex/lv_flex.c **** {
 104:Middlewares/LVGL/GUI/lvgl/src/extra/layouts/flex/lv_flex.c ****     lv_obj_set_style_flex_flow(obj, flow, 0);
 105:Middlewares/LVGL/GUI/lvgl/src/extra/layouts/flex/lv_flex.c ****     lv_obj_set_style_layout(obj, LV_LAYOUT_FLEX, 0);
 106:Middlewares/LVGL/GUI/lvgl/src/extra/layouts/flex/lv_flex.c **** }
 107:Middlewares/LVGL/GUI/lvgl/src/extra/layouts/flex/lv_flex.c **** 
 108:Middlewares/LVGL/GUI/lvgl/src/extra/layouts/flex/lv_flex.c **** void lv_obj_set_flex_align(lv_obj_t * obj, lv_flex_align_t main_place, lv_flex_align_t cross_place,
 109:Middlewares/LVGL/GUI/lvgl/src/extra/layouts/flex/lv_flex.c ****                            lv_flex_align_t track_place)
 110:Middlewares/LVGL/GUI/lvgl/src/extra/layouts/flex/lv_flex.c **** {
 111:Middlewares/LVGL/GUI/lvgl/src/extra/layouts/flex/lv_flex.c ****     lv_obj_set_style_flex_main_place(obj, main_place, 0);
 112:Middlewares/LVGL/GUI/lvgl/src/extra/layouts/flex/lv_flex.c ****     lv_obj_set_style_flex_cross_place(obj, cross_place, 0);
 113:Middlewares/LVGL/GUI/lvgl/src/extra/layouts/flex/lv_flex.c ****     lv_obj_set_style_flex_track_place(obj, track_place, 0);
 114:Middlewares/LVGL/GUI/lvgl/src/extra/layouts/flex/lv_flex.c ****     lv_obj_set_style_layout(obj, LV_LAYOUT_FLEX, 0);
 115:Middlewares/LVGL/GUI/lvgl/src/extra/layouts/flex/lv_flex.c **** }
 116:Middlewares/LVGL/GUI/lvgl/src/extra/layouts/flex/lv_flex.c **** 
 117:Middlewares/LVGL/GUI/lvgl/src/extra/layouts/flex/lv_flex.c **** void lv_obj_set_flex_grow(lv_obj_t * obj, uint8_t grow)
 118:Middlewares/LVGL/GUI/lvgl/src/extra/layouts/flex/lv_flex.c **** {
 119:Middlewares/LVGL/GUI/lvgl/src/extra/layouts/flex/lv_flex.c ****     lv_obj_set_style_flex_grow(obj, grow, 0);
 120:Middlewares/LVGL/GUI/lvgl/src/extra/layouts/flex/lv_flex.c ****     lv_obj_mark_layout_as_dirty(lv_obj_get_parent(obj));
 121:Middlewares/LVGL/GUI/lvgl/src/extra/layouts/flex/lv_flex.c **** }
 122:Middlewares/LVGL/GUI/lvgl/src/extra/layouts/flex/lv_flex.c **** 
 123:Middlewares/LVGL/GUI/lvgl/src/extra/layouts/flex/lv_flex.c **** 
 124:Middlewares/LVGL/GUI/lvgl/src/extra/layouts/flex/lv_flex.c **** void lv_style_set_flex_flow(lv_style_t * style, lv_flex_flow_t value)
 125:Middlewares/LVGL/GUI/lvgl/src/extra/layouts/flex/lv_flex.c **** {
 126:Middlewares/LVGL/GUI/lvgl/src/extra/layouts/flex/lv_flex.c ****     lv_style_value_t v = {
ARM GAS  C:\Users\ADMINI~1\AppData\Local\Temp\ccyi9XNv.s 			page 7


 127:Middlewares/LVGL/GUI/lvgl/src/extra/layouts/flex/lv_flex.c ****         .num = (int32_t)value
 128:Middlewares/LVGL/GUI/lvgl/src/extra/layouts/flex/lv_flex.c ****     };
 129:Middlewares/LVGL/GUI/lvgl/src/extra/layouts/flex/lv_flex.c ****     lv_style_set_prop(style, LV_STYLE_FLEX_FLOW, v);
 130:Middlewares/LVGL/GUI/lvgl/src/extra/layouts/flex/lv_flex.c **** }
 131:Middlewares/LVGL/GUI/lvgl/src/extra/layouts/flex/lv_flex.c **** 
 132:Middlewares/LVGL/GUI/lvgl/src/extra/layouts/flex/lv_flex.c **** void lv_style_set_flex_main_place(lv_style_t * style, lv_flex_align_t value)
 133:Middlewares/LVGL/GUI/lvgl/src/extra/layouts/flex/lv_flex.c **** {
 134:Middlewares/LVGL/GUI/lvgl/src/extra/layouts/flex/lv_flex.c ****     lv_style_value_t v = {
 135:Middlewares/LVGL/GUI/lvgl/src/extra/layouts/flex/lv_flex.c ****         .num = (int32_t)value
 136:Middlewares/LVGL/GUI/lvgl/src/extra/layouts/flex/lv_flex.c ****     };
 137:Middlewares/LVGL/GUI/lvgl/src/extra/layouts/flex/lv_flex.c ****     lv_style_set_prop(style, LV_STYLE_FLEX_MAIN_PLACE, v);
 138:Middlewares/LVGL/GUI/lvgl/src/extra/layouts/flex/lv_flex.c **** }
 139:Middlewares/LVGL/GUI/lvgl/src/extra/layouts/flex/lv_flex.c **** 
 140:Middlewares/LVGL/GUI/lvgl/src/extra/layouts/flex/lv_flex.c **** void lv_style_set_flex_cross_place(lv_style_t * style, lv_flex_align_t value)
 141:Middlewares/LVGL/GUI/lvgl/src/extra/layouts/flex/lv_flex.c **** {
 142:Middlewares/LVGL/GUI/lvgl/src/extra/layouts/flex/lv_flex.c ****     lv_style_value_t v = {
 143:Middlewares/LVGL/GUI/lvgl/src/extra/layouts/flex/lv_flex.c ****         .num = (int32_t)value
 144:Middlewares/LVGL/GUI/lvgl/src/extra/layouts/flex/lv_flex.c ****     };
 145:Middlewares/LVGL/GUI/lvgl/src/extra/layouts/flex/lv_flex.c ****     lv_style_set_prop(style, LV_STYLE_FLEX_CROSS_PLACE, v);
 146:Middlewares/LVGL/GUI/lvgl/src/extra/layouts/flex/lv_flex.c **** }
 147:Middlewares/LVGL/GUI/lvgl/src/extra/layouts/flex/lv_flex.c **** 
 148:Middlewares/LVGL/GUI/lvgl/src/extra/layouts/flex/lv_flex.c **** void lv_style_set_flex_track_place(lv_style_t * style, lv_flex_align_t value)
 149:Middlewares/LVGL/GUI/lvgl/src/extra/layouts/flex/lv_flex.c **** {
 150:Middlewares/LVGL/GUI/lvgl/src/extra/layouts/flex/lv_flex.c ****     lv_style_value_t v = {
 151:Middlewares/LVGL/GUI/lvgl/src/extra/layouts/flex/lv_flex.c ****         .num = (int32_t)value
 152:Middlewares/LVGL/GUI/lvgl/src/extra/layouts/flex/lv_flex.c ****     };
 153:Middlewares/LVGL/GUI/lvgl/src/extra/layouts/flex/lv_flex.c ****     lv_style_set_prop(style, LV_STYLE_FLEX_TRACK_PLACE, v);
 154:Middlewares/LVGL/GUI/lvgl/src/extra/layouts/flex/lv_flex.c **** }
 155:Middlewares/LVGL/GUI/lvgl/src/extra/layouts/flex/lv_flex.c **** 
 156:Middlewares/LVGL/GUI/lvgl/src/extra/layouts/flex/lv_flex.c **** void lv_style_set_flex_grow(lv_style_t * style, uint8_t value)
 157:Middlewares/LVGL/GUI/lvgl/src/extra/layouts/flex/lv_flex.c **** {
 158:Middlewares/LVGL/GUI/lvgl/src/extra/layouts/flex/lv_flex.c ****     lv_style_value_t v = {
 159:Middlewares/LVGL/GUI/lvgl/src/extra/layouts/flex/lv_flex.c ****         .num = (int32_t)value
 160:Middlewares/LVGL/GUI/lvgl/src/extra/layouts/flex/lv_flex.c ****     };
 161:Middlewares/LVGL/GUI/lvgl/src/extra/layouts/flex/lv_flex.c ****     lv_style_set_prop(style, LV_STYLE_FLEX_GROW, v);
 162:Middlewares/LVGL/GUI/lvgl/src/extra/layouts/flex/lv_flex.c **** }
 163:Middlewares/LVGL/GUI/lvgl/src/extra/layouts/flex/lv_flex.c **** 
 164:Middlewares/LVGL/GUI/lvgl/src/extra/layouts/flex/lv_flex.c **** 
 165:Middlewares/LVGL/GUI/lvgl/src/extra/layouts/flex/lv_flex.c **** void lv_obj_set_style_flex_flow(lv_obj_t * obj, lv_flex_flow_t value, lv_style_selector_t selector)
 166:Middlewares/LVGL/GUI/lvgl/src/extra/layouts/flex/lv_flex.c **** {
 167:Middlewares/LVGL/GUI/lvgl/src/extra/layouts/flex/lv_flex.c ****     lv_style_value_t v = {
 168:Middlewares/LVGL/GUI/lvgl/src/extra/layouts/flex/lv_flex.c ****         .num = (int32_t) value
 169:Middlewares/LVGL/GUI/lvgl/src/extra/layouts/flex/lv_flex.c ****     };
 170:Middlewares/LVGL/GUI/lvgl/src/extra/layouts/flex/lv_flex.c ****     lv_obj_set_local_style_prop(obj, LV_STYLE_FLEX_FLOW, v, selector);
 171:Middlewares/LVGL/GUI/lvgl/src/extra/layouts/flex/lv_flex.c **** }
 172:Middlewares/LVGL/GUI/lvgl/src/extra/layouts/flex/lv_flex.c **** 
 173:Middlewares/LVGL/GUI/lvgl/src/extra/layouts/flex/lv_flex.c **** void lv_obj_set_style_flex_main_place(lv_obj_t * obj, lv_flex_align_t value, lv_style_selector_t se
 174:Middlewares/LVGL/GUI/lvgl/src/extra/layouts/flex/lv_flex.c **** {
 175:Middlewares/LVGL/GUI/lvgl/src/extra/layouts/flex/lv_flex.c ****     lv_style_value_t v = {
 176:Middlewares/LVGL/GUI/lvgl/src/extra/layouts/flex/lv_flex.c ****         .num = (int32_t) value
 177:Middlewares/LVGL/GUI/lvgl/src/extra/layouts/flex/lv_flex.c ****     };
 178:Middlewares/LVGL/GUI/lvgl/src/extra/layouts/flex/lv_flex.c ****     lv_obj_set_local_style_prop(obj, LV_STYLE_FLEX_MAIN_PLACE, v, selector);
 179:Middlewares/LVGL/GUI/lvgl/src/extra/layouts/flex/lv_flex.c **** }
 180:Middlewares/LVGL/GUI/lvgl/src/extra/layouts/flex/lv_flex.c **** 
 181:Middlewares/LVGL/GUI/lvgl/src/extra/layouts/flex/lv_flex.c **** void lv_obj_set_style_flex_cross_place(lv_obj_t * obj, lv_flex_align_t value, lv_style_selector_t s
 182:Middlewares/LVGL/GUI/lvgl/src/extra/layouts/flex/lv_flex.c **** {
 183:Middlewares/LVGL/GUI/lvgl/src/extra/layouts/flex/lv_flex.c ****     lv_style_value_t v = {
ARM GAS  C:\Users\ADMINI~1\AppData\Local\Temp\ccyi9XNv.s 			page 8


 184:Middlewares/LVGL/GUI/lvgl/src/extra/layouts/flex/lv_flex.c ****         .num = (int32_t) value
 185:Middlewares/LVGL/GUI/lvgl/src/extra/layouts/flex/lv_flex.c ****     };
 186:Middlewares/LVGL/GUI/lvgl/src/extra/layouts/flex/lv_flex.c ****     lv_obj_set_local_style_prop(obj, LV_STYLE_FLEX_CROSS_PLACE, v, selector);
 187:Middlewares/LVGL/GUI/lvgl/src/extra/layouts/flex/lv_flex.c **** }
 188:Middlewares/LVGL/GUI/lvgl/src/extra/layouts/flex/lv_flex.c **** 
 189:Middlewares/LVGL/GUI/lvgl/src/extra/layouts/flex/lv_flex.c **** void lv_obj_set_style_flex_track_place(lv_obj_t * obj, lv_flex_align_t value, lv_style_selector_t s
 190:Middlewares/LVGL/GUI/lvgl/src/extra/layouts/flex/lv_flex.c **** {
 191:Middlewares/LVGL/GUI/lvgl/src/extra/layouts/flex/lv_flex.c ****     lv_style_value_t v = {
 192:Middlewares/LVGL/GUI/lvgl/src/extra/layouts/flex/lv_flex.c ****         .num = (int32_t) value
 193:Middlewares/LVGL/GUI/lvgl/src/extra/layouts/flex/lv_flex.c ****     };
 194:Middlewares/LVGL/GUI/lvgl/src/extra/layouts/flex/lv_flex.c ****     lv_obj_set_local_style_prop(obj, LV_STYLE_FLEX_TRACK_PLACE, v, selector);
 195:Middlewares/LVGL/GUI/lvgl/src/extra/layouts/flex/lv_flex.c **** }
 196:Middlewares/LVGL/GUI/lvgl/src/extra/layouts/flex/lv_flex.c **** 
 197:Middlewares/LVGL/GUI/lvgl/src/extra/layouts/flex/lv_flex.c **** void lv_obj_set_style_flex_grow(lv_obj_t * obj, uint8_t value, lv_style_selector_t selector)
 198:Middlewares/LVGL/GUI/lvgl/src/extra/layouts/flex/lv_flex.c **** {
 199:Middlewares/LVGL/GUI/lvgl/src/extra/layouts/flex/lv_flex.c ****     lv_style_value_t v = {
 200:Middlewares/LVGL/GUI/lvgl/src/extra/layouts/flex/lv_flex.c ****         .num = (int32_t) value
 201:Middlewares/LVGL/GUI/lvgl/src/extra/layouts/flex/lv_flex.c ****     };
 202:Middlewares/LVGL/GUI/lvgl/src/extra/layouts/flex/lv_flex.c ****     lv_obj_set_local_style_prop(obj, LV_STYLE_FLEX_GROW, v, selector);
 203:Middlewares/LVGL/GUI/lvgl/src/extra/layouts/flex/lv_flex.c **** }
 204:Middlewares/LVGL/GUI/lvgl/src/extra/layouts/flex/lv_flex.c **** 
 205:Middlewares/LVGL/GUI/lvgl/src/extra/layouts/flex/lv_flex.c **** /**********************
 206:Middlewares/LVGL/GUI/lvgl/src/extra/layouts/flex/lv_flex.c ****  *   STATIC FUNCTIONS
 207:Middlewares/LVGL/GUI/lvgl/src/extra/layouts/flex/lv_flex.c ****  **********************/
 208:Middlewares/LVGL/GUI/lvgl/src/extra/layouts/flex/lv_flex.c **** 
 209:Middlewares/LVGL/GUI/lvgl/src/extra/layouts/flex/lv_flex.c **** static void flex_update(lv_obj_t * cont, void * user_data)
 210:Middlewares/LVGL/GUI/lvgl/src/extra/layouts/flex/lv_flex.c **** {
 211:Middlewares/LVGL/GUI/lvgl/src/extra/layouts/flex/lv_flex.c ****     LV_LOG_INFO("update %p container", (void *)cont);
 212:Middlewares/LVGL/GUI/lvgl/src/extra/layouts/flex/lv_flex.c ****     LV_UNUSED(user_data);
 213:Middlewares/LVGL/GUI/lvgl/src/extra/layouts/flex/lv_flex.c **** 
 214:Middlewares/LVGL/GUI/lvgl/src/extra/layouts/flex/lv_flex.c ****     flex_t f;
 215:Middlewares/LVGL/GUI/lvgl/src/extra/layouts/flex/lv_flex.c ****     lv_flex_flow_t flow = lv_obj_get_style_flex_flow(cont, LV_PART_MAIN);
 216:Middlewares/LVGL/GUI/lvgl/src/extra/layouts/flex/lv_flex.c ****     f.row = flow & _LV_FLEX_COLUMN ? 0 : 1;
 217:Middlewares/LVGL/GUI/lvgl/src/extra/layouts/flex/lv_flex.c ****     f.wrap = flow & _LV_FLEX_WRAP ? 1 : 0;
 218:Middlewares/LVGL/GUI/lvgl/src/extra/layouts/flex/lv_flex.c ****     f.rev = flow & _LV_FLEX_REVERSE ? 1 : 0;
 219:Middlewares/LVGL/GUI/lvgl/src/extra/layouts/flex/lv_flex.c ****     f.main_place = lv_obj_get_style_flex_main_place(cont, LV_PART_MAIN);
 220:Middlewares/LVGL/GUI/lvgl/src/extra/layouts/flex/lv_flex.c ****     f.cross_place = lv_obj_get_style_flex_cross_place(cont, LV_PART_MAIN);
 221:Middlewares/LVGL/GUI/lvgl/src/extra/layouts/flex/lv_flex.c ****     f.track_place = lv_obj_get_style_flex_track_place(cont, LV_PART_MAIN);
 222:Middlewares/LVGL/GUI/lvgl/src/extra/layouts/flex/lv_flex.c **** 
 223:Middlewares/LVGL/GUI/lvgl/src/extra/layouts/flex/lv_flex.c ****     bool rtl = lv_obj_get_style_base_dir(cont, LV_PART_MAIN) == LV_BASE_DIR_RTL ? true : false;
 224:Middlewares/LVGL/GUI/lvgl/src/extra/layouts/flex/lv_flex.c ****     lv_coord_t track_gap = !f.row ? lv_obj_get_style_pad_column(cont, LV_PART_MAIN) : lv_obj_get_st
 225:Middlewares/LVGL/GUI/lvgl/src/extra/layouts/flex/lv_flex.c ****                                                                                                    
 226:Middlewares/LVGL/GUI/lvgl/src/extra/layouts/flex/lv_flex.c ****     lv_coord_t item_gap = f.row ? lv_obj_get_style_pad_column(cont, LV_PART_MAIN) : lv_obj_get_styl
 227:Middlewares/LVGL/GUI/lvgl/src/extra/layouts/flex/lv_flex.c ****                                                                                                    
 228:Middlewares/LVGL/GUI/lvgl/src/extra/layouts/flex/lv_flex.c ****     lv_coord_t max_main_size = (f.row ? lv_obj_get_content_width(cont) : lv_obj_get_content_height(
 229:Middlewares/LVGL/GUI/lvgl/src/extra/layouts/flex/lv_flex.c ****     lv_coord_t border_width = lv_obj_get_style_border_width(cont, LV_PART_MAIN);
 230:Middlewares/LVGL/GUI/lvgl/src/extra/layouts/flex/lv_flex.c ****     lv_coord_t abs_y = cont->coords.y1 + lv_obj_get_style_pad_top(cont,
 231:Middlewares/LVGL/GUI/lvgl/src/extra/layouts/flex/lv_flex.c ****                                                                   LV_PART_MAIN) + border_width - lv
 232:Middlewares/LVGL/GUI/lvgl/src/extra/layouts/flex/lv_flex.c ****     lv_coord_t abs_x = cont->coords.x1 + lv_obj_get_style_pad_left(cont,
 233:Middlewares/LVGL/GUI/lvgl/src/extra/layouts/flex/lv_flex.c ****                                                                    LV_PART_MAIN) + border_width - l
 234:Middlewares/LVGL/GUI/lvgl/src/extra/layouts/flex/lv_flex.c **** 
 235:Middlewares/LVGL/GUI/lvgl/src/extra/layouts/flex/lv_flex.c ****     lv_flex_align_t track_cross_place = f.track_place;
 236:Middlewares/LVGL/GUI/lvgl/src/extra/layouts/flex/lv_flex.c ****     lv_coord_t * cross_pos = (f.row ? &abs_y : &abs_x);
 237:Middlewares/LVGL/GUI/lvgl/src/extra/layouts/flex/lv_flex.c **** 
 238:Middlewares/LVGL/GUI/lvgl/src/extra/layouts/flex/lv_flex.c ****     lv_coord_t w_set = lv_obj_get_style_width(cont, LV_PART_MAIN);
 239:Middlewares/LVGL/GUI/lvgl/src/extra/layouts/flex/lv_flex.c ****     lv_coord_t h_set = lv_obj_get_style_height(cont, LV_PART_MAIN);
 240:Middlewares/LVGL/GUI/lvgl/src/extra/layouts/flex/lv_flex.c **** 
ARM GAS  C:\Users\ADMINI~1\AppData\Local\Temp\ccyi9XNv.s 			page 9


 241:Middlewares/LVGL/GUI/lvgl/src/extra/layouts/flex/lv_flex.c ****     /*Content sized objects should squeezed the gap between the children, therefore any alignment w
 242:Middlewares/LVGL/GUI/lvgl/src/extra/layouts/flex/lv_flex.c ****     if((f.row && h_set == LV_SIZE_CONTENT && cont->h_layout == 0) ||
 243:Middlewares/LVGL/GUI/lvgl/src/extra/layouts/flex/lv_flex.c ****        (!f.row && w_set == LV_SIZE_CONTENT && cont->w_layout == 0)) {
 244:Middlewares/LVGL/GUI/lvgl/src/extra/layouts/flex/lv_flex.c ****         track_cross_place = LV_FLEX_ALIGN_START;
 245:Middlewares/LVGL/GUI/lvgl/src/extra/layouts/flex/lv_flex.c ****     }
 246:Middlewares/LVGL/GUI/lvgl/src/extra/layouts/flex/lv_flex.c **** 
 247:Middlewares/LVGL/GUI/lvgl/src/extra/layouts/flex/lv_flex.c ****     if(rtl && !f.row) {
 248:Middlewares/LVGL/GUI/lvgl/src/extra/layouts/flex/lv_flex.c ****         if(track_cross_place == LV_FLEX_ALIGN_START) track_cross_place = LV_FLEX_ALIGN_END;
 249:Middlewares/LVGL/GUI/lvgl/src/extra/layouts/flex/lv_flex.c ****         else if(track_cross_place == LV_FLEX_ALIGN_END) track_cross_place = LV_FLEX_ALIGN_START;
 250:Middlewares/LVGL/GUI/lvgl/src/extra/layouts/flex/lv_flex.c ****     }
 251:Middlewares/LVGL/GUI/lvgl/src/extra/layouts/flex/lv_flex.c **** 
 252:Middlewares/LVGL/GUI/lvgl/src/extra/layouts/flex/lv_flex.c ****     lv_coord_t total_track_cross_size = 0;
 253:Middlewares/LVGL/GUI/lvgl/src/extra/layouts/flex/lv_flex.c ****     lv_coord_t gap = 0;
 254:Middlewares/LVGL/GUI/lvgl/src/extra/layouts/flex/lv_flex.c ****     uint32_t track_cnt = 0;
 255:Middlewares/LVGL/GUI/lvgl/src/extra/layouts/flex/lv_flex.c ****     int32_t track_first_item;
 256:Middlewares/LVGL/GUI/lvgl/src/extra/layouts/flex/lv_flex.c ****     int32_t next_track_first_item;
 257:Middlewares/LVGL/GUI/lvgl/src/extra/layouts/flex/lv_flex.c **** 
 258:Middlewares/LVGL/GUI/lvgl/src/extra/layouts/flex/lv_flex.c ****     if(track_cross_place != LV_FLEX_ALIGN_START) {
 259:Middlewares/LVGL/GUI/lvgl/src/extra/layouts/flex/lv_flex.c ****         track_first_item = f.rev ? cont->spec_attr->child_cnt - 1 : 0;
 260:Middlewares/LVGL/GUI/lvgl/src/extra/layouts/flex/lv_flex.c ****         track_t t;
 261:Middlewares/LVGL/GUI/lvgl/src/extra/layouts/flex/lv_flex.c ****         while(track_first_item < (int32_t)cont->spec_attr->child_cnt && track_first_item >= 0) {
 262:Middlewares/LVGL/GUI/lvgl/src/extra/layouts/flex/lv_flex.c ****             /*Search the first item of the next row*/
 263:Middlewares/LVGL/GUI/lvgl/src/extra/layouts/flex/lv_flex.c ****             t.grow_dsc_calc = 0;
 264:Middlewares/LVGL/GUI/lvgl/src/extra/layouts/flex/lv_flex.c ****             next_track_first_item = find_track_end(cont, &f, track_first_item, max_main_size, item_
 265:Middlewares/LVGL/GUI/lvgl/src/extra/layouts/flex/lv_flex.c ****             total_track_cross_size += t.track_cross_size + track_gap;
 266:Middlewares/LVGL/GUI/lvgl/src/extra/layouts/flex/lv_flex.c ****             track_cnt++;
 267:Middlewares/LVGL/GUI/lvgl/src/extra/layouts/flex/lv_flex.c ****             track_first_item = next_track_first_item;
 268:Middlewares/LVGL/GUI/lvgl/src/extra/layouts/flex/lv_flex.c ****         }
 269:Middlewares/LVGL/GUI/lvgl/src/extra/layouts/flex/lv_flex.c **** 
 270:Middlewares/LVGL/GUI/lvgl/src/extra/layouts/flex/lv_flex.c ****         if(track_cnt) total_track_cross_size -= track_gap;   /*No gap after the last track*/
 271:Middlewares/LVGL/GUI/lvgl/src/extra/layouts/flex/lv_flex.c **** 
 272:Middlewares/LVGL/GUI/lvgl/src/extra/layouts/flex/lv_flex.c ****         /*Place the tracks to get the start position*/
 273:Middlewares/LVGL/GUI/lvgl/src/extra/layouts/flex/lv_flex.c ****         lv_coord_t max_cross_size = (f.row ? lv_obj_get_content_height(cont) : lv_obj_get_content_w
 274:Middlewares/LVGL/GUI/lvgl/src/extra/layouts/flex/lv_flex.c ****         place_content(track_cross_place, max_cross_size, total_track_cross_size, track_cnt, cross_p
 275:Middlewares/LVGL/GUI/lvgl/src/extra/layouts/flex/lv_flex.c ****     }
 276:Middlewares/LVGL/GUI/lvgl/src/extra/layouts/flex/lv_flex.c **** 
 277:Middlewares/LVGL/GUI/lvgl/src/extra/layouts/flex/lv_flex.c ****     track_first_item = f.rev ? cont->spec_attr->child_cnt - 1 : 0;
 278:Middlewares/LVGL/GUI/lvgl/src/extra/layouts/flex/lv_flex.c **** 
 279:Middlewares/LVGL/GUI/lvgl/src/extra/layouts/flex/lv_flex.c ****     if(rtl && !f.row) {
 280:Middlewares/LVGL/GUI/lvgl/src/extra/layouts/flex/lv_flex.c ****         *cross_pos += total_track_cross_size;
 281:Middlewares/LVGL/GUI/lvgl/src/extra/layouts/flex/lv_flex.c ****     }
 282:Middlewares/LVGL/GUI/lvgl/src/extra/layouts/flex/lv_flex.c **** 
 283:Middlewares/LVGL/GUI/lvgl/src/extra/layouts/flex/lv_flex.c ****     while(track_first_item < (int32_t)cont->spec_attr->child_cnt && track_first_item >= 0) {
 284:Middlewares/LVGL/GUI/lvgl/src/extra/layouts/flex/lv_flex.c ****         track_t t;
 285:Middlewares/LVGL/GUI/lvgl/src/extra/layouts/flex/lv_flex.c ****         t.grow_dsc_calc = 1;
 286:Middlewares/LVGL/GUI/lvgl/src/extra/layouts/flex/lv_flex.c ****         /*Search the first item of the next row*/
 287:Middlewares/LVGL/GUI/lvgl/src/extra/layouts/flex/lv_flex.c ****         next_track_first_item = find_track_end(cont, &f, track_first_item, max_main_size, item_gap,
 288:Middlewares/LVGL/GUI/lvgl/src/extra/layouts/flex/lv_flex.c **** 
 289:Middlewares/LVGL/GUI/lvgl/src/extra/layouts/flex/lv_flex.c ****         if(rtl && !f.row) {
 290:Middlewares/LVGL/GUI/lvgl/src/extra/layouts/flex/lv_flex.c ****             *cross_pos -= t.track_cross_size;
 291:Middlewares/LVGL/GUI/lvgl/src/extra/layouts/flex/lv_flex.c ****         }
 292:Middlewares/LVGL/GUI/lvgl/src/extra/layouts/flex/lv_flex.c ****         children_repos(cont, &f, track_first_item, next_track_first_item, abs_x, abs_y, max_main_si
 293:Middlewares/LVGL/GUI/lvgl/src/extra/layouts/flex/lv_flex.c ****         track_first_item = next_track_first_item;
 294:Middlewares/LVGL/GUI/lvgl/src/extra/layouts/flex/lv_flex.c ****         lv_mem_buf_release(t.grow_dsc);
 295:Middlewares/LVGL/GUI/lvgl/src/extra/layouts/flex/lv_flex.c ****         t.grow_dsc = NULL;
 296:Middlewares/LVGL/GUI/lvgl/src/extra/layouts/flex/lv_flex.c ****         if(rtl && !f.row) {
 297:Middlewares/LVGL/GUI/lvgl/src/extra/layouts/flex/lv_flex.c ****             *cross_pos -= gap + track_gap;
ARM GAS  C:\Users\ADMINI~1\AppData\Local\Temp\ccyi9XNv.s 			page 10


 298:Middlewares/LVGL/GUI/lvgl/src/extra/layouts/flex/lv_flex.c ****         }
 299:Middlewares/LVGL/GUI/lvgl/src/extra/layouts/flex/lv_flex.c ****         else {
 300:Middlewares/LVGL/GUI/lvgl/src/extra/layouts/flex/lv_flex.c ****             *cross_pos += t.track_cross_size + gap + track_gap;
 301:Middlewares/LVGL/GUI/lvgl/src/extra/layouts/flex/lv_flex.c ****         }
 302:Middlewares/LVGL/GUI/lvgl/src/extra/layouts/flex/lv_flex.c ****     }
 303:Middlewares/LVGL/GUI/lvgl/src/extra/layouts/flex/lv_flex.c ****     LV_ASSERT_MEM_INTEGRITY();
 304:Middlewares/LVGL/GUI/lvgl/src/extra/layouts/flex/lv_flex.c **** 
 305:Middlewares/LVGL/GUI/lvgl/src/extra/layouts/flex/lv_flex.c ****     if(w_set == LV_SIZE_CONTENT || h_set == LV_SIZE_CONTENT) {
 306:Middlewares/LVGL/GUI/lvgl/src/extra/layouts/flex/lv_flex.c ****         lv_obj_refr_size(cont);
 307:Middlewares/LVGL/GUI/lvgl/src/extra/layouts/flex/lv_flex.c ****     }
 308:Middlewares/LVGL/GUI/lvgl/src/extra/layouts/flex/lv_flex.c **** 
 309:Middlewares/LVGL/GUI/lvgl/src/extra/layouts/flex/lv_flex.c ****     lv_event_send(cont, LV_EVENT_LAYOUT_CHANGED, NULL);
 310:Middlewares/LVGL/GUI/lvgl/src/extra/layouts/flex/lv_flex.c **** 
 311:Middlewares/LVGL/GUI/lvgl/src/extra/layouts/flex/lv_flex.c ****     LV_TRACE_LAYOUT("finished");
 312:Middlewares/LVGL/GUI/lvgl/src/extra/layouts/flex/lv_flex.c **** }
 313:Middlewares/LVGL/GUI/lvgl/src/extra/layouts/flex/lv_flex.c **** 
 314:Middlewares/LVGL/GUI/lvgl/src/extra/layouts/flex/lv_flex.c **** /**
 315:Middlewares/LVGL/GUI/lvgl/src/extra/layouts/flex/lv_flex.c ****  * Find the last item of a track
 316:Middlewares/LVGL/GUI/lvgl/src/extra/layouts/flex/lv_flex.c ****  */
 317:Middlewares/LVGL/GUI/lvgl/src/extra/layouts/flex/lv_flex.c **** static int32_t find_track_end(lv_obj_t * cont, flex_t * f, int32_t item_start_id, lv_coord_t max_ma
 318:Middlewares/LVGL/GUI/lvgl/src/extra/layouts/flex/lv_flex.c ****                               lv_coord_t item_gap, track_t * t)
 319:Middlewares/LVGL/GUI/lvgl/src/extra/layouts/flex/lv_flex.c **** {
 320:Middlewares/LVGL/GUI/lvgl/src/extra/layouts/flex/lv_flex.c ****     lv_coord_t w_set = lv_obj_get_style_width(cont, LV_PART_MAIN);
 321:Middlewares/LVGL/GUI/lvgl/src/extra/layouts/flex/lv_flex.c ****     lv_coord_t h_set = lv_obj_get_style_height(cont, LV_PART_MAIN);
 322:Middlewares/LVGL/GUI/lvgl/src/extra/layouts/flex/lv_flex.c **** 
 323:Middlewares/LVGL/GUI/lvgl/src/extra/layouts/flex/lv_flex.c ****     /*Can't wrap if the size if auto (i.e. the size depends on the children)*/
 324:Middlewares/LVGL/GUI/lvgl/src/extra/layouts/flex/lv_flex.c ****     if(f->wrap && ((f->row && w_set == LV_SIZE_CONTENT) || (!f->row && h_set == LV_SIZE_CONTENT))) 
 325:Middlewares/LVGL/GUI/lvgl/src/extra/layouts/flex/lv_flex.c ****         f->wrap = false;
 326:Middlewares/LVGL/GUI/lvgl/src/extra/layouts/flex/lv_flex.c ****     }
 327:Middlewares/LVGL/GUI/lvgl/src/extra/layouts/flex/lv_flex.c ****     lv_coord_t(*get_main_size)(const lv_obj_t *) = (f->row ? lv_obj_get_width : lv_obj_get_height);
 328:Middlewares/LVGL/GUI/lvgl/src/extra/layouts/flex/lv_flex.c ****     lv_coord_t(*get_cross_size)(const lv_obj_t *) = (!f->row ? lv_obj_get_width : lv_obj_get_height
 329:Middlewares/LVGL/GUI/lvgl/src/extra/layouts/flex/lv_flex.c **** 
 330:Middlewares/LVGL/GUI/lvgl/src/extra/layouts/flex/lv_flex.c ****     t->track_main_size = 0;
 331:Middlewares/LVGL/GUI/lvgl/src/extra/layouts/flex/lv_flex.c ****     t->track_fix_main_size = 0;
 332:Middlewares/LVGL/GUI/lvgl/src/extra/layouts/flex/lv_flex.c ****     t->grow_item_cnt = 0;
 333:Middlewares/LVGL/GUI/lvgl/src/extra/layouts/flex/lv_flex.c ****     t->track_cross_size = 0;
 334:Middlewares/LVGL/GUI/lvgl/src/extra/layouts/flex/lv_flex.c ****     t->item_cnt = 0;
 335:Middlewares/LVGL/GUI/lvgl/src/extra/layouts/flex/lv_flex.c ****     t->grow_dsc = NULL;
 336:Middlewares/LVGL/GUI/lvgl/src/extra/layouts/flex/lv_flex.c **** 
 337:Middlewares/LVGL/GUI/lvgl/src/extra/layouts/flex/lv_flex.c ****     int32_t item_id = item_start_id;
 338:Middlewares/LVGL/GUI/lvgl/src/extra/layouts/flex/lv_flex.c **** 
 339:Middlewares/LVGL/GUI/lvgl/src/extra/layouts/flex/lv_flex.c ****     lv_obj_t * item = lv_obj_get_child(cont, item_id);
 340:Middlewares/LVGL/GUI/lvgl/src/extra/layouts/flex/lv_flex.c ****     while(item) {
 341:Middlewares/LVGL/GUI/lvgl/src/extra/layouts/flex/lv_flex.c ****         if(item_id != item_start_id && lv_obj_has_flag(item, LV_OBJ_FLAG_FLEX_IN_NEW_TRACK)) break;
 342:Middlewares/LVGL/GUI/lvgl/src/extra/layouts/flex/lv_flex.c **** 
 343:Middlewares/LVGL/GUI/lvgl/src/extra/layouts/flex/lv_flex.c ****         if(!lv_obj_has_flag_any(item, LV_OBJ_FLAG_IGNORE_LAYOUT | LV_OBJ_FLAG_HIDDEN | LV_OBJ_FLAG_
 344:Middlewares/LVGL/GUI/lvgl/src/extra/layouts/flex/lv_flex.c ****             uint8_t grow_value = lv_obj_get_style_flex_grow(item, LV_PART_MAIN);
 345:Middlewares/LVGL/GUI/lvgl/src/extra/layouts/flex/lv_flex.c ****             if(grow_value) {
 346:Middlewares/LVGL/GUI/lvgl/src/extra/layouts/flex/lv_flex.c ****                 t->grow_item_cnt++;
 347:Middlewares/LVGL/GUI/lvgl/src/extra/layouts/flex/lv_flex.c ****                 t->track_fix_main_size += item_gap;
 348:Middlewares/LVGL/GUI/lvgl/src/extra/layouts/flex/lv_flex.c ****                 if(t->grow_dsc_calc) {
 349:Middlewares/LVGL/GUI/lvgl/src/extra/layouts/flex/lv_flex.c ****                     grow_dsc_t * new_dsc = lv_mem_buf_get(sizeof(grow_dsc_t) * (t->grow_item_cnt));
 350:Middlewares/LVGL/GUI/lvgl/src/extra/layouts/flex/lv_flex.c ****                     LV_ASSERT_MALLOC(new_dsc);
 351:Middlewares/LVGL/GUI/lvgl/src/extra/layouts/flex/lv_flex.c ****                     if(new_dsc == NULL) return item_id;
 352:Middlewares/LVGL/GUI/lvgl/src/extra/layouts/flex/lv_flex.c **** 
 353:Middlewares/LVGL/GUI/lvgl/src/extra/layouts/flex/lv_flex.c ****                     if(t->grow_dsc) {
 354:Middlewares/LVGL/GUI/lvgl/src/extra/layouts/flex/lv_flex.c ****                         lv_memcpy(new_dsc, t->grow_dsc, sizeof(grow_dsc_t) * (t->grow_item_cnt - 1)
ARM GAS  C:\Users\ADMINI~1\AppData\Local\Temp\ccyi9XNv.s 			page 11


 355:Middlewares/LVGL/GUI/lvgl/src/extra/layouts/flex/lv_flex.c ****                         lv_mem_buf_release(t->grow_dsc);
 356:Middlewares/LVGL/GUI/lvgl/src/extra/layouts/flex/lv_flex.c ****                     }
 357:Middlewares/LVGL/GUI/lvgl/src/extra/layouts/flex/lv_flex.c ****                     new_dsc[t->grow_item_cnt - 1].item = item;
 358:Middlewares/LVGL/GUI/lvgl/src/extra/layouts/flex/lv_flex.c ****                     new_dsc[t->grow_item_cnt - 1].min_size = f->row ? lv_obj_get_style_min_width(it
 359:Middlewares/LVGL/GUI/lvgl/src/extra/layouts/flex/lv_flex.c ****                                                                                                  LV
 360:Middlewares/LVGL/GUI/lvgl/src/extra/layouts/flex/lv_flex.c ****                     new_dsc[t->grow_item_cnt - 1].max_size = f->row ? lv_obj_get_style_max_width(it
 361:Middlewares/LVGL/GUI/lvgl/src/extra/layouts/flex/lv_flex.c ****                                                                                                  LV
 362:Middlewares/LVGL/GUI/lvgl/src/extra/layouts/flex/lv_flex.c ****                     new_dsc[t->grow_item_cnt - 1].grow_value = grow_value;
 363:Middlewares/LVGL/GUI/lvgl/src/extra/layouts/flex/lv_flex.c ****                     new_dsc[t->grow_item_cnt - 1].clamped = 0;
 364:Middlewares/LVGL/GUI/lvgl/src/extra/layouts/flex/lv_flex.c ****                     t->grow_dsc = new_dsc;
 365:Middlewares/LVGL/GUI/lvgl/src/extra/layouts/flex/lv_flex.c ****                 }
 366:Middlewares/LVGL/GUI/lvgl/src/extra/layouts/flex/lv_flex.c ****             }
 367:Middlewares/LVGL/GUI/lvgl/src/extra/layouts/flex/lv_flex.c ****             else {
 368:Middlewares/LVGL/GUI/lvgl/src/extra/layouts/flex/lv_flex.c ****                 lv_coord_t item_size = get_main_size(item);
 369:Middlewares/LVGL/GUI/lvgl/src/extra/layouts/flex/lv_flex.c ****                 if(f->wrap && t->track_fix_main_size + item_size > max_main_size) break;
 370:Middlewares/LVGL/GUI/lvgl/src/extra/layouts/flex/lv_flex.c ****                 t->track_fix_main_size += item_size + item_gap;
 371:Middlewares/LVGL/GUI/lvgl/src/extra/layouts/flex/lv_flex.c ****             }
 372:Middlewares/LVGL/GUI/lvgl/src/extra/layouts/flex/lv_flex.c **** 
 373:Middlewares/LVGL/GUI/lvgl/src/extra/layouts/flex/lv_flex.c **** 
 374:Middlewares/LVGL/GUI/lvgl/src/extra/layouts/flex/lv_flex.c ****             t->track_cross_size = LV_MAX(get_cross_size(item), t->track_cross_size);
 375:Middlewares/LVGL/GUI/lvgl/src/extra/layouts/flex/lv_flex.c ****             t->item_cnt++;
 376:Middlewares/LVGL/GUI/lvgl/src/extra/layouts/flex/lv_flex.c ****         }
 377:Middlewares/LVGL/GUI/lvgl/src/extra/layouts/flex/lv_flex.c **** 
 378:Middlewares/LVGL/GUI/lvgl/src/extra/layouts/flex/lv_flex.c ****         item_id += f->rev ? -1 : +1;
 379:Middlewares/LVGL/GUI/lvgl/src/extra/layouts/flex/lv_flex.c ****         if(item_id < 0) break;
 380:Middlewares/LVGL/GUI/lvgl/src/extra/layouts/flex/lv_flex.c ****         item = lv_obj_get_child(cont, item_id);
 381:Middlewares/LVGL/GUI/lvgl/src/extra/layouts/flex/lv_flex.c ****     }
 382:Middlewares/LVGL/GUI/lvgl/src/extra/layouts/flex/lv_flex.c **** 
 383:Middlewares/LVGL/GUI/lvgl/src/extra/layouts/flex/lv_flex.c ****     if(t->track_fix_main_size > 0) t->track_fix_main_size -= item_gap; /*There is no gap after the 
 384:Middlewares/LVGL/GUI/lvgl/src/extra/layouts/flex/lv_flex.c **** 
 385:Middlewares/LVGL/GUI/lvgl/src/extra/layouts/flex/lv_flex.c ****     /*If there is at least one "grow item" the track takes the full space*/
 386:Middlewares/LVGL/GUI/lvgl/src/extra/layouts/flex/lv_flex.c ****     t->track_main_size = t->grow_item_cnt ? max_main_size : t->track_fix_main_size;
 387:Middlewares/LVGL/GUI/lvgl/src/extra/layouts/flex/lv_flex.c **** 
 388:Middlewares/LVGL/GUI/lvgl/src/extra/layouts/flex/lv_flex.c ****     /*Have at least one item in a row*/
 389:Middlewares/LVGL/GUI/lvgl/src/extra/layouts/flex/lv_flex.c ****     if(item && item_id == item_start_id) {
 390:Middlewares/LVGL/GUI/lvgl/src/extra/layouts/flex/lv_flex.c ****         item = cont->spec_attr->children[item_id];
 391:Middlewares/LVGL/GUI/lvgl/src/extra/layouts/flex/lv_flex.c ****         get_next_item(cont, f->rev, &item_id);
 392:Middlewares/LVGL/GUI/lvgl/src/extra/layouts/flex/lv_flex.c ****         if(item) {
 393:Middlewares/LVGL/GUI/lvgl/src/extra/layouts/flex/lv_flex.c ****             t->track_cross_size = get_cross_size(item);
 394:Middlewares/LVGL/GUI/lvgl/src/extra/layouts/flex/lv_flex.c ****             t->track_main_size = get_main_size(item);
 395:Middlewares/LVGL/GUI/lvgl/src/extra/layouts/flex/lv_flex.c ****             t->item_cnt = 1;
 396:Middlewares/LVGL/GUI/lvgl/src/extra/layouts/flex/lv_flex.c ****         }
 397:Middlewares/LVGL/GUI/lvgl/src/extra/layouts/flex/lv_flex.c ****     }
 398:Middlewares/LVGL/GUI/lvgl/src/extra/layouts/flex/lv_flex.c **** 
 399:Middlewares/LVGL/GUI/lvgl/src/extra/layouts/flex/lv_flex.c ****     return item_id;
 400:Middlewares/LVGL/GUI/lvgl/src/extra/layouts/flex/lv_flex.c **** }
 401:Middlewares/LVGL/GUI/lvgl/src/extra/layouts/flex/lv_flex.c **** 
 402:Middlewares/LVGL/GUI/lvgl/src/extra/layouts/flex/lv_flex.c **** /**
 403:Middlewares/LVGL/GUI/lvgl/src/extra/layouts/flex/lv_flex.c ****  * Position the children in the same track
 404:Middlewares/LVGL/GUI/lvgl/src/extra/layouts/flex/lv_flex.c ****  */
 405:Middlewares/LVGL/GUI/lvgl/src/extra/layouts/flex/lv_flex.c **** static void children_repos(lv_obj_t * cont, flex_t * f, int32_t item_first_id, int32_t item_last_id
 406:Middlewares/LVGL/GUI/lvgl/src/extra/layouts/flex/lv_flex.c ****                            lv_coord_t abs_y, lv_coord_t max_main_size, lv_coord_t item_gap, track_t
 407:Middlewares/LVGL/GUI/lvgl/src/extra/layouts/flex/lv_flex.c **** {
 408:Middlewares/LVGL/GUI/lvgl/src/extra/layouts/flex/lv_flex.c ****     void (*area_set_main_size)(lv_area_t *, lv_coord_t) = (f->row ? lv_area_set_width : lv_area_set
 409:Middlewares/LVGL/GUI/lvgl/src/extra/layouts/flex/lv_flex.c ****     lv_coord_t (*area_get_main_size)(const lv_area_t *) = (f->row ? lv_area_get_width : lv_area_get
 410:Middlewares/LVGL/GUI/lvgl/src/extra/layouts/flex/lv_flex.c ****     lv_coord_t (*area_get_cross_size)(const lv_area_t *) = (!f->row ? lv_area_get_width : lv_area_g
 411:Middlewares/LVGL/GUI/lvgl/src/extra/layouts/flex/lv_flex.c **** 
ARM GAS  C:\Users\ADMINI~1\AppData\Local\Temp\ccyi9XNv.s 			page 12


 412:Middlewares/LVGL/GUI/lvgl/src/extra/layouts/flex/lv_flex.c ****     /*Calculate the size of grow items first*/
 413:Middlewares/LVGL/GUI/lvgl/src/extra/layouts/flex/lv_flex.c ****     uint32_t i;
 414:Middlewares/LVGL/GUI/lvgl/src/extra/layouts/flex/lv_flex.c ****     bool grow_reiterate  = true;
 415:Middlewares/LVGL/GUI/lvgl/src/extra/layouts/flex/lv_flex.c ****     while(grow_reiterate) {
 416:Middlewares/LVGL/GUI/lvgl/src/extra/layouts/flex/lv_flex.c ****         grow_reiterate = false;
 417:Middlewares/LVGL/GUI/lvgl/src/extra/layouts/flex/lv_flex.c ****         lv_coord_t grow_value_sum = 0;
 418:Middlewares/LVGL/GUI/lvgl/src/extra/layouts/flex/lv_flex.c ****         lv_coord_t grow_max_size = t->track_main_size - t->track_fix_main_size;
 419:Middlewares/LVGL/GUI/lvgl/src/extra/layouts/flex/lv_flex.c ****         for(i = 0; i < t->grow_item_cnt; i++) {
 420:Middlewares/LVGL/GUI/lvgl/src/extra/layouts/flex/lv_flex.c ****             if(t->grow_dsc[i].clamped == 0) {
 421:Middlewares/LVGL/GUI/lvgl/src/extra/layouts/flex/lv_flex.c ****                 grow_value_sum += t->grow_dsc[i].grow_value;
 422:Middlewares/LVGL/GUI/lvgl/src/extra/layouts/flex/lv_flex.c ****             }
 423:Middlewares/LVGL/GUI/lvgl/src/extra/layouts/flex/lv_flex.c ****             else {
 424:Middlewares/LVGL/GUI/lvgl/src/extra/layouts/flex/lv_flex.c ****                 grow_max_size -= t->grow_dsc[i].final_size;
 425:Middlewares/LVGL/GUI/lvgl/src/extra/layouts/flex/lv_flex.c ****             }
 426:Middlewares/LVGL/GUI/lvgl/src/extra/layouts/flex/lv_flex.c ****         }
 427:Middlewares/LVGL/GUI/lvgl/src/extra/layouts/flex/lv_flex.c ****         lv_coord_t grow_unit;
 428:Middlewares/LVGL/GUI/lvgl/src/extra/layouts/flex/lv_flex.c **** 
 429:Middlewares/LVGL/GUI/lvgl/src/extra/layouts/flex/lv_flex.c ****         for(i = 0; i < t->grow_item_cnt; i++) {
 430:Middlewares/LVGL/GUI/lvgl/src/extra/layouts/flex/lv_flex.c ****             if(t->grow_dsc[i].clamped == 0) {
 431:Middlewares/LVGL/GUI/lvgl/src/extra/layouts/flex/lv_flex.c ****                 grow_unit = grow_max_size / grow_value_sum;
 432:Middlewares/LVGL/GUI/lvgl/src/extra/layouts/flex/lv_flex.c ****                 lv_coord_t size = grow_unit * t->grow_dsc[i].grow_value;
 433:Middlewares/LVGL/GUI/lvgl/src/extra/layouts/flex/lv_flex.c ****                 lv_coord_t size_clamp = LV_CLAMP(t->grow_dsc[i].min_size, size, t->grow_dsc[i].max_
 434:Middlewares/LVGL/GUI/lvgl/src/extra/layouts/flex/lv_flex.c **** 
 435:Middlewares/LVGL/GUI/lvgl/src/extra/layouts/flex/lv_flex.c ****                 if(size_clamp != size) {
 436:Middlewares/LVGL/GUI/lvgl/src/extra/layouts/flex/lv_flex.c ****                     t->grow_dsc[i].clamped = 1;
 437:Middlewares/LVGL/GUI/lvgl/src/extra/layouts/flex/lv_flex.c ****                     grow_reiterate = true;
 438:Middlewares/LVGL/GUI/lvgl/src/extra/layouts/flex/lv_flex.c ****                 }
 439:Middlewares/LVGL/GUI/lvgl/src/extra/layouts/flex/lv_flex.c ****                 t->grow_dsc[i].final_size = size_clamp;
 440:Middlewares/LVGL/GUI/lvgl/src/extra/layouts/flex/lv_flex.c ****                 grow_value_sum -= t->grow_dsc[i].grow_value;
 441:Middlewares/LVGL/GUI/lvgl/src/extra/layouts/flex/lv_flex.c ****                 grow_max_size  -= t->grow_dsc[i].final_size;
 442:Middlewares/LVGL/GUI/lvgl/src/extra/layouts/flex/lv_flex.c ****             }
 443:Middlewares/LVGL/GUI/lvgl/src/extra/layouts/flex/lv_flex.c ****         }
 444:Middlewares/LVGL/GUI/lvgl/src/extra/layouts/flex/lv_flex.c ****     }
 445:Middlewares/LVGL/GUI/lvgl/src/extra/layouts/flex/lv_flex.c **** 
 446:Middlewares/LVGL/GUI/lvgl/src/extra/layouts/flex/lv_flex.c **** 
 447:Middlewares/LVGL/GUI/lvgl/src/extra/layouts/flex/lv_flex.c ****     bool rtl = lv_obj_get_style_base_dir(cont, LV_PART_MAIN) == LV_BASE_DIR_RTL ? true : false;
 448:Middlewares/LVGL/GUI/lvgl/src/extra/layouts/flex/lv_flex.c **** 
 449:Middlewares/LVGL/GUI/lvgl/src/extra/layouts/flex/lv_flex.c ****     lv_coord_t main_pos = 0;
 450:Middlewares/LVGL/GUI/lvgl/src/extra/layouts/flex/lv_flex.c **** 
 451:Middlewares/LVGL/GUI/lvgl/src/extra/layouts/flex/lv_flex.c ****     lv_coord_t place_gap = 0;
 452:Middlewares/LVGL/GUI/lvgl/src/extra/layouts/flex/lv_flex.c ****     place_content(f->main_place, max_main_size, t->track_main_size, t->item_cnt, &main_pos, &place_
 453:Middlewares/LVGL/GUI/lvgl/src/extra/layouts/flex/lv_flex.c ****     if(f->row && rtl) main_pos += lv_obj_get_content_width(cont);
 454:Middlewares/LVGL/GUI/lvgl/src/extra/layouts/flex/lv_flex.c **** 
 455:Middlewares/LVGL/GUI/lvgl/src/extra/layouts/flex/lv_flex.c ****     lv_obj_t * item = lv_obj_get_child(cont, item_first_id);
 456:Middlewares/LVGL/GUI/lvgl/src/extra/layouts/flex/lv_flex.c ****     /*Reposition the children*/
 457:Middlewares/LVGL/GUI/lvgl/src/extra/layouts/flex/lv_flex.c ****     while(item && item_first_id != item_last_id) {
 458:Middlewares/LVGL/GUI/lvgl/src/extra/layouts/flex/lv_flex.c ****         if(lv_obj_has_flag_any(item, LV_OBJ_FLAG_IGNORE_LAYOUT | LV_OBJ_FLAG_HIDDEN | LV_OBJ_FLAG_F
 459:Middlewares/LVGL/GUI/lvgl/src/extra/layouts/flex/lv_flex.c ****             item = get_next_item(cont, f->rev, &item_first_id);
 460:Middlewares/LVGL/GUI/lvgl/src/extra/layouts/flex/lv_flex.c ****             continue;
 461:Middlewares/LVGL/GUI/lvgl/src/extra/layouts/flex/lv_flex.c ****         }
 462:Middlewares/LVGL/GUI/lvgl/src/extra/layouts/flex/lv_flex.c ****         lv_coord_t grow_size = lv_obj_get_style_flex_grow(item, LV_PART_MAIN);
 463:Middlewares/LVGL/GUI/lvgl/src/extra/layouts/flex/lv_flex.c ****         if(grow_size) {
 464:Middlewares/LVGL/GUI/lvgl/src/extra/layouts/flex/lv_flex.c ****             lv_coord_t s = 0;
 465:Middlewares/LVGL/GUI/lvgl/src/extra/layouts/flex/lv_flex.c ****             for(i = 0; i < t->grow_item_cnt; i++) {
 466:Middlewares/LVGL/GUI/lvgl/src/extra/layouts/flex/lv_flex.c ****                 if(t->grow_dsc[i].item == item) {
 467:Middlewares/LVGL/GUI/lvgl/src/extra/layouts/flex/lv_flex.c ****                     s = t->grow_dsc[i].final_size;
 468:Middlewares/LVGL/GUI/lvgl/src/extra/layouts/flex/lv_flex.c ****                     break;
ARM GAS  C:\Users\ADMINI~1\AppData\Local\Temp\ccyi9XNv.s 			page 13


 469:Middlewares/LVGL/GUI/lvgl/src/extra/layouts/flex/lv_flex.c ****                 }
 470:Middlewares/LVGL/GUI/lvgl/src/extra/layouts/flex/lv_flex.c ****             }
 471:Middlewares/LVGL/GUI/lvgl/src/extra/layouts/flex/lv_flex.c **** 
 472:Middlewares/LVGL/GUI/lvgl/src/extra/layouts/flex/lv_flex.c ****             if(f->row) item->w_layout = 1;
 473:Middlewares/LVGL/GUI/lvgl/src/extra/layouts/flex/lv_flex.c ****             else item->h_layout = 1;
 474:Middlewares/LVGL/GUI/lvgl/src/extra/layouts/flex/lv_flex.c **** 
 475:Middlewares/LVGL/GUI/lvgl/src/extra/layouts/flex/lv_flex.c ****             if(s != area_get_main_size(&item->coords)) {
 476:Middlewares/LVGL/GUI/lvgl/src/extra/layouts/flex/lv_flex.c ****                 lv_obj_invalidate(item);
 477:Middlewares/LVGL/GUI/lvgl/src/extra/layouts/flex/lv_flex.c **** 
 478:Middlewares/LVGL/GUI/lvgl/src/extra/layouts/flex/lv_flex.c ****                 lv_area_t old_coords;
 479:Middlewares/LVGL/GUI/lvgl/src/extra/layouts/flex/lv_flex.c ****                 lv_area_copy(&old_coords, &item->coords);
 480:Middlewares/LVGL/GUI/lvgl/src/extra/layouts/flex/lv_flex.c ****                 area_set_main_size(&item->coords, s);
 481:Middlewares/LVGL/GUI/lvgl/src/extra/layouts/flex/lv_flex.c ****                 lv_event_send(item, LV_EVENT_SIZE_CHANGED, &old_coords);
 482:Middlewares/LVGL/GUI/lvgl/src/extra/layouts/flex/lv_flex.c ****                 lv_event_send(lv_obj_get_parent(item), LV_EVENT_CHILD_CHANGED, item);
 483:Middlewares/LVGL/GUI/lvgl/src/extra/layouts/flex/lv_flex.c ****                 lv_obj_invalidate(item);
 484:Middlewares/LVGL/GUI/lvgl/src/extra/layouts/flex/lv_flex.c ****             }
 485:Middlewares/LVGL/GUI/lvgl/src/extra/layouts/flex/lv_flex.c ****         }
 486:Middlewares/LVGL/GUI/lvgl/src/extra/layouts/flex/lv_flex.c ****         else {
 487:Middlewares/LVGL/GUI/lvgl/src/extra/layouts/flex/lv_flex.c ****             item->w_layout = 0;
 488:Middlewares/LVGL/GUI/lvgl/src/extra/layouts/flex/lv_flex.c ****             item->h_layout = 0;
 489:Middlewares/LVGL/GUI/lvgl/src/extra/layouts/flex/lv_flex.c ****         }
 490:Middlewares/LVGL/GUI/lvgl/src/extra/layouts/flex/lv_flex.c **** 
 491:Middlewares/LVGL/GUI/lvgl/src/extra/layouts/flex/lv_flex.c ****         lv_coord_t cross_pos = 0;
 492:Middlewares/LVGL/GUI/lvgl/src/extra/layouts/flex/lv_flex.c ****         switch(f->cross_place) {
 493:Middlewares/LVGL/GUI/lvgl/src/extra/layouts/flex/lv_flex.c ****             case LV_FLEX_ALIGN_CENTER:
 494:Middlewares/LVGL/GUI/lvgl/src/extra/layouts/flex/lv_flex.c ****                 /*Round up the cross size to avoid rounding error when dividing by 2
 495:Middlewares/LVGL/GUI/lvgl/src/extra/layouts/flex/lv_flex.c ****                  *The issue comes up e,g, with column direction with center cross direction if an e
 496:Middlewares/LVGL/GUI/lvgl/src/extra/layouts/flex/lv_flex.c ****                 cross_pos = (((t->track_cross_size + 1) & (~1)) - area_get_cross_size(&item->coords
 497:Middlewares/LVGL/GUI/lvgl/src/extra/layouts/flex/lv_flex.c ****                 break;
 498:Middlewares/LVGL/GUI/lvgl/src/extra/layouts/flex/lv_flex.c ****             case LV_FLEX_ALIGN_END:
 499:Middlewares/LVGL/GUI/lvgl/src/extra/layouts/flex/lv_flex.c ****                 cross_pos = t->track_cross_size - area_get_cross_size(&item->coords);
 500:Middlewares/LVGL/GUI/lvgl/src/extra/layouts/flex/lv_flex.c ****                 break;
 501:Middlewares/LVGL/GUI/lvgl/src/extra/layouts/flex/lv_flex.c ****             default:
 502:Middlewares/LVGL/GUI/lvgl/src/extra/layouts/flex/lv_flex.c ****                 break;
 503:Middlewares/LVGL/GUI/lvgl/src/extra/layouts/flex/lv_flex.c ****         }
 504:Middlewares/LVGL/GUI/lvgl/src/extra/layouts/flex/lv_flex.c **** 
 505:Middlewares/LVGL/GUI/lvgl/src/extra/layouts/flex/lv_flex.c ****         if(f->row && rtl) main_pos -= area_get_main_size(&item->coords);
 506:Middlewares/LVGL/GUI/lvgl/src/extra/layouts/flex/lv_flex.c **** 
 507:Middlewares/LVGL/GUI/lvgl/src/extra/layouts/flex/lv_flex.c **** 
 508:Middlewares/LVGL/GUI/lvgl/src/extra/layouts/flex/lv_flex.c ****         /*Handle percentage value of translate*/
 509:Middlewares/LVGL/GUI/lvgl/src/extra/layouts/flex/lv_flex.c ****         lv_coord_t tr_x = lv_obj_get_style_translate_x(item, LV_PART_MAIN);
 510:Middlewares/LVGL/GUI/lvgl/src/extra/layouts/flex/lv_flex.c ****         lv_coord_t tr_y = lv_obj_get_style_translate_y(item, LV_PART_MAIN);
 511:Middlewares/LVGL/GUI/lvgl/src/extra/layouts/flex/lv_flex.c ****         lv_coord_t w = lv_obj_get_width(item);
 512:Middlewares/LVGL/GUI/lvgl/src/extra/layouts/flex/lv_flex.c ****         lv_coord_t h = lv_obj_get_height(item);
 513:Middlewares/LVGL/GUI/lvgl/src/extra/layouts/flex/lv_flex.c ****         if(LV_COORD_IS_PCT(tr_x)) tr_x = (w * LV_COORD_GET_PCT(tr_x)) / 100;
 514:Middlewares/LVGL/GUI/lvgl/src/extra/layouts/flex/lv_flex.c ****         if(LV_COORD_IS_PCT(tr_y)) tr_y = (h * LV_COORD_GET_PCT(tr_y)) / 100;
 515:Middlewares/LVGL/GUI/lvgl/src/extra/layouts/flex/lv_flex.c **** 
 516:Middlewares/LVGL/GUI/lvgl/src/extra/layouts/flex/lv_flex.c ****         lv_coord_t diff_x = abs_x - item->coords.x1 + tr_x;
 517:Middlewares/LVGL/GUI/lvgl/src/extra/layouts/flex/lv_flex.c ****         lv_coord_t diff_y = abs_y - item->coords.y1 + tr_y;
 518:Middlewares/LVGL/GUI/lvgl/src/extra/layouts/flex/lv_flex.c ****         diff_x += f->row ? main_pos : cross_pos;
 519:Middlewares/LVGL/GUI/lvgl/src/extra/layouts/flex/lv_flex.c ****         diff_y += f->row ? cross_pos : main_pos;
 520:Middlewares/LVGL/GUI/lvgl/src/extra/layouts/flex/lv_flex.c **** 
 521:Middlewares/LVGL/GUI/lvgl/src/extra/layouts/flex/lv_flex.c ****         if(diff_x || diff_y) {
 522:Middlewares/LVGL/GUI/lvgl/src/extra/layouts/flex/lv_flex.c ****             lv_obj_invalidate(item);
 523:Middlewares/LVGL/GUI/lvgl/src/extra/layouts/flex/lv_flex.c ****             item->coords.x1 += diff_x;
 524:Middlewares/LVGL/GUI/lvgl/src/extra/layouts/flex/lv_flex.c ****             item->coords.x2 += diff_x;
 525:Middlewares/LVGL/GUI/lvgl/src/extra/layouts/flex/lv_flex.c ****             item->coords.y1 += diff_y;
ARM GAS  C:\Users\ADMINI~1\AppData\Local\Temp\ccyi9XNv.s 			page 14


 526:Middlewares/LVGL/GUI/lvgl/src/extra/layouts/flex/lv_flex.c ****             item->coords.y2 += diff_y;
 527:Middlewares/LVGL/GUI/lvgl/src/extra/layouts/flex/lv_flex.c ****             lv_obj_invalidate(item);
 528:Middlewares/LVGL/GUI/lvgl/src/extra/layouts/flex/lv_flex.c ****             lv_obj_move_children_by(item, diff_x, diff_y, true);
 529:Middlewares/LVGL/GUI/lvgl/src/extra/layouts/flex/lv_flex.c ****         }
 530:Middlewares/LVGL/GUI/lvgl/src/extra/layouts/flex/lv_flex.c **** 
 531:Middlewares/LVGL/GUI/lvgl/src/extra/layouts/flex/lv_flex.c ****         if(!(f->row && rtl)) main_pos += area_get_main_size(&item->coords) + item_gap + place_gap;
 532:Middlewares/LVGL/GUI/lvgl/src/extra/layouts/flex/lv_flex.c ****         else main_pos -= item_gap + place_gap;
 533:Middlewares/LVGL/GUI/lvgl/src/extra/layouts/flex/lv_flex.c **** 
 534:Middlewares/LVGL/GUI/lvgl/src/extra/layouts/flex/lv_flex.c ****         item = get_next_item(cont, f->rev, &item_first_id);
 535:Middlewares/LVGL/GUI/lvgl/src/extra/layouts/flex/lv_flex.c ****     }
 536:Middlewares/LVGL/GUI/lvgl/src/extra/layouts/flex/lv_flex.c **** }
 537:Middlewares/LVGL/GUI/lvgl/src/extra/layouts/flex/lv_flex.c **** 
 538:Middlewares/LVGL/GUI/lvgl/src/extra/layouts/flex/lv_flex.c **** /**
 539:Middlewares/LVGL/GUI/lvgl/src/extra/layouts/flex/lv_flex.c ****  * Tell a start coordinate and gap for a placement type.
 540:Middlewares/LVGL/GUI/lvgl/src/extra/layouts/flex/lv_flex.c ****  */
 541:Middlewares/LVGL/GUI/lvgl/src/extra/layouts/flex/lv_flex.c **** static void place_content(lv_flex_align_t place, lv_coord_t max_size, lv_coord_t content_size, lv_c
 542:Middlewares/LVGL/GUI/lvgl/src/extra/layouts/flex/lv_flex.c ****                           lv_coord_t * start_pos, lv_coord_t * gap)
 543:Middlewares/LVGL/GUI/lvgl/src/extra/layouts/flex/lv_flex.c **** {
  86              		.loc 2 543 1 is_stmt 1 view -0
  87              		.cfi_startproc
  88              		@ args = 8, pretend = 0, frame = 0
  89              		@ frame_needed = 0, uses_anonymous_args = 0
  90              		@ link register save eliminated.
  91              		.loc 2 543 1 is_stmt 0 view .LVU13
  92 0000 30B4     		push	{r4, r5}
  93              	.LCFI0:
  94              		.cfi_def_cfa_offset 8
  95              		.cfi_offset 4, -8
  96              		.cfi_offset 5, -4
  97 0002 029D     		ldr	r5, [sp, #8]
  98 0004 039C     		ldr	r4, [sp, #12]
 544:Middlewares/LVGL/GUI/lvgl/src/extra/layouts/flex/lv_flex.c ****     if(item_cnt <= 1) {
  99              		.loc 2 544 5 is_stmt 1 view .LVU14
 100              		.loc 2 544 7 is_stmt 0 view .LVU15
 101 0006 012B     		cmp	r3, #1
 102 0008 07DD     		ble	.L14
 103              	.L4:
 545:Middlewares/LVGL/GUI/lvgl/src/extra/layouts/flex/lv_flex.c ****         switch(place) {
 546:Middlewares/LVGL/GUI/lvgl/src/extra/layouts/flex/lv_flex.c ****             case LV_FLEX_ALIGN_SPACE_BETWEEN:
 547:Middlewares/LVGL/GUI/lvgl/src/extra/layouts/flex/lv_flex.c ****             case LV_FLEX_ALIGN_SPACE_AROUND:
 548:Middlewares/LVGL/GUI/lvgl/src/extra/layouts/flex/lv_flex.c ****             case LV_FLEX_ALIGN_SPACE_EVENLY:
 549:Middlewares/LVGL/GUI/lvgl/src/extra/layouts/flex/lv_flex.c ****                 place = LV_FLEX_ALIGN_CENTER;
 550:Middlewares/LVGL/GUI/lvgl/src/extra/layouts/flex/lv_flex.c ****                 break;
 551:Middlewares/LVGL/GUI/lvgl/src/extra/layouts/flex/lv_flex.c ****             default:
 552:Middlewares/LVGL/GUI/lvgl/src/extra/layouts/flex/lv_flex.c ****                 break;
 553:Middlewares/LVGL/GUI/lvgl/src/extra/layouts/flex/lv_flex.c ****         }
 554:Middlewares/LVGL/GUI/lvgl/src/extra/layouts/flex/lv_flex.c ****     }
 555:Middlewares/LVGL/GUI/lvgl/src/extra/layouts/flex/lv_flex.c **** 
 556:Middlewares/LVGL/GUI/lvgl/src/extra/layouts/flex/lv_flex.c ****     switch(place) {
 104              		.loc 2 556 5 is_stmt 1 view .LVU16
 105 000a 0138     		subs	r0, r0, #1
 106              	.LVL5:
 107              		.loc 2 556 5 is_stmt 0 view .LVU17
 108 000c 0428     		cmp	r0, #4
 109 000e 37D8     		bhi	.L6
 110 0010 DFE800F0 		tbb	[pc, r0]
 111              	.L8:
ARM GAS  C:\Users\ADMINI~1\AppData\Local\Temp\ccyi9XNv.s 			page 15


 112 0014 13       		.byte	(.L11-.L8)/2
 113 0015 08       		.byte	(.L5-.L8)/2
 114 0016 2D       		.byte	(.L10-.L8)/2
 115 0017 20       		.byte	(.L9-.L8)/2
 116 0018 1A       		.byte	(.L7-.L8)/2
 117              	.LVL6:
 118 0019 00       		.p2align 1
 119              	.L14:
 545:Middlewares/LVGL/GUI/lvgl/src/extra/layouts/flex/lv_flex.c ****         switch(place) {
 120              		.loc 2 545 9 is_stmt 1 view .LVU18
 121 001a A0F1030C 		sub	ip, r0, #3
 122 001e BCF1020F 		cmp	ip, #2
 123 0022 F2D8     		bhi	.L4
 124              	.LVL7:
 125              	.L5:
 557:Middlewares/LVGL/GUI/lvgl/src/extra/layouts/flex/lv_flex.c ****         case LV_FLEX_ALIGN_CENTER:
 558:Middlewares/LVGL/GUI/lvgl/src/extra/layouts/flex/lv_flex.c ****             *gap = 0;
 126              		.loc 2 558 13 view .LVU19
 127              		.loc 2 558 18 is_stmt 0 view .LVU20
 128 0024 0023     		movs	r3, #0
 129              	.LVL8:
 130              		.loc 2 558 18 view .LVU21
 131 0026 2360     		str	r3, [r4]
 559:Middlewares/LVGL/GUI/lvgl/src/extra/layouts/flex/lv_flex.c ****             *start_pos += (max_size - content_size) / 2;
 132              		.loc 2 559 13 is_stmt 1 view .LVU22
 133              		.loc 2 559 37 is_stmt 0 view .LVU23
 134 0028 891A     		subs	r1, r1, r2
 135              	.LVL9:
 136              		.loc 2 559 53 view .LVU24
 137 002a 01EBD171 		add	r1, r1, r1, lsr #31
 138              		.loc 2 559 24 view .LVU25
 139 002e 2B68     		ldr	r3, [r5]
 140 0030 03EB6101 		add	r1, r3, r1, asr #1
 141 0034 2960     		str	r1, [r5]
 560:Middlewares/LVGL/GUI/lvgl/src/extra/layouts/flex/lv_flex.c ****             break;
 142              		.loc 2 560 13 is_stmt 1 view .LVU26
 143              	.L3:
 561:Middlewares/LVGL/GUI/lvgl/src/extra/layouts/flex/lv_flex.c ****         case LV_FLEX_ALIGN_END:
 562:Middlewares/LVGL/GUI/lvgl/src/extra/layouts/flex/lv_flex.c ****             *gap = 0;
 563:Middlewares/LVGL/GUI/lvgl/src/extra/layouts/flex/lv_flex.c ****             *start_pos += max_size - content_size;
 564:Middlewares/LVGL/GUI/lvgl/src/extra/layouts/flex/lv_flex.c ****             break;
 565:Middlewares/LVGL/GUI/lvgl/src/extra/layouts/flex/lv_flex.c ****         case LV_FLEX_ALIGN_SPACE_BETWEEN:
 566:Middlewares/LVGL/GUI/lvgl/src/extra/layouts/flex/lv_flex.c ****             *gap = (lv_coord_t)(max_size - content_size) / (lv_coord_t)(item_cnt - 1);
 567:Middlewares/LVGL/GUI/lvgl/src/extra/layouts/flex/lv_flex.c ****             break;
 568:Middlewares/LVGL/GUI/lvgl/src/extra/layouts/flex/lv_flex.c ****         case LV_FLEX_ALIGN_SPACE_AROUND:
 569:Middlewares/LVGL/GUI/lvgl/src/extra/layouts/flex/lv_flex.c ****             *gap += (lv_coord_t)(max_size - content_size) / (lv_coord_t)(item_cnt);
 570:Middlewares/LVGL/GUI/lvgl/src/extra/layouts/flex/lv_flex.c ****             *start_pos += *gap / 2;
 571:Middlewares/LVGL/GUI/lvgl/src/extra/layouts/flex/lv_flex.c ****             break;
 572:Middlewares/LVGL/GUI/lvgl/src/extra/layouts/flex/lv_flex.c ****         case LV_FLEX_ALIGN_SPACE_EVENLY:
 573:Middlewares/LVGL/GUI/lvgl/src/extra/layouts/flex/lv_flex.c ****             *gap = (lv_coord_t)(max_size - content_size) / (lv_coord_t)(item_cnt + 1);
 574:Middlewares/LVGL/GUI/lvgl/src/extra/layouts/flex/lv_flex.c ****             *start_pos += *gap;
 575:Middlewares/LVGL/GUI/lvgl/src/extra/layouts/flex/lv_flex.c ****             break;
 576:Middlewares/LVGL/GUI/lvgl/src/extra/layouts/flex/lv_flex.c ****         default:
 577:Middlewares/LVGL/GUI/lvgl/src/extra/layouts/flex/lv_flex.c ****             *gap = 0;
 578:Middlewares/LVGL/GUI/lvgl/src/extra/layouts/flex/lv_flex.c ****     }
 579:Middlewares/LVGL/GUI/lvgl/src/extra/layouts/flex/lv_flex.c **** }
 144              		.loc 2 579 1 is_stmt 0 view .LVU27
ARM GAS  C:\Users\ADMINI~1\AppData\Local\Temp\ccyi9XNv.s 			page 16


 145 0036 30BC     		pop	{r4, r5}
 146              	.LCFI1:
 147              		.cfi_remember_state
 148              		.cfi_restore 5
 149              		.cfi_restore 4
 150              		.cfi_def_cfa_offset 0
 151              	.LVL10:
 152              		.loc 2 579 1 view .LVU28
 153 0038 7047     		bx	lr
 154              	.LVL11:
 155              	.L11:
 156              	.LCFI2:
 157              		.cfi_restore_state
 562:Middlewares/LVGL/GUI/lvgl/src/extra/layouts/flex/lv_flex.c ****             *start_pos += max_size - content_size;
 158              		.loc 2 562 13 is_stmt 1 view .LVU29
 562:Middlewares/LVGL/GUI/lvgl/src/extra/layouts/flex/lv_flex.c ****             *start_pos += max_size - content_size;
 159              		.loc 2 562 18 is_stmt 0 view .LVU30
 160 003a 0023     		movs	r3, #0
 161              	.LVL12:
 562:Middlewares/LVGL/GUI/lvgl/src/extra/layouts/flex/lv_flex.c ****             *start_pos += max_size - content_size;
 162              		.loc 2 562 18 view .LVU31
 163 003c 2360     		str	r3, [r4]
 563:Middlewares/LVGL/GUI/lvgl/src/extra/layouts/flex/lv_flex.c ****             break;
 164              		.loc 2 563 13 is_stmt 1 view .LVU32
 563:Middlewares/LVGL/GUI/lvgl/src/extra/layouts/flex/lv_flex.c ****             break;
 165              		.loc 2 563 36 is_stmt 0 view .LVU33
 166 003e 891A     		subs	r1, r1, r2
 167              	.LVL13:
 563:Middlewares/LVGL/GUI/lvgl/src/extra/layouts/flex/lv_flex.c ****             break;
 168              		.loc 2 563 24 view .LVU34
 169 0040 2B68     		ldr	r3, [r5]
 170 0042 1944     		add	r1, r1, r3
 171 0044 2960     		str	r1, [r5]
 564:Middlewares/LVGL/GUI/lvgl/src/extra/layouts/flex/lv_flex.c ****         case LV_FLEX_ALIGN_SPACE_BETWEEN:
 172              		.loc 2 564 13 is_stmt 1 view .LVU35
 173 0046 F6E7     		b	.L3
 174              	.LVL14:
 175              	.L7:
 566:Middlewares/LVGL/GUI/lvgl/src/extra/layouts/flex/lv_flex.c ****             break;
 176              		.loc 2 566 13 view .LVU36
 566:Middlewares/LVGL/GUI/lvgl/src/extra/layouts/flex/lv_flex.c ****             break;
 177              		.loc 2 566 42 is_stmt 0 view .LVU37
 178 0048 891A     		subs	r1, r1, r2
 179              	.LVL15:
 566:Middlewares/LVGL/GUI/lvgl/src/extra/layouts/flex/lv_flex.c ****             break;
 180              		.loc 2 566 60 view .LVU38
 181 004a 013B     		subs	r3, r3, #1
 182              	.LVL16:
 566:Middlewares/LVGL/GUI/lvgl/src/extra/layouts/flex/lv_flex.c ****             break;
 183              		.loc 2 566 58 view .LVU39
 184 004c 91FBF3F1 		sdiv	r1, r1, r3
 566:Middlewares/LVGL/GUI/lvgl/src/extra/layouts/flex/lv_flex.c ****             break;
 185              		.loc 2 566 18 view .LVU40
 186 0050 2160     		str	r1, [r4]
 567:Middlewares/LVGL/GUI/lvgl/src/extra/layouts/flex/lv_flex.c ****         case LV_FLEX_ALIGN_SPACE_AROUND:
 187              		.loc 2 567 13 is_stmt 1 view .LVU41
 188 0052 F0E7     		b	.L3
ARM GAS  C:\Users\ADMINI~1\AppData\Local\Temp\ccyi9XNv.s 			page 17


 189              	.LVL17:
 190              	.L9:
 569:Middlewares/LVGL/GUI/lvgl/src/extra/layouts/flex/lv_flex.c ****             *start_pos += *gap / 2;
 191              		.loc 2 569 13 view .LVU42
 569:Middlewares/LVGL/GUI/lvgl/src/extra/layouts/flex/lv_flex.c ****             *start_pos += *gap / 2;
 192              		.loc 2 569 43 is_stmt 0 view .LVU43
 193 0054 891A     		subs	r1, r1, r2
 194              	.LVL18:
 569:Middlewares/LVGL/GUI/lvgl/src/extra/layouts/flex/lv_flex.c ****             *start_pos += *gap / 2;
 195              		.loc 2 569 59 view .LVU44
 196 0056 91FBF3F1 		sdiv	r1, r1, r3
 569:Middlewares/LVGL/GUI/lvgl/src/extra/layouts/flex/lv_flex.c ****             *start_pos += *gap / 2;
 197              		.loc 2 569 18 view .LVU45
 198 005a 2368     		ldr	r3, [r4]
 199              	.LVL19:
 569:Middlewares/LVGL/GUI/lvgl/src/extra/layouts/flex/lv_flex.c ****             *start_pos += *gap / 2;
 200              		.loc 2 569 18 view .LVU46
 201 005c 1944     		add	r1, r1, r3
 202 005e 2160     		str	r1, [r4]
 570:Middlewares/LVGL/GUI/lvgl/src/extra/layouts/flex/lv_flex.c ****             break;
 203              		.loc 2 570 13 is_stmt 1 view .LVU47
 570:Middlewares/LVGL/GUI/lvgl/src/extra/layouts/flex/lv_flex.c ****             break;
 204              		.loc 2 570 32 is_stmt 0 view .LVU48
 205 0060 01EBD171 		add	r1, r1, r1, lsr #31
 570:Middlewares/LVGL/GUI/lvgl/src/extra/layouts/flex/lv_flex.c ****             break;
 206              		.loc 2 570 24 view .LVU49
 207 0064 2B68     		ldr	r3, [r5]
 208 0066 03EB6101 		add	r1, r3, r1, asr #1
 209 006a 2960     		str	r1, [r5]
 571:Middlewares/LVGL/GUI/lvgl/src/extra/layouts/flex/lv_flex.c ****         case LV_FLEX_ALIGN_SPACE_EVENLY:
 210              		.loc 2 571 13 is_stmt 1 view .LVU50
 211 006c E3E7     		b	.L3
 212              	.LVL20:
 213              	.L10:
 573:Middlewares/LVGL/GUI/lvgl/src/extra/layouts/flex/lv_flex.c ****             *start_pos += *gap;
 214              		.loc 2 573 13 view .LVU51
 573:Middlewares/LVGL/GUI/lvgl/src/extra/layouts/flex/lv_flex.c ****             *start_pos += *gap;
 215              		.loc 2 573 42 is_stmt 0 view .LVU52
 216 006e 891A     		subs	r1, r1, r2
 217              	.LVL21:
 573:Middlewares/LVGL/GUI/lvgl/src/extra/layouts/flex/lv_flex.c ****             *start_pos += *gap;
 218              		.loc 2 573 60 view .LVU53
 219 0070 0133     		adds	r3, r3, #1
 220              	.LVL22:
 573:Middlewares/LVGL/GUI/lvgl/src/extra/layouts/flex/lv_flex.c ****             *start_pos += *gap;
 221              		.loc 2 573 58 view .LVU54
 222 0072 91FBF3F1 		sdiv	r1, r1, r3
 573:Middlewares/LVGL/GUI/lvgl/src/extra/layouts/flex/lv_flex.c ****             *start_pos += *gap;
 223              		.loc 2 573 18 view .LVU55
 224 0076 2160     		str	r1, [r4]
 574:Middlewares/LVGL/GUI/lvgl/src/extra/layouts/flex/lv_flex.c ****             break;
 225              		.loc 2 574 13 is_stmt 1 view .LVU56
 574:Middlewares/LVGL/GUI/lvgl/src/extra/layouts/flex/lv_flex.c ****             break;
 226              		.loc 2 574 24 is_stmt 0 view .LVU57
 227 0078 2B68     		ldr	r3, [r5]
 228              	.LVL23:
 574:Middlewares/LVGL/GUI/lvgl/src/extra/layouts/flex/lv_flex.c ****             break;
ARM GAS  C:\Users\ADMINI~1\AppData\Local\Temp\ccyi9XNv.s 			page 18


 229              		.loc 2 574 24 view .LVU58
 230 007a 1944     		add	r1, r1, r3
 231 007c 2960     		str	r1, [r5]
 575:Middlewares/LVGL/GUI/lvgl/src/extra/layouts/flex/lv_flex.c ****         default:
 232              		.loc 2 575 13 is_stmt 1 view .LVU59
 233 007e DAE7     		b	.L3
 234              	.LVL24:
 235              	.L6:
 577:Middlewares/LVGL/GUI/lvgl/src/extra/layouts/flex/lv_flex.c ****     }
 236              		.loc 2 577 13 view .LVU60
 577:Middlewares/LVGL/GUI/lvgl/src/extra/layouts/flex/lv_flex.c ****     }
 237              		.loc 2 577 18 is_stmt 0 view .LVU61
 238 0080 0023     		movs	r3, #0
 239              	.LVL25:
 577:Middlewares/LVGL/GUI/lvgl/src/extra/layouts/flex/lv_flex.c ****     }
 240              		.loc 2 577 18 view .LVU62
 241 0082 2360     		str	r3, [r4]
 242              		.loc 2 579 1 view .LVU63
 243 0084 D7E7     		b	.L3
 244              		.cfi_endproc
 245              	.LFE186:
 247              		.section	.text.get_next_item,"ax",%progbits
 248              		.align	1
 249              		.syntax unified
 250              		.thumb
 251              		.thumb_func
 253              	get_next_item:
 254              	.LVL26:
 255              	.LFB187:
 580:Middlewares/LVGL/GUI/lvgl/src/extra/layouts/flex/lv_flex.c **** 
 581:Middlewares/LVGL/GUI/lvgl/src/extra/layouts/flex/lv_flex.c **** static lv_obj_t * get_next_item(lv_obj_t * cont, bool rev, int32_t * item_id)
 582:Middlewares/LVGL/GUI/lvgl/src/extra/layouts/flex/lv_flex.c **** {
 256              		.loc 2 582 1 is_stmt 1 view -0
 257              		.cfi_startproc
 258              		@ args = 0, pretend = 0, frame = 0
 259              		@ frame_needed = 0, uses_anonymous_args = 0
 260              		@ link register save eliminated.
 583:Middlewares/LVGL/GUI/lvgl/src/extra/layouts/flex/lv_flex.c ****     if(rev) {
 261              		.loc 2 583 5 view .LVU65
 262              		.loc 2 583 7 is_stmt 0 view .LVU66
 263 0000 49B1     		cbz	r1, .L16
 584:Middlewares/LVGL/GUI/lvgl/src/extra/layouts/flex/lv_flex.c ****         (*item_id)--;
 264              		.loc 2 584 9 is_stmt 1 view .LVU67
 265              		.loc 2 584 10 is_stmt 0 view .LVU68
 266 0002 1368     		ldr	r3, [r2]
 267              		.loc 2 584 19 view .LVU69
 268 0004 013B     		subs	r3, r3, #1
 269 0006 1360     		str	r3, [r2]
 585:Middlewares/LVGL/GUI/lvgl/src/extra/layouts/flex/lv_flex.c ****         if(*item_id >= 0) return cont->spec_attr->children[*item_id];
 270              		.loc 2 585 9 is_stmt 1 view .LVU70
 271              		.loc 2 585 11 is_stmt 0 view .LVU71
 272 0008 002B     		cmp	r3, #0
 273 000a 0FDB     		blt	.L18
 274              		.loc 2 585 27 is_stmt 1 discriminator 1 view .LVU72
 275              		.loc 2 585 38 is_stmt 0 discriminator 1 view .LVU73
 276 000c 8268     		ldr	r2, [r0, #8]
 277              	.LVL27:
ARM GAS  C:\Users\ADMINI~1\AppData\Local\Temp\ccyi9XNv.s 			page 19


 278              		.loc 2 585 49 discriminator 1 view .LVU74
 279 000e 1268     		ldr	r2, [r2]
 280              		.loc 2 585 59 discriminator 1 view .LVU75
 281 0010 52F82300 		ldr	r0, [r2, r3, lsl #2]
 282              	.LVL28:
 283              		.loc 2 585 59 discriminator 1 view .LVU76
 284 0014 7047     		bx	lr
 285              	.LVL29:
 286              	.L16:
 586:Middlewares/LVGL/GUI/lvgl/src/extra/layouts/flex/lv_flex.c ****         else return NULL;
 587:Middlewares/LVGL/GUI/lvgl/src/extra/layouts/flex/lv_flex.c ****     }
 588:Middlewares/LVGL/GUI/lvgl/src/extra/layouts/flex/lv_flex.c ****     else {
 589:Middlewares/LVGL/GUI/lvgl/src/extra/layouts/flex/lv_flex.c ****         (*item_id)++;
 287              		.loc 2 589 9 is_stmt 1 view .LVU77
 288              		.loc 2 589 10 is_stmt 0 view .LVU78
 289 0016 1368     		ldr	r3, [r2]
 290              		.loc 2 589 19 view .LVU79
 291 0018 0133     		adds	r3, r3, #1
 292 001a 1360     		str	r3, [r2]
 590:Middlewares/LVGL/GUI/lvgl/src/extra/layouts/flex/lv_flex.c ****         if((*item_id) < (int32_t)cont->spec_attr->child_cnt) return cont->spec_attr->children[*item
 293              		.loc 2 590 9 is_stmt 1 view .LVU80
 294              		.loc 2 590 38 is_stmt 0 view .LVU81
 295 001c 8268     		ldr	r2, [r0, #8]
 296              	.LVL30:
 297              		.loc 2 590 49 view .LVU82
 298 001e 5168     		ldr	r1, [r2, #4]
 299              	.LVL31:
 300              		.loc 2 590 11 view .LVU83
 301 0020 8B42     		cmp	r3, r1
 302 0022 05DA     		bge	.L19
 303              		.loc 2 590 62 is_stmt 1 discriminator 1 view .LVU84
 304              		.loc 2 590 84 is_stmt 0 discriminator 1 view .LVU85
 305 0024 1268     		ldr	r2, [r2]
 306              		.loc 2 590 94 discriminator 1 view .LVU86
 307 0026 52F82300 		ldr	r0, [r2, r3, lsl #2]
 308              	.LVL32:
 309              		.loc 2 590 94 discriminator 1 view .LVU87
 310 002a 7047     		bx	lr
 311              	.LVL33:
 312              	.L18:
 586:Middlewares/LVGL/GUI/lvgl/src/extra/layouts/flex/lv_flex.c ****         else return NULL;
 313              		.loc 2 586 21 view .LVU88
 314 002c 0020     		movs	r0, #0
 315              	.LVL34:
 586:Middlewares/LVGL/GUI/lvgl/src/extra/layouts/flex/lv_flex.c ****         else return NULL;
 316              		.loc 2 586 21 view .LVU89
 317 002e 7047     		bx	lr
 318              	.LVL35:
 319              	.L19:
 591:Middlewares/LVGL/GUI/lvgl/src/extra/layouts/flex/lv_flex.c ****         else return NULL;
 320              		.loc 2 591 21 view .LVU90
 321 0030 0020     		movs	r0, #0
 322              	.LVL36:
 592:Middlewares/LVGL/GUI/lvgl/src/extra/layouts/flex/lv_flex.c ****     }
 593:Middlewares/LVGL/GUI/lvgl/src/extra/layouts/flex/lv_flex.c **** }
 323              		.loc 2 593 1 view .LVU91
 324 0032 7047     		bx	lr
ARM GAS  C:\Users\ADMINI~1\AppData\Local\Temp\ccyi9XNv.s 			page 20


 325              		.cfi_endproc
 326              	.LFE187:
 328              		.section	.text.find_track_end,"ax",%progbits
 329              		.align	1
 330              		.syntax unified
 331              		.thumb
 332              		.thumb_func
 334              	find_track_end:
 335              	.LVL37:
 336              	.LFB184:
 319:Middlewares/LVGL/GUI/lvgl/src/extra/layouts/flex/lv_flex.c ****     lv_coord_t w_set = lv_obj_get_style_width(cont, LV_PART_MAIN);
 337              		.loc 2 319 1 is_stmt 1 view -0
 338              		.cfi_startproc
 339              		@ args = 8, pretend = 0, frame = 16
 340              		@ frame_needed = 0, uses_anonymous_args = 0
 319:Middlewares/LVGL/GUI/lvgl/src/extra/layouts/flex/lv_flex.c ****     lv_coord_t w_set = lv_obj_get_style_width(cont, LV_PART_MAIN);
 341              		.loc 2 319 1 is_stmt 0 view .LVU93
 342 0000 2DE9F04F 		push	{r4, r5, r6, r7, r8, r9, r10, fp, lr}
 343              	.LCFI3:
 344              		.cfi_def_cfa_offset 36
 345              		.cfi_offset 4, -36
 346              		.cfi_offset 5, -32
 347              		.cfi_offset 6, -28
 348              		.cfi_offset 7, -24
 349              		.cfi_offset 8, -20
 350              		.cfi_offset 9, -16
 351              		.cfi_offset 10, -12
 352              		.cfi_offset 11, -8
 353              		.cfi_offset 14, -4
 354 0004 85B0     		sub	sp, sp, #20
 355              	.LCFI4:
 356              		.cfi_def_cfa_offset 56
 357 0006 8146     		mov	r9, r0
 358 0008 0E46     		mov	r6, r1
 359 000a 9046     		mov	r8, r2
 360 000c 0093     		str	r3, [sp]
 361 000e 0F9D     		ldr	r5, [sp, #60]
 320:Middlewares/LVGL/GUI/lvgl/src/extra/layouts/flex/lv_flex.c ****     lv_coord_t h_set = lv_obj_get_style_height(cont, LV_PART_MAIN);
 362              		.loc 2 320 5 is_stmt 1 view .LVU94
 363              	.LVL38:
 364              	.LBB64:
 365              	.LBI64:
 366              		.file 3 "Middlewares/LVGL/GUI/lvgl/src/extra/layouts/flex/../flex/../../../core/lv_obj_style_gen.h
   1:Middlewares/LVGL/GUI/lvgl/src/extra/layouts/flex/../flex/../../../core/lv_obj_style_gen.h **** static inline lv_coord_t lv_obj_get_style_width(const struct _lv_obj_t * obj, uint32_t part)
 367              		.loc 3 1 26 view .LVU95
 368              	.LBB65:
   2:Middlewares/LVGL/GUI/lvgl/src/extra/layouts/flex/../flex/../../../core/lv_obj_style_gen.h **** {
   3:Middlewares/LVGL/GUI/lvgl/src/extra/layouts/flex/../flex/../../../core/lv_obj_style_gen.h ****     lv_style_value_t v = lv_obj_get_style_prop(obj, part, LV_STYLE_WIDTH);
 369              		.loc 3 3 5 view .LVU96
 370              		.loc 3 3 26 is_stmt 0 view .LVU97
 371 0010 41F20102 		movw	r2, #4097
 372              	.LVL39:
 373              		.loc 3 3 26 view .LVU98
 374 0014 0021     		movs	r1, #0
 375              	.LVL40:
 376              		.loc 3 3 26 view .LVU99
 377 0016 FFF7FEFF 		bl	lv_obj_get_style_prop
ARM GAS  C:\Users\ADMINI~1\AppData\Local\Temp\ccyi9XNv.s 			page 21


 378              	.LVL41:
 379              		.loc 3 3 26 view .LVU100
 380 001a 0446     		mov	r4, r0
   4:Middlewares/LVGL/GUI/lvgl/src/extra/layouts/flex/../flex/../../../core/lv_obj_style_gen.h ****     return (lv_coord_t)v.num;
 381              		.loc 3 4 5 is_stmt 1 view .LVU101
 382              	.LVL42:
 383              		.loc 3 4 5 is_stmt 0 view .LVU102
 384              	.LBE65:
 385              	.LBE64:
 321:Middlewares/LVGL/GUI/lvgl/src/extra/layouts/flex/lv_flex.c **** 
 386              		.loc 2 321 5 is_stmt 1 view .LVU103
 387              	.LBB66:
 388              	.LBI66:
   5:Middlewares/LVGL/GUI/lvgl/src/extra/layouts/flex/../flex/../../../core/lv_obj_style_gen.h **** }
   6:Middlewares/LVGL/GUI/lvgl/src/extra/layouts/flex/../flex/../../../core/lv_obj_style_gen.h **** 
   7:Middlewares/LVGL/GUI/lvgl/src/extra/layouts/flex/../flex/../../../core/lv_obj_style_gen.h **** static inline lv_coord_t lv_obj_get_style_min_width(const struct _lv_obj_t * obj, uint32_t part)
   8:Middlewares/LVGL/GUI/lvgl/src/extra/layouts/flex/../flex/../../../core/lv_obj_style_gen.h **** {
   9:Middlewares/LVGL/GUI/lvgl/src/extra/layouts/flex/../flex/../../../core/lv_obj_style_gen.h ****     lv_style_value_t v = lv_obj_get_style_prop(obj, part, LV_STYLE_MIN_WIDTH);
  10:Middlewares/LVGL/GUI/lvgl/src/extra/layouts/flex/../flex/../../../core/lv_obj_style_gen.h ****     return (lv_coord_t)v.num;
  11:Middlewares/LVGL/GUI/lvgl/src/extra/layouts/flex/../flex/../../../core/lv_obj_style_gen.h **** }
  12:Middlewares/LVGL/GUI/lvgl/src/extra/layouts/flex/../flex/../../../core/lv_obj_style_gen.h **** 
  13:Middlewares/LVGL/GUI/lvgl/src/extra/layouts/flex/../flex/../../../core/lv_obj_style_gen.h **** static inline lv_coord_t lv_obj_get_style_max_width(const struct _lv_obj_t * obj, uint32_t part)
  14:Middlewares/LVGL/GUI/lvgl/src/extra/layouts/flex/../flex/../../../core/lv_obj_style_gen.h **** {
  15:Middlewares/LVGL/GUI/lvgl/src/extra/layouts/flex/../flex/../../../core/lv_obj_style_gen.h ****     lv_style_value_t v = lv_obj_get_style_prop(obj, part, LV_STYLE_MAX_WIDTH);
  16:Middlewares/LVGL/GUI/lvgl/src/extra/layouts/flex/../flex/../../../core/lv_obj_style_gen.h ****     return (lv_coord_t)v.num;
  17:Middlewares/LVGL/GUI/lvgl/src/extra/layouts/flex/../flex/../../../core/lv_obj_style_gen.h **** }
  18:Middlewares/LVGL/GUI/lvgl/src/extra/layouts/flex/../flex/../../../core/lv_obj_style_gen.h **** 
  19:Middlewares/LVGL/GUI/lvgl/src/extra/layouts/flex/../flex/../../../core/lv_obj_style_gen.h **** static inline lv_coord_t lv_obj_get_style_height(const struct _lv_obj_t * obj, uint32_t part)
 389              		.loc 3 19 26 view .LVU104
 390              	.LBB67:
  20:Middlewares/LVGL/GUI/lvgl/src/extra/layouts/flex/../flex/../../../core/lv_obj_style_gen.h **** {
  21:Middlewares/LVGL/GUI/lvgl/src/extra/layouts/flex/../flex/../../../core/lv_obj_style_gen.h ****     lv_style_value_t v = lv_obj_get_style_prop(obj, part, LV_STYLE_HEIGHT);
 391              		.loc 3 21 5 view .LVU105
 392              		.loc 3 21 26 is_stmt 0 view .LVU106
 393 001c 41F20402 		movw	r2, #4100
 394 0020 0021     		movs	r1, #0
 395 0022 4846     		mov	r0, r9
 396              	.LVL43:
 397              		.loc 3 21 26 view .LVU107
 398 0024 FFF7FEFF 		bl	lv_obj_get_style_prop
 399              	.LVL44:
  22:Middlewares/LVGL/GUI/lvgl/src/extra/layouts/flex/../flex/../../../core/lv_obj_style_gen.h ****     return (lv_coord_t)v.num;
 400              		.loc 3 22 5 is_stmt 1 view .LVU108
 401              		.loc 3 22 5 is_stmt 0 view .LVU109
 402              	.LBE67:
 403              	.LBE66:
 324:Middlewares/LVGL/GUI/lvgl/src/extra/layouts/flex/lv_flex.c ****         f->wrap = false;
 404              		.loc 2 324 5 is_stmt 1 view .LVU110
 324:Middlewares/LVGL/GUI/lvgl/src/extra/layouts/flex/lv_flex.c ****         f->wrap = false;
 405              		.loc 2 324 8 is_stmt 0 view .LVU111
 406 0028 F378     		ldrb	r3, [r6, #3]	@ zero_extendqisi2
 324:Middlewares/LVGL/GUI/lvgl/src/extra/layouts/flex/lv_flex.c ****         f->wrap = false;
 407              		.loc 2 324 7 view .LVU112
 408 002a 13F0020F 		tst	r3, #2
 409 002e 0DD0     		beq	.L21
 324:Middlewares/LVGL/GUI/lvgl/src/extra/layouts/flex/lv_flex.c ****         f->wrap = false;
 410              		.loc 2 324 16 discriminator 1 view .LVU113
ARM GAS  C:\Users\ADMINI~1\AppData\Local\Temp\ccyi9XNv.s 			page 22


 411 0030 13F00103 		ands	r3, r3, #1
 412 0034 02D0     		beq	.L22
 324:Middlewares/LVGL/GUI/lvgl/src/extra/layouts/flex/lv_flex.c ****         f->wrap = false;
 413              		.loc 2 324 28 discriminator 2 view .LVU114
 414 0036 854A     		ldr	r2, .L52
 415 0038 9442     		cmp	r4, r2
 416 003a 03D0     		beq	.L23
 417              	.L22:
 324:Middlewares/LVGL/GUI/lvgl/src/extra/layouts/flex/lv_flex.c ****         f->wrap = false;
 418              		.loc 2 324 57 discriminator 4 view .LVU115
 419 003c 33B9     		cbnz	r3, .L21
 324:Middlewares/LVGL/GUI/lvgl/src/extra/layouts/flex/lv_flex.c ****         f->wrap = false;
 420              		.loc 2 324 69 discriminator 5 view .LVU116
 421 003e 834B     		ldr	r3, .L52
 422 0040 9842     		cmp	r0, r3
 423 0042 03D1     		bne	.L21
 424              	.L23:
 325:Middlewares/LVGL/GUI/lvgl/src/extra/layouts/flex/lv_flex.c ****     }
 425              		.loc 2 325 9 is_stmt 1 view .LVU117
 325:Middlewares/LVGL/GUI/lvgl/src/extra/layouts/flex/lv_flex.c ****     }
 426              		.loc 2 325 17 is_stmt 0 view .LVU118
 427 0044 F378     		ldrb	r3, [r6, #3]	@ zero_extendqisi2
 428 0046 6FF34103 		bfc	r3, #1, #1
 429 004a F370     		strb	r3, [r6, #3]
 430              	.L21:
 327:Middlewares/LVGL/GUI/lvgl/src/extra/layouts/flex/lv_flex.c ****     lv_coord_t(*get_cross_size)(const lv_obj_t *) = (!f->row ? lv_obj_get_width : lv_obj_get_height
 431              		.loc 2 327 5 is_stmt 1 view .LVU119
 327:Middlewares/LVGL/GUI/lvgl/src/extra/layouts/flex/lv_flex.c ****     lv_coord_t(*get_cross_size)(const lv_obj_t *) = (!f->row ? lv_obj_get_width : lv_obj_get_height
 432              		.loc 2 327 60 is_stmt 0 view .LVU120
 433 004c F378     		ldrb	r3, [r6, #3]	@ zero_extendqisi2
 327:Middlewares/LVGL/GUI/lvgl/src/extra/layouts/flex/lv_flex.c ****     lv_coord_t(*get_cross_size)(const lv_obj_t *) = (!f->row ? lv_obj_get_width : lv_obj_get_height
 434              		.loc 2 327 17 view .LVU121
 435 004e 13F00103 		ands	r3, r3, #1
 436 0052 13D0     		beq	.L46
 437 0054 7E4A     		ldr	r2, .L52+4
 438 0056 0192     		str	r2, [sp, #4]
 439              	.L24:
 440              	.LVL45:
 328:Middlewares/LVGL/GUI/lvgl/src/extra/layouts/flex/lv_flex.c **** 
 441              		.loc 2 328 5 is_stmt 1 discriminator 4 view .LVU122
 328:Middlewares/LVGL/GUI/lvgl/src/extra/layouts/flex/lv_flex.c **** 
 442              		.loc 2 328 17 is_stmt 0 discriminator 4 view .LVU123
 443 0058 9BB9     		cbnz	r3, .L47
 328:Middlewares/LVGL/GUI/lvgl/src/extra/layouts/flex/lv_flex.c **** 
 444              		.loc 2 328 17 view .LVU124
 445 005a DFF8F4A1 		ldr	r10, .L52+4
 446              	.L25:
 447              	.LVL46:
 330:Middlewares/LVGL/GUI/lvgl/src/extra/layouts/flex/lv_flex.c ****     t->track_fix_main_size = 0;
 448              		.loc 2 330 5 is_stmt 1 discriminator 4 view .LVU125
 330:Middlewares/LVGL/GUI/lvgl/src/extra/layouts/flex/lv_flex.c ****     t->track_fix_main_size = 0;
 449              		.loc 2 330 24 is_stmt 0 discriminator 4 view .LVU126
 450 005e 0023     		movs	r3, #0
 451 0060 6B60     		str	r3, [r5, #4]
 331:Middlewares/LVGL/GUI/lvgl/src/extra/layouts/flex/lv_flex.c ****     t->grow_item_cnt = 0;
 452              		.loc 2 331 5 is_stmt 1 discriminator 4 view .LVU127
 331:Middlewares/LVGL/GUI/lvgl/src/extra/layouts/flex/lv_flex.c ****     t->grow_item_cnt = 0;
ARM GAS  C:\Users\ADMINI~1\AppData\Local\Temp\ccyi9XNv.s 			page 23


 453              		.loc 2 331 28 is_stmt 0 discriminator 4 view .LVU128
 454 0062 AB60     		str	r3, [r5, #8]
 332:Middlewares/LVGL/GUI/lvgl/src/extra/layouts/flex/lv_flex.c ****     t->track_cross_size = 0;
 455              		.loc 2 332 5 is_stmt 1 discriminator 4 view .LVU129
 332:Middlewares/LVGL/GUI/lvgl/src/extra/layouts/flex/lv_flex.c ****     t->track_cross_size = 0;
 456              		.loc 2 332 22 is_stmt 0 discriminator 4 view .LVU130
 457 0064 6B61     		str	r3, [r5, #20]
 333:Middlewares/LVGL/GUI/lvgl/src/extra/layouts/flex/lv_flex.c ****     t->item_cnt = 0;
 458              		.loc 2 333 5 is_stmt 1 discriminator 4 view .LVU131
 333:Middlewares/LVGL/GUI/lvgl/src/extra/layouts/flex/lv_flex.c ****     t->item_cnt = 0;
 459              		.loc 2 333 25 is_stmt 0 discriminator 4 view .LVU132
 460 0066 2B60     		str	r3, [r5]
 334:Middlewares/LVGL/GUI/lvgl/src/extra/layouts/flex/lv_flex.c ****     t->grow_dsc = NULL;
 461              		.loc 2 334 5 is_stmt 1 discriminator 4 view .LVU133
 334:Middlewares/LVGL/GUI/lvgl/src/extra/layouts/flex/lv_flex.c ****     t->grow_dsc = NULL;
 462              		.loc 2 334 17 is_stmt 0 discriminator 4 view .LVU134
 463 0068 EB60     		str	r3, [r5, #12]
 335:Middlewares/LVGL/GUI/lvgl/src/extra/layouts/flex/lv_flex.c **** 
 464              		.loc 2 335 5 is_stmt 1 discriminator 4 view .LVU135
 335:Middlewares/LVGL/GUI/lvgl/src/extra/layouts/flex/lv_flex.c **** 
 465              		.loc 2 335 17 is_stmt 0 discriminator 4 view .LVU136
 466 006a 2B61     		str	r3, [r5, #16]
 337:Middlewares/LVGL/GUI/lvgl/src/extra/layouts/flex/lv_flex.c **** 
 467              		.loc 2 337 5 is_stmt 1 discriminator 4 view .LVU137
 337:Middlewares/LVGL/GUI/lvgl/src/extra/layouts/flex/lv_flex.c **** 
 468              		.loc 2 337 13 is_stmt 0 discriminator 4 view .LVU138
 469 006c CDF80C80 		str	r8, [sp, #12]
 339:Middlewares/LVGL/GUI/lvgl/src/extra/layouts/flex/lv_flex.c ****     while(item) {
 470              		.loc 2 339 5 is_stmt 1 discriminator 4 view .LVU139
 339:Middlewares/LVGL/GUI/lvgl/src/extra/layouts/flex/lv_flex.c ****     while(item) {
 471              		.loc 2 339 23 is_stmt 0 discriminator 4 view .LVU140
 472 0070 4146     		mov	r1, r8
 473 0072 4846     		mov	r0, r9
 474              	.LVL47:
 339:Middlewares/LVGL/GUI/lvgl/src/extra/layouts/flex/lv_flex.c ****     while(item) {
 475              		.loc 2 339 23 discriminator 4 view .LVU141
 476 0074 FFF7FEFF 		bl	lv_obj_get_child
 477              	.LVL48:
 478 0078 0446     		mov	r4, r0
 479              	.LVL49:
 340:Middlewares/LVGL/GUI/lvgl/src/extra/layouts/flex/lv_flex.c ****         if(item_id != item_start_id && lv_obj_has_flag(item, LV_OBJ_FLAG_FLEX_IN_NEW_TRACK)) break;
 480              		.loc 2 340 5 is_stmt 1 discriminator 4 view .LVU142
 340:Middlewares/LVGL/GUI/lvgl/src/extra/layouts/flex/lv_flex.c ****         if(item_id != item_start_id && lv_obj_has_flag(item, LV_OBJ_FLAG_FLEX_IN_NEW_TRACK)) break;
 481              		.loc 2 340 10 is_stmt 0 discriminator 4 view .LVU143
 482 007a A3E0     		b	.L26
 483              	.LVL50:
 484              	.L46:
 327:Middlewares/LVGL/GUI/lvgl/src/extra/layouts/flex/lv_flex.c ****     lv_coord_t(*get_cross_size)(const lv_obj_t *) = (!f->row ? lv_obj_get_width : lv_obj_get_height
 485              		.loc 2 327 17 view .LVU144
 486 007c 754A     		ldr	r2, .L52+8
 487 007e 0192     		str	r2, [sp, #4]
 488 0080 EAE7     		b	.L24
 489              	.LVL51:
 490              	.L47:
 328:Middlewares/LVGL/GUI/lvgl/src/extra/layouts/flex/lv_flex.c **** 
 491              		.loc 2 328 17 view .LVU145
 492 0082 DFF8D0A1 		ldr	r10, .L52+8
ARM GAS  C:\Users\ADMINI~1\AppData\Local\Temp\ccyi9XNv.s 			page 24


 493 0086 EAE7     		b	.L25
 494              	.LVL52:
 495              	.L50:
 496              	.LBB68:
 344:Middlewares/LVGL/GUI/lvgl/src/extra/layouts/flex/lv_flex.c ****             if(grow_value) {
 497              		.loc 2 344 13 is_stmt 1 view .LVU146
 498              	.LBB69:
 499              	.LBI69:
 500              		.file 4 "Middlewares/LVGL/GUI/lvgl/src/extra/layouts/flex/../flex/lv_flex.h"
   1:Middlewares/LVGL/GUI/lvgl/src/extra/layouts/flex/../flex/lv_flex.h **** /**
   2:Middlewares/LVGL/GUI/lvgl/src/extra/layouts/flex/../flex/lv_flex.h ****  * @file lv_flex.h
   3:Middlewares/LVGL/GUI/lvgl/src/extra/layouts/flex/../flex/lv_flex.h ****  *
   4:Middlewares/LVGL/GUI/lvgl/src/extra/layouts/flex/../flex/lv_flex.h ****  */
   5:Middlewares/LVGL/GUI/lvgl/src/extra/layouts/flex/../flex/lv_flex.h **** 
   6:Middlewares/LVGL/GUI/lvgl/src/extra/layouts/flex/../flex/lv_flex.h **** #ifndef LV_FLEX_H
   7:Middlewares/LVGL/GUI/lvgl/src/extra/layouts/flex/../flex/lv_flex.h **** #define LV_FLEX_H
   8:Middlewares/LVGL/GUI/lvgl/src/extra/layouts/flex/../flex/lv_flex.h **** 
   9:Middlewares/LVGL/GUI/lvgl/src/extra/layouts/flex/../flex/lv_flex.h **** #ifdef __cplusplus
  10:Middlewares/LVGL/GUI/lvgl/src/extra/layouts/flex/../flex/lv_flex.h **** extern "C" {
  11:Middlewares/LVGL/GUI/lvgl/src/extra/layouts/flex/../flex/lv_flex.h **** #endif
  12:Middlewares/LVGL/GUI/lvgl/src/extra/layouts/flex/../flex/lv_flex.h **** 
  13:Middlewares/LVGL/GUI/lvgl/src/extra/layouts/flex/../flex/lv_flex.h **** /*********************
  14:Middlewares/LVGL/GUI/lvgl/src/extra/layouts/flex/../flex/lv_flex.h ****  *      INCLUDES
  15:Middlewares/LVGL/GUI/lvgl/src/extra/layouts/flex/../flex/lv_flex.h ****  *********************/
  16:Middlewares/LVGL/GUI/lvgl/src/extra/layouts/flex/../flex/lv_flex.h **** #include "../../../core/lv_obj.h"
  17:Middlewares/LVGL/GUI/lvgl/src/extra/layouts/flex/../flex/lv_flex.h **** #if LV_USE_FLEX
  18:Middlewares/LVGL/GUI/lvgl/src/extra/layouts/flex/../flex/lv_flex.h **** 
  19:Middlewares/LVGL/GUI/lvgl/src/extra/layouts/flex/../flex/lv_flex.h **** /*********************
  20:Middlewares/LVGL/GUI/lvgl/src/extra/layouts/flex/../flex/lv_flex.h ****  *      DEFINES
  21:Middlewares/LVGL/GUI/lvgl/src/extra/layouts/flex/../flex/lv_flex.h ****  *********************/
  22:Middlewares/LVGL/GUI/lvgl/src/extra/layouts/flex/../flex/lv_flex.h **** 
  23:Middlewares/LVGL/GUI/lvgl/src/extra/layouts/flex/../flex/lv_flex.h **** #define LV_OBJ_FLAG_FLEX_IN_NEW_TRACK   LV_OBJ_FLAG_LAYOUT_1
  24:Middlewares/LVGL/GUI/lvgl/src/extra/layouts/flex/../flex/lv_flex.h **** LV_EXPORT_CONST_INT(LV_OBJ_FLAG_FLEX_IN_NEW_TRACK);
  25:Middlewares/LVGL/GUI/lvgl/src/extra/layouts/flex/../flex/lv_flex.h **** 
  26:Middlewares/LVGL/GUI/lvgl/src/extra/layouts/flex/../flex/lv_flex.h **** #define _LV_FLEX_COLUMN        (1 << 0)
  27:Middlewares/LVGL/GUI/lvgl/src/extra/layouts/flex/../flex/lv_flex.h **** #define _LV_FLEX_WRAP       (1 << 2)
  28:Middlewares/LVGL/GUI/lvgl/src/extra/layouts/flex/../flex/lv_flex.h **** #define _LV_FLEX_REVERSE    (1 << 3)
  29:Middlewares/LVGL/GUI/lvgl/src/extra/layouts/flex/../flex/lv_flex.h **** 
  30:Middlewares/LVGL/GUI/lvgl/src/extra/layouts/flex/../flex/lv_flex.h **** /**********************
  31:Middlewares/LVGL/GUI/lvgl/src/extra/layouts/flex/../flex/lv_flex.h ****  *      TYPEDEFS
  32:Middlewares/LVGL/GUI/lvgl/src/extra/layouts/flex/../flex/lv_flex.h ****  **********************/
  33:Middlewares/LVGL/GUI/lvgl/src/extra/layouts/flex/../flex/lv_flex.h **** 
  34:Middlewares/LVGL/GUI/lvgl/src/extra/layouts/flex/../flex/lv_flex.h **** /*Can't include lv_obj.h because it includes this header file*/
  35:Middlewares/LVGL/GUI/lvgl/src/extra/layouts/flex/../flex/lv_flex.h **** struct _lv_obj_t;
  36:Middlewares/LVGL/GUI/lvgl/src/extra/layouts/flex/../flex/lv_flex.h **** 
  37:Middlewares/LVGL/GUI/lvgl/src/extra/layouts/flex/../flex/lv_flex.h **** typedef enum {
  38:Middlewares/LVGL/GUI/lvgl/src/extra/layouts/flex/../flex/lv_flex.h ****     LV_FLEX_ALIGN_START,
  39:Middlewares/LVGL/GUI/lvgl/src/extra/layouts/flex/../flex/lv_flex.h ****     LV_FLEX_ALIGN_END,
  40:Middlewares/LVGL/GUI/lvgl/src/extra/layouts/flex/../flex/lv_flex.h ****     LV_FLEX_ALIGN_CENTER,
  41:Middlewares/LVGL/GUI/lvgl/src/extra/layouts/flex/../flex/lv_flex.h ****     LV_FLEX_ALIGN_SPACE_EVENLY,
  42:Middlewares/LVGL/GUI/lvgl/src/extra/layouts/flex/../flex/lv_flex.h ****     LV_FLEX_ALIGN_SPACE_AROUND,
  43:Middlewares/LVGL/GUI/lvgl/src/extra/layouts/flex/../flex/lv_flex.h ****     LV_FLEX_ALIGN_SPACE_BETWEEN,
  44:Middlewares/LVGL/GUI/lvgl/src/extra/layouts/flex/../flex/lv_flex.h **** } lv_flex_align_t;
  45:Middlewares/LVGL/GUI/lvgl/src/extra/layouts/flex/../flex/lv_flex.h **** 
  46:Middlewares/LVGL/GUI/lvgl/src/extra/layouts/flex/../flex/lv_flex.h **** typedef enum {
  47:Middlewares/LVGL/GUI/lvgl/src/extra/layouts/flex/../flex/lv_flex.h ****     LV_FLEX_FLOW_ROW                 = 0x00,
  48:Middlewares/LVGL/GUI/lvgl/src/extra/layouts/flex/../flex/lv_flex.h ****     LV_FLEX_FLOW_COLUMN              = _LV_FLEX_COLUMN,
ARM GAS  C:\Users\ADMINI~1\AppData\Local\Temp\ccyi9XNv.s 			page 25


  49:Middlewares/LVGL/GUI/lvgl/src/extra/layouts/flex/../flex/lv_flex.h ****     LV_FLEX_FLOW_ROW_WRAP            = LV_FLEX_FLOW_ROW | _LV_FLEX_WRAP,
  50:Middlewares/LVGL/GUI/lvgl/src/extra/layouts/flex/../flex/lv_flex.h ****     LV_FLEX_FLOW_ROW_REVERSE         = LV_FLEX_FLOW_ROW | _LV_FLEX_REVERSE,
  51:Middlewares/LVGL/GUI/lvgl/src/extra/layouts/flex/../flex/lv_flex.h ****     LV_FLEX_FLOW_ROW_WRAP_REVERSE    = LV_FLEX_FLOW_ROW | _LV_FLEX_WRAP | _LV_FLEX_REVERSE,
  52:Middlewares/LVGL/GUI/lvgl/src/extra/layouts/flex/../flex/lv_flex.h ****     LV_FLEX_FLOW_COLUMN_WRAP         = LV_FLEX_FLOW_COLUMN | _LV_FLEX_WRAP,
  53:Middlewares/LVGL/GUI/lvgl/src/extra/layouts/flex/../flex/lv_flex.h ****     LV_FLEX_FLOW_COLUMN_REVERSE      = LV_FLEX_FLOW_COLUMN | _LV_FLEX_REVERSE,
  54:Middlewares/LVGL/GUI/lvgl/src/extra/layouts/flex/../flex/lv_flex.h ****     LV_FLEX_FLOW_COLUMN_WRAP_REVERSE = LV_FLEX_FLOW_COLUMN | _LV_FLEX_WRAP | _LV_FLEX_REVERSE,
  55:Middlewares/LVGL/GUI/lvgl/src/extra/layouts/flex/../flex/lv_flex.h **** } lv_flex_flow_t;
  56:Middlewares/LVGL/GUI/lvgl/src/extra/layouts/flex/../flex/lv_flex.h **** 
  57:Middlewares/LVGL/GUI/lvgl/src/extra/layouts/flex/../flex/lv_flex.h **** /**********************
  58:Middlewares/LVGL/GUI/lvgl/src/extra/layouts/flex/../flex/lv_flex.h ****  * GLOBAL VARIABLES
  59:Middlewares/LVGL/GUI/lvgl/src/extra/layouts/flex/../flex/lv_flex.h ****  **********************/
  60:Middlewares/LVGL/GUI/lvgl/src/extra/layouts/flex/../flex/lv_flex.h **** extern uint32_t LV_LAYOUT_FLEX;
  61:Middlewares/LVGL/GUI/lvgl/src/extra/layouts/flex/../flex/lv_flex.h **** extern lv_style_prop_t LV_STYLE_FLEX_FLOW;
  62:Middlewares/LVGL/GUI/lvgl/src/extra/layouts/flex/../flex/lv_flex.h **** extern lv_style_prop_t LV_STYLE_FLEX_MAIN_PLACE;
  63:Middlewares/LVGL/GUI/lvgl/src/extra/layouts/flex/../flex/lv_flex.h **** extern lv_style_prop_t LV_STYLE_FLEX_CROSS_PLACE;
  64:Middlewares/LVGL/GUI/lvgl/src/extra/layouts/flex/../flex/lv_flex.h **** extern lv_style_prop_t LV_STYLE_FLEX_TRACK_PLACE;
  65:Middlewares/LVGL/GUI/lvgl/src/extra/layouts/flex/../flex/lv_flex.h **** extern lv_style_prop_t LV_STYLE_FLEX_GROW;
  66:Middlewares/LVGL/GUI/lvgl/src/extra/layouts/flex/../flex/lv_flex.h **** 
  67:Middlewares/LVGL/GUI/lvgl/src/extra/layouts/flex/../flex/lv_flex.h **** /**********************
  68:Middlewares/LVGL/GUI/lvgl/src/extra/layouts/flex/../flex/lv_flex.h ****  * GLOBAL PROTOTYPES
  69:Middlewares/LVGL/GUI/lvgl/src/extra/layouts/flex/../flex/lv_flex.h ****  **********************/
  70:Middlewares/LVGL/GUI/lvgl/src/extra/layouts/flex/../flex/lv_flex.h **** 
  71:Middlewares/LVGL/GUI/lvgl/src/extra/layouts/flex/../flex/lv_flex.h **** /**
  72:Middlewares/LVGL/GUI/lvgl/src/extra/layouts/flex/../flex/lv_flex.h ****  * Initialize a flex layout the default values
  73:Middlewares/LVGL/GUI/lvgl/src/extra/layouts/flex/../flex/lv_flex.h ****  * @param flex pointer to a flex layout descriptor
  74:Middlewares/LVGL/GUI/lvgl/src/extra/layouts/flex/../flex/lv_flex.h ****  */
  75:Middlewares/LVGL/GUI/lvgl/src/extra/layouts/flex/../flex/lv_flex.h **** void lv_flex_init(void);
  76:Middlewares/LVGL/GUI/lvgl/src/extra/layouts/flex/../flex/lv_flex.h **** 
  77:Middlewares/LVGL/GUI/lvgl/src/extra/layouts/flex/../flex/lv_flex.h **** /**
  78:Middlewares/LVGL/GUI/lvgl/src/extra/layouts/flex/../flex/lv_flex.h ****  * Set hot the item should flow
  79:Middlewares/LVGL/GUI/lvgl/src/extra/layouts/flex/../flex/lv_flex.h ****  * @param flex pointer to a flex layout descriptor
  80:Middlewares/LVGL/GUI/lvgl/src/extra/layouts/flex/../flex/lv_flex.h ****  * @param flow an element of `lv_flex_flow_t`.
  81:Middlewares/LVGL/GUI/lvgl/src/extra/layouts/flex/../flex/lv_flex.h ****  */
  82:Middlewares/LVGL/GUI/lvgl/src/extra/layouts/flex/../flex/lv_flex.h **** void lv_obj_set_flex_flow(lv_obj_t * obj, lv_flex_flow_t flow);
  83:Middlewares/LVGL/GUI/lvgl/src/extra/layouts/flex/../flex/lv_flex.h **** 
  84:Middlewares/LVGL/GUI/lvgl/src/extra/layouts/flex/../flex/lv_flex.h **** /**
  85:Middlewares/LVGL/GUI/lvgl/src/extra/layouts/flex/../flex/lv_flex.h ****  * Set how to place (where to align) the items and tracks
  86:Middlewares/LVGL/GUI/lvgl/src/extra/layouts/flex/../flex/lv_flex.h ****  * @param flex pointer: to a flex layout descriptor
  87:Middlewares/LVGL/GUI/lvgl/src/extra/layouts/flex/../flex/lv_flex.h ****  * @param main_place where to place the items on main axis (in their track). Any value of `lv_flex_
  88:Middlewares/LVGL/GUI/lvgl/src/extra/layouts/flex/../flex/lv_flex.h ****  * @param cross_place where to place the item in their track on the cross axis. `LV_FLEX_ALIGN_STAR
  89:Middlewares/LVGL/GUI/lvgl/src/extra/layouts/flex/../flex/lv_flex.h ****  * @param track_place where to place the tracks in the cross direction. Any value of `lv_flex_align
  90:Middlewares/LVGL/GUI/lvgl/src/extra/layouts/flex/../flex/lv_flex.h ****  */
  91:Middlewares/LVGL/GUI/lvgl/src/extra/layouts/flex/../flex/lv_flex.h **** void lv_obj_set_flex_align(lv_obj_t * obj, lv_flex_align_t main_place, lv_flex_align_t cross_place,
  92:Middlewares/LVGL/GUI/lvgl/src/extra/layouts/flex/../flex/lv_flex.h ****                            lv_flex_align_t track_cross_place);
  93:Middlewares/LVGL/GUI/lvgl/src/extra/layouts/flex/../flex/lv_flex.h **** 
  94:Middlewares/LVGL/GUI/lvgl/src/extra/layouts/flex/../flex/lv_flex.h **** /**
  95:Middlewares/LVGL/GUI/lvgl/src/extra/layouts/flex/../flex/lv_flex.h ****  * Sets the width or height (on main axis) to grow the object in order fill the free space
  96:Middlewares/LVGL/GUI/lvgl/src/extra/layouts/flex/../flex/lv_flex.h ****  * @param obj pointer to an object. The parent must have flex layout else nothing will happen.
  97:Middlewares/LVGL/GUI/lvgl/src/extra/layouts/flex/../flex/lv_flex.h ****  * @param grow a value to set how much free space to take proportionally to other growing items.
  98:Middlewares/LVGL/GUI/lvgl/src/extra/layouts/flex/../flex/lv_flex.h ****  */
  99:Middlewares/LVGL/GUI/lvgl/src/extra/layouts/flex/../flex/lv_flex.h **** void lv_obj_set_flex_grow(lv_obj_t * obj, uint8_t grow);
 100:Middlewares/LVGL/GUI/lvgl/src/extra/layouts/flex/../flex/lv_flex.h **** 
 101:Middlewares/LVGL/GUI/lvgl/src/extra/layouts/flex/../flex/lv_flex.h **** void lv_style_set_flex_flow(lv_style_t * style, lv_flex_flow_t value);
 102:Middlewares/LVGL/GUI/lvgl/src/extra/layouts/flex/../flex/lv_flex.h **** void lv_style_set_flex_main_place(lv_style_t * style, lv_flex_align_t value);
 103:Middlewares/LVGL/GUI/lvgl/src/extra/layouts/flex/../flex/lv_flex.h **** void lv_style_set_flex_cross_place(lv_style_t * style, lv_flex_align_t value);
 104:Middlewares/LVGL/GUI/lvgl/src/extra/layouts/flex/../flex/lv_flex.h **** void lv_style_set_flex_track_place(lv_style_t * style, lv_flex_align_t value);
 105:Middlewares/LVGL/GUI/lvgl/src/extra/layouts/flex/../flex/lv_flex.h **** void lv_style_set_flex_grow(lv_style_t * style, uint8_t value);
ARM GAS  C:\Users\ADMINI~1\AppData\Local\Temp\ccyi9XNv.s 			page 26


 106:Middlewares/LVGL/GUI/lvgl/src/extra/layouts/flex/../flex/lv_flex.h **** void lv_obj_set_style_flex_flow(lv_obj_t * obj, lv_flex_flow_t value, lv_style_selector_t selector)
 107:Middlewares/LVGL/GUI/lvgl/src/extra/layouts/flex/../flex/lv_flex.h **** void lv_obj_set_style_flex_main_place(lv_obj_t * obj, lv_flex_align_t value, lv_style_selector_t se
 108:Middlewares/LVGL/GUI/lvgl/src/extra/layouts/flex/../flex/lv_flex.h **** void lv_obj_set_style_flex_cross_place(lv_obj_t * obj, lv_flex_align_t value, lv_style_selector_t s
 109:Middlewares/LVGL/GUI/lvgl/src/extra/layouts/flex/../flex/lv_flex.h **** void lv_obj_set_style_flex_track_place(lv_obj_t * obj, lv_flex_align_t value, lv_style_selector_t s
 110:Middlewares/LVGL/GUI/lvgl/src/extra/layouts/flex/../flex/lv_flex.h **** void lv_obj_set_style_flex_grow(lv_obj_t * obj, uint8_t value, lv_style_selector_t selector);
 111:Middlewares/LVGL/GUI/lvgl/src/extra/layouts/flex/../flex/lv_flex.h **** 
 112:Middlewares/LVGL/GUI/lvgl/src/extra/layouts/flex/../flex/lv_flex.h **** static inline lv_flex_flow_t lv_obj_get_style_flex_flow(const lv_obj_t * obj, uint32_t part)
 113:Middlewares/LVGL/GUI/lvgl/src/extra/layouts/flex/../flex/lv_flex.h **** {
 114:Middlewares/LVGL/GUI/lvgl/src/extra/layouts/flex/../flex/lv_flex.h ****     lv_style_value_t v = lv_obj_get_style_prop(obj, part, LV_STYLE_FLEX_FLOW);
 115:Middlewares/LVGL/GUI/lvgl/src/extra/layouts/flex/../flex/lv_flex.h ****     return (lv_flex_flow_t)v.num;
 116:Middlewares/LVGL/GUI/lvgl/src/extra/layouts/flex/../flex/lv_flex.h **** }
 117:Middlewares/LVGL/GUI/lvgl/src/extra/layouts/flex/../flex/lv_flex.h **** 
 118:Middlewares/LVGL/GUI/lvgl/src/extra/layouts/flex/../flex/lv_flex.h **** static inline lv_flex_align_t lv_obj_get_style_flex_main_place(const lv_obj_t * obj, uint32_t part)
 119:Middlewares/LVGL/GUI/lvgl/src/extra/layouts/flex/../flex/lv_flex.h **** {
 120:Middlewares/LVGL/GUI/lvgl/src/extra/layouts/flex/../flex/lv_flex.h ****     lv_style_value_t v = lv_obj_get_style_prop(obj, part, LV_STYLE_FLEX_MAIN_PLACE);
 121:Middlewares/LVGL/GUI/lvgl/src/extra/layouts/flex/../flex/lv_flex.h ****     return (lv_flex_align_t)v.num;
 122:Middlewares/LVGL/GUI/lvgl/src/extra/layouts/flex/../flex/lv_flex.h **** }
 123:Middlewares/LVGL/GUI/lvgl/src/extra/layouts/flex/../flex/lv_flex.h **** 
 124:Middlewares/LVGL/GUI/lvgl/src/extra/layouts/flex/../flex/lv_flex.h **** static inline lv_flex_align_t lv_obj_get_style_flex_cross_place(const lv_obj_t * obj, uint32_t part
 125:Middlewares/LVGL/GUI/lvgl/src/extra/layouts/flex/../flex/lv_flex.h **** {
 126:Middlewares/LVGL/GUI/lvgl/src/extra/layouts/flex/../flex/lv_flex.h ****     lv_style_value_t v = lv_obj_get_style_prop(obj, part, LV_STYLE_FLEX_CROSS_PLACE);
 127:Middlewares/LVGL/GUI/lvgl/src/extra/layouts/flex/../flex/lv_flex.h ****     return (lv_flex_align_t)v.num;
 128:Middlewares/LVGL/GUI/lvgl/src/extra/layouts/flex/../flex/lv_flex.h **** }
 129:Middlewares/LVGL/GUI/lvgl/src/extra/layouts/flex/../flex/lv_flex.h **** 
 130:Middlewares/LVGL/GUI/lvgl/src/extra/layouts/flex/../flex/lv_flex.h **** static inline lv_flex_align_t lv_obj_get_style_flex_track_place(const lv_obj_t * obj, uint32_t part
 131:Middlewares/LVGL/GUI/lvgl/src/extra/layouts/flex/../flex/lv_flex.h **** {
 132:Middlewares/LVGL/GUI/lvgl/src/extra/layouts/flex/../flex/lv_flex.h ****     lv_style_value_t v = lv_obj_get_style_prop(obj, part, LV_STYLE_FLEX_TRACK_PLACE);
 133:Middlewares/LVGL/GUI/lvgl/src/extra/layouts/flex/../flex/lv_flex.h ****     return (lv_flex_align_t)v.num;
 134:Middlewares/LVGL/GUI/lvgl/src/extra/layouts/flex/../flex/lv_flex.h **** }
 135:Middlewares/LVGL/GUI/lvgl/src/extra/layouts/flex/../flex/lv_flex.h **** 
 136:Middlewares/LVGL/GUI/lvgl/src/extra/layouts/flex/../flex/lv_flex.h **** static inline uint8_t lv_obj_get_style_flex_grow(const lv_obj_t * obj, uint32_t part)
 501              		.loc 4 136 23 view .LVU147
 502              	.LBB70:
 137:Middlewares/LVGL/GUI/lvgl/src/extra/layouts/flex/../flex/lv_flex.h **** {
 138:Middlewares/LVGL/GUI/lvgl/src/extra/layouts/flex/../flex/lv_flex.h ****     lv_style_value_t v = lv_obj_get_style_prop(obj, part, LV_STYLE_FLEX_GROW);
 503              		.loc 4 138 5 view .LVU148
 504              		.loc 4 138 26 is_stmt 0 view .LVU149
 505 0088 734B     		ldr	r3, .L52+12
 506 008a 1A88     		ldrh	r2, [r3]
 507 008c 0021     		movs	r1, #0
 508 008e 2046     		mov	r0, r4
 509 0090 FFF7FEFF 		bl	lv_obj_get_style_prop
 510              	.LVL53:
 511 0094 0746     		mov	r7, r0
 139:Middlewares/LVGL/GUI/lvgl/src/extra/layouts/flex/../flex/lv_flex.h ****     return (uint8_t)v.num;
 512              		.loc 4 139 5 is_stmt 1 view .LVU150
 513              	.LVL54:
 514              		.loc 4 139 5 is_stmt 0 view .LVU151
 515              	.LBE70:
 516              	.LBE69:
 345:Middlewares/LVGL/GUI/lvgl/src/extra/layouts/flex/lv_flex.c ****                 t->grow_item_cnt++;
 517              		.loc 2 345 13 is_stmt 1 view .LVU152
 345:Middlewares/LVGL/GUI/lvgl/src/extra/layouts/flex/lv_flex.c ****                 t->grow_item_cnt++;
 518              		.loc 2 345 15 is_stmt 0 view .LVU153
 519 0096 10F0FF0F 		tst	r0, #255
 520 009a 6BD0     		beq	.L30
 346:Middlewares/LVGL/GUI/lvgl/src/extra/layouts/flex/lv_flex.c ****                 t->track_fix_main_size += item_gap;
ARM GAS  C:\Users\ADMINI~1\AppData\Local\Temp\ccyi9XNv.s 			page 27


 521              		.loc 2 346 17 is_stmt 1 view .LVU154
 346:Middlewares/LVGL/GUI/lvgl/src/extra/layouts/flex/lv_flex.c ****                 t->track_fix_main_size += item_gap;
 522              		.loc 2 346 18 is_stmt 0 view .LVU155
 523 009c 6869     		ldr	r0, [r5, #20]
 524              	.LVL55:
 346:Middlewares/LVGL/GUI/lvgl/src/extra/layouts/flex/lv_flex.c ****                 t->track_fix_main_size += item_gap;
 525              		.loc 2 346 33 view .LVU156
 526 009e 0130     		adds	r0, r0, #1
 527 00a0 6861     		str	r0, [r5, #20]
 347:Middlewares/LVGL/GUI/lvgl/src/extra/layouts/flex/lv_flex.c ****                 if(t->grow_dsc_calc) {
 528              		.loc 2 347 17 is_stmt 1 view .LVU157
 347:Middlewares/LVGL/GUI/lvgl/src/extra/layouts/flex/lv_flex.c ****                 if(t->grow_dsc_calc) {
 529              		.loc 2 347 40 is_stmt 0 view .LVU158
 530 00a2 AB68     		ldr	r3, [r5, #8]
 531 00a4 0E9A     		ldr	r2, [sp, #56]
 532 00a6 1344     		add	r3, r3, r2
 533 00a8 AB60     		str	r3, [r5, #8]
 348:Middlewares/LVGL/GUI/lvgl/src/extra/layouts/flex/lv_flex.c ****                     grow_dsc_t * new_dsc = lv_mem_buf_get(sizeof(grow_dsc_t) * (t->grow_item_cnt));
 534              		.loc 2 348 17 is_stmt 1 view .LVU159
 348:Middlewares/LVGL/GUI/lvgl/src/extra/layouts/flex/lv_flex.c ****                     grow_dsc_t * new_dsc = lv_mem_buf_get(sizeof(grow_dsc_t) * (t->grow_item_cnt));
 535              		.loc 2 348 20 is_stmt 0 view .LVU160
 536 00aa 2B7E     		ldrb	r3, [r5, #24]	@ zero_extendqisi2
 348:Middlewares/LVGL/GUI/lvgl/src/extra/layouts/flex/lv_flex.c ****                     grow_dsc_t * new_dsc = lv_mem_buf_get(sizeof(grow_dsc_t) * (t->grow_item_cnt));
 537              		.loc 2 348 19 view .LVU161
 538 00ac 13F0010F 		tst	r3, #1
 539 00b0 71D0     		beq	.L31
 540              	.LBB71:
 349:Middlewares/LVGL/GUI/lvgl/src/extra/layouts/flex/lv_flex.c ****                     LV_ASSERT_MALLOC(new_dsc);
 541              		.loc 2 349 21 is_stmt 1 view .LVU162
 349:Middlewares/LVGL/GUI/lvgl/src/extra/layouts/flex/lv_flex.c ****                     LV_ASSERT_MALLOC(new_dsc);
 542              		.loc 2 349 44 is_stmt 0 view .LVU163
 543 00b2 00EB4000 		add	r0, r0, r0, lsl #1
 544 00b6 C000     		lsls	r0, r0, #3
 545 00b8 FFF7FEFF 		bl	lv_mem_buf_get
 546              	.LVL56:
 350:Middlewares/LVGL/GUI/lvgl/src/extra/layouts/flex/lv_flex.c ****                     if(new_dsc == NULL) return item_id;
 547              		.loc 2 350 21 is_stmt 1 view .LVU164
 350:Middlewares/LVGL/GUI/lvgl/src/extra/layouts/flex/lv_flex.c ****                     if(new_dsc == NULL) return item_id;
 548              		.loc 2 350 21 view .LVU165
 549 00bc 8346     		mov	fp, r0
 550 00be 0028     		cmp	r0, #0
 551 00c0 49D0     		beq	.L33
 350:Middlewares/LVGL/GUI/lvgl/src/extra/layouts/flex/lv_flex.c ****                     if(new_dsc == NULL) return item_id;
 552              		.loc 2 350 21 view .LVU166
 350:Middlewares/LVGL/GUI/lvgl/src/extra/layouts/flex/lv_flex.c ****                     if(new_dsc == NULL) return item_id;
 553              		.loc 2 350 46 view .LVU167
 351:Middlewares/LVGL/GUI/lvgl/src/extra/layouts/flex/lv_flex.c **** 
 554              		.loc 2 351 21 view .LVU168
 353:Middlewares/LVGL/GUI/lvgl/src/extra/layouts/flex/lv_flex.c ****                         lv_memcpy(new_dsc, t->grow_dsc, sizeof(grow_dsc_t) * (t->grow_item_cnt - 1)
 555              		.loc 2 353 21 view .LVU169
 353:Middlewares/LVGL/GUI/lvgl/src/extra/layouts/flex/lv_flex.c ****                         lv_memcpy(new_dsc, t->grow_dsc, sizeof(grow_dsc_t) * (t->grow_item_cnt - 1)
 556              		.loc 2 353 25 is_stmt 0 view .LVU170
 557 00c2 2969     		ldr	r1, [r5, #16]
 353:Middlewares/LVGL/GUI/lvgl/src/extra/layouts/flex/lv_flex.c ****                         lv_memcpy(new_dsc, t->grow_dsc, sizeof(grow_dsc_t) * (t->grow_item_cnt - 1)
 558              		.loc 2 353 23 view .LVU171
 559 00c4 49B1     		cbz	r1, .L34
 354:Middlewares/LVGL/GUI/lvgl/src/extra/layouts/flex/lv_flex.c ****                         lv_mem_buf_release(t->grow_dsc);
ARM GAS  C:\Users\ADMINI~1\AppData\Local\Temp\ccyi9XNv.s 			page 28


 560              		.loc 2 354 25 is_stmt 1 view .LVU172
 354:Middlewares/LVGL/GUI/lvgl/src/extra/layouts/flex/lv_flex.c ****                         lv_mem_buf_release(t->grow_dsc);
 561              		.loc 2 354 80 is_stmt 0 view .LVU173
 562 00c6 6B69     		ldr	r3, [r5, #20]
 354:Middlewares/LVGL/GUI/lvgl/src/extra/layouts/flex/lv_flex.c ****                         lv_mem_buf_release(t->grow_dsc);
 563              		.loc 2 354 25 view .LVU174
 564 00c8 03EB4303 		add	r3, r3, r3, lsl #1
 565 00cc DA00     		lsls	r2, r3, #3
 566 00ce 183A     		subs	r2, r2, #24
 567 00d0 FFF7FEFF 		bl	lv_memcpy
 568              	.LVL57:
 355:Middlewares/LVGL/GUI/lvgl/src/extra/layouts/flex/lv_flex.c ****                     }
 569              		.loc 2 355 25 is_stmt 1 view .LVU175
 570 00d4 2869     		ldr	r0, [r5, #16]
 571 00d6 FFF7FEFF 		bl	lv_mem_buf_release
 572              	.LVL58:
 573              	.L34:
 357:Middlewares/LVGL/GUI/lvgl/src/extra/layouts/flex/lv_flex.c ****                     new_dsc[t->grow_item_cnt - 1].min_size = f->row ? lv_obj_get_style_min_width(it
 574              		.loc 2 357 21 view .LVU176
 357:Middlewares/LVGL/GUI/lvgl/src/extra/layouts/flex/lv_flex.c ****                     new_dsc[t->grow_item_cnt - 1].min_size = f->row ? lv_obj_get_style_min_width(it
 575              		.loc 2 357 30 is_stmt 0 view .LVU177
 576 00da 6B69     		ldr	r3, [r5, #20]
 357:Middlewares/LVGL/GUI/lvgl/src/extra/layouts/flex/lv_flex.c ****                     new_dsc[t->grow_item_cnt - 1].min_size = f->row ? lv_obj_get_style_min_width(it
 577              		.loc 2 357 28 view .LVU178
 578 00dc 03EB4303 		add	r3, r3, r3, lsl #1
 579 00e0 DB00     		lsls	r3, r3, #3
 580 00e2 183B     		subs	r3, r3, #24
 357:Middlewares/LVGL/GUI/lvgl/src/extra/layouts/flex/lv_flex.c ****                     new_dsc[t->grow_item_cnt - 1].min_size = f->row ? lv_obj_get_style_min_width(it
 581              		.loc 2 357 56 view .LVU179
 582 00e4 4BF80340 		str	r4, [fp, r3]
 358:Middlewares/LVGL/GUI/lvgl/src/extra/layouts/flex/lv_flex.c ****                                                                                                  LV
 583              		.loc 2 358 21 is_stmt 1 view .LVU180
 358:Middlewares/LVGL/GUI/lvgl/src/extra/layouts/flex/lv_flex.c ****                                                                                                  LV
 584              		.loc 2 358 69 is_stmt 0 view .LVU181
 585 00e8 F378     		ldrb	r3, [r6, #3]	@ zero_extendqisi2
 359:Middlewares/LVGL/GUI/lvgl/src/extra/layouts/flex/lv_flex.c ****                     new_dsc[t->grow_item_cnt - 1].max_size = f->row ? lv_obj_get_style_max_width(it
 586              		.loc 2 359 112 view .LVU182
 587 00ea 13F0010F 		tst	r3, #1
 588 00ee 33D0     		beq	.L35
 589              	.LVL59:
 590              	.LBB72:
 591              	.LBI72:
   7:Middlewares/LVGL/GUI/lvgl/src/extra/layouts/flex/../flex/../../../core/lv_obj_style_gen.h **** {
 592              		.loc 3 7 26 is_stmt 1 view .LVU183
 593              	.LBB73:
   9:Middlewares/LVGL/GUI/lvgl/src/extra/layouts/flex/../flex/../../../core/lv_obj_style_gen.h ****     return (lv_coord_t)v.num;
 594              		.loc 3 9 5 view .LVU184
   9:Middlewares/LVGL/GUI/lvgl/src/extra/layouts/flex/../flex/../../../core/lv_obj_style_gen.h ****     return (lv_coord_t)v.num;
 595              		.loc 3 9 26 is_stmt 0 view .LVU185
 596 00f0 41F20202 		movw	r2, #4098
 597 00f4 0021     		movs	r1, #0
 598 00f6 2046     		mov	r0, r4
 599 00f8 FFF7FEFF 		bl	lv_obj_get_style_prop
 600              	.LVL60:
  10:Middlewares/LVGL/GUI/lvgl/src/extra/layouts/flex/../flex/../../../core/lv_obj_style_gen.h **** }
 601              		.loc 3 10 5 is_stmt 1 view .LVU186
 602              	.L36:
ARM GAS  C:\Users\ADMINI~1\AppData\Local\Temp\ccyi9XNv.s 			page 29


  10:Middlewares/LVGL/GUI/lvgl/src/extra/layouts/flex/../flex/../../../core/lv_obj_style_gen.h **** }
 603              		.loc 3 10 5 is_stmt 0 view .LVU187
 604              	.LBE73:
 605              	.LBE72:
 358:Middlewares/LVGL/GUI/lvgl/src/extra/layouts/flex/lv_flex.c ****                                                                                                  LV
 606              		.loc 2 358 30 discriminator 1 view .LVU188
 607 00fc 6B69     		ldr	r3, [r5, #20]
 358:Middlewares/LVGL/GUI/lvgl/src/extra/layouts/flex/lv_flex.c ****                                                                                                  LV
 608              		.loc 2 358 28 discriminator 1 view .LVU189
 609 00fe 03EB4303 		add	r3, r3, r3, lsl #1
 610 0102 DB00     		lsls	r3, r3, #3
 611 0104 183B     		subs	r3, r3, #24
 612 0106 5B44     		add	r3, r3, fp
 358:Middlewares/LVGL/GUI/lvgl/src/extra/layouts/flex/lv_flex.c ****                                                                                                  LV
 613              		.loc 2 358 60 discriminator 1 view .LVU190
 614 0108 5860     		str	r0, [r3, #4]
 360:Middlewares/LVGL/GUI/lvgl/src/extra/layouts/flex/lv_flex.c ****                                                                                                  LV
 615              		.loc 2 360 21 is_stmt 1 discriminator 1 view .LVU191
 360:Middlewares/LVGL/GUI/lvgl/src/extra/layouts/flex/lv_flex.c ****                                                                                                  LV
 616              		.loc 2 360 69 is_stmt 0 discriminator 1 view .LVU192
 617 010a F378     		ldrb	r3, [r6, #3]	@ zero_extendqisi2
 361:Middlewares/LVGL/GUI/lvgl/src/extra/layouts/flex/lv_flex.c ****                     new_dsc[t->grow_item_cnt - 1].grow_value = grow_value;
 618              		.loc 2 361 112 discriminator 1 view .LVU193
 619 010c 13F0010F 		tst	r3, #1
 620 0110 29D0     		beq	.L37
 621              	.LVL61:
 622              	.LBB74:
 623              	.LBI74:
  13:Middlewares/LVGL/GUI/lvgl/src/extra/layouts/flex/../flex/../../../core/lv_obj_style_gen.h **** {
 624              		.loc 3 13 26 is_stmt 1 view .LVU194
 625              	.LBB75:
  15:Middlewares/LVGL/GUI/lvgl/src/extra/layouts/flex/../flex/../../../core/lv_obj_style_gen.h ****     return (lv_coord_t)v.num;
 626              		.loc 3 15 5 view .LVU195
  15:Middlewares/LVGL/GUI/lvgl/src/extra/layouts/flex/../flex/../../../core/lv_obj_style_gen.h ****     return (lv_coord_t)v.num;
 627              		.loc 3 15 26 is_stmt 0 view .LVU196
 628 0112 41F20302 		movw	r2, #4099
 629 0116 0021     		movs	r1, #0
 630 0118 2046     		mov	r0, r4
 631 011a FFF7FEFF 		bl	lv_obj_get_style_prop
 632              	.LVL62:
  16:Middlewares/LVGL/GUI/lvgl/src/extra/layouts/flex/../flex/../../../core/lv_obj_style_gen.h **** }
 633              		.loc 3 16 5 is_stmt 1 view .LVU197
 634              	.L38:
  16:Middlewares/LVGL/GUI/lvgl/src/extra/layouts/flex/../flex/../../../core/lv_obj_style_gen.h **** }
 635              		.loc 3 16 5 is_stmt 0 view .LVU198
 636              	.LBE75:
 637              	.LBE74:
 360:Middlewares/LVGL/GUI/lvgl/src/extra/layouts/flex/lv_flex.c ****                                                                                                  LV
 638              		.loc 2 360 30 discriminator 1 view .LVU199
 639 011e 6B69     		ldr	r3, [r5, #20]
 360:Middlewares/LVGL/GUI/lvgl/src/extra/layouts/flex/lv_flex.c ****                                                                                                  LV
 640              		.loc 2 360 28 discriminator 1 view .LVU200
 641 0120 03EB4303 		add	r3, r3, r3, lsl #1
 642 0124 DB00     		lsls	r3, r3, #3
 643 0126 183B     		subs	r3, r3, #24
 644 0128 5B44     		add	r3, r3, fp
 360:Middlewares/LVGL/GUI/lvgl/src/extra/layouts/flex/lv_flex.c ****                                                                                                  LV
ARM GAS  C:\Users\ADMINI~1\AppData\Local\Temp\ccyi9XNv.s 			page 30


 645              		.loc 2 360 60 discriminator 1 view .LVU201
 646 012a 9860     		str	r0, [r3, #8]
 362:Middlewares/LVGL/GUI/lvgl/src/extra/layouts/flex/lv_flex.c ****                     new_dsc[t->grow_item_cnt - 1].clamped = 0;
 647              		.loc 2 362 21 is_stmt 1 discriminator 1 view .LVU202
 362:Middlewares/LVGL/GUI/lvgl/src/extra/layouts/flex/lv_flex.c ****                     new_dsc[t->grow_item_cnt - 1].clamped = 0;
 648              		.loc 2 362 30 is_stmt 0 discriminator 1 view .LVU203
 649 012c 6B69     		ldr	r3, [r5, #20]
 362:Middlewares/LVGL/GUI/lvgl/src/extra/layouts/flex/lv_flex.c ****                     new_dsc[t->grow_item_cnt - 1].clamped = 0;
 650              		.loc 2 362 28 discriminator 1 view .LVU204
 651 012e 03EB4303 		add	r3, r3, r3, lsl #1
 652 0132 DB00     		lsls	r3, r3, #3
 653 0134 183B     		subs	r3, r3, #24
 654 0136 5B44     		add	r3, r3, fp
 362:Middlewares/LVGL/GUI/lvgl/src/extra/layouts/flex/lv_flex.c ****                     new_dsc[t->grow_item_cnt - 1].clamped = 0;
 655              		.loc 2 362 62 discriminator 1 view .LVU205
 656 0138 FFB2     		uxtb	r7, r7
 657 013a 1F61     		str	r7, [r3, #16]
 363:Middlewares/LVGL/GUI/lvgl/src/extra/layouts/flex/lv_flex.c ****                     t->grow_dsc = new_dsc;
 658              		.loc 2 363 21 is_stmt 1 discriminator 1 view .LVU206
 363:Middlewares/LVGL/GUI/lvgl/src/extra/layouts/flex/lv_flex.c ****                     t->grow_dsc = new_dsc;
 659              		.loc 2 363 30 is_stmt 0 discriminator 1 view .LVU207
 660 013c 6B69     		ldr	r3, [r5, #20]
 363:Middlewares/LVGL/GUI/lvgl/src/extra/layouts/flex/lv_flex.c ****                     t->grow_dsc = new_dsc;
 661              		.loc 2 363 28 discriminator 1 view .LVU208
 662 013e 03EB4303 		add	r3, r3, r3, lsl #1
 663 0142 DB00     		lsls	r3, r3, #3
 664 0144 183B     		subs	r3, r3, #24
 665 0146 5B44     		add	r3, r3, fp
 363:Middlewares/LVGL/GUI/lvgl/src/extra/layouts/flex/lv_flex.c ****                     t->grow_dsc = new_dsc;
 666              		.loc 2 363 59 discriminator 1 view .LVU209
 667 0148 1A7D     		ldrb	r2, [r3, #20]	@ zero_extendqisi2
 668 014a 6FF30002 		bfc	r2, #0, #1
 669 014e 1A75     		strb	r2, [r3, #20]
 364:Middlewares/LVGL/GUI/lvgl/src/extra/layouts/flex/lv_flex.c ****                 }
 670              		.loc 2 364 21 is_stmt 1 discriminator 1 view .LVU210
 364:Middlewares/LVGL/GUI/lvgl/src/extra/layouts/flex/lv_flex.c ****                 }
 671              		.loc 2 364 33 is_stmt 0 discriminator 1 view .LVU211
 672 0150 C5F810B0 		str	fp, [r5, #16]
 673 0154 1FE0     		b	.L31
 674              	.LVL63:
 675              	.L33:
 350:Middlewares/LVGL/GUI/lvgl/src/extra/layouts/flex/lv_flex.c ****                     if(new_dsc == NULL) return item_id;
 676              		.loc 2 350 21 is_stmt 1 discriminator 1 view .LVU212
 350:Middlewares/LVGL/GUI/lvgl/src/extra/layouts/flex/lv_flex.c ****                     if(new_dsc == NULL) return item_id;
 677              		.loc 2 350 21 discriminator 1 view .LVU213
 350:Middlewares/LVGL/GUI/lvgl/src/extra/layouts/flex/lv_flex.c ****                     if(new_dsc == NULL) return item_id;
 678              		.loc 2 350 21 discriminator 1 view .LVU214
 350:Middlewares/LVGL/GUI/lvgl/src/extra/layouts/flex/lv_flex.c ****                     if(new_dsc == NULL) return item_id;
 679              		.loc 2 350 21 discriminator 1 view .LVU215
 350:Middlewares/LVGL/GUI/lvgl/src/extra/layouts/flex/lv_flex.c ****                     if(new_dsc == NULL) return item_id;
 680              		.loc 2 350 21 discriminator 1 view .LVU216
 350:Middlewares/LVGL/GUI/lvgl/src/extra/layouts/flex/lv_flex.c ****                     if(new_dsc == NULL) return item_id;
 681              		.loc 2 350 21 discriminator 1 view .LVU217
 682 0156 FEE7     		b	.L33
 683              	.LVL64:
 684              	.L35:
 685              	.LBB76:
ARM GAS  C:\Users\ADMINI~1\AppData\Local\Temp\ccyi9XNv.s 			page 31


 686              	.LBI76:
  23:Middlewares/LVGL/GUI/lvgl/src/extra/layouts/flex/../flex/../../../core/lv_obj_style_gen.h **** }
  24:Middlewares/LVGL/GUI/lvgl/src/extra/layouts/flex/../flex/../../../core/lv_obj_style_gen.h **** 
  25:Middlewares/LVGL/GUI/lvgl/src/extra/layouts/flex/../flex/../../../core/lv_obj_style_gen.h **** static inline lv_coord_t lv_obj_get_style_min_height(const struct _lv_obj_t * obj, uint32_t part)
 687              		.loc 3 25 26 view .LVU218
 688              	.LBB77:
  26:Middlewares/LVGL/GUI/lvgl/src/extra/layouts/flex/../flex/../../../core/lv_obj_style_gen.h **** {
  27:Middlewares/LVGL/GUI/lvgl/src/extra/layouts/flex/../flex/../../../core/lv_obj_style_gen.h ****     lv_style_value_t v = lv_obj_get_style_prop(obj, part, LV_STYLE_MIN_HEIGHT);
 689              		.loc 3 27 5 view .LVU219
 690              		.loc 3 27 26 is_stmt 0 view .LVU220
 691 0158 41F20502 		movw	r2, #4101
 692 015c 0021     		movs	r1, #0
 693 015e 2046     		mov	r0, r4
 694 0160 FFF7FEFF 		bl	lv_obj_get_style_prop
 695              	.LVL65:
  28:Middlewares/LVGL/GUI/lvgl/src/extra/layouts/flex/../flex/../../../core/lv_obj_style_gen.h ****     return (lv_coord_t)v.num;
 696              		.loc 3 28 5 is_stmt 1 view .LVU221
 697              		.loc 3 28 5 is_stmt 0 view .LVU222
 698 0164 CAE7     		b	.L36
 699              	.L37:
 700              	.LVL66:
 701              		.loc 3 28 5 view .LVU223
 702              	.LBE77:
 703              	.LBE76:
 704              	.LBB78:
 705              	.LBI78:
  29:Middlewares/LVGL/GUI/lvgl/src/extra/layouts/flex/../flex/../../../core/lv_obj_style_gen.h **** }
  30:Middlewares/LVGL/GUI/lvgl/src/extra/layouts/flex/../flex/../../../core/lv_obj_style_gen.h **** 
  31:Middlewares/LVGL/GUI/lvgl/src/extra/layouts/flex/../flex/../../../core/lv_obj_style_gen.h **** static inline lv_coord_t lv_obj_get_style_max_height(const struct _lv_obj_t * obj, uint32_t part)
 706              		.loc 3 31 26 is_stmt 1 view .LVU224
 707              	.LBB79:
  32:Middlewares/LVGL/GUI/lvgl/src/extra/layouts/flex/../flex/../../../core/lv_obj_style_gen.h **** {
  33:Middlewares/LVGL/GUI/lvgl/src/extra/layouts/flex/../flex/../../../core/lv_obj_style_gen.h ****     lv_style_value_t v = lv_obj_get_style_prop(obj, part, LV_STYLE_MAX_HEIGHT);
 708              		.loc 3 33 5 view .LVU225
 709              		.loc 3 33 26 is_stmt 0 view .LVU226
 710 0166 41F20602 		movw	r2, #4102
 711 016a 0021     		movs	r1, #0
 712 016c 2046     		mov	r0, r4
 713 016e FFF7FEFF 		bl	lv_obj_get_style_prop
 714              	.LVL67:
  34:Middlewares/LVGL/GUI/lvgl/src/extra/layouts/flex/../flex/../../../core/lv_obj_style_gen.h ****     return (lv_coord_t)v.num;
 715              		.loc 3 34 5 is_stmt 1 view .LVU227
 716              		.loc 3 34 5 is_stmt 0 view .LVU228
 717 0172 D4E7     		b	.L38
 718              	.LVL68:
 719              	.L30:
 720              		.loc 3 34 5 view .LVU229
 721              	.LBE79:
 722              	.LBE78:
 723              	.LBE71:
 724              	.LBB80:
 368:Middlewares/LVGL/GUI/lvgl/src/extra/layouts/flex/lv_flex.c ****                 if(f->wrap && t->track_fix_main_size + item_size > max_main_size) break;
 725              		.loc 2 368 17 is_stmt 1 view .LVU230
 368:Middlewares/LVGL/GUI/lvgl/src/extra/layouts/flex/lv_flex.c ****                 if(f->wrap && t->track_fix_main_size + item_size > max_main_size) break;
 726              		.loc 2 368 40 is_stmt 0 view .LVU231
 727 0174 2046     		mov	r0, r4
 728              	.LVL69:
ARM GAS  C:\Users\ADMINI~1\AppData\Local\Temp\ccyi9XNv.s 			page 32


 368:Middlewares/LVGL/GUI/lvgl/src/extra/layouts/flex/lv_flex.c ****                 if(f->wrap && t->track_fix_main_size + item_size > max_main_size) break;
 729              		.loc 2 368 40 view .LVU232
 730 0176 019B     		ldr	r3, [sp, #4]
 731 0178 9847     		blx	r3
 732              	.LVL70:
 369:Middlewares/LVGL/GUI/lvgl/src/extra/layouts/flex/lv_flex.c ****                 t->track_fix_main_size += item_size + item_gap;
 733              		.loc 2 369 17 is_stmt 1 view .LVU233
 369:Middlewares/LVGL/GUI/lvgl/src/extra/layouts/flex/lv_flex.c ****                 t->track_fix_main_size += item_size + item_gap;
 734              		.loc 2 369 20 is_stmt 0 view .LVU234
 735 017a F378     		ldrb	r3, [r6, #3]	@ zero_extendqisi2
 369:Middlewares/LVGL/GUI/lvgl/src/extra/layouts/flex/lv_flex.c ****                 t->track_fix_main_size += item_size + item_gap;
 736              		.loc 2 369 19 view .LVU235
 737 017c 13F0020F 		tst	r3, #2
 738 0180 04D0     		beq	.L39
 369:Middlewares/LVGL/GUI/lvgl/src/extra/layouts/flex/lv_flex.c ****                 t->track_fix_main_size += item_size + item_gap;
 739              		.loc 2 369 32 discriminator 1 view .LVU236
 740 0182 AB68     		ldr	r3, [r5, #8]
 369:Middlewares/LVGL/GUI/lvgl/src/extra/layouts/flex/lv_flex.c ****                 t->track_fix_main_size += item_size + item_gap;
 741              		.loc 2 369 54 discriminator 1 view .LVU237
 742 0184 0344     		add	r3, r3, r0
 369:Middlewares/LVGL/GUI/lvgl/src/extra/layouts/flex/lv_flex.c ****                 t->track_fix_main_size += item_size + item_gap;
 743              		.loc 2 369 28 discriminator 1 view .LVU238
 744 0186 009A     		ldr	r2, [sp]
 745 0188 9342     		cmp	r3, r2
 746 018a 33DC     		bgt	.L28
 747              	.L39:
 370:Middlewares/LVGL/GUI/lvgl/src/extra/layouts/flex/lv_flex.c ****             }
 748              		.loc 2 370 17 is_stmt 1 view .LVU239
 370:Middlewares/LVGL/GUI/lvgl/src/extra/layouts/flex/lv_flex.c ****             }
 749              		.loc 2 370 53 is_stmt 0 view .LVU240
 750 018c 0E9B     		ldr	r3, [sp, #56]
 751 018e 1844     		add	r0, r0, r3
 752              	.LVL71:
 370:Middlewares/LVGL/GUI/lvgl/src/extra/layouts/flex/lv_flex.c ****             }
 753              		.loc 2 370 40 view .LVU241
 754 0190 AB68     		ldr	r3, [r5, #8]
 755 0192 1844     		add	r0, r0, r3
 756 0194 A860     		str	r0, [r5, #8]
 757              	.L31:
 370:Middlewares/LVGL/GUI/lvgl/src/extra/layouts/flex/lv_flex.c ****             }
 758              		.loc 2 370 40 view .LVU242
 759              	.LBE80:
 374:Middlewares/LVGL/GUI/lvgl/src/extra/layouts/flex/lv_flex.c ****             t->item_cnt++;
 760              		.loc 2 374 13 is_stmt 1 view .LVU243
 374:Middlewares/LVGL/GUI/lvgl/src/extra/layouts/flex/lv_flex.c ****             t->item_cnt++;
 761              		.loc 2 374 35 is_stmt 0 view .LVU244
 762 0196 2046     		mov	r0, r4
 763 0198 D047     		blx	r10
 764              	.LVL72:
 765 019a 2B68     		ldr	r3, [r5]
 766 019c 9842     		cmp	r0, r3
 767 019e 02DD     		ble	.L40
 374:Middlewares/LVGL/GUI/lvgl/src/extra/layouts/flex/lv_flex.c ****             t->item_cnt++;
 768              		.loc 2 374 35 discriminator 1 view .LVU245
 769 01a0 2046     		mov	r0, r4
 770 01a2 D047     		blx	r10
 771              	.LVL73:
ARM GAS  C:\Users\ADMINI~1\AppData\Local\Temp\ccyi9XNv.s 			page 33


 772 01a4 0346     		mov	r3, r0
 773              	.L40:
 374:Middlewares/LVGL/GUI/lvgl/src/extra/layouts/flex/lv_flex.c ****             t->item_cnt++;
 774              		.loc 2 374 33 discriminator 4 view .LVU246
 775 01a6 2B60     		str	r3, [r5]
 375:Middlewares/LVGL/GUI/lvgl/src/extra/layouts/flex/lv_flex.c ****         }
 776              		.loc 2 375 13 is_stmt 1 discriminator 4 view .LVU247
 375:Middlewares/LVGL/GUI/lvgl/src/extra/layouts/flex/lv_flex.c ****         }
 777              		.loc 2 375 14 is_stmt 0 discriminator 4 view .LVU248
 778 01a8 EB68     		ldr	r3, [r5, #12]
 375:Middlewares/LVGL/GUI/lvgl/src/extra/layouts/flex/lv_flex.c ****         }
 779              		.loc 2 375 24 discriminator 4 view .LVU249
 780 01aa 0133     		adds	r3, r3, #1
 781 01ac EB60     		str	r3, [r5, #12]
 782 01ae 1AE0     		b	.L29
 783              	.L48:
 375:Middlewares/LVGL/GUI/lvgl/src/extra/layouts/flex/lv_flex.c ****         }
 784              		.loc 2 375 24 discriminator 4 view .LVU250
 785              	.LBE68:
 378:Middlewares/LVGL/GUI/lvgl/src/extra/layouts/flex/lv_flex.c ****         if(item_id < 0) break;
 786              		.loc 2 378 32 view .LVU251
 787 01b0 0121     		movs	r1, #1
 788              	.L41:
 378:Middlewares/LVGL/GUI/lvgl/src/extra/layouts/flex/lv_flex.c ****         if(item_id < 0) break;
 789              		.loc 2 378 17 discriminator 4 view .LVU252
 790 01b2 039B     		ldr	r3, [sp, #12]
 791 01b4 1944     		add	r1, r1, r3
 792 01b6 0391     		str	r1, [sp, #12]
 379:Middlewares/LVGL/GUI/lvgl/src/extra/layouts/flex/lv_flex.c ****         item = lv_obj_get_child(cont, item_id);
 793              		.loc 2 379 9 is_stmt 1 discriminator 4 view .LVU253
 379:Middlewares/LVGL/GUI/lvgl/src/extra/layouts/flex/lv_flex.c ****         item = lv_obj_get_child(cont, item_id);
 794              		.loc 2 379 11 is_stmt 0 discriminator 4 view .LVU254
 795 01b8 0029     		cmp	r1, #0
 796 01ba 1BDB     		blt	.L28
 380:Middlewares/LVGL/GUI/lvgl/src/extra/layouts/flex/lv_flex.c ****     }
 797              		.loc 2 380 9 is_stmt 1 view .LVU255
 380:Middlewares/LVGL/GUI/lvgl/src/extra/layouts/flex/lv_flex.c ****     }
 798              		.loc 2 380 16 is_stmt 0 view .LVU256
 799 01bc 4846     		mov	r0, r9
 800 01be FFF7FEFF 		bl	lv_obj_get_child
 801              	.LVL74:
 802 01c2 0446     		mov	r4, r0
 803              	.LVL75:
 804              	.L26:
 340:Middlewares/LVGL/GUI/lvgl/src/extra/layouts/flex/lv_flex.c ****         if(item_id != item_start_id && lv_obj_has_flag(item, LV_OBJ_FLAG_FLEX_IN_NEW_TRACK)) break;
 805              		.loc 2 340 10 is_stmt 1 view .LVU257
 806 01c4 B4B1     		cbz	r4, .L28
 341:Middlewares/LVGL/GUI/lvgl/src/extra/layouts/flex/lv_flex.c **** 
 807              		.loc 2 341 9 view .LVU258
 341:Middlewares/LVGL/GUI/lvgl/src/extra/layouts/flex/lv_flex.c **** 
 808              		.loc 2 341 20 is_stmt 0 view .LVU259
 809 01c6 039B     		ldr	r3, [sp, #12]
 341:Middlewares/LVGL/GUI/lvgl/src/extra/layouts/flex/lv_flex.c **** 
 810              		.loc 2 341 11 view .LVU260
 811 01c8 4345     		cmp	r3, r8
 812 01ca 05D0     		beq	.L27
 341:Middlewares/LVGL/GUI/lvgl/src/extra/layouts/flex/lv_flex.c **** 
ARM GAS  C:\Users\ADMINI~1\AppData\Local\Temp\ccyi9XNv.s 			page 34


 813              		.loc 2 341 40 discriminator 1 view .LVU261
 814 01cc 4FF40001 		mov	r1, #8388608
 815 01d0 2046     		mov	r0, r4
 341:Middlewares/LVGL/GUI/lvgl/src/extra/layouts/flex/lv_flex.c **** 
 816              		.loc 2 341 40 discriminator 1 view .LVU262
 817 01d2 FFF7FEFF 		bl	lv_obj_has_flag
 818              	.LVL76:
 341:Middlewares/LVGL/GUI/lvgl/src/extra/layouts/flex/lv_flex.c **** 
 819              		.loc 2 341 37 discriminator 1 view .LVU263
 820 01d6 68B9     		cbnz	r0, .L28
 821              	.L27:
 343:Middlewares/LVGL/GUI/lvgl/src/extra/layouts/flex/lv_flex.c ****             uint8_t grow_value = lv_obj_get_style_flex_grow(item, LV_PART_MAIN);
 822              		.loc 2 343 9 is_stmt 1 view .LVU264
 343:Middlewares/LVGL/GUI/lvgl/src/extra/layouts/flex/lv_flex.c ****             uint8_t grow_value = lv_obj_get_style_flex_grow(item, LV_PART_MAIN);
 823              		.loc 2 343 13 is_stmt 0 view .LVU265
 824 01d8 2049     		ldr	r1, .L52+16
 825 01da 2046     		mov	r0, r4
 826 01dc FFF7FEFF 		bl	lv_obj_has_flag_any
 827              	.LVL77:
 343:Middlewares/LVGL/GUI/lvgl/src/extra/layouts/flex/lv_flex.c ****             uint8_t grow_value = lv_obj_get_style_flex_grow(item, LV_PART_MAIN);
 828              		.loc 2 343 11 view .LVU266
 829 01e0 0028     		cmp	r0, #0
 830 01e2 3FF451AF 		beq	.L50
 831              	.L29:
 378:Middlewares/LVGL/GUI/lvgl/src/extra/layouts/flex/lv_flex.c ****         if(item_id < 0) break;
 832              		.loc 2 378 9 is_stmt 1 view .LVU267
 378:Middlewares/LVGL/GUI/lvgl/src/extra/layouts/flex/lv_flex.c ****         if(item_id < 0) break;
 833              		.loc 2 378 27 is_stmt 0 view .LVU268
 834 01e6 F378     		ldrb	r3, [r6, #3]	@ zero_extendqisi2
 378:Middlewares/LVGL/GUI/lvgl/src/extra/layouts/flex/lv_flex.c ****         if(item_id < 0) break;
 835              		.loc 2 378 32 view .LVU269
 836 01e8 13F0040F 		tst	r3, #4
 837 01ec E0D0     		beq	.L48
 838 01ee 4FF0FF31 		mov	r1, #-1
 839 01f2 DEE7     		b	.L41
 840              	.L28:
 383:Middlewares/LVGL/GUI/lvgl/src/extra/layouts/flex/lv_flex.c **** 
 841              		.loc 2 383 5 is_stmt 1 view .LVU270
 383:Middlewares/LVGL/GUI/lvgl/src/extra/layouts/flex/lv_flex.c **** 
 842              		.loc 2 383 9 is_stmt 0 view .LVU271
 843 01f4 AB68     		ldr	r3, [r5, #8]
 383:Middlewares/LVGL/GUI/lvgl/src/extra/layouts/flex/lv_flex.c **** 
 844              		.loc 2 383 7 view .LVU272
 845 01f6 002B     		cmp	r3, #0
 846 01f8 02DD     		ble	.L43
 383:Middlewares/LVGL/GUI/lvgl/src/extra/layouts/flex/lv_flex.c **** 
 847              		.loc 2 383 36 is_stmt 1 discriminator 1 view .LVU273
 383:Middlewares/LVGL/GUI/lvgl/src/extra/layouts/flex/lv_flex.c **** 
 848              		.loc 2 383 59 is_stmt 0 discriminator 1 view .LVU274
 849 01fa 0E9A     		ldr	r2, [sp, #56]
 850 01fc 9B1A     		subs	r3, r3, r2
 851 01fe AB60     		str	r3, [r5, #8]
 852              	.L43:
 386:Middlewares/LVGL/GUI/lvgl/src/extra/layouts/flex/lv_flex.c **** 
 853              		.loc 2 386 5 is_stmt 1 view .LVU275
 386:Middlewares/LVGL/GUI/lvgl/src/extra/layouts/flex/lv_flex.c **** 
 854              		.loc 2 386 27 is_stmt 0 view .LVU276
ARM GAS  C:\Users\ADMINI~1\AppData\Local\Temp\ccyi9XNv.s 			page 35


 855 0200 6B69     		ldr	r3, [r5, #20]
 386:Middlewares/LVGL/GUI/lvgl/src/extra/layouts/flex/lv_flex.c **** 
 856              		.loc 2 386 59 view .LVU277
 857 0202 0BB9     		cbnz	r3, .L44
 386:Middlewares/LVGL/GUI/lvgl/src/extra/layouts/flex/lv_flex.c **** 
 858              		.loc 2 386 59 discriminator 1 view .LVU278
 859 0204 AB68     		ldr	r3, [r5, #8]
 860 0206 0093     		str	r3, [sp]
 861              	.LVL78:
 862              	.L44:
 386:Middlewares/LVGL/GUI/lvgl/src/extra/layouts/flex/lv_flex.c **** 
 863              		.loc 2 386 24 discriminator 4 view .LVU279
 864 0208 009B     		ldr	r3, [sp]
 865 020a 6B60     		str	r3, [r5, #4]
 389:Middlewares/LVGL/GUI/lvgl/src/extra/layouts/flex/lv_flex.c ****         item = cont->spec_attr->children[item_id];
 866              		.loc 2 389 5 is_stmt 1 discriminator 4 view .LVU280
 389:Middlewares/LVGL/GUI/lvgl/src/extra/layouts/flex/lv_flex.c ****         item = cont->spec_attr->children[item_id];
 867              		.loc 2 389 7 is_stmt 0 discriminator 4 view .LVU281
 868 020c 14B1     		cbz	r4, .L45
 389:Middlewares/LVGL/GUI/lvgl/src/extra/layouts/flex/lv_flex.c ****         item = cont->spec_attr->children[item_id];
 869              		.loc 2 389 24 discriminator 1 view .LVU282
 870 020e 039B     		ldr	r3, [sp, #12]
 389:Middlewares/LVGL/GUI/lvgl/src/extra/layouts/flex/lv_flex.c ****         item = cont->spec_attr->children[item_id];
 871              		.loc 2 389 13 discriminator 1 view .LVU283
 872 0210 4345     		cmp	r3, r8
 873 0212 03D0     		beq	.L51
 874              	.L45:
 399:Middlewares/LVGL/GUI/lvgl/src/extra/layouts/flex/lv_flex.c **** }
 875              		.loc 2 399 5 is_stmt 1 view .LVU284
 400:Middlewares/LVGL/GUI/lvgl/src/extra/layouts/flex/lv_flex.c **** 
 876              		.loc 2 400 1 is_stmt 0 view .LVU285
 877 0214 0398     		ldr	r0, [sp, #12]
 878 0216 05B0     		add	sp, sp, #20
 879              	.LCFI5:
 880              		.cfi_remember_state
 881              		.cfi_def_cfa_offset 36
 882              		@ sp needed
 883 0218 BDE8F08F 		pop	{r4, r5, r6, r7, r8, r9, r10, fp, pc}
 884              	.LVL79:
 885              	.L51:
 886              	.LCFI6:
 887              		.cfi_restore_state
 390:Middlewares/LVGL/GUI/lvgl/src/extra/layouts/flex/lv_flex.c ****         get_next_item(cont, f->rev, &item_id);
 888              		.loc 2 390 9 is_stmt 1 view .LVU286
 390:Middlewares/LVGL/GUI/lvgl/src/extra/layouts/flex/lv_flex.c ****         get_next_item(cont, f->rev, &item_id);
 889              		.loc 2 390 20 is_stmt 0 view .LVU287
 890 021c D9F80820 		ldr	r2, [r9, #8]
 390:Middlewares/LVGL/GUI/lvgl/src/extra/layouts/flex/lv_flex.c ****         get_next_item(cont, f->rev, &item_id);
 891              		.loc 2 390 31 view .LVU288
 892 0220 1268     		ldr	r2, [r2]
 390:Middlewares/LVGL/GUI/lvgl/src/extra/layouts/flex/lv_flex.c ****         get_next_item(cont, f->rev, &item_id);
 893              		.loc 2 390 14 view .LVU289
 894 0222 52F82340 		ldr	r4, [r2, r3, lsl #2]
 895              	.LVL80:
 391:Middlewares/LVGL/GUI/lvgl/src/extra/layouts/flex/lv_flex.c ****         if(item) {
 896              		.loc 2 391 9 is_stmt 1 view .LVU290
 391:Middlewares/LVGL/GUI/lvgl/src/extra/layouts/flex/lv_flex.c ****         if(item) {
ARM GAS  C:\Users\ADMINI~1\AppData\Local\Temp\ccyi9XNv.s 			page 36


 897              		.loc 2 391 30 is_stmt 0 view .LVU291
 898 0226 F178     		ldrb	r1, [r6, #3]	@ zero_extendqisi2
 391:Middlewares/LVGL/GUI/lvgl/src/extra/layouts/flex/lv_flex.c ****         if(item) {
 899              		.loc 2 391 9 view .LVU292
 900 0228 03AA     		add	r2, sp, #12
 901 022a C1F38001 		ubfx	r1, r1, #2, #1
 902 022e 4846     		mov	r0, r9
 903 0230 FFF7FEFF 		bl	get_next_item
 904              	.LVL81:
 392:Middlewares/LVGL/GUI/lvgl/src/extra/layouts/flex/lv_flex.c ****             t->track_cross_size = get_cross_size(item);
 905              		.loc 2 392 9 is_stmt 1 view .LVU293
 392:Middlewares/LVGL/GUI/lvgl/src/extra/layouts/flex/lv_flex.c ****             t->track_cross_size = get_cross_size(item);
 906              		.loc 2 392 11 is_stmt 0 view .LVU294
 907 0234 002C     		cmp	r4, #0
 908 0236 EDD0     		beq	.L45
 393:Middlewares/LVGL/GUI/lvgl/src/extra/layouts/flex/lv_flex.c ****             t->track_main_size = get_main_size(item);
 909              		.loc 2 393 13 is_stmt 1 view .LVU295
 393:Middlewares/LVGL/GUI/lvgl/src/extra/layouts/flex/lv_flex.c ****             t->track_main_size = get_main_size(item);
 910              		.loc 2 393 35 is_stmt 0 view .LVU296
 911 0238 2046     		mov	r0, r4
 912 023a D047     		blx	r10
 913              	.LVL82:
 393:Middlewares/LVGL/GUI/lvgl/src/extra/layouts/flex/lv_flex.c ****             t->track_main_size = get_main_size(item);
 914              		.loc 2 393 33 view .LVU297
 915 023c 2860     		str	r0, [r5]
 394:Middlewares/LVGL/GUI/lvgl/src/extra/layouts/flex/lv_flex.c ****             t->item_cnt = 1;
 916              		.loc 2 394 13 is_stmt 1 view .LVU298
 394:Middlewares/LVGL/GUI/lvgl/src/extra/layouts/flex/lv_flex.c ****             t->item_cnt = 1;
 917              		.loc 2 394 34 is_stmt 0 view .LVU299
 918 023e 2046     		mov	r0, r4
 919 0240 019B     		ldr	r3, [sp, #4]
 920 0242 9847     		blx	r3
 921              	.LVL83:
 394:Middlewares/LVGL/GUI/lvgl/src/extra/layouts/flex/lv_flex.c ****             t->item_cnt = 1;
 922              		.loc 2 394 32 view .LVU300
 923 0244 6860     		str	r0, [r5, #4]
 395:Middlewares/LVGL/GUI/lvgl/src/extra/layouts/flex/lv_flex.c ****         }
 924              		.loc 2 395 13 is_stmt 1 view .LVU301
 395:Middlewares/LVGL/GUI/lvgl/src/extra/layouts/flex/lv_flex.c ****         }
 925              		.loc 2 395 25 is_stmt 0 view .LVU302
 926 0246 0123     		movs	r3, #1
 927 0248 EB60     		str	r3, [r5, #12]
 928 024a E3E7     		b	.L45
 929              	.L53:
 930              		.align	2
 931              	.L52:
 932 024c D1070020 		.word	536872913
 933 0250 00000000 		.word	lv_obj_get_width
 934 0254 00000000 		.word	lv_obj_get_height
 935 0258 00000000 		.word	.LANCHOR0
 936 025c 01000600 		.word	393217
 937              		.cfi_endproc
 938              	.LFE184:
 940              		.section	.text.children_repos,"ax",%progbits
 941              		.align	1
 942              		.syntax unified
 943              		.thumb
ARM GAS  C:\Users\ADMINI~1\AppData\Local\Temp\ccyi9XNv.s 			page 37


 944              		.thumb_func
 946              	children_repos:
 947              	.LVL84:
 948              	.LFB185:
 407:Middlewares/LVGL/GUI/lvgl/src/extra/layouts/flex/lv_flex.c ****     void (*area_set_main_size)(lv_area_t *, lv_coord_t) = (f->row ? lv_area_set_width : lv_area_set
 949              		.loc 2 407 1 is_stmt 1 view -0
 950              		.cfi_startproc
 951              		@ args = 20, pretend = 0, frame = 48
 952              		@ frame_needed = 0, uses_anonymous_args = 0
 407:Middlewares/LVGL/GUI/lvgl/src/extra/layouts/flex/lv_flex.c ****     void (*area_set_main_size)(lv_area_t *, lv_coord_t) = (f->row ? lv_area_set_width : lv_area_set
 953              		.loc 2 407 1 is_stmt 0 view .LVU304
 954 0000 2DE9F04F 		push	{r4, r5, r6, r7, r8, r9, r10, fp, lr}
 955              	.LCFI7:
 956              		.cfi_def_cfa_offset 36
 957              		.cfi_offset 4, -36
 958              		.cfi_offset 5, -32
 959              		.cfi_offset 6, -28
 960              		.cfi_offset 7, -24
 961              		.cfi_offset 8, -20
 962              		.cfi_offset 9, -16
 963              		.cfi_offset 10, -12
 964              		.cfi_offset 11, -8
 965              		.cfi_offset 14, -4
 966 0004 8FB0     		sub	sp, sp, #60
 967              	.LCFI8:
 968              		.cfi_def_cfa_offset 96
 969 0006 8246     		mov	r10, r0
 970 0008 0E46     		mov	r6, r1
 971 000a 0792     		str	r2, [sp, #28]
 972 000c 9B46     		mov	fp, r3
 973 000e 1C9C     		ldr	r4, [sp, #112]
 408:Middlewares/LVGL/GUI/lvgl/src/extra/layouts/flex/lv_flex.c ****     lv_coord_t (*area_get_main_size)(const lv_area_t *) = (f->row ? lv_area_get_width : lv_area_get
 974              		.loc 2 408 5 is_stmt 1 view .LVU305
 408:Middlewares/LVGL/GUI/lvgl/src/extra/layouts/flex/lv_flex.c ****     lv_coord_t (*area_get_main_size)(const lv_area_t *) = (f->row ? lv_area_get_width : lv_area_get
 975              		.loc 2 408 67 is_stmt 0 view .LVU306
 976 0010 CB78     		ldrb	r3, [r1, #3]	@ zero_extendqisi2
 977              	.LVL85:
 408:Middlewares/LVGL/GUI/lvgl/src/extra/layouts/flex/lv_flex.c ****     lv_coord_t (*area_get_main_size)(const lv_area_t *) = (f->row ? lv_area_get_width : lv_area_get
 978              		.loc 2 408 87 view .LVU307
 979 0012 13F00103 		ands	r3, r3, #1
 980 0016 0AD0     		beq	.L96
 981 0018 A44A     		ldr	r2, .L116
 982              	.LVL86:
 408:Middlewares/LVGL/GUI/lvgl/src/extra/layouts/flex/lv_flex.c ****     lv_coord_t (*area_get_main_size)(const lv_area_t *) = (f->row ? lv_area_get_width : lv_area_get
 983              		.loc 2 408 87 view .LVU308
 984 001a 0692     		str	r2, [sp, #24]
 985              	.L55:
 986              	.LVL87:
 409:Middlewares/LVGL/GUI/lvgl/src/extra/layouts/flex/lv_flex.c ****     lv_coord_t (*area_get_cross_size)(const lv_area_t *) = (!f->row ? lv_area_get_width : lv_area_g
 987              		.loc 2 409 5 is_stmt 1 discriminator 4 view .LVU309
 409:Middlewares/LVGL/GUI/lvgl/src/extra/layouts/flex/lv_flex.c ****     lv_coord_t (*area_get_cross_size)(const lv_area_t *) = (!f->row ? lv_area_get_width : lv_area_g
 988              		.loc 2 409 87 is_stmt 0 discriminator 4 view .LVU310
 989 001c 53B1     		cbz	r3, .L97
 409:Middlewares/LVGL/GUI/lvgl/src/extra/layouts/flex/lv_flex.c ****     lv_coord_t (*area_get_cross_size)(const lv_area_t *) = (!f->row ? lv_area_get_width : lv_area_g
 990              		.loc 2 409 87 view .LVU311
 991 001e A44A     		ldr	r2, .L116+4
 992 0020 0292     		str	r2, [sp, #8]
ARM GAS  C:\Users\ADMINI~1\AppData\Local\Temp\ccyi9XNv.s 			page 38


 993              	.L56:
 994              	.LVL88:
 410:Middlewares/LVGL/GUI/lvgl/src/extra/layouts/flex/lv_flex.c **** 
 995              		.loc 2 410 5 is_stmt 1 discriminator 4 view .LVU312
 410:Middlewares/LVGL/GUI/lvgl/src/extra/layouts/flex/lv_flex.c **** 
 996              		.loc 2 410 89 is_stmt 0 discriminator 4 view .LVU313
 997 0022 53B9     		cbnz	r3, .L98
 410:Middlewares/LVGL/GUI/lvgl/src/extra/layouts/flex/lv_flex.c **** 
 998              		.loc 2 410 89 view .LVU314
 999 0024 A24B     		ldr	r3, .L116+4
 1000 0026 0593     		str	r3, [sp, #20]
 1001              	.L57:
 1002              	.LVL89:
 413:Middlewares/LVGL/GUI/lvgl/src/extra/layouts/flex/lv_flex.c ****     bool grow_reiterate  = true;
 1003              		.loc 2 413 5 is_stmt 1 discriminator 4 view .LVU315
 414:Middlewares/LVGL/GUI/lvgl/src/extra/layouts/flex/lv_flex.c ****     while(grow_reiterate) {
 1004              		.loc 2 414 5 discriminator 4 view .LVU316
 415:Middlewares/LVGL/GUI/lvgl/src/extra/layouts/flex/lv_flex.c ****         grow_reiterate = false;
 1005              		.loc 2 415 5 discriminator 4 view .LVU317
 414:Middlewares/LVGL/GUI/lvgl/src/extra/layouts/flex/lv_flex.c ****     while(grow_reiterate) {
 1006              		.loc 2 414 10 is_stmt 0 discriminator 4 view .LVU318
 1007 0028 0127     		movs	r7, #1
 1008 002a B046     		mov	r8, r6
 415:Middlewares/LVGL/GUI/lvgl/src/extra/layouts/flex/lv_flex.c ****         grow_reiterate = false;
 1009              		.loc 2 415 10 discriminator 4 view .LVU319
 1010 002c 4CE0     		b	.L58
 1011              	.LVL90:
 1012              	.L96:
 408:Middlewares/LVGL/GUI/lvgl/src/extra/layouts/flex/lv_flex.c ****     lv_coord_t (*area_get_main_size)(const lv_area_t *) = (f->row ? lv_area_get_width : lv_area_get
 1013              		.loc 2 408 87 view .LVU320
 1014 002e A14A     		ldr	r2, .L116+8
 1015              	.LVL91:
 408:Middlewares/LVGL/GUI/lvgl/src/extra/layouts/flex/lv_flex.c ****     lv_coord_t (*area_get_main_size)(const lv_area_t *) = (f->row ? lv_area_get_width : lv_area_get
 1016              		.loc 2 408 87 view .LVU321
 1017 0030 0692     		str	r2, [sp, #24]
 1018 0032 F3E7     		b	.L55
 1019              	.LVL92:
 1020              	.L97:
 409:Middlewares/LVGL/GUI/lvgl/src/extra/layouts/flex/lv_flex.c ****     lv_coord_t (*area_get_cross_size)(const lv_area_t *) = (!f->row ? lv_area_get_width : lv_area_g
 1021              		.loc 2 409 87 view .LVU322
 1022 0034 A04A     		ldr	r2, .L116+12
 1023 0036 0292     		str	r2, [sp, #8]
 1024 0038 F3E7     		b	.L56
 1025              	.LVL93:
 1026              	.L98:
 410:Middlewares/LVGL/GUI/lvgl/src/extra/layouts/flex/lv_flex.c **** 
 1027              		.loc 2 410 89 view .LVU323
 1028 003a 9F4B     		ldr	r3, .L116+12
 1029 003c 0593     		str	r3, [sp, #20]
 1030 003e F3E7     		b	.L57
 1031              	.LVL94:
 1032              	.L60:
 1033              	.LBB81:
 424:Middlewares/LVGL/GUI/lvgl/src/extra/layouts/flex/lv_flex.c ****             }
 1034              		.loc 2 424 17 is_stmt 1 view .LVU324
 424:Middlewares/LVGL/GUI/lvgl/src/extra/layouts/flex/lv_flex.c ****             }
 1035              		.loc 2 424 48 is_stmt 0 view .LVU325
ARM GAS  C:\Users\ADMINI~1\AppData\Local\Temp\ccyi9XNv.s 			page 39


 1036 0040 DB68     		ldr	r3, [r3, #12]
 424:Middlewares/LVGL/GUI/lvgl/src/extra/layouts/flex/lv_flex.c ****             }
 1037              		.loc 2 424 31 view .LVU326
 1038 0042 C91A     		subs	r1, r1, r3
 1039              	.LVL95:
 1040              	.L61:
 419:Middlewares/LVGL/GUI/lvgl/src/extra/layouts/flex/lv_flex.c ****             if(t->grow_dsc[i].clamped == 0) {
 1041              		.loc 2 419 42 is_stmt 1 discriminator 2 view .LVU327
 419:Middlewares/LVGL/GUI/lvgl/src/extra/layouts/flex/lv_flex.c ****             if(t->grow_dsc[i].clamped == 0) {
 1042              		.loc 2 419 43 is_stmt 0 discriminator 2 view .LVU328
 1043 0044 0132     		adds	r2, r2, #1
 1044              	.LVL96:
 1045              	.L59:
 419:Middlewares/LVGL/GUI/lvgl/src/extra/layouts/flex/lv_flex.c ****             if(t->grow_dsc[i].clamped == 0) {
 1046              		.loc 2 419 20 is_stmt 1 discriminator 1 view .LVU329
 419:Middlewares/LVGL/GUI/lvgl/src/extra/layouts/flex/lv_flex.c ****             if(t->grow_dsc[i].clamped == 0) {
 1047              		.loc 2 419 25 is_stmt 0 discriminator 1 view .LVU330
 1048 0046 6369     		ldr	r3, [r4, #20]
 419:Middlewares/LVGL/GUI/lvgl/src/extra/layouts/flex/lv_flex.c ****             if(t->grow_dsc[i].clamped == 0) {
 1049              		.loc 2 419 9 discriminator 1 view .LVU331
 1050 0048 9342     		cmp	r3, r2
 1051 004a 0BD9     		bls	.L104
 420:Middlewares/LVGL/GUI/lvgl/src/extra/layouts/flex/lv_flex.c ****                 grow_value_sum += t->grow_dsc[i].grow_value;
 1052              		.loc 2 420 13 is_stmt 1 view .LVU332
 420:Middlewares/LVGL/GUI/lvgl/src/extra/layouts/flex/lv_flex.c ****                 grow_value_sum += t->grow_dsc[i].grow_value;
 1053              		.loc 2 420 17 is_stmt 0 view .LVU333
 1054 004c 2369     		ldr	r3, [r4, #16]
 420:Middlewares/LVGL/GUI/lvgl/src/extra/layouts/flex/lv_flex.c ****                 grow_value_sum += t->grow_dsc[i].grow_value;
 1055              		.loc 2 420 27 view .LVU334
 1056 004e 02EB4205 		add	r5, r2, r2, lsl #1
 1057 0052 03EBC503 		add	r3, r3, r5, lsl #3
 420:Middlewares/LVGL/GUI/lvgl/src/extra/layouts/flex/lv_flex.c ****                 grow_value_sum += t->grow_dsc[i].grow_value;
 1058              		.loc 2 420 39 view .LVU335
 1059 0056 1D7D     		ldrb	r5, [r3, #20]	@ zero_extendqisi2
 420:Middlewares/LVGL/GUI/lvgl/src/extra/layouts/flex/lv_flex.c ****                 grow_value_sum += t->grow_dsc[i].grow_value;
 1060              		.loc 2 420 15 view .LVU336
 1061 0058 15F0010F 		tst	r5, #1
 1062 005c F0D1     		bne	.L60
 421:Middlewares/LVGL/GUI/lvgl/src/extra/layouts/flex/lv_flex.c ****             }
 1063              		.loc 2 421 17 is_stmt 1 view .LVU337
 421:Middlewares/LVGL/GUI/lvgl/src/extra/layouts/flex/lv_flex.c ****             }
 1064              		.loc 2 421 49 is_stmt 0 view .LVU338
 1065 005e 1B69     		ldr	r3, [r3, #16]
 421:Middlewares/LVGL/GUI/lvgl/src/extra/layouts/flex/lv_flex.c ****             }
 1066              		.loc 2 421 32 view .LVU339
 1067 0060 1844     		add	r0, r0, r3
 1068              	.LVL97:
 421:Middlewares/LVGL/GUI/lvgl/src/extra/layouts/flex/lv_flex.c ****             }
 1069              		.loc 2 421 32 view .LVU340
 1070 0062 EFE7     		b	.L61
 1071              	.L104:
 416:Middlewares/LVGL/GUI/lvgl/src/extra/layouts/flex/lv_flex.c ****         lv_coord_t grow_value_sum = 0;
 1072              		.loc 2 416 24 view .LVU341
 1073 0064 4FF0000C 		mov	ip, #0
 429:Middlewares/LVGL/GUI/lvgl/src/extra/layouts/flex/lv_flex.c ****             if(t->grow_dsc[i].clamped == 0) {
 1074              		.loc 2 429 15 view .LVU342
 1075 0068 6346     		mov	r3, ip
ARM GAS  C:\Users\ADMINI~1\AppData\Local\Temp\ccyi9XNv.s 			page 40


 1076 006a BE46     		mov	lr, r7
 1077 006c 0EE0     		b	.L63
 1078              	.LVL98:
 1079              	.L106:
 1080              	.LBB82:
 436:Middlewares/LVGL/GUI/lvgl/src/extra/layouts/flex/lv_flex.c ****                     grow_reiterate = true;
 1081              		.loc 2 436 21 is_stmt 1 view .LVU343
 436:Middlewares/LVGL/GUI/lvgl/src/extra/layouts/flex/lv_flex.c ****                     grow_reiterate = true;
 1082              		.loc 2 436 44 is_stmt 0 view .LVU344
 1083 006e 2A7D     		ldrb	r2, [r5, #20]	@ zero_extendqisi2
 1084 0070 42F00102 		orr	r2, r2, #1
 1085 0074 2A75     		strb	r2, [r5, #20]
 437:Middlewares/LVGL/GUI/lvgl/src/extra/layouts/flex/lv_flex.c ****                 }
 1086              		.loc 2 437 21 is_stmt 1 view .LVU345
 1087              	.LVL99:
 437:Middlewares/LVGL/GUI/lvgl/src/extra/layouts/flex/lv_flex.c ****                 }
 1088              		.loc 2 437 36 is_stmt 0 view .LVU346
 1089 0076 F446     		mov	ip, lr
 1090              	.LVL100:
 1091              	.L65:
 439:Middlewares/LVGL/GUI/lvgl/src/extra/layouts/flex/lv_flex.c ****                 grow_value_sum -= t->grow_dsc[i].grow_value;
 1092              		.loc 2 439 17 is_stmt 1 view .LVU347
 439:Middlewares/LVGL/GUI/lvgl/src/extra/layouts/flex/lv_flex.c ****                 grow_value_sum -= t->grow_dsc[i].grow_value;
 1093              		.loc 2 439 18 is_stmt 0 view .LVU348
 1094 0078 2569     		ldr	r5, [r4, #16]
 439:Middlewares/LVGL/GUI/lvgl/src/extra/layouts/flex/lv_flex.c ****                 grow_value_sum -= t->grow_dsc[i].grow_value;
 1095              		.loc 2 439 28 view .LVU349
 1096 007a 3D44     		add	r5, r5, r7
 439:Middlewares/LVGL/GUI/lvgl/src/extra/layouts/flex/lv_flex.c ****                 grow_value_sum -= t->grow_dsc[i].grow_value;
 1097              		.loc 2 439 43 view .LVU350
 1098 007c EE60     		str	r6, [r5, #12]
 440:Middlewares/LVGL/GUI/lvgl/src/extra/layouts/flex/lv_flex.c ****                 grow_max_size  -= t->grow_dsc[i].final_size;
 1099              		.loc 2 440 17 is_stmt 1 view .LVU351
 440:Middlewares/LVGL/GUI/lvgl/src/extra/layouts/flex/lv_flex.c ****                 grow_max_size  -= t->grow_dsc[i].final_size;
 1100              		.loc 2 440 36 is_stmt 0 view .LVU352
 1101 007e 2269     		ldr	r2, [r4, #16]
 440:Middlewares/LVGL/GUI/lvgl/src/extra/layouts/flex/lv_flex.c ****                 grow_max_size  -= t->grow_dsc[i].final_size;
 1102              		.loc 2 440 46 view .LVU353
 1103 0080 3A44     		add	r2, r2, r7
 440:Middlewares/LVGL/GUI/lvgl/src/extra/layouts/flex/lv_flex.c ****                 grow_max_size  -= t->grow_dsc[i].final_size;
 1104              		.loc 2 440 49 view .LVU354
 1105 0082 1569     		ldr	r5, [r2, #16]
 440:Middlewares/LVGL/GUI/lvgl/src/extra/layouts/flex/lv_flex.c ****                 grow_max_size  -= t->grow_dsc[i].final_size;
 1106              		.loc 2 440 32 view .LVU355
 1107 0084 401B     		subs	r0, r0, r5
 1108              	.LVL101:
 441:Middlewares/LVGL/GUI/lvgl/src/extra/layouts/flex/lv_flex.c ****             }
 1109              		.loc 2 441 17 is_stmt 1 view .LVU356
 441:Middlewares/LVGL/GUI/lvgl/src/extra/layouts/flex/lv_flex.c ****             }
 1110              		.loc 2 441 49 is_stmt 0 view .LVU357
 1111 0086 D268     		ldr	r2, [r2, #12]
 441:Middlewares/LVGL/GUI/lvgl/src/extra/layouts/flex/lv_flex.c ****             }
 1112              		.loc 2 441 32 view .LVU358
 1113 0088 891A     		subs	r1, r1, r2
 1114              	.LVL102:
 1115              	.L64:
 441:Middlewares/LVGL/GUI/lvgl/src/extra/layouts/flex/lv_flex.c ****             }
ARM GAS  C:\Users\ADMINI~1\AppData\Local\Temp\ccyi9XNv.s 			page 41


 1116              		.loc 2 441 32 view .LVU359
 1117              	.LBE82:
 429:Middlewares/LVGL/GUI/lvgl/src/extra/layouts/flex/lv_flex.c ****             if(t->grow_dsc[i].clamped == 0) {
 1118              		.loc 2 429 42 is_stmt 1 discriminator 2 view .LVU360
 429:Middlewares/LVGL/GUI/lvgl/src/extra/layouts/flex/lv_flex.c ****             if(t->grow_dsc[i].clamped == 0) {
 1119              		.loc 2 429 43 is_stmt 0 discriminator 2 view .LVU361
 1120 008a 0133     		adds	r3, r3, #1
 1121              	.LVL103:
 1122              	.L63:
 429:Middlewares/LVGL/GUI/lvgl/src/extra/layouts/flex/lv_flex.c ****             if(t->grow_dsc[i].clamped == 0) {
 1123              		.loc 2 429 20 is_stmt 1 discriminator 1 view .LVU362
 429:Middlewares/LVGL/GUI/lvgl/src/extra/layouts/flex/lv_flex.c ****             if(t->grow_dsc[i].clamped == 0) {
 1124              		.loc 2 429 25 is_stmt 0 discriminator 1 view .LVU363
 1125 008c 6269     		ldr	r2, [r4, #20]
 429:Middlewares/LVGL/GUI/lvgl/src/extra/layouts/flex/lv_flex.c ****             if(t->grow_dsc[i].clamped == 0) {
 1126              		.loc 2 429 9 discriminator 1 view .LVU364
 1127 008e 9A42     		cmp	r2, r3
 1128 0090 19D9     		bls	.L105
 430:Middlewares/LVGL/GUI/lvgl/src/extra/layouts/flex/lv_flex.c ****                 grow_unit = grow_max_size / grow_value_sum;
 1129              		.loc 2 430 13 is_stmt 1 view .LVU365
 430:Middlewares/LVGL/GUI/lvgl/src/extra/layouts/flex/lv_flex.c ****                 grow_unit = grow_max_size / grow_value_sum;
 1130              		.loc 2 430 17 is_stmt 0 view .LVU366
 1131 0092 2569     		ldr	r5, [r4, #16]
 430:Middlewares/LVGL/GUI/lvgl/src/extra/layouts/flex/lv_flex.c ****                 grow_unit = grow_max_size / grow_value_sum;
 1132              		.loc 2 430 27 view .LVU367
 1133 0094 03EB4302 		add	r2, r3, r3, lsl #1
 1134 0098 D700     		lsls	r7, r2, #3
 1135 009a 05EBC205 		add	r5, r5, r2, lsl #3
 430:Middlewares/LVGL/GUI/lvgl/src/extra/layouts/flex/lv_flex.c ****                 grow_unit = grow_max_size / grow_value_sum;
 1136              		.loc 2 430 39 view .LVU368
 1137 009e 2A7D     		ldrb	r2, [r5, #20]	@ zero_extendqisi2
 430:Middlewares/LVGL/GUI/lvgl/src/extra/layouts/flex/lv_flex.c ****                 grow_unit = grow_max_size / grow_value_sum;
 1138              		.loc 2 430 15 view .LVU369
 1139 00a0 12F0010F 		tst	r2, #1
 1140 00a4 F1D1     		bne	.L64
 1141              	.LBB83:
 431:Middlewares/LVGL/GUI/lvgl/src/extra/layouts/flex/lv_flex.c ****                 lv_coord_t size = grow_unit * t->grow_dsc[i].grow_value;
 1142              		.loc 2 431 17 is_stmt 1 view .LVU370
 431:Middlewares/LVGL/GUI/lvgl/src/extra/layouts/flex/lv_flex.c ****                 lv_coord_t size = grow_unit * t->grow_dsc[i].grow_value;
 1143              		.loc 2 431 27 is_stmt 0 view .LVU371
 1144 00a6 91FBF0F9 		sdiv	r9, r1, r0
 432:Middlewares/LVGL/GUI/lvgl/src/extra/layouts/flex/lv_flex.c ****                 lv_coord_t size_clamp = LV_CLAMP(t->grow_dsc[i].min_size, size, t->grow_dsc[i].max_
 1145              		.loc 2 432 17 is_stmt 1 view .LVU372
 432:Middlewares/LVGL/GUI/lvgl/src/extra/layouts/flex/lv_flex.c ****                 lv_coord_t size_clamp = LV_CLAMP(t->grow_dsc[i].min_size, size, t->grow_dsc[i].max_
 1146              		.loc 2 432 61 is_stmt 0 view .LVU373
 1147 00aa 2E69     		ldr	r6, [r5, #16]
 432:Middlewares/LVGL/GUI/lvgl/src/extra/layouts/flex/lv_flex.c ****                 lv_coord_t size_clamp = LV_CLAMP(t->grow_dsc[i].min_size, size, t->grow_dsc[i].max_
 1148              		.loc 2 432 45 view .LVU374
 1149 00ac 06FB09F9 		mul	r9, r6, r9
 1150              	.LVL104:
 433:Middlewares/LVGL/GUI/lvgl/src/extra/layouts/flex/lv_flex.c **** 
 1151              		.loc 2 433 17 is_stmt 1 view .LVU375
 433:Middlewares/LVGL/GUI/lvgl/src/extra/layouts/flex/lv_flex.c **** 
 1152              		.loc 2 433 41 is_stmt 0 view .LVU376
 1153 00b0 AA68     		ldr	r2, [r5, #8]
 1154 00b2 4A45     		cmp	r2, r9
 1155 00b4 A8BF     		it	ge
ARM GAS  C:\Users\ADMINI~1\AppData\Local\Temp\ccyi9XNv.s 			page 42


 1156 00b6 4A46     		movge	r2, r9
 1157 00b8 6E68     		ldr	r6, [r5, #4]
 433:Middlewares/LVGL/GUI/lvgl/src/extra/layouts/flex/lv_flex.c **** 
 1158              		.loc 2 433 28 view .LVU377
 1159 00ba 9642     		cmp	r6, r2
 1160 00bc B8BF     		it	lt
 1161 00be 1646     		movlt	r6, r2
 1162              	.LVL105:
 435:Middlewares/LVGL/GUI/lvgl/src/extra/layouts/flex/lv_flex.c ****                     t->grow_dsc[i].clamped = 1;
 1163              		.loc 2 435 17 is_stmt 1 view .LVU378
 435:Middlewares/LVGL/GUI/lvgl/src/extra/layouts/flex/lv_flex.c ****                     t->grow_dsc[i].clamped = 1;
 1164              		.loc 2 435 19 is_stmt 0 view .LVU379
 1165 00c0 B145     		cmp	r9, r6
 1166 00c2 D4D1     		bne	.L106
 1167 00c4 D8E7     		b	.L65
 1168              	.LVL106:
 1169              	.L105:
 435:Middlewares/LVGL/GUI/lvgl/src/extra/layouts/flex/lv_flex.c ****                     t->grow_dsc[i].clamped = 1;
 1170              		.loc 2 435 19 view .LVU380
 1171              	.LBE83:
 1172 00c6 6746     		mov	r7, ip
 1173              	.LVL107:
 1174              	.L58:
 435:Middlewares/LVGL/GUI/lvgl/src/extra/layouts/flex/lv_flex.c ****                     t->grow_dsc[i].clamped = 1;
 1175              		.loc 2 435 19 view .LVU381
 1176              	.LBE81:
 415:Middlewares/LVGL/GUI/lvgl/src/extra/layouts/flex/lv_flex.c ****         grow_reiterate = false;
 1177              		.loc 2 415 10 is_stmt 1 view .LVU382
 1178 00c8 2FB1     		cbz	r7, .L107
 1179              	.LBB84:
 416:Middlewares/LVGL/GUI/lvgl/src/extra/layouts/flex/lv_flex.c ****         lv_coord_t grow_value_sum = 0;
 1180              		.loc 2 416 9 view .LVU383
 1181              	.LVL108:
 417:Middlewares/LVGL/GUI/lvgl/src/extra/layouts/flex/lv_flex.c ****         lv_coord_t grow_max_size = t->track_main_size - t->track_fix_main_size;
 1182              		.loc 2 417 9 view .LVU384
 418:Middlewares/LVGL/GUI/lvgl/src/extra/layouts/flex/lv_flex.c ****         for(i = 0; i < t->grow_item_cnt; i++) {
 1183              		.loc 2 418 9 view .LVU385
 418:Middlewares/LVGL/GUI/lvgl/src/extra/layouts/flex/lv_flex.c ****         for(i = 0; i < t->grow_item_cnt; i++) {
 1184              		.loc 2 418 37 is_stmt 0 view .LVU386
 1185 00ca 6168     		ldr	r1, [r4, #4]
 418:Middlewares/LVGL/GUI/lvgl/src/extra/layouts/flex/lv_flex.c ****         for(i = 0; i < t->grow_item_cnt; i++) {
 1186              		.loc 2 418 58 view .LVU387
 1187 00cc A368     		ldr	r3, [r4, #8]
 418:Middlewares/LVGL/GUI/lvgl/src/extra/layouts/flex/lv_flex.c ****         for(i = 0; i < t->grow_item_cnt; i++) {
 1188              		.loc 2 418 20 view .LVU388
 1189 00ce C91A     		subs	r1, r1, r3
 1190              	.LVL109:
 419:Middlewares/LVGL/GUI/lvgl/src/extra/layouts/flex/lv_flex.c ****             if(t->grow_dsc[i].clamped == 0) {
 1191              		.loc 2 419 9 is_stmt 1 view .LVU389
 417:Middlewares/LVGL/GUI/lvgl/src/extra/layouts/flex/lv_flex.c ****         lv_coord_t grow_max_size = t->track_main_size - t->track_fix_main_size;
 1192              		.loc 2 417 20 is_stmt 0 view .LVU390
 1193 00d0 0020     		movs	r0, #0
 419:Middlewares/LVGL/GUI/lvgl/src/extra/layouts/flex/lv_flex.c ****             if(t->grow_dsc[i].clamped == 0) {
 1194              		.loc 2 419 15 view .LVU391
 1195 00d2 0246     		mov	r2, r0
 419:Middlewares/LVGL/GUI/lvgl/src/extra/layouts/flex/lv_flex.c ****             if(t->grow_dsc[i].clamped == 0) {
 1196              		.loc 2 419 9 view .LVU392
ARM GAS  C:\Users\ADMINI~1\AppData\Local\Temp\ccyi9XNv.s 			page 43


 1197 00d4 B7E7     		b	.L59
 1198              	.LVL110:
 1199              	.L107:
 419:Middlewares/LVGL/GUI/lvgl/src/extra/layouts/flex/lv_flex.c ****             if(t->grow_dsc[i].clamped == 0) {
 1200              		.loc 2 419 9 view .LVU393
 1201              	.LBE84:
 1202              	.LBB85:
 1203              	.LBB86:
  35:Middlewares/LVGL/GUI/lvgl/src/extra/layouts/flex/../flex/../../../core/lv_obj_style_gen.h **** }
  36:Middlewares/LVGL/GUI/lvgl/src/extra/layouts/flex/../flex/../../../core/lv_obj_style_gen.h **** 
  37:Middlewares/LVGL/GUI/lvgl/src/extra/layouts/flex/../flex/../../../core/lv_obj_style_gen.h **** static inline lv_coord_t lv_obj_get_style_x(const struct _lv_obj_t * obj, uint32_t part)
  38:Middlewares/LVGL/GUI/lvgl/src/extra/layouts/flex/../flex/../../../core/lv_obj_style_gen.h **** {
  39:Middlewares/LVGL/GUI/lvgl/src/extra/layouts/flex/../flex/../../../core/lv_obj_style_gen.h ****     lv_style_value_t v = lv_obj_get_style_prop(obj, part, LV_STYLE_X);
  40:Middlewares/LVGL/GUI/lvgl/src/extra/layouts/flex/../flex/../../../core/lv_obj_style_gen.h ****     return (lv_coord_t)v.num;
  41:Middlewares/LVGL/GUI/lvgl/src/extra/layouts/flex/../flex/../../../core/lv_obj_style_gen.h **** }
  42:Middlewares/LVGL/GUI/lvgl/src/extra/layouts/flex/../flex/../../../core/lv_obj_style_gen.h **** 
  43:Middlewares/LVGL/GUI/lvgl/src/extra/layouts/flex/../flex/../../../core/lv_obj_style_gen.h **** static inline lv_coord_t lv_obj_get_style_y(const struct _lv_obj_t * obj, uint32_t part)
  44:Middlewares/LVGL/GUI/lvgl/src/extra/layouts/flex/../flex/../../../core/lv_obj_style_gen.h **** {
  45:Middlewares/LVGL/GUI/lvgl/src/extra/layouts/flex/../flex/../../../core/lv_obj_style_gen.h ****     lv_style_value_t v = lv_obj_get_style_prop(obj, part, LV_STYLE_Y);
  46:Middlewares/LVGL/GUI/lvgl/src/extra/layouts/flex/../flex/../../../core/lv_obj_style_gen.h ****     return (lv_coord_t)v.num;
  47:Middlewares/LVGL/GUI/lvgl/src/extra/layouts/flex/../flex/../../../core/lv_obj_style_gen.h **** }
  48:Middlewares/LVGL/GUI/lvgl/src/extra/layouts/flex/../flex/../../../core/lv_obj_style_gen.h **** 
  49:Middlewares/LVGL/GUI/lvgl/src/extra/layouts/flex/../flex/../../../core/lv_obj_style_gen.h **** static inline lv_align_t lv_obj_get_style_align(const struct _lv_obj_t * obj, uint32_t part)
  50:Middlewares/LVGL/GUI/lvgl/src/extra/layouts/flex/../flex/../../../core/lv_obj_style_gen.h **** {
  51:Middlewares/LVGL/GUI/lvgl/src/extra/layouts/flex/../flex/../../../core/lv_obj_style_gen.h ****     lv_style_value_t v = lv_obj_get_style_prop(obj, part, LV_STYLE_ALIGN);
  52:Middlewares/LVGL/GUI/lvgl/src/extra/layouts/flex/../flex/../../../core/lv_obj_style_gen.h ****     return (lv_align_t)v.num;
  53:Middlewares/LVGL/GUI/lvgl/src/extra/layouts/flex/../flex/../../../core/lv_obj_style_gen.h **** }
  54:Middlewares/LVGL/GUI/lvgl/src/extra/layouts/flex/../flex/../../../core/lv_obj_style_gen.h **** 
  55:Middlewares/LVGL/GUI/lvgl/src/extra/layouts/flex/../flex/../../../core/lv_obj_style_gen.h **** static inline lv_coord_t lv_obj_get_style_transform_width(const struct _lv_obj_t * obj, uint32_t pa
  56:Middlewares/LVGL/GUI/lvgl/src/extra/layouts/flex/../flex/../../../core/lv_obj_style_gen.h **** {
  57:Middlewares/LVGL/GUI/lvgl/src/extra/layouts/flex/../flex/../../../core/lv_obj_style_gen.h ****     lv_style_value_t v = lv_obj_get_style_prop(obj, part, LV_STYLE_TRANSFORM_WIDTH);
  58:Middlewares/LVGL/GUI/lvgl/src/extra/layouts/flex/../flex/../../../core/lv_obj_style_gen.h ****     return (lv_coord_t)v.num;
  59:Middlewares/LVGL/GUI/lvgl/src/extra/layouts/flex/../flex/../../../core/lv_obj_style_gen.h **** }
  60:Middlewares/LVGL/GUI/lvgl/src/extra/layouts/flex/../flex/../../../core/lv_obj_style_gen.h **** 
  61:Middlewares/LVGL/GUI/lvgl/src/extra/layouts/flex/../flex/../../../core/lv_obj_style_gen.h **** static inline lv_coord_t lv_obj_get_style_transform_height(const struct _lv_obj_t * obj, uint32_t p
  62:Middlewares/LVGL/GUI/lvgl/src/extra/layouts/flex/../flex/../../../core/lv_obj_style_gen.h **** {
  63:Middlewares/LVGL/GUI/lvgl/src/extra/layouts/flex/../flex/../../../core/lv_obj_style_gen.h ****     lv_style_value_t v = lv_obj_get_style_prop(obj, part, LV_STYLE_TRANSFORM_HEIGHT);
  64:Middlewares/LVGL/GUI/lvgl/src/extra/layouts/flex/../flex/../../../core/lv_obj_style_gen.h ****     return (lv_coord_t)v.num;
  65:Middlewares/LVGL/GUI/lvgl/src/extra/layouts/flex/../flex/../../../core/lv_obj_style_gen.h **** }
  66:Middlewares/LVGL/GUI/lvgl/src/extra/layouts/flex/../flex/../../../core/lv_obj_style_gen.h **** 
  67:Middlewares/LVGL/GUI/lvgl/src/extra/layouts/flex/../flex/../../../core/lv_obj_style_gen.h **** static inline lv_coord_t lv_obj_get_style_translate_x(const struct _lv_obj_t * obj, uint32_t part)
  68:Middlewares/LVGL/GUI/lvgl/src/extra/layouts/flex/../flex/../../../core/lv_obj_style_gen.h **** {
  69:Middlewares/LVGL/GUI/lvgl/src/extra/layouts/flex/../flex/../../../core/lv_obj_style_gen.h ****     lv_style_value_t v = lv_obj_get_style_prop(obj, part, LV_STYLE_TRANSLATE_X);
  70:Middlewares/LVGL/GUI/lvgl/src/extra/layouts/flex/../flex/../../../core/lv_obj_style_gen.h ****     return (lv_coord_t)v.num;
  71:Middlewares/LVGL/GUI/lvgl/src/extra/layouts/flex/../flex/../../../core/lv_obj_style_gen.h **** }
  72:Middlewares/LVGL/GUI/lvgl/src/extra/layouts/flex/../flex/../../../core/lv_obj_style_gen.h **** 
  73:Middlewares/LVGL/GUI/lvgl/src/extra/layouts/flex/../flex/../../../core/lv_obj_style_gen.h **** static inline lv_coord_t lv_obj_get_style_translate_y(const struct _lv_obj_t * obj, uint32_t part)
  74:Middlewares/LVGL/GUI/lvgl/src/extra/layouts/flex/../flex/../../../core/lv_obj_style_gen.h **** {
  75:Middlewares/LVGL/GUI/lvgl/src/extra/layouts/flex/../flex/../../../core/lv_obj_style_gen.h ****     lv_style_value_t v = lv_obj_get_style_prop(obj, part, LV_STYLE_TRANSLATE_Y);
  76:Middlewares/LVGL/GUI/lvgl/src/extra/layouts/flex/../flex/../../../core/lv_obj_style_gen.h ****     return (lv_coord_t)v.num;
  77:Middlewares/LVGL/GUI/lvgl/src/extra/layouts/flex/../flex/../../../core/lv_obj_style_gen.h **** }
  78:Middlewares/LVGL/GUI/lvgl/src/extra/layouts/flex/../flex/../../../core/lv_obj_style_gen.h **** 
  79:Middlewares/LVGL/GUI/lvgl/src/extra/layouts/flex/../flex/../../../core/lv_obj_style_gen.h **** static inline lv_coord_t lv_obj_get_style_transform_zoom(const struct _lv_obj_t * obj, uint32_t par
  80:Middlewares/LVGL/GUI/lvgl/src/extra/layouts/flex/../flex/../../../core/lv_obj_style_gen.h **** {
  81:Middlewares/LVGL/GUI/lvgl/src/extra/layouts/flex/../flex/../../../core/lv_obj_style_gen.h ****     lv_style_value_t v = lv_obj_get_style_prop(obj, part, LV_STYLE_TRANSFORM_ZOOM);
  82:Middlewares/LVGL/GUI/lvgl/src/extra/layouts/flex/../flex/../../../core/lv_obj_style_gen.h ****     return (lv_coord_t)v.num;
  83:Middlewares/LVGL/GUI/lvgl/src/extra/layouts/flex/../flex/../../../core/lv_obj_style_gen.h **** }
ARM GAS  C:\Users\ADMINI~1\AppData\Local\Temp\ccyi9XNv.s 			page 44


  84:Middlewares/LVGL/GUI/lvgl/src/extra/layouts/flex/../flex/../../../core/lv_obj_style_gen.h **** 
  85:Middlewares/LVGL/GUI/lvgl/src/extra/layouts/flex/../flex/../../../core/lv_obj_style_gen.h **** static inline lv_coord_t lv_obj_get_style_transform_angle(const struct _lv_obj_t * obj, uint32_t pa
  86:Middlewares/LVGL/GUI/lvgl/src/extra/layouts/flex/../flex/../../../core/lv_obj_style_gen.h **** {
  87:Middlewares/LVGL/GUI/lvgl/src/extra/layouts/flex/../flex/../../../core/lv_obj_style_gen.h ****     lv_style_value_t v = lv_obj_get_style_prop(obj, part, LV_STYLE_TRANSFORM_ANGLE);
  88:Middlewares/LVGL/GUI/lvgl/src/extra/layouts/flex/../flex/../../../core/lv_obj_style_gen.h ****     return (lv_coord_t)v.num;
  89:Middlewares/LVGL/GUI/lvgl/src/extra/layouts/flex/../flex/../../../core/lv_obj_style_gen.h **** }
  90:Middlewares/LVGL/GUI/lvgl/src/extra/layouts/flex/../flex/../../../core/lv_obj_style_gen.h **** 
  91:Middlewares/LVGL/GUI/lvgl/src/extra/layouts/flex/../flex/../../../core/lv_obj_style_gen.h **** static inline lv_coord_t lv_obj_get_style_pad_top(const struct _lv_obj_t * obj, uint32_t part)
  92:Middlewares/LVGL/GUI/lvgl/src/extra/layouts/flex/../flex/../../../core/lv_obj_style_gen.h **** {
  93:Middlewares/LVGL/GUI/lvgl/src/extra/layouts/flex/../flex/../../../core/lv_obj_style_gen.h ****     lv_style_value_t v = lv_obj_get_style_prop(obj, part, LV_STYLE_PAD_TOP);
  94:Middlewares/LVGL/GUI/lvgl/src/extra/layouts/flex/../flex/../../../core/lv_obj_style_gen.h ****     return (lv_coord_t)v.num;
  95:Middlewares/LVGL/GUI/lvgl/src/extra/layouts/flex/../flex/../../../core/lv_obj_style_gen.h **** }
  96:Middlewares/LVGL/GUI/lvgl/src/extra/layouts/flex/../flex/../../../core/lv_obj_style_gen.h **** 
  97:Middlewares/LVGL/GUI/lvgl/src/extra/layouts/flex/../flex/../../../core/lv_obj_style_gen.h **** static inline lv_coord_t lv_obj_get_style_pad_bottom(const struct _lv_obj_t * obj, uint32_t part)
  98:Middlewares/LVGL/GUI/lvgl/src/extra/layouts/flex/../flex/../../../core/lv_obj_style_gen.h **** {
  99:Middlewares/LVGL/GUI/lvgl/src/extra/layouts/flex/../flex/../../../core/lv_obj_style_gen.h ****     lv_style_value_t v = lv_obj_get_style_prop(obj, part, LV_STYLE_PAD_BOTTOM);
 100:Middlewares/LVGL/GUI/lvgl/src/extra/layouts/flex/../flex/../../../core/lv_obj_style_gen.h ****     return (lv_coord_t)v.num;
 101:Middlewares/LVGL/GUI/lvgl/src/extra/layouts/flex/../flex/../../../core/lv_obj_style_gen.h **** }
 102:Middlewares/LVGL/GUI/lvgl/src/extra/layouts/flex/../flex/../../../core/lv_obj_style_gen.h **** 
 103:Middlewares/LVGL/GUI/lvgl/src/extra/layouts/flex/../flex/../../../core/lv_obj_style_gen.h **** static inline lv_coord_t lv_obj_get_style_pad_left(const struct _lv_obj_t * obj, uint32_t part)
 104:Middlewares/LVGL/GUI/lvgl/src/extra/layouts/flex/../flex/../../../core/lv_obj_style_gen.h **** {
 105:Middlewares/LVGL/GUI/lvgl/src/extra/layouts/flex/../flex/../../../core/lv_obj_style_gen.h ****     lv_style_value_t v = lv_obj_get_style_prop(obj, part, LV_STYLE_PAD_LEFT);
 106:Middlewares/LVGL/GUI/lvgl/src/extra/layouts/flex/../flex/../../../core/lv_obj_style_gen.h ****     return (lv_coord_t)v.num;
 107:Middlewares/LVGL/GUI/lvgl/src/extra/layouts/flex/../flex/../../../core/lv_obj_style_gen.h **** }
 108:Middlewares/LVGL/GUI/lvgl/src/extra/layouts/flex/../flex/../../../core/lv_obj_style_gen.h **** 
 109:Middlewares/LVGL/GUI/lvgl/src/extra/layouts/flex/../flex/../../../core/lv_obj_style_gen.h **** static inline lv_coord_t lv_obj_get_style_pad_right(const struct _lv_obj_t * obj, uint32_t part)
 110:Middlewares/LVGL/GUI/lvgl/src/extra/layouts/flex/../flex/../../../core/lv_obj_style_gen.h **** {
 111:Middlewares/LVGL/GUI/lvgl/src/extra/layouts/flex/../flex/../../../core/lv_obj_style_gen.h ****     lv_style_value_t v = lv_obj_get_style_prop(obj, part, LV_STYLE_PAD_RIGHT);
 112:Middlewares/LVGL/GUI/lvgl/src/extra/layouts/flex/../flex/../../../core/lv_obj_style_gen.h ****     return (lv_coord_t)v.num;
 113:Middlewares/LVGL/GUI/lvgl/src/extra/layouts/flex/../flex/../../../core/lv_obj_style_gen.h **** }
 114:Middlewares/LVGL/GUI/lvgl/src/extra/layouts/flex/../flex/../../../core/lv_obj_style_gen.h **** 
 115:Middlewares/LVGL/GUI/lvgl/src/extra/layouts/flex/../flex/../../../core/lv_obj_style_gen.h **** static inline lv_coord_t lv_obj_get_style_pad_row(const struct _lv_obj_t * obj, uint32_t part)
 116:Middlewares/LVGL/GUI/lvgl/src/extra/layouts/flex/../flex/../../../core/lv_obj_style_gen.h **** {
 117:Middlewares/LVGL/GUI/lvgl/src/extra/layouts/flex/../flex/../../../core/lv_obj_style_gen.h ****     lv_style_value_t v = lv_obj_get_style_prop(obj, part, LV_STYLE_PAD_ROW);
 118:Middlewares/LVGL/GUI/lvgl/src/extra/layouts/flex/../flex/../../../core/lv_obj_style_gen.h ****     return (lv_coord_t)v.num;
 119:Middlewares/LVGL/GUI/lvgl/src/extra/layouts/flex/../flex/../../../core/lv_obj_style_gen.h **** }
 120:Middlewares/LVGL/GUI/lvgl/src/extra/layouts/flex/../flex/../../../core/lv_obj_style_gen.h **** 
 121:Middlewares/LVGL/GUI/lvgl/src/extra/layouts/flex/../flex/../../../core/lv_obj_style_gen.h **** static inline lv_coord_t lv_obj_get_style_pad_column(const struct _lv_obj_t * obj, uint32_t part)
 122:Middlewares/LVGL/GUI/lvgl/src/extra/layouts/flex/../flex/../../../core/lv_obj_style_gen.h **** {
 123:Middlewares/LVGL/GUI/lvgl/src/extra/layouts/flex/../flex/../../../core/lv_obj_style_gen.h ****     lv_style_value_t v = lv_obj_get_style_prop(obj, part, LV_STYLE_PAD_COLUMN);
 124:Middlewares/LVGL/GUI/lvgl/src/extra/layouts/flex/../flex/../../../core/lv_obj_style_gen.h ****     return (lv_coord_t)v.num;
 125:Middlewares/LVGL/GUI/lvgl/src/extra/layouts/flex/../flex/../../../core/lv_obj_style_gen.h **** }
 126:Middlewares/LVGL/GUI/lvgl/src/extra/layouts/flex/../flex/../../../core/lv_obj_style_gen.h **** 
 127:Middlewares/LVGL/GUI/lvgl/src/extra/layouts/flex/../flex/../../../core/lv_obj_style_gen.h **** static inline lv_color_t lv_obj_get_style_bg_color(const struct _lv_obj_t * obj, uint32_t part)
 128:Middlewares/LVGL/GUI/lvgl/src/extra/layouts/flex/../flex/../../../core/lv_obj_style_gen.h **** {
 129:Middlewares/LVGL/GUI/lvgl/src/extra/layouts/flex/../flex/../../../core/lv_obj_style_gen.h ****     lv_style_value_t v = lv_obj_get_style_prop(obj, part, LV_STYLE_BG_COLOR);
 130:Middlewares/LVGL/GUI/lvgl/src/extra/layouts/flex/../flex/../../../core/lv_obj_style_gen.h ****     return v.color;
 131:Middlewares/LVGL/GUI/lvgl/src/extra/layouts/flex/../flex/../../../core/lv_obj_style_gen.h **** }
 132:Middlewares/LVGL/GUI/lvgl/src/extra/layouts/flex/../flex/../../../core/lv_obj_style_gen.h **** 
 133:Middlewares/LVGL/GUI/lvgl/src/extra/layouts/flex/../flex/../../../core/lv_obj_style_gen.h **** static inline lv_color_t lv_obj_get_style_bg_color_filtered(const struct _lv_obj_t * obj, uint32_t 
 134:Middlewares/LVGL/GUI/lvgl/src/extra/layouts/flex/../flex/../../../core/lv_obj_style_gen.h **** {
 135:Middlewares/LVGL/GUI/lvgl/src/extra/layouts/flex/../flex/../../../core/lv_obj_style_gen.h ****     lv_style_value_t v = lv_obj_get_style_prop(obj, part, LV_STYLE_BG_COLOR_FILTERED);
 136:Middlewares/LVGL/GUI/lvgl/src/extra/layouts/flex/../flex/../../../core/lv_obj_style_gen.h ****     return v.color;
 137:Middlewares/LVGL/GUI/lvgl/src/extra/layouts/flex/../flex/../../../core/lv_obj_style_gen.h **** }
 138:Middlewares/LVGL/GUI/lvgl/src/extra/layouts/flex/../flex/../../../core/lv_obj_style_gen.h **** 
 139:Middlewares/LVGL/GUI/lvgl/src/extra/layouts/flex/../flex/../../../core/lv_obj_style_gen.h **** static inline lv_opa_t lv_obj_get_style_bg_opa(const struct _lv_obj_t * obj, uint32_t part)
 140:Middlewares/LVGL/GUI/lvgl/src/extra/layouts/flex/../flex/../../../core/lv_obj_style_gen.h **** {
ARM GAS  C:\Users\ADMINI~1\AppData\Local\Temp\ccyi9XNv.s 			page 45


 141:Middlewares/LVGL/GUI/lvgl/src/extra/layouts/flex/../flex/../../../core/lv_obj_style_gen.h ****     lv_style_value_t v = lv_obj_get_style_prop(obj, part, LV_STYLE_BG_OPA);
 142:Middlewares/LVGL/GUI/lvgl/src/extra/layouts/flex/../flex/../../../core/lv_obj_style_gen.h ****     return (lv_opa_t)v.num;
 143:Middlewares/LVGL/GUI/lvgl/src/extra/layouts/flex/../flex/../../../core/lv_obj_style_gen.h **** }
 144:Middlewares/LVGL/GUI/lvgl/src/extra/layouts/flex/../flex/../../../core/lv_obj_style_gen.h **** 
 145:Middlewares/LVGL/GUI/lvgl/src/extra/layouts/flex/../flex/../../../core/lv_obj_style_gen.h **** static inline lv_color_t lv_obj_get_style_bg_grad_color(const struct _lv_obj_t * obj, uint32_t part
 146:Middlewares/LVGL/GUI/lvgl/src/extra/layouts/flex/../flex/../../../core/lv_obj_style_gen.h **** {
 147:Middlewares/LVGL/GUI/lvgl/src/extra/layouts/flex/../flex/../../../core/lv_obj_style_gen.h ****     lv_style_value_t v = lv_obj_get_style_prop(obj, part, LV_STYLE_BG_GRAD_COLOR);
 148:Middlewares/LVGL/GUI/lvgl/src/extra/layouts/flex/../flex/../../../core/lv_obj_style_gen.h ****     return v.color;
 149:Middlewares/LVGL/GUI/lvgl/src/extra/layouts/flex/../flex/../../../core/lv_obj_style_gen.h **** }
 150:Middlewares/LVGL/GUI/lvgl/src/extra/layouts/flex/../flex/../../../core/lv_obj_style_gen.h **** 
 151:Middlewares/LVGL/GUI/lvgl/src/extra/layouts/flex/../flex/../../../core/lv_obj_style_gen.h **** static inline lv_color_t lv_obj_get_style_bg_grad_color_filtered(const struct _lv_obj_t * obj, uint
 152:Middlewares/LVGL/GUI/lvgl/src/extra/layouts/flex/../flex/../../../core/lv_obj_style_gen.h **** {
 153:Middlewares/LVGL/GUI/lvgl/src/extra/layouts/flex/../flex/../../../core/lv_obj_style_gen.h ****     lv_style_value_t v = lv_obj_get_style_prop(obj, part, LV_STYLE_BG_GRAD_COLOR_FILTERED);
 154:Middlewares/LVGL/GUI/lvgl/src/extra/layouts/flex/../flex/../../../core/lv_obj_style_gen.h ****     return v.color;
 155:Middlewares/LVGL/GUI/lvgl/src/extra/layouts/flex/../flex/../../../core/lv_obj_style_gen.h **** }
 156:Middlewares/LVGL/GUI/lvgl/src/extra/layouts/flex/../flex/../../../core/lv_obj_style_gen.h **** 
 157:Middlewares/LVGL/GUI/lvgl/src/extra/layouts/flex/../flex/../../../core/lv_obj_style_gen.h **** static inline lv_grad_dir_t lv_obj_get_style_bg_grad_dir(const struct _lv_obj_t * obj, uint32_t par
 158:Middlewares/LVGL/GUI/lvgl/src/extra/layouts/flex/../flex/../../../core/lv_obj_style_gen.h **** {
 159:Middlewares/LVGL/GUI/lvgl/src/extra/layouts/flex/../flex/../../../core/lv_obj_style_gen.h ****     lv_style_value_t v = lv_obj_get_style_prop(obj, part, LV_STYLE_BG_GRAD_DIR);
 160:Middlewares/LVGL/GUI/lvgl/src/extra/layouts/flex/../flex/../../../core/lv_obj_style_gen.h ****     return (lv_grad_dir_t)v.num;
 161:Middlewares/LVGL/GUI/lvgl/src/extra/layouts/flex/../flex/../../../core/lv_obj_style_gen.h **** }
 162:Middlewares/LVGL/GUI/lvgl/src/extra/layouts/flex/../flex/../../../core/lv_obj_style_gen.h **** 
 163:Middlewares/LVGL/GUI/lvgl/src/extra/layouts/flex/../flex/../../../core/lv_obj_style_gen.h **** static inline lv_coord_t lv_obj_get_style_bg_main_stop(const struct _lv_obj_t * obj, uint32_t part)
 164:Middlewares/LVGL/GUI/lvgl/src/extra/layouts/flex/../flex/../../../core/lv_obj_style_gen.h **** {
 165:Middlewares/LVGL/GUI/lvgl/src/extra/layouts/flex/../flex/../../../core/lv_obj_style_gen.h ****     lv_style_value_t v = lv_obj_get_style_prop(obj, part, LV_STYLE_BG_MAIN_STOP);
 166:Middlewares/LVGL/GUI/lvgl/src/extra/layouts/flex/../flex/../../../core/lv_obj_style_gen.h ****     return (lv_coord_t)v.num;
 167:Middlewares/LVGL/GUI/lvgl/src/extra/layouts/flex/../flex/../../../core/lv_obj_style_gen.h **** }
 168:Middlewares/LVGL/GUI/lvgl/src/extra/layouts/flex/../flex/../../../core/lv_obj_style_gen.h **** 
 169:Middlewares/LVGL/GUI/lvgl/src/extra/layouts/flex/../flex/../../../core/lv_obj_style_gen.h **** static inline lv_coord_t lv_obj_get_style_bg_grad_stop(const struct _lv_obj_t * obj, uint32_t part)
 170:Middlewares/LVGL/GUI/lvgl/src/extra/layouts/flex/../flex/../../../core/lv_obj_style_gen.h **** {
 171:Middlewares/LVGL/GUI/lvgl/src/extra/layouts/flex/../flex/../../../core/lv_obj_style_gen.h ****     lv_style_value_t v = lv_obj_get_style_prop(obj, part, LV_STYLE_BG_GRAD_STOP);
 172:Middlewares/LVGL/GUI/lvgl/src/extra/layouts/flex/../flex/../../../core/lv_obj_style_gen.h ****     return (lv_coord_t)v.num;
 173:Middlewares/LVGL/GUI/lvgl/src/extra/layouts/flex/../flex/../../../core/lv_obj_style_gen.h **** }
 174:Middlewares/LVGL/GUI/lvgl/src/extra/layouts/flex/../flex/../../../core/lv_obj_style_gen.h **** 
 175:Middlewares/LVGL/GUI/lvgl/src/extra/layouts/flex/../flex/../../../core/lv_obj_style_gen.h **** static inline const lv_grad_dsc_t * lv_obj_get_style_bg_grad(const struct _lv_obj_t * obj, uint32_t
 176:Middlewares/LVGL/GUI/lvgl/src/extra/layouts/flex/../flex/../../../core/lv_obj_style_gen.h **** {
 177:Middlewares/LVGL/GUI/lvgl/src/extra/layouts/flex/../flex/../../../core/lv_obj_style_gen.h ****     lv_style_value_t v = lv_obj_get_style_prop(obj, part, LV_STYLE_BG_GRAD);
 178:Middlewares/LVGL/GUI/lvgl/src/extra/layouts/flex/../flex/../../../core/lv_obj_style_gen.h ****     return (const lv_grad_dsc_t *)v.ptr;
 179:Middlewares/LVGL/GUI/lvgl/src/extra/layouts/flex/../flex/../../../core/lv_obj_style_gen.h **** }
 180:Middlewares/LVGL/GUI/lvgl/src/extra/layouts/flex/../flex/../../../core/lv_obj_style_gen.h **** 
 181:Middlewares/LVGL/GUI/lvgl/src/extra/layouts/flex/../flex/../../../core/lv_obj_style_gen.h **** static inline lv_dither_mode_t lv_obj_get_style_bg_dither_mode(const struct _lv_obj_t * obj, uint32
 182:Middlewares/LVGL/GUI/lvgl/src/extra/layouts/flex/../flex/../../../core/lv_obj_style_gen.h **** {
 183:Middlewares/LVGL/GUI/lvgl/src/extra/layouts/flex/../flex/../../../core/lv_obj_style_gen.h ****     lv_style_value_t v = lv_obj_get_style_prop(obj, part, LV_STYLE_BG_DITHER_MODE);
 184:Middlewares/LVGL/GUI/lvgl/src/extra/layouts/flex/../flex/../../../core/lv_obj_style_gen.h ****     return (lv_dither_mode_t)v.num;
 185:Middlewares/LVGL/GUI/lvgl/src/extra/layouts/flex/../flex/../../../core/lv_obj_style_gen.h **** }
 186:Middlewares/LVGL/GUI/lvgl/src/extra/layouts/flex/../flex/../../../core/lv_obj_style_gen.h **** 
 187:Middlewares/LVGL/GUI/lvgl/src/extra/layouts/flex/../flex/../../../core/lv_obj_style_gen.h **** static inline const void * lv_obj_get_style_bg_img_src(const struct _lv_obj_t * obj, uint32_t part)
 188:Middlewares/LVGL/GUI/lvgl/src/extra/layouts/flex/../flex/../../../core/lv_obj_style_gen.h **** {
 189:Middlewares/LVGL/GUI/lvgl/src/extra/layouts/flex/../flex/../../../core/lv_obj_style_gen.h ****     lv_style_value_t v = lv_obj_get_style_prop(obj, part, LV_STYLE_BG_IMG_SRC);
 190:Middlewares/LVGL/GUI/lvgl/src/extra/layouts/flex/../flex/../../../core/lv_obj_style_gen.h ****     return (const void *)v.ptr;
 191:Middlewares/LVGL/GUI/lvgl/src/extra/layouts/flex/../flex/../../../core/lv_obj_style_gen.h **** }
 192:Middlewares/LVGL/GUI/lvgl/src/extra/layouts/flex/../flex/../../../core/lv_obj_style_gen.h **** 
 193:Middlewares/LVGL/GUI/lvgl/src/extra/layouts/flex/../flex/../../../core/lv_obj_style_gen.h **** static inline lv_opa_t lv_obj_get_style_bg_img_opa(const struct _lv_obj_t * obj, uint32_t part)
 194:Middlewares/LVGL/GUI/lvgl/src/extra/layouts/flex/../flex/../../../core/lv_obj_style_gen.h **** {
 195:Middlewares/LVGL/GUI/lvgl/src/extra/layouts/flex/../flex/../../../core/lv_obj_style_gen.h ****     lv_style_value_t v = lv_obj_get_style_prop(obj, part, LV_STYLE_BG_IMG_OPA);
 196:Middlewares/LVGL/GUI/lvgl/src/extra/layouts/flex/../flex/../../../core/lv_obj_style_gen.h ****     return (lv_opa_t)v.num;
 197:Middlewares/LVGL/GUI/lvgl/src/extra/layouts/flex/../flex/../../../core/lv_obj_style_gen.h **** }
ARM GAS  C:\Users\ADMINI~1\AppData\Local\Temp\ccyi9XNv.s 			page 46


 198:Middlewares/LVGL/GUI/lvgl/src/extra/layouts/flex/../flex/../../../core/lv_obj_style_gen.h **** 
 199:Middlewares/LVGL/GUI/lvgl/src/extra/layouts/flex/../flex/../../../core/lv_obj_style_gen.h **** static inline lv_color_t lv_obj_get_style_bg_img_recolor(const struct _lv_obj_t * obj, uint32_t par
 200:Middlewares/LVGL/GUI/lvgl/src/extra/layouts/flex/../flex/../../../core/lv_obj_style_gen.h **** {
 201:Middlewares/LVGL/GUI/lvgl/src/extra/layouts/flex/../flex/../../../core/lv_obj_style_gen.h ****     lv_style_value_t v = lv_obj_get_style_prop(obj, part, LV_STYLE_BG_IMG_RECOLOR);
 202:Middlewares/LVGL/GUI/lvgl/src/extra/layouts/flex/../flex/../../../core/lv_obj_style_gen.h ****     return v.color;
 203:Middlewares/LVGL/GUI/lvgl/src/extra/layouts/flex/../flex/../../../core/lv_obj_style_gen.h **** }
 204:Middlewares/LVGL/GUI/lvgl/src/extra/layouts/flex/../flex/../../../core/lv_obj_style_gen.h **** 
 205:Middlewares/LVGL/GUI/lvgl/src/extra/layouts/flex/../flex/../../../core/lv_obj_style_gen.h **** static inline lv_color_t lv_obj_get_style_bg_img_recolor_filtered(const struct _lv_obj_t * obj, uin
 206:Middlewares/LVGL/GUI/lvgl/src/extra/layouts/flex/../flex/../../../core/lv_obj_style_gen.h **** {
 207:Middlewares/LVGL/GUI/lvgl/src/extra/layouts/flex/../flex/../../../core/lv_obj_style_gen.h ****     lv_style_value_t v = lv_obj_get_style_prop(obj, part, LV_STYLE_BG_IMG_RECOLOR_FILTERED);
 208:Middlewares/LVGL/GUI/lvgl/src/extra/layouts/flex/../flex/../../../core/lv_obj_style_gen.h ****     return v.color;
 209:Middlewares/LVGL/GUI/lvgl/src/extra/layouts/flex/../flex/../../../core/lv_obj_style_gen.h **** }
 210:Middlewares/LVGL/GUI/lvgl/src/extra/layouts/flex/../flex/../../../core/lv_obj_style_gen.h **** 
 211:Middlewares/LVGL/GUI/lvgl/src/extra/layouts/flex/../flex/../../../core/lv_obj_style_gen.h **** static inline lv_opa_t lv_obj_get_style_bg_img_recolor_opa(const struct _lv_obj_t * obj, uint32_t p
 212:Middlewares/LVGL/GUI/lvgl/src/extra/layouts/flex/../flex/../../../core/lv_obj_style_gen.h **** {
 213:Middlewares/LVGL/GUI/lvgl/src/extra/layouts/flex/../flex/../../../core/lv_obj_style_gen.h ****     lv_style_value_t v = lv_obj_get_style_prop(obj, part, LV_STYLE_BG_IMG_RECOLOR_OPA);
 214:Middlewares/LVGL/GUI/lvgl/src/extra/layouts/flex/../flex/../../../core/lv_obj_style_gen.h ****     return (lv_opa_t)v.num;
 215:Middlewares/LVGL/GUI/lvgl/src/extra/layouts/flex/../flex/../../../core/lv_obj_style_gen.h **** }
 216:Middlewares/LVGL/GUI/lvgl/src/extra/layouts/flex/../flex/../../../core/lv_obj_style_gen.h **** 
 217:Middlewares/LVGL/GUI/lvgl/src/extra/layouts/flex/../flex/../../../core/lv_obj_style_gen.h **** static inline bool lv_obj_get_style_bg_img_tiled(const struct _lv_obj_t * obj, uint32_t part)
 218:Middlewares/LVGL/GUI/lvgl/src/extra/layouts/flex/../flex/../../../core/lv_obj_style_gen.h **** {
 219:Middlewares/LVGL/GUI/lvgl/src/extra/layouts/flex/../flex/../../../core/lv_obj_style_gen.h ****     lv_style_value_t v = lv_obj_get_style_prop(obj, part, LV_STYLE_BG_IMG_TILED);
 220:Middlewares/LVGL/GUI/lvgl/src/extra/layouts/flex/../flex/../../../core/lv_obj_style_gen.h ****     return (bool)v.num;
 221:Middlewares/LVGL/GUI/lvgl/src/extra/layouts/flex/../flex/../../../core/lv_obj_style_gen.h **** }
 222:Middlewares/LVGL/GUI/lvgl/src/extra/layouts/flex/../flex/../../../core/lv_obj_style_gen.h **** 
 223:Middlewares/LVGL/GUI/lvgl/src/extra/layouts/flex/../flex/../../../core/lv_obj_style_gen.h **** static inline lv_color_t lv_obj_get_style_border_color(const struct _lv_obj_t * obj, uint32_t part)
 224:Middlewares/LVGL/GUI/lvgl/src/extra/layouts/flex/../flex/../../../core/lv_obj_style_gen.h **** {
 225:Middlewares/LVGL/GUI/lvgl/src/extra/layouts/flex/../flex/../../../core/lv_obj_style_gen.h ****     lv_style_value_t v = lv_obj_get_style_prop(obj, part, LV_STYLE_BORDER_COLOR);
 226:Middlewares/LVGL/GUI/lvgl/src/extra/layouts/flex/../flex/../../../core/lv_obj_style_gen.h ****     return v.color;
 227:Middlewares/LVGL/GUI/lvgl/src/extra/layouts/flex/../flex/../../../core/lv_obj_style_gen.h **** }
 228:Middlewares/LVGL/GUI/lvgl/src/extra/layouts/flex/../flex/../../../core/lv_obj_style_gen.h **** 
 229:Middlewares/LVGL/GUI/lvgl/src/extra/layouts/flex/../flex/../../../core/lv_obj_style_gen.h **** static inline lv_color_t lv_obj_get_style_border_color_filtered(const struct _lv_obj_t * obj, uint3
 230:Middlewares/LVGL/GUI/lvgl/src/extra/layouts/flex/../flex/../../../core/lv_obj_style_gen.h **** {
 231:Middlewares/LVGL/GUI/lvgl/src/extra/layouts/flex/../flex/../../../core/lv_obj_style_gen.h ****     lv_style_value_t v = lv_obj_get_style_prop(obj, part, LV_STYLE_BORDER_COLOR_FILTERED);
 232:Middlewares/LVGL/GUI/lvgl/src/extra/layouts/flex/../flex/../../../core/lv_obj_style_gen.h ****     return v.color;
 233:Middlewares/LVGL/GUI/lvgl/src/extra/layouts/flex/../flex/../../../core/lv_obj_style_gen.h **** }
 234:Middlewares/LVGL/GUI/lvgl/src/extra/layouts/flex/../flex/../../../core/lv_obj_style_gen.h **** 
 235:Middlewares/LVGL/GUI/lvgl/src/extra/layouts/flex/../flex/../../../core/lv_obj_style_gen.h **** static inline lv_opa_t lv_obj_get_style_border_opa(const struct _lv_obj_t * obj, uint32_t part)
 236:Middlewares/LVGL/GUI/lvgl/src/extra/layouts/flex/../flex/../../../core/lv_obj_style_gen.h **** {
 237:Middlewares/LVGL/GUI/lvgl/src/extra/layouts/flex/../flex/../../../core/lv_obj_style_gen.h ****     lv_style_value_t v = lv_obj_get_style_prop(obj, part, LV_STYLE_BORDER_OPA);
 238:Middlewares/LVGL/GUI/lvgl/src/extra/layouts/flex/../flex/../../../core/lv_obj_style_gen.h ****     return (lv_opa_t)v.num;
 239:Middlewares/LVGL/GUI/lvgl/src/extra/layouts/flex/../flex/../../../core/lv_obj_style_gen.h **** }
 240:Middlewares/LVGL/GUI/lvgl/src/extra/layouts/flex/../flex/../../../core/lv_obj_style_gen.h **** 
 241:Middlewares/LVGL/GUI/lvgl/src/extra/layouts/flex/../flex/../../../core/lv_obj_style_gen.h **** static inline lv_coord_t lv_obj_get_style_border_width(const struct _lv_obj_t * obj, uint32_t part)
 242:Middlewares/LVGL/GUI/lvgl/src/extra/layouts/flex/../flex/../../../core/lv_obj_style_gen.h **** {
 243:Middlewares/LVGL/GUI/lvgl/src/extra/layouts/flex/../flex/../../../core/lv_obj_style_gen.h ****     lv_style_value_t v = lv_obj_get_style_prop(obj, part, LV_STYLE_BORDER_WIDTH);
 244:Middlewares/LVGL/GUI/lvgl/src/extra/layouts/flex/../flex/../../../core/lv_obj_style_gen.h ****     return (lv_coord_t)v.num;
 245:Middlewares/LVGL/GUI/lvgl/src/extra/layouts/flex/../flex/../../../core/lv_obj_style_gen.h **** }
 246:Middlewares/LVGL/GUI/lvgl/src/extra/layouts/flex/../flex/../../../core/lv_obj_style_gen.h **** 
 247:Middlewares/LVGL/GUI/lvgl/src/extra/layouts/flex/../flex/../../../core/lv_obj_style_gen.h **** static inline lv_border_side_t lv_obj_get_style_border_side(const struct _lv_obj_t * obj, uint32_t 
 248:Middlewares/LVGL/GUI/lvgl/src/extra/layouts/flex/../flex/../../../core/lv_obj_style_gen.h **** {
 249:Middlewares/LVGL/GUI/lvgl/src/extra/layouts/flex/../flex/../../../core/lv_obj_style_gen.h ****     lv_style_value_t v = lv_obj_get_style_prop(obj, part, LV_STYLE_BORDER_SIDE);
 250:Middlewares/LVGL/GUI/lvgl/src/extra/layouts/flex/../flex/../../../core/lv_obj_style_gen.h ****     return (lv_border_side_t)v.num;
 251:Middlewares/LVGL/GUI/lvgl/src/extra/layouts/flex/../flex/../../../core/lv_obj_style_gen.h **** }
 252:Middlewares/LVGL/GUI/lvgl/src/extra/layouts/flex/../flex/../../../core/lv_obj_style_gen.h **** 
 253:Middlewares/LVGL/GUI/lvgl/src/extra/layouts/flex/../flex/../../../core/lv_obj_style_gen.h **** static inline bool lv_obj_get_style_border_post(const struct _lv_obj_t * obj, uint32_t part)
 254:Middlewares/LVGL/GUI/lvgl/src/extra/layouts/flex/../flex/../../../core/lv_obj_style_gen.h **** {
ARM GAS  C:\Users\ADMINI~1\AppData\Local\Temp\ccyi9XNv.s 			page 47


 255:Middlewares/LVGL/GUI/lvgl/src/extra/layouts/flex/../flex/../../../core/lv_obj_style_gen.h ****     lv_style_value_t v = lv_obj_get_style_prop(obj, part, LV_STYLE_BORDER_POST);
 256:Middlewares/LVGL/GUI/lvgl/src/extra/layouts/flex/../flex/../../../core/lv_obj_style_gen.h ****     return (bool)v.num;
 257:Middlewares/LVGL/GUI/lvgl/src/extra/layouts/flex/../flex/../../../core/lv_obj_style_gen.h **** }
 258:Middlewares/LVGL/GUI/lvgl/src/extra/layouts/flex/../flex/../../../core/lv_obj_style_gen.h **** 
 259:Middlewares/LVGL/GUI/lvgl/src/extra/layouts/flex/../flex/../../../core/lv_obj_style_gen.h **** static inline lv_coord_t lv_obj_get_style_outline_width(const struct _lv_obj_t * obj, uint32_t part
 260:Middlewares/LVGL/GUI/lvgl/src/extra/layouts/flex/../flex/../../../core/lv_obj_style_gen.h **** {
 261:Middlewares/LVGL/GUI/lvgl/src/extra/layouts/flex/../flex/../../../core/lv_obj_style_gen.h ****     lv_style_value_t v = lv_obj_get_style_prop(obj, part, LV_STYLE_OUTLINE_WIDTH);
 262:Middlewares/LVGL/GUI/lvgl/src/extra/layouts/flex/../flex/../../../core/lv_obj_style_gen.h ****     return (lv_coord_t)v.num;
 263:Middlewares/LVGL/GUI/lvgl/src/extra/layouts/flex/../flex/../../../core/lv_obj_style_gen.h **** }
 264:Middlewares/LVGL/GUI/lvgl/src/extra/layouts/flex/../flex/../../../core/lv_obj_style_gen.h **** 
 265:Middlewares/LVGL/GUI/lvgl/src/extra/layouts/flex/../flex/../../../core/lv_obj_style_gen.h **** static inline lv_color_t lv_obj_get_style_outline_color(const struct _lv_obj_t * obj, uint32_t part
 266:Middlewares/LVGL/GUI/lvgl/src/extra/layouts/flex/../flex/../../../core/lv_obj_style_gen.h **** {
 267:Middlewares/LVGL/GUI/lvgl/src/extra/layouts/flex/../flex/../../../core/lv_obj_style_gen.h ****     lv_style_value_t v = lv_obj_get_style_prop(obj, part, LV_STYLE_OUTLINE_COLOR);
 268:Middlewares/LVGL/GUI/lvgl/src/extra/layouts/flex/../flex/../../../core/lv_obj_style_gen.h ****     return v.color;
 269:Middlewares/LVGL/GUI/lvgl/src/extra/layouts/flex/../flex/../../../core/lv_obj_style_gen.h **** }
 270:Middlewares/LVGL/GUI/lvgl/src/extra/layouts/flex/../flex/../../../core/lv_obj_style_gen.h **** 
 271:Middlewares/LVGL/GUI/lvgl/src/extra/layouts/flex/../flex/../../../core/lv_obj_style_gen.h **** static inline lv_color_t lv_obj_get_style_outline_color_filtered(const struct _lv_obj_t * obj, uint
 272:Middlewares/LVGL/GUI/lvgl/src/extra/layouts/flex/../flex/../../../core/lv_obj_style_gen.h **** {
 273:Middlewares/LVGL/GUI/lvgl/src/extra/layouts/flex/../flex/../../../core/lv_obj_style_gen.h ****     lv_style_value_t v = lv_obj_get_style_prop(obj, part, LV_STYLE_OUTLINE_COLOR_FILTERED);
 274:Middlewares/LVGL/GUI/lvgl/src/extra/layouts/flex/../flex/../../../core/lv_obj_style_gen.h ****     return v.color;
 275:Middlewares/LVGL/GUI/lvgl/src/extra/layouts/flex/../flex/../../../core/lv_obj_style_gen.h **** }
 276:Middlewares/LVGL/GUI/lvgl/src/extra/layouts/flex/../flex/../../../core/lv_obj_style_gen.h **** 
 277:Middlewares/LVGL/GUI/lvgl/src/extra/layouts/flex/../flex/../../../core/lv_obj_style_gen.h **** static inline lv_opa_t lv_obj_get_style_outline_opa(const struct _lv_obj_t * obj, uint32_t part)
 278:Middlewares/LVGL/GUI/lvgl/src/extra/layouts/flex/../flex/../../../core/lv_obj_style_gen.h **** {
 279:Middlewares/LVGL/GUI/lvgl/src/extra/layouts/flex/../flex/../../../core/lv_obj_style_gen.h ****     lv_style_value_t v = lv_obj_get_style_prop(obj, part, LV_STYLE_OUTLINE_OPA);
 280:Middlewares/LVGL/GUI/lvgl/src/extra/layouts/flex/../flex/../../../core/lv_obj_style_gen.h ****     return (lv_opa_t)v.num;
 281:Middlewares/LVGL/GUI/lvgl/src/extra/layouts/flex/../flex/../../../core/lv_obj_style_gen.h **** }
 282:Middlewares/LVGL/GUI/lvgl/src/extra/layouts/flex/../flex/../../../core/lv_obj_style_gen.h **** 
 283:Middlewares/LVGL/GUI/lvgl/src/extra/layouts/flex/../flex/../../../core/lv_obj_style_gen.h **** static inline lv_coord_t lv_obj_get_style_outline_pad(const struct _lv_obj_t * obj, uint32_t part)
 284:Middlewares/LVGL/GUI/lvgl/src/extra/layouts/flex/../flex/../../../core/lv_obj_style_gen.h **** {
 285:Middlewares/LVGL/GUI/lvgl/src/extra/layouts/flex/../flex/../../../core/lv_obj_style_gen.h ****     lv_style_value_t v = lv_obj_get_style_prop(obj, part, LV_STYLE_OUTLINE_PAD);
 286:Middlewares/LVGL/GUI/lvgl/src/extra/layouts/flex/../flex/../../../core/lv_obj_style_gen.h ****     return (lv_coord_t)v.num;
 287:Middlewares/LVGL/GUI/lvgl/src/extra/layouts/flex/../flex/../../../core/lv_obj_style_gen.h **** }
 288:Middlewares/LVGL/GUI/lvgl/src/extra/layouts/flex/../flex/../../../core/lv_obj_style_gen.h **** 
 289:Middlewares/LVGL/GUI/lvgl/src/extra/layouts/flex/../flex/../../../core/lv_obj_style_gen.h **** static inline lv_coord_t lv_obj_get_style_shadow_width(const struct _lv_obj_t * obj, uint32_t part)
 290:Middlewares/LVGL/GUI/lvgl/src/extra/layouts/flex/../flex/../../../core/lv_obj_style_gen.h **** {
 291:Middlewares/LVGL/GUI/lvgl/src/extra/layouts/flex/../flex/../../../core/lv_obj_style_gen.h ****     lv_style_value_t v = lv_obj_get_style_prop(obj, part, LV_STYLE_SHADOW_WIDTH);
 292:Middlewares/LVGL/GUI/lvgl/src/extra/layouts/flex/../flex/../../../core/lv_obj_style_gen.h ****     return (lv_coord_t)v.num;
 293:Middlewares/LVGL/GUI/lvgl/src/extra/layouts/flex/../flex/../../../core/lv_obj_style_gen.h **** }
 294:Middlewares/LVGL/GUI/lvgl/src/extra/layouts/flex/../flex/../../../core/lv_obj_style_gen.h **** 
 295:Middlewares/LVGL/GUI/lvgl/src/extra/layouts/flex/../flex/../../../core/lv_obj_style_gen.h **** static inline lv_coord_t lv_obj_get_style_shadow_ofs_x(const struct _lv_obj_t * obj, uint32_t part)
 296:Middlewares/LVGL/GUI/lvgl/src/extra/layouts/flex/../flex/../../../core/lv_obj_style_gen.h **** {
 297:Middlewares/LVGL/GUI/lvgl/src/extra/layouts/flex/../flex/../../../core/lv_obj_style_gen.h ****     lv_style_value_t v = lv_obj_get_style_prop(obj, part, LV_STYLE_SHADOW_OFS_X);
 298:Middlewares/LVGL/GUI/lvgl/src/extra/layouts/flex/../flex/../../../core/lv_obj_style_gen.h ****     return (lv_coord_t)v.num;
 299:Middlewares/LVGL/GUI/lvgl/src/extra/layouts/flex/../flex/../../../core/lv_obj_style_gen.h **** }
 300:Middlewares/LVGL/GUI/lvgl/src/extra/layouts/flex/../flex/../../../core/lv_obj_style_gen.h **** 
 301:Middlewares/LVGL/GUI/lvgl/src/extra/layouts/flex/../flex/../../../core/lv_obj_style_gen.h **** static inline lv_coord_t lv_obj_get_style_shadow_ofs_y(const struct _lv_obj_t * obj, uint32_t part)
 302:Middlewares/LVGL/GUI/lvgl/src/extra/layouts/flex/../flex/../../../core/lv_obj_style_gen.h **** {
 303:Middlewares/LVGL/GUI/lvgl/src/extra/layouts/flex/../flex/../../../core/lv_obj_style_gen.h ****     lv_style_value_t v = lv_obj_get_style_prop(obj, part, LV_STYLE_SHADOW_OFS_Y);
 304:Middlewares/LVGL/GUI/lvgl/src/extra/layouts/flex/../flex/../../../core/lv_obj_style_gen.h ****     return (lv_coord_t)v.num;
 305:Middlewares/LVGL/GUI/lvgl/src/extra/layouts/flex/../flex/../../../core/lv_obj_style_gen.h **** }
 306:Middlewares/LVGL/GUI/lvgl/src/extra/layouts/flex/../flex/../../../core/lv_obj_style_gen.h **** 
 307:Middlewares/LVGL/GUI/lvgl/src/extra/layouts/flex/../flex/../../../core/lv_obj_style_gen.h **** static inline lv_coord_t lv_obj_get_style_shadow_spread(const struct _lv_obj_t * obj, uint32_t part
 308:Middlewares/LVGL/GUI/lvgl/src/extra/layouts/flex/../flex/../../../core/lv_obj_style_gen.h **** {
 309:Middlewares/LVGL/GUI/lvgl/src/extra/layouts/flex/../flex/../../../core/lv_obj_style_gen.h ****     lv_style_value_t v = lv_obj_get_style_prop(obj, part, LV_STYLE_SHADOW_SPREAD);
 310:Middlewares/LVGL/GUI/lvgl/src/extra/layouts/flex/../flex/../../../core/lv_obj_style_gen.h ****     return (lv_coord_t)v.num;
 311:Middlewares/LVGL/GUI/lvgl/src/extra/layouts/flex/../flex/../../../core/lv_obj_style_gen.h **** }
ARM GAS  C:\Users\ADMINI~1\AppData\Local\Temp\ccyi9XNv.s 			page 48


 312:Middlewares/LVGL/GUI/lvgl/src/extra/layouts/flex/../flex/../../../core/lv_obj_style_gen.h **** 
 313:Middlewares/LVGL/GUI/lvgl/src/extra/layouts/flex/../flex/../../../core/lv_obj_style_gen.h **** static inline lv_color_t lv_obj_get_style_shadow_color(const struct _lv_obj_t * obj, uint32_t part)
 314:Middlewares/LVGL/GUI/lvgl/src/extra/layouts/flex/../flex/../../../core/lv_obj_style_gen.h **** {
 315:Middlewares/LVGL/GUI/lvgl/src/extra/layouts/flex/../flex/../../../core/lv_obj_style_gen.h ****     lv_style_value_t v = lv_obj_get_style_prop(obj, part, LV_STYLE_SHADOW_COLOR);
 316:Middlewares/LVGL/GUI/lvgl/src/extra/layouts/flex/../flex/../../../core/lv_obj_style_gen.h ****     return v.color;
 317:Middlewares/LVGL/GUI/lvgl/src/extra/layouts/flex/../flex/../../../core/lv_obj_style_gen.h **** }
 318:Middlewares/LVGL/GUI/lvgl/src/extra/layouts/flex/../flex/../../../core/lv_obj_style_gen.h **** 
 319:Middlewares/LVGL/GUI/lvgl/src/extra/layouts/flex/../flex/../../../core/lv_obj_style_gen.h **** static inline lv_color_t lv_obj_get_style_shadow_color_filtered(const struct _lv_obj_t * obj, uint3
 320:Middlewares/LVGL/GUI/lvgl/src/extra/layouts/flex/../flex/../../../core/lv_obj_style_gen.h **** {
 321:Middlewares/LVGL/GUI/lvgl/src/extra/layouts/flex/../flex/../../../core/lv_obj_style_gen.h ****     lv_style_value_t v = lv_obj_get_style_prop(obj, part, LV_STYLE_SHADOW_COLOR_FILTERED);
 322:Middlewares/LVGL/GUI/lvgl/src/extra/layouts/flex/../flex/../../../core/lv_obj_style_gen.h ****     return v.color;
 323:Middlewares/LVGL/GUI/lvgl/src/extra/layouts/flex/../flex/../../../core/lv_obj_style_gen.h **** }
 324:Middlewares/LVGL/GUI/lvgl/src/extra/layouts/flex/../flex/../../../core/lv_obj_style_gen.h **** 
 325:Middlewares/LVGL/GUI/lvgl/src/extra/layouts/flex/../flex/../../../core/lv_obj_style_gen.h **** static inline lv_opa_t lv_obj_get_style_shadow_opa(const struct _lv_obj_t * obj, uint32_t part)
 326:Middlewares/LVGL/GUI/lvgl/src/extra/layouts/flex/../flex/../../../core/lv_obj_style_gen.h **** {
 327:Middlewares/LVGL/GUI/lvgl/src/extra/layouts/flex/../flex/../../../core/lv_obj_style_gen.h ****     lv_style_value_t v = lv_obj_get_style_prop(obj, part, LV_STYLE_SHADOW_OPA);
 328:Middlewares/LVGL/GUI/lvgl/src/extra/layouts/flex/../flex/../../../core/lv_obj_style_gen.h ****     return (lv_opa_t)v.num;
 329:Middlewares/LVGL/GUI/lvgl/src/extra/layouts/flex/../flex/../../../core/lv_obj_style_gen.h **** }
 330:Middlewares/LVGL/GUI/lvgl/src/extra/layouts/flex/../flex/../../../core/lv_obj_style_gen.h **** 
 331:Middlewares/LVGL/GUI/lvgl/src/extra/layouts/flex/../flex/../../../core/lv_obj_style_gen.h **** static inline lv_opa_t lv_obj_get_style_img_opa(const struct _lv_obj_t * obj, uint32_t part)
 332:Middlewares/LVGL/GUI/lvgl/src/extra/layouts/flex/../flex/../../../core/lv_obj_style_gen.h **** {
 333:Middlewares/LVGL/GUI/lvgl/src/extra/layouts/flex/../flex/../../../core/lv_obj_style_gen.h ****     lv_style_value_t v = lv_obj_get_style_prop(obj, part, LV_STYLE_IMG_OPA);
 334:Middlewares/LVGL/GUI/lvgl/src/extra/layouts/flex/../flex/../../../core/lv_obj_style_gen.h ****     return (lv_opa_t)v.num;
 335:Middlewares/LVGL/GUI/lvgl/src/extra/layouts/flex/../flex/../../../core/lv_obj_style_gen.h **** }
 336:Middlewares/LVGL/GUI/lvgl/src/extra/layouts/flex/../flex/../../../core/lv_obj_style_gen.h **** 
 337:Middlewares/LVGL/GUI/lvgl/src/extra/layouts/flex/../flex/../../../core/lv_obj_style_gen.h **** static inline lv_color_t lv_obj_get_style_img_recolor(const struct _lv_obj_t * obj, uint32_t part)
 338:Middlewares/LVGL/GUI/lvgl/src/extra/layouts/flex/../flex/../../../core/lv_obj_style_gen.h **** {
 339:Middlewares/LVGL/GUI/lvgl/src/extra/layouts/flex/../flex/../../../core/lv_obj_style_gen.h ****     lv_style_value_t v = lv_obj_get_style_prop(obj, part, LV_STYLE_IMG_RECOLOR);
 340:Middlewares/LVGL/GUI/lvgl/src/extra/layouts/flex/../flex/../../../core/lv_obj_style_gen.h ****     return v.color;
 341:Middlewares/LVGL/GUI/lvgl/src/extra/layouts/flex/../flex/../../../core/lv_obj_style_gen.h **** }
 342:Middlewares/LVGL/GUI/lvgl/src/extra/layouts/flex/../flex/../../../core/lv_obj_style_gen.h **** 
 343:Middlewares/LVGL/GUI/lvgl/src/extra/layouts/flex/../flex/../../../core/lv_obj_style_gen.h **** static inline lv_color_t lv_obj_get_style_img_recolor_filtered(const struct _lv_obj_t * obj, uint32
 344:Middlewares/LVGL/GUI/lvgl/src/extra/layouts/flex/../flex/../../../core/lv_obj_style_gen.h **** {
 345:Middlewares/LVGL/GUI/lvgl/src/extra/layouts/flex/../flex/../../../core/lv_obj_style_gen.h ****     lv_style_value_t v = lv_obj_get_style_prop(obj, part, LV_STYLE_IMG_RECOLOR_FILTERED);
 346:Middlewares/LVGL/GUI/lvgl/src/extra/layouts/flex/../flex/../../../core/lv_obj_style_gen.h ****     return v.color;
 347:Middlewares/LVGL/GUI/lvgl/src/extra/layouts/flex/../flex/../../../core/lv_obj_style_gen.h **** }
 348:Middlewares/LVGL/GUI/lvgl/src/extra/layouts/flex/../flex/../../../core/lv_obj_style_gen.h **** 
 349:Middlewares/LVGL/GUI/lvgl/src/extra/layouts/flex/../flex/../../../core/lv_obj_style_gen.h **** static inline lv_opa_t lv_obj_get_style_img_recolor_opa(const struct _lv_obj_t * obj, uint32_t part
 350:Middlewares/LVGL/GUI/lvgl/src/extra/layouts/flex/../flex/../../../core/lv_obj_style_gen.h **** {
 351:Middlewares/LVGL/GUI/lvgl/src/extra/layouts/flex/../flex/../../../core/lv_obj_style_gen.h ****     lv_style_value_t v = lv_obj_get_style_prop(obj, part, LV_STYLE_IMG_RECOLOR_OPA);
 352:Middlewares/LVGL/GUI/lvgl/src/extra/layouts/flex/../flex/../../../core/lv_obj_style_gen.h ****     return (lv_opa_t)v.num;
 353:Middlewares/LVGL/GUI/lvgl/src/extra/layouts/flex/../flex/../../../core/lv_obj_style_gen.h **** }
 354:Middlewares/LVGL/GUI/lvgl/src/extra/layouts/flex/../flex/../../../core/lv_obj_style_gen.h **** 
 355:Middlewares/LVGL/GUI/lvgl/src/extra/layouts/flex/../flex/../../../core/lv_obj_style_gen.h **** static inline lv_coord_t lv_obj_get_style_line_width(const struct _lv_obj_t * obj, uint32_t part)
 356:Middlewares/LVGL/GUI/lvgl/src/extra/layouts/flex/../flex/../../../core/lv_obj_style_gen.h **** {
 357:Middlewares/LVGL/GUI/lvgl/src/extra/layouts/flex/../flex/../../../core/lv_obj_style_gen.h ****     lv_style_value_t v = lv_obj_get_style_prop(obj, part, LV_STYLE_LINE_WIDTH);
 358:Middlewares/LVGL/GUI/lvgl/src/extra/layouts/flex/../flex/../../../core/lv_obj_style_gen.h ****     return (lv_coord_t)v.num;
 359:Middlewares/LVGL/GUI/lvgl/src/extra/layouts/flex/../flex/../../../core/lv_obj_style_gen.h **** }
 360:Middlewares/LVGL/GUI/lvgl/src/extra/layouts/flex/../flex/../../../core/lv_obj_style_gen.h **** 
 361:Middlewares/LVGL/GUI/lvgl/src/extra/layouts/flex/../flex/../../../core/lv_obj_style_gen.h **** static inline lv_coord_t lv_obj_get_style_line_dash_width(const struct _lv_obj_t * obj, uint32_t pa
 362:Middlewares/LVGL/GUI/lvgl/src/extra/layouts/flex/../flex/../../../core/lv_obj_style_gen.h **** {
 363:Middlewares/LVGL/GUI/lvgl/src/extra/layouts/flex/../flex/../../../core/lv_obj_style_gen.h ****     lv_style_value_t v = lv_obj_get_style_prop(obj, part, LV_STYLE_LINE_DASH_WIDTH);
 364:Middlewares/LVGL/GUI/lvgl/src/extra/layouts/flex/../flex/../../../core/lv_obj_style_gen.h ****     return (lv_coord_t)v.num;
 365:Middlewares/LVGL/GUI/lvgl/src/extra/layouts/flex/../flex/../../../core/lv_obj_style_gen.h **** }
 366:Middlewares/LVGL/GUI/lvgl/src/extra/layouts/flex/../flex/../../../core/lv_obj_style_gen.h **** 
 367:Middlewares/LVGL/GUI/lvgl/src/extra/layouts/flex/../flex/../../../core/lv_obj_style_gen.h **** static inline lv_coord_t lv_obj_get_style_line_dash_gap(const struct _lv_obj_t * obj, uint32_t part
 368:Middlewares/LVGL/GUI/lvgl/src/extra/layouts/flex/../flex/../../../core/lv_obj_style_gen.h **** {
ARM GAS  C:\Users\ADMINI~1\AppData\Local\Temp\ccyi9XNv.s 			page 49


 369:Middlewares/LVGL/GUI/lvgl/src/extra/layouts/flex/../flex/../../../core/lv_obj_style_gen.h ****     lv_style_value_t v = lv_obj_get_style_prop(obj, part, LV_STYLE_LINE_DASH_GAP);
 370:Middlewares/LVGL/GUI/lvgl/src/extra/layouts/flex/../flex/../../../core/lv_obj_style_gen.h ****     return (lv_coord_t)v.num;
 371:Middlewares/LVGL/GUI/lvgl/src/extra/layouts/flex/../flex/../../../core/lv_obj_style_gen.h **** }
 372:Middlewares/LVGL/GUI/lvgl/src/extra/layouts/flex/../flex/../../../core/lv_obj_style_gen.h **** 
 373:Middlewares/LVGL/GUI/lvgl/src/extra/layouts/flex/../flex/../../../core/lv_obj_style_gen.h **** static inline bool lv_obj_get_style_line_rounded(const struct _lv_obj_t * obj, uint32_t part)
 374:Middlewares/LVGL/GUI/lvgl/src/extra/layouts/flex/../flex/../../../core/lv_obj_style_gen.h **** {
 375:Middlewares/LVGL/GUI/lvgl/src/extra/layouts/flex/../flex/../../../core/lv_obj_style_gen.h ****     lv_style_value_t v = lv_obj_get_style_prop(obj, part, LV_STYLE_LINE_ROUNDED);
 376:Middlewares/LVGL/GUI/lvgl/src/extra/layouts/flex/../flex/../../../core/lv_obj_style_gen.h ****     return (bool)v.num;
 377:Middlewares/LVGL/GUI/lvgl/src/extra/layouts/flex/../flex/../../../core/lv_obj_style_gen.h **** }
 378:Middlewares/LVGL/GUI/lvgl/src/extra/layouts/flex/../flex/../../../core/lv_obj_style_gen.h **** 
 379:Middlewares/LVGL/GUI/lvgl/src/extra/layouts/flex/../flex/../../../core/lv_obj_style_gen.h **** static inline lv_color_t lv_obj_get_style_line_color(const struct _lv_obj_t * obj, uint32_t part)
 380:Middlewares/LVGL/GUI/lvgl/src/extra/layouts/flex/../flex/../../../core/lv_obj_style_gen.h **** {
 381:Middlewares/LVGL/GUI/lvgl/src/extra/layouts/flex/../flex/../../../core/lv_obj_style_gen.h ****     lv_style_value_t v = lv_obj_get_style_prop(obj, part, LV_STYLE_LINE_COLOR);
 382:Middlewares/LVGL/GUI/lvgl/src/extra/layouts/flex/../flex/../../../core/lv_obj_style_gen.h ****     return v.color;
 383:Middlewares/LVGL/GUI/lvgl/src/extra/layouts/flex/../flex/../../../core/lv_obj_style_gen.h **** }
 384:Middlewares/LVGL/GUI/lvgl/src/extra/layouts/flex/../flex/../../../core/lv_obj_style_gen.h **** 
 385:Middlewares/LVGL/GUI/lvgl/src/extra/layouts/flex/../flex/../../../core/lv_obj_style_gen.h **** static inline lv_color_t lv_obj_get_style_line_color_filtered(const struct _lv_obj_t * obj, uint32_
 386:Middlewares/LVGL/GUI/lvgl/src/extra/layouts/flex/../flex/../../../core/lv_obj_style_gen.h **** {
 387:Middlewares/LVGL/GUI/lvgl/src/extra/layouts/flex/../flex/../../../core/lv_obj_style_gen.h ****     lv_style_value_t v = lv_obj_get_style_prop(obj, part, LV_STYLE_LINE_COLOR_FILTERED);
 388:Middlewares/LVGL/GUI/lvgl/src/extra/layouts/flex/../flex/../../../core/lv_obj_style_gen.h ****     return v.color;
 389:Middlewares/LVGL/GUI/lvgl/src/extra/layouts/flex/../flex/../../../core/lv_obj_style_gen.h **** }
 390:Middlewares/LVGL/GUI/lvgl/src/extra/layouts/flex/../flex/../../../core/lv_obj_style_gen.h **** 
 391:Middlewares/LVGL/GUI/lvgl/src/extra/layouts/flex/../flex/../../../core/lv_obj_style_gen.h **** static inline lv_opa_t lv_obj_get_style_line_opa(const struct _lv_obj_t * obj, uint32_t part)
 392:Middlewares/LVGL/GUI/lvgl/src/extra/layouts/flex/../flex/../../../core/lv_obj_style_gen.h **** {
 393:Middlewares/LVGL/GUI/lvgl/src/extra/layouts/flex/../flex/../../../core/lv_obj_style_gen.h ****     lv_style_value_t v = lv_obj_get_style_prop(obj, part, LV_STYLE_LINE_OPA);
 394:Middlewares/LVGL/GUI/lvgl/src/extra/layouts/flex/../flex/../../../core/lv_obj_style_gen.h ****     return (lv_opa_t)v.num;
 395:Middlewares/LVGL/GUI/lvgl/src/extra/layouts/flex/../flex/../../../core/lv_obj_style_gen.h **** }
 396:Middlewares/LVGL/GUI/lvgl/src/extra/layouts/flex/../flex/../../../core/lv_obj_style_gen.h **** 
 397:Middlewares/LVGL/GUI/lvgl/src/extra/layouts/flex/../flex/../../../core/lv_obj_style_gen.h **** static inline lv_coord_t lv_obj_get_style_arc_width(const struct _lv_obj_t * obj, uint32_t part)
 398:Middlewares/LVGL/GUI/lvgl/src/extra/layouts/flex/../flex/../../../core/lv_obj_style_gen.h **** {
 399:Middlewares/LVGL/GUI/lvgl/src/extra/layouts/flex/../flex/../../../core/lv_obj_style_gen.h ****     lv_style_value_t v = lv_obj_get_style_prop(obj, part, LV_STYLE_ARC_WIDTH);
 400:Middlewares/LVGL/GUI/lvgl/src/extra/layouts/flex/../flex/../../../core/lv_obj_style_gen.h ****     return (lv_coord_t)v.num;
 401:Middlewares/LVGL/GUI/lvgl/src/extra/layouts/flex/../flex/../../../core/lv_obj_style_gen.h **** }
 402:Middlewares/LVGL/GUI/lvgl/src/extra/layouts/flex/../flex/../../../core/lv_obj_style_gen.h **** 
 403:Middlewares/LVGL/GUI/lvgl/src/extra/layouts/flex/../flex/../../../core/lv_obj_style_gen.h **** static inline bool lv_obj_get_style_arc_rounded(const struct _lv_obj_t * obj, uint32_t part)
 404:Middlewares/LVGL/GUI/lvgl/src/extra/layouts/flex/../flex/../../../core/lv_obj_style_gen.h **** {
 405:Middlewares/LVGL/GUI/lvgl/src/extra/layouts/flex/../flex/../../../core/lv_obj_style_gen.h ****     lv_style_value_t v = lv_obj_get_style_prop(obj, part, LV_STYLE_ARC_ROUNDED);
 406:Middlewares/LVGL/GUI/lvgl/src/extra/layouts/flex/../flex/../../../core/lv_obj_style_gen.h ****     return (bool)v.num;
 407:Middlewares/LVGL/GUI/lvgl/src/extra/layouts/flex/../flex/../../../core/lv_obj_style_gen.h **** }
 408:Middlewares/LVGL/GUI/lvgl/src/extra/layouts/flex/../flex/../../../core/lv_obj_style_gen.h **** 
 409:Middlewares/LVGL/GUI/lvgl/src/extra/layouts/flex/../flex/../../../core/lv_obj_style_gen.h **** static inline lv_color_t lv_obj_get_style_arc_color(const struct _lv_obj_t * obj, uint32_t part)
 410:Middlewares/LVGL/GUI/lvgl/src/extra/layouts/flex/../flex/../../../core/lv_obj_style_gen.h **** {
 411:Middlewares/LVGL/GUI/lvgl/src/extra/layouts/flex/../flex/../../../core/lv_obj_style_gen.h ****     lv_style_value_t v = lv_obj_get_style_prop(obj, part, LV_STYLE_ARC_COLOR);
 412:Middlewares/LVGL/GUI/lvgl/src/extra/layouts/flex/../flex/../../../core/lv_obj_style_gen.h ****     return v.color;
 413:Middlewares/LVGL/GUI/lvgl/src/extra/layouts/flex/../flex/../../../core/lv_obj_style_gen.h **** }
 414:Middlewares/LVGL/GUI/lvgl/src/extra/layouts/flex/../flex/../../../core/lv_obj_style_gen.h **** 
 415:Middlewares/LVGL/GUI/lvgl/src/extra/layouts/flex/../flex/../../../core/lv_obj_style_gen.h **** static inline lv_color_t lv_obj_get_style_arc_color_filtered(const struct _lv_obj_t * obj, uint32_t
 416:Middlewares/LVGL/GUI/lvgl/src/extra/layouts/flex/../flex/../../../core/lv_obj_style_gen.h **** {
 417:Middlewares/LVGL/GUI/lvgl/src/extra/layouts/flex/../flex/../../../core/lv_obj_style_gen.h ****     lv_style_value_t v = lv_obj_get_style_prop(obj, part, LV_STYLE_ARC_COLOR_FILTERED);
 418:Middlewares/LVGL/GUI/lvgl/src/extra/layouts/flex/../flex/../../../core/lv_obj_style_gen.h ****     return v.color;
 419:Middlewares/LVGL/GUI/lvgl/src/extra/layouts/flex/../flex/../../../core/lv_obj_style_gen.h **** }
 420:Middlewares/LVGL/GUI/lvgl/src/extra/layouts/flex/../flex/../../../core/lv_obj_style_gen.h **** 
 421:Middlewares/LVGL/GUI/lvgl/src/extra/layouts/flex/../flex/../../../core/lv_obj_style_gen.h **** static inline lv_opa_t lv_obj_get_style_arc_opa(const struct _lv_obj_t * obj, uint32_t part)
 422:Middlewares/LVGL/GUI/lvgl/src/extra/layouts/flex/../flex/../../../core/lv_obj_style_gen.h **** {
 423:Middlewares/LVGL/GUI/lvgl/src/extra/layouts/flex/../flex/../../../core/lv_obj_style_gen.h ****     lv_style_value_t v = lv_obj_get_style_prop(obj, part, LV_STYLE_ARC_OPA);
 424:Middlewares/LVGL/GUI/lvgl/src/extra/layouts/flex/../flex/../../../core/lv_obj_style_gen.h ****     return (lv_opa_t)v.num;
 425:Middlewares/LVGL/GUI/lvgl/src/extra/layouts/flex/../flex/../../../core/lv_obj_style_gen.h **** }
ARM GAS  C:\Users\ADMINI~1\AppData\Local\Temp\ccyi9XNv.s 			page 50


 426:Middlewares/LVGL/GUI/lvgl/src/extra/layouts/flex/../flex/../../../core/lv_obj_style_gen.h **** 
 427:Middlewares/LVGL/GUI/lvgl/src/extra/layouts/flex/../flex/../../../core/lv_obj_style_gen.h **** static inline const void * lv_obj_get_style_arc_img_src(const struct _lv_obj_t * obj, uint32_t part
 428:Middlewares/LVGL/GUI/lvgl/src/extra/layouts/flex/../flex/../../../core/lv_obj_style_gen.h **** {
 429:Middlewares/LVGL/GUI/lvgl/src/extra/layouts/flex/../flex/../../../core/lv_obj_style_gen.h ****     lv_style_value_t v = lv_obj_get_style_prop(obj, part, LV_STYLE_ARC_IMG_SRC);
 430:Middlewares/LVGL/GUI/lvgl/src/extra/layouts/flex/../flex/../../../core/lv_obj_style_gen.h ****     return (const void *)v.ptr;
 431:Middlewares/LVGL/GUI/lvgl/src/extra/layouts/flex/../flex/../../../core/lv_obj_style_gen.h **** }
 432:Middlewares/LVGL/GUI/lvgl/src/extra/layouts/flex/../flex/../../../core/lv_obj_style_gen.h **** 
 433:Middlewares/LVGL/GUI/lvgl/src/extra/layouts/flex/../flex/../../../core/lv_obj_style_gen.h **** static inline lv_color_t lv_obj_get_style_text_color(const struct _lv_obj_t * obj, uint32_t part)
 434:Middlewares/LVGL/GUI/lvgl/src/extra/layouts/flex/../flex/../../../core/lv_obj_style_gen.h **** {
 435:Middlewares/LVGL/GUI/lvgl/src/extra/layouts/flex/../flex/../../../core/lv_obj_style_gen.h ****     lv_style_value_t v = lv_obj_get_style_prop(obj, part, LV_STYLE_TEXT_COLOR);
 436:Middlewares/LVGL/GUI/lvgl/src/extra/layouts/flex/../flex/../../../core/lv_obj_style_gen.h ****     return v.color;
 437:Middlewares/LVGL/GUI/lvgl/src/extra/layouts/flex/../flex/../../../core/lv_obj_style_gen.h **** }
 438:Middlewares/LVGL/GUI/lvgl/src/extra/layouts/flex/../flex/../../../core/lv_obj_style_gen.h **** 
 439:Middlewares/LVGL/GUI/lvgl/src/extra/layouts/flex/../flex/../../../core/lv_obj_style_gen.h **** static inline lv_color_t lv_obj_get_style_text_color_filtered(const struct _lv_obj_t * obj, uint32_
 440:Middlewares/LVGL/GUI/lvgl/src/extra/layouts/flex/../flex/../../../core/lv_obj_style_gen.h **** {
 441:Middlewares/LVGL/GUI/lvgl/src/extra/layouts/flex/../flex/../../../core/lv_obj_style_gen.h ****     lv_style_value_t v = lv_obj_get_style_prop(obj, part, LV_STYLE_TEXT_COLOR_FILTERED);
 442:Middlewares/LVGL/GUI/lvgl/src/extra/layouts/flex/../flex/../../../core/lv_obj_style_gen.h ****     return v.color;
 443:Middlewares/LVGL/GUI/lvgl/src/extra/layouts/flex/../flex/../../../core/lv_obj_style_gen.h **** }
 444:Middlewares/LVGL/GUI/lvgl/src/extra/layouts/flex/../flex/../../../core/lv_obj_style_gen.h **** 
 445:Middlewares/LVGL/GUI/lvgl/src/extra/layouts/flex/../flex/../../../core/lv_obj_style_gen.h **** static inline lv_opa_t lv_obj_get_style_text_opa(const struct _lv_obj_t * obj, uint32_t part)
 446:Middlewares/LVGL/GUI/lvgl/src/extra/layouts/flex/../flex/../../../core/lv_obj_style_gen.h **** {
 447:Middlewares/LVGL/GUI/lvgl/src/extra/layouts/flex/../flex/../../../core/lv_obj_style_gen.h ****     lv_style_value_t v = lv_obj_get_style_prop(obj, part, LV_STYLE_TEXT_OPA);
 448:Middlewares/LVGL/GUI/lvgl/src/extra/layouts/flex/../flex/../../../core/lv_obj_style_gen.h ****     return (lv_opa_t)v.num;
 449:Middlewares/LVGL/GUI/lvgl/src/extra/layouts/flex/../flex/../../../core/lv_obj_style_gen.h **** }
 450:Middlewares/LVGL/GUI/lvgl/src/extra/layouts/flex/../flex/../../../core/lv_obj_style_gen.h **** 
 451:Middlewares/LVGL/GUI/lvgl/src/extra/layouts/flex/../flex/../../../core/lv_obj_style_gen.h **** static inline const lv_font_t * lv_obj_get_style_text_font(const struct _lv_obj_t * obj, uint32_t p
 452:Middlewares/LVGL/GUI/lvgl/src/extra/layouts/flex/../flex/../../../core/lv_obj_style_gen.h **** {
 453:Middlewares/LVGL/GUI/lvgl/src/extra/layouts/flex/../flex/../../../core/lv_obj_style_gen.h ****     lv_style_value_t v = lv_obj_get_style_prop(obj, part, LV_STYLE_TEXT_FONT);
 454:Middlewares/LVGL/GUI/lvgl/src/extra/layouts/flex/../flex/../../../core/lv_obj_style_gen.h ****     return (const lv_font_t *)v.ptr;
 455:Middlewares/LVGL/GUI/lvgl/src/extra/layouts/flex/../flex/../../../core/lv_obj_style_gen.h **** }
 456:Middlewares/LVGL/GUI/lvgl/src/extra/layouts/flex/../flex/../../../core/lv_obj_style_gen.h **** 
 457:Middlewares/LVGL/GUI/lvgl/src/extra/layouts/flex/../flex/../../../core/lv_obj_style_gen.h **** static inline lv_coord_t lv_obj_get_style_text_letter_space(const struct _lv_obj_t * obj, uint32_t 
 458:Middlewares/LVGL/GUI/lvgl/src/extra/layouts/flex/../flex/../../../core/lv_obj_style_gen.h **** {
 459:Middlewares/LVGL/GUI/lvgl/src/extra/layouts/flex/../flex/../../../core/lv_obj_style_gen.h ****     lv_style_value_t v = lv_obj_get_style_prop(obj, part, LV_STYLE_TEXT_LETTER_SPACE);
 460:Middlewares/LVGL/GUI/lvgl/src/extra/layouts/flex/../flex/../../../core/lv_obj_style_gen.h ****     return (lv_coord_t)v.num;
 461:Middlewares/LVGL/GUI/lvgl/src/extra/layouts/flex/../flex/../../../core/lv_obj_style_gen.h **** }
 462:Middlewares/LVGL/GUI/lvgl/src/extra/layouts/flex/../flex/../../../core/lv_obj_style_gen.h **** 
 463:Middlewares/LVGL/GUI/lvgl/src/extra/layouts/flex/../flex/../../../core/lv_obj_style_gen.h **** static inline lv_coord_t lv_obj_get_style_text_line_space(const struct _lv_obj_t * obj, uint32_t pa
 464:Middlewares/LVGL/GUI/lvgl/src/extra/layouts/flex/../flex/../../../core/lv_obj_style_gen.h **** {
 465:Middlewares/LVGL/GUI/lvgl/src/extra/layouts/flex/../flex/../../../core/lv_obj_style_gen.h ****     lv_style_value_t v = lv_obj_get_style_prop(obj, part, LV_STYLE_TEXT_LINE_SPACE);
 466:Middlewares/LVGL/GUI/lvgl/src/extra/layouts/flex/../flex/../../../core/lv_obj_style_gen.h ****     return (lv_coord_t)v.num;
 467:Middlewares/LVGL/GUI/lvgl/src/extra/layouts/flex/../flex/../../../core/lv_obj_style_gen.h **** }
 468:Middlewares/LVGL/GUI/lvgl/src/extra/layouts/flex/../flex/../../../core/lv_obj_style_gen.h **** 
 469:Middlewares/LVGL/GUI/lvgl/src/extra/layouts/flex/../flex/../../../core/lv_obj_style_gen.h **** static inline lv_text_decor_t lv_obj_get_style_text_decor(const struct _lv_obj_t * obj, uint32_t pa
 470:Middlewares/LVGL/GUI/lvgl/src/extra/layouts/flex/../flex/../../../core/lv_obj_style_gen.h **** {
 471:Middlewares/LVGL/GUI/lvgl/src/extra/layouts/flex/../flex/../../../core/lv_obj_style_gen.h ****     lv_style_value_t v = lv_obj_get_style_prop(obj, part, LV_STYLE_TEXT_DECOR);
 472:Middlewares/LVGL/GUI/lvgl/src/extra/layouts/flex/../flex/../../../core/lv_obj_style_gen.h ****     return (lv_text_decor_t)v.num;
 473:Middlewares/LVGL/GUI/lvgl/src/extra/layouts/flex/../flex/../../../core/lv_obj_style_gen.h **** }
 474:Middlewares/LVGL/GUI/lvgl/src/extra/layouts/flex/../flex/../../../core/lv_obj_style_gen.h **** 
 475:Middlewares/LVGL/GUI/lvgl/src/extra/layouts/flex/../flex/../../../core/lv_obj_style_gen.h **** static inline lv_text_align_t lv_obj_get_style_text_align(const struct _lv_obj_t * obj, uint32_t pa
 476:Middlewares/LVGL/GUI/lvgl/src/extra/layouts/flex/../flex/../../../core/lv_obj_style_gen.h **** {
 477:Middlewares/LVGL/GUI/lvgl/src/extra/layouts/flex/../flex/../../../core/lv_obj_style_gen.h ****     lv_style_value_t v = lv_obj_get_style_prop(obj, part, LV_STYLE_TEXT_ALIGN);
 478:Middlewares/LVGL/GUI/lvgl/src/extra/layouts/flex/../flex/../../../core/lv_obj_style_gen.h ****     return (lv_text_align_t)v.num;
 479:Middlewares/LVGL/GUI/lvgl/src/extra/layouts/flex/../flex/../../../core/lv_obj_style_gen.h **** }
 480:Middlewares/LVGL/GUI/lvgl/src/extra/layouts/flex/../flex/../../../core/lv_obj_style_gen.h **** 
 481:Middlewares/LVGL/GUI/lvgl/src/extra/layouts/flex/../flex/../../../core/lv_obj_style_gen.h **** static inline lv_coord_t lv_obj_get_style_radius(const struct _lv_obj_t * obj, uint32_t part)
 482:Middlewares/LVGL/GUI/lvgl/src/extra/layouts/flex/../flex/../../../core/lv_obj_style_gen.h **** {
ARM GAS  C:\Users\ADMINI~1\AppData\Local\Temp\ccyi9XNv.s 			page 51


 483:Middlewares/LVGL/GUI/lvgl/src/extra/layouts/flex/../flex/../../../core/lv_obj_style_gen.h ****     lv_style_value_t v = lv_obj_get_style_prop(obj, part, LV_STYLE_RADIUS);
 484:Middlewares/LVGL/GUI/lvgl/src/extra/layouts/flex/../flex/../../../core/lv_obj_style_gen.h ****     return (lv_coord_t)v.num;
 485:Middlewares/LVGL/GUI/lvgl/src/extra/layouts/flex/../flex/../../../core/lv_obj_style_gen.h **** }
 486:Middlewares/LVGL/GUI/lvgl/src/extra/layouts/flex/../flex/../../../core/lv_obj_style_gen.h **** 
 487:Middlewares/LVGL/GUI/lvgl/src/extra/layouts/flex/../flex/../../../core/lv_obj_style_gen.h **** static inline bool lv_obj_get_style_clip_corner(const struct _lv_obj_t * obj, uint32_t part)
 488:Middlewares/LVGL/GUI/lvgl/src/extra/layouts/flex/../flex/../../../core/lv_obj_style_gen.h **** {
 489:Middlewares/LVGL/GUI/lvgl/src/extra/layouts/flex/../flex/../../../core/lv_obj_style_gen.h ****     lv_style_value_t v = lv_obj_get_style_prop(obj, part, LV_STYLE_CLIP_CORNER);
 490:Middlewares/LVGL/GUI/lvgl/src/extra/layouts/flex/../flex/../../../core/lv_obj_style_gen.h ****     return (bool)v.num;
 491:Middlewares/LVGL/GUI/lvgl/src/extra/layouts/flex/../flex/../../../core/lv_obj_style_gen.h **** }
 492:Middlewares/LVGL/GUI/lvgl/src/extra/layouts/flex/../flex/../../../core/lv_obj_style_gen.h **** 
 493:Middlewares/LVGL/GUI/lvgl/src/extra/layouts/flex/../flex/../../../core/lv_obj_style_gen.h **** static inline lv_opa_t lv_obj_get_style_opa(const struct _lv_obj_t * obj, uint32_t part)
 494:Middlewares/LVGL/GUI/lvgl/src/extra/layouts/flex/../flex/../../../core/lv_obj_style_gen.h **** {
 495:Middlewares/LVGL/GUI/lvgl/src/extra/layouts/flex/../flex/../../../core/lv_obj_style_gen.h ****     lv_style_value_t v = lv_obj_get_style_prop(obj, part, LV_STYLE_OPA);
 496:Middlewares/LVGL/GUI/lvgl/src/extra/layouts/flex/../flex/../../../core/lv_obj_style_gen.h ****     return (lv_opa_t)v.num;
 497:Middlewares/LVGL/GUI/lvgl/src/extra/layouts/flex/../flex/../../../core/lv_obj_style_gen.h **** }
 498:Middlewares/LVGL/GUI/lvgl/src/extra/layouts/flex/../flex/../../../core/lv_obj_style_gen.h **** 
 499:Middlewares/LVGL/GUI/lvgl/src/extra/layouts/flex/../flex/../../../core/lv_obj_style_gen.h **** static inline const lv_color_filter_dsc_t * lv_obj_get_style_color_filter_dsc(const struct _lv_obj_
 500:Middlewares/LVGL/GUI/lvgl/src/extra/layouts/flex/../flex/../../../core/lv_obj_style_gen.h ****                                                                               uint32_t part)
 501:Middlewares/LVGL/GUI/lvgl/src/extra/layouts/flex/../flex/../../../core/lv_obj_style_gen.h **** {
 502:Middlewares/LVGL/GUI/lvgl/src/extra/layouts/flex/../flex/../../../core/lv_obj_style_gen.h ****     lv_style_value_t v = lv_obj_get_style_prop(obj, part, LV_STYLE_COLOR_FILTER_DSC);
 503:Middlewares/LVGL/GUI/lvgl/src/extra/layouts/flex/../flex/../../../core/lv_obj_style_gen.h ****     return (const lv_color_filter_dsc_t *)v.ptr;
 504:Middlewares/LVGL/GUI/lvgl/src/extra/layouts/flex/../flex/../../../core/lv_obj_style_gen.h **** }
 505:Middlewares/LVGL/GUI/lvgl/src/extra/layouts/flex/../flex/../../../core/lv_obj_style_gen.h **** 
 506:Middlewares/LVGL/GUI/lvgl/src/extra/layouts/flex/../flex/../../../core/lv_obj_style_gen.h **** static inline lv_opa_t lv_obj_get_style_color_filter_opa(const struct _lv_obj_t * obj, uint32_t par
 507:Middlewares/LVGL/GUI/lvgl/src/extra/layouts/flex/../flex/../../../core/lv_obj_style_gen.h **** {
 508:Middlewares/LVGL/GUI/lvgl/src/extra/layouts/flex/../flex/../../../core/lv_obj_style_gen.h ****     lv_style_value_t v = lv_obj_get_style_prop(obj, part, LV_STYLE_COLOR_FILTER_OPA);
 509:Middlewares/LVGL/GUI/lvgl/src/extra/layouts/flex/../flex/../../../core/lv_obj_style_gen.h ****     return (lv_opa_t)v.num;
 510:Middlewares/LVGL/GUI/lvgl/src/extra/layouts/flex/../flex/../../../core/lv_obj_style_gen.h **** }
 511:Middlewares/LVGL/GUI/lvgl/src/extra/layouts/flex/../flex/../../../core/lv_obj_style_gen.h **** 
 512:Middlewares/LVGL/GUI/lvgl/src/extra/layouts/flex/../flex/../../../core/lv_obj_style_gen.h **** static inline uint32_t lv_obj_get_style_anim_time(const struct _lv_obj_t * obj, uint32_t part)
 513:Middlewares/LVGL/GUI/lvgl/src/extra/layouts/flex/../flex/../../../core/lv_obj_style_gen.h **** {
 514:Middlewares/LVGL/GUI/lvgl/src/extra/layouts/flex/../flex/../../../core/lv_obj_style_gen.h ****     lv_style_value_t v = lv_obj_get_style_prop(obj, part, LV_STYLE_ANIM_TIME);
 515:Middlewares/LVGL/GUI/lvgl/src/extra/layouts/flex/../flex/../../../core/lv_obj_style_gen.h ****     return (uint32_t)v.num;
 516:Middlewares/LVGL/GUI/lvgl/src/extra/layouts/flex/../flex/../../../core/lv_obj_style_gen.h **** }
 517:Middlewares/LVGL/GUI/lvgl/src/extra/layouts/flex/../flex/../../../core/lv_obj_style_gen.h **** 
 518:Middlewares/LVGL/GUI/lvgl/src/extra/layouts/flex/../flex/../../../core/lv_obj_style_gen.h **** static inline uint32_t lv_obj_get_style_anim_speed(const struct _lv_obj_t * obj, uint32_t part)
 519:Middlewares/LVGL/GUI/lvgl/src/extra/layouts/flex/../flex/../../../core/lv_obj_style_gen.h **** {
 520:Middlewares/LVGL/GUI/lvgl/src/extra/layouts/flex/../flex/../../../core/lv_obj_style_gen.h ****     lv_style_value_t v = lv_obj_get_style_prop(obj, part, LV_STYLE_ANIM_SPEED);
 521:Middlewares/LVGL/GUI/lvgl/src/extra/layouts/flex/../flex/../../../core/lv_obj_style_gen.h ****     return (uint32_t)v.num;
 522:Middlewares/LVGL/GUI/lvgl/src/extra/layouts/flex/../flex/../../../core/lv_obj_style_gen.h **** }
 523:Middlewares/LVGL/GUI/lvgl/src/extra/layouts/flex/../flex/../../../core/lv_obj_style_gen.h **** 
 524:Middlewares/LVGL/GUI/lvgl/src/extra/layouts/flex/../flex/../../../core/lv_obj_style_gen.h **** static inline const lv_style_transition_dsc_t * lv_obj_get_style_transition(const struct _lv_obj_t 
 525:Middlewares/LVGL/GUI/lvgl/src/extra/layouts/flex/../flex/../../../core/lv_obj_style_gen.h **** {
 526:Middlewares/LVGL/GUI/lvgl/src/extra/layouts/flex/../flex/../../../core/lv_obj_style_gen.h ****     lv_style_value_t v = lv_obj_get_style_prop(obj, part, LV_STYLE_TRANSITION);
 527:Middlewares/LVGL/GUI/lvgl/src/extra/layouts/flex/../flex/../../../core/lv_obj_style_gen.h ****     return (const lv_style_transition_dsc_t *)v.ptr;
 528:Middlewares/LVGL/GUI/lvgl/src/extra/layouts/flex/../flex/../../../core/lv_obj_style_gen.h **** }
 529:Middlewares/LVGL/GUI/lvgl/src/extra/layouts/flex/../flex/../../../core/lv_obj_style_gen.h **** 
 530:Middlewares/LVGL/GUI/lvgl/src/extra/layouts/flex/../flex/../../../core/lv_obj_style_gen.h **** static inline lv_blend_mode_t lv_obj_get_style_blend_mode(const struct _lv_obj_t * obj, uint32_t pa
 531:Middlewares/LVGL/GUI/lvgl/src/extra/layouts/flex/../flex/../../../core/lv_obj_style_gen.h **** {
 532:Middlewares/LVGL/GUI/lvgl/src/extra/layouts/flex/../flex/../../../core/lv_obj_style_gen.h ****     lv_style_value_t v = lv_obj_get_style_prop(obj, part, LV_STYLE_BLEND_MODE);
 533:Middlewares/LVGL/GUI/lvgl/src/extra/layouts/flex/../flex/../../../core/lv_obj_style_gen.h ****     return (lv_blend_mode_t)v.num;
 534:Middlewares/LVGL/GUI/lvgl/src/extra/layouts/flex/../flex/../../../core/lv_obj_style_gen.h **** }
 535:Middlewares/LVGL/GUI/lvgl/src/extra/layouts/flex/../flex/../../../core/lv_obj_style_gen.h **** 
 536:Middlewares/LVGL/GUI/lvgl/src/extra/layouts/flex/../flex/../../../core/lv_obj_style_gen.h **** static inline uint16_t lv_obj_get_style_layout(const struct _lv_obj_t * obj, uint32_t part)
 537:Middlewares/LVGL/GUI/lvgl/src/extra/layouts/flex/../flex/../../../core/lv_obj_style_gen.h **** {
 538:Middlewares/LVGL/GUI/lvgl/src/extra/layouts/flex/../flex/../../../core/lv_obj_style_gen.h ****     lv_style_value_t v = lv_obj_get_style_prop(obj, part, LV_STYLE_LAYOUT);
 539:Middlewares/LVGL/GUI/lvgl/src/extra/layouts/flex/../flex/../../../core/lv_obj_style_gen.h ****     return (uint16_t)v.num;
ARM GAS  C:\Users\ADMINI~1\AppData\Local\Temp\ccyi9XNv.s 			page 52


 540:Middlewares/LVGL/GUI/lvgl/src/extra/layouts/flex/../flex/../../../core/lv_obj_style_gen.h **** }
 541:Middlewares/LVGL/GUI/lvgl/src/extra/layouts/flex/../flex/../../../core/lv_obj_style_gen.h **** 
 542:Middlewares/LVGL/GUI/lvgl/src/extra/layouts/flex/../flex/../../../core/lv_obj_style_gen.h **** static inline lv_base_dir_t lv_obj_get_style_base_dir(const struct _lv_obj_t * obj, uint32_t part)
 543:Middlewares/LVGL/GUI/lvgl/src/extra/layouts/flex/../flex/../../../core/lv_obj_style_gen.h **** {
 544:Middlewares/LVGL/GUI/lvgl/src/extra/layouts/flex/../flex/../../../core/lv_obj_style_gen.h ****     lv_style_value_t v = lv_obj_get_style_prop(obj, part, LV_STYLE_BASE_DIR);
 1204              		.loc 3 544 26 view .LVU394
 1205 00d6 4646     		mov	r6, r8
 1206              	.LBE86:
 1207              	.LBE85:
 447:Middlewares/LVGL/GUI/lvgl/src/extra/layouts/flex/lv_flex.c **** 
 1208              		.loc 2 447 5 is_stmt 1 view .LVU395
 1209              	.LVL111:
 1210              	.LBB88:
 1211              	.LBI85:
 542:Middlewares/LVGL/GUI/lvgl/src/extra/layouts/flex/../flex/../../../core/lv_obj_style_gen.h **** {
 1212              		.loc 3 542 29 view .LVU396
 1213              	.LBB87:
 1214              		.loc 3 544 5 view .LVU397
 1215              		.loc 3 544 26 is_stmt 0 view .LVU398
 1216 00d8 41F26A42 		movw	r2, #5226
 1217 00dc 0021     		movs	r1, #0
 1218 00de 5046     		mov	r0, r10
 1219 00e0 FFF7FEFF 		bl	lv_obj_get_style_prop
 1220              	.LVL112:
 545:Middlewares/LVGL/GUI/lvgl/src/extra/layouts/flex/../flex/../../../core/lv_obj_style_gen.h ****     return (lv_base_dir_t)v.num;
 1221              		.loc 3 545 5 is_stmt 1 view .LVU399
 1222              		.loc 3 545 12 is_stmt 0 view .LVU400
 1223 00e4 C5B2     		uxtb	r5, r0
 1224 00e6 0395     		str	r5, [sp, #12]
 1225              	.LVL113:
 1226              		.loc 3 545 12 view .LVU401
 1227              	.LBE87:
 1228              	.LBE88:
 449:Middlewares/LVGL/GUI/lvgl/src/extra/layouts/flex/lv_flex.c **** 
 1229              		.loc 2 449 5 is_stmt 1 view .LVU402
 449:Middlewares/LVGL/GUI/lvgl/src/extra/layouts/flex/lv_flex.c **** 
 1230              		.loc 2 449 16 is_stmt 0 view .LVU403
 1231 00e8 0023     		movs	r3, #0
 1232 00ea 0D93     		str	r3, [sp, #52]
 451:Middlewares/LVGL/GUI/lvgl/src/extra/layouts/flex/lv_flex.c ****     place_content(f->main_place, max_main_size, t->track_main_size, t->item_cnt, &main_pos, &place_
 1233              		.loc 2 451 5 is_stmt 1 view .LVU404
 451:Middlewares/LVGL/GUI/lvgl/src/extra/layouts/flex/lv_flex.c ****     place_content(f->main_place, max_main_size, t->track_main_size, t->item_cnt, &main_pos, &place_
 1234              		.loc 2 451 16 is_stmt 0 view .LVU405
 1235 00ec 0C93     		str	r3, [sp, #48]
 452:Middlewares/LVGL/GUI/lvgl/src/extra/layouts/flex/lv_flex.c ****     if(f->row && rtl) main_pos += lv_obj_get_content_width(cont);
 1236              		.loc 2 452 5 is_stmt 1 view .LVU406
 1237 00ee 0CAB     		add	r3, sp, #48
 1238 00f0 0193     		str	r3, [sp, #4]
 1239 00f2 0DAB     		add	r3, sp, #52
 1240 00f4 0093     		str	r3, [sp]
 1241 00f6 E368     		ldr	r3, [r4, #12]
 1242 00f8 6268     		ldr	r2, [r4, #4]
 1243 00fa 1A99     		ldr	r1, [sp, #104]
 1244 00fc 98F80000 		ldrb	r0, [r8]	@ zero_extendqisi2
 1245 0100 FFF7FEFF 		bl	place_content
 1246              	.LVL114:
 453:Middlewares/LVGL/GUI/lvgl/src/extra/layouts/flex/lv_flex.c **** 
ARM GAS  C:\Users\ADMINI~1\AppData\Local\Temp\ccyi9XNv.s 			page 53


 1247              		.loc 2 453 5 view .LVU407
 453:Middlewares/LVGL/GUI/lvgl/src/extra/layouts/flex/lv_flex.c **** 
 1248              		.loc 2 453 8 is_stmt 0 view .LVU408
 1249 0104 98F80330 		ldrb	r3, [r8, #3]	@ zero_extendqisi2
 453:Middlewares/LVGL/GUI/lvgl/src/extra/layouts/flex/lv_flex.c **** 
 1250              		.loc 2 453 7 view .LVU409
 1251 0108 13F0010F 		tst	r3, #1
 1252 010c 01D0     		beq	.L68
 1253              	.LVL115:
 453:Middlewares/LVGL/GUI/lvgl/src/extra/layouts/flex/lv_flex.c **** 
 1254              		.loc 2 453 15 discriminator 1 view .LVU410
 1255 010e 012D     		cmp	r5, #1
 1256 0110 05D0     		beq	.L108
 1257              	.L68:
 455:Middlewares/LVGL/GUI/lvgl/src/extra/layouts/flex/lv_flex.c ****     /*Reposition the children*/
 1258              		.loc 2 455 5 is_stmt 1 view .LVU411
 455:Middlewares/LVGL/GUI/lvgl/src/extra/layouts/flex/lv_flex.c ****     /*Reposition the children*/
 1259              		.loc 2 455 23 is_stmt 0 view .LVU412
 1260 0112 0799     		ldr	r1, [sp, #28]
 1261 0114 5046     		mov	r0, r10
 1262 0116 FFF7FEFF 		bl	lv_obj_get_child
 1263              	.LVL116:
 1264 011a 0546     		mov	r5, r0
 1265              	.LVL117:
 457:Middlewares/LVGL/GUI/lvgl/src/extra/layouts/flex/lv_flex.c ****         if(lv_obj_has_flag_any(item, LV_OBJ_FLAG_IGNORE_LAYOUT | LV_OBJ_FLAG_HIDDEN | LV_OBJ_FLAG_F
 1266              		.loc 2 457 5 is_stmt 1 view .LVU413
 457:Middlewares/LVGL/GUI/lvgl/src/extra/layouts/flex/lv_flex.c ****         if(lv_obj_has_flag_any(item, LV_OBJ_FLAG_IGNORE_LAYOUT | LV_OBJ_FLAG_HIDDEN | LV_OBJ_FLAG_F
 1267              		.loc 2 457 10 is_stmt 0 view .LVU414
 1268 011c 0BE1     		b	.L69
 1269              	.LVL118:
 1270              	.L108:
 453:Middlewares/LVGL/GUI/lvgl/src/extra/layouts/flex/lv_flex.c **** 
 1271              		.loc 2 453 23 is_stmt 1 discriminator 2 view .LVU415
 453:Middlewares/LVGL/GUI/lvgl/src/extra/layouts/flex/lv_flex.c **** 
 1272              		.loc 2 453 35 is_stmt 0 discriminator 2 view .LVU416
 1273 011e 5046     		mov	r0, r10
 1274 0120 FFF7FEFF 		bl	lv_obj_get_content_width
 1275              	.LVL119:
 453:Middlewares/LVGL/GUI/lvgl/src/extra/layouts/flex/lv_flex.c **** 
 1276              		.loc 2 453 32 discriminator 2 view .LVU417
 1277 0124 0D9B     		ldr	r3, [sp, #52]
 1278 0126 0344     		add	r3, r3, r0
 1279 0128 0D93     		str	r3, [sp, #52]
 1280 012a F2E7     		b	.L68
 1281              	.LVL120:
 1282              	.L114:
 1283              	.LBB89:
 459:Middlewares/LVGL/GUI/lvgl/src/extra/layouts/flex/lv_flex.c ****             continue;
 1284              		.loc 2 459 13 is_stmt 1 view .LVU418
 459:Middlewares/LVGL/GUI/lvgl/src/extra/layouts/flex/lv_flex.c ****             continue;
 1285              		.loc 2 459 41 is_stmt 0 view .LVU419
 1286 012c F178     		ldrb	r1, [r6, #3]	@ zero_extendqisi2
 459:Middlewares/LVGL/GUI/lvgl/src/extra/layouts/flex/lv_flex.c ****             continue;
 1287              		.loc 2 459 20 view .LVU420
 1288 012e 07AA     		add	r2, sp, #28
 1289 0130 C1F38001 		ubfx	r1, r1, #2, #1
 1290 0134 5046     		mov	r0, r10
ARM GAS  C:\Users\ADMINI~1\AppData\Local\Temp\ccyi9XNv.s 			page 54


 1291 0136 FFF7FEFF 		bl	get_next_item
 1292              	.LVL121:
 1293 013a 0546     		mov	r5, r0
 1294              	.LVL122:
 460:Middlewares/LVGL/GUI/lvgl/src/extra/layouts/flex/lv_flex.c ****         }
 1295              		.loc 2 460 13 is_stmt 1 view .LVU421
 1296 013c FBE0     		b	.L69
 1297              	.LVL123:
 1298              	.L110:
 1299              	.LBB90:
 467:Middlewares/LVGL/GUI/lvgl/src/extra/layouts/flex/lv_flex.c ****                     break;
 1300              		.loc 2 467 21 view .LVU422
 467:Middlewares/LVGL/GUI/lvgl/src/extra/layouts/flex/lv_flex.c ****                     break;
 1301              		.loc 2 467 23 is_stmt 0 view .LVU423
 1302 013e D0F80C80 		ldr	r8, [r0, #12]
 1303              	.LVL124:
 468:Middlewares/LVGL/GUI/lvgl/src/extra/layouts/flex/lv_flex.c ****                 }
 1304              		.loc 2 468 21 is_stmt 1 view .LVU424
 1305 0142 10E0     		b	.L75
 1306              	.LVL125:
 1307              	.L115:
 465:Middlewares/LVGL/GUI/lvgl/src/extra/layouts/flex/lv_flex.c ****                 if(t->grow_dsc[i].item == item) {
 1308              		.loc 2 465 19 is_stmt 0 view .LVU425
 1309 0144 0023     		movs	r3, #0
 1310              	.LVL126:
 1311              	.L72:
 465:Middlewares/LVGL/GUI/lvgl/src/extra/layouts/flex/lv_flex.c ****                 if(t->grow_dsc[i].item == item) {
 1312              		.loc 2 465 24 is_stmt 1 discriminator 1 view .LVU426
 465:Middlewares/LVGL/GUI/lvgl/src/extra/layouts/flex/lv_flex.c ****                 if(t->grow_dsc[i].item == item) {
 1313              		.loc 2 465 29 is_stmt 0 discriminator 1 view .LVU427
 1314 0146 6269     		ldr	r2, [r4, #20]
 465:Middlewares/LVGL/GUI/lvgl/src/extra/layouts/flex/lv_flex.c ****                 if(t->grow_dsc[i].item == item) {
 1315              		.loc 2 465 13 discriminator 1 view .LVU428
 1316 0148 9A42     		cmp	r2, r3
 1317 014a 0AD9     		bls	.L109
 466:Middlewares/LVGL/GUI/lvgl/src/extra/layouts/flex/lv_flex.c ****                     s = t->grow_dsc[i].final_size;
 1318              		.loc 2 466 17 is_stmt 1 view .LVU429
 466:Middlewares/LVGL/GUI/lvgl/src/extra/layouts/flex/lv_flex.c ****                     s = t->grow_dsc[i].final_size;
 1319              		.loc 2 466 21 is_stmt 0 view .LVU430
 1320 014c 2269     		ldr	r2, [r4, #16]
 466:Middlewares/LVGL/GUI/lvgl/src/extra/layouts/flex/lv_flex.c ****                     s = t->grow_dsc[i].final_size;
 1321              		.loc 2 466 31 view .LVU431
 1322 014e 03EB4301 		add	r1, r3, r3, lsl #1
 1323 0152 02EBC100 		add	r0, r2, r1, lsl #3
 466:Middlewares/LVGL/GUI/lvgl/src/extra/layouts/flex/lv_flex.c ****                     s = t->grow_dsc[i].final_size;
 1324              		.loc 2 466 34 view .LVU432
 1325 0156 52F83120 		ldr	r2, [r2, r1, lsl #3]
 466:Middlewares/LVGL/GUI/lvgl/src/extra/layouts/flex/lv_flex.c ****                     s = t->grow_dsc[i].final_size;
 1326              		.loc 2 466 19 view .LVU433
 1327 015a AA42     		cmp	r2, r5
 1328 015c EFD0     		beq	.L110
 465:Middlewares/LVGL/GUI/lvgl/src/extra/layouts/flex/lv_flex.c ****                 if(t->grow_dsc[i].item == item) {
 1329              		.loc 2 465 46 is_stmt 1 discriminator 2 view .LVU434
 465:Middlewares/LVGL/GUI/lvgl/src/extra/layouts/flex/lv_flex.c ****                 if(t->grow_dsc[i].item == item) {
 1330              		.loc 2 465 47 is_stmt 0 discriminator 2 view .LVU435
 1331 015e 0133     		adds	r3, r3, #1
 1332              	.LVL127:
ARM GAS  C:\Users\ADMINI~1\AppData\Local\Temp\ccyi9XNv.s 			page 55


 465:Middlewares/LVGL/GUI/lvgl/src/extra/layouts/flex/lv_flex.c ****                 if(t->grow_dsc[i].item == item) {
 1333              		.loc 2 465 47 discriminator 2 view .LVU436
 1334 0160 F1E7     		b	.L72
 1335              	.L109:
 464:Middlewares/LVGL/GUI/lvgl/src/extra/layouts/flex/lv_flex.c ****             for(i = 0; i < t->grow_item_cnt; i++) {
 1336              		.loc 2 464 24 view .LVU437
 1337 0162 4FF00008 		mov	r8, #0
 1338              	.L75:
 1339              	.LVL128:
 472:Middlewares/LVGL/GUI/lvgl/src/extra/layouts/flex/lv_flex.c ****             else item->h_layout = 1;
 1340              		.loc 2 472 13 is_stmt 1 view .LVU438
 472:Middlewares/LVGL/GUI/lvgl/src/extra/layouts/flex/lv_flex.c ****             else item->h_layout = 1;
 1341              		.loc 2 472 16 is_stmt 0 view .LVU439
 1342 0166 F378     		ldrb	r3, [r6, #3]	@ zero_extendqisi2
 1343              	.LVL129:
 472:Middlewares/LVGL/GUI/lvgl/src/extra/layouts/flex/lv_flex.c ****             else item->h_layout = 1;
 1344              		.loc 2 472 15 view .LVU440
 1345 0168 13F0010F 		tst	r3, #1
 1346 016c 2CD0     		beq	.L77
 472:Middlewares/LVGL/GUI/lvgl/src/extra/layouts/flex/lv_flex.c ****             else item->h_layout = 1;
 1347              		.loc 2 472 24 is_stmt 1 discriminator 1 view .LVU441
 472:Middlewares/LVGL/GUI/lvgl/src/extra/layouts/flex/lv_flex.c ****             else item->h_layout = 1;
 1348              		.loc 2 472 39 is_stmt 0 discriminator 1 view .LVU442
 1349 016e 95F82B30 		ldrb	r3, [r5, #43]	@ zero_extendqisi2
 1350 0172 43F00403 		orr	r3, r3, #4
 1351 0176 85F82B30 		strb	r3, [r5, #43]
 1352              	.L78:
 475:Middlewares/LVGL/GUI/lvgl/src/extra/layouts/flex/lv_flex.c ****                 lv_obj_invalidate(item);
 1353              		.loc 2 475 13 is_stmt 1 view .LVU443
 475:Middlewares/LVGL/GUI/lvgl/src/extra/layouts/flex/lv_flex.c ****                 lv_obj_invalidate(item);
 1354              		.loc 2 475 40 is_stmt 0 view .LVU444
 1355 017a 05F11407 		add	r7, r5, #20
 475:Middlewares/LVGL/GUI/lvgl/src/extra/layouts/flex/lv_flex.c ****                 lv_obj_invalidate(item);
 1356              		.loc 2 475 21 view .LVU445
 1357 017e 3846     		mov	r0, r7
 1358 0180 029B     		ldr	r3, [sp, #8]
 1359 0182 9847     		blx	r3
 1360              	.LVL130:
 475:Middlewares/LVGL/GUI/lvgl/src/extra/layouts/flex/lv_flex.c ****                 lv_obj_invalidate(item);
 1361              		.loc 2 475 15 view .LVU446
 1362 0184 4045     		cmp	r0, r8
 1363 0186 00F0F780 		beq	.L79
 1364              	.LBB91:
 476:Middlewares/LVGL/GUI/lvgl/src/extra/layouts/flex/lv_flex.c **** 
 1365              		.loc 2 476 17 is_stmt 1 view .LVU447
 1366 018a 2846     		mov	r0, r5
 1367 018c FFF7FEFF 		bl	lv_obj_invalidate
 1368              	.LVL131:
 478:Middlewares/LVGL/GUI/lvgl/src/extra/layouts/flex/lv_flex.c ****                 lv_area_copy(&old_coords, &item->coords);
 1369              		.loc 2 478 17 view .LVU448
 479:Middlewares/LVGL/GUI/lvgl/src/extra/layouts/flex/lv_flex.c ****                 area_set_main_size(&item->coords, s);
 1370              		.loc 2 479 17 view .LVU449
 1371              	.LBB92:
 1372              	.LBI92:
 110:Middlewares/LVGL/GUI/lvgl/src/extra/layouts/flex/../flex/../../../core/../misc/../font/../misc/lv_area.h **** {
 1373              		.loc 1 110 20 view .LVU450
 1374              	.LBB93:
ARM GAS  C:\Users\ADMINI~1\AppData\Local\Temp\ccyi9XNv.s 			page 56


 112:Middlewares/LVGL/GUI/lvgl/src/extra/layouts/flex/../flex/../../../core/../misc/../font/../misc/lv_area.h ****     dest->y1 = src->y1;
 1375              		.loc 1 112 5 view .LVU451
 112:Middlewares/LVGL/GUI/lvgl/src/extra/layouts/flex/../flex/../../../core/../misc/../font/../misc/lv_area.h ****     dest->y1 = src->y1;
 1376              		.loc 1 112 19 is_stmt 0 view .LVU452
 1377 0190 6B69     		ldr	r3, [r5, #20]
 112:Middlewares/LVGL/GUI/lvgl/src/extra/layouts/flex/../flex/../../../core/../misc/../font/../misc/lv_area.h ****     dest->y1 = src->y1;
 1378              		.loc 1 112 14 view .LVU453
 1379 0192 0893     		str	r3, [sp, #32]
 113:Middlewares/LVGL/GUI/lvgl/src/extra/layouts/flex/../flex/../../../core/../misc/../font/../misc/lv_area.h ****     dest->x2 = src->x2;
 1380              		.loc 1 113 5 is_stmt 1 view .LVU454
 113:Middlewares/LVGL/GUI/lvgl/src/extra/layouts/flex/../flex/../../../core/../misc/../font/../misc/lv_area.h ****     dest->x2 = src->x2;
 1381              		.loc 1 113 19 is_stmt 0 view .LVU455
 1382 0194 AB69     		ldr	r3, [r5, #24]
 113:Middlewares/LVGL/GUI/lvgl/src/extra/layouts/flex/../flex/../../../core/../misc/../font/../misc/lv_area.h ****     dest->x2 = src->x2;
 1383              		.loc 1 113 14 view .LVU456
 1384 0196 0993     		str	r3, [sp, #36]
 114:Middlewares/LVGL/GUI/lvgl/src/extra/layouts/flex/../flex/../../../core/../misc/../font/../misc/lv_area.h ****     dest->y2 = src->y2;
 1385              		.loc 1 114 5 is_stmt 1 view .LVU457
 114:Middlewares/LVGL/GUI/lvgl/src/extra/layouts/flex/../flex/../../../core/../misc/../font/../misc/lv_area.h ****     dest->y2 = src->y2;
 1386              		.loc 1 114 19 is_stmt 0 view .LVU458
 1387 0198 EB69     		ldr	r3, [r5, #28]
 114:Middlewares/LVGL/GUI/lvgl/src/extra/layouts/flex/../flex/../../../core/../misc/../font/../misc/lv_area.h ****     dest->y2 = src->y2;
 1388              		.loc 1 114 14 view .LVU459
 1389 019a 0A93     		str	r3, [sp, #40]
 115:Middlewares/LVGL/GUI/lvgl/src/extra/layouts/flex/../flex/../../../core/../misc/../font/../misc/lv_area.h **** }
 1390              		.loc 1 115 5 is_stmt 1 view .LVU460
 115:Middlewares/LVGL/GUI/lvgl/src/extra/layouts/flex/../flex/../../../core/../misc/../font/../misc/lv_area.h **** }
 1391              		.loc 1 115 19 is_stmt 0 view .LVU461
 1392 019c 2B6A     		ldr	r3, [r5, #32]
 115:Middlewares/LVGL/GUI/lvgl/src/extra/layouts/flex/../flex/../../../core/../misc/../font/../misc/lv_area.h **** }
 1393              		.loc 1 115 14 view .LVU462
 1394 019e 0B93     		str	r3, [sp, #44]
 1395              	.LVL132:
 115:Middlewares/LVGL/GUI/lvgl/src/extra/layouts/flex/../flex/../../../core/../misc/../font/../misc/lv_area.h **** }
 1396              		.loc 1 115 14 view .LVU463
 1397              	.LBE93:
 1398              	.LBE92:
 480:Middlewares/LVGL/GUI/lvgl/src/extra/layouts/flex/lv_flex.c ****                 lv_event_send(item, LV_EVENT_SIZE_CHANGED, &old_coords);
 1399              		.loc 2 480 17 is_stmt 1 view .LVU464
 1400 01a0 4146     		mov	r1, r8
 1401 01a2 3846     		mov	r0, r7
 1402 01a4 069B     		ldr	r3, [sp, #24]
 1403 01a6 9847     		blx	r3
 1404              	.LVL133:
 481:Middlewares/LVGL/GUI/lvgl/src/extra/layouts/flex/lv_flex.c ****                 lv_event_send(lv_obj_get_parent(item), LV_EVENT_CHILD_CHANGED, item);
 1405              		.loc 2 481 17 view .LVU465
 1406 01a8 08AA     		add	r2, sp, #32
 1407 01aa 2921     		movs	r1, #41
 1408 01ac 2846     		mov	r0, r5
 1409 01ae FFF7FEFF 		bl	lv_event_send
 1410              	.LVL134:
 482:Middlewares/LVGL/GUI/lvgl/src/extra/layouts/flex/lv_flex.c ****                 lv_obj_invalidate(item);
 1411              		.loc 2 482 17 view .LVU466
 1412 01b2 2846     		mov	r0, r5
 1413 01b4 FFF7FEFF 		bl	lv_obj_get_parent
 1414              	.LVL135:
 1415 01b8 2A46     		mov	r2, r5
ARM GAS  C:\Users\ADMINI~1\AppData\Local\Temp\ccyi9XNv.s 			page 57


 1416 01ba 2221     		movs	r1, #34
 1417 01bc FFF7FEFF 		bl	lv_event_send
 1418              	.LVL136:
 483:Middlewares/LVGL/GUI/lvgl/src/extra/layouts/flex/lv_flex.c ****             }
 1419              		.loc 2 483 17 view .LVU467
 1420 01c0 2846     		mov	r0, r5
 1421 01c2 FFF7FEFF 		bl	lv_obj_invalidate
 1422              	.LVL137:
 1423 01c6 D7E0     		b	.L79
 1424              	.L77:
 483:Middlewares/LVGL/GUI/lvgl/src/extra/layouts/flex/lv_flex.c ****             }
 1425              		.loc 2 483 17 is_stmt 0 view .LVU468
 1426              	.LBE91:
 473:Middlewares/LVGL/GUI/lvgl/src/extra/layouts/flex/lv_flex.c **** 
 1427              		.loc 2 473 18 is_stmt 1 view .LVU469
 473:Middlewares/LVGL/GUI/lvgl/src/extra/layouts/flex/lv_flex.c **** 
 1428              		.loc 2 473 33 is_stmt 0 view .LVU470
 1429 01c8 95F82B30 		ldrb	r3, [r5, #43]	@ zero_extendqisi2
 1430 01cc 43F00203 		orr	r3, r3, #2
 1431 01d0 85F82B30 		strb	r3, [r5, #43]
 1432 01d4 D1E7     		b	.L78
 1433              	.LVL138:
 1434              	.L80:
 473:Middlewares/LVGL/GUI/lvgl/src/extra/layouts/flex/lv_flex.c **** 
 1435              		.loc 2 473 33 view .LVU471
 1436              	.LBE90:
 499:Middlewares/LVGL/GUI/lvgl/src/extra/layouts/flex/lv_flex.c ****                 break;
 1437              		.loc 2 499 17 is_stmt 1 view .LVU472
 499:Middlewares/LVGL/GUI/lvgl/src/extra/layouts/flex/lv_flex.c ****                 break;
 1438              		.loc 2 499 30 is_stmt 0 view .LVU473
 1439 01d6 2768     		ldr	r7, [r4]
 499:Middlewares/LVGL/GUI/lvgl/src/extra/layouts/flex/lv_flex.c ****                 break;
 1440              		.loc 2 499 51 view .LVU474
 1441 01d8 05F11400 		add	r0, r5, #20
 1442 01dc 059B     		ldr	r3, [sp, #20]
 1443 01de 9847     		blx	r3
 1444              	.LVL139:
 499:Middlewares/LVGL/GUI/lvgl/src/extra/layouts/flex/lv_flex.c ****                 break;
 1445              		.loc 2 499 27 view .LVU475
 1446 01e0 3F1A     		subs	r7, r7, r0
 1447              	.LVL140:
 500:Middlewares/LVGL/GUI/lvgl/src/extra/layouts/flex/lv_flex.c ****             default:
 1448              		.loc 2 500 17 is_stmt 1 view .LVU476
 1449 01e2 00E0     		b	.L81
 1450              	.LVL141:
 1451              	.L100:
 492:Middlewares/LVGL/GUI/lvgl/src/extra/layouts/flex/lv_flex.c ****             case LV_FLEX_ALIGN_CENTER:
 1452              		.loc 2 492 9 is_stmt 0 view .LVU477
 1453 01e4 0027     		movs	r7, #0
 1454              	.LVL142:
 1455              	.L81:
 505:Middlewares/LVGL/GUI/lvgl/src/extra/layouts/flex/lv_flex.c **** 
 1456              		.loc 2 505 9 is_stmt 1 view .LVU478
 505:Middlewares/LVGL/GUI/lvgl/src/extra/layouts/flex/lv_flex.c **** 
 1457              		.loc 2 505 12 is_stmt 0 view .LVU479
 1458 01e6 F378     		ldrb	r3, [r6, #3]	@ zero_extendqisi2
 505:Middlewares/LVGL/GUI/lvgl/src/extra/layouts/flex/lv_flex.c **** 
ARM GAS  C:\Users\ADMINI~1\AppData\Local\Temp\ccyi9XNv.s 			page 58


 1459              		.loc 2 505 11 view .LVU480
 1460 01e8 13F0010F 		tst	r3, #1
 1461 01ec 02D0     		beq	.L82
 505:Middlewares/LVGL/GUI/lvgl/src/extra/layouts/flex/lv_flex.c **** 
 1462              		.loc 2 505 19 discriminator 1 view .LVU481
 1463 01ee 039B     		ldr	r3, [sp, #12]
 1464 01f0 012B     		cmp	r3, #1
 1465 01f2 2CD0     		beq	.L111
 1466              	.L82:
 509:Middlewares/LVGL/GUI/lvgl/src/extra/layouts/flex/lv_flex.c ****         lv_coord_t tr_y = lv_obj_get_style_translate_y(item, LV_PART_MAIN);
 1467              		.loc 2 509 9 is_stmt 1 view .LVU482
 1468              	.LVL143:
 1469              	.LBB94:
 1470              	.LBI94:
  67:Middlewares/LVGL/GUI/lvgl/src/extra/layouts/flex/../flex/../../../core/lv_obj_style_gen.h **** {
 1471              		.loc 3 67 26 view .LVU483
 1472              	.LBB95:
  69:Middlewares/LVGL/GUI/lvgl/src/extra/layouts/flex/../flex/../../../core/lv_obj_style_gen.h ****     return (lv_coord_t)v.num;
 1473              		.loc 3 69 5 view .LVU484
  69:Middlewares/LVGL/GUI/lvgl/src/extra/layouts/flex/../flex/../../../core/lv_obj_style_gen.h ****     return (lv_coord_t)v.num;
 1474              		.loc 3 69 26 is_stmt 0 view .LVU485
 1475 01f4 43F20C02 		movw	r2, #12300
 1476 01f8 0021     		movs	r1, #0
 1477 01fa 2846     		mov	r0, r5
 1478 01fc FFF7FEFF 		bl	lv_obj_get_style_prop
 1479              	.LVL144:
 1480 0200 8146     		mov	r9, r0
  70:Middlewares/LVGL/GUI/lvgl/src/extra/layouts/flex/../flex/../../../core/lv_obj_style_gen.h **** }
 1481              		.loc 3 70 5 is_stmt 1 view .LVU486
 1482              	.LVL145:
  70:Middlewares/LVGL/GUI/lvgl/src/extra/layouts/flex/../flex/../../../core/lv_obj_style_gen.h **** }
 1483              		.loc 3 70 5 is_stmt 0 view .LVU487
 1484              	.LBE95:
 1485              	.LBE94:
 510:Middlewares/LVGL/GUI/lvgl/src/extra/layouts/flex/lv_flex.c ****         lv_coord_t w = lv_obj_get_width(item);
 1486              		.loc 2 510 9 is_stmt 1 view .LVU488
 1487              	.LBB96:
 1488              	.LBI96:
  73:Middlewares/LVGL/GUI/lvgl/src/extra/layouts/flex/../flex/../../../core/lv_obj_style_gen.h **** {
 1489              		.loc 3 73 26 view .LVU489
 1490              	.LBB97:
  75:Middlewares/LVGL/GUI/lvgl/src/extra/layouts/flex/../flex/../../../core/lv_obj_style_gen.h ****     return (lv_coord_t)v.num;
 1491              		.loc 3 75 5 view .LVU490
  75:Middlewares/LVGL/GUI/lvgl/src/extra/layouts/flex/../flex/../../../core/lv_obj_style_gen.h ****     return (lv_coord_t)v.num;
 1492              		.loc 3 75 26 is_stmt 0 view .LVU491
 1493 0202 43F20D02 		movw	r2, #12301
 1494 0206 0021     		movs	r1, #0
 1495 0208 2846     		mov	r0, r5
 1496              	.LVL146:
  75:Middlewares/LVGL/GUI/lvgl/src/extra/layouts/flex/../flex/../../../core/lv_obj_style_gen.h ****     return (lv_coord_t)v.num;
 1497              		.loc 3 75 26 view .LVU492
 1498 020a FFF7FEFF 		bl	lv_obj_get_style_prop
 1499              	.LVL147:
 1500 020e 8046     		mov	r8, r0
  76:Middlewares/LVGL/GUI/lvgl/src/extra/layouts/flex/../flex/../../../core/lv_obj_style_gen.h **** }
 1501              		.loc 3 76 5 is_stmt 1 view .LVU493
 1502              	.LVL148:
ARM GAS  C:\Users\ADMINI~1\AppData\Local\Temp\ccyi9XNv.s 			page 59


  76:Middlewares/LVGL/GUI/lvgl/src/extra/layouts/flex/../flex/../../../core/lv_obj_style_gen.h **** }
 1503              		.loc 3 76 5 is_stmt 0 view .LVU494
 1504              	.LBE97:
 1505              	.LBE96:
 511:Middlewares/LVGL/GUI/lvgl/src/extra/layouts/flex/lv_flex.c ****         lv_coord_t h = lv_obj_get_height(item);
 1506              		.loc 2 511 9 is_stmt 1 view .LVU495
 511:Middlewares/LVGL/GUI/lvgl/src/extra/layouts/flex/lv_flex.c ****         lv_coord_t h = lv_obj_get_height(item);
 1507              		.loc 2 511 24 is_stmt 0 view .LVU496
 1508 0210 2846     		mov	r0, r5
 1509              	.LVL149:
 511:Middlewares/LVGL/GUI/lvgl/src/extra/layouts/flex/lv_flex.c ****         lv_coord_t h = lv_obj_get_height(item);
 1510              		.loc 2 511 24 view .LVU497
 1511 0212 FFF7FEFF 		bl	lv_obj_get_width
 1512              	.LVL150:
 1513 0216 0490     		str	r0, [sp, #16]
 1514              	.LVL151:
 512:Middlewares/LVGL/GUI/lvgl/src/extra/layouts/flex/lv_flex.c ****         if(LV_COORD_IS_PCT(tr_x)) tr_x = (w * LV_COORD_GET_PCT(tr_x)) / 100;
 1515              		.loc 2 512 9 is_stmt 1 view .LVU498
 512:Middlewares/LVGL/GUI/lvgl/src/extra/layouts/flex/lv_flex.c ****         if(LV_COORD_IS_PCT(tr_x)) tr_x = (w * LV_COORD_GET_PCT(tr_x)) / 100;
 1516              		.loc 2 512 24 is_stmt 0 view .LVU499
 1517 0218 2846     		mov	r0, r5
 1518              	.LVL152:
 512:Middlewares/LVGL/GUI/lvgl/src/extra/layouts/flex/lv_flex.c ****         if(LV_COORD_IS_PCT(tr_x)) tr_x = (w * LV_COORD_GET_PCT(tr_x)) / 100;
 1519              		.loc 2 512 24 view .LVU500
 1520 021a FFF7FEFF 		bl	lv_obj_get_height
 1521              	.LVL153:
 513:Middlewares/LVGL/GUI/lvgl/src/extra/layouts/flex/lv_flex.c ****         if(LV_COORD_IS_PCT(tr_y)) tr_y = (h * LV_COORD_GET_PCT(tr_y)) / 100;
 1522              		.loc 2 513 9 is_stmt 1 view .LVU501
 513:Middlewares/LVGL/GUI/lvgl/src/extra/layouts/flex/lv_flex.c ****         if(LV_COORD_IS_PCT(tr_y)) tr_y = (h * LV_COORD_GET_PCT(tr_y)) / 100;
 1523              		.loc 2 513 12 is_stmt 0 view .LVU502
 1524 021e 09F0C043 		and	r3, r9, #1610612736
 513:Middlewares/LVGL/GUI/lvgl/src/extra/layouts/flex/lv_flex.c ****         if(LV_COORD_IS_PCT(tr_y)) tr_y = (h * LV_COORD_GET_PCT(tr_y)) / 100;
 1525              		.loc 2 513 11 view .LVU503
 1526 0222 B3F1005F 		cmp	r3, #536870912
 1527 0226 1AD0     		beq	.L112
 1528              	.L83:
 514:Middlewares/LVGL/GUI/lvgl/src/extra/layouts/flex/lv_flex.c **** 
 1529              		.loc 2 514 9 is_stmt 1 view .LVU504
 514:Middlewares/LVGL/GUI/lvgl/src/extra/layouts/flex/lv_flex.c **** 
 1530              		.loc 2 514 12 is_stmt 0 view .LVU505
 1531 0228 08F0C043 		and	r3, r8, #1610612736
 514:Middlewares/LVGL/GUI/lvgl/src/extra/layouts/flex/lv_flex.c **** 
 1532              		.loc 2 514 11 view .LVU506
 1533 022c B3F1005F 		cmp	r3, #536870912
 1534 0230 29D0     		beq	.L113
 1535              	.LVL154:
 1536              	.L85:
 516:Middlewares/LVGL/GUI/lvgl/src/extra/layouts/flex/lv_flex.c ****         lv_coord_t diff_y = abs_y - item->coords.y1 + tr_y;
 1537              		.loc 2 516 9 is_stmt 1 view .LVU507
 516:Middlewares/LVGL/GUI/lvgl/src/extra/layouts/flex/lv_flex.c ****         lv_coord_t diff_y = abs_y - item->coords.y1 + tr_y;
 1538              		.loc 2 516 49 is_stmt 0 view .LVU508
 1539 0232 6B69     		ldr	r3, [r5, #20]
 516:Middlewares/LVGL/GUI/lvgl/src/extra/layouts/flex/lv_flex.c ****         lv_coord_t diff_y = abs_y - item->coords.y1 + tr_y;
 1540              		.loc 2 516 35 view .LVU509
 1541 0234 189A     		ldr	r2, [sp, #96]
 1542 0236 D31A     		subs	r3, r2, r3
 516:Middlewares/LVGL/GUI/lvgl/src/extra/layouts/flex/lv_flex.c ****         lv_coord_t diff_y = abs_y - item->coords.y1 + tr_y;
ARM GAS  C:\Users\ADMINI~1\AppData\Local\Temp\ccyi9XNv.s 			page 60


 1543              		.loc 2 516 20 view .LVU510
 1544 0238 9944     		add	r9, r9, r3
 1545              	.LVL155:
 517:Middlewares/LVGL/GUI/lvgl/src/extra/layouts/flex/lv_flex.c ****         diff_x += f->row ? main_pos : cross_pos;
 1546              		.loc 2 517 9 is_stmt 1 view .LVU511
 517:Middlewares/LVGL/GUI/lvgl/src/extra/layouts/flex/lv_flex.c ****         diff_x += f->row ? main_pos : cross_pos;
 1547              		.loc 2 517 49 is_stmt 0 view .LVU512
 1548 023a AB69     		ldr	r3, [r5, #24]
 517:Middlewares/LVGL/GUI/lvgl/src/extra/layouts/flex/lv_flex.c ****         diff_x += f->row ? main_pos : cross_pos;
 1549              		.loc 2 517 35 view .LVU513
 1550 023c 199A     		ldr	r2, [sp, #100]
 1551 023e D31A     		subs	r3, r2, r3
 517:Middlewares/LVGL/GUI/lvgl/src/extra/layouts/flex/lv_flex.c ****         diff_x += f->row ? main_pos : cross_pos;
 1552              		.loc 2 517 20 view .LVU514
 1553 0240 9844     		add	r8, r8, r3
 1554              	.LVL156:
 518:Middlewares/LVGL/GUI/lvgl/src/extra/layouts/flex/lv_flex.c ****         diff_y += f->row ? cross_pos : main_pos;
 1555              		.loc 2 518 9 is_stmt 1 view .LVU515
 518:Middlewares/LVGL/GUI/lvgl/src/extra/layouts/flex/lv_flex.c ****         diff_y += f->row ? cross_pos : main_pos;
 1556              		.loc 2 518 26 is_stmt 0 view .LVU516
 1557 0242 F378     		ldrb	r3, [r6, #3]	@ zero_extendqisi2
 518:Middlewares/LVGL/GUI/lvgl/src/extra/layouts/flex/lv_flex.c ****         diff_y += f->row ? cross_pos : main_pos;
 1558              		.loc 2 518 37 view .LVU517
 1559 0244 13F00103 		ands	r3, r3, #1
 1560 0248 3AD0     		beq	.L101
 518:Middlewares/LVGL/GUI/lvgl/src/extra/layouts/flex/lv_flex.c ****         diff_y += f->row ? cross_pos : main_pos;
 1561              		.loc 2 518 37 discriminator 1 view .LVU518
 1562 024a 0D9A     		ldr	r2, [sp, #52]
 1563 024c 39E0     		b	.L87
 1564              	.LVL157:
 1565              	.L111:
 505:Middlewares/LVGL/GUI/lvgl/src/extra/layouts/flex/lv_flex.c **** 
 1566              		.loc 2 505 27 is_stmt 1 discriminator 2 view .LVU519
 505:Middlewares/LVGL/GUI/lvgl/src/extra/layouts/flex/lv_flex.c **** 
 1567              		.loc 2 505 39 is_stmt 0 discriminator 2 view .LVU520
 1568 024e 05F11400 		add	r0, r5, #20
 1569 0252 029B     		ldr	r3, [sp, #8]
 1570 0254 9847     		blx	r3
 1571              	.LVL158:
 505:Middlewares/LVGL/GUI/lvgl/src/extra/layouts/flex/lv_flex.c **** 
 1572              		.loc 2 505 36 discriminator 2 view .LVU521
 1573 0256 0D9B     		ldr	r3, [sp, #52]
 1574 0258 1B1A     		subs	r3, r3, r0
 1575 025a 0D93     		str	r3, [sp, #52]
 1576 025c CAE7     		b	.L82
 1577              	.LVL159:
 1578              	.L112:
 513:Middlewares/LVGL/GUI/lvgl/src/extra/layouts/flex/lv_flex.c ****         if(LV_COORD_IS_PCT(tr_y)) tr_y = (h * LV_COORD_GET_PCT(tr_y)) / 100;
 1579              		.loc 2 513 12 discriminator 1 view .LVU522
 1580 025e 29F0C043 		bic	r3, r9, #1610612736
 1581 0262 B3F5FA6F 		cmp	r3, #2000
 1582 0266 DFDC     		bgt	.L83
 513:Middlewares/LVGL/GUI/lvgl/src/extra/layouts/flex/lv_flex.c ****         if(LV_COORD_IS_PCT(tr_y)) tr_y = (h * LV_COORD_GET_PCT(tr_y)) / 100;
 1583              		.loc 2 513 35 is_stmt 1 discriminator 2 view .LVU523
 513:Middlewares/LVGL/GUI/lvgl/src/extra/layouts/flex/lv_flex.c ****         if(LV_COORD_IS_PCT(tr_y)) tr_y = (h * LV_COORD_GET_PCT(tr_y)) / 100;
 1584              		.loc 2 513 47 is_stmt 0 discriminator 2 view .LVU524
 1585 0268 B3F57A7F 		cmp	r3, #1000
ARM GAS  C:\Users\ADMINI~1\AppData\Local\Temp\ccyi9XNv.s 			page 61


 1586 026c 01DD     		ble	.L84
 513:Middlewares/LVGL/GUI/lvgl/src/extra/layouts/flex/lv_flex.c ****         if(LV_COORD_IS_PCT(tr_y)) tr_y = (h * LV_COORD_GET_PCT(tr_y)) / 100;
 1587              		.loc 2 513 47 discriminator 3 view .LVU525
 1588 026e C3F57A73 		rsb	r3, r3, #1000
 1589              	.L84:
 513:Middlewares/LVGL/GUI/lvgl/src/extra/layouts/flex/lv_flex.c ****         if(LV_COORD_IS_PCT(tr_y)) tr_y = (h * LV_COORD_GET_PCT(tr_y)) / 100;
 1590              		.loc 2 513 45 discriminator 6 view .LVU526
 1591 0272 049A     		ldr	r2, [sp, #16]
 1592 0274 02FB03F3 		mul	r3, r2, r3
 513:Middlewares/LVGL/GUI/lvgl/src/extra/layouts/flex/lv_flex.c ****         if(LV_COORD_IS_PCT(tr_y)) tr_y = (h * LV_COORD_GET_PCT(tr_y)) / 100;
 1593              		.loc 2 513 40 discriminator 6 view .LVU527
 1594 0278 104A     		ldr	r2, .L116+16
 1595 027a 82FB0329 		smull	r2, r9, r2, r3
 1596              	.LVL160:
 513:Middlewares/LVGL/GUI/lvgl/src/extra/layouts/flex/lv_flex.c ****         if(LV_COORD_IS_PCT(tr_y)) tr_y = (h * LV_COORD_GET_PCT(tr_y)) / 100;
 1597              		.loc 2 513 40 discriminator 6 view .LVU528
 1598 027e DB17     		asrs	r3, r3, #31
 1599 0280 C3EB6919 		rsb	r9, r3, r9, asr #5
 1600              	.LVL161:
 513:Middlewares/LVGL/GUI/lvgl/src/extra/layouts/flex/lv_flex.c ****         if(LV_COORD_IS_PCT(tr_y)) tr_y = (h * LV_COORD_GET_PCT(tr_y)) / 100;
 1601              		.loc 2 513 40 discriminator 6 view .LVU529
 1602 0284 D0E7     		b	.L83
 1603              	.L113:
 514:Middlewares/LVGL/GUI/lvgl/src/extra/layouts/flex/lv_flex.c **** 
 1604              		.loc 2 514 12 discriminator 1 view .LVU530
 1605 0286 28F0C043 		bic	r3, r8, #1610612736
 1606 028a B3F5FA6F 		cmp	r3, #2000
 1607 028e D0DC     		bgt	.L85
 514:Middlewares/LVGL/GUI/lvgl/src/extra/layouts/flex/lv_flex.c **** 
 1608              		.loc 2 514 35 is_stmt 1 discriminator 2 view .LVU531
 514:Middlewares/LVGL/GUI/lvgl/src/extra/layouts/flex/lv_flex.c **** 
 1609              		.loc 2 514 47 is_stmt 0 discriminator 2 view .LVU532
 1610 0290 B3F57A7F 		cmp	r3, #1000
 1611 0294 01DD     		ble	.L86
 514:Middlewares/LVGL/GUI/lvgl/src/extra/layouts/flex/lv_flex.c **** 
 1612              		.loc 2 514 47 discriminator 3 view .LVU533
 1613 0296 C3F57A73 		rsb	r3, r3, #1000
 1614              	.L86:
 514:Middlewares/LVGL/GUI/lvgl/src/extra/layouts/flex/lv_flex.c **** 
 1615              		.loc 2 514 45 discriminator 6 view .LVU534
 1616 029a 03FB00F0 		mul	r0, r3, r0
 1617              	.LVL162:
 514:Middlewares/LVGL/GUI/lvgl/src/extra/layouts/flex/lv_flex.c **** 
 1618              		.loc 2 514 40 discriminator 6 view .LVU535
 1619 029e 074B     		ldr	r3, .L116+16
 1620 02a0 83FB0038 		smull	r3, r8, r3, r0
 1621              	.LVL163:
 514:Middlewares/LVGL/GUI/lvgl/src/extra/layouts/flex/lv_flex.c **** 
 1622              		.loc 2 514 40 discriminator 6 view .LVU536
 1623 02a4 C017     		asrs	r0, r0, #31
 1624 02a6 C0EB6818 		rsb	r8, r0, r8, asr #5
 1625              	.LVL164:
 514:Middlewares/LVGL/GUI/lvgl/src/extra/layouts/flex/lv_flex.c **** 
 1626              		.loc 2 514 40 discriminator 6 view .LVU537
 1627 02aa C2E7     		b	.L85
 1628              	.L117:
 1629              		.align	2
ARM GAS  C:\Users\ADMINI~1\AppData\Local\Temp\ccyi9XNv.s 			page 62


 1630              	.L116:
 1631 02ac 00000000 		.word	lv_area_set_width
 1632 02b0 00000000 		.word	lv_area_get_width
 1633 02b4 00000000 		.word	lv_area_set_height
 1634 02b8 00000000 		.word	lv_area_get_height
 1635 02bc 1F85EB51 		.word	1374389535
 1636              	.LVL165:
 1637              	.L101:
 518:Middlewares/LVGL/GUI/lvgl/src/extra/layouts/flex/lv_flex.c ****         diff_y += f->row ? cross_pos : main_pos;
 1638              		.loc 2 518 37 view .LVU538
 1639 02c0 3A46     		mov	r2, r7
 1640              	.L87:
 518:Middlewares/LVGL/GUI/lvgl/src/extra/layouts/flex/lv_flex.c ****         diff_y += f->row ? cross_pos : main_pos;
 1641              		.loc 2 518 16 discriminator 4 view .LVU539
 1642 02c2 9144     		add	r9, r9, r2
 1643              	.LVL166:
 519:Middlewares/LVGL/GUI/lvgl/src/extra/layouts/flex/lv_flex.c **** 
 1644              		.loc 2 519 9 is_stmt 1 discriminator 4 view .LVU540
 519:Middlewares/LVGL/GUI/lvgl/src/extra/layouts/flex/lv_flex.c **** 
 1645              		.loc 2 519 38 is_stmt 0 discriminator 4 view .LVU541
 1646 02c4 03B9     		cbnz	r3, .L88
 519:Middlewares/LVGL/GUI/lvgl/src/extra/layouts/flex/lv_flex.c **** 
 1647              		.loc 2 519 38 discriminator 2 view .LVU542
 1648 02c6 0D9F     		ldr	r7, [sp, #52]
 1649              	.LVL167:
 1650              	.L88:
 519:Middlewares/LVGL/GUI/lvgl/src/extra/layouts/flex/lv_flex.c **** 
 1651              		.loc 2 519 16 discriminator 4 view .LVU543
 1652 02c8 4744     		add	r7, r7, r8
 1653              	.LVL168:
 521:Middlewares/LVGL/GUI/lvgl/src/extra/layouts/flex/lv_flex.c ****             lv_obj_invalidate(item);
 1654              		.loc 2 521 9 is_stmt 1 discriminator 4 view .LVU544
 521:Middlewares/LVGL/GUI/lvgl/src/extra/layouts/flex/lv_flex.c ****             lv_obj_invalidate(item);
 1655              		.loc 2 521 11 is_stmt 0 discriminator 4 view .LVU545
 1656 02ca B9F1000F 		cmp	r9, #0
 1657 02ce 00D1     		bne	.L89
 521:Middlewares/LVGL/GUI/lvgl/src/extra/layouts/flex/lv_flex.c ****             lv_obj_invalidate(item);
 1658              		.loc 2 521 19 discriminator 1 view .LVU546
 1659 02d0 BFB1     		cbz	r7, .L90
 1660              	.L89:
 522:Middlewares/LVGL/GUI/lvgl/src/extra/layouts/flex/lv_flex.c ****             item->coords.x1 += diff_x;
 1661              		.loc 2 522 13 is_stmt 1 view .LVU547
 1662 02d2 2846     		mov	r0, r5
 1663 02d4 FFF7FEFF 		bl	lv_obj_invalidate
 1664              	.LVL169:
 523:Middlewares/LVGL/GUI/lvgl/src/extra/layouts/flex/lv_flex.c ****             item->coords.x2 += diff_x;
 1665              		.loc 2 523 13 view .LVU548
 523:Middlewares/LVGL/GUI/lvgl/src/extra/layouts/flex/lv_flex.c ****             item->coords.x2 += diff_x;
 1666              		.loc 2 523 29 is_stmt 0 view .LVU549
 1667 02d8 6B69     		ldr	r3, [r5, #20]
 1668 02da 4B44     		add	r3, r3, r9
 1669 02dc 6B61     		str	r3, [r5, #20]
 524:Middlewares/LVGL/GUI/lvgl/src/extra/layouts/flex/lv_flex.c ****             item->coords.y1 += diff_y;
 1670              		.loc 2 524 13 is_stmt 1 view .LVU550
 524:Middlewares/LVGL/GUI/lvgl/src/extra/layouts/flex/lv_flex.c ****             item->coords.y1 += diff_y;
 1671              		.loc 2 524 29 is_stmt 0 view .LVU551
 1672 02de EB69     		ldr	r3, [r5, #28]
ARM GAS  C:\Users\ADMINI~1\AppData\Local\Temp\ccyi9XNv.s 			page 63


 1673 02e0 4B44     		add	r3, r3, r9
 1674 02e2 EB61     		str	r3, [r5, #28]
 525:Middlewares/LVGL/GUI/lvgl/src/extra/layouts/flex/lv_flex.c ****             item->coords.y2 += diff_y;
 1675              		.loc 2 525 13 is_stmt 1 view .LVU552
 525:Middlewares/LVGL/GUI/lvgl/src/extra/layouts/flex/lv_flex.c ****             item->coords.y2 += diff_y;
 1676              		.loc 2 525 29 is_stmt 0 view .LVU553
 1677 02e4 AB69     		ldr	r3, [r5, #24]
 1678 02e6 3B44     		add	r3, r3, r7
 1679 02e8 AB61     		str	r3, [r5, #24]
 526:Middlewares/LVGL/GUI/lvgl/src/extra/layouts/flex/lv_flex.c ****             lv_obj_invalidate(item);
 1680              		.loc 2 526 13 is_stmt 1 view .LVU554
 526:Middlewares/LVGL/GUI/lvgl/src/extra/layouts/flex/lv_flex.c ****             lv_obj_invalidate(item);
 1681              		.loc 2 526 29 is_stmt 0 view .LVU555
 1682 02ea 2B6A     		ldr	r3, [r5, #32]
 1683 02ec 3B44     		add	r3, r3, r7
 1684 02ee 2B62     		str	r3, [r5, #32]
 527:Middlewares/LVGL/GUI/lvgl/src/extra/layouts/flex/lv_flex.c ****             lv_obj_move_children_by(item, diff_x, diff_y, true);
 1685              		.loc 2 527 13 is_stmt 1 view .LVU556
 1686 02f0 2846     		mov	r0, r5
 1687 02f2 FFF7FEFF 		bl	lv_obj_invalidate
 1688              	.LVL170:
 528:Middlewares/LVGL/GUI/lvgl/src/extra/layouts/flex/lv_flex.c ****         }
 1689              		.loc 2 528 13 view .LVU557
 1690 02f6 0123     		movs	r3, #1
 1691 02f8 3A46     		mov	r2, r7
 1692 02fa 4946     		mov	r1, r9
 1693 02fc 2846     		mov	r0, r5
 1694 02fe FFF7FEFF 		bl	lv_obj_move_children_by
 1695              	.LVL171:
 1696              	.L90:
 531:Middlewares/LVGL/GUI/lvgl/src/extra/layouts/flex/lv_flex.c ****         else main_pos -= item_gap + place_gap;
 1697              		.loc 2 531 9 view .LVU558
 531:Middlewares/LVGL/GUI/lvgl/src/extra/layouts/flex/lv_flex.c ****         else main_pos -= item_gap + place_gap;
 1698              		.loc 2 531 14 is_stmt 0 view .LVU559
 1699 0302 F378     		ldrb	r3, [r6, #3]	@ zero_extendqisi2
 531:Middlewares/LVGL/GUI/lvgl/src/extra/layouts/flex/lv_flex.c ****         else main_pos -= item_gap + place_gap;
 1700              		.loc 2 531 11 view .LVU560
 1701 0304 13F0010F 		tst	r3, #1
 1702 0308 02D0     		beq	.L91
 531:Middlewares/LVGL/GUI/lvgl/src/extra/layouts/flex/lv_flex.c ****         else main_pos -= item_gap + place_gap;
 1703              		.loc 2 531 12 discriminator 2 view .LVU561
 1704 030a 039B     		ldr	r3, [sp, #12]
 1705 030c 012B     		cmp	r3, #1
 1706 030e 47D0     		beq	.L92
 1707              	.L91:
 531:Middlewares/LVGL/GUI/lvgl/src/extra/layouts/flex/lv_flex.c ****         else main_pos -= item_gap + place_gap;
 1708              		.loc 2 531 30 is_stmt 1 discriminator 3 view .LVU562
 531:Middlewares/LVGL/GUI/lvgl/src/extra/layouts/flex/lv_flex.c ****         else main_pos -= item_gap + place_gap;
 1709              		.loc 2 531 42 is_stmt 0 discriminator 3 view .LVU563
 1710 0310 05F11400 		add	r0, r5, #20
 1711 0314 029B     		ldr	r3, [sp, #8]
 1712 0316 9847     		blx	r3
 1713              	.LVL172:
 531:Middlewares/LVGL/GUI/lvgl/src/extra/layouts/flex/lv_flex.c ****         else main_pos -= item_gap + place_gap;
 1714              		.loc 2 531 76 discriminator 3 view .LVU564
 1715 0318 1B9B     		ldr	r3, [sp, #108]
 1716 031a C318     		adds	r3, r0, r3
ARM GAS  C:\Users\ADMINI~1\AppData\Local\Temp\ccyi9XNv.s 			page 64


 531:Middlewares/LVGL/GUI/lvgl/src/extra/layouts/flex/lv_flex.c ****         else main_pos -= item_gap + place_gap;
 1717              		.loc 2 531 87 discriminator 3 view .LVU565
 1718 031c 0C9A     		ldr	r2, [sp, #48]
 1719 031e 1344     		add	r3, r3, r2
 531:Middlewares/LVGL/GUI/lvgl/src/extra/layouts/flex/lv_flex.c ****         else main_pos -= item_gap + place_gap;
 1720              		.loc 2 531 39 discriminator 3 view .LVU566
 1721 0320 0D9A     		ldr	r2, [sp, #52]
 1722 0322 1344     		add	r3, r3, r2
 1723 0324 0D93     		str	r3, [sp, #52]
 1724              	.L93:
 534:Middlewares/LVGL/GUI/lvgl/src/extra/layouts/flex/lv_flex.c ****     }
 1725              		.loc 2 534 9 is_stmt 1 view .LVU567
 534:Middlewares/LVGL/GUI/lvgl/src/extra/layouts/flex/lv_flex.c ****     }
 1726              		.loc 2 534 37 is_stmt 0 view .LVU568
 1727 0326 F178     		ldrb	r1, [r6, #3]	@ zero_extendqisi2
 534:Middlewares/LVGL/GUI/lvgl/src/extra/layouts/flex/lv_flex.c ****     }
 1728              		.loc 2 534 16 view .LVU569
 1729 0328 07AA     		add	r2, sp, #28
 1730 032a C1F38001 		ubfx	r1, r1, #2, #1
 1731 032e 5046     		mov	r0, r10
 1732 0330 FFF7FEFF 		bl	get_next_item
 1733              	.LVL173:
 1734 0334 0546     		mov	r5, r0
 1735              	.LVL174:
 1736              	.L69:
 534:Middlewares/LVGL/GUI/lvgl/src/extra/layouts/flex/lv_flex.c ****     }
 1737              		.loc 2 534 16 view .LVU570
 1738              	.LBE89:
 457:Middlewares/LVGL/GUI/lvgl/src/extra/layouts/flex/lv_flex.c ****         if(lv_obj_has_flag_any(item, LV_OBJ_FLAG_IGNORE_LAYOUT | LV_OBJ_FLAG_HIDDEN | LV_OBJ_FLAG_F
 1739              		.loc 2 457 10 is_stmt 1 view .LVU571
 1740 0336 002D     		cmp	r5, #0
 1741 0338 39D0     		beq	.L54
 457:Middlewares/LVGL/GUI/lvgl/src/extra/layouts/flex/lv_flex.c ****         if(lv_obj_has_flag_any(item, LV_OBJ_FLAG_IGNORE_LAYOUT | LV_OBJ_FLAG_HIDDEN | LV_OBJ_FLAG_F
 1742              		.loc 2 457 33 is_stmt 0 discriminator 1 view .LVU572
 1743 033a 079B     		ldr	r3, [sp, #28]
 457:Middlewares/LVGL/GUI/lvgl/src/extra/layouts/flex/lv_flex.c ****         if(lv_obj_has_flag_any(item, LV_OBJ_FLAG_IGNORE_LAYOUT | LV_OBJ_FLAG_HIDDEN | LV_OBJ_FLAG_F
 1744              		.loc 2 457 16 discriminator 1 view .LVU573
 1745 033c 5B45     		cmp	r3, fp
 1746 033e 36D0     		beq	.L54
 1747              	.LBB100:
 458:Middlewares/LVGL/GUI/lvgl/src/extra/layouts/flex/lv_flex.c ****             item = get_next_item(cont, f->rev, &item_first_id);
 1748              		.loc 2 458 9 is_stmt 1 view .LVU574
 458:Middlewares/LVGL/GUI/lvgl/src/extra/layouts/flex/lv_flex.c ****             item = get_next_item(cont, f->rev, &item_first_id);
 1749              		.loc 2 458 12 is_stmt 0 view .LVU575
 1750 0340 1C49     		ldr	r1, .L118
 1751 0342 2846     		mov	r0, r5
 458:Middlewares/LVGL/GUI/lvgl/src/extra/layouts/flex/lv_flex.c ****             item = get_next_item(cont, f->rev, &item_first_id);
 1752              		.loc 2 458 12 view .LVU576
 1753 0344 FFF7FEFF 		bl	lv_obj_has_flag_any
 1754              	.LVL175:
 458:Middlewares/LVGL/GUI/lvgl/src/extra/layouts/flex/lv_flex.c ****             item = get_next_item(cont, f->rev, &item_first_id);
 1755              		.loc 2 458 11 view .LVU577
 1756 0348 0028     		cmp	r0, #0
 1757 034a 7FF4EFAE 		bne	.L114
 462:Middlewares/LVGL/GUI/lvgl/src/extra/layouts/flex/lv_flex.c ****         if(grow_size) {
 1758              		.loc 2 462 9 is_stmt 1 view .LVU578
 1759              	.LVL176:
ARM GAS  C:\Users\ADMINI~1\AppData\Local\Temp\ccyi9XNv.s 			page 65


 1760              	.LBB98:
 1761              	.LBI98:
 136:Middlewares/LVGL/GUI/lvgl/src/extra/layouts/flex/../flex/lv_flex.h **** {
 1762              		.loc 4 136 23 view .LVU579
 1763              	.LBB99:
 138:Middlewares/LVGL/GUI/lvgl/src/extra/layouts/flex/../flex/lv_flex.h ****     return (uint8_t)v.num;
 1764              		.loc 4 138 5 view .LVU580
 138:Middlewares/LVGL/GUI/lvgl/src/extra/layouts/flex/../flex/lv_flex.h ****     return (uint8_t)v.num;
 1765              		.loc 4 138 26 is_stmt 0 view .LVU581
 1766 034e 1A4B     		ldr	r3, .L118+4
 1767 0350 1A88     		ldrh	r2, [r3]
 1768 0352 0021     		movs	r1, #0
 1769 0354 2846     		mov	r0, r5
 1770 0356 FFF7FEFF 		bl	lv_obj_get_style_prop
 1771              	.LVL177:
 1772              		.loc 4 139 5 is_stmt 1 view .LVU582
 1773              		.loc 4 139 5 is_stmt 0 view .LVU583
 1774              	.LBE99:
 1775              	.LBE98:
 463:Middlewares/LVGL/GUI/lvgl/src/extra/layouts/flex/lv_flex.c ****             lv_coord_t s = 0;
 1776              		.loc 2 463 9 is_stmt 1 view .LVU584
 463:Middlewares/LVGL/GUI/lvgl/src/extra/layouts/flex/lv_flex.c ****             lv_coord_t s = 0;
 1777              		.loc 2 463 11 is_stmt 0 view .LVU585
 1778 035a 10F0FF0F 		tst	r0, #255
 1779 035e 7FF4F1AE 		bne	.L115
 487:Middlewares/LVGL/GUI/lvgl/src/extra/layouts/flex/lv_flex.c ****             item->h_layout = 0;
 1780              		.loc 2 487 13 is_stmt 1 view .LVU586
 487:Middlewares/LVGL/GUI/lvgl/src/extra/layouts/flex/lv_flex.c ****             item->h_layout = 0;
 1781              		.loc 2 487 28 is_stmt 0 view .LVU587
 1782 0362 95F82B30 		ldrb	r3, [r5, #43]	@ zero_extendqisi2
 1783 0366 6FF38203 		bfc	r3, #2, #1
 1784 036a 85F82B30 		strb	r3, [r5, #43]
 488:Middlewares/LVGL/GUI/lvgl/src/extra/layouts/flex/lv_flex.c ****         }
 1785              		.loc 2 488 13 is_stmt 1 view .LVU588
 488:Middlewares/LVGL/GUI/lvgl/src/extra/layouts/flex/lv_flex.c ****         }
 1786              		.loc 2 488 28 is_stmt 0 view .LVU589
 1787 036e DBB2     		uxtb	r3, r3
 1788 0370 6FF34103 		bfc	r3, #1, #1
 1789 0374 85F82B30 		strb	r3, [r5, #43]
 1790              	.LVL178:
 1791              	.L79:
 491:Middlewares/LVGL/GUI/lvgl/src/extra/layouts/flex/lv_flex.c ****         switch(f->cross_place) {
 1792              		.loc 2 491 9 is_stmt 1 view .LVU590
 492:Middlewares/LVGL/GUI/lvgl/src/extra/layouts/flex/lv_flex.c ****             case LV_FLEX_ALIGN_CENTER:
 1793              		.loc 2 492 9 view .LVU591
 492:Middlewares/LVGL/GUI/lvgl/src/extra/layouts/flex/lv_flex.c ****             case LV_FLEX_ALIGN_CENTER:
 1794              		.loc 2 492 17 is_stmt 0 view .LVU592
 1795 0378 7378     		ldrb	r3, [r6, #1]	@ zero_extendqisi2
 492:Middlewares/LVGL/GUI/lvgl/src/extra/layouts/flex/lv_flex.c ****             case LV_FLEX_ALIGN_CENTER:
 1796              		.loc 2 492 9 view .LVU593
 1797 037a 012B     		cmp	r3, #1
 1798 037c 3FF42BAF 		beq	.L80
 1799 0380 022B     		cmp	r3, #2
 1800 0382 7FF42FAF 		bne	.L100
 496:Middlewares/LVGL/GUI/lvgl/src/extra/layouts/flex/lv_flex.c ****                 break;
 1801              		.loc 2 496 17 is_stmt 1 view .LVU594
 496:Middlewares/LVGL/GUI/lvgl/src/extra/layouts/flex/lv_flex.c ****                 break;
ARM GAS  C:\Users\ADMINI~1\AppData\Local\Temp\ccyi9XNv.s 			page 66


 1802              		.loc 2 496 33 is_stmt 0 view .LVU595
 1803 0386 2768     		ldr	r7, [r4]
 496:Middlewares/LVGL/GUI/lvgl/src/extra/layouts/flex/lv_flex.c ****                 break;
 1804              		.loc 2 496 52 view .LVU596
 1805 0388 0137     		adds	r7, r7, #1
 496:Middlewares/LVGL/GUI/lvgl/src/extra/layouts/flex/lv_flex.c ****                 break;
 1806              		.loc 2 496 57 view .LVU597
 1807 038a 27F00107 		bic	r7, r7, #1
 496:Middlewares/LVGL/GUI/lvgl/src/extra/layouts/flex/lv_flex.c ****                 break;
 1808              		.loc 2 496 67 view .LVU598
 1809 038e 05F11400 		add	r0, r5, #20
 1810 0392 059B     		ldr	r3, [sp, #20]
 1811 0394 9847     		blx	r3
 1812              	.LVL179:
 496:Middlewares/LVGL/GUI/lvgl/src/extra/layouts/flex/lv_flex.c ****                 break;
 1813              		.loc 2 496 65 view .LVU599
 1814 0396 3F1A     		subs	r7, r7, r0
 496:Middlewares/LVGL/GUI/lvgl/src/extra/layouts/flex/lv_flex.c ****                 break;
 1815              		.loc 2 496 27 view .LVU600
 1816 0398 07EBD777 		add	r7, r7, r7, lsr #31
 1817 039c 7F10     		asrs	r7, r7, #1
 1818              	.LVL180:
 497:Middlewares/LVGL/GUI/lvgl/src/extra/layouts/flex/lv_flex.c ****             case LV_FLEX_ALIGN_END:
 1819              		.loc 2 497 17 is_stmt 1 view .LVU601
 1820 039e 22E7     		b	.L81
 1821              	.LVL181:
 1822              	.L92:
 532:Middlewares/LVGL/GUI/lvgl/src/extra/layouts/flex/lv_flex.c **** 
 1823              		.loc 2 532 14 view .LVU602
 532:Middlewares/LVGL/GUI/lvgl/src/extra/layouts/flex/lv_flex.c **** 
 1824              		.loc 2 532 35 is_stmt 0 view .LVU603
 1825 03a0 0C9B     		ldr	r3, [sp, #48]
 1826 03a2 1B9A     		ldr	r2, [sp, #108]
 1827 03a4 1A44     		add	r2, r2, r3
 532:Middlewares/LVGL/GUI/lvgl/src/extra/layouts/flex/lv_flex.c **** 
 1828              		.loc 2 532 23 view .LVU604
 1829 03a6 0D9B     		ldr	r3, [sp, #52]
 1830 03a8 9B1A     		subs	r3, r3, r2
 1831 03aa 0D93     		str	r3, [sp, #52]
 1832 03ac BBE7     		b	.L93
 1833              	.LVL182:
 1834              	.L54:
 532:Middlewares/LVGL/GUI/lvgl/src/extra/layouts/flex/lv_flex.c **** 
 1835              		.loc 2 532 23 view .LVU605
 1836              	.LBE100:
 536:Middlewares/LVGL/GUI/lvgl/src/extra/layouts/flex/lv_flex.c **** 
 1837              		.loc 2 536 1 view .LVU606
 1838 03ae 0FB0     		add	sp, sp, #60
 1839              	.LCFI9:
 1840              		.cfi_def_cfa_offset 36
 1841              		@ sp needed
 1842 03b0 BDE8F08F 		pop	{r4, r5, r6, r7, r8, r9, r10, fp, pc}
 1843              	.LVL183:
 1844              	.L119:
 536:Middlewares/LVGL/GUI/lvgl/src/extra/layouts/flex/lv_flex.c **** 
 1845              		.loc 2 536 1 view .LVU607
 1846              		.align	2
ARM GAS  C:\Users\ADMINI~1\AppData\Local\Temp\ccyi9XNv.s 			page 67


 1847              	.L118:
 1848 03b4 01000600 		.word	393217
 1849 03b8 00000000 		.word	.LANCHOR0
 1850              		.cfi_endproc
 1851              	.LFE185:
 1853              		.section	.text.flex_update,"ax",%progbits
 1854              		.align	1
 1855              		.syntax unified
 1856              		.thumb
 1857              		.thumb_func
 1859              	flex_update:
 1860              	.LVL184:
 1861              	.LFB183:
 210:Middlewares/LVGL/GUI/lvgl/src/extra/layouts/flex/lv_flex.c ****     LV_LOG_INFO("update %p container", (void *)cont);
 1862              		.loc 2 210 1 is_stmt 1 view -0
 1863              		.cfi_startproc
 1864              		@ args = 0, pretend = 0, frame = 64
 1865              		@ frame_needed = 0, uses_anonymous_args = 0
 210:Middlewares/LVGL/GUI/lvgl/src/extra/layouts/flex/lv_flex.c ****     LV_LOG_INFO("update %p container", (void *)cont);
 1866              		.loc 2 210 1 is_stmt 0 view .LVU609
 1867 0000 2DE9F04F 		push	{r4, r5, r6, r7, r8, r9, r10, fp, lr}
 1868              	.LCFI10:
 1869              		.cfi_def_cfa_offset 36
 1870              		.cfi_offset 4, -36
 1871              		.cfi_offset 5, -32
 1872              		.cfi_offset 6, -28
 1873              		.cfi_offset 7, -24
 1874              		.cfi_offset 8, -20
 1875              		.cfi_offset 9, -16
 1876              		.cfi_offset 10, -12
 1877              		.cfi_offset 11, -8
 1878              		.cfi_offset 14, -4
 1879 0004 97B0     		sub	sp, sp, #92
 1880              	.LCFI11:
 1881              		.cfi_def_cfa_offset 128
 1882 0006 0446     		mov	r4, r0
 211:Middlewares/LVGL/GUI/lvgl/src/extra/layouts/flex/lv_flex.c ****     LV_UNUSED(user_data);
 1883              		.loc 2 211 5 is_stmt 1 view .LVU610
 211:Middlewares/LVGL/GUI/lvgl/src/extra/layouts/flex/lv_flex.c ****     LV_UNUSED(user_data);
 1884              		.loc 2 211 5 view .LVU611
 211:Middlewares/LVGL/GUI/lvgl/src/extra/layouts/flex/lv_flex.c ****     LV_UNUSED(user_data);
 1885              		.loc 2 211 5 view .LVU612
 212:Middlewares/LVGL/GUI/lvgl/src/extra/layouts/flex/lv_flex.c **** 
 1886              		.loc 2 212 5 view .LVU613
 214:Middlewares/LVGL/GUI/lvgl/src/extra/layouts/flex/lv_flex.c ****     lv_flex_flow_t flow = lv_obj_get_style_flex_flow(cont, LV_PART_MAIN);
 1887              		.loc 2 214 5 view .LVU614
 215:Middlewares/LVGL/GUI/lvgl/src/extra/layouts/flex/lv_flex.c ****     f.row = flow & _LV_FLEX_COLUMN ? 0 : 1;
 1888              		.loc 2 215 5 view .LVU615
 1889              	.LVL185:
 1890              	.LBB101:
 1891              	.LBI101:
 112:Middlewares/LVGL/GUI/lvgl/src/extra/layouts/flex/../flex/lv_flex.h **** {
 1892              		.loc 4 112 30 view .LVU616
 1893              	.LBB102:
 114:Middlewares/LVGL/GUI/lvgl/src/extra/layouts/flex/../flex/lv_flex.h ****     return (lv_flex_flow_t)v.num;
 1894              		.loc 4 114 5 view .LVU617
 114:Middlewares/LVGL/GUI/lvgl/src/extra/layouts/flex/../flex/lv_flex.h ****     return (lv_flex_flow_t)v.num;
ARM GAS  C:\Users\ADMINI~1\AppData\Local\Temp\ccyi9XNv.s 			page 68


 1895              		.loc 4 114 26 is_stmt 0 view .LVU618
 1896 0008 A84B     		ldr	r3, .L164
 1897 000a 1A88     		ldrh	r2, [r3]
 1898 000c 0021     		movs	r1, #0
 1899              	.LVL186:
 114:Middlewares/LVGL/GUI/lvgl/src/extra/layouts/flex/../flex/lv_flex.h ****     return (lv_flex_flow_t)v.num;
 1900              		.loc 4 114 26 view .LVU619
 1901 000e FFF7FEFF 		bl	lv_obj_get_style_prop
 1902              	.LVL187:
 115:Middlewares/LVGL/GUI/lvgl/src/extra/layouts/flex/../flex/lv_flex.h **** }
 1903              		.loc 4 115 5 is_stmt 1 view .LVU620
 115:Middlewares/LVGL/GUI/lvgl/src/extra/layouts/flex/../flex/lv_flex.h **** }
 1904              		.loc 4 115 5 is_stmt 0 view .LVU621
 1905              	.LBE102:
 1906              	.LBE101:
 216:Middlewares/LVGL/GUI/lvgl/src/extra/layouts/flex/lv_flex.c ****     f.wrap = flow & _LV_FLEX_WRAP ? 1 : 0;
 1907              		.loc 2 216 5 is_stmt 1 view .LVU622
 216:Middlewares/LVGL/GUI/lvgl/src/extra/layouts/flex/lv_flex.c ****     f.wrap = flow & _LV_FLEX_WRAP ? 1 : 0;
 1908              		.loc 2 216 40 is_stmt 0 view .LVU623
 1909 0012 10F0010F 		tst	r0, #1
 1910 0016 0CBF     		ite	eq
 1911 0018 0122     		moveq	r2, #1
 1912 001a 0022     		movne	r2, #0
 216:Middlewares/LVGL/GUI/lvgl/src/extra/layouts/flex/lv_flex.c ****     f.wrap = flow & _LV_FLEX_WRAP ? 1 : 0;
 1913              		.loc 2 216 11 view .LVU624
 1914 001c 9DF85730 		ldrb	r3, [sp, #87]	@ zero_extendqisi2
 1915 0020 62F30003 		bfi	r3, r2, #0, #1
 1916 0024 8DF85730 		strb	r3, [sp, #87]
 217:Middlewares/LVGL/GUI/lvgl/src/extra/layouts/flex/lv_flex.c ****     f.rev = flow & _LV_FLEX_REVERSE ? 1 : 0;
 1917              		.loc 2 217 5 is_stmt 1 view .LVU625
 217:Middlewares/LVGL/GUI/lvgl/src/extra/layouts/flex/lv_flex.c ****     f.rev = flow & _LV_FLEX_REVERSE ? 1 : 0;
 1918              		.loc 2 217 39 is_stmt 0 view .LVU626
 1919 0028 C0F38002 		ubfx	r2, r0, #2, #1
 217:Middlewares/LVGL/GUI/lvgl/src/extra/layouts/flex/lv_flex.c ****     f.rev = flow & _LV_FLEX_REVERSE ? 1 : 0;
 1920              		.loc 2 217 12 view .LVU627
 1921 002c DBB2     		uxtb	r3, r3
 1922 002e 62F34103 		bfi	r3, r2, #1, #1
 1923 0032 8DF85730 		strb	r3, [sp, #87]
 218:Middlewares/LVGL/GUI/lvgl/src/extra/layouts/flex/lv_flex.c ****     f.main_place = lv_obj_get_style_flex_main_place(cont, LV_PART_MAIN);
 1924              		.loc 2 218 5 is_stmt 1 view .LVU628
 218:Middlewares/LVGL/GUI/lvgl/src/extra/layouts/flex/lv_flex.c ****     f.main_place = lv_obj_get_style_flex_main_place(cont, LV_PART_MAIN);
 1925              		.loc 2 218 41 is_stmt 0 view .LVU629
 1926 0036 C0F3C000 		ubfx	r0, r0, #3, #1
 1927              	.LVL188:
 218:Middlewares/LVGL/GUI/lvgl/src/extra/layouts/flex/lv_flex.c ****     f.main_place = lv_obj_get_style_flex_main_place(cont, LV_PART_MAIN);
 1928              		.loc 2 218 11 view .LVU630
 1929 003a DBB2     		uxtb	r3, r3
 1930 003c 60F38203 		bfi	r3, r0, #2, #1
 1931 0040 8DF85730 		strb	r3, [sp, #87]
 219:Middlewares/LVGL/GUI/lvgl/src/extra/layouts/flex/lv_flex.c ****     f.cross_place = lv_obj_get_style_flex_cross_place(cont, LV_PART_MAIN);
 1932              		.loc 2 219 5 is_stmt 1 view .LVU631
 1933              	.LVL189:
 1934              	.LBB103:
 1935              	.LBI103:
 118:Middlewares/LVGL/GUI/lvgl/src/extra/layouts/flex/../flex/lv_flex.h **** {
 1936              		.loc 4 118 31 view .LVU632
 1937              	.LBB104:
ARM GAS  C:\Users\ADMINI~1\AppData\Local\Temp\ccyi9XNv.s 			page 69


 120:Middlewares/LVGL/GUI/lvgl/src/extra/layouts/flex/../flex/lv_flex.h ****     return (lv_flex_align_t)v.num;
 1938              		.loc 4 120 5 view .LVU633
 120:Middlewares/LVGL/GUI/lvgl/src/extra/layouts/flex/../flex/lv_flex.h ****     return (lv_flex_align_t)v.num;
 1939              		.loc 4 120 26 is_stmt 0 view .LVU634
 1940 0044 9A4B     		ldr	r3, .L164+4
 1941 0046 1A88     		ldrh	r2, [r3]
 1942 0048 0021     		movs	r1, #0
 1943 004a 2046     		mov	r0, r4
 1944 004c FFF7FEFF 		bl	lv_obj_get_style_prop
 1945              	.LVL190:
 121:Middlewares/LVGL/GUI/lvgl/src/extra/layouts/flex/../flex/lv_flex.h **** }
 1946              		.loc 4 121 5 is_stmt 1 view .LVU635
 121:Middlewares/LVGL/GUI/lvgl/src/extra/layouts/flex/../flex/lv_flex.h **** }
 1947              		.loc 4 121 5 is_stmt 0 view .LVU636
 1948              	.LBE104:
 1949              	.LBE103:
 219:Middlewares/LVGL/GUI/lvgl/src/extra/layouts/flex/lv_flex.c ****     f.cross_place = lv_obj_get_style_flex_cross_place(cont, LV_PART_MAIN);
 1950              		.loc 2 219 18 view .LVU637
 1951 0050 8DF85400 		strb	r0, [sp, #84]
 220:Middlewares/LVGL/GUI/lvgl/src/extra/layouts/flex/lv_flex.c ****     f.track_place = lv_obj_get_style_flex_track_place(cont, LV_PART_MAIN);
 1952              		.loc 2 220 5 is_stmt 1 view .LVU638
 1953              	.LVL191:
 1954              	.LBB105:
 1955              	.LBI105:
 124:Middlewares/LVGL/GUI/lvgl/src/extra/layouts/flex/../flex/lv_flex.h **** {
 1956              		.loc 4 124 31 view .LVU639
 1957              	.LBB106:
 126:Middlewares/LVGL/GUI/lvgl/src/extra/layouts/flex/../flex/lv_flex.h ****     return (lv_flex_align_t)v.num;
 1958              		.loc 4 126 5 view .LVU640
 126:Middlewares/LVGL/GUI/lvgl/src/extra/layouts/flex/../flex/lv_flex.h ****     return (lv_flex_align_t)v.num;
 1959              		.loc 4 126 26 is_stmt 0 view .LVU641
 1960 0054 974B     		ldr	r3, .L164+8
 1961 0056 1A88     		ldrh	r2, [r3]
 1962 0058 0021     		movs	r1, #0
 1963 005a 2046     		mov	r0, r4
 1964 005c FFF7FEFF 		bl	lv_obj_get_style_prop
 1965              	.LVL192:
 127:Middlewares/LVGL/GUI/lvgl/src/extra/layouts/flex/../flex/lv_flex.h **** }
 1966              		.loc 4 127 5 is_stmt 1 view .LVU642
 127:Middlewares/LVGL/GUI/lvgl/src/extra/layouts/flex/../flex/lv_flex.h **** }
 1967              		.loc 4 127 5 is_stmt 0 view .LVU643
 1968              	.LBE106:
 1969              	.LBE105:
 220:Middlewares/LVGL/GUI/lvgl/src/extra/layouts/flex/lv_flex.c ****     f.track_place = lv_obj_get_style_flex_track_place(cont, LV_PART_MAIN);
 1970              		.loc 2 220 19 view .LVU644
 1971 0060 8DF85500 		strb	r0, [sp, #85]
 221:Middlewares/LVGL/GUI/lvgl/src/extra/layouts/flex/lv_flex.c **** 
 1972              		.loc 2 221 5 is_stmt 1 view .LVU645
 1973              	.LVL193:
 1974              	.LBB107:
 1975              	.LBI107:
 130:Middlewares/LVGL/GUI/lvgl/src/extra/layouts/flex/../flex/lv_flex.h **** {
 1976              		.loc 4 130 31 view .LVU646
 1977              	.LBB108:
 132:Middlewares/LVGL/GUI/lvgl/src/extra/layouts/flex/../flex/lv_flex.h ****     return (lv_flex_align_t)v.num;
 1978              		.loc 4 132 5 view .LVU647
 132:Middlewares/LVGL/GUI/lvgl/src/extra/layouts/flex/../flex/lv_flex.h ****     return (lv_flex_align_t)v.num;
ARM GAS  C:\Users\ADMINI~1\AppData\Local\Temp\ccyi9XNv.s 			page 70


 1979              		.loc 4 132 26 is_stmt 0 view .LVU648
 1980 0064 944B     		ldr	r3, .L164+12
 1981 0066 1A88     		ldrh	r2, [r3]
 1982 0068 0021     		movs	r1, #0
 1983 006a 2046     		mov	r0, r4
 1984 006c FFF7FEFF 		bl	lv_obj_get_style_prop
 1985              	.LVL194:
 133:Middlewares/LVGL/GUI/lvgl/src/extra/layouts/flex/../flex/lv_flex.h **** }
 1986              		.loc 4 133 5 is_stmt 1 view .LVU649
 133:Middlewares/LVGL/GUI/lvgl/src/extra/layouts/flex/../flex/lv_flex.h **** }
 1987              		.loc 4 133 5 is_stmt 0 view .LVU650
 1988              	.LBE108:
 1989              	.LBE107:
 221:Middlewares/LVGL/GUI/lvgl/src/extra/layouts/flex/lv_flex.c **** 
 1990              		.loc 2 221 19 view .LVU651
 1991 0070 8DF85600 		strb	r0, [sp, #86]
 223:Middlewares/LVGL/GUI/lvgl/src/extra/layouts/flex/lv_flex.c ****     lv_coord_t track_gap = !f.row ? lv_obj_get_style_pad_column(cont, LV_PART_MAIN) : lv_obj_get_st
 1992              		.loc 2 223 5 is_stmt 1 view .LVU652
 1993              	.LVL195:
 1994              	.LBB109:
 1995              	.LBI109:
 542:Middlewares/LVGL/GUI/lvgl/src/extra/layouts/flex/../flex/../../../core/lv_obj_style_gen.h **** {
 1996              		.loc 3 542 29 view .LVU653
 1997              	.LBB110:
 544:Middlewares/LVGL/GUI/lvgl/src/extra/layouts/flex/../flex/../../../core/lv_obj_style_gen.h ****     return (lv_base_dir_t)v.num;
 1998              		.loc 3 544 5 view .LVU654
 544:Middlewares/LVGL/GUI/lvgl/src/extra/layouts/flex/../flex/../../../core/lv_obj_style_gen.h ****     return (lv_base_dir_t)v.num;
 1999              		.loc 3 544 26 is_stmt 0 view .LVU655
 2000 0074 41F26A42 		movw	r2, #5226
 2001 0078 0021     		movs	r1, #0
 2002 007a 2046     		mov	r0, r4
 2003 007c FFF7FEFF 		bl	lv_obj_get_style_prop
 2004              	.LVL196:
 2005              		.loc 3 545 5 is_stmt 1 view .LVU656
 2006              		.loc 3 545 12 is_stmt 0 view .LVU657
 2007 0080 C7B2     		uxtb	r7, r0
 2008              	.LVL197:
 2009              		.loc 3 545 12 view .LVU658
 2010              	.LBE110:
 2011              	.LBE109:
 224:Middlewares/LVGL/GUI/lvgl/src/extra/layouts/flex/lv_flex.c ****                                                                                                    
 2012              		.loc 2 224 5 is_stmt 1 view .LVU659
 224:Middlewares/LVGL/GUI/lvgl/src/extra/layouts/flex/lv_flex.c ****                                                                                                    
 2013              		.loc 2 224 28 is_stmt 0 view .LVU660
 2014 0082 9DF85730 		ldrb	r3, [sp, #87]	@ zero_extendqisi2
 224:Middlewares/LVGL/GUI/lvgl/src/extra/layouts/flex/lv_flex.c ****                                                                                                    
 2015              		.loc 2 224 85 view .LVU661
 2016 0086 13F0010F 		tst	r3, #1
 2017 008a 7AD1     		bne	.L121
 2018              	.LVL198:
 2019              	.LBB111:
 2020              	.LBI111:
 121:Middlewares/LVGL/GUI/lvgl/src/extra/layouts/flex/../flex/../../../core/lv_obj_style_gen.h **** {
 2021              		.loc 3 121 26 is_stmt 1 view .LVU662
 2022              	.LBB112:
 123:Middlewares/LVGL/GUI/lvgl/src/extra/layouts/flex/../flex/../../../core/lv_obj_style_gen.h ****     return (lv_coord_t)v.num;
 2023              		.loc 3 123 5 view .LVU663
ARM GAS  C:\Users\ADMINI~1\AppData\Local\Temp\ccyi9XNv.s 			page 71


 123:Middlewares/LVGL/GUI/lvgl/src/extra/layouts/flex/../flex/../../../core/lv_obj_style_gen.h ****     return (lv_coord_t)v.num;
 2024              		.loc 3 123 26 is_stmt 0 view .LVU664
 2025 008c 41F61502 		movw	r2, #6165
 2026 0090 0021     		movs	r1, #0
 2027 0092 2046     		mov	r0, r4
 2028 0094 FFF7FEFF 		bl	lv_obj_get_style_prop
 2029              	.LVL199:
 2030 0098 8146     		mov	r9, r0
 124:Middlewares/LVGL/GUI/lvgl/src/extra/layouts/flex/../flex/../../../core/lv_obj_style_gen.h **** }
 2031              		.loc 3 124 5 is_stmt 1 view .LVU665
 2032              	.LVL200:
 2033              	.L122:
 124:Middlewares/LVGL/GUI/lvgl/src/extra/layouts/flex/../flex/../../../core/lv_obj_style_gen.h **** }
 2034              		.loc 3 124 5 is_stmt 0 view .LVU666
 2035              	.LBE112:
 2036              	.LBE111:
 226:Middlewares/LVGL/GUI/lvgl/src/extra/layouts/flex/lv_flex.c ****                                                                                                    
 2037              		.loc 2 226 5 is_stmt 1 discriminator 4 view .LVU667
 226:Middlewares/LVGL/GUI/lvgl/src/extra/layouts/flex/lv_flex.c ****                                                                                                    
 2038              		.loc 2 226 33 is_stmt 0 discriminator 4 view .LVU668
 2039 009a 9DF85730 		ldrb	r3, [sp, #87]	@ zero_extendqisi2
 226:Middlewares/LVGL/GUI/lvgl/src/extra/layouts/flex/lv_flex.c ****                                                                                                    
 2040              		.loc 2 226 83 discriminator 4 view .LVU669
 2041 009e 13F0010F 		tst	r3, #1
 2042 00a2 76D0     		beq	.L123
 2043              	.LVL201:
 2044              	.LBB113:
 2045              	.LBI113:
 121:Middlewares/LVGL/GUI/lvgl/src/extra/layouts/flex/../flex/../../../core/lv_obj_style_gen.h **** {
 2046              		.loc 3 121 26 is_stmt 1 view .LVU670
 2047              	.LBB114:
 123:Middlewares/LVGL/GUI/lvgl/src/extra/layouts/flex/../flex/../../../core/lv_obj_style_gen.h ****     return (lv_coord_t)v.num;
 2048              		.loc 3 123 5 view .LVU671
 123:Middlewares/LVGL/GUI/lvgl/src/extra/layouts/flex/../flex/../../../core/lv_obj_style_gen.h ****     return (lv_coord_t)v.num;
 2049              		.loc 3 123 26 is_stmt 0 view .LVU672
 2050 00a4 41F61502 		movw	r2, #6165
 2051 00a8 0021     		movs	r1, #0
 2052 00aa 2046     		mov	r0, r4
 2053 00ac FFF7FEFF 		bl	lv_obj_get_style_prop
 2054              	.LVL202:
 2055 00b0 0546     		mov	r5, r0
 124:Middlewares/LVGL/GUI/lvgl/src/extra/layouts/flex/../flex/../../../core/lv_obj_style_gen.h **** }
 2056              		.loc 3 124 5 is_stmt 1 view .LVU673
 2057              	.LVL203:
 2058              	.L124:
 124:Middlewares/LVGL/GUI/lvgl/src/extra/layouts/flex/../flex/../../../core/lv_obj_style_gen.h **** }
 2059              		.loc 3 124 5 is_stmt 0 view .LVU674
 2060              	.LBE114:
 2061              	.LBE113:
 228:Middlewares/LVGL/GUI/lvgl/src/extra/layouts/flex/lv_flex.c ****     lv_coord_t border_width = lv_obj_get_style_border_width(cont, LV_PART_MAIN);
 2062              		.loc 2 228 5 is_stmt 1 discriminator 4 view .LVU675
 228:Middlewares/LVGL/GUI/lvgl/src/extra/layouts/flex/lv_flex.c ****     lv_coord_t border_width = lv_obj_get_style_border_width(cont, LV_PART_MAIN);
 2063              		.loc 2 228 39 is_stmt 0 discriminator 4 view .LVU676
 2064 00b2 9DF85730 		ldrb	r3, [sp, #87]	@ zero_extendqisi2
 228:Middlewares/LVGL/GUI/lvgl/src/extra/layouts/flex/lv_flex.c ****     lv_coord_t border_width = lv_obj_get_style_border_width(cont, LV_PART_MAIN);
 2065              		.loc 2 228 72 discriminator 4 view .LVU677
 2066 00b6 13F0010F 		tst	r3, #1
ARM GAS  C:\Users\ADMINI~1\AppData\Local\Temp\ccyi9XNv.s 			page 72


 2067 00ba 72D0     		beq	.L125
 228:Middlewares/LVGL/GUI/lvgl/src/extra/layouts/flex/lv_flex.c ****     lv_coord_t border_width = lv_obj_get_style_border_width(cont, LV_PART_MAIN);
 2068              		.loc 2 228 41 discriminator 1 view .LVU678
 2069 00bc 2046     		mov	r0, r4
 2070 00be FFF7FEFF 		bl	lv_obj_get_content_width
 2071              	.LVL204:
 2072 00c2 0646     		mov	r6, r0
 2073              	.L126:
 2074              	.LVL205:
 229:Middlewares/LVGL/GUI/lvgl/src/extra/layouts/flex/lv_flex.c ****     lv_coord_t abs_y = cont->coords.y1 + lv_obj_get_style_pad_top(cont,
 2075              		.loc 2 229 5 is_stmt 1 discriminator 4 view .LVU679
 2076              	.LBB115:
 2077              	.LBI115:
 241:Middlewares/LVGL/GUI/lvgl/src/extra/layouts/flex/../flex/../../../core/lv_obj_style_gen.h **** {
 2078              		.loc 3 241 26 discriminator 4 view .LVU680
 2079              	.LBB116:
 243:Middlewares/LVGL/GUI/lvgl/src/extra/layouts/flex/../flex/../../../core/lv_obj_style_gen.h ****     return (lv_coord_t)v.num;
 2080              		.loc 3 243 5 discriminator 4 view .LVU681
 243:Middlewares/LVGL/GUI/lvgl/src/extra/layouts/flex/../flex/../../../core/lv_obj_style_gen.h ****     return (lv_coord_t)v.num;
 2081              		.loc 3 243 26 is_stmt 0 discriminator 4 view .LVU682
 2082 00c4 41F23202 		movw	r2, #4146
 2083 00c8 0021     		movs	r1, #0
 2084 00ca 2046     		mov	r0, r4
 2085 00cc FFF7FEFF 		bl	lv_obj_get_style_prop
 2086              	.LVL206:
 2087 00d0 8046     		mov	r8, r0
 2088              	.LVL207:
 244:Middlewares/LVGL/GUI/lvgl/src/extra/layouts/flex/../flex/../../../core/lv_obj_style_gen.h **** }
 2089              		.loc 3 244 5 is_stmt 1 discriminator 4 view .LVU683
 244:Middlewares/LVGL/GUI/lvgl/src/extra/layouts/flex/../flex/../../../core/lv_obj_style_gen.h **** }
 2090              		.loc 3 244 5 is_stmt 0 discriminator 4 view .LVU684
 2091              	.LBE116:
 2092              	.LBE115:
 230:Middlewares/LVGL/GUI/lvgl/src/extra/layouts/flex/lv_flex.c ****                                                                   LV_PART_MAIN) + border_width - lv
 2093              		.loc 2 230 5 is_stmt 1 discriminator 4 view .LVU685
 230:Middlewares/LVGL/GUI/lvgl/src/extra/layouts/flex/lv_flex.c ****                                                                   LV_PART_MAIN) + border_width - lv
 2094              		.loc 2 230 36 is_stmt 0 discriminator 4 view .LVU686
 2095 00d2 D4F818A0 		ldr	r10, [r4, #24]
 2096              	.LVL208:
 2097              	.LBB117:
 2098              	.LBI117:
  91:Middlewares/LVGL/GUI/lvgl/src/extra/layouts/flex/../flex/../../../core/lv_obj_style_gen.h **** {
 2099              		.loc 3 91 26 is_stmt 1 discriminator 4 view .LVU687
 2100              	.LBB118:
  93:Middlewares/LVGL/GUI/lvgl/src/extra/layouts/flex/../flex/../../../core/lv_obj_style_gen.h ****     return (lv_coord_t)v.num;
 2101              		.loc 3 93 5 discriminator 4 view .LVU688
  93:Middlewares/LVGL/GUI/lvgl/src/extra/layouts/flex/../flex/../../../core/lv_obj_style_gen.h ****     return (lv_coord_t)v.num;
 2102              		.loc 3 93 26 is_stmt 0 discriminator 4 view .LVU689
 2103 00d6 41F61002 		movw	r2, #6160
 2104 00da 0021     		movs	r1, #0
 2105 00dc 2046     		mov	r0, r4
 2106              	.LVL209:
  93:Middlewares/LVGL/GUI/lvgl/src/extra/layouts/flex/../flex/../../../core/lv_obj_style_gen.h ****     return (lv_coord_t)v.num;
 2107              		.loc 3 93 26 discriminator 4 view .LVU690
 2108 00de FFF7FEFF 		bl	lv_obj_get_style_prop
 2109              	.LVL210:
  94:Middlewares/LVGL/GUI/lvgl/src/extra/layouts/flex/../flex/../../../core/lv_obj_style_gen.h **** }
ARM GAS  C:\Users\ADMINI~1\AppData\Local\Temp\ccyi9XNv.s 			page 73


 2110              		.loc 3 94 5 is_stmt 1 discriminator 4 view .LVU691
  94:Middlewares/LVGL/GUI/lvgl/src/extra/layouts/flex/../flex/../../../core/lv_obj_style_gen.h **** }
 2111              		.loc 3 94 5 is_stmt 0 discriminator 4 view .LVU692
 2112              	.LBE118:
 2113              	.LBE117:
 230:Middlewares/LVGL/GUI/lvgl/src/extra/layouts/flex/lv_flex.c ****                                                                   LV_PART_MAIN) + border_width - lv
 2114              		.loc 2 230 40 discriminator 4 view .LVU693
 2115 00e2 8244     		add	r10, r10, r0
 231:Middlewares/LVGL/GUI/lvgl/src/extra/layouts/flex/lv_flex.c ****     lv_coord_t abs_x = cont->coords.x1 + lv_obj_get_style_pad_left(cont,
 2116              		.loc 2 231 81 discriminator 4 view .LVU694
 2117 00e4 C244     		add	r10, r10, r8
 231:Middlewares/LVGL/GUI/lvgl/src/extra/layouts/flex/lv_flex.c ****     lv_coord_t abs_x = cont->coords.x1 + lv_obj_get_style_pad_left(cont,
 2118              		.loc 2 231 98 discriminator 4 view .LVU695
 2119 00e6 2046     		mov	r0, r4
 2120 00e8 FFF7FEFF 		bl	lv_obj_get_scroll_y
 2121              	.LVL211:
 231:Middlewares/LVGL/GUI/lvgl/src/extra/layouts/flex/lv_flex.c ****     lv_coord_t abs_x = cont->coords.x1 + lv_obj_get_style_pad_left(cont,
 2122              		.loc 2 231 96 discriminator 4 view .LVU696
 2123 00ec AAEB0000 		sub	r0, r10, r0
 230:Middlewares/LVGL/GUI/lvgl/src/extra/layouts/flex/lv_flex.c ****                                                                   LV_PART_MAIN) + border_width - lv
 2124              		.loc 2 230 16 discriminator 4 view .LVU697
 2125 00f0 1490     		str	r0, [sp, #80]
 232:Middlewares/LVGL/GUI/lvgl/src/extra/layouts/flex/lv_flex.c ****                                                                    LV_PART_MAIN) + border_width - l
 2126              		.loc 2 232 5 is_stmt 1 discriminator 4 view .LVU698
 232:Middlewares/LVGL/GUI/lvgl/src/extra/layouts/flex/lv_flex.c ****                                                                    LV_PART_MAIN) + border_width - l
 2127              		.loc 2 232 36 is_stmt 0 discriminator 4 view .LVU699
 2128 00f2 D4F814A0 		ldr	r10, [r4, #20]
 2129              	.LVL212:
 2130              	.LBB119:
 2131              	.LBI119:
 103:Middlewares/LVGL/GUI/lvgl/src/extra/layouts/flex/../flex/../../../core/lv_obj_style_gen.h **** {
 2132              		.loc 3 103 26 is_stmt 1 discriminator 4 view .LVU700
 2133              	.LBB120:
 105:Middlewares/LVGL/GUI/lvgl/src/extra/layouts/flex/../flex/../../../core/lv_obj_style_gen.h ****     return (lv_coord_t)v.num;
 2134              		.loc 3 105 5 discriminator 4 view .LVU701
 105:Middlewares/LVGL/GUI/lvgl/src/extra/layouts/flex/../flex/../../../core/lv_obj_style_gen.h ****     return (lv_coord_t)v.num;
 2135              		.loc 3 105 26 is_stmt 0 discriminator 4 view .LVU702
 2136 00f6 41F61202 		movw	r2, #6162
 2137 00fa 0021     		movs	r1, #0
 2138 00fc 2046     		mov	r0, r4
 2139 00fe FFF7FEFF 		bl	lv_obj_get_style_prop
 2140              	.LVL213:
 106:Middlewares/LVGL/GUI/lvgl/src/extra/layouts/flex/../flex/../../../core/lv_obj_style_gen.h **** }
 2141              		.loc 3 106 5 is_stmt 1 discriminator 4 view .LVU703
 106:Middlewares/LVGL/GUI/lvgl/src/extra/layouts/flex/../flex/../../../core/lv_obj_style_gen.h **** }
 2142              		.loc 3 106 5 is_stmt 0 discriminator 4 view .LVU704
 2143              	.LBE120:
 2144              	.LBE119:
 232:Middlewares/LVGL/GUI/lvgl/src/extra/layouts/flex/lv_flex.c ****                                                                    LV_PART_MAIN) + border_width - l
 2145              		.loc 2 232 40 discriminator 4 view .LVU705
 2146 0102 8244     		add	r10, r10, r0
 233:Middlewares/LVGL/GUI/lvgl/src/extra/layouts/flex/lv_flex.c **** 
 2147              		.loc 2 233 82 discriminator 4 view .LVU706
 2148 0104 D044     		add	r8, r8, r10
 2149              	.LVL214:
 233:Middlewares/LVGL/GUI/lvgl/src/extra/layouts/flex/lv_flex.c **** 
 2150              		.loc 2 233 99 discriminator 4 view .LVU707
ARM GAS  C:\Users\ADMINI~1\AppData\Local\Temp\ccyi9XNv.s 			page 74


 2151 0106 2046     		mov	r0, r4
 2152 0108 FFF7FEFF 		bl	lv_obj_get_scroll_x
 2153              	.LVL215:
 233:Middlewares/LVGL/GUI/lvgl/src/extra/layouts/flex/lv_flex.c **** 
 2154              		.loc 2 233 97 discriminator 4 view .LVU708
 2155 010c A8EB0000 		sub	r0, r8, r0
 232:Middlewares/LVGL/GUI/lvgl/src/extra/layouts/flex/lv_flex.c ****                                                                    LV_PART_MAIN) + border_width - l
 2156              		.loc 2 232 16 discriminator 4 view .LVU709
 2157 0110 1390     		str	r0, [sp, #76]
 235:Middlewares/LVGL/GUI/lvgl/src/extra/layouts/flex/lv_flex.c ****     lv_coord_t * cross_pos = (f.row ? &abs_y : &abs_x);
 2158              		.loc 2 235 5 is_stmt 1 discriminator 4 view .LVU710
 235:Middlewares/LVGL/GUI/lvgl/src/extra/layouts/flex/lv_flex.c ****     lv_coord_t * cross_pos = (f.row ? &abs_y : &abs_x);
 2159              		.loc 2 235 21 is_stmt 0 discriminator 4 view .LVU711
 2160 0112 9DF85630 		ldrb	r3, [sp, #86]	@ zero_extendqisi2
 2161 0116 0793     		str	r3, [sp, #28]
 2162              	.LVL216:
 236:Middlewares/LVGL/GUI/lvgl/src/extra/layouts/flex/lv_flex.c **** 
 2163              		.loc 2 236 5 is_stmt 1 discriminator 4 view .LVU712
 236:Middlewares/LVGL/GUI/lvgl/src/extra/layouts/flex/lv_flex.c **** 
 2164              		.loc 2 236 37 is_stmt 0 discriminator 4 view .LVU713
 2165 0118 9DF85730 		ldrb	r3, [sp, #87]	@ zero_extendqisi2
 236:Middlewares/LVGL/GUI/lvgl/src/extra/layouts/flex/lv_flex.c **** 
 2166              		.loc 2 236 46 discriminator 4 view .LVU714
 2167 011c 13F0010F 		tst	r3, #1
 2168 0120 44D0     		beq	.L151
 236:Middlewares/LVGL/GUI/lvgl/src/extra/layouts/flex/lv_flex.c **** 
 2169              		.loc 2 236 46 view .LVU715
 2170 0122 0DF15008 		add	r8, sp, #80
 2171              	.L127:
 2172              	.LVL217:
 238:Middlewares/LVGL/GUI/lvgl/src/extra/layouts/flex/lv_flex.c ****     lv_coord_t h_set = lv_obj_get_style_height(cont, LV_PART_MAIN);
 2173              		.loc 2 238 5 is_stmt 1 discriminator 4 view .LVU716
 2174              	.LBB121:
 2175              	.LBI121:
   1:Middlewares/LVGL/GUI/lvgl/src/extra/layouts/flex/../flex/../../../core/lv_obj_style_gen.h **** {
 2176              		.loc 3 1 26 discriminator 4 view .LVU717
 2177              	.LBB122:
   3:Middlewares/LVGL/GUI/lvgl/src/extra/layouts/flex/../flex/../../../core/lv_obj_style_gen.h ****     return (lv_coord_t)v.num;
 2178              		.loc 3 3 5 discriminator 4 view .LVU718
   3:Middlewares/LVGL/GUI/lvgl/src/extra/layouts/flex/../flex/../../../core/lv_obj_style_gen.h ****     return (lv_coord_t)v.num;
 2179              		.loc 3 3 26 is_stmt 0 discriminator 4 view .LVU719
 2180 0126 41F20102 		movw	r2, #4097
 2181 012a 0021     		movs	r1, #0
 2182 012c 2046     		mov	r0, r4
 2183 012e FFF7FEFF 		bl	lv_obj_get_style_prop
 2184              	.LVL218:
 2185 0132 0890     		str	r0, [sp, #32]
   4:Middlewares/LVGL/GUI/lvgl/src/extra/layouts/flex/../flex/../../../core/lv_obj_style_gen.h **** }
 2186              		.loc 3 4 5 is_stmt 1 discriminator 4 view .LVU720
 2187              	.LVL219:
   4:Middlewares/LVGL/GUI/lvgl/src/extra/layouts/flex/../flex/../../../core/lv_obj_style_gen.h **** }
 2188              		.loc 3 4 5 is_stmt 0 discriminator 4 view .LVU721
 2189              	.LBE122:
 2190              	.LBE121:
 239:Middlewares/LVGL/GUI/lvgl/src/extra/layouts/flex/lv_flex.c **** 
 2191              		.loc 2 239 5 is_stmt 1 discriminator 4 view .LVU722
 2192              	.LBB123:
ARM GAS  C:\Users\ADMINI~1\AppData\Local\Temp\ccyi9XNv.s 			page 75


 2193              	.LBI123:
  19:Middlewares/LVGL/GUI/lvgl/src/extra/layouts/flex/../flex/../../../core/lv_obj_style_gen.h **** {
 2194              		.loc 3 19 26 discriminator 4 view .LVU723
 2195              	.LBB124:
  21:Middlewares/LVGL/GUI/lvgl/src/extra/layouts/flex/../flex/../../../core/lv_obj_style_gen.h ****     return (lv_coord_t)v.num;
 2196              		.loc 3 21 5 discriminator 4 view .LVU724
  21:Middlewares/LVGL/GUI/lvgl/src/extra/layouts/flex/../flex/../../../core/lv_obj_style_gen.h ****     return (lv_coord_t)v.num;
 2197              		.loc 3 21 26 is_stmt 0 discriminator 4 view .LVU725
 2198 0134 41F20402 		movw	r2, #4100
 2199 0138 0021     		movs	r1, #0
 2200 013a 2046     		mov	r0, r4
 2201              	.LVL220:
  21:Middlewares/LVGL/GUI/lvgl/src/extra/layouts/flex/../flex/../../../core/lv_obj_style_gen.h ****     return (lv_coord_t)v.num;
 2202              		.loc 3 21 26 discriminator 4 view .LVU726
 2203 013c FFF7FEFF 		bl	lv_obj_get_style_prop
 2204              	.LVL221:
 2205 0140 0990     		str	r0, [sp, #36]
  22:Middlewares/LVGL/GUI/lvgl/src/extra/layouts/flex/../flex/../../../core/lv_obj_style_gen.h **** }
 2206              		.loc 3 22 5 is_stmt 1 discriminator 4 view .LVU727
 2207              	.LVL222:
  22:Middlewares/LVGL/GUI/lvgl/src/extra/layouts/flex/../flex/../../../core/lv_obj_style_gen.h **** }
 2208              		.loc 3 22 5 is_stmt 0 discriminator 4 view .LVU728
 2209              	.LBE124:
 2210              	.LBE123:
 242:Middlewares/LVGL/GUI/lvgl/src/extra/layouts/flex/lv_flex.c ****        (!f.row && w_set == LV_SIZE_CONTENT && cont->w_layout == 0)) {
 2211              		.loc 2 242 5 is_stmt 1 discriminator 4 view .LVU729
 242:Middlewares/LVGL/GUI/lvgl/src/extra/layouts/flex/lv_flex.c ****        (!f.row && w_set == LV_SIZE_CONTENT && cont->w_layout == 0)) {
 2212              		.loc 2 242 9 is_stmt 0 discriminator 4 view .LVU730
 2213 0142 9DF85730 		ldrb	r3, [sp, #87]	@ zero_extendqisi2
 242:Middlewares/LVGL/GUI/lvgl/src/extra/layouts/flex/lv_flex.c ****        (!f.row && w_set == LV_SIZE_CONTENT && cont->w_layout == 0)) {
 2214              		.loc 2 242 7 discriminator 4 view .LVU731
 2215 0146 13F00102 		ands	r2, r3, #1
 2216 014a 02D0     		beq	.L128
 242:Middlewares/LVGL/GUI/lvgl/src/extra/layouts/flex/lv_flex.c ****        (!f.row && w_set == LV_SIZE_CONTENT && cont->w_layout == 0)) {
 2217              		.loc 2 242 15 discriminator 1 view .LVU732
 2218 014c 5B49     		ldr	r1, .L164+16
 2219 014e 8842     		cmp	r0, r1
 2220 0150 2FD0     		beq	.L160
 2221              	.L128:
 242:Middlewares/LVGL/GUI/lvgl/src/extra/layouts/flex/lv_flex.c ****        (!f.row && w_set == LV_SIZE_CONTENT && cont->w_layout == 0)) {
 2222              		.loc 2 242 67 discriminator 5 view .LVU733
 2223 0152 1AB9     		cbnz	r2, .L129
 243:Middlewares/LVGL/GUI/lvgl/src/extra/layouts/flex/lv_flex.c ****         track_cross_place = LV_FLEX_ALIGN_START;
 2224              		.loc 2 243 16 view .LVU734
 2225 0154 5949     		ldr	r1, .L164+16
 2226 0156 0898     		ldr	r0, [sp, #32]
 2227              	.LVL223:
 243:Middlewares/LVGL/GUI/lvgl/src/extra/layouts/flex/lv_flex.c ****         track_cross_place = LV_FLEX_ALIGN_START;
 2228              		.loc 2 243 16 view .LVU735
 2229 0158 8842     		cmp	r0, r1
 2230 015a 32D0     		beq	.L161
 2231              	.LVL224:
 2232              	.L129:
 247:Middlewares/LVGL/GUI/lvgl/src/extra/layouts/flex/lv_flex.c ****         if(track_cross_place == LV_FLEX_ALIGN_START) track_cross_place = LV_FLEX_ALIGN_END;
 2233              		.loc 2 247 5 is_stmt 1 view .LVU736
 247:Middlewares/LVGL/GUI/lvgl/src/extra/layouts/flex/lv_flex.c ****         if(track_cross_place == LV_FLEX_ALIGN_START) track_cross_place = LV_FLEX_ALIGN_END;
 2234              		.loc 2 247 7 is_stmt 0 view .LVU737
ARM GAS  C:\Users\ADMINI~1\AppData\Local\Temp\ccyi9XNv.s 			page 76


 2235 015c 012F     		cmp	r7, #1
 2236 015e 38D0     		beq	.L162
 2237              	.L130:
 252:Middlewares/LVGL/GUI/lvgl/src/extra/layouts/flex/lv_flex.c ****     lv_coord_t gap = 0;
 2238              		.loc 2 252 5 is_stmt 1 view .LVU738
 2239              	.LVL225:
 253:Middlewares/LVGL/GUI/lvgl/src/extra/layouts/flex/lv_flex.c ****     uint32_t track_cnt = 0;
 2240              		.loc 2 253 5 view .LVU739
 253:Middlewares/LVGL/GUI/lvgl/src/extra/layouts/flex/lv_flex.c ****     uint32_t track_cnt = 0;
 2241              		.loc 2 253 16 is_stmt 0 view .LVU740
 2242 0160 0022     		movs	r2, #0
 2243 0162 1292     		str	r2, [sp, #72]
 254:Middlewares/LVGL/GUI/lvgl/src/extra/layouts/flex/lv_flex.c ****     int32_t track_first_item;
 2244              		.loc 2 254 5 is_stmt 1 view .LVU741
 2245              	.LVL226:
 255:Middlewares/LVGL/GUI/lvgl/src/extra/layouts/flex/lv_flex.c ****     int32_t next_track_first_item;
 2246              		.loc 2 255 5 view .LVU742
 256:Middlewares/LVGL/GUI/lvgl/src/extra/layouts/flex/lv_flex.c **** 
 2247              		.loc 2 256 5 view .LVU743
 258:Middlewares/LVGL/GUI/lvgl/src/extra/layouts/flex/lv_flex.c ****         track_first_item = f.rev ? cont->spec_attr->child_cnt - 1 : 0;
 2248              		.loc 2 258 5 view .LVU744
 258:Middlewares/LVGL/GUI/lvgl/src/extra/layouts/flex/lv_flex.c ****         track_first_item = f.rev ? cont->spec_attr->child_cnt - 1 : 0;
 2249              		.loc 2 258 7 is_stmt 0 view .LVU745
 2250 0164 079A     		ldr	r2, [sp, #28]
 2251 0166 002A     		cmp	r2, #0
 2252 0168 00F08D80 		beq	.L154
 2253              	.LVL227:
 2254              	.L132:
 2255              	.LBB125:
 259:Middlewares/LVGL/GUI/lvgl/src/extra/layouts/flex/lv_flex.c ****         track_t t;
 2256              		.loc 2 259 9 is_stmt 1 view .LVU746
 259:Middlewares/LVGL/GUI/lvgl/src/extra/layouts/flex/lv_flex.c ****         track_t t;
 2257              		.loc 2 259 67 is_stmt 0 view .LVU747
 2258 016c 13F0040F 		tst	r3, #4
 2259 0170 00F08280 		beq	.L155
 259:Middlewares/LVGL/GUI/lvgl/src/extra/layouts/flex/lv_flex.c ****         track_t t;
 2260              		.loc 2 259 40 discriminator 1 view .LVU748
 2261 0174 A368     		ldr	r3, [r4, #8]
 259:Middlewares/LVGL/GUI/lvgl/src/extra/layouts/flex/lv_flex.c ****         track_t t;
 2262              		.loc 2 259 51 discriminator 1 view .LVU749
 2263 0176 5A68     		ldr	r2, [r3, #4]
 259:Middlewares/LVGL/GUI/lvgl/src/extra/layouts/flex/lv_flex.c ****         track_t t;
 2264              		.loc 2 259 63 discriminator 1 view .LVU750
 2265 0178 013A     		subs	r2, r2, #1
 2266              	.L134:
 259:Middlewares/LVGL/GUI/lvgl/src/extra/layouts/flex/lv_flex.c ****         track_t t;
 2267              		.loc 2 259 67 view .LVU751
 2268 017a 4FF0000B 		mov	fp, #0
 2269 017e DA46     		mov	r10, fp
 2270 0180 49E0     		b	.L135
 2271              	.LVL228:
 2272              	.L121:
 259:Middlewares/LVGL/GUI/lvgl/src/extra/layouts/flex/lv_flex.c ****         track_t t;
 2273              		.loc 2 259 67 view .LVU752
 2274              	.LBE125:
 2275              	.LBB126:
 2276              	.LBI126:
ARM GAS  C:\Users\ADMINI~1\AppData\Local\Temp\ccyi9XNv.s 			page 77


 115:Middlewares/LVGL/GUI/lvgl/src/extra/layouts/flex/../flex/../../../core/lv_obj_style_gen.h **** {
 2277              		.loc 3 115 26 is_stmt 1 view .LVU753
 2278              	.LBB127:
 117:Middlewares/LVGL/GUI/lvgl/src/extra/layouts/flex/../flex/../../../core/lv_obj_style_gen.h ****     return (lv_coord_t)v.num;
 2279              		.loc 3 117 5 view .LVU754
 117:Middlewares/LVGL/GUI/lvgl/src/extra/layouts/flex/../flex/../../../core/lv_obj_style_gen.h ****     return (lv_coord_t)v.num;
 2280              		.loc 3 117 26 is_stmt 0 view .LVU755
 2281 0182 41F61402 		movw	r2, #6164
 2282 0186 0021     		movs	r1, #0
 2283 0188 2046     		mov	r0, r4
 2284 018a FFF7FEFF 		bl	lv_obj_get_style_prop
 2285              	.LVL229:
 2286 018e 8146     		mov	r9, r0
 118:Middlewares/LVGL/GUI/lvgl/src/extra/layouts/flex/../flex/../../../core/lv_obj_style_gen.h **** }
 2287              		.loc 3 118 5 is_stmt 1 view .LVU756
 2288              	.LVL230:
 118:Middlewares/LVGL/GUI/lvgl/src/extra/layouts/flex/../flex/../../../core/lv_obj_style_gen.h **** }
 2289              		.loc 3 118 5 is_stmt 0 view .LVU757
 2290 0190 83E7     		b	.L122
 2291              	.LVL231:
 2292              	.L123:
 118:Middlewares/LVGL/GUI/lvgl/src/extra/layouts/flex/../flex/../../../core/lv_obj_style_gen.h **** }
 2293              		.loc 3 118 5 view .LVU758
 2294              	.LBE127:
 2295              	.LBE126:
 2296              	.LBB128:
 2297              	.LBI128:
 115:Middlewares/LVGL/GUI/lvgl/src/extra/layouts/flex/../flex/../../../core/lv_obj_style_gen.h **** {
 2298              		.loc 3 115 26 is_stmt 1 view .LVU759
 2299              	.LBB129:
 117:Middlewares/LVGL/GUI/lvgl/src/extra/layouts/flex/../flex/../../../core/lv_obj_style_gen.h ****     return (lv_coord_t)v.num;
 2300              		.loc 3 117 5 view .LVU760
 117:Middlewares/LVGL/GUI/lvgl/src/extra/layouts/flex/../flex/../../../core/lv_obj_style_gen.h ****     return (lv_coord_t)v.num;
 2301              		.loc 3 117 26 is_stmt 0 view .LVU761
 2302 0192 41F61402 		movw	r2, #6164
 2303 0196 0021     		movs	r1, #0
 2304 0198 2046     		mov	r0, r4
 2305 019a FFF7FEFF 		bl	lv_obj_get_style_prop
 2306              	.LVL232:
 2307 019e 0546     		mov	r5, r0
 118:Middlewares/LVGL/GUI/lvgl/src/extra/layouts/flex/../flex/../../../core/lv_obj_style_gen.h **** }
 2308              		.loc 3 118 5 is_stmt 1 view .LVU762
 2309              	.LVL233:
 118:Middlewares/LVGL/GUI/lvgl/src/extra/layouts/flex/../flex/../../../core/lv_obj_style_gen.h **** }
 2310              		.loc 3 118 5 is_stmt 0 view .LVU763
 2311 01a0 87E7     		b	.L124
 2312              	.LVL234:
 2313              	.L125:
 118:Middlewares/LVGL/GUI/lvgl/src/extra/layouts/flex/../flex/../../../core/lv_obj_style_gen.h **** }
 2314              		.loc 3 118 5 view .LVU764
 2315              	.LBE129:
 2316              	.LBE128:
 228:Middlewares/LVGL/GUI/lvgl/src/extra/layouts/flex/lv_flex.c ****     lv_coord_t border_width = lv_obj_get_style_border_width(cont, LV_PART_MAIN);
 2317              		.loc 2 228 74 discriminator 2 view .LVU765
 2318 01a2 2046     		mov	r0, r4
 2319 01a4 FFF7FEFF 		bl	lv_obj_get_content_height
 2320              	.LVL235:
ARM GAS  C:\Users\ADMINI~1\AppData\Local\Temp\ccyi9XNv.s 			page 78


 2321 01a8 0646     		mov	r6, r0
 2322 01aa 8BE7     		b	.L126
 2323              	.LVL236:
 2324              	.L151:
 236:Middlewares/LVGL/GUI/lvgl/src/extra/layouts/flex/lv_flex.c **** 
 2325              		.loc 2 236 46 view .LVU766
 2326 01ac 0DF14C08 		add	r8, sp, #76
 2327 01b0 B9E7     		b	.L127
 2328              	.LVL237:
 2329              	.L160:
 242:Middlewares/LVGL/GUI/lvgl/src/extra/layouts/flex/lv_flex.c ****        (!f.row && w_set == LV_SIZE_CONTENT && cont->w_layout == 0)) {
 2330              		.loc 2 242 61 discriminator 3 view .LVU767
 2331 01b2 94F82B10 		ldrb	r1, [r4, #43]	@ zero_extendqisi2
 242:Middlewares/LVGL/GUI/lvgl/src/extra/layouts/flex/lv_flex.c ****        (!f.row && w_set == LV_SIZE_CONTENT && cont->w_layout == 0)) {
 2332              		.loc 2 242 43 discriminator 3 view .LVU768
 2333 01b6 11F0020F 		tst	r1, #2
 2334 01ba CAD1     		bne	.L128
 244:Middlewares/LVGL/GUI/lvgl/src/extra/layouts/flex/lv_flex.c ****     }
 2335              		.loc 2 244 27 view .LVU769
 2336 01bc 0021     		movs	r1, #0
 2337 01be 0791     		str	r1, [sp, #28]
 2338              	.LVL238:
 244:Middlewares/LVGL/GUI/lvgl/src/extra/layouts/flex/lv_flex.c ****     }
 2339              		.loc 2 244 27 view .LVU770
 2340 01c0 CCE7     		b	.L129
 2341              	.LVL239:
 2342              	.L161:
 243:Middlewares/LVGL/GUI/lvgl/src/extra/layouts/flex/lv_flex.c ****         track_cross_place = LV_FLEX_ALIGN_START;
 2343              		.loc 2 243 62 discriminator 1 view .LVU771
 2344 01c2 94F82B10 		ldrb	r1, [r4, #43]	@ zero_extendqisi2
 243:Middlewares/LVGL/GUI/lvgl/src/extra/layouts/flex/lv_flex.c ****         track_cross_place = LV_FLEX_ALIGN_START;
 2345              		.loc 2 243 44 discriminator 1 view .LVU772
 2346 01c6 11F0040F 		tst	r1, #4
 2347 01ca C7D1     		bne	.L129
 244:Middlewares/LVGL/GUI/lvgl/src/extra/layouts/flex/lv_flex.c ****     }
 2348              		.loc 2 244 27 view .LVU773
 2349 01cc 0021     		movs	r1, #0
 2350 01ce 0791     		str	r1, [sp, #28]
 2351              	.LVL240:
 244:Middlewares/LVGL/GUI/lvgl/src/extra/layouts/flex/lv_flex.c ****     }
 2352              		.loc 2 244 27 view .LVU774
 2353 01d0 C4E7     		b	.L129
 2354              	.LVL241:
 2355              	.L162:
 247:Middlewares/LVGL/GUI/lvgl/src/extra/layouts/flex/lv_flex.c ****         if(track_cross_place == LV_FLEX_ALIGN_START) track_cross_place = LV_FLEX_ALIGN_END;
 2356              		.loc 2 247 12 discriminator 1 view .LVU775
 2357 01d2 002A     		cmp	r2, #0
 2358 01d4 C4D1     		bne	.L130
 248:Middlewares/LVGL/GUI/lvgl/src/extra/layouts/flex/lv_flex.c ****         else if(track_cross_place == LV_FLEX_ALIGN_END) track_cross_place = LV_FLEX_ALIGN_START;
 2359              		.loc 2 248 9 is_stmt 1 view .LVU776
 248:Middlewares/LVGL/GUI/lvgl/src/extra/layouts/flex/lv_flex.c ****         else if(track_cross_place == LV_FLEX_ALIGN_END) track_cross_place = LV_FLEX_ALIGN_START;
 2360              		.loc 2 248 11 is_stmt 0 view .LVU777
 2361 01d6 079A     		ldr	r2, [sp, #28]
 2362 01d8 12B9     		cbnz	r2, .L131
 2363              	.LVL242:
 252:Middlewares/LVGL/GUI/lvgl/src/extra/layouts/flex/lv_flex.c ****     lv_coord_t gap = 0;
 2364              		.loc 2 252 5 is_stmt 1 view .LVU778
ARM GAS  C:\Users\ADMINI~1\AppData\Local\Temp\ccyi9XNv.s 			page 79


 253:Middlewares/LVGL/GUI/lvgl/src/extra/layouts/flex/lv_flex.c ****     uint32_t track_cnt = 0;
 2365              		.loc 2 253 5 view .LVU779
 253:Middlewares/LVGL/GUI/lvgl/src/extra/layouts/flex/lv_flex.c ****     uint32_t track_cnt = 0;
 2366              		.loc 2 253 16 is_stmt 0 view .LVU780
 2367 01da 1292     		str	r2, [sp, #72]
 254:Middlewares/LVGL/GUI/lvgl/src/extra/layouts/flex/lv_flex.c ****     int32_t track_first_item;
 2368              		.loc 2 254 5 is_stmt 1 view .LVU781
 2369              	.LVL243:
 255:Middlewares/LVGL/GUI/lvgl/src/extra/layouts/flex/lv_flex.c ****     int32_t next_track_first_item;
 2370              		.loc 2 255 5 view .LVU782
 256:Middlewares/LVGL/GUI/lvgl/src/extra/layouts/flex/lv_flex.c **** 
 2371              		.loc 2 256 5 view .LVU783
 258:Middlewares/LVGL/GUI/lvgl/src/extra/layouts/flex/lv_flex.c ****         track_first_item = f.rev ? cont->spec_attr->child_cnt - 1 : 0;
 2372              		.loc 2 258 5 view .LVU784
 248:Middlewares/LVGL/GUI/lvgl/src/extra/layouts/flex/lv_flex.c ****         else if(track_cross_place == LV_FLEX_ALIGN_END) track_cross_place = LV_FLEX_ALIGN_START;
 2373              		.loc 2 248 72 is_stmt 0 view .LVU785
 2374 01dc 0797     		str	r7, [sp, #28]
 2375 01de C5E7     		b	.L132
 2376              	.LVL244:
 2377              	.L131:
 249:Middlewares/LVGL/GUI/lvgl/src/extra/layouts/flex/lv_flex.c ****     }
 2378              		.loc 2 249 14 is_stmt 1 view .LVU786
 249:Middlewares/LVGL/GUI/lvgl/src/extra/layouts/flex/lv_flex.c ****     }
 2379              		.loc 2 249 16 is_stmt 0 view .LVU787
 2380 01e0 079A     		ldr	r2, [sp, #28]
 2381 01e2 012A     		cmp	r2, #1
 2382 01e4 BCD1     		bne	.L130
 249:Middlewares/LVGL/GUI/lvgl/src/extra/layouts/flex/lv_flex.c ****     }
 2383              		.loc 2 249 57 is_stmt 1 view .LVU788
 2384              	.LVL245:
 252:Middlewares/LVGL/GUI/lvgl/src/extra/layouts/flex/lv_flex.c ****     lv_coord_t gap = 0;
 2385              		.loc 2 252 5 view .LVU789
 253:Middlewares/LVGL/GUI/lvgl/src/extra/layouts/flex/lv_flex.c ****     uint32_t track_cnt = 0;
 2386              		.loc 2 253 5 view .LVU790
 253:Middlewares/LVGL/GUI/lvgl/src/extra/layouts/flex/lv_flex.c ****     uint32_t track_cnt = 0;
 2387              		.loc 2 253 16 is_stmt 0 view .LVU791
 2388 01e6 0023     		movs	r3, #0
 2389 01e8 1293     		str	r3, [sp, #72]
 254:Middlewares/LVGL/GUI/lvgl/src/extra/layouts/flex/lv_flex.c ****     int32_t track_first_item;
 2390              		.loc 2 254 5 is_stmt 1 view .LVU792
 2391              	.LVL246:
 255:Middlewares/LVGL/GUI/lvgl/src/extra/layouts/flex/lv_flex.c ****     int32_t next_track_first_item;
 2392              		.loc 2 255 5 view .LVU793
 256:Middlewares/LVGL/GUI/lvgl/src/extra/layouts/flex/lv_flex.c **** 
 2393              		.loc 2 256 5 view .LVU794
 258:Middlewares/LVGL/GUI/lvgl/src/extra/layouts/flex/lv_flex.c ****         track_first_item = f.rev ? cont->spec_attr->child_cnt - 1 : 0;
 2394              		.loc 2 258 5 view .LVU795
 252:Middlewares/LVGL/GUI/lvgl/src/extra/layouts/flex/lv_flex.c ****     lv_coord_t gap = 0;
 2395              		.loc 2 252 16 is_stmt 0 view .LVU796
 2396 01ea 9A46     		mov	r10, r3
 2397 01ec 30E0     		b	.L133
 2398              	.LVL247:
 2399              	.L137:
 2400              	.LBB130:
 263:Middlewares/LVGL/GUI/lvgl/src/extra/layouts/flex/lv_flex.c ****             next_track_first_item = find_track_end(cont, &f, track_first_item, max_main_size, item_
 2401              		.loc 2 263 13 is_stmt 1 view .LVU797
 263:Middlewares/LVGL/GUI/lvgl/src/extra/layouts/flex/lv_flex.c ****             next_track_first_item = find_track_end(cont, &f, track_first_item, max_main_size, item_
ARM GAS  C:\Users\ADMINI~1\AppData\Local\Temp\ccyi9XNv.s 			page 80


 2402              		.loc 2 263 29 is_stmt 0 view .LVU798
 2403 01ee 9DF84430 		ldrb	r3, [sp, #68]	@ zero_extendqisi2
 2404 01f2 6FF30003 		bfc	r3, #0, #1
 2405 01f6 8DF84430 		strb	r3, [sp, #68]
 264:Middlewares/LVGL/GUI/lvgl/src/extra/layouts/flex/lv_flex.c ****             total_track_cross_size += t.track_cross_size + track_gap;
 2406              		.loc 2 264 13 is_stmt 1 view .LVU799
 264:Middlewares/LVGL/GUI/lvgl/src/extra/layouts/flex/lv_flex.c ****             total_track_cross_size += t.track_cross_size + track_gap;
 2407              		.loc 2 264 37 is_stmt 0 view .LVU800
 2408 01fa 0BAB     		add	r3, sp, #44
 2409 01fc 0193     		str	r3, [sp, #4]
 2410 01fe 0095     		str	r5, [sp]
 2411 0200 3346     		mov	r3, r6
 2412 0202 15A9     		add	r1, sp, #84
 2413 0204 2046     		mov	r0, r4
 2414 0206 FFF7FEFF 		bl	find_track_end
 2415              	.LVL248:
 264:Middlewares/LVGL/GUI/lvgl/src/extra/layouts/flex/lv_flex.c ****             total_track_cross_size += t.track_cross_size + track_gap;
 2416              		.loc 2 264 37 view .LVU801
 2417 020a 0246     		mov	r2, r0
 2418              	.LVL249:
 265:Middlewares/LVGL/GUI/lvgl/src/extra/layouts/flex/lv_flex.c ****             track_cnt++;
 2419              		.loc 2 265 13 is_stmt 1 view .LVU802
 265:Middlewares/LVGL/GUI/lvgl/src/extra/layouts/flex/lv_flex.c ****             track_cnt++;
 2420              		.loc 2 265 40 is_stmt 0 view .LVU803
 2421 020c 0B9B     		ldr	r3, [sp, #44]
 265:Middlewares/LVGL/GUI/lvgl/src/extra/layouts/flex/lv_flex.c ****             track_cnt++;
 2422              		.loc 2 265 58 view .LVU804
 2423 020e 4B44     		add	r3, r3, r9
 265:Middlewares/LVGL/GUI/lvgl/src/extra/layouts/flex/lv_flex.c ****             track_cnt++;
 2424              		.loc 2 265 36 view .LVU805
 2425 0210 9A44     		add	r10, r10, r3
 2426              	.LVL250:
 266:Middlewares/LVGL/GUI/lvgl/src/extra/layouts/flex/lv_flex.c ****             track_first_item = next_track_first_item;
 2427              		.loc 2 266 13 is_stmt 1 view .LVU806
 266:Middlewares/LVGL/GUI/lvgl/src/extra/layouts/flex/lv_flex.c ****             track_first_item = next_track_first_item;
 2428              		.loc 2 266 22 is_stmt 0 view .LVU807
 2429 0212 0BF1010B 		add	fp, fp, #1
 2430              	.LVL251:
 267:Middlewares/LVGL/GUI/lvgl/src/extra/layouts/flex/lv_flex.c ****         }
 2431              		.loc 2 267 13 is_stmt 1 view .LVU808
 2432              	.L135:
 261:Middlewares/LVGL/GUI/lvgl/src/extra/layouts/flex/lv_flex.c ****             /*Search the first item of the next row*/
 2433              		.loc 2 261 14 view .LVU809
 261:Middlewares/LVGL/GUI/lvgl/src/extra/layouts/flex/lv_flex.c ****             /*Search the first item of the next row*/
 2434              		.loc 2 261 47 is_stmt 0 view .LVU810
 2435 0216 A368     		ldr	r3, [r4, #8]
 261:Middlewares/LVGL/GUI/lvgl/src/extra/layouts/flex/lv_flex.c ****             /*Search the first item of the next row*/
 2436              		.loc 2 261 58 view .LVU811
 2437 0218 5B68     		ldr	r3, [r3, #4]
 261:Middlewares/LVGL/GUI/lvgl/src/extra/layouts/flex/lv_flex.c ****             /*Search the first item of the next row*/
 2438              		.loc 2 261 14 view .LVU812
 2439 021a 9342     		cmp	r3, r2
 2440 021c 01DD     		ble	.L136
 261:Middlewares/LVGL/GUI/lvgl/src/extra/layouts/flex/lv_flex.c ****             /*Search the first item of the next row*/
 2441              		.loc 2 261 70 discriminator 1 view .LVU813
 2442 021e 002A     		cmp	r2, #0
 2443 0220 E5DA     		bge	.L137
ARM GAS  C:\Users\ADMINI~1\AppData\Local\Temp\ccyi9XNv.s 			page 81


 2444              	.L136:
 270:Middlewares/LVGL/GUI/lvgl/src/extra/layouts/flex/lv_flex.c **** 
 2445              		.loc 2 270 9 is_stmt 1 view .LVU814
 270:Middlewares/LVGL/GUI/lvgl/src/extra/layouts/flex/lv_flex.c **** 
 2446              		.loc 2 270 11 is_stmt 0 view .LVU815
 2447 0222 BBF1000F 		cmp	fp, #0
 2448 0226 01D0     		beq	.L138
 270:Middlewares/LVGL/GUI/lvgl/src/extra/layouts/flex/lv_flex.c **** 
 2449              		.loc 2 270 23 is_stmt 1 discriminator 1 view .LVU816
 270:Middlewares/LVGL/GUI/lvgl/src/extra/layouts/flex/lv_flex.c **** 
 2450              		.loc 2 270 46 is_stmt 0 discriminator 1 view .LVU817
 2451 0228 AAEB090A 		sub	r10, r10, r9
 2452              	.LVL252:
 2453              	.L138:
 273:Middlewares/LVGL/GUI/lvgl/src/extra/layouts/flex/lv_flex.c ****         place_content(track_cross_place, max_cross_size, total_track_cross_size, track_cnt, cross_p
 2454              		.loc 2 273 9 is_stmt 1 view .LVU818
 273:Middlewares/LVGL/GUI/lvgl/src/extra/layouts/flex/lv_flex.c ****         place_content(track_cross_place, max_cross_size, total_track_cross_size, track_cnt, cross_p
 2455              		.loc 2 273 44 is_stmt 0 view .LVU819
 2456 022c 9DF85730 		ldrb	r3, [sp, #87]	@ zero_extendqisi2
 273:Middlewares/LVGL/GUI/lvgl/src/extra/layouts/flex/lv_flex.c ****         place_content(track_cross_place, max_cross_size, total_track_cross_size, track_cnt, cross_p
 2457              		.loc 2 273 78 view .LVU820
 2458 0230 13F0010F 		tst	r3, #1
 2459 0234 22D0     		beq	.L139
 273:Middlewares/LVGL/GUI/lvgl/src/extra/layouts/flex/lv_flex.c ****         place_content(track_cross_place, max_cross_size, total_track_cross_size, track_cnt, cross_p
 2460              		.loc 2 273 46 discriminator 1 view .LVU821
 2461 0236 2046     		mov	r0, r4
 2462 0238 FFF7FEFF 		bl	lv_obj_get_content_height
 2463              	.LVL253:
 273:Middlewares/LVGL/GUI/lvgl/src/extra/layouts/flex/lv_flex.c ****         place_content(track_cross_place, max_cross_size, total_track_cross_size, track_cnt, cross_p
 2464              		.loc 2 273 46 discriminator 1 view .LVU822
 2465 023c 0146     		mov	r1, r0
 2466              	.L140:
 2467              	.LVL254:
 274:Middlewares/LVGL/GUI/lvgl/src/extra/layouts/flex/lv_flex.c ****     }
 2468              		.loc 2 274 9 is_stmt 1 discriminator 4 view .LVU823
 2469 023e 12AB     		add	r3, sp, #72
 2470 0240 0193     		str	r3, [sp, #4]
 2471 0242 CDF80080 		str	r8, [sp]
 2472 0246 5B46     		mov	r3, fp
 2473 0248 5246     		mov	r2, r10
 2474 024a 0798     		ldr	r0, [sp, #28]
 2475 024c FFF7FEFF 		bl	place_content
 2476              	.LVL255:
 2477              	.L133:
 274:Middlewares/LVGL/GUI/lvgl/src/extra/layouts/flex/lv_flex.c ****     }
 2478              		.loc 2 274 9 is_stmt 0 discriminator 4 view .LVU824
 2479              	.LBE130:
 277:Middlewares/LVGL/GUI/lvgl/src/extra/layouts/flex/lv_flex.c **** 
 2480              		.loc 2 277 5 is_stmt 1 view .LVU825
 277:Middlewares/LVGL/GUI/lvgl/src/extra/layouts/flex/lv_flex.c **** 
 2481              		.loc 2 277 30 is_stmt 0 view .LVU826
 2482 0250 9DF85730 		ldrb	r3, [sp, #87]	@ zero_extendqisi2
 277:Middlewares/LVGL/GUI/lvgl/src/extra/layouts/flex/lv_flex.c **** 
 2483              		.loc 2 277 63 view .LVU827
 2484 0254 13F0040F 		tst	r3, #4
 2485 0258 18D0     		beq	.L156
 277:Middlewares/LVGL/GUI/lvgl/src/extra/layouts/flex/lv_flex.c **** 
ARM GAS  C:\Users\ADMINI~1\AppData\Local\Temp\ccyi9XNv.s 			page 82


 2486              		.loc 2 277 36 discriminator 1 view .LVU828
 2487 025a A268     		ldr	r2, [r4, #8]
 277:Middlewares/LVGL/GUI/lvgl/src/extra/layouts/flex/lv_flex.c **** 
 2488              		.loc 2 277 47 discriminator 1 view .LVU829
 2489 025c 5268     		ldr	r2, [r2, #4]
 277:Middlewares/LVGL/GUI/lvgl/src/extra/layouts/flex/lv_flex.c **** 
 2490              		.loc 2 277 59 discriminator 1 view .LVU830
 2491 025e 02F1FF3B 		add	fp, r2, #-1
 2492              	.L141:
 2493              	.LVL256:
 279:Middlewares/LVGL/GUI/lvgl/src/extra/layouts/flex/lv_flex.c ****         *cross_pos += total_track_cross_size;
 2494              		.loc 2 279 5 is_stmt 1 discriminator 4 view .LVU831
 279:Middlewares/LVGL/GUI/lvgl/src/extra/layouts/flex/lv_flex.c ****         *cross_pos += total_track_cross_size;
 2495              		.loc 2 279 7 is_stmt 0 discriminator 4 view .LVU832
 2496 0262 012F     		cmp	r7, #1
 2497 0264 36D1     		bne	.L146
 279:Middlewares/LVGL/GUI/lvgl/src/extra/layouts/flex/lv_flex.c ****         *cross_pos += total_track_cross_size;
 2498              		.loc 2 279 12 discriminator 1 view .LVU833
 2499 0266 13F0010F 		tst	r3, #1
 2500 026a 33D1     		bne	.L146
 280:Middlewares/LVGL/GUI/lvgl/src/extra/layouts/flex/lv_flex.c ****     }
 2501              		.loc 2 280 9 is_stmt 1 view .LVU834
 280:Middlewares/LVGL/GUI/lvgl/src/extra/layouts/flex/lv_flex.c ****     }
 2502              		.loc 2 280 20 is_stmt 0 view .LVU835
 2503 026c D8F80030 		ldr	r3, [r8]
 2504 0270 5344     		add	r3, r3, r10
 2505 0272 C8F80030 		str	r3, [r8]
 2506 0276 2DE0     		b	.L146
 2507              	.LVL257:
 2508              	.L155:
 2509              	.LBB131:
 259:Middlewares/LVGL/GUI/lvgl/src/extra/layouts/flex/lv_flex.c ****         track_t t;
 2510              		.loc 2 259 67 view .LVU836
 2511 0278 0022     		movs	r2, #0
 2512 027a 7EE7     		b	.L134
 2513              	.LVL258:
 2514              	.L139:
 273:Middlewares/LVGL/GUI/lvgl/src/extra/layouts/flex/lv_flex.c ****         place_content(track_cross_place, max_cross_size, total_track_cross_size, track_cnt, cross_p
 2515              		.loc 2 273 80 discriminator 2 view .LVU837
 2516 027c 2046     		mov	r0, r4
 2517 027e FFF7FEFF 		bl	lv_obj_get_content_width
 2518              	.LVL259:
 273:Middlewares/LVGL/GUI/lvgl/src/extra/layouts/flex/lv_flex.c ****         place_content(track_cross_place, max_cross_size, total_track_cross_size, track_cnt, cross_p
 2519              		.loc 2 273 80 discriminator 2 view .LVU838
 2520 0282 0146     		mov	r1, r0
 2521 0284 DBE7     		b	.L140
 2522              	.LVL260:
 2523              	.L154:
 273:Middlewares/LVGL/GUI/lvgl/src/extra/layouts/flex/lv_flex.c ****         place_content(track_cross_place, max_cross_size, total_track_cross_size, track_cnt, cross_p
 2524              		.loc 2 273 80 discriminator 2 view .LVU839
 2525              	.LBE131:
 252:Middlewares/LVGL/GUI/lvgl/src/extra/layouts/flex/lv_flex.c ****     lv_coord_t gap = 0;
 2526              		.loc 2 252 16 view .LVU840
 2527 0286 4FF0000A 		mov	r10, #0
 2528 028a E1E7     		b	.L133
 2529              	.LVL261:
 2530              	.L156:
ARM GAS  C:\Users\ADMINI~1\AppData\Local\Temp\ccyi9XNv.s 			page 83


 277:Middlewares/LVGL/GUI/lvgl/src/extra/layouts/flex/lv_flex.c **** 
 2531              		.loc 2 277 63 view .LVU841
 2532 028c 4FF0000B 		mov	fp, #0
 2533 0290 E7E7     		b	.L141
 2534              	.LVL262:
 2535              	.L163:
 2536              	.LBB132:
 289:Middlewares/LVGL/GUI/lvgl/src/extra/layouts/flex/lv_flex.c ****             *cross_pos -= t.track_cross_size;
 2537              		.loc 2 289 19 discriminator 1 view .LVU842
 2538 0292 9DF85730 		ldrb	r3, [sp, #87]	@ zero_extendqisi2
 289:Middlewares/LVGL/GUI/lvgl/src/extra/layouts/flex/lv_flex.c ****             *cross_pos -= t.track_cross_size;
 2539              		.loc 2 289 16 discriminator 1 view .LVU843
 2540 0296 13F0010F 		tst	r3, #1
 2541 029a 34D1     		bne	.L143
 290:Middlewares/LVGL/GUI/lvgl/src/extra/layouts/flex/lv_flex.c ****         }
 2542              		.loc 2 290 13 is_stmt 1 view .LVU844
 290:Middlewares/LVGL/GUI/lvgl/src/extra/layouts/flex/lv_flex.c ****         }
 2543              		.loc 2 290 24 is_stmt 0 view .LVU845
 2544 029c D8F80030 		ldr	r3, [r8]
 2545 02a0 0B9A     		ldr	r2, [sp, #44]
 2546 02a2 9B1A     		subs	r3, r3, r2
 2547 02a4 C8F80030 		str	r3, [r8]
 2548 02a8 2DE0     		b	.L143
 2549              	.L165:
 2550 02aa 00BF     		.align	2
 2551              	.L164:
 2552 02ac 00000000 		.word	.LANCHOR1
 2553 02b0 00000000 		.word	.LANCHOR2
 2554 02b4 00000000 		.word	.LANCHOR3
 2555 02b8 00000000 		.word	.LANCHOR4
 2556 02bc D1070020 		.word	536872913
 2557              	.LVL263:
 2558              	.L144:
 300:Middlewares/LVGL/GUI/lvgl/src/extra/layouts/flex/lv_flex.c ****         }
 2559              		.loc 2 300 13 is_stmt 1 view .LVU846
 300:Middlewares/LVGL/GUI/lvgl/src/extra/layouts/flex/lv_flex.c ****         }
 2560              		.loc 2 300 46 is_stmt 0 view .LVU847
 2561 02c0 0B9B     		ldr	r3, [sp, #44]
 2562 02c2 129A     		ldr	r2, [sp, #72]
 2563 02c4 1344     		add	r3, r3, r2
 300:Middlewares/LVGL/GUI/lvgl/src/extra/layouts/flex/lv_flex.c ****         }
 2564              		.loc 2 300 52 view .LVU848
 2565 02c6 4B44     		add	r3, r3, r9
 300:Middlewares/LVGL/GUI/lvgl/src/extra/layouts/flex/lv_flex.c ****         }
 2566              		.loc 2 300 24 view .LVU849
 2567 02c8 D8F80020 		ldr	r2, [r8]
 2568 02cc 1344     		add	r3, r3, r2
 2569 02ce C8F80030 		str	r3, [r8]
 2570              	.L145:
 293:Middlewares/LVGL/GUI/lvgl/src/extra/layouts/flex/lv_flex.c ****         lv_mem_buf_release(t.grow_dsc);
 2571              		.loc 2 293 26 view .LVU850
 2572 02d2 D346     		mov	fp, r10
 2573              	.LVL264:
 2574              	.L146:
 293:Middlewares/LVGL/GUI/lvgl/src/extra/layouts/flex/lv_flex.c ****         lv_mem_buf_release(t.grow_dsc);
 2575              		.loc 2 293 26 view .LVU851
 2576              	.LBE132:
ARM GAS  C:\Users\ADMINI~1\AppData\Local\Temp\ccyi9XNv.s 			page 84


 283:Middlewares/LVGL/GUI/lvgl/src/extra/layouts/flex/lv_flex.c ****         track_t t;
 2577              		.loc 2 283 10 is_stmt 1 view .LVU852
 283:Middlewares/LVGL/GUI/lvgl/src/extra/layouts/flex/lv_flex.c ****         track_t t;
 2578              		.loc 2 283 43 is_stmt 0 view .LVU853
 2579 02d4 A368     		ldr	r3, [r4, #8]
 283:Middlewares/LVGL/GUI/lvgl/src/extra/layouts/flex/lv_flex.c ****         track_t t;
 2580              		.loc 2 283 54 view .LVU854
 2581 02d6 5B68     		ldr	r3, [r3, #4]
 283:Middlewares/LVGL/GUI/lvgl/src/extra/layouts/flex/lv_flex.c ****         track_t t;
 2582              		.loc 2 283 10 view .LVU855
 2583 02d8 5B45     		cmp	r3, fp
 2584 02da 37DD     		ble	.L147
 283:Middlewares/LVGL/GUI/lvgl/src/extra/layouts/flex/lv_flex.c ****         track_t t;
 2585              		.loc 2 283 66 discriminator 1 view .LVU856
 2586 02dc BBF1000F 		cmp	fp, #0
 2587 02e0 34DB     		blt	.L147
 2588              	.LBB133:
 284:Middlewares/LVGL/GUI/lvgl/src/extra/layouts/flex/lv_flex.c ****         t.grow_dsc_calc = 1;
 2589              		.loc 2 284 9 is_stmt 1 view .LVU857
 285:Middlewares/LVGL/GUI/lvgl/src/extra/layouts/flex/lv_flex.c ****         /*Search the first item of the next row*/
 2590              		.loc 2 285 9 view .LVU858
 285:Middlewares/LVGL/GUI/lvgl/src/extra/layouts/flex/lv_flex.c ****         /*Search the first item of the next row*/
 2591              		.loc 2 285 25 is_stmt 0 view .LVU859
 2592 02e2 9DF84430 		ldrb	r3, [sp, #68]	@ zero_extendqisi2
 2593 02e6 43F00103 		orr	r3, r3, #1
 2594 02ea 8DF84430 		strb	r3, [sp, #68]
 287:Middlewares/LVGL/GUI/lvgl/src/extra/layouts/flex/lv_flex.c **** 
 2595              		.loc 2 287 9 is_stmt 1 view .LVU860
 287:Middlewares/LVGL/GUI/lvgl/src/extra/layouts/flex/lv_flex.c **** 
 2596              		.loc 2 287 33 is_stmt 0 view .LVU861
 2597 02ee 0BAB     		add	r3, sp, #44
 2598 02f0 0193     		str	r3, [sp, #4]
 2599 02f2 0095     		str	r5, [sp]
 2600 02f4 3346     		mov	r3, r6
 2601 02f6 5A46     		mov	r2, fp
 2602 02f8 15A9     		add	r1, sp, #84
 2603 02fa 2046     		mov	r0, r4
 2604 02fc FFF7FEFF 		bl	find_track_end
 2605              	.LVL265:
 2606 0300 8246     		mov	r10, r0
 2607              	.LVL266:
 289:Middlewares/LVGL/GUI/lvgl/src/extra/layouts/flex/lv_flex.c ****             *cross_pos -= t.track_cross_size;
 2608              		.loc 2 289 9 is_stmt 1 view .LVU862
 289:Middlewares/LVGL/GUI/lvgl/src/extra/layouts/flex/lv_flex.c ****             *cross_pos -= t.track_cross_size;
 2609              		.loc 2 289 11 is_stmt 0 view .LVU863
 2610 0302 012F     		cmp	r7, #1
 2611 0304 C5D0     		beq	.L163
 2612              	.L143:
 292:Middlewares/LVGL/GUI/lvgl/src/extra/layouts/flex/lv_flex.c ****         track_first_item = next_track_first_item;
 2613              		.loc 2 292 9 is_stmt 1 view .LVU864
 2614 0306 0BAB     		add	r3, sp, #44
 2615 0308 0493     		str	r3, [sp, #16]
 2616 030a 0395     		str	r5, [sp, #12]
 2617 030c 0296     		str	r6, [sp, #8]
 2618 030e 149B     		ldr	r3, [sp, #80]
 2619 0310 0193     		str	r3, [sp, #4]
 2620 0312 139B     		ldr	r3, [sp, #76]
ARM GAS  C:\Users\ADMINI~1\AppData\Local\Temp\ccyi9XNv.s 			page 85


 2621 0314 0093     		str	r3, [sp]
 2622 0316 5346     		mov	r3, r10
 2623 0318 5A46     		mov	r2, fp
 2624 031a 15A9     		add	r1, sp, #84
 2625 031c 2046     		mov	r0, r4
 2626              	.LVL267:
 292:Middlewares/LVGL/GUI/lvgl/src/extra/layouts/flex/lv_flex.c ****         track_first_item = next_track_first_item;
 2627              		.loc 2 292 9 is_stmt 0 view .LVU865
 2628 031e FFF7FEFF 		bl	children_repos
 2629              	.LVL268:
 293:Middlewares/LVGL/GUI/lvgl/src/extra/layouts/flex/lv_flex.c ****         lv_mem_buf_release(t.grow_dsc);
 2630              		.loc 2 293 9 is_stmt 1 view .LVU866
 294:Middlewares/LVGL/GUI/lvgl/src/extra/layouts/flex/lv_flex.c ****         t.grow_dsc = NULL;
 2631              		.loc 2 294 9 view .LVU867
 2632 0322 0F98     		ldr	r0, [sp, #60]
 2633 0324 FFF7FEFF 		bl	lv_mem_buf_release
 2634              	.LVL269:
 295:Middlewares/LVGL/GUI/lvgl/src/extra/layouts/flex/lv_flex.c ****         if(rtl && !f.row) {
 2635              		.loc 2 295 9 view .LVU868
 295:Middlewares/LVGL/GUI/lvgl/src/extra/layouts/flex/lv_flex.c ****         if(rtl && !f.row) {
 2636              		.loc 2 295 20 is_stmt 0 view .LVU869
 2637 0328 0023     		movs	r3, #0
 2638 032a 0F93     		str	r3, [sp, #60]
 296:Middlewares/LVGL/GUI/lvgl/src/extra/layouts/flex/lv_flex.c ****             *cross_pos -= gap + track_gap;
 2639              		.loc 2 296 9 is_stmt 1 view .LVU870
 296:Middlewares/LVGL/GUI/lvgl/src/extra/layouts/flex/lv_flex.c ****             *cross_pos -= gap + track_gap;
 2640              		.loc 2 296 11 is_stmt 0 view .LVU871
 2641 032c 012F     		cmp	r7, #1
 2642 032e C7D1     		bne	.L144
 296:Middlewares/LVGL/GUI/lvgl/src/extra/layouts/flex/lv_flex.c ****             *cross_pos -= gap + track_gap;
 2643              		.loc 2 296 19 discriminator 1 view .LVU872
 2644 0330 9DF85730 		ldrb	r3, [sp, #87]	@ zero_extendqisi2
 296:Middlewares/LVGL/GUI/lvgl/src/extra/layouts/flex/lv_flex.c ****             *cross_pos -= gap + track_gap;
 2645              		.loc 2 296 16 discriminator 1 view .LVU873
 2646 0334 13F0010F 		tst	r3, #1
 2647 0338 C2D1     		bne	.L144
 297:Middlewares/LVGL/GUI/lvgl/src/extra/layouts/flex/lv_flex.c ****         }
 2648              		.loc 2 297 13 is_stmt 1 view .LVU874
 297:Middlewares/LVGL/GUI/lvgl/src/extra/layouts/flex/lv_flex.c ****         }
 2649              		.loc 2 297 31 is_stmt 0 view .LVU875
 2650 033a 129B     		ldr	r3, [sp, #72]
 2651 033c 09EB0302 		add	r2, r9, r3
 297:Middlewares/LVGL/GUI/lvgl/src/extra/layouts/flex/lv_flex.c ****         }
 2652              		.loc 2 297 24 view .LVU876
 2653 0340 D8F80030 		ldr	r3, [r8]
 2654 0344 9B1A     		subs	r3, r3, r2
 2655 0346 C8F80030 		str	r3, [r8]
 2656 034a C2E7     		b	.L145
 2657              	.LVL270:
 2658              	.L147:
 297:Middlewares/LVGL/GUI/lvgl/src/extra/layouts/flex/lv_flex.c ****         }
 2659              		.loc 2 297 24 view .LVU877
 2660              	.LBE133:
 303:Middlewares/LVGL/GUI/lvgl/src/extra/layouts/flex/lv_flex.c **** 
 2661              		.loc 2 303 30 is_stmt 1 view .LVU878
 305:Middlewares/LVGL/GUI/lvgl/src/extra/layouts/flex/lv_flex.c ****         lv_obj_refr_size(cont);
 2662              		.loc 2 305 5 view .LVU879
ARM GAS  C:\Users\ADMINI~1\AppData\Local\Temp\ccyi9XNv.s 			page 86


 305:Middlewares/LVGL/GUI/lvgl/src/extra/layouts/flex/lv_flex.c ****         lv_obj_refr_size(cont);
 2663              		.loc 2 305 7 is_stmt 0 view .LVU880
 2664 034c 094B     		ldr	r3, .L166
 2665 034e 089A     		ldr	r2, [sp, #32]
 2666 0350 9A42     		cmp	r2, r3
 2667 0352 0AD0     		beq	.L149
 305:Middlewares/LVGL/GUI/lvgl/src/extra/layouts/flex/lv_flex.c ****         lv_obj_refr_size(cont);
 2668              		.loc 2 305 33 discriminator 1 view .LVU881
 2669 0354 099A     		ldr	r2, [sp, #36]
 2670 0356 9A42     		cmp	r2, r3
 2671 0358 07D0     		beq	.L149
 2672              	.L150:
 309:Middlewares/LVGL/GUI/lvgl/src/extra/layouts/flex/lv_flex.c **** 
 2673              		.loc 2 309 5 is_stmt 1 view .LVU882
 2674 035a 0022     		movs	r2, #0
 2675 035c 2B21     		movs	r1, #43
 2676 035e 2046     		mov	r0, r4
 2677 0360 FFF7FEFF 		bl	lv_event_send
 2678              	.LVL271:
 311:Middlewares/LVGL/GUI/lvgl/src/extra/layouts/flex/lv_flex.c **** }
 2679              		.loc 2 311 32 view .LVU883
 312:Middlewares/LVGL/GUI/lvgl/src/extra/layouts/flex/lv_flex.c **** 
 2680              		.loc 2 312 1 is_stmt 0 view .LVU884
 2681 0364 17B0     		add	sp, sp, #92
 2682              	.LCFI12:
 2683              		.cfi_remember_state
 2684              		.cfi_def_cfa_offset 36
 2685              		@ sp needed
 2686 0366 BDE8F08F 		pop	{r4, r5, r6, r7, r8, r9, r10, fp, pc}
 2687              	.LVL272:
 2688              	.L149:
 2689              	.LCFI13:
 2690              		.cfi_restore_state
 306:Middlewares/LVGL/GUI/lvgl/src/extra/layouts/flex/lv_flex.c ****     }
 2691              		.loc 2 306 9 is_stmt 1 view .LVU885
 2692 036a 2046     		mov	r0, r4
 2693 036c FFF7FEFF 		bl	lv_obj_refr_size
 2694              	.LVL273:
 2695 0370 F3E7     		b	.L150
 2696              	.L167:
 2697 0372 00BF     		.align	2
 2698              	.L166:
 2699 0374 D1070020 		.word	536872913
 2700              		.cfi_endproc
 2701              	.LFE183:
 2703              		.section	.text.lv_flex_init,"ax",%progbits
 2704              		.align	1
 2705              		.global	lv_flex_init
 2706              		.syntax unified
 2707              		.thumb
 2708              		.thumb_func
 2710              	lv_flex_init:
 2711              	.LFB169:
  93:Middlewares/LVGL/GUI/lvgl/src/extra/layouts/flex/lv_flex.c ****     LV_LAYOUT_FLEX = lv_layout_register(flex_update, NULL);
 2712              		.loc 2 93 1 view -0
 2713              		.cfi_startproc
 2714              		@ args = 0, pretend = 0, frame = 0
ARM GAS  C:\Users\ADMINI~1\AppData\Local\Temp\ccyi9XNv.s 			page 87


 2715              		@ frame_needed = 0, uses_anonymous_args = 0
 2716 0000 08B5     		push	{r3, lr}
 2717              	.LCFI14:
 2718              		.cfi_def_cfa_offset 8
 2719              		.cfi_offset 3, -8
 2720              		.cfi_offset 14, -4
  94:Middlewares/LVGL/GUI/lvgl/src/extra/layouts/flex/lv_flex.c **** 
 2721              		.loc 2 94 5 view .LVU887
  94:Middlewares/LVGL/GUI/lvgl/src/extra/layouts/flex/lv_flex.c **** 
 2722              		.loc 2 94 22 is_stmt 0 view .LVU888
 2723 0002 0021     		movs	r1, #0
 2724 0004 0D48     		ldr	r0, .L170
 2725 0006 FFF7FEFF 		bl	lv_layout_register
 2726              	.LVL274:
  94:Middlewares/LVGL/GUI/lvgl/src/extra/layouts/flex/lv_flex.c **** 
 2727              		.loc 2 94 20 view .LVU889
 2728 000a 0D4B     		ldr	r3, .L170+4
 2729 000c 1860     		str	r0, [r3]
  96:Middlewares/LVGL/GUI/lvgl/src/extra/layouts/flex/lv_flex.c ****     LV_STYLE_FLEX_MAIN_PLACE = lv_style_register_prop() | LV_STYLE_PROP_LAYOUT_REFR;
 2730              		.loc 2 96 5 is_stmt 1 view .LVU890
  96:Middlewares/LVGL/GUI/lvgl/src/extra/layouts/flex/lv_flex.c ****     LV_STYLE_FLEX_MAIN_PLACE = lv_style_register_prop() | LV_STYLE_PROP_LAYOUT_REFR;
 2731              		.loc 2 96 26 is_stmt 0 view .LVU891
 2732 000e FFF7FEFF 		bl	lv_style_register_prop
 2733              	.LVL275:
  96:Middlewares/LVGL/GUI/lvgl/src/extra/layouts/flex/lv_flex.c ****     LV_STYLE_FLEX_MAIN_PLACE = lv_style_register_prop() | LV_STYLE_PROP_LAYOUT_REFR;
 2734              		.loc 2 96 24 view .LVU892
 2735 0012 0C4B     		ldr	r3, .L170+8
 2736 0014 1880     		strh	r0, [r3]	@ movhi
  97:Middlewares/LVGL/GUI/lvgl/src/extra/layouts/flex/lv_flex.c ****     LV_STYLE_FLEX_CROSS_PLACE = lv_style_register_prop() | LV_STYLE_PROP_LAYOUT_REFR;
 2737              		.loc 2 97 5 is_stmt 1 view .LVU893
  97:Middlewares/LVGL/GUI/lvgl/src/extra/layouts/flex/lv_flex.c ****     LV_STYLE_FLEX_CROSS_PLACE = lv_style_register_prop() | LV_STYLE_PROP_LAYOUT_REFR;
 2738              		.loc 2 97 32 is_stmt 0 view .LVU894
 2739 0016 FFF7FEFF 		bl	lv_style_register_prop
 2740              	.LVL276:
  97:Middlewares/LVGL/GUI/lvgl/src/extra/layouts/flex/lv_flex.c ****     LV_STYLE_FLEX_CROSS_PLACE = lv_style_register_prop() | LV_STYLE_PROP_LAYOUT_REFR;
 2741              		.loc 2 97 30 view .LVU895
 2742 001a 40F48050 		orr	r0, r0, #4096
 2743 001e 0A4B     		ldr	r3, .L170+12
 2744 0020 1880     		strh	r0, [r3]	@ movhi
  98:Middlewares/LVGL/GUI/lvgl/src/extra/layouts/flex/lv_flex.c ****     LV_STYLE_FLEX_TRACK_PLACE = lv_style_register_prop() | LV_STYLE_PROP_LAYOUT_REFR;
 2745              		.loc 2 98 5 is_stmt 1 view .LVU896
  98:Middlewares/LVGL/GUI/lvgl/src/extra/layouts/flex/lv_flex.c ****     LV_STYLE_FLEX_TRACK_PLACE = lv_style_register_prop() | LV_STYLE_PROP_LAYOUT_REFR;
 2746              		.loc 2 98 33 is_stmt 0 view .LVU897
 2747 0022 FFF7FEFF 		bl	lv_style_register_prop
 2748              	.LVL277:
  98:Middlewares/LVGL/GUI/lvgl/src/extra/layouts/flex/lv_flex.c ****     LV_STYLE_FLEX_TRACK_PLACE = lv_style_register_prop() | LV_STYLE_PROP_LAYOUT_REFR;
 2749              		.loc 2 98 31 view .LVU898
 2750 0026 40F48050 		orr	r0, r0, #4096
 2751 002a 084B     		ldr	r3, .L170+16
 2752 002c 1880     		strh	r0, [r3]	@ movhi
  99:Middlewares/LVGL/GUI/lvgl/src/extra/layouts/flex/lv_flex.c **** }
 2753              		.loc 2 99 5 is_stmt 1 view .LVU899
  99:Middlewares/LVGL/GUI/lvgl/src/extra/layouts/flex/lv_flex.c **** }
 2754              		.loc 2 99 33 is_stmt 0 view .LVU900
 2755 002e FFF7FEFF 		bl	lv_style_register_prop
 2756              	.LVL278:
  99:Middlewares/LVGL/GUI/lvgl/src/extra/layouts/flex/lv_flex.c **** }
ARM GAS  C:\Users\ADMINI~1\AppData\Local\Temp\ccyi9XNv.s 			page 88


 2757              		.loc 2 99 31 view .LVU901
 2758 0032 40F48050 		orr	r0, r0, #4096
 2759 0036 064B     		ldr	r3, .L170+20
 2760 0038 1880     		strh	r0, [r3]	@ movhi
 100:Middlewares/LVGL/GUI/lvgl/src/extra/layouts/flex/lv_flex.c **** 
 2761              		.loc 2 100 1 view .LVU902
 2762 003a 08BD     		pop	{r3, pc}
 2763              	.L171:
 2764              		.align	2
 2765              	.L170:
 2766 003c 00000000 		.word	flex_update
 2767 0040 00000000 		.word	.LANCHOR5
 2768 0044 00000000 		.word	.LANCHOR1
 2769 0048 00000000 		.word	.LANCHOR2
 2770 004c 00000000 		.word	.LANCHOR3
 2771 0050 00000000 		.word	.LANCHOR4
 2772              		.cfi_endproc
 2773              	.LFE169:
 2775              		.section	.text.lv_style_set_flex_flow,"ax",%progbits
 2776              		.align	1
 2777              		.global	lv_style_set_flex_flow
 2778              		.syntax unified
 2779              		.thumb
 2780              		.thumb_func
 2782              	lv_style_set_flex_flow:
 2783              	.LVL279:
 2784              	.LFB173:
 125:Middlewares/LVGL/GUI/lvgl/src/extra/layouts/flex/lv_flex.c ****     lv_style_value_t v = {
 2785              		.loc 2 125 1 is_stmt 1 view -0
 2786              		.cfi_startproc
 2787              		@ args = 0, pretend = 0, frame = 0
 2788              		@ frame_needed = 0, uses_anonymous_args = 0
 125:Middlewares/LVGL/GUI/lvgl/src/extra/layouts/flex/lv_flex.c ****     lv_style_value_t v = {
 2789              		.loc 2 125 1 is_stmt 0 view .LVU904
 2790 0000 08B5     		push	{r3, lr}
 2791              	.LCFI15:
 2792              		.cfi_def_cfa_offset 8
 2793              		.cfi_offset 3, -8
 2794              		.cfi_offset 14, -4
 2795 0002 0A46     		mov	r2, r1
 126:Middlewares/LVGL/GUI/lvgl/src/extra/layouts/flex/lv_flex.c ****         .num = (int32_t)value
 2796              		.loc 2 126 5 is_stmt 1 view .LVU905
 129:Middlewares/LVGL/GUI/lvgl/src/extra/layouts/flex/lv_flex.c **** }
 2797              		.loc 2 129 5 view .LVU906
 2798 0004 024B     		ldr	r3, .L174
 2799 0006 1988     		ldrh	r1, [r3]
 2800              	.LVL280:
 129:Middlewares/LVGL/GUI/lvgl/src/extra/layouts/flex/lv_flex.c **** }
 2801              		.loc 2 129 5 is_stmt 0 view .LVU907
 2802 0008 FFF7FEFF 		bl	lv_style_set_prop
 2803              	.LVL281:
 130:Middlewares/LVGL/GUI/lvgl/src/extra/layouts/flex/lv_flex.c **** 
 2804              		.loc 2 130 1 view .LVU908
 2805 000c 08BD     		pop	{r3, pc}
 2806              	.L175:
 2807 000e 00BF     		.align	2
 2808              	.L174:
ARM GAS  C:\Users\ADMINI~1\AppData\Local\Temp\ccyi9XNv.s 			page 89


 2809 0010 00000000 		.word	.LANCHOR1
 2810              		.cfi_endproc
 2811              	.LFE173:
 2813              		.section	.text.lv_style_set_flex_main_place,"ax",%progbits
 2814              		.align	1
 2815              		.global	lv_style_set_flex_main_place
 2816              		.syntax unified
 2817              		.thumb
 2818              		.thumb_func
 2820              	lv_style_set_flex_main_place:
 2821              	.LVL282:
 2822              	.LFB174:
 133:Middlewares/LVGL/GUI/lvgl/src/extra/layouts/flex/lv_flex.c ****     lv_style_value_t v = {
 2823              		.loc 2 133 1 is_stmt 1 view -0
 2824              		.cfi_startproc
 2825              		@ args = 0, pretend = 0, frame = 0
 2826              		@ frame_needed = 0, uses_anonymous_args = 0
 133:Middlewares/LVGL/GUI/lvgl/src/extra/layouts/flex/lv_flex.c ****     lv_style_value_t v = {
 2827              		.loc 2 133 1 is_stmt 0 view .LVU910
 2828 0000 08B5     		push	{r3, lr}
 2829              	.LCFI16:
 2830              		.cfi_def_cfa_offset 8
 2831              		.cfi_offset 3, -8
 2832              		.cfi_offset 14, -4
 2833 0002 0A46     		mov	r2, r1
 134:Middlewares/LVGL/GUI/lvgl/src/extra/layouts/flex/lv_flex.c ****         .num = (int32_t)value
 2834              		.loc 2 134 5 is_stmt 1 view .LVU911
 137:Middlewares/LVGL/GUI/lvgl/src/extra/layouts/flex/lv_flex.c **** }
 2835              		.loc 2 137 5 view .LVU912
 2836 0004 024B     		ldr	r3, .L178
 2837 0006 1988     		ldrh	r1, [r3]
 2838              	.LVL283:
 137:Middlewares/LVGL/GUI/lvgl/src/extra/layouts/flex/lv_flex.c **** }
 2839              		.loc 2 137 5 is_stmt 0 view .LVU913
 2840 0008 FFF7FEFF 		bl	lv_style_set_prop
 2841              	.LVL284:
 138:Middlewares/LVGL/GUI/lvgl/src/extra/layouts/flex/lv_flex.c **** 
 2842              		.loc 2 138 1 view .LVU914
 2843 000c 08BD     		pop	{r3, pc}
 2844              	.L179:
 2845 000e 00BF     		.align	2
 2846              	.L178:
 2847 0010 00000000 		.word	.LANCHOR2
 2848              		.cfi_endproc
 2849              	.LFE174:
 2851              		.section	.text.lv_style_set_flex_cross_place,"ax",%progbits
 2852              		.align	1
 2853              		.global	lv_style_set_flex_cross_place
 2854              		.syntax unified
 2855              		.thumb
 2856              		.thumb_func
 2858              	lv_style_set_flex_cross_place:
 2859              	.LVL285:
 2860              	.LFB175:
 141:Middlewares/LVGL/GUI/lvgl/src/extra/layouts/flex/lv_flex.c ****     lv_style_value_t v = {
 2861              		.loc 2 141 1 is_stmt 1 view -0
 2862              		.cfi_startproc
ARM GAS  C:\Users\ADMINI~1\AppData\Local\Temp\ccyi9XNv.s 			page 90


 2863              		@ args = 0, pretend = 0, frame = 0
 2864              		@ frame_needed = 0, uses_anonymous_args = 0
 141:Middlewares/LVGL/GUI/lvgl/src/extra/layouts/flex/lv_flex.c ****     lv_style_value_t v = {
 2865              		.loc 2 141 1 is_stmt 0 view .LVU916
 2866 0000 08B5     		push	{r3, lr}
 2867              	.LCFI17:
 2868              		.cfi_def_cfa_offset 8
 2869              		.cfi_offset 3, -8
 2870              		.cfi_offset 14, -4
 2871 0002 0A46     		mov	r2, r1
 142:Middlewares/LVGL/GUI/lvgl/src/extra/layouts/flex/lv_flex.c ****         .num = (int32_t)value
 2872              		.loc 2 142 5 is_stmt 1 view .LVU917
 145:Middlewares/LVGL/GUI/lvgl/src/extra/layouts/flex/lv_flex.c **** }
 2873              		.loc 2 145 5 view .LVU918
 2874 0004 024B     		ldr	r3, .L182
 2875 0006 1988     		ldrh	r1, [r3]
 2876              	.LVL286:
 145:Middlewares/LVGL/GUI/lvgl/src/extra/layouts/flex/lv_flex.c **** }
 2877              		.loc 2 145 5 is_stmt 0 view .LVU919
 2878 0008 FFF7FEFF 		bl	lv_style_set_prop
 2879              	.LVL287:
 146:Middlewares/LVGL/GUI/lvgl/src/extra/layouts/flex/lv_flex.c **** 
 2880              		.loc 2 146 1 view .LVU920
 2881 000c 08BD     		pop	{r3, pc}
 2882              	.L183:
 2883 000e 00BF     		.align	2
 2884              	.L182:
 2885 0010 00000000 		.word	.LANCHOR3
 2886              		.cfi_endproc
 2887              	.LFE175:
 2889              		.section	.text.lv_style_set_flex_track_place,"ax",%progbits
 2890              		.align	1
 2891              		.global	lv_style_set_flex_track_place
 2892              		.syntax unified
 2893              		.thumb
 2894              		.thumb_func
 2896              	lv_style_set_flex_track_place:
 2897              	.LVL288:
 2898              	.LFB176:
 149:Middlewares/LVGL/GUI/lvgl/src/extra/layouts/flex/lv_flex.c ****     lv_style_value_t v = {
 2899              		.loc 2 149 1 is_stmt 1 view -0
 2900              		.cfi_startproc
 2901              		@ args = 0, pretend = 0, frame = 0
 2902              		@ frame_needed = 0, uses_anonymous_args = 0
 149:Middlewares/LVGL/GUI/lvgl/src/extra/layouts/flex/lv_flex.c ****     lv_style_value_t v = {
 2903              		.loc 2 149 1 is_stmt 0 view .LVU922
 2904 0000 08B5     		push	{r3, lr}
 2905              	.LCFI18:
 2906              		.cfi_def_cfa_offset 8
 2907              		.cfi_offset 3, -8
 2908              		.cfi_offset 14, -4
 2909 0002 0A46     		mov	r2, r1
 150:Middlewares/LVGL/GUI/lvgl/src/extra/layouts/flex/lv_flex.c ****         .num = (int32_t)value
 2910              		.loc 2 150 5 is_stmt 1 view .LVU923
 153:Middlewares/LVGL/GUI/lvgl/src/extra/layouts/flex/lv_flex.c **** }
 2911              		.loc 2 153 5 view .LVU924
 2912 0004 024B     		ldr	r3, .L186
ARM GAS  C:\Users\ADMINI~1\AppData\Local\Temp\ccyi9XNv.s 			page 91


 2913 0006 1988     		ldrh	r1, [r3]
 2914              	.LVL289:
 153:Middlewares/LVGL/GUI/lvgl/src/extra/layouts/flex/lv_flex.c **** }
 2915              		.loc 2 153 5 is_stmt 0 view .LVU925
 2916 0008 FFF7FEFF 		bl	lv_style_set_prop
 2917              	.LVL290:
 154:Middlewares/LVGL/GUI/lvgl/src/extra/layouts/flex/lv_flex.c **** 
 2918              		.loc 2 154 1 view .LVU926
 2919 000c 08BD     		pop	{r3, pc}
 2920              	.L187:
 2921 000e 00BF     		.align	2
 2922              	.L186:
 2923 0010 00000000 		.word	.LANCHOR4
 2924              		.cfi_endproc
 2925              	.LFE176:
 2927              		.section	.text.lv_style_set_flex_grow,"ax",%progbits
 2928              		.align	1
 2929              		.global	lv_style_set_flex_grow
 2930              		.syntax unified
 2931              		.thumb
 2932              		.thumb_func
 2934              	lv_style_set_flex_grow:
 2935              	.LVL291:
 2936              	.LFB177:
 157:Middlewares/LVGL/GUI/lvgl/src/extra/layouts/flex/lv_flex.c ****     lv_style_value_t v = {
 2937              		.loc 2 157 1 is_stmt 1 view -0
 2938              		.cfi_startproc
 2939              		@ args = 0, pretend = 0, frame = 0
 2940              		@ frame_needed = 0, uses_anonymous_args = 0
 157:Middlewares/LVGL/GUI/lvgl/src/extra/layouts/flex/lv_flex.c ****     lv_style_value_t v = {
 2941              		.loc 2 157 1 is_stmt 0 view .LVU928
 2942 0000 08B5     		push	{r3, lr}
 2943              	.LCFI19:
 2944              		.cfi_def_cfa_offset 8
 2945              		.cfi_offset 3, -8
 2946              		.cfi_offset 14, -4
 2947 0002 0A46     		mov	r2, r1
 158:Middlewares/LVGL/GUI/lvgl/src/extra/layouts/flex/lv_flex.c ****         .num = (int32_t)value
 2948              		.loc 2 158 5 is_stmt 1 view .LVU929
 161:Middlewares/LVGL/GUI/lvgl/src/extra/layouts/flex/lv_flex.c **** }
 2949              		.loc 2 161 5 view .LVU930
 2950 0004 024B     		ldr	r3, .L190
 2951 0006 1988     		ldrh	r1, [r3]
 2952              	.LVL292:
 161:Middlewares/LVGL/GUI/lvgl/src/extra/layouts/flex/lv_flex.c **** }
 2953              		.loc 2 161 5 is_stmt 0 view .LVU931
 2954 0008 FFF7FEFF 		bl	lv_style_set_prop
 2955              	.LVL293:
 162:Middlewares/LVGL/GUI/lvgl/src/extra/layouts/flex/lv_flex.c **** 
 2956              		.loc 2 162 1 view .LVU932
 2957 000c 08BD     		pop	{r3, pc}
 2958              	.L191:
 2959 000e 00BF     		.align	2
 2960              	.L190:
 2961 0010 00000000 		.word	.LANCHOR0
 2962              		.cfi_endproc
 2963              	.LFE177:
ARM GAS  C:\Users\ADMINI~1\AppData\Local\Temp\ccyi9XNv.s 			page 92


 2965              		.section	.text.lv_obj_set_style_flex_flow,"ax",%progbits
 2966              		.align	1
 2967              		.global	lv_obj_set_style_flex_flow
 2968              		.syntax unified
 2969              		.thumb
 2970              		.thumb_func
 2972              	lv_obj_set_style_flex_flow:
 2973              	.LVL294:
 2974              	.LFB178:
 166:Middlewares/LVGL/GUI/lvgl/src/extra/layouts/flex/lv_flex.c ****     lv_style_value_t v = {
 2975              		.loc 2 166 1 is_stmt 1 view -0
 2976              		.cfi_startproc
 2977              		@ args = 0, pretend = 0, frame = 0
 2978              		@ frame_needed = 0, uses_anonymous_args = 0
 166:Middlewares/LVGL/GUI/lvgl/src/extra/layouts/flex/lv_flex.c ****     lv_style_value_t v = {
 2979              		.loc 2 166 1 is_stmt 0 view .LVU934
 2980 0000 08B5     		push	{r3, lr}
 2981              	.LCFI20:
 2982              		.cfi_def_cfa_offset 8
 2983              		.cfi_offset 3, -8
 2984              		.cfi_offset 14, -4
 2985 0002 1346     		mov	r3, r2
 167:Middlewares/LVGL/GUI/lvgl/src/extra/layouts/flex/lv_flex.c ****         .num = (int32_t) value
 2986              		.loc 2 167 5 is_stmt 1 view .LVU935
 170:Middlewares/LVGL/GUI/lvgl/src/extra/layouts/flex/lv_flex.c **** }
 2987              		.loc 2 170 5 view .LVU936
 2988 0004 0A46     		mov	r2, r1
 2989              	.LVL295:
 170:Middlewares/LVGL/GUI/lvgl/src/extra/layouts/flex/lv_flex.c **** }
 2990              		.loc 2 170 5 is_stmt 0 view .LVU937
 2991 0006 0249     		ldr	r1, .L194
 2992              	.LVL296:
 170:Middlewares/LVGL/GUI/lvgl/src/extra/layouts/flex/lv_flex.c **** }
 2993              		.loc 2 170 5 view .LVU938
 2994 0008 0988     		ldrh	r1, [r1]
 2995 000a FFF7FEFF 		bl	lv_obj_set_local_style_prop
 2996              	.LVL297:
 171:Middlewares/LVGL/GUI/lvgl/src/extra/layouts/flex/lv_flex.c **** 
 2997              		.loc 2 171 1 view .LVU939
 2998 000e 08BD     		pop	{r3, pc}
 2999              	.L195:
 3000              		.align	2
 3001              	.L194:
 3002 0010 00000000 		.word	.LANCHOR1
 3003              		.cfi_endproc
 3004              	.LFE178:
 3006              		.section	.text.lv_obj_set_flex_flow,"ax",%progbits
 3007              		.align	1
 3008              		.global	lv_obj_set_flex_flow
 3009              		.syntax unified
 3010              		.thumb
 3011              		.thumb_func
 3013              	lv_obj_set_flex_flow:
 3014              	.LVL298:
 3015              	.LFB170:
 103:Middlewares/LVGL/GUI/lvgl/src/extra/layouts/flex/lv_flex.c ****     lv_obj_set_style_flex_flow(obj, flow, 0);
 3016              		.loc 2 103 1 is_stmt 1 view -0
ARM GAS  C:\Users\ADMINI~1\AppData\Local\Temp\ccyi9XNv.s 			page 93


 3017              		.cfi_startproc
 3018              		@ args = 0, pretend = 0, frame = 0
 3019              		@ frame_needed = 0, uses_anonymous_args = 0
 103:Middlewares/LVGL/GUI/lvgl/src/extra/layouts/flex/lv_flex.c ****     lv_obj_set_style_flex_flow(obj, flow, 0);
 3020              		.loc 2 103 1 is_stmt 0 view .LVU941
 3021 0000 10B5     		push	{r4, lr}
 3022              	.LCFI21:
 3023              		.cfi_def_cfa_offset 8
 3024              		.cfi_offset 4, -8
 3025              		.cfi_offset 14, -4
 3026 0002 0446     		mov	r4, r0
 104:Middlewares/LVGL/GUI/lvgl/src/extra/layouts/flex/lv_flex.c ****     lv_obj_set_style_layout(obj, LV_LAYOUT_FLEX, 0);
 3027              		.loc 2 104 5 is_stmt 1 view .LVU942
 3028 0004 0022     		movs	r2, #0
 3029 0006 FFF7FEFF 		bl	lv_obj_set_style_flex_flow
 3030              	.LVL299:
 105:Middlewares/LVGL/GUI/lvgl/src/extra/layouts/flex/lv_flex.c **** }
 3031              		.loc 2 105 5 view .LVU943
 3032 000a 0022     		movs	r2, #0
 3033 000c 024B     		ldr	r3, .L198
 3034 000e 1988     		ldrh	r1, [r3]
 3035 0010 2046     		mov	r0, r4
 3036 0012 FFF7FEFF 		bl	lv_obj_set_style_layout
 3037              	.LVL300:
 106:Middlewares/LVGL/GUI/lvgl/src/extra/layouts/flex/lv_flex.c **** 
 3038              		.loc 2 106 1 is_stmt 0 view .LVU944
 3039 0016 10BD     		pop	{r4, pc}
 3040              	.LVL301:
 3041              	.L199:
 106:Middlewares/LVGL/GUI/lvgl/src/extra/layouts/flex/lv_flex.c **** 
 3042              		.loc 2 106 1 view .LVU945
 3043              		.align	2
 3044              	.L198:
 3045 0018 00000000 		.word	.LANCHOR5
 3046              		.cfi_endproc
 3047              	.LFE170:
 3049              		.section	.text.lv_obj_set_style_flex_main_place,"ax",%progbits
 3050              		.align	1
 3051              		.global	lv_obj_set_style_flex_main_place
 3052              		.syntax unified
 3053              		.thumb
 3054              		.thumb_func
 3056              	lv_obj_set_style_flex_main_place:
 3057              	.LVL302:
 3058              	.LFB179:
 174:Middlewares/LVGL/GUI/lvgl/src/extra/layouts/flex/lv_flex.c ****     lv_style_value_t v = {
 3059              		.loc 2 174 1 is_stmt 1 view -0
 3060              		.cfi_startproc
 3061              		@ args = 0, pretend = 0, frame = 0
 3062              		@ frame_needed = 0, uses_anonymous_args = 0
 174:Middlewares/LVGL/GUI/lvgl/src/extra/layouts/flex/lv_flex.c ****     lv_style_value_t v = {
 3063              		.loc 2 174 1 is_stmt 0 view .LVU947
 3064 0000 08B5     		push	{r3, lr}
 3065              	.LCFI22:
 3066              		.cfi_def_cfa_offset 8
 3067              		.cfi_offset 3, -8
 3068              		.cfi_offset 14, -4
ARM GAS  C:\Users\ADMINI~1\AppData\Local\Temp\ccyi9XNv.s 			page 94


 3069 0002 1346     		mov	r3, r2
 175:Middlewares/LVGL/GUI/lvgl/src/extra/layouts/flex/lv_flex.c ****         .num = (int32_t) value
 3070              		.loc 2 175 5 is_stmt 1 view .LVU948
 178:Middlewares/LVGL/GUI/lvgl/src/extra/layouts/flex/lv_flex.c **** }
 3071              		.loc 2 178 5 view .LVU949
 3072 0004 0A46     		mov	r2, r1
 3073              	.LVL303:
 178:Middlewares/LVGL/GUI/lvgl/src/extra/layouts/flex/lv_flex.c **** }
 3074              		.loc 2 178 5 is_stmt 0 view .LVU950
 3075 0006 0249     		ldr	r1, .L202
 3076              	.LVL304:
 178:Middlewares/LVGL/GUI/lvgl/src/extra/layouts/flex/lv_flex.c **** }
 3077              		.loc 2 178 5 view .LVU951
 3078 0008 0988     		ldrh	r1, [r1]
 3079 000a FFF7FEFF 		bl	lv_obj_set_local_style_prop
 3080              	.LVL305:
 179:Middlewares/LVGL/GUI/lvgl/src/extra/layouts/flex/lv_flex.c **** 
 3081              		.loc 2 179 1 view .LVU952
 3082 000e 08BD     		pop	{r3, pc}
 3083              	.L203:
 3084              		.align	2
 3085              	.L202:
 3086 0010 00000000 		.word	.LANCHOR2
 3087              		.cfi_endproc
 3088              	.LFE179:
 3090              		.section	.text.lv_obj_set_style_flex_cross_place,"ax",%progbits
 3091              		.align	1
 3092              		.global	lv_obj_set_style_flex_cross_place
 3093              		.syntax unified
 3094              		.thumb
 3095              		.thumb_func
 3097              	lv_obj_set_style_flex_cross_place:
 3098              	.LVL306:
 3099              	.LFB180:
 182:Middlewares/LVGL/GUI/lvgl/src/extra/layouts/flex/lv_flex.c ****     lv_style_value_t v = {
 3100              		.loc 2 182 1 is_stmt 1 view -0
 3101              		.cfi_startproc
 3102              		@ args = 0, pretend = 0, frame = 0
 3103              		@ frame_needed = 0, uses_anonymous_args = 0
 182:Middlewares/LVGL/GUI/lvgl/src/extra/layouts/flex/lv_flex.c ****     lv_style_value_t v = {
 3104              		.loc 2 182 1 is_stmt 0 view .LVU954
 3105 0000 08B5     		push	{r3, lr}
 3106              	.LCFI23:
 3107              		.cfi_def_cfa_offset 8
 3108              		.cfi_offset 3, -8
 3109              		.cfi_offset 14, -4
 3110 0002 1346     		mov	r3, r2
 183:Middlewares/LVGL/GUI/lvgl/src/extra/layouts/flex/lv_flex.c ****         .num = (int32_t) value
 3111              		.loc 2 183 5 is_stmt 1 view .LVU955
 186:Middlewares/LVGL/GUI/lvgl/src/extra/layouts/flex/lv_flex.c **** }
 3112              		.loc 2 186 5 view .LVU956
 3113 0004 0A46     		mov	r2, r1
 3114              	.LVL307:
 186:Middlewares/LVGL/GUI/lvgl/src/extra/layouts/flex/lv_flex.c **** }
 3115              		.loc 2 186 5 is_stmt 0 view .LVU957
 3116 0006 0249     		ldr	r1, .L206
 3117              	.LVL308:
ARM GAS  C:\Users\ADMINI~1\AppData\Local\Temp\ccyi9XNv.s 			page 95


 186:Middlewares/LVGL/GUI/lvgl/src/extra/layouts/flex/lv_flex.c **** }
 3118              		.loc 2 186 5 view .LVU958
 3119 0008 0988     		ldrh	r1, [r1]
 3120 000a FFF7FEFF 		bl	lv_obj_set_local_style_prop
 3121              	.LVL309:
 187:Middlewares/LVGL/GUI/lvgl/src/extra/layouts/flex/lv_flex.c **** 
 3122              		.loc 2 187 1 view .LVU959
 3123 000e 08BD     		pop	{r3, pc}
 3124              	.L207:
 3125              		.align	2
 3126              	.L206:
 3127 0010 00000000 		.word	.LANCHOR3
 3128              		.cfi_endproc
 3129              	.LFE180:
 3131              		.section	.text.lv_obj_set_style_flex_track_place,"ax",%progbits
 3132              		.align	1
 3133              		.global	lv_obj_set_style_flex_track_place
 3134              		.syntax unified
 3135              		.thumb
 3136              		.thumb_func
 3138              	lv_obj_set_style_flex_track_place:
 3139              	.LVL310:
 3140              	.LFB181:
 190:Middlewares/LVGL/GUI/lvgl/src/extra/layouts/flex/lv_flex.c ****     lv_style_value_t v = {
 3141              		.loc 2 190 1 is_stmt 1 view -0
 3142              		.cfi_startproc
 3143              		@ args = 0, pretend = 0, frame = 0
 3144              		@ frame_needed = 0, uses_anonymous_args = 0
 190:Middlewares/LVGL/GUI/lvgl/src/extra/layouts/flex/lv_flex.c ****     lv_style_value_t v = {
 3145              		.loc 2 190 1 is_stmt 0 view .LVU961
 3146 0000 08B5     		push	{r3, lr}
 3147              	.LCFI24:
 3148              		.cfi_def_cfa_offset 8
 3149              		.cfi_offset 3, -8
 3150              		.cfi_offset 14, -4
 3151 0002 1346     		mov	r3, r2
 191:Middlewares/LVGL/GUI/lvgl/src/extra/layouts/flex/lv_flex.c ****         .num = (int32_t) value
 3152              		.loc 2 191 5 is_stmt 1 view .LVU962
 194:Middlewares/LVGL/GUI/lvgl/src/extra/layouts/flex/lv_flex.c **** }
 3153              		.loc 2 194 5 view .LVU963
 3154 0004 0A46     		mov	r2, r1
 3155              	.LVL311:
 194:Middlewares/LVGL/GUI/lvgl/src/extra/layouts/flex/lv_flex.c **** }
 3156              		.loc 2 194 5 is_stmt 0 view .LVU964
 3157 0006 0249     		ldr	r1, .L210
 3158              	.LVL312:
 194:Middlewares/LVGL/GUI/lvgl/src/extra/layouts/flex/lv_flex.c **** }
 3159              		.loc 2 194 5 view .LVU965
 3160 0008 0988     		ldrh	r1, [r1]
 3161 000a FFF7FEFF 		bl	lv_obj_set_local_style_prop
 3162              	.LVL313:
 195:Middlewares/LVGL/GUI/lvgl/src/extra/layouts/flex/lv_flex.c **** 
 3163              		.loc 2 195 1 view .LVU966
 3164 000e 08BD     		pop	{r3, pc}
 3165              	.L211:
 3166              		.align	2
 3167              	.L210:
ARM GAS  C:\Users\ADMINI~1\AppData\Local\Temp\ccyi9XNv.s 			page 96


 3168 0010 00000000 		.word	.LANCHOR4
 3169              		.cfi_endproc
 3170              	.LFE181:
 3172              		.section	.text.lv_obj_set_flex_align,"ax",%progbits
 3173              		.align	1
 3174              		.global	lv_obj_set_flex_align
 3175              		.syntax unified
 3176              		.thumb
 3177              		.thumb_func
 3179              	lv_obj_set_flex_align:
 3180              	.LVL314:
 3181              	.LFB171:
 110:Middlewares/LVGL/GUI/lvgl/src/extra/layouts/flex/lv_flex.c ****     lv_obj_set_style_flex_main_place(obj, main_place, 0);
 3182              		.loc 2 110 1 is_stmt 1 view -0
 3183              		.cfi_startproc
 3184              		@ args = 0, pretend = 0, frame = 0
 3185              		@ frame_needed = 0, uses_anonymous_args = 0
 110:Middlewares/LVGL/GUI/lvgl/src/extra/layouts/flex/lv_flex.c ****     lv_obj_set_style_flex_main_place(obj, main_place, 0);
 3186              		.loc 2 110 1 is_stmt 0 view .LVU968
 3187 0000 70B5     		push	{r4, r5, r6, lr}
 3188              	.LCFI25:
 3189              		.cfi_def_cfa_offset 16
 3190              		.cfi_offset 4, -16
 3191              		.cfi_offset 5, -12
 3192              		.cfi_offset 6, -8
 3193              		.cfi_offset 14, -4
 3194 0002 0446     		mov	r4, r0
 3195 0004 1646     		mov	r6, r2
 3196 0006 1D46     		mov	r5, r3
 111:Middlewares/LVGL/GUI/lvgl/src/extra/layouts/flex/lv_flex.c ****     lv_obj_set_style_flex_cross_place(obj, cross_place, 0);
 3197              		.loc 2 111 5 is_stmt 1 view .LVU969
 3198 0008 0022     		movs	r2, #0
 3199              	.LVL315:
 111:Middlewares/LVGL/GUI/lvgl/src/extra/layouts/flex/lv_flex.c ****     lv_obj_set_style_flex_cross_place(obj, cross_place, 0);
 3200              		.loc 2 111 5 is_stmt 0 view .LVU970
 3201 000a FFF7FEFF 		bl	lv_obj_set_style_flex_main_place
 3202              	.LVL316:
 112:Middlewares/LVGL/GUI/lvgl/src/extra/layouts/flex/lv_flex.c ****     lv_obj_set_style_flex_track_place(obj, track_place, 0);
 3203              		.loc 2 112 5 is_stmt 1 view .LVU971
 3204 000e 0022     		movs	r2, #0
 3205 0010 3146     		mov	r1, r6
 3206 0012 2046     		mov	r0, r4
 3207 0014 FFF7FEFF 		bl	lv_obj_set_style_flex_cross_place
 3208              	.LVL317:
 113:Middlewares/LVGL/GUI/lvgl/src/extra/layouts/flex/lv_flex.c ****     lv_obj_set_style_layout(obj, LV_LAYOUT_FLEX, 0);
 3209              		.loc 2 113 5 view .LVU972
 3210 0018 0022     		movs	r2, #0
 3211 001a 2946     		mov	r1, r5
 3212 001c 2046     		mov	r0, r4
 3213 001e FFF7FEFF 		bl	lv_obj_set_style_flex_track_place
 3214              	.LVL318:
 114:Middlewares/LVGL/GUI/lvgl/src/extra/layouts/flex/lv_flex.c **** }
 3215              		.loc 2 114 5 view .LVU973
 3216 0022 0022     		movs	r2, #0
 3217 0024 024B     		ldr	r3, .L214
 3218 0026 1988     		ldrh	r1, [r3]
 3219 0028 2046     		mov	r0, r4
ARM GAS  C:\Users\ADMINI~1\AppData\Local\Temp\ccyi9XNv.s 			page 97


 3220 002a FFF7FEFF 		bl	lv_obj_set_style_layout
 3221              	.LVL319:
 115:Middlewares/LVGL/GUI/lvgl/src/extra/layouts/flex/lv_flex.c **** 
 3222              		.loc 2 115 1 is_stmt 0 view .LVU974
 3223 002e 70BD     		pop	{r4, r5, r6, pc}
 3224              	.LVL320:
 3225              	.L215:
 115:Middlewares/LVGL/GUI/lvgl/src/extra/layouts/flex/lv_flex.c **** 
 3226              		.loc 2 115 1 view .LVU975
 3227              		.align	2
 3228              	.L214:
 3229 0030 00000000 		.word	.LANCHOR5
 3230              		.cfi_endproc
 3231              	.LFE171:
 3233              		.section	.text.lv_obj_set_style_flex_grow,"ax",%progbits
 3234              		.align	1
 3235              		.global	lv_obj_set_style_flex_grow
 3236              		.syntax unified
 3237              		.thumb
 3238              		.thumb_func
 3240              	lv_obj_set_style_flex_grow:
 3241              	.LVL321:
 3242              	.LFB182:
 198:Middlewares/LVGL/GUI/lvgl/src/extra/layouts/flex/lv_flex.c ****     lv_style_value_t v = {
 3243              		.loc 2 198 1 is_stmt 1 view -0
 3244              		.cfi_startproc
 3245              		@ args = 0, pretend = 0, frame = 0
 3246              		@ frame_needed = 0, uses_anonymous_args = 0
 198:Middlewares/LVGL/GUI/lvgl/src/extra/layouts/flex/lv_flex.c ****     lv_style_value_t v = {
 3247              		.loc 2 198 1 is_stmt 0 view .LVU977
 3248 0000 08B5     		push	{r3, lr}
 3249              	.LCFI26:
 3250              		.cfi_def_cfa_offset 8
 3251              		.cfi_offset 3, -8
 3252              		.cfi_offset 14, -4
 3253 0002 1346     		mov	r3, r2
 199:Middlewares/LVGL/GUI/lvgl/src/extra/layouts/flex/lv_flex.c ****         .num = (int32_t) value
 3254              		.loc 2 199 5 is_stmt 1 view .LVU978
 202:Middlewares/LVGL/GUI/lvgl/src/extra/layouts/flex/lv_flex.c **** }
 3255              		.loc 2 202 5 view .LVU979
 3256 0004 0A46     		mov	r2, r1
 3257              	.LVL322:
 202:Middlewares/LVGL/GUI/lvgl/src/extra/layouts/flex/lv_flex.c **** }
 3258              		.loc 2 202 5 is_stmt 0 view .LVU980
 3259 0006 0249     		ldr	r1, .L218
 3260              	.LVL323:
 202:Middlewares/LVGL/GUI/lvgl/src/extra/layouts/flex/lv_flex.c **** }
 3261              		.loc 2 202 5 view .LVU981
 3262 0008 0988     		ldrh	r1, [r1]
 3263 000a FFF7FEFF 		bl	lv_obj_set_local_style_prop
 3264              	.LVL324:
 203:Middlewares/LVGL/GUI/lvgl/src/extra/layouts/flex/lv_flex.c **** 
 3265              		.loc 2 203 1 view .LVU982
 3266 000e 08BD     		pop	{r3, pc}
 3267              	.L219:
 3268              		.align	2
 3269              	.L218:
ARM GAS  C:\Users\ADMINI~1\AppData\Local\Temp\ccyi9XNv.s 			page 98


 3270 0010 00000000 		.word	.LANCHOR0
 3271              		.cfi_endproc
 3272              	.LFE182:
 3274              		.section	.text.lv_obj_set_flex_grow,"ax",%progbits
 3275              		.align	1
 3276              		.global	lv_obj_set_flex_grow
 3277              		.syntax unified
 3278              		.thumb
 3279              		.thumb_func
 3281              	lv_obj_set_flex_grow:
 3282              	.LVL325:
 3283              	.LFB172:
 118:Middlewares/LVGL/GUI/lvgl/src/extra/layouts/flex/lv_flex.c ****     lv_obj_set_style_flex_grow(obj, grow, 0);
 3284              		.loc 2 118 1 is_stmt 1 view -0
 3285              		.cfi_startproc
 3286              		@ args = 0, pretend = 0, frame = 0
 3287              		@ frame_needed = 0, uses_anonymous_args = 0
 118:Middlewares/LVGL/GUI/lvgl/src/extra/layouts/flex/lv_flex.c ****     lv_obj_set_style_flex_grow(obj, grow, 0);
 3288              		.loc 2 118 1 is_stmt 0 view .LVU984
 3289 0000 10B5     		push	{r4, lr}
 3290              	.LCFI27:
 3291              		.cfi_def_cfa_offset 8
 3292              		.cfi_offset 4, -8
 3293              		.cfi_offset 14, -4
 3294 0002 0446     		mov	r4, r0
 119:Middlewares/LVGL/GUI/lvgl/src/extra/layouts/flex/lv_flex.c ****     lv_obj_mark_layout_as_dirty(lv_obj_get_parent(obj));
 3295              		.loc 2 119 5 is_stmt 1 view .LVU985
 3296 0004 0022     		movs	r2, #0
 3297 0006 FFF7FEFF 		bl	lv_obj_set_style_flex_grow
 3298              	.LVL326:
 120:Middlewares/LVGL/GUI/lvgl/src/extra/layouts/flex/lv_flex.c **** }
 3299              		.loc 2 120 5 view .LVU986
 3300 000a 2046     		mov	r0, r4
 3301 000c FFF7FEFF 		bl	lv_obj_get_parent
 3302              	.LVL327:
 3303 0010 FFF7FEFF 		bl	lv_obj_mark_layout_as_dirty
 3304              	.LVL328:
 121:Middlewares/LVGL/GUI/lvgl/src/extra/layouts/flex/lv_flex.c **** 
 3305              		.loc 2 121 1 is_stmt 0 view .LVU987
 3306 0014 10BD     		pop	{r4, pc}
 121:Middlewares/LVGL/GUI/lvgl/src/extra/layouts/flex/lv_flex.c **** 
 3307              		.loc 2 121 1 view .LVU988
 3308              		.cfi_endproc
 3309              	.LFE172:
 3311              		.global	LV_STYLE_FLEX_GROW
 3312              		.global	LV_STYLE_FLEX_TRACK_PLACE
 3313              		.global	LV_STYLE_FLEX_CROSS_PLACE
 3314              		.global	LV_STYLE_FLEX_MAIN_PLACE
 3315              		.global	LV_STYLE_FLEX_FLOW
 3316              		.global	LV_LAYOUT_FLEX
 3317              		.section	.bss.LV_LAYOUT_FLEX,"aw",%nobits
 3318              		.align	2
 3319              		.set	.LANCHOR5,. + 0
 3322              	LV_LAYOUT_FLEX:
 3323 0000 00000000 		.space	4
 3324              		.section	.bss.LV_STYLE_FLEX_CROSS_PLACE,"aw",%nobits
 3325              		.align	1
ARM GAS  C:\Users\ADMINI~1\AppData\Local\Temp\ccyi9XNv.s 			page 99


 3326              		.set	.LANCHOR3,. + 0
 3329              	LV_STYLE_FLEX_CROSS_PLACE:
 3330 0000 0000     		.space	2
 3331              		.section	.bss.LV_STYLE_FLEX_FLOW,"aw",%nobits
 3332              		.align	1
 3333              		.set	.LANCHOR1,. + 0
 3336              	LV_STYLE_FLEX_FLOW:
 3337 0000 0000     		.space	2
 3338              		.section	.bss.LV_STYLE_FLEX_GROW,"aw",%nobits
 3339              		.align	1
 3340              		.set	.LANCHOR0,. + 0
 3343              	LV_STYLE_FLEX_GROW:
 3344 0000 0000     		.space	2
 3345              		.section	.bss.LV_STYLE_FLEX_MAIN_PLACE,"aw",%nobits
 3346              		.align	1
 3347              		.set	.LANCHOR2,. + 0
 3350              	LV_STYLE_FLEX_MAIN_PLACE:
 3351 0000 0000     		.space	2
 3352              		.section	.bss.LV_STYLE_FLEX_TRACK_PLACE,"aw",%nobits
 3353              		.align	1
 3354              		.set	.LANCHOR4,. + 0
 3357              	LV_STYLE_FLEX_TRACK_PLACE:
 3358 0000 0000     		.space	2
 3359              		.text
 3360              	.Letext0:
 3361              		.file 5 "c:\\gnu arm embedded toolchain\\10 2021.10\\arm-none-eabi\\include\\machine\\_default_typ
 3362              		.file 6 "c:\\gnu arm embedded toolchain\\10 2021.10\\arm-none-eabi\\include\\sys\\_stdint.h"
 3363              		.file 7 "Middlewares/LVGL/GUI/lvgl/src/extra/layouts/flex/../flex/../../../core/../misc/lv_color.h
 3364              		.file 8 "Middlewares/LVGL/GUI/lvgl/src/extra/layouts/flex/../flex/../../../core/../misc/lv_bidi.h"
 3365              		.file 9 "Middlewares/LVGL/GUI/lvgl/src/extra/layouts/flex/../flex/../../../core/../misc/lv_style.h
 3366              		.file 10 "Middlewares/LVGL/GUI/lvgl/src/extra/layouts/flex/../flex/../../../core/lv_obj.h"
 3367              		.file 11 "Middlewares/LVGL/GUI/lvgl/src/extra/layouts/flex/../flex/../../../core/../hal/../misc/lv
 3368              		.file 12 "Middlewares/LVGL/GUI/lvgl/src/extra/layouts/flex/../flex/../../../core/lv_group.h"
 3369              		.file 13 "Middlewares/LVGL/GUI/lvgl/src/extra/layouts/flex/../flex/../../../core/lv_obj_scroll.h"
 3370              		.file 14 "Middlewares/LVGL/GUI/lvgl/src/extra/layouts/flex/../flex/../../../core/lv_obj_style.h"
 3371              		.file 15 "Middlewares/LVGL/GUI/lvgl/src/extra/layouts/flex/../flex/../../../core/lv_obj_class.h"
 3372              		.file 16 "Middlewares/LVGL/GUI/lvgl/src/extra/layouts/flex/../flex/../../../core/lv_event.h"
 3373              		.file 17 "Middlewares/LVGL/GUI/lvgl/src/extra/layouts/flex/../flex/../../../core/../hal/../draw/sw
 3374              		.file 18 "Middlewares/LVGL/GUI/lvgl/src/extra/layouts/flex/../flex/../../../core/lv_obj_tree.h"
 3375              		.file 19 "Middlewares/LVGL/GUI/lvgl/src/extra/layouts/flex/../flex/../../../core/../misc/lv_mem.h"
ARM GAS  C:\Users\ADMINI~1\AppData\Local\Temp\ccyi9XNv.s 			page 100


DEFINED SYMBOLS
                            *ABS*:00000000 lv_flex.c
C:\Users\ADMINI~1\AppData\Local\Temp\ccyi9XNv.s:20     .text.lv_area_get_width:00000000 $t
C:\Users\ADMINI~1\AppData\Local\Temp\ccyi9XNv.s:25     .text.lv_area_get_width:00000000 lv_area_get_width
C:\Users\ADMINI~1\AppData\Local\Temp\ccyi9XNv.s:49     .text.lv_area_get_height:00000000 $t
C:\Users\ADMINI~1\AppData\Local\Temp\ccyi9XNv.s:54     .text.lv_area_get_height:00000000 lv_area_get_height
C:\Users\ADMINI~1\AppData\Local\Temp\ccyi9XNv.s:77     .text.place_content:00000000 $t
C:\Users\ADMINI~1\AppData\Local\Temp\ccyi9XNv.s:82     .text.place_content:00000000 place_content
C:\Users\ADMINI~1\AppData\Local\Temp\ccyi9XNv.s:112    .text.place_content:00000014 $d
C:\Users\ADMINI~1\AppData\Local\Temp\ccyi9XNv.s:248    .text.get_next_item:00000000 $t
C:\Users\ADMINI~1\AppData\Local\Temp\ccyi9XNv.s:253    .text.get_next_item:00000000 get_next_item
C:\Users\ADMINI~1\AppData\Local\Temp\ccyi9XNv.s:329    .text.find_track_end:00000000 $t
C:\Users\ADMINI~1\AppData\Local\Temp\ccyi9XNv.s:334    .text.find_track_end:00000000 find_track_end
C:\Users\ADMINI~1\AppData\Local\Temp\ccyi9XNv.s:932    .text.find_track_end:0000024c $d
C:\Users\ADMINI~1\AppData\Local\Temp\ccyi9XNv.s:941    .text.children_repos:00000000 $t
C:\Users\ADMINI~1\AppData\Local\Temp\ccyi9XNv.s:946    .text.children_repos:00000000 children_repos
C:\Users\ADMINI~1\AppData\Local\Temp\ccyi9XNv.s:1631   .text.children_repos:000002ac $d
C:\Users\ADMINI~1\AppData\Local\Temp\ccyi9XNv.s:1639   .text.children_repos:000002c0 $t
C:\Users\ADMINI~1\AppData\Local\Temp\ccyi9XNv.s:1848   .text.children_repos:000003b4 $d
C:\Users\ADMINI~1\AppData\Local\Temp\ccyi9XNv.s:1854   .text.flex_update:00000000 $t
C:\Users\ADMINI~1\AppData\Local\Temp\ccyi9XNv.s:1859   .text.flex_update:00000000 flex_update
C:\Users\ADMINI~1\AppData\Local\Temp\ccyi9XNv.s:2552   .text.flex_update:000002ac $d
C:\Users\ADMINI~1\AppData\Local\Temp\ccyi9XNv.s:2561   .text.flex_update:000002c0 $t
C:\Users\ADMINI~1\AppData\Local\Temp\ccyi9XNv.s:2699   .text.flex_update:00000374 $d
C:\Users\ADMINI~1\AppData\Local\Temp\ccyi9XNv.s:2704   .text.lv_flex_init:00000000 $t
C:\Users\ADMINI~1\AppData\Local\Temp\ccyi9XNv.s:2710   .text.lv_flex_init:00000000 lv_flex_init
C:\Users\ADMINI~1\AppData\Local\Temp\ccyi9XNv.s:2766   .text.lv_flex_init:0000003c $d
C:\Users\ADMINI~1\AppData\Local\Temp\ccyi9XNv.s:2776   .text.lv_style_set_flex_flow:00000000 $t
C:\Users\ADMINI~1\AppData\Local\Temp\ccyi9XNv.s:2782   .text.lv_style_set_flex_flow:00000000 lv_style_set_flex_flow
C:\Users\ADMINI~1\AppData\Local\Temp\ccyi9XNv.s:2809   .text.lv_style_set_flex_flow:00000010 $d
C:\Users\ADMINI~1\AppData\Local\Temp\ccyi9XNv.s:2814   .text.lv_style_set_flex_main_place:00000000 $t
C:\Users\ADMINI~1\AppData\Local\Temp\ccyi9XNv.s:2820   .text.lv_style_set_flex_main_place:00000000 lv_style_set_flex_main_place
C:\Users\ADMINI~1\AppData\Local\Temp\ccyi9XNv.s:2847   .text.lv_style_set_flex_main_place:00000010 $d
C:\Users\ADMINI~1\AppData\Local\Temp\ccyi9XNv.s:2852   .text.lv_style_set_flex_cross_place:00000000 $t
C:\Users\ADMINI~1\AppData\Local\Temp\ccyi9XNv.s:2858   .text.lv_style_set_flex_cross_place:00000000 lv_style_set_flex_cross_place
C:\Users\ADMINI~1\AppData\Local\Temp\ccyi9XNv.s:2885   .text.lv_style_set_flex_cross_place:00000010 $d
C:\Users\ADMINI~1\AppData\Local\Temp\ccyi9XNv.s:2890   .text.lv_style_set_flex_track_place:00000000 $t
C:\Users\ADMINI~1\AppData\Local\Temp\ccyi9XNv.s:2896   .text.lv_style_set_flex_track_place:00000000 lv_style_set_flex_track_place
C:\Users\ADMINI~1\AppData\Local\Temp\ccyi9XNv.s:2923   .text.lv_style_set_flex_track_place:00000010 $d
C:\Users\ADMINI~1\AppData\Local\Temp\ccyi9XNv.s:2928   .text.lv_style_set_flex_grow:00000000 $t
C:\Users\ADMINI~1\AppData\Local\Temp\ccyi9XNv.s:2934   .text.lv_style_set_flex_grow:00000000 lv_style_set_flex_grow
C:\Users\ADMINI~1\AppData\Local\Temp\ccyi9XNv.s:2961   .text.lv_style_set_flex_grow:00000010 $d
C:\Users\ADMINI~1\AppData\Local\Temp\ccyi9XNv.s:2966   .text.lv_obj_set_style_flex_flow:00000000 $t
C:\Users\ADMINI~1\AppData\Local\Temp\ccyi9XNv.s:2972   .text.lv_obj_set_style_flex_flow:00000000 lv_obj_set_style_flex_flow
C:\Users\ADMINI~1\AppData\Local\Temp\ccyi9XNv.s:3002   .text.lv_obj_set_style_flex_flow:00000010 $d
C:\Users\ADMINI~1\AppData\Local\Temp\ccyi9XNv.s:3007   .text.lv_obj_set_flex_flow:00000000 $t
C:\Users\ADMINI~1\AppData\Local\Temp\ccyi9XNv.s:3013   .text.lv_obj_set_flex_flow:00000000 lv_obj_set_flex_flow
C:\Users\ADMINI~1\AppData\Local\Temp\ccyi9XNv.s:3045   .text.lv_obj_set_flex_flow:00000018 $d
C:\Users\ADMINI~1\AppData\Local\Temp\ccyi9XNv.s:3050   .text.lv_obj_set_style_flex_main_place:00000000 $t
C:\Users\ADMINI~1\AppData\Local\Temp\ccyi9XNv.s:3056   .text.lv_obj_set_style_flex_main_place:00000000 lv_obj_set_style_flex_main_place
C:\Users\ADMINI~1\AppData\Local\Temp\ccyi9XNv.s:3086   .text.lv_obj_set_style_flex_main_place:00000010 $d
C:\Users\ADMINI~1\AppData\Local\Temp\ccyi9XNv.s:3091   .text.lv_obj_set_style_flex_cross_place:00000000 $t
C:\Users\ADMINI~1\AppData\Local\Temp\ccyi9XNv.s:3097   .text.lv_obj_set_style_flex_cross_place:00000000 lv_obj_set_style_flex_cross_place
C:\Users\ADMINI~1\AppData\Local\Temp\ccyi9XNv.s:3127   .text.lv_obj_set_style_flex_cross_place:00000010 $d
C:\Users\ADMINI~1\AppData\Local\Temp\ccyi9XNv.s:3132   .text.lv_obj_set_style_flex_track_place:00000000 $t
C:\Users\ADMINI~1\AppData\Local\Temp\ccyi9XNv.s:3138   .text.lv_obj_set_style_flex_track_place:00000000 lv_obj_set_style_flex_track_place
C:\Users\ADMINI~1\AppData\Local\Temp\ccyi9XNv.s:3168   .text.lv_obj_set_style_flex_track_place:00000010 $d
ARM GAS  C:\Users\ADMINI~1\AppData\Local\Temp\ccyi9XNv.s 			page 101


C:\Users\ADMINI~1\AppData\Local\Temp\ccyi9XNv.s:3173   .text.lv_obj_set_flex_align:00000000 $t
C:\Users\ADMINI~1\AppData\Local\Temp\ccyi9XNv.s:3179   .text.lv_obj_set_flex_align:00000000 lv_obj_set_flex_align
C:\Users\ADMINI~1\AppData\Local\Temp\ccyi9XNv.s:3229   .text.lv_obj_set_flex_align:00000030 $d
C:\Users\ADMINI~1\AppData\Local\Temp\ccyi9XNv.s:3234   .text.lv_obj_set_style_flex_grow:00000000 $t
C:\Users\ADMINI~1\AppData\Local\Temp\ccyi9XNv.s:3240   .text.lv_obj_set_style_flex_grow:00000000 lv_obj_set_style_flex_grow
C:\Users\ADMINI~1\AppData\Local\Temp\ccyi9XNv.s:3270   .text.lv_obj_set_style_flex_grow:00000010 $d
C:\Users\ADMINI~1\AppData\Local\Temp\ccyi9XNv.s:3275   .text.lv_obj_set_flex_grow:00000000 $t
C:\Users\ADMINI~1\AppData\Local\Temp\ccyi9XNv.s:3281   .text.lv_obj_set_flex_grow:00000000 lv_obj_set_flex_grow
C:\Users\ADMINI~1\AppData\Local\Temp\ccyi9XNv.s:3343   .bss.LV_STYLE_FLEX_GROW:00000000 LV_STYLE_FLEX_GROW
C:\Users\ADMINI~1\AppData\Local\Temp\ccyi9XNv.s:3357   .bss.LV_STYLE_FLEX_TRACK_PLACE:00000000 LV_STYLE_FLEX_TRACK_PLACE
C:\Users\ADMINI~1\AppData\Local\Temp\ccyi9XNv.s:3329   .bss.LV_STYLE_FLEX_CROSS_PLACE:00000000 LV_STYLE_FLEX_CROSS_PLACE
C:\Users\ADMINI~1\AppData\Local\Temp\ccyi9XNv.s:3350   .bss.LV_STYLE_FLEX_MAIN_PLACE:00000000 LV_STYLE_FLEX_MAIN_PLACE
C:\Users\ADMINI~1\AppData\Local\Temp\ccyi9XNv.s:3336   .bss.LV_STYLE_FLEX_FLOW:00000000 LV_STYLE_FLEX_FLOW
C:\Users\ADMINI~1\AppData\Local\Temp\ccyi9XNv.s:3322   .bss.LV_LAYOUT_FLEX:00000000 LV_LAYOUT_FLEX
C:\Users\ADMINI~1\AppData\Local\Temp\ccyi9XNv.s:3318   .bss.LV_LAYOUT_FLEX:00000000 $d
C:\Users\ADMINI~1\AppData\Local\Temp\ccyi9XNv.s:3325   .bss.LV_STYLE_FLEX_CROSS_PLACE:00000000 $d
C:\Users\ADMINI~1\AppData\Local\Temp\ccyi9XNv.s:3332   .bss.LV_STYLE_FLEX_FLOW:00000000 $d
C:\Users\ADMINI~1\AppData\Local\Temp\ccyi9XNv.s:3339   .bss.LV_STYLE_FLEX_GROW:00000000 $d
C:\Users\ADMINI~1\AppData\Local\Temp\ccyi9XNv.s:3346   .bss.LV_STYLE_FLEX_MAIN_PLACE:00000000 $d
C:\Users\ADMINI~1\AppData\Local\Temp\ccyi9XNv.s:3353   .bss.LV_STYLE_FLEX_TRACK_PLACE:00000000 $d
C:\Users\ADMINI~1\AppData\Local\Temp\ccyi9XNv.s:118    .text.place_content:00000019 $d
C:\Users\ADMINI~1\AppData\Local\Temp\ccyi9XNv.s:118    .text.place_content:0000001a $t

UNDEFINED SYMBOLS
lv_obj_get_style_prop
lv_obj_get_child
lv_mem_buf_get
lv_memcpy
lv_mem_buf_release
lv_obj_has_flag
lv_obj_has_flag_any
lv_obj_get_width
lv_obj_get_height
lv_obj_get_content_width
lv_obj_invalidate
lv_event_send
lv_obj_get_parent
lv_area_set_width
lv_area_set_height
lv_obj_move_children_by
lv_obj_get_scroll_y
lv_obj_get_scroll_x
lv_obj_get_content_height
lv_obj_refr_size
lv_layout_register
lv_style_register_prop
lv_style_set_prop
lv_obj_set_local_style_prop
lv_obj_set_style_layout
lv_obj_mark_layout_as_dirty
