ARM GAS  C:\Users\ADMINI~1\AppData\Local\Temp\ccyi9XNv.s 			page 1


   1              		.cpu cortex-m4
   2              		.arch armv7e-m
   3              		.fpu fpv4-sp-d16
   4              		.eabi_attribute 27, 1
   5              		.eabi_attribute 28, 1
   6              		.eabi_attribute 20, 1
   7              		.eabi_attribute 21, 1
   8              		.eabi_attribute 23, 3
   9              		.eabi_attribute 24, 1
  10              		.eabi_attribute 25, 1
  11              		.eabi_attribute 26, 1
  12              		.eabi_attribute 30, 1
  13              		.eabi_attribute 34, 1
  14              		.eabi_attribute 18, 4
  15              		.file	"lv_flex.c"
  16              		.text
  17              	.Ltext0:
  18              		.cfi_sections	.debug_frame
  19              		.section	.text.lv_area_get_width,"ax",%progbits
  20              		.align	1
  21              		.syntax unified
  22              		.thumb
  23              		.thumb_func
  25              	lv_area_get_width:
  26              	.LVL0:
  27              	.LFB1:
  28              		.file 1 "Middlewares/LVGL/GUI/lvgl/src/extra/layouts/flex/../flex/../../../core/../misc/../font/..
   1:Middlewares/LVGL/GUI/lvgl/src/extra/layouts/flex/../flex/../../../core/../misc/../font/../misc/lv_area.h **** /**
   2:Middlewares/LVGL/GUI/lvgl/src/extra/layouts/flex/../flex/../../../core/../misc/../font/../misc/lv_area.h ****  * @file lv_area.h
   3:Middlewares/LVGL/GUI/lvgl/src/extra/layouts/flex/../flex/../../../core/../misc/../font/../misc/lv_area.h ****  *
   4:Middlewares/LVGL/GUI/lvgl/src/extra/layouts/flex/../flex/../../../core/../misc/../font/../misc/lv_area.h ****  */
   5:Middlewares/LVGL/GUI/lvgl/src/extra/layouts/flex/../flex/../../../core/../misc/../font/../misc/lv_area.h **** 
   6:Middlewares/LVGL/GUI/lvgl/src/extra/layouts/flex/../flex/../../../core/../misc/../font/../misc/lv_area.h **** #ifndef LV_AREA_H
   7:Middlewares/LVGL/GUI/lvgl/src/extra/layouts/flex/../flex/../../../core/../misc/../font/../misc/lv_area.h **** #define LV_AREA_H
   8:Middlewares/LVGL/GUI/lvgl/src/extra/layouts/flex/../flex/../../../core/../misc/../font/../misc/lv_area.h **** 
   9:Middlewares/LVGL/GUI/lvgl/src/extra/layouts/flex/../flex/../../../core/../misc/../font/../misc/lv_area.h **** #ifdef __cplusplus
  10:Middlewares/LVGL/GUI/lvgl/src/extra/layouts/flex/../flex/../../../core/../misc/../font/../misc/lv_area.h **** extern "C" {
  11:Middlewares/LVGL/GUI/lvgl/src/extra/layouts/flex/../flex/../../../core/../misc/../font/../misc/lv_area.h **** #endif
  12:Middlewares/LVGL/GUI/lvgl/src/extra/layouts/flex/../flex/../../../core/../misc/../font/../misc/lv_area.h **** 
  13:Middlewares/LVGL/GUI/lvgl/src/extra/layouts/flex/../flex/../../../core/../misc/../font/../misc/lv_area.h **** /*********************
  14:Middlewares/LVGL/GUI/lvgl/src/extra/layouts/flex/../flex/../../../core/../misc/../font/../misc/lv_area.h ****  *      INCLUDES
  15:Middlewares/LVGL/GUI/lvgl/src/extra/layouts/flex/../flex/../../../core/../misc/../font/../misc/lv_area.h ****  *********************/
  16:Middlewares/LVGL/GUI/lvgl/src/extra/layouts/flex/../flex/../../../core/../misc/../font/../misc/lv_area.h **** #include "../lv_conf_internal.h"
  17:Middlewares/LVGL/GUI/lvgl/src/extra/layouts/flex/../flex/../../../core/../misc/../font/../misc/lv_area.h **** #include <stdbool.h>
  18:Middlewares/LVGL/GUI/lvgl/src/extra/layouts/flex/../flex/../../../core/../misc/../font/../misc/lv_area.h **** #include <stdint.h>
  19:Middlewares/LVGL/GUI/lvgl/src/extra/layouts/flex/../flex/../../../core/../misc/../font/../misc/lv_area.h **** 
  20:Middlewares/LVGL/GUI/lvgl/src/extra/layouts/flex/../flex/../../../core/../misc/../font/../misc/lv_area.h **** /*********************
  21:Middlewares/LVGL/GUI/lvgl/src/extra/layouts/flex/../flex/../../../core/../misc/../font/../misc/lv_area.h ****  *      DEFINES
  22:Middlewares/LVGL/GUI/lvgl/src/extra/layouts/flex/../flex/../../../core/../misc/../font/../misc/lv_area.h ****  *********************/
  23:Middlewares/LVGL/GUI/lvgl/src/extra/layouts/flex/../flex/../../../core/../misc/../font/../misc/lv_area.h **** 
  24:Middlewares/LVGL/GUI/lvgl/src/extra/layouts/flex/../flex/../../../core/../misc/../font/../misc/lv_area.h **** #if LV_USE_LARGE_COORD
  25:Middlewares/LVGL/GUI/lvgl/src/extra/layouts/flex/../flex/../../../core/../misc/../font/../misc/lv_area.h **** typedef int32_t lv_coord_t;
  26:Middlewares/LVGL/GUI/lvgl/src/extra/layouts/flex/../flex/../../../core/../misc/../font/../misc/lv_area.h **** #else
  27:Middlewares/LVGL/GUI/lvgl/src/extra/layouts/flex/../flex/../../../core/../misc/../font/../misc/lv_area.h **** typedef int16_t lv_coord_t;
  28:Middlewares/LVGL/GUI/lvgl/src/extra/layouts/flex/../flex/../../../core/../misc/../font/../misc/lv_area.h **** #endif
  29:Middlewares/LVGL/GUI/lvgl/src/extra/layouts/flex/../flex/../../../core/../misc/../font/../misc/lv_area.h **** 
  30:Middlewares/LVGL/GUI/lvgl/src/extra/layouts/flex/../flex/../../../core/../misc/../font/../misc/lv_area.h **** /**********************
ARM GAS  C:\Users\ADMINI~1\AppData\Local\Temp\ccyi9XNv.s 			page 2


  31:Middlewares/LVGL/GUI/lvgl/src/extra/layouts/flex/../flex/../../../core/../misc/../font/../misc/lv_area.h ****  *      TYPEDEFS
  32:Middlewares/LVGL/GUI/lvgl/src/extra/layouts/flex/../flex/../../../core/../misc/../font/../misc/lv_area.h ****  **********************/
  33:Middlewares/LVGL/GUI/lvgl/src/extra/layouts/flex/../flex/../../../core/../misc/../font/../misc/lv_area.h **** 
  34:Middlewares/LVGL/GUI/lvgl/src/extra/layouts/flex/../flex/../../../core/../misc/../font/../misc/lv_area.h **** /**
  35:Middlewares/LVGL/GUI/lvgl/src/extra/layouts/flex/../flex/../../../core/../misc/../font/../misc/lv_area.h ****  * Represents a point on the screen.
  36:Middlewares/LVGL/GUI/lvgl/src/extra/layouts/flex/../flex/../../../core/../misc/../font/../misc/lv_area.h ****  */
  37:Middlewares/LVGL/GUI/lvgl/src/extra/layouts/flex/../flex/../../../core/../misc/../font/../misc/lv_area.h **** typedef struct {
  38:Middlewares/LVGL/GUI/lvgl/src/extra/layouts/flex/../flex/../../../core/../misc/../font/../misc/lv_area.h ****     lv_coord_t x;
  39:Middlewares/LVGL/GUI/lvgl/src/extra/layouts/flex/../flex/../../../core/../misc/../font/../misc/lv_area.h ****     lv_coord_t y;
  40:Middlewares/LVGL/GUI/lvgl/src/extra/layouts/flex/../flex/../../../core/../misc/../font/../misc/lv_area.h **** } lv_point_t;
  41:Middlewares/LVGL/GUI/lvgl/src/extra/layouts/flex/../flex/../../../core/../misc/../font/../misc/lv_area.h **** 
  42:Middlewares/LVGL/GUI/lvgl/src/extra/layouts/flex/../flex/../../../core/../misc/../font/../misc/lv_area.h **** /** Represents an area of the screen.*/
  43:Middlewares/LVGL/GUI/lvgl/src/extra/layouts/flex/../flex/../../../core/../misc/../font/../misc/lv_area.h **** typedef struct {
  44:Middlewares/LVGL/GUI/lvgl/src/extra/layouts/flex/../flex/../../../core/../misc/../font/../misc/lv_area.h ****     lv_coord_t x1;
  45:Middlewares/LVGL/GUI/lvgl/src/extra/layouts/flex/../flex/../../../core/../misc/../font/../misc/lv_area.h ****     lv_coord_t y1;
  46:Middlewares/LVGL/GUI/lvgl/src/extra/layouts/flex/../flex/../../../core/../misc/../font/../misc/lv_area.h ****     lv_coord_t x2;
  47:Middlewares/LVGL/GUI/lvgl/src/extra/layouts/flex/../flex/../../../core/../misc/../font/../misc/lv_area.h ****     lv_coord_t y2;
  48:Middlewares/LVGL/GUI/lvgl/src/extra/layouts/flex/../flex/../../../core/../misc/../font/../misc/lv_area.h **** } lv_area_t;
  49:Middlewares/LVGL/GUI/lvgl/src/extra/layouts/flex/../flex/../../../core/../misc/../font/../misc/lv_area.h **** 
  50:Middlewares/LVGL/GUI/lvgl/src/extra/layouts/flex/../flex/../../../core/../misc/../font/../misc/lv_area.h **** /** Alignments*/
  51:Middlewares/LVGL/GUI/lvgl/src/extra/layouts/flex/../flex/../../../core/../misc/../font/../misc/lv_area.h **** enum {
  52:Middlewares/LVGL/GUI/lvgl/src/extra/layouts/flex/../flex/../../../core/../misc/../font/../misc/lv_area.h ****     LV_ALIGN_DEFAULT = 0,
  53:Middlewares/LVGL/GUI/lvgl/src/extra/layouts/flex/../flex/../../../core/../misc/../font/../misc/lv_area.h ****     LV_ALIGN_TOP_LEFT,
  54:Middlewares/LVGL/GUI/lvgl/src/extra/layouts/flex/../flex/../../../core/../misc/../font/../misc/lv_area.h ****     LV_ALIGN_TOP_MID,
  55:Middlewares/LVGL/GUI/lvgl/src/extra/layouts/flex/../flex/../../../core/../misc/../font/../misc/lv_area.h ****     LV_ALIGN_TOP_RIGHT,
  56:Middlewares/LVGL/GUI/lvgl/src/extra/layouts/flex/../flex/../../../core/../misc/../font/../misc/lv_area.h ****     LV_ALIGN_BOTTOM_LEFT,
  57:Middlewares/LVGL/GUI/lvgl/src/extra/layouts/flex/../flex/../../../core/../misc/../font/../misc/lv_area.h ****     LV_ALIGN_BOTTOM_MID,
  58:Middlewares/LVGL/GUI/lvgl/src/extra/layouts/flex/../flex/../../../core/../misc/../font/../misc/lv_area.h ****     LV_ALIGN_BOTTOM_RIGHT,
  59:Middlewares/LVGL/GUI/lvgl/src/extra/layouts/flex/../flex/../../../core/../misc/../font/../misc/lv_area.h ****     LV_ALIGN_LEFT_MID,
  60:Middlewares/LVGL/GUI/lvgl/src/extra/layouts/flex/../flex/../../../core/../misc/../font/../misc/lv_area.h ****     LV_ALIGN_RIGHT_MID,
  61:Middlewares/LVGL/GUI/lvgl/src/extra/layouts/flex/../flex/../../../core/../misc/../font/../misc/lv_area.h ****     LV_ALIGN_CENTER,
  62:Middlewares/LVGL/GUI/lvgl/src/extra/layouts/flex/../flex/../../../core/../misc/../font/../misc/lv_area.h **** 
  63:Middlewares/LVGL/GUI/lvgl/src/extra/layouts/flex/../flex/../../../core/../misc/../font/../misc/lv_area.h ****     LV_ALIGN_OUT_TOP_LEFT,
  64:Middlewares/LVGL/GUI/lvgl/src/extra/layouts/flex/../flex/../../../core/../misc/../font/../misc/lv_area.h ****     LV_ALIGN_OUT_TOP_MID,
  65:Middlewares/LVGL/GUI/lvgl/src/extra/layouts/flex/../flex/../../../core/../misc/../font/../misc/lv_area.h ****     LV_ALIGN_OUT_TOP_RIGHT,
  66:Middlewares/LVGL/GUI/lvgl/src/extra/layouts/flex/../flex/../../../core/../misc/../font/../misc/lv_area.h ****     LV_ALIGN_OUT_BOTTOM_LEFT,
  67:Middlewares/LVGL/GUI/lvgl/src/extra/layouts/flex/../flex/../../../core/../misc/../font/../misc/lv_area.h ****     LV_ALIGN_OUT_BOTTOM_MID,
  68:Middlewares/LVGL/GUI/lvgl/src/extra/layouts/flex/../flex/../../../core/../misc/../font/../misc/lv_area.h ****     LV_ALIGN_OUT_BOTTOM_RIGHT,
  69:Middlewares/LVGL/GUI/lvgl/src/extra/layouts/flex/../flex/../../../core/../misc/../font/../misc/lv_area.h ****     LV_ALIGN_OUT_LEFT_TOP,
  70:Middlewares/LVGL/GUI/lvgl/src/extra/layouts/flex/../flex/../../../core/../misc/../font/../misc/lv_area.h ****     LV_ALIGN_OUT_LEFT_MID,
  71:Middlewares/LVGL/GUI/lvgl/src/extra/layouts/flex/../flex/../../../core/../misc/../font/../misc/lv_area.h ****     LV_ALIGN_OUT_LEFT_BOTTOM,
  72:Middlewares/LVGL/GUI/lvgl/src/extra/layouts/flex/../flex/../../../core/../misc/../font/../misc/lv_area.h ****     LV_ALIGN_OUT_RIGHT_TOP,
  73:Middlewares/LVGL/GUI/lvgl/src/extra/layouts/flex/../flex/../../../core/../misc/../font/../misc/lv_area.h ****     LV_ALIGN_OUT_RIGHT_MID,
  74:Middlewares/LVGL/GUI/lvgl/src/extra/layouts/flex/../flex/../../../core/../misc/../font/../misc/lv_area.h ****     LV_ALIGN_OUT_RIGHT_BOTTOM,
  75:Middlewares/LVGL/GUI/lvgl/src/extra/layouts/flex/../flex/../../../core/../misc/../font/../misc/lv_area.h **** };
  76:Middlewares/LVGL/GUI/lvgl/src/extra/layouts/flex/../flex/../../../core/../misc/../font/../misc/lv_area.h **** typedef uint8_t lv_align_t;
  77:Middlewares/LVGL/GUI/lvgl/src/extra/layouts/flex/../flex/../../../core/../misc/../font/../misc/lv_area.h **** 
  78:Middlewares/LVGL/GUI/lvgl/src/extra/layouts/flex/../flex/../../../core/../misc/../font/../misc/lv_area.h **** enum {
  79:Middlewares/LVGL/GUI/lvgl/src/extra/layouts/flex/../flex/../../../core/../misc/../font/../misc/lv_area.h ****     LV_DIR_NONE     = 0x00,
  80:Middlewares/LVGL/GUI/lvgl/src/extra/layouts/flex/../flex/../../../core/../misc/../font/../misc/lv_area.h ****     LV_DIR_LEFT     = (1 << 0),
  81:Middlewares/LVGL/GUI/lvgl/src/extra/layouts/flex/../flex/../../../core/../misc/../font/../misc/lv_area.h ****     LV_DIR_RIGHT    = (1 << 1),
  82:Middlewares/LVGL/GUI/lvgl/src/extra/layouts/flex/../flex/../../../core/../misc/../font/../misc/lv_area.h ****     LV_DIR_TOP      = (1 << 2),
  83:Middlewares/LVGL/GUI/lvgl/src/extra/layouts/flex/../flex/../../../core/../misc/../font/../misc/lv_area.h ****     LV_DIR_BOTTOM   = (1 << 3),
  84:Middlewares/LVGL/GUI/lvgl/src/extra/layouts/flex/../flex/../../../core/../misc/../font/../misc/lv_area.h ****     LV_DIR_HOR      = LV_DIR_LEFT | LV_DIR_RIGHT,
  85:Middlewares/LVGL/GUI/lvgl/src/extra/layouts/flex/../flex/../../../core/../misc/../font/../misc/lv_area.h ****     LV_DIR_VER      = LV_DIR_TOP | LV_DIR_BOTTOM,
  86:Middlewares/LVGL/GUI/lvgl/src/extra/layouts/flex/../flex/../../../core/../misc/../font/../misc/lv_area.h ****     LV_DIR_ALL      = LV_DIR_HOR | LV_DIR_VER,
  87:Middlewares/LVGL/GUI/lvgl/src/extra/layouts/flex/../flex/../../../core/../misc/../font/../misc/lv_area.h **** };
ARM GAS  C:\Users\ADMINI~1\AppData\Local\Temp\ccyi9XNv.s 			page 3


  88:Middlewares/LVGL/GUI/lvgl/src/extra/layouts/flex/../flex/../../../core/../misc/../font/../misc/lv_area.h **** 
  89:Middlewares/LVGL/GUI/lvgl/src/extra/layouts/flex/../flex/../../../core/../misc/../font/../misc/lv_area.h **** typedef uint8_t lv_dir_t;
  90:Middlewares/LVGL/GUI/lvgl/src/extra/layouts/flex/../flex/../../../core/../misc/../font/../misc/lv_area.h **** 
  91:Middlewares/LVGL/GUI/lvgl/src/extra/layouts/flex/../flex/../../../core/../misc/../font/../misc/lv_area.h **** /**********************
  92:Middlewares/LVGL/GUI/lvgl/src/extra/layouts/flex/../flex/../../../core/../misc/../font/../misc/lv_area.h ****  * GLOBAL PROTOTYPES
  93:Middlewares/LVGL/GUI/lvgl/src/extra/layouts/flex/../flex/../../../core/../misc/../font/../misc/lv_area.h ****  **********************/
  94:Middlewares/LVGL/GUI/lvgl/src/extra/layouts/flex/../flex/../../../core/../misc/../font/../misc/lv_area.h **** 
  95:Middlewares/LVGL/GUI/lvgl/src/extra/layouts/flex/../flex/../../../core/../misc/../font/../misc/lv_area.h **** /**
  96:Middlewares/LVGL/GUI/lvgl/src/extra/layouts/flex/../flex/../../../core/../misc/../font/../misc/lv_area.h ****  * Initialize an area
  97:Middlewares/LVGL/GUI/lvgl/src/extra/layouts/flex/../flex/../../../core/../misc/../font/../misc/lv_area.h ****  * @param area_p pointer to an area
  98:Middlewares/LVGL/GUI/lvgl/src/extra/layouts/flex/../flex/../../../core/../misc/../font/../misc/lv_area.h ****  * @param x1 left coordinate of the area
  99:Middlewares/LVGL/GUI/lvgl/src/extra/layouts/flex/../flex/../../../core/../misc/../font/../misc/lv_area.h ****  * @param y1 top coordinate of the area
 100:Middlewares/LVGL/GUI/lvgl/src/extra/layouts/flex/../flex/../../../core/../misc/../font/../misc/lv_area.h ****  * @param x2 right coordinate of the area
 101:Middlewares/LVGL/GUI/lvgl/src/extra/layouts/flex/../flex/../../../core/../misc/../font/../misc/lv_area.h ****  * @param y2 bottom coordinate of the area
 102:Middlewares/LVGL/GUI/lvgl/src/extra/layouts/flex/../flex/../../../core/../misc/../font/../misc/lv_area.h ****  */
 103:Middlewares/LVGL/GUI/lvgl/src/extra/layouts/flex/../flex/../../../core/../misc/../font/../misc/lv_area.h **** void lv_area_set(lv_area_t * area_p, lv_coord_t x1, lv_coord_t y1, lv_coord_t x2, lv_coord_t y2);
 104:Middlewares/LVGL/GUI/lvgl/src/extra/layouts/flex/../flex/../../../core/../misc/../font/../misc/lv_area.h **** 
 105:Middlewares/LVGL/GUI/lvgl/src/extra/layouts/flex/../flex/../../../core/../misc/../font/../misc/lv_area.h **** /**
 106:Middlewares/LVGL/GUI/lvgl/src/extra/layouts/flex/../flex/../../../core/../misc/../font/../misc/lv_area.h ****  * Copy an area
 107:Middlewares/LVGL/GUI/lvgl/src/extra/layouts/flex/../flex/../../../core/../misc/../font/../misc/lv_area.h ****  * @param dest pointer to the destination area
 108:Middlewares/LVGL/GUI/lvgl/src/extra/layouts/flex/../flex/../../../core/../misc/../font/../misc/lv_area.h ****  * @param src pointer to the source area
 109:Middlewares/LVGL/GUI/lvgl/src/extra/layouts/flex/../flex/../../../core/../misc/../font/../misc/lv_area.h ****  */
 110:Middlewares/LVGL/GUI/lvgl/src/extra/layouts/flex/../flex/../../../core/../misc/../font/../misc/lv_area.h **** inline static void lv_area_copy(lv_area_t * dest, const lv_area_t * src)
 111:Middlewares/LVGL/GUI/lvgl/src/extra/layouts/flex/../flex/../../../core/../misc/../font/../misc/lv_area.h **** {
 112:Middlewares/LVGL/GUI/lvgl/src/extra/layouts/flex/../flex/../../../core/../misc/../font/../misc/lv_area.h ****     dest->x1 = src->x1;
 113:Middlewares/LVGL/GUI/lvgl/src/extra/layouts/flex/../flex/../../../core/../misc/../font/../misc/lv_area.h ****     dest->y1 = src->y1;
 114:Middlewares/LVGL/GUI/lvgl/src/extra/layouts/flex/../flex/../../../core/../misc/../font/../misc/lv_area.h ****     dest->x2 = src->x2;
 115:Middlewares/LVGL/GUI/lvgl/src/extra/layouts/flex/../flex/../../../core/../misc/../font/../misc/lv_area.h ****     dest->y2 = src->y2;
 116:Middlewares/LVGL/GUI/lvgl/src/extra/layouts/flex/../flex/../../../core/../misc/../font/../misc/lv_area.h **** }
 117:Middlewares/LVGL/GUI/lvgl/src/extra/layouts/flex/../flex/../../../core/../misc/../font/../misc/lv_area.h **** 
 118:Middlewares/LVGL/GUI/lvgl/src/extra/layouts/flex/../flex/../../../core/../misc/../font/../misc/lv_area.h **** /**
 119:Middlewares/LVGL/GUI/lvgl/src/extra/layouts/flex/../flex/../../../core/../misc/../font/../misc/lv_area.h ****  * Get the width of an area
 120:Middlewares/LVGL/GUI/lvgl/src/extra/layouts/flex/../flex/../../../core/../misc/../font/../misc/lv_area.h ****  * @param area_p pointer to an area
 121:Middlewares/LVGL/GUI/lvgl/src/extra/layouts/flex/../flex/../../../core/../misc/../font/../misc/lv_area.h ****  * @return the width of the area (if x1 == x2 -> width = 1)
 122:Middlewares/LVGL/GUI/lvgl/src/extra/layouts/flex/../flex/../../../core/../misc/../font/../misc/lv_area.h ****  */
 123:Middlewares/LVGL/GUI/lvgl/src/extra/layouts/flex/../flex/../../../core/../misc/../font/../misc/lv_area.h **** static inline lv_coord_t lv_area_get_width(const lv_area_t * area_p)
 124:Middlewares/LVGL/GUI/lvgl/src/extra/layouts/flex/../flex/../../../core/../misc/../font/../misc/lv_area.h **** {
  29              		.loc 1 124 1 view -0
  30              		.cfi_startproc
  31              		@ args = 0, pretend = 0, frame = 0
  32              		@ frame_needed = 0, uses_anonymous_args = 0
  33              		@ link register save eliminated.
 125:Middlewares/LVGL/GUI/lvgl/src/extra/layouts/flex/../flex/../../../core/../misc/../font/../misc/lv_area.h ****     return (lv_coord_t)(area_p->x2 - area_p->x1 + 1);
  34              		.loc 1 125 5 view .LVU1
  35              		.loc 1 125 31 is_stmt 0 view .LVU2
  36 0000 8368     		ldr	r3, [r0, #8]
  37              		.loc 1 125 44 view .LVU3
  38 0002 0068     		ldr	r0, [r0]
  39              	.LVL1:
  40              		.loc 1 125 36 view .LVU4
  41 0004 181A     		subs	r0, r3, r0
 126:Middlewares/LVGL/GUI/lvgl/src/extra/layouts/flex/../flex/../../../core/../misc/../font/../misc/lv_area.h **** }
  42              		.loc 1 126 1 view .LVU5
  43 0006 0130     		adds	r0, r0, #1
  44 0008 7047     		bx	lr
  45              		.cfi_endproc
  46              	.LFE1:
ARM GAS  C:\Users\ADMINI~1\AppData\Local\Temp\ccyi9XNv.s 			page 4


  48              		.section	.text.lv_area_get_height,"ax",%progbits
  49              		.align	1
  50              		.syntax unified
  51              		.thumb
  52              		.thumb_func
  54              	lv_area_get_height:
  55              	.LVL2:
  56              	.LFB2:
 127:Middlewares/LVGL/GUI/lvgl/src/extra/layouts/flex/../flex/../../../core/../misc/../font/../misc/lv_area.h **** 
 128:Middlewares/LVGL/GUI/lvgl/src/extra/layouts/flex/../flex/../../../core/../misc/../font/../misc/lv_area.h **** /**
 129:Middlewares/LVGL/GUI/lvgl/src/extra/layouts/flex/../flex/../../../core/../misc/../font/../misc/lv_area.h ****  * Get the height of an area
 130:Middlewares/LVGL/GUI/lvgl/src/extra/layouts/flex/../flex/../../../core/../misc/../font/../misc/lv_area.h ****  * @param area_p pointer to an area
 131:Middlewares/LVGL/GUI/lvgl/src/extra/layouts/flex/../flex/../../../core/../misc/../font/../misc/lv_area.h ****  * @return the height of the area (if y1 == y2 -> height = 1)
 132:Middlewares/LVGL/GUI/lvgl/src/extra/layouts/flex/../flex/../../../core/../misc/../font/../misc/lv_area.h ****  */
 133:Middlewares/LVGL/GUI/lvgl/src/extra/layouts/flex/../flex/../../../core/../misc/../font/../misc/lv_area.h **** static inline lv_coord_t lv_area_get_height(const lv_area_t * area_p)
 134:Middlewares/LVGL/GUI/lvgl/src/extra/layouts/flex/../flex/../../../core/../misc/../font/../misc/lv_area.h **** {
  57              		.loc 1 134 1 is_stmt 1 view -0
  58              		.cfi_startproc
  59              		@ args = 0, pretend = 0, frame = 0
  60              		@ frame_needed = 0, uses_anonymous_args = 0
  61              		@ link register save eliminated.
 135:Middlewares/LVGL/GUI/lvgl/src/extra/layouts/flex/../flex/../../../core/../misc/../font/../misc/lv_area.h ****     return (lv_coord_t)(area_p->y2 - area_p->y1 + 1);
  62              		.loc 1 135 5 view .LVU7
  63              		.loc 1 135 31 is_stmt 0 view .LVU8
  64 0000 C368     		ldr	r3, [r0, #12]
  65              		.loc 1 135 44 view .LVU9
  66 0002 4068     		ldr	r0, [r0, #4]
  67              	.LVL3:
  68              		.loc 1 135 36 view .LVU10
  69 0004 181A     		subs	r0, r3, r0
 136:Middlewares/LVGL/GUI/lvgl/src/extra/layouts/flex/../flex/../../../core/../misc/../font/../misc/lv_area.h **** }
  70              		.loc 1 136 1 view .LVU11
  71 0006 0130     		adds	r0, r0, #1
  72 0008 7047     		bx	lr
  73              		.cfi_endproc
  74              	.LFE2:
  76              		.section	.text.place_content,"ax",%progbits
  77              		.align	1
  78              		.syntax unified
  79              		.thumb
  80              		.thumb_func
  82              	place_content:
  83              	.LVL4:
  84              	.LFB186:
  85              		.file 2 "Middlewares/LVGL/GUI/lvgl/src/extra/layouts/flex/lv_flex.c"
   1:Middlewares/LVGL/GUI/lvgl/src/extra/layouts/flex/lv_flex.c **** /**
   2:Middlewares/LVGL/GUI/lvgl/src/extra/layouts/flex/lv_flex.c ****  * @file lv_flex.c
   3:Middlewares/LVGL/GUI/lvgl/src/extra/layouts/flex/lv_flex.c ****  *
   4:Middlewares/LVGL/GUI/lvgl/src/extra/layouts/flex/lv_flex.c ****  */
   5:Middlewares/LVGL/GUI/lvgl/src/extra/layouts/flex/lv_flex.c **** 
   6:Middlewares/LVGL/GUI/lvgl/src/extra/layouts/flex/lv_flex.c **** /*********************
   7:Middlewares/LVGL/GUI/lvgl/src/extra/layouts/flex/lv_flex.c ****  *      INCLUDES
   8:Middlewares/LVGL/GUI/lvgl/src/extra/layouts/flex/lv_flex.c ****  *********************/
   9:Middlewares/LVGL/GUI/lvgl/src/extra/layouts/flex/lv_flex.c **** #include "../lv_layouts.h"
  10:Middlewares/LVGL/GUI/lvgl/src/extra/layouts/flex/lv_flex.c **** 
  11:Middlewares/LVGL/GUI/lvgl/src/extra/layouts/flex/lv_flex.c **** #if LV_USE_FLEX
  12:Middlewares/LVGL/GUI/lvgl/src/extra/layouts/flex/lv_flex.c **** 
ARM GAS  C:\Users\ADMINI~1\AppData\Local\Temp\ccyi9XNv.s 			page 5


  13:Middlewares/LVGL/GUI/lvgl/src/extra/layouts/flex/lv_flex.c **** /*********************
  14:Middlewares/LVGL/GUI/lvgl/src/extra/layouts/flex/lv_flex.c ****  *      DEFINES
  15:Middlewares/LVGL/GUI/lvgl/src/extra/layouts/flex/lv_flex.c ****  *********************/
  16:Middlewares/LVGL/GUI/lvgl/src/extra/layouts/flex/lv_flex.c **** 
  17:Middlewares/LVGL/GUI/lvgl/src/extra/layouts/flex/lv_flex.c **** /**********************
  18:Middlewares/LVGL/GUI/lvgl/src/extra/layouts/flex/lv_flex.c ****  *      TYPEDEFS
  19:Middlewares/LVGL/GUI/lvgl/src/extra/layouts/flex/lv_flex.c ****  **********************/
  20:Middlewares/LVGL/GUI/lvgl/src/extra/layouts/flex/lv_flex.c **** typedef struct {
  21:Middlewares/LVGL/GUI/lvgl/src/extra/layouts/flex/lv_flex.c ****     lv_flex_align_t main_place;
  22:Middlewares/LVGL/GUI/lvgl/src/extra/layouts/flex/lv_flex.c ****     lv_flex_align_t cross_place;
  23:Middlewares/LVGL/GUI/lvgl/src/extra/layouts/flex/lv_flex.c ****     lv_flex_align_t track_place;
  24:Middlewares/LVGL/GUI/lvgl/src/extra/layouts/flex/lv_flex.c ****     uint8_t row : 1;
  25:Middlewares/LVGL/GUI/lvgl/src/extra/layouts/flex/lv_flex.c ****     uint8_t wrap : 1;
  26:Middlewares/LVGL/GUI/lvgl/src/extra/layouts/flex/lv_flex.c ****     uint8_t rev : 1;
  27:Middlewares/LVGL/GUI/lvgl/src/extra/layouts/flex/lv_flex.c **** } flex_t;
  28:Middlewares/LVGL/GUI/lvgl/src/extra/layouts/flex/lv_flex.c **** 
  29:Middlewares/LVGL/GUI/lvgl/src/extra/layouts/flex/lv_flex.c **** typedef struct {
  30:Middlewares/LVGL/GUI/lvgl/src/extra/layouts/flex/lv_flex.c ****     lv_obj_t * item;
  31:Middlewares/LVGL/GUI/lvgl/src/extra/layouts/flex/lv_flex.c ****     lv_coord_t min_size;
  32:Middlewares/LVGL/GUI/lvgl/src/extra/layouts/flex/lv_flex.c ****     lv_coord_t max_size;
  33:Middlewares/LVGL/GUI/lvgl/src/extra/layouts/flex/lv_flex.c ****     lv_coord_t final_size;
  34:Middlewares/LVGL/GUI/lvgl/src/extra/layouts/flex/lv_flex.c ****     uint32_t grow_value;
  35:Middlewares/LVGL/GUI/lvgl/src/extra/layouts/flex/lv_flex.c ****     uint32_t clamped : 1;
  36:Middlewares/LVGL/GUI/lvgl/src/extra/layouts/flex/lv_flex.c **** } grow_dsc_t;
  37:Middlewares/LVGL/GUI/lvgl/src/extra/layouts/flex/lv_flex.c **** 
  38:Middlewares/LVGL/GUI/lvgl/src/extra/layouts/flex/lv_flex.c **** typedef struct {
  39:Middlewares/LVGL/GUI/lvgl/src/extra/layouts/flex/lv_flex.c ****     lv_coord_t track_cross_size;
  40:Middlewares/LVGL/GUI/lvgl/src/extra/layouts/flex/lv_flex.c ****     lv_coord_t track_main_size;         /*For all items*/
  41:Middlewares/LVGL/GUI/lvgl/src/extra/layouts/flex/lv_flex.c ****     lv_coord_t track_fix_main_size;     /*For non grow items*/
  42:Middlewares/LVGL/GUI/lvgl/src/extra/layouts/flex/lv_flex.c ****     uint32_t item_cnt;
  43:Middlewares/LVGL/GUI/lvgl/src/extra/layouts/flex/lv_flex.c ****     grow_dsc_t * grow_dsc;
  44:Middlewares/LVGL/GUI/lvgl/src/extra/layouts/flex/lv_flex.c ****     uint32_t grow_item_cnt;
  45:Middlewares/LVGL/GUI/lvgl/src/extra/layouts/flex/lv_flex.c ****     uint32_t grow_dsc_calc : 1;
  46:Middlewares/LVGL/GUI/lvgl/src/extra/layouts/flex/lv_flex.c **** } track_t;
  47:Middlewares/LVGL/GUI/lvgl/src/extra/layouts/flex/lv_flex.c **** 
  48:Middlewares/LVGL/GUI/lvgl/src/extra/layouts/flex/lv_flex.c **** 
  49:Middlewares/LVGL/GUI/lvgl/src/extra/layouts/flex/lv_flex.c **** /**********************
  50:Middlewares/LVGL/GUI/lvgl/src/extra/layouts/flex/lv_flex.c ****  *  GLOBAL PROTOTYPES
  51:Middlewares/LVGL/GUI/lvgl/src/extra/layouts/flex/lv_flex.c ****  **********************/
  52:Middlewares/LVGL/GUI/lvgl/src/extra/layouts/flex/lv_flex.c **** 
  53:Middlewares/LVGL/GUI/lvgl/src/extra/layouts/flex/lv_flex.c **** /**********************
  54:Middlewares/LVGL/GUI/lvgl/src/extra/layouts/flex/lv_flex.c ****  *  STATIC PROTOTYPES
  55:Middlewares/LVGL/GUI/lvgl/src/extra/layouts/flex/lv_flex.c ****  **********************/
  56:Middlewares/LVGL/GUI/lvgl/src/extra/layouts/flex/lv_flex.c **** static void flex_update(lv_obj_t * cont, void * user_data);
  57:Middlewares/LVGL/GUI/lvgl/src/extra/layouts/flex/lv_flex.c **** static int32_t find_track_end(lv_obj_t * cont, flex_t * f, int32_t item_start_id, lv_coord_t max_ma
  58:Middlewares/LVGL/GUI/lvgl/src/extra/layouts/flex/lv_flex.c ****                               lv_coord_t item_gap, track_t * t);
  59:Middlewares/LVGL/GUI/lvgl/src/extra/layouts/flex/lv_flex.c **** static void children_repos(lv_obj_t * cont, flex_t * f, int32_t item_first_id, int32_t item_last_id
  60:Middlewares/LVGL/GUI/lvgl/src/extra/layouts/flex/lv_flex.c ****                            lv_coord_t abs_y, lv_coord_t max_main_size, lv_coord_t item_gap, track_t
  61:Middlewares/LVGL/GUI/lvgl/src/extra/layouts/flex/lv_flex.c **** static void place_content(lv_flex_align_t place, lv_coord_t max_size, lv_coord_t content_size, lv_c
  62:Middlewares/LVGL/GUI/lvgl/src/extra/layouts/flex/lv_flex.c ****                           lv_coord_t * start_pos, lv_coord_t * gap);
  63:Middlewares/LVGL/GUI/lvgl/src/extra/layouts/flex/lv_flex.c **** static lv_obj_t * get_next_item(lv_obj_t * cont, bool rev, int32_t * item_id);
  64:Middlewares/LVGL/GUI/lvgl/src/extra/layouts/flex/lv_flex.c **** 
  65:Middlewares/LVGL/GUI/lvgl/src/extra/layouts/flex/lv_flex.c **** /**********************
  66:Middlewares/LVGL/GUI/lvgl/src/extra/layouts/flex/lv_flex.c ****  *  GLOBAL VARIABLES
  67:Middlewares/LVGL/GUI/lvgl/src/extra/layouts/flex/lv_flex.c ****  **********************/
  68:Middlewares/LVGL/GUI/lvgl/src/extra/layouts/flex/lv_flex.c **** uint32_t LV_LAYOUT_FLEX;
  69:Middlewares/LVGL/GUI/lvgl/src/extra/layouts/flex/lv_flex.c **** lv_style_prop_t LV_STYLE_FLEX_FLOW;
ARM GAS  C:\Users\ADMINI~1\AppData\Local\Temp\ccyi9XNv.s 			page 6


  70:Middlewares/LVGL/GUI/lvgl/src/extra/layouts/flex/lv_flex.c **** lv_style_prop_t LV_STYLE_FLEX_MAIN_PLACE;
  71:Middlewares/LVGL/GUI/lvgl/src/extra/layouts/flex/lv_flex.c **** lv_style_prop_t LV_STYLE_FLEX_CROSS_PLACE;
  72:Middlewares/LVGL/GUI/lvgl/src/extra/layouts/flex/lv_flex.c **** lv_style_prop_t LV_STYLE_FLEX_TRACK_PLACE;
  73:Middlewares/LVGL/GUI/lvgl/src/extra/layouts/flex/lv_flex.c **** lv_style_prop_t LV_STYLE_FLEX_GROW;
  74:Middlewares/LVGL/GUI/lvgl/src/extra/layouts/flex/lv_flex.c **** 
  75:Middlewares/LVGL/GUI/lvgl/src/extra/layouts/flex/lv_flex.c **** 
  76:Middlewares/LVGL/GUI/lvgl/src/extra/layouts/flex/lv_flex.c **** /**********************
  77:Middlewares/LVGL/GUI/lvgl/src/extra/layouts/flex/lv_flex.c ****  *  STATIC VARIABLES
  78:Middlewares/LVGL/GUI/lvgl/src/extra/layouts/flex/lv_flex.c ****  **********************/
  79:Middlewares/LVGL/GUI/lvgl/src/extra/layouts/flex/lv_flex.c **** 
  80:Middlewares/LVGL/GUI/lvgl/src/extra/layouts/flex/lv_flex.c **** /**********************
  81:Middlewares/LVGL/GUI/lvgl/src/extra/layouts/flex/lv_flex.c ****  *      MACROS
  82:Middlewares/LVGL/GUI/lvgl/src/extra/layouts/flex/lv_flex.c ****  **********************/
  83:Middlewares/LVGL/GUI/lvgl/src/extra/layouts/flex/lv_flex.c **** 
  84:Middlewares/LVGL/GUI/lvgl/src/extra/layouts/flex/lv_flex.c **** /**********************
  85:Middlewares/LVGL/GUI/lvgl/src/extra/layouts/flex/lv_flex.c ****  *   GLOBAL FUNCTIONS
  86:Middlewares/LVGL/GUI/lvgl/src/extra/layouts/flex/lv_flex.c ****  **********************/
  87:Middlewares/LVGL/GUI/lvgl/src/extra/layouts/flex/lv_flex.c **** 
  88:Middlewares/LVGL/GUI/lvgl/src/extra/layouts/flex/lv_flex.c **** /*=====================
  89:Middlewares/LVGL/GUI/lvgl/src/extra/layouts/flex/lv_flex.c ****  * Setter functions
  90:Middlewares/LVGL/GUI/lvgl/src/extra/layouts/flex/lv_flex.c ****  *====================*/
  91:Middlewares/LVGL/GUI/lvgl/src/extra/layouts/flex/lv_flex.c **** 
  92:Middlewares/LVGL/GUI/lvgl/src/extra/layouts/flex/lv_flex.c **** void lv_flex_init(void)
  93:Middlewares/LVGL/GUI/lvgl/src/extra/layouts/flex/lv_flex.c **** {
  94:Middlewares/LVGL/GUI/lvgl/src/extra/layouts/flex/lv_flex.c ****     LV_LAYOUT_FLEX = lv_layout_register(flex_update, NULL);
  95:Middlewares/LVGL/GUI/lvgl/src/extra/layouts/flex/lv_flex.c **** 
  96:Middlewares/LVGL/GUI/lvgl/src/extra/layouts/flex/lv_flex.c ****     LV_STYLE_FLEX_FLOW = lv_style_register_prop();
  97:Middlewares/LVGL/GUI/lvgl/src/extra/layouts/flex/lv_flex.c ****     LV_STYLE_FLEX_MAIN_PLACE = lv_style_register_prop() | LV_STYLE_PROP_LAYOUT_REFR;
  98:Middlewares/LVGL/GUI/lvgl/src/extra/layouts/flex/lv_flex.c ****     LV_STYLE_FLEX_CROSS_PLACE = lv_style_register_prop() | LV_STYLE_PROP_LAYOUT_REFR;
  99:Middlewares/LVGL/GUI/lvgl/src/extra/layouts/flex/lv_flex.c ****     LV_STYLE_FLEX_TRACK_PLACE = lv_style_register_prop() | LV_STYLE_PROP_LAYOUT_REFR;
 100:Middlewares/LVGL/GUI/lvgl/src/extra/layouts/flex/lv_flex.c **** }
 101:Middlewares/LVGL/GUI/lvgl/src/extra/layouts/flex/lv_flex.c **** 
 102:Middlewares/LVGL/GUI/lvgl/src/extra/layouts/flex/lv_flex.c **** void lv_obj_set_flex_flow(lv_obj_t * obj, lv_flex_flow_t flow)
 103:Middlewares/LVGL/GUI/lvgl/src/extra/layouts/flex/lv_flex.c **** {
 104:Middlewares/LVGL/GUI/lvgl/src/extra/layouts/flex/lv_flex.c ****     lv_obj_set_style_flex_flow(obj, flow, 0);
 105:Middlewares/LVGL/GUI/lvgl/src/extra/layouts/flex/lv_flex.c ****     lv_obj_set_style_layout(obj, LV_LAYOUT_FLEX, 0);
 106:Middlewares/LVGL/GUI/lvgl/src/extra/layouts/flex/lv_flex.c **** }
 107:Middlewares/LVGL/GUI/lvgl/src/extra/layouts/flex/lv_flex.c **** 
 108:Middlewares/LVGL/GUI/lvgl/src/extra/layouts/flex/lv_flex.c **** void lv_obj_set_flex_align(lv_obj_t * obj, lv_flex_align_t main_place, lv_flex_align_t cross_place,
 109:Middlewares/LVGL/GUI/lvgl/src/extra/layouts/flex/lv_flex.c ****                            lv_flex_align_t track_place)
 110:Middlewares/LVGL/GUI/lvgl/src/extra/layouts/flex/lv_flex.c **** {
 111:Middlewares/LVGL/GUI/lvgl/src/extra/layouts/flex/lv_flex.c ****     lv_obj_set_style_flex_main_place(obj, main_place, 0);
 112:Middlewares/LVGL/GUI/lvgl/src/extra/layouts/flex/lv_flex.c ****     lv_obj_set_style_flex_cross_place(obj, cross_place, 0);
 113:Middlewares/LVGL/GUI/lvgl/src/extra/layouts/flex/lv_flex.c ****     lv_obj_set_style_flex_track_place(obj, track_place, 0);
 114:Middlewares/LVGL/GUI/lvgl/src/extra/layouts/flex/lv_flex.c ****     lv_obj_set_style_layout(obj, LV_LAYOUT_FLEX, 0);
 115:Middlewares/LVGL/GUI/lvgl/src/extra/layouts/flex/lv_flex.c **** }
 116:Middlewares/LVGL/GUI/lvgl/src/extra/layouts/flex/lv_flex.c **** 
 117:Middlewares/LVGL/GUI/lvgl/src/extra/layouts/flex/lv_flex.c **** void lv_obj_set_flex_grow(lv_obj_t * obj, uint8_t grow)
 118:Middlewares/LVGL/GUI/lvgl/src/extra/layouts/flex/lv_flex.c **** {
 119:Middlewares/LVGL/GUI/lvgl/src/extra/layouts/flex/lv_flex.c ****     lv_obj_set_style_flex_grow(obj, grow, 0);
 120:Middlewares/LVGL/GUI/lvgl/src/extra/layouts/flex/lv_flex.c ****     lv_obj_mark_layout_as_dirty(lv_obj_get_parent(obj));
 121:Middlewares/LVGL/GUI/lvgl/src/extra/layouts/flex/lv_flex.c **** }
 122:Middlewares/LVGL/GUI/lvgl/src/extra/layouts/flex/lv_flex.c **** 
 123:Middlewares/LVGL/GUI/lvgl/src/extra/layouts/flex/lv_flex.c **** 
 124:Middlewares/LVGL/GUI/lvgl/src/extra/layouts/flex/lv_flex.c **** void lv_style_set_flex_flow(lv_style_t * style, lv_flex_flow_t value)
 125:Middlewares/LVGL/GUI/lvgl/src/extra/layouts/flex/lv_flex.c **** {
 126:Middlewares/LVGL/GUI/lvgl/src/extra/layouts/flex/lv_flex.c ****     lv_style_value_t v = {
ARM GAS  C:\Users\ADMINI~1\AppData\Local\Temp\ccyi9XNv.s 			page 7


 127:Middlewares/LVGL/GUI/lvgl/src/extra/layouts/flex/lv_flex.c ****         .num = (int32_t)value
 128:Middlewares/LVGL/GUI/lvgl/src/extra/layouts/flex/lv_flex.c ****     };
 129:Middlewares/LVGL/GUI/lvgl/src/extra/layouts/flex/lv_flex.c ****     lv_style_set_prop(style, LV_STYLE_FLEX_FLOW, v);
 130:Middlewares/LVGL/GUI/lvgl/src/extra/layouts/flex/lv_flex.c **** }
 131:Middlewares/LVGL/GUI/lvgl/src/extra/layouts/flex/lv_flex.c **** 
 132:Middlewares/LVGL/GUI/lvgl/src/extra/layouts/flex/lv_flex.c **** void lv_style_set_flex_main_place(lv_style_t * style, lv_flex_align_t value)
 133:Middlewares/LVGL/GUI/lvgl/src/extra/layouts/flex/lv_flex.c **** {
 134:Middlewares/LVGL/GUI/lvgl/src/extra/layouts/flex/lv_flex.c ****     lv_style_value_t v = {
 135:Middlewares/LVGL/GUI/lvgl/src/extra/layouts/flex/lv_flex.c ****         .num = (int32_t)value
 136:Middlewares/LVGL/GUI/lvgl/src/extra/layouts/flex/lv_flex.c ****     };
 137:Middlewares/LVGL/GUI/lvgl/src/extra/layouts/flex/lv_flex.c ****     lv_style_set_prop(style, LV_STYLE_FLEX_MAIN_PLACE, v);
 138:Middlewares/LVGL/GUI/lvgl/src/extra/layouts/flex/lv_flex.c **** }
 139:Middlewares/LVGL/GUI/lvgl/src/extra/layouts/flex/lv_flex.c **** 
 140:Middlewares/LVGL/GUI/lvgl/src/extra/layouts/flex/lv_flex.c **** void lv_style_set_flex_cross_place(lv_style_t * style, lv_flex_align_t value)
 141:Middlewares/LVGL/GUI/lvgl/src/extra/layouts/flex/lv_flex.c **** {
 142:Middlewares/LVGL/GUI/lvgl/src/extra/layouts/flex/lv_flex.c ****     lv_style_value_t v = {
 143:Middlewares/LVGL/GUI/lvgl/src/extra/layouts/flex/lv_flex.c ****         .num = (int32_t)value
 144:Middlewares/LVGL/GUI/lvgl/src/extra/layouts/flex/lv_flex.c ****     };
 145:Middlewares/LVGL/GUI/lvgl/src/extra/layouts/flex/lv_flex.c ****     lv_style_set_prop(style, LV_STYLE_FLEX_CROSS_PLACE, v);
 146:Middlewares/LVGL/GUI/lvgl/src/extra/layouts/flex/lv_flex.c **** }
 147:Middlewares/LVGL/GUI/lvgl/src/extra/layouts/flex/lv_flex.c **** 
 148:Middlewares/LVGL/GUI/lvgl/src/extra/layouts/flex/lv_flex.c **** void lv_style_set_flex_track_place(lv_style_t * style, lv_flex_align_t value)
 149:Middlewares/LVGL/GUI/lvgl/src/extra/layouts/flex/lv_flex.c **** {
 150:Middlewares/LVGL/GUI/lvgl/src/extra/layouts/flex/lv_flex.c ****     lv_style_value_t v = {
 151:Middlewares/LVGL/GUI/lvgl/src/extra/layouts/flex/lv_flex.c ****         .num = (int32_t)value
 152:Middlewares/LVGL/GUI/lvgl/src/extra/layouts/flex/lv_flex.c ****     };
 153:Middlewares/LVGL/GUI/lvgl/src/extra/layouts/flex/lv_flex.c ****     lv_style_set_prop(style, LV_STYLE_FLEX_TRACK_PLACE, v);
 154:Middlewares/LVGL/GUI/lvgl/src/extra/layouts/flex/lv_flex.c **** }
 155:Middlewares/LVGL/GUI/lvgl/src/extra/layouts/flex/lv_flex.c **** 
 156:Middlewares/LVGL/GUI/lvgl/src/extra/layouts/flex/lv_flex.c **** void lv_style_set_flex_grow(lv_style_t * style, uint8_t value)
 157:Middlewares/LVGL/GUI/lvgl/src/extra/layouts/flex/lv_flex.c **** {
 158:Middlewares/LVGL/GUI/lvgl/src/extra/layouts/flex/lv_flex.c ****     lv_style_value_t v = {
 159:Middlewares/LVGL/GUI/lvgl/src/extra/layouts/flex/lv_flex.c ****         .num = (int32_t)value
 160:Middlewares/LVGL/GUI/lvgl/src/extra/layouts/flex/lv_flex.c ****     };
 161:Middlewares/LVGL/GUI/lvgl/src/extra/layouts/flex/lv_flex.c ****     lv_style_set_prop(style, LV_STYLE_FLEX_GROW, v);
 162:Middlewares/LVGL/GUI/lvgl/src/extra/layouts/flex/lv_flex.c **** }
 163:Middlewares/LVGL/GUI/lvgl/src/extra/layouts/flex/lv_flex.c **** 
 164:Middlewares/LVGL/GUI/lvgl/src/extra/layouts/flex/lv_flex.c **** 
 165:Middlewares/LVGL/GUI/lvgl/src/extra/layouts/flex/lv_flex.c **** void lv_obj_set_style_flex_flow(lv_obj_t * obj, lv_flex_flow_t value, lv_style_selector_t selector)
 166:Middlewares/LVGL/GUI/lvgl/src/extra/layouts/flex/lv_flex.c **** {
 167:Middlewares/LVGL/GUI/lvgl/src/extra/layouts/flex/lv_flex.c ****     lv_style_value_t v = {
 168:Middlewares/LVGL/GUI/lvgl/src/extra/layouts/flex/lv_flex.c ****         .num = (int32_t) value
 169:Middlewares/LVGL/GUI/lvgl/src/extra/layouts/flex/lv_flex.c ****     };
 170:Middlewares/LVGL/GUI/lvgl/src/extra/layouts/flex/lv_flex.c ****     lv_obj_set_local_style_prop(obj, LV_STYLE_FLEX_FLOW, v, selector);
 171:Middlewares/LVGL/GUI/lvgl/src/extra/layouts/flex/lv_flex.c **** }
 172:Middlewares/LVGL/GUI/lvgl/src/extra/layouts/flex/lv_flex.c **** 
 173:Middlewares/LVGL/GUI/lvgl/src/extra/layouts/flex/lv_flex.c **** void lv_obj_set_style_flex_main_place(lv_obj_t * obj, lv_flex_align_t value, lv_style_selector_t se
 174:Middlewares/LVGL/GUI/lvgl/src/extra/layouts/flex/lv_flex.c **** {
 175:Middlewares/LVGL/GUI/lvgl/src/extra/layouts/flex/lv_flex.c ****     lv_style_value_t v = {
 176:Middlewares/LVGL/GUI/lvgl/src/extra/layouts/flex/lv_flex.c ****         .num = (int32_t) value
 177:Middlewares/LVGL/GUI/lvgl/src/extra/layouts/flex/lv_flex.c ****     };
 178:Middlewares/LVGL/GUI/lvgl/src/extra/layouts/flex/lv_flex.c ****     lv_obj_set_local_style_prop(obj, LV_STYLE_FLEX_MAIN_PLACE, v, selector);
 179:Middlewares/LVGL/GUI/lvgl/src/extra/layouts/flex/lv_flex.c **** }
 180:Middlewares/LVGL/GUI/lvgl/src/extra/layouts/flex/lv_flex.c **** 
 181:Middlewares/LVGL/GUI/lvgl/src/extra/layouts/flex/lv_flex.c **** void lv_obj_set_style_flex_cross_place(lv_obj_t * obj, lv_flex_align_t value, lv_style_selector_t s
 182:Middlewares/LVGL/GUI/lvgl/src/extra/layouts/flex/lv_flex.c **** {
 183:Middlewares/LVGL/GUI/lvgl/src/extra/layouts/flex/lv_flex.c ****     lv_style_value_t v = {
ARM GAS  C:\Users\ADMINI~1\AppData\Local\Temp\ccyi9XNv.s 			page 8


 184:Middlewares/LVGL/GUI/lvgl/src/extra/layouts/flex/lv_flex.c ****         .num = (int32_t) value
 185:Middlewares/LVGL/GUI/lvgl/src/extra/layouts/flex/lv_flex.c ****     };
 186:Middlewares/LVGL/GUI/lvgl/src/extra/layouts/flex/lv_flex.c ****     lv_obj_set_local_style_prop(obj, LV_STYLE_FLEX_CROSS_PLACE, v, selector);
 187:Middlewares/LVGL/GUI/lvgl/src/extra/layouts/flex/lv_flex.c **** }
 188:Middlewares/LVGL/GUI/lvgl/src/extra/layouts/flex/lv_flex.c **** 
 189:Middlewares/LVGL/GUI/lvgl/src/extra/layouts/flex/lv_flex.c **** void lv_obj_set_style_flex_track_place(lv_obj_t * obj, lv_flex_align_t value, lv_style_selector_t s
 190:Middlewares/LVGL/GUI/lvgl/src/extra/layouts/flex/lv_flex.c **** {
 191:Middlewares/LVGL/GUI/lvgl/src/extra/layouts/flex/lv_flex.c ****     lv_style_value_t v = {
 192:Middlewares/LVGL/GUI/lvgl/src/extra/layouts/flex/lv_flex.c ****         .num = (int32_t) value
 193:Middlewares/LVGL/GUI/lvgl/src/extra/layouts/flex/lv_flex.c ****     };
 194:Middlewares/LVGL/GUI/lvgl/src/extra/layouts/flex/lv_flex.c ****     lv_obj_set_local_style_prop(obj, LV_STYLE_FLEX_TRACK_PLACE, v, selector);
 195:Middlewares/LVGL/GUI/lvgl/src/extra/layouts/flex/lv_flex.c **** }
 196:Middlewares/LVGL/GUI/lvgl/src/extra/layouts/flex/lv_flex.c **** 
 197:Middlewares/LVGL/GUI/lvgl/src/extra/layouts/flex/lv_flex.c **** void lv_obj_set_style_flex_grow(lv_obj_t * obj, uint8_t value, lv_style_selector_t selector)
 198:Middlewares/LVGL/GUI/lvgl/src/extra/layouts/flex/lv_flex.c **** {
 199:Middlewares/LVGL/GUI/lvgl/src/extra/layouts/flex/lv_flex.c ****     lv_style_value_t v = {
 200:Middlewares/LVGL/GUI/lvgl/src/extra/layouts/flex/lv_flex.c ****         .num = (int32_t) value
 201:Middlewares/LVGL/GUI/lvgl/src/extra/layouts/flex/lv_flex.c ****     };
 202:Middlewares/LVGL/GUI/lvgl/src/extra/layouts/flex/lv_flex.c ****     lv_obj_set_local_style_prop(obj, LV_STYLE_FLEX_GROW, v, selector);
 203:Middlewares/LVGL/GUI/lvgl/src/extra/layouts/flex/lv_flex.c **** }
 204:Middlewares/LVGL/GUI/lvgl/src/extra/layouts/flex/lv_flex.c **** 
 205:Middlewares/LVGL/GUI/lvgl/src/extra/layouts/flex/lv_flex.c **** /**********************
 206:Middlewares/LVGL/GUI/lvgl/src/extra/layouts/flex/lv_flex.c ****  *   STATIC FUNCTIONS
 207:Middlewares/LVGL/GUI/lvgl/src/extra/layouts/flex/lv_flex.c ****  **********************/
 208:Middlewares/LVGL/GUI/lvgl/src/extra/layouts/flex/lv_flex.c **** 
 209:Middlewares/LVGL/GUI/lvgl/src/extra/layouts/flex/lv_flex.c **** static void flex_update(lv_obj_t * cont, void * user_data)
 210:Middlewares/LVGL/GUI/lvgl/src/extra/layouts/flex/lv_flex.c **** {
 211:Middlewares/LVGL/GUI/lvgl/src/extra/layouts/flex/lv_flex.c ****     LV_LOG_INFO("update %p container", (void *)cont);
 212:Middlewares/LVGL/GUI/lvgl/src/extra/layouts/flex/lv_flex.c ****     LV_UNUSED(user_data);
 213:Middlewares/LVGL/GUI/lvgl/src/extra/layouts/flex/lv_flex.c **** 
 214:Middlewares/LVGL/GUI/lvgl/src/extra/layouts/flex/lv_flex.c ****     flex_t f;
 215:Middlewares/LVGL/GUI/lvgl/src/extra/layouts/flex/lv_flex.c ****     lv_flex_flow_t flow = lv_obj_get_style_flex_flow(cont, LV_PART_MAIN);
 216:Middlewares/LVGL/GUI/lvgl/src/extra/layouts/flex/lv_flex.c ****     f.row = flow & _LV_FLEX_COLUMN ? 0 : 1;
 217:Middlewares/LVGL/GUI/lvgl/src/extra/layouts/flex/lv_flex.c ****     f.wrap = flow & _LV_FLEX_WRAP ? 1 : 0;
 218:Middlewares/LVGL/GUI/lvgl/src/extra/layouts/flex/lv_flex.c ****     f.rev = flow & _LV_FLEX_REVERSE ? 1 : 0;
 219:Middlewares/LVGL/GUI/lvgl/src/extra/layouts/flex/lv_flex.c ****     f.main_place = lv_obj_get_style_flex_main_place(cont, LV_PART_MAIN);
 220:Middlewares/LVGL/GUI/lvgl/src/extra/layouts/flex/lv_flex.c ****     f.cross_place = lv_obj_get_style_flex_cross_place(cont, LV_PART_MAIN);
 221:Middlewares/LVGL/GUI/lvgl/src/extra/layouts/flex/lv_flex.c ****     f.track_place = lv_obj_get_style_flex_track_place(cont, LV_PART_MAIN);
 222:Middlewares/LVGL/GUI/lvgl/src/extra/layouts/flex/lv_flex.c **** 
 223:Middlewares/LVGL/GUI/lvgl/src/extra/layouts/flex/lv_flex.c ****     bool rtl = lv_obj_get_style_base_dir(cont, LV_PART_MAIN) == LV_BASE_DIR_RTL ? true : false;
 224:Middlewares/LVGL/GUI/lvgl/src/extra/layouts/flex/lv_flex.c ****     lv_coord_t track_gap = !f.row ? lv_obj_get_style_pad_column(cont, LV_PART_MAIN) : lv_obj_get_st
 225:Middlewares/LVGL/GUI/lvgl/src/extra/layouts/flex/lv_flex.c ****                                                                                                    
 226:Middlewares/LVGL/GUI/lvgl/src/extra/layouts/flex/lv_flex.c ****     lv_coord_t item_gap = f.row ? lv_obj_get_style_pad_column(cont, LV_PART_MAIN) : lv_obj_get_styl
 227:Middlewares/LVGL/GUI/lvgl/src/extra/layouts/flex/lv_flex.c ****                                                                                                    
 228:Middlewares/LVGL/GUI/lvgl/src/extra/layouts/flex/lv_flex.c ****     lv_coord_t max_main_size = (f.row ? lv_obj_get_content_width(cont) : lv_obj_get_content_height(
 229:Middlewares/LVGL/GUI/lvgl/src/extra/layouts/flex/lv_flex.c ****     lv_coord_t border_width = lv_obj_get_style_border_width(cont, LV_PART_MAIN);
 230:Middlewares/LVGL/GUI/lvgl/src/extra/layouts/flex/lv_flex.c ****     lv_coord_t abs_y = cont->coords.y1 + lv_obj_get_style_pad_top(cont,
 231:Middlewares/LVGL/GUI/lvgl/src/extra/layouts/flex/lv_flex.c ****                                                                   LV_PART_MAIN) + border_width - lv
 232:Middlewares/LVGL/GUI/lvgl/src/extra/layouts/flex/lv_flex.c ****     lv_coord_t abs_x = cont->coords.x1 + lv_obj_get_style_pad_left(cont,
 233:Middlewares/LVGL/GUI/lvgl/src/extra/layouts/flex/lv_flex.c ****                                                                    LV_PART_MAIN) + border_width - l
 234:Middlewares/LVGL/GUI/lvgl/src/extra/layouts/flex/lv_flex.c **** 
 235:Middlewares/LVGL/GUI/lvgl/src/extra/layouts/flex/lv_flex.c ****     lv_flex_align_t track_cross_place = f.track_place;
 236:Middlewares/LVGL/GUI/lvgl/src/extra/layouts/flex/lv_flex.c ****     lv_coord_t * cross_pos = (f.row ? &abs_y : &abs_x);
 237:Middlewares/LVGL/GUI/lvgl/src/extra/layouts/flex/lv_flex.c **** 
 238:Middlewares/LVGL/GUI/lvgl/src/extra/layouts/flex/lv_flex.c ****     lv_coord_t w_set = lv_obj_get_style_width(cont, LV_PART_MAIN);
 239:Middlewares/LVGL/GUI/lvgl/src/extra/layouts/flex/lv_flex.c ****     lv_coord_t h_set = lv_obj_get_style_height(cont, LV_PART_MAIN);
 240:Middlewares/LVGL/GUI/lvgl/src/extra/layouts/flex/lv_flex.c **** 
ARM GAS  C:\Users\ADMINI~1\AppData\Local\Temp\ccyi9XNv.s 			page 9


 241:Middlewares/LVGL/GUI/lvgl/src/extra/layouts/flex/lv_flex.c ****     /*Content sized objects should squeezed the gap between the children, therefore any alignment w
 242:Middlewares/LVGL/GUI/lvgl/src/extra/layouts/flex/lv_flex.c ****     if((f.row && h_set == LV_SIZE_CONTENT && cont->h_layout == 0) ||
 243:Middlewares/LVGL/GUI/lvgl/src/extra/layouts/flex/lv_flex.c ****        (!f.row && w_set == LV_SIZE_CONTENT && cont->w_layout == 0)) {
 244:Middlewares/LVGL/GUI/lvgl/src/extra/layouts/flex/lv_flex.c ****         track_cross_place = LV_FLEX_ALIGN_START;
 245:Middlewares/LVGL/GUI/lvgl/src/extra/layouts/flex/lv_flex.c ****     }
 246:Middlewares/LVGL/GUI/lvgl/src/extra/layouts/flex/lv_flex.c **** 
 247:Middlewares/LVGL/GUI/lvgl/src/extra/layouts/flex/lv_flex.c ****     if(rtl && !f.row) {
 248:Middlewares/LVGL/GUI/lvgl/src/extra/layouts/flex/lv_flex.c ****         if(track_cross_place == LV_FLEX_ALIGN_START) track_cross_place = LV_FLEX_ALIGN_END;
 249:Middlewares/LVGL/GUI/lvgl/src/extra/layouts/flex/lv_flex.c ****         else if(track_cross_place == LV_FLEX_ALIGN_END) track_cross_place = LV_FLEX_ALIGN_START;
 250:Middlewares/LVGL/GUI/lvgl/src/extra/layouts/flex/lv_flex.c ****     }
 251:Middlewares/LVGL/GUI/lvgl/src/extra/layouts/flex/lv_flex.c **** 
 252:Middlewares/LVGL/GUI/lvgl/src/extra/layouts/flex/lv_flex.c ****     lv_coord_t total_track_cross_size = 0;
 253:Middlewares/LVGL/GUI/lvgl/src/extra/layouts/flex/lv_flex.c ****     lv_coord_t gap = 0;
 254:Middlewares/LVGL/GUI/lvgl/src/extra/layouts/flex/lv_flex.c ****     uint32_t track_cnt = 0;
 255:Middlewares/LVGL/GUI/lvgl/src/extra/layouts/flex/lv_flex.c ****     int32_t track_first_item;
 256:Middlewares/LVGL/GUI/lvgl/src/extra/layouts/flex/lv_flex.c ****     int32_t next_track_first_item;
 257:Middlewares/LVGL/GUI/lvgl/src/extra/layouts/flex/lv_flex.c **** 
 258:Middlewares/LVGL/GUI/lvgl/src/extra/layouts/flex/lv_flex.c ****     if(track_cross_place != LV_FLEX_ALIGN_START) {
 259:Middlewares/LVGL/GUI/lvgl/src/extra/layouts/flex/lv_flex.c ****         track_first_item = f.rev ? cont->spec_attr->child_cnt - 1 : 0;
 260:Middlewares/LVGL/GUI/lvgl/src/extra/layouts/flex/lv_flex.c ****         track_t t;
 261:Middlewares/LVGL/GUI/lvgl/src/extra/layouts/flex/lv_flex.c ****         while(track_first_item < (int32_t)cont->spec_attr->child_cnt && track_first_item >= 0) {
 262:Middlewares/LVGL/GUI/lvgl/src/extra/layouts/flex/lv_flex.c ****             /*Search the first item of the next row*/
 263:Middlewares/LVGL/GUI/lvgl/src/extra/layouts/flex/lv_flex.c ****             t.grow_dsc_calc = 0;
 264:Middlewares/LVGL/GUI/lvgl/src/extra/layouts/flex/lv_flex.c ****             next_track_first_item = find_track_end(cont, &f, track_first_item, max_main_size, item_
 265:Middlewares/LVGL/GUI/lvgl/src/extra/layouts/flex/lv_flex.c ****             total_track_cross_size += t.track_cross_size + track_gap;
 266:Middlewares/LVGL/GUI/lvgl/src/extra/layouts/flex/lv_flex.c ****             track_cnt++;
 267:Middlewares/LVGL/GUI/lvgl/src/extra/layouts/flex/lv_flex.c ****             track_first_item = next_track_first_item;
 268:Middlewares/LVGL/GUI/lvgl/src/extra/layouts/flex/lv_flex.c ****         }
 269:Middlewares/LVGL/GUI/lvgl/src/extra/layouts/flex/lv_flex.c **** 
 270:Middlewares/LVGL/GUI/lvgl/src/extra/layouts/flex/lv_flex.c ****         if(track_cnt) total_track_cross_size -= track_gap;   /*No gap after the last track*/
 271:Middlewares/LVGL/GUI/lvgl/src/extra/layouts/flex/lv_flex.c **** 
 272:Middlewares/LVGL/GUI/lvgl/src/extra/layouts/flex/lv_flex.c ****         /*Place the tracks to get the start position*/
 273:Middlewares/LVGL/GUI/lvgl/src/extra/layouts/flex/lv_flex.c ****         lv_coord_t max_cross_size = (f.row ? lv_obj_get_content_height(cont) : lv_obj_get_content_w
 274:Middlewares/LVGL/GUI/lvgl/src/extra/layouts/flex/lv_flex.c ****         place_content(track_cross_place, max_cross_size, total_track_cross_size, track_cnt, cross_p
 275:Middlewares/LVGL/GUI/lvgl/src/extra/layouts/flex/lv_flex.c ****     }
 276:Middlewares/LVGL/GUI/lvgl/src/extra/layouts/flex/lv_flex.c **** 
 277:Middlewares/LVGL/GUI/lvgl/src/extra/layouts/flex/lv_flex.c ****     track_first_item = f.rev ? cont->spec_attr->child_cnt - 1 : 0;
 278:Middlewares/LVGL/GUI/lvgl/src/extra/layouts/flex/lv_flex.c **** 
 279:Middlewares/LVGL/GUI/lvgl/src/extra/layouts/flex/lv_flex.c ****     if(rtl && !f.row) {
 280:Middlewares/LVGL/GUI/lvgl/src/extra/layouts/flex/lv_flex.c ****         *cross_pos += total_track_cross_size;
 281:Middlewares/LVGL/GUI/lvgl/src/extra/layouts/flex/lv_flex.c ****     }
 282:Middlewares/LVGL/GUI/lvgl/src/extra/layouts/flex/lv_flex.c **** 
 283:Middlewares/LVGL/GUI/lvgl/src/extra/layouts/flex/lv_flex.c ****     while(track_first_item < (int32_t)cont->spec_attr->child_cnt && track_first_item >= 0) {
 284:Middlewares/LVGL/GUI/lvgl/src/extra/layouts/flex/lv_flex.c ****         track_t t;
 285:Middlewares/LVGL/GUI/lvgl/src/extra/layouts/flex/lv_flex.c ****         t.grow_dsc_calc = 1;
 286:Middlewares/LVGL/GUI/lvgl/src/extra/layouts/flex/lv_flex.c ****         /*Search the first item of the next row*/
 287:Middlewares/LVGL/GUI/lvgl/src/extra/layouts/flex/lv_flex.c ****         next_track_first_item = find_track_end(cont, &f, track_first_item, max_main_size, item_gap,
 288:Middlewares/LVGL/GUI/lvgl/src/extra/layouts/flex/lv_flex.c **** 
 289:Middlewares/LVGL/GUI/lvgl/src/extra/layouts/flex/lv_flex.c ****         if(rtl && !f.row) {
 290:Middlewares/LVGL/GUI/lvgl/src/extra/layouts/flex/lv_flex.c ****             *cross_pos -= t.track_cross_size;
 291:Middlewares/LVGL/GUI/lvgl/src/extra/layouts/flex/lv_flex.c ****         }
 292:Middlewares/LVGL/GUI/lvgl/src/extra/layouts/flex/lv_flex.c ****         children_repos(cont, &f, track_first_item, next_track_first_item, abs_x, abs_y, max_main_si
 293:Middlewares/LVGL/GUI/lvgl/src/extra/layouts/flex/lv_flex.c ****         track_first_item = next_track_first_item;
 294:Middlewares/LVGL/GUI/lvgl/src/extra/layouts/flex/lv_flex.c ****         lv_mem_buf_release(t.grow_dsc);
 295:Middlewares/LVGL/GUI/lvgl/src/extra/layouts/flex/lv_flex.c ****         t.grow_dsc = NULL;
 296:Middlewares/LVGL/GUI/lvgl/src/extra/layouts/flex/lv_flex.c ****         if(rtl && !f.row) {
 297:Middlewares/LVGL/GUI/lvgl/src/extra/layouts/flex/lv_flex.c ****             *cross_pos -= gap + track_gap;
ARM GAS  C:\Users\ADMINI~1\AppData\Local\Temp\ccyi9XNv.s 			page 10


 298:Middlewares/LVGL/GUI/lvgl/src/extra/layouts/flex/lv_flex.c ****         }
 299:Middlewares/LVGL/GUI/lvgl/src/extra/layouts/flex/lv_flex.c ****         else {
 300:Middlewares/LVGL/GUI/lvgl/src/extra/layouts/flex/lv_flex.c ****             *cross_pos += t.track_cross_size + gap + track_gap;
 301:Middlewares/LVGL/GUI/lvgl/src/extra/layouts/flex/lv_flex.c ****         }
 302:Middlewares/LVGL/GUI/lvgl/src/extra/layouts/flex/lv_flex.c ****     }
 303:Middlewares/LVGL/GUI/lvgl/src/extra/layouts/flex/lv_flex.c ****     LV_ASSERT_MEM_INTEGRITY();
 304:Middlewares/LVGL/GUI/lvgl/src/extra/layouts/flex/lv_flex.c **** 
 305:Middlewares/LVGL/GUI/lvgl/src/extra/layouts/flex/lv_flex.c ****     if(w_set == LV_SIZE_CONTENT || h_set == LV_SIZE_CONTENT) {
 306:Middlewares/LVGL/GUI/lvgl/src/extra/layouts/flex/lv_flex.c ****         lv_obj_refr_size(cont);
 307:Middlewares/LVGL/GUI/lvgl/src/extra/layouts/flex/lv_flex.c ****     }
 308:Middlewares/LVGL/GUI/lvgl/src/extra/layouts/flex/lv_flex.c **** 
 309:Middlewares/LVGL/GUI/lvgl/src/extra/layouts/flex/lv_flex.c ****     lv_event_send(cont, LV_EVENT_LAYOUT_CHANGED, NULL);
 310:Middlewares/LVGL/GUI/lvgl/src/extra/layouts/flex/lv_flex.c **** 
 311:Middlewares/LVGL/GUI/lvgl/src/extra/layouts/flex/lv_flex.c ****     LV_TRACE_LAYOUT("finished");
 312:Middlewares/LVGL/GUI/lvgl/src/extra/layouts/flex/lv_flex.c **** }
 313:Middlewares/LVGL/GUI/lvgl/src/extra/layouts/flex/lv_flex.c **** 
 314:Middlewares/LVGL/GUI/lvgl/src/extra/layouts/flex/lv_flex.c **** /**
 315:Middlewares/LVGL/GUI/lvgl/src/extra/layouts/flex/lv_flex.c ****  * Find the last item of a track
 316:Middlewares/LVGL/GUI/lvgl/src/extra/layouts/flex/lv_flex.c ****  */
 317:Middlewares/LVGL/GUI/lvgl/src/extra/layouts/flex/lv_flex.c **** static int32_t find_track_end(lv_obj_t * cont, flex_t * f, int32_t item_start_id, lv_coord_t max_ma
 318:Middlewares/LVGL/GUI/lvgl/src/extra/layouts/flex/lv_flex.c ****                               lv_coord_t item_gap, track_t * t)
 319:Middlewares/LVGL/GUI/lvgl/src/extra/layouts/flex/lv_flex.c **** {
 320:Middlewares/LVGL/GUI/lvgl/src/extra/layouts/flex/lv_flex.c ****     lv_coord_t w_set = lv_obj_get_style_width(cont, LV_PART_MAIN);
 321:Middlewares/LVGL/GUI/lvgl/src/extra/layouts/flex/lv_flex.c ****     lv_coord_t h_set = lv_obj_get_style_height(cont, LV_PART_MAIN);
 322:Middlewares/LVGL/GUI/lvgl/src/extra/layouts/flex/lv_flex.c **** 
 323:Middlewares/LVGL/GUI/lvgl/src/extra/layouts/flex/lv_flex.c ****     /*Can't wrap if the size if auto (i.e. the size depends on the children)*/
 324:Middlewares/LVGL/GUI/lvgl/src/extra/layouts/flex/lv_flex.c ****     if(f->wrap && ((f->row && w_set == LV_SIZE_CONTENT) || (!f->row && h_set == LV_SIZE_CONTENT))) 
 325:Middlewares/LVGL/GUI/lvgl/src/extra/layouts/flex/lv_flex.c ****         f->wrap = false;
 326:Middlewares/LVGL/GUI/lvgl/src/extra/layouts/flex/lv_flex.c ****     }
 327:Middlewares/LVGL/GUI/lvgl/src/extra/layouts/flex/lv_flex.c ****     lv_coord_t(*get_main_size)(const lv_obj_t *) = (f->row ? lv_obj_get_width : lv_obj_get_height);
 328:Middlewares/LVGL/GUI/lvgl/src/extra/layouts/flex/lv_flex.c ****     lv_coord_t(*get_cross_size)(const lv_obj_t *) = (!f->row ? lv_obj_get_width : lv_obj_get_height
 329:Middlewares/LVGL/GUI/lvgl/src/extra/layouts/flex/lv_flex.c **** 
 330:Middlewares/LVGL/GUI/lvgl/src/extra/layouts/flex/lv_flex.c ****     t->track_main_size = 0;
 331:Middlewares/LVGL/GUI/lvgl/src/extra/layouts/flex/lv_flex.c ****     t->track_fix_main_size = 0;
 332:Middlewares/LVGL/GUI/lvgl/src/extra/layouts/flex/lv_flex.c ****     t->grow_item_cnt = 0;
 333:Middlewares/LVGL/GUI/lvgl/src/extra/layouts/flex/lv_flex.c ****     t->track_cross_size = 0;
 334:Middlewares/LVGL/GUI/lvgl/src/extra/layouts/flex/lv_flex.c ****     t->item_cnt = 0;
 335:Middlewares/LVGL/GUI/lvgl/src/extra/layouts/flex/lv_flex.c ****     t->grow_dsc = NULL;
 336:Middlewares/LVGL/GUI/lvgl/src/extra/layouts/flex/lv_flex.c **** 
 337:Middlewares/LVGL/GUI/lvgl/src/extra/layouts/flex/lv_flex.c ****     int32_t item_id = item_start_id;
 338:Middlewares/LVGL/GUI/lvgl/src/extra/layouts/flex/lv_flex.c **** 
 339:Middlewares/LVGL/GUI/lvgl/src/extra/layouts/flex/lv_flex.c ****     lv_obj_t * item = lv_obj_get_child(cont, item_id);
 340:Middlewares/LVGL/GUI/lvgl/src/extra/layouts/flex/lv_flex.c ****     while(item) {
 341:Middlewares/LVGL/GUI/lvgl/src/extra/layouts/flex/lv_flex.c ****         if(item_id != item_start_id && lv_obj_has_flag(item, LV_OBJ_FLAG_FLEX_IN_NEW_TRACK)) break;
 342:Middlewares/LVGL/GUI/lvgl/src/extra/layouts/flex/lv_flex.c **** 
 343:Middlewares/LVGL/GUI/lvgl/src/extra/layouts/flex/lv_flex.c ****         if(!lv_obj_has_flag_any(item, LV_OBJ_FLAG_IGNORE_LAYOUT | LV_OBJ_FLAG_HIDDEN | LV_OBJ_FLAG_
 344:Middlewares/LVGL/GUI/lvgl/src/extra/layouts/flex/lv_flex.c ****             uint8_t grow_value = lv_obj_get_style_flex_grow(item, LV_PART_MAIN);
 345:Middlewares/LVGL/GUI/lvgl/src/extra/layouts/flex/lv_flex.c ****             if(grow_value) {
 346:Middlewares/LVGL/GUI/lvgl/src/extra/layouts/flex/lv_flex.c ****                 t->grow_item_cnt++;
 347:Middlewares/LVGL/GUI/lvgl/src/extra/layouts/flex/lv_flex.c ****                 t->track_fix_main_size += item_gap;
 348:Middlewares/LVGL/GUI/lvgl/src/extra/layouts/flex/lv_flex.c ****                 if(t->grow_dsc_calc) {
 349:Middlewares/LVGL/GUI/lvgl/src/extra/layouts/flex/lv_flex.c ****                     grow_dsc_t * new_dsc = lv_mem_buf_get(sizeof(grow_dsc_t) * (t->grow_item_cnt));
 350:Middlewares/LVGL/GUI/lvgl/src/extra/layouts/flex/lv_flex.c ****                     LV_ASSERT_MALLOC(new_dsc);
 351:Middlewares/LVGL/GUI/lvgl/src/extra/layouts/flex/lv_flex.c ****                     if(new_dsc == NULL) return item_id;
 352:Middlewares/LVGL/GUI/lvgl/src/extra/layouts/flex/lv_flex.c **** 
 353:Middlewares/LVGL/GUI/lvgl/src/extra/layouts/flex/lv_flex.c ****                     if(t->grow_dsc) {
 354:Middlewares/LVGL/GUI/lvgl/src/extra/layouts/flex/lv_flex.c ****                         lv_memcpy(new_dsc, t->grow_dsc, sizeof(grow_dsc_t) * (t->grow_item_cnt - 1)
ARM GAS  C:\Users\ADMINI~1\AppData\Local\Temp\ccyi9XNv.s 			page 11


 355:Middlewares/LVGL/GUI/lvgl/src/extra/layouts/flex/lv_flex.c ****                         lv_mem_buf_release(t->grow_dsc);
 356:Middlewares/LVGL/GUI/lvgl/src/extra/layouts/flex/lv_flex.c ****                     }
 357:Middlewares/LVGL/GUI/lvgl/src/extra/layouts/flex/lv_flex.c ****                     new_dsc[t->grow_item_cnt - 1].item = item;
 358:Middlewares/LVGL/GUI/lvgl/src/extra/layouts/flex/lv_flex.c ****                     new_dsc[t->grow_item_cnt - 1].min_size = f->row ? lv_obj_get_style_min_width(it
 359:Middlewares/LVGL/GUI/lvgl/src/extra/layouts/flex/lv_flex.c ****                                                                                                  LV
 360:Middlewares/LVGL/GUI/lvgl/src/extra/layouts/flex/lv_flex.c ****                     new_dsc[t->grow_item_cnt - 1].max_size = f->row ? lv_obj_get_style_max_width(it
 361:Middlewares/LVGL/GUI/lvgl/src/extra/layouts/flex/lv_flex.c ****                                                                                                  LV
 362:Middlewares/LVGL/GUI/lvgl/src/extra/layouts/flex/lv_flex.c ****                     new_dsc[t->grow_item_cnt - 1].grow_value = grow_value;
 363:Middlewares/LVGL/GUI/lvgl/src/extra/layouts/flex/lv_flex.c ****                     new_dsc[t->grow_item_cnt - 1].clamped = 0;
 364:Middlewares/LVGL/GUI/lvgl/src/extra/layouts/flex/lv_flex.c ****                     t->grow_dsc = new_dsc;
 365:Middlewares/LVGL/GUI/lvgl/src/extra/layouts/flex/lv_flex.c ****                 }
 366:Middlewares/LVGL/GUI/lvgl/src/extra/layouts/flex/lv_flex.c ****             }
 367:Middlewares/LVGL/GUI/lvgl/src/extra/layouts/flex/lv_flex.c ****             else {
 368:Middlewares/LVGL/GUI/lvgl/src/extra/layouts/flex/lv_flex.c ****                 lv_coord_t item_size = get_main_size(item);
 369:Middlewares/LVGL/GUI/lvgl/src/extra/layouts/flex/lv_flex.c ****                 if(f->wrap && t->track_fix_main_size + item_size > max_main_size) break;
 370:Middlewares/LVGL/GUI/lvgl/src/extra/layouts/flex/lv_flex.c ****                 t->track_fix_main_size += item_size + item_gap;
 371:Middlewares/LVGL/GUI/lvgl/src/extra/layouts/flex/lv_flex.c ****             }
 372:Middlewares/LVGL/GUI/lvgl/src/extra/layouts/flex/lv_flex.c **** 
 373:Middlewares/LVGL/GUI/lvgl/src/extra/layouts/flex/lv_flex.c **** 
 374:Middlewares/LVGL/GUI/lvgl/src/extra/layouts/flex/lv_flex.c ****             t->track_cross_size = LV_MAX(get_cross_size(item), t->track_cross_size);
 375:Middlewares/LVGL/GUI/lvgl/src/extra/layouts/flex/lv_flex.c ****             t->item_cnt++;
 376:Middlewares/LVGL/GUI/lvgl/src/extra/layouts/flex/lv_flex.c ****         }
 377:Middlewares/LVGL/GUI/lvgl/src/extra/layouts/flex/lv_flex.c **** 
 378:Middlewares/LVGL/GUI/lvgl/src/extra/layouts/flex/lv_flex.c ****         item_id += f->rev ? -1 : +1;
 379:Middlewares/LVGL/GUI/lvgl/src/extra/layouts/flex/lv_flex.c ****         if(item_id < 0) break;
 380:Middlewares/LVGL/GUI/lvgl/src/extra/layouts/flex/lv_flex.c ****         item = lv_obj_get_child(cont, item_id);
 381:Middlewares/LVGL/GUI/lvgl/src/extra/layouts/flex/lv_flex.c ****     }
 382:Middlewares/LVGL/GUI/lvgl/src/extra/layouts/flex/lv_flex.c **** 
 383:Middlewares/LVGL/GUI/lvgl/src/extra/layouts/flex/lv_flex.c ****     if(t->track_fix_main_size > 0) t->track_fix_main_size -= item_gap; /*There is no gap after the 
 384:Middlewares/LVGL/GUI/lvgl/src/extra/layouts/flex/lv_flex.c **** 
 385:Middlewares/LVGL/GUI/lvgl/src/extra/layouts/flex/lv_flex.c ****     /*If there is at least one "grow item" the track takes the full space*/
 386:Middlewares/LVGL/GUI/lvgl/src/extra/layouts/flex/lv_flex.c ****     t->track_main_size = t->grow_item_cnt ? max_main_size : t->track_fix_main_size;
 387:Middlewares/LVGL/GUI/lvgl/src/extra/layouts/flex/lv_flex.c **** 
 388:Middlewares/LVGL/GUI/lvgl/src/extra/layouts/flex/lv_flex.c ****     /*Have at least one item in a row*/
 389:Middlewares/LVGL/GUI/lvgl/src/extra/layouts/flex/lv_flex.c ****     if(item && item_id == item_start_id) {
 390:Middlewares/LVGL/GUI/lvgl/src/extra/layouts/flex/lv_flex.c ****         item = cont->spec_attr->children[item_id];
 391:Middlewares/LVGL/GUI/lvgl/src/extra/layouts/flex/lv_flex.c ****         get_next_item(cont, f->rev, &item_id);
 392:Middlewares/LVGL/GUI/lvgl/src/extra/layouts/flex/lv_flex.c ****         if(item) {
 393:Middlewares/LVGL/GUI/lvgl/src/extra/layouts/flex/lv_flex.c ****             t->track_cross_size = get_cross_size(item);
 394:Middlewares/LVGL/GUI/lvgl/src/extra/layouts/flex/lv_flex.c ****             t->track_main_size = get_main_size(item);
 395:Middlewares/LVGL/GUI/lvgl/src/extra/layouts/flex/lv_flex.c ****             t->item_cnt = 1;
 396:Middlewares/LVGL/GUI/lvgl/src/extra/layouts/flex/lv_flex.c ****         }
 397:Middlewares/LVGL/GUI/lvgl/src/extra/layouts/flex/lv_flex.c ****     }
 398:Middlewares/LVGL/GUI/lvgl/src/extra/layouts/flex/lv_flex.c **** 
 399:Middlewares/LVGL/GUI/lvgl/src/extra/layouts/flex/lv_flex.c ****     return item_id;
 400:Middlewares/LVGL/GUI/lvgl/src/extra/layouts/flex/lv_flex.c **** }
 401:Middlewares/LVGL/GUI/lvgl/src/extra/layouts/flex/lv_flex.c **** 
 402:Middlewares/LVGL/GUI/lvgl/src/extra/layouts/flex/lv_flex.c **** /**
 403:Middlewares/LVGL/GUI/lvgl/src/extra/layouts/flex/lv_flex.c ****  * Position the children in the same track
 404:Middlewares/LVGL/GUI/lvgl/src/extra/layouts/flex/lv_flex.c ****  */
 405:Middlewares/LVGL/GUI/lvgl/src/extra/layouts/flex/lv_flex.c **** static void children_repos(lv_obj_t * cont, flex_t * f, int32_t item_first_id, int32_t item_last_id
 406:Middlewares/LVGL/GUI/lvgl/src/extra/layouts/flex/lv_flex.c ****                            lv_coord_t abs_y, lv_coord_t max_main_size, lv_coord_t item_gap, track_t
 407:Middlewares/LVGL/GUI/lvgl/src/extra/layouts/flex/lv_flex.c **** {
 408:Middlewares/LVGL/GUI/lvgl/src/extra/layouts/flex/lv_flex.c ****     void (*area_set_main_size)(lv_area_t *, lv_coord_t) = (f->row ? lv_area_set_width : lv_area_set
 409:Middlewares/LVGL/GUI/lvgl/src/extra/layouts/flex/lv_flex.c ****     lv_coord_t (*area_get_main_size)(const lv_area_t *) = (f->row ? lv_area_get_width : lv_area_get
 410:Middlewares/LVGL/GUI/lvgl/src/extra/layouts/flex/lv_flex.c ****     lv_coord_t (*area_get_cross_size)(const lv_area_t *) = (!f->row ? lv_area_get_width : lv_area_g
 411:Middlewares/LVGL/GUI/lvgl/src/extra/layouts/flex/lv_flex.c **** 
ARM GAS  C:\Users\ADMINI~1\AppData\Local\Temp\ccyi9XNv.s 			page 12


 412:Middlewares/LVGL/GUI/lvgl/src/extra/layouts/flex/lv_flex.c ****     /*Calculate the size of grow items first*/
 413:Middlewares/LVGL/GUI/lvgl/src/extra/layouts/flex/lv_flex.c ****     uint32_t i;
 414:Middlewares/LVGL/GUI/lvgl/src/extra/layouts/flex/lv_flex.c ****     bool grow_reiterate  = true;
 415:Middlewares/LVGL/GUI/lvgl/src/extra/layouts/flex/lv_flex.c ****     while(grow_reiterate) {
 416:Middlewares/LVGL/GUI/lvgl/src/extra/layouts/flex/lv_flex.c ****         grow_reiterate = false;
 417:Middlewares/LVGL/GUI/lvgl/src/extra/layouts/flex/lv_flex.c ****         lv_coord_t grow_value_sum = 0;
 418:Middlewares/LVGL/GUI/lvgl/src/extra/layouts/flex/lv_flex.c ****         lv_coord_t grow_max_size = t->track_main_size - t->track_fix_main_size;
 419:Middlewares/LVGL/GUI/lvgl/src/extra/layouts/flex/lv_flex.c ****         for(i = 0; i < t->grow_item_cnt; i++) {
 420:Middlewares/LVGL/GUI/lvgl/src/extra/layouts/flex/lv_flex.c ****             if(t->grow_dsc[i].clamped == 0) {
 421:Middlewares/LVGL/GUI/lvgl/src/extra/layouts/flex/lv_flex.c ****                 grow_value_sum += t->grow_dsc[i].grow_value;
 422:Middlewares/LVGL/GUI/lvgl/src/extra/layouts/flex/lv_flex.c ****             }
 423:Middlewares/LVGL/GUI/lvgl/src/extra/layouts/flex/lv_flex.c ****             else {
 424:Middlewares/LVGL/GUI/lvgl/src/extra/layouts/flex/lv_flex.c ****                 grow_max_size -= t->grow_dsc[i].final_size;
 425:Middlewares/LVGL/GUI/lvgl/src/extra/layouts/flex/lv_flex.c ****             }
 426:Middlewares/LVGL/GUI/lvgl/src/extra/layouts/flex/lv_flex.c ****         }
 427:Middlewares/LVGL/GUI/lvgl/src/extra/layouts/flex/lv_flex.c ****         lv_coord_t grow_unit;
 428:Middlewares/LVGL/GUI/lvgl/src/extra/layouts/flex/lv_flex.c **** 
 429:Middlewares/LVGL/GUI/lvgl/src/extra/layouts/flex/lv_flex.c ****         for(i = 0; i < t->grow_item_cnt; i++) {
 430:Middlewares/LVGL/GUI/lvgl/src/extra/layouts/flex/lv_flex.c ****             if(t->grow_dsc[i].clamped == 0) {
 431:Middlewares/LVGL/GUI/lvgl/src/extra/layouts/flex/lv_flex.c ****                 grow_unit = grow_max_size / grow_value_sum;
 432:Middlewares/LVGL/GUI/lvgl/src/extra/layouts/flex/lv_flex.c ****                 lv_coord_t size = grow_unit * t->grow_dsc[i].grow_value;
 433:Middlewares/LVGL/GUI/lvgl/src/extra/layouts/flex/lv_flex.c ****                 lv_coord_t size_clamp = LV_CLAMP(t->grow_dsc[i].min_size, size, t->grow_dsc[i].max_
 434:Middlewares/LVGL/GUI/lvgl/src/extra/layouts/flex/lv_flex.c **** 
 435:Middlewares/LVGL/GUI/lvgl/src/extra/layouts/flex/lv_flex.c ****                 if(size_clamp != size) {
 436:Middlewares/LVGL/GUI/lvgl/src/extra/layouts/flex/lv_flex.c ****                     t->grow_dsc[i].clamped = 1;
 437:Middlewares/LVGL/GUI/lvgl/src/extra/layouts/flex/lv_flex.c ****                     grow_reiterate = true;
 438:Middlewares/LVGL/GUI/lvgl/src/extra/layouts/flex/lv_flex.c ****                 }
 439:Middlewares/LVGL/GUI/lvgl/src/extra/layouts/flex/lv_flex.c ****                 t->grow_dsc[i].final_size = size_clamp;
 440:Middlewares/LVGL/GUI/lvgl/src/extra/layouts/flex/lv_flex.c ****                 grow_value_sum -= t->grow_dsc[i].grow_value;
 441:Middlewares/LVGL/GUI/lvgl/src/extra/layouts/flex/lv_flex.c ****                 grow_max_size  -= t->grow_dsc[i].final_size;
 442:Middlewares/LVGL/GUI/lvgl/src/extra/layouts/flex/lv_flex.c ****             }
 443:Middlewares/LVGL/GUI/lvgl/src/extra/layouts/flex/lv_flex.c ****         }
 444:Middlewares/LVGL/GUI/lvgl/src/extra/layouts/flex/lv_flex.c ****     }
 445:Middlewares/LVGL/GUI/lvgl/src/extra/layouts/flex/lv_flex.c **** 
 446:Middlewares/LVGL/GUI/lvgl/src/extra/layouts/flex/lv_flex.c **** 
 447:Middlewares/LVGL/GUI/lvgl/src/extra/layouts/flex/lv_flex.c ****     bool rtl = lv_obj_get_style_base_dir(cont, LV_PART_MAIN) == LV_BASE_DIR_RTL ? true : false;
 448:Middlewares/LVGL/GUI/lvgl/src/extra/layouts/flex/lv_flex.c **** 
 449:Middlewares/LVGL/GUI/lvgl/src/extra/layouts/flex/lv_flex.c ****     lv_coord_t main_pos = 0;
 450:Middlewares/LVGL/GUI/lvgl/src/extra/layouts/flex/lv_flex.c **** 
 451:Middlewares/LVGL/GUI/lvgl/src/extra/layouts/flex/lv_flex.c ****     lv_coord_t place_gap = 0;
 452:Middlewares/LVGL/GUI/lvgl/src/extra/layouts/flex/lv_flex.c ****     place_content(f->main_place, max_main_size, t->track_main_size, t->item_cnt, &main_pos, &place_
 453:Middlewares/LVGL/GUI/lvgl/src/extra/layouts/flex/lv_flex.c ****     if(f->row && rtl) main_pos += lv_obj_get_content_width(cont);
 454:Middlewares/LVGL/GUI/lvgl/src/extra/layouts/flex/lv_flex.c **** 
 455:Middlewares/LVGL/GUI/lvgl/src/extra/layouts/flex/lv_flex.c ****     lv_obj_t * item = lv_obj_get_child(cont, item_first_id);
 456:Middlewares/LVGL/GUI/lvgl/src/extra/layouts/flex/lv_flex.c ****     /*Reposition the children*/
 457:Middlewares/LVGL/GUI/lvgl/src/extra/layouts/flex/lv_flex.c ****     while(item && item_first_id != item_last_id) {
 458:Middlewares/LVGL/GUI/lvgl/src/extra/layouts/flex/lv_flex.c ****         if(lv_obj_has_flag_any(item, LV_OBJ_FLAG_IGNORE_LAYOUT | LV_OBJ_FLAG_HIDDEN | LV_OBJ_FLAG_F
 459:Middlewares/LVGL/GUI/lvgl/src/extra/layouts/flex/lv_flex.c ****             item = get_next_item(cont, f->rev, &item_first_id);
 460:Middlewares/LVGL/GUI/lvgl/src/extra/layouts/flex/lv_flex.c ****             continue;
 461:Middlewares/LVGL/GUI/lvgl/src/extra/layouts/flex/lv_flex.c ****         }
 462:Middlewares/LVGL/GUI/lvgl/src/extra/layouts/flex/lv_flex.c ****         lv_coord_t grow_size = lv_obj_get_style_flex_grow(item, LV_PART_MAIN);
 463:Middlewares/LVGL/GUI/lvgl/src/extra/layouts/flex/lv_flex.c ****         if(grow_size) {
 464:Middlewares/LVGL/GUI/lvgl/src/extra/layouts/flex/lv_flex.c ****             lv_coord_t s = 0;
 465:Middlewares/LVGL/GUI/lvgl/src/extra/layouts/flex/lv_flex.c ****             for(i = 0; i < t->grow_item_cnt; i++) {
 466:Middlewares/LVGL/GUI/lvgl/src/extra/layouts/flex/lv_flex.c ****                 if(t->grow_dsc[i].item == item) {
 467:Middlewares/LVGL/GUI/lvgl/src/extra/layouts/flex/lv_flex.c ****                     s = t->grow_dsc[i].final_size;
 468:Middlewares/LVGL/GUI/lvgl/src/extra/layouts/flex/lv_flex.c ****                     break;
ARM GAS  C:\Users\ADMINI~1\AppData\Local\Temp\ccyi9XNv.s 			page 13


 469:Middlewares/LVGL/GUI/lvgl/src/extra/layouts/flex/lv_flex.c ****                 }
 470:Middlewares/LVGL/GUI/lvgl/src/extra/layouts/flex/lv_flex.c ****             }
 471:Middlewares/LVGL/GUI/lvgl/src/extra/layouts/flex/lv_flex.c **** 
 472:Middlewares/LVGL/GUI/lvgl/src/extra/layouts/flex/lv_flex.c ****             if(f->row) item->w_layout = 1;
 473:Middlewares/LVGL/GUI/lvgl/src/extra/layouts/flex/lv_flex.c ****             else item->h_layout = 1;
 474:Middlewares/LVGL/GUI/lvgl/src/extra/layouts/flex/lv_flex.c **** 
 475:Middlewares/LVGL/GUI/lvgl/src/extra/layouts/flex/lv_flex.c ****             if(s != area_get_main_size(&item->coords)) {
 476:Middlewares/LVGL/GUI/lvgl/src/extra/layouts/flex/lv_flex.c ****                 lv_obj_invalidate(item);
 477:Middlewares/LVGL/GUI/lvgl/src/extra/layouts/flex/lv_flex.c **** 
 478:Middlewares/LVGL/GUI/lvgl/src/extra/layouts/flex/lv_flex.c ****                 lv_area_t old_coords;
 479:Middlewares/LVGL/GUI/lvgl/src/extra/layouts/flex/lv_flex.c ****                 lv_area_copy(&old_coords, &item->coords);
 480:Middlewares/LVGL/GUI/lvgl/src/extra/layouts/flex/lv_flex.c ****                 area_set_main_size(&item->coords, s);
 481:Middlewares/LVGL/GUI/lvgl/src/extra/layouts/flex/lv_flex.c ****                 lv_event_send(item, LV_EVENT_SIZE_CHANGED, &old_coords);
 482:Middlewares/LVGL/GUI/lvgl/src/extra/layouts/flex/lv_flex.c ****                 lv_event_send(lv_obj_get_parent(item), LV_EVENT_CHILD_CHANGED, item);
 483:Middlewares/LVGL/GUI/lvgl/src/extra/layouts/flex/lv_flex.c ****                 lv_obj_invalidate(item);
 484:Middlewares/LVGL/GUI/lvgl/src/extra/layouts/flex/lv_flex.c ****             }
 485:Middlewares/LVGL/GUI/lvgl/src/extra/layouts/flex/lv_flex.c ****         }
 486:Middlewares/LVGL/GUI/lvgl/src/extra/layouts/flex/lv_flex.c ****         else {
 487:Middlewares/LVGL/GUI/lvgl/src/extra/layouts/flex/lv_flex.c ****             item->w_layout = 0;
 488:Middlewares/LVGL/GUI/lvgl/src/extra/layouts/flex/lv_flex.c ****             item->h_layout = 0;
 489:Middlewares/LVGL/GUI/lvgl/src/extra/layouts/flex/lv_flex.c ****         }
 490:Middlewares/LVGL/GUI/lvgl/src/extra/layouts/flex/lv_flex.c **** 
 491:Middlewares/LVGL/GUI/lvgl/src/extra/layouts/flex/lv_flex.c ****         lv_coord_t cross_pos = 0;
 492:Middlewares/LVGL/GUI/lvgl/src/extra/layouts/flex/lv_flex.c ****         switch(f->cross_place) {
 493:Middlewares/LVGL/GUI/lvgl/src/extra/layouts/flex/lv_flex.c ****             case LV_FLEX_ALIGN_CENTER:
 494:Middlewares/LVGL/GUI/lvgl/src/extra/layouts/flex/lv_flex.c ****                 /*Round up the cross size to avoid rounding error when dividing by 2
 495:Middlewares/LVGL/GUI/lvgl/src/extra/layouts/flex/lv_flex.c ****                  *The issue comes up e,g, with column direction with center cross direction if an e
 496:Middlewares/LVGL/GUI/lvgl/src/extra/layouts/flex/lv_flex.c ****                 cross_pos = (((t->track_cross_size + 1) & (~1)) - area_get_cross_size(&item->coords
 497:Middlewares/LVGL/GUI/lvgl/src/extra/layouts/flex/lv_flex.c ****                 break;
 498:Middlewares/LVGL/GUI/lvgl/src/extra/layouts/flex/lv_flex.c ****             case LV_FLEX_ALIGN_END:
 499:Middlewares/LVGL/GUI/lvgl/src/extra/layouts/flex/lv_flex.c ****                 cross_pos = t->track_cross_size - area_get_cross_size(&item->coords);
 500:Middlewares/LVGL/GUI/lvgl/src/extra/layouts/flex/lv_flex.c ****                 break;
 501:Middlewares/LVGL/GUI/lvgl/src/extra/layouts/flex/lv_flex.c ****             default:
 502:Middlewares/LVGL/GUI/lvgl/src/extra/layouts/flex/lv_flex.c ****                 break;
 503:Middlewares/LVGL/GUI/lvgl/src/extra/layouts/flex/lv_flex.c ****         }
 504:Middlewares/LVGL/GUI/lvgl/src/extra/layouts/flex/lv_flex.c **** 
 505:Middlewares/LVGL/GUI/lvgl/src/extra/layouts/flex/lv_flex.c ****         if(f->row && rtl) main_pos -= area_get_main_size(&item->coords);
 506:Middlewares/LVGL/GUI/lvgl/src/extra/layouts/flex/lv_flex.c **** 
 507:Middlewares/LVGL/GUI/lvgl/src/extra/layouts/flex/lv_flex.c **** 
 508:Middlewares/LVGL/GUI/lvgl/src/extra/layouts/flex/lv_flex.c ****         /*Handle percentage value of translate*/
 509:Middlewares/LVGL/GUI/lvgl/src/extra/layouts/flex/lv_flex.c ****         lv_coord_t tr_x = lv_obj_get_style_translate_x(item, LV_PART_MAIN);
 510:Middlewares/LVGL/GUI/lvgl/src/extra/layouts/flex/lv_flex.c ****         lv_coord_t tr_y = lv_obj_get_style_translate_y(item, LV_PART_MAIN);
 511:Middlewares/LVGL/GUI/lvgl/src/extra/layouts/flex/lv_flex.c ****         lv_coord_t w = lv_obj_get_width(item);
 512:Middlewares/LVGL/GUI/lvgl/src/extra/layouts/flex/lv_flex.c ****         lv_coord_t h = lv_obj_get_height(item);
 513:Middlewares/LVGL/GUI/lvgl/src/extra/layouts/flex/lv_flex.c ****         if(LV_COORD_IS_PCT(tr_x)) tr_x = (w * LV_COORD_GET_PCT(tr_x)) / 100;
 514:Middlewares/LVGL/GUI/lvgl/src/extra/layouts/flex/lv_flex.c ****         if(LV_COORD_IS_PCT(tr_y)) tr_y = (h * LV_COORD_GET_PCT(tr_y)) / 100;
 515:Middlewares/LVGL/GUI/lvgl/src/extra/layouts/flex/lv_flex.c **** 
 516:Middlewares/LVGL/GUI/lvgl/src/extra/layouts/flex/lv_flex.c ****         lv_coord_t diff_x = abs_x - item->coords.x1 + tr_x;
 517:Middlewares/LVGL/GUI/lvgl/src/extra/layouts/flex/lv_flex.c ****         lv_coord_t diff_y = abs_y - item->coords.y1 + tr_y;
 518:Middlewares/LVGL/GUI/lvgl/src/extra/layouts/flex/lv_flex.c ****         diff_x += f->row ? main_pos : cross_pos;
 519:Middlewares/LVGL/GUI/lvgl/src/extra/layouts/flex/lv_flex.c ****         diff_y += f->row ? cross_pos : main_pos;
 520:Middlewares/LVGL/GUI/lvgl/src/extra/layouts/flex/lv_flex.c **** 
 521:Middlewares/LVGL/GUI/lvgl/src/extra/layouts/flex/lv_flex.c ****         if(diff_x || diff_y) {
 522:Middlewares/LVGL/GUI/lvgl/src/extra/layouts/flex/lv_flex.c ****             lv_obj_invalidate(item);
 523:Middlewares/LVGL/GUI/lvgl/src/extra/layouts/flex/lv_flex.c ****             item->coords.x1 += diff_x;
 524:Middlewares/LVGL/GUI/lvgl/src/extra/layouts/flex/lv_flex.c ****             item->coords.x2 += diff_x;
 525:Middlewares/LVGL/GUI/lvgl/src/extra/layouts/flex/lv_flex.c ****             item->coords.y1 += diff_y;
ARM GAS  C:\Users\ADMINI~1\AppData\Local\Temp\ccyi9XNv.s 			page 14


 526:Middlewares/LVGL/GUI/lvgl/src/extra/layouts/flex/lv_flex.c ****             item->coords.y2 += diff_y;
 527:Middlewares/LVGL/GUI/lvgl/src/extra/layouts/flex/lv_flex.c ****             lv_obj_invalidate(item);
 528:Middlewares/LVGL/GUI/lvgl/src/extra/layouts/flex/lv_flex.c ****             lv_obj_move_children_by(item, diff_x, diff_y, true);
 529:Middlewares/LVGL/GUI/lvgl/src/extra/layouts/flex/lv_flex.c ****         }
 530:Middlewares/LVGL/GUI/lvgl/src/extra/layouts/flex/lv_flex.c **** 
 531:Middlewares/LVGL/GUI/lvgl/src/extra/layouts/flex/lv_flex.c ****         if(!(f->row && rtl)) main_pos += area_get_main_size(&item->coords) + item_gap + place_gap;
 532:Middlewares/LVGL/GUI/lvgl/src/extra/layouts/flex/lv_flex.c ****         else main_pos -= item_gap + place_gap;
 533:Middlewares/LVGL/GUI/lvgl/src/extra/layouts/flex/lv_flex.c **** 
 534:Middlewares/LVGL/GUI/lvgl/src/extra/layouts/flex/lv_flex.c ****         item = get_next_item(cont, f->rev, &item_first_id);
 535:Middlewares/LVGL/GUI/lvgl/src/extra/layouts/flex/lv_flex.c ****     }
 536:Middlewares/LVGL/GUI/lvgl/src/extra/layouts/flex/lv_flex.c **** }
 537:Middlewares/LVGL/GUI/lvgl/src/extra/layouts/flex/lv_flex.c **** 
 538:Middlewares/LVGL/GUI/lvgl/src/extra/layouts/flex/lv_flex.c **** /**
 539:Middlewares/LVGL/GUI/lvgl/src/extra/layouts/flex/lv_flex.c ****  * Tell a start coordinate and gap for a placement type.
 540:Middlewares/LVGL/GUI/lvgl/src/extra/layouts/flex/lv_flex.c ****  */
 541:Middlewares/LVGL/GUI/lvgl/src/extra/layouts/flex/lv_flex.c **** static void place_content(lv_flex_align_t place, lv_coord_t max_size, lv_coord_t content_size, lv_c
 542:Middlewares/LVGL/GUI/lvgl/src/extra/layouts/flex/lv_flex.c ****                           lv_coord_t * start_pos, lv_coord_t * gap)
 543:Middlewares/LVGL/GUI/lvgl/src/extra/layouts/flex/lv_flex.c **** {
  86              		.loc 2 543 1 is_stmt 1 view -0
  87              		.cfi_startproc
  88              		@ args = 8, pretend = 0, frame = 0
  89              		@ frame_needed = 0, uses_anonymous_args = 0
  90              		@ link register save eliminated.
  91              		.loc 2 543 1 is_stmt 0 view .LVU13
  92 0000 30B4     		push	{r4, r5}
  93              	.LCFI0:
  94              		.cfi_def_cfa_offset 8
  95              		.cfi_offset 4, -8
  96              		.cfi_offset 5, -4
  97 0002 029D     		ldr	r5, [sp, #8]
  98 0004 039C     		ldr	r4, [sp, #12]
 544:Middlewares/LVGL/GUI/lvgl/src/extra/layouts/flex/lv_flex.c ****     if(item_cnt <= 1) {
  99              		.loc 2 544 5 is_stmt 1 view .LVU14
 100              		.loc 2 544 7 is_stmt 0 view .LVU15
 101 0006 012B     		cmp	r3, #1
 102 0008 07DD     		ble	.L14
 103              	.L4:
 545:Middlewares/LVGL/GUI/lvgl/src/extra/layouts/flex/lv_flex.c ****         switch(place) {
 546:Middlewares/LVGL/GUI/lvgl/src/extra/layouts/flex/lv_flex.c ****             case LV_FLEX_ALIGN_SPACE_BETWEEN:
 547:Middlewares/LVGL/GUI/lvgl/src/extra/layouts/flex/lv_flex.c ****             case LV_FLEX_ALIGN_SPACE_AROUND:
 548:Middlewares/LVGL/GUI/lvgl/src/extra/layouts/flex/lv_flex.c ****             case LV_FLEX_ALIGN_SPACE_EVENLY:
 549:Middlewares/LVGL/GUI/lvgl/src/extra/layouts/flex/lv_flex.c ****                 place = LV_FLEX_ALIGN_CENTER;
 550:Middlewares/LVGL/GUI/lvgl/src/extra/layouts/flex/lv_flex.c ****                 break;
 551:Middlewares/LVGL/GUI/lvgl/src/extra/layouts/flex/lv_flex.c ****             default:
 552:Middlewares/LVGL/GUI/lvgl/src/extra/layouts/flex/lv_flex.c ****                 break;
 553:Middlewares/LVGL/GUI/lvgl/src/extra/layouts/flex/lv_flex.c ****         }
 554:Middlewares/LVGL/GUI/lvgl/src/extra/layouts/flex/lv_flex.c ****     }
 555:Middlewares/LVGL/GUI/lvgl/src/extra/layouts/flex/lv_flex.c **** 
 556:Middlewares/LVGL/GUI/lvgl/src/extra/layouts/flex/lv_flex.c ****     switch(place) {
 104              		.loc 2 556 5 is_stmt 1 view .LVU16
 105 000a 0138     		subs	r0, r0, #1
 106              	.LVL5:
 107              		.loc 2 556 5 is_stmt 0 view .LVU17
 108 000c 0428     		cmp	r0, #4
 109 000e 37D8     		bhi	.L6
 110 0010 DFE800F0 		tbb	[pc, r0]
 111              	.L8:
ARM GAS  C:\Users\ADMINI~1\AppData\Local\Temp\ccyi9XNv.s 			page 15


 112 0014 13       		.byte	(.L11-.L8)/2
 113 0015 08       		.byte	(.L5-.L8)/2
 114 0016 2D       		.byte	(.L10-.L8)/2
 115 0017 20       		.byte	(.L9-.L8)/2
 116 0018 1A       		.byte	(.L7-.L8)/2
 117              	.LVL6:
 118 0019 00       		.p2align 1
 119              	.L14:
 545:Middlewares/LVGL/GUI/lvgl/src/extra/layouts/flex/lv_flex.c ****         switch(place) {
 120              		.loc 2 545 9 is_stmt 1 view .LVU18
 121 001a A0F1030C 		sub	ip, r0, #3
 122 001e BCF1020F 		cmp	ip, #2
 123 0022 F2D8     		bhi	.L4
 124              	.LVL7:
 125              	.L5:
 557:Middlewares/LVGL/GUI/lvgl/src/extra/layouts/flex/lv_flex.c ****         case LV_FLEX_ALIGN_CENTER:
 558:Middlewares/LVGL/GUI/lvgl/src/extra/layouts/flex/lv_flex.c ****             *gap = 0;
 126              		.loc 2 558 13 view .LVU19
 127              		.loc 2 558 18 is_stmt 0 view .LVU20
 128 0024 0023     		movs	r3, #0
 129              	.LVL8:
 130              		.loc 2 558 18 view .LVU21
 131 0026 2360     		str	r3, [r4]
 559:Middlewares/LVGL/GUI/lvgl/src/extra/layouts/flex/lv_flex.c ****             *start_pos += (max_size - content_size) / 2;
 132              		.loc 2 559 13 is_stmt 1 view .LVU22
 133              		.loc 2 559 37 is_stmt 0 view .LVU23
 134 0028 891A     		subs	r1, r1, r2
 135              	.LVL9:
 136              		.loc 2 559 53 view .LVU24
 137 002a 01EBD171 		add	r1, r1, r1, lsr #31
 138              		.loc 2 559 24 view .LVU25
 139 002e 2B68     		ldr	r3, [r5]
 140 0030 03EB6101 		add	r1, r3, r1, asr #1
 141 0034 2960     		str	r1, [r5]
 560:Middlewares/LVGL/GUI/lvgl/src/extra/layouts/flex/lv_flex.c ****             break;
 142              		.loc 2 560 13 is_stmt 1 view .LVU26
 143              	.L3:
 561:Middlewares/LVGL/GUI/lvgl/src/extra/layouts/flex/lv_flex.c ****         case LV_FLEX_ALIGN_END:
 562:Middlewares/LVGL/GUI/lvgl/src/extra/layouts/flex/lv_flex.c ****             *gap = 0;
 563:Middlewares/LVGL/GUI/lvgl/src/extra/layouts/flex/lv_flex.c ****             *start_pos += max_size - content_size;
 564:Middlewares/LVGL/GUI/lvgl/src/extra/layouts/flex/lv_flex.c ****             break;
 565:Middlewares/LVGL/GUI/lvgl/src/extra/layouts/flex/lv_flex.c ****         case LV_FLEX_ALIGN_SPACE_BETWEEN:
 566:Middlewares/LVGL/GUI/lvgl/src/extra/layouts/flex/lv_flex.c ****             *gap = (lv_coord_t)(max_size - content_size) / (lv_coord_t)(item_cnt - 1);
 567:Middlewares/LVGL/GUI/lvgl/src/extra/layouts/flex/lv_flex.c ****             break;
 568:Middlewares/LVGL/GUI/lvgl/src/extra/layouts/flex/lv_flex.c ****         case LV_FLEX_ALIGN_SPACE_AROUND:
 569:Middlewares/LVGL/GUI/lvgl/src/extra/layouts/flex/lv_flex.c ****             *gap += (lv_coord_t)(max_size - content_size) / (lv_coord_t)(item_cnt);
 570:Middlewares/LVGL/GUI/lvgl/src/extra/layouts/flex/lv_flex.c ****             *start_pos += *gap / 2;
 571:Middlewares/LVGL/GUI/lvgl/src/extra/layouts/flex/lv_flex.c ****             break;
 572:Middlewares/LVGL/GUI/lvgl/src/extra/layouts/flex/lv_flex.c ****         case LV_FLEX_ALIGN_SPACE_EVENLY:
 573:Middlewares/LVGL/GUI/lvgl/src/extra/layouts/flex/lv_flex.c ****             *gap = (lv_coord_t)(max_size - content_size) / (lv_coord_t)(item_cnt + 1);
 574:Middlewares/LVGL/GUI/lvgl/src/extra/layouts/flex/lv_flex.c ****             *start_pos += *gap;
 575:Middlewares/LVGL/GUI/lvgl/src/extra/layouts/flex/lv_flex.c ****             break;
 576:Middlewares/LVGL/GUI/lvgl/src/extra/layouts/flex/lv_flex.c ****         default:
 577:Middlewares/LVGL/GUI/lvgl/src/extra/layouts/flex/lv_flex.c ****             *gap = 0;
 578:Middlewares/LVGL/GUI/lvgl/src/extra/layouts/flex/lv_flex.c ****     }
 579:Middlewares/LVGL/GUI/lvgl/src/extra/layouts/flex/lv_flex.c **** }
 144              		.loc 2 579 1 is_stmt 0 view .LVU27
ARM GAS  C:\Users\ADMINI~1\AppData\Local\Temp\ccyi9XNv.s 			page 16


 145 0036 30BC     		pop	{r4, r5}
 146              	.LCFI1:
 147              		.cfi_remember_state
 148              		.cfi_restore 5
 149              		.cfi_restore 4
 150              		.cfi_def_cfa_offset 0
 151              	.LVL10:
 152              		.loc 2 579 1 view .LVU28
 153 0038 7047     		bx	lr
 154              	.LVL11:
 155              	.L11:
 156              	.LCFI2:
 157              		.cfi_restore_state
 562:Middlewares/LVGL/GUI/lvgl/src/extra/layouts/flex/lv_flex.c ****             *start_pos += max_size - content_size;
 158              		.loc 2 562 13 is_stmt 1 view .LVU29
 562:Middlewares/LVGL/GUI/lvgl/src/extra/layouts/flex/lv_flex.c ****             *start_pos += max_size - content_size;
 159              		.loc 2 562 18 is_stmt 0 view .LVU30
 160 003a 0023     		movs	r3, #0
 161              	.LVL12:
 562:Middlewares/LVGL/GUI/lvgl/src/extra/layouts/flex/lv_flex.c ****             *start_pos += max_size - content_size;
 162              		.loc 2 562 18 view .LVU31
 163 003c 2360     		str	r3, [r4]
 563:Middlewares/LVGL/GUI/lvgl/src/extra/layouts/flex/lv_flex.c ****             break;
 164              		.loc 2 563 13 is_stmt 1 view .LVU32
 563:Middlewares/LVGL/GUI/lvgl/src/extra/layouts/flex/lv_flex.c ****             break;
 165              		.loc 2 563 36 is_stmt 0 view .LVU33
 166 003e 891A     		subs	r1, r1, r2
 167              	.LVL13:
 563:Middlewares/LVGL/GUI/lvgl/src/extra/layouts/flex/lv_flex.c ****             break;
 168              		.loc 2 563 24 view .LVU34
 169 0040 2B68     		ldr	r3, [r5]
 170 0042 1944     		add	r1, r1, r3
 171 0044 2960     		str	r1, [r5]
 564:Middlewares/LVGL/GUI/lvgl/src/extra/layouts/flex/lv_flex.c ****         case LV_FLEX_ALIGN_SPACE_BETWEEN:
 172              		.loc 2 564 13 is_stmt 1 view .LVU35
 173 0046 F6E7     		b	.L3
 174              	.LVL14:
 175              	.L7:
 566:Middlewares/LVGL/GUI/lvgl/src/extra/layouts/flex/lv_flex.c ****             break;
 176              		.loc 2 566 13 view .LVU36
 566:Middlewares/LVGL/GUI/lvgl/src/extra/layouts/flex/lv_flex.c ****             break;
 177              		.loc 2 566 42 is_stmt 0 view .LVU37
 178 0048 891A     		subs	r1, r1, r2
 179              	.LVL15:
 566:Middlewares/LVGL/GUI/lvgl/src/extra/layouts/flex/lv_flex.c ****             break;
 180              		.loc 2 566 60 view .LVU38
 181 004a 013B     		subs	r3, r3, #1
 182              	.LVL16:
 566:Middlewares/LVGL/GUI/lvgl/src/extra/layouts/flex/lv_flex.c ****             break;
 183              		.loc 2 566 58 view .LVU39
 184 004c 91FBF3F1 		sdiv	r1, r1, r3
 566:Middlewares/LVGL/GUI/lvgl/src/extra/layouts/flex/lv_flex.c ****             break;
 185              		.loc 2 566 18 view .LVU40
 186 0050 2160     		str	r1, [r4]
 567:Middlewares/LVGL/GUI/lvgl/src/extra/layouts/flex/lv_flex.c ****         case LV_FLEX_ALIGN_SPACE_AROUND:
 187              		.loc 2 567 13 is_stmt 1 view .LVU41
 188 0052 F0E7     		b	.L3
ARM GAS  C:\Users\ADMINI~1\AppData\Local\Temp\ccyi9XNv.s 			page 17


 189              	.LVL17:
 190              	.L9:
 569:Middlewares/LVGL/GUI/lvgl/src/extra/layouts/flex/lv_flex.c ****             *start_pos += *gap / 2;
 191              		.loc 2 569 13 view .LVU42
 569:Middlewares/LVGL/GUI/lvgl/src/extra/layouts/flex/lv_flex.c ****             *start_pos += *gap / 2;
 192              		.loc 2 569 43 is_stmt 0 view .LVU43
 193 0054 891A     		subs	r1, r1, r2
 194              	.LVL18:
 569:Middlewares/LVGL/GUI/lvgl/src/extra/layouts/flex/lv_flex.c ****             *start_pos += *gap / 2;
 195              		.loc 2 569 59 view .LVU44
 196 0056 91FBF3F1 		sdiv	r1, r1, r3
 569:Middlewares/LVGL/GUI/lvgl/src/extra/layouts/flex/lv_flex.c ****             *start_pos += *gap / 2;
 197              		.loc 2 569 18 view .LVU45
 198 005a 2368     		ldr	r3, [r4]
 199              	.LVL19:
 569:Middlewares/LVGL/GUI/lvgl/src/extra/layouts/flex/lv_flex.c ****             *start_pos += *gap / 2;
 200              		.loc 2 569 18 view .LVU46
 201 005c 1944     		add	r1, r1, r3
 202 005e 2160     		str	r1, [r4]
 570:Middlewares/LVGL/GUI/lvgl/src/extra/layouts/flex/lv_flex.c ****             break;
 203              		.loc 2 570 13 is_stmt 1 view .LVU47
 570:Middlewares/LVGL/GUI/lvgl/src/extra/layouts/flex/lv_flex.c ****             break;
 204              		.loc 2 570 32 is_stmt 0 view .LVU48
 205 0060 01EBD171 		add	r1, r1, r1, lsr #31
 570:Middlewares/LVGL/GUI/lvgl/src/extra/layouts/flex/lv_flex.c ****             break;
 206              		.loc 2 570 24 view .LVU49
 207 0064 2B68     		ldr	r3, [r5]
 208 0066 03EB6101 		add	r1, r3, r1, asr #1
 209 006a 2960     		str	r1, [r5]
 571:Middlewares/LVGL/GUI/lvgl/src/extra/layouts/flex/lv_flex.c ****         case LV_FLEX_ALIGN_SPACE_EVENLY:
 210              		.loc 2 571 13 is_stmt 1 view .LVU50
 211 006c E3E7     		b	.L3
 212              	.LVL20:
 213              	.L10:
 573:Middlewares/LVGL/GUI/lvgl/src/extra/layouts/flex/lv_flex.c ****             *start_pos += *gap;
 214              		.loc 2 573 13 view .LVU51
 573:Middlewares/LVGL/GUI/lvgl/src/extra/layouts/flex/lv_flex.c ****             *start_pos += *gap;
 215              		.loc 2 573 42 is_stmt 0 view .LVU52
 216 006e 891A     		subs	r1, r1, r2
 217              	.LVL21:
 573:Middlewares/LVGL/GUI/lvgl/src/extra/layouts/flex/lv_flex.c ****             *start_pos += *gap;
 218              		.loc 2 573 60 view .LVU53
 219 0070 0133     		adds	r3, r3, #1
 220              	.LVL22:
 573:Middlewares/LVGL/GUI/lvgl/src/extra/layouts/flex/lv_flex.c ****             *start_pos += *gap;
 221              		.loc 2 573 58 view .LVU54
 222 0072 91FBF3F1 		sdiv	r1, r1, r3
 573:Middlewares/LVGL/GUI/lvgl/src/extra/layouts/flex/lv_flex.c ****             *start_pos += *gap;
 223              		.loc 2 573 18 view .LVU55
 224 0076 2160     		str	r1, [r4]
 574:Middlewares/LVGL/GUI/lvgl/src/extra/layouts/flex/lv_flex.c ****             break;
 225              		.loc 2 574 13 is_stmt 1 view .LVU56
 574:Middlewares/LVGL/GUI/lvgl/src/extra/layouts/flex/lv_flex.c ****             break;
 226              		.loc 2 574 24 is_stmt 0 view .LVU57
 227 0078 2B68     		ldr	r3, [r5]
 228              	.LVL23:
 574:Middlewares/LVGL/GUI/lvgl/src/extra/layouts/flex/lv_flex.c ****             break;
ARM GAS  C:\Users\ADMINI~1\AppData\Local\Temp\ccyi9XNv.s 			page 18


 229              		.loc 2 574 24 view .LVU58
 230 007a 1944     		add	r1, r1, r3
 231 007c 2960     		str	r1, [r5]
 575:Middlewares/LVGL/GUI/lvgl/src/extra/layouts/flex/lv_flex.c ****         default:
 232              		.loc 2 575 13 is_stmt 1 view .LVU59
 233 007e DAE7     		b	.L3
 234              	.LVL24:
 235              	.L6:
 577:Middlewares/LVGL/GUI/lvgl/src/extra/layouts/flex/lv_flex.c ****     }
 236              		.loc 2 577 13 view .LVU60
 577:Middlewares/LVGL/GUI/lvgl/src/extra/layouts/flex/lv_flex.c ****     }
 237              		.loc 2 577 18 is_stmt 0 view .LVU61
 238 0080 0023     		movs	r3, #0
 239              	.LVL25:
 577:Middlewares/LVGL/GUI/lvgl/src/extra/layouts/flex/lv_flex.c ****     }
 240              		.loc 2 577 18 view .LVU62
 241 0082 2360     		str	r3, [r4]
 242              		.loc 2 579 1 view .LVU63
 243 0084 D7E7     		b	.L3
 244              		.cfi_endproc
 245              	.LFE186:
 247              		.section	.text.get_next_item,"ax",%progbits
 248              		.align	1
 249              		.syntax unified
 250              		.thumb
 251              		.thumb_func
 253              	get_next_item:
 254              	.LVL26:
 255              	.LFB187:
 580:Middlewares/LVGL/GUI/lvgl/src/extra/layouts/flex/lv_flex.c **** 
 581:Middlewares/LVGL/GUI/lvgl/src/extra/layouts/flex/lv_flex.c **** static lv_obj_t * get_next_item(lv_obj_t * cont, bool rev, int32_t * item_id)
 582:Middlewares/LVGL/GUI/lvgl/src/extra/layouts/flex/lv_flex.c **** {
 256              		.loc 2 582 1 is_stmt 1 view -0
 257              		.cfi_startproc
 258              		@ args = 0, pretend = 0, frame = 0
 259              		@ frame_needed = 0, uses_anonymous_args = 0
 260              		@ link register save eliminated.
 583:Middlewares/LVGL/GUI/lvgl/src/extra/layouts/flex/lv_flex.c ****     if(rev) {
 261              		.loc 2 583 5 view .LVU65
 262              		.loc 2 583 7 is_stmt 0 view .LVU66
 263 0000 49B1     		cbz	r1, .L16
 584:Middlewares/LVGL/GUI/lvgl/src/extra/layouts/flex/lv_flex.c ****         (*item_id)--;
 264              		.loc 2 584 9 is_stmt 1 view .LVU67
 265              		.loc 2 584 10 is_stmt 0 view .LVU68
 266 0002 1368     		ldr	r3, [r2]
 267              		.loc 2 584 19 view .LVU69
 268 0004 013B     		subs	r3, r3, #1
 269 0006 1360     		str	r3, [r2]
 585:Middlewares/LVGL/GUI/lvgl/src/extra/layouts/flex/lv_flex.c ****         if(*item_id >= 0) return cont->spec_attr->children[*item_id];
 270              		.loc 2 585 9 is_stmt 1 view .LVU70
 271              		.loc 2 585 11 is_stmt 0 view .LVU71
 272 0008 002B     		cmp	r3, #0
 273 000a 0FDB     		blt	.L18
 274              		.loc 2 585 27 is_stmt 1 discriminator 1 view .LVU72
 275              		.loc 2 585 38 is_stmt 0 discriminator 1 view .LVU73
 276 000c 8268     		ldr	r2, [r0, #8]
 277              	.LVL27:
ARM GAS  C:\Users\ADMINI~1\AppData\Local\Temp\ccyi9XNv.s 			page 19


 278              		.loc 2 585 49 discriminator 1 view .LVU74
 279 000e 1268     		ldr	r2, [r2]
 280              		.loc 2 585 59 discriminator 1 view .LVU75
 281 0010 52F82300 		ldr	r0, [r2, r3, lsl #2]
 282              	.LVL28:
 283              		.loc 2 585 59 discriminator 1 view .LVU76
 284 0014 7047     		bx	lr
 285              	.LVL29:
 286              	.L16:
 586:Middlewares/LVGL/GUI/lvgl/src/extra/layouts/flex/lv_flex.c ****         else return NULL;
 587:Middlewares/LVGL/GUI/lvgl/src/extra/layouts/flex/lv_flex.c ****     }
 588:Middlewares/LVGL/GUI/lvgl/src/extra/layouts/flex/lv_flex.c ****     else {
 589:Middlewares/LVGL/GUI/lvgl/src/extra/layouts/flex/lv_flex.c ****         (*item_id)++;
 287              		.loc 2 589 9 is_stmt 1 view .LVU77
 288              		.loc 2 589 10 is_stmt 0 view .LVU78
 289 0016 1368     		ldr	r3, [r2]
 290              		.loc 2 589 19 view .LVU79
 291 0018 0133     		adds	r3, r3, #1
 292 001a 1360     		str	r3, [r2]
 590:Middlewares/LVGL/GUI/lvgl/src/extra/layouts/flex/lv_flex.c ****         if((*item_id) < (int32_t)cont->spec_attr->child_cnt) return cont->spec_attr->children[*item
 293              		.loc 2 590 9 is_stmt 1 view .LVU80
 294              		.loc 2 590 38 is_stmt 0 view .LVU81
 295 001c 8268     		ldr	r2, [r0, #8]
 296              	.LVL30:
 297              		.loc 2 590 49 view .LVU82
 298 001e 5168     		ldr	r1, [r2, #4]
 299              	.LVL31:
 300              		.loc 2 590 11 view .LVU83
 301 0020 8B42     		cmp	r3, r1
 302 0022 05DA     		bge	.L19
 303              		.loc 2 590 62 is_stmt 1 discriminator 1 view .LVU84
 304              		.loc 2 590 84 is_stmt 0 discriminator 1 view .LVU85
 305 0024 1268     		ldr	r2, [r2]
 306              		.loc 2 590 94 discriminator 1 view .LVU86
 307 0026 52F82300 		ldr	r0, [r2, r3, lsl #2]
 308              	.LVL32:
 309              		.loc 2 590 94 discriminator 1 view .LVU87
 310 002a 7047     		bx	lr
 311              	.LVL33:
 312              	.L18:
 586:Middlewares/LVGL/GUI/lvgl/src/extra/layouts/flex/lv_flex.c ****         else return NULL;
 313              		.loc 2 586 21 view .LVU88
 314 002c 0020     		movs	r0, #0
 315              	.LVL34:
 586:Middlewares/LVGL/GUI/lvgl/src/extra/layouts/flex/lv_flex.c ****         else return NULL;
 316              		.loc 2 586 21 view .LVU89
 317 002e 7047     		bx	lr
 318              	.LVL35:
 319              	.L19:
 591:Middlewares/LVGL/GUI/lvgl/src/extra/layouts/flex/lv_flex.c ****         else return NULL;
 320              		.loc 2 591 21 view .LVU90
 321 0030 0020     		movs	r0, #0
 322              	.LVL36:
 592:Middlewares/LVGL/GUI/lvgl/src/extra/layouts/flex/lv_flex.c ****     }
 593:Middlewares/LVGL/GUI/lvgl/src/extra/layouts/flex/lv_flex.c **** }
 323              		.loc 2 593 1 view .LVU91
 324 0032 7047     		bx	lr
ARM GAS  C:\Users\ADMINI~1\AppData\Local\Temp\ccyi9XNv.s 			page 20


 325              		.cfi_endproc
 326              	.LFE187:
 328              		.section	.text.find_track_end,"ax",%progbits
 329              		.align	1
 330              		.syntax unified
 331              		.thumb
 332              		.thumb_func
 334              	find_track_end:
 335              	.LVL37:
 336              	.LFB184:
 319:Middlewares/LVGL/GUI/lvgl/src/extra/layouts/flex/lv_flex.c ****     lv_coord_t w_set = lv_obj_get_style_width(cont, LV_PART_MAIN);
 337              		.loc 2 319 1 is_stmt 1 view -0
 338              		.cfi_startproc
 339              		@ args = 8, pretend = 0, frame = 16
 340              		@ frame_needed = 0, uses_anonymous_args = 0
 319:Middlewares/LVGL/GUI/lvgl/src/extra/layouts/flex/lv_flex.c ****     lv_coord_t w_set = lv_obj_get_style_width(cont, LV_PART_MAIN);
 341              		.loc 2 319 1 is_stmt 0 view .LVU93
 342 0000 2DE9F04F 		push	{r4, r5, r6, r7, r8, r9, r10, fp, lr}
 343              	.LCFI3:
 344              		.cfi_def_cfa_offset 36
 345              		.cfi_offset 4, -36
 346              		.cfi_offset 5, -32
 347              		.cfi_offset 6, -28
 348              		.cfi_offset 7, -24
 349              		.cfi_offset 8, -20
 350              		.cfi_offset 9, -16
 351              		.cfi_offset 10, -12
 352              		.cfi_offset 11, -8
 353              		.cfi_offset 14, -4
 354 0004 85B0     		sub	sp, sp, #20
 355              	.LCFI4:
 356              		.cfi_def_cfa_offset 56
 357 0006 8146     		mov	r9, r0
 358 0008 0E46     		mov	r6, r1
 359 000a 9046     		mov	r8, r2
 360 000c 0093     		str	r3, [sp]
 361 000e 0F9D     		ldr	r5, [sp, #60]
 320:Middlewares/LVGL/GUI/lvgl/src/extra/layouts/flex/lv_flex.c ****     lv_coord_t h_set = lv_obj_get_style_height(cont, LV_PART_MAIN);
 362              		.loc 2 320 5 is_stmt 1 view .LVU94
 363              	.LVL38:
 364              	.LBB64:
 365              	.LBI64:
 366              		.file 3 "Middlewares/LVGL/GUI/lvgl/src/extra/layouts/flex/../flex/../../../core/lv_obj_style_gen.h
   1:Middlewares/LVGL/GUI/lvgl/src/extra/layouts/flex/../flex/../../../core/lv_obj_style_gen.h **** static inline lv_coord_t lv_obj_get_style_width(const struct _lv_obj_t * obj, uint32_t part)
 367              		.loc 3 1 26 view .LVU95
 368              	.LBB65:
   2:Middlewares/LVGL/GUI/lvgl/src/extra/layouts/flex/../flex/../../../core/lv_obj_style_gen.h **** {
   3:Middlewares/LVGL/GUI/lvgl/src/extra/layouts/flex/../flex/../../../core/lv_obj_style_gen.h ****     lv_style_value_t v = lv_obj_get_style_prop(obj, part, LV_STYLE_WIDTH);
 369              		.loc 3 3 5 view .LVU96
 370              		.loc 3 3 26 is_stmt 0 view .LVU97
 371 0010 41F20102 		movw	r2, #4097
 372              	.LVL39:
 373              		.loc 3 3 26 view .LVU98
 374 0014 0021     		movs	r1, #0
 375              	.LVL40:
 376              		.loc 3 3 26 view .LVU99
 377 0016 FFF7FEFF 		bl	lv_obj_get_style_prop
ARM GAS  C:\Users\ADMINI~1\AppData\Local\Temp\ccyi9XNv.s 			page 21


 378              	.LVL41:
 379              		.loc 3 3 26 view .LVU100
 380 001a 0446     		mov	r4, r0
   4:Middlewares/LVGL/GUI/lvgl/src/extra/layouts/flex/../flex/../../../core/lv_obj_style_gen.h ****     return (lv_coord_t)v.num;
 381              		.loc 3 4 5 is_stmt 1 view .LVU101
 382              	.LVL42:
 383              		.loc 3 4 5 is_stmt 0 view .LVU102
 384              	.LBE65:
 385              	.LBE64:
 321:Middlewares/LVGL/GUI/lvgl/src/extra/layouts/flex/lv_flex.c **** 
 386              		.loc 2 321 5 is_stmt 1 view .LVU103
 387              	.LBB66:
 388              	.LBI66:
   5:Middlewares/LVGL/GUI/lvgl/src/extra/layouts/flex/../flex/../../../core/lv_obj_style_gen.h **** }
   6:Middlewares/LVGL/GUI/lvgl/src/extra/layouts/flex/../flex/../../../core/lv_obj_style_gen.h **** 
   7:Middlewares/LVGL/GUI/lvgl/src/extra/layouts/flex/../flex/../../../core/lv_obj_style_gen.h **** static inline lv_coord_t lv_obj_get_style_min_width(const struct _lv_obj_t * obj, uint32_t part)
   8:Middlewares/LVGL/GUI/lvgl/src/extra/layouts/flex/../flex/../../../core/lv_obj_style_gen.h **** {
   9:Middlewares/LVGL/GUI/lvgl/src/extra/layouts/flex/../flex/../../../core/lv_obj_style_gen.h ****     lv_style_value_t v = lv_obj_get_style_prop(obj, part, LV_STYLE_MIN_WIDTH);
  10:Middlewares/LVGL/GUI/lvgl/src/extra/layouts/flex/../flex/../../../core/lv_obj_style_gen.h ****     return (lv_coord_t)v.num;
  11:Middlewares/LVGL/GUI/lvgl/src/extra/layouts/flex/../flex/../../../core/lv_obj_style_gen.h **** }
  12:Middlewares/LVGL/GUI/lvgl/src/extra/layouts/flex/../flex/../../../core/lv_obj_style_gen.h **** 
  13:Middlewares/LVGL/GUI/lvgl/src/extra/layouts/flex/../flex/../../../core/lv_obj_style_gen.h **** static inline lv_coord_t lv_obj_get_style_max_width(const struct _lv_obj_t * obj, uint32_t part)
  14:Middlewares/LVGL/GUI/lvgl/src/extra/layouts/flex/../flex/../../../core/lv_obj_style_gen.h **** {
  15:Middlewares/LVGL/GUI/lvgl/src/extra/layouts/flex/../flex/../../../core/lv_obj_style_gen.h ****     lv_style_value_t v = lv_obj_get_style_prop(obj, part, LV_STYLE_MAX_WIDTH);
  16:Middlewares/LVGL/GUI/lvgl/src/extra/layouts/flex/../flex/../../../core/lv_obj_style_gen.h ****     return (lv_coord_t)v.num;
  17:Middlewares/LVGL/GUI/lvgl/src/extra/layouts/flex/../flex/../../../core/lv_obj_style_gen.h **** }
  18:Middlewares/LVGL/GUI/lvgl/src/extra/layouts/flex/../flex/../../../core/lv_obj_style_gen.h **** 
  19:Middlewares/LVGL/GUI/lvgl/src/extra/layouts/flex/../flex/../../../core/lv_obj_style_gen.h **** static inline lv_coord_t lv_obj_get_style_height(const struct _lv_obj_t * obj, uint32_t part)
 389              		.loc 3 19 26 view .LVU104
 390              	.LBB67:
  20:Middlewares/LVGL/GUI/lvgl/src/extra/layouts/flex/../flex/../../../core/lv_obj_style_gen.h **** {
  21:Middlewares/LVGL/GUI/lvgl/src/extra/layouts/flex/../flex/../../../core/lv_obj_style_gen.h ****     lv_style_value_t v = lv_obj_get_style_prop(obj, part, LV_STYLE_HEIGHT);
 391              		.loc 3 21 5 view .LVU105
 392              		.loc 3 21 26 is_stmt 0 view .LVU106
 393 001c 41F20402 		movw	r2, #4100
 394 0020 0021     		movs	r1, #0
 395 0022 4846     		mov	r0, r9
 396              	.LVL43:
 397              		.loc 3 21 26 view .LVU107
 398 0024 FFF7FEFF 		bl	lv_obj_get_style_prop
 399              	.LVL44:
  22:Middlewares/LVGL/GUI/lvgl/src/extra/layouts/flex/../flex/../../../core/lv_obj_style_gen.h ****     return (lv_coord_t)v.num;
 400              		.loc 3 22 5 is_stmt 1 view .LVU108
 401              		.loc 3 22 5 is_stmt 0 view .LVU109
 402              	.LBE67:
 403              	.LBE66:
 324:Middlewares/LVGL/GUI/lvgl/src/extra/layouts/flex/lv_flex.c ****         f->wrap = false;
 404              		.loc 2 324 5 is_stmt 1 view .LVU110
 324:Middlewares/LVGL/GUI/lvgl/src/extra/layouts/flex/lv_flex.c ****         f->wrap = false;
 405              		.loc 2 324 8 is_stmt 0 view .LVU111
 406 0028 F378     		ldrb	r3, [r6, #3]	@ zero_extendqisi2
 324:Middlewares/LVGL/GUI/lvgl/src/extra/layouts/flex/lv_flex.c ****         f->wrap = false;
 407              		.loc 2 324 7 view .LVU112
 408 002a 13F0020F 		tst	r3, #2
 409 002e 0DD0     		beq	.L21
 324:Middlewares/LVGL/GUI/lvgl/src/extra/layouts/flex/lv_flex.c ****         f->wrap = false;
 410              		.loc 2 324 16 discriminator 1 view .LVU113
ARM GAS  C:\Users\ADMINI~1\AppData\Local\Temp\ccyi9XNv.s 			page 22


 411 0030 13F00103 		ands	r3, r3, #1
 412 0034 02D0     		beq	.L22
 324:Middlewares/LVGL/GUI/lvgl/src/extra/layouts/flex/lv_flex.c ****         f->wrap = false;
 413              		.loc 2 324 28 discriminator 2 view .LVU114
 414 0036 854A     		ldr	r2, .L52
 415 0038 9442     		cmp	r4, r2
 416 003a 03D0     		beq	.L23
 417              	.L22:
 324:Middlewares/LVGL/GUI/lvgl/src/extra/layouts/flex/lv_flex.c ****         f->wrap = false;
 418              		.loc 2 324 57 discriminator 4 view .LVU115
 419 003c 33B9     		cbnz	r3, .L21
 324:Middlewares/LVGL/GUI/lvgl/src/extra/layouts/flex/lv_flex.c ****         f->wrap = false;
 420              		.loc 2 324 69 discriminator 5 view .LVU116
 421 003e 834B     		ldr	r3, .L52
 422 0040 9842     		cmp	r0, r3
 423 0042 03D1     		bne	.L21
 424              	.L23:
 325:Middlewares/LVGL/GUI/lvgl/src/extra/layouts/flex/lv_flex.c ****     }
 425              		.loc 2 325 9 is_stmt 1 view .LVU117
 325:Middlewares/LVGL/GUI/lvgl/src/extra/layouts/flex/lv_flex.c ****     }
 426              		.loc 2 325 17 is_stmt 0 view .LVU118
 427 0044 F378     		ldrb	r3, [r6, #3]	@ zero_extendqisi2
 428 0046 6FF34103 		bfc	r3, #1, #1
 429 004a F370     		strb	r3, [r6, #3]
 430              	.L21:
 327:Middlewares/LVGL/GUI/lvgl/src/extra/layouts/flex/lv_flex.c ****     lv_coord_t(*get_cross_size)(const lv_obj_t *) = (!f->row ? lv_obj_get_width : lv_obj_get_height
 431              		.loc 2 327 5 is_stmt 1 view .LVU119
 327:Middlewares/LVGL/GUI/lvgl/src/extra/layouts/flex/lv_flex.c ****     lv_coord_t(*get_cross_size)(const lv_obj_t *) = (!f->row ? lv_obj_get_width : lv_obj_get_height
 432              		.loc 2 327 60 is_stmt 0 view .LVU120
 433 004c F378     		ldrb	r3, [r6, #3]	@ zero_extendqisi2
 327:Middlewares/LVGL/GUI/lvgl/src/extra/layouts/flex/lv_flex.c ****     lv_coord_t(*get_cross_size)(const lv_obj_t *) = (!f->row ? lv_obj_get_width : lv_obj_get_height
 434              		.loc 2 327 17 view .LVU121
 435 004e 13F00103 		ands	r3, r3, #1
 436 0052 13D0     		beq	.L46
 437 0054 7E4A     		ldr	r2, .L52+4
 438 0056 0192     		str	r2, [sp, #4]
 439              	.L24:
 440              	.LVL45:
 328:Middlewares/LVGL/GUI/lvgl/src/extra/layouts/flex/lv_flex.c **** 
 441              		.loc 2 328 5 is_stmt 1 discriminator 4 view .LVU122
 328:Middlewares/LVGL/GUI/lvgl/src/extra/layouts/flex/lv_flex.c **** 
 442              		.loc 2 328 17 is_stmt 0 discriminator 4 view .LVU123
 443 0058 9BB9     		cbnz	r3, .L47
 328:Middlewares/LVGL/GUI/lvgl/src/extra/layouts/flex/lv_flex.c **** 
 444              		.loc 2 328 17 view .LVU124
 445 005a DFF8F4A1 		ldr	r10, .L52+4
 446              	.L25:
 447              	.LVL46:
 330:Middlewares/LVGL/GUI/lvgl/src/extra/layouts/flex/lv_flex.c ****     t->track_fix_main_size = 0;
 448              		.loc 2 330 5 is_stmt 1 discriminator 4 view .LVU125
 330:Middlewares/LVGL/GUI/lvgl/src/extra/layouts/flex/lv_flex.c ****     t->track_fix_main_size = 0;
 449              		.loc 2 330 24 is_stmt 0 discriminator 4 view .LVU126
 450 005e 0023     		movs	r3, #0
 451 0060 6B60     		str	r3, [r5, #4]
 331:Middlewares/LVGL/GUI/lvgl/src/extra/layouts/flex/lv_flex.c ****     t->grow_item_cnt = 0;
 452              		.loc 2 331 5 is_stmt 1 discriminator 4 view .LVU127
 331:Middlewares/LVGL/GUI/lvgl/src/extra/layouts/flex/lv_flex.c ****     t->grow_item_cnt = 0;
ARM GAS  C:\Users\ADMINI~1\AppData\Local\Temp\ccyi9XNv.s 			page 23


 453              		.loc 2 331 28 is_stmt 0 discriminator 4 view .LVU128
 454 0062 AB60     		str	r3, [r5, #8]
 332:Middlewares/LVGL/GUI/lvgl/src/extra/layouts/flex/lv_flex.c ****     t->track_cross_size = 0;
 455              		.loc 2 332 5 is_stmt 1 discriminator 4 view .LVU129
 332:Middlewares/LVGL/GUI/lvgl/src/extra/layouts/flex/lv_flex.c ****     t->track_cross_size = 0;
 456              		.loc 2 332 22 is_stmt 0 discriminator 4 view .LVU130
 457 0064 6B61     		str	r3, [r5, #20]
 333:Middlewares/LVGL/GUI/lvgl/src/extra/layouts/flex/lv_flex.c ****     t->item_cnt = 0;
 458              		.loc 2 333 5 is_stmt 1 discriminator 4 view .LVU131
 333:Middlewares/LVGL/GUI/lvgl/src/extra/layouts/flex/lv_flex.c ****     t->item_cnt = 0;
 459              		.loc 2 333 25 is_stmt 0 discriminator 4 view .LVU132
 460 0066 2B60     		str	r3, [r5]
 334:Middlewares/LVGL/GUI/lvgl/src/extra/layouts/flex/lv_flex.c ****     t->grow_dsc = NULL;
 461              		.loc 2 334 5 is_stmt 1 discriminator 4 view .LVU133
 334:Middlewares/LVGL/GUI/lvgl/src/extra/layouts/flex/lv_flex.c ****     t->grow_dsc = NULL;
 462              		.loc 2 334 17 is_stmt 0 discriminator 4 view .LVU134
 463 0068 EB60     		str	r3, [r5, #12]
 335:Middlewares/LVGL/GUI/lvgl/src/extra/layouts/flex/lv_flex.c **** 
 464              		.loc 2 335 5 is_stmt 1 discriminator 4 view .LVU135
 335:Middlewares/LVGL/GUI/lvgl/src/extra/layouts/flex/lv_flex.c **** 
 465              		.loc 2 335 17 is_stmt 0 discriminator 4 view .LVU136
 466 006a 2B61     		str	r3, [r5, #16]
 337:Middlewares/LVGL/GUI/lvgl/src/extra/layouts/flex/lv_flex.c **** 
 467              		.loc 2 337 5 is_stmt 1 discriminator 4 view .LVU137
 337:Middlewares/LVGL/GUI/lvgl/src/extra/layouts/flex/lv_flex.c **** 
 468              		.loc 2 337 13 is_stmt 0 discriminator 4 view .LVU138
 469 006c CDF80C80 		str	r8, [sp, #12]
 339:Middlewares/LVGL/GUI/lvgl/src/extra/layouts/flex/lv_flex.c ****     while(item) {
 470              		.loc 2 339 5 is_stmt 1 discriminator 4 view .LVU139
 339:Middlewares/LVGL/GUI/lvgl/src/extra/layouts/flex/lv_flex.c ****     while(item) {
 471              		.loc 2 339 23 is_stmt 0 discriminator 4 view .LVU140
 472 0070 4146     		mov	r1, r8
 473 0072 4846     		mov	r0, r9
 474              	.LVL47:
 339:Middlewares/LVGL/GUI/lvgl/src/extra/layouts/flex/lv_flex.c ****     while(item) {
 475              		.loc 2 339 23 discriminator 4 view .LVU141
 476 0074 FFF7FEFF 		bl	lv_obj_get_child
 477              	.LVL48:
 478 0078 0446     		mov	r4, r0
 479              	.LVL49:
 340:Middlewares/LVGL/GUI/lvgl/src/extra/layouts/flex/lv_flex.c ****         if(item_id != item_start_id && lv_obj_has_flag(item, LV_OBJ_FLAG_FLEX_IN_NEW_TRACK)) break;
 480              		.loc 2 340 5 is_stmt 1 discriminator 4 view .LVU142
 340:Middlewares/LVGL/GUI/lvgl/src/extra/layouts/flex/lv_flex.c ****         if(item_id != item_start_id && lv_obj_has_flag(item, LV_OBJ_FLAG_FLEX_IN_NEW_TRACK)) break;
 481              		.loc 2 340 10 is_stmt 0 discriminator 4 view .LVU143
 482 007a A3E0     		b	.L26
 483              	.LVL50:
 484              	.L46:
 327:Middlewares/LVGL/GUI/lvgl/src/extra/layouts/flex/lv_flex.c ****     lv_coord_t(*get_cross_size)(const lv_obj_t *) = (!f->row ? lv_obj_get_width : lv_obj_get_height
 485              		.loc 2 327 17 view .LVU144
 486 007c 754A     		ldr	r2, .L52+8
 487 007e 0192     		str	r2, [sp, #4]
 488 0080 EAE7     		b	.L24
 489              	.LVL51:
 490              	.L47:
 328:Middlewares/LVGL/GUI/lvgl/src/extra/layouts/flex/lv_flex.c **** 
 491              		.loc 2 328 17 view .LVU145
 492 0082 DFF8D0A1 		ldr	r10, .L52+8
ARM GAS  C:\Users\ADMINI~1\AppData\Local\Temp\ccyi9XNv.s 			page 24


 493 0086 EAE7     		b	.L25
 494              	.LVL52:
 495              	.L50:
 496              	.LBB68:
 344:Middlewares/LVGL/GUI/lvgl/src/extra/layouts/flex/lv_flex.c ****             if(grow_value) {
 497              		.loc 2 344 13 is_stmt 1 view .LVU146
 498              	.LBB69:
 499              	.LBI69:
 500              		.file 4 "Middlewares/LVGL/GUI/lvgl/src/extra/layouts/flex/../flex/lv_flex.h"
   1:Middlewares/LVGL/GUI/lvgl/src/extra/layouts/flex/../flex/lv_flex.h **** /**
   2:Middlewares/LVGL/GUI/lvgl/src/extra/layouts/flex/../flex/lv_flex.h ****  * @file lv_flex.h
   3:Middlewares/LVGL/GUI/lvgl/src/extra/layouts/flex/../flex/lv_flex.h ****  *
   4:Middlewares/LVGL/GUI/lvgl/src/extra/layouts/flex/../flex/lv_flex.h ****  */
   5:Middlewares/LVGL/GUI/lvgl/src/extra/layouts/flex/../flex/lv_flex.h **** 
   6:Middlewares/LVGL/GUI/lvgl/src/extra/layouts/flex/../flex/lv_flex.h **** #ifndef LV_FLEX_H
   7:Middlewares/LVGL/GUI/lvgl/src/extra/layouts/flex/../flex/lv_flex.h **** #define LV_FLEX_H
   8:Middlewares/LVGL/GUI/lvgl/src/extra/layouts/flex/../flex/lv_flex.h **** 
   9:Middlewares/LVGL/GUI/lvgl/src/extra/layouts/flex/../flex/lv_flex.h **** #ifdef __cplusplus
  10:Middlewares/LVGL/GUI/lvgl/src/extra/layouts/flex/../flex/lv_flex.h **** extern "C" {
  11:Middlewares/LVGL/GUI/lvgl/src/extra/layouts/flex/../flex/lv_flex.h **** #endif
  12:Middlewares/LVGL/GUI/lvgl/src/extra/layouts/flex/../flex/lv_flex.h **** 
  13:Middlewares/LVGL/GUI/lvgl/src/extra/layouts/flex/../flex/lv_flex.h **** /*********************
  14:Middlewares/LVGL/GUI/lvgl/src/extra/layouts/flex/../flex/lv_flex.h ****  *      INCLUDES
  15:Middlewares/LVGL/GUI/lvgl/src/extra/layouts/flex/../flex/lv_flex.h ****  *********************/
  16:Middlewares/LVGL/GUI/lvgl/src/extra/layouts/flex/../flex/lv_flex.h **** #include "../../../core/lv_obj.h"
  17:Middlewares/LVGL/GUI/lvgl/src/extra/layouts/flex/../flex/lv_flex.h **** #if LV_USE_FLEX
  18:Middlewares/LVGL/GUI/lvgl/src/extra/layouts/flex/../flex/lv_flex.h **** 
  19:Middlewares/LVGL/GUI/lvgl/src/extra/layouts/flex/../flex/lv_flex.h **** /*********************
  20:Middlewares/LVGL/GUI/lvgl/src/extra/layouts/flex/../flex/lv_flex.h ****  *      DEFINES
  21:Middlewares/LVGL/GUI/lvgl/src/extra/layouts/flex/../flex/lv_flex.h ****  *********************/
  22:Middlewares/LVGL/GUI/lvgl/src/extra/layouts/flex/../flex/lv_flex.h **** 
  23:Middlewares/LVGL/GUI/lvgl/src/extra/layouts/flex/../flex/lv_flex.h **** #define LV_OBJ_FLAG_FLEX_IN_NEW_TRACK   LV_OBJ_FLAG_LAYOUT_1
  24:Middlewares/LVGL/GUI/lvgl/src/extra/layouts/flex/../flex/lv_flex.h **** LV_EXPORT_CONST_INT(LV_OBJ_FLAG_FLEX_IN_NEW_TRACK);
  25:Middlewares/LVGL/GUI/lvgl/src/extra/layouts/flex/../flex/lv_flex.h **** 
  26:Middlewares/LVGL/GUI/lvgl/src/extra/layouts/flex/../flex/lv_flex.h **** #define _LV_FLEX_COLUMN        (1 << 0)
  27:Middlewares/LVGL/GUI/lvgl/src/extra/layouts/flex/../flex/lv_flex.h **** #define _LV_FLEX_WRAP       (1 << 2)
  28:Middlewares/LVGL/GUI/lvgl/src/extra/layouts/flex/../flex/lv_flex.h **** #define _LV_FLEX_REVERSE    (1 << 3)
  29:Middlewares/LVGL/GUI/lvgl/src/extra/layouts/flex/../flex/lv_flex.h **** 
  30:Middlewares/LVGL/GUI/lvgl/src/extra/layouts/flex/../flex/lv_flex.h **** /**********************
  31:Middlewares/LVGL/GUI/lvgl/src/extra/layouts/flex/../flex/lv_flex.h ****  *      TYPEDEFS
  32:Middlewares/LVGL/GUI/lvgl/src/extra/layouts/flex/../flex/lv_flex.h ****  **********************/
  33:Middlewares/LVGL/GUI/lvgl/src/extra/layouts/flex/../flex/lv_flex.h **** 
  34:Middlewares/LVGL/GUI/lvgl/src/extra/layouts/flex/../flex/lv_flex.h **** /*Can't include lv_obj.h because it includes this header file*/
  35:Middlewares/LVGL/GUI/lvgl/src/extra/layouts/flex/../flex/lv_flex.h **** struct _lv_obj_t;
  36:Middlewares/LVGL/GUI/lvgl/src/extra/layouts/flex/../flex/lv_flex.h **** 
  37:Middlewares/LVGL/GUI/lvgl/src/extra/layouts/flex/../flex/lv_flex.h **** typedef enum {
  38:Middlewares/LVGL/GUI/lvgl/src/extra/layouts/flex/../flex/lv_flex.h ****     LV_FLEX_ALIGN_START,
  39:Middlewares/LVGL/GUI/lvgl/src/extra/layouts/flex/../flex/lv_flex.h ****     LV_FLEX_ALIGN_END,
  40:Middlewares/LVGL/GUI/lvgl/src/extra/layouts/flex/../flex/lv_flex.h ****     LV_FLEX_ALIGN_CENTER,
  41:Middlewares/LVGL/GUI/lvgl/src/extra/layouts/flex/../flex/lv_flex.h ****     LV_FLEX_ALIGN_SPACE_EVENLY,
  42:Middlewares/LVGL/GUI/lvgl/src/extra/layouts/flex/../flex/lv_flex.h ****     LV_FLEX_ALIGN_SPACE_AROUND,
  43:Middlewares/LVGL/GUI/lvgl/src/extra/layouts/flex/../flex/lv_flex.h ****     LV_FLEX_ALIGN_SPACE_BETWEEN,
  44:Middlewares/LVGL/GUI/lvgl/src/extra/layouts/flex/../flex/lv_flex.h **** } lv_flex_align_t;
  45:Middlewares/LVGL/GUI/lvgl/src/extra/layouts/flex/../flex/lv_flex.h **** 
  46:Middlewares/LVGL/GUI/lvgl/src/extra/layouts/flex/../flex/lv_flex.h **** typedef enum {
  47:Middlewares/LVGL/GUI/lvgl/src/extra/layouts/flex/../flex/lv_flex.h ****     LV_FLEX_FLOW_ROW                 = 0x00,
  48:Middlewares/LVGL/GUI/lvgl/src/extra/layouts/flex/../flex/lv_flex.h ****     LV_FLEX_FLOW_COLUMN              = _LV_FLEX_COLUMN,
ARM GAS  C:\Users\ADMINI~1\AppData\Local\Temp\ccyi9XNv.s 			page 25


  49:Middlewares/LVGL/GUI/lvgl/src/extra/layouts/flex/../flex/lv_flex.h ****     LV_FLEX_FLOW_ROW_WRAP            = LV_FLEX_FLOW_ROW | _LV_FLEX_WRAP,
  50:Middlewares/LVGL/GUI/lvgl/src/extra/layouts/flex/../flex/lv_flex.h ****     LV_FLEX_FLOW_ROW_REVERSE         = LV_FLEX_FLOW_ROW | _LV_FLEX_REVERSE,
  51:Middlewares/LVGL/GUI/lvgl/src/extra/layouts/flex/../flex/lv_flex.h ****     LV_FLEX_FLOW_ROW_WRAP_REVERSE    = LV_FLEX_FLOW_ROW | _LV_FLEX_WRAP | _LV_FLEX_REVERSE,
  52:Middlewares/LVGL/GUI/lvgl/src/extra/layouts/flex/../flex/lv_flex.h ****     LV_FLEX_FLOW_COLUMN_WRAP         = LV_FLEX_FLOW_COLUMN | _LV_FLEX_WRAP,
  53:Middlewares/LVGL/GUI/lvgl/src/extra/layouts/flex/../flex/lv_flex.h ****     LV_FLEX_FLOW_COLUMN_REVERSE      = LV_FLEX_FLOW_COLUMN | _LV_FLEX_REVERSE,
  54:Middlewares/LVGL/GUI/lvgl/src/extra/layouts/flex/../flex/lv_flex.h ****     LV_FLEX_FLOW_COLUMN_WRAP_REVERSE = LV_FLEX_FLOW_COLUMN | _LV_FLEX_WRAP | _LV_FLEX_REVERSE,
  55:Middlewares/LVGL/GUI/lvgl/src/extra/layouts/flex/../flex/lv_flex.h **** } lv_flex_flow_t;
  56:Middlewares/LVGL/GUI/lvgl/src/extra/layouts/flex/../flex/lv_flex.h **** 
  57:Middlewares/LVGL/GUI/lvgl/src/extra/layouts/flex/../flex/lv_flex.h **** /**********************
  58:Middlewares/LVGL/GUI/lvgl/src/extra/layouts/flex/../flex/lv_flex.h ****  * GLOBAL VARIABLES
  59:Middlewares/LVGL/GUI/lvgl/src/extra/layouts/flex/../flex/lv_flex.h ****  **********************/
  60:Middlewares/LVGL/GUI/lvgl/src/extra/layouts/flex/../flex/lv_flex.h **** extern uint32_t LV_LAYOUT_FLEX;
  61:Middlewares/LVGL/GUI/lvgl/src/extra/layouts/flex/../flex/lv_flex.h **** extern lv_style_prop_t LV_STYLE_FLEX_FLOW;
  62:Middlewares/LVGL/GUI/lvgl/src/extra/layouts/flex/../flex/lv_flex.h **** extern lv_style_prop_t LV_STYLE_FLEX_MAIN_PLACE;
  63:Middlewares/LVGL/GUI/lvgl/src/extra/layouts/flex/../flex/lv_flex.h **** extern lv_style_prop_t LV_STYLE_FLEX_CROSS_PLACE;
  64:Middlewares/LVGL/GUI/lvgl/src/extra/layouts/flex/../flex/lv_flex.h **** extern lv_style_prop_t LV_STYLE_FLEX_TRACK_PLACE;
  65:Middlewares/LVGL/GUI/lvgl/src/extra/layouts/flex/../flex/lv_flex.h **** extern lv_style_prop_t LV_STYLE_FLEX_GROW;
  66:Middlewares/LVGL/GUI/lvgl/src/extra/layouts/flex/../flex/lv_flex.h **** 
  67:Middlewares/LVGL/GUI/lvgl/src/extra/layouts/flex/../flex/lv_flex.h **** /**********************
  68:Middlewares/LVGL/GUI/lvgl/src/extra/layouts/flex/../flex/lv_flex.h ****  * GLOBAL PROTOTYPES
  69:Middlewares/LVGL/GUI/lvgl/src/extra/layouts/flex/../flex/lv_flex.h ****  **********************/
  70:Middlewares/LVGL/GUI/lvgl/src/extra/layouts/flex/../flex/lv_flex.h **** 
  71:Middlewares/LVGL/GUI/lvgl/src/extra/layouts/flex/../flex/lv_flex.h **** /**
  72:Middlewares/LVGL/GUI/lvgl/src/extra/layouts/flex/../flex/lv_flex.h ****  * Initialize a flex layout the default values
  73:Middlewares/LVGL/GUI/lvgl/src/extra/layouts/flex/../flex/lv_flex.h ****  * @param flex pointer to a flex layout descriptor
  74:Middlewares/LVGL/GUI/lvgl/src/extra/layouts/flex/../flex/lv_flex.h ****  */
  75:Middlewares/LVGL/GUI/lvgl/src/extra/layouts/flex/../flex/lv_flex.h **** void lv_flex_init(void);
  76:Middlewares/LVGL/GUI/lvgl/src/extra/layouts/flex/../flex/lv_flex.h **** 
  77:Middlewares/LVGL/GUI/lvgl/src/extra/layouts/flex/../flex/lv_flex.h **** /**
  78:Middlewares/LVGL/GUI/lvgl/src/extra/layouts/flex/../flex/lv_flex.h ****  * Set hot the item should flow
  79:Middlewares/LVGL/GUI/lvgl/src/extra/layouts/flex/../flex/lv_flex.h ****  * @param flex pointer to a flex layout descriptor
  80:Middlewares/LVGL/GUI/lvgl/src/extra/layouts/flex/../flex/lv_flex.h ****  * @param flow an element of `lv_flex_flow_t`.
  81:Middlewares/LVGL/GUI/lvgl/src/extra/layouts/flex/../flex/lv_flex.h ****  */
  82:Middlewares/LVGL/GUI/lvgl/src/extra/layouts/flex/../flex/lv_flex.h **** void lv_obj_set_flex_flow(lv_obj_t * obj, lv_flex_flow_t flow);
  83:Middlewares/LVGL/GUI/lvgl/src/extra/layouts/flex/../flex/lv_flex.h **** 
  84:Middlewares/LVGL/GUI/lvgl/src/extra/layouts/flex/../flex/lv_flex.h **** /**
  85:Middlewares/LVGL/GUI/lvgl/src/extra/layouts/flex/../flex/lv_flex.h ****  * Set how to place (where to align) the items and tracks
  86:Middlewares/LVGL/GUI/lvgl/src/extra/layouts/flex/../flex/lv_flex.h ****  * @param flex pointer: to a flex layout descriptor
  87:Middlewares/LVGL/GUI/lvgl/src/extra/layouts/flex/../flex/lv_flex.h ****  * @param main_place where to place the items on main axis (in their track). Any value of `lv_flex_
  88:Middlewares/LVGL/GUI/lvgl/src/extra/layouts/flex/../flex/lv_flex.h ****  * @param cross_place where to place the item in their track on the cross axis. `LV_FLEX_ALIGN_STAR
  89:Middlewares/LVGL/GUI/lvgl/src/extra/layouts/flex/../flex/lv_flex.h ****  * @param track_place where to place the tracks in the cross direction. Any value of `lv_flex_align
  90:Middlewares/LVGL/GUI/lvgl/src/extra/layouts/flex/../flex/lv_flex.h ****  */
  91:Middlewares/LVGL/GUI/lvgl/src/extra/layouts/flex/../flex/lv_flex.h **** void lv_obj_set_flex_align(lv_obj_t * obj, lv_flex_align_t main_place, lv_flex_align_t cross_place,
  92:Middlewares/LVGL/GUI/lvgl/src/extra/layouts/flex/../flex/lv_flex.h ****                            lv_flex_align_t track_cross_place);
  93:Middlewares/LVGL/GUI/lvgl/src/extra/layouts/flex/../flex/lv_flex.h **** 
  94:Middlewares/LVGL/GUI/lvgl/src/extra/layouts/flex/../flex/lv_flex.h **** /**
  95:Middlewares/LVGL/GUI/lvgl/src/extra/layouts/flex/../flex/lv_flex.h ****  * Sets the width or height (on main axis) to grow the object in order fill the free space
  96:Middlewares/LVGL/GUI/lvgl/src/extra/layouts/flex/../flex/lv_flex.h ****  * @param obj pointer to an object. The parent must have flex layout else nothing will happen.
  97:Middlewares/LVGL/GUI/lvgl/src/extra/layouts/flex/../flex/lv_flex.h ****  * @param grow a value to set how much free space to take proportionally to other growing items.
  98:Middlewares/LVGL/GUI/lvgl/src/extra/layouts/flex/../flex/lv_flex.h ****  */
  99:Middlewares/LVGL/GUI/lvgl/src/extra/layouts/flex/../flex/lv_flex.h **** void lv_obj_set_flex_grow(lv_obj_t * obj, uint8_t grow);
 100:Middlewares/LVGL/GUI/lvgl/src/extra/layouts/flex/../flex/lv_flex.h **** 
 101:Middlewares/LVGL/GUI/lvgl/src/extra/layouts/flex/../flex/lv_flex.h **** void lv_style_set_flex_flow(lv_style_t * style, lv_flex_flow_t value);
 102:Middlewares/LVGL/GUI/lvgl/src/extra/layouts/flex/../flex/lv_flex.h **** void lv_style_set_flex_main_place(lv_style_t * style, lv_flex_align_t value);
 103:Middlewares/LVGL/GUI/lvgl/src/extra/layouts/flex/../flex/lv_flex.h **** void lv_style_set_flex_cross_place(lv_style_t * style, lv_flex_align_t value);
 104:Middlewares/LVGL/GUI/lvgl/src/extra/layouts/flex/../flex/lv_flex.h **** void lv_style_set_flex_track_place(lv_style_t * style, lv_flex_align_t value);
 105:Middlewares/LVGL/GUI/lvgl/src/extra/layouts/flex/../flex/lv_flex.h **** void lv_style_set_flex_grow(lv_style_t * style, uint8_t value);
ARM GAS  C:\Users\ADMINI~1\AppData\Local\Temp\ccyi9XNv.s 			page 26


 106:Middlewares/LVGL/GUI/lvgl/src/extra/layouts/flex/../flex/lv_flex.h **** void lv_obj_set_style_flex_flow(lv_obj_t * obj, lv_flex_flow_t value, lv_style_selector_t selector)
 107:Middlewares/LVGL/GUI/lvgl/src/extra/layouts/flex/../flex/lv_flex.h **** void lv_obj_set_style_flex_main_place(lv_obj_t * obj, lv_flex_align_t value, lv_style_selector_t se
 108:Middlewares/LVGL/GUI/lvgl/src/extra/layouts/flex/../flex/lv_flex.h **** void lv_obj_set_style_flex_cross_place(lv_obj_t * obj, lv_flex_align_t value, lv_style_selector_t s
 109:Middlewares/LVGL/GUI/lvgl/src/extra/layouts/flex/../flex/lv_flex.h **** void lv_obj_set_style_flex_track_place(lv_obj_t * obj, lv_flex_align_t value, lv_style_selector_t s
 110:Middlewares/LVGL/GUI/lvgl/src/extra/layouts/flex/../flex/lv_flex.h **** void lv_obj_set_style_flex_grow(lv_obj_t * obj, uint8_t value, lv_style_selector_t selector);
 111:Middlewares/LVGL/GUI/lvgl/src/extra/layouts/flex/../flex/lv_flex.h **** 
 112:Middlewares/LVGL/GUI/lvgl/src/extra/layouts/flex/../flex/lv_flex.h **** static inline lv_flex_flow_t lv_obj_get_style_flex_flow(const lv_obj_t * obj, uint32_t part)
 113:Middlewares/LVGL/GUI/lvgl/src/extra/layouts/flex/../flex/lv_flex.h **** {
 114:Middlewares/LVGL/GUI/lvgl/src/extra/layouts/flex/../flex/lv_flex.h ****     lv_style_value_t v = lv_obj_get_style_prop(obj, part, LV_STYLE_FLEX_FLOW);
 115:Middlewares/LVGL/GUI/lvgl/src/extra/layouts/flex/../flex/lv_flex.h ****     return (lv_flex_flow_t)v.num;
 116:Middlewares/LVGL/GUI/lvgl/src/extra/layouts/flex/../flex/lv_flex.h **** }
 117:Middlewares/LVGL/GUI/lvgl/src/extra/layouts/flex/../flex/lv_flex.h **** 
 118:Middlewares/LVGL/GUI/lvgl/src/extra/layouts/flex/../flex/lv_flex.h **** static inline lv_flex_align_t lv_obj_get_style_flex_main_place(const lv_obj_t * obj, uint32_t part)
 119:Middlewares/LVGL/GUI/lvgl/src/extra/layouts/flex/../flex/lv_flex.h **** {
 120:Middlewares/LVGL/GUI/lvgl/src/extra/layouts/flex/../flex/lv_flex.h ****     lv_style_value_t v = lv_obj_get_style_prop(obj, part, LV_STYLE_FLEX_MAIN_PLACE);
 121:Middlewares/LVGL/GUI/lvgl/src/extra/layouts/flex/../flex/lv_flex.h ****     return (lv_flex_align_t)v.num;
 122:Middlewares/LVGL/GUI/lvgl/src/extra/layouts/flex/../flex/lv_flex.h **** }
 123:Middlewares/LVGL/GUI/lvgl/src/extra/layouts/flex/../flex/lv_flex.h **** 
 124:Middlewares/LVGL/GUI/lvgl/src/extra/layouts/flex/../flex/lv_flex.h **** static inline lv_flex_align_t lv_obj_get_style_flex_cross_place(const lv_obj_t * obj, uint32_t part
 125:Middlewares/LVGL/GUI/lvgl/src/extra/layouts/flex/../flex/lv_flex.h **** {
 126:Middlewares/LVGL/GUI/lvgl/src/extra/layouts/flex/../flex/lv_flex.h ****     lv_style_value_t v = lv_obj_get_style_prop(obj, part, LV_STYLE_FLEX_CROSS_PLACE);
 127:Middlewares/LVGL/GUI/lvgl/src/extra/layouts/flex/../flex/lv_flex.h ****     return (lv_flex_align_t)v.num;
 128:Middlewares/LVGL/GUI/lvgl/src/extra/layouts/flex/../flex/lv_flex.h **** }
 129:Middlewares/LVGL/GUI/lvgl/src/extra/layouts/flex/../flex/lv_flex.h **** 
 130:Middlewares/LVGL/GUI/lvgl/src/extra/layouts/flex/../flex/lv_flex.h **** static inline lv_flex_align_t lv_obj_get_style_flex_track_place(const lv_obj_t * obj, uint32_t part
 131:Middlewares/LVGL/GUI/lvgl/src/extra/layouts/flex/../flex/lv_flex.h **** {
 132:Middlewares/LVGL/GUI/lvgl/src/extra/layouts/flex/../flex/lv_flex.h ****     lv_style_value_t v = lv_obj_get_style_prop(obj, part, LV_STYLE_FLEX_TRACK_PLACE);
 133:Middlewares/LVGL/GUI/lvgl/src/extra/layouts/flex/../flex/lv_flex.h ****     return (lv_flex_align_t)v.num;
 134:Middlewares/LVGL/GUI/lvgl/src/extra/layouts/flex/../flex/lv_flex.h **** }
 135:Middlewares/LVGL/GUI/lvgl/src/extra/layouts/flex/../flex/lv_flex.h **** 
 136:Middlewares/LVGL/GUI/lvgl/src/extra/layouts/flex/../flex/lv_flex.h **** static inline uint8_t lv_obj_get_style_flex_grow(const lv_obj_t * obj, uint32_t part)
 501              		.loc 4 136 23 view .LVU147
 502              	.LBB70:
 137:Middlewares/LVGL/GUI/lvgl/src/extra/layouts/flex/../flex/lv_flex.h **** {
 138:Middlewares/LVGL/GUI/lvgl/src/extra/layouts/flex/../flex/lv_flex.h ****     lv_style_value_t v = lv_obj_get_style_prop(obj, part, LV_STYLE_FLEX_GROW);
 503              		.loc 4 138 5 view .LVU148
 504              		.loc 4 138 26 is_stmt 0 view .LVU149
 505 0088 734B     		ldr	r3, .L52+12
 506 008a 1A88     		ldrh	r2, [r3]
 507 008c 0021     		movs	r1, #0
 508 008e 2046     		mov	r0, r4
 509 0090 FFF7FEFF 		bl	lv_obj_get_style_prop
 510              	.LVL53:
 511 0094 0746     		mov	r7, r0
 139:Middlewares/LVGL/GUI/lvgl/src/extra/layouts/flex/../flex/lv_flex.h ****     return (uint8_t)v.num;
 512              		.loc 4 139 5 is_stmt 1 view .LVU150
 513              	.LVL54:
 514              		.loc 4 139 5 is_stmt 0 view .LVU151
 515              	.LBE70:
 516              	.LBE69:
 345:Middlewares/LVGL/GUI/lvgl/src/extra/layouts/flex/lv_flex.c ****                 t->grow_item_cnt++;
 517              		.loc 2 345 13 is_stmt 1 view .LVU152
 345:Middlewares/LVGL/GUI/lvgl/src/extra/layouts/flex/lv_flex.c ****                 t->grow_item_cnt++;
 518              		.loc 2 345 15 is_stmt 0 view .LVU153
 519 0096 10F0FF0F 		tst	r0, #255
 520 009a 6BD0     		beq	.L30
 346:Middlewares/LVGL/GUI/lvgl/src/extra/layouts/flex/lv_flex.c ****                 t->track_fix_main_size += item_gap;
ARM GAS  C:\Users\ADMINI~1\AppData\Local\Temp\ccyi9XNv.s 			page 27


 521              		.loc 2 346 17 is_stmt 1 view .LVU154
 346:Middlewares/LVGL/GUI/lvgl/src/extra/layouts/flex/lv_flex.c ****                 t->track_fix_main_size += item_gap;
 522              		.loc 2 346 18 is_stmt 0 view .LVU155
 523 009c 6869     		ldr	r0, [r5, #20]
 524              	.LVL55:
 346:Middlewares/LVGL/GUI/lvgl/src/extra/layouts/flex/lv_flex.c ****                 t->track_fix_main_size += item_gap;
 525              		.loc 2 346 33 view .LVU156
 526 009e 0130     		adds	r0, r0, #1
 527 00a0 6861     		str	r0, [r5, #20]
 347:Middlewares/LVGL/GUI/lvgl/src/extra/layouts/flex/lv_flex.c ****                 if(t->grow_dsc_calc) {
 528              		.loc 2 347 17 is_stmt 1 view .LVU157
 347:Middlewares/LVGL/GUI/lvgl/src/extra/layouts/flex/lv_flex.c ****                 if(t->grow_dsc_calc) {
 529              		.loc 2 347 40 is_stmt 0 view .LVU158
 530 00a2 AB68     		ldr	r3, [r5, #8]
 531 00a4 0E9A     		ldr	r2, [sp, #56]
 532 00a6 1344     		add	r3, r3, r2
 533 00a8 AB60     		str	r3, [r5, #8]
 348:Middlewares/LVGL/GUI/lvgl/src/extra/layouts/flex/lv_flex.c ****                     grow_dsc_t * new_dsc = lv_mem_buf_get(sizeof(grow_dsc_t) * (t->grow_item_cnt));
 534              		.loc 2 348 17 is_stmt 1 view .LVU159
 348:Middlewares/LVGL/GUI/lvgl/src/extra/layouts/flex/lv_flex.c ****                     grow_dsc_t * new_dsc = lv_mem_buf_get(sizeof(grow_dsc_t) * (t->grow_item_cnt));
 535              		.loc 2 348 20 is_stmt 0 view .LVU160
 536 00aa 2B7E     		ldrb	r3, [r5, #24]	@ zero_extendqisi2
 348:Middlewares/LVGL/GUI/lvgl/src/extra/layouts/flex/lv_flex.c ****                     grow_dsc_t * new_dsc = lv_mem_buf_get(sizeof(grow_dsc_t) * (t->grow_item_cnt));
 537              		.loc 2 348 19 view .LVU161
 538 00ac 13F0010F 		tst	r3, #1
 539 00b0 71D0     		beq	.L31
 540              	.LBB71:
 349:Middlewares/LVGL/GUI/lvgl/src/extra/layouts/flex/lv_flex.c ****                     LV_ASSERT_MALLOC(new_dsc);
 541              		.loc 2 349 21 is_stmt 1 view .LVU162
 349:Middlewares/LVGL/GUI/lvgl/src/extra/layouts/flex/lv_flex.c ****                     LV_ASSERT_MALLOC(new_dsc);
 542              		.loc 2 349 44 is_stmt 0 view .LVU163
 543 00b2 00EB4000 		add	r0, r0, r0, lsl #1
 544 00b6 C000     		lsls	r0, r0, #3
 545 00b8 FFF7FEFF 		bl	lv_mem_buf_get
 546              	.LVL56:
 350:Middlewares/LVGL/GUI/lvgl/src/extra/layouts/flex/lv_flex.c ****                     if(new_dsc == NULL) return item_id;
 547              		.loc 2 350 21 is_stmt 1 view .LVU164
 350:Middlewares/LVGL/GUI/lvgl/src/extra/layouts/flex/lv_flex.c ****                     if(new_dsc == NULL) return item_id;
 548              		.loc 2 350 21 view .LVU165
 549 00bc 8346     		mov	fp, r0
 550 00be 0028     		cmp	r0, #0
 551 00c0 49D0     		beq	.L33
 350:Middlewares/LVGL/GUI/lvgl/src/extra/layouts/flex/lv_flex.c ****                     if(new_dsc == NULL) return item_id;
 552              		.loc 2 350 21 view .LVU166
 350:Middlewares/LVGL/GUI/lvgl/src/extra/layouts/flex/lv_flex.c ****                     if(new_dsc == NULL) return item_id;
 553              		.loc 2 350 46 view .LVU167
 351:Middlewares/LVGL/GUI/lvgl/src/extra/layouts/flex/lv_flex.c **** 
 554              		.loc 2 351 21 view .LVU168
 353:Middlewares/LVGL/GUI/lvgl/src/extra/layouts/flex/lv_flex.c ****                         lv_memcpy(new_dsc, t->grow_dsc, sizeof(grow_dsc_t) * (t->grow_item_cnt - 1)
 555              		.loc 2 353 21 view .LVU169
 353:Middlewares/LVGL/GUI/lvgl/src/extra/layouts/flex/lv_flex.c ****                         lv_memcpy(new_dsc, t->grow_dsc, sizeof(grow_dsc_t) * (t->grow_item_cnt - 1)
 556              		.loc 2 353 25 is_stmt 0 view .LVU170
 557 00c2 2969     		ldr	r1, [r5, #16]
 353:Middlewares/LVGL/GUI/lvgl/src/extra/layouts/flex/lv_flex.c ****                         lv_memcpy(new_dsc, t->grow_dsc, sizeof(grow_dsc_t) * (t->grow_item_cnt - 1)
 558              		.loc 2 353 23 view .LVU171
 559 00c4 49B1     		cbz	r1, .L34
 354:Middlewares/LVGL/GUI/lvgl/src/extra/layouts/flex/lv_flex.c ****                         lv_mem_buf_release(t->grow_dsc);
ARM GAS  C:\Users\ADMINI~1\AppData\Local\Temp\ccyi9XNv.s 			page 28


 560              		.loc 2 354 25 is_stmt 1 view .LVU172
 354:Middlewares/LVGL/GUI/lvgl/src/extra/layouts/flex/lv_flex.c ****                         lv_mem_buf_release(t->grow_dsc);
 561              		.loc 2 354 80 is_stmt 0 view .LVU173
 562 00c6 6B69     		ldr	r3, [r5, #20]
 354:Middlewares/LVGL/GUI/lvgl/src/extra/layouts/flex/lv_flex.c ****                         lv_mem_buf_release(t->grow_dsc);
 563              		.loc 2 354 25 view .LVU174
 564 00c8 03EB4303 		add	r3, r3, r3, lsl #1
 565 00cc DA00     		lsls	r2, r3, #3
 566 00ce 183A     		subs	r2, r2, #24
 567 00d0 FFF7FEFF 		bl	lv_memcpy
 568              	.LVL57:
 355:Middlewares/LVGL/GUI/lvgl/src/extra/layouts/flex/lv_flex.c ****                     }
 569              		.loc 2 355 25 is_stmt 1 view .LVU175
 570 00d4 2869     		ldr	r0, [r5, #16]
 571 00d6 FFF7FEFF 		bl	lv_mem_buf_release
 572              	.LVL58:
 573              	.L34:
 357:Middlewares/LVGL/GUI/lvgl/src/extra/layouts/flex/lv_flex.c ****                     new_dsc[t->grow_item_cnt - 1].min_size = f->row ? lv_obj_get_style_min_width(it
 574              		.loc 2 357 21 view .LVU176
 357:Middlewares/LVGL/GUI/lvgl/src/extra/layouts/flex/lv_flex.c ****                     new_dsc[t->grow_item_cnt - 1].min_size = f->row ? lv_obj_get_style_min_width(it
 575              		.loc 2 357 30 is_stmt 0 view .LVU177
 576 00da 6B69     		ldr	r3, [r5, #20]
 357:Middlewares/LVGL/GUI/lvgl/src/extra/layouts/flex/lv_flex.c ****                     new_dsc[t->grow_item_cnt - 1].min_size = f->row ? lv_obj_get_style_min_width(it
 577              		.loc 2 357 28 view .LVU178
 578 00dc 03EB4303 		add	r3, r3, r3, lsl #1
 579 00e0 DB00     		lsls	r3, r3, #3
 580 00e2 183B     		subs	r3, r3, #24
 357:Middlewares/LVGL/GUI/lvgl/src/extra/layouts/flex/lv_flex.c ****                     new_dsc[t->grow_item_cnt - 1].min_size = f->row ? lv_obj_get_style_min_width(it
 581              		.loc 2 357 56 view .LVU179
 582 00e4 4BF80340 		str	r4, [fp, r3]
 358:Middlewares/LVGL/GUI/lvgl/src/extra/layouts/flex/lv_flex.c ****                                                                                                  LV
 583              		.loc 2 358 21 is_stmt 1 view .LVU180
 358:Middlewares/LVGL/GUI/lvgl/src/extra/layouts/flex/lv_flex.c ****                                                                                                  LV
 584              		.loc 2 358 69 is_stmt 0 view .LVU181
 585 00e8 F378     		ldrb	r3, [r6, #3]	@ zero_extendqisi2
 359:Middlewares/LVGL/GUI/lvgl/src/extra/layouts/flex/lv_flex.c ****                     new_dsc[t->grow_item_cnt - 1].max_size = f->row ? lv_obj_get_style_max_width(it
 586              		.loc 2 359 112 view .LVU182
 587 00ea 13F0010F 		tst	r3, #1
 588 00ee 33D0     		beq	.L35
 589              	.LVL59:
 590              	.LBB72:
 591              	.LBI72:
   7:Middlewares/LVGL/GUI/lvgl/src/extra/layouts/flex/../flex/../../../core/lv_obj_style_gen.h **** {
 592              		.loc 3 7 26 is_stmt 1 view .LVU183
 593              	.LBB73:
   9:Middlewares/LVGL/GUI/lvgl/src/extra/layouts/flex/../flex/../../../core/lv_obj_style_gen.h ****     return (lv_coord_t)v.num;
 594              		.loc 3 9 5 view .LVU184
   9:Middlewares/LVGL/GUI/lvgl/src/extra/layouts/flex/../flex/../../../core/lv_obj_style_gen.h ****     return (lv_coord_t)v.num;
 595              		.loc 3 9 26 is_stmt 0 view .LVU185
 596 00f0 41F20202 		movw	r2, #4098
 597 00f4 0021     		movs	r1, #0
 598 00f6 2046     		mov	r0, r4
 599 00f8 FFF7FEFF 		bl	lv_obj_get_style_prop
 600              	.LVL60:
  10:Middlewares/LVGL/GUI/lvgl/src/extra/layouts/flex/../flex/../../../core/lv_obj_style_gen.h **** }
 601              		.loc 3 10 5 is_stmt 1 view .LVU186
 602              	.L36:
ARM GAS  C:\Users\ADMINI~1\AppData\Local\Temp\ccyi9XNv.s 			page 29


  10:Middlewares/LVGL/GUI/lvgl/src/extra/layouts/flex/../flex/../../../core/lv_obj_style_gen.h **** }
 603              		.loc 3 10 5 is_stmt 0 view .LVU187
 604              	.LBE73:
 605              	.LBE72:
 358:Middlewares/LVGL/GUI/lvgl/src/extra/layouts/flex/lv_flex.c ****                                                                                                  LV
 606              		.loc 2 358 30 discriminator 1 view .LVU188
 607 00fc 6B69     		ldr	r3, [r5, #20]
 358:Middlewares/LVGL/GUI/lvgl/src/extra/layouts/flex/lv_flex.c ****                                                                                                  LV
 608              		.loc 2 358 28 discriminator 1 view .LVU189
 609 00fe 03EB4303 		add	r3, r3, r3, lsl #1
 610 0102 DB00     		lsls	r3, r3, #3
 611 0104 183B     		subs	r3, r3, #24
 612 0106 5B44     		add	r3, r3, fp
 358:Middlewares/LVGL/GUI/lvgl/src/extra/layouts/flex/lv_flex.c ****                                                                                                  LV
 613              		.loc 2 358 60 discriminator 1 view .LVU190
 614 0108 5860     		str	r0, [r3, #4]
 360:Middlewares/LVGL/GUI/lvgl/src/extra/layouts/flex/lv_flex.c ****                                                                                                  LV
 615              		.loc 2 360 21 is_stmt 1 discriminator 1 view .LVU191
 360:Middlewares/LVGL/GUI/lvgl/src/extra/layouts/flex/lv_flex.c ****                                                                                                  LV
 616              		.loc 2 360 69 is_stmt 0 discriminator 1 view .LVU192
 617 010a F378     		ldrb	r3, [r6, #3]	@ zero_extendqisi2
 361:Middlewares/LVGL/GUI/lvgl/src/extra/layouts/flex/lv_flex.c ****                     new_dsc[t->grow_item_cnt - 1].grow_value = grow_value;
 618              		.loc 2 361 112 discriminator 1 view .LVU193
 619 010c 13F0010F 		tst	r3, #1
 620 0110 29D0     		beq	.L37
 621              	.LVL61:
 622              	.LBB74:
 623              	.LBI74:
  13:Middlewares/LVGL/GUI/lvgl/src/extra/layouts/flex/../flex/../../../core/lv_obj_style_gen.h **** {
 624              		.loc 3 13 26 is_stmt 1 view .LVU194
 625              	.LBB75:
  15:Middlewares/LVGL/GUI/lvgl/src/extra/layouts/flex/../flex/../../../core/lv_obj_style_gen.h ****     return (lv_coord_t)v.num;
 626              		.loc 3 15 5 view .LVU195
  15:Middlewares/LVGL/GUI/lvgl/src/extra/layouts/flex/../flex/../../../core/lv_obj_style_gen.h ****     return (lv_coord_t)v.num;
 627              		.loc 3 15 26 is_stmt 0 view .LVU196
 628 0112 41F20302 		movw	r2, #4099
 629 0116 0021     		movs	r1, #0
 630 0118 2046     		mov	r0, r4
 631 011a FFF7FEFF 		bl	lv_obj_get_style_prop
 632              	.LVL62:
  16:Middlewares/LVGL/GUI/lvgl/src/extra/layouts/flex/../flex/../../../core/lv_obj_style_gen.h **** }
 633              		.loc 3 16 5 is_stmt 1 view .LVU197
 634              	.L38:
  16:Middlewares/LVGL/GUI/lvgl/src/extra/layouts/flex/../flex/../../../core/lv_obj_style_gen.h **** }
 635              		.loc 3 16 5 is_stmt 0 view .LVU198
 636              	.LBE75:
 637              	.LBE74:
 360:Middlewares/LVGL/GUI/lvgl/src/extra/layouts/flex/lv_flex.c ****                                                                                                  LV
 638              		.loc 2 360 30 discriminator 1 view .LVU199
 639 011e 6B69     		ldr	r3, [r5, #20]
 360:Middlewares/LVGL/GUI/lvgl/src/extra/layouts/flex/lv_flex.c ****                                                                                                  LV
 640              		.loc 2 360 28 discriminator 1 view .LVU200
 641 0120 03EB4303 		add	r3, r3, r3, lsl #1
 642 0124 DB00     		lsls	r3, r3, #3
 643 0126 183B     		subs	r3, r3, #24
 644 0128 5B44     		add	r3, r3, fp
 360:Middlewares/LVGL/GUI/lvgl/src/extra/layouts/flex/lv_flex.c ****                                                                                                  LV
ARM GAS  C:\Users\ADMINI~1\AppData\Local\Temp\ccyi9XNv.s 			page 30


 645              		.loc 2 360 60 discriminator 1 view .LVU201
 646 012a 9860     		str	r0, [r3, #8]
 362:Middlewares/LVGL/GUI/lvgl/src/extra/layouts/flex/lv_flex.c ****                     new_dsc[t->grow_item_cnt - 1].clamped = 0;
 647              		.loc 2 362 21 is_stmt 1 discriminator 1 view .LVU202
 362:Middlewares/LVGL/GUI/lvgl/src/extra/layouts/flex/lv_flex.c ****                     new_dsc[t->grow_item_cnt - 1].clamped = 0;
 648              		.loc 2 362 30 is_stmt 0 discriminator 1 view .LVU203
 649 012c 6B69     		ldr	r3, [r5, #20]
 362:Middlewares/LVGL/GUI/lvgl/src/extra/layouts/flex/lv_flex.c ****                     new_dsc[t->grow_item_cnt - 1].clamped = 0;
 650              		.loc 2 362 28 discriminator 1 view .LVU204
 651 012e 03EB4303 		add	r3, r3, r3, lsl #1
 652 0132 DB00     		lsls	r3, r3, #3
 653 0134 183B     		subs	r3, r3, #24
 654 0136 5B44     		add	r3, r3, fp
 362:Middlewares/LVGL/GUI/lvgl/src/extra/layouts/flex/lv_flex.c ****                     new_dsc[t->grow_item_cnt - 1].clamped = 0;
 655              		.loc 2 362 62 discriminator 1 view .LVU205
 656 0138 FFB2     		uxtb	r7, r7
 657 013a 1F61     		str	r7, [r3, #16]
 363:Middlewares/LVGL/GUI/lvgl/src/extra/layouts/flex/lv_flex.c ****                     t->grow_dsc = new_dsc;
 658              		.loc 2 363 21 is_stmt 1 discriminator 1 view .LVU206
 363:Middlewares/LVGL/GUI/lvgl/src/extra/layouts/flex/lv_flex.c ****                     t->grow_dsc = new_dsc;
 659              		.loc 2 363 30 is_stmt 0 discriminator 1 view .LVU207
 660 013c 6B69     		ldr	r3, [r5, #20]
 363:Middlewares/LVGL/GUI/lvgl/src/extra/layouts/flex/lv_flex.c ****                     t->grow_dsc = new_dsc;
 661              		.loc 2 363 28 discriminator 1 view .LVU208
 662 013e 03EB4303 		add	r3, r3, r3, lsl #1
 663 0142 DB00     		lsls	r3, r3, #3
 664 0144 183B     		subs	r3, r3, #24
 665 0146 5B44     		add	r3, r3, fp
 363:Middlewares/LVGL/GUI/lvgl/src/extra/layouts/flex/lv_flex.c ****                     t->grow_dsc = new_dsc;
 666              		.loc 2 363 59 discriminator 1 view .LVU209
 667 0148 1A7D     		ldrb	r2, [r3, #20]	@ zero_extendqisi2
 668 014a 6FF30002 		bfc	r2, #0, #1
 669 014e 1A75     		strb	r2, [r3, #20]
 364:Middlewares/LVGL/GUI/lvgl/src/extra/layouts/flex/lv_flex.c ****                 }
 670              		.loc 2 364 21 is_stmt 1 discriminator 1 view .LVU210
 364:Middlewares/LVGL/GUI/lvgl/src/extra/layouts/flex/lv_flex.c ****                 }
 671              		.loc 2 364 33 is_stmt 0 discriminator 1 view .LVU211
 672 0150 C5F810B0 		str	fp, [r5, #16]
 673 0154 1FE0     		b	.L31
 674              	.LVL63:
 675              	.L33:
 350:Middlewares/LVGL/GUI/lvgl/src/extra/layouts/flex/lv_flex.c ****                     if(new_dsc == NULL) return item_id;
 676              		.loc 2 350 21 is_stmt 1 discriminator 1 view .LVU212
 350:Middlewares/LVGL/GUI/lvgl/src/extra/layouts/flex/lv_flex.c ****                     if(new_dsc == NULL) return item_id;
 677              		.loc 2 350 21 discriminator 1 view .LVU213
 350:Middlewares/LVGL/GUI/lvgl/src/extra/layouts/flex/lv_flex.c ****                     if(new_dsc == NULL) return item_id;
 678              		.loc 2 350 21 discriminator 1 view .LVU214
 350:Middlewares/LVGL/GUI/lvgl/src/extra/layouts/flex/lv_flex.c ****                     if(new_dsc == NULL) return item_id;
 679              		.loc 2 350 21 discriminator 1 view .LVU215
 350:Middlewares/LVGL/GUI/lvgl/src/extra/layouts/flex/lv_flex.c ****                     if(new_dsc == NULL) return item_id;
 680              		.loc 2 350 21 discriminator 1 view .LVU216
 350:Middlewares/LVGL/GUI/lvgl/src/extra/layouts/flex/lv_flex.c ****                     if(new_dsc == NULL) return item_id;
 681              		.loc 2 350 21 discriminator 1 view .LVU217
 682 0156 FEE7     		b	.L33
 683              	.LVL64:
 684              	.L35:
 685              	.LBB76:
ARM GAS  C:\Users\ADMINI~1\AppData\Local\Temp\ccyi9XNv.s 			page 31


 686              	.LBI76:
  23:Middlewares/LVGL/GUI/lvgl/src/extra/layouts/flex/../flex/../../../core/lv_obj_style_gen.h **** }
  24:Middlewares/LVGL/GUI/lvgl/src/extra/layouts/flex/../flex/../../../core/lv_obj_style_gen.h **** 
  25:Middlewares/LVGL/GUI/lvgl/src/extra/layouts/flex/../flex/../../../core/lv_obj_style_gen.h **** static inline lv_coord_t lv_obj_get_style_min_height(const struct _lv_obj_t * obj, uint32_t part)
 687              		.loc 3 25 26 view .LVU218
 688              	.LBB77:
  26:Middlewares/LVGL/GUI/lvgl/src/extra/layouts/flex/../flex/../../../core/lv_obj_style_gen.h **** {
  27:Middlewares/LVGL/GUI/lvgl/src/extra/layouts/flex/../flex/../../../core/lv_obj_style_gen.h ****     lv_style_value_t v = lv_obj_get_style_prop(obj, part, LV_STYLE_MIN_HEIGHT);
 689              		.loc 3 27 5 view .LVU219
 690              		.loc 3 27 26 is_stmt 0 view .LVU220
 691 0158 41F20502 		movw	r2, #4101
 692 015c 0021     		movs	r1, #0
 693 015e 2046     		mov	r0, r4
 694 0160 FFF7FEFF 		bl	lv_obj_get_style_prop
 695              	.LVL65:
  28:Middlewares/LVGL/GUI/lvgl/src/extra/layouts/flex/../flex/../../../core/lv_obj_style_gen.h ****     return (lv_coord_t)v.num;
 696              		.loc 3 28 5 is_stmt 1 view .LVU221
 697              		.loc 3 28 5 is_stmt 0 view .LVU222
 698 0164 CAE7     		b	.L36
 699              	.L37:
 700              	.LVL66:
 701              		.loc 3 28 5 view .LVU223
 702              	.LBE77:
 703              	.LBE76:
 704              	.LBB78:
 705              	.LBI78:
  29:Middlewares/LVGL/GUI/lvgl/src/extra/layouts/flex/../flex/../../../core/lv_obj_style_gen.h **** }
  30:Middlewares/LVGL/GUI/lvgl/src/extra/layouts/flex/../flex/../../../core/lv_obj_style_gen.h **** 
  31:Middlewares/LVGL/GUI/lvgl/src/extra/layouts/flex/../flex/../../../core/lv_obj_style_gen.h **** static inline lv_coord_t lv_obj_get_style_max_height(const struct _lv_obj_t * obj, uint32_t part)
 706              		.loc 3 31 26 is_stmt 1 view .LVU224
 707              	.LBB79:
  32:Middlewares/LVGL/GUI/lvgl/src/extra/layouts/flex/../flex/../../../core/lv_obj_style_gen.h **** {
  33:Middlewares/LVGL/GUI/lvgl/src/extra/layouts/flex/../flex/../../../core/lv_obj_style_gen.h ****     lv_style_value_t v = lv_obj_get_style_prop(obj, part, LV_STYLE_MAX_HEIGHT);
 708              		.loc 3 33 5 view .LVU225
 709              		.loc 3 33 26 is_stmt 0 view .LVU226
 710 0166 41F20602 		movw	r2, #4102
 711 016a 0021     		movs	r1, #0
 712 016c 2046     		mov	r0, r4
 713 016e FFF7FEFF 		bl	lv_obj_get_style_prop
 714              	.LVL67:
  34:Middlewares/LVGL/GUI/lvgl/src/extra/layouts/flex/../flex/../../../core/lv_obj_style_gen.h ****     return (lv_coord_t)v.num;
 715              		.loc 3 34 5 is_stmt 1 view .LVU227
 716              		.loc 3 34 5 is_stmt 0 view .LVU228
 717 0172 D4E7     		b	.L38
 718              	.LVL68:
 719              	.L30:
 720              		.loc 3 34 5 view .LVU229
 721              	.LBE79:
 722              	.LBE78:
 723              	.LBE71:
 724              	.LBB80:
 368:Middlewares/LVGL/GUI/lvgl/src/extra/layouts/flex/lv_flex.c ****                 if(f->wrap && t->track_fix_main_size + item_size > max_main_size) break;
 725              		.loc 2 368 17 is_stmt 1 view .LVU230
 368:Middlewares/LVGL/GUI/lvgl/src/extra/layouts/flex/lv_flex.c ****                 if(f->wrap && t->track_fix_main_size + item_size > max_main_size) break;
 726              		.loc 2 368 40 is_stmt 0 view .LVU231
 727 0174 2046     		mov	r0, r4
 728              	.LVL69:
ARM GAS  C:\Users\ADMINI~1\AppData\Local\Temp\ccyi9XNv.s 			page 32


 368:Middlewares/LVGL/GUI/lvgl/src/extra/layouts/flex/lv_flex.c ****                 if(f->wrap && t->track_fix_main_size + item_size > max_main_size) break;
 729              		.loc 2 368 40 view .LVU232
 730 0176 019B     		ldr	r3, [sp, #4]
 731 0178 9847     		blx	r3
 732              	.LVL70:
 369:Middlewares/LVGL/GUI/lvgl/src/extra/layouts/flex/lv_flex.c ****                 t->track_fix_main_size += item_size + item_gap;
 733              		.loc 2 369 17 is_stmt 1 view .LVU233
 369:Middlewares/LVGL/GUI/lvgl/src/extra/layouts/flex/lv_flex.c ****                 t->track_fix_main_size += item_size + item_gap;
 734              		.loc 2 369 20 is_stmt 0 view .LVU234
 735 017a F378     		ldrb	r3, [r6, #3]	@ zero_extendqisi2
 369:Middlewares/LVGL/GUI/lvgl/src/extra/layouts/flex/lv_flex.c ****                 t->track_fix_main_size += item_size + item_gap;
 736              		.loc 2 369 19 view .LVU235
 737 017c 13F0020F 		tst	r3, #2
 738 0180 04D0     		beq	.L39
 369:Middlewares/LVGL/GUI/lvgl/src/extra/layouts/flex/lv_flex.c ****                 t->track_fix_main_size += item_size + item_gap;
 739              		.loc 2 369 32 discriminator 1 view .LVU236
 740 0182 AB68     		ldr	r3, [r5, #8]
 369:Middlewares/LVGL/GUI/lvgl/src/extra/layouts/flex/lv_flex.c ****                 t->track_fix_main_size += item_size + item_gap;
 741              		.loc 2 369 54 discriminator 1 view .LVU237
 742 0184 0344     		add	r3, r3, r0
 369:Middlewares/LVGL/GUI/lvgl/src/extra/layouts/flex/lv_flex.c ****                 t->track_fix_main_size += item_size + item_gap;
 743              		.loc 2 369 28 discriminator 1 view .LVU238
 744 0186 009A     		ldr	r2, [sp]
 745 0188 9342     		cmp	r3, r2
 746 018a 33DC     		bgt	.L28
 747              	.L39:
 370:Middlewares/LVGL/GUI/lvgl/src/extra/layouts/flex/lv_flex.c ****             }
 748              		.loc 2 370 17 is_stmt 1 view .LVU239
 370:Middlewares/LVGL/GUI/lvgl/src/extra/layouts/flex/lv_flex.c ****             }
 749              		.loc 2 370 53 is_stmt 0 view .LVU240
 750 018c 0E9B     		ldr	r3, [sp, #56]
 751 018e 1844     		add	r0, r0, r3
 752              	.LVL71:
 370:Middlewares/LVGL/GUI/lvgl/src/extra/layouts/flex/lv_flex.c ****             }
 753              		.loc 2 370 40 view .LVU241
 754 0190 AB68     		ldr	r3, [r5, #8]
 755 0192 1844     		add	r0, r0, r3
 756 0194 A860     		str	r0, [r5, #8]
 757              	.L31:
 370:Middlewares/LVGL/GUI/lvgl/src/extra/layouts/flex/lv_flex.c ****             }
 758              		.loc 2 370 40 view .LVU242
 759              	.LBE80:
 374:Middlewares/LVGL/GUI/lvgl/src/extra/layouts/flex/lv_flex.c ****             t->item_cnt++;
 760              		.loc 2 374 13 is_stmt 1 view .LVU243
 374:Middlewares/LVGL/GUI/lvgl/src/extra/layouts/flex/lv_flex.c ****             t->item_cnt++;
 761              		.loc 2 374 35 is_stmt 0 view .LVU244
 762 0196 2046     		mov	r0, r4
 763 0198 D047     		blx	r10
 764              	.LVL72:
 765 019a 2B68     		ldr	r3, [r5]
 766 019c 9842     		cmp	r0, r3
 767 019e 02DD     		ble	.L40
 374:Middlewares/LVGL/GUI/lvgl/src/extra/layouts/flex/lv_flex.c ****             t->item_cnt++;
 768              		.loc 2 374 35 discriminator 1 view .LVU245
 769 01a0 2046     		mov	r0, r4
 770 01a2 D047     		blx	r10
 771              	.LVL73:
ARM GAS  C:\Users\ADMINI~1\AppData\Local\Temp\ccyi9XNv.s 			page 33


 772 01a4 0346     		mov	r3, r0
 773              	.L40:
 374:Middlewares/LVGL/GUI/lvgl/src/extra/layouts/flex/lv_flex.c ****             t->item_cnt++;
 774              		.loc 2 374 33 discriminator 4 view .LVU246
 775 01a6 2B60     		str	r3, [r5]
 375:Middlewares/LVGL/GUI/lvgl/src/extra/layouts/flex/lv_flex.c ****         }
 776              		.loc 2 375 13 is_stmt 1 discriminator 4 view .LVU247
 375:Middlewares/LVGL/GUI/lvgl/src/extra/layouts/flex/lv_flex.c ****         }
 777              		.loc 2 375 14 is_stmt 0 discriminator 4 view .LVU248
 778 01a8 EB68     		ldr	r3, [r5, #12]
 375:Middlewares/LVGL/GUI/lvgl/src/extra/layouts/flex/lv_flex.c ****         }
 779              		.loc 2 375 24 discriminator 4 view .LVU249
 780 01aa 0133     		adds	r3, r3, #1
 781 01ac EB60     		str	r3, [r5, #12]
 782 01ae 1AE0     		b	.L29
 783              	.L48:
 375:Middlewares/LVGL/GUI/lvgl/src/extra/layouts/flex/lv_flex.c ****         }
 784              		.loc 2 375 24 discriminator 4 view .LVU250
 785              	.LBE68:
 378:Middlewares/LVGL/GUI/lvgl/src/extra/layouts/flex/lv_flex.c ****         if(item_id < 0) break;
 786              		.loc 2 378 32 view .LVU251
 787 01b0 0121     		movs	r1, #1
 788              	.L41:
 378:Middlewares/LVGL/GUI/lvgl/src/extra/layouts/flex/lv_flex.c ****         if(item_id < 0) break;
 789              		.loc 2 378 17 discriminator 4 view .LVU252
 790 01b2 039B     		ldr	r3, [sp, #12]
 791 01b4 1944     		add	r1, r1, r3
 792 01b6 0391     		str	r1, [sp, #12]
 379:Middlewares/LVGL/GUI/lvgl/src/extra/layouts/flex/lv_flex.c ****         item = lv_obj_get_child(cont, item_id);
 793              		.loc 2 379 9 is_stmt 1 discriminator 4 view .LVU253
 379:Middlewares/LVGL/GUI/lvgl/src/extra/layouts/flex/lv_flex.c ****         item = lv_obj_get_child(cont, item_id);
 794              		.loc 2 379 11 is_stmt 0 discriminator 4 view .LVU254
 795 01b8 0029     		cmp	r1, #0
 796 01ba 1BDB     		blt	.L28
 380:Middlewares/LVGL/GUI/lvgl/src/extra/layouts/flex/lv_flex.c ****     }
 797              		.loc 2 380 9 is_stmt 1 view .LVU255
 380:Middlewares/LVGL/GUI/lvgl/src/extra/layouts/flex/lv_flex.c ****     }
 798              		.loc 2 380 16 is_stmt 0 view .LVU256
 799 01bc 4846     		mov	r0, r9
 800 01be FFF7FEFF 		bl	lv_obj_get_child
 801              	.LVL74:
 802 01c2 0446     		mov	r4, r0
 803              	.LVL75:
 804              	.L26:
 340:Middlewares/LVGL/GUI/lvgl/src/extra/layouts/flex/lv_flex.c ****         if(item_id != item_start_id && lv_obj_has_flag(item, LV_OBJ_FLAG_FLEX_IN_NEW_TRACK)) break;
 805              		.loc 2 340 10 is_stmt 1 view .LVU257
 806 01c4 B4B1     		cbz	r4, .L28
 341:Middlewares/LVGL/GUI/lvgl/src/extra/layouts/flex/lv_flex.c **** 
 807              		.loc 2 341 9 view .LVU258
 341:Middlewares/LVGL/GUI/lvgl/src/extra/layouts/flex/lv_flex.c **** 
 808              		.loc 2 341 20 is_stmt 0 view .LVU259
 809 01c6 039B     		ldr	r3, [sp, #12]
 341:Middlewares/LVGL/GUI/lvgl/src/extra/layouts/flex/lv_flex.c **** 
 810              		.loc 2 341 11 view .LVU260
 811 01c8 4345     		cmp	r3, r8
 812 01ca 05D0     		beq	.L27
 341:Middlewares/LVGL/GUI/lvgl/src/extra/layouts/flex/lv_flex.c **** 
ARM GAS  C:\Users\ADMINI~1\AppData\Local\Temp\ccyi9XNv.s 			page 34


 813              		.loc 2 341 40 discriminator 1 view .LVU261
 814 01cc 4FF40001 		mov	r1, #8388608
 815 01d0 2046     		mov	r0, r4
 341:Middlewares/LVGL/GUI/lvgl/src/extra/layouts/flex/lv_flex.c **** 
 816              		.loc 2 341 40 discriminator 1 view .LVU262
 817 01d2 FFF7FEFF 		bl	lv_obj_has_flag
 818              	.LVL76:
 341:Middlewares/LVGL/GUI/lvgl/src/extra/layouts/flex/lv_flex.c **** 
 819              		.loc 2 341 37 discriminator 1 view .LVU263
 820 01d6 68B9     		cbnz	r0, .L28
 821              	.L27:
 343:Middlewares/LVGL/GUI/lvgl/src/extra/layouts/flex/lv_flex.c ****             uint8_t grow_value = lv_obj_get_style_flex_grow(item, LV_PART_MAIN);
 822              		.loc 2 343 9 is_stmt 1 view .LVU264
 343:Middlewares/LVGL/GUI/lvgl/src/extra/layouts/flex/lv_flex.c ****             uint8_t grow_value = lv_obj_get_style_flex_grow(item, LV_PART_MAIN);
 823              		.loc 2 343 13 is_stmt 0 view .LVU265
 824 01d8 2049     		ldr	r1, .L52+16
 825 01da 2046     		mov	r0, r4
 826 01dc FFF7FEFF 		bl	lv_obj_has_flag_any
 827              	.LVL77:
 343:Middlewares/LVGL/GUI/lvgl/src/extra/layouts/flex/lv_flex.c ****             uint8_t grow_value = lv_obj_get_style_flex_grow(item, LV_PART_MAIN);
 828              		.loc 2 343 11 view .LVU266
 829 01e0 0028     		cmp	r0, #0
 830 01e2 3FF451AF 		beq	.L50
 831              	.L29:
 378:Middlewares/LVGL/GUI/lvgl/src/extra/layouts/flex/lv_flex.c ****         if(item_id < 0) break;
 832              		.loc 2 378 9 is_stmt 1 view .LVU267
 378:Middlewares/LVGL/GUI/lvgl/src/extra/layouts/flex/lv_flex.c ****         if(item_id < 0) break;
 833              		.loc 2 378 27 is_stmt 0 view .LVU268
 834 01e6 F378     		ldrb	r3, [r6, #3]	@ zero_extendqisi2
 378:Middlewares/LVGL/GUI/lvgl/src/extra/layouts/flex/lv_flex.c ****         if(item_id < 0) break;
 835              		.loc 2 378 32 view .LVU269
 836 01e8 13F0040F 		tst	r3, #4
 837 01ec E0D0     		beq	.L48
 838 01ee 4FF0FF31 		mov	r1, #-1
 839 01f2 DEE7     		b	.L41
 840              	.L28:
 383:Middlewares/LVGL/GUI/lvgl/src/extra/layouts/flex/lv_flex.c **** 
 841              		.loc 2 383 5 is_stmt 1 view .LVU270
 383:Middlewares/LVGL/GUI/lvgl/src/extra/layouts/flex/lv_flex.c **** 
 842              		.loc 2 383 9 is_stmt 0 view .LVU271
 843 01f4 AB68     		ldr	r3, [r5, #8]
 383:Middlewares/LVGL/GUI/lvgl/src/extra/layouts/flex/lv_flex.c **** 
 844              		.loc 2 383 7 view .LVU272
 845 01f6 002B     		cmp	r3, #0
 846 01f8 02DD     		ble	.L43
 383:Middlewares/LVGL/GUI/lvgl/src/extra/layouts/flex/lv_flex.c **** 
 847              		.loc 2 383 36 is_stmt 1 discriminator 1 view .LVU273
 383:Middlewares/LVGL/GUI/lvgl/src/extra/layouts/flex/lv_flex.c **** 
 848              		.loc 2 383 59 is_stmt 0 discriminator 1 view .LVU274
 849 01fa 0E9A     		ldr	r2, [sp, #56]
 850 01fc 9B1A     		subs	r3, r3, r2
 851 01fe AB60     		str	r3, [r5, #8]
 852              	.L43:
 386:Middlewares/LVGL/GUI/lvgl/src/extra/layouts/flex/lv_flex.c **** 
 853              		.loc 2 386 5 is_stmt 1 view .LVU275
 386:Middlewares/LVGL/GUI/lvgl/src/extra/layouts/flex/lv_flex.c **** 
 854              		.loc 2 386 27 is_stmt 0 view .LVU276
ARM GAS  C:\Users\ADMINI~1\AppData\Local\Temp\ccyi9XNv.s 			page 35


 855 0200 6B69     		ldr	r3, [r5, #20]
 386:Middlewares/LVGL/GUI/lvgl/src/extra/layouts/flex/lv_flex.c **** 
 856              		.loc 2 386 59 view .LVU277
 857 0202 0BB9     		cbnz	r3, .L44
 386:Middlewares/LVGL/GUI/lvgl/src/extra/layouts/flex/lv_flex.c **** 
 858              		.loc 2 386 59 discriminator 1 view .LVU278
 859 0204 AB68     		ldr	r3, [r5, #8]
 860 0206 0093     		str	r3, [sp]
 861              	.LVL78:
 862              	.L44:
 386:Middlewares/LVGL/GUI/lvgl/src/extra/layouts/flex/lv_flex.c **** 
 863              		.loc 2 386 24 discriminator 4 view .LVU279
 864 0208 009B     		ldr	r3, [sp]
 865 020a 6B60     		str	r3, [r5, #4]
 389:Middlewares/LVGL/GUI/lvgl/src/extra/layouts/flex/lv_flex.c ****         item = cont->spec_attr->children[item_id];
 866              		.loc 2 389 5 is_stmt 1 discriminator 4 view .LVU280
 389:Middlewares/LVGL/GUI/lvgl/src/extra/layouts/flex/lv_flex.c ****         item = cont->spec_attr->children[item_id];
 867              		.loc 2 389 7 is_stmt 0 discriminator 4 view .LVU281
 868 020c 14B1     		cbz	r4, .L45
 389:Middlewares/LVGL/GUI/lvgl/src/extra/layouts/flex/lv_flex.c ****         item = cont->spec_attr->children[item_id];
 869              		.loc 2 389 24 discriminator 1 view .LVU282
 870 020e 039B     		ldr	r3, [sp, #12]
 389:Middlewares/LVGL/GUI/lvgl/src/extra/layouts/flex/lv_flex.c ****         item = cont->spec_attr->children[item_id];
 871              		.loc 2 389 13 discriminator 1 view .LVU283
 872 0210 4345     		cmp	r3, r8
 873 0212 03D0     		beq	.L51
 874              	.L45:
 399:Middlewares/LVGL/GUI/lvgl/src/extra/layouts/flex/lv_flex.c **** }
 875              		.loc 2 399 5 is_stmt 1 view .LVU284
 400:Middlewares/LVGL/GUI/lvgl/src/extra/layouts/flex/lv_flex.c **** 
 876              		.loc 2 400 1 is_stmt 0 view .LVU285
 877 0214 0398     		ldr	r0, [sp, #12]
 878 0216 05B0     		add	sp, sp, #20
 879              	.LCFI5:
 880              		.cfi_remember_state
 881              		.cfi_def_cfa_offset 36
 882              		@ sp needed
 883 0218 BDE8F08F 		pop	{r4, r5, r6, r7, r8, r9, r10, fp, pc}
 884              	.LVL79:
 885              	.L51:
 886              	.LCFI6:
 887              		.cfi_restore_state
 390:Middlewares/LVGL/GUI/lvgl/src/extra/layouts/flex/lv_flex.c ****         get_next_item(cont, f->rev, &item_id);
 888              		.loc 2 390 9 is_stmt 1 view .LVU286
 390:Middlewares/LVGL/GUI/lvgl/src/extra/layouts/flex/lv_flex.c ****         get_next_item(cont, f->rev, &item_id);
 889              		.loc 2 390 20 is_stmt 0 view .LVU287
 890 021c D9F80820 		ldr	r2, [r9, #8]
 390:Middlewares/LVGL/GUI/lvgl/src/extra/layouts/flex/lv_flex.c ****         get_next_item(cont, f->rev, &item_id);
 891              		.loc 2 390 31 view .LVU288
 892 0220 1268     		ldr	r2, [r2]
 390:Middlewares/LVGL/GUI/lvgl/src/extra/layouts/flex/lv_flex.c ****         get_next_item(cont, f->rev, &item_id);
 893              		.loc 2 390 14 view .LVU289
 894 0222 52F82340 		ldr	r4, [r2, r3, lsl #2]
 895              	.LVL80:
 391:Middlewares/LVGL/GUI/lvgl/src/extra/layouts/flex/lv_flex.c ****         if(item) {
 896              		.loc 2 391 9 is_stmt 1 view .LVU290
 391:Middlewares/LVGL/GUI/lvgl/src/extra/layouts/flex/lv_flex.c ****         if(item) {
ARM GAS  C:\Users\ADMINI~1\AppData\Local\Temp\ccyi9XNv.s 			page 36


 897              		.loc 2 391 30 is_stmt 0 view .LVU291
 898 0226 F178     		ldrb	r1, [r6, #3]	@ zero_extendqisi2
 391:Middlewares/LVGL/GUI/lvgl/src/extra/layouts/flex/lv_flex.c ****         if(item) {
 899              		.loc 2 391 9 view .LVU292
 900 0228 03AA     		add	r2, sp, #12
 901 022a C1F38001 		ubfx	r1, r1, #2, #1
 902 022e 4846     		mov	r0, r9
 903 0230 FFF7FEFF 		bl	get_next_item
 904              	.LVL81:
 392:Middlewares/LVGL/GUI/lvgl/src/extra/layouts/flex/lv_flex.c ****             t->track_cross_size = get_cross_size(item);
 905              		.loc 2 392 9 is_stmt 1 view .LVU293
 392:Middlewares/LVGL/GUI/lvgl/src/extra/layouts/flex/lv_flex.c ****             t->track_cross_size = get_cross_size(item);
 906              		.loc 2 392 11 is_stmt 0 view .LVU294
 907 0234 002C     		cmp	r4, #0
 908 0236 EDD0     		beq	.L45
 393:Middlewares/LVGL/GUI/lvgl/src/extra/layouts/flex/lv_flex.c ****             t->track_main_size = get_main_size(item);
 909              		.loc 2 393 13 is_stmt 1 view .LVU295
 393:Middlewares/LVGL/GUI/lvgl/src/extra/layouts/flex/lv_flex.c ****             t->track_main_size = get_main_size(item);
 910              		.loc 2 393 35 is_stmt 0 view .LVU296
 911 0238 2046     		mov	r0, r4
 912 023a D047     		blx	r10
 913              	.LVL82:
 393:Middlewares/LVGL/GUI/lvgl/src/extra/layouts/flex/lv_flex.c ****             t->track_main_size = get_main_size(item);
 914              		.loc 2 393 33 view .LVU297
 915 023c 2860     		str	r0, [r5]
 394:Middlewares/LVGL/GUI/lvgl/src/extra/layouts/flex/lv_flex.c ****             t->item_cnt = 1;
 916              		.loc 2 394 13 is_stmt 1 view .LVU298
 394:Middlewares/LVGL/GUI/lvgl/src/extra/layouts/flex/lv_flex.c ****             t->item_cnt = 1;
 917              		.loc 2 394 34 is_stmt 0 view .LVU299
 918 023e 2046     		mov	r0, r4
 919 0240 019B     		ldr	r3, [sp, #4]
 920 0242 9847     		blx	r3
 921              	.LVL83:
 394:Middlewares/LVGL/GUI/lvgl/src/extra/layouts/flex/lv_flex.c ****             t->item_cnt = 1;
 922              		.loc 2 394 32 view .LVU300
 923 0244 6860     		str	r0, [r5, #4]
 395:Middlewares/LVGL/GUI/lvgl/src/extra/layouts/flex/lv_flex.c ****         }
 924              		.loc 2 395 13 is_stmt 1 view .LVU301
 395:Middlewares/LVGL/GUI/lvgl/src/extra/layouts/flex/lv_flex.c ****         }
 925              		.loc 2 395 25 is_stmt 0 view .LVU302
 926 0246 0123     		movs	r3, #1
 927 0248 EB60     		str	r3, [r5, #12]
 928 024a E3E7     		b	.L45
 929              	.L53:
 930              		.align	2
 931              	.L52:
 932 024c D1070020 		.word	536872913
 933 0250 00000000 		.word	lv_obj_get_width
 934 0254 00000000 		.word	lv_obj_get_height
 935 0258 00000000 		.word	.LANCHOR0
 936 025c 01000600 		.word	393217
 937              		.cfi_endproc
 938              	.LFE184:
 940              		.section	.text.children_repos,"ax",%progbits
 941              		.align	1
 942              		.syntax unified
 943              		.thumb
ARM GAS  C:\Users\ADMINI~1\AppData\Local\Temp\ccyi9XNv.s 			page 37


 944              		.thumb_func
 946              	children_repos:
 947              	.LVL84:
 948              	.LFB185:
 407:Middlewares/LVGL/GUI/lvgl/src/extra/layouts/flex/lv_flex.c ****     void (*area_set_main_size)(lv_area_t *, lv_coord_t) = (f->row ? lv_area_set_width : lv_area_set
 949              		.loc 2 407 1 is_stmt 1 view -0
 950              		.cfi_startproc
 951              		@ args = 20, pretend = 0, frame = 48
 952              		@ frame_needed = 0, uses_anonymous_args = 0
 407:Middlewares/LVGL/GUI/lvgl/src/extra/layouts/flex/lv_flex.c ****     void (*area_set_main_size)(lv_area_t *, lv_coord_t) = (f->row ? lv_area_set_width : lv_area_set
 953              		.loc 2 407 1 is_stmt 0 view .LVU304
 954 0000 2DE9F04F 		push	{r4, r5, r6, r7, r8, r9, r10, fp, lr}
 955              	.LCFI7:
 956              		.cfi_def_cfa_offset 36
 957              		.cfi_offset 4, -36
 958              		.cfi_offset 5, -32
 959              		.cfi_offset 6, -28
 960              		.cfi_offset 7, -24
 961              		.cfi_offset 8, -20
 962              		.cfi_offset 9, -16
 963              		.cfi_offset 10, -12
 964              		.cfi_offset 11, -8
 965              		.cfi_offset 14, -4
 966 0004 8FB0     		sub	sp, sp, #60
 967              	.LCFI8:
 968              		.cfi_def_cfa_offset 96
 969 0006 8246     		mov	r10, r0
 970 0008 0E46     		mov	r6, r1
 971 000a 0792     		str	r2, [sp, #28]
 972 000c 9B46     		mov	fp, r3
 973 000e 1C9C     		ldr	r4, [sp, #112]
 408:Middlewares/LVGL/GUI/lvgl/src/extra/layouts/flex/lv_flex.c ****     lv_coord_t (*area_get_main_size)(const lv_area_t *) = (f->row ? lv_area_get_width : lv_area_get
 974              		.loc 2 408 5 is_stmt 1 view .LVU305
 408:Middlewares/LVGL/GUI/lvgl/src/extra/layouts/flex/lv_flex.c ****     lv_coord_t (*area_get_main_size)(const lv_area_t *) = (f->row ? lv_area_get_width : lv_area_get
 975              		.loc 2 408 67 is_stmt 0 view .LVU306
 976 0010 CB78     		ldrb	r3, [r1, #3]	@ zero_extendqisi2
 977              	.LVL85:
 408:Middlewares/LVGL/GUI/lvgl/src/extra/layouts/flex/lv_flex.c ****     lv_coord_t (*area_get_main_size)(const lv_area_t *) = (f->row ? lv_area_get_width : lv_area_get
 978              		.loc 2 408 87 view .LVU307
 979 0012 13F00103 		ands	r3, r3, #1
 980 0016 0AD0     		beq	.L96
 981 0018 A44A     		ldr	r2, .L116
 982              	.LVL86:
 408:Middlewares/LVGL/GUI/lvgl/src/extra/layouts/flex/lv_flex.c ****     lv_coord_t (*area_get_main_size)(const lv_area_t *) = (f->row ? lv_area_get_width : lv_area_get
 983              		.loc 2 408 87 view .LVU308
 984 001a 0692     		str	r2, [sp, #24]
 985              	.L55:
 986              	.LVL87:
 409:Middlewares/LVGL/GUI/lvgl/src/extra/layouts/flex/lv_flex.c ****     lv_coord_t (*area_get_cross_size)(const lv_area_t *) = (!f->row ? lv_area_get_width : lv_area_g
 987              		.loc 2 409 5 is_stmt 1 discriminator 4 view .LVU309
 409:Middlewares/LVGL/GUI/lvgl/src/extra/layouts/flex/lv_flex.c ****     lv_coord_t (*area_get_cross_size)(const lv_area_t *) = (!f->row ? lv_area_get_width : lv_area_g
 988              		.loc 2 409 87 is_stmt 0 discriminator 4 view .LVU310
 989 001c 53B1     		cbz	r3, .L97
 409:Middlewares/LVGL/GUI/lvgl/src/extra/layouts/flex/lv_flex.c ****     lv_coord_t (*area_get_cross_size)(const lv_area_t *) = (!f->row ? lv_area_get_width : lv_area_g
 990              		.loc 2 409 87 view .LVU311
 991 001e A44A     		ldr	r2, .L116+4
 992 0020 0292     		str	r2, [sp, #8]
ARM GAS  C:\Users\ADMINI~1\AppData\Local\Temp\ccyi9XNv.s 			page 38


 993              	.L56:
 994              	.LVL88:
 410:Middlewares/LVGL/GUI/lvgl/src/extra/layouts/flex/lv_flex.c **** 
 995              		.loc 2 410 5 is_stmt 1 discriminator 4 view .LVU312
 410:Middlewares/LVGL/GUI/lvgl/src/extra/layouts/flex/lv_flex.c **** 
 996              		.loc 2 410 89 is_stmt 0 discriminator 4 view .LVU313
 997 0022 53B9     		cbnz	r3, .L98
 410:Middlewares/LVGL/GUI/lvgl/src/extra/layouts/flex/lv_flex.c **** 
 998              		.loc 2 410 89 view .LVU314
 999 0024 A24B     		ldr	r3, .L116+4
 1000 0026 0593     		str	r3, [sp, #20]
 1001              	.L57:
 1002              	.LVL89:
 413:Middlewares/LVGL/GUI/lvgl/src/extra/layouts/flex/lv_flex.c ****     bool grow_reiterate  = true;
 1003              		.loc 2 413 5 is_stmt 1 discriminator 4 view .LVU315
 414:Middlewares/LVGL/GUI/lvgl/src/extra/layouts/flex/lv_flex.c ****     while(grow_reiterate) {
 1004              		.loc 2 414 5 discriminator 4 view .LVU316
 415:Middlewares/LVGL/GUI/lvgl/src/extra/layouts/flex/lv_flex.c ****         grow_reiterate = false;
 1005              		.loc 2 415 5 discriminator 4 view .LVU317
 414:Middlewares/LVGL/GUI/lvgl/src/extra/layouts/flex/lv_flex.c ****     while(grow_reiterate) {
 1006              		.loc 2 414 10 is_stmt 0 discriminator 4 view .LVU318
 1007 0028 0127     		movs	r7, #1
 1008 002a B046     		mov	r8, r6
 415:Middlewares/LVGL/GUI/lvgl/src/extra/layouts/flex/lv_flex.c ****         grow_reiterate = false;
 1009              		.loc 2 415 10 discriminator 4 view .LVU319
 1010 002c 4CE0     		b	.L58
 1011              	.LVL90:
 1012              	.L96:
 408:Middlewares/LVGL/GUI/lvgl/src/extra/layouts/flex/lv_flex.c ****     lv_coord_t (*area_get_main_size)(const lv_area_t *) = (f->row ? lv_area_get_width : lv_area_get
 1013              		.loc 2 408 87 view .LVU320
 1014 002e A14A     		ldr	r2, .L116+8
 1015              	.LVL91:
 408:Middlewares/LVGL/GUI/lvgl/src/extra/layouts/flex/lv_flex.c ****     lv_coord_t (*area_get_main_size)(const lv_area_t *) = (f->row ? lv_area_get_width : lv_area_get
 1016              		.loc 2 408 87 view .LVU321
 1017 0030 0692     		str	r2, [sp, #24]
 1018 0032 F3E7     		b	.L55
 1019              	.LVL92:
 1020              	.L97:
 409:Middlewares/LVGL/GUI/lvgl/src/extra/layouts/flex/lv_flex.c ****     lv_coord_t (*area_get_cross_size)(const lv_area_t *) = (!f->row ? lv_area_get_width : lv_area_g
 1021              		.loc 2 409 87 view .LVU322
 1022 0034 A04A     		ldr	r2, .L116+12
 1023 0036 0292     		str	r2, [sp, #8]
 1024 0038 F3E7     		b	.L56
 1025              	.LVL93:
 1026              	.L98:
 410:Middlewares/LVGL/GUI/lvgl/src/extra/layouts/flex/lv_flex.c **** 
 1027              		.loc 2 410 89 view .LVU323
 1028 003a 9F4B     		ldr	r3, .L116+12
 1029 003c 0593     		str	r3, [sp, #20]
 1030 003e F3E7     		b	.L57
 1031              	.LVL94:
 1032              	.L60:
 1033              	.LBB81:
 424:Middlewares/LVGL/GUI/lvgl/src/extra/layouts/flex/lv_flex.c ****             }
 1034              		.loc 2 424 17 is_stmt 1 view .LVU324
 424:Middlewares/LVGL/GUI/lvgl/src/extra/layouts/flex/lv_flex.c ****             }
 1035              		.loc 2 424 48 is_stmt 0 view .LVU325
ARM GAS  C:\Users\ADMINI~1\AppData\Local\Temp\ccyi9XNv.s 			page 39


 1036 0040 DB68     		ldr	r3, [r3, #12]
 424:Middlewares/LVGL/GUI/lvgl/src/extra/layouts/flex/lv_flex.c ****             }
 1037              		.loc 2 424 31 view .LVU326
 1038 0042 C91A     		subs	r1, r1, r3
 1039              	.LVL95:
 1040              	.L61:
 419:Middlewares/LVGL/GUI/lvgl/src/extra/layouts/flex/lv_flex.c ****             if(t->grow_dsc[i].clamped == 0) {
 1041              		.loc 2 419 42 is_stmt 1 discriminator 2 view .LVU327
 419:Middlewares/LVGL/GUI/lvgl/src/extra/layouts/flex/lv_flex.c ****             if(t->grow_dsc[i].clamped == 0) {
 1042              		.loc 2 419 43 is_stmt 0 discriminator 2 view .LVU328
 1043 0044 0132     		adds	r2, r2, #1
 1044              	.LVL96:
 1045              	.L59:
 419:Middlewares/LVGL/GUI/lvgl/src/extra/layouts/flex/lv_flex.c ****             if(t->grow_dsc[i].clamped == 0) {
 1046              		.loc 2 419 20 is_stmt 1 discriminator 1 view .LVU329
 419:Middlewares/LVGL/GUI/lvgl/src/extra/layouts/flex/lv_flex.c ****             if(t->grow_dsc[i].clamped == 0) {
 1047              		.loc 2 419 25 is_stmt 0 discriminator 1 view .LVU330
 1048 0046 6369     		ldr	r3, [r4, #20]
 419:Middlewares/LVGL/GUI/lvgl/src/extra/layouts/flex/lv_flex.c ****             if(t->grow_dsc[i].clamped == 0) {
 1049              		.loc 2 419 9 discriminator 1 view .LVU331
 1050 0048 9342     		cmp	r3, r2
 1051 004a 0BD9     		bls	.L104
 420:Middlewares/LVGL/GUI/lvgl/src/extra/layouts/flex/lv_flex.c ****                 grow_value_sum += t->grow_dsc[i].grow_value;
 1052              		.loc 2 420 13 is_stmt 1 view .LVU332
 420:Middlewares/LVGL/GUI/lvgl/src/extra/layouts/flex/lv_flex.c ****                 grow_value_sum += t->grow_dsc[i].grow_value;
 1053              		.loc 2 420 17 is_stmt 0 view .LVU333
 1054 004c 2369     		ldr	r3, [r4, #16]
 420:Middlewares/LVGL/GUI/lvgl/src/extra/layouts/flex/lv_flex.c ****                 grow_value_sum += t->grow_dsc[i].grow_value;
 1055              		.loc 2 420 27 view .LVU334
 1056 004e 02EB4205 		add	r5, r2, r2, lsl #1
 1057 0052 03EBC503 		add	r3, r3, r5, lsl #3
 420:Middlewares/LVGL/GUI/lvgl/src/extra/layouts/flex/lv_flex.c ****                 grow_value_sum += t->grow_dsc[i].grow_value;
 1058              		.loc 2 420 39 view .LVU335
 1059 0056 1D7D     		ldrb	r5, [r3, #20]	@ zero_extendqisi2
 420:Middlewares/LVGL/GUI/lvgl/src/extra/layouts/flex/lv_flex.c ****                 grow_value_sum += t->grow_dsc[i].grow_value;
 1060              		.loc 2 420 15 view .LVU336
 1061 0058 15F0010F 		tst	r5, #1
 1062 005c F0D1     		bne	.L60
 421:Middlewares/LVGL/GUI/lvgl/src/extra/layouts/flex/lv_flex.c ****             }
 1063              		.loc 2 421 17 is_stmt 1 view .LVU337
 421:Middlewares/LVGL/GUI/lvgl/src/extra/layouts/flex/lv_flex.c ****             }
 1064              		.loc 2 421 49 is_stmt 0 view .LVU338
 1065 005e 1B69     		ldr	r3, [r3, #16]
 421:Middlewares/LVGL/GUI/lvgl/src/extra/layouts/flex/lv_flex.c ****             }
 1066              		.loc 2 421 32 view .LVU339
 1067 0060 1844     		add	r0, r0, r3
 1068              	.LVL97:
 421:Middlewares/LVGL/GUI/lvgl/src/extra/layouts/flex/lv_flex.c ****             }
 1069              		.loc 2 421 32 view .LVU340
 1070 0062 EFE7     		b	.L61
 1071              	.L104:
 416:Middlewares/LVGL/GUI/lvgl/src/extra/layouts/flex/lv_flex.c ****         lv_coord_t grow_value_sum = 0;
 1072              		.loc 2 416 24 view .LVU341
 1073 0064 4FF0000C 		mov	ip, #0
 429:Middlewares/LVGL/GUI/lvgl/src/extra/layouts/flex/lv_flex.c ****             if(t->grow_dsc[i].clamped == 0) {
 1074              		.loc 2 429 15 view .LVU342
 1075 0068 6346     		mov	r3, ip
ARM GAS  C:\Users\ADMINI~1\AppData\Local\Temp\ccyi9XNv.s 			page 40


 1076 006a BE46     		mov	lr, r7
 1077 006c 0EE0     		b	.L63
 1078              	.LVL98:
 1079              	.L106:
 1080              	.LBB82:
 436:Middlewares/LVGL/GUI/lvgl/src/extra/layouts/flex/lv_flex.c ****                     grow_reiterate = true;
 1081              		.loc 2 436 21 is_stmt 1 view .LVU343
 436:Middlewares/LVGL/GUI/lvgl/src/extra/layouts/flex/lv_flex.c ****                     grow_reiterate = true;
 1082              		.loc 2 436 44 is_stmt 0 view .LVU344
 1083 006e 2A7D     		ldrb	r2, [r5, #20]	@ zero_extendqisi2
 1084 0070 42F00102 		orr	r2, r2, #1
 1085 0074 2A75     		strb	r2, [r5, #20]
 437:Middlewares/LVGL/GUI/lvgl/src/extra/layouts/flex/lv_flex.c ****                 }
 1086              		.loc 2 437 21 is_stmt 1 view .LVU345
 1087              	.LVL99:
 437:Middlewares/LVGL/GUI/lvgl/src/extra/layouts/flex/lv_flex.c ****                 }
 1088              		.loc 2 437 36 is_stmt 0 view .LVU346
 1089 0076 F446     		mov	ip, lr
 1090              	.LVL100:
 1091              	.L65:
 439:Middlewares/LVGL/GUI/lvgl/src/extra/layouts/flex/lv_flex.c ****                 grow_value_sum -= t->grow_dsc[i].grow_value;
 1092              		.loc 2 439 17 is_stmt 1 view .LVU347
 439:Middlewares/LVGL/GUI/lvgl/src/extra/layouts/flex/lv_flex.c ****                 grow_value_sum -= t->grow_dsc[i].grow_value;
 1093              		.loc 2 439 18 is_stmt 0 view .LVU348
 1094 0078 2569     		ldr	r5, [r4, #16]
 439:Middlewares/LVGL/GUI/lvgl/src/extra/layouts/flex/lv_flex.c ****                 grow_value_sum -= t->grow_dsc[i].grow_value;
 1095              		.loc 2 439 28 view .LVU349
 1096 007a 3D44     		add	r5, r5, r7
 439:Middlewares/LVGL/GUI/lvgl/src/extra/layouts/flex/lv_flex.c ****                 grow_value_sum -= t->grow_dsc[i].grow_value;
 1097              		.loc 2 439 43 view .LVU350
 1098 007c EE60     		str	r6, [r5, #12]
 440:Middlewares/LVGL/GUI/lvgl/src/extra/layouts/flex/lv_flex.c ****                 grow_max_size  -= t->grow_dsc[i].final_size;
 1099              		.loc 2 440 17 is_stmt 1 view .LVU351
 440:Middlewares/LVGL/GUI/lvgl/src/extra/layouts/flex/lv_flex.c ****                 grow_max_size  -= t->grow_dsc[i].final_size;
 1100              		.loc 2 440 36 is_stmt 0 view .LVU352
 1101 007e 2269     		ldr	r2, [r4, #16]
 440:Middlewares/LVGL/GUI/lvgl/src/extra/layouts/flex/lv_flex.c ****                 grow_max_size  -= t->grow_dsc[i].final_size;
 1102              		.loc 2 440 46 view .LVU353
 1103 0080 3A44     		add	r2, r2, r7
 440:Middlewares/LVGL/GUI/lvgl/src/extra/layouts/flex/lv_flex.c ****                 grow_max_size  -= t->grow_dsc[i].final_size;
 1104              		.loc 2 440 49 view .LVU354
 1105 0082 1569     		ldr	r5, [r2, #16]
 440:Middlewares/LVGL/GUI/lvgl/src/extra/layouts/flex/lv_flex.c ****                 grow_max_size  -= t->grow_dsc[i].final_size;
 1106              		.loc 2 440 32 view .LVU355
 1107 0084 401B     		subs	r0, r0, r5
 1108              	.LVL101:
 441:Middlewares/LVGL/GUI/lvgl/src/extra/layouts/flex/lv_flex.c ****             }
 1109              		.loc 2 441 17 is_stmt 1 view .LVU356
 441:Middlewares/LVGL/GUI/lvgl/src/extra/layouts/flex/lv_flex.c ****             }
 1110              		.loc 2 441 49 is_stmt 0 view .LVU357
 1111 0086 D268     		ldr	r2, [r2, #12]
 441:Middlewares/LVGL/GUI/lvgl/src/extra/layouts/flex/lv_flex.c ****             }
 1112              		.loc 2 441 32 view .LVU358
 1113 0088 891A     		subs	r1, r1, r2
 1114              	.LVL102:
 1115              	.L64:
 441:Middlewares/LVGL/GUI/lvgl/src/extra/layouts/flex/lv_flex.c ****             }
ARM GAS  C:\Users\ADMINI~1\AppData\Local\Temp\ccyi9XNv.s 			page 41


 1116              		.loc 2 441 32 view .LVU359
 1117              	.LBE82:
 429:Middlewares/LVGL/GUI/lvgl/src/extra/layouts/flex/lv_flex.c ****             if(t->grow_dsc[i].clamped == 0) {
 1118              		.loc 2 429 42 is_stmt 1 discriminator 2 view .LVU360
 429:Middlewares/LVGL/GUI/lvgl/src/extra/layouts/flex/lv_flex.c ****             if(t->grow_dsc[i].clamped == 0) {
 1119              		.loc 2 429 43 is_stmt 0 discriminator 2 view .LVU361
 1120 008a 0133     		adds	r3, r3, #1
 1121              	.LVL103:
 1122              	.L63:
 429:Middlewares/LVGL/GUI/lvgl/src/extra/layouts/flex/lv_flex.c ****             if(t->grow_dsc[i].clamped == 0) {
 1123              		.loc 2 429 20 is_stmt 1 discriminator 1 view .LVU362
 429:Middlewares/LVGL/GUI/lvgl/src/extra/layouts/flex/lv_flex.c ****             if(t->grow_dsc[i].clamped == 0) {
 1124              		.loc 2 429 25 is_stmt 0 discriminator 1 view .LVU363
 1125 008c 6269     		ldr	r2, [r4, #20]
 429:Middlewares/LVGL/GUI/lvgl/src/extra/layouts/flex/lv_flex.c ****             if(t->grow_dsc[i].clamped == 0) {
 1126              		.loc 2 429 9 discriminator 1 view .LVU364
 1127 008e 9A42     		cmp	r2, r3
 1128 0090 19D9     		bls	.L105
 430:Middlewares/LVGL/GUI/lvgl/src/extra/layouts/flex/lv_flex.c ****                 grow_unit = grow_max_size / grow_value_sum;
 1129              		.loc 2 430 13 is_stmt 1 view .LVU365
 430:Middlewares/LVGL/GUI/lvgl/src/extra/layouts/flex/lv_flex.c ****                 grow_unit = grow_max_size / grow_value_sum;
 1130              		.loc 2 430 17 is_stmt 0 view .LVU366
 1131 0092 2569     		ldr	r5, [r4, #16]
 430:Middlewares/LVGL/GUI/lvgl/src/extra/layouts/flex/lv_flex.c ****                 grow_unit = grow_max_size / grow_value_sum;
 1132              		.loc 2 430 27 view .LVU367
 1133 0094 03EB4302 		add	r2, r3, r3, lsl #1
 1134 0098 D700     		lsls	r7, r2, #3
 1135 009a 05EBC205 		add	r5, r5, r2, lsl #3
 430:Middlewares/LVGL/GUI/lvgl/src/extra/layouts/flex/lv_flex.c ****                 grow_unit = grow_max_size / grow_value_sum;
 1136              		.loc 2 430 39 view .LVU368
 1137 009e 2A7D     		ldrb	r2, [r5, #20]	@ zero_extendqisi2
 430:Middlewares/LVGL/GUI/lvgl/src/extra/layouts/flex/lv_flex.c ****                 grow_unit = grow_max_size / grow_value_sum;
 1138              		.loc 2 430 15 view .LVU369
 1139 00a0 12F0010F 		tst	r2, #1
 1140 00a4 F1D1     		bne	.L64
 1141              	.LBB83:
 431:Middlewares/LVGL/GUI/lvgl/src/extra/layouts/flex/lv_flex.c ****                 lv_coord_t size = grow_unit * t->grow_dsc[i].grow_value;
 1142              		.loc 2 431 17 is_stmt 1 view .LVU370
 431:Middlewares/LVGL/GUI/lvgl/src/extra/layouts/flex/lv_flex.c ****                 lv_coord_t size = grow_unit * t->grow_dsc[i].grow_value;
 1143              		.loc 2 431 27 is_stmt 0 view .LVU371
 1144 00a6 91FBF0F9 		sdiv	r9, r1, r0
 432:Middlewares/LVGL/GUI/lvgl/src/extra/layouts/flex/lv_flex.c ****                 lv_coord_t size_clamp = LV_CLAMP(t->grow_dsc[i].min_size, size, t->grow_dsc[i].max_
 1145              		.loc 2 432 17 is_stmt 1 view .LVU372
 432:Middlewares/LVGL/GUI/lvgl/src/extra/layouts/flex/lv_flex.c ****                 lv_coord_t size_clamp = LV_CLAMP(t->grow_dsc[i].min_size, size, t->grow_dsc[i].max_
 1146              		.loc 2 432 61 is_stmt 0 view .LVU373
 1147 00aa 2E69     		ldr	r6, [r5, #16]
 432:Middlewares/LVGL/GUI/lvgl/src/extra/layouts/flex/lv_flex.c ****                 lv_coord_t size_clamp = LV_CLAMP(t->grow_dsc[i].min_size, size, t->grow_dsc[i].max_
 1148              		.loc 2 432 45 view .LVU374
 1149 00ac 06FB09F9 		mul	r9, r6, r9
 1150              	.LVL104:
 433:Middlewares/LVGL/GUI/lvgl/src/extra/layouts/flex/lv_flex.c **** 
 1151              		.loc 2 433 17 is_stmt 1 view .LVU375
 433:Middlewares/LVGL/GUI/lvgl/src/extra/layouts/flex/lv_flex.c **** 
 1152              		.loc 2 433 41 is_stmt 0 view .LVU376
 1153 00b0 AA68     		ldr	r2, [r5, #8]
 1154 00b2 4A45     		cmp	r2, r9
 1155 00b4 A8BF     		it	ge
ARM GAS  C:\Users\ADMINI~1\AppData\Local\Temp\ccyi9XNv.s 			page 42


 1156 00b6 4A46     		movge	r2, r9
 1157 00b8 6E68     		ldr	r6, [r5, #4]
 433:Middlewares/LVGL/GUI/lvgl/src/extra/layouts/flex/lv_flex.c **** 
 1158              		.loc 2 433 28 view .LVU377
 1159 00ba 9642     		cmp	r6, r2
 1160 00bc B8BF     		it	lt
 1161 00be 1646     		movlt	r6, r2
 1162              	.LVL105:
 435:Middlewares/LVGL/GUI/lvgl/src/extra/layouts/flex/lv_flex.c ****                     t->grow_dsc[i].clamped = 1;
 1163              		.loc 2 435 17 is_stmt 1 view .LVU378
 435:Middlewares/LVGL/GUI/lvgl/src/extra/layouts/flex/lv_flex.c ****                     t->grow_dsc[i].clamped = 1;
 1164              		.loc 2 435 19 is_stmt 0 view .LVU379
 1165 00c0 B145     		cmp	r9, r6
 1166 00c2 D4D1     		bne	.L106
 1167 00c4 D8E7     		b	.L65
 1168              	.LVL106:
 1169              	.L105:
 435:Middlewares/LVGL/GUI/lvgl/src/extra/layouts/flex/lv_flex.c ****                     t->grow_dsc[i].clamped = 1;
 1170              		.loc 2 435 19 view .LVU380
 1171              	.LBE83:
 1172 00c6 6746     		mov	r7, ip
 1173              	.LVL107:
 1174              	.L58:
 435:Middlewares/LVGL/GUI/lvgl/src/extra/layouts/flex/lv_flex.c ****                     t->grow_dsc[i].clamped = 1;
 1175              		.loc 2 435 19 view .LVU381
 1176              	.LBE81:
 415:Middlewares/LVGL/GUI/lvgl/src/extra/layouts/flex/lv_flex.c ****         grow_reiterate = false;
 1177              		.loc 2 415 10 is_stmt 1 view .LVU382
 1178 00c8 2FB1     		cbz	r7, .L107
 1179              	.LBB84:
 416:Middlewares/LVGL/GUI/lvgl/src/extra/layouts/flex/lv_flex.c ****         lv_coord_t grow_value_sum = 0;
 1180              		.loc 2 416 9 view .LVU383
 1181              	.LVL108:
 417:Middlewares/LVGL/GUI/lvgl/src/extra/layouts/flex/lv_flex.c ****         lv_coord_t grow_max_size = t->track_main_size - t->track_fix_main_size;
 1182              		.loc 2 417 9 view .LVU384
 418:Middlewares/LVGL/GUI/lvgl/src/extra/layouts/flex/lv_flex.c ****         for(i = 0; i < t->grow_item_cnt; i++) {
 1183              		.loc 2 418 9 view .LVU385
 418:Middlewares/LVGL/GUI/lvgl/src/extra/layouts/flex/lv_flex.c ****         for(i = 0; i < t->grow_item_cnt; i++) {
 1184              		.loc 2 418 37 is_stmt 0 view .LVU386
 1185 00ca 6168     		ldr	r1, [r4, #4]
 418:Middlewares/LVGL/GUI/lvgl/src/extra/layouts/flex/lv_flex.c ****         for(i = 0; i < t->grow_item_cnt; i++) {
 1186              		.loc 2 418 58 view .LVU387
 1187 00cc A368     		ldr	r3, [r4, #8]
 418:Middlewares/LVGL/GUI/lvgl/src/extra/layouts/flex/lv_flex.c ****         for(i = 0; i < t->grow_item_cnt; i++) {
 1188              		.loc 2 418 20 view .LVU388
 1189 00ce C91A     		subs	r1, r1, r3
 1190              	.LVL109:
 419:Middlewares/LVGL/GUI/lvgl/src/extra/layouts/flex/lv_flex.c ****             if(t->grow_dsc[i].clamped == 0) {
 1191              		.loc 2 419 9 is_stmt 1 view .LVU389
 417:Middlewares/LVGL/GUI/lvgl/src/extra/layouts/flex/lv_flex.c ****         lv_coord_t grow_max_size = t->track_main_size - t->track_fix_main_size;
 1192              		.loc 2 417 20 is_stmt 0 view .LVU390
 1193 00d0 0020     		movs	r0, #0
 419:Middlewares/LVGL/GUI/lvgl/src/extra/layouts/flex/lv_flex.c ****             if(t->grow_dsc[i].clamped == 0) {
 1194              		.loc 2 419 15 view .LVU391
 1195 00d2 0246     		mov	r2, r0
 419:Middlewares/LVGL/GUI/lvgl/src/extra/layouts/flex/lv_flex.c ****             if(t->grow_dsc[i].clamped == 0) {
 1196              		.loc 2 419 9 view .LVU392
ARM GAS  C:\Users\ADMINI~1\AppData\Local\Temp\ccyi9XNv.s 			page 43


 1197 00d4 B7E7     		b	.L59
 1198              	.LVL110:
 1199              	.L107:
 419:Middlewares/LVGL/GUI/lvgl/src/extra/layouts/flex/lv_flex.c ****             if(t->grow_dsc[i].clamped == 0) {
 1200              		.loc 2 419 9 view .LVU393
 1201              	.LBE84:
 1202              	.LBB85:
 1203              	.LBB86:
  35:Middlewares/LVGL/GUI/lvgl/src/extra/layouts/flex/../flex/../../../core/lv_obj_style_gen.h **** }
  36:Middlewares/LVGL/GUI/lvgl/src/extra/layouts/flex/../flex/../../../core/lv_obj_style_gen.h **** 
  37:Middlewares/LVGL/GUI/lvgl/src/extra/layouts/flex/../flex/../../../core/lv_obj_style_gen.h **** static inline lv_coord_t lv_obj_get_style_x(const struct _lv_obj_t * obj, uint32_t part)
  38:Middlewares/LVGL/GUI/lvgl/src/extra/layouts/flex/../flex/../../../core/lv_obj_style_gen.h **** {
  39:Middlewares/LVGL/GUI/lvgl/src/extra/layouts/flex/../flex/../../../core/lv_obj_style_gen.h ****     lv_style_value_t v = lv_obj_get_style_prop(obj, part, LV_STYLE_X);
  40:Middlewares/LVGL/GUI/lvgl/src/extra/layouts/flex/../flex/../../../core/lv_obj_style_gen.h ****     return (lv_coord_t)v.num;
  41:Middlewares/LVGL/GUI/lvgl/src/extra/layouts/flex/../flex/../../../core/lv_obj_style_gen.h **** }
  42:Middlewares/LVGL/GUI/lvgl/src/extra/layouts/flex/../flex/../../../core/lv_obj_style_gen.h **** 
  43:Middlewares/LVGL/GUI/lvgl/src/extra/layouts/flex/../flex/../../../core/lv_obj_style_gen.h **** static inline lv_coord_t lv_obj_get_style_y(const struct _lv_obj_t * obj, uint32_t part)
  44:Middlewares/LVGL/GUI/lvgl/src/extra/layouts/flex/../flex/../../../core/lv_obj_style_gen.h **** {
  45:Middlewares/LVGL/GUI/lvgl/src/extra/layouts/flex/../flex/../../../core/lv_obj_style_gen.h ****     lv_style_value_t v = lv_obj_get_style_prop(obj, part, LV_STYLE_Y);
  46:Middlewares/LVGL/GUI/lvgl/src/extra/layouts/flex/../flex/../../../core/lv_obj_style_gen.h ****     return (lv_coord_t)v.num;
  47:Middlewares/LVGL/GUI/lvgl/src/extra/layouts/flex/../flex/../../../core/lv_obj_style_gen.h **** }
  48:Middlewares/LVGL/GUI/lvgl/src/extra/layouts/flex/../flex/../../../core/lv_obj_style_gen.h **** 
  49:Middlewares/LVGL/GUI/lvgl/src/extra/layouts/flex/../flex/../../../core/lv_obj_style_gen.h **** static inline lv_align_t lv_obj_get_style_align(const struct _lv_obj_t * obj, uint32_t part)
  50:Middlewares/LVGL/GUI/lvgl/src/extra/layouts/flex/../flex/../../../core/lv_obj_style_gen.h **** {
  51:Middlewares/LVGL/GUI/lvgl/src/extra/layouts/flex/../flex/../../../core/lv_obj_style_gen.h ****     lv_style_value_t v = lv_obj_get_style_prop(obj, part, LV_STYLE_ALIGN);
  52:Middlewares/LVGL/GUI/lvgl/src/extra/layouts/flex/../flex/../../../core/lv_obj_style_gen.h ****     return (lv_align_t)v.num;
  53:Middlewares/LVGL/GUI/lvgl/src/extra/layouts/flex/../flex/../../../core/lv_obj_style_gen.h **** }
  54:Middlewares/LVGL/GUI/lvgl/src/extra/layouts/flex/../flex/../../../core/lv_obj_style_gen.h **** 
  55:Middlewares/LVGL/GUI/lvgl/src/extra/layouts/flex/../flex/../../../core/lv_obj_style_gen.h **** static inline lv_coord_t lv_obj_get_style_transform_width(const struct _lv_obj_t * obj, uint32_t pa
  56:Middlewares/LVGL/GUI/lvgl/src/extra/layouts/flex/../flex/../../../core/lv_obj_style_gen.h **** {
  57:Middlewares/LVGL/GUI/lvgl/src/extra/layouts/flex/../flex/../../../core/lv_obj_style_gen.h ****     lv_style_value_t v = lv_obj_get_style_prop(obj, part, LV_STYLE_TRANSFORM_WIDTH);
  58:Middlewares/LVGL/GUI/lvgl/src/extra/layouts/flex/../flex/../../../core/lv_obj_style_gen.h ****     return (lv_coord_t)v.num;
  59:Middlewares/LVGL/GUI/lvgl/src/extra/layouts/flex/../flex/../../../core/lv_obj_style_gen.h **** }
  60:Middlewares/LVGL/GUI/lvgl/src/extra/layouts/flex/../flex/../../../core/lv_obj_style_gen.h **** 
  61:Middlewares/LVGL/GUI/lvgl/src/extra/layouts/flex/../flex/../../../core/lv_obj_style_gen.h **** static inline lv_coord_t lv_obj_get_style_transform_height(const struct _lv_obj_t * obj, uint32_t p
  62:Middlewares/LVGL/GUI/lvgl/src/extra/layouts/flex/../flex/../../../core/lv_obj_style_gen.h **** {
  63:Middlewares/LVGL/GUI/lvgl/src/extra/layouts/flex/../flex/../../../core/lv_obj_style_gen.h ****     lv_style_value_t v = lv_obj_get_style_prop(obj, part, LV_STYLE_TRANSFORM_HEIGHT);
  64:Middlewares/LVGL/GUI/lvgl/src/extra/layouts/flex/../flex/../../../core/lv_obj_style_gen.h ****     return (lv_coord_t)v.num;
  65:Middlewares/LVGL/GUI/lvgl/src/extra/layouts/flex/../flex/../../../core/lv_obj_style_gen.h **** }
  66:Middlewares/LVGL/GUI/lvgl/src/extra/layouts/flex/../flex/../../../core/lv_obj_style_gen.h **** 
  67:Middlewares/LVGL/GUI/lvgl/src/extra/layouts/flex/../flex/../../../core/lv_obj_style_gen.h **** static inline lv_coord_t lv_obj_get_style_translate_x(const struct _lv_obj_t * obj, uint32_t part)
  68:Middlewares/LVGL/GUI/lvgl/src/extra/layouts/flex/../flex/../../../core/lv_obj_style_gen.h **** {
  69:Middlewares/LVGL/GUI/lvgl/src/extra/layouts/flex/../flex/../../../core/lv_obj_style_gen.h ****     lv_style_value_t v = lv_obj_get_style_prop(obj, part, LV_STYLE_TRANSLATE_X);
  70:Middlewares/LVGL/GUI/lvgl/src/extra/layouts/flex/../flex/../../../core/lv_obj_style_gen.h ****     return (lv_coord_t)v.num;
  71:Middlewares/LVGL/GUI/lvgl/src/extra/layouts/flex/../flex/../../../core/lv_obj_style_gen.h **** }
  72:Middlewares/LVGL/GUI/lvgl/src/extra/layouts/flex/../flex/../../../core/lv_obj_style_gen.h **** 
  73:Middlewares/LVGL/GUI/lvgl/src/extra/layouts/flex/../flex/../../../core/lv_obj_style_gen.h **** static inline lv_coord_t lv_obj_get_style_translate_y(const struct _lv_obj_t * obj, uint32_t part)
  74:Middlewares/LVGL/GUI/lvgl/src/extra/layouts/flex/../flex/../../../core/lv_obj_style_gen.h **** {
  75:Middlewares/LVGL/GUI/lvgl/src/extra/layouts/flex/../flex/../../../core/lv_obj_style_gen.h ****     lv_style_value_t v = lv_obj_get_style_prop(obj, part, LV_STYLE_TRANSLATE_Y);
  76:Middlewares/LVGL/GUI/lvgl/src/extra/layouts/flex/../flex/../../../core/lv_obj_style_gen.h ****     return (lv_coord_t)v.num;
  77:Middlewares/LVGL/GUI/lvgl/src/extra/layouts/flex/../flex/../../../core/lv_obj_style_gen.h **** }
  78:Middlewares/LVGL/GUI/lvgl/src/extra/layouts/flex/../flex/../../../core/lv_obj_style_gen.h **** 
  79:Middlewares/LVGL/GUI/lvgl/src/extra/layouts/flex/../flex/../../../core/lv_obj_style_gen.h **** static inline lv_coord_t lv_obj_get_style_transform_zoom(const struct _lv_obj_t * obj, uint32_t par
  80:Middlewares/LVGL/GUI/lvgl/src/extra/layouts/flex/../flex/../../../core/lv_obj_style_gen.h **** {
  81:Middlewares/LVGL/GUI/lvgl/src/extra/layouts/flex/../flex/../../../core/lv_obj_style_gen.h ****     lv_style_value_t v = lv_obj_get_style_prop(obj, part, LV_STYLE_TRANSFORM_ZOOM);
  82:Middlewares/LVGL/GUI/lvgl/src/extra/layouts/flex/../flex/../../../core/lv_obj_style_gen.h ****     return (lv_coord_t)v.num;
  83:Middlewares/LVGL/GUI/lvgl/src/extra/layouts/flex/../flex/../../../core/lv_obj_style_gen.h **** }
ARM GAS  C:\Users\ADMINI~1\AppData\Local\Temp\ccyi9XNv.s 			page 44


  84:Middlewares/LVGL/GUI/lvgl/src/extra/layouts/flex/../flex/../../../core/lv_obj_style_gen.h **** 
  85:Middlewares/LVGL/GUI/lvgl/src/extra/layouts/flex/../flex/../../../core/lv_obj_style_gen.h **** static inline lv_coord_t lv_obj_get_style_transform_angle(const struct _lv_obj_t * obj, uint32_t pa
  86:Middlewares/LVGL/GUI/lvgl/src/extra/layouts/flex/../flex/../../../core/lv_obj_style_gen.h **** {
  87:Middlewares/LVGL/GUI/lvgl/src/extra/layouts/flex/../flex/../../../core/lv_obj_style_gen.h ****     lv_style_value_t v = lv_obj_get_style_prop(obj, part, LV_STYLE_TRANSFORM_ANGLE);
  88:Middlewares/LVGL/GUI/lvgl/src/extra/layouts/flex/../flex/../../../core/lv_obj_style_gen.h ****     return (lv_coord_t)v.num;
  89:Middlewares/LVGL/GUI/lvgl/src/extra/layouts/flex/../flex/../../../core/lv_obj_style_gen.h **** }
  90:Middlewares/LVGL/GUI/lvgl/src/extra/layouts/flex/../flex/../../../core/lv_obj_style_gen.h **** 
  91:Middlewares/LVGL/GUI/lvgl/src/extra/layouts/flex/../flex/../../../core/lv_obj_style_gen.h **** static inline lv_coord_t lv_obj_get_style_pad_top(const struct _lv_obj_t * obj, uint32_t part)
  92:Middlewares/LVGL/GUI/lvgl/src/extra/layouts/flex/../flex/../../../core/lv_obj_style_gen.h **** {
  93:Middlewares/LVGL/GUI/lvgl/src/extra/layouts/flex/../flex/../../../core/lv_obj_style_gen.h ****     lv_style_value_t v = lv_obj_get_style_prop(obj, part, LV_STYLE_PAD_TOP);
  94:Middlewares/LVGL/GUI/lvgl/src/extra/layouts/flex/../flex/../../../core/lv_obj_style_gen.h ****     return (lv_coord_t)v.num;
  95:Middlewares/LVGL/GUI/lvgl/src/extra/layouts/flex/../flex/../../../core/lv_obj_style_gen.h **** }
  96:Middlewares/LVGL/GUI/lvgl/src/extra/layouts/flex/../flex/../../../core/lv_obj_style_gen.h **** 
  97:Middlewares/LVGL/GUI/lvgl/src/extra/layouts/flex/../flex/../../../core/lv_obj_style_gen.h **** static inline lv_coord_t lv_obj_get_style_pad_bottom(const struct _lv_obj_t * obj, uint32_t part)
  98:Middlewares/LVGL/GUI/lvgl/src/extra/layouts/flex/../flex/../../../core/lv_obj_style_gen.h **** {
  99:Middlewares/LVGL/GUI/lvgl/src/extra/layouts/flex/../flex/../../../core/lv_obj_style_gen.h ****     lv_style_value_t v = lv_obj_get_style_prop(obj, part, LV_STYLE_PAD_BOTTOM);
 100:Middlewares/LVGL/GUI/lvgl/src/extra/layouts/flex/../flex/../../../core/lv_obj_style_gen.h ****     return (lv_coord_t)v.num;
 101:Middlewares/LVGL/GUI/lvgl/src/extra/layouts/flex/../flex/../../../core/lv_obj_style_gen.h **** }
 102:Middlewares/LVGL/GUI/lvgl/src/extra/layouts/flex/../flex/../../../core/lv_obj_style_gen.h **** 
 103:Middlewares/LVGL/GUI/lvgl/src/extra/layouts/flex/../flex/../../../core/lv_obj_style_gen.h **** static inline lv_coord_t lv_obj_get_style_pad_left(const struct _lv_obj_t * obj, uint32_t part)
 104:Middlewares/LVGL/GUI/lvgl/src/extra/layouts/flex/../flex/../../../core/lv_obj_style_gen.h **** {
 105:Middlewares/LVGL/GUI/lvgl/src/extra/layouts/flex/../flex/../../../core/lv_obj_style_gen.h ****     lv_style_value_t v = lv_obj_get_style_prop(obj, part, LV_STYLE_PAD_LEFT);
 106:Middlewares/LVGL/GUI/lvgl/src/extra/layouts/flex/../flex/../../../core/lv_obj_style_gen.h ****     return (lv_coord_t)v.num;
 107:Middlewares/LVGL/GUI/lvgl/src/extra/layouts/flex/../flex/../../../core/lv_obj_style_gen.h **** }
 108:Middlewares/LVGL/GUI/lvgl/src/extra/layouts/flex/../flex/../../../core/lv_obj_style_gen.h **** 
 109:Middlewares/LVGL/GUI/lvgl/src/extra/layouts/flex/../flex/../../../core/lv_obj_style_gen.h **** static inline lv_coord_t lv_obj_get_style_pad_right(const struct _lv_obj_t * obj, uint32_t part)
 110:Middlewares/LVGL/GUI/lvgl/src/extra/layouts/flex/../flex/../../../core/lv_obj_style_gen.h **** {
 111:Middlewares/LVGL/GUI/lvgl/src/extra/layouts/flex/../flex/../../../core/lv_obj_style_gen.h ****     lv_style_value_t v = lv_obj_get_style_prop(obj, part, LV_STYLE_PAD_RIGHT);
 112:Middlewares/LVGL/GUI/lvgl/src/extra/layouts/flex/../flex/../../../core/lv_obj_style_gen.h ****     return (lv_coord_t)v.num;
 113:Middlewares/LVGL/GUI/lvgl/src/extra/layouts/flex/../flex/../../../core/lv_obj_style_gen.h **** }
 114:Middlewares/LVGL/GUI/lvgl/src/extra/layouts/flex/../flex/../../../core/lv_obj_style_gen.h **** 
 115:Middlewares/LVGL/GUI/lvgl/src/extra/layouts/flex/../flex/../../../core/lv_obj_style_gen.h **** static inline lv_coord_t lv_obj_get_style_pad_row(const struct _lv_obj_t * obj, uint32_t part)
 116:Middlewares/LVGL/GUI/lvgl/src/extra/layouts/flex/../flex/../../../core/lv_obj_style_gen.h **** {
 117:Middlewares/LVGL/GUI/lvgl/src/extra/layouts/flex/../flex/../../../core/lv_obj_style_gen.h ****     lv_style_value_t v = lv_obj_get_style_prop(obj, part, LV_STYLE_PAD_ROW);
 118:Middlewares/LVGL/GUI/lvgl/src/extra/layouts/flex/../flex/../../../core/lv_obj_style_gen.h ****     return (lv_coord_t)v.num;
 119:Middlewares/LVGL/GUI/lvgl/src/extra/layouts/flex/../flex/../../../core/lv_obj_style_gen.h **** }
 120:Middlewares/LVGL/GUI/lvgl/src/extra/layouts/flex/../flex/../../../core/lv_obj_style_gen.h **** 
 121:Middlewares/LVGL/GUI/lvgl/src/extra/layouts/flex/../flex/../../../core/lv_obj_style_gen.h **** static inline lv_coord_t lv_obj_get_style_pad_column(const struct _lv_obj_t * obj, uint32_t part)
 122:Middlewares/LVGL/GUI/lvgl/src/extra/layouts/flex/../flex/../../../core/lv_obj_style_gen.h **** {
 123:Middlewares/LVGL/GUI/lvgl/src/extra/layouts/flex/../flex/../../../core/lv_obj_style_gen.h ****     lv_style_value_t v = lv_obj_get_style_prop(obj, part, LV_STYLE_PAD_COLUMN);
 124:Middlewares/LVGL/GUI/lvgl/src/extra/layouts/flex/../flex/../../../core/lv_obj_style_gen.h ****     return (lv_coord_t)v.num;
 125:Middlewares/LVGL/GUI/lvgl/src/extra/layouts/flex/../flex/../../../core/lv_obj_style_gen.h **** }
 126:Middlewares/LVGL/GUI/lvgl/src/extra/layouts/flex/../flex/../../../core/lv_obj_style_gen.h **** 
 127:Middlewares/LVGL/GUI/lvgl/src/extra/layouts/flex/../flex/../../../core/lv_obj_style_gen.h **** static inline lv_color_t lv_obj_get_style_bg_color(const struct _lv_obj_t * obj, uint32_t part)
 128:Middlewares/LVGL/GUI/lvgl/src/extra/layouts/flex/../flex/../../../core/lv_obj_style_gen.h **** {
 129:Middlewares/LVGL/GUI/lvgl/src/extra/layouts/flex/../flex/../../../core/lv_obj_style_gen.h ****     lv_style_value_t v = lv_obj_get_style_prop(obj, part, LV_STYLE_BG_COLOR);
 130:Middlewares/LVGL/GUI/lvgl/src/extra/layouts/flex/../flex/../../../core/lv_obj_style_gen.h ****     return v.color;
 131:Middlewares/LVGL/GUI/lvgl/src/extra/layouts/flex/../flex/../../../core/lv_obj_style_gen.h **** }
 132:Middlewares/LVGL/GUI/lvgl/src/extra/layouts/flex/../flex/../../../core/lv_obj_style_gen.h **** 
 133:Middlewares/LVGL/GUI/lvgl/src/extra/layouts/flex/../flex/../../../core/lv_obj_style_gen.h **** static inline lv_color_t lv_obj_get_style_bg_color_filtered(const struct _lv_obj_t * obj, uint32_t 
 134:Middlewares/LVGL/GUI/lvgl/src/extra/layouts/flex/../flex/../../../core/lv_obj_style_gen.h **** {
 135:Middlewares/LVGL/GUI/lvgl/src/extra/layouts/flex/../flex/../../../core/lv_obj_style_gen.h ****     lv_style_value_t v = lv_obj_get_style_prop(obj, part, LV_STYLE_BG_COLOR_FILTERED);
 136:Middlewares/LVGL/GUI/lvgl/src/extra/layouts/flex/../flex/../../../core/lv_obj_style_gen.h ****     return v.color;
 137:Middlewares/LVGL/GUI/lvgl/src/extra/layouts/flex/../flex/../../../core/lv_obj_style_gen.h **** }
 138:Middlewares/LVGL/GUI/lvgl/src/extra/layouts/flex/../flex/../../../core/lv_obj_style_gen.h **** 
 139:Middlewares/LVGL/GUI/lvgl/src/extra/layouts/flex/../flex/../../../core/lv_obj_style_gen.h **** static inline lv_opa_t lv_obj_get_style_bg_opa(const struct _lv_obj_t * obj, uint32_t part)
 140:Middlewares/LVGL/GUI/lvgl/src/extra/layouts/flex/../flex/../../../core/lv_obj_style_gen.h **** {
ARM GAS  C:\Users\ADMINI~1\AppData\Local\Temp\ccyi9XNv.s 			page 45


 141:Middlewares/LVGL/GUI/lvgl/src/extra/layouts/flex/../flex/../../../core/lv_obj_style_gen.h ****     lv_style_value_t v = lv_obj_get_style_prop(obj, part, LV_STYLE_BG_OPA);
 142:Middlewares/LVGL/GUI/lvgl/src/extra/layouts/flex/../flex/../../../core/lv_obj_style_gen.h ****     return (lv_opa_t)v.num;
 143:Middlewares/LVGL/GUI/lvgl/src/extra/layouts/flex/../flex/../../../core/lv_obj_style_gen.h **** }
 144:Middlewares/LVGL/GUI/lvgl/src/extra/layouts/flex/../flex/../../../core/lv_obj_style_gen.h **** 
 145:Middlewares/LVGL/GUI/lvgl/src/extra/layouts/flex/../flex/../../../core/lv_obj_style_gen.h **** static inline lv_color_t lv_obj_get_style_bg_grad_color(const struct _lv_obj_t * obj, uint32_t part
 146:Middlewares/LVGL/GUI/lvgl/src/extra/layouts/flex/../flex/../../../core/lv_obj_style_gen.h **** {
 147:Middlewares/LVGL/GUI/lvgl/src/extra/layouts/flex/../flex/../../../core/lv_obj_style_gen.h ****     lv_style_value_t v = lv_obj_get_style_prop(obj, part, LV_STYLE_BG_GRAD_COLOR);
 148:Middlewares/LVGL/GUI/lvgl/src/extra/layouts/flex/../flex/../../../core/lv_obj_style_gen.h ****     return v.color;
 149:Middlewares/LVGL/GUI/lvgl/src/extra/layouts/flex/../flex/../../../core/lv_obj_style_gen.h **** }
 150:Middlewares/LVGL/GUI/lvgl/src/extra/layouts/flex/../flex/../../../core/lv_obj_style_gen.h **** 
 151:Middlewares/LVGL/GUI/lvgl/src/extra/layouts/flex/../flex/../../../core/lv_obj_style_gen.h **** static inline lv_color_t lv_obj_get_style_bg_grad_color_filtered(const struct _lv_obj_t * obj, uint
 152:Middlewares/LVGL/GUI/lvgl/src/extra/layouts/flex/../flex/../../../core/lv_obj_style_gen.h **** {
 153:Middlewares/LVGL/GUI/lvgl/src/extra/layouts/flex/../flex/../../../core/lv_obj_style_gen.h ****     lv_style_value_t v = lv_obj_get_style_prop(obj, part, LV_STYLE_BG_GRAD_COLOR_FILTERED);
 154:Middlewares/LVGL/GUI/lvgl/src/extra/layouts/flex/../flex/../../../core/lv_obj_style_gen.h ****     return v.color;
 155:Middlewares/LVGL/GUI/lvgl/src/extra/layouts/flex/../flex/../../../core/lv_obj_style_gen.h **** }
 156:Middlewares/LVGL/GUI/lvgl/src/extra/layouts/flex/../flex/../../../core/lv_obj_style_gen.h **** 
 157:Middlewares/LVGL/GUI/lvgl/src/extra/layouts/flex/../flex/../../../core/lv_obj_style_gen.h **** static inline lv_grad_dir_t lv_obj_get_style_bg_grad_dir(const struct _lv_obj_t * obj, uint32_t par
 158:Middlewares/LVGL/GUI/lvgl/src/extra/layouts/flex/../flex/../../../core/lv_obj_style_gen.h **** {
 159:Middlewares/LVGL/GUI/lvgl/src/extra/layouts/flex/../flex/../../../core/lv_obj_style_gen.h ****     lv_style_value_t v = lv_obj_get_style_prop(obj, part, LV_STYLE_BG_GRAD_DIR);
 160:Middlewares/LVGL/GUI/lvgl/src/extra/layouts/flex/../flex/../../../core/lv_obj_style_gen.h ****     return (lv_grad_dir_t)v.num;
 161:Middlewares/LVGL/GUI/lvgl/src/extra/layouts/flex/../flex/../../../core/lv_obj_style_gen.h **** }
 162:Middlewares/LVGL/GUI/lvgl/src/extra/layouts/flex/../flex/../../../core/lv_obj_style_gen.h **** 
 163:Middlewares/LVGL/GUI/lvgl/src/extra/layouts/flex/../flex/../../../core/lv_obj_style_gen.h **** static inline lv_coord_t lv_obj_get_style_bg_main_stop(const struct _lv_obj_t * obj, uint32_t part)
 164:Middlewares/LVGL/GUI/lvgl/src/extra/layouts/flex/../flex/../../../core/lv_obj_style_gen.h **** {
 165:Middlewares/LVGL/GUI/lvgl/src/extra/layouts/flex/../flex/../../../core/lv_obj_style_gen.h ****     lv_style_value_t v = lv_obj_get_style_prop(obj, part, LV_STYLE_BG_MAIN_STOP);
 166:Middlewares/LVGL/GUI/lvgl/src/extra/layouts/flex/../flex/../../../core/lv_obj_style_gen.h ****     return (lv_coord_t)v.num;
 167:Middlewares/LVGL/GUI/lvgl/src/extra/layouts/flex/../flex/../../../core/lv_obj_style_gen.h **** }
 168:Middlewares/LVGL/GUI/lvgl/src/extra/layouts/flex/../flex/../../../core/lv_obj_style_gen.h **** 
 169:Middlewares/LVGL/GUI/lvgl/src/extra/layouts/flex/../flex/../../../core/lv_obj_style_gen.h **** static inline lv_coord_t lv_obj_get_style_bg_grad_stop(const struct _lv_obj_t * obj, uint32_t part)
 170:Middlewares/LVGL/GUI/lvgl/src/extra/layouts/flex/../flex/../../../core/lv_obj_style_gen.h **** {
 171:Middlewares/LVGL/GUI/lvgl/src/extra/layouts/flex/../flex/../../../core/lv_obj_style_gen.h ****     lv_style_value_t v = lv_obj_get_style_prop(obj, part, LV_STYLE_BG_GRAD_STOP);
 172:Middlewares/LVGL/GUI/lvgl/src/extra/layouts/flex/../flex/../../../core/lv_obj_style_gen.h ****     return (lv_coord_t)v.num;
 173:Middlewares/LVGL/GUI/lvgl/src/extra/layouts/flex/../flex/../../../core/lv_obj_style_gen.h **** }
 174:Middlewares/LVGL/GUI/lvgl/src/extra/layouts/flex/../flex/../../../core/lv_obj_style_gen.h **** 
 175:Middlewares/LVGL/GUI/lvgl/src/extra/layouts/flex/../flex/../../../core/lv_obj_style_gen.h **** static inline const lv_grad_dsc_t * lv_obj_get_style_bg_grad(const struct _lv_obj_t * obj, uint32_t
 176:Middlewares/LVGL/GUI/lvgl/src/extra/layouts/flex/../flex/../../../core/lv_obj_style_gen.h **** {
 177:Middlewares/LVGL/GUI/lvgl/src/extra/layouts/flex/../flex/../../../core/lv_obj_style_gen.h ****     lv_style_value_t v = lv_obj_get_style_prop(obj, part, LV_STYLE_BG_GRAD);
 178:Middlewares/LVGL/GUI/lvgl/src/extra/layouts/flex/../flex/../../../core/lv_obj_style_gen.h ****     return (const lv_grad_dsc_t *)v.ptr;
 179:Middlewares/LVGL/GUI/lvgl/src/extra/layouts/flex/../flex/../../../core/lv_obj_style_gen.h **** }
 180:Middlewares/LVGL/GUI/lvgl/src/extra/layouts/flex/../flex/../../../core/lv_obj_style_gen.h **** 
 181:Middlewares/LVGL/GUI/lvgl/src/extra/layouts/flex/../flex/../../../core/lv_obj_style_gen.h **** static inline lv_dither_mode_t lv_obj_get_style_bg_dither_mode(const struct _lv_obj_t * obj, uint32
 182:Middlewares/LVGL/GUI/lvgl/src/extra/layouts/flex/../flex/../../../core/lv_obj_style_gen.h **** {
 183:Middlewares/LVGL/GUI/lvgl/src/extra/layouts/flex/../flex/../../../core/lv_obj_style_gen.h ****     lv_style_value_t v = lv_obj_get_style_prop(obj, part, LV_STYLE_BG_DITHER_MODE);
 184:Middlewares/LVGL/GUI/lvgl/src/extra/layouts/flex/../flex/../../../core/lv_obj_style_gen.h ****     return (lv_dither_mode_t)v.num;
 185:Middlewares/LVGL/GUI/lvgl/src/extra/layouts/flex/../flex/../../../core/lv_obj_style_gen.h **** }
 186:Middlewares/LVGL/GUI/lvgl/src/extra/layouts/flex/../flex/../../../core/lv_obj_style_gen.h **** 
 187:Middlewares/LVGL/GUI/lvgl/src/extra/layouts/flex/../flex/../../../core/lv_obj_style_gen.h **** static inline const void * lv_obj_get_style_bg_img_src(const struct _lv_obj_t * obj, uint32_t part)
 188:Middlewares/LVGL/GUI/lvgl/src/extra/layouts/flex/../flex/../../../core/lv_obj_style_gen.h **** {
 189:Middlewares/LVGL/GUI/lvgl/src/extra/layouts/flex/../flex/../../../core/lv_obj_style_gen.h ****     lv_style_value_t v = lv_obj_get_style_prop(obj, part, LV_STYLE_BG_IMG_SRC);
 190:Middlewares/LVGL/GUI/lvgl/src/extra/layouts/flex/../flex/../../../core/lv_obj_style_gen.h ****     return (const void *)v.ptr;
 191:Middlewares/LVGL/GUI/lvgl/src/extra/layouts/flex/../flex/../../../core/lv_obj_style_gen.h **** }
 192:Middlewares/LVGL/GUI/lvgl/src/extra/layouts/flex/../flex/../../../core/lv_obj_style_gen.h **** 
 193:Middlewares/LVGL/GUI/lvgl/src/extra/layouts/flex/../flex/../../../core/lv_obj_style_gen.h **** static inline lv_opa_t lv_obj_get_style_bg_img_opa(const struct _lv_obj_t * obj, uint32_t part)
 194:Middlewares/LVGL/GUI/lvgl/src/extra/layouts/flex/../flex/../../../core/lv_obj_style_gen.h **** {
 195:Middlewares/LVGL/GUI/lvgl/src/extra/layouts/flex/../flex/../../../core/lv_obj_style_gen.h ****     lv_style_value_t v = lv_obj_get_style_prop(obj, part, LV_STYLE_BG_IMG_OPA);
 196:Middlewares/LVGL/GUI/lvgl/src/extra/layouts/flex/../flex/../../../core/lv_obj_style_gen.h ****     return (lv_opa_t)v.num;
 197:Middlewares/LVGL/GUI/lvgl/src/extra/layouts/flex/../flex/../../../core/lv_obj_style_gen.h **** }
ARM GAS  C:\Users\ADMINI~1\AppData\Local\Temp\ccyi9XNv.s 			page 46


 198:Middlewares/LVGL/GUI/lvgl/src/extra/layouts/flex/../flex/../../../core/lv_obj_style_gen.h **** 
 199:Middlewares/LVGL/GUI/lvgl/src/extra/layouts/flex/../flex/../../../core/lv_obj_style_gen.h **** static inline lv_color_t lv_obj_get_style_bg_img_recolor(const struct _lv_obj_t * obj, uint32_t par
 200:Middlewares/LVGL/GUI/lvgl/src/extra/layouts/flex/../flex/../../../core/lv_obj_style_gen.h **** {
 201:Middlewares/LVGL/GUI/lvgl/src/extra/layouts/flex/../flex/../../../core/lv_obj_style_gen.h ****     lv_style_value_t v = lv_obj_get_style_prop(obj, part, LV_STYLE_BG_IMG_RECOLOR);
 202:Middlewares/LVGL/GUI/lvgl/src/extra/layouts/flex/../flex/../../../core/lv_obj_style_gen.h ****     return v.color;
 203:Middlewares/LVGL/GUI/lvgl/src/extra/layouts/flex/../flex/../../../core/lv_obj_style_gen.h **** }
 204:Middlewares/LVGL/GUI/lvgl/src/extra/layouts/flex/../flex/../../../core/lv_obj_style_gen.h **** 
 205:Middlewares/LVGL/GUI/lvgl/src/extra/layouts/flex/../flex/../../../core/lv_obj_style_gen.h **** static inline lv_color_t lv_obj_get_style_bg_img_recolor_filtered(const struct _lv_obj_t * obj, uin
 206:Middlewares/LVGL/GUI/lvgl/src/extra/layouts/flex/../flex/../../../core/lv_obj_style_gen.h **** {
 207:Middlewares/LVGL/GUI/lvgl/src/extra/layouts/flex/../flex/../../../core/lv_obj_style_gen.h ****     lv_style_value_t v = lv_obj_get_style_prop(obj, part, LV_STYLE_BG_IMG_RECOLOR_FILTERED);
 208:Middlewares/LVGL/GUI/lvgl/src/extra/layouts/flex/../flex/../../../core/lv_obj_style_gen.h ****     return v.color;
 209:Middlewares/LVGL/GUI/lvgl/src/extra/layouts/flex/../flex/../../../core/lv_obj_style_gen.h **** }
 210:Middlewares/LVGL/GUI/lvgl/src/extra/layouts/flex/../flex/../../../core/lv_obj_style_gen.h **** 
 211:Middlewares/LVGL/GUI/lvgl/src/extra/layouts/flex/../flex/../../../core/lv_obj_style_gen.h **** static inline lv_opa_t lv_obj_get_style_bg_img_recolor_opa(const struct _lv_obj_t * obj, uint32_t p
 212:Middlewares/LVGL/GUI/lvgl/src/extra/layouts/flex/../flex/../../../core/lv_obj_style_gen.h **** {
 213:Middlewares/LVGL/GUI/lvgl/src/extra/layouts/flex/../flex/../../../core/lv_obj_style_gen.h ****     lv_style_value_t v = lv_obj_get_style_prop(obj, part, LV_STYLE_BG_IMG_RECOLOR_OPA);
 214:Middlewares/LVGL/GUI/lvgl/src/extra/layouts/flex/../flex/../../../core/lv_obj_style_gen.h ****     return (lv_opa_t)v.num;
 215:Middlewares/LVGL/GUI/lvgl/src/extra/layouts/flex/../flex/../../../core/lv_obj_style_gen.h **** }
 216:Middlewares/LVGL/GUI/lvgl/src/extra/layouts/flex/../flex/../../../core/lv_obj_style_gen.h **** 
 217:Middlewares/LVGL/GUI/lvgl/src/extra/layouts/flex/../flex/../../../core/lv_obj_style_gen.h **** static inline bool lv_obj_get_style_bg_img_tiled(const struct _lv_obj_t * obj, uint32_t part)
 218:Middlewares/LVGL/GUI/lvgl/src/extra/layouts/flex/../flex/../../../core/lv_obj_style_gen.h **** {
 219:Middlewares/LVGL/GUI/lvgl/src/extra/layouts/flex/../flex/../../../core/lv_obj_style_gen.h ****     lv_style_value_t v = lv_obj_get_style_prop(obj, part, LV_STYLE_BG_IMG_TILED);
 220:Middlewares/LVGL/GUI/lvgl/src/extra/layouts/flex/../flex/../../../core/lv_obj_style_gen.h ****     return (bool)v.num;
 221:Middlewares/LVGL/GUI/lvgl/src/extra/layouts/flex/../flex/../../../core/lv_obj_style_gen.h **** }
 222:Middlewares/LVGL/GUI/lvgl/src/extra/layouts/flex/../flex/../../../core/lv_obj_style_gen.h **** 
 223:Middlewares/LVGL/GUI/lvgl/src/extra/layouts/flex/../flex/../../../core/lv_obj_style_gen.h **** static inline lv_color_t lv_obj_get_style_border_color(const struct _lv_obj_t * obj, uint32_t part)
 224:Middlewares/LVGL/GUI/lvgl/src/extra/layouts/flex/../flex/../../../core/lv_obj_style_gen.h **** {
 225:Middlewares/LVGL/GUI/lvgl/src/extra/layouts/flex/../flex/../../../core/lv_obj_style_gen.h ****     lv_style_value_t v = lv_obj_get_style_prop(obj, part, LV_STYLE_BORDER_COLOR);
 226:Middlewares/LVGL/GUI/lvgl/src/extra/layouts/flex/../flex/../../../core/lv_obj_style_gen.h ****     return v.color;
 227:Middlewares/LVGL/GUI/lvgl/src/extra/layouts/flex/../flex/../../../core/lv_obj_style_gen.h **** }
 228:Middlewares/LVGL/GUI/lvgl/src/extra/layouts/flex/../flex/../../../core/lv_obj_style_gen.h **** 
 229:Middlewares/LVGL/GUI/lvgl/src/extra/layouts/flex/../flex/../../../core/lv_obj_style_gen.h **** static inline lv_color_t lv_obj_get_style_border_color_filtered(const struct _lv_obj_t * obj, uint3
 230:Middlewares/LVGL/GUI/lvgl/src/extra/layouts/flex/../flex/../../../core/lv_obj_style_gen.h **** {
 231:Middlewares/LVGL/GUI/lvgl/src/extra/layouts/flex/../flex/../../../core/lv_obj_style_gen.h ****     lv_style_value_t v = lv_obj_get_style_prop(obj, part, LV_STYLE_BORDER_COLOR_FILTERED);
 232:Middlewares/LVGL/GUI/lvgl/src/extra/layouts/flex/../flex/../../../core/lv_obj_style_gen.h ****     return v.color;
 233:Middlewares/LVGL/GUI/lvgl/src/extra/layouts/flex/../flex/../../../core/lv_obj_style_gen.h **** }
 234:Middlewares/LVGL/GUI/lvgl/src/extra/layouts/flex/../flex/../../../core/lv_obj_style_gen.h **** 
 235:Middlewares/LVGL/GUI/lvgl/src/extra/layouts/flex/../flex/../../../core/lv_obj_style_gen.h **** static inline lv_opa_t lv_obj_get_style_border_opa(const struct _lv_obj_t * obj, uint32_t part)
 236:Middlewares/LVGL/GUI/lvgl/src/extra/layouts/flex/../flex/../../../core/lv_obj_style_gen.h **** {
 237:Middlewares/LVGL/GUI/lvgl/src/extra/layouts/flex/../flex/../../../core/lv_obj_style_gen.h ****     lv_style_value_t v = lv_obj_get_style_prop(obj, part, LV_STYLE_BORDER_OPA);
 238:Middlewares/LVGL/GUI/lvgl/src/extra/layouts/flex/../flex/../../../core/lv_obj_style_gen.h ****     return (lv_opa_t)v.num;
 239:Middlewares/LVGL/GUI/lvgl/src/extra/layouts/flex/../flex/../../../core/lv_obj_style_gen.h **** }
 240:Middlewares/LVGL/GUI/lvgl/src/extra/layouts/flex/../flex/../../../core/lv_obj_style_gen.h **** 
 241:Middlewares/LVGL/GUI/lvgl/src/extra/layouts/flex/../flex/../../../core/lv_obj_style_gen.h **** static inline lv_coord_t lv_obj_get_style_border_width(const struct _lv_obj_t * obj, uint32_t part)
 242:Middlewares/LVGL/GUI/lvgl/src/extra/layouts/flex/../flex/../../../core/lv_obj_style_gen.h **** {
 243:Middlewares/LVGL/GUI/lvgl/src/extra/layouts/flex/../flex/../../../core/lv_obj_style_gen.h ****     lv_style_value_t v = lv_obj_get_style_prop(obj, part, LV_STYLE_BORDER_WIDTH);
 244:Middlewares/LVGL/GUI/lvgl/src/extra/layouts/flex/../flex/../../../core/lv_obj_style_gen.h ****     return (lv_coord_t)v.num;
 245:Middlewares/LVGL/GUI/lvgl/src/extra/layouts/flex/../flex/../../../core/lv_obj_style_gen.h **** }
 246:Middlewares/LVGL/GUI/lvgl/src/extra/layouts/flex/../flex/../../../core/lv_obj_style_gen.h **** 
 247:Middlewares/LVGL/GUI/lvgl/src/extra/layouts/flex/../flex/../../../core/lv_obj_style_gen.h **** static inline lv_border_side_t lv_obj_get_style_border_side(const struct _lv_obj_t * obj, uint32_t 
 248:Middlewares/LVGL/GUI/lvgl/src/extra/layouts/flex/../flex/../../../core/lv_obj_style_gen.h **** {
 249:Middlewares/LVGL/GUI/lvgl/src/extra/layouts/flex/../flex/../../../core/lv_obj_style_gen.h ****     lv_style_value_t v = lv_obj_get_style_prop(obj, part, LV_STYLE_BORDER_SIDE);
 250:Middlewares/LVGL/GUI/lvgl/src/extra/layouts/flex/../flex/../../../core/lv_obj_style_gen.h ****     return (lv_border_side_t)v.num;
 251:Middlewares/LVGL/GUI/lvgl/src/extra/layouts/flex/../flex/../../../core/lv_obj_style_gen.h **** }
 252:Middlewares/LVGL/GUI/lvgl/src/extra/layouts/flex/../flex/../../../core/lv_obj_style_gen.h **** 
 253:Middlewares/LVGL/GUI/lvgl/src/extra/layouts/flex/../flex/../../../core/lv_obj_style_gen.h **** static inline bool lv_obj_get_style_border_post(const struct _lv_obj_t * obj, uint32_t part)
 254:Middlewares/LVGL/GUI/lvgl/src/extra/layouts/flex/../flex/../../../core/lv_obj_style_gen.h **** {
ARM GAS  C:\Users\ADMINI~1\AppData\Local\Temp\ccyi9XNv.s 			page 47


 255:Middlewares/LVGL/GUI/lvgl/src/extra/layouts/flex/../flex/../../../core/lv_obj_style_gen.h ****     lv_style_value_t v = lv_obj_get_style_prop(obj, part, LV_STYLE_BORDER_POST);
 256:Middlewares/LVGL/GUI/lvgl/src/extra/layouts/flex/../flex/../../../core/lv_obj_style_gen.h ****     return (bool)v.num;
 257:Middlewares/LVGL/GUI/lvgl/src/extra/layouts/flex/../flex/../../../core/lv_obj_style_gen.h **** }
 258:Middlewares/LVGL/GUI/lvgl/src/extra/layouts/flex/../flex/../../../core/lv_obj_style_gen.h **** 
 259:Middlewares/LVGL/GUI/lvgl/src/extra/layouts/flex/../flex/../../../core/lv_obj_style_gen.h **** static inline lv_coord_t lv_obj_get_style_outline_width(const struct _lv_obj_t * obj, uint32_t part
 260:Middlewares/LVGL/GUI/lvgl/src/extra/layouts/flex/../flex/../../../core/lv_obj_style_gen.h **** {
 261:Middlewares/LVGL/GUI/lvgl/src/extra/layouts/flex/../flex/../../../core/lv_obj_style_gen.h ****     lv_style_value_t v = lv_obj_get_style_prop(obj, part, LV_STYLE_OUTLINE_WIDTH);
 262:Middlewares/LVGL/GUI/lvgl/src/extra/layouts/flex/../flex/../../../core/lv_obj_style_gen.h ****     return (lv_coord_t)v.num;
 263:Middlewares/LVGL/GUI/lvgl/src/extra/layouts/flex/../flex/../../../core/lv_obj_style_gen.h **** }
 264:Middlewares/LVGL/GUI/lvgl/src/extra/layouts/flex/../flex/../../../core/lv_obj_style_gen.h **** 
 265:Middlewares/LVGL/GUI/lvgl/src/extra/layouts/flex/../flex/../../../core/lv_obj_style_gen.h **** static inline lv_color_t lv_obj_get_style_outline_color(const struct _lv_obj_t * obj, uint32_t part
 266:Middlewares/LVGL/GUI/lvgl/src/extra/layouts/flex/../flex/../../../core/lv_obj_style_gen.h **** {
 267:Middlewares/LVGL/GUI/lvgl/src/extra/layouts/flex/../flex/../../../core/lv_obj_style_gen.h ****     lv_style_value_t v = lv_obj_get_style_prop(obj, part, LV_STYLE_OUTLINE_COLOR);
 268:Middlewares/LVGL/GUI/lvgl/src/extra/layouts/flex/../flex/../../../core/lv_obj_style_gen.h ****     return v.color;
 269:Middlewares/LVGL/GUI/lvgl/src/extra/layouts/flex/../flex/../../../core/lv_obj_style_gen.h **** }
 270:Middlewares/LVGL/GUI/lvgl/src/extra/layouts/flex/../flex/../../../core/lv_obj_style_gen.h **** 
 271:Middlewares/LVGL/GUI/lvgl/src/extra/layouts/flex/../flex/../../../core/lv_obj_style_gen.h **** static inline lv_color_t lv_obj_get_style_outline_color_filtered(const struct _lv_obj_t * obj, uint
 272:Middlewares/LVGL/GUI/lvgl/src/extra/layouts/flex/../flex/../../../core/lv_obj_style_gen.h **** {
 273:Middlewares/LVGL/GUI/lvgl/src/extra/layouts/flex/../flex/../../../core/lv_obj_style_gen.h ****     lv_style_value_t v = lv_obj_get_style_prop(obj, part, LV_STYLE_OUTLINE_COLOR_FILTERED);
 274:Middlewares/LVGL/GUI/lvgl/src/extra/layouts/flex/../flex/../../../core/lv_obj_style_gen.h ****     return v.color;
 275:Middlewares/LVGL/GUI/lvgl/src/extra/layouts/flex/../flex/../../../core/lv_obj_style_gen.h **** }
 276:Middlewares/LVGL/GUI/lvgl/src/extra/layouts/flex/../flex/../../../core/lv_obj_style_gen.h **** 
 277:Middlewares/LVGL/GUI/lvgl/src/extra/layouts/flex/../flex/../../../core/lv_obj_style_gen.h **** static inline lv_opa_t lv_obj_get_style_outline_opa(const struct _lv_obj_t * obj, uint32_t part)
 278:Middlewares/LVGL/GUI/lvgl/src/extra/layouts/flex/../flex/../../../core/lv_obj_style_gen.h **** {
 279:Middlewares/LVGL/GUI/lvgl/src/extra/layouts/flex/../flex/../../../core/lv_obj_style_gen.h ****     lv_style_value_t v = lv_obj_get_style_prop(obj, part, LV_STYLE_OUTLINE_OPA);
 280:Middlewares/LVGL/GUI/lvgl/src/extra/layouts/flex/../flex/../../../core/lv_obj_style_gen.h ****     return (lv_opa_t)v.num;
 281:Middlewares/LVGL/GUI/lvgl/src/extra/layouts/flex/../flex/../../../core/lv_obj_style_gen.h **** }
 282:Middlewares/LVGL/GUI/lvgl/src/extra/layouts/flex/../flex/../../../core/lv_obj_style_gen.h **** 
 283:Middlewares/LVGL/GUI/lvgl/src/extra/layouts/flex/../flex/../../../core/lv_obj_style_gen.h **** static inline lv_coord_t lv_obj_get_style_outline_pad(const struct _lv_obj_t * obj, uint32_t part)
 284:Middlewares/LVGL/GUI/lvgl/src/extra/layouts/flex/../flex/../../../core/lv_obj_style_gen.h **** {
 285:Middlewares/LVGL/GUI/lvgl/src/extra/layouts/flex/../flex/../../../core/lv_obj_style_gen.h ****     lv_style_value_t v = lv_obj_get_style_prop(obj, part, LV_STYLE_OUTLINE_PAD);
 286:Middlewares/LVGL/GUI/lvgl/src/extra/layouts/flex/../flex/../../../core/lv_obj_style_gen.h ****     return (lv_coord_t)v.num;
 287:Middlewares/LVGL/GUI/lvgl/src/extra/layouts/flex/../flex/../../../core/lv_obj_style_gen.h **** }
 288:Middlewares/LVGL/GUI/lvgl/src/extra/layouts/flex/../flex/../../../core/lv_obj_style_gen.h **** 
 289:Middlewares/LVGL/GUI/lvgl/src/extra/layouts/flex/../flex/../../../core/lv_obj_style_gen.h **** static inline lv_coord_t lv_obj_get_style_shadow_width(const struct _lv_obj_t * obj, uint32_t part)
 290:Middlewares/LVGL/GUI/lvgl/src/extra/layouts/flex/../flex/../../../core/lv_obj_style_gen.h **** {
 291:Middlewares/LVGL/GUI/lvgl/src/extra/layouts/flex/../flex/../../../core/lv_obj_style_gen.h ****     lv_style_value_t v = lv_obj_get_style_prop(obj, part, LV_STYLE_SHADOW_WIDTH);
 292:Middlewares/LVGL/GUI/lvgl/src/extra/layouts/flex/../flex/../../../core/lv_obj_style_gen.h ****     return (lv_coord_t)v.num;
 293:Middlewares/LVGL/GUI/lvgl/src/extra/layouts/flex/../flex/../../../core/lv_obj_style_gen.h **** }
 294:Middlewares/LVGL/GUI/lvgl/src/extra/layouts/flex/../flex/../../../core/lv_obj_style_gen.h **** 
 295:Middlewares/LVGL/GUI/lvgl/src/extra/layouts/flex/../flex/../../../core/lv_obj_style_gen.h **** static inline lv_coord_t lv_obj_get_style_shadow_ofs_x(const struct _lv_obj_t * obj, uint32_t part)
 296:Middlewares/LVGL/GUI/lvgl/src/extra/layouts/flex/../flex/../../../core/lv_obj_style_gen.h **** {
 297:Middlewares/LVGL/GUI/lvgl/src/extra/layouts/flex/../flex/../../../core/lv_obj_style_gen.h ****     lv_style_value_t v = lv_obj_get_style_prop(obj, part, LV_STYLE_SHADOW_OFS_X);
 298:Middlewares/LVGL/GUI/lvgl/src/extra/layouts/flex/../flex/../../../core/lv_obj_style_gen.h ****     return (lv_coord_t)v.num;
 299:Middlewares/LVGL/GUI/lvgl/src/extra/layouts/flex/../flex/../../../core/lv_obj_style_gen.h **** }
 300:Middlewares/LVGL/GUI/lvgl/src/extra/layouts/flex/../flex/../../../core/lv_obj_style_gen.h **** 
 301:Middlewares/LVGL/GUI/lvgl/src/extra/layouts/flex/../flex/../../../core/lv_obj_style_gen.h **** static inline lv_coord_t lv_obj_get_style_shadow_ofs_y(const struct _lv_obj_t * obj, uint32_t part)
 302:Middlewares/LVGL/GUI/lvgl/src/extra/layouts/flex/../flex/../../../core/lv_obj_style_gen.h **** {
 303:Middlewares/LVGL/GUI/lvgl/src/extra/layouts/flex/../flex/../../../core/lv_obj_style_gen.h ****     lv_style_value_t v = lv_obj_get_style_prop(obj, part, LV_STYLE_SHADOW_OFS_Y);
 304:Middlewares/LVGL/GUI/lvgl/src/extra/layouts/flex/../flex/../../../core/lv_obj_style_gen.h ****     return (lv_coord_t)v.num;
 305:Middlewares/LVGL/GUI/lvgl/src/extra/layouts/flex/../flex/../../../core/lv_obj_style_gen.h **** }
 306:Middlewares/LVGL/GUI/lvgl/src/extra/layouts/flex/../flex/../../../core/lv_obj_style_gen.h **** 
 307:Middlewares/LVGL/GUI/lvgl/src/extra/layouts/flex/../flex/../../../core/lv_obj_style_gen.h **** static inline lv_coord_t lv_obj_get_style_shadow_spread(const struct _lv_obj_t * obj, uint32_t part
 308:Middlewares/LVGL/GUI/lvgl/src/extra/layouts/flex/../flex/../../../core/lv_obj_style_gen.h **** {
 309:Middlewares/LVGL/GUI/lvgl/src/extra/layouts/flex/../flex/../../../core/lv_obj_style_gen.h ****     lv_style_value_t v = lv_obj_get_style_prop(obj, part, LV_STYLE_SHADOW_SPREAD);
 310:Middlewares/LVGL/GUI/lvgl/src/extra/layouts/flex/../flex/../../../core/lv_obj_style_gen.h ****     return (lv_coord_t)v.num;
 311:Middlewares/LVGL/GUI/lvgl/src/extra/layouts/flex/../flex/../../../core/lv_obj_style_gen.h **** }
ARM GAS  C:\Users\ADMINI~1\AppData\Local\Temp\ccyi9XNv.s 			page 48


 312:Middlewares/LVGL/GUI/lvgl/src/extra/layouts/flex/../flex/../../../core/lv_obj_style_gen.h **** 
 313:Middlewares/LVGL/GUI/lvgl/src/extra/layouts/flex/../flex/../../../core/lv_obj_style_gen.h **** static inline lv_color_t lv_obj_get_style_shadow_color(const struct _lv_obj_t * obj, uint32_t part)
 314:Middlewares/LVGL/GUI/lvgl/src/extra/layouts/flex/../flex/../../../core/lv_obj_style_gen.h **** {
 315:Middlewares/LVGL/GUI/lvgl/src/extra/layouts/flex/../flex/../../../core/lv_obj_style_gen.h ****     lv_style_value_t v = lv_obj_get_style_prop(obj, part, LV_STYLE_SHADOW_COLOR);
 316:Middlewares/LVGL/GUI/lvgl/src/extra/layouts/flex/../flex/../../../core/lv_obj_style_gen.h ****     return v.color;
 317:Middlewares/LVGL/GUI/lvgl/src/extra/layouts/flex/../flex/../../../core/lv_obj_style_gen.h **** }
 318:Middlewares/LVGL/GUI/lvgl/src/extra/layouts/flex/../flex/../../../core/lv_obj_style_gen.h **** 
 319:Middlewares/LVGL/GUI/lvgl/src/extra/layouts/flex/../flex/../../../core/lv_obj_style_gen.h **** static inline lv_color_t lv_obj_get_style_shadow_color_filtered(const struct _lv_obj_t * obj, uint3
 320:Middlewares/LVGL/GUI/lvgl/src/extra/layouts/flex/../flex/../../../core/lv_obj_style_gen.h **** {
 321:Middlewares/LVGL/GUI/lvgl/src/extra/layouts/flex/../flex/../../../core/lv_obj_style_gen.h ****     lv_style_value_t v = lv_obj_get_style_prop(obj, part, LV_STYLE_SHADOW_COLOR_FILTERED);
 322:Middlewares/LVGL/GUI/lvgl/src/extra/layouts/flex/../flex/../../../core/lv_obj_style_gen.h ****     return v.color;
 323:Middlewares/LVGL/GUI/lvgl/src/extra/layouts/flex/../flex/../../../core/lv_obj_style_gen.h **** }
 324:Middlewares/LVGL/GUI/lvgl/src/extra/layouts/flex/../flex/../../../core/lv_obj_style_gen.h **** 
 325:Middlewares/LVGL/GUI/lvgl/src/extra/layouts/flex/../flex/../../../core/lv_obj_style_gen.h **** static inline lv_opa_t lv_obj_get_style_shadow_opa(const struct _lv_obj_t * obj, uint32_t part)
 326:Middlewares/LVGL/GUI/lvgl/src/extra/layouts/flex/../flex/../../../core/lv_obj_style_gen.h **** {
 327:Middlewares/LVGL/GUI/lvgl/src/extra/layouts/flex/../flex/../../../core/lv_obj_style_gen.h ****     lv_style_value_t v = lv_obj_get_style_prop(obj, part, LV_STYLE_SHADOW_OPA);
 328:Middlewares/LVGL/GUI/lvgl/src/extra/layouts/flex/../flex/../../../core/lv_obj_style_gen.h ****     return (lv_opa_t)v.num;
 329:Middlewares/LVGL/GUI/lvgl/src/extra/layouts/flex/../flex/../../../core/lv_obj_style_gen.h **** }
 330:Middlewares/LVGL/GUI/lvgl/src/extra/layouts/flex/../flex/../../../core/lv_obj_style_gen.h **** 
 331:Middlewares/LVGL/GUI/lvgl/src/extra/layouts/flex/../flex/../../../core/lv_obj_style_gen.h **** static inline lv_opa_t lv_obj_get_style_img_opa(const struct _lv_obj_t * obj, uint32_t part)
 332:Middlewares/LVGL/GUI/lvgl/src/extra/layouts/flex/../flex/../../../core/lv_obj_style_gen.h **** {
 333:Middlewares/LVGL/GUI/lvgl/src/extra/layouts/flex/../flex/../../../core/lv_obj_style_gen.h ****     lv_style_value_t v = lv_obj_get_style_prop(obj, part, LV_STYLE_IMG_OPA);
 334:Middlewares/LVGL/GUI/lvgl/src/extra/layouts/flex/../flex/../../../core/lv_obj_style_gen.h ****     return (lv_opa_t)v.num;
 335:Middlewares/LVGL/GUI/lvgl/src/extra/layouts/flex/../flex/../../../core/lv_obj_style_gen.h **** }
 336:Middlewares/LVGL/GUI/lvgl/src/extra/layouts/flex/../flex/../../../core/lv_obj_style_gen.h **** 
 337:Middlewares/LVGL/GUI/lvgl/src/extra/layouts/flex/../flex/../../../core/lv_obj_style_gen.h **** static inline lv_color_t lv_obj_get_style_img_recolor(const struct _lv_obj_t * obj, uint32_t part)
 338:Middlewares/LVGL/GUI/lvgl/src/extra/layouts/flex/../flex/../../../core/lv_obj_style_gen.h **** {
 339:Middlewares/LVGL/GUI/lvgl/src/extra/layouts/flex/../flex/../../../core/lv_obj_style_gen.h ****     lv_style_value_t v = lv_obj_get_style_prop(obj, part, LV_STYLE_IMG_RECOLOR);
 340:Middlewares/LVGL/GUI/lvgl/src/extra/layouts/flex/../flex/../../../core/lv_obj_style_gen.h ****     return v.color;
 341:Middlewares/LVGL/GUI/lvgl/src/extra/layouts/flex/../flex/../../../core/lv_obj_style_gen.h **** }
 342:Middlewares/LVGL/GUI/lvgl/src/extra/layouts/flex/../flex/../../../core/lv_obj_style_gen.h **** 
 343:Middlewares/LVGL/GUI/lvgl/src/extra/layouts/flex/../flex/../../../core/lv_obj_style_gen.h **** static inline lv_color_t lv_obj_get_style_img_recolor_filtered(const struct _lv_obj_t * obj, uint32
 344:Middlewares/LVGL/GUI/lvgl/src/extra/layouts/flex/../flex/../../../core/lv_obj_style_gen.h **** {
 345:Middlewares/LVGL/GUI/lvgl/src/extra/layouts/flex/../flex/../../../core/lv_obj_style_gen.h ****     lv_style_value_t v = lv_obj_get_style_prop(obj, part, LV_STYLE_IMG_RECOLOR_FILTERED);
 346:Middlewares/LVGL/GUI/lvgl/src/extra/layouts/flex/../flex/../../../core/lv_obj_style_gen.h ****     return v.color;
 347:Middlewares/LVGL/GUI/lvgl/src/extra/layouts/flex/../flex/../../../core/lv_obj_style_gen.h **** }
 348:Middlewares/LVGL/GUI/lvgl/src/extra/layouts/flex/../flex/../../../core/lv_obj_style_gen.h **** 
 349:Middlewares/LVGL/GUI/lvgl/src/extra/layouts/flex/../flex/../../../core/lv_obj_style_gen.h **** static inline lv_opa_t lv_obj_get_style_img_recolor_opa(const struct _lv_obj_t * obj, uint32_t part
 350:Middlewares/LVGL/GUI/lvgl/src/extra/layouts/flex/../flex/../../../core/lv_obj_style_gen.h **** {
 351:Middlewares/LVGL/GUI/lvgl/src/extra/layouts/flex/../flex/../../../core/lv_obj_style_gen.h ****     lv_style_value_t v = lv_obj_get_style_prop(obj, part, LV_STYLE_IMG_RECOLOR_OPA);
 352:Middlewares/LVGL/GUI/lvgl/src/extra/layouts/flex/../flex/../../../core/lv_obj_style_gen.h ****     return (lv_opa_t)v.num;
 353:Middlewares/LVGL/GUI/lvgl/src/extra/layouts/flex/../flex/../../../core/lv_obj_style_gen.h **** }
 354:Middlewares/LVGL/GUI/lvgl/src/extra/layouts/flex/../flex/../../../core/lv_obj_style_gen.h **** 
 355:Middlewares/LVGL/GUI/lvgl/src/extra/layouts/flex/../flex/../../../core/lv_obj_style_gen.h **** static inline lv_coord_t lv_obj_get_style_line_width(const struct _lv_obj_t * obj, uint32_t part)
 356:Middlewares/LVGL/GUI/lvgl/src/extra/layouts/flex/../flex/../../../core/lv_obj_style_gen.h **** {
 357:Middlewares/LVGL/GUI/lvgl/src/extra/layouts/flex/../flex/../../../core/lv_obj_style_gen.h ****     lv_style_value_t v = lv_obj_get_style_prop(obj, part, LV_STYLE_LINE_WIDTH);
 358:Middlewares/LVGL/GUI/lvgl/src/extra/layouts/flex/../flex/../../../core/lv_obj_style_gen.h ****     return (lv_coord_t)v.num;
 359:Middlewares/LVGL/GUI/lvgl/src/extra/layouts/flex/../flex/../../../core/lv_obj_style_gen.h **** }
 360:Middlewares/LVGL/GUI/lvgl/src/extra/layouts/flex/../flex/../../../core/lv_obj_style_gen.h **** 
 361:Middlewares/LVGL/GUI/lvgl/src/extra/layouts/flex/../flex/../../../core/lv_obj_style_gen.h **** static inline lv_coord_t lv_obj_get_style_line_dash_width(const struct _lv_obj_t * obj, uint32_t pa
 362:Middlewares/LVGL/GUI/lvgl/src/extra/layouts/flex/../flex/../../../core/lv_obj_style_gen.h **** {
 363:Middlewares/LVGL/GUI/lvgl/src/extra/layouts/flex/../flex/../../../core/lv_obj_style_gen.h ****     lv_style_value_t v = lv_obj_get_style_prop(obj, part, LV_STYLE_LINE_DASH_WIDTH);
 364:Middlewares/LVGL/GUI/lvgl/src/extra/layouts/flex/../flex/../../../core/lv_obj_style_gen.h ****     return (lv_coord_t)v.num;
 365:Middlewares/LVGL/GUI/lvgl/src/extra/layouts/flex/../flex/../../../core/lv_obj_style_gen.h **** }
 366:Middlewares/LVGL/GUI/lvgl/src/extra/layouts/flex/../flex/../../../core/lv_obj_style_gen.h **** 
 367:Middlewares/LVGL/GUI/lvgl/src/extra/layouts/flex/../flex/../../../core/lv_obj_style_gen.h **** static inline lv_coord_t lv_obj_get_style_line_dash_gap(const struct _lv_obj_t * obj, uint32_t part
 368:Middlewares/LVGL/GUI/lvgl/src/extra/layouts/flex/../flex/../../../core/lv_obj_style_gen.h **** {
ARM GAS  C:\Users\ADMINI~1\AppData\Local\Temp\ccyi9XNv.s 			page 49


 369:Middlewares/LVGL/GUI/lvgl/src/extra/layouts/flex/../flex/../../../core/lv_obj_style_gen.h ****     lv_style_value_t v = lv_obj_get_style_prop(obj, part, LV_STYLE_LINE_DASH_GAP);
 370:Middlewares/LVGL/GUI/lvgl/src/extra/layouts/flex/../flex/../../../core/lv_obj_style_gen.h ****     return (lv_coord_t)v.num;
 371:Middlewares/LVGL/GUI/lvgl/src/extra/layouts/flex/../flex/../../../core/lv_obj_style_gen.h **** }
 372:Middlewares/LVGL/GUI/lvgl/src/extra/layouts/flex/../flex/../../../core/lv_obj_style_gen.h **** 
 373:Middlewares/LVGL/GUI/lvgl/src/extra/layouts/flex/../flex/../../../core/lv_obj_style_gen.h **** static inline bool lv_obj_get_style_line_rounded(const struct _lv_obj_t * obj, uint32_t part)
 374:Middlewares/LVGL/GUI/lvgl/src/extra/layouts/flex/../flex/../../../core/lv_obj_style_gen.h **** {
 375:Middlewares/LVGL/GUI/lvgl/src/extra/layouts/flex/../flex/../../../core/lv_obj_style_gen.h ****     lv_style_value_t v = lv_obj_get_style_prop(obj, part, LV_STYLE_LINE_ROUNDED);
 376:Middlewares/LVGL/GUI/lvgl/src/extra/layouts/flex/../flex/../../../core/lv_obj_style_gen.h ****     return (bool)v.num;
 377:Middlewares/LVGL/GUI/lvgl/src/extra/layouts/flex/../flex/../../../core/lv_obj_style_gen.h **** }
 378:Middlewares/LVGL/GUI/lvgl/src/extra/layouts/flex/../flex/../../../core/lv_obj_style_gen.h **** 
 379:Middlewares/LVGL/GUI/lvgl/src/extra/layouts/flex/../flex/../../../core/lv_obj_style_gen.h **** static inline lv_color_t lv_obj_get_style_line_color(const struct _lv_obj_t * obj, uint32_t part)
 380:Middlewares/LVGL/GUI/lvgl/src/extra/layouts/flex/../flex/../../../core/lv_obj_style_gen.h **** {
 381:Middlewares/LVGL/GUI/lvgl/src/extra/layouts/flex/../flex/../../../core/lv_obj_style_gen.h ****     lv_style_value_t v = lv_obj_get_style_prop(obj, part, LV_STYLE_LINE_COLOR);
 382:Middlewares/LVGL/GUI/lvgl/src/extra/layouts/flex/../flex/../../../core/lv_obj_style_gen.h ****     return v.color;
 383:Middlewares/LVGL/GUI/lvgl/src/extra/layouts/flex/../flex/../../../core/lv_obj_style_gen.h **** }
 384:Middlewares/LVGL/GUI/lvgl/src/extra/layouts/flex/../flex/../../../core/lv_obj_style_gen.h **** 
 385:Middlewares/LVGL/GUI/lvgl/src/extra/layouts/flex/../flex/../../../core/lv_obj_style_gen.h **** static inline lv_color_t lv_obj_get_style_line_color_filtered(const struct _lv_obj_t * obj, uint32_
 386:Middlewares/LVGL/GUI/lvgl/src/extra/layouts/flex/../flex/../../../core/lv_obj_style_gen.h **** {
 387:Middlewares/LVGL/GUI/lvgl/src/extra/layouts/flex/../flex/../../../core/lv_obj_style_gen.h ****     lv_style_value_t v = lv_obj_get_style_prop(obj, part, LV_STYLE_LINE_COLOR_FILTERED);
 388:Middlewares/LVGL/GUI/lvgl/src/extra/layouts/flex/../flex/../../../core/lv_obj_style_gen.h ****     return v.color;
 389:Middlewares/LVGL/GUI/lvgl/src/extra/layouts/flex/../flex/../../../core/lv_obj_style_gen.h **** }
 390:Middlewares/LVGL/GUI/lvgl/src/extra/layouts/flex/../flex/../../../core/lv_obj_style_gen.h **** 
 391:Middlewares/LVGL/GUI/lvgl/src/extra/layouts/flex/../flex/../../../core/lv_obj_style_gen.h **** static inline lv_opa_t lv_obj_get_style_line_opa(const struct _lv_obj_t * obj, uint32_t part)
 392:Middlewares/LVGL/GUI/lvgl/src/extra/layouts/flex/../flex/../../../core/lv_obj_style_gen.h **** {
 393:Middlewares/LVGL/GUI/lvgl/src/extra/layouts/flex/../flex/../../../core/lv_obj_style_gen.h ****     lv_style_value_t v = lv_obj_get_style_prop(obj, part, LV_STYLE_LINE_OPA);
 394:Middlewares/LVGL/GUI/lvgl/src/extra/layouts/flex/../flex/../../../core/lv_obj_style_gen.h ****     return (lv_opa_t)v.num;
 395:Middlewares/LVGL/GUI/lvgl/src/extra/layouts/flex/../flex/../../../core/lv_obj_style_gen.h **** }
 396:Middlewares/LVGL/GUI/lvgl/src/extra/layouts/flex/../flex/../../../core/lv_obj_style_gen.h **** 
 397:Middlewares/LVGL/GUI/lvgl/src/extra/layouts/flex/../flex/../../../core/lv_obj_style_gen.h **** static inline lv_coord_t lv_obj_get_style_arc_width(const struct _lv_obj_t * obj, uint32_t part)
 398:Middlewares/LVGL/GUI/lvgl/src/extra/layouts/flex/../flex/../../../core/lv_obj_style_gen.h **** {
 399:Middlewares/LVGL/GUI/lvgl/src/extra/layouts/flex/../flex/../../../core/lv_obj_style_gen.h ****     lv_style_value_t v = lv_obj_get_style_prop(obj, part, LV_STYLE_ARC_WIDTH);
 400:Middlewares/LVGL/GUI/lvgl/src/extra/layouts/flex/../flex/../../../core/lv_obj_style_gen.h ****     return (lv_coord_t)v.num;
 401:Middlewares/LVGL/GUI/lvgl/src/extra/layouts/flex/../flex/../../../core/lv_obj_style_gen.h **** }
 402:Middlewares/LVGL/GUI/lvgl/src/extra/layouts/flex/../flex/../../../core/lv_obj_style_gen.h **** 
 403:Middlewares/LVGL/GUI/lvgl/src/extra/layouts/flex/../flex/../../../core/lv_obj_style_gen.h **** static inline bool lv_obj_get_style_arc_rounded(const struct _lv_obj_t * obj, uint32_t part)
 404:Middlewares/LVGL/GUI/lvgl/src/extra/layouts/flex/../flex/../../../core/lv_obj_style_gen.h **** {
 405:Middlewares/LVGL/GUI/lvgl/src/extra/layouts/flex/../flex/../../../core/lv_obj_style_gen.h ****     lv_style_value_t v = lv_obj_get_style_prop(obj, part, LV_STYLE_ARC_ROUNDED);
 406:Middlewares/LVGL/GUI/lvgl/src/extra/layouts/flex/../flex/../../../core/lv_obj_style_gen.h ****     return (bool)v.num;
 407:Middlewares/LVGL/GUI/lvgl/src/extra/layouts/flex/../flex/../../../core/lv_obj_style_gen.h **** }
 408:Middlewares/LVGL/GUI/lvgl/src/extra/layouts/flex/../flex/../../../core/lv_obj_style_gen.h **** 
 409:Middlewares/LVGL/GUI/lvgl/src/extra/layouts/flex/../flex/../../../core/lv_obj_style_gen.h **** static inline lv_color_t lv_obj_get_style_arc_color(const struct _lv_obj_t * obj, uint32_t part)
 410:Middlewares/LVGL/GUI/lvgl/src/extra/layouts/flex/../flex/../../../core/lv_obj_style_gen.h **** {
 411:Middlewares/LVGL/GUI/lvgl/src/extra/layouts/flex/../flex/../../../core/lv_obj_style_gen.h ****     lv_style_value_t v = lv_obj_get_style_prop(obj, part, LV_STYLE_ARC_COLOR);
 412:Middlewares/LVGL/GUI/lvgl/src/extra/layouts/flex/../flex/../../../core/lv_obj_style_gen.h ****     return v.color;
 413:Middlewares/LVGL/GUI/lvgl/src/extra/layouts/flex/../flex/../../../core/lv_obj_style_gen.h **** }
 414:Middlewares/LVGL/GUI/lvgl/src/extra/layouts/flex/../flex/../../../core/lv_obj_style_gen.h **** 
 415:Middlewares/LVGL/GUI/lvgl/src/extra/layouts/flex/../flex/../../../core/lv_obj_style_gen.h **** static inline lv_color_t lv_obj_get_style_arc_color_filtered(const struct _lv_obj_t * obj, uint32_t
 416:Middlewares/LVGL/GUI/lvgl/src/extra/layouts/flex/../flex/../../../core/lv_obj_style_gen.h **** {
 417:Middlewares/LVGL/GUI/lvgl/src/extra/layouts/flex/../flex/../../../core/lv_obj_style_gen.h ****     lv_style_value_t v = lv_obj_get_style_prop(obj, part, LV_STYLE_ARC_COLOR_FILTERED);
 418:Middlewares/LVGL/GUI/lvgl/src/extra/layouts/flex/../flex/../../../core/lv_obj_style_gen.h ****     return v.color;
 419:Middlewares/LVGL/GUI/lvgl/src/extra/layouts/flex/../flex/../../../core/lv_obj_style_gen.h **** }
 420:Middlewares/LVGL/GUI/lvgl/src/extra/layouts/flex/../flex/../../../core/lv_obj_style_gen.h **** 
 421:Middlewares/LVGL/GUI/lvgl/src/extra/layouts/flex/../flex/../../../core/lv_obj_style_gen.h **** static inline lv_opa_t lv_obj_get_style_arc_opa(const struct _lv_obj_t * obj, uint32_t part)
 422:Middlewares/LVGL/GUI/lvgl/src/extra/layouts/flex/../flex/../../../core/lv_obj_style_gen.h **** {
 423:Middlewares/LVGL/GUI/lvgl/src/extra/layouts/flex/../flex/../../../core/lv_obj_style_gen.h ****     lv_style_value_t v = lv_obj_get_style_prop(obj, part, LV_STYLE_ARC_OPA);
 424:Middlewares/LVGL/GUI/lvgl/src/extra/layouts/flex/../flex/../../../core/lv_obj_style_gen.h ****     return (lv_opa_t)v.num;
 425:Middlewares/LVGL/GUI/lvgl/src/extra/layouts/flex/../flex/../../../core/lv_obj_style_gen.h **** }
ARM GAS  C:\Users\ADMINI~1\AppData\Local\Temp\ccyi9XNv.s 			page 50


 426:Middlewares/LVGL/GUI/lvgl/src/extra/layouts/flex/../flex/../../../core/lv_obj_style_gen.h **** 
 427:Middlewares/LVGL/GUI/lvgl/src/extra/layouts/flex/../flex/../../../core/lv_obj_style_gen.h **** static inline const void * lv_obj_get_style_arc_img_src(const struct _lv_obj_t * obj, uint32_t part
 428:Middlewares/LVGL/GUI/lvgl/src/extra/layouts/flex/../flex/../../../core/lv_obj_style_gen.h **** {
 429:Middlewares/LVGL/GUI/lvgl/src/extra/layouts/flex/../flex/../../../core/lv_obj_style_gen.h ****     lv_style_value_t v = lv_obj_get_style_prop(obj, part, LV_STYLE_ARC_IMG_SRC);
 430:Middlewares/LVGL/GUI/lvgl/src/extra/layouts/flex/../flex/../../../core/lv_obj_style_gen.h ****     return (const void *)v.ptr;
 431:Middlewares/LVGL/GUI/lvgl/src/extra/layouts/flex/../flex/../../../core/lv_obj_style_gen.h **** }
 432:Middlewares/LVGL/GUI/lvgl/src/extra/layouts/flex/../flex/../../../core/lv_obj_style_gen.h **** 
 433:Middlewares/LVGL/GUI/lvgl/src/extra/layouts/flex/../flex/../../../core/lv_obj_style_gen.h **** static inline lv_color_t lv_obj_get_style_text_color(const struct _lv_obj_t * obj, uint32_t part)
 434:Middlewares/LVGL/GUI/lvgl/src/extra/layouts/flex/../flex/../../../core/lv_obj_style_gen.h **** {
 435:Middlewares/LVGL/GUI/lvgl/src/extra/layouts/flex/../flex/../../../core/lv_obj_style_gen.h ****     lv_style_value_t v = lv_obj_get_style_prop(obj, part, LV_STYLE_TEXT_COLOR);
 436:Middlewares/LVGL/GUI/lvgl/src/extra/layouts/flex/../flex/../../../core/lv_obj_style_gen.h ****     return v.color;
 437:Middlewares/LVGL/GUI/lvgl/src/extra/layouts/flex/../flex/../../../core/lv_obj_style_gen.h **** }
 438:Middlewares/LVGL/GUI/lvgl/src/extra/layouts/flex/../flex/../../../core/lv_obj_style_gen.h **** 
 439:Middlewares/LVGL/GUI/lvgl/src/extra/layouts/flex/../flex/../../../core/lv_obj_style_gen.h **** static inline lv_color_t lv_obj_get_style_text_color_filtered(const struct _lv_obj_t * obj, uint32_
 440:Middlewares/LVGL/GUI/lvgl/src/extra/layouts/flex/../flex/../../../core/lv_obj_style_gen.h **** {
 441:Middlewares/LVGL/GUI/lvgl/src/extra/layouts/flex/../flex/../../../core/lv_obj_style_gen.h ****     lv_style_value_t v = lv_obj_get_style_prop(obj, part, LV_STYLE_TEXT_COLOR_FILTERED);
 442:Middlewares/LVGL/GUI/lvgl/src/extra/layouts/flex/../flex/../../../core/lv_obj_style_gen.h ****     return v.color;
 443:Middlewares/LVGL/GUI/lvgl/src/extra/layouts/flex/../flex/../../../core/lv_obj_style_gen.h **** }
 444:Middlewares/LVGL/GUI/lvgl/src/extra/layouts/flex/../flex/../../../core/lv_obj_style_gen.h **** 
 445:Middlewares/LVGL/GUI/lvgl/src/extra/layouts/flex/../flex/../../../core/lv_obj_style_gen.h **** static inline lv_opa_t lv_obj_get_style_text_opa(const struct _lv_obj_t * obj, uint32_t part)
 446:Middlewares/LVGL/GUI/lvgl/src/extra/layouts/flex/../flex/../../../core/lv_obj_style_gen.h **** {
 447:Middlewares/LVGL/GUI/lvgl/src/extra/layouts/flex/../flex/../../../core/lv_obj_style_gen.h ****     lv_style_value_t v = lv_obj_get_style_prop(obj, part, LV_STYLE_TEXT_OPA);
 448:Middlewares/LVGL/GUI/lvgl/src/extra/layouts/flex/../flex/../../../core/lv_obj_style_gen.h ****     return (lv_opa_t)v.num;
 449:Middlewares/LVGL/GUI/lvgl/src/extra/layouts/flex/../flex/../../../core/lv_obj_style_gen.h **** }
 450:Middlewares/LVGL/GUI/lvgl/src/extra/layouts/flex/../flex/../../../core/lv_obj_style_gen.h **** 
 451:Middlewares/LVGL/GUI/lvgl/src/extra/layouts/flex/../flex/../../../core/lv_obj_style_gen.h **** static inline const lv_font_t * lv_obj_get_style_text_font(const struct _lv_obj_t * obj, uint32_t p
 452:Middlewares/LVGL/GUI/lvgl/src/extra/layouts/flex/../flex/../../../core/lv_obj_style_gen.h **** {
 453:Middlewares/LVGL/GUI/lvgl/src/extra/layouts/flex/../flex/../../../core/lv_obj_style_gen.h ****     lv_style_value_t v = lv_obj_get_style_prop(obj, part, LV_STYLE_TEXT_FONT);
 454:Middlewares/LVGL/GUI/lvgl/src/extra/layouts/flex/../flex/../../../core/lv_obj_style_gen.h ****     return (const lv_font_t *)v.ptr;
 455:Middlewares/LVGL/GUI/lvgl/src/extra/layouts/flex/../flex/../../../core/lv_obj_style_gen.h **** }
 456:Middlewares/LVGL/GUI/lvgl/src/extra/layouts/flex/../flex/../../../core/lv_obj_style_gen.h **** 
 457:Middlewares/LVGL/GUI/lvgl/src/extra/layouts/flex/../flex/../../../core/lv_obj_style_gen.h **** static inline lv_coord_t lv_obj_get_style_text_letter_space(const struct _lv_obj_t * obj, uint32_t 
 458:Middlewares/LVGL/GUI/lvgl/src/extra/layouts/flex/../flex/../../../core/lv_obj_style_gen.h **** {
 459:Middlewares/LVGL/GUI/lvgl/src/extra/layouts/flex/../flex/../../../core/lv_obj_style_gen.h ****     lv_style_value_t v = lv_obj_get_style_prop(obj, part, LV_STYLE_TEXT_LETTER_SPACE);
 460:Middlewares/LVGL/GUI/lvgl/src/extra/layouts/flex/../flex/../../../core/lv_obj_style_gen.h ****     return (lv_coord_t)v.num;
 461:Middlewares/LVGL/GUI/lvgl/src/extra/layouts/flex/../flex/../../../core/lv_obj_style_gen.h **** }
 462:Middlewares/LVGL/GUI/lvgl/src/extra/layouts/flex/../flex/../../../core/lv_obj_style_gen.h **** 
 463:Middlewares/LVGL/GUI/lvgl/src/extra/layouts/flex/../flex/../../../core/lv_obj_style_gen.h **** static inline lv_coord_t lv_obj_get_style_text_line_space(const struct _lv_obj_t * obj, uint32_t pa
 464:Middlewares/LVGL/GUI/lvgl/src/extra/layouts/flex/../flex/../../../core/lv_obj_style_gen.h **** {
 465:Middlewares/LVGL/GUI/lvgl/src/extra/layouts/flex/../flex/../../../core/lv_obj_style_gen.h ****     lv_style_value_t v = lv_obj_get_style_prop(obj, part, LV_STYLE_TEXT_LINE_SPACE);
 466:Middlewares/LVGL/GUI/lvgl/src/extra/layouts/flex/../flex/../../../core/lv_obj_style_gen.h ****     return (lv_coord_t)v.num;
 467:Middlewares/LVGL/GUI/lvgl/src/extra/layouts/flex/../flex/../../../core/lv_obj_style_gen.h **** }
 468:Middlewares/LVGL/GUI/lvgl/src/extra/layouts/flex/../flex/../../../core/lv_obj_style_gen.h **** 
 469:Middlewares/LVGL/GUI/lvgl/src/extra/layouts/flex/../flex/../../../core/lv_obj_style_gen.h **** static inline lv_text_decor_t lv_obj_get_style_text_decor(const struct _lv_obj_t * obj, uint32_t pa
 470:Middlewares/LVGL/GUI/lvgl/src/extra/layouts/flex/../flex/../../../core/lv_obj_style_gen.h **** {
 471:Middlewares/LVGL/GUI/lvgl/src/extra/layouts/flex/../flex/../../../core/lv_obj_style_gen.h ****     lv_style_value_t v = lv_obj_get_style_prop(obj, part, LV_STYLE_TEXT_DECOR);
 472:Middlewares/LVGL/GUI/lvgl/src/extra/layouts/flex/../flex/../../../core/lv_obj_style_gen.h ****     return (lv_text_decor_t)v.num;
 473:Middlewares/LVGL/GUI/lvgl/src/extra/layouts/flex/../flex/../../../core/lv_obj_style_gen.h **** }
 474:Middlewares/LVGL/GUI/lvgl/src/extra/layouts/flex/../flex/../../../core/lv_obj_style_gen.h **** 
 475:Middlewares/LVGL/GUI/lvgl/src/extra/layouts/flex/../flex/../../../core/lv_obj_style_gen.h **** static inline lv_text_align_t lv_obj_get_style_text_align(const struct _lv_obj_t * obj, uint32_t pa
 476:Middlewares/LVGL/GUI/lvgl/src/extra/layouts/flex/../flex/../../../core/lv_obj_style_gen.h **** {
 477:Middlewares/LVGL/GUI/lvgl/src/extra/layouts/flex/../flex/../../../core/lv_obj_style_gen.h ****     lv_style_value_t v = lv_obj_get_style_prop(obj, part, LV_STYLE_TEXT_ALIGN);
 478:Middlewares/LVGL/GUI/lvgl/src/extra/layouts/flex/../flex/../../../core/lv_obj_style_gen.h ****     return (lv_text_align_t)v.num;
 479:Middlewares/LVGL/GUI/lvgl/src/extra/layouts/flex/../flex/../../../core/lv_obj_style_gen.h **** }
 480:Middlewares/LVGL/GUI/lvgl/src/extra/layouts/flex/../flex/../../../core/lv_obj_style_gen.h **** 
 481:Middlewares/LVGL/GUI/lvgl/src/extra/layouts/flex/../flex/../../../core/lv_obj_style_gen.h **** static inline lv_coord_t lv_obj_get_style_radius(const struct _lv_obj_t * obj, uint32_t part)
 482:Middlewares/LVGL/GUI/lvgl/src/extra/layouts/flex/../flex/../../../core/lv_obj_style_gen.h **** {
ARM GAS  C:\Users\ADMINI~1\AppData\Local\Temp\ccyi9XNv.s 			page 51


 483:Middlewares/LVGL/GUI/lvgl/src/extra/layouts/flex/../flex/../../../core/lv_obj_style_gen.h ****     lv_style_value_t v = lv_obj_get_style_prop(obj, part, LV_STYLE_RADIUS);
 484:Middlewares/LVGL/GUI/lvgl/src/extra/layouts/flex/../flex/../../../core/lv_obj_style_gen.h ****     return (lv_coord_t)v.num;
