ARM GAS  C:\Users\ADMINI~1\AppData\Local\Temp\cc6Bhsgy.s 			page 1


   1              		.cpu cortex-m4
   2              		.arch armv7e-m
   3              		.fpu fpv4-sp-d16
   4              		.eabi_attribute 27, 1
   5              		.eabi_attribute 28, 1
   6              		.eabi_attribute 20, 1
   7              		.eabi_attribute 21, 1
   8              		.eabi_attribute 23, 3
   9              		.eabi_attribute 24, 1
  10              		.eabi_attribute 25, 1
  11              		.eabi_attribute 26, 1
  12              		.eabi_attribute 30, 1
  13              		.eabi_attribute 34, 1
  14              		.eabi_attribute 18, 4
  15              		.file	"lv_grid.c"
  16              		.text
  17              	.Ltext0:
  18              		.cfi_sections	.debug_frame
  19              		.section	.text.grid_align,"ax",%progbits
  20              		.align	1
  21              		.syntax unified
  22              		.thumb
  23              		.thumb_func
  25              	grid_align:
  26              	.LVL0:
  27              	.LFB209:
  28              		.file 1 "Middlewares/LVGL/GUI/lvgl/src/extra/layouts/grid/lv_grid.c"
   1:Middlewares/LVGL/GUI/lvgl/src/extra/layouts/grid/lv_grid.c **** /**
   2:Middlewares/LVGL/GUI/lvgl/src/extra/layouts/grid/lv_grid.c ****  * @file lv_grid.c
   3:Middlewares/LVGL/GUI/lvgl/src/extra/layouts/grid/lv_grid.c ****  *
   4:Middlewares/LVGL/GUI/lvgl/src/extra/layouts/grid/lv_grid.c ****  */
   5:Middlewares/LVGL/GUI/lvgl/src/extra/layouts/grid/lv_grid.c **** 
   6:Middlewares/LVGL/GUI/lvgl/src/extra/layouts/grid/lv_grid.c **** /*********************
   7:Middlewares/LVGL/GUI/lvgl/src/extra/layouts/grid/lv_grid.c ****  *      INCLUDES
   8:Middlewares/LVGL/GUI/lvgl/src/extra/layouts/grid/lv_grid.c ****  *********************/
   9:Middlewares/LVGL/GUI/lvgl/src/extra/layouts/grid/lv_grid.c **** #include "../lv_layouts.h"
  10:Middlewares/LVGL/GUI/lvgl/src/extra/layouts/grid/lv_grid.c **** 
  11:Middlewares/LVGL/GUI/lvgl/src/extra/layouts/grid/lv_grid.c **** #if LV_USE_GRID
  12:Middlewares/LVGL/GUI/lvgl/src/extra/layouts/grid/lv_grid.c **** 
  13:Middlewares/LVGL/GUI/lvgl/src/extra/layouts/grid/lv_grid.c **** /*********************
  14:Middlewares/LVGL/GUI/lvgl/src/extra/layouts/grid/lv_grid.c ****  *      DEFINES
  15:Middlewares/LVGL/GUI/lvgl/src/extra/layouts/grid/lv_grid.c ****  *********************/
  16:Middlewares/LVGL/GUI/lvgl/src/extra/layouts/grid/lv_grid.c **** /**
  17:Middlewares/LVGL/GUI/lvgl/src/extra/layouts/grid/lv_grid.c ****  * Some helper defines
  18:Middlewares/LVGL/GUI/lvgl/src/extra/layouts/grid/lv_grid.c ****  */
  19:Middlewares/LVGL/GUI/lvgl/src/extra/layouts/grid/lv_grid.c **** #define IS_FR(x)       (x >= LV_COORD_MAX - 100)
  20:Middlewares/LVGL/GUI/lvgl/src/extra/layouts/grid/lv_grid.c **** #define IS_CONTENT(x)  (x == LV_COORD_MAX - 101)
  21:Middlewares/LVGL/GUI/lvgl/src/extra/layouts/grid/lv_grid.c **** #define GET_FR(x)      (x - (LV_COORD_MAX - 100))
  22:Middlewares/LVGL/GUI/lvgl/src/extra/layouts/grid/lv_grid.c **** 
  23:Middlewares/LVGL/GUI/lvgl/src/extra/layouts/grid/lv_grid.c **** /**********************
  24:Middlewares/LVGL/GUI/lvgl/src/extra/layouts/grid/lv_grid.c ****  *      TYPEDEFS
  25:Middlewares/LVGL/GUI/lvgl/src/extra/layouts/grid/lv_grid.c ****  **********************/
  26:Middlewares/LVGL/GUI/lvgl/src/extra/layouts/grid/lv_grid.c **** typedef struct {
  27:Middlewares/LVGL/GUI/lvgl/src/extra/layouts/grid/lv_grid.c ****     uint32_t col;
  28:Middlewares/LVGL/GUI/lvgl/src/extra/layouts/grid/lv_grid.c ****     uint32_t row;
  29:Middlewares/LVGL/GUI/lvgl/src/extra/layouts/grid/lv_grid.c ****     lv_point_t grid_abs;
  30:Middlewares/LVGL/GUI/lvgl/src/extra/layouts/grid/lv_grid.c **** } item_repos_hint_t;
ARM GAS  C:\Users\ADMINI~1\AppData\Local\Temp\cc6Bhsgy.s 			page 2


  31:Middlewares/LVGL/GUI/lvgl/src/extra/layouts/grid/lv_grid.c **** 
  32:Middlewares/LVGL/GUI/lvgl/src/extra/layouts/grid/lv_grid.c **** typedef struct {
  33:Middlewares/LVGL/GUI/lvgl/src/extra/layouts/grid/lv_grid.c ****     lv_coord_t * x;
  34:Middlewares/LVGL/GUI/lvgl/src/extra/layouts/grid/lv_grid.c ****     lv_coord_t * y;
  35:Middlewares/LVGL/GUI/lvgl/src/extra/layouts/grid/lv_grid.c ****     lv_coord_t * w;
  36:Middlewares/LVGL/GUI/lvgl/src/extra/layouts/grid/lv_grid.c ****     lv_coord_t * h;
  37:Middlewares/LVGL/GUI/lvgl/src/extra/layouts/grid/lv_grid.c ****     uint32_t col_num;
  38:Middlewares/LVGL/GUI/lvgl/src/extra/layouts/grid/lv_grid.c ****     uint32_t row_num;
  39:Middlewares/LVGL/GUI/lvgl/src/extra/layouts/grid/lv_grid.c ****     lv_coord_t grid_w;
  40:Middlewares/LVGL/GUI/lvgl/src/extra/layouts/grid/lv_grid.c ****     lv_coord_t grid_h;
  41:Middlewares/LVGL/GUI/lvgl/src/extra/layouts/grid/lv_grid.c **** } _lv_grid_calc_t;
  42:Middlewares/LVGL/GUI/lvgl/src/extra/layouts/grid/lv_grid.c **** 
  43:Middlewares/LVGL/GUI/lvgl/src/extra/layouts/grid/lv_grid.c **** 
  44:Middlewares/LVGL/GUI/lvgl/src/extra/layouts/grid/lv_grid.c **** /**********************
  45:Middlewares/LVGL/GUI/lvgl/src/extra/layouts/grid/lv_grid.c ****  *  GLOBAL PROTOTYPES
  46:Middlewares/LVGL/GUI/lvgl/src/extra/layouts/grid/lv_grid.c ****  **********************/
  47:Middlewares/LVGL/GUI/lvgl/src/extra/layouts/grid/lv_grid.c **** 
  48:Middlewares/LVGL/GUI/lvgl/src/extra/layouts/grid/lv_grid.c **** /**********************
  49:Middlewares/LVGL/GUI/lvgl/src/extra/layouts/grid/lv_grid.c ****  *  STATIC PROTOTYPES
  50:Middlewares/LVGL/GUI/lvgl/src/extra/layouts/grid/lv_grid.c ****  **********************/
  51:Middlewares/LVGL/GUI/lvgl/src/extra/layouts/grid/lv_grid.c **** static void grid_update(lv_obj_t * cont, void * user_data);
  52:Middlewares/LVGL/GUI/lvgl/src/extra/layouts/grid/lv_grid.c **** static void calc(lv_obj_t * obj, _lv_grid_calc_t * calc);
  53:Middlewares/LVGL/GUI/lvgl/src/extra/layouts/grid/lv_grid.c **** static void calc_free(_lv_grid_calc_t * calc);
  54:Middlewares/LVGL/GUI/lvgl/src/extra/layouts/grid/lv_grid.c **** static void calc_cols(lv_obj_t * cont, _lv_grid_calc_t * c);
  55:Middlewares/LVGL/GUI/lvgl/src/extra/layouts/grid/lv_grid.c **** static void calc_rows(lv_obj_t * cont, _lv_grid_calc_t * c);
  56:Middlewares/LVGL/GUI/lvgl/src/extra/layouts/grid/lv_grid.c **** static void item_repos(lv_obj_t * item, _lv_grid_calc_t * c, item_repos_hint_t * hint);
  57:Middlewares/LVGL/GUI/lvgl/src/extra/layouts/grid/lv_grid.c **** static lv_coord_t grid_align(lv_coord_t cont_size,  bool auto_size, uint8_t align, lv_coord_t gap, 
  58:Middlewares/LVGL/GUI/lvgl/src/extra/layouts/grid/lv_grid.c ****                              lv_coord_t * size_array, lv_coord_t * pos_array, bool reverse);
  59:Middlewares/LVGL/GUI/lvgl/src/extra/layouts/grid/lv_grid.c **** static uint32_t count_tracks(const lv_coord_t * templ);
  60:Middlewares/LVGL/GUI/lvgl/src/extra/layouts/grid/lv_grid.c **** 
  61:Middlewares/LVGL/GUI/lvgl/src/extra/layouts/grid/lv_grid.c **** static inline const lv_coord_t * get_col_dsc(lv_obj_t * obj)
  62:Middlewares/LVGL/GUI/lvgl/src/extra/layouts/grid/lv_grid.c **** {
  63:Middlewares/LVGL/GUI/lvgl/src/extra/layouts/grid/lv_grid.c ****     return lv_obj_get_style_grid_column_dsc_array(obj, 0);
  64:Middlewares/LVGL/GUI/lvgl/src/extra/layouts/grid/lv_grid.c **** }
  65:Middlewares/LVGL/GUI/lvgl/src/extra/layouts/grid/lv_grid.c **** static inline const lv_coord_t * get_row_dsc(lv_obj_t * obj)
  66:Middlewares/LVGL/GUI/lvgl/src/extra/layouts/grid/lv_grid.c **** {
  67:Middlewares/LVGL/GUI/lvgl/src/extra/layouts/grid/lv_grid.c ****     return lv_obj_get_style_grid_row_dsc_array(obj, 0);
  68:Middlewares/LVGL/GUI/lvgl/src/extra/layouts/grid/lv_grid.c **** }
  69:Middlewares/LVGL/GUI/lvgl/src/extra/layouts/grid/lv_grid.c **** static inline uint8_t get_col_pos(lv_obj_t * obj)
  70:Middlewares/LVGL/GUI/lvgl/src/extra/layouts/grid/lv_grid.c **** {
  71:Middlewares/LVGL/GUI/lvgl/src/extra/layouts/grid/lv_grid.c ****     return lv_obj_get_style_grid_cell_column_pos(obj, 0);
  72:Middlewares/LVGL/GUI/lvgl/src/extra/layouts/grid/lv_grid.c **** }
  73:Middlewares/LVGL/GUI/lvgl/src/extra/layouts/grid/lv_grid.c **** static inline uint8_t get_row_pos(lv_obj_t * obj)
  74:Middlewares/LVGL/GUI/lvgl/src/extra/layouts/grid/lv_grid.c **** {
  75:Middlewares/LVGL/GUI/lvgl/src/extra/layouts/grid/lv_grid.c ****     return lv_obj_get_style_grid_cell_row_pos(obj, 0);
  76:Middlewares/LVGL/GUI/lvgl/src/extra/layouts/grid/lv_grid.c **** }
  77:Middlewares/LVGL/GUI/lvgl/src/extra/layouts/grid/lv_grid.c **** static inline uint8_t get_col_span(lv_obj_t * obj)
  78:Middlewares/LVGL/GUI/lvgl/src/extra/layouts/grid/lv_grid.c **** {
  79:Middlewares/LVGL/GUI/lvgl/src/extra/layouts/grid/lv_grid.c ****     return lv_obj_get_style_grid_cell_column_span(obj, 0);
  80:Middlewares/LVGL/GUI/lvgl/src/extra/layouts/grid/lv_grid.c **** }
  81:Middlewares/LVGL/GUI/lvgl/src/extra/layouts/grid/lv_grid.c **** static inline uint8_t get_row_span(lv_obj_t * obj)
  82:Middlewares/LVGL/GUI/lvgl/src/extra/layouts/grid/lv_grid.c **** {
  83:Middlewares/LVGL/GUI/lvgl/src/extra/layouts/grid/lv_grid.c ****     return lv_obj_get_style_grid_cell_row_span(obj, 0);
  84:Middlewares/LVGL/GUI/lvgl/src/extra/layouts/grid/lv_grid.c **** }
  85:Middlewares/LVGL/GUI/lvgl/src/extra/layouts/grid/lv_grid.c **** static inline uint8_t get_cell_col_align(lv_obj_t * obj)
  86:Middlewares/LVGL/GUI/lvgl/src/extra/layouts/grid/lv_grid.c **** {
  87:Middlewares/LVGL/GUI/lvgl/src/extra/layouts/grid/lv_grid.c ****     return lv_obj_get_style_grid_cell_x_align(obj, 0);
ARM GAS  C:\Users\ADMINI~1\AppData\Local\Temp\cc6Bhsgy.s 			page 3


  88:Middlewares/LVGL/GUI/lvgl/src/extra/layouts/grid/lv_grid.c **** }
  89:Middlewares/LVGL/GUI/lvgl/src/extra/layouts/grid/lv_grid.c **** static inline uint8_t get_cell_row_align(lv_obj_t * obj)
  90:Middlewares/LVGL/GUI/lvgl/src/extra/layouts/grid/lv_grid.c **** {
  91:Middlewares/LVGL/GUI/lvgl/src/extra/layouts/grid/lv_grid.c ****     return lv_obj_get_style_grid_cell_y_align(obj, 0);
  92:Middlewares/LVGL/GUI/lvgl/src/extra/layouts/grid/lv_grid.c **** }
  93:Middlewares/LVGL/GUI/lvgl/src/extra/layouts/grid/lv_grid.c **** static inline uint8_t get_grid_col_align(lv_obj_t * obj)
  94:Middlewares/LVGL/GUI/lvgl/src/extra/layouts/grid/lv_grid.c **** {
  95:Middlewares/LVGL/GUI/lvgl/src/extra/layouts/grid/lv_grid.c ****     return lv_obj_get_style_grid_column_align(obj, 0);
  96:Middlewares/LVGL/GUI/lvgl/src/extra/layouts/grid/lv_grid.c **** }
  97:Middlewares/LVGL/GUI/lvgl/src/extra/layouts/grid/lv_grid.c **** static inline uint8_t get_grid_row_align(lv_obj_t * obj)
  98:Middlewares/LVGL/GUI/lvgl/src/extra/layouts/grid/lv_grid.c **** {
  99:Middlewares/LVGL/GUI/lvgl/src/extra/layouts/grid/lv_grid.c ****     return lv_obj_get_style_grid_row_align(obj, 0);
 100:Middlewares/LVGL/GUI/lvgl/src/extra/layouts/grid/lv_grid.c **** }
 101:Middlewares/LVGL/GUI/lvgl/src/extra/layouts/grid/lv_grid.c **** 
 102:Middlewares/LVGL/GUI/lvgl/src/extra/layouts/grid/lv_grid.c **** /**********************
 103:Middlewares/LVGL/GUI/lvgl/src/extra/layouts/grid/lv_grid.c ****  *  GLOBAL VARIABLES
 104:Middlewares/LVGL/GUI/lvgl/src/extra/layouts/grid/lv_grid.c ****  **********************/
 105:Middlewares/LVGL/GUI/lvgl/src/extra/layouts/grid/lv_grid.c **** uint32_t LV_LAYOUT_GRID;
 106:Middlewares/LVGL/GUI/lvgl/src/extra/layouts/grid/lv_grid.c **** lv_style_prop_t LV_STYLE_GRID_COLUMN_DSC_ARRAY;
 107:Middlewares/LVGL/GUI/lvgl/src/extra/layouts/grid/lv_grid.c **** lv_style_prop_t LV_STYLE_GRID_COLUMN_ALIGN;
 108:Middlewares/LVGL/GUI/lvgl/src/extra/layouts/grid/lv_grid.c **** lv_style_prop_t LV_STYLE_GRID_ROW_DSC_ARRAY;
 109:Middlewares/LVGL/GUI/lvgl/src/extra/layouts/grid/lv_grid.c **** lv_style_prop_t LV_STYLE_GRID_ROW_ALIGN;
 110:Middlewares/LVGL/GUI/lvgl/src/extra/layouts/grid/lv_grid.c **** lv_style_prop_t LV_STYLE_GRID_CELL_COLUMN_POS;
 111:Middlewares/LVGL/GUI/lvgl/src/extra/layouts/grid/lv_grid.c **** lv_style_prop_t LV_STYLE_GRID_CELL_COLUMN_SPAN;
 112:Middlewares/LVGL/GUI/lvgl/src/extra/layouts/grid/lv_grid.c **** lv_style_prop_t LV_STYLE_GRID_CELL_X_ALIGN;
 113:Middlewares/LVGL/GUI/lvgl/src/extra/layouts/grid/lv_grid.c **** lv_style_prop_t LV_STYLE_GRID_CELL_ROW_POS;
 114:Middlewares/LVGL/GUI/lvgl/src/extra/layouts/grid/lv_grid.c **** lv_style_prop_t LV_STYLE_GRID_CELL_ROW_SPAN;
 115:Middlewares/LVGL/GUI/lvgl/src/extra/layouts/grid/lv_grid.c **** lv_style_prop_t LV_STYLE_GRID_CELL_Y_ALIGN;
 116:Middlewares/LVGL/GUI/lvgl/src/extra/layouts/grid/lv_grid.c **** 
 117:Middlewares/LVGL/GUI/lvgl/src/extra/layouts/grid/lv_grid.c **** /**********************
 118:Middlewares/LVGL/GUI/lvgl/src/extra/layouts/grid/lv_grid.c ****  *  STATIC VARIABLES
 119:Middlewares/LVGL/GUI/lvgl/src/extra/layouts/grid/lv_grid.c ****  **********************/
 120:Middlewares/LVGL/GUI/lvgl/src/extra/layouts/grid/lv_grid.c **** 
 121:Middlewares/LVGL/GUI/lvgl/src/extra/layouts/grid/lv_grid.c **** /**********************
 122:Middlewares/LVGL/GUI/lvgl/src/extra/layouts/grid/lv_grid.c ****  *      MACROS
 123:Middlewares/LVGL/GUI/lvgl/src/extra/layouts/grid/lv_grid.c ****  **********************/
 124:Middlewares/LVGL/GUI/lvgl/src/extra/layouts/grid/lv_grid.c **** 
 125:Middlewares/LVGL/GUI/lvgl/src/extra/layouts/grid/lv_grid.c **** /**********************
 126:Middlewares/LVGL/GUI/lvgl/src/extra/layouts/grid/lv_grid.c ****  *   GLOBAL FUNCTIONS
 127:Middlewares/LVGL/GUI/lvgl/src/extra/layouts/grid/lv_grid.c ****  **********************/
 128:Middlewares/LVGL/GUI/lvgl/src/extra/layouts/grid/lv_grid.c **** 
 129:Middlewares/LVGL/GUI/lvgl/src/extra/layouts/grid/lv_grid.c **** 
 130:Middlewares/LVGL/GUI/lvgl/src/extra/layouts/grid/lv_grid.c **** void lv_grid_init(void)
 131:Middlewares/LVGL/GUI/lvgl/src/extra/layouts/grid/lv_grid.c **** {
 132:Middlewares/LVGL/GUI/lvgl/src/extra/layouts/grid/lv_grid.c ****     LV_LAYOUT_GRID = lv_layout_register(grid_update, NULL);
 133:Middlewares/LVGL/GUI/lvgl/src/extra/layouts/grid/lv_grid.c **** 
 134:Middlewares/LVGL/GUI/lvgl/src/extra/layouts/grid/lv_grid.c ****     LV_STYLE_GRID_COLUMN_DSC_ARRAY = lv_style_register_prop() | LV_STYLE_PROP_LAYOUT_REFR;
 135:Middlewares/LVGL/GUI/lvgl/src/extra/layouts/grid/lv_grid.c ****     LV_STYLE_GRID_ROW_DSC_ARRAY = lv_style_register_prop() | LV_STYLE_PROP_LAYOUT_REFR;
 136:Middlewares/LVGL/GUI/lvgl/src/extra/layouts/grid/lv_grid.c ****     LV_STYLE_GRID_COLUMN_ALIGN = lv_style_register_prop() | LV_STYLE_PROP_LAYOUT_REFR;
 137:Middlewares/LVGL/GUI/lvgl/src/extra/layouts/grid/lv_grid.c ****     LV_STYLE_GRID_ROW_ALIGN = lv_style_register_prop() | LV_STYLE_PROP_LAYOUT_REFR;
 138:Middlewares/LVGL/GUI/lvgl/src/extra/layouts/grid/lv_grid.c **** 
 139:Middlewares/LVGL/GUI/lvgl/src/extra/layouts/grid/lv_grid.c ****     LV_STYLE_GRID_CELL_ROW_SPAN = lv_style_register_prop() | LV_STYLE_PROP_LAYOUT_REFR;
 140:Middlewares/LVGL/GUI/lvgl/src/extra/layouts/grid/lv_grid.c ****     LV_STYLE_GRID_CELL_ROW_POS = lv_style_register_prop() | LV_STYLE_PROP_LAYOUT_REFR;
 141:Middlewares/LVGL/GUI/lvgl/src/extra/layouts/grid/lv_grid.c ****     LV_STYLE_GRID_CELL_COLUMN_SPAN = lv_style_register_prop() | LV_STYLE_PROP_LAYOUT_REFR;
 142:Middlewares/LVGL/GUI/lvgl/src/extra/layouts/grid/lv_grid.c ****     LV_STYLE_GRID_CELL_COLUMN_POS = lv_style_register_prop() | LV_STYLE_PROP_LAYOUT_REFR;
 143:Middlewares/LVGL/GUI/lvgl/src/extra/layouts/grid/lv_grid.c ****     LV_STYLE_GRID_CELL_X_ALIGN = lv_style_register_prop() | LV_STYLE_PROP_LAYOUT_REFR;
 144:Middlewares/LVGL/GUI/lvgl/src/extra/layouts/grid/lv_grid.c ****     LV_STYLE_GRID_CELL_Y_ALIGN = lv_style_register_prop() | LV_STYLE_PROP_LAYOUT_REFR;
ARM GAS  C:\Users\ADMINI~1\AppData\Local\Temp\cc6Bhsgy.s 			page 4


 145:Middlewares/LVGL/GUI/lvgl/src/extra/layouts/grid/lv_grid.c **** }
 146:Middlewares/LVGL/GUI/lvgl/src/extra/layouts/grid/lv_grid.c **** 
 147:Middlewares/LVGL/GUI/lvgl/src/extra/layouts/grid/lv_grid.c **** void lv_obj_set_grid_dsc_array(lv_obj_t * obj, const lv_coord_t col_dsc[], const lv_coord_t row_dsc
 148:Middlewares/LVGL/GUI/lvgl/src/extra/layouts/grid/lv_grid.c **** {
 149:Middlewares/LVGL/GUI/lvgl/src/extra/layouts/grid/lv_grid.c ****     lv_obj_set_style_grid_column_dsc_array(obj, col_dsc, 0);
 150:Middlewares/LVGL/GUI/lvgl/src/extra/layouts/grid/lv_grid.c ****     lv_obj_set_style_grid_row_dsc_array(obj, row_dsc, 0);
 151:Middlewares/LVGL/GUI/lvgl/src/extra/layouts/grid/lv_grid.c ****     lv_obj_set_style_layout(obj, LV_LAYOUT_GRID, 0);
 152:Middlewares/LVGL/GUI/lvgl/src/extra/layouts/grid/lv_grid.c **** }
 153:Middlewares/LVGL/GUI/lvgl/src/extra/layouts/grid/lv_grid.c **** 
 154:Middlewares/LVGL/GUI/lvgl/src/extra/layouts/grid/lv_grid.c **** void lv_obj_set_grid_align(lv_obj_t * obj, lv_grid_align_t column_align, lv_grid_align_t row_align)
 155:Middlewares/LVGL/GUI/lvgl/src/extra/layouts/grid/lv_grid.c **** {
 156:Middlewares/LVGL/GUI/lvgl/src/extra/layouts/grid/lv_grid.c ****     lv_obj_set_style_grid_column_align(obj, column_align, 0);
 157:Middlewares/LVGL/GUI/lvgl/src/extra/layouts/grid/lv_grid.c ****     lv_obj_set_style_grid_row_align(obj, row_align, 0);
 158:Middlewares/LVGL/GUI/lvgl/src/extra/layouts/grid/lv_grid.c **** 
 159:Middlewares/LVGL/GUI/lvgl/src/extra/layouts/grid/lv_grid.c **** }
 160:Middlewares/LVGL/GUI/lvgl/src/extra/layouts/grid/lv_grid.c **** 
 161:Middlewares/LVGL/GUI/lvgl/src/extra/layouts/grid/lv_grid.c **** void lv_obj_set_grid_cell(lv_obj_t * obj, lv_grid_align_t x_align, uint8_t col_pos, uint8_t col_spa
 162:Middlewares/LVGL/GUI/lvgl/src/extra/layouts/grid/lv_grid.c ****                           lv_grid_align_t y_align, uint8_t row_pos, uint8_t row_span)
 163:Middlewares/LVGL/GUI/lvgl/src/extra/layouts/grid/lv_grid.c **** 
 164:Middlewares/LVGL/GUI/lvgl/src/extra/layouts/grid/lv_grid.c **** {
 165:Middlewares/LVGL/GUI/lvgl/src/extra/layouts/grid/lv_grid.c ****     lv_obj_set_style_grid_cell_column_pos(obj, col_pos, 0);
 166:Middlewares/LVGL/GUI/lvgl/src/extra/layouts/grid/lv_grid.c ****     lv_obj_set_style_grid_cell_row_pos(obj, row_pos, 0);
 167:Middlewares/LVGL/GUI/lvgl/src/extra/layouts/grid/lv_grid.c ****     lv_obj_set_style_grid_cell_x_align(obj, x_align, 0);
 168:Middlewares/LVGL/GUI/lvgl/src/extra/layouts/grid/lv_grid.c ****     lv_obj_set_style_grid_cell_column_span(obj, col_span, 0);
 169:Middlewares/LVGL/GUI/lvgl/src/extra/layouts/grid/lv_grid.c ****     lv_obj_set_style_grid_cell_row_span(obj, row_span, 0);
 170:Middlewares/LVGL/GUI/lvgl/src/extra/layouts/grid/lv_grid.c ****     lv_obj_set_style_grid_cell_y_align(obj, y_align, 0);
 171:Middlewares/LVGL/GUI/lvgl/src/extra/layouts/grid/lv_grid.c **** 
 172:Middlewares/LVGL/GUI/lvgl/src/extra/layouts/grid/lv_grid.c ****     lv_obj_mark_layout_as_dirty(lv_obj_get_parent(obj));
 173:Middlewares/LVGL/GUI/lvgl/src/extra/layouts/grid/lv_grid.c **** }
 174:Middlewares/LVGL/GUI/lvgl/src/extra/layouts/grid/lv_grid.c **** 
 175:Middlewares/LVGL/GUI/lvgl/src/extra/layouts/grid/lv_grid.c **** 
 176:Middlewares/LVGL/GUI/lvgl/src/extra/layouts/grid/lv_grid.c **** void lv_style_set_grid_row_dsc_array(lv_style_t * style, const lv_coord_t value[])
 177:Middlewares/LVGL/GUI/lvgl/src/extra/layouts/grid/lv_grid.c **** {
 178:Middlewares/LVGL/GUI/lvgl/src/extra/layouts/grid/lv_grid.c ****     lv_style_value_t v = {
 179:Middlewares/LVGL/GUI/lvgl/src/extra/layouts/grid/lv_grid.c ****         .ptr = (const void *)value
 180:Middlewares/LVGL/GUI/lvgl/src/extra/layouts/grid/lv_grid.c ****     };
 181:Middlewares/LVGL/GUI/lvgl/src/extra/layouts/grid/lv_grid.c ****     lv_style_set_prop(style, LV_STYLE_GRID_ROW_DSC_ARRAY, v);
 182:Middlewares/LVGL/GUI/lvgl/src/extra/layouts/grid/lv_grid.c **** }
 183:Middlewares/LVGL/GUI/lvgl/src/extra/layouts/grid/lv_grid.c **** 
 184:Middlewares/LVGL/GUI/lvgl/src/extra/layouts/grid/lv_grid.c **** void lv_style_set_grid_column_dsc_array(lv_style_t * style, const lv_coord_t value[])
 185:Middlewares/LVGL/GUI/lvgl/src/extra/layouts/grid/lv_grid.c **** {
 186:Middlewares/LVGL/GUI/lvgl/src/extra/layouts/grid/lv_grid.c ****     lv_style_value_t v = {
 187:Middlewares/LVGL/GUI/lvgl/src/extra/layouts/grid/lv_grid.c ****         .ptr = (const void *)value
 188:Middlewares/LVGL/GUI/lvgl/src/extra/layouts/grid/lv_grid.c ****     };
 189:Middlewares/LVGL/GUI/lvgl/src/extra/layouts/grid/lv_grid.c ****     lv_style_set_prop(style, LV_STYLE_GRID_COLUMN_DSC_ARRAY, v);
 190:Middlewares/LVGL/GUI/lvgl/src/extra/layouts/grid/lv_grid.c **** }
 191:Middlewares/LVGL/GUI/lvgl/src/extra/layouts/grid/lv_grid.c **** 
 192:Middlewares/LVGL/GUI/lvgl/src/extra/layouts/grid/lv_grid.c **** void lv_style_set_grid_row_align(lv_style_t * style, lv_grid_align_t value)
 193:Middlewares/LVGL/GUI/lvgl/src/extra/layouts/grid/lv_grid.c **** {
 194:Middlewares/LVGL/GUI/lvgl/src/extra/layouts/grid/lv_grid.c ****     lv_style_value_t v = {
 195:Middlewares/LVGL/GUI/lvgl/src/extra/layouts/grid/lv_grid.c ****         .num = (lv_grid_align_t)value
 196:Middlewares/LVGL/GUI/lvgl/src/extra/layouts/grid/lv_grid.c ****     };
 197:Middlewares/LVGL/GUI/lvgl/src/extra/layouts/grid/lv_grid.c ****     lv_style_set_prop(style, LV_STYLE_GRID_ROW_ALIGN, v);
 198:Middlewares/LVGL/GUI/lvgl/src/extra/layouts/grid/lv_grid.c **** }
 199:Middlewares/LVGL/GUI/lvgl/src/extra/layouts/grid/lv_grid.c **** 
 200:Middlewares/LVGL/GUI/lvgl/src/extra/layouts/grid/lv_grid.c **** void lv_style_set_grid_column_align(lv_style_t * style, lv_grid_align_t value)
 201:Middlewares/LVGL/GUI/lvgl/src/extra/layouts/grid/lv_grid.c **** {
ARM GAS  C:\Users\ADMINI~1\AppData\Local\Temp\cc6Bhsgy.s 			page 5


 202:Middlewares/LVGL/GUI/lvgl/src/extra/layouts/grid/lv_grid.c ****     lv_style_value_t v = {
 203:Middlewares/LVGL/GUI/lvgl/src/extra/layouts/grid/lv_grid.c ****         .num = (lv_grid_align_t)value
 204:Middlewares/LVGL/GUI/lvgl/src/extra/layouts/grid/lv_grid.c ****     };
 205:Middlewares/LVGL/GUI/lvgl/src/extra/layouts/grid/lv_grid.c ****     lv_style_set_prop(style, LV_STYLE_GRID_COLUMN_ALIGN, v);
 206:Middlewares/LVGL/GUI/lvgl/src/extra/layouts/grid/lv_grid.c **** }
 207:Middlewares/LVGL/GUI/lvgl/src/extra/layouts/grid/lv_grid.c **** 
 208:Middlewares/LVGL/GUI/lvgl/src/extra/layouts/grid/lv_grid.c **** 
 209:Middlewares/LVGL/GUI/lvgl/src/extra/layouts/grid/lv_grid.c **** void lv_style_set_grid_cell_column_pos(lv_style_t * style, lv_coord_t value)
 210:Middlewares/LVGL/GUI/lvgl/src/extra/layouts/grid/lv_grid.c **** {
 211:Middlewares/LVGL/GUI/lvgl/src/extra/layouts/grid/lv_grid.c ****     lv_style_value_t v = {
 212:Middlewares/LVGL/GUI/lvgl/src/extra/layouts/grid/lv_grid.c ****         .num = value
 213:Middlewares/LVGL/GUI/lvgl/src/extra/layouts/grid/lv_grid.c ****     };
 214:Middlewares/LVGL/GUI/lvgl/src/extra/layouts/grid/lv_grid.c ****     lv_style_set_prop(style, LV_STYLE_GRID_CELL_COLUMN_POS, v);
 215:Middlewares/LVGL/GUI/lvgl/src/extra/layouts/grid/lv_grid.c **** }
 216:Middlewares/LVGL/GUI/lvgl/src/extra/layouts/grid/lv_grid.c **** 
 217:Middlewares/LVGL/GUI/lvgl/src/extra/layouts/grid/lv_grid.c **** void lv_style_set_grid_cell_column_span(lv_style_t * style, lv_coord_t value)
 218:Middlewares/LVGL/GUI/lvgl/src/extra/layouts/grid/lv_grid.c **** {
 219:Middlewares/LVGL/GUI/lvgl/src/extra/layouts/grid/lv_grid.c ****     lv_style_value_t v = {
 220:Middlewares/LVGL/GUI/lvgl/src/extra/layouts/grid/lv_grid.c ****         .num = value
 221:Middlewares/LVGL/GUI/lvgl/src/extra/layouts/grid/lv_grid.c ****     };
 222:Middlewares/LVGL/GUI/lvgl/src/extra/layouts/grid/lv_grid.c ****     lv_style_set_prop(style, LV_STYLE_GRID_CELL_COLUMN_SPAN, v);
 223:Middlewares/LVGL/GUI/lvgl/src/extra/layouts/grid/lv_grid.c **** }
 224:Middlewares/LVGL/GUI/lvgl/src/extra/layouts/grid/lv_grid.c **** 
 225:Middlewares/LVGL/GUI/lvgl/src/extra/layouts/grid/lv_grid.c **** void lv_style_set_grid_cell_row_pos(lv_style_t * style, lv_coord_t value)
 226:Middlewares/LVGL/GUI/lvgl/src/extra/layouts/grid/lv_grid.c **** {
 227:Middlewares/LVGL/GUI/lvgl/src/extra/layouts/grid/lv_grid.c ****     lv_style_value_t v = {
 228:Middlewares/LVGL/GUI/lvgl/src/extra/layouts/grid/lv_grid.c ****         .num = value
 229:Middlewares/LVGL/GUI/lvgl/src/extra/layouts/grid/lv_grid.c ****     };
 230:Middlewares/LVGL/GUI/lvgl/src/extra/layouts/grid/lv_grid.c ****     lv_style_set_prop(style, LV_STYLE_GRID_CELL_ROW_POS, v);
 231:Middlewares/LVGL/GUI/lvgl/src/extra/layouts/grid/lv_grid.c **** }
 232:Middlewares/LVGL/GUI/lvgl/src/extra/layouts/grid/lv_grid.c **** 
 233:Middlewares/LVGL/GUI/lvgl/src/extra/layouts/grid/lv_grid.c **** void lv_style_set_grid_cell_row_span(lv_style_t * style, lv_coord_t value)
 234:Middlewares/LVGL/GUI/lvgl/src/extra/layouts/grid/lv_grid.c **** {
 235:Middlewares/LVGL/GUI/lvgl/src/extra/layouts/grid/lv_grid.c ****     lv_style_value_t v = {
 236:Middlewares/LVGL/GUI/lvgl/src/extra/layouts/grid/lv_grid.c ****         .num = value
 237:Middlewares/LVGL/GUI/lvgl/src/extra/layouts/grid/lv_grid.c ****     };
 238:Middlewares/LVGL/GUI/lvgl/src/extra/layouts/grid/lv_grid.c ****     lv_style_set_prop(style, LV_STYLE_GRID_CELL_ROW_SPAN, v);
 239:Middlewares/LVGL/GUI/lvgl/src/extra/layouts/grid/lv_grid.c **** }
 240:Middlewares/LVGL/GUI/lvgl/src/extra/layouts/grid/lv_grid.c **** 
 241:Middlewares/LVGL/GUI/lvgl/src/extra/layouts/grid/lv_grid.c **** void lv_style_set_grid_cell_x_align(lv_style_t * style, lv_coord_t value)
 242:Middlewares/LVGL/GUI/lvgl/src/extra/layouts/grid/lv_grid.c **** {
 243:Middlewares/LVGL/GUI/lvgl/src/extra/layouts/grid/lv_grid.c ****     lv_style_value_t v = {
 244:Middlewares/LVGL/GUI/lvgl/src/extra/layouts/grid/lv_grid.c ****         .num = value
 245:Middlewares/LVGL/GUI/lvgl/src/extra/layouts/grid/lv_grid.c ****     };
 246:Middlewares/LVGL/GUI/lvgl/src/extra/layouts/grid/lv_grid.c ****     lv_style_set_prop(style, LV_STYLE_GRID_CELL_X_ALIGN, v);
 247:Middlewares/LVGL/GUI/lvgl/src/extra/layouts/grid/lv_grid.c **** }
 248:Middlewares/LVGL/GUI/lvgl/src/extra/layouts/grid/lv_grid.c **** 
 249:Middlewares/LVGL/GUI/lvgl/src/extra/layouts/grid/lv_grid.c **** void lv_style_set_grid_cell_y_align(lv_style_t * style, lv_coord_t value)
 250:Middlewares/LVGL/GUI/lvgl/src/extra/layouts/grid/lv_grid.c **** {
 251:Middlewares/LVGL/GUI/lvgl/src/extra/layouts/grid/lv_grid.c ****     lv_style_value_t v = {
 252:Middlewares/LVGL/GUI/lvgl/src/extra/layouts/grid/lv_grid.c ****         .num = value
 253:Middlewares/LVGL/GUI/lvgl/src/extra/layouts/grid/lv_grid.c ****     };
 254:Middlewares/LVGL/GUI/lvgl/src/extra/layouts/grid/lv_grid.c ****     lv_style_set_prop(style, LV_STYLE_GRID_CELL_Y_ALIGN, v);
 255:Middlewares/LVGL/GUI/lvgl/src/extra/layouts/grid/lv_grid.c **** }
 256:Middlewares/LVGL/GUI/lvgl/src/extra/layouts/grid/lv_grid.c **** 
 257:Middlewares/LVGL/GUI/lvgl/src/extra/layouts/grid/lv_grid.c **** void lv_obj_set_style_grid_row_dsc_array(lv_obj_t * obj, const lv_coord_t value[], lv_style_selecto
 258:Middlewares/LVGL/GUI/lvgl/src/extra/layouts/grid/lv_grid.c **** {
ARM GAS  C:\Users\ADMINI~1\AppData\Local\Temp\cc6Bhsgy.s 			page 6


 259:Middlewares/LVGL/GUI/lvgl/src/extra/layouts/grid/lv_grid.c ****     lv_style_value_t v = {
 260:Middlewares/LVGL/GUI/lvgl/src/extra/layouts/grid/lv_grid.c ****         .ptr = (const void *)value
 261:Middlewares/LVGL/GUI/lvgl/src/extra/layouts/grid/lv_grid.c ****     };
 262:Middlewares/LVGL/GUI/lvgl/src/extra/layouts/grid/lv_grid.c ****     lv_obj_set_local_style_prop(obj, LV_STYLE_GRID_ROW_DSC_ARRAY, v, selector);
 263:Middlewares/LVGL/GUI/lvgl/src/extra/layouts/grid/lv_grid.c **** }
 264:Middlewares/LVGL/GUI/lvgl/src/extra/layouts/grid/lv_grid.c **** 
 265:Middlewares/LVGL/GUI/lvgl/src/extra/layouts/grid/lv_grid.c **** void lv_obj_set_style_grid_column_dsc_array(lv_obj_t * obj, const lv_coord_t value[], lv_style_sele
 266:Middlewares/LVGL/GUI/lvgl/src/extra/layouts/grid/lv_grid.c **** {
 267:Middlewares/LVGL/GUI/lvgl/src/extra/layouts/grid/lv_grid.c ****     lv_style_value_t v = {
 268:Middlewares/LVGL/GUI/lvgl/src/extra/layouts/grid/lv_grid.c ****         .ptr = (const void *)value
 269:Middlewares/LVGL/GUI/lvgl/src/extra/layouts/grid/lv_grid.c ****     };
 270:Middlewares/LVGL/GUI/lvgl/src/extra/layouts/grid/lv_grid.c ****     lv_obj_set_local_style_prop(obj, LV_STYLE_GRID_COLUMN_DSC_ARRAY, v, selector);
 271:Middlewares/LVGL/GUI/lvgl/src/extra/layouts/grid/lv_grid.c **** }
 272:Middlewares/LVGL/GUI/lvgl/src/extra/layouts/grid/lv_grid.c **** 
 273:Middlewares/LVGL/GUI/lvgl/src/extra/layouts/grid/lv_grid.c **** 
 274:Middlewares/LVGL/GUI/lvgl/src/extra/layouts/grid/lv_grid.c **** void lv_obj_set_style_grid_row_align(lv_obj_t * obj, lv_grid_align_t value, lv_style_selector_t sel
 275:Middlewares/LVGL/GUI/lvgl/src/extra/layouts/grid/lv_grid.c **** {
 276:Middlewares/LVGL/GUI/lvgl/src/extra/layouts/grid/lv_grid.c ****     lv_style_value_t v = {
 277:Middlewares/LVGL/GUI/lvgl/src/extra/layouts/grid/lv_grid.c ****         .num = (int32_t) value
 278:Middlewares/LVGL/GUI/lvgl/src/extra/layouts/grid/lv_grid.c ****     };
 279:Middlewares/LVGL/GUI/lvgl/src/extra/layouts/grid/lv_grid.c ****     lv_obj_set_local_style_prop(obj, LV_STYLE_GRID_ROW_ALIGN, v, selector);
 280:Middlewares/LVGL/GUI/lvgl/src/extra/layouts/grid/lv_grid.c **** }
 281:Middlewares/LVGL/GUI/lvgl/src/extra/layouts/grid/lv_grid.c **** 
 282:Middlewares/LVGL/GUI/lvgl/src/extra/layouts/grid/lv_grid.c **** void lv_obj_set_style_grid_column_align(lv_obj_t * obj, lv_grid_align_t value, lv_style_selector_t 
 283:Middlewares/LVGL/GUI/lvgl/src/extra/layouts/grid/lv_grid.c **** {
 284:Middlewares/LVGL/GUI/lvgl/src/extra/layouts/grid/lv_grid.c ****     lv_style_value_t v = {
 285:Middlewares/LVGL/GUI/lvgl/src/extra/layouts/grid/lv_grid.c ****         .num = (int32_t) value
 286:Middlewares/LVGL/GUI/lvgl/src/extra/layouts/grid/lv_grid.c ****     };
 287:Middlewares/LVGL/GUI/lvgl/src/extra/layouts/grid/lv_grid.c ****     lv_obj_set_local_style_prop(obj, LV_STYLE_GRID_COLUMN_ALIGN, v, selector);
 288:Middlewares/LVGL/GUI/lvgl/src/extra/layouts/grid/lv_grid.c **** }
 289:Middlewares/LVGL/GUI/lvgl/src/extra/layouts/grid/lv_grid.c **** 
 290:Middlewares/LVGL/GUI/lvgl/src/extra/layouts/grid/lv_grid.c **** 
 291:Middlewares/LVGL/GUI/lvgl/src/extra/layouts/grid/lv_grid.c **** void lv_obj_set_style_grid_cell_column_pos(lv_obj_t * obj, lv_coord_t value, lv_style_selector_t se
 292:Middlewares/LVGL/GUI/lvgl/src/extra/layouts/grid/lv_grid.c **** {
 293:Middlewares/LVGL/GUI/lvgl/src/extra/layouts/grid/lv_grid.c ****     lv_style_value_t v = {
 294:Middlewares/LVGL/GUI/lvgl/src/extra/layouts/grid/lv_grid.c ****         .num = value
 295:Middlewares/LVGL/GUI/lvgl/src/extra/layouts/grid/lv_grid.c ****     };
 296:Middlewares/LVGL/GUI/lvgl/src/extra/layouts/grid/lv_grid.c ****     lv_obj_set_local_style_prop(obj, LV_STYLE_GRID_CELL_COLUMN_POS, v, selector);
 297:Middlewares/LVGL/GUI/lvgl/src/extra/layouts/grid/lv_grid.c **** }
 298:Middlewares/LVGL/GUI/lvgl/src/extra/layouts/grid/lv_grid.c **** 
 299:Middlewares/LVGL/GUI/lvgl/src/extra/layouts/grid/lv_grid.c **** void lv_obj_set_style_grid_cell_column_span(lv_obj_t * obj, lv_coord_t value, lv_style_selector_t s
 300:Middlewares/LVGL/GUI/lvgl/src/extra/layouts/grid/lv_grid.c **** {
 301:Middlewares/LVGL/GUI/lvgl/src/extra/layouts/grid/lv_grid.c ****     lv_style_value_t v = {
 302:Middlewares/LVGL/GUI/lvgl/src/extra/layouts/grid/lv_grid.c ****         .num = value
 303:Middlewares/LVGL/GUI/lvgl/src/extra/layouts/grid/lv_grid.c ****     };
 304:Middlewares/LVGL/GUI/lvgl/src/extra/layouts/grid/lv_grid.c ****     lv_obj_set_local_style_prop(obj, LV_STYLE_GRID_CELL_COLUMN_SPAN, v, selector);
 305:Middlewares/LVGL/GUI/lvgl/src/extra/layouts/grid/lv_grid.c **** }
 306:Middlewares/LVGL/GUI/lvgl/src/extra/layouts/grid/lv_grid.c **** 
 307:Middlewares/LVGL/GUI/lvgl/src/extra/layouts/grid/lv_grid.c **** void lv_obj_set_style_grid_cell_row_pos(lv_obj_t * obj, lv_coord_t value, lv_style_selector_t selec
 308:Middlewares/LVGL/GUI/lvgl/src/extra/layouts/grid/lv_grid.c **** {
 309:Middlewares/LVGL/GUI/lvgl/src/extra/layouts/grid/lv_grid.c ****     lv_style_value_t v = {
 310:Middlewares/LVGL/GUI/lvgl/src/extra/layouts/grid/lv_grid.c ****         .num = value
 311:Middlewares/LVGL/GUI/lvgl/src/extra/layouts/grid/lv_grid.c ****     };
 312:Middlewares/LVGL/GUI/lvgl/src/extra/layouts/grid/lv_grid.c ****     lv_obj_set_local_style_prop(obj, LV_STYLE_GRID_CELL_ROW_POS, v, selector);
 313:Middlewares/LVGL/GUI/lvgl/src/extra/layouts/grid/lv_grid.c **** }
 314:Middlewares/LVGL/GUI/lvgl/src/extra/layouts/grid/lv_grid.c **** 
 315:Middlewares/LVGL/GUI/lvgl/src/extra/layouts/grid/lv_grid.c **** void lv_obj_set_style_grid_cell_row_span(lv_obj_t * obj, lv_coord_t value, lv_style_selector_t sele
ARM GAS  C:\Users\ADMINI~1\AppData\Local\Temp\cc6Bhsgy.s 			page 7


 316:Middlewares/LVGL/GUI/lvgl/src/extra/layouts/grid/lv_grid.c **** {
 317:Middlewares/LVGL/GUI/lvgl/src/extra/layouts/grid/lv_grid.c ****     lv_style_value_t v = {
 318:Middlewares/LVGL/GUI/lvgl/src/extra/layouts/grid/lv_grid.c ****         .num = value
 319:Middlewares/LVGL/GUI/lvgl/src/extra/layouts/grid/lv_grid.c ****     };
 320:Middlewares/LVGL/GUI/lvgl/src/extra/layouts/grid/lv_grid.c ****     lv_obj_set_local_style_prop(obj, LV_STYLE_GRID_CELL_ROW_SPAN, v, selector);
 321:Middlewares/LVGL/GUI/lvgl/src/extra/layouts/grid/lv_grid.c **** }
 322:Middlewares/LVGL/GUI/lvgl/src/extra/layouts/grid/lv_grid.c **** 
 323:Middlewares/LVGL/GUI/lvgl/src/extra/layouts/grid/lv_grid.c **** void lv_obj_set_style_grid_cell_x_align(lv_obj_t * obj, lv_coord_t value, lv_style_selector_t selec
 324:Middlewares/LVGL/GUI/lvgl/src/extra/layouts/grid/lv_grid.c **** {
 325:Middlewares/LVGL/GUI/lvgl/src/extra/layouts/grid/lv_grid.c ****     lv_style_value_t v = {
 326:Middlewares/LVGL/GUI/lvgl/src/extra/layouts/grid/lv_grid.c ****         .num = value
 327:Middlewares/LVGL/GUI/lvgl/src/extra/layouts/grid/lv_grid.c ****     };
 328:Middlewares/LVGL/GUI/lvgl/src/extra/layouts/grid/lv_grid.c ****     lv_obj_set_local_style_prop(obj, LV_STYLE_GRID_CELL_X_ALIGN, v, selector);
 329:Middlewares/LVGL/GUI/lvgl/src/extra/layouts/grid/lv_grid.c **** }
 330:Middlewares/LVGL/GUI/lvgl/src/extra/layouts/grid/lv_grid.c **** 
 331:Middlewares/LVGL/GUI/lvgl/src/extra/layouts/grid/lv_grid.c **** void lv_obj_set_style_grid_cell_y_align(lv_obj_t * obj, lv_coord_t value, lv_style_selector_t selec
 332:Middlewares/LVGL/GUI/lvgl/src/extra/layouts/grid/lv_grid.c **** {
 333:Middlewares/LVGL/GUI/lvgl/src/extra/layouts/grid/lv_grid.c ****     lv_style_value_t v = {
 334:Middlewares/LVGL/GUI/lvgl/src/extra/layouts/grid/lv_grid.c ****         .num = value
 335:Middlewares/LVGL/GUI/lvgl/src/extra/layouts/grid/lv_grid.c ****     };
 336:Middlewares/LVGL/GUI/lvgl/src/extra/layouts/grid/lv_grid.c ****     lv_obj_set_local_style_prop(obj, LV_STYLE_GRID_CELL_Y_ALIGN, v, selector);
 337:Middlewares/LVGL/GUI/lvgl/src/extra/layouts/grid/lv_grid.c **** }
 338:Middlewares/LVGL/GUI/lvgl/src/extra/layouts/grid/lv_grid.c **** 
 339:Middlewares/LVGL/GUI/lvgl/src/extra/layouts/grid/lv_grid.c **** 
 340:Middlewares/LVGL/GUI/lvgl/src/extra/layouts/grid/lv_grid.c **** /**********************
 341:Middlewares/LVGL/GUI/lvgl/src/extra/layouts/grid/lv_grid.c ****  *   STATIC FUNCTIONS
 342:Middlewares/LVGL/GUI/lvgl/src/extra/layouts/grid/lv_grid.c ****  **********************/
 343:Middlewares/LVGL/GUI/lvgl/src/extra/layouts/grid/lv_grid.c **** 
 344:Middlewares/LVGL/GUI/lvgl/src/extra/layouts/grid/lv_grid.c **** static void grid_update(lv_obj_t * cont, void * user_data)
 345:Middlewares/LVGL/GUI/lvgl/src/extra/layouts/grid/lv_grid.c **** {
 346:Middlewares/LVGL/GUI/lvgl/src/extra/layouts/grid/lv_grid.c ****     LV_LOG_INFO("update %p container", (void *)cont);
 347:Middlewares/LVGL/GUI/lvgl/src/extra/layouts/grid/lv_grid.c ****     LV_UNUSED(user_data);
 348:Middlewares/LVGL/GUI/lvgl/src/extra/layouts/grid/lv_grid.c **** 
 349:Middlewares/LVGL/GUI/lvgl/src/extra/layouts/grid/lv_grid.c ****     const lv_coord_t * col_templ = get_col_dsc(cont);
 350:Middlewares/LVGL/GUI/lvgl/src/extra/layouts/grid/lv_grid.c ****     const lv_coord_t * row_templ = get_row_dsc(cont);
 351:Middlewares/LVGL/GUI/lvgl/src/extra/layouts/grid/lv_grid.c ****     if(col_templ == NULL || row_templ == NULL) return;
 352:Middlewares/LVGL/GUI/lvgl/src/extra/layouts/grid/lv_grid.c **** 
 353:Middlewares/LVGL/GUI/lvgl/src/extra/layouts/grid/lv_grid.c ****     _lv_grid_calc_t c;
 354:Middlewares/LVGL/GUI/lvgl/src/extra/layouts/grid/lv_grid.c ****     calc(cont, &c);
 355:Middlewares/LVGL/GUI/lvgl/src/extra/layouts/grid/lv_grid.c **** 
 356:Middlewares/LVGL/GUI/lvgl/src/extra/layouts/grid/lv_grid.c ****     item_repos_hint_t hint;
 357:Middlewares/LVGL/GUI/lvgl/src/extra/layouts/grid/lv_grid.c ****     lv_memset_00(&hint, sizeof(hint));
 358:Middlewares/LVGL/GUI/lvgl/src/extra/layouts/grid/lv_grid.c **** 
 359:Middlewares/LVGL/GUI/lvgl/src/extra/layouts/grid/lv_grid.c ****     /*Calculate the grids absolute x and y coordinates.
 360:Middlewares/LVGL/GUI/lvgl/src/extra/layouts/grid/lv_grid.c ****      *It will be used as helper during item repositioning to avoid calculating this value for every
 361:Middlewares/LVGL/GUI/lvgl/src/extra/layouts/grid/lv_grid.c ****     lv_coord_t border_widt = lv_obj_get_style_border_width(cont, LV_PART_MAIN);
 362:Middlewares/LVGL/GUI/lvgl/src/extra/layouts/grid/lv_grid.c ****     lv_coord_t pad_left = lv_obj_get_style_pad_left(cont, LV_PART_MAIN) + border_widt;
 363:Middlewares/LVGL/GUI/lvgl/src/extra/layouts/grid/lv_grid.c ****     lv_coord_t pad_top = lv_obj_get_style_pad_top(cont, LV_PART_MAIN) + border_widt;
 364:Middlewares/LVGL/GUI/lvgl/src/extra/layouts/grid/lv_grid.c ****     hint.grid_abs.x = pad_left + cont->coords.x1 - lv_obj_get_scroll_x(cont);
 365:Middlewares/LVGL/GUI/lvgl/src/extra/layouts/grid/lv_grid.c ****     hint.grid_abs.y = pad_top + cont->coords.y1 - lv_obj_get_scroll_y(cont);
 366:Middlewares/LVGL/GUI/lvgl/src/extra/layouts/grid/lv_grid.c **** 
 367:Middlewares/LVGL/GUI/lvgl/src/extra/layouts/grid/lv_grid.c ****     uint32_t i;
 368:Middlewares/LVGL/GUI/lvgl/src/extra/layouts/grid/lv_grid.c ****     for(i = 0; i < cont->spec_attr->child_cnt; i++) {
 369:Middlewares/LVGL/GUI/lvgl/src/extra/layouts/grid/lv_grid.c ****         lv_obj_t * item = cont->spec_attr->children[i];
 370:Middlewares/LVGL/GUI/lvgl/src/extra/layouts/grid/lv_grid.c ****         item_repos(item, &c, &hint);
 371:Middlewares/LVGL/GUI/lvgl/src/extra/layouts/grid/lv_grid.c ****     }
 372:Middlewares/LVGL/GUI/lvgl/src/extra/layouts/grid/lv_grid.c ****     calc_free(&c);
ARM GAS  C:\Users\ADMINI~1\AppData\Local\Temp\cc6Bhsgy.s 			page 8


 373:Middlewares/LVGL/GUI/lvgl/src/extra/layouts/grid/lv_grid.c **** 
 374:Middlewares/LVGL/GUI/lvgl/src/extra/layouts/grid/lv_grid.c ****     lv_coord_t w_set = lv_obj_get_style_width(cont, LV_PART_MAIN);
 375:Middlewares/LVGL/GUI/lvgl/src/extra/layouts/grid/lv_grid.c ****     lv_coord_t h_set = lv_obj_get_style_height(cont, LV_PART_MAIN);
 376:Middlewares/LVGL/GUI/lvgl/src/extra/layouts/grid/lv_grid.c ****     if(w_set == LV_SIZE_CONTENT || h_set == LV_SIZE_CONTENT) {
 377:Middlewares/LVGL/GUI/lvgl/src/extra/layouts/grid/lv_grid.c ****         lv_obj_refr_size(cont);
 378:Middlewares/LVGL/GUI/lvgl/src/extra/layouts/grid/lv_grid.c ****     }
 379:Middlewares/LVGL/GUI/lvgl/src/extra/layouts/grid/lv_grid.c **** 
 380:Middlewares/LVGL/GUI/lvgl/src/extra/layouts/grid/lv_grid.c ****     lv_event_send(cont, LV_EVENT_LAYOUT_CHANGED, NULL);
 381:Middlewares/LVGL/GUI/lvgl/src/extra/layouts/grid/lv_grid.c **** 
 382:Middlewares/LVGL/GUI/lvgl/src/extra/layouts/grid/lv_grid.c ****     LV_TRACE_LAYOUT("finished");
 383:Middlewares/LVGL/GUI/lvgl/src/extra/layouts/grid/lv_grid.c **** }
 384:Middlewares/LVGL/GUI/lvgl/src/extra/layouts/grid/lv_grid.c **** 
 385:Middlewares/LVGL/GUI/lvgl/src/extra/layouts/grid/lv_grid.c **** /**
 386:Middlewares/LVGL/GUI/lvgl/src/extra/layouts/grid/lv_grid.c ****  * Calculate the grid cells coordinates
 387:Middlewares/LVGL/GUI/lvgl/src/extra/layouts/grid/lv_grid.c ****  * @param cont an object that has a grid
 388:Middlewares/LVGL/GUI/lvgl/src/extra/layouts/grid/lv_grid.c ****  * @param calc store the calculated cells sizes here
 389:Middlewares/LVGL/GUI/lvgl/src/extra/layouts/grid/lv_grid.c ****  * @note `_lv_grid_calc_free(calc_out)` needs to be called when `calc_out` is not needed anymore
 390:Middlewares/LVGL/GUI/lvgl/src/extra/layouts/grid/lv_grid.c ****  */
 391:Middlewares/LVGL/GUI/lvgl/src/extra/layouts/grid/lv_grid.c **** static void calc(lv_obj_t * cont, _lv_grid_calc_t * calc_out)
 392:Middlewares/LVGL/GUI/lvgl/src/extra/layouts/grid/lv_grid.c **** {
 393:Middlewares/LVGL/GUI/lvgl/src/extra/layouts/grid/lv_grid.c ****     if(lv_obj_get_child(cont, 0) == NULL) {
 394:Middlewares/LVGL/GUI/lvgl/src/extra/layouts/grid/lv_grid.c ****         lv_memset_00(calc_out, sizeof(_lv_grid_calc_t));
 395:Middlewares/LVGL/GUI/lvgl/src/extra/layouts/grid/lv_grid.c ****         return;
 396:Middlewares/LVGL/GUI/lvgl/src/extra/layouts/grid/lv_grid.c ****     }
 397:Middlewares/LVGL/GUI/lvgl/src/extra/layouts/grid/lv_grid.c **** 
 398:Middlewares/LVGL/GUI/lvgl/src/extra/layouts/grid/lv_grid.c ****     calc_rows(cont, calc_out);
 399:Middlewares/LVGL/GUI/lvgl/src/extra/layouts/grid/lv_grid.c ****     calc_cols(cont, calc_out);
 400:Middlewares/LVGL/GUI/lvgl/src/extra/layouts/grid/lv_grid.c **** 
 401:Middlewares/LVGL/GUI/lvgl/src/extra/layouts/grid/lv_grid.c ****     lv_coord_t col_gap = lv_obj_get_style_pad_column(cont, LV_PART_MAIN);
 402:Middlewares/LVGL/GUI/lvgl/src/extra/layouts/grid/lv_grid.c ****     lv_coord_t row_gap = lv_obj_get_style_pad_row(cont, LV_PART_MAIN);
 403:Middlewares/LVGL/GUI/lvgl/src/extra/layouts/grid/lv_grid.c **** 
 404:Middlewares/LVGL/GUI/lvgl/src/extra/layouts/grid/lv_grid.c ****     bool rev = lv_obj_get_style_base_dir(cont, LV_PART_MAIN) == LV_BASE_DIR_RTL ? true : false;
 405:Middlewares/LVGL/GUI/lvgl/src/extra/layouts/grid/lv_grid.c **** 
 406:Middlewares/LVGL/GUI/lvgl/src/extra/layouts/grid/lv_grid.c ****     lv_coord_t w_set = lv_obj_get_style_width(cont, LV_PART_MAIN);
 407:Middlewares/LVGL/GUI/lvgl/src/extra/layouts/grid/lv_grid.c ****     lv_coord_t h_set = lv_obj_get_style_height(cont, LV_PART_MAIN);
 408:Middlewares/LVGL/GUI/lvgl/src/extra/layouts/grid/lv_grid.c ****     bool auto_w = (w_set == LV_SIZE_CONTENT && !cont->w_layout) ? true : false;
 409:Middlewares/LVGL/GUI/lvgl/src/extra/layouts/grid/lv_grid.c ****     lv_coord_t cont_w = lv_obj_get_content_width(cont);
 410:Middlewares/LVGL/GUI/lvgl/src/extra/layouts/grid/lv_grid.c ****     calc_out->grid_w = grid_align(cont_w, auto_w, get_grid_col_align(cont), col_gap, calc_out->col_
 411:Middlewares/LVGL/GUI/lvgl/src/extra/layouts/grid/lv_grid.c ****                                   calc_out->x, rev);
 412:Middlewares/LVGL/GUI/lvgl/src/extra/layouts/grid/lv_grid.c **** 
 413:Middlewares/LVGL/GUI/lvgl/src/extra/layouts/grid/lv_grid.c ****     bool auto_h = (h_set == LV_SIZE_CONTENT && !cont->h_layout) ? true : false;
 414:Middlewares/LVGL/GUI/lvgl/src/extra/layouts/grid/lv_grid.c ****     lv_coord_t cont_h = lv_obj_get_content_height(cont);
 415:Middlewares/LVGL/GUI/lvgl/src/extra/layouts/grid/lv_grid.c ****     calc_out->grid_h = grid_align(cont_h, auto_h, get_grid_row_align(cont), row_gap, calc_out->row_
 416:Middlewares/LVGL/GUI/lvgl/src/extra/layouts/grid/lv_grid.c ****                                   calc_out->y, false);
 417:Middlewares/LVGL/GUI/lvgl/src/extra/layouts/grid/lv_grid.c **** 
 418:Middlewares/LVGL/GUI/lvgl/src/extra/layouts/grid/lv_grid.c ****     LV_ASSERT_MEM_INTEGRITY();
 419:Middlewares/LVGL/GUI/lvgl/src/extra/layouts/grid/lv_grid.c **** }
 420:Middlewares/LVGL/GUI/lvgl/src/extra/layouts/grid/lv_grid.c **** 
 421:Middlewares/LVGL/GUI/lvgl/src/extra/layouts/grid/lv_grid.c **** /**
 422:Middlewares/LVGL/GUI/lvgl/src/extra/layouts/grid/lv_grid.c ****  * Free the a grid calculation's data
 423:Middlewares/LVGL/GUI/lvgl/src/extra/layouts/grid/lv_grid.c ****  * @param calc pointer to the calculated grid cell coordinates
 424:Middlewares/LVGL/GUI/lvgl/src/extra/layouts/grid/lv_grid.c ****  */
 425:Middlewares/LVGL/GUI/lvgl/src/extra/layouts/grid/lv_grid.c **** static void calc_free(_lv_grid_calc_t * calc)
 426:Middlewares/LVGL/GUI/lvgl/src/extra/layouts/grid/lv_grid.c **** {
 427:Middlewares/LVGL/GUI/lvgl/src/extra/layouts/grid/lv_grid.c ****     lv_mem_buf_release(calc->x);
 428:Middlewares/LVGL/GUI/lvgl/src/extra/layouts/grid/lv_grid.c ****     lv_mem_buf_release(calc->y);
 429:Middlewares/LVGL/GUI/lvgl/src/extra/layouts/grid/lv_grid.c ****     lv_mem_buf_release(calc->w);
ARM GAS  C:\Users\ADMINI~1\AppData\Local\Temp\cc6Bhsgy.s 			page 9


 430:Middlewares/LVGL/GUI/lvgl/src/extra/layouts/grid/lv_grid.c ****     lv_mem_buf_release(calc->h);
 431:Middlewares/LVGL/GUI/lvgl/src/extra/layouts/grid/lv_grid.c **** }
 432:Middlewares/LVGL/GUI/lvgl/src/extra/layouts/grid/lv_grid.c **** 
 433:Middlewares/LVGL/GUI/lvgl/src/extra/layouts/grid/lv_grid.c **** static void calc_cols(lv_obj_t * cont, _lv_grid_calc_t * c)
 434:Middlewares/LVGL/GUI/lvgl/src/extra/layouts/grid/lv_grid.c **** {
 435:Middlewares/LVGL/GUI/lvgl/src/extra/layouts/grid/lv_grid.c ****     const lv_coord_t * col_templ = get_col_dsc(cont);
 436:Middlewares/LVGL/GUI/lvgl/src/extra/layouts/grid/lv_grid.c ****     lv_coord_t cont_w = lv_obj_get_content_width(cont);
 437:Middlewares/LVGL/GUI/lvgl/src/extra/layouts/grid/lv_grid.c **** 
 438:Middlewares/LVGL/GUI/lvgl/src/extra/layouts/grid/lv_grid.c ****     c->col_num = count_tracks(col_templ);
 439:Middlewares/LVGL/GUI/lvgl/src/extra/layouts/grid/lv_grid.c ****     c->x = lv_mem_buf_get(sizeof(lv_coord_t) * c->col_num);
 440:Middlewares/LVGL/GUI/lvgl/src/extra/layouts/grid/lv_grid.c ****     c->w = lv_mem_buf_get(sizeof(lv_coord_t) * c->col_num);
 441:Middlewares/LVGL/GUI/lvgl/src/extra/layouts/grid/lv_grid.c **** 
 442:Middlewares/LVGL/GUI/lvgl/src/extra/layouts/grid/lv_grid.c ****     /*Set sizes for CONTENT cells*/
 443:Middlewares/LVGL/GUI/lvgl/src/extra/layouts/grid/lv_grid.c ****     uint32_t i;
 444:Middlewares/LVGL/GUI/lvgl/src/extra/layouts/grid/lv_grid.c ****     for(i = 0; i < c->col_num; i++) {
 445:Middlewares/LVGL/GUI/lvgl/src/extra/layouts/grid/lv_grid.c ****         lv_coord_t size = LV_COORD_MIN;
 446:Middlewares/LVGL/GUI/lvgl/src/extra/layouts/grid/lv_grid.c ****         if(IS_CONTENT(col_templ[i])) {
 447:Middlewares/LVGL/GUI/lvgl/src/extra/layouts/grid/lv_grid.c ****             /*Check the size of children of this cell*/
 448:Middlewares/LVGL/GUI/lvgl/src/extra/layouts/grid/lv_grid.c ****             uint32_t ci;
 449:Middlewares/LVGL/GUI/lvgl/src/extra/layouts/grid/lv_grid.c ****             for(ci = 0; ci < lv_obj_get_child_cnt(cont); ci++) {
 450:Middlewares/LVGL/GUI/lvgl/src/extra/layouts/grid/lv_grid.c ****                 lv_obj_t * item = lv_obj_get_child(cont, ci);
 451:Middlewares/LVGL/GUI/lvgl/src/extra/layouts/grid/lv_grid.c ****                 if(lv_obj_has_flag_any(item, LV_OBJ_FLAG_IGNORE_LAYOUT | LV_OBJ_FLAG_HIDDEN | LV_OB
 452:Middlewares/LVGL/GUI/lvgl/src/extra/layouts/grid/lv_grid.c ****                 uint32_t col_span = get_col_span(item);
 453:Middlewares/LVGL/GUI/lvgl/src/extra/layouts/grid/lv_grid.c ****                 if(col_span != 1) continue;
 454:Middlewares/LVGL/GUI/lvgl/src/extra/layouts/grid/lv_grid.c **** 
 455:Middlewares/LVGL/GUI/lvgl/src/extra/layouts/grid/lv_grid.c ****                 uint32_t col_pos = get_col_pos(item);
 456:Middlewares/LVGL/GUI/lvgl/src/extra/layouts/grid/lv_grid.c ****                 if(col_pos != i) continue;
 457:Middlewares/LVGL/GUI/lvgl/src/extra/layouts/grid/lv_grid.c **** 
 458:Middlewares/LVGL/GUI/lvgl/src/extra/layouts/grid/lv_grid.c ****                 size = LV_MAX(size, lv_obj_get_width(item));
 459:Middlewares/LVGL/GUI/lvgl/src/extra/layouts/grid/lv_grid.c ****             }
 460:Middlewares/LVGL/GUI/lvgl/src/extra/layouts/grid/lv_grid.c ****             if(size >= 0) c->w[i] = size;
 461:Middlewares/LVGL/GUI/lvgl/src/extra/layouts/grid/lv_grid.c ****             else c->w[i] = 0;
 462:Middlewares/LVGL/GUI/lvgl/src/extra/layouts/grid/lv_grid.c ****         }
 463:Middlewares/LVGL/GUI/lvgl/src/extra/layouts/grid/lv_grid.c ****     }
 464:Middlewares/LVGL/GUI/lvgl/src/extra/layouts/grid/lv_grid.c **** 
 465:Middlewares/LVGL/GUI/lvgl/src/extra/layouts/grid/lv_grid.c ****     uint32_t col_fr_cnt = 0;
 466:Middlewares/LVGL/GUI/lvgl/src/extra/layouts/grid/lv_grid.c ****     lv_coord_t grid_w = 0;
 467:Middlewares/LVGL/GUI/lvgl/src/extra/layouts/grid/lv_grid.c **** 
 468:Middlewares/LVGL/GUI/lvgl/src/extra/layouts/grid/lv_grid.c ****     for(i = 0; i < c->col_num; i++) {
 469:Middlewares/LVGL/GUI/lvgl/src/extra/layouts/grid/lv_grid.c ****         lv_coord_t x = col_templ[i];
 470:Middlewares/LVGL/GUI/lvgl/src/extra/layouts/grid/lv_grid.c ****         if(IS_FR(x)) {
 471:Middlewares/LVGL/GUI/lvgl/src/extra/layouts/grid/lv_grid.c ****             col_fr_cnt += GET_FR(x);
 472:Middlewares/LVGL/GUI/lvgl/src/extra/layouts/grid/lv_grid.c ****         }
 473:Middlewares/LVGL/GUI/lvgl/src/extra/layouts/grid/lv_grid.c ****         else if(IS_CONTENT(x)) {
 474:Middlewares/LVGL/GUI/lvgl/src/extra/layouts/grid/lv_grid.c ****             grid_w += c->w[i];
 475:Middlewares/LVGL/GUI/lvgl/src/extra/layouts/grid/lv_grid.c ****         }
 476:Middlewares/LVGL/GUI/lvgl/src/extra/layouts/grid/lv_grid.c ****         else {
 477:Middlewares/LVGL/GUI/lvgl/src/extra/layouts/grid/lv_grid.c ****             c->w[i] = x;
 478:Middlewares/LVGL/GUI/lvgl/src/extra/layouts/grid/lv_grid.c ****             grid_w += x;
 479:Middlewares/LVGL/GUI/lvgl/src/extra/layouts/grid/lv_grid.c ****         }
 480:Middlewares/LVGL/GUI/lvgl/src/extra/layouts/grid/lv_grid.c ****     }
 481:Middlewares/LVGL/GUI/lvgl/src/extra/layouts/grid/lv_grid.c **** 
 482:Middlewares/LVGL/GUI/lvgl/src/extra/layouts/grid/lv_grid.c ****     lv_coord_t col_gap = lv_obj_get_style_pad_column(cont, LV_PART_MAIN);
 483:Middlewares/LVGL/GUI/lvgl/src/extra/layouts/grid/lv_grid.c ****     cont_w -= col_gap * (c->col_num - 1);
 484:Middlewares/LVGL/GUI/lvgl/src/extra/layouts/grid/lv_grid.c ****     lv_coord_t free_w = cont_w - grid_w;
 485:Middlewares/LVGL/GUI/lvgl/src/extra/layouts/grid/lv_grid.c ****     if(free_w < 0) free_w = 0;
 486:Middlewares/LVGL/GUI/lvgl/src/extra/layouts/grid/lv_grid.c **** 
ARM GAS  C:\Users\ADMINI~1\AppData\Local\Temp\cc6Bhsgy.s 			page 10


 487:Middlewares/LVGL/GUI/lvgl/src/extra/layouts/grid/lv_grid.c ****     int32_t last_fr_i = -1;
 488:Middlewares/LVGL/GUI/lvgl/src/extra/layouts/grid/lv_grid.c ****     int32_t last_fr_x = 0;
 489:Middlewares/LVGL/GUI/lvgl/src/extra/layouts/grid/lv_grid.c ****     for(i = 0; i < c->col_num; i++) {
 490:Middlewares/LVGL/GUI/lvgl/src/extra/layouts/grid/lv_grid.c ****         lv_coord_t x = col_templ[i];
 491:Middlewares/LVGL/GUI/lvgl/src/extra/layouts/grid/lv_grid.c ****         if(IS_FR(x)) {
 492:Middlewares/LVGL/GUI/lvgl/src/extra/layouts/grid/lv_grid.c ****             lv_coord_t f = GET_FR(x);
 493:Middlewares/LVGL/GUI/lvgl/src/extra/layouts/grid/lv_grid.c ****             c->w[i] = (free_w * f) / col_fr_cnt;
 494:Middlewares/LVGL/GUI/lvgl/src/extra/layouts/grid/lv_grid.c ****             last_fr_i = i;
 495:Middlewares/LVGL/GUI/lvgl/src/extra/layouts/grid/lv_grid.c ****             last_fr_x = f;
 496:Middlewares/LVGL/GUI/lvgl/src/extra/layouts/grid/lv_grid.c ****         }
 497:Middlewares/LVGL/GUI/lvgl/src/extra/layouts/grid/lv_grid.c ****     }
 498:Middlewares/LVGL/GUI/lvgl/src/extra/layouts/grid/lv_grid.c **** 
 499:Middlewares/LVGL/GUI/lvgl/src/extra/layouts/grid/lv_grid.c ****     /*To avoid rounding errors set the last FR track to the remaining size */
 500:Middlewares/LVGL/GUI/lvgl/src/extra/layouts/grid/lv_grid.c ****     if(last_fr_i >= 0) {
 501:Middlewares/LVGL/GUI/lvgl/src/extra/layouts/grid/lv_grid.c ****         c->w[last_fr_i] = free_w - ((free_w * (col_fr_cnt - last_fr_x)) / col_fr_cnt);
 502:Middlewares/LVGL/GUI/lvgl/src/extra/layouts/grid/lv_grid.c ****     }
 503:Middlewares/LVGL/GUI/lvgl/src/extra/layouts/grid/lv_grid.c **** }
 504:Middlewares/LVGL/GUI/lvgl/src/extra/layouts/grid/lv_grid.c **** 
 505:Middlewares/LVGL/GUI/lvgl/src/extra/layouts/grid/lv_grid.c **** static void calc_rows(lv_obj_t * cont, _lv_grid_calc_t * c)
 506:Middlewares/LVGL/GUI/lvgl/src/extra/layouts/grid/lv_grid.c **** {
 507:Middlewares/LVGL/GUI/lvgl/src/extra/layouts/grid/lv_grid.c ****     uint32_t i;
 508:Middlewares/LVGL/GUI/lvgl/src/extra/layouts/grid/lv_grid.c ****     const lv_coord_t * row_templ = get_row_dsc(cont);
 509:Middlewares/LVGL/GUI/lvgl/src/extra/layouts/grid/lv_grid.c ****     c->row_num = count_tracks(row_templ);
 510:Middlewares/LVGL/GUI/lvgl/src/extra/layouts/grid/lv_grid.c ****     c->y = lv_mem_buf_get(sizeof(lv_coord_t) * c->row_num);
 511:Middlewares/LVGL/GUI/lvgl/src/extra/layouts/grid/lv_grid.c ****     c->h = lv_mem_buf_get(sizeof(lv_coord_t) * c->row_num);
 512:Middlewares/LVGL/GUI/lvgl/src/extra/layouts/grid/lv_grid.c ****     /*Set sizes for CONTENT cells*/
 513:Middlewares/LVGL/GUI/lvgl/src/extra/layouts/grid/lv_grid.c ****     for(i = 0; i < c->row_num; i++) {
 514:Middlewares/LVGL/GUI/lvgl/src/extra/layouts/grid/lv_grid.c ****         lv_coord_t size = LV_COORD_MIN;
 515:Middlewares/LVGL/GUI/lvgl/src/extra/layouts/grid/lv_grid.c ****         if(IS_CONTENT(row_templ[i])) {
 516:Middlewares/LVGL/GUI/lvgl/src/extra/layouts/grid/lv_grid.c ****             /*Check the size of children of this cell*/
 517:Middlewares/LVGL/GUI/lvgl/src/extra/layouts/grid/lv_grid.c ****             uint32_t ci;
 518:Middlewares/LVGL/GUI/lvgl/src/extra/layouts/grid/lv_grid.c ****             for(ci = 0; ci < lv_obj_get_child_cnt(cont); ci++) {
 519:Middlewares/LVGL/GUI/lvgl/src/extra/layouts/grid/lv_grid.c ****                 lv_obj_t * item = lv_obj_get_child(cont, ci);
 520:Middlewares/LVGL/GUI/lvgl/src/extra/layouts/grid/lv_grid.c ****                 if(lv_obj_has_flag_any(item, LV_OBJ_FLAG_IGNORE_LAYOUT | LV_OBJ_FLAG_HIDDEN | LV_OB
 521:Middlewares/LVGL/GUI/lvgl/src/extra/layouts/grid/lv_grid.c ****                 uint32_t row_span = get_row_span(item);
 522:Middlewares/LVGL/GUI/lvgl/src/extra/layouts/grid/lv_grid.c ****                 if(row_span != 1) continue;
 523:Middlewares/LVGL/GUI/lvgl/src/extra/layouts/grid/lv_grid.c **** 
 524:Middlewares/LVGL/GUI/lvgl/src/extra/layouts/grid/lv_grid.c ****                 uint32_t row_pos = get_row_pos(item);
 525:Middlewares/LVGL/GUI/lvgl/src/extra/layouts/grid/lv_grid.c ****                 if(row_pos != i) continue;
 526:Middlewares/LVGL/GUI/lvgl/src/extra/layouts/grid/lv_grid.c **** 
 527:Middlewares/LVGL/GUI/lvgl/src/extra/layouts/grid/lv_grid.c ****                 size = LV_MAX(size, lv_obj_get_height(item));
 528:Middlewares/LVGL/GUI/lvgl/src/extra/layouts/grid/lv_grid.c ****             }
 529:Middlewares/LVGL/GUI/lvgl/src/extra/layouts/grid/lv_grid.c ****             if(size >= 0) c->h[i] = size;
 530:Middlewares/LVGL/GUI/lvgl/src/extra/layouts/grid/lv_grid.c ****             else c->h[i] = 0;
 531:Middlewares/LVGL/GUI/lvgl/src/extra/layouts/grid/lv_grid.c ****         }
 532:Middlewares/LVGL/GUI/lvgl/src/extra/layouts/grid/lv_grid.c ****     }
 533:Middlewares/LVGL/GUI/lvgl/src/extra/layouts/grid/lv_grid.c **** 
 534:Middlewares/LVGL/GUI/lvgl/src/extra/layouts/grid/lv_grid.c ****     uint32_t row_fr_cnt = 0;
 535:Middlewares/LVGL/GUI/lvgl/src/extra/layouts/grid/lv_grid.c ****     lv_coord_t grid_h = 0;
 536:Middlewares/LVGL/GUI/lvgl/src/extra/layouts/grid/lv_grid.c **** 
 537:Middlewares/LVGL/GUI/lvgl/src/extra/layouts/grid/lv_grid.c ****     for(i = 0; i < c->row_num; i++) {
 538:Middlewares/LVGL/GUI/lvgl/src/extra/layouts/grid/lv_grid.c ****         lv_coord_t x = row_templ[i];
 539:Middlewares/LVGL/GUI/lvgl/src/extra/layouts/grid/lv_grid.c ****         if(IS_FR(x)) {
 540:Middlewares/LVGL/GUI/lvgl/src/extra/layouts/grid/lv_grid.c ****             row_fr_cnt += GET_FR(x);
 541:Middlewares/LVGL/GUI/lvgl/src/extra/layouts/grid/lv_grid.c ****         }
 542:Middlewares/LVGL/GUI/lvgl/src/extra/layouts/grid/lv_grid.c ****         else if(IS_CONTENT(x)) {
 543:Middlewares/LVGL/GUI/lvgl/src/extra/layouts/grid/lv_grid.c ****             grid_h += c->h[i];
ARM GAS  C:\Users\ADMINI~1\AppData\Local\Temp\cc6Bhsgy.s 			page 11


 544:Middlewares/LVGL/GUI/lvgl/src/extra/layouts/grid/lv_grid.c ****         }
 545:Middlewares/LVGL/GUI/lvgl/src/extra/layouts/grid/lv_grid.c ****         else {
 546:Middlewares/LVGL/GUI/lvgl/src/extra/layouts/grid/lv_grid.c ****             c->h[i] = x;
 547:Middlewares/LVGL/GUI/lvgl/src/extra/layouts/grid/lv_grid.c ****             grid_h += x;
 548:Middlewares/LVGL/GUI/lvgl/src/extra/layouts/grid/lv_grid.c ****         }
 549:Middlewares/LVGL/GUI/lvgl/src/extra/layouts/grid/lv_grid.c ****     }
 550:Middlewares/LVGL/GUI/lvgl/src/extra/layouts/grid/lv_grid.c **** 
 551:Middlewares/LVGL/GUI/lvgl/src/extra/layouts/grid/lv_grid.c **** 
 552:Middlewares/LVGL/GUI/lvgl/src/extra/layouts/grid/lv_grid.c ****     lv_coord_t row_gap = lv_obj_get_style_pad_row(cont, LV_PART_MAIN);
 553:Middlewares/LVGL/GUI/lvgl/src/extra/layouts/grid/lv_grid.c ****     lv_coord_t cont_h = lv_obj_get_content_height(cont) - row_gap * (c->row_num - 1);
 554:Middlewares/LVGL/GUI/lvgl/src/extra/layouts/grid/lv_grid.c ****     lv_coord_t free_h = cont_h - grid_h;
 555:Middlewares/LVGL/GUI/lvgl/src/extra/layouts/grid/lv_grid.c ****     if(free_h < 0) free_h = 0;
 556:Middlewares/LVGL/GUI/lvgl/src/extra/layouts/grid/lv_grid.c **** 
 557:Middlewares/LVGL/GUI/lvgl/src/extra/layouts/grid/lv_grid.c ****     int32_t last_fr_i = -1;
 558:Middlewares/LVGL/GUI/lvgl/src/extra/layouts/grid/lv_grid.c ****     int32_t last_fr_x = 0;
 559:Middlewares/LVGL/GUI/lvgl/src/extra/layouts/grid/lv_grid.c ****     for(i = 0; i < c->row_num; i++) {
 560:Middlewares/LVGL/GUI/lvgl/src/extra/layouts/grid/lv_grid.c ****         lv_coord_t x = row_templ[i];
 561:Middlewares/LVGL/GUI/lvgl/src/extra/layouts/grid/lv_grid.c ****         if(IS_FR(x)) {
 562:Middlewares/LVGL/GUI/lvgl/src/extra/layouts/grid/lv_grid.c ****             lv_coord_t f = GET_FR(x);
 563:Middlewares/LVGL/GUI/lvgl/src/extra/layouts/grid/lv_grid.c ****             c->h[i] = (free_h * f) / row_fr_cnt;
 564:Middlewares/LVGL/GUI/lvgl/src/extra/layouts/grid/lv_grid.c ****         }
 565:Middlewares/LVGL/GUI/lvgl/src/extra/layouts/grid/lv_grid.c ****     }
 566:Middlewares/LVGL/GUI/lvgl/src/extra/layouts/grid/lv_grid.c **** 
 567:Middlewares/LVGL/GUI/lvgl/src/extra/layouts/grid/lv_grid.c ****     /*To avoid rounding errors set the last FR track to the remaining size */
 568:Middlewares/LVGL/GUI/lvgl/src/extra/layouts/grid/lv_grid.c ****     if(last_fr_i >= 0) {
 569:Middlewares/LVGL/GUI/lvgl/src/extra/layouts/grid/lv_grid.c ****         c->h[last_fr_i] = free_h - ((free_h * (row_fr_cnt - last_fr_x)) / row_fr_cnt);
 570:Middlewares/LVGL/GUI/lvgl/src/extra/layouts/grid/lv_grid.c ****     }
 571:Middlewares/LVGL/GUI/lvgl/src/extra/layouts/grid/lv_grid.c **** }
 572:Middlewares/LVGL/GUI/lvgl/src/extra/layouts/grid/lv_grid.c **** 
 573:Middlewares/LVGL/GUI/lvgl/src/extra/layouts/grid/lv_grid.c **** /**
 574:Middlewares/LVGL/GUI/lvgl/src/extra/layouts/grid/lv_grid.c ****  * Reposition a grid item in its cell
 575:Middlewares/LVGL/GUI/lvgl/src/extra/layouts/grid/lv_grid.c ****  * @param item a grid item to reposition
 576:Middlewares/LVGL/GUI/lvgl/src/extra/layouts/grid/lv_grid.c ****  * @param calc the calculated grid of `cont`
 577:Middlewares/LVGL/GUI/lvgl/src/extra/layouts/grid/lv_grid.c ****  * @param child_id_ext helper value if the ID of the child is know (order from the oldest) else -1
 578:Middlewares/LVGL/GUI/lvgl/src/extra/layouts/grid/lv_grid.c ****  * @param grid_abs helper value, the absolute position of the grid, NULL if unknown
 579:Middlewares/LVGL/GUI/lvgl/src/extra/layouts/grid/lv_grid.c ****  */
 580:Middlewares/LVGL/GUI/lvgl/src/extra/layouts/grid/lv_grid.c **** static void item_repos(lv_obj_t * item, _lv_grid_calc_t * c, item_repos_hint_t * hint)
 581:Middlewares/LVGL/GUI/lvgl/src/extra/layouts/grid/lv_grid.c **** {
 582:Middlewares/LVGL/GUI/lvgl/src/extra/layouts/grid/lv_grid.c ****     if(lv_obj_has_flag_any(item, LV_OBJ_FLAG_IGNORE_LAYOUT | LV_OBJ_FLAG_HIDDEN | LV_OBJ_FLAG_FLOAT
 583:Middlewares/LVGL/GUI/lvgl/src/extra/layouts/grid/lv_grid.c ****     uint32_t col_span = get_col_span(item);
 584:Middlewares/LVGL/GUI/lvgl/src/extra/layouts/grid/lv_grid.c ****     uint32_t row_span = get_row_span(item);
 585:Middlewares/LVGL/GUI/lvgl/src/extra/layouts/grid/lv_grid.c ****     if(row_span == 0 || col_span == 0) return;
 586:Middlewares/LVGL/GUI/lvgl/src/extra/layouts/grid/lv_grid.c **** 
 587:Middlewares/LVGL/GUI/lvgl/src/extra/layouts/grid/lv_grid.c ****     uint32_t col_pos = get_col_pos(item);
 588:Middlewares/LVGL/GUI/lvgl/src/extra/layouts/grid/lv_grid.c ****     uint32_t row_pos = get_row_pos(item);
 589:Middlewares/LVGL/GUI/lvgl/src/extra/layouts/grid/lv_grid.c ****     lv_grid_align_t col_align = get_cell_col_align(item);
 590:Middlewares/LVGL/GUI/lvgl/src/extra/layouts/grid/lv_grid.c ****     lv_grid_align_t row_align = get_cell_row_align(item);
 591:Middlewares/LVGL/GUI/lvgl/src/extra/layouts/grid/lv_grid.c **** 
 592:Middlewares/LVGL/GUI/lvgl/src/extra/layouts/grid/lv_grid.c **** 
 593:Middlewares/LVGL/GUI/lvgl/src/extra/layouts/grid/lv_grid.c ****     lv_coord_t col_x1 = c->x[col_pos];
 594:Middlewares/LVGL/GUI/lvgl/src/extra/layouts/grid/lv_grid.c ****     lv_coord_t col_x2 = c->x[col_pos + col_span - 1] + c->w[col_pos + col_span - 1];
 595:Middlewares/LVGL/GUI/lvgl/src/extra/layouts/grid/lv_grid.c ****     lv_coord_t col_w = col_x2 - col_x1;
 596:Middlewares/LVGL/GUI/lvgl/src/extra/layouts/grid/lv_grid.c **** 
 597:Middlewares/LVGL/GUI/lvgl/src/extra/layouts/grid/lv_grid.c ****     lv_coord_t row_y1 = c->y[row_pos];
 598:Middlewares/LVGL/GUI/lvgl/src/extra/layouts/grid/lv_grid.c ****     lv_coord_t row_y2 = c->y[row_pos + row_span - 1] + c->h[row_pos + row_span - 1];
 599:Middlewares/LVGL/GUI/lvgl/src/extra/layouts/grid/lv_grid.c ****     lv_coord_t row_h = row_y2 - row_y1;
 600:Middlewares/LVGL/GUI/lvgl/src/extra/layouts/grid/lv_grid.c **** 
ARM GAS  C:\Users\ADMINI~1\AppData\Local\Temp\cc6Bhsgy.s 			page 12


 601:Middlewares/LVGL/GUI/lvgl/src/extra/layouts/grid/lv_grid.c **** 
 602:Middlewares/LVGL/GUI/lvgl/src/extra/layouts/grid/lv_grid.c ****     /*If the item has RTL base dir switch start and end*/
 603:Middlewares/LVGL/GUI/lvgl/src/extra/layouts/grid/lv_grid.c ****     if(lv_obj_get_style_base_dir(item, LV_PART_MAIN) == LV_BASE_DIR_RTL) {
 604:Middlewares/LVGL/GUI/lvgl/src/extra/layouts/grid/lv_grid.c ****         if(col_align == LV_GRID_ALIGN_START) col_align = LV_GRID_ALIGN_END;
 605:Middlewares/LVGL/GUI/lvgl/src/extra/layouts/grid/lv_grid.c ****         else if(col_align == LV_GRID_ALIGN_END) col_align = LV_GRID_ALIGN_START;
 606:Middlewares/LVGL/GUI/lvgl/src/extra/layouts/grid/lv_grid.c ****     }
 607:Middlewares/LVGL/GUI/lvgl/src/extra/layouts/grid/lv_grid.c **** 
 608:Middlewares/LVGL/GUI/lvgl/src/extra/layouts/grid/lv_grid.c ****     lv_coord_t x;
 609:Middlewares/LVGL/GUI/lvgl/src/extra/layouts/grid/lv_grid.c ****     lv_coord_t y;
 610:Middlewares/LVGL/GUI/lvgl/src/extra/layouts/grid/lv_grid.c ****     lv_coord_t item_w = lv_area_get_width(&item->coords);
 611:Middlewares/LVGL/GUI/lvgl/src/extra/layouts/grid/lv_grid.c ****     lv_coord_t item_h = lv_area_get_height(&item->coords);
 612:Middlewares/LVGL/GUI/lvgl/src/extra/layouts/grid/lv_grid.c **** 
 613:Middlewares/LVGL/GUI/lvgl/src/extra/layouts/grid/lv_grid.c ****     switch(col_align) {
 614:Middlewares/LVGL/GUI/lvgl/src/extra/layouts/grid/lv_grid.c ****         default:
 615:Middlewares/LVGL/GUI/lvgl/src/extra/layouts/grid/lv_grid.c ****         case LV_GRID_ALIGN_START:
 616:Middlewares/LVGL/GUI/lvgl/src/extra/layouts/grid/lv_grid.c ****             x = c->x[col_pos];
 617:Middlewares/LVGL/GUI/lvgl/src/extra/layouts/grid/lv_grid.c ****             item->w_layout = 0;
 618:Middlewares/LVGL/GUI/lvgl/src/extra/layouts/grid/lv_grid.c ****             break;
 619:Middlewares/LVGL/GUI/lvgl/src/extra/layouts/grid/lv_grid.c ****         case LV_GRID_ALIGN_STRETCH:
 620:Middlewares/LVGL/GUI/lvgl/src/extra/layouts/grid/lv_grid.c ****             x = c->x[col_pos];
 621:Middlewares/LVGL/GUI/lvgl/src/extra/layouts/grid/lv_grid.c ****             item_w = col_w;
 622:Middlewares/LVGL/GUI/lvgl/src/extra/layouts/grid/lv_grid.c ****             item->w_layout = 1;
 623:Middlewares/LVGL/GUI/lvgl/src/extra/layouts/grid/lv_grid.c ****             break;
 624:Middlewares/LVGL/GUI/lvgl/src/extra/layouts/grid/lv_grid.c ****         case LV_GRID_ALIGN_CENTER:
 625:Middlewares/LVGL/GUI/lvgl/src/extra/layouts/grid/lv_grid.c ****             x = c->x[col_pos] + (col_w - item_w) / 2;
 626:Middlewares/LVGL/GUI/lvgl/src/extra/layouts/grid/lv_grid.c ****             item->w_layout = 0;
 627:Middlewares/LVGL/GUI/lvgl/src/extra/layouts/grid/lv_grid.c ****             break;
 628:Middlewares/LVGL/GUI/lvgl/src/extra/layouts/grid/lv_grid.c ****         case LV_GRID_ALIGN_END:
 629:Middlewares/LVGL/GUI/lvgl/src/extra/layouts/grid/lv_grid.c ****             x = c->x[col_pos] + col_w - lv_obj_get_width(item);
 630:Middlewares/LVGL/GUI/lvgl/src/extra/layouts/grid/lv_grid.c ****             item->w_layout = 0;
 631:Middlewares/LVGL/GUI/lvgl/src/extra/layouts/grid/lv_grid.c ****             break;
 632:Middlewares/LVGL/GUI/lvgl/src/extra/layouts/grid/lv_grid.c ****     }
 633:Middlewares/LVGL/GUI/lvgl/src/extra/layouts/grid/lv_grid.c **** 
 634:Middlewares/LVGL/GUI/lvgl/src/extra/layouts/grid/lv_grid.c ****     switch(row_align) {
 635:Middlewares/LVGL/GUI/lvgl/src/extra/layouts/grid/lv_grid.c ****         default:
 636:Middlewares/LVGL/GUI/lvgl/src/extra/layouts/grid/lv_grid.c ****         case LV_GRID_ALIGN_START:
 637:Middlewares/LVGL/GUI/lvgl/src/extra/layouts/grid/lv_grid.c ****             y = c->y[row_pos];
 638:Middlewares/LVGL/GUI/lvgl/src/extra/layouts/grid/lv_grid.c ****             item->h_layout = 0;
 639:Middlewares/LVGL/GUI/lvgl/src/extra/layouts/grid/lv_grid.c ****             break;
 640:Middlewares/LVGL/GUI/lvgl/src/extra/layouts/grid/lv_grid.c ****         case LV_GRID_ALIGN_STRETCH:
 641:Middlewares/LVGL/GUI/lvgl/src/extra/layouts/grid/lv_grid.c ****             y = c->y[row_pos];
 642:Middlewares/LVGL/GUI/lvgl/src/extra/layouts/grid/lv_grid.c ****             item_h = row_h;
 643:Middlewares/LVGL/GUI/lvgl/src/extra/layouts/grid/lv_grid.c ****             item->h_layout = 1;
 644:Middlewares/LVGL/GUI/lvgl/src/extra/layouts/grid/lv_grid.c ****             break;
 645:Middlewares/LVGL/GUI/lvgl/src/extra/layouts/grid/lv_grid.c ****         case LV_GRID_ALIGN_CENTER:
 646:Middlewares/LVGL/GUI/lvgl/src/extra/layouts/grid/lv_grid.c ****             y = c->y[row_pos] + (row_h - item_h) / 2;
 647:Middlewares/LVGL/GUI/lvgl/src/extra/layouts/grid/lv_grid.c ****             item->h_layout = 0;
 648:Middlewares/LVGL/GUI/lvgl/src/extra/layouts/grid/lv_grid.c ****             break;
 649:Middlewares/LVGL/GUI/lvgl/src/extra/layouts/grid/lv_grid.c ****         case LV_GRID_ALIGN_END:
 650:Middlewares/LVGL/GUI/lvgl/src/extra/layouts/grid/lv_grid.c ****             y = c->y[row_pos] + row_h - lv_obj_get_height(item);
 651:Middlewares/LVGL/GUI/lvgl/src/extra/layouts/grid/lv_grid.c ****             item->h_layout = 0;
 652:Middlewares/LVGL/GUI/lvgl/src/extra/layouts/grid/lv_grid.c ****             break;
 653:Middlewares/LVGL/GUI/lvgl/src/extra/layouts/grid/lv_grid.c ****     }
 654:Middlewares/LVGL/GUI/lvgl/src/extra/layouts/grid/lv_grid.c **** 
 655:Middlewares/LVGL/GUI/lvgl/src/extra/layouts/grid/lv_grid.c ****     /*Set a new size if required*/
 656:Middlewares/LVGL/GUI/lvgl/src/extra/layouts/grid/lv_grid.c ****     if(lv_obj_get_width(item) != item_w || lv_obj_get_height(item) != item_h) {
 657:Middlewares/LVGL/GUI/lvgl/src/extra/layouts/grid/lv_grid.c ****         lv_area_t old_coords;
ARM GAS  C:\Users\ADMINI~1\AppData\Local\Temp\cc6Bhsgy.s 			page 13


 658:Middlewares/LVGL/GUI/lvgl/src/extra/layouts/grid/lv_grid.c ****         lv_area_copy(&old_coords, &item->coords);
 659:Middlewares/LVGL/GUI/lvgl/src/extra/layouts/grid/lv_grid.c ****         lv_obj_invalidate(item);
 660:Middlewares/LVGL/GUI/lvgl/src/extra/layouts/grid/lv_grid.c ****         lv_area_set_width(&item->coords, item_w);
 661:Middlewares/LVGL/GUI/lvgl/src/extra/layouts/grid/lv_grid.c ****         lv_area_set_height(&item->coords, item_h);
 662:Middlewares/LVGL/GUI/lvgl/src/extra/layouts/grid/lv_grid.c ****         lv_obj_invalidate(item);
 663:Middlewares/LVGL/GUI/lvgl/src/extra/layouts/grid/lv_grid.c ****         lv_event_send(item, LV_EVENT_SIZE_CHANGED, &old_coords);
 664:Middlewares/LVGL/GUI/lvgl/src/extra/layouts/grid/lv_grid.c ****         lv_event_send(lv_obj_get_parent(item), LV_EVENT_CHILD_CHANGED, item);
 665:Middlewares/LVGL/GUI/lvgl/src/extra/layouts/grid/lv_grid.c **** 
 666:Middlewares/LVGL/GUI/lvgl/src/extra/layouts/grid/lv_grid.c ****     }
 667:Middlewares/LVGL/GUI/lvgl/src/extra/layouts/grid/lv_grid.c **** 
 668:Middlewares/LVGL/GUI/lvgl/src/extra/layouts/grid/lv_grid.c ****     /*Handle percentage value of translate*/
 669:Middlewares/LVGL/GUI/lvgl/src/extra/layouts/grid/lv_grid.c ****     lv_coord_t tr_x = lv_obj_get_style_translate_x(item, LV_PART_MAIN);
 670:Middlewares/LVGL/GUI/lvgl/src/extra/layouts/grid/lv_grid.c ****     lv_coord_t tr_y = lv_obj_get_style_translate_y(item, LV_PART_MAIN);
 671:Middlewares/LVGL/GUI/lvgl/src/extra/layouts/grid/lv_grid.c ****     lv_coord_t w = lv_obj_get_width(item);
 672:Middlewares/LVGL/GUI/lvgl/src/extra/layouts/grid/lv_grid.c ****     lv_coord_t h = lv_obj_get_height(item);
 673:Middlewares/LVGL/GUI/lvgl/src/extra/layouts/grid/lv_grid.c ****     if(LV_COORD_IS_PCT(tr_x)) tr_x = (w * LV_COORD_GET_PCT(tr_x)) / 100;
 674:Middlewares/LVGL/GUI/lvgl/src/extra/layouts/grid/lv_grid.c ****     if(LV_COORD_IS_PCT(tr_y)) tr_y = (h * LV_COORD_GET_PCT(tr_y)) / 100;
 675:Middlewares/LVGL/GUI/lvgl/src/extra/layouts/grid/lv_grid.c **** 
 676:Middlewares/LVGL/GUI/lvgl/src/extra/layouts/grid/lv_grid.c ****     x += tr_x;
 677:Middlewares/LVGL/GUI/lvgl/src/extra/layouts/grid/lv_grid.c ****     y += tr_y;
 678:Middlewares/LVGL/GUI/lvgl/src/extra/layouts/grid/lv_grid.c **** 
 679:Middlewares/LVGL/GUI/lvgl/src/extra/layouts/grid/lv_grid.c ****     lv_coord_t diff_x = hint->grid_abs.x + x - item->coords.x1;
 680:Middlewares/LVGL/GUI/lvgl/src/extra/layouts/grid/lv_grid.c ****     lv_coord_t diff_y = hint->grid_abs.y + y - item->coords.y1;
 681:Middlewares/LVGL/GUI/lvgl/src/extra/layouts/grid/lv_grid.c ****     if(diff_x || diff_y) {
 682:Middlewares/LVGL/GUI/lvgl/src/extra/layouts/grid/lv_grid.c ****         lv_obj_invalidate(item);
 683:Middlewares/LVGL/GUI/lvgl/src/extra/layouts/grid/lv_grid.c ****         item->coords.x1 += diff_x;
 684:Middlewares/LVGL/GUI/lvgl/src/extra/layouts/grid/lv_grid.c ****         item->coords.x2 += diff_x;
 685:Middlewares/LVGL/GUI/lvgl/src/extra/layouts/grid/lv_grid.c ****         item->coords.y1 += diff_y;
 686:Middlewares/LVGL/GUI/lvgl/src/extra/layouts/grid/lv_grid.c ****         item->coords.y2 += diff_y;
 687:Middlewares/LVGL/GUI/lvgl/src/extra/layouts/grid/lv_grid.c ****         lv_obj_invalidate(item);
 688:Middlewares/LVGL/GUI/lvgl/src/extra/layouts/grid/lv_grid.c ****         lv_obj_move_children_by(item, diff_x, diff_y, true);
 689:Middlewares/LVGL/GUI/lvgl/src/extra/layouts/grid/lv_grid.c ****     }
 690:Middlewares/LVGL/GUI/lvgl/src/extra/layouts/grid/lv_grid.c **** }
 691:Middlewares/LVGL/GUI/lvgl/src/extra/layouts/grid/lv_grid.c **** 
 692:Middlewares/LVGL/GUI/lvgl/src/extra/layouts/grid/lv_grid.c **** /**
 693:Middlewares/LVGL/GUI/lvgl/src/extra/layouts/grid/lv_grid.c ****  * Place the grid track according to align methods. It keeps the track sizes but sets their positio
 694:Middlewares/LVGL/GUI/lvgl/src/extra/layouts/grid/lv_grid.c ****  * It can process both columns or rows according to the passed parameters.
 695:Middlewares/LVGL/GUI/lvgl/src/extra/layouts/grid/lv_grid.c ****  * @param cont_size size of the containers content area (width/height)
 696:Middlewares/LVGL/GUI/lvgl/src/extra/layouts/grid/lv_grid.c ****  * @param auto_size true: the container has auto size in the current direction
 697:Middlewares/LVGL/GUI/lvgl/src/extra/layouts/grid/lv_grid.c ****  * @param align align method
 698:Middlewares/LVGL/GUI/lvgl/src/extra/layouts/grid/lv_grid.c ****  * @param gap grid gap
 699:Middlewares/LVGL/GUI/lvgl/src/extra/layouts/grid/lv_grid.c ****  * @param track_num number of tracks
 700:Middlewares/LVGL/GUI/lvgl/src/extra/layouts/grid/lv_grid.c ****  * @param size_array array with the track sizes
 701:Middlewares/LVGL/GUI/lvgl/src/extra/layouts/grid/lv_grid.c ****  * @param pos_array write the positions of the tracks here
 702:Middlewares/LVGL/GUI/lvgl/src/extra/layouts/grid/lv_grid.c ****  * @return the total size of the grid
 703:Middlewares/LVGL/GUI/lvgl/src/extra/layouts/grid/lv_grid.c ****  */
 704:Middlewares/LVGL/GUI/lvgl/src/extra/layouts/grid/lv_grid.c **** static lv_coord_t grid_align(lv_coord_t cont_size,  bool auto_size, uint8_t align, lv_coord_t gap, 
 705:Middlewares/LVGL/GUI/lvgl/src/extra/layouts/grid/lv_grid.c ****                              lv_coord_t * size_array, lv_coord_t * pos_array, bool reverse)
 706:Middlewares/LVGL/GUI/lvgl/src/extra/layouts/grid/lv_grid.c **** {
  29              		.loc 1 706 1 view -0
  30              		.cfi_startproc
  31              		@ args = 16, pretend = 0, frame = 0
  32              		@ frame_needed = 0, uses_anonymous_args = 0
  33              		.loc 1 706 1 is_stmt 0 view .LVU1
  34 0000 F0B5     		push	{r4, r5, r6, r7, lr}
  35              	.LCFI0:
  36              		.cfi_def_cfa_offset 20
ARM GAS  C:\Users\ADMINI~1\AppData\Local\Temp\cc6Bhsgy.s 			page 14


  37              		.cfi_offset 4, -20
  38              		.cfi_offset 5, -16
  39              		.cfi_offset 6, -12
  40              		.cfi_offset 7, -8
  41              		.cfi_offset 14, -4
  42 0002 8446     		mov	ip, r0
  43 0004 059D     		ldr	r5, [sp, #20]
  44 0006 069E     		ldr	r6, [sp, #24]
  45 0008 079C     		ldr	r4, [sp, #28]
  46 000a 9DF82070 		ldrb	r7, [sp, #32]	@ zero_extendqisi2
 707:Middlewares/LVGL/GUI/lvgl/src/extra/layouts/grid/lv_grid.c ****     lv_coord_t grid_size = 0;
  47              		.loc 1 707 5 is_stmt 1 view .LVU2
  48              	.LVL1:
 708:Middlewares/LVGL/GUI/lvgl/src/extra/layouts/grid/lv_grid.c ****     uint32_t i;
  49              		.loc 1 708 5 view .LVU3
 709:Middlewares/LVGL/GUI/lvgl/src/extra/layouts/grid/lv_grid.c **** 
 710:Middlewares/LVGL/GUI/lvgl/src/extra/layouts/grid/lv_grid.c ****     if(auto_size) {
  50              		.loc 1 710 5 view .LVU4
  51              		.loc 1 710 7 is_stmt 0 view .LVU5
  52 000e 19B1     		cbz	r1, .L2
 711:Middlewares/LVGL/GUI/lvgl/src/extra/layouts/grid/lv_grid.c ****         pos_array[0] = 0;
  53              		.loc 1 711 9 is_stmt 1 view .LVU6
  54              		.loc 1 711 22 is_stmt 0 view .LVU7
  55 0010 0022     		movs	r2, #0
  56              	.LVL2:
  57              		.loc 1 711 22 view .LVU8
  58 0012 2260     		str	r2, [r4]
  59              	.LVL3:
  60              	.L3:
 712:Middlewares/LVGL/GUI/lvgl/src/extra/layouts/grid/lv_grid.c ****     }
 713:Middlewares/LVGL/GUI/lvgl/src/extra/layouts/grid/lv_grid.c ****     else {
 714:Middlewares/LVGL/GUI/lvgl/src/extra/layouts/grid/lv_grid.c ****         /*With spaced alignment gap will be calculated from the remaining space*/
 715:Middlewares/LVGL/GUI/lvgl/src/extra/layouts/grid/lv_grid.c ****         if(align == LV_GRID_ALIGN_SPACE_AROUND || align == LV_GRID_ALIGN_SPACE_BETWEEN || align == 
 716:Middlewares/LVGL/GUI/lvgl/src/extra/layouts/grid/lv_grid.c ****             gap = 0;
 717:Middlewares/LVGL/GUI/lvgl/src/extra/layouts/grid/lv_grid.c ****             if(track_num == 1) align = LV_GRID_ALIGN_CENTER;
 718:Middlewares/LVGL/GUI/lvgl/src/extra/layouts/grid/lv_grid.c ****         }
 719:Middlewares/LVGL/GUI/lvgl/src/extra/layouts/grid/lv_grid.c **** 
 720:Middlewares/LVGL/GUI/lvgl/src/extra/layouts/grid/lv_grid.c ****         /*Get the full grid size with gap*/
 721:Middlewares/LVGL/GUI/lvgl/src/extra/layouts/grid/lv_grid.c ****         for(i = 0; i < track_num; i++) {
 722:Middlewares/LVGL/GUI/lvgl/src/extra/layouts/grid/lv_grid.c ****             grid_size += size_array[i] + gap;
 723:Middlewares/LVGL/GUI/lvgl/src/extra/layouts/grid/lv_grid.c ****         }
 724:Middlewares/LVGL/GUI/lvgl/src/extra/layouts/grid/lv_grid.c ****         grid_size -= gap;
 725:Middlewares/LVGL/GUI/lvgl/src/extra/layouts/grid/lv_grid.c **** 
 726:Middlewares/LVGL/GUI/lvgl/src/extra/layouts/grid/lv_grid.c ****         /*Calculate the position of the first item and set gap is necessary*/
 727:Middlewares/LVGL/GUI/lvgl/src/extra/layouts/grid/lv_grid.c ****         switch(align) {
 728:Middlewares/LVGL/GUI/lvgl/src/extra/layouts/grid/lv_grid.c ****             case LV_GRID_ALIGN_START:
 729:Middlewares/LVGL/GUI/lvgl/src/extra/layouts/grid/lv_grid.c ****                 pos_array[0] = 0;
 730:Middlewares/LVGL/GUI/lvgl/src/extra/layouts/grid/lv_grid.c ****                 break;
 731:Middlewares/LVGL/GUI/lvgl/src/extra/layouts/grid/lv_grid.c ****             case LV_GRID_ALIGN_CENTER:
 732:Middlewares/LVGL/GUI/lvgl/src/extra/layouts/grid/lv_grid.c ****                 pos_array[0] = (cont_size - grid_size) / 2;
 733:Middlewares/LVGL/GUI/lvgl/src/extra/layouts/grid/lv_grid.c ****                 break;
 734:Middlewares/LVGL/GUI/lvgl/src/extra/layouts/grid/lv_grid.c ****             case LV_GRID_ALIGN_END:
 735:Middlewares/LVGL/GUI/lvgl/src/extra/layouts/grid/lv_grid.c ****                 pos_array[0] = cont_size - grid_size;
 736:Middlewares/LVGL/GUI/lvgl/src/extra/layouts/grid/lv_grid.c ****                 break;
 737:Middlewares/LVGL/GUI/lvgl/src/extra/layouts/grid/lv_grid.c ****             case LV_GRID_ALIGN_SPACE_BETWEEN:
 738:Middlewares/LVGL/GUI/lvgl/src/extra/layouts/grid/lv_grid.c ****                 pos_array[0] = 0;
 739:Middlewares/LVGL/GUI/lvgl/src/extra/layouts/grid/lv_grid.c ****                 gap = (lv_coord_t)(cont_size - grid_size) / (lv_coord_t)(track_num - 1);
ARM GAS  C:\Users\ADMINI~1\AppData\Local\Temp\cc6Bhsgy.s 			page 15


 740:Middlewares/LVGL/GUI/lvgl/src/extra/layouts/grid/lv_grid.c ****                 break;
 741:Middlewares/LVGL/GUI/lvgl/src/extra/layouts/grid/lv_grid.c ****             case LV_GRID_ALIGN_SPACE_AROUND:
 742:Middlewares/LVGL/GUI/lvgl/src/extra/layouts/grid/lv_grid.c ****                 gap = (lv_coord_t)(cont_size - grid_size) / (lv_coord_t)(track_num);
 743:Middlewares/LVGL/GUI/lvgl/src/extra/layouts/grid/lv_grid.c ****                 pos_array[0] = gap / 2;
 744:Middlewares/LVGL/GUI/lvgl/src/extra/layouts/grid/lv_grid.c ****                 break;
 745:Middlewares/LVGL/GUI/lvgl/src/extra/layouts/grid/lv_grid.c ****             case LV_GRID_ALIGN_SPACE_EVENLY:
 746:Middlewares/LVGL/GUI/lvgl/src/extra/layouts/grid/lv_grid.c ****                 gap = (lv_coord_t)(cont_size - grid_size) / (lv_coord_t)(track_num + 1);
 747:Middlewares/LVGL/GUI/lvgl/src/extra/layouts/grid/lv_grid.c ****                 pos_array[0] = gap;
 748:Middlewares/LVGL/GUI/lvgl/src/extra/layouts/grid/lv_grid.c ****                 break;
 749:Middlewares/LVGL/GUI/lvgl/src/extra/layouts/grid/lv_grid.c **** 
 750:Middlewares/LVGL/GUI/lvgl/src/extra/layouts/grid/lv_grid.c ****         }
 751:Middlewares/LVGL/GUI/lvgl/src/extra/layouts/grid/lv_grid.c ****     }
 752:Middlewares/LVGL/GUI/lvgl/src/extra/layouts/grid/lv_grid.c **** 
 753:Middlewares/LVGL/GUI/lvgl/src/extra/layouts/grid/lv_grid.c ****     /*Set the position of all tracks from the start position, gaps and track sizes*/
 754:Middlewares/LVGL/GUI/lvgl/src/extra/layouts/grid/lv_grid.c ****     for(i = 0; i < track_num - 1; i++) {
  61              		.loc 1 754 5 is_stmt 1 view .LVU9
  62              		.loc 1 754 11 is_stmt 0 view .LVU10
  63 0014 0022     		movs	r2, #0
  64              		.loc 1 754 5 view .LVU11
  65 0016 59E0     		b	.L14
  66              	.LVL4:
  67              	.L2:
 715:Middlewares/LVGL/GUI/lvgl/src/extra/layouts/grid/lv_grid.c ****             gap = 0;
  68              		.loc 1 715 9 is_stmt 1 view .LVU12
 715:Middlewares/LVGL/GUI/lvgl/src/extra/layouts/grid/lv_grid.c ****             gap = 0;
  69              		.loc 1 715 88 is_stmt 0 view .LVU13
  70 0018 111F     		subs	r1, r2, #4
  71              	.LVL5:
 715:Middlewares/LVGL/GUI/lvgl/src/extra/layouts/grid/lv_grid.c ****             gap = 0;
  72              		.loc 1 715 88 view .LVU14
  73 001a C9B2     		uxtb	r1, r1
 715:Middlewares/LVGL/GUI/lvgl/src/extra/layouts/grid/lv_grid.c ****             gap = 0;
  74              		.loc 1 715 11 view .LVU15
  75 001c 0229     		cmp	r1, #2
  76 001e 02D8     		bhi	.L4
 716:Middlewares/LVGL/GUI/lvgl/src/extra/layouts/grid/lv_grid.c ****             if(track_num == 1) align = LV_GRID_ALIGN_CENTER;
  77              		.loc 1 716 13 is_stmt 1 view .LVU16
  78              	.LVL6:
 717:Middlewares/LVGL/GUI/lvgl/src/extra/layouts/grid/lv_grid.c ****         }
  79              		.loc 1 717 13 view .LVU17
 717:Middlewares/LVGL/GUI/lvgl/src/extra/layouts/grid/lv_grid.c ****         }
  80              		.loc 1 717 15 is_stmt 0 view .LVU18
  81 0020 012D     		cmp	r5, #1
  82 0022 0AD0     		beq	.L19
 716:Middlewares/LVGL/GUI/lvgl/src/extra/layouts/grid/lv_grid.c ****             if(track_num == 1) align = LV_GRID_ALIGN_CENTER;
  83              		.loc 1 716 17 view .LVU19
  84 0024 0023     		movs	r3, #0
  85              	.LVL7:
  86              	.L4:
 721:Middlewares/LVGL/GUI/lvgl/src/extra/layouts/grid/lv_grid.c ****             grid_size += size_array[i] + gap;
  87              		.loc 1 721 9 is_stmt 1 view .LVU20
 721:Middlewares/LVGL/GUI/lvgl/src/extra/layouts/grid/lv_grid.c ****             grid_size += size_array[i] + gap;
  88              		.loc 1 721 15 is_stmt 0 view .LVU21
  89 0026 0021     		movs	r1, #0
 707:Middlewares/LVGL/GUI/lvgl/src/extra/layouts/grid/lv_grid.c ****     uint32_t i;
  90              		.loc 1 707 16 view .LVU22
  91 0028 8E46     		mov	lr, r1
ARM GAS  C:\Users\ADMINI~1\AppData\Local\Temp\cc6Bhsgy.s 			page 16


  92              	.LVL8:
  93              	.L5:
 721:Middlewares/LVGL/GUI/lvgl/src/extra/layouts/grid/lv_grid.c ****             grid_size += size_array[i] + gap;
  94              		.loc 1 721 20 is_stmt 1 discriminator 1 view .LVU23
 721:Middlewares/LVGL/GUI/lvgl/src/extra/layouts/grid/lv_grid.c ****             grid_size += size_array[i] + gap;
  95              		.loc 1 721 9 is_stmt 0 discriminator 1 view .LVU24
  96 002a A942     		cmp	r1, r5
  97 002c 08D2     		bcs	.L22
 722:Middlewares/LVGL/GUI/lvgl/src/extra/layouts/grid/lv_grid.c ****         }
  98              		.loc 1 722 13 is_stmt 1 discriminator 3 view .LVU25
 722:Middlewares/LVGL/GUI/lvgl/src/extra/layouts/grid/lv_grid.c ****         }
  99              		.loc 1 722 36 is_stmt 0 discriminator 3 view .LVU26
 100 002e 56F82100 		ldr	r0, [r6, r1, lsl #2]
 722:Middlewares/LVGL/GUI/lvgl/src/extra/layouts/grid/lv_grid.c ****         }
 101              		.loc 1 722 40 discriminator 3 view .LVU27
 102 0032 1844     		add	r0, r0, r3
 722:Middlewares/LVGL/GUI/lvgl/src/extra/layouts/grid/lv_grid.c ****         }
 103              		.loc 1 722 23 discriminator 3 view .LVU28
 104 0034 8644     		add	lr, lr, r0
 105              	.LVL9:
 721:Middlewares/LVGL/GUI/lvgl/src/extra/layouts/grid/lv_grid.c ****             grid_size += size_array[i] + gap;
 106              		.loc 1 721 35 is_stmt 1 discriminator 3 view .LVU29
 721:Middlewares/LVGL/GUI/lvgl/src/extra/layouts/grid/lv_grid.c ****             grid_size += size_array[i] + gap;
 107              		.loc 1 721 36 is_stmt 0 discriminator 3 view .LVU30
 108 0036 0131     		adds	r1, r1, #1
 109              	.LVL10:
 721:Middlewares/LVGL/GUI/lvgl/src/extra/layouts/grid/lv_grid.c ****             grid_size += size_array[i] + gap;
 110              		.loc 1 721 36 discriminator 3 view .LVU31
 111 0038 F7E7     		b	.L5
 112              	.LVL11:
 113              	.L19:
 716:Middlewares/LVGL/GUI/lvgl/src/extra/layouts/grid/lv_grid.c ****             if(track_num == 1) align = LV_GRID_ALIGN_CENTER;
 114              		.loc 1 716 17 view .LVU32
 115 003a 0023     		movs	r3, #0
 717:Middlewares/LVGL/GUI/lvgl/src/extra/layouts/grid/lv_grid.c ****         }
 116              		.loc 1 717 38 view .LVU33
 117 003c 0122     		movs	r2, #1
 118              	.LVL12:
 717:Middlewares/LVGL/GUI/lvgl/src/extra/layouts/grid/lv_grid.c ****         }
 119              		.loc 1 717 38 view .LVU34
 120 003e F2E7     		b	.L4
 121              	.LVL13:
 122              	.L22:
 724:Middlewares/LVGL/GUI/lvgl/src/extra/layouts/grid/lv_grid.c **** 
 123              		.loc 1 724 9 is_stmt 1 view .LVU35
 724:Middlewares/LVGL/GUI/lvgl/src/extra/layouts/grid/lv_grid.c **** 
 124              		.loc 1 724 19 is_stmt 0 view .LVU36
 125 0040 AEEB030E 		sub	lr, lr, r3
 126              	.LVL14:
 727:Middlewares/LVGL/GUI/lvgl/src/extra/layouts/grid/lv_grid.c ****             case LV_GRID_ALIGN_START:
 127              		.loc 1 727 9 is_stmt 1 view .LVU37
 128 0044 062A     		cmp	r2, #6
 129 0046 E5D8     		bhi	.L3
 130 0048 01A1     		adr	r1, .L8
 131 004a 51F822F0 		ldr	pc, [r1, r2, lsl #2]
 132              	.LVL15:
 133 004e 00BF     		.p2align 2
ARM GAS  C:\Users\ADMINI~1\AppData\Local\Temp\cc6Bhsgy.s 			page 17


 134              	.L8:
 135 0050 6D000000 		.word	.L13+1
 136 0054 73000000 		.word	.L12+1
 137 0058 83000000 		.word	.L11+1
 138 005c 15000000 		.word	.L3+1
 139 0060 AD000000 		.word	.L10+1
 140 0064 9B000000 		.word	.L9+1
 141 0068 8B000000 		.word	.L7+1
 142              		.p2align 1
 143              	.L13:
 729:Middlewares/LVGL/GUI/lvgl/src/extra/layouts/grid/lv_grid.c ****                 break;
 144              		.loc 1 729 17 view .LVU38
 729:Middlewares/LVGL/GUI/lvgl/src/extra/layouts/grid/lv_grid.c ****                 break;
 145              		.loc 1 729 30 is_stmt 0 view .LVU39
 146 006c 0022     		movs	r2, #0
 147              	.LVL16:
 729:Middlewares/LVGL/GUI/lvgl/src/extra/layouts/grid/lv_grid.c ****                 break;
 148              		.loc 1 729 30 view .LVU40
 149 006e 2260     		str	r2, [r4]
 730:Middlewares/LVGL/GUI/lvgl/src/extra/layouts/grid/lv_grid.c ****             case LV_GRID_ALIGN_CENTER:
 150              		.loc 1 730 17 is_stmt 1 view .LVU41
 151 0070 D0E7     		b	.L3
 152              	.LVL17:
 153              	.L12:
 732:Middlewares/LVGL/GUI/lvgl/src/extra/layouts/grid/lv_grid.c ****                 break;
 154              		.loc 1 732 17 view .LVU42
 732:Middlewares/LVGL/GUI/lvgl/src/extra/layouts/grid/lv_grid.c ****                 break;
 155              		.loc 1 732 43 is_stmt 0 view .LVU43
 156 0072 ACEB0E0E 		sub	lr, ip, lr
 157              	.LVL18:
 732:Middlewares/LVGL/GUI/lvgl/src/extra/layouts/grid/lv_grid.c ****                 break;
 158              		.loc 1 732 56 view .LVU44
 159 0076 0EEBDE7E 		add	lr, lr, lr, lsr #31
 160 007a 4FEA6E02 		asr	r2, lr, #1
 161              	.LVL19:
 732:Middlewares/LVGL/GUI/lvgl/src/extra/layouts/grid/lv_grid.c ****                 break;
 162              		.loc 1 732 30 view .LVU45
 163 007e 2260     		str	r2, [r4]
 733:Middlewares/LVGL/GUI/lvgl/src/extra/layouts/grid/lv_grid.c ****             case LV_GRID_ALIGN_END:
 164              		.loc 1 733 17 is_stmt 1 view .LVU46
 165 0080 C8E7     		b	.L3
 166              	.LVL20:
 167              	.L11:
 735:Middlewares/LVGL/GUI/lvgl/src/extra/layouts/grid/lv_grid.c ****                 break;
 168              		.loc 1 735 17 view .LVU47
 735:Middlewares/LVGL/GUI/lvgl/src/extra/layouts/grid/lv_grid.c ****                 break;
 169              		.loc 1 735 42 is_stmt 0 view .LVU48
 170 0082 ACEB0E02 		sub	r2, ip, lr
 171              	.LVL21:
 735:Middlewares/LVGL/GUI/lvgl/src/extra/layouts/grid/lv_grid.c ****                 break;
 172              		.loc 1 735 30 view .LVU49
 173 0086 2260     		str	r2, [r4]
 736:Middlewares/LVGL/GUI/lvgl/src/extra/layouts/grid/lv_grid.c ****             case LV_GRID_ALIGN_SPACE_BETWEEN:
 174              		.loc 1 736 17 is_stmt 1 view .LVU50
 175 0088 C4E7     		b	.L3
 176              	.LVL22:
 177              	.L7:
ARM GAS  C:\Users\ADMINI~1\AppData\Local\Temp\cc6Bhsgy.s 			page 18


 738:Middlewares/LVGL/GUI/lvgl/src/extra/layouts/grid/lv_grid.c ****                 gap = (lv_coord_t)(cont_size - grid_size) / (lv_coord_t)(track_num - 1);
 178              		.loc 1 738 17 view .LVU51
 738:Middlewares/LVGL/GUI/lvgl/src/extra/layouts/grid/lv_grid.c ****                 gap = (lv_coord_t)(cont_size - grid_size) / (lv_coord_t)(track_num - 1);
 179              		.loc 1 738 30 is_stmt 0 view .LVU52
 180 008a 0023     		movs	r3, #0
 181              	.LVL23:
 738:Middlewares/LVGL/GUI/lvgl/src/extra/layouts/grid/lv_grid.c ****                 gap = (lv_coord_t)(cont_size - grid_size) / (lv_coord_t)(track_num - 1);
 182              		.loc 1 738 30 view .LVU53
 183 008c 2360     		str	r3, [r4]
 739:Middlewares/LVGL/GUI/lvgl/src/extra/layouts/grid/lv_grid.c ****                 break;
 184              		.loc 1 739 17 is_stmt 1 view .LVU54
 739:Middlewares/LVGL/GUI/lvgl/src/extra/layouts/grid/lv_grid.c ****                 break;
 185              		.loc 1 739 46 is_stmt 0 view .LVU55
 186 008e ACEB0E0E 		sub	lr, ip, lr
 187              	.LVL24:
 739:Middlewares/LVGL/GUI/lvgl/src/extra/layouts/grid/lv_grid.c ****                 break;
 188              		.loc 1 739 84 view .LVU56
 189 0092 6B1E     		subs	r3, r5, #1
 739:Middlewares/LVGL/GUI/lvgl/src/extra/layouts/grid/lv_grid.c ****                 break;
 190              		.loc 1 739 21 view .LVU57
 191 0094 9EFBF3F3 		sdiv	r3, lr, r3
 192              	.LVL25:
 740:Middlewares/LVGL/GUI/lvgl/src/extra/layouts/grid/lv_grid.c ****             case LV_GRID_ALIGN_SPACE_AROUND:
 193              		.loc 1 740 17 is_stmt 1 view .LVU58
 194 0098 BCE7     		b	.L3
 195              	.LVL26:
 196              	.L9:
 742:Middlewares/LVGL/GUI/lvgl/src/extra/layouts/grid/lv_grid.c ****                 pos_array[0] = gap / 2;
 197              		.loc 1 742 17 view .LVU59
 742:Middlewares/LVGL/GUI/lvgl/src/extra/layouts/grid/lv_grid.c ****                 pos_array[0] = gap / 2;
 198              		.loc 1 742 46 is_stmt 0 view .LVU60
 199 009a ACEB0E0E 		sub	lr, ip, lr
 200              	.LVL27:
 742:Middlewares/LVGL/GUI/lvgl/src/extra/layouts/grid/lv_grid.c ****                 pos_array[0] = gap / 2;
 201              		.loc 1 742 21 view .LVU61
 202 009e 9EFBF5F3 		sdiv	r3, lr, r5
 203              	.LVL28:
 743:Middlewares/LVGL/GUI/lvgl/src/extra/layouts/grid/lv_grid.c ****                 break;
 204              		.loc 1 743 17 is_stmt 1 view .LVU62
 743:Middlewares/LVGL/GUI/lvgl/src/extra/layouts/grid/lv_grid.c ****                 break;
 205              		.loc 1 743 36 is_stmt 0 view .LVU63
 206 00a2 03EBD372 		add	r2, r3, r3, lsr #31
 207              	.LVL29:
 743:Middlewares/LVGL/GUI/lvgl/src/extra/layouts/grid/lv_grid.c ****                 break;
 208              		.loc 1 743 36 view .LVU64
 209 00a6 5210     		asrs	r2, r2, #1
 743:Middlewares/LVGL/GUI/lvgl/src/extra/layouts/grid/lv_grid.c ****                 break;
 210              		.loc 1 743 30 view .LVU65
 211 00a8 2260     		str	r2, [r4]
 744:Middlewares/LVGL/GUI/lvgl/src/extra/layouts/grid/lv_grid.c ****             case LV_GRID_ALIGN_SPACE_EVENLY:
 212              		.loc 1 744 17 is_stmt 1 view .LVU66
 213 00aa B3E7     		b	.L3
 214              	.LVL30:
 215              	.L10:
 746:Middlewares/LVGL/GUI/lvgl/src/extra/layouts/grid/lv_grid.c ****                 pos_array[0] = gap;
 216              		.loc 1 746 17 view .LVU67
 746:Middlewares/LVGL/GUI/lvgl/src/extra/layouts/grid/lv_grid.c ****                 pos_array[0] = gap;
ARM GAS  C:\Users\ADMINI~1\AppData\Local\Temp\cc6Bhsgy.s 			page 19


 217              		.loc 1 746 46 is_stmt 0 view .LVU68
 218 00ac ACEB0E0E 		sub	lr, ip, lr
 219              	.LVL31:
 746:Middlewares/LVGL/GUI/lvgl/src/extra/layouts/grid/lv_grid.c ****                 pos_array[0] = gap;
 220              		.loc 1 746 84 view .LVU69
 221 00b0 6B1C     		adds	r3, r5, #1
 222              	.LVL32:
 746:Middlewares/LVGL/GUI/lvgl/src/extra/layouts/grid/lv_grid.c ****                 pos_array[0] = gap;
 223              		.loc 1 746 21 view .LVU70
 224 00b2 9EFBF3F3 		sdiv	r3, lr, r3
 225              	.LVL33:
 747:Middlewares/LVGL/GUI/lvgl/src/extra/layouts/grid/lv_grid.c ****                 break;
 226              		.loc 1 747 17 is_stmt 1 view .LVU71
 747:Middlewares/LVGL/GUI/lvgl/src/extra/layouts/grid/lv_grid.c ****                 break;
 227              		.loc 1 747 30 is_stmt 0 view .LVU72
 228 00b6 2360     		str	r3, [r4]
 748:Middlewares/LVGL/GUI/lvgl/src/extra/layouts/grid/lv_grid.c **** 
 229              		.loc 1 748 17 is_stmt 1 view .LVU73
 230 00b8 ACE7     		b	.L3
 231              	.LVL34:
 232              	.L15:
 755:Middlewares/LVGL/GUI/lvgl/src/extra/layouts/grid/lv_grid.c ****         pos_array[i + 1] = pos_array[i] + size_array[i] + gap;
 233              		.loc 1 755 9 discriminator 3 view .LVU74
 234              		.loc 1 755 37 is_stmt 0 discriminator 3 view .LVU75
 235 00ba 54F82210 		ldr	r1, [r4, r2, lsl #2]
 236              		.loc 1 755 53 discriminator 3 view .LVU76
 237 00be 56F82200 		ldr	r0, [r6, r2, lsl #2]
 238              		.loc 1 755 41 discriminator 3 view .LVU77
 239 00c2 0144     		add	r1, r1, r0
 240              		.loc 1 755 18 discriminator 3 view .LVU78
 241 00c4 0132     		adds	r2, r2, #1
 242              	.LVL35:
 243              		.loc 1 755 57 discriminator 3 view .LVU79
 244 00c6 1944     		add	r1, r1, r3
 245              		.loc 1 755 26 discriminator 3 view .LVU80
 246 00c8 44F82210 		str	r1, [r4, r2, lsl #2]
 754:Middlewares/LVGL/GUI/lvgl/src/extra/layouts/grid/lv_grid.c ****         pos_array[i + 1] = pos_array[i] + size_array[i] + gap;
 247              		.loc 1 754 35 is_stmt 1 discriminator 3 view .LVU81
 248              	.LVL36:
 249              	.L14:
 754:Middlewares/LVGL/GUI/lvgl/src/extra/layouts/grid/lv_grid.c ****         pos_array[i + 1] = pos_array[i] + size_array[i] + gap;
 250              		.loc 1 754 16 discriminator 1 view .LVU82
 754:Middlewares/LVGL/GUI/lvgl/src/extra/layouts/grid/lv_grid.c ****         pos_array[i + 1] = pos_array[i] + size_array[i] + gap;
 251              		.loc 1 754 30 is_stmt 0 discriminator 1 view .LVU83
 252 00cc 691E     		subs	r1, r5, #1
 754:Middlewares/LVGL/GUI/lvgl/src/extra/layouts/grid/lv_grid.c ****         pos_array[i + 1] = pos_array[i] + size_array[i] + gap;
 253              		.loc 1 754 5 discriminator 1 view .LVU84
 254 00ce 9142     		cmp	r1, r2
 255 00d0 F3D8     		bhi	.L15
 756:Middlewares/LVGL/GUI/lvgl/src/extra/layouts/grid/lv_grid.c ****     }
 757:Middlewares/LVGL/GUI/lvgl/src/extra/layouts/grid/lv_grid.c **** 
 758:Middlewares/LVGL/GUI/lvgl/src/extra/layouts/grid/lv_grid.c ****     lv_coord_t total_gird_size = pos_array[track_num - 1] + size_array[track_num - 1] - pos_array[0
 256              		.loc 1 758 5 is_stmt 1 view .LVU85
 257              		.loc 1 758 43 is_stmt 0 view .LVU86
 258 00d2 05F18043 		add	r3, r5, #1073741824
 259              	.LVL37:
 260              		.loc 1 758 43 view .LVU87
ARM GAS  C:\Users\ADMINI~1\AppData\Local\Temp\cc6Bhsgy.s 			page 20


 261 00d6 013B     		subs	r3, r3, #1
 262 00d8 54F82300 		ldr	r0, [r4, r3, lsl #2]
 263              		.loc 1 758 71 view .LVU88
 264 00dc 56F82330 		ldr	r3, [r6, r3, lsl #2]
 265              		.loc 1 758 59 view .LVU89
 266 00e0 1844     		add	r0, r0, r3
 267              		.loc 1 758 98 view .LVU90
 268 00e2 2368     		ldr	r3, [r4]
 269              		.loc 1 758 16 view .LVU91
 270 00e4 C01A     		subs	r0, r0, r3
 271              	.LVL38:
 759:Middlewares/LVGL/GUI/lvgl/src/extra/layouts/grid/lv_grid.c **** 
 760:Middlewares/LVGL/GUI/lvgl/src/extra/layouts/grid/lv_grid.c ****     if(reverse) {
 272              		.loc 1 760 5 is_stmt 1 view .LVU92
 273              		.loc 1 760 7 is_stmt 0 view .LVU93
 274 00e6 07B9     		cbnz	r7, .L20
 275              	.LVL39:
 276              	.L1:
 761:Middlewares/LVGL/GUI/lvgl/src/extra/layouts/grid/lv_grid.c ****         for(i = 0; i < track_num; i++) {
 762:Middlewares/LVGL/GUI/lvgl/src/extra/layouts/grid/lv_grid.c ****             pos_array[i] = cont_size - pos_array[i] - size_array[i];
 763:Middlewares/LVGL/GUI/lvgl/src/extra/layouts/grid/lv_grid.c ****         }
 764:Middlewares/LVGL/GUI/lvgl/src/extra/layouts/grid/lv_grid.c **** 
 765:Middlewares/LVGL/GUI/lvgl/src/extra/layouts/grid/lv_grid.c ****     }
 766:Middlewares/LVGL/GUI/lvgl/src/extra/layouts/grid/lv_grid.c **** 
 767:Middlewares/LVGL/GUI/lvgl/src/extra/layouts/grid/lv_grid.c ****     /*Return the full size of the grid*/
 768:Middlewares/LVGL/GUI/lvgl/src/extra/layouts/grid/lv_grid.c ****     return total_gird_size;
 769:Middlewares/LVGL/GUI/lvgl/src/extra/layouts/grid/lv_grid.c **** }
 277              		.loc 1 769 1 view .LVU94
 278 00e8 F0BD     		pop	{r4, r5, r6, r7, pc}
 279              	.LVL40:
 280              	.L20:
 761:Middlewares/LVGL/GUI/lvgl/src/extra/layouts/grid/lv_grid.c ****         for(i = 0; i < track_num; i++) {
 281              		.loc 1 761 15 view .LVU95
 282 00ea 0023     		movs	r3, #0
 283              	.LVL41:
 284              	.L16:
 761:Middlewares/LVGL/GUI/lvgl/src/extra/layouts/grid/lv_grid.c ****         for(i = 0; i < track_num; i++) {
 285              		.loc 1 761 20 is_stmt 1 discriminator 1 view .LVU96
 761:Middlewares/LVGL/GUI/lvgl/src/extra/layouts/grid/lv_grid.c ****         for(i = 0; i < track_num; i++) {
 286              		.loc 1 761 9 is_stmt 0 discriminator 1 view .LVU97
 287 00ec AB42     		cmp	r3, r5
 288 00ee FBD2     		bcs	.L1
 762:Middlewares/LVGL/GUI/lvgl/src/extra/layouts/grid/lv_grid.c ****         }
 289              		.loc 1 762 13 is_stmt 1 discriminator 3 view .LVU98
 762:Middlewares/LVGL/GUI/lvgl/src/extra/layouts/grid/lv_grid.c ****         }
 290              		.loc 1 762 49 is_stmt 0 discriminator 3 view .LVU99
 291 00f0 54F82320 		ldr	r2, [r4, r3, lsl #2]
 762:Middlewares/LVGL/GUI/lvgl/src/extra/layouts/grid/lv_grid.c ****         }
 292              		.loc 1 762 38 discriminator 3 view .LVU100
 293 00f4 ACEB0202 		sub	r2, ip, r2
 762:Middlewares/LVGL/GUI/lvgl/src/extra/layouts/grid/lv_grid.c ****         }
 294              		.loc 1 762 65 discriminator 3 view .LVU101
 295 00f8 56F82310 		ldr	r1, [r6, r3, lsl #2]
 762:Middlewares/LVGL/GUI/lvgl/src/extra/layouts/grid/lv_grid.c ****         }
 296              		.loc 1 762 53 discriminator 3 view .LVU102
 297 00fc 521A     		subs	r2, r2, r1
 762:Middlewares/LVGL/GUI/lvgl/src/extra/layouts/grid/lv_grid.c ****         }
ARM GAS  C:\Users\ADMINI~1\AppData\Local\Temp\cc6Bhsgy.s 			page 21


 298              		.loc 1 762 26 discriminator 3 view .LVU103
 299 00fe 44F82320 		str	r2, [r4, r3, lsl #2]
 761:Middlewares/LVGL/GUI/lvgl/src/extra/layouts/grid/lv_grid.c ****         for(i = 0; i < track_num; i++) {
 300              		.loc 1 761 35 is_stmt 1 discriminator 3 view .LVU104
 761:Middlewares/LVGL/GUI/lvgl/src/extra/layouts/grid/lv_grid.c ****         for(i = 0; i < track_num; i++) {
 301              		.loc 1 761 36 is_stmt 0 discriminator 3 view .LVU105
 302 0102 0133     		adds	r3, r3, #1
 303              	.LVL42:
 761:Middlewares/LVGL/GUI/lvgl/src/extra/layouts/grid/lv_grid.c ****         for(i = 0; i < track_num; i++) {
 304              		.loc 1 761 36 discriminator 3 view .LVU106
 305 0104 F2E7     		b	.L16
 306              		.cfi_endproc
 307              	.LFE209:
 309 0106 00BF     		.section	.text.count_tracks,"ax",%progbits
 310              		.align	1
 311              		.syntax unified
 312              		.thumb
 313              		.thumb_func
 315              	count_tracks:
 316              	.LVL43:
 317              	.LFB210:
 770:Middlewares/LVGL/GUI/lvgl/src/extra/layouts/grid/lv_grid.c **** 
 771:Middlewares/LVGL/GUI/lvgl/src/extra/layouts/grid/lv_grid.c **** static uint32_t count_tracks(const lv_coord_t * templ)
 772:Middlewares/LVGL/GUI/lvgl/src/extra/layouts/grid/lv_grid.c **** {
 318              		.loc 1 772 1 is_stmt 1 view -0
 319              		.cfi_startproc
 320              		@ args = 0, pretend = 0, frame = 0
 321              		@ frame_needed = 0, uses_anonymous_args = 0
 322              		@ link register save eliminated.
 323              		.loc 1 772 1 is_stmt 0 view .LVU108
 324 0000 0146     		mov	r1, r0
 773:Middlewares/LVGL/GUI/lvgl/src/extra/layouts/grid/lv_grid.c ****     uint32_t i;
 325              		.loc 1 773 5 is_stmt 1 view .LVU109
 774:Middlewares/LVGL/GUI/lvgl/src/extra/layouts/grid/lv_grid.c ****     for(i = 0; templ[i] != LV_GRID_TEMPLATE_LAST; i++);
 326              		.loc 1 774 5 view .LVU110
 327              	.LVL44:
 328              		.loc 1 774 11 is_stmt 0 view .LVU111
 329 0002 0020     		movs	r0, #0
 330              	.LVL45:
 331              		.loc 1 774 5 view .LVU112
 332 0004 00E0     		b	.L24
 333              	.LVL46:
 334              	.L25:
 335              		.loc 1 774 55 is_stmt 1 discriminator 3 view .LVU113
 336              		.loc 1 774 51 discriminator 3 view .LVU114
 337              		.loc 1 774 52 is_stmt 0 discriminator 3 view .LVU115
 338 0006 0130     		adds	r0, r0, #1
 339              	.LVL47:
 340              	.L24:
 341              		.loc 1 774 16 is_stmt 1 discriminator 1 view .LVU116
 342              		.loc 1 774 21 is_stmt 0 discriminator 1 view .LVU117
 343 0008 51F82020 		ldr	r2, [r1, r0, lsl #2]
 344              		.loc 1 774 5 discriminator 1 view .LVU118
 345 000c 6FF06043 		mvn	r3, #-536870912
 346 0010 9A42     		cmp	r2, r3
 347 0012 F8D1     		bne	.L25
 775:Middlewares/LVGL/GUI/lvgl/src/extra/layouts/grid/lv_grid.c **** 
ARM GAS  C:\Users\ADMINI~1\AppData\Local\Temp\cc6Bhsgy.s 			page 22


 776:Middlewares/LVGL/GUI/lvgl/src/extra/layouts/grid/lv_grid.c ****     return i;
 348              		.loc 1 776 5 is_stmt 1 view .LVU119
 777:Middlewares/LVGL/GUI/lvgl/src/extra/layouts/grid/lv_grid.c **** }
 349              		.loc 1 777 1 is_stmt 0 view .LVU120
 350 0014 7047     		bx	lr
 351              		.cfi_endproc
 352              	.LFE210:
 354              		.section	.text.item_repos,"ax",%progbits
 355              		.align	1
 356              		.syntax unified
 357              		.thumb
 358              		.thumb_func
 360              	item_repos:
 361              	.LVL48:
 362              	.LFB208:
 581:Middlewares/LVGL/GUI/lvgl/src/extra/layouts/grid/lv_grid.c ****     if(lv_obj_has_flag_any(item, LV_OBJ_FLAG_IGNORE_LAYOUT | LV_OBJ_FLAG_HIDDEN | LV_OBJ_FLAG_FLOAT
 363              		.loc 1 581 1 is_stmt 1 view -0
 364              		.cfi_startproc
 365              		@ args = 0, pretend = 0, frame = 32
 366              		@ frame_needed = 0, uses_anonymous_args = 0
 581:Middlewares/LVGL/GUI/lvgl/src/extra/layouts/grid/lv_grid.c ****     if(lv_obj_has_flag_any(item, LV_OBJ_FLAG_IGNORE_LAYOUT | LV_OBJ_FLAG_HIDDEN | LV_OBJ_FLAG_FLOAT
 367              		.loc 1 581 1 is_stmt 0 view .LVU122
 368 0000 2DE9F04F 		push	{r4, r5, r6, r7, r8, r9, r10, fp, lr}
 369              	.LCFI1:
 370              		.cfi_def_cfa_offset 36
 371              		.cfi_offset 4, -36
 372              		.cfi_offset 5, -32
 373              		.cfi_offset 6, -28
 374              		.cfi_offset 7, -24
 375              		.cfi_offset 8, -20
 376              		.cfi_offset 9, -16
 377              		.cfi_offset 10, -12
 378              		.cfi_offset 11, -8
 379              		.cfi_offset 14, -4
 380 0004 89B0     		sub	sp, sp, #36
 381              	.LCFI2:
 382              		.cfi_def_cfa_offset 72
 383 0006 0446     		mov	r4, r0
 384 0008 0D46     		mov	r5, r1
 385 000a 0192     		str	r2, [sp, #4]
 582:Middlewares/LVGL/GUI/lvgl/src/extra/layouts/grid/lv_grid.c ****     uint32_t col_span = get_col_span(item);
 386              		.loc 1 582 5 is_stmt 1 view .LVU123
 582:Middlewares/LVGL/GUI/lvgl/src/extra/layouts/grid/lv_grid.c ****     uint32_t col_span = get_col_span(item);
 387              		.loc 1 582 8 is_stmt 0 view .LVU124
 388 000c C249     		ldr	r1, .L52
 389              	.LVL49:
 582:Middlewares/LVGL/GUI/lvgl/src/extra/layouts/grid/lv_grid.c ****     uint32_t col_span = get_col_span(item);
 390              		.loc 1 582 8 view .LVU125
 391 000e FFF7FEFF 		bl	lv_obj_has_flag_any
 392              	.LVL50:
 582:Middlewares/LVGL/GUI/lvgl/src/extra/layouts/grid/lv_grid.c ****     uint32_t col_span = get_col_span(item);
 393              		.loc 1 582 7 view .LVU126
 394 0012 10B1     		cbz	r0, .L47
 395              	.LVL51:
 396              	.L26:
 690:Middlewares/LVGL/GUI/lvgl/src/extra/layouts/grid/lv_grid.c **** 
 397              		.loc 1 690 1 view .LVU127
ARM GAS  C:\Users\ADMINI~1\AppData\Local\Temp\cc6Bhsgy.s 			page 23


 398 0014 09B0     		add	sp, sp, #36
 399              	.LCFI3:
 400              		.cfi_remember_state
 401              		.cfi_def_cfa_offset 36
 402              		@ sp needed
 403 0016 BDE8F08F 		pop	{r4, r5, r6, r7, r8, r9, r10, fp, pc}
 404              	.LVL52:
 405              	.L47:
 406              	.LCFI4:
 407              		.cfi_restore_state
 583:Middlewares/LVGL/GUI/lvgl/src/extra/layouts/grid/lv_grid.c ****     uint32_t row_span = get_row_span(item);
 408              		.loc 1 583 5 is_stmt 1 view .LVU128
 409              	.LBB109:
 410              	.LBI109:
  77:Middlewares/LVGL/GUI/lvgl/src/extra/layouts/grid/lv_grid.c **** {
 411              		.loc 1 77 23 view .LVU129
 412              	.LBB110:
  79:Middlewares/LVGL/GUI/lvgl/src/extra/layouts/grid/lv_grid.c **** }
 413              		.loc 1 79 5 view .LVU130
 414              	.LBB111:
 415              	.LBI111:
 416              		.file 2 "Middlewares/LVGL/GUI/lvgl/src/extra/layouts/grid/../grid/lv_grid.h"
   1:Middlewares/LVGL/GUI/lvgl/src/extra/layouts/grid/../grid/lv_grid.h **** /**
   2:Middlewares/LVGL/GUI/lvgl/src/extra/layouts/grid/../grid/lv_grid.h ****  * @file lv_grid.h
   3:Middlewares/LVGL/GUI/lvgl/src/extra/layouts/grid/../grid/lv_grid.h ****  *
   4:Middlewares/LVGL/GUI/lvgl/src/extra/layouts/grid/../grid/lv_grid.h ****  */
   5:Middlewares/LVGL/GUI/lvgl/src/extra/layouts/grid/../grid/lv_grid.h **** 
   6:Middlewares/LVGL/GUI/lvgl/src/extra/layouts/grid/../grid/lv_grid.h **** #ifndef LV_GRID_H
   7:Middlewares/LVGL/GUI/lvgl/src/extra/layouts/grid/../grid/lv_grid.h **** #define LV_GRID_H
   8:Middlewares/LVGL/GUI/lvgl/src/extra/layouts/grid/../grid/lv_grid.h **** 
   9:Middlewares/LVGL/GUI/lvgl/src/extra/layouts/grid/../grid/lv_grid.h **** #ifdef __cplusplus
  10:Middlewares/LVGL/GUI/lvgl/src/extra/layouts/grid/../grid/lv_grid.h **** extern "C" {
  11:Middlewares/LVGL/GUI/lvgl/src/extra/layouts/grid/../grid/lv_grid.h **** #endif
  12:Middlewares/LVGL/GUI/lvgl/src/extra/layouts/grid/../grid/lv_grid.h **** 
  13:Middlewares/LVGL/GUI/lvgl/src/extra/layouts/grid/../grid/lv_grid.h **** /*********************
  14:Middlewares/LVGL/GUI/lvgl/src/extra/layouts/grid/../grid/lv_grid.h ****  *      INCLUDES
  15:Middlewares/LVGL/GUI/lvgl/src/extra/layouts/grid/../grid/lv_grid.h ****  *********************/
  16:Middlewares/LVGL/GUI/lvgl/src/extra/layouts/grid/../grid/lv_grid.h **** #include "../../../core/lv_obj.h"
  17:Middlewares/LVGL/GUI/lvgl/src/extra/layouts/grid/../grid/lv_grid.h **** #if LV_USE_GRID
  18:Middlewares/LVGL/GUI/lvgl/src/extra/layouts/grid/../grid/lv_grid.h **** 
  19:Middlewares/LVGL/GUI/lvgl/src/extra/layouts/grid/../grid/lv_grid.h **** /*********************
  20:Middlewares/LVGL/GUI/lvgl/src/extra/layouts/grid/../grid/lv_grid.h ****  *      DEFINES
  21:Middlewares/LVGL/GUI/lvgl/src/extra/layouts/grid/../grid/lv_grid.h ****  *********************/
  22:Middlewares/LVGL/GUI/lvgl/src/extra/layouts/grid/../grid/lv_grid.h **** /**
  23:Middlewares/LVGL/GUI/lvgl/src/extra/layouts/grid/../grid/lv_grid.h ****  * Can be used track size to make the track fill the free space.
  24:Middlewares/LVGL/GUI/lvgl/src/extra/layouts/grid/../grid/lv_grid.h ****  * @param x how much space to take proportionally to other FR tracks
  25:Middlewares/LVGL/GUI/lvgl/src/extra/layouts/grid/../grid/lv_grid.h ****  * @return a special track size
  26:Middlewares/LVGL/GUI/lvgl/src/extra/layouts/grid/../grid/lv_grid.h ****  */
  27:Middlewares/LVGL/GUI/lvgl/src/extra/layouts/grid/../grid/lv_grid.h **** #define LV_GRID_FR(x)          (LV_COORD_MAX - 100 + x)
  28:Middlewares/LVGL/GUI/lvgl/src/extra/layouts/grid/../grid/lv_grid.h **** 
  29:Middlewares/LVGL/GUI/lvgl/src/extra/layouts/grid/../grid/lv_grid.h **** #define LV_GRID_CONTENT        (LV_COORD_MAX - 101)
  30:Middlewares/LVGL/GUI/lvgl/src/extra/layouts/grid/../grid/lv_grid.h **** LV_EXPORT_CONST_INT(LV_GRID_CONTENT);
  31:Middlewares/LVGL/GUI/lvgl/src/extra/layouts/grid/../grid/lv_grid.h **** 
  32:Middlewares/LVGL/GUI/lvgl/src/extra/layouts/grid/../grid/lv_grid.h **** #define LV_GRID_TEMPLATE_LAST  (LV_COORD_MAX)
  33:Middlewares/LVGL/GUI/lvgl/src/extra/layouts/grid/../grid/lv_grid.h **** LV_EXPORT_CONST_INT(LV_GRID_TEMPLATE_LAST);
  34:Middlewares/LVGL/GUI/lvgl/src/extra/layouts/grid/../grid/lv_grid.h **** 
  35:Middlewares/LVGL/GUI/lvgl/src/extra/layouts/grid/../grid/lv_grid.h **** /**********************
ARM GAS  C:\Users\ADMINI~1\AppData\Local\Temp\cc6Bhsgy.s 			page 24


  36:Middlewares/LVGL/GUI/lvgl/src/extra/layouts/grid/../grid/lv_grid.h ****  *      TYPEDEFS
  37:Middlewares/LVGL/GUI/lvgl/src/extra/layouts/grid/../grid/lv_grid.h ****  **********************/
  38:Middlewares/LVGL/GUI/lvgl/src/extra/layouts/grid/../grid/lv_grid.h **** 
  39:Middlewares/LVGL/GUI/lvgl/src/extra/layouts/grid/../grid/lv_grid.h **** /*Can't include lv_obj.h because it includes this header file*/
  40:Middlewares/LVGL/GUI/lvgl/src/extra/layouts/grid/../grid/lv_grid.h **** struct _lv_obj_t;
  41:Middlewares/LVGL/GUI/lvgl/src/extra/layouts/grid/../grid/lv_grid.h **** 
  42:Middlewares/LVGL/GUI/lvgl/src/extra/layouts/grid/../grid/lv_grid.h **** typedef enum {
  43:Middlewares/LVGL/GUI/lvgl/src/extra/layouts/grid/../grid/lv_grid.h ****     LV_GRID_ALIGN_START,
  44:Middlewares/LVGL/GUI/lvgl/src/extra/layouts/grid/../grid/lv_grid.h ****     LV_GRID_ALIGN_CENTER,
  45:Middlewares/LVGL/GUI/lvgl/src/extra/layouts/grid/../grid/lv_grid.h ****     LV_GRID_ALIGN_END,
  46:Middlewares/LVGL/GUI/lvgl/src/extra/layouts/grid/../grid/lv_grid.h ****     LV_GRID_ALIGN_STRETCH,
  47:Middlewares/LVGL/GUI/lvgl/src/extra/layouts/grid/../grid/lv_grid.h ****     LV_GRID_ALIGN_SPACE_EVENLY,
  48:Middlewares/LVGL/GUI/lvgl/src/extra/layouts/grid/../grid/lv_grid.h ****     LV_GRID_ALIGN_SPACE_AROUND,
  49:Middlewares/LVGL/GUI/lvgl/src/extra/layouts/grid/../grid/lv_grid.h ****     LV_GRID_ALIGN_SPACE_BETWEEN,
  50:Middlewares/LVGL/GUI/lvgl/src/extra/layouts/grid/../grid/lv_grid.h **** } lv_grid_align_t;
  51:Middlewares/LVGL/GUI/lvgl/src/extra/layouts/grid/../grid/lv_grid.h **** 
  52:Middlewares/LVGL/GUI/lvgl/src/extra/layouts/grid/../grid/lv_grid.h **** /**********************
  53:Middlewares/LVGL/GUI/lvgl/src/extra/layouts/grid/../grid/lv_grid.h ****  * GLOBAL VARIABLES
  54:Middlewares/LVGL/GUI/lvgl/src/extra/layouts/grid/../grid/lv_grid.h ****  **********************/
  55:Middlewares/LVGL/GUI/lvgl/src/extra/layouts/grid/../grid/lv_grid.h **** 
  56:Middlewares/LVGL/GUI/lvgl/src/extra/layouts/grid/../grid/lv_grid.h **** extern uint32_t LV_LAYOUT_GRID;
  57:Middlewares/LVGL/GUI/lvgl/src/extra/layouts/grid/../grid/lv_grid.h **** extern lv_style_prop_t LV_STYLE_GRID_COLUMN_DSC_ARRAY;
  58:Middlewares/LVGL/GUI/lvgl/src/extra/layouts/grid/../grid/lv_grid.h **** extern lv_style_prop_t LV_STYLE_GRID_COLUMN_ALIGN;
  59:Middlewares/LVGL/GUI/lvgl/src/extra/layouts/grid/../grid/lv_grid.h **** extern lv_style_prop_t LV_STYLE_GRID_ROW_DSC_ARRAY;
  60:Middlewares/LVGL/GUI/lvgl/src/extra/layouts/grid/../grid/lv_grid.h **** extern lv_style_prop_t LV_STYLE_GRID_ROW_ALIGN;
  61:Middlewares/LVGL/GUI/lvgl/src/extra/layouts/grid/../grid/lv_grid.h **** extern lv_style_prop_t LV_STYLE_GRID_CELL_COLUMN_POS;
  62:Middlewares/LVGL/GUI/lvgl/src/extra/layouts/grid/../grid/lv_grid.h **** extern lv_style_prop_t LV_STYLE_GRID_CELL_COLUMN_SPAN;
  63:Middlewares/LVGL/GUI/lvgl/src/extra/layouts/grid/../grid/lv_grid.h **** extern lv_style_prop_t LV_STYLE_GRID_CELL_X_ALIGN;
  64:Middlewares/LVGL/GUI/lvgl/src/extra/layouts/grid/../grid/lv_grid.h **** extern lv_style_prop_t LV_STYLE_GRID_CELL_ROW_POS;
  65:Middlewares/LVGL/GUI/lvgl/src/extra/layouts/grid/../grid/lv_grid.h **** extern lv_style_prop_t LV_STYLE_GRID_CELL_ROW_SPAN;
  66:Middlewares/LVGL/GUI/lvgl/src/extra/layouts/grid/../grid/lv_grid.h **** extern lv_style_prop_t LV_STYLE_GRID_CELL_Y_ALIGN;
  67:Middlewares/LVGL/GUI/lvgl/src/extra/layouts/grid/../grid/lv_grid.h **** 
  68:Middlewares/LVGL/GUI/lvgl/src/extra/layouts/grid/../grid/lv_grid.h **** /**********************
  69:Middlewares/LVGL/GUI/lvgl/src/extra/layouts/grid/../grid/lv_grid.h ****  * GLOBAL PROTOTYPES
  70:Middlewares/LVGL/GUI/lvgl/src/extra/layouts/grid/../grid/lv_grid.h ****  **********************/
  71:Middlewares/LVGL/GUI/lvgl/src/extra/layouts/grid/../grid/lv_grid.h **** 
  72:Middlewares/LVGL/GUI/lvgl/src/extra/layouts/grid/../grid/lv_grid.h **** void lv_grid_init(void);
  73:Middlewares/LVGL/GUI/lvgl/src/extra/layouts/grid/../grid/lv_grid.h **** 
  74:Middlewares/LVGL/GUI/lvgl/src/extra/layouts/grid/../grid/lv_grid.h **** void lv_obj_set_grid_dsc_array(lv_obj_t * obj, const lv_coord_t col_dsc[], const lv_coord_t row_dsc
  75:Middlewares/LVGL/GUI/lvgl/src/extra/layouts/grid/../grid/lv_grid.h **** 
  76:Middlewares/LVGL/GUI/lvgl/src/extra/layouts/grid/../grid/lv_grid.h **** void lv_obj_set_grid_align(lv_obj_t * obj, lv_grid_align_t column_align, lv_grid_align_t row_align)
  77:Middlewares/LVGL/GUI/lvgl/src/extra/layouts/grid/../grid/lv_grid.h **** 
  78:Middlewares/LVGL/GUI/lvgl/src/extra/layouts/grid/../grid/lv_grid.h **** /**
  79:Middlewares/LVGL/GUI/lvgl/src/extra/layouts/grid/../grid/lv_grid.h ****  * Set the cell of an object. The object's parent needs to have grid layout, else nothing will happ
  80:Middlewares/LVGL/GUI/lvgl/src/extra/layouts/grid/../grid/lv_grid.h ****  * @param obj pointer to an object
  81:Middlewares/LVGL/GUI/lvgl/src/extra/layouts/grid/../grid/lv_grid.h ****  * @param column_align the vertical alignment in the cell. `LV_GRID_START/END/CENTER/STRETCH`
  82:Middlewares/LVGL/GUI/lvgl/src/extra/layouts/grid/../grid/lv_grid.h ****  * @param col_pos column ID
  83:Middlewares/LVGL/GUI/lvgl/src/extra/layouts/grid/../grid/lv_grid.h ****  * @param col_span number of columns to take (>= 1)
  84:Middlewares/LVGL/GUI/lvgl/src/extra/layouts/grid/../grid/lv_grid.h ****  * @param row_align the horizontal alignment in the cell. `LV_GRID_START/END/CENTER/STRETCH`
  85:Middlewares/LVGL/GUI/lvgl/src/extra/layouts/grid/../grid/lv_grid.h ****  * @param row_pos row ID
  86:Middlewares/LVGL/GUI/lvgl/src/extra/layouts/grid/../grid/lv_grid.h ****  * @param row_span number of rows to take (>= 1)
  87:Middlewares/LVGL/GUI/lvgl/src/extra/layouts/grid/../grid/lv_grid.h ****  */
  88:Middlewares/LVGL/GUI/lvgl/src/extra/layouts/grid/../grid/lv_grid.h **** void lv_obj_set_grid_cell(lv_obj_t * obj, lv_grid_align_t column_align, uint8_t col_pos, uint8_t co
  89:Middlewares/LVGL/GUI/lvgl/src/extra/layouts/grid/../grid/lv_grid.h ****                           lv_grid_align_t row_align, uint8_t row_pos, uint8_t row_span);
  90:Middlewares/LVGL/GUI/lvgl/src/extra/layouts/grid/../grid/lv_grid.h **** 
  91:Middlewares/LVGL/GUI/lvgl/src/extra/layouts/grid/../grid/lv_grid.h **** /**
  92:Middlewares/LVGL/GUI/lvgl/src/extra/layouts/grid/../grid/lv_grid.h ****  * Just a wrapper to `LV_GRID_FR` for bindings.
ARM GAS  C:\Users\ADMINI~1\AppData\Local\Temp\cc6Bhsgy.s 			page 25


  93:Middlewares/LVGL/GUI/lvgl/src/extra/layouts/grid/../grid/lv_grid.h ****  */
  94:Middlewares/LVGL/GUI/lvgl/src/extra/layouts/grid/../grid/lv_grid.h **** static inline lv_coord_t lv_grid_fr(uint8_t x)
  95:Middlewares/LVGL/GUI/lvgl/src/extra/layouts/grid/../grid/lv_grid.h **** {
  96:Middlewares/LVGL/GUI/lvgl/src/extra/layouts/grid/../grid/lv_grid.h ****     return LV_GRID_FR(x);
  97:Middlewares/LVGL/GUI/lvgl/src/extra/layouts/grid/../grid/lv_grid.h **** }
  98:Middlewares/LVGL/GUI/lvgl/src/extra/layouts/grid/../grid/lv_grid.h **** 
  99:Middlewares/LVGL/GUI/lvgl/src/extra/layouts/grid/../grid/lv_grid.h **** void lv_style_set_grid_row_dsc_array(lv_style_t * style, const lv_coord_t value[]);
 100:Middlewares/LVGL/GUI/lvgl/src/extra/layouts/grid/../grid/lv_grid.h **** void lv_style_set_grid_column_dsc_array(lv_style_t * style, const lv_coord_t value[]);
 101:Middlewares/LVGL/GUI/lvgl/src/extra/layouts/grid/../grid/lv_grid.h **** void lv_style_set_grid_row_align(lv_style_t * style, lv_grid_align_t value);
 102:Middlewares/LVGL/GUI/lvgl/src/extra/layouts/grid/../grid/lv_grid.h **** void lv_style_set_grid_column_align(lv_style_t * style, lv_grid_align_t value);
 103:Middlewares/LVGL/GUI/lvgl/src/extra/layouts/grid/../grid/lv_grid.h **** void lv_style_set_grid_cell_column_pos(lv_style_t * style, lv_coord_t value);
 104:Middlewares/LVGL/GUI/lvgl/src/extra/layouts/grid/../grid/lv_grid.h **** void lv_style_set_grid_cell_column_span(lv_style_t * style, lv_coord_t value);
 105:Middlewares/LVGL/GUI/lvgl/src/extra/layouts/grid/../grid/lv_grid.h **** void lv_style_set_grid_cell_row_pos(lv_style_t * style, lv_coord_t value);
 106:Middlewares/LVGL/GUI/lvgl/src/extra/layouts/grid/../grid/lv_grid.h **** void lv_style_set_grid_cell_row_span(lv_style_t * style, lv_coord_t value);
 107:Middlewares/LVGL/GUI/lvgl/src/extra/layouts/grid/../grid/lv_grid.h **** void lv_style_set_grid_cell_x_align(lv_style_t * style, lv_coord_t value);
 108:Middlewares/LVGL/GUI/lvgl/src/extra/layouts/grid/../grid/lv_grid.h **** void lv_style_set_grid_cell_y_align(lv_style_t * style, lv_coord_t value);
 109:Middlewares/LVGL/GUI/lvgl/src/extra/layouts/grid/../grid/lv_grid.h **** 
 110:Middlewares/LVGL/GUI/lvgl/src/extra/layouts/grid/../grid/lv_grid.h **** void lv_obj_set_style_grid_row_dsc_array(lv_obj_t * obj, const lv_coord_t value[], lv_style_selecto
 111:Middlewares/LVGL/GUI/lvgl/src/extra/layouts/grid/../grid/lv_grid.h **** void lv_obj_set_style_grid_column_dsc_array(lv_obj_t * obj, const lv_coord_t value[], lv_style_sele
 112:Middlewares/LVGL/GUI/lvgl/src/extra/layouts/grid/../grid/lv_grid.h **** void lv_obj_set_style_grid_row_align(lv_obj_t * obj, lv_grid_align_t value, lv_style_selector_t sel
 113:Middlewares/LVGL/GUI/lvgl/src/extra/layouts/grid/../grid/lv_grid.h **** void lv_obj_set_style_grid_column_align(lv_obj_t * obj, lv_grid_align_t value, lv_style_selector_t 
 114:Middlewares/LVGL/GUI/lvgl/src/extra/layouts/grid/../grid/lv_grid.h **** void lv_obj_set_style_grid_cell_column_pos(lv_obj_t * obj, lv_coord_t value, lv_style_selector_t se
 115:Middlewares/LVGL/GUI/lvgl/src/extra/layouts/grid/../grid/lv_grid.h **** void lv_obj_set_style_grid_cell_column_span(lv_obj_t * obj, lv_coord_t value, lv_style_selector_t s
 116:Middlewares/LVGL/GUI/lvgl/src/extra/layouts/grid/../grid/lv_grid.h **** void lv_obj_set_style_grid_cell_row_pos(lv_obj_t * obj, lv_coord_t value, lv_style_selector_t selec
 117:Middlewares/LVGL/GUI/lvgl/src/extra/layouts/grid/../grid/lv_grid.h **** void lv_obj_set_style_grid_cell_row_span(lv_obj_t * obj, lv_coord_t value, lv_style_selector_t sele
 118:Middlewares/LVGL/GUI/lvgl/src/extra/layouts/grid/../grid/lv_grid.h **** void lv_obj_set_style_grid_cell_x_align(lv_obj_t * obj, lv_coord_t value, lv_style_selector_t selec
 119:Middlewares/LVGL/GUI/lvgl/src/extra/layouts/grid/../grid/lv_grid.h **** void lv_obj_set_style_grid_cell_y_align(lv_obj_t * obj, lv_coord_t value, lv_style_selector_t selec
 120:Middlewares/LVGL/GUI/lvgl/src/extra/layouts/grid/../grid/lv_grid.h **** 
 121:Middlewares/LVGL/GUI/lvgl/src/extra/layouts/grid/../grid/lv_grid.h **** static inline const lv_coord_t * lv_obj_get_style_grid_row_dsc_array(const lv_obj_t * obj, uint32_t
 122:Middlewares/LVGL/GUI/lvgl/src/extra/layouts/grid/../grid/lv_grid.h **** {
 123:Middlewares/LVGL/GUI/lvgl/src/extra/layouts/grid/../grid/lv_grid.h ****     lv_style_value_t v = lv_obj_get_style_prop(obj, part, LV_STYLE_GRID_ROW_DSC_ARRAY);
 124:Middlewares/LVGL/GUI/lvgl/src/extra/layouts/grid/../grid/lv_grid.h ****     return (const lv_coord_t *)v.ptr;
 125:Middlewares/LVGL/GUI/lvgl/src/extra/layouts/grid/../grid/lv_grid.h **** }
 126:Middlewares/LVGL/GUI/lvgl/src/extra/layouts/grid/../grid/lv_grid.h **** 
 127:Middlewares/LVGL/GUI/lvgl/src/extra/layouts/grid/../grid/lv_grid.h **** static inline const lv_coord_t * lv_obj_get_style_grid_column_dsc_array(const lv_obj_t * obj, uint3
 128:Middlewares/LVGL/GUI/lvgl/src/extra/layouts/grid/../grid/lv_grid.h **** {
 129:Middlewares/LVGL/GUI/lvgl/src/extra/layouts/grid/../grid/lv_grid.h ****     lv_style_value_t v = lv_obj_get_style_prop(obj, part, LV_STYLE_GRID_COLUMN_DSC_ARRAY);
 130:Middlewares/LVGL/GUI/lvgl/src/extra/layouts/grid/../grid/lv_grid.h ****     return (const lv_coord_t *)v.ptr;
 131:Middlewares/LVGL/GUI/lvgl/src/extra/layouts/grid/../grid/lv_grid.h **** }
 132:Middlewares/LVGL/GUI/lvgl/src/extra/layouts/grid/../grid/lv_grid.h **** 
 133:Middlewares/LVGL/GUI/lvgl/src/extra/layouts/grid/../grid/lv_grid.h **** static inline lv_grid_align_t lv_obj_get_style_grid_row_align(const lv_obj_t * obj, uint32_t part)
 134:Middlewares/LVGL/GUI/lvgl/src/extra/layouts/grid/../grid/lv_grid.h **** {
 135:Middlewares/LVGL/GUI/lvgl/src/extra/layouts/grid/../grid/lv_grid.h ****     lv_style_value_t v = lv_obj_get_style_prop(obj, part, LV_STYLE_GRID_ROW_ALIGN);
 136:Middlewares/LVGL/GUI/lvgl/src/extra/layouts/grid/../grid/lv_grid.h ****     return (lv_grid_align_t)v.num;
 137:Middlewares/LVGL/GUI/lvgl/src/extra/layouts/grid/../grid/lv_grid.h **** }
 138:Middlewares/LVGL/GUI/lvgl/src/extra/layouts/grid/../grid/lv_grid.h **** 
 139:Middlewares/LVGL/GUI/lvgl/src/extra/layouts/grid/../grid/lv_grid.h **** static inline lv_grid_align_t lv_obj_get_style_grid_column_align(const lv_obj_t * obj, uint32_t par
 140:Middlewares/LVGL/GUI/lvgl/src/extra/layouts/grid/../grid/lv_grid.h **** {
 141:Middlewares/LVGL/GUI/lvgl/src/extra/layouts/grid/../grid/lv_grid.h ****     lv_style_value_t v = lv_obj_get_style_prop(obj, part, LV_STYLE_GRID_COLUMN_ALIGN);
 142:Middlewares/LVGL/GUI/lvgl/src/extra/layouts/grid/../grid/lv_grid.h ****     return (lv_grid_align_t)v.num;
 143:Middlewares/LVGL/GUI/lvgl/src/extra/layouts/grid/../grid/lv_grid.h **** }
 144:Middlewares/LVGL/GUI/lvgl/src/extra/layouts/grid/../grid/lv_grid.h **** 
 145:Middlewares/LVGL/GUI/lvgl/src/extra/layouts/grid/../grid/lv_grid.h **** static inline lv_coord_t lv_obj_get_style_grid_cell_column_pos(const lv_obj_t * obj, uint32_t part)
 146:Middlewares/LVGL/GUI/lvgl/src/extra/layouts/grid/../grid/lv_grid.h **** {
 147:Middlewares/LVGL/GUI/lvgl/src/extra/layouts/grid/../grid/lv_grid.h ****     lv_style_value_t v = lv_obj_get_style_prop(obj, part, LV_STYLE_GRID_CELL_COLUMN_POS);
 148:Middlewares/LVGL/GUI/lvgl/src/extra/layouts/grid/../grid/lv_grid.h ****     return (lv_coord_t)v.num;
 149:Middlewares/LVGL/GUI/lvgl/src/extra/layouts/grid/../grid/lv_grid.h **** }
ARM GAS  C:\Users\ADMINI~1\AppData\Local\Temp\cc6Bhsgy.s 			page 26


 150:Middlewares/LVGL/GUI/lvgl/src/extra/layouts/grid/../grid/lv_grid.h **** 
 151:Middlewares/LVGL/GUI/lvgl/src/extra/layouts/grid/../grid/lv_grid.h **** static inline lv_coord_t lv_obj_get_style_grid_cell_column_span(const lv_obj_t * obj, uint32_t part
 417              		.loc 2 151 26 view .LVU131
 418              	.LBB112:
 152:Middlewares/LVGL/GUI/lvgl/src/extra/layouts/grid/../grid/lv_grid.h **** {
 153:Middlewares/LVGL/GUI/lvgl/src/extra/layouts/grid/../grid/lv_grid.h ****     lv_style_value_t v = lv_obj_get_style_prop(obj, part, LV_STYLE_GRID_CELL_COLUMN_SPAN);
 419              		.loc 2 153 5 view .LVU132
 420              		.loc 2 153 26 is_stmt 0 view .LVU133
 421 001a C04B     		ldr	r3, .L52+4
 422 001c 1A88     		ldrh	r2, [r3]
 423 001e 0021     		movs	r1, #0
 424 0020 2046     		mov	r0, r4
 425 0022 FFF7FEFF 		bl	lv_obj_get_style_prop
 426              	.LVL53:
 154:Middlewares/LVGL/GUI/lvgl/src/extra/layouts/grid/../grid/lv_grid.h ****     return (lv_coord_t)v.num;
 427              		.loc 2 154 5 is_stmt 1 view .LVU134
 428              		.loc 2 154 5 is_stmt 0 view .LVU135
 429              	.LBE112:
 430              	.LBE111:
  79:Middlewares/LVGL/GUI/lvgl/src/extra/layouts/grid/lv_grid.c **** }
 431              		.loc 1 79 12 view .LVU136
 432 0026 C7B2     		uxtb	r7, r0
 433              	.LVL54:
  79:Middlewares/LVGL/GUI/lvgl/src/extra/layouts/grid/lv_grid.c **** }
 434              		.loc 1 79 12 view .LVU137
 435              	.LBE110:
 436              	.LBE109:
 584:Middlewares/LVGL/GUI/lvgl/src/extra/layouts/grid/lv_grid.c ****     if(row_span == 0 || col_span == 0) return;
 437              		.loc 1 584 5 is_stmt 1 view .LVU138
 438              	.LBB113:
 439              	.LBI113:
  81:Middlewares/LVGL/GUI/lvgl/src/extra/layouts/grid/lv_grid.c **** {
 440              		.loc 1 81 23 view .LVU139
 441              	.LBB114:
  83:Middlewares/LVGL/GUI/lvgl/src/extra/layouts/grid/lv_grid.c **** }
 442              		.loc 1 83 5 view .LVU140
 443              	.LBB115:
 444              	.LBI115:
 155:Middlewares/LVGL/GUI/lvgl/src/extra/layouts/grid/../grid/lv_grid.h **** }
 156:Middlewares/LVGL/GUI/lvgl/src/extra/layouts/grid/../grid/lv_grid.h **** 
 157:Middlewares/LVGL/GUI/lvgl/src/extra/layouts/grid/../grid/lv_grid.h **** static inline lv_coord_t lv_obj_get_style_grid_cell_row_pos(const lv_obj_t * obj, uint32_t part)
 158:Middlewares/LVGL/GUI/lvgl/src/extra/layouts/grid/../grid/lv_grid.h **** {
 159:Middlewares/LVGL/GUI/lvgl/src/extra/layouts/grid/../grid/lv_grid.h ****     lv_style_value_t v = lv_obj_get_style_prop(obj, part, LV_STYLE_GRID_CELL_ROW_POS);
 160:Middlewares/LVGL/GUI/lvgl/src/extra/layouts/grid/../grid/lv_grid.h ****     return (lv_coord_t)v.num;
 161:Middlewares/LVGL/GUI/lvgl/src/extra/layouts/grid/../grid/lv_grid.h **** }
 162:Middlewares/LVGL/GUI/lvgl/src/extra/layouts/grid/../grid/lv_grid.h **** 
 163:Middlewares/LVGL/GUI/lvgl/src/extra/layouts/grid/../grid/lv_grid.h **** static inline lv_coord_t lv_obj_get_style_grid_cell_row_span(const lv_obj_t * obj, uint32_t part)
 445              		.loc 2 163 26 view .LVU141
 446              	.LBB116:
 164:Middlewares/LVGL/GUI/lvgl/src/extra/layouts/grid/../grid/lv_grid.h **** {
 165:Middlewares/LVGL/GUI/lvgl/src/extra/layouts/grid/../grid/lv_grid.h ****     lv_style_value_t v = lv_obj_get_style_prop(obj, part, LV_STYLE_GRID_CELL_ROW_SPAN);
 447              		.loc 2 165 5 view .LVU142
 448              		.loc 2 165 26 is_stmt 0 view .LVU143
 449 0028 BD4B     		ldr	r3, .L52+8
 450 002a 1A88     		ldrh	r2, [r3]
 451 002c 0021     		movs	r1, #0
 452 002e 2046     		mov	r0, r4
ARM GAS  C:\Users\ADMINI~1\AppData\Local\Temp\cc6Bhsgy.s 			page 27


 453 0030 FFF7FEFF 		bl	lv_obj_get_style_prop
 454              	.LVL55:
 166:Middlewares/LVGL/GUI/lvgl/src/extra/layouts/grid/../grid/lv_grid.h ****     return (lv_coord_t)v.num;
 455              		.loc 2 166 5 is_stmt 1 view .LVU144
 456              		.loc 2 166 5 is_stmt 0 view .LVU145
 457              	.LBE116:
 458              	.LBE115:
 459              	.LBE114:
 460              	.LBE113:
 585:Middlewares/LVGL/GUI/lvgl/src/extra/layouts/grid/lv_grid.c **** 
 461              		.loc 1 585 5 is_stmt 1 view .LVU146
 585:Middlewares/LVGL/GUI/lvgl/src/extra/layouts/grid/lv_grid.c **** 
 462              		.loc 1 585 7 is_stmt 0 view .LVU147
 463 0034 10F0FF06 		ands	r6, r0, #255
 464 0038 ECD0     		beq	.L26
 585:Middlewares/LVGL/GUI/lvgl/src/extra/layouts/grid/lv_grid.c **** 
 465              		.loc 1 585 22 discriminator 2 view .LVU148
 466 003a 002F     		cmp	r7, #0
 467 003c EAD0     		beq	.L26
 587:Middlewares/LVGL/GUI/lvgl/src/extra/layouts/grid/lv_grid.c ****     uint32_t row_pos = get_row_pos(item);
 468              		.loc 1 587 5 is_stmt 1 view .LVU149
 469              	.LVL56:
 470              	.LBB117:
 471              	.LBI117:
  69:Middlewares/LVGL/GUI/lvgl/src/extra/layouts/grid/lv_grid.c **** {
 472              		.loc 1 69 23 view .LVU150
 473              	.LBB118:
  71:Middlewares/LVGL/GUI/lvgl/src/extra/layouts/grid/lv_grid.c **** }
 474              		.loc 1 71 5 view .LVU151
 475              	.LBB119:
 476              	.LBI119:
 145:Middlewares/LVGL/GUI/lvgl/src/extra/layouts/grid/../grid/lv_grid.h **** {
 477              		.loc 2 145 26 view .LVU152
 478              	.LBB120:
 147:Middlewares/LVGL/GUI/lvgl/src/extra/layouts/grid/../grid/lv_grid.h ****     return (lv_coord_t)v.num;
 479              		.loc 2 147 5 view .LVU153
 147:Middlewares/LVGL/GUI/lvgl/src/extra/layouts/grid/../grid/lv_grid.h ****     return (lv_coord_t)v.num;
 480              		.loc 2 147 26 is_stmt 0 view .LVU154
 481 003e B94B     		ldr	r3, .L52+12
 482 0040 1A88     		ldrh	r2, [r3]
 483 0042 0021     		movs	r1, #0
 484 0044 2046     		mov	r0, r4
 485              	.LVL57:
 147:Middlewares/LVGL/GUI/lvgl/src/extra/layouts/grid/../grid/lv_grid.h ****     return (lv_coord_t)v.num;
 486              		.loc 2 147 26 view .LVU155
 487 0046 FFF7FEFF 		bl	lv_obj_get_style_prop
 488              	.LVL58:
 148:Middlewares/LVGL/GUI/lvgl/src/extra/layouts/grid/../grid/lv_grid.h **** }
 489              		.loc 2 148 5 is_stmt 1 view .LVU156
 148:Middlewares/LVGL/GUI/lvgl/src/extra/layouts/grid/../grid/lv_grid.h **** }
 490              		.loc 2 148 5 is_stmt 0 view .LVU157
 491              	.LBE120:
 492              	.LBE119:
  71:Middlewares/LVGL/GUI/lvgl/src/extra/layouts/grid/lv_grid.c **** }
 493              		.loc 1 71 12 view .LVU158
 494 004a 5FFA80FB 		uxtb	fp, r0
 495              	.LVL59:
ARM GAS  C:\Users\ADMINI~1\AppData\Local\Temp\cc6Bhsgy.s 			page 28


  71:Middlewares/LVGL/GUI/lvgl/src/extra/layouts/grid/lv_grid.c **** }
 496              		.loc 1 71 12 view .LVU159
 497              	.LBE118:
 498              	.LBE117:
 588:Middlewares/LVGL/GUI/lvgl/src/extra/layouts/grid/lv_grid.c ****     lv_grid_align_t col_align = get_cell_col_align(item);
 499              		.loc 1 588 5 is_stmt 1 view .LVU160
 500              	.LBB121:
 501              	.LBI121:
  73:Middlewares/LVGL/GUI/lvgl/src/extra/layouts/grid/lv_grid.c **** {
 502              		.loc 1 73 23 view .LVU161
 503              	.LBB122:
  75:Middlewares/LVGL/GUI/lvgl/src/extra/layouts/grid/lv_grid.c **** }
 504              		.loc 1 75 5 view .LVU162
 505              	.LBB123:
 506              	.LBI123:
 157:Middlewares/LVGL/GUI/lvgl/src/extra/layouts/grid/../grid/lv_grid.h **** {
 507              		.loc 2 157 26 view .LVU163
 508              	.LBB124:
 159:Middlewares/LVGL/GUI/lvgl/src/extra/layouts/grid/../grid/lv_grid.h ****     return (lv_coord_t)v.num;
 509              		.loc 2 159 5 view .LVU164
 159:Middlewares/LVGL/GUI/lvgl/src/extra/layouts/grid/../grid/lv_grid.h ****     return (lv_coord_t)v.num;
 510              		.loc 2 159 26 is_stmt 0 view .LVU165
 511 004e B64B     		ldr	r3, .L52+16
 512 0050 1A88     		ldrh	r2, [r3]
 513 0052 0021     		movs	r1, #0
 514 0054 2046     		mov	r0, r4
 515 0056 FFF7FEFF 		bl	lv_obj_get_style_prop
 516              	.LVL60:
 160:Middlewares/LVGL/GUI/lvgl/src/extra/layouts/grid/../grid/lv_grid.h **** }
 517              		.loc 2 160 5 is_stmt 1 view .LVU166
 160:Middlewares/LVGL/GUI/lvgl/src/extra/layouts/grid/../grid/lv_grid.h **** }
 518              		.loc 2 160 5 is_stmt 0 view .LVU167
 519              	.LBE124:
 520              	.LBE123:
  75:Middlewares/LVGL/GUI/lvgl/src/extra/layouts/grid/lv_grid.c **** }
 521              		.loc 1 75 12 view .LVU168
 522 005a 5FFA80FA 		uxtb	r10, r0
 523              	.LVL61:
  75:Middlewares/LVGL/GUI/lvgl/src/extra/layouts/grid/lv_grid.c **** }
 524              		.loc 1 75 12 view .LVU169
 525              	.LBE122:
 526              	.LBE121:
 589:Middlewares/LVGL/GUI/lvgl/src/extra/layouts/grid/lv_grid.c ****     lv_grid_align_t row_align = get_cell_row_align(item);
 527              		.loc 1 589 5 is_stmt 1 view .LVU170
 528              	.LBB125:
 529              	.LBI125:
  85:Middlewares/LVGL/GUI/lvgl/src/extra/layouts/grid/lv_grid.c **** {
 530              		.loc 1 85 23 view .LVU171
 531              	.LBB126:
  87:Middlewares/LVGL/GUI/lvgl/src/extra/layouts/grid/lv_grid.c **** }
 532              		.loc 1 87 5 view .LVU172
 533              	.LBB127:
 534              	.LBI127:
 167:Middlewares/LVGL/GUI/lvgl/src/extra/layouts/grid/../grid/lv_grid.h **** }
 168:Middlewares/LVGL/GUI/lvgl/src/extra/layouts/grid/../grid/lv_grid.h **** 
 169:Middlewares/LVGL/GUI/lvgl/src/extra/layouts/grid/../grid/lv_grid.h **** static inline lv_coord_t lv_obj_get_style_grid_cell_x_align(const lv_obj_t * obj, uint32_t part)
 535              		.loc 2 169 26 view .LVU173
ARM GAS  C:\Users\ADMINI~1\AppData\Local\Temp\cc6Bhsgy.s 			page 29


 536              	.LBB128:
 170:Middlewares/LVGL/GUI/lvgl/src/extra/layouts/grid/../grid/lv_grid.h **** {
 171:Middlewares/LVGL/GUI/lvgl/src/extra/layouts/grid/../grid/lv_grid.h ****     lv_style_value_t v = lv_obj_get_style_prop(obj, part, LV_STYLE_GRID_CELL_X_ALIGN);
 537              		.loc 2 171 5 view .LVU174
 538              		.loc 2 171 26 is_stmt 0 view .LVU175
 539 005e B34B     		ldr	r3, .L52+20
 540 0060 1A88     		ldrh	r2, [r3]
 541 0062 0021     		movs	r1, #0
 542 0064 2046     		mov	r0, r4
 543 0066 FFF7FEFF 		bl	lv_obj_get_style_prop
 544              	.LVL62:
 172:Middlewares/LVGL/GUI/lvgl/src/extra/layouts/grid/../grid/lv_grid.h ****     return (lv_coord_t)v.num;
 545              		.loc 2 172 5 is_stmt 1 view .LVU176
 546              		.loc 2 172 5 is_stmt 0 view .LVU177
 547              	.LBE128:
 548              	.LBE127:
  87:Middlewares/LVGL/GUI/lvgl/src/extra/layouts/grid/lv_grid.c **** }
 549              		.loc 1 87 12 view .LVU178
 550 006a 5FFA80F8 		uxtb	r8, r0
 551              	.LVL63:
  87:Middlewares/LVGL/GUI/lvgl/src/extra/layouts/grid/lv_grid.c **** }
 552              		.loc 1 87 12 view .LVU179
 553              	.LBE126:
 554              	.LBE125:
 590:Middlewares/LVGL/GUI/lvgl/src/extra/layouts/grid/lv_grid.c **** 
 555              		.loc 1 590 5 is_stmt 1 view .LVU180
 556              	.LBB129:
 557              	.LBI129:
  89:Middlewares/LVGL/GUI/lvgl/src/extra/layouts/grid/lv_grid.c **** {
 558              		.loc 1 89 23 view .LVU181
 559              	.LBB130:
  91:Middlewares/LVGL/GUI/lvgl/src/extra/layouts/grid/lv_grid.c **** }
 560              		.loc 1 91 5 view .LVU182
 561              	.LBB131:
 562              	.LBI131:
 173:Middlewares/LVGL/GUI/lvgl/src/extra/layouts/grid/../grid/lv_grid.h **** }
 174:Middlewares/LVGL/GUI/lvgl/src/extra/layouts/grid/../grid/lv_grid.h **** 
 175:Middlewares/LVGL/GUI/lvgl/src/extra/layouts/grid/../grid/lv_grid.h **** static inline lv_coord_t lv_obj_get_style_grid_cell_y_align(const lv_obj_t * obj, uint32_t part)
 563              		.loc 2 175 26 view .LVU183
 564              	.LBB132:
 176:Middlewares/LVGL/GUI/lvgl/src/extra/layouts/grid/../grid/lv_grid.h **** {
 177:Middlewares/LVGL/GUI/lvgl/src/extra/layouts/grid/../grid/lv_grid.h ****     lv_style_value_t v = lv_obj_get_style_prop(obj, part, LV_STYLE_GRID_CELL_Y_ALIGN);
 565              		.loc 2 177 5 view .LVU184
 566              		.loc 2 177 26 is_stmt 0 view .LVU185
 567 006e B04B     		ldr	r3, .L52+24
 568 0070 1A88     		ldrh	r2, [r3]
 569 0072 0021     		movs	r1, #0
 570 0074 2046     		mov	r0, r4
 571 0076 FFF7FEFF 		bl	lv_obj_get_style_prop
 572              	.LVL64:
 178:Middlewares/LVGL/GUI/lvgl/src/extra/layouts/grid/../grid/lv_grid.h ****     return (lv_coord_t)v.num;
 573              		.loc 2 178 5 is_stmt 1 view .LVU186
 574              		.loc 2 178 5 is_stmt 0 view .LVU187
 575              	.LBE132:
 576              	.LBE131:
  91:Middlewares/LVGL/GUI/lvgl/src/extra/layouts/grid/lv_grid.c **** }
 577              		.loc 1 91 12 view .LVU188
ARM GAS  C:\Users\ADMINI~1\AppData\Local\Temp\cc6Bhsgy.s 			page 30


 578 007a 5FFA80F9 		uxtb	r9, r0
 579              	.LVL65:
  91:Middlewares/LVGL/GUI/lvgl/src/extra/layouts/grid/lv_grid.c **** }
 580              		.loc 1 91 12 view .LVU189
 581              	.LBE130:
 582              	.LBE129:
 593:Middlewares/LVGL/GUI/lvgl/src/extra/layouts/grid/lv_grid.c ****     lv_coord_t col_x2 = c->x[col_pos + col_span - 1] + c->w[col_pos + col_span - 1];
 583              		.loc 1 593 5 is_stmt 1 view .LVU190
 593:Middlewares/LVGL/GUI/lvgl/src/extra/layouts/grid/lv_grid.c ****     lv_coord_t col_x2 = c->x[col_pos + col_span - 1] + c->w[col_pos + col_span - 1];
 584              		.loc 1 593 26 is_stmt 0 view .LVU191
 585 007e 2B68     		ldr	r3, [r5]
 593:Middlewares/LVGL/GUI/lvgl/src/extra/layouts/grid/lv_grid.c ****     lv_coord_t col_x2 = c->x[col_pos + col_span - 1] + c->w[col_pos + col_span - 1];
 586              		.loc 1 593 16 view .LVU192
 587 0080 53F82B10 		ldr	r1, [r3, fp, lsl #2]
 588              	.LVL66:
 594:Middlewares/LVGL/GUI/lvgl/src/extra/layouts/grid/lv_grid.c ****     lv_coord_t col_w = col_x2 - col_x1;
 589              		.loc 1 594 5 is_stmt 1 view .LVU193
 594:Middlewares/LVGL/GUI/lvgl/src/extra/layouts/grid/lv_grid.c ****     lv_coord_t col_w = col_x2 - col_x1;
 590              		.loc 1 594 38 is_stmt 0 view .LVU194
 591 0084 5F44     		add	r7, r7, fp
 592              	.LVL67:
 594:Middlewares/LVGL/GUI/lvgl/src/extra/layouts/grid/lv_grid.c ****     lv_coord_t col_w = col_x2 - col_x1;
 593              		.loc 1 594 29 view .LVU195
 594 0086 6FF04042 		mvn	r2, #-1073741824
 595 008a 1744     		add	r7, r7, r2
 596 008c 53F82730 		ldr	r3, [r3, r7, lsl #2]
 594:Middlewares/LVGL/GUI/lvgl/src/extra/layouts/grid/lv_grid.c ****     lv_coord_t col_w = col_x2 - col_x1;
 597              		.loc 1 594 57 view .LVU196
 598 0090 A868     		ldr	r0, [r5, #8]
 594:Middlewares/LVGL/GUI/lvgl/src/extra/layouts/grid/lv_grid.c ****     lv_coord_t col_w = col_x2 - col_x1;
 599              		.loc 1 594 60 view .LVU197
 600 0092 50F82700 		ldr	r0, [r0, r7, lsl #2]
 594:Middlewares/LVGL/GUI/lvgl/src/extra/layouts/grid/lv_grid.c ****     lv_coord_t col_w = col_x2 - col_x1;
 601              		.loc 1 594 16 view .LVU198
 602 0096 0344     		add	r3, r3, r0
 603              	.LVL68:
 595:Middlewares/LVGL/GUI/lvgl/src/extra/layouts/grid/lv_grid.c **** 
 604              		.loc 1 595 5 is_stmt 1 view .LVU199
 595:Middlewares/LVGL/GUI/lvgl/src/extra/layouts/grid/lv_grid.c **** 
 605              		.loc 1 595 16 is_stmt 0 view .LVU200
 606 0098 5B1A     		subs	r3, r3, r1
 607              	.LVL69:
 595:Middlewares/LVGL/GUI/lvgl/src/extra/layouts/grid/lv_grid.c **** 
 608              		.loc 1 595 16 view .LVU201
 609 009a 0293     		str	r3, [sp, #8]
 610              	.LVL70:
 597:Middlewares/LVGL/GUI/lvgl/src/extra/layouts/grid/lv_grid.c ****     lv_coord_t row_y2 = c->y[row_pos + row_span - 1] + c->h[row_pos + row_span - 1];
 611              		.loc 1 597 5 is_stmt 1 view .LVU202
 597:Middlewares/LVGL/GUI/lvgl/src/extra/layouts/grid/lv_grid.c ****     lv_coord_t row_y2 = c->y[row_pos + row_span - 1] + c->h[row_pos + row_span - 1];
 612              		.loc 1 597 26 is_stmt 0 view .LVU203
 613 009c 6B68     		ldr	r3, [r5, #4]
 614              	.LVL71:
 597:Middlewares/LVGL/GUI/lvgl/src/extra/layouts/grid/lv_grid.c ****     lv_coord_t row_y2 = c->y[row_pos + row_span - 1] + c->h[row_pos + row_span - 1];
 615              		.loc 1 597 16 view .LVU204
 616 009e 53F82A10 		ldr	r1, [r3, r10, lsl #2]
 617              	.LVL72:
 598:Middlewares/LVGL/GUI/lvgl/src/extra/layouts/grid/lv_grid.c ****     lv_coord_t row_h = row_y2 - row_y1;
ARM GAS  C:\Users\ADMINI~1\AppData\Local\Temp\cc6Bhsgy.s 			page 31


 618              		.loc 1 598 5 is_stmt 1 view .LVU205
 598:Middlewares/LVGL/GUI/lvgl/src/extra/layouts/grid/lv_grid.c ****     lv_coord_t row_h = row_y2 - row_y1;
 619              		.loc 1 598 38 is_stmt 0 view .LVU206
 620 00a2 5644     		add	r6, r6, r10
 598:Middlewares/LVGL/GUI/lvgl/src/extra/layouts/grid/lv_grid.c ****     lv_coord_t row_h = row_y2 - row_y1;
 621              		.loc 1 598 29 view .LVU207
 622 00a4 1644     		add	r6, r6, r2
 623 00a6 53F82630 		ldr	r3, [r3, r6, lsl #2]
 598:Middlewares/LVGL/GUI/lvgl/src/extra/layouts/grid/lv_grid.c ****     lv_coord_t row_h = row_y2 - row_y1;
 624              		.loc 1 598 57 view .LVU208
 625 00aa EA68     		ldr	r2, [r5, #12]
 598:Middlewares/LVGL/GUI/lvgl/src/extra/layouts/grid/lv_grid.c ****     lv_coord_t row_h = row_y2 - row_y1;
 626              		.loc 1 598 60 view .LVU209
 627 00ac 52F82620 		ldr	r2, [r2, r6, lsl #2]
 598:Middlewares/LVGL/GUI/lvgl/src/extra/layouts/grid/lv_grid.c ****     lv_coord_t row_h = row_y2 - row_y1;
 628              		.loc 1 598 16 view .LVU210
 629 00b0 1344     		add	r3, r3, r2
 630              	.LVL73:
 599:Middlewares/LVGL/GUI/lvgl/src/extra/layouts/grid/lv_grid.c **** 
 631              		.loc 1 599 5 is_stmt 1 view .LVU211
 599:Middlewares/LVGL/GUI/lvgl/src/extra/layouts/grid/lv_grid.c **** 
 632              		.loc 1 599 16 is_stmt 0 view .LVU212
 633 00b2 5B1A     		subs	r3, r3, r1
 634              	.LVL74:
 599:Middlewares/LVGL/GUI/lvgl/src/extra/layouts/grid/lv_grid.c **** 
 635              		.loc 1 599 16 view .LVU213
 636 00b4 0393     		str	r3, [sp, #12]
 637              	.LVL75:
 603:Middlewares/LVGL/GUI/lvgl/src/extra/layouts/grid/lv_grid.c ****         if(col_align == LV_GRID_ALIGN_START) col_align = LV_GRID_ALIGN_END;
 638              		.loc 1 603 5 is_stmt 1 view .LVU214
 639              	.LBB133:
 640              	.LBI133:
 641              		.file 3 "Middlewares/LVGL/GUI/lvgl/src/extra/layouts/grid/../flex/../../../core/lv_obj_style_gen.h
   1:Middlewares/LVGL/GUI/lvgl/src/extra/layouts/grid/../flex/../../../core/lv_obj_style_gen.h **** static inline lv_coord_t lv_obj_get_style_width(const struct _lv_obj_t * obj, uint32_t part)
   2:Middlewares/LVGL/GUI/lvgl/src/extra/layouts/grid/../flex/../../../core/lv_obj_style_gen.h **** {
   3:Middlewares/LVGL/GUI/lvgl/src/extra/layouts/grid/../flex/../../../core/lv_obj_style_gen.h ****     lv_style_value_t v = lv_obj_get_style_prop(obj, part, LV_STYLE_WIDTH);
   4:Middlewares/LVGL/GUI/lvgl/src/extra/layouts/grid/../flex/../../../core/lv_obj_style_gen.h ****     return (lv_coord_t)v.num;
   5:Middlewares/LVGL/GUI/lvgl/src/extra/layouts/grid/../flex/../../../core/lv_obj_style_gen.h **** }
   6:Middlewares/LVGL/GUI/lvgl/src/extra/layouts/grid/../flex/../../../core/lv_obj_style_gen.h **** 
   7:Middlewares/LVGL/GUI/lvgl/src/extra/layouts/grid/../flex/../../../core/lv_obj_style_gen.h **** static inline lv_coord_t lv_obj_get_style_min_width(const struct _lv_obj_t * obj, uint32_t part)
   8:Middlewares/LVGL/GUI/lvgl/src/extra/layouts/grid/../flex/../../../core/lv_obj_style_gen.h **** {
   9:Middlewares/LVGL/GUI/lvgl/src/extra/layouts/grid/../flex/../../../core/lv_obj_style_gen.h ****     lv_style_value_t v = lv_obj_get_style_prop(obj, part, LV_STYLE_MIN_WIDTH);
  10:Middlewares/LVGL/GUI/lvgl/src/extra/layouts/grid/../flex/../../../core/lv_obj_style_gen.h ****     return (lv_coord_t)v.num;
  11:Middlewares/LVGL/GUI/lvgl/src/extra/layouts/grid/../flex/../../../core/lv_obj_style_gen.h **** }
  12:Middlewares/LVGL/GUI/lvgl/src/extra/layouts/grid/../flex/../../../core/lv_obj_style_gen.h **** 
  13:Middlewares/LVGL/GUI/lvgl/src/extra/layouts/grid/../flex/../../../core/lv_obj_style_gen.h **** static inline lv_coord_t lv_obj_get_style_max_width(const struct _lv_obj_t * obj, uint32_t part)
  14:Middlewares/LVGL/GUI/lvgl/src/extra/layouts/grid/../flex/../../../core/lv_obj_style_gen.h **** {
  15:Middlewares/LVGL/GUI/lvgl/src/extra/layouts/grid/../flex/../../../core/lv_obj_style_gen.h ****     lv_style_value_t v = lv_obj_get_style_prop(obj, part, LV_STYLE_MAX_WIDTH);
  16:Middlewares/LVGL/GUI/lvgl/src/extra/layouts/grid/../flex/../../../core/lv_obj_style_gen.h ****     return (lv_coord_t)v.num;
  17:Middlewares/LVGL/GUI/lvgl/src/extra/layouts/grid/../flex/../../../core/lv_obj_style_gen.h **** }
  18:Middlewares/LVGL/GUI/lvgl/src/extra/layouts/grid/../flex/../../../core/lv_obj_style_gen.h **** 
  19:Middlewares/LVGL/GUI/lvgl/src/extra/layouts/grid/../flex/../../../core/lv_obj_style_gen.h **** static inline lv_coord_t lv_obj_get_style_height(const struct _lv_obj_t * obj, uint32_t part)
  20:Middlewares/LVGL/GUI/lvgl/src/extra/layouts/grid/../flex/../../../core/lv_obj_style_gen.h **** {
  21:Middlewares/LVGL/GUI/lvgl/src/extra/layouts/grid/../flex/../../../core/lv_obj_style_gen.h ****     lv_style_value_t v = lv_obj_get_style_prop(obj, part, LV_STYLE_HEIGHT);
  22:Middlewares/LVGL/GUI/lvgl/src/extra/layouts/grid/../flex/../../../core/lv_obj_style_gen.h ****     return (lv_coord_t)v.num;
  23:Middlewares/LVGL/GUI/lvgl/src/extra/layouts/grid/../flex/../../../core/lv_obj_style_gen.h **** }
  24:Middlewares/LVGL/GUI/lvgl/src/extra/layouts/grid/../flex/../../../core/lv_obj_style_gen.h **** 
ARM GAS  C:\Users\ADMINI~1\AppData\Local\Temp\cc6Bhsgy.s 			page 32


  25:Middlewares/LVGL/GUI/lvgl/src/extra/layouts/grid/../flex/../../../core/lv_obj_style_gen.h **** static inline lv_coord_t lv_obj_get_style_min_height(const struct _lv_obj_t * obj, uint32_t part)
  26:Middlewares/LVGL/GUI/lvgl/src/extra/layouts/grid/../flex/../../../core/lv_obj_style_gen.h **** {
  27:Middlewares/LVGL/GUI/lvgl/src/extra/layouts/grid/../flex/../../../core/lv_obj_style_gen.h ****     lv_style_value_t v = lv_obj_get_style_prop(obj, part, LV_STYLE_MIN_HEIGHT);
  28:Middlewares/LVGL/GUI/lvgl/src/extra/layouts/grid/../flex/../../../core/lv_obj_style_gen.h ****     return (lv_coord_t)v.num;
  29:Middlewares/LVGL/GUI/lvgl/src/extra/layouts/grid/../flex/../../../core/lv_obj_style_gen.h **** }
  30:Middlewares/LVGL/GUI/lvgl/src/extra/layouts/grid/../flex/../../../core/lv_obj_style_gen.h **** 
  31:Middlewares/LVGL/GUI/lvgl/src/extra/layouts/grid/../flex/../../../core/lv_obj_style_gen.h **** static inline lv_coord_t lv_obj_get_style_max_height(const struct _lv_obj_t * obj, uint32_t part)
  32:Middlewares/LVGL/GUI/lvgl/src/extra/layouts/grid/../flex/../../../core/lv_obj_style_gen.h **** {
  33:Middlewares/LVGL/GUI/lvgl/src/extra/layouts/grid/../flex/../../../core/lv_obj_style_gen.h ****     lv_style_value_t v = lv_obj_get_style_prop(obj, part, LV_STYLE_MAX_HEIGHT);
  34:Middlewares/LVGL/GUI/lvgl/src/extra/layouts/grid/../flex/../../../core/lv_obj_style_gen.h ****     return (lv_coord_t)v.num;
  35:Middlewares/LVGL/GUI/lvgl/src/extra/layouts/grid/../flex/../../../core/lv_obj_style_gen.h **** }
  36:Middlewares/LVGL/GUI/lvgl/src/extra/layouts/grid/../flex/../../../core/lv_obj_style_gen.h **** 
  37:Middlewares/LVGL/GUI/lvgl/src/extra/layouts/grid/../flex/../../../core/lv_obj_style_gen.h **** static inline lv_coord_t lv_obj_get_style_x(const struct _lv_obj_t * obj, uint32_t part)
  38:Middlewares/LVGL/GUI/lvgl/src/extra/layouts/grid/../flex/../../../core/lv_obj_style_gen.h **** {
  39:Middlewares/LVGL/GUI/lvgl/src/extra/layouts/grid/../flex/../../../core/lv_obj_style_gen.h ****     lv_style_value_t v = lv_obj_get_style_prop(obj, part, LV_STYLE_X);
  40:Middlewares/LVGL/GUI/lvgl/src/extra/layouts/grid/../flex/../../../core/lv_obj_style_gen.h ****     return (lv_coord_t)v.num;
  41:Middlewares/LVGL/GUI/lvgl/src/extra/layouts/grid/../flex/../../../core/lv_obj_style_gen.h **** }
  42:Middlewares/LVGL/GUI/lvgl/src/extra/layouts/grid/../flex/../../../core/lv_obj_style_gen.h **** 
  43:Middlewares/LVGL/GUI/lvgl/src/extra/layouts/grid/../flex/../../../core/lv_obj_style_gen.h **** static inline lv_coord_t lv_obj_get_style_y(const struct _lv_obj_t * obj, uint32_t part)
  44:Middlewares/LVGL/GUI/lvgl/src/extra/layouts/grid/../flex/../../../core/lv_obj_style_gen.h **** {
  45:Middlewares/LVGL/GUI/lvgl/src/extra/layouts/grid/../flex/../../../core/lv_obj_style_gen.h ****     lv_style_value_t v = lv_obj_get_style_prop(obj, part, LV_STYLE_Y);
  46:Middlewares/LVGL/GUI/lvgl/src/extra/layouts/grid/../flex/../../../core/lv_obj_style_gen.h ****     return (lv_coord_t)v.num;
  47:Middlewares/LVGL/GUI/lvgl/src/extra/layouts/grid/../flex/../../../core/lv_obj_style_gen.h **** }
  48:Middlewares/LVGL/GUI/lvgl/src/extra/layouts/grid/../flex/../../../core/lv_obj_style_gen.h **** 
  49:Middlewares/LVGL/GUI/lvgl/src/extra/layouts/grid/../flex/../../../core/lv_obj_style_gen.h **** static inline lv_align_t lv_obj_get_style_align(const struct _lv_obj_t * obj, uint32_t part)
  50:Middlewares/LVGL/GUI/lvgl/src/extra/layouts/grid/../flex/../../../core/lv_obj_style_gen.h **** {
  51:Middlewares/LVGL/GUI/lvgl/src/extra/layouts/grid/../flex/../../../core/lv_obj_style_gen.h ****     lv_style_value_t v = lv_obj_get_style_prop(obj, part, LV_STYLE_ALIGN);
  52:Middlewares/LVGL/GUI/lvgl/src/extra/layouts/grid/../flex/../../../core/lv_obj_style_gen.h ****     return (lv_align_t)v.num;
  53:Middlewares/LVGL/GUI/lvgl/src/extra/layouts/grid/../flex/../../../core/lv_obj_style_gen.h **** }
  54:Middlewares/LVGL/GUI/lvgl/src/extra/layouts/grid/../flex/../../../core/lv_obj_style_gen.h **** 
  55:Middlewares/LVGL/GUI/lvgl/src/extra/layouts/grid/../flex/../../../core/lv_obj_style_gen.h **** static inline lv_coord_t lv_obj_get_style_transform_width(const struct _lv_obj_t * obj, uint32_t pa
  56:Middlewares/LVGL/GUI/lvgl/src/extra/layouts/grid/../flex/../../../core/lv_obj_style_gen.h **** {
  57:Middlewares/LVGL/GUI/lvgl/src/extra/layouts/grid/../flex/../../../core/lv_obj_style_gen.h ****     lv_style_value_t v = lv_obj_get_style_prop(obj, part, LV_STYLE_TRANSFORM_WIDTH);
  58:Middlewares/LVGL/GUI/lvgl/src/extra/layouts/grid/../flex/../../../core/lv_obj_style_gen.h ****     return (lv_coord_t)v.num;
  59:Middlewares/LVGL/GUI/lvgl/src/extra/layouts/grid/../flex/../../../core/lv_obj_style_gen.h **** }
  60:Middlewares/LVGL/GUI/lvgl/src/extra/layouts/grid/../flex/../../../core/lv_obj_style_gen.h **** 
  61:Middlewares/LVGL/GUI/lvgl/src/extra/layouts/grid/../flex/../../../core/lv_obj_style_gen.h **** static inline lv_coord_t lv_obj_get_style_transform_height(const struct _lv_obj_t * obj, uint32_t p
  62:Middlewares/LVGL/GUI/lvgl/src/extra/layouts/grid/../flex/../../../core/lv_obj_style_gen.h **** {
  63:Middlewares/LVGL/GUI/lvgl/src/extra/layouts/grid/../flex/../../../core/lv_obj_style_gen.h ****     lv_style_value_t v = lv_obj_get_style_prop(obj, part, LV_STYLE_TRANSFORM_HEIGHT);
  64:Middlewares/LVGL/GUI/lvgl/src/extra/layouts/grid/../flex/../../../core/lv_obj_style_gen.h ****     return (lv_coord_t)v.num;
  65:Middlewares/LVGL/GUI/lvgl/src/extra/layouts/grid/../flex/../../../core/lv_obj_style_gen.h **** }
  66:Middlewares/LVGL/GUI/lvgl/src/extra/layouts/grid/../flex/../../../core/lv_obj_style_gen.h **** 
  67:Middlewares/LVGL/GUI/lvgl/src/extra/layouts/grid/../flex/../../../core/lv_obj_style_gen.h **** static inline lv_coord_t lv_obj_get_style_translate_x(const struct _lv_obj_t * obj, uint32_t part)
  68:Middlewares/LVGL/GUI/lvgl/src/extra/layouts/grid/../flex/../../../core/lv_obj_style_gen.h **** {
  69:Middlewares/LVGL/GUI/lvgl/src/extra/layouts/grid/../flex/../../../core/lv_obj_style_gen.h ****     lv_style_value_t v = lv_obj_get_style_prop(obj, part, LV_STYLE_TRANSLATE_X);
  70:Middlewares/LVGL/GUI/lvgl/src/extra/layouts/grid/../flex/../../../core/lv_obj_style_gen.h ****     return (lv_coord_t)v.num;
  71:Middlewares/LVGL/GUI/lvgl/src/extra/layouts/grid/../flex/../../../core/lv_obj_style_gen.h **** }
  72:Middlewares/LVGL/GUI/lvgl/src/extra/layouts/grid/../flex/../../../core/lv_obj_style_gen.h **** 
  73:Middlewares/LVGL/GUI/lvgl/src/extra/layouts/grid/../flex/../../../core/lv_obj_style_gen.h **** static inline lv_coord_t lv_obj_get_style_translate_y(const struct _lv_obj_t * obj, uint32_t part)
  74:Middlewares/LVGL/GUI/lvgl/src/extra/layouts/grid/../flex/../../../core/lv_obj_style_gen.h **** {
  75:Middlewares/LVGL/GUI/lvgl/src/extra/layouts/grid/../flex/../../../core/lv_obj_style_gen.h ****     lv_style_value_t v = lv_obj_get_style_prop(obj, part, LV_STYLE_TRANSLATE_Y);
  76:Middlewares/LVGL/GUI/lvgl/src/extra/layouts/grid/../flex/../../../core/lv_obj_style_gen.h ****     return (lv_coord_t)v.num;
  77:Middlewares/LVGL/GUI/lvgl/src/extra/layouts/grid/../flex/../../../core/lv_obj_style_gen.h **** }
  78:Middlewares/LVGL/GUI/lvgl/src/extra/layouts/grid/../flex/../../../core/lv_obj_style_gen.h **** 
  79:Middlewares/LVGL/GUI/lvgl/src/extra/layouts/grid/../flex/../../../core/lv_obj_style_gen.h **** static inline lv_coord_t lv_obj_get_style_transform_zoom(const struct _lv_obj_t * obj, uint32_t par
  80:Middlewares/LVGL/GUI/lvgl/src/extra/layouts/grid/../flex/../../../core/lv_obj_style_gen.h **** {
  81:Middlewares/LVGL/GUI/lvgl/src/extra/layouts/grid/../flex/../../../core/lv_obj_style_gen.h ****     lv_style_value_t v = lv_obj_get_style_prop(obj, part, LV_STYLE_TRANSFORM_ZOOM);
ARM GAS  C:\Users\ADMINI~1\AppData\Local\Temp\cc6Bhsgy.s 			page 33


  82:Middlewares/LVGL/GUI/lvgl/src/extra/layouts/grid/../flex/../../../core/lv_obj_style_gen.h ****     return (lv_coord_t)v.num;
  83:Middlewares/LVGL/GUI/lvgl/src/extra/layouts/grid/../flex/../../../core/lv_obj_style_gen.h **** }
  84:Middlewares/LVGL/GUI/lvgl/src/extra/layouts/grid/../flex/../../../core/lv_obj_style_gen.h **** 
  85:Middlewares/LVGL/GUI/lvgl/src/extra/layouts/grid/../flex/../../../core/lv_obj_style_gen.h **** static inline lv_coord_t lv_obj_get_style_transform_angle(const struct _lv_obj_t * obj, uint32_t pa
  86:Middlewares/LVGL/GUI/lvgl/src/extra/layouts/grid/../flex/../../../core/lv_obj_style_gen.h **** {
  87:Middlewares/LVGL/GUI/lvgl/src/extra/layouts/grid/../flex/../../../core/lv_obj_style_gen.h ****     lv_style_value_t v = lv_obj_get_style_prop(obj, part, LV_STYLE_TRANSFORM_ANGLE);
  88:Middlewares/LVGL/GUI/lvgl/src/extra/layouts/grid/../flex/../../../core/lv_obj_style_gen.h ****     return (lv_coord_t)v.num;
  89:Middlewares/LVGL/GUI/lvgl/src/extra/layouts/grid/../flex/../../../core/lv_obj_style_gen.h **** }
  90:Middlewares/LVGL/GUI/lvgl/src/extra/layouts/grid/../flex/../../../core/lv_obj_style_gen.h **** 
  91:Middlewares/LVGL/GUI/lvgl/src/extra/layouts/grid/../flex/../../../core/lv_obj_style_gen.h **** static inline lv_coord_t lv_obj_get_style_pad_top(const struct _lv_obj_t * obj, uint32_t part)
  92:Middlewares/LVGL/GUI/lvgl/src/extra/layouts/grid/../flex/../../../core/lv_obj_style_gen.h **** {
  93:Middlewares/LVGL/GUI/lvgl/src/extra/layouts/grid/../flex/../../../core/lv_obj_style_gen.h ****     lv_style_value_t v = lv_obj_get_style_prop(obj, part, LV_STYLE_PAD_TOP);
  94:Middlewares/LVGL/GUI/lvgl/src/extra/layouts/grid/../flex/../../../core/lv_obj_style_gen.h ****     return (lv_coord_t)v.num;
  95:Middlewares/LVGL/GUI/lvgl/src/extra/layouts/grid/../flex/../../../core/lv_obj_style_gen.h **** }
  96:Middlewares/LVGL/GUI/lvgl/src/extra/layouts/grid/../flex/../../../core/lv_obj_style_gen.h **** 
  97:Middlewares/LVGL/GUI/lvgl/src/extra/layouts/grid/../flex/../../../core/lv_obj_style_gen.h **** static inline lv_coord_t lv_obj_get_style_pad_bottom(const struct _lv_obj_t * obj, uint32_t part)
  98:Middlewares/LVGL/GUI/lvgl/src/extra/layouts/grid/../flex/../../../core/lv_obj_style_gen.h **** {
  99:Middlewares/LVGL/GUI/lvgl/src/extra/layouts/grid/../flex/../../../core/lv_obj_style_gen.h ****     lv_style_value_t v = lv_obj_get_style_prop(obj, part, LV_STYLE_PAD_BOTTOM);
 100:Middlewares/LVGL/GUI/lvgl/src/extra/layouts/grid/../flex/../../../core/lv_obj_style_gen.h ****     return (lv_coord_t)v.num;
 101:Middlewares/LVGL/GUI/lvgl/src/extra/layouts/grid/../flex/../../../core/lv_obj_style_gen.h **** }
 102:Middlewares/LVGL/GUI/lvgl/src/extra/layouts/grid/../flex/../../../core/lv_obj_style_gen.h **** 
 103:Middlewares/LVGL/GUI/lvgl/src/extra/layouts/grid/../flex/../../../core/lv_obj_style_gen.h **** static inline lv_coord_t lv_obj_get_style_pad_left(const struct _lv_obj_t * obj, uint32_t part)
 104:Middlewares/LVGL/GUI/lvgl/src/extra/layouts/grid/../flex/../../../core/lv_obj_style_gen.h **** {
 105:Middlewares/LVGL/GUI/lvgl/src/extra/layouts/grid/../flex/../../../core/lv_obj_style_gen.h ****     lv_style_value_t v = lv_obj_get_style_prop(obj, part, LV_STYLE_PAD_LEFT);
 106:Middlewares/LVGL/GUI/lvgl/src/extra/layouts/grid/../flex/../../../core/lv_obj_style_gen.h ****     return (lv_coord_t)v.num;
 107:Middlewares/LVGL/GUI/lvgl/src/extra/layouts/grid/../flex/../../../core/lv_obj_style_gen.h **** }
 108:Middlewares/LVGL/GUI/lvgl/src/extra/layouts/grid/../flex/../../../core/lv_obj_style_gen.h **** 
 109:Middlewares/LVGL/GUI/lvgl/src/extra/layouts/grid/../flex/../../../core/lv_obj_style_gen.h **** static inline lv_coord_t lv_obj_get_style_pad_right(const struct _lv_obj_t * obj, uint32_t part)
 110:Middlewares/LVGL/GUI/lvgl/src/extra/layouts/grid/../flex/../../../core/lv_obj_style_gen.h **** {
 111:Middlewares/LVGL/GUI/lvgl/src/extra/layouts/grid/../flex/../../../core/lv_obj_style_gen.h ****     lv_style_value_t v = lv_obj_get_style_prop(obj, part, LV_STYLE_PAD_RIGHT);
 112:Middlewares/LVGL/GUI/lvgl/src/extra/layouts/grid/../flex/../../../core/lv_obj_style_gen.h ****     return (lv_coord_t)v.num;
 113:Middlewares/LVGL/GUI/lvgl/src/extra/layouts/grid/../flex/../../../core/lv_obj_style_gen.h **** }
 114:Middlewares/LVGL/GUI/lvgl/src/extra/layouts/grid/../flex/../../../core/lv_obj_style_gen.h **** 
 115:Middlewares/LVGL/GUI/lvgl/src/extra/layouts/grid/../flex/../../../core/lv_obj_style_gen.h **** static inline lv_coord_t lv_obj_get_style_pad_row(const struct _lv_obj_t * obj, uint32_t part)
 116:Middlewares/LVGL/GUI/lvgl/src/extra/layouts/grid/../flex/../../../core/lv_obj_style_gen.h **** {
 117:Middlewares/LVGL/GUI/lvgl/src/extra/layouts/grid/../flex/../../../core/lv_obj_style_gen.h ****     lv_style_value_t v = lv_obj_get_style_prop(obj, part, LV_STYLE_PAD_ROW);
 118:Middlewares/LVGL/GUI/lvgl/src/extra/layouts/grid/../flex/../../../core/lv_obj_style_gen.h ****     return (lv_coord_t)v.num;
 119:Middlewares/LVGL/GUI/lvgl/src/extra/layouts/grid/../flex/../../../core/lv_obj_style_gen.h **** }
 120:Middlewares/LVGL/GUI/lvgl/src/extra/layouts/grid/../flex/../../../core/lv_obj_style_gen.h **** 
 121:Middlewares/LVGL/GUI/lvgl/src/extra/layouts/grid/../flex/../../../core/lv_obj_style_gen.h **** static inline lv_coord_t lv_obj_get_style_pad_column(const struct _lv_obj_t * obj, uint32_t part)
 122:Middlewares/LVGL/GUI/lvgl/src/extra/layouts/grid/../flex/../../../core/lv_obj_style_gen.h **** {
 123:Middlewares/LVGL/GUI/lvgl/src/extra/layouts/grid/../flex/../../../core/lv_obj_style_gen.h ****     lv_style_value_t v = lv_obj_get_style_prop(obj, part, LV_STYLE_PAD_COLUMN);
 124:Middlewares/LVGL/GUI/lvgl/src/extra/layouts/grid/../flex/../../../core/lv_obj_style_gen.h ****     return (lv_coord_t)v.num;
 125:Middlewares/LVGL/GUI/lvgl/src/extra/layouts/grid/../flex/../../../core/lv_obj_style_gen.h **** }
 126:Middlewares/LVGL/GUI/lvgl/src/extra/layouts/grid/../flex/../../../core/lv_obj_style_gen.h **** 
 127:Middlewares/LVGL/GUI/lvgl/src/extra/layouts/grid/../flex/../../../core/lv_obj_style_gen.h **** static inline lv_color_t lv_obj_get_style_bg_color(const struct _lv_obj_t * obj, uint32_t part)
 128:Middlewares/LVGL/GUI/lvgl/src/extra/layouts/grid/../flex/../../../core/lv_obj_style_gen.h **** {
 129:Middlewares/LVGL/GUI/lvgl/src/extra/layouts/grid/../flex/../../../core/lv_obj_style_gen.h ****     lv_style_value_t v = lv_obj_get_style_prop(obj, part, LV_STYLE_BG_COLOR);
 130:Middlewares/LVGL/GUI/lvgl/src/extra/layouts/grid/../flex/../../../core/lv_obj_style_gen.h ****     return v.color;
 131:Middlewares/LVGL/GUI/lvgl/src/extra/layouts/grid/../flex/../../../core/lv_obj_style_gen.h **** }
 132:Middlewares/LVGL/GUI/lvgl/src/extra/layouts/grid/../flex/../../../core/lv_obj_style_gen.h **** 
 133:Middlewares/LVGL/GUI/lvgl/src/extra/layouts/grid/../flex/../../../core/lv_obj_style_gen.h **** static inline lv_color_t lv_obj_get_style_bg_color_filtered(const struct _lv_obj_t * obj, uint32_t 
 134:Middlewares/LVGL/GUI/lvgl/src/extra/layouts/grid/../flex/../../../core/lv_obj_style_gen.h **** {
 135:Middlewares/LVGL/GUI/lvgl/src/extra/layouts/grid/../flex/../../../core/lv_obj_style_gen.h ****     lv_style_value_t v = lv_obj_get_style_prop(obj, part, LV_STYLE_BG_COLOR_FILTERED);
 136:Middlewares/LVGL/GUI/lvgl/src/extra/layouts/grid/../flex/../../../core/lv_obj_style_gen.h ****     return v.color;
 137:Middlewares/LVGL/GUI/lvgl/src/extra/layouts/grid/../flex/../../../core/lv_obj_style_gen.h **** }
 138:Middlewares/LVGL/GUI/lvgl/src/extra/layouts/grid/../flex/../../../core/lv_obj_style_gen.h **** 
ARM GAS  C:\Users\ADMINI~1\AppData\Local\Temp\cc6Bhsgy.s 			page 34


 139:Middlewares/LVGL/GUI/lvgl/src/extra/layouts/grid/../flex/../../../core/lv_obj_style_gen.h **** static inline lv_opa_t lv_obj_get_style_bg_opa(const struct _lv_obj_t * obj, uint32_t part)
 140:Middlewares/LVGL/GUI/lvgl/src/extra/layouts/grid/../flex/../../../core/lv_obj_style_gen.h **** {
 141:Middlewares/LVGL/GUI/lvgl/src/extra/layouts/grid/../flex/../../../core/lv_obj_style_gen.h ****     lv_style_value_t v = lv_obj_get_style_prop(obj, part, LV_STYLE_BG_OPA);
 142:Middlewares/LVGL/GUI/lvgl/src/extra/layouts/grid/../flex/../../../core/lv_obj_style_gen.h ****     return (lv_opa_t)v.num;
 143:Middlewares/LVGL/GUI/lvgl/src/extra/layouts/grid/../flex/../../../core/lv_obj_style_gen.h **** }
 144:Middlewares/LVGL/GUI/lvgl/src/extra/layouts/grid/../flex/../../../core/lv_obj_style_gen.h **** 
 145:Middlewares/LVGL/GUI/lvgl/src/extra/layouts/grid/../flex/../../../core/lv_obj_style_gen.h **** static inline lv_color_t lv_obj_get_style_bg_grad_color(const struct _lv_obj_t * obj, uint32_t part
 146:Middlewares/LVGL/GUI/lvgl/src/extra/layouts/grid/../flex/../../../core/lv_obj_style_gen.h **** {
 147:Middlewares/LVGL/GUI/lvgl/src/extra/layouts/grid/../flex/../../../core/lv_obj_style_gen.h ****     lv_style_value_t v = lv_obj_get_style_prop(obj, part, LV_STYLE_BG_GRAD_COLOR);
 148:Middlewares/LVGL/GUI/lvgl/src/extra/layouts/grid/../flex/../../../core/lv_obj_style_gen.h ****     return v.color;
 149:Middlewares/LVGL/GUI/lvgl/src/extra/layouts/grid/../flex/../../../core/lv_obj_style_gen.h **** }
 150:Middlewares/LVGL/GUI/lvgl/src/extra/layouts/grid/../flex/../../../core/lv_obj_style_gen.h **** 
 151:Middlewares/LVGL/GUI/lvgl/src/extra/layouts/grid/../flex/../../../core/lv_obj_style_gen.h **** static inline lv_color_t lv_obj_get_style_bg_grad_color_filtered(const struct _lv_obj_t * obj, uint
 152:Middlewares/LVGL/GUI/lvgl/src/extra/layouts/grid/../flex/../../../core/lv_obj_style_gen.h **** {
 153:Middlewares/LVGL/GUI/lvgl/src/extra/layouts/grid/../flex/../../../core/lv_obj_style_gen.h ****     lv_style_value_t v = lv_obj_get_style_prop(obj, part, LV_STYLE_BG_GRAD_COLOR_FILTERED);
 154:Middlewares/LVGL/GUI/lvgl/src/extra/layouts/grid/../flex/../../../core/lv_obj_style_gen.h ****     return v.color;
 155:Middlewares/LVGL/GUI/lvgl/src/extra/layouts/grid/../flex/../../../core/lv_obj_style_gen.h **** }
 156:Middlewares/LVGL/GUI/lvgl/src/extra/layouts/grid/../flex/../../../core/lv_obj_style_gen.h **** 
 157:Middlewares/LVGL/GUI/lvgl/src/extra/layouts/grid/../flex/../../../core/lv_obj_style_gen.h **** static inline lv_grad_dir_t lv_obj_get_style_bg_grad_dir(const struct _lv_obj_t * obj, uint32_t par
 158:Middlewares/LVGL/GUI/lvgl/src/extra/layouts/grid/../flex/../../../core/lv_obj_style_gen.h **** {
 159:Middlewares/LVGL/GUI/lvgl/src/extra/layouts/grid/../flex/../../../core/lv_obj_style_gen.h ****     lv_style_value_t v = lv_obj_get_style_prop(obj, part, LV_STYLE_BG_GRAD_DIR);
 160:Middlewares/LVGL/GUI/lvgl/src/extra/layouts/grid/../flex/../../../core/lv_obj_style_gen.h ****     return (lv_grad_dir_t)v.num;
 161:Middlewares/LVGL/GUI/lvgl/src/extra/layouts/grid/../flex/../../../core/lv_obj_style_gen.h **** }
 162:Middlewares/LVGL/GUI/lvgl/src/extra/layouts/grid/../flex/../../../core/lv_obj_style_gen.h **** 
 163:Middlewares/LVGL/GUI/lvgl/src/extra/layouts/grid/../flex/../../../core/lv_obj_style_gen.h **** static inline lv_coord_t lv_obj_get_style_bg_main_stop(const struct _lv_obj_t * obj, uint32_t part)
 164:Middlewares/LVGL/GUI/lvgl/src/extra/layouts/grid/../flex/../../../core/lv_obj_style_gen.h **** {
 165:Middlewares/LVGL/GUI/lvgl/src/extra/layouts/grid/../flex/../../../core/lv_obj_style_gen.h ****     lv_style_value_t v = lv_obj_get_style_prop(obj, part, LV_STYLE_BG_MAIN_STOP);
 166:Middlewares/LVGL/GUI/lvgl/src/extra/layouts/grid/../flex/../../../core/lv_obj_style_gen.h ****     return (lv_coord_t)v.num;
 167:Middlewares/LVGL/GUI/lvgl/src/extra/layouts/grid/../flex/../../../core/lv_obj_style_gen.h **** }
 168:Middlewares/LVGL/GUI/lvgl/src/extra/layouts/grid/../flex/../../../core/lv_obj_style_gen.h **** 
 169:Middlewares/LVGL/GUI/lvgl/src/extra/layouts/grid/../flex/../../../core/lv_obj_style_gen.h **** static inline lv_coord_t lv_obj_get_style_bg_grad_stop(const struct _lv_obj_t * obj, uint32_t part)
 170:Middlewares/LVGL/GUI/lvgl/src/extra/layouts/grid/../flex/../../../core/lv_obj_style_gen.h **** {
 171:Middlewares/LVGL/GUI/lvgl/src/extra/layouts/grid/../flex/../../../core/lv_obj_style_gen.h ****     lv_style_value_t v = lv_obj_get_style_prop(obj, part, LV_STYLE_BG_GRAD_STOP);
 172:Middlewares/LVGL/GUI/lvgl/src/extra/layouts/grid/../flex/../../../core/lv_obj_style_gen.h ****     return (lv_coord_t)v.num;
 173:Middlewares/LVGL/GUI/lvgl/src/extra/layouts/grid/../flex/../../../core/lv_obj_style_gen.h **** }
 174:Middlewares/LVGL/GUI/lvgl/src/extra/layouts/grid/../flex/../../../core/lv_obj_style_gen.h **** 
 175:Middlewares/LVGL/GUI/lvgl/src/extra/layouts/grid/../flex/../../../core/lv_obj_style_gen.h **** static inline const lv_grad_dsc_t * lv_obj_get_style_bg_grad(const struct _lv_obj_t * obj, uint32_t
 176:Middlewares/LVGL/GUI/lvgl/src/extra/layouts/grid/../flex/../../../core/lv_obj_style_gen.h **** {
 177:Middlewares/LVGL/GUI/lvgl/src/extra/layouts/grid/../flex/../../../core/lv_obj_style_gen.h ****     lv_style_value_t v = lv_obj_get_style_prop(obj, part, LV_STYLE_BG_GRAD);
 178:Middlewares/LVGL/GUI/lvgl/src/extra/layouts/grid/../flex/../../../core/lv_obj_style_gen.h ****     return (const lv_grad_dsc_t *)v.ptr;
 179:Middlewares/LVGL/GUI/lvgl/src/extra/layouts/grid/../flex/../../../core/lv_obj_style_gen.h **** }
 180:Middlewares/LVGL/GUI/lvgl/src/extra/layouts/grid/../flex/../../../core/lv_obj_style_gen.h **** 
 181:Middlewares/LVGL/GUI/lvgl/src/extra/layouts/grid/../flex/../../../core/lv_obj_style_gen.h **** static inline lv_dither_mode_t lv_obj_get_style_bg_dither_mode(const struct _lv_obj_t * obj, uint32
 182:Middlewares/LVGL/GUI/lvgl/src/extra/layouts/grid/../flex/../../../core/lv_obj_style_gen.h **** {
 183:Middlewares/LVGL/GUI/lvgl/src/extra/layouts/grid/../flex/../../../core/lv_obj_style_gen.h ****     lv_style_value_t v = lv_obj_get_style_prop(obj, part, LV_STYLE_BG_DITHER_MODE);
 184:Middlewares/LVGL/GUI/lvgl/src/extra/layouts/grid/../flex/../../../core/lv_obj_style_gen.h ****     return (lv_dither_mode_t)v.num;
 185:Middlewares/LVGL/GUI/lvgl/src/extra/layouts/grid/../flex/../../../core/lv_obj_style_gen.h **** }
 186:Middlewares/LVGL/GUI/lvgl/src/extra/layouts/grid/../flex/../../../core/lv_obj_style_gen.h **** 
 187:Middlewares/LVGL/GUI/lvgl/src/extra/layouts/grid/../flex/../../../core/lv_obj_style_gen.h **** static inline const void * lv_obj_get_style_bg_img_src(const struct _lv_obj_t * obj, uint32_t part)
 188:Middlewares/LVGL/GUI/lvgl/src/extra/layouts/grid/../flex/../../../core/lv_obj_style_gen.h **** {
 189:Middlewares/LVGL/GUI/lvgl/src/extra/layouts/grid/../flex/../../../core/lv_obj_style_gen.h ****     lv_style_value_t v = lv_obj_get_style_prop(obj, part, LV_STYLE_BG_IMG_SRC);
 190:Middlewares/LVGL/GUI/lvgl/src/extra/layouts/grid/../flex/../../../core/lv_obj_style_gen.h ****     return (const void *)v.ptr;
 191:Middlewares/LVGL/GUI/lvgl/src/extra/layouts/grid/../flex/../../../core/lv_obj_style_gen.h **** }
 192:Middlewares/LVGL/GUI/lvgl/src/extra/layouts/grid/../flex/../../../core/lv_obj_style_gen.h **** 
 193:Middlewares/LVGL/GUI/lvgl/src/extra/layouts/grid/../flex/../../../core/lv_obj_style_gen.h **** static inline lv_opa_t lv_obj_get_style_bg_img_opa(const struct _lv_obj_t * obj, uint32_t part)
 194:Middlewares/LVGL/GUI/lvgl/src/extra/layouts/grid/../flex/../../../core/lv_obj_style_gen.h **** {
 195:Middlewares/LVGL/GUI/lvgl/src/extra/layouts/grid/../flex/../../../core/lv_obj_style_gen.h ****     lv_style_value_t v = lv_obj_get_style_prop(obj, part, LV_STYLE_BG_IMG_OPA);
ARM GAS  C:\Users\ADMINI~1\AppData\Local\Temp\cc6Bhsgy.s 			page 35


 196:Middlewares/LVGL/GUI/lvgl/src/extra/layouts/grid/../flex/../../../core/lv_obj_style_gen.h ****     return (lv_opa_t)v.num;
 197:Middlewares/LVGL/GUI/lvgl/src/extra/layouts/grid/../flex/../../../core/lv_obj_style_gen.h **** }
 198:Middlewares/LVGL/GUI/lvgl/src/extra/layouts/grid/../flex/../../../core/lv_obj_style_gen.h **** 
 199:Middlewares/LVGL/GUI/lvgl/src/extra/layouts/grid/../flex/../../../core/lv_obj_style_gen.h **** static inline lv_color_t lv_obj_get_style_bg_img_recolor(const struct _lv_obj_t * obj, uint32_t par
 200:Middlewares/LVGL/GUI/lvgl/src/extra/layouts/grid/../flex/../../../core/lv_obj_style_gen.h **** {
 201:Middlewares/LVGL/GUI/lvgl/src/extra/layouts/grid/../flex/../../../core/lv_obj_style_gen.h ****     lv_style_value_t v = lv_obj_get_style_prop(obj, part, LV_STYLE_BG_IMG_RECOLOR);
 202:Middlewares/LVGL/GUI/lvgl/src/extra/layouts/grid/../flex/../../../core/lv_obj_style_gen.h ****     return v.color;
 203:Middlewares/LVGL/GUI/lvgl/src/extra/layouts/grid/../flex/../../../core/lv_obj_style_gen.h **** }
 204:Middlewares/LVGL/GUI/lvgl/src/extra/layouts/grid/../flex/../../../core/lv_obj_style_gen.h **** 
 205:Middlewares/LVGL/GUI/lvgl/src/extra/layouts/grid/../flex/../../../core/lv_obj_style_gen.h **** static inline lv_color_t lv_obj_get_style_bg_img_recolor_filtered(const struct _lv_obj_t * obj, uin
 206:Middlewares/LVGL/GUI/lvgl/src/extra/layouts/grid/../flex/../../../core/lv_obj_style_gen.h **** {
 207:Middlewares/LVGL/GUI/lvgl/src/extra/layouts/grid/../flex/../../../core/lv_obj_style_gen.h ****     lv_style_value_t v = lv_obj_get_style_prop(obj, part, LV_STYLE_BG_IMG_RECOLOR_FILTERED);
 208:Middlewares/LVGL/GUI/lvgl/src/extra/layouts/grid/../flex/../../../core/lv_obj_style_gen.h ****     return v.color;
 209:Middlewares/LVGL/GUI/lvgl/src/extra/layouts/grid/../flex/../../../core/lv_obj_style_gen.h **** }
 210:Middlewares/LVGL/GUI/lvgl/src/extra/layouts/grid/../flex/../../../core/lv_obj_style_gen.h **** 
 211:Middlewares/LVGL/GUI/lvgl/src/extra/layouts/grid/../flex/../../../core/lv_obj_style_gen.h **** static inline lv_opa_t lv_obj_get_style_bg_img_recolor_opa(const struct _lv_obj_t * obj, uint32_t p
 212:Middlewares/LVGL/GUI/lvgl/src/extra/layouts/grid/../flex/../../../core/lv_obj_style_gen.h **** {
 213:Middlewares/LVGL/GUI/lvgl/src/extra/layouts/grid/../flex/../../../core/lv_obj_style_gen.h ****     lv_style_value_t v = lv_obj_get_style_prop(obj, part, LV_STYLE_BG_IMG_RECOLOR_OPA);
 214:Middlewares/LVGL/GUI/lvgl/src/extra/layouts/grid/../flex/../../../core/lv_obj_style_gen.h ****     return (lv_opa_t)v.num;
 215:Middlewares/LVGL/GUI/lvgl/src/extra/layouts/grid/../flex/../../../core/lv_obj_style_gen.h **** }
 216:Middlewares/LVGL/GUI/lvgl/src/extra/layouts/grid/../flex/../../../core/lv_obj_style_gen.h **** 
 217:Middlewares/LVGL/GUI/lvgl/src/extra/layouts/grid/../flex/../../../core/lv_obj_style_gen.h **** static inline bool lv_obj_get_style_bg_img_tiled(const struct _lv_obj_t * obj, uint32_t part)
 218:Middlewares/LVGL/GUI/lvgl/src/extra/layouts/grid/../flex/../../../core/lv_obj_style_gen.h **** {
 219:Middlewares/LVGL/GUI/lvgl/src/extra/layouts/grid/../flex/../../../core/lv_obj_style_gen.h ****     lv_style_value_t v = lv_obj_get_style_prop(obj, part, LV_STYLE_BG_IMG_TILED);
 220:Middlewares/LVGL/GUI/lvgl/src/extra/layouts/grid/../flex/../../../core/lv_obj_style_gen.h ****     return (bool)v.num;
 221:Middlewares/LVGL/GUI/lvgl/src/extra/layouts/grid/../flex/../../../core/lv_obj_style_gen.h **** }
 222:Middlewares/LVGL/GUI/lvgl/src/extra/layouts/grid/../flex/../../../core/lv_obj_style_gen.h **** 
 223:Middlewares/LVGL/GUI/lvgl/src/extra/layouts/grid/../flex/../../../core/lv_obj_style_gen.h **** static inline lv_color_t lv_obj_get_style_border_color(const struct _lv_obj_t * obj, uint32_t part)
 224:Middlewares/LVGL/GUI/lvgl/src/extra/layouts/grid/../flex/../../../core/lv_obj_style_gen.h **** {
 225:Middlewares/LVGL/GUI/lvgl/src/extra/layouts/grid/../flex/../../../core/lv_obj_style_gen.h ****     lv_style_value_t v = lv_obj_get_style_prop(obj, part, LV_STYLE_BORDER_COLOR);
 226:Middlewares/LVGL/GUI/lvgl/src/extra/layouts/grid/../flex/../../../core/lv_obj_style_gen.h ****     return v.color;
 227:Middlewares/LVGL/GUI/lvgl/src/extra/layouts/grid/../flex/../../../core/lv_obj_style_gen.h **** }
 228:Middlewares/LVGL/GUI/lvgl/src/extra/layouts/grid/../flex/../../../core/lv_obj_style_gen.h **** 
 229:Middlewares/LVGL/GUI/lvgl/src/extra/layouts/grid/../flex/../../../core/lv_obj_style_gen.h **** static inline lv_color_t lv_obj_get_style_border_color_filtered(const struct _lv_obj_t * obj, uint3
 230:Middlewares/LVGL/GUI/lvgl/src/extra/layouts/grid/../flex/../../../core/lv_obj_style_gen.h **** {
 231:Middlewares/LVGL/GUI/lvgl/src/extra/layouts/grid/../flex/../../../core/lv_obj_style_gen.h ****     lv_style_value_t v = lv_obj_get_style_prop(obj, part, LV_STYLE_BORDER_COLOR_FILTERED);
 232:Middlewares/LVGL/GUI/lvgl/src/extra/layouts/grid/../flex/../../../core/lv_obj_style_gen.h ****     return v.color;
 233:Middlewares/LVGL/GUI/lvgl/src/extra/layouts/grid/../flex/../../../core/lv_obj_style_gen.h **** }
 234:Middlewares/LVGL/GUI/lvgl/src/extra/layouts/grid/../flex/../../../core/lv_obj_style_gen.h **** 
 235:Middlewares/LVGL/GUI/lvgl/src/extra/layouts/grid/../flex/../../../core/lv_obj_style_gen.h **** static inline lv_opa_t lv_obj_get_style_border_opa(const struct _lv_obj_t * obj, uint32_t part)
 236:Middlewares/LVGL/GUI/lvgl/src/extra/layouts/grid/../flex/../../../core/lv_obj_style_gen.h **** {
 237:Middlewares/LVGL/GUI/lvgl/src/extra/layouts/grid/../flex/../../../core/lv_obj_style_gen.h ****     lv_style_value_t v = lv_obj_get_style_prop(obj, part, LV_STYLE_BORDER_OPA);
 238:Middlewares/LVGL/GUI/lvgl/src/extra/layouts/grid/../flex/../../../core/lv_obj_style_gen.h ****     return (lv_opa_t)v.num;
 239:Middlewares/LVGL/GUI/lvgl/src/extra/layouts/grid/../flex/../../../core/lv_obj_style_gen.h **** }
 240:Middlewares/LVGL/GUI/lvgl/src/extra/layouts/grid/../flex/../../../core/lv_obj_style_gen.h **** 
 241:Middlewares/LVGL/GUI/lvgl/src/extra/layouts/grid/../flex/../../../core/lv_obj_style_gen.h **** static inline lv_coord_t lv_obj_get_style_border_width(const struct _lv_obj_t * obj, uint32_t part)
 242:Middlewares/LVGL/GUI/lvgl/src/extra/layouts/grid/../flex/../../../core/lv_obj_style_gen.h **** {
 243:Middlewares/LVGL/GUI/lvgl/src/extra/layouts/grid/../flex/../../../core/lv_obj_style_gen.h ****     lv_style_value_t v = lv_obj_get_style_prop(obj, part, LV_STYLE_BORDER_WIDTH);
 244:Middlewares/LVGL/GUI/lvgl/src/extra/layouts/grid/../flex/../../../core/lv_obj_style_gen.h ****     return (lv_coord_t)v.num;
 245:Middlewares/LVGL/GUI/lvgl/src/extra/layouts/grid/../flex/../../../core/lv_obj_style_gen.h **** }
 246:Middlewares/LVGL/GUI/lvgl/src/extra/layouts/grid/../flex/../../../core/lv_obj_style_gen.h **** 
 247:Middlewares/LVGL/GUI/lvgl/src/extra/layouts/grid/../flex/../../../core/lv_obj_style_gen.h **** static inline lv_border_side_t lv_obj_get_style_border_side(const struct _lv_obj_t * obj, uint32_t 
 248:Middlewares/LVGL/GUI/lvgl/src/extra/layouts/grid/../flex/../../../core/lv_obj_style_gen.h **** {
 249:Middlewares/LVGL/GUI/lvgl/src/extra/layouts/grid/../flex/../../../core/lv_obj_style_gen.h ****     lv_style_value_t v = lv_obj_get_style_prop(obj, part, LV_STYLE_BORDER_SIDE);
 250:Middlewares/LVGL/GUI/lvgl/src/extra/layouts/grid/../flex/../../../core/lv_obj_style_gen.h ****     return (lv_border_side_t)v.num;
 251:Middlewares/LVGL/GUI/lvgl/src/extra/layouts/grid/../flex/../../../core/lv_obj_style_gen.h **** }
 252:Middlewares/LVGL/GUI/lvgl/src/extra/layouts/grid/../flex/../../../core/lv_obj_style_gen.h **** 
ARM GAS  C:\Users\ADMINI~1\AppData\Local\Temp\cc6Bhsgy.s 			page 36


 253:Middlewares/LVGL/GUI/lvgl/src/extra/layouts/grid/../flex/../../../core/lv_obj_style_gen.h **** static inline bool lv_obj_get_style_border_post(const struct _lv_obj_t * obj, uint32_t part)
 254:Middlewares/LVGL/GUI/lvgl/src/extra/layouts/grid/../flex/../../../core/lv_obj_style_gen.h **** {
 255:Middlewares/LVGL/GUI/lvgl/src/extra/layouts/grid/../flex/../../../core/lv_obj_style_gen.h ****     lv_style_value_t v = lv_obj_get_style_prop(obj, part, LV_STYLE_BORDER_POST);
 256:Middlewares/LVGL/GUI/lvgl/src/extra/layouts/grid/../flex/../../../core/lv_obj_style_gen.h ****     return (bool)v.num;
 257:Middlewares/LVGL/GUI/lvgl/src/extra/layouts/grid/../flex/../../../core/lv_obj_style_gen.h **** }
 258:Middlewares/LVGL/GUI/lvgl/src/extra/layouts/grid/../flex/../../../core/lv_obj_style_gen.h **** 
 259:Middlewares/LVGL/GUI/lvgl/src/extra/layouts/grid/../flex/../../../core/lv_obj_style_gen.h **** static inline lv_coord_t lv_obj_get_style_outline_width(const struct _lv_obj_t * obj, uint32_t part
 260:Middlewares/LVGL/GUI/lvgl/src/extra/layouts/grid/../flex/../../../core/lv_obj_style_gen.h **** {
 261:Middlewares/LVGL/GUI/lvgl/src/extra/layouts/grid/../flex/../../../core/lv_obj_style_gen.h ****     lv_style_value_t v = lv_obj_get_style_prop(obj, part, LV_STYLE_OUTLINE_WIDTH);
 262:Middlewares/LVGL/GUI/lvgl/src/extra/layouts/grid/../flex/../../../core/lv_obj_style_gen.h ****     return (lv_coord_t)v.num;
 263:Middlewares/LVGL/GUI/lvgl/src/extra/layouts/grid/../flex/../../../core/lv_obj_style_gen.h **** }
 264:Middlewares/LVGL/GUI/lvgl/src/extra/layouts/grid/../flex/../../../core/lv_obj_style_gen.h **** 
 265:Middlewares/LVGL/GUI/lvgl/src/extra/layouts/grid/../flex/../../../core/lv_obj_style_gen.h **** static inline lv_color_t lv_obj_get_style_outline_color(const struct _lv_obj_t * obj, uint32_t part
 266:Middlewares/LVGL/GUI/lvgl/src/extra/layouts/grid/../flex/../../../core/lv_obj_style_gen.h **** {
 267:Middlewares/LVGL/GUI/lvgl/src/extra/layouts/grid/../flex/../../../core/lv_obj_style_gen.h ****     lv_style_value_t v = lv_obj_get_style_prop(obj, part, LV_STYLE_OUTLINE_COLOR);
 268:Middlewares/LVGL/GUI/lvgl/src/extra/layouts/grid/../flex/../../../core/lv_obj_style_gen.h ****     return v.color;
 269:Middlewares/LVGL/GUI/lvgl/src/extra/layouts/grid/../flex/../../../core/lv_obj_style_gen.h **** }
 270:Middlewares/LVGL/GUI/lvgl/src/extra/layouts/grid/../flex/../../../core/lv_obj_style_gen.h **** 
 271:Middlewares/LVGL/GUI/lvgl/src/extra/layouts/grid/../flex/../../../core/lv_obj_style_gen.h **** static inline lv_color_t lv_obj_get_style_outline_color_filtered(const struct _lv_obj_t * obj, uint
 272:Middlewares/LVGL/GUI/lvgl/src/extra/layouts/grid/../flex/../../../core/lv_obj_style_gen.h **** {
 273:Middlewares/LVGL/GUI/lvgl/src/extra/layouts/grid/../flex/../../../core/lv_obj_style_gen.h ****     lv_style_value_t v = lv_obj_get_style_prop(obj, part, LV_STYLE_OUTLINE_COLOR_FILTERED);
 274:Middlewares/LVGL/GUI/lvgl/src/extra/layouts/grid/../flex/../../../core/lv_obj_style_gen.h ****     return v.color;
 275:Middlewares/LVGL/GUI/lvgl/src/extra/layouts/grid/../flex/../../../core/lv_obj_style_gen.h **** }
 276:Middlewares/LVGL/GUI/lvgl/src/extra/layouts/grid/../flex/../../../core/lv_obj_style_gen.h **** 
 277:Middlewares/LVGL/GUI/lvgl/src/extra/layouts/grid/../flex/../../../core/lv_obj_style_gen.h **** static inline lv_opa_t lv_obj_get_style_outline_opa(const struct _lv_obj_t * obj, uint32_t part)
 278:Middlewares/LVGL/GUI/lvgl/src/extra/layouts/grid/../flex/../../../core/lv_obj_style_gen.h **** {
 279:Middlewares/LVGL/GUI/lvgl/src/extra/layouts/grid/../flex/../../../core/lv_obj_style_gen.h ****     lv_style_value_t v = lv_obj_get_style_prop(obj, part, LV_STYLE_OUTLINE_OPA);
 280:Middlewares/LVGL/GUI/lvgl/src/extra/layouts/grid/../flex/../../../core/lv_obj_style_gen.h ****     return (lv_opa_t)v.num;
 281:Middlewares/LVGL/GUI/lvgl/src/extra/layouts/grid/../flex/../../../core/lv_obj_style_gen.h **** }
 282:Middlewares/LVGL/GUI/lvgl/src/extra/layouts/grid/../flex/../../../core/lv_obj_style_gen.h **** 
 283:Middlewares/LVGL/GUI/lvgl/src/extra/layouts/grid/../flex/../../../core/lv_obj_style_gen.h **** static inline lv_coord_t lv_obj_get_style_outline_pad(const struct _lv_obj_t * obj, uint32_t part)
 284:Middlewares/LVGL/GUI/lvgl/src/extra/layouts/grid/../flex/../../../core/lv_obj_style_gen.h **** {
 285:Middlewares/LVGL/GUI/lvgl/src/extra/layouts/grid/../flex/../../../core/lv_obj_style_gen.h ****     lv_style_value_t v = lv_obj_get_style_prop(obj, part, LV_STYLE_OUTLINE_PAD);
 286:Middlewares/LVGL/GUI/lvgl/src/extra/layouts/grid/../flex/../../../core/lv_obj_style_gen.h ****     return (lv_coord_t)v.num;
 287:Middlewares/LVGL/GUI/lvgl/src/extra/layouts/grid/../flex/../../../core/lv_obj_style_gen.h **** }
 288:Middlewares/LVGL/GUI/lvgl/src/extra/layouts/grid/../flex/../../../core/lv_obj_style_gen.h **** 
 289:Middlewares/LVGL/GUI/lvgl/src/extra/layouts/grid/../flex/../../../core/lv_obj_style_gen.h **** static inline lv_coord_t lv_obj_get_style_shadow_width(const struct _lv_obj_t * obj, uint32_t part)
 290:Middlewares/LVGL/GUI/lvgl/src/extra/layouts/grid/../flex/../../../core/lv_obj_style_gen.h **** {
 291:Middlewares/LVGL/GUI/lvgl/src/extra/layouts/grid/../flex/../../../core/lv_obj_style_gen.h ****     lv_style_value_t v = lv_obj_get_style_prop(obj, part, LV_STYLE_SHADOW_WIDTH);
 292:Middlewares/LVGL/GUI/lvgl/src/extra/layouts/grid/../flex/../../../core/lv_obj_style_gen.h ****     return (lv_coord_t)v.num;
 293:Middlewares/LVGL/GUI/lvgl/src/extra/layouts/grid/../flex/../../../core/lv_obj_style_gen.h **** }
 294:Middlewares/LVGL/GUI/lvgl/src/extra/layouts/grid/../flex/../../../core/lv_obj_style_gen.h **** 
 295:Middlewares/LVGL/GUI/lvgl/src/extra/layouts/grid/../flex/../../../core/lv_obj_style_gen.h **** static inline lv_coord_t lv_obj_get_style_shadow_ofs_x(const struct _lv_obj_t * obj, uint32_t part)
 296:Middlewares/LVGL/GUI/lvgl/src/extra/layouts/grid/../flex/../../../core/lv_obj_style_gen.h **** {
 297:Middlewares/LVGL/GUI/lvgl/src/extra/layouts/grid/../flex/../../../core/lv_obj_style_gen.h ****     lv_style_value_t v = lv_obj_get_style_prop(obj, part, LV_STYLE_SHADOW_OFS_X);
 298:Middlewares/LVGL/GUI/lvgl/src/extra/layouts/grid/../flex/../../../core/lv_obj_style_gen.h ****     return (lv_coord_t)v.num;
 299:Middlewares/LVGL/GUI/lvgl/src/extra/layouts/grid/../flex/../../../core/lv_obj_style_gen.h **** }
 300:Middlewares/LVGL/GUI/lvgl/src/extra/layouts/grid/../flex/../../../core/lv_obj_style_gen.h **** 
 301:Middlewares/LVGL/GUI/lvgl/src/extra/layouts/grid/../flex/../../../core/lv_obj_style_gen.h **** static inline lv_coord_t lv_obj_get_style_shadow_ofs_y(const struct _lv_obj_t * obj, uint32_t part)
 302:Middlewares/LVGL/GUI/lvgl/src/extra/layouts/grid/../flex/../../../core/lv_obj_style_gen.h **** {
 303:Middlewares/LVGL/GUI/lvgl/src/extra/layouts/grid/../flex/../../../core/lv_obj_style_gen.h ****     lv_style_value_t v = lv_obj_get_style_prop(obj, part, LV_STYLE_SHADOW_OFS_Y);
 304:Middlewares/LVGL/GUI/lvgl/src/extra/layouts/grid/../flex/../../../core/lv_obj_style_gen.h ****     return (lv_coord_t)v.num;
 305:Middlewares/LVGL/GUI/lvgl/src/extra/layouts/grid/../flex/../../../core/lv_obj_style_gen.h **** }
 306:Middlewares/LVGL/GUI/lvgl/src/extra/layouts/grid/../flex/../../../core/lv_obj_style_gen.h **** 
 307:Middlewares/LVGL/GUI/lvgl/src/extra/layouts/grid/../flex/../../../core/lv_obj_style_gen.h **** static inline lv_coord_t lv_obj_get_style_shadow_spread(const struct _lv_obj_t * obj, uint32_t part
 308:Middlewares/LVGL/GUI/lvgl/src/extra/layouts/grid/../flex/../../../core/lv_obj_style_gen.h **** {
 309:Middlewares/LVGL/GUI/lvgl/src/extra/layouts/grid/../flex/../../../core/lv_obj_style_gen.h ****     lv_style_value_t v = lv_obj_get_style_prop(obj, part, LV_STYLE_SHADOW_SPREAD);
ARM GAS  C:\Users\ADMINI~1\AppData\Local\Temp\cc6Bhsgy.s 			page 37


 310:Middlewares/LVGL/GUI/lvgl/src/extra/layouts/grid/../flex/../../../core/lv_obj_style_gen.h ****     return (lv_coord_t)v.num;
 311:Middlewares/LVGL/GUI/lvgl/src/extra/layouts/grid/../flex/../../../core/lv_obj_style_gen.h **** }
 312:Middlewares/LVGL/GUI/lvgl/src/extra/layouts/grid/../flex/../../../core/lv_obj_style_gen.h **** 
 313:Middlewares/LVGL/GUI/lvgl/src/extra/layouts/grid/../flex/../../../core/lv_obj_style_gen.h **** static inline lv_color_t lv_obj_get_style_shadow_color(const struct _lv_obj_t * obj, uint32_t part)
 314:Middlewares/LVGL/GUI/lvgl/src/extra/layouts/grid/../flex/../../../core/lv_obj_style_gen.h **** {
 315:Middlewares/LVGL/GUI/lvgl/src/extra/layouts/grid/../flex/../../../core/lv_obj_style_gen.h ****     lv_style_value_t v = lv_obj_get_style_prop(obj, part, LV_STYLE_SHADOW_COLOR);
 316:Middlewares/LVGL/GUI/lvgl/src/extra/layouts/grid/../flex/../../../core/lv_obj_style_gen.h ****     return v.color;
 317:Middlewares/LVGL/GUI/lvgl/src/extra/layouts/grid/../flex/../../../core/lv_obj_style_gen.h **** }
 318:Middlewares/LVGL/GUI/lvgl/src/extra/layouts/grid/../flex/../../../core/lv_obj_style_gen.h **** 
 319:Middlewares/LVGL/GUI/lvgl/src/extra/layouts/grid/../flex/../../../core/lv_obj_style_gen.h **** static inline lv_color_t lv_obj_get_style_shadow_color_filtered(const struct _lv_obj_t * obj, uint3
 320:Middlewares/LVGL/GUI/lvgl/src/extra/layouts/grid/../flex/../../../core/lv_obj_style_gen.h **** {
 321:Middlewares/LVGL/GUI/lvgl/src/extra/layouts/grid/../flex/../../../core/lv_obj_style_gen.h ****     lv_style_value_t v = lv_obj_get_style_prop(obj, part, LV_STYLE_SHADOW_COLOR_FILTERED);
 322:Middlewares/LVGL/GUI/lvgl/src/extra/layouts/grid/../flex/../../../core/lv_obj_style_gen.h ****     return v.color;
 323:Middlewares/LVGL/GUI/lvgl/src/extra/layouts/grid/../flex/../../../core/lv_obj_style_gen.h **** }
 324:Middlewares/LVGL/GUI/lvgl/src/extra/layouts/grid/../flex/../../../core/lv_obj_style_gen.h **** 
 325:Middlewares/LVGL/GUI/lvgl/src/extra/layouts/grid/../flex/../../../core/lv_obj_style_gen.h **** static inline lv_opa_t lv_obj_get_style_shadow_opa(const struct _lv_obj_t * obj, uint32_t part)
 326:Middlewares/LVGL/GUI/lvgl/src/extra/layouts/grid/../flex/../../../core/lv_obj_style_gen.h **** {
 327:Middlewares/LVGL/GUI/lvgl/src/extra/layouts/grid/../flex/../../../core/lv_obj_style_gen.h ****     lv_style_value_t v = lv_obj_get_style_prop(obj, part, LV_STYLE_SHADOW_OPA);
 328:Middlewares/LVGL/GUI/lvgl/src/extra/layouts/grid/../flex/../../../core/lv_obj_style_gen.h ****     return (lv_opa_t)v.num;
 329:Middlewares/LVGL/GUI/lvgl/src/extra/layouts/grid/../flex/../../../core/lv_obj_style_gen.h **** }
 330:Middlewares/LVGL/GUI/lvgl/src/extra/layouts/grid/../flex/../../../core/lv_obj_style_gen.h **** 
 331:Middlewares/LVGL/GUI/lvgl/src/extra/layouts/grid/../flex/../../../core/lv_obj_style_gen.h **** static inline lv_opa_t lv_obj_get_style_img_opa(const struct _lv_obj_t * obj, uint32_t part)
 332:Middlewares/LVGL/GUI/lvgl/src/extra/layouts/grid/../flex/../../../core/lv_obj_style_gen.h **** {
 333:Middlewares/LVGL/GUI/lvgl/src/extra/layouts/grid/../flex/../../../core/lv_obj_style_gen.h ****     lv_style_value_t v = lv_obj_get_style_prop(obj, part, LV_STYLE_IMG_OPA);
 334:Middlewares/LVGL/GUI/lvgl/src/extra/layouts/grid/../flex/../../../core/lv_obj_style_gen.h ****     return (lv_opa_t)v.num;
 335:Middlewares/LVGL/GUI/lvgl/src/extra/layouts/grid/../flex/../../../core/lv_obj_style_gen.h **** }
 336:Middlewares/LVGL/GUI/lvgl/src/extra/layouts/grid/../flex/../../../core/lv_obj_style_gen.h **** 
 337:Middlewares/LVGL/GUI/lvgl/src/extra/layouts/grid/../flex/../../../core/lv_obj_style_gen.h **** static inline lv_color_t lv_obj_get_style_img_recolor(const struct _lv_obj_t * obj, uint32_t part)
 338:Middlewares/LVGL/GUI/lvgl/src/extra/layouts/grid/../flex/../../../core/lv_obj_style_gen.h **** {
 339:Middlewares/LVGL/GUI/lvgl/src/extra/layouts/grid/../flex/../../../core/lv_obj_style_gen.h ****     lv_style_value_t v = lv_obj_get_style_prop(obj, part, LV_STYLE_IMG_RECOLOR);
 340:Middlewares/LVGL/GUI/lvgl/src/extra/layouts/grid/../flex/../../../core/lv_obj_style_gen.h ****     return v.color;
 341:Middlewares/LVGL/GUI/lvgl/src/extra/layouts/grid/../flex/../../../core/lv_obj_style_gen.h **** }
 342:Middlewares/LVGL/GUI/lvgl/src/extra/layouts/grid/../flex/../../../core/lv_obj_style_gen.h **** 
 343:Middlewares/LVGL/GUI/lvgl/src/extra/layouts/grid/../flex/../../../core/lv_obj_style_gen.h **** static inline lv_color_t lv_obj_get_style_img_recolor_filtered(const struct _lv_obj_t * obj, uint32
 344:Middlewares/LVGL/GUI/lvgl/src/extra/layouts/grid/../flex/../../../core/lv_obj_style_gen.h **** {
 345:Middlewares/LVGL/GUI/lvgl/src/extra/layouts/grid/../flex/../../../core/lv_obj_style_gen.h ****     lv_style_value_t v = lv_obj_get_style_prop(obj, part, LV_STYLE_IMG_RECOLOR_FILTERED);
 346:Middlewares/LVGL/GUI/lvgl/src/extra/layouts/grid/../flex/../../../core/lv_obj_style_gen.h ****     return v.color;
 347:Middlewares/LVGL/GUI/lvgl/src/extra/layouts/grid/../flex/../../../core/lv_obj_style_gen.h **** }
 348:Middlewares/LVGL/GUI/lvgl/src/extra/layouts/grid/../flex/../../../core/lv_obj_style_gen.h **** 
 349:Middlewares/LVGL/GUI/lvgl/src/extra/layouts/grid/../flex/../../../core/lv_obj_style_gen.h **** static inline lv_opa_t lv_obj_get_style_img_recolor_opa(const struct _lv_obj_t * obj, uint32_t part
 350:Middlewares/LVGL/GUI/lvgl/src/extra/layouts/grid/../flex/../../../core/lv_obj_style_gen.h **** {
 351:Middlewares/LVGL/GUI/lvgl/src/extra/layouts/grid/../flex/../../../core/lv_obj_style_gen.h ****     lv_style_value_t v = lv_obj_get_style_prop(obj, part, LV_STYLE_IMG_RECOLOR_OPA);
 352:Middlewares/LVGL/GUI/lvgl/src/extra/layouts/grid/../flex/../../../core/lv_obj_style_gen.h ****     return (lv_opa_t)v.num;
 353:Middlewares/LVGL/GUI/lvgl/src/extra/layouts/grid/../flex/../../../core/lv_obj_style_gen.h **** }
 354:Middlewares/LVGL/GUI/lvgl/src/extra/layouts/grid/../flex/../../../core/lv_obj_style_gen.h **** 
 355:Middlewares/LVGL/GUI/lvgl/src/extra/layouts/grid/../flex/../../../core/lv_obj_style_gen.h **** static inline lv_coord_t lv_obj_get_style_line_width(const struct _lv_obj_t * obj, uint32_t part)
 356:Middlewares/LVGL/GUI/lvgl/src/extra/layouts/grid/../flex/../../../core/lv_obj_style_gen.h **** {
 357:Middlewares/LVGL/GUI/lvgl/src/extra/layouts/grid/../flex/../../../core/lv_obj_style_gen.h ****     lv_style_value_t v = lv_obj_get_style_prop(obj, part, LV_STYLE_LINE_WIDTH);
 358:Middlewares/LVGL/GUI/lvgl/src/extra/layouts/grid/../flex/../../../core/lv_obj_style_gen.h ****     return (lv_coord_t)v.num;
 359:Middlewares/LVGL/GUI/lvgl/src/extra/layouts/grid/../flex/../../../core/lv_obj_style_gen.h **** }
 360:Middlewares/LVGL/GUI/lvgl/src/extra/layouts/grid/../flex/../../../core/lv_obj_style_gen.h **** 
 361:Middlewares/LVGL/GUI/lvgl/src/extra/layouts/grid/../flex/../../../core/lv_obj_style_gen.h **** static inline lv_coord_t lv_obj_get_style_line_dash_width(const struct _lv_obj_t * obj, uint32_t pa
 362:Middlewares/LVGL/GUI/lvgl/src/extra/layouts/grid/../flex/../../../core/lv_obj_style_gen.h **** {
 363:Middlewares/LVGL/GUI/lvgl/src/extra/layouts/grid/../flex/../../../core/lv_obj_style_gen.h ****     lv_style_value_t v = lv_obj_get_style_prop(obj, part, LV_STYLE_LINE_DASH_WIDTH);
 364:Middlewares/LVGL/GUI/lvgl/src/extra/layouts/grid/../flex/../../../core/lv_obj_style_gen.h ****     return (lv_coord_t)v.num;
 365:Middlewares/LVGL/GUI/lvgl/src/extra/layouts/grid/../flex/../../../core/lv_obj_style_gen.h **** }
 366:Middlewares/LVGL/GUI/lvgl/src/extra/layouts/grid/../flex/../../../core/lv_obj_style_gen.h **** 
ARM GAS  C:\Users\ADMINI~1\AppData\Local\Temp\cc6Bhsgy.s 			page 38


 367:Middlewares/LVGL/GUI/lvgl/src/extra/layouts/grid/../flex/../../../core/lv_obj_style_gen.h **** static inline lv_coord_t lv_obj_get_style_line_dash_gap(const struct _lv_obj_t * obj, uint32_t part
 368:Middlewares/LVGL/GUI/lvgl/src/extra/layouts/grid/../flex/../../../core/lv_obj_style_gen.h **** {
 369:Middlewares/LVGL/GUI/lvgl/src/extra/layouts/grid/../flex/../../../core/lv_obj_style_gen.h ****     lv_style_value_t v = lv_obj_get_style_prop(obj, part, LV_STYLE_LINE_DASH_GAP);
 370:Middlewares/LVGL/GUI/lvgl/src/extra/layouts/grid/../flex/../../../core/lv_obj_style_gen.h ****     return (lv_coord_t)v.num;
 371:Middlewares/LVGL/GUI/lvgl/src/extra/layouts/grid/../flex/../../../core/lv_obj_style_gen.h **** }
 372:Middlewares/LVGL/GUI/lvgl/src/extra/layouts/grid/../flex/../../../core/lv_obj_style_gen.h **** 
 373:Middlewares/LVGL/GUI/lvgl/src/extra/layouts/grid/../flex/../../../core/lv_obj_style_gen.h **** static inline bool lv_obj_get_style_line_rounded(const struct _lv_obj_t * obj, uint32_t part)
 374:Middlewares/LVGL/GUI/lvgl/src/extra/layouts/grid/../flex/../../../core/lv_obj_style_gen.h **** {
 375:Middlewares/LVGL/GUI/lvgl/src/extra/layouts/grid/../flex/../../../core/lv_obj_style_gen.h ****     lv_style_value_t v = lv_obj_get_style_prop(obj, part, LV_STYLE_LINE_ROUNDED);
 376:Middlewares/LVGL/GUI/lvgl/src/extra/layouts/grid/../flex/../../../core/lv_obj_style_gen.h ****     return (bool)v.num;
 377:Middlewares/LVGL/GUI/lvgl/src/extra/layouts/grid/../flex/../../../core/lv_obj_style_gen.h **** }
 378:Middlewares/LVGL/GUI/lvgl/src/extra/layouts/grid/../flex/../../../core/lv_obj_style_gen.h **** 
 379:Middlewares/LVGL/GUI/lvgl/src/extra/layouts/grid/../flex/../../../core/lv_obj_style_gen.h **** static inline lv_color_t lv_obj_get_style_line_color(const struct _lv_obj_t * obj, uint32_t part)
 380:Middlewares/LVGL/GUI/lvgl/src/extra/layouts/grid/../flex/../../../core/lv_obj_style_gen.h **** {
 381:Middlewares/LVGL/GUI/lvgl/src/extra/layouts/grid/../flex/../../../core/lv_obj_style_gen.h ****     lv_style_value_t v = lv_obj_get_style_prop(obj, part, LV_STYLE_LINE_COLOR);
 382:Middlewares/LVGL/GUI/lvgl/src/extra/layouts/grid/../flex/../../../core/lv_obj_style_gen.h ****     return v.color;
 383:Middlewares/LVGL/GUI/lvgl/src/extra/layouts/grid/../flex/../../../core/lv_obj_style_gen.h **** }
 384:Middlewares/LVGL/GUI/lvgl/src/extra/layouts/grid/../flex/../../../core/lv_obj_style_gen.h **** 
 385:Middlewares/LVGL/GUI/lvgl/src/extra/layouts/grid/../flex/../../../core/lv_obj_style_gen.h **** static inline lv_color_t lv_obj_get_style_line_color_filtered(const struct _lv_obj_t * obj, uint32_
 386:Middlewares/LVGL/GUI/lvgl/src/extra/layouts/grid/../flex/../../../core/lv_obj_style_gen.h **** {
 387:Middlewares/LVGL/GUI/lvgl/src/extra/layouts/grid/../flex/../../../core/lv_obj_style_gen.h ****     lv_style_value_t v = lv_obj_get_style_prop(obj, part, LV_STYLE_LINE_COLOR_FILTERED);
 388:Middlewares/LVGL/GUI/lvgl/src/extra/layouts/grid/../flex/../../../core/lv_obj_style_gen.h ****     return v.color;
 389:Middlewares/LVGL/GUI/lvgl/src/extra/layouts/grid/../flex/../../../core/lv_obj_style_gen.h **** }
 390:Middlewares/LVGL/GUI/lvgl/src/extra/layouts/grid/../flex/../../../core/lv_obj_style_gen.h **** 
 391:Middlewares/LVGL/GUI/lvgl/src/extra/layouts/grid/../flex/../../../core/lv_obj_style_gen.h **** static inline lv_opa_t lv_obj_get_style_line_opa(const struct _lv_obj_t * obj, uint32_t part)
 392:Middlewares/LVGL/GUI/lvgl/src/extra/layouts/grid/../flex/../../../core/lv_obj_style_gen.h **** {
 393:Middlewares/LVGL/GUI/lvgl/src/extra/layouts/grid/../flex/../../../core/lv_obj_style_gen.h ****     lv_style_value_t v = lv_obj_get_style_prop(obj, part, LV_STYLE_LINE_OPA);
 394:Middlewares/LVGL/GUI/lvgl/src/extra/layouts/grid/../flex/../../../core/lv_obj_style_gen.h ****     return (lv_opa_t)v.num;
 395:Middlewares/LVGL/GUI/lvgl/src/extra/layouts/grid/../flex/../../../core/lv_obj_style_gen.h **** }
 396:Middlewares/LVGL/GUI/lvgl/src/extra/layouts/grid/../flex/../../../core/lv_obj_style_gen.h **** 
 397:Middlewares/LVGL/GUI/lvgl/src/extra/layouts/grid/../flex/../../../core/lv_obj_style_gen.h **** static inline lv_coord_t lv_obj_get_style_arc_width(const struct _lv_obj_t * obj, uint32_t part)
 398:Middlewares/LVGL/GUI/lvgl/src/extra/layouts/grid/../flex/../../../core/lv_obj_style_gen.h **** {
 399:Middlewares/LVGL/GUI/lvgl/src/extra/layouts/grid/../flex/../../../core/lv_obj_style_gen.h ****     lv_style_value_t v = lv_obj_get_style_prop(obj, part, LV_STYLE_ARC_WIDTH);
 400:Middlewares/LVGL/GUI/lvgl/src/extra/layouts/grid/../flex/../../../core/lv_obj_style_gen.h ****     return (lv_coord_t)v.num;
 401:Middlewares/LVGL/GUI/lvgl/src/extra/layouts/grid/../flex/../../../core/lv_obj_style_gen.h **** }
 402:Middlewares/LVGL/GUI/lvgl/src/extra/layouts/grid/../flex/../../../core/lv_obj_style_gen.h **** 
 403:Middlewares/LVGL/GUI/lvgl/src/extra/layouts/grid/../flex/../../../core/lv_obj_style_gen.h **** static inline bool lv_obj_get_style_arc_rounded(const struct _lv_obj_t * obj, uint32_t part)
 404:Middlewares/LVGL/GUI/lvgl/src/extra/layouts/grid/../flex/../../../core/lv_obj_style_gen.h **** {
 405:Middlewares/LVGL/GUI/lvgl/src/extra/layouts/grid/../flex/../../../core/lv_obj_style_gen.h ****     lv_style_value_t v = lv_obj_get_style_prop(obj, part, LV_STYLE_ARC_ROUNDED);
 406:Middlewares/LVGL/GUI/lvgl/src/extra/layouts/grid/../flex/../../../core/lv_obj_style_gen.h ****     return (bool)v.num;
 407:Middlewares/LVGL/GUI/lvgl/src/extra/layouts/grid/../flex/../../../core/lv_obj_style_gen.h **** }
 408:Middlewares/LVGL/GUI/lvgl/src/extra/layouts/grid/../flex/../../../core/lv_obj_style_gen.h **** 
 409:Middlewares/LVGL/GUI/lvgl/src/extra/layouts/grid/../flex/../../../core/lv_obj_style_gen.h **** static inline lv_color_t lv_obj_get_style_arc_color(const struct _lv_obj_t * obj, uint32_t part)
 410:Middlewares/LVGL/GUI/lvgl/src/extra/layouts/grid/../flex/../../../core/lv_obj_style_gen.h **** {
 411:Middlewares/LVGL/GUI/lvgl/src/extra/layouts/grid/../flex/../../../core/lv_obj_style_gen.h ****     lv_style_value_t v = lv_obj_get_style_prop(obj, part, LV_STYLE_ARC_COLOR);
 412:Middlewares/LVGL/GUI/lvgl/src/extra/layouts/grid/../flex/../../../core/lv_obj_style_gen.h ****     return v.color;
 413:Middlewares/LVGL/GUI/lvgl/src/extra/layouts/grid/../flex/../../../core/lv_obj_style_gen.h **** }
 414:Middlewares/LVGL/GUI/lvgl/src/extra/layouts/grid/../flex/../../../core/lv_obj_style_gen.h **** 
 415:Middlewares/LVGL/GUI/lvgl/src/extra/layouts/grid/../flex/../../../core/lv_obj_style_gen.h **** static inline lv_color_t lv_obj_get_style_arc_color_filtered(const struct _lv_obj_t * obj, uint32_t
 416:Middlewares/LVGL/GUI/lvgl/src/extra/layouts/grid/../flex/../../../core/lv_obj_style_gen.h **** {
 417:Middlewares/LVGL/GUI/lvgl/src/extra/layouts/grid/../flex/../../../core/lv_obj_style_gen.h ****     lv_style_value_t v = lv_obj_get_style_prop(obj, part, LV_STYLE_ARC_COLOR_FILTERED);
 418:Middlewares/LVGL/GUI/lvgl/src/extra/layouts/grid/../flex/../../../core/lv_obj_style_gen.h ****     return v.color;
 419:Middlewares/LVGL/GUI/lvgl/src/extra/layouts/grid/../flex/../../../core/lv_obj_style_gen.h **** }
 420:Middlewares/LVGL/GUI/lvgl/src/extra/layouts/grid/../flex/../../../core/lv_obj_style_gen.h **** 
 421:Middlewares/LVGL/GUI/lvgl/src/extra/layouts/grid/../flex/../../../core/lv_obj_style_gen.h **** static inline lv_opa_t lv_obj_get_style_arc_opa(const struct _lv_obj_t * obj, uint32_t part)
 422:Middlewares/LVGL/GUI/lvgl/src/extra/layouts/grid/../flex/../../../core/lv_obj_style_gen.h **** {
 423:Middlewares/LVGL/GUI/lvgl/src/extra/layouts/grid/../flex/../../../core/lv_obj_style_gen.h ****     lv_style_value_t v = lv_obj_get_style_prop(obj, part, LV_STYLE_ARC_OPA);
ARM GAS  C:\Users\ADMINI~1\AppData\Local\Temp\cc6Bhsgy.s 			page 39


 424:Middlewares/LVGL/GUI/lvgl/src/extra/layouts/grid/../flex/../../../core/lv_obj_style_gen.h ****     return (lv_opa_t)v.num;
 425:Middlewares/LVGL/GUI/lvgl/src/extra/layouts/grid/../flex/../../../core/lv_obj_style_gen.h **** }
 426:Middlewares/LVGL/GUI/lvgl/src/extra/layouts/grid/../flex/../../../core/lv_obj_style_gen.h **** 
 427:Middlewares/LVGL/GUI/lvgl/src/extra/layouts/grid/../flex/../../../core/lv_obj_style_gen.h **** static inline const void * lv_obj_get_style_arc_img_src(const struct _lv_obj_t * obj, uint32_t part
 428:Middlewares/LVGL/GUI/lvgl/src/extra/layouts/grid/../flex/../../../core/lv_obj_style_gen.h **** {
 429:Middlewares/LVGL/GUI/lvgl/src/extra/layouts/grid/../flex/../../../core/lv_obj_style_gen.h ****     lv_style_value_t v = lv_obj_get_style_prop(obj, part, LV_STYLE_ARC_IMG_SRC);
 430:Middlewares/LVGL/GUI/lvgl/src/extra/layouts/grid/../flex/../../../core/lv_obj_style_gen.h ****     return (const void *)v.ptr;
 431:Middlewares/LVGL/GUI/lvgl/src/extra/layouts/grid/../flex/../../../core/lv_obj_style_gen.h **** }
 432:Middlewares/LVGL/GUI/lvgl/src/extra/layouts/grid/../flex/../../../core/lv_obj_style_gen.h **** 
 433:Middlewares/LVGL/GUI/lvgl/src/extra/layouts/grid/../flex/../../../core/lv_obj_style_gen.h **** static inline lv_color_t lv_obj_get_style_text_color(const struct _lv_obj_t * obj, uint32_t part)
 434:Middlewares/LVGL/GUI/lvgl/src/extra/layouts/grid/../flex/../../../core/lv_obj_style_gen.h **** {
 435:Middlewares/LVGL/GUI/lvgl/src/extra/layouts/grid/../flex/../../../core/lv_obj_style_gen.h ****     lv_style_value_t v = lv_obj_get_style_prop(obj, part, LV_STYLE_TEXT_COLOR);
 436:Middlewares/LVGL/GUI/lvgl/src/extra/layouts/grid/../flex/../../../core/lv_obj_style_gen.h ****     return v.color;
 437:Middlewares/LVGL/GUI/lvgl/src/extra/layouts/grid/../flex/../../../core/lv_obj_style_gen.h **** }
 438:Middlewares/LVGL/GUI/lvgl/src/extra/layouts/grid/../flex/../../../core/lv_obj_style_gen.h **** 
 439:Middlewares/LVGL/GUI/lvgl/src/extra/layouts/grid/../flex/../../../core/lv_obj_style_gen.h **** static inline lv_color_t lv_obj_get_style_text_color_filtered(const struct _lv_obj_t * obj, uint32_
 440:Middlewares/LVGL/GUI/lvgl/src/extra/layouts/grid/../flex/../../../core/lv_obj_style_gen.h **** {
 441:Middlewares/LVGL/GUI/lvgl/src/extra/layouts/grid/../flex/../../../core/lv_obj_style_gen.h ****     lv_style_value_t v = lv_obj_get_style_prop(obj, part, LV_STYLE_TEXT_COLOR_FILTERED);
 442:Middlewares/LVGL/GUI/lvgl/src/extra/layouts/grid/../flex/../../../core/lv_obj_style_gen.h ****     return v.color;
 443:Middlewares/LVGL/GUI/lvgl/src/extra/layouts/grid/../flex/../../../core/lv_obj_style_gen.h **** }
 444:Middlewares/LVGL/GUI/lvgl/src/extra/layouts/grid/../flex/../../../core/lv_obj_style_gen.h **** 
 445:Middlewares/LVGL/GUI/lvgl/src/extra/layouts/grid/../flex/../../../core/lv_obj_style_gen.h **** static inline lv_opa_t lv_obj_get_style_text_opa(const struct _lv_obj_t * obj, uint32_t part)
 446:Middlewares/LVGL/GUI/lvgl/src/extra/layouts/grid/../flex/../../../core/lv_obj_style_gen.h **** {
 447:Middlewares/LVGL/GUI/lvgl/src/extra/layouts/grid/../flex/../../../core/lv_obj_style_gen.h ****     lv_style_value_t v = lv_obj_get_style_prop(obj, part, LV_STYLE_TEXT_OPA);
 448:Middlewares/LVGL/GUI/lvgl/src/extra/layouts/grid/../flex/../../../core/lv_obj_style_gen.h ****     return (lv_opa_t)v.num;
 449:Middlewares/LVGL/GUI/lvgl/src/extra/layouts/grid/../flex/../../../core/lv_obj_style_gen.h **** }
 450:Middlewares/LVGL/GUI/lvgl/src/extra/layouts/grid/../flex/../../../core/lv_obj_style_gen.h **** 
 451:Middlewares/LVGL/GUI/lvgl/src/extra/layouts/grid/../flex/../../../core/lv_obj_style_gen.h **** static inline const lv_font_t * lv_obj_get_style_text_font(const struct _lv_obj_t * obj, uint32_t p
 452:Middlewares/LVGL/GUI/lvgl/src/extra/layouts/grid/../flex/../../../core/lv_obj_style_gen.h **** {
 453:Middlewares/LVGL/GUI/lvgl/src/extra/layouts/grid/../flex/../../../core/lv_obj_style_gen.h ****     lv_style_value_t v = lv_obj_get_style_prop(obj, part, LV_STYLE_TEXT_FONT);
 454:Middlewares/LVGL/GUI/lvgl/src/extra/layouts/grid/../flex/../../../core/lv_obj_style_gen.h ****     return (const lv_font_t *)v.ptr;
 455:Middlewares/LVGL/GUI/lvgl/src/extra/layouts/grid/../flex/../../../core/lv_obj_style_gen.h **** }
 456:Middlewares/LVGL/GUI/lvgl/src/extra/layouts/grid/../flex/../../../core/lv_obj_style_gen.h **** 
 457:Middlewares/LVGL/GUI/lvgl/src/extra/layouts/grid/../flex/../../../core/lv_obj_style_gen.h **** static inline lv_coord_t lv_obj_get_style_text_letter_space(const struct _lv_obj_t * obj, uint32_t 
 458:Middlewares/LVGL/GUI/lvgl/src/extra/layouts/grid/../flex/../../../core/lv_obj_style_gen.h **** {
 459:Middlewares/LVGL/GUI/lvgl/src/extra/layouts/grid/../flex/../../../core/lv_obj_style_gen.h ****     lv_style_value_t v = lv_obj_get_style_prop(obj, part, LV_STYLE_TEXT_LETTER_SPACE);
 460:Middlewares/LVGL/GUI/lvgl/src/extra/layouts/grid/../flex/../../../core/lv_obj_style_gen.h ****     return (lv_coord_t)v.num;
 461:Middlewares/LVGL/GUI/lvgl/src/extra/layouts/grid/../flex/../../../core/lv_obj_style_gen.h **** }
 462:Middlewares/LVGL/GUI/lvgl/src/extra/layouts/grid/../flex/../../../core/lv_obj_style_gen.h **** 
 463:Middlewares/LVGL/GUI/lvgl/src/extra/layouts/grid/../flex/../../../core/lv_obj_style_gen.h **** static inline lv_coord_t lv_obj_get_style_text_line_space(const struct _lv_obj_t * obj, uint32_t pa
 464:Middlewares/LVGL/GUI/lvgl/src/extra/layouts/grid/../flex/../../../core/lv_obj_style_gen.h **** {
 465:Middlewares/LVGL/GUI/lvgl/src/extra/layouts/grid/../flex/../../../core/lv_obj_style_gen.h ****     lv_style_value_t v = lv_obj_get_style_prop(obj, part, LV_STYLE_TEXT_LINE_SPACE);
 466:Middlewares/LVGL/GUI/lvgl/src/extra/layouts/grid/../flex/../../../core/lv_obj_style_gen.h ****     return (lv_coord_t)v.num;
 467:Middlewares/LVGL/GUI/lvgl/src/extra/layouts/grid/../flex/../../../core/lv_obj_style_gen.h **** }
 468:Middlewares/LVGL/GUI/lvgl/src/extra/layouts/grid/../flex/../../../core/lv_obj_style_gen.h **** 
 469:Middlewares/LVGL/GUI/lvgl/src/extra/layouts/grid/../flex/../../../core/lv_obj_style_gen.h **** static inline lv_text_decor_t lv_obj_get_style_text_decor(const struct _lv_obj_t * obj, uint32_t pa
 470:Middlewares/LVGL/GUI/lvgl/src/extra/layouts/grid/../flex/../../../core/lv_obj_style_gen.h **** {
 471:Middlewares/LVGL/GUI/lvgl/src/extra/layouts/grid/../flex/../../../core/lv_obj_style_gen.h ****     lv_style_value_t v = lv_obj_get_style_prop(obj, part, LV_STYLE_TEXT_DECOR);
 472:Middlewares/LVGL/GUI/lvgl/src/extra/layouts/grid/../flex/../../../core/lv_obj_style_gen.h ****     return (lv_text_decor_t)v.num;
 473:Middlewares/LVGL/GUI/lvgl/src/extra/layouts/grid/../flex/../../../core/lv_obj_style_gen.h **** }
 474:Middlewares/LVGL/GUI/lvgl/src/extra/layouts/grid/../flex/../../../core/lv_obj_style_gen.h **** 
 475:Middlewares/LVGL/GUI/lvgl/src/extra/layouts/grid/../flex/../../../core/lv_obj_style_gen.h **** static inline lv_text_align_t lv_obj_get_style_text_align(const struct _lv_obj_t * obj, uint32_t pa
 476:Middlewares/LVGL/GUI/lvgl/src/extra/layouts/grid/../flex/../../../core/lv_obj_style_gen.h **** {
 477:Middlewares/LVGL/GUI/lvgl/src/extra/layouts/grid/../flex/../../../core/lv_obj_style_gen.h ****     lv_style_value_t v = lv_obj_get_style_prop(obj, part, LV_STYLE_TEXT_ALIGN);
 478:Middlewares/LVGL/GUI/lvgl/src/extra/layouts/grid/../flex/../../../core/lv_obj_style_gen.h ****     return (lv_text_align_t)v.num;
 479:Middlewares/LVGL/GUI/lvgl/src/extra/layouts/grid/../flex/../../../core/lv_obj_style_gen.h **** }
 480:Middlewares/LVGL/GUI/lvgl/src/extra/layouts/grid/../flex/../../../core/lv_obj_style_gen.h **** 
ARM GAS  C:\Users\ADMINI~1\AppData\Local\Temp\cc6Bhsgy.s 			page 40


 481:Middlewares/LVGL/GUI/lvgl/src/extra/layouts/grid/../flex/../../../core/lv_obj_style_gen.h **** static inline lv_coord_t lv_obj_get_style_radius(const struct _lv_obj_t * obj, uint32_t part)
 482:Middlewares/LVGL/GUI/lvgl/src/extra/layouts/grid/../flex/../../../core/lv_obj_style_gen.h **** {
 483:Middlewares/LVGL/GUI/lvgl/src/extra/layouts/grid/../flex/../../../core/lv_obj_style_gen.h ****     lv_style_value_t v = lv_obj_get_style_prop(obj, part, LV_STYLE_RADIUS);
 484:Middlewares/LVGL/GUI/lvgl/src/extra/layouts/grid/../flex/../../../core/lv_obj_style_gen.h ****     return (lv_coord_t)v.num;
 485:Middlewares/LVGL/GUI/lvgl/src/extra/layouts/grid/../flex/../../../core/lv_obj_style_gen.h **** }
 486:Middlewares/LVGL/GUI/lvgl/src/extra/layouts/grid/../flex/../../../core/lv_obj_style_gen.h **** 
 487:Middlewares/LVGL/GUI/lvgl/src/extra/layouts/grid/../flex/../../../core/lv_obj_style_gen.h **** static inline bool lv_obj_get_style_clip_corner(const struct _lv_obj_t * obj, uint32_t part)
 488:Middlewares/LVGL/GUI/lvgl/src/extra/layouts/grid/../flex/../../../core/lv_obj_style_gen.h **** {
 489:Middlewares/LVGL/GUI/lvgl/src/extra/layouts/grid/../flex/../../../core/lv_obj_style_gen.h ****     lv_style_value_t v = lv_obj_get_style_prop(obj, part, LV_STYLE_CLIP_CORNER);
 490:Middlewares/LVGL/GUI/lvgl/src/extra/layouts/grid/../flex/../../../core/lv_obj_style_gen.h ****     return (bool)v.num;
 491:Middlewares/LVGL/GUI/lvgl/src/extra/layouts/grid/../flex/../../../core/lv_obj_style_gen.h **** }
 492:Middlewares/LVGL/GUI/lvgl/src/extra/layouts/grid/../flex/../../../core/lv_obj_style_gen.h **** 
 493:Middlewares/LVGL/GUI/lvgl/src/extra/layouts/grid/../flex/../../../core/lv_obj_style_gen.h **** static inline lv_opa_t lv_obj_get_style_opa(const struct _lv_obj_t * obj, uint32_t part)
 494:Middlewares/LVGL/GUI/lvgl/src/extra/layouts/grid/../flex/../../../core/lv_obj_style_gen.h **** {
 495:Middlewares/LVGL/GUI/lvgl/src/extra/layouts/grid/../flex/../../../core/lv_obj_style_gen.h ****     lv_style_value_t v = lv_obj_get_style_prop(obj, part, LV_STYLE_OPA);
 496:Middlewares/LVGL/GUI/lvgl/src/extra/layouts/grid/../flex/../../../core/lv_obj_style_gen.h ****     return (lv_opa_t)v.num;
 497:Middlewares/LVGL/GUI/lvgl/src/extra/layouts/grid/../flex/../../../core/lv_obj_style_gen.h **** }
 498:Middlewares/LVGL/GUI/lvgl/src/extra/layouts/grid/../flex/../../../core/lv_obj_style_gen.h **** 
 499:Middlewares/LVGL/GUI/lvgl/src/extra/layouts/grid/../flex/../../../core/lv_obj_style_gen.h **** static inline const lv_color_filter_dsc_t * lv_obj_get_style_color_filter_dsc(const struct _lv_obj_
 500:Middlewares/LVGL/GUI/lvgl/src/extra/layouts/grid/../flex/../../../core/lv_obj_style_gen.h ****                                                                               uint32_t part)
 501:Middlewares/LVGL/GUI/lvgl/src/extra/layouts/grid/../flex/../../../core/lv_obj_style_gen.h **** {
 502:Middlewares/LVGL/GUI/lvgl/src/extra/layouts/grid/../flex/../../../core/lv_obj_style_gen.h ****     lv_style_value_t v = lv_obj_get_style_prop(obj, part, LV_STYLE_COLOR_FILTER_DSC);
 503:Middlewares/LVGL/GUI/lvgl/src/extra/layouts/grid/../flex/../../../core/lv_obj_style_gen.h ****     return (const lv_color_filter_dsc_t *)v.ptr;
 504:Middlewares/LVGL/GUI/lvgl/src/extra/layouts/grid/../flex/../../../core/lv_obj_style_gen.h **** }
 505:Middlewares/LVGL/GUI/lvgl/src/extra/layouts/grid/../flex/../../../core/lv_obj_style_gen.h **** 
 506:Middlewares/LVGL/GUI/lvgl/src/extra/layouts/grid/../flex/../../../core/lv_obj_style_gen.h **** static inline lv_opa_t lv_obj_get_style_color_filter_opa(const struct _lv_obj_t * obj, uint32_t par
 507:Middlewares/LVGL/GUI/lvgl/src/extra/layouts/grid/../flex/../../../core/lv_obj_style_gen.h **** {
 508:Middlewares/LVGL/GUI/lvgl/src/extra/layouts/grid/../flex/../../../core/lv_obj_style_gen.h ****     lv_style_value_t v = lv_obj_get_style_prop(obj, part, LV_STYLE_COLOR_FILTER_OPA);
 509:Middlewares/LVGL/GUI/lvgl/src/extra/layouts/grid/../flex/../../../core/lv_obj_style_gen.h ****     return (lv_opa_t)v.num;
 510:Middlewares/LVGL/GUI/lvgl/src/extra/layouts/grid/../flex/../../../core/lv_obj_style_gen.h **** }
 511:Middlewares/LVGL/GUI/lvgl/src/extra/layouts/grid/../flex/../../../core/lv_obj_style_gen.h **** 
 512:Middlewares/LVGL/GUI/lvgl/src/extra/layouts/grid/../flex/../../../core/lv_obj_style_gen.h **** static inline uint32_t lv_obj_get_style_anim_time(const struct _lv_obj_t * obj, uint32_t part)
 513:Middlewares/LVGL/GUI/lvgl/src/extra/layouts/grid/../flex/../../../core/lv_obj_style_gen.h **** {
 514:Middlewares/LVGL/GUI/lvgl/src/extra/layouts/grid/../flex/../../../core/lv_obj_style_gen.h ****     lv_style_value_t v = lv_obj_get_style_prop(obj, part, LV_STYLE_ANIM_TIME);
 515:Middlewares/LVGL/GUI/lvgl/src/extra/layouts/grid/../flex/../../../core/lv_obj_style_gen.h ****     return (uint32_t)v.num;
 516:Middlewares/LVGL/GUI/lvgl/src/extra/layouts/grid/../flex/../../../core/lv_obj_style_gen.h **** }
 517:Middlewares/LVGL/GUI/lvgl/src/extra/layouts/grid/../flex/../../../core/lv_obj_style_gen.h **** 
 518:Middlewares/LVGL/GUI/lvgl/src/extra/layouts/grid/../flex/../../../core/lv_obj_style_gen.h **** static inline uint32_t lv_obj_get_style_anim_speed(const struct _lv_obj_t * obj, uint32_t part)
 519:Middlewares/LVGL/GUI/lvgl/src/extra/layouts/grid/../flex/../../../core/lv_obj_style_gen.h **** {
 520:Middlewares/LVGL/GUI/lvgl/src/extra/layouts/grid/../flex/../../../core/lv_obj_style_gen.h ****     lv_style_value_t v = lv_obj_get_style_prop(obj, part, LV_STYLE_ANIM_SPEED);
 521:Middlewares/LVGL/GUI/lvgl/src/extra/layouts/grid/../flex/../../../core/lv_obj_style_gen.h ****     return (uint32_t)v.num;
 522:Middlewares/LVGL/GUI/lvgl/src/extra/layouts/grid/../flex/../../../core/lv_obj_style_gen.h **** }
 523:Middlewares/LVGL/GUI/lvgl/src/extra/layouts/grid/../flex/../../../core/lv_obj_style_gen.h **** 
 524:Middlewares/LVGL/GUI/lvgl/src/extra/layouts/grid/../flex/../../../core/lv_obj_style_gen.h **** static inline const lv_style_transition_dsc_t * lv_obj_get_style_transition(const struct _lv_obj_t 
 525:Middlewares/LVGL/GUI/lvgl/src/extra/layouts/grid/../flex/../../../core/lv_obj_style_gen.h **** {
 526:Middlewares/LVGL/GUI/lvgl/src/extra/layouts/grid/../flex/../../../core/lv_obj_style_gen.h ****     lv_style_value_t v = lv_obj_get_style_prop(obj, part, LV_STYLE_TRANSITION);
 527:Middlewares/LVGL/GUI/lvgl/src/extra/layouts/grid/../flex/../../../core/lv_obj_style_gen.h ****     return (const lv_style_transition_dsc_t *)v.ptr;
 528:Middlewares/LVGL/GUI/lvgl/src/extra/layouts/grid/../flex/../../../core/lv_obj_style_gen.h **** }
 529:Middlewares/LVGL/GUI/lvgl/src/extra/layouts/grid/../flex/../../../core/lv_obj_style_gen.h **** 
 530:Middlewares/LVGL/GUI/lvgl/src/extra/layouts/grid/../flex/../../../core/lv_obj_style_gen.h **** static inline lv_blend_mode_t lv_obj_get_style_blend_mode(const struct _lv_obj_t * obj, uint32_t pa
 531:Middlewares/LVGL/GUI/lvgl/src/extra/layouts/grid/../flex/../../../core/lv_obj_style_gen.h **** {
 532:Middlewares/LVGL/GUI/lvgl/src/extra/layouts/grid/../flex/../../../core/lv_obj_style_gen.h ****     lv_style_value_t v = lv_obj_get_style_prop(obj, part, LV_STYLE_BLEND_MODE);
 533:Middlewares/LVGL/GUI/lvgl/src/extra/layouts/grid/../flex/../../../core/lv_obj_style_gen.h ****     return (lv_blend_mode_t)v.num;
 534:Middlewares/LVGL/GUI/lvgl/src/extra/layouts/grid/../flex/../../../core/lv_obj_style_gen.h **** }
 535:Middlewares/LVGL/GUI/lvgl/src/extra/layouts/grid/../flex/../../../core/lv_obj_style_gen.h **** 
 536:Middlewares/LVGL/GUI/lvgl/src/extra/layouts/grid/../flex/../../../core/lv_obj_style_gen.h **** static inline uint16_t lv_obj_get_style_layout(const struct _lv_obj_t * obj, uint32_t part)
 537:Middlewares/LVGL/GUI/lvgl/src/extra/layouts/grid/../flex/../../../core/lv_obj_style_gen.h **** {
ARM GAS  C:\Users\ADMINI~1\AppData\Local\Temp\cc6Bhsgy.s 			page 41


 538:Middlewares/LVGL/GUI/lvgl/src/extra/layouts/grid/../flex/../../../core/lv_obj_style_gen.h ****     lv_style_value_t v = lv_obj_get_style_prop(obj, part, LV_STYLE_LAYOUT);
 539:Middlewares/LVGL/GUI/lvgl/src/extra/layouts/grid/../flex/../../../core/lv_obj_style_gen.h ****     return (uint16_t)v.num;
 540:Middlewares/LVGL/GUI/lvgl/src/extra/layouts/grid/../flex/../../../core/lv_obj_style_gen.h **** }
 541:Middlewares/LVGL/GUI/lvgl/src/extra/layouts/grid/../flex/../../../core/lv_obj_style_gen.h **** 
 542:Middlewares/LVGL/GUI/lvgl/src/extra/layouts/grid/../flex/../../../core/lv_obj_style_gen.h **** static inline lv_base_dir_t lv_obj_get_style_base_dir(const struct _lv_obj_t * obj, uint32_t part)
 642              		.loc 3 542 29 view .LVU215
 643              	.LBB134:
 543:Middlewares/LVGL/GUI/lvgl/src/extra/layouts/grid/../flex/../../../core/lv_obj_style_gen.h **** {
 544:Middlewares/LVGL/GUI/lvgl/src/extra/layouts/grid/../flex/../../../core/lv_obj_style_gen.h ****     lv_style_value_t v = lv_obj_get_style_prop(obj, part, LV_STYLE_BASE_DIR);
 644              		.loc 3 544 5 view .LVU216
 645              		.loc 3 544 26 is_stmt 0 view .LVU217
 646 00b6 41F26A42 		movw	r2, #5226
 647              	.LVL76:
 648              		.loc 3 544 26 view .LVU218
 649 00ba 0021     		movs	r1, #0
 650              	.LVL77:
 651              		.loc 3 544 26 view .LVU219
 652 00bc 2046     		mov	r0, r4
 653              	.LVL78:
 654              		.loc 3 544 26 view .LVU220
 655 00be FFF7FEFF 		bl	lv_obj_get_style_prop
 656              	.LVL79:
 545:Middlewares/LVGL/GUI/lvgl/src/extra/layouts/grid/../flex/../../../core/lv_obj_style_gen.h ****     return (lv_base_dir_t)v.num;
 657              		.loc 3 545 5 is_stmt 1 view .LVU221
 658              		.loc 3 545 12 is_stmt 0 view .LVU222
 659 00c2 C0B2     		uxtb	r0, r0
 660              	.LVL80:
 661              		.loc 3 545 12 view .LVU223
 662              	.LBE134:
 663              	.LBE133:
 603:Middlewares/LVGL/GUI/lvgl/src/extra/layouts/grid/lv_grid.c ****         if(col_align == LV_GRID_ALIGN_START) col_align = LV_GRID_ALIGN_END;
 664              		.loc 1 603 7 view .LVU224
 665 00c4 0128     		cmp	r0, #1
 666 00c6 00F0A580 		beq	.L48
 667              	.LVL81:
 668              	.L28:
 608:Middlewares/LVGL/GUI/lvgl/src/extra/layouts/grid/lv_grid.c ****     lv_coord_t y;
 669              		.loc 1 608 5 is_stmt 1 view .LVU225
 609:Middlewares/LVGL/GUI/lvgl/src/extra/layouts/grid/lv_grid.c ****     lv_coord_t item_w = lv_area_get_width(&item->coords);
 670              		.loc 1 609 5 view .LVU226
 610:Middlewares/LVGL/GUI/lvgl/src/extra/layouts/grid/lv_grid.c ****     lv_coord_t item_h = lv_area_get_height(&item->coords);
 671              		.loc 1 610 5 view .LVU227
 672              	.LBB135:
 673              	.LBI135:
 674              		.file 4 "Middlewares/LVGL/GUI/lvgl/src/extra/layouts/grid/../flex/../../../core/../misc/../font/..
   1:Middlewares/LVGL/GUI/lvgl/src/extra/layouts/grid/../flex/../../../core/../misc/../font/../misc/lv_area.h **** /**
   2:Middlewares/LVGL/GUI/lvgl/src/extra/layouts/grid/../flex/../../../core/../misc/../font/../misc/lv_area.h ****  * @file lv_area.h
   3:Middlewares/LVGL/GUI/lvgl/src/extra/layouts/grid/../flex/../../../core/../misc/../font/../misc/lv_area.h ****  *
   4:Middlewares/LVGL/GUI/lvgl/src/extra/layouts/grid/../flex/../../../core/../misc/../font/../misc/lv_area.h ****  */
   5:Middlewares/LVGL/GUI/lvgl/src/extra/layouts/grid/../flex/../../../core/../misc/../font/../misc/lv_area.h **** 
   6:Middlewares/LVGL/GUI/lvgl/src/extra/layouts/grid/../flex/../../../core/../misc/../font/../misc/lv_area.h **** #ifndef LV_AREA_H
   7:Middlewares/LVGL/GUI/lvgl/src/extra/layouts/grid/../flex/../../../core/../misc/../font/../misc/lv_area.h **** #define LV_AREA_H
   8:Middlewares/LVGL/GUI/lvgl/src/extra/layouts/grid/../flex/../../../core/../misc/../font/../misc/lv_area.h **** 
   9:Middlewares/LVGL/GUI/lvgl/src/extra/layouts/grid/../flex/../../../core/../misc/../font/../misc/lv_area.h **** #ifdef __cplusplus
  10:Middlewares/LVGL/GUI/lvgl/src/extra/layouts/grid/../flex/../../../core/../misc/../font/../misc/lv_area.h **** extern "C" {
  11:Middlewares/LVGL/GUI/lvgl/src/extra/layouts/grid/../flex/../../../core/../misc/../font/../misc/lv_area.h **** #endif
  12:Middlewares/LVGL/GUI/lvgl/src/extra/layouts/grid/../flex/../../../core/../misc/../font/../misc/lv_area.h **** 
ARM GAS  C:\Users\ADMINI~1\AppData\Local\Temp\cc6Bhsgy.s 			page 42


  13:Middlewares/LVGL/GUI/lvgl/src/extra/layouts/grid/../flex/../../../core/../misc/../font/../misc/lv_area.h **** /*********************
  14:Middlewares/LVGL/GUI/lvgl/src/extra/layouts/grid/../flex/../../../core/../misc/../font/../misc/lv_area.h ****  *      INCLUDES
  15:Middlewares/LVGL/GUI/lvgl/src/extra/layouts/grid/../flex/../../../core/../misc/../font/../misc/lv_area.h ****  *********************/
  16:Middlewares/LVGL/GUI/lvgl/src/extra/layouts/grid/../flex/../../../core/../misc/../font/../misc/lv_area.h **** #include "../lv_conf_internal.h"
  17:Middlewares/LVGL/GUI/lvgl/src/extra/layouts/grid/../flex/../../../core/../misc/../font/../misc/lv_area.h **** #include <stdbool.h>
  18:Middlewares/LVGL/GUI/lvgl/src/extra/layouts/grid/../flex/../../../core/../misc/../font/../misc/lv_area.h **** #include <stdint.h>
  19:Middlewares/LVGL/GUI/lvgl/src/extra/layouts/grid/../flex/../../../core/../misc/../font/../misc/lv_area.h **** 
  20:Middlewares/LVGL/GUI/lvgl/src/extra/layouts/grid/../flex/../../../core/../misc/../font/../misc/lv_area.h **** /*********************
  21:Middlewares/LVGL/GUI/lvgl/src/extra/layouts/grid/../flex/../../../core/../misc/../font/../misc/lv_area.h ****  *      DEFINES
  22:Middlewares/LVGL/GUI/lvgl/src/extra/layouts/grid/../flex/../../../core/../misc/../font/../misc/lv_area.h ****  *********************/
  23:Middlewares/LVGL/GUI/lvgl/src/extra/layouts/grid/../flex/../../../core/../misc/../font/../misc/lv_area.h **** 
  24:Middlewares/LVGL/GUI/lvgl/src/extra/layouts/grid/../flex/../../../core/../misc/../font/../misc/lv_area.h **** #if LV_USE_LARGE_COORD
  25:Middlewares/LVGL/GUI/lvgl/src/extra/layouts/grid/../flex/../../../core/../misc/../font/../misc/lv_area.h **** typedef int32_t lv_coord_t;
  26:Middlewares/LVGL/GUI/lvgl/src/extra/layouts/grid/../flex/../../../core/../misc/../font/../misc/lv_area.h **** #else
  27:Middlewares/LVGL/GUI/lvgl/src/extra/layouts/grid/../flex/../../../core/../misc/../font/../misc/lv_area.h **** typedef int16_t lv_coord_t;
  28:Middlewares/LVGL/GUI/lvgl/src/extra/layouts/grid/../flex/../../../core/../misc/../font/../misc/lv_area.h **** #endif
  29:Middlewares/LVGL/GUI/lvgl/src/extra/layouts/grid/../flex/../../../core/../misc/../font/../misc/lv_area.h **** 
  30:Middlewares/LVGL/GUI/lvgl/src/extra/layouts/grid/../flex/../../../core/../misc/../font/../misc/lv_area.h **** /**********************
  31:Middlewares/LVGL/GUI/lvgl/src/extra/layouts/grid/../flex/../../../core/../misc/../font/../misc/lv_area.h ****  *      TYPEDEFS
  32:Middlewares/LVGL/GUI/lvgl/src/extra/layouts/grid/../flex/../../../core/../misc/../font/../misc/lv_area.h ****  **********************/
  33:Middlewares/LVGL/GUI/lvgl/src/extra/layouts/grid/../flex/../../../core/../misc/../font/../misc/lv_area.h **** 
  34:Middlewares/LVGL/GUI/lvgl/src/extra/layouts/grid/../flex/../../../core/../misc/../font/../misc/lv_area.h **** /**
  35:Middlewares/LVGL/GUI/lvgl/src/extra/layouts/grid/../flex/../../../core/../misc/../font/../misc/lv_area.h ****  * Represents a point on the screen.
  36:Middlewares/LVGL/GUI/lvgl/src/extra/layouts/grid/../flex/../../../core/../misc/../font/../misc/lv_area.h ****  */
  37:Middlewares/LVGL/GUI/lvgl/src/extra/layouts/grid/../flex/../../../core/../misc/../font/../misc/lv_area.h **** typedef struct {
  38:Middlewares/LVGL/GUI/lvgl/src/extra/layouts/grid/../flex/../../../core/../misc/../font/../misc/lv_area.h ****     lv_coord_t x;
  39:Middlewares/LVGL/GUI/lvgl/src/extra/layouts/grid/../flex/../../../core/../misc/../font/../misc/lv_area.h ****     lv_coord_t y;
  40:Middlewares/LVGL/GUI/lvgl/src/extra/layouts/grid/../flex/../../../core/../misc/../font/../misc/lv_area.h **** } lv_point_t;
  41:Middlewares/LVGL/GUI/lvgl/src/extra/layouts/grid/../flex/../../../core/../misc/../font/../misc/lv_area.h **** 
  42:Middlewares/LVGL/GUI/lvgl/src/extra/layouts/grid/../flex/../../../core/../misc/../font/../misc/lv_area.h **** /** Represents an area of the screen.*/
  43:Middlewares/LVGL/GUI/lvgl/src/extra/layouts/grid/../flex/../../../core/../misc/../font/../misc/lv_area.h **** typedef struct {
  44:Middlewares/LVGL/GUI/lvgl/src/extra/layouts/grid/../flex/../../../core/../misc/../font/../misc/lv_area.h ****     lv_coord_t x1;
  45:Middlewares/LVGL/GUI/lvgl/src/extra/layouts/grid/../flex/../../../core/../misc/../font/../misc/lv_area.h ****     lv_coord_t y1;
  46:Middlewares/LVGL/GUI/lvgl/src/extra/layouts/grid/../flex/../../../core/../misc/../font/../misc/lv_area.h ****     lv_coord_t x2;
  47:Middlewares/LVGL/GUI/lvgl/src/extra/layouts/grid/../flex/../../../core/../misc/../font/../misc/lv_area.h ****     lv_coord_t y2;
  48:Middlewares/LVGL/GUI/lvgl/src/extra/layouts/grid/../flex/../../../core/../misc/../font/../misc/lv_area.h **** } lv_area_t;
  49:Middlewares/LVGL/GUI/lvgl/src/extra/layouts/grid/../flex/../../../core/../misc/../font/../misc/lv_area.h **** 
  50:Middlewares/LVGL/GUI/lvgl/src/extra/layouts/grid/../flex/../../../core/../misc/../font/../misc/lv_area.h **** /** Alignments*/
  51:Middlewares/LVGL/GUI/lvgl/src/extra/layouts/grid/../flex/../../../core/../misc/../font/../misc/lv_area.h **** enum {
  52:Middlewares/LVGL/GUI/lvgl/src/extra/layouts/grid/../flex/../../../core/../misc/../font/../misc/lv_area.h ****     LV_ALIGN_DEFAULT = 0,
  53:Middlewares/LVGL/GUI/lvgl/src/extra/layouts/grid/../flex/../../../core/../misc/../font/../misc/lv_area.h ****     LV_ALIGN_TOP_LEFT,
  54:Middlewares/LVGL/GUI/lvgl/src/extra/layouts/grid/../flex/../../../core/../misc/../font/../misc/lv_area.h ****     LV_ALIGN_TOP_MID,
  55:Middlewares/LVGL/GUI/lvgl/src/extra/layouts/grid/../flex/../../../core/../misc/../font/../misc/lv_area.h ****     LV_ALIGN_TOP_RIGHT,
  56:Middlewares/LVGL/GUI/lvgl/src/extra/layouts/grid/../flex/../../../core/../misc/../font/../misc/lv_area.h ****     LV_ALIGN_BOTTOM_LEFT,
  57:Middlewares/LVGL/GUI/lvgl/src/extra/layouts/grid/../flex/../../../core/../misc/../font/../misc/lv_area.h ****     LV_ALIGN_BOTTOM_MID,
  58:Middlewares/LVGL/GUI/lvgl/src/extra/layouts/grid/../flex/../../../core/../misc/../font/../misc/lv_area.h ****     LV_ALIGN_BOTTOM_RIGHT,
  59:Middlewares/LVGL/GUI/lvgl/src/extra/layouts/grid/../flex/../../../core/../misc/../font/../misc/lv_area.h ****     LV_ALIGN_LEFT_MID,
  60:Middlewares/LVGL/GUI/lvgl/src/extra/layouts/grid/../flex/../../../core/../misc/../font/../misc/lv_area.h ****     LV_ALIGN_RIGHT_MID,
  61:Middlewares/LVGL/GUI/lvgl/src/extra/layouts/grid/../flex/../../../core/../misc/../font/../misc/lv_area.h ****     LV_ALIGN_CENTER,
  62:Middlewares/LVGL/GUI/lvgl/src/extra/layouts/grid/../flex/../../../core/../misc/../font/../misc/lv_area.h **** 
  63:Middlewares/LVGL/GUI/lvgl/src/extra/layouts/grid/../flex/../../../core/../misc/../font/../misc/lv_area.h ****     LV_ALIGN_OUT_TOP_LEFT,
  64:Middlewares/LVGL/GUI/lvgl/src/extra/layouts/grid/../flex/../../../core/../misc/../font/../misc/lv_area.h ****     LV_ALIGN_OUT_TOP_MID,
  65:Middlewares/LVGL/GUI/lvgl/src/extra/layouts/grid/../flex/../../../core/../misc/../font/../misc/lv_area.h ****     LV_ALIGN_OUT_TOP_RIGHT,
  66:Middlewares/LVGL/GUI/lvgl/src/extra/layouts/grid/../flex/../../../core/../misc/../font/../misc/lv_area.h ****     LV_ALIGN_OUT_BOTTOM_LEFT,
  67:Middlewares/LVGL/GUI/lvgl/src/extra/layouts/grid/../flex/../../../core/../misc/../font/../misc/lv_area.h ****     LV_ALIGN_OUT_BOTTOM_MID,
  68:Middlewares/LVGL/GUI/lvgl/src/extra/layouts/grid/../flex/../../../core/../misc/../font/../misc/lv_area.h ****     LV_ALIGN_OUT_BOTTOM_RIGHT,
  69:Middlewares/LVGL/GUI/lvgl/src/extra/layouts/grid/../flex/../../../core/../misc/../font/../misc/lv_area.h ****     LV_ALIGN_OUT_LEFT_TOP,
ARM GAS  C:\Users\ADMINI~1\AppData\Local\Temp\cc6Bhsgy.s 			page 43


  70:Middlewares/LVGL/GUI/lvgl/src/extra/layouts/grid/../flex/../../../core/../misc/../font/../misc/lv_area.h ****     LV_ALIGN_OUT_LEFT_MID,
  71:Middlewares/LVGL/GUI/lvgl/src/extra/layouts/grid/../flex/../../../core/../misc/../font/../misc/lv_area.h ****     LV_ALIGN_OUT_LEFT_BOTTOM,
  72:Middlewares/LVGL/GUI/lvgl/src/extra/layouts/grid/../flex/../../../core/../misc/../font/../misc/lv_area.h ****     LV_ALIGN_OUT_RIGHT_TOP,
  73:Middlewares/LVGL/GUI/lvgl/src/extra/layouts/grid/../flex/../../../core/../misc/../font/../misc/lv_area.h ****     LV_ALIGN_OUT_RIGHT_MID,
  74:Middlewares/LVGL/GUI/lvgl/src/extra/layouts/grid/../flex/../../../core/../misc/../font/../misc/lv_area.h ****     LV_ALIGN_OUT_RIGHT_BOTTOM,
  75:Middlewares/LVGL/GUI/lvgl/src/extra/layouts/grid/../flex/../../../core/../misc/../font/../misc/lv_area.h **** };
  76:Middlewares/LVGL/GUI/lvgl/src/extra/layouts/grid/../flex/../../../core/../misc/../font/../misc/lv_area.h **** typedef uint8_t lv_align_t;
  77:Middlewares/LVGL/GUI/lvgl/src/extra/layouts/grid/../flex/../../../core/../misc/../font/../misc/lv_area.h **** 
  78:Middlewares/LVGL/GUI/lvgl/src/extra/layouts/grid/../flex/../../../core/../misc/../font/../misc/lv_area.h **** enum {
  79:Middlewares/LVGL/GUI/lvgl/src/extra/layouts/grid/../flex/../../../core/../misc/../font/../misc/lv_area.h ****     LV_DIR_NONE     = 0x00,
  80:Middlewares/LVGL/GUI/lvgl/src/extra/layouts/grid/../flex/../../../core/../misc/../font/../misc/lv_area.h ****     LV_DIR_LEFT     = (1 << 0),
  81:Middlewares/LVGL/GUI/lvgl/src/extra/layouts/grid/../flex/../../../core/../misc/../font/../misc/lv_area.h ****     LV_DIR_RIGHT    = (1 << 1),
  82:Middlewares/LVGL/GUI/lvgl/src/extra/layouts/grid/../flex/../../../core/../misc/../font/../misc/lv_area.h ****     LV_DIR_TOP      = (1 << 2),
  83:Middlewares/LVGL/GUI/lvgl/src/extra/layouts/grid/../flex/../../../core/../misc/../font/../misc/lv_area.h ****     LV_DIR_BOTTOM   = (1 << 3),
  84:Middlewares/LVGL/GUI/lvgl/src/extra/layouts/grid/../flex/../../../core/../misc/../font/../misc/lv_area.h ****     LV_DIR_HOR      = LV_DIR_LEFT | LV_DIR_RIGHT,
  85:Middlewares/LVGL/GUI/lvgl/src/extra/layouts/grid/../flex/../../../core/../misc/../font/../misc/lv_area.h ****     LV_DIR_VER      = LV_DIR_TOP | LV_DIR_BOTTOM,
  86:Middlewares/LVGL/GUI/lvgl/src/extra/layouts/grid/../flex/../../../core/../misc/../font/../misc/lv_area.h ****     LV_DIR_ALL      = LV_DIR_HOR | LV_DIR_VER,
  87:Middlewares/LVGL/GUI/lvgl/src/extra/layouts/grid/../flex/../../../core/../misc/../font/../misc/lv_area.h **** };
  88:Middlewares/LVGL/GUI/lvgl/src/extra/layouts/grid/../flex/../../../core/../misc/../font/../misc/lv_area.h **** 
  89:Middlewares/LVGL/GUI/lvgl/src/extra/layouts/grid/../flex/../../../core/../misc/../font/../misc/lv_area.h **** typedef uint8_t lv_dir_t;
  90:Middlewares/LVGL/GUI/lvgl/src/extra/layouts/grid/../flex/../../../core/../misc/../font/../misc/lv_area.h **** 
  91:Middlewares/LVGL/GUI/lvgl/src/extra/layouts/grid/../flex/../../../core/../misc/../font/../misc/lv_area.h **** /**********************
  92:Middlewares/LVGL/GUI/lvgl/src/extra/layouts/grid/../flex/../../../core/../misc/../font/../misc/lv_area.h ****  * GLOBAL PROTOTYPES
  93:Middlewares/LVGL/GUI/lvgl/src/extra/layouts/grid/../flex/../../../core/../misc/../font/../misc/lv_area.h ****  **********************/
  94:Middlewares/LVGL/GUI/lvgl/src/extra/layouts/grid/../flex/../../../core/../misc/../font/../misc/lv_area.h **** 
  95:Middlewares/LVGL/GUI/lvgl/src/extra/layouts/grid/../flex/../../../core/../misc/../font/../misc/lv_area.h **** /**
  96:Middlewares/LVGL/GUI/lvgl/src/extra/layouts/grid/../flex/../../../core/../misc/../font/../misc/lv_area.h ****  * Initialize an area
  97:Middlewares/LVGL/GUI/lvgl/src/extra/layouts/grid/../flex/../../../core/../misc/../font/../misc/lv_area.h ****  * @param area_p pointer to an area
  98:Middlewares/LVGL/GUI/lvgl/src/extra/layouts/grid/../flex/../../../core/../misc/../font/../misc/lv_area.h ****  * @param x1 left coordinate of the area
  99:Middlewares/LVGL/GUI/lvgl/src/extra/layouts/grid/../flex/../../../core/../misc/../font/../misc/lv_area.h ****  * @param y1 top coordinate of the area
 100:Middlewares/LVGL/GUI/lvgl/src/extra/layouts/grid/../flex/../../../core/../misc/../font/../misc/lv_area.h ****  * @param x2 right coordinate of the area
 101:Middlewares/LVGL/GUI/lvgl/src/extra/layouts/grid/../flex/../../../core/../misc/../font/../misc/lv_area.h ****  * @param y2 bottom coordinate of the area
 102:Middlewares/LVGL/GUI/lvgl/src/extra/layouts/grid/../flex/../../../core/../misc/../font/../misc/lv_area.h ****  */
 103:Middlewares/LVGL/GUI/lvgl/src/extra/layouts/grid/../flex/../../../core/../misc/../font/../misc/lv_area.h **** void lv_area_set(lv_area_t * area_p, lv_coord_t x1, lv_coord_t y1, lv_coord_t x2, lv_coord_t y2);
 104:Middlewares/LVGL/GUI/lvgl/src/extra/layouts/grid/../flex/../../../core/../misc/../font/../misc/lv_area.h **** 
 105:Middlewares/LVGL/GUI/lvgl/src/extra/layouts/grid/../flex/../../../core/../misc/../font/../misc/lv_area.h **** /**
 106:Middlewares/LVGL/GUI/lvgl/src/extra/layouts/grid/../flex/../../../core/../misc/../font/../misc/lv_area.h ****  * Copy an area
 107:Middlewares/LVGL/GUI/lvgl/src/extra/layouts/grid/../flex/../../../core/../misc/../font/../misc/lv_area.h ****  * @param dest pointer to the destination area
 108:Middlewares/LVGL/GUI/lvgl/src/extra/layouts/grid/../flex/../../../core/../misc/../font/../misc/lv_area.h ****  * @param src pointer to the source area
 109:Middlewares/LVGL/GUI/lvgl/src/extra/layouts/grid/../flex/../../../core/../misc/../font/../misc/lv_area.h ****  */
 110:Middlewares/LVGL/GUI/lvgl/src/extra/layouts/grid/../flex/../../../core/../misc/../font/../misc/lv_area.h **** inline static void lv_area_copy(lv_area_t * dest, const lv_area_t * src)
 111:Middlewares/LVGL/GUI/lvgl/src/extra/layouts/grid/../flex/../../../core/../misc/../font/../misc/lv_area.h **** {
 112:Middlewares/LVGL/GUI/lvgl/src/extra/layouts/grid/../flex/../../../core/../misc/../font/../misc/lv_area.h ****     dest->x1 = src->x1;
 113:Middlewares/LVGL/GUI/lvgl/src/extra/layouts/grid/../flex/../../../core/../misc/../font/../misc/lv_area.h ****     dest->y1 = src->y1;
 114:Middlewares/LVGL/GUI/lvgl/src/extra/layouts/grid/../flex/../../../core/../misc/../font/../misc/lv_area.h ****     dest->x2 = src->x2;
 115:Middlewares/LVGL/GUI/lvgl/src/extra/layouts/grid/../flex/../../../core/../misc/../font/../misc/lv_area.h ****     dest->y2 = src->y2;
 116:Middlewares/LVGL/GUI/lvgl/src/extra/layouts/grid/../flex/../../../core/../misc/../font/../misc/lv_area.h **** }
 117:Middlewares/LVGL/GUI/lvgl/src/extra/layouts/grid/../flex/../../../core/../misc/../font/../misc/lv_area.h **** 
 118:Middlewares/LVGL/GUI/lvgl/src/extra/layouts/grid/../flex/../../../core/../misc/../font/../misc/lv_area.h **** /**
 119:Middlewares/LVGL/GUI/lvgl/src/extra/layouts/grid/../flex/../../../core/../misc/../font/../misc/lv_area.h ****  * Get the width of an area
 120:Middlewares/LVGL/GUI/lvgl/src/extra/layouts/grid/../flex/../../../core/../misc/../font/../misc/lv_area.h ****  * @param area_p pointer to an area
 121:Middlewares/LVGL/GUI/lvgl/src/extra/layouts/grid/../flex/../../../core/../misc/../font/../misc/lv_area.h ****  * @return the width of the area (if x1 == x2 -> width = 1)
 122:Middlewares/LVGL/GUI/lvgl/src/extra/layouts/grid/../flex/../../../core/../misc/../font/../misc/lv_area.h ****  */
 123:Middlewares/LVGL/GUI/lvgl/src/extra/layouts/grid/../flex/../../../core/../misc/../font/../misc/lv_area.h **** static inline lv_coord_t lv_area_get_width(const lv_area_t * area_p)
 675              		.loc 4 123 26 view .LVU228
 676              	.LBB136:
 124:Middlewares/LVGL/GUI/lvgl/src/extra/layouts/grid/../flex/../../../core/../misc/../font/../misc/lv_area.h **** {
ARM GAS  C:\Users\ADMINI~1\AppData\Local\Temp\cc6Bhsgy.s 			page 44


 125:Middlewares/LVGL/GUI/lvgl/src/extra/layouts/grid/../flex/../../../core/../misc/../font/../misc/lv_area.h ****     return (lv_coord_t)(area_p->x2 - area_p->x1 + 1);
 677              		.loc 4 125 5 view .LVU229
 678              		.loc 4 125 31 is_stmt 0 view .LVU230
 679 00ca E669     		ldr	r6, [r4, #28]
 680              		.loc 4 125 44 view .LVU231
 681 00cc 6369     		ldr	r3, [r4, #20]
 682              		.loc 4 125 36 view .LVU232
 683 00ce F61A     		subs	r6, r6, r3
 684              		.loc 4 125 12 view .LVU233
 685 00d0 0136     		adds	r6, r6, #1
 686              	.LVL82:
 687              		.loc 4 125 12 view .LVU234
 688              	.LBE136:
 689              	.LBE135:
 611:Middlewares/LVGL/GUI/lvgl/src/extra/layouts/grid/lv_grid.c **** 
 690              		.loc 1 611 5 is_stmt 1 view .LVU235
 691              	.LBB137:
 692              	.LBI137:
 126:Middlewares/LVGL/GUI/lvgl/src/extra/layouts/grid/../flex/../../../core/../misc/../font/../misc/lv_area.h **** }
 127:Middlewares/LVGL/GUI/lvgl/src/extra/layouts/grid/../flex/../../../core/../misc/../font/../misc/lv_area.h **** 
 128:Middlewares/LVGL/GUI/lvgl/src/extra/layouts/grid/../flex/../../../core/../misc/../font/../misc/lv_area.h **** /**
 129:Middlewares/LVGL/GUI/lvgl/src/extra/layouts/grid/../flex/../../../core/../misc/../font/../misc/lv_area.h ****  * Get the height of an area
 130:Middlewares/LVGL/GUI/lvgl/src/extra/layouts/grid/../flex/../../../core/../misc/../font/../misc/lv_area.h ****  * @param area_p pointer to an area
 131:Middlewares/LVGL/GUI/lvgl/src/extra/layouts/grid/../flex/../../../core/../misc/../font/../misc/lv_area.h ****  * @return the height of the area (if y1 == y2 -> height = 1)
 132:Middlewares/LVGL/GUI/lvgl/src/extra/layouts/grid/../flex/../../../core/../misc/../font/../misc/lv_area.h ****  */
 133:Middlewares/LVGL/GUI/lvgl/src/extra/layouts/grid/../flex/../../../core/../misc/../font/../misc/lv_area.h **** static inline lv_coord_t lv_area_get_height(const lv_area_t * area_p)
 693              		.loc 4 133 26 view .LVU236
 694              	.LBB138:
 134:Middlewares/LVGL/GUI/lvgl/src/extra/layouts/grid/../flex/../../../core/../misc/../font/../misc/lv_area.h **** {
 135:Middlewares/LVGL/GUI/lvgl/src/extra/layouts/grid/../flex/../../../core/../misc/../font/../misc/lv_area.h ****     return (lv_coord_t)(area_p->y2 - area_p->y1 + 1);
 695              		.loc 4 135 5 view .LVU237
 696              		.loc 4 135 31 is_stmt 0 view .LVU238
 697 00d2 276A     		ldr	r7, [r4, #32]
 698              		.loc 4 135 44 view .LVU239
 699 00d4 A369     		ldr	r3, [r4, #24]
 700              		.loc 4 135 36 view .LVU240
 701 00d6 FF1A     		subs	r7, r7, r3
 702              		.loc 4 135 12 view .LVU241
 703 00d8 0137     		adds	r7, r7, #1
 704              	.LVL83:
 705              		.loc 4 135 12 view .LVU242
 706              	.LBE138:
 707              	.LBE137:
 613:Middlewares/LVGL/GUI/lvgl/src/extra/layouts/grid/lv_grid.c ****         default:
 708              		.loc 1 613 5 is_stmt 1 view .LVU243
 709 00da B8F1020F 		cmp	r8, #2
 710 00de 00F0C180 		beq	.L29
 711 00e2 B8F1030F 		cmp	r8, #3
 712 00e6 00F0A280 		beq	.L30
 713 00ea B8F1010F 		cmp	r8, #1
 714 00ee 00F0A980 		beq	.L31
 616:Middlewares/LVGL/GUI/lvgl/src/extra/layouts/grid/lv_grid.c ****             item->w_layout = 0;
 715              		.loc 1 616 13 view .LVU244
 616:Middlewares/LVGL/GUI/lvgl/src/extra/layouts/grid/lv_grid.c ****             item->w_layout = 0;
 716              		.loc 1 616 18 is_stmt 0 view .LVU245
 717 00f2 2B68     		ldr	r3, [r5]
 616:Middlewares/LVGL/GUI/lvgl/src/extra/layouts/grid/lv_grid.c ****             item->w_layout = 0;
ARM GAS  C:\Users\ADMINI~1\AppData\Local\Temp\cc6Bhsgy.s 			page 45


 718              		.loc 1 616 15 view .LVU246
 719 00f4 53F82B80 		ldr	r8, [r3, fp, lsl #2]
 720              	.LVL84:
 617:Middlewares/LVGL/GUI/lvgl/src/extra/layouts/grid/lv_grid.c ****             break;
 721              		.loc 1 617 13 is_stmt 1 view .LVU247
 617:Middlewares/LVGL/GUI/lvgl/src/extra/layouts/grid/lv_grid.c ****             break;
 722              		.loc 1 617 28 is_stmt 0 view .LVU248
 723 00f8 94F82B30 		ldrb	r3, [r4, #43]	@ zero_extendqisi2
 724 00fc 6FF38203 		bfc	r3, #2, #1
 725 0100 84F82B30 		strb	r3, [r4, #43]
 726              	.LVL85:
 618:Middlewares/LVGL/GUI/lvgl/src/extra/layouts/grid/lv_grid.c ****         case LV_GRID_ALIGN_STRETCH:
 727              		.loc 1 618 13 is_stmt 1 view .LVU249
 728              	.L32:
 634:Middlewares/LVGL/GUI/lvgl/src/extra/layouts/grid/lv_grid.c ****         default:
 729              		.loc 1 634 5 view .LVU250
 730 0104 B9F1020F 		cmp	r9, #2
 731 0108 00F0D980 		beq	.L33
 634:Middlewares/LVGL/GUI/lvgl/src/extra/layouts/grid/lv_grid.c ****         default:
 732              		.loc 1 634 5 is_stmt 0 view .LVU251
 733 010c B9F1030F 		cmp	r9, #3
 734 0110 00F0BA80 		beq	.L34
 735 0114 B9F1010F 		cmp	r9, #1
 736 0118 00F0C180 		beq	.L35
 637:Middlewares/LVGL/GUI/lvgl/src/extra/layouts/grid/lv_grid.c ****             item->h_layout = 0;
 737              		.loc 1 637 13 is_stmt 1 view .LVU252
 637:Middlewares/LVGL/GUI/lvgl/src/extra/layouts/grid/lv_grid.c ****             item->h_layout = 0;
 738              		.loc 1 637 18 is_stmt 0 view .LVU253
 739 011c 6B68     		ldr	r3, [r5, #4]
 637:Middlewares/LVGL/GUI/lvgl/src/extra/layouts/grid/lv_grid.c ****             item->h_layout = 0;
 740              		.loc 1 637 15 view .LVU254
 741 011e 53F82A90 		ldr	r9, [r3, r10, lsl #2]
 742              	.LVL86:
 638:Middlewares/LVGL/GUI/lvgl/src/extra/layouts/grid/lv_grid.c ****             break;
 743              		.loc 1 638 13 is_stmt 1 view .LVU255
 638:Middlewares/LVGL/GUI/lvgl/src/extra/layouts/grid/lv_grid.c ****             break;
 744              		.loc 1 638 28 is_stmt 0 view .LVU256
 745 0122 94F82B30 		ldrb	r3, [r4, #43]	@ zero_extendqisi2
 746 0126 6FF34103 		bfc	r3, #1, #1
 747 012a 84F82B30 		strb	r3, [r4, #43]
 639:Middlewares/LVGL/GUI/lvgl/src/extra/layouts/grid/lv_grid.c ****         case LV_GRID_ALIGN_STRETCH:
 748              		.loc 1 639 13 is_stmt 1 view .LVU257
 749              	.L36:
 656:Middlewares/LVGL/GUI/lvgl/src/extra/layouts/grid/lv_grid.c ****         lv_area_t old_coords;
 750              		.loc 1 656 5 view .LVU258
 656:Middlewares/LVGL/GUI/lvgl/src/extra/layouts/grid/lv_grid.c ****         lv_area_t old_coords;
 751              		.loc 1 656 8 is_stmt 0 view .LVU259
 752 012e 2046     		mov	r0, r4
 753 0130 FFF7FEFF 		bl	lv_obj_get_width
 754              	.LVL87:
 656:Middlewares/LVGL/GUI/lvgl/src/extra/layouts/grid/lv_grid.c ****         lv_area_t old_coords;
 755              		.loc 1 656 7 view .LVU260
 756 0134 B042     		cmp	r0, r6
 757 0136 00F0D480 		beq	.L49
 758              	.L37:
 759              	.LBB139:
 657:Middlewares/LVGL/GUI/lvgl/src/extra/layouts/grid/lv_grid.c ****         lv_area_copy(&old_coords, &item->coords);
ARM GAS  C:\Users\ADMINI~1\AppData\Local\Temp\cc6Bhsgy.s 			page 46


 760              		.loc 1 657 9 is_stmt 1 view .LVU261
 658:Middlewares/LVGL/GUI/lvgl/src/extra/layouts/grid/lv_grid.c ****         lv_obj_invalidate(item);
 761              		.loc 1 658 9 view .LVU262
 762              	.LVL88:
 763              	.LBB140:
 764              	.LBI140:
 110:Middlewares/LVGL/GUI/lvgl/src/extra/layouts/grid/../flex/../../../core/../misc/../font/../misc/lv_area.h **** {
 765              		.loc 4 110 20 view .LVU263
 766              	.LBB141:
 112:Middlewares/LVGL/GUI/lvgl/src/extra/layouts/grid/../flex/../../../core/../misc/../font/../misc/lv_area.h ****     dest->y1 = src->y1;
 767              		.loc 4 112 5 view .LVU264
 112:Middlewares/LVGL/GUI/lvgl/src/extra/layouts/grid/../flex/../../../core/../misc/../font/../misc/lv_area.h ****     dest->y1 = src->y1;
 768              		.loc 4 112 19 is_stmt 0 view .LVU265
 769 013a 6369     		ldr	r3, [r4, #20]
 112:Middlewares/LVGL/GUI/lvgl/src/extra/layouts/grid/../flex/../../../core/../misc/../font/../misc/lv_area.h ****     dest->y1 = src->y1;
 770              		.loc 4 112 14 view .LVU266
 771 013c 0493     		str	r3, [sp, #16]
 113:Middlewares/LVGL/GUI/lvgl/src/extra/layouts/grid/../flex/../../../core/../misc/../font/../misc/lv_area.h ****     dest->x2 = src->x2;
 772              		.loc 4 113 5 is_stmt 1 view .LVU267
 113:Middlewares/LVGL/GUI/lvgl/src/extra/layouts/grid/../flex/../../../core/../misc/../font/../misc/lv_area.h ****     dest->x2 = src->x2;
 773              		.loc 4 113 19 is_stmt 0 view .LVU268
 774 013e A369     		ldr	r3, [r4, #24]
 113:Middlewares/LVGL/GUI/lvgl/src/extra/layouts/grid/../flex/../../../core/../misc/../font/../misc/lv_area.h ****     dest->x2 = src->x2;
 775              		.loc 4 113 14 view .LVU269
 776 0140 0593     		str	r3, [sp, #20]
 114:Middlewares/LVGL/GUI/lvgl/src/extra/layouts/grid/../flex/../../../core/../misc/../font/../misc/lv_area.h ****     dest->y2 = src->y2;
 777              		.loc 4 114 5 is_stmt 1 view .LVU270
 114:Middlewares/LVGL/GUI/lvgl/src/extra/layouts/grid/../flex/../../../core/../misc/../font/../misc/lv_area.h ****     dest->y2 = src->y2;
 778              		.loc 4 114 19 is_stmt 0 view .LVU271
 779 0142 E369     		ldr	r3, [r4, #28]
 114:Middlewares/LVGL/GUI/lvgl/src/extra/layouts/grid/../flex/../../../core/../misc/../font/../misc/lv_area.h ****     dest->y2 = src->y2;
 780              		.loc 4 114 14 view .LVU272
 781 0144 0693     		str	r3, [sp, #24]
 115:Middlewares/LVGL/GUI/lvgl/src/extra/layouts/grid/../flex/../../../core/../misc/../font/../misc/lv_area.h **** }
 782              		.loc 4 115 5 is_stmt 1 view .LVU273
 115:Middlewares/LVGL/GUI/lvgl/src/extra/layouts/grid/../flex/../../../core/../misc/../font/../misc/lv_area.h **** }
 783              		.loc 4 115 19 is_stmt 0 view .LVU274
 784 0146 236A     		ldr	r3, [r4, #32]
 115:Middlewares/LVGL/GUI/lvgl/src/extra/layouts/grid/../flex/../../../core/../misc/../font/../misc/lv_area.h **** }
 785              		.loc 4 115 14 view .LVU275
 786 0148 0793     		str	r3, [sp, #28]
 787              	.LVL89:
 115:Middlewares/LVGL/GUI/lvgl/src/extra/layouts/grid/../flex/../../../core/../misc/../font/../misc/lv_area.h **** }
 788              		.loc 4 115 14 view .LVU276
 789              	.LBE141:
 790              	.LBE140:
 659:Middlewares/LVGL/GUI/lvgl/src/extra/layouts/grid/lv_grid.c ****         lv_area_set_width(&item->coords, item_w);
 791              		.loc 1 659 9 is_stmt 1 view .LVU277
 792 014a 2046     		mov	r0, r4
 793 014c FFF7FEFF 		bl	lv_obj_invalidate
 794              	.LVL90:
 660:Middlewares/LVGL/GUI/lvgl/src/extra/layouts/grid/lv_grid.c ****         lv_area_set_height(&item->coords, item_h);
 795              		.loc 1 660 9 view .LVU278
 796 0150 04F11405 		add	r5, r4, #20
 797              	.LVL91:
 660:Middlewares/LVGL/GUI/lvgl/src/extra/layouts/grid/lv_grid.c ****         lv_area_set_height(&item->coords, item_h);
 798              		.loc 1 660 9 is_stmt 0 view .LVU279
ARM GAS  C:\Users\ADMINI~1\AppData\Local\Temp\cc6Bhsgy.s 			page 47


 799 0154 3146     		mov	r1, r6
 800 0156 2846     		mov	r0, r5
 801 0158 FFF7FEFF 		bl	lv_area_set_width
 802              	.LVL92:
 661:Middlewares/LVGL/GUI/lvgl/src/extra/layouts/grid/lv_grid.c ****         lv_obj_invalidate(item);
 803              		.loc 1 661 9 is_stmt 1 view .LVU280
 804 015c 3946     		mov	r1, r7
 805 015e 2846     		mov	r0, r5
 806 0160 FFF7FEFF 		bl	lv_area_set_height
 807              	.LVL93:
 662:Middlewares/LVGL/GUI/lvgl/src/extra/layouts/grid/lv_grid.c ****         lv_event_send(item, LV_EVENT_SIZE_CHANGED, &old_coords);
 808              		.loc 1 662 9 view .LVU281
 809 0164 2046     		mov	r0, r4
 810 0166 FFF7FEFF 		bl	lv_obj_invalidate
 811              	.LVL94:
 663:Middlewares/LVGL/GUI/lvgl/src/extra/layouts/grid/lv_grid.c ****         lv_event_send(lv_obj_get_parent(item), LV_EVENT_CHILD_CHANGED, item);
 812              		.loc 1 663 9 view .LVU282
 813 016a 04AA     		add	r2, sp, #16
 814 016c 2921     		movs	r1, #41
 815 016e 2046     		mov	r0, r4
 816 0170 FFF7FEFF 		bl	lv_event_send
 817              	.LVL95:
 664:Middlewares/LVGL/GUI/lvgl/src/extra/layouts/grid/lv_grid.c **** 
 818              		.loc 1 664 9 view .LVU283
 819 0174 2046     		mov	r0, r4
 820 0176 FFF7FEFF 		bl	lv_obj_get_parent
 821              	.LVL96:
 822 017a 2246     		mov	r2, r4
 823 017c 2221     		movs	r1, #34
 824 017e FFF7FEFF 		bl	lv_event_send
 825              	.LVL97:
 826              	.L38:
 664:Middlewares/LVGL/GUI/lvgl/src/extra/layouts/grid/lv_grid.c **** 
 827              		.loc 1 664 9 is_stmt 0 view .LVU284
 828              	.LBE139:
 669:Middlewares/LVGL/GUI/lvgl/src/extra/layouts/grid/lv_grid.c ****     lv_coord_t tr_y = lv_obj_get_style_translate_y(item, LV_PART_MAIN);
 829              		.loc 1 669 5 is_stmt 1 view .LVU285
 830              	.LBB142:
 831              	.LBI142:
  67:Middlewares/LVGL/GUI/lvgl/src/extra/layouts/grid/../flex/../../../core/lv_obj_style_gen.h **** {
 832              		.loc 3 67 26 view .LVU286
 833              	.LBB143:
  69:Middlewares/LVGL/GUI/lvgl/src/extra/layouts/grid/../flex/../../../core/lv_obj_style_gen.h ****     return (lv_coord_t)v.num;
 834              		.loc 3 69 5 view .LVU287
  69:Middlewares/LVGL/GUI/lvgl/src/extra/layouts/grid/../flex/../../../core/lv_obj_style_gen.h ****     return (lv_coord_t)v.num;
 835              		.loc 3 69 26 is_stmt 0 view .LVU288
 836 0182 43F20C02 		movw	r2, #12300
 837 0186 0021     		movs	r1, #0
 838 0188 2046     		mov	r0, r4
 839 018a FFF7FEFF 		bl	lv_obj_get_style_prop
 840              	.LVL98:
 841 018e 0646     		mov	r6, r0
 842              	.LVL99:
  70:Middlewares/LVGL/GUI/lvgl/src/extra/layouts/grid/../flex/../../../core/lv_obj_style_gen.h **** }
 843              		.loc 3 70 5 is_stmt 1 view .LVU289
  70:Middlewares/LVGL/GUI/lvgl/src/extra/layouts/grid/../flex/../../../core/lv_obj_style_gen.h **** }
 844              		.loc 3 70 5 is_stmt 0 view .LVU290
ARM GAS  C:\Users\ADMINI~1\AppData\Local\Temp\cc6Bhsgy.s 			page 48


 845              	.LBE143:
 846              	.LBE142:
 670:Middlewares/LVGL/GUI/lvgl/src/extra/layouts/grid/lv_grid.c ****     lv_coord_t w = lv_obj_get_width(item);
 847              		.loc 1 670 5 is_stmt 1 view .LVU291
 848              	.LBB144:
 849              	.LBI144:
