ARM GAS  C:\Users\ADMINI~1\AppData\Local\Temp\ccVzpgJw.s 			page 1


   1              		.cpu cortex-m4
   2              		.arch armv7e-m
   3              		.fpu fpv4-sp-d16
   4              		.eabi_attribute 27, 1
   5              		.eabi_attribute 28, 1
   6              		.eabi_attribute 20, 1
   7              		.eabi_attribute 21, 1
   8              		.eabi_attribute 23, 3
   9              		.eabi_attribute 24, 1
  10              		.eabi_attribute 25, 1
  11              		.eabi_attribute 26, 1
  12              		.eabi_attribute 30, 1
  13              		.eabi_attribute 34, 1
  14              		.eabi_attribute 18, 4
  15              		.file	"lv_imgbtn.c"
  16              		.text
  17              	.Ltext0:
  18              		.cfi_sections	.debug_frame
  19              		.section	.text.suggest_state,"ax",%progbits
  20              		.align	1
  21              		.syntax unified
  22              		.thumb
  23              		.thumb_func
  25              	suggest_state:
  26              	.LVL0:
  27              	.LFB206:
  28              		.file 1 "Middlewares/LVGL/GUI/lvgl/src/extra/widgets/imgbtn/lv_imgbtn.c"
   1:Middlewares/LVGL/GUI/lvgl/src/extra/widgets/imgbtn/lv_imgbtn.c **** /**
   2:Middlewares/LVGL/GUI/lvgl/src/extra/widgets/imgbtn/lv_imgbtn.c ****  * @file lv_imgbtn.c
   3:Middlewares/LVGL/GUI/lvgl/src/extra/widgets/imgbtn/lv_imgbtn.c ****  *
   4:Middlewares/LVGL/GUI/lvgl/src/extra/widgets/imgbtn/lv_imgbtn.c ****  */
   5:Middlewares/LVGL/GUI/lvgl/src/extra/widgets/imgbtn/lv_imgbtn.c **** 
   6:Middlewares/LVGL/GUI/lvgl/src/extra/widgets/imgbtn/lv_imgbtn.c **** /*********************
   7:Middlewares/LVGL/GUI/lvgl/src/extra/widgets/imgbtn/lv_imgbtn.c ****  *      INCLUDES
   8:Middlewares/LVGL/GUI/lvgl/src/extra/widgets/imgbtn/lv_imgbtn.c ****  *********************/
   9:Middlewares/LVGL/GUI/lvgl/src/extra/widgets/imgbtn/lv_imgbtn.c **** 
  10:Middlewares/LVGL/GUI/lvgl/src/extra/widgets/imgbtn/lv_imgbtn.c **** #include "lv_imgbtn.h"
  11:Middlewares/LVGL/GUI/lvgl/src/extra/widgets/imgbtn/lv_imgbtn.c **** 
  12:Middlewares/LVGL/GUI/lvgl/src/extra/widgets/imgbtn/lv_imgbtn.c **** #if LV_USE_IMGBTN != 0
  13:Middlewares/LVGL/GUI/lvgl/src/extra/widgets/imgbtn/lv_imgbtn.c **** 
  14:Middlewares/LVGL/GUI/lvgl/src/extra/widgets/imgbtn/lv_imgbtn.c **** /*********************
  15:Middlewares/LVGL/GUI/lvgl/src/extra/widgets/imgbtn/lv_imgbtn.c ****  *      DEFINES
  16:Middlewares/LVGL/GUI/lvgl/src/extra/widgets/imgbtn/lv_imgbtn.c ****  *********************/
  17:Middlewares/LVGL/GUI/lvgl/src/extra/widgets/imgbtn/lv_imgbtn.c **** #define MY_CLASS &lv_imgbtn_class
  18:Middlewares/LVGL/GUI/lvgl/src/extra/widgets/imgbtn/lv_imgbtn.c **** 
  19:Middlewares/LVGL/GUI/lvgl/src/extra/widgets/imgbtn/lv_imgbtn.c **** /**********************
  20:Middlewares/LVGL/GUI/lvgl/src/extra/widgets/imgbtn/lv_imgbtn.c ****  *      TYPEDEFS
  21:Middlewares/LVGL/GUI/lvgl/src/extra/widgets/imgbtn/lv_imgbtn.c ****  **********************/
  22:Middlewares/LVGL/GUI/lvgl/src/extra/widgets/imgbtn/lv_imgbtn.c **** 
  23:Middlewares/LVGL/GUI/lvgl/src/extra/widgets/imgbtn/lv_imgbtn.c **** /**********************
  24:Middlewares/LVGL/GUI/lvgl/src/extra/widgets/imgbtn/lv_imgbtn.c ****  *  STATIC PROTOTYPES
  25:Middlewares/LVGL/GUI/lvgl/src/extra/widgets/imgbtn/lv_imgbtn.c ****  **********************/
  26:Middlewares/LVGL/GUI/lvgl/src/extra/widgets/imgbtn/lv_imgbtn.c **** static void lv_imgbtn_constructor(const lv_obj_class_t * class_p, lv_obj_t * obj);
  27:Middlewares/LVGL/GUI/lvgl/src/extra/widgets/imgbtn/lv_imgbtn.c **** static void draw_main(lv_event_t * e);
  28:Middlewares/LVGL/GUI/lvgl/src/extra/widgets/imgbtn/lv_imgbtn.c **** static void lv_imgbtn_event(const lv_obj_class_t * class_p, lv_event_t * e);
  29:Middlewares/LVGL/GUI/lvgl/src/extra/widgets/imgbtn/lv_imgbtn.c **** static void refr_img(lv_obj_t * imgbtn);
  30:Middlewares/LVGL/GUI/lvgl/src/extra/widgets/imgbtn/lv_imgbtn.c **** static lv_imgbtn_state_t suggest_state(lv_obj_t * imgbtn, lv_imgbtn_state_t state);
ARM GAS  C:\Users\ADMINI~1\AppData\Local\Temp\ccVzpgJw.s 			page 2


  31:Middlewares/LVGL/GUI/lvgl/src/extra/widgets/imgbtn/lv_imgbtn.c **** lv_imgbtn_state_t get_state(const lv_obj_t * imgbtn);
  32:Middlewares/LVGL/GUI/lvgl/src/extra/widgets/imgbtn/lv_imgbtn.c **** 
  33:Middlewares/LVGL/GUI/lvgl/src/extra/widgets/imgbtn/lv_imgbtn.c **** /**********************
  34:Middlewares/LVGL/GUI/lvgl/src/extra/widgets/imgbtn/lv_imgbtn.c ****  *  STATIC VARIABLES
  35:Middlewares/LVGL/GUI/lvgl/src/extra/widgets/imgbtn/lv_imgbtn.c ****  **********************/
  36:Middlewares/LVGL/GUI/lvgl/src/extra/widgets/imgbtn/lv_imgbtn.c **** const lv_obj_class_t lv_imgbtn_class = {
  37:Middlewares/LVGL/GUI/lvgl/src/extra/widgets/imgbtn/lv_imgbtn.c ****     .base_class = &lv_obj_class,
  38:Middlewares/LVGL/GUI/lvgl/src/extra/widgets/imgbtn/lv_imgbtn.c ****     .instance_size = sizeof(lv_imgbtn_t),
  39:Middlewares/LVGL/GUI/lvgl/src/extra/widgets/imgbtn/lv_imgbtn.c ****     .constructor_cb = lv_imgbtn_constructor,
  40:Middlewares/LVGL/GUI/lvgl/src/extra/widgets/imgbtn/lv_imgbtn.c ****     .event_cb = lv_imgbtn_event,
  41:Middlewares/LVGL/GUI/lvgl/src/extra/widgets/imgbtn/lv_imgbtn.c **** };
  42:Middlewares/LVGL/GUI/lvgl/src/extra/widgets/imgbtn/lv_imgbtn.c **** 
  43:Middlewares/LVGL/GUI/lvgl/src/extra/widgets/imgbtn/lv_imgbtn.c **** /**********************
  44:Middlewares/LVGL/GUI/lvgl/src/extra/widgets/imgbtn/lv_imgbtn.c ****  *      MACROS
  45:Middlewares/LVGL/GUI/lvgl/src/extra/widgets/imgbtn/lv_imgbtn.c ****  **********************/
  46:Middlewares/LVGL/GUI/lvgl/src/extra/widgets/imgbtn/lv_imgbtn.c **** 
  47:Middlewares/LVGL/GUI/lvgl/src/extra/widgets/imgbtn/lv_imgbtn.c **** /**********************
  48:Middlewares/LVGL/GUI/lvgl/src/extra/widgets/imgbtn/lv_imgbtn.c ****  *   GLOBAL FUNCTIONS
  49:Middlewares/LVGL/GUI/lvgl/src/extra/widgets/imgbtn/lv_imgbtn.c ****  **********************/
  50:Middlewares/LVGL/GUI/lvgl/src/extra/widgets/imgbtn/lv_imgbtn.c **** 
  51:Middlewares/LVGL/GUI/lvgl/src/extra/widgets/imgbtn/lv_imgbtn.c **** /**
  52:Middlewares/LVGL/GUI/lvgl/src/extra/widgets/imgbtn/lv_imgbtn.c ****  * Create an image button object
  53:Middlewares/LVGL/GUI/lvgl/src/extra/widgets/imgbtn/lv_imgbtn.c ****  * @param parent pointer to an object, it will be the parent of the new image button
  54:Middlewares/LVGL/GUI/lvgl/src/extra/widgets/imgbtn/lv_imgbtn.c ****  * @return pointer to the created image button
  55:Middlewares/LVGL/GUI/lvgl/src/extra/widgets/imgbtn/lv_imgbtn.c ****  */
  56:Middlewares/LVGL/GUI/lvgl/src/extra/widgets/imgbtn/lv_imgbtn.c **** lv_obj_t * lv_imgbtn_create(lv_obj_t * parent)
  57:Middlewares/LVGL/GUI/lvgl/src/extra/widgets/imgbtn/lv_imgbtn.c **** {
  58:Middlewares/LVGL/GUI/lvgl/src/extra/widgets/imgbtn/lv_imgbtn.c ****     LV_LOG_INFO("begin");
  59:Middlewares/LVGL/GUI/lvgl/src/extra/widgets/imgbtn/lv_imgbtn.c ****     lv_obj_t * obj = lv_obj_class_create_obj(MY_CLASS, parent);
  60:Middlewares/LVGL/GUI/lvgl/src/extra/widgets/imgbtn/lv_imgbtn.c ****     lv_obj_class_init_obj(obj);
  61:Middlewares/LVGL/GUI/lvgl/src/extra/widgets/imgbtn/lv_imgbtn.c ****     return obj;
  62:Middlewares/LVGL/GUI/lvgl/src/extra/widgets/imgbtn/lv_imgbtn.c **** }
  63:Middlewares/LVGL/GUI/lvgl/src/extra/widgets/imgbtn/lv_imgbtn.c **** 
  64:Middlewares/LVGL/GUI/lvgl/src/extra/widgets/imgbtn/lv_imgbtn.c **** /*=====================
  65:Middlewares/LVGL/GUI/lvgl/src/extra/widgets/imgbtn/lv_imgbtn.c ****  * Setter functions
  66:Middlewares/LVGL/GUI/lvgl/src/extra/widgets/imgbtn/lv_imgbtn.c ****  *====================*/
  67:Middlewares/LVGL/GUI/lvgl/src/extra/widgets/imgbtn/lv_imgbtn.c **** 
  68:Middlewares/LVGL/GUI/lvgl/src/extra/widgets/imgbtn/lv_imgbtn.c **** /**
  69:Middlewares/LVGL/GUI/lvgl/src/extra/widgets/imgbtn/lv_imgbtn.c ****  * Set images for a state of the image button
  70:Middlewares/LVGL/GUI/lvgl/src/extra/widgets/imgbtn/lv_imgbtn.c ****  * @param obj pointer to an image button object
  71:Middlewares/LVGL/GUI/lvgl/src/extra/widgets/imgbtn/lv_imgbtn.c ****  * @param state for which state set the new image
  72:Middlewares/LVGL/GUI/lvgl/src/extra/widgets/imgbtn/lv_imgbtn.c ****  * @param src_left pointer to an image source for the left side of the button (a C array or path to
  73:Middlewares/LVGL/GUI/lvgl/src/extra/widgets/imgbtn/lv_imgbtn.c ****  * a file)
  74:Middlewares/LVGL/GUI/lvgl/src/extra/widgets/imgbtn/lv_imgbtn.c ****  * @param src_mid pointer to an image source for the middle of the button (ideally 1px wide) (a C
  75:Middlewares/LVGL/GUI/lvgl/src/extra/widgets/imgbtn/lv_imgbtn.c ****  * array or path to a file)
  76:Middlewares/LVGL/GUI/lvgl/src/extra/widgets/imgbtn/lv_imgbtn.c ****  * @param src_right pointer to an image source for the right side of the button (a C array or path
  77:Middlewares/LVGL/GUI/lvgl/src/extra/widgets/imgbtn/lv_imgbtn.c ****  * to a file)
  78:Middlewares/LVGL/GUI/lvgl/src/extra/widgets/imgbtn/lv_imgbtn.c ****  */
  79:Middlewares/LVGL/GUI/lvgl/src/extra/widgets/imgbtn/lv_imgbtn.c **** void lv_imgbtn_set_src(lv_obj_t * obj, lv_imgbtn_state_t state, const void * src_left, const void *
  80:Middlewares/LVGL/GUI/lvgl/src/extra/widgets/imgbtn/lv_imgbtn.c ****                        const void * src_right)
  81:Middlewares/LVGL/GUI/lvgl/src/extra/widgets/imgbtn/lv_imgbtn.c **** {
  82:Middlewares/LVGL/GUI/lvgl/src/extra/widgets/imgbtn/lv_imgbtn.c ****     LV_ASSERT_OBJ(obj, MY_CLASS);
  83:Middlewares/LVGL/GUI/lvgl/src/extra/widgets/imgbtn/lv_imgbtn.c **** 
  84:Middlewares/LVGL/GUI/lvgl/src/extra/widgets/imgbtn/lv_imgbtn.c ****     lv_imgbtn_t * imgbtn = (lv_imgbtn_t *)obj;
  85:Middlewares/LVGL/GUI/lvgl/src/extra/widgets/imgbtn/lv_imgbtn.c **** 
  86:Middlewares/LVGL/GUI/lvgl/src/extra/widgets/imgbtn/lv_imgbtn.c ****     imgbtn->img_src_left[state] = src_left;
  87:Middlewares/LVGL/GUI/lvgl/src/extra/widgets/imgbtn/lv_imgbtn.c ****     imgbtn->img_src_mid[state] = src_mid;
ARM GAS  C:\Users\ADMINI~1\AppData\Local\Temp\ccVzpgJw.s 			page 3


  88:Middlewares/LVGL/GUI/lvgl/src/extra/widgets/imgbtn/lv_imgbtn.c ****     imgbtn->img_src_right[state] = src_right;
  89:Middlewares/LVGL/GUI/lvgl/src/extra/widgets/imgbtn/lv_imgbtn.c **** 
  90:Middlewares/LVGL/GUI/lvgl/src/extra/widgets/imgbtn/lv_imgbtn.c ****     refr_img(obj);
  91:Middlewares/LVGL/GUI/lvgl/src/extra/widgets/imgbtn/lv_imgbtn.c **** }
  92:Middlewares/LVGL/GUI/lvgl/src/extra/widgets/imgbtn/lv_imgbtn.c **** 
  93:Middlewares/LVGL/GUI/lvgl/src/extra/widgets/imgbtn/lv_imgbtn.c **** void lv_imgbtn_set_state(lv_obj_t * obj, lv_imgbtn_state_t state)
  94:Middlewares/LVGL/GUI/lvgl/src/extra/widgets/imgbtn/lv_imgbtn.c **** {
  95:Middlewares/LVGL/GUI/lvgl/src/extra/widgets/imgbtn/lv_imgbtn.c ****     LV_ASSERT_OBJ(obj, MY_CLASS);
  96:Middlewares/LVGL/GUI/lvgl/src/extra/widgets/imgbtn/lv_imgbtn.c **** 
  97:Middlewares/LVGL/GUI/lvgl/src/extra/widgets/imgbtn/lv_imgbtn.c ****     lv_state_t obj_state = LV_STATE_DEFAULT;
  98:Middlewares/LVGL/GUI/lvgl/src/extra/widgets/imgbtn/lv_imgbtn.c ****     if(state == LV_IMGBTN_STATE_PRESSED || state == LV_IMGBTN_STATE_CHECKED_PRESSED) obj_state |= L
  99:Middlewares/LVGL/GUI/lvgl/src/extra/widgets/imgbtn/lv_imgbtn.c ****     if(state == LV_IMGBTN_STATE_DISABLED || state == LV_IMGBTN_STATE_CHECKED_DISABLED) obj_state |=
 100:Middlewares/LVGL/GUI/lvgl/src/extra/widgets/imgbtn/lv_imgbtn.c ****     if(state == LV_IMGBTN_STATE_CHECKED_DISABLED || state == LV_IMGBTN_STATE_CHECKED_PRESSED ||
 101:Middlewares/LVGL/GUI/lvgl/src/extra/widgets/imgbtn/lv_imgbtn.c ****        state == LV_IMGBTN_STATE_CHECKED_RELEASED) {
 102:Middlewares/LVGL/GUI/lvgl/src/extra/widgets/imgbtn/lv_imgbtn.c ****         obj_state |= LV_STATE_CHECKED;
 103:Middlewares/LVGL/GUI/lvgl/src/extra/widgets/imgbtn/lv_imgbtn.c ****     }
 104:Middlewares/LVGL/GUI/lvgl/src/extra/widgets/imgbtn/lv_imgbtn.c **** 
 105:Middlewares/LVGL/GUI/lvgl/src/extra/widgets/imgbtn/lv_imgbtn.c ****     lv_obj_clear_state(obj, LV_STATE_CHECKED | LV_STATE_PRESSED | LV_STATE_DISABLED);
 106:Middlewares/LVGL/GUI/lvgl/src/extra/widgets/imgbtn/lv_imgbtn.c ****     lv_obj_add_state(obj, obj_state);
 107:Middlewares/LVGL/GUI/lvgl/src/extra/widgets/imgbtn/lv_imgbtn.c **** 
 108:Middlewares/LVGL/GUI/lvgl/src/extra/widgets/imgbtn/lv_imgbtn.c ****     refr_img(obj);
 109:Middlewares/LVGL/GUI/lvgl/src/extra/widgets/imgbtn/lv_imgbtn.c **** }
 110:Middlewares/LVGL/GUI/lvgl/src/extra/widgets/imgbtn/lv_imgbtn.c **** 
 111:Middlewares/LVGL/GUI/lvgl/src/extra/widgets/imgbtn/lv_imgbtn.c **** /*=====================
 112:Middlewares/LVGL/GUI/lvgl/src/extra/widgets/imgbtn/lv_imgbtn.c ****  * Getter functions
 113:Middlewares/LVGL/GUI/lvgl/src/extra/widgets/imgbtn/lv_imgbtn.c ****  *====================*/
 114:Middlewares/LVGL/GUI/lvgl/src/extra/widgets/imgbtn/lv_imgbtn.c **** 
 115:Middlewares/LVGL/GUI/lvgl/src/extra/widgets/imgbtn/lv_imgbtn.c **** 
 116:Middlewares/LVGL/GUI/lvgl/src/extra/widgets/imgbtn/lv_imgbtn.c **** /**
 117:Middlewares/LVGL/GUI/lvgl/src/extra/widgets/imgbtn/lv_imgbtn.c ****  * Get the left image in a given state
 118:Middlewares/LVGL/GUI/lvgl/src/extra/widgets/imgbtn/lv_imgbtn.c ****  * @param obj pointer to an image button object
 119:Middlewares/LVGL/GUI/lvgl/src/extra/widgets/imgbtn/lv_imgbtn.c ****  * @param state the state where to get the image (from `lv_btn_state_t`) `
 120:Middlewares/LVGL/GUI/lvgl/src/extra/widgets/imgbtn/lv_imgbtn.c ****  * @return pointer to the left image source (a C array or path to a file)
 121:Middlewares/LVGL/GUI/lvgl/src/extra/widgets/imgbtn/lv_imgbtn.c ****  */
 122:Middlewares/LVGL/GUI/lvgl/src/extra/widgets/imgbtn/lv_imgbtn.c **** const void * lv_imgbtn_get_src_left(lv_obj_t * obj, lv_imgbtn_state_t state)
 123:Middlewares/LVGL/GUI/lvgl/src/extra/widgets/imgbtn/lv_imgbtn.c **** {
 124:Middlewares/LVGL/GUI/lvgl/src/extra/widgets/imgbtn/lv_imgbtn.c ****     LV_ASSERT_OBJ(obj, MY_CLASS);
 125:Middlewares/LVGL/GUI/lvgl/src/extra/widgets/imgbtn/lv_imgbtn.c **** 
 126:Middlewares/LVGL/GUI/lvgl/src/extra/widgets/imgbtn/lv_imgbtn.c ****     lv_imgbtn_t * imgbtn = (lv_imgbtn_t *)obj;
 127:Middlewares/LVGL/GUI/lvgl/src/extra/widgets/imgbtn/lv_imgbtn.c **** 
 128:Middlewares/LVGL/GUI/lvgl/src/extra/widgets/imgbtn/lv_imgbtn.c ****     return imgbtn->img_src_left[state];
 129:Middlewares/LVGL/GUI/lvgl/src/extra/widgets/imgbtn/lv_imgbtn.c **** }
 130:Middlewares/LVGL/GUI/lvgl/src/extra/widgets/imgbtn/lv_imgbtn.c **** 
 131:Middlewares/LVGL/GUI/lvgl/src/extra/widgets/imgbtn/lv_imgbtn.c **** /**
 132:Middlewares/LVGL/GUI/lvgl/src/extra/widgets/imgbtn/lv_imgbtn.c ****  * Get the middle image in a given state
 133:Middlewares/LVGL/GUI/lvgl/src/extra/widgets/imgbtn/lv_imgbtn.c ****  * @param obj pointer to an image button object
 134:Middlewares/LVGL/GUI/lvgl/src/extra/widgets/imgbtn/lv_imgbtn.c ****  * @param state the state where to get the image (from `lv_btn_state_t`) `
 135:Middlewares/LVGL/GUI/lvgl/src/extra/widgets/imgbtn/lv_imgbtn.c ****  * @return pointer to the middle image source (a C array or path to a file)
 136:Middlewares/LVGL/GUI/lvgl/src/extra/widgets/imgbtn/lv_imgbtn.c ****  */
 137:Middlewares/LVGL/GUI/lvgl/src/extra/widgets/imgbtn/lv_imgbtn.c **** const void * lv_imgbtn_get_src_middle(lv_obj_t * obj, lv_imgbtn_state_t state)
 138:Middlewares/LVGL/GUI/lvgl/src/extra/widgets/imgbtn/lv_imgbtn.c **** {
 139:Middlewares/LVGL/GUI/lvgl/src/extra/widgets/imgbtn/lv_imgbtn.c ****     LV_ASSERT_OBJ(obj, MY_CLASS);
 140:Middlewares/LVGL/GUI/lvgl/src/extra/widgets/imgbtn/lv_imgbtn.c ****     lv_imgbtn_t * imgbtn = (lv_imgbtn_t *)obj;
 141:Middlewares/LVGL/GUI/lvgl/src/extra/widgets/imgbtn/lv_imgbtn.c **** 
 142:Middlewares/LVGL/GUI/lvgl/src/extra/widgets/imgbtn/lv_imgbtn.c ****     return imgbtn->img_src_mid[state];
 143:Middlewares/LVGL/GUI/lvgl/src/extra/widgets/imgbtn/lv_imgbtn.c **** }
 144:Middlewares/LVGL/GUI/lvgl/src/extra/widgets/imgbtn/lv_imgbtn.c **** 
ARM GAS  C:\Users\ADMINI~1\AppData\Local\Temp\ccVzpgJw.s 			page 4


 145:Middlewares/LVGL/GUI/lvgl/src/extra/widgets/imgbtn/lv_imgbtn.c **** /**
 146:Middlewares/LVGL/GUI/lvgl/src/extra/widgets/imgbtn/lv_imgbtn.c ****  * Get the right image in a given state
 147:Middlewares/LVGL/GUI/lvgl/src/extra/widgets/imgbtn/lv_imgbtn.c ****  * @param obj pointer to an image button object
 148:Middlewares/LVGL/GUI/lvgl/src/extra/widgets/imgbtn/lv_imgbtn.c ****  * @param state the state where to get the image (from `lv_btn_state_t`) `
 149:Middlewares/LVGL/GUI/lvgl/src/extra/widgets/imgbtn/lv_imgbtn.c ****  * @return pointer to the left image source (a C array or path to a file)
 150:Middlewares/LVGL/GUI/lvgl/src/extra/widgets/imgbtn/lv_imgbtn.c ****  */
 151:Middlewares/LVGL/GUI/lvgl/src/extra/widgets/imgbtn/lv_imgbtn.c **** const void * lv_imgbtn_get_src_right(lv_obj_t * obj, lv_imgbtn_state_t state)
 152:Middlewares/LVGL/GUI/lvgl/src/extra/widgets/imgbtn/lv_imgbtn.c **** {
 153:Middlewares/LVGL/GUI/lvgl/src/extra/widgets/imgbtn/lv_imgbtn.c ****     LV_ASSERT_OBJ(obj, MY_CLASS);
 154:Middlewares/LVGL/GUI/lvgl/src/extra/widgets/imgbtn/lv_imgbtn.c ****     lv_imgbtn_t * imgbtn = (lv_imgbtn_t *)obj;
 155:Middlewares/LVGL/GUI/lvgl/src/extra/widgets/imgbtn/lv_imgbtn.c **** 
 156:Middlewares/LVGL/GUI/lvgl/src/extra/widgets/imgbtn/lv_imgbtn.c ****     return imgbtn->img_src_right[state];
 157:Middlewares/LVGL/GUI/lvgl/src/extra/widgets/imgbtn/lv_imgbtn.c **** }
 158:Middlewares/LVGL/GUI/lvgl/src/extra/widgets/imgbtn/lv_imgbtn.c **** 
 159:Middlewares/LVGL/GUI/lvgl/src/extra/widgets/imgbtn/lv_imgbtn.c **** 
 160:Middlewares/LVGL/GUI/lvgl/src/extra/widgets/imgbtn/lv_imgbtn.c **** /**********************
 161:Middlewares/LVGL/GUI/lvgl/src/extra/widgets/imgbtn/lv_imgbtn.c ****  *   STATIC FUNCTIONS
 162:Middlewares/LVGL/GUI/lvgl/src/extra/widgets/imgbtn/lv_imgbtn.c ****  **********************/
 163:Middlewares/LVGL/GUI/lvgl/src/extra/widgets/imgbtn/lv_imgbtn.c **** 
 164:Middlewares/LVGL/GUI/lvgl/src/extra/widgets/imgbtn/lv_imgbtn.c **** static void lv_imgbtn_constructor(const lv_obj_class_t * class_p, lv_obj_t * obj)
 165:Middlewares/LVGL/GUI/lvgl/src/extra/widgets/imgbtn/lv_imgbtn.c **** {
 166:Middlewares/LVGL/GUI/lvgl/src/extra/widgets/imgbtn/lv_imgbtn.c ****     LV_UNUSED(class_p);
 167:Middlewares/LVGL/GUI/lvgl/src/extra/widgets/imgbtn/lv_imgbtn.c ****     lv_imgbtn_t * imgbtn = (lv_imgbtn_t *)obj;
 168:Middlewares/LVGL/GUI/lvgl/src/extra/widgets/imgbtn/lv_imgbtn.c ****     /*Initialize the allocated 'ext'*/
 169:Middlewares/LVGL/GUI/lvgl/src/extra/widgets/imgbtn/lv_imgbtn.c ****     lv_memset_00((void *)imgbtn->img_src_mid, sizeof(imgbtn->img_src_mid));
 170:Middlewares/LVGL/GUI/lvgl/src/extra/widgets/imgbtn/lv_imgbtn.c ****     lv_memset_00(imgbtn->img_src_left, sizeof(imgbtn->img_src_left));
 171:Middlewares/LVGL/GUI/lvgl/src/extra/widgets/imgbtn/lv_imgbtn.c ****     lv_memset_00(imgbtn->img_src_right, sizeof(imgbtn->img_src_right));
 172:Middlewares/LVGL/GUI/lvgl/src/extra/widgets/imgbtn/lv_imgbtn.c **** 
 173:Middlewares/LVGL/GUI/lvgl/src/extra/widgets/imgbtn/lv_imgbtn.c ****     imgbtn->act_cf = LV_IMG_CF_UNKNOWN;
 174:Middlewares/LVGL/GUI/lvgl/src/extra/widgets/imgbtn/lv_imgbtn.c **** }
 175:Middlewares/LVGL/GUI/lvgl/src/extra/widgets/imgbtn/lv_imgbtn.c **** 
 176:Middlewares/LVGL/GUI/lvgl/src/extra/widgets/imgbtn/lv_imgbtn.c **** 
 177:Middlewares/LVGL/GUI/lvgl/src/extra/widgets/imgbtn/lv_imgbtn.c **** static void lv_imgbtn_event(const lv_obj_class_t * class_p, lv_event_t * e)
 178:Middlewares/LVGL/GUI/lvgl/src/extra/widgets/imgbtn/lv_imgbtn.c **** {
 179:Middlewares/LVGL/GUI/lvgl/src/extra/widgets/imgbtn/lv_imgbtn.c ****     LV_UNUSED(class_p);
 180:Middlewares/LVGL/GUI/lvgl/src/extra/widgets/imgbtn/lv_imgbtn.c **** 
 181:Middlewares/LVGL/GUI/lvgl/src/extra/widgets/imgbtn/lv_imgbtn.c ****     lv_res_t res = lv_obj_event_base(&lv_imgbtn_class, e);
 182:Middlewares/LVGL/GUI/lvgl/src/extra/widgets/imgbtn/lv_imgbtn.c ****     if(res != LV_RES_OK) return;
 183:Middlewares/LVGL/GUI/lvgl/src/extra/widgets/imgbtn/lv_imgbtn.c **** 
 184:Middlewares/LVGL/GUI/lvgl/src/extra/widgets/imgbtn/lv_imgbtn.c ****     lv_event_code_t code = lv_event_get_code(e);
 185:Middlewares/LVGL/GUI/lvgl/src/extra/widgets/imgbtn/lv_imgbtn.c ****     lv_obj_t * obj = lv_event_get_target(e);
 186:Middlewares/LVGL/GUI/lvgl/src/extra/widgets/imgbtn/lv_imgbtn.c ****     if(code == LV_EVENT_PRESSED || code == LV_EVENT_RELEASED || code == LV_EVENT_PRESS_LOST) {
 187:Middlewares/LVGL/GUI/lvgl/src/extra/widgets/imgbtn/lv_imgbtn.c ****         refr_img(obj);
 188:Middlewares/LVGL/GUI/lvgl/src/extra/widgets/imgbtn/lv_imgbtn.c ****     }
 189:Middlewares/LVGL/GUI/lvgl/src/extra/widgets/imgbtn/lv_imgbtn.c ****     else if(code == LV_EVENT_DRAW_MAIN) {
 190:Middlewares/LVGL/GUI/lvgl/src/extra/widgets/imgbtn/lv_imgbtn.c ****         draw_main(e);
 191:Middlewares/LVGL/GUI/lvgl/src/extra/widgets/imgbtn/lv_imgbtn.c ****     }
 192:Middlewares/LVGL/GUI/lvgl/src/extra/widgets/imgbtn/lv_imgbtn.c ****     else if(code == LV_EVENT_COVER_CHECK) {
 193:Middlewares/LVGL/GUI/lvgl/src/extra/widgets/imgbtn/lv_imgbtn.c ****         lv_cover_check_info_t * info = lv_event_get_param(e);
 194:Middlewares/LVGL/GUI/lvgl/src/extra/widgets/imgbtn/lv_imgbtn.c ****         if(info->res != LV_COVER_RES_MASKED) info->res = LV_COVER_RES_NOT_COVER;
 195:Middlewares/LVGL/GUI/lvgl/src/extra/widgets/imgbtn/lv_imgbtn.c ****     }
 196:Middlewares/LVGL/GUI/lvgl/src/extra/widgets/imgbtn/lv_imgbtn.c ****     else if(code == LV_EVENT_GET_SELF_SIZE) {
 197:Middlewares/LVGL/GUI/lvgl/src/extra/widgets/imgbtn/lv_imgbtn.c ****         lv_point_t * p = lv_event_get_self_size_info(e);
 198:Middlewares/LVGL/GUI/lvgl/src/extra/widgets/imgbtn/lv_imgbtn.c ****         lv_imgbtn_t * imgbtn = (lv_imgbtn_t *)obj;
 199:Middlewares/LVGL/GUI/lvgl/src/extra/widgets/imgbtn/lv_imgbtn.c ****         lv_imgbtn_state_t state  = suggest_state(obj, get_state(obj));
 200:Middlewares/LVGL/GUI/lvgl/src/extra/widgets/imgbtn/lv_imgbtn.c ****         if(imgbtn->img_src_left[state] == NULL &&
 201:Middlewares/LVGL/GUI/lvgl/src/extra/widgets/imgbtn/lv_imgbtn.c ****            imgbtn->img_src_mid[state] != NULL &&
ARM GAS  C:\Users\ADMINI~1\AppData\Local\Temp\ccVzpgJw.s 			page 5


 202:Middlewares/LVGL/GUI/lvgl/src/extra/widgets/imgbtn/lv_imgbtn.c ****            imgbtn->img_src_right[state] == NULL) {
 203:Middlewares/LVGL/GUI/lvgl/src/extra/widgets/imgbtn/lv_imgbtn.c ****             lv_img_header_t header;
 204:Middlewares/LVGL/GUI/lvgl/src/extra/widgets/imgbtn/lv_imgbtn.c ****             lv_img_decoder_get_info(imgbtn->img_src_mid[state], &header);
 205:Middlewares/LVGL/GUI/lvgl/src/extra/widgets/imgbtn/lv_imgbtn.c ****             p->x = LV_MAX(p->x, header.w);
 206:Middlewares/LVGL/GUI/lvgl/src/extra/widgets/imgbtn/lv_imgbtn.c ****         }
 207:Middlewares/LVGL/GUI/lvgl/src/extra/widgets/imgbtn/lv_imgbtn.c ****     }
 208:Middlewares/LVGL/GUI/lvgl/src/extra/widgets/imgbtn/lv_imgbtn.c **** }
 209:Middlewares/LVGL/GUI/lvgl/src/extra/widgets/imgbtn/lv_imgbtn.c **** 
 210:Middlewares/LVGL/GUI/lvgl/src/extra/widgets/imgbtn/lv_imgbtn.c **** static void draw_main(lv_event_t * e)
 211:Middlewares/LVGL/GUI/lvgl/src/extra/widgets/imgbtn/lv_imgbtn.c **** {
 212:Middlewares/LVGL/GUI/lvgl/src/extra/widgets/imgbtn/lv_imgbtn.c ****     lv_obj_t * obj = lv_event_get_target(e);
 213:Middlewares/LVGL/GUI/lvgl/src/extra/widgets/imgbtn/lv_imgbtn.c ****     lv_imgbtn_t * imgbtn = (lv_imgbtn_t *)obj;
 214:Middlewares/LVGL/GUI/lvgl/src/extra/widgets/imgbtn/lv_imgbtn.c ****     lv_draw_ctx_t * draw_ctx = lv_event_get_draw_ctx(e);
 215:Middlewares/LVGL/GUI/lvgl/src/extra/widgets/imgbtn/lv_imgbtn.c **** 
 216:Middlewares/LVGL/GUI/lvgl/src/extra/widgets/imgbtn/lv_imgbtn.c ****     /*Just draw_main an image*/
 217:Middlewares/LVGL/GUI/lvgl/src/extra/widgets/imgbtn/lv_imgbtn.c ****     lv_imgbtn_state_t state  = suggest_state(obj, get_state(obj));
 218:Middlewares/LVGL/GUI/lvgl/src/extra/widgets/imgbtn/lv_imgbtn.c **** 
 219:Middlewares/LVGL/GUI/lvgl/src/extra/widgets/imgbtn/lv_imgbtn.c ****     /*Simply draw the middle src if no tiled*/
 220:Middlewares/LVGL/GUI/lvgl/src/extra/widgets/imgbtn/lv_imgbtn.c ****     const void * src = imgbtn->img_src_left[state];
 221:Middlewares/LVGL/GUI/lvgl/src/extra/widgets/imgbtn/lv_imgbtn.c **** 
 222:Middlewares/LVGL/GUI/lvgl/src/extra/widgets/imgbtn/lv_imgbtn.c ****     lv_coord_t tw = lv_obj_get_style_transform_width(obj, LV_PART_MAIN);
 223:Middlewares/LVGL/GUI/lvgl/src/extra/widgets/imgbtn/lv_imgbtn.c ****     lv_coord_t th = lv_obj_get_style_transform_height(obj, LV_PART_MAIN);
 224:Middlewares/LVGL/GUI/lvgl/src/extra/widgets/imgbtn/lv_imgbtn.c ****     lv_area_t coords;
 225:Middlewares/LVGL/GUI/lvgl/src/extra/widgets/imgbtn/lv_imgbtn.c ****     lv_area_copy(&coords, &obj->coords);
 226:Middlewares/LVGL/GUI/lvgl/src/extra/widgets/imgbtn/lv_imgbtn.c ****     coords.x1 -= tw;
 227:Middlewares/LVGL/GUI/lvgl/src/extra/widgets/imgbtn/lv_imgbtn.c ****     coords.x2 += tw;
 228:Middlewares/LVGL/GUI/lvgl/src/extra/widgets/imgbtn/lv_imgbtn.c ****     coords.y1 -= th;
 229:Middlewares/LVGL/GUI/lvgl/src/extra/widgets/imgbtn/lv_imgbtn.c ****     coords.y2 += th;
 230:Middlewares/LVGL/GUI/lvgl/src/extra/widgets/imgbtn/lv_imgbtn.c **** 
 231:Middlewares/LVGL/GUI/lvgl/src/extra/widgets/imgbtn/lv_imgbtn.c ****     lv_draw_img_dsc_t img_dsc;
 232:Middlewares/LVGL/GUI/lvgl/src/extra/widgets/imgbtn/lv_imgbtn.c ****     lv_draw_img_dsc_init(&img_dsc);
 233:Middlewares/LVGL/GUI/lvgl/src/extra/widgets/imgbtn/lv_imgbtn.c ****     lv_obj_init_draw_img_dsc(obj, LV_PART_MAIN, &img_dsc);
 234:Middlewares/LVGL/GUI/lvgl/src/extra/widgets/imgbtn/lv_imgbtn.c **** 
 235:Middlewares/LVGL/GUI/lvgl/src/extra/widgets/imgbtn/lv_imgbtn.c ****     lv_img_header_t header;
 236:Middlewares/LVGL/GUI/lvgl/src/extra/widgets/imgbtn/lv_imgbtn.c ****     lv_area_t coords_part;
 237:Middlewares/LVGL/GUI/lvgl/src/extra/widgets/imgbtn/lv_imgbtn.c ****     lv_coord_t left_w = 0;
 238:Middlewares/LVGL/GUI/lvgl/src/extra/widgets/imgbtn/lv_imgbtn.c ****     lv_coord_t right_w = 0;
 239:Middlewares/LVGL/GUI/lvgl/src/extra/widgets/imgbtn/lv_imgbtn.c **** 
 240:Middlewares/LVGL/GUI/lvgl/src/extra/widgets/imgbtn/lv_imgbtn.c ****     if(src) {
 241:Middlewares/LVGL/GUI/lvgl/src/extra/widgets/imgbtn/lv_imgbtn.c ****         lv_img_decoder_get_info(src, &header);
 242:Middlewares/LVGL/GUI/lvgl/src/extra/widgets/imgbtn/lv_imgbtn.c ****         left_w = header.w;
 243:Middlewares/LVGL/GUI/lvgl/src/extra/widgets/imgbtn/lv_imgbtn.c ****         coords_part.x1 = coords.x1;
 244:Middlewares/LVGL/GUI/lvgl/src/extra/widgets/imgbtn/lv_imgbtn.c ****         coords_part.y1 = coords.y1;
 245:Middlewares/LVGL/GUI/lvgl/src/extra/widgets/imgbtn/lv_imgbtn.c ****         coords_part.x2 = coords.x1 + header.w - 1;
 246:Middlewares/LVGL/GUI/lvgl/src/extra/widgets/imgbtn/lv_imgbtn.c ****         coords_part.y2 = coords.y1 + header.h - 1;
 247:Middlewares/LVGL/GUI/lvgl/src/extra/widgets/imgbtn/lv_imgbtn.c ****         lv_draw_img(draw_ctx, &img_dsc, &coords_part, src);
 248:Middlewares/LVGL/GUI/lvgl/src/extra/widgets/imgbtn/lv_imgbtn.c ****     }
 249:Middlewares/LVGL/GUI/lvgl/src/extra/widgets/imgbtn/lv_imgbtn.c **** 
 250:Middlewares/LVGL/GUI/lvgl/src/extra/widgets/imgbtn/lv_imgbtn.c ****     src = imgbtn->img_src_right[state];
 251:Middlewares/LVGL/GUI/lvgl/src/extra/widgets/imgbtn/lv_imgbtn.c ****     if(src) {
 252:Middlewares/LVGL/GUI/lvgl/src/extra/widgets/imgbtn/lv_imgbtn.c ****         lv_img_decoder_get_info(src, &header);
 253:Middlewares/LVGL/GUI/lvgl/src/extra/widgets/imgbtn/lv_imgbtn.c ****         right_w = header.w;
 254:Middlewares/LVGL/GUI/lvgl/src/extra/widgets/imgbtn/lv_imgbtn.c ****         coords_part.x1 = coords.x2 - header.w + 1;
 255:Middlewares/LVGL/GUI/lvgl/src/extra/widgets/imgbtn/lv_imgbtn.c ****         coords_part.y1 = coords.y1;
 256:Middlewares/LVGL/GUI/lvgl/src/extra/widgets/imgbtn/lv_imgbtn.c ****         coords_part.x2 = coords.x2;
 257:Middlewares/LVGL/GUI/lvgl/src/extra/widgets/imgbtn/lv_imgbtn.c ****         coords_part.y2 = coords.y1 + header.h - 1;
 258:Middlewares/LVGL/GUI/lvgl/src/extra/widgets/imgbtn/lv_imgbtn.c ****         lv_draw_img(draw_ctx, &img_dsc, &coords_part, src);
ARM GAS  C:\Users\ADMINI~1\AppData\Local\Temp\ccVzpgJw.s 			page 6


 259:Middlewares/LVGL/GUI/lvgl/src/extra/widgets/imgbtn/lv_imgbtn.c ****     }
 260:Middlewares/LVGL/GUI/lvgl/src/extra/widgets/imgbtn/lv_imgbtn.c **** 
 261:Middlewares/LVGL/GUI/lvgl/src/extra/widgets/imgbtn/lv_imgbtn.c ****     src = imgbtn->img_src_mid[state];
 262:Middlewares/LVGL/GUI/lvgl/src/extra/widgets/imgbtn/lv_imgbtn.c ****     if(src) {
 263:Middlewares/LVGL/GUI/lvgl/src/extra/widgets/imgbtn/lv_imgbtn.c ****         lv_area_t clip_area_center;
 264:Middlewares/LVGL/GUI/lvgl/src/extra/widgets/imgbtn/lv_imgbtn.c ****         clip_area_center.x1 = coords.x1 + left_w;
 265:Middlewares/LVGL/GUI/lvgl/src/extra/widgets/imgbtn/lv_imgbtn.c ****         clip_area_center.x2 = coords.x2 - right_w;
 266:Middlewares/LVGL/GUI/lvgl/src/extra/widgets/imgbtn/lv_imgbtn.c ****         clip_area_center.y1 = coords.y1;
 267:Middlewares/LVGL/GUI/lvgl/src/extra/widgets/imgbtn/lv_imgbtn.c ****         clip_area_center.y2 = coords.y2;
 268:Middlewares/LVGL/GUI/lvgl/src/extra/widgets/imgbtn/lv_imgbtn.c **** 
 269:Middlewares/LVGL/GUI/lvgl/src/extra/widgets/imgbtn/lv_imgbtn.c **** 
 270:Middlewares/LVGL/GUI/lvgl/src/extra/widgets/imgbtn/lv_imgbtn.c ****         bool comm_res;
 271:Middlewares/LVGL/GUI/lvgl/src/extra/widgets/imgbtn/lv_imgbtn.c ****         comm_res = _lv_area_intersect(&clip_area_center, &clip_area_center, draw_ctx->clip_area);
 272:Middlewares/LVGL/GUI/lvgl/src/extra/widgets/imgbtn/lv_imgbtn.c ****         if(comm_res) {
 273:Middlewares/LVGL/GUI/lvgl/src/extra/widgets/imgbtn/lv_imgbtn.c ****             lv_coord_t i;
 274:Middlewares/LVGL/GUI/lvgl/src/extra/widgets/imgbtn/lv_imgbtn.c ****             lv_img_decoder_get_info(src, &header);
 275:Middlewares/LVGL/GUI/lvgl/src/extra/widgets/imgbtn/lv_imgbtn.c **** 
 276:Middlewares/LVGL/GUI/lvgl/src/extra/widgets/imgbtn/lv_imgbtn.c ****             const lv_area_t * clip_area_ori = draw_ctx->clip_area;
 277:Middlewares/LVGL/GUI/lvgl/src/extra/widgets/imgbtn/lv_imgbtn.c ****             draw_ctx->clip_area = &clip_area_center;
 278:Middlewares/LVGL/GUI/lvgl/src/extra/widgets/imgbtn/lv_imgbtn.c **** 
 279:Middlewares/LVGL/GUI/lvgl/src/extra/widgets/imgbtn/lv_imgbtn.c ****             coords_part.x1 = coords.x1 + left_w;
 280:Middlewares/LVGL/GUI/lvgl/src/extra/widgets/imgbtn/lv_imgbtn.c ****             coords_part.y1 = coords.y1;
 281:Middlewares/LVGL/GUI/lvgl/src/extra/widgets/imgbtn/lv_imgbtn.c ****             coords_part.x2 = coords_part.x1 + header.w - 1;
 282:Middlewares/LVGL/GUI/lvgl/src/extra/widgets/imgbtn/lv_imgbtn.c ****             coords_part.y2 = coords_part.y1 + header.h - 1;
 283:Middlewares/LVGL/GUI/lvgl/src/extra/widgets/imgbtn/lv_imgbtn.c **** 
 284:Middlewares/LVGL/GUI/lvgl/src/extra/widgets/imgbtn/lv_imgbtn.c ****             for(i = coords_part.x1; i < (lv_coord_t)(clip_area_center.x2 + header.w - 1); i += head
 285:Middlewares/LVGL/GUI/lvgl/src/extra/widgets/imgbtn/lv_imgbtn.c ****                 lv_draw_img(draw_ctx, &img_dsc, &coords_part, src);
 286:Middlewares/LVGL/GUI/lvgl/src/extra/widgets/imgbtn/lv_imgbtn.c ****                 coords_part.x1 = coords_part.x2 + 1;
 287:Middlewares/LVGL/GUI/lvgl/src/extra/widgets/imgbtn/lv_imgbtn.c ****                 coords_part.x2 += header.w;
 288:Middlewares/LVGL/GUI/lvgl/src/extra/widgets/imgbtn/lv_imgbtn.c ****             }
 289:Middlewares/LVGL/GUI/lvgl/src/extra/widgets/imgbtn/lv_imgbtn.c ****             draw_ctx->clip_area = clip_area_ori;
 290:Middlewares/LVGL/GUI/lvgl/src/extra/widgets/imgbtn/lv_imgbtn.c ****         }
 291:Middlewares/LVGL/GUI/lvgl/src/extra/widgets/imgbtn/lv_imgbtn.c ****     }
 292:Middlewares/LVGL/GUI/lvgl/src/extra/widgets/imgbtn/lv_imgbtn.c **** }
 293:Middlewares/LVGL/GUI/lvgl/src/extra/widgets/imgbtn/lv_imgbtn.c **** 
 294:Middlewares/LVGL/GUI/lvgl/src/extra/widgets/imgbtn/lv_imgbtn.c **** static void refr_img(lv_obj_t * obj)
 295:Middlewares/LVGL/GUI/lvgl/src/extra/widgets/imgbtn/lv_imgbtn.c **** {
 296:Middlewares/LVGL/GUI/lvgl/src/extra/widgets/imgbtn/lv_imgbtn.c ****     lv_imgbtn_t * imgbtn = (lv_imgbtn_t *)obj;
 297:Middlewares/LVGL/GUI/lvgl/src/extra/widgets/imgbtn/lv_imgbtn.c ****     lv_imgbtn_state_t state  = suggest_state(obj, get_state(obj));
 298:Middlewares/LVGL/GUI/lvgl/src/extra/widgets/imgbtn/lv_imgbtn.c ****     lv_img_header_t header;
 299:Middlewares/LVGL/GUI/lvgl/src/extra/widgets/imgbtn/lv_imgbtn.c **** 
 300:Middlewares/LVGL/GUI/lvgl/src/extra/widgets/imgbtn/lv_imgbtn.c ****     const void * src = imgbtn->img_src_mid[state];
 301:Middlewares/LVGL/GUI/lvgl/src/extra/widgets/imgbtn/lv_imgbtn.c ****     if(src == NULL) return;
 302:Middlewares/LVGL/GUI/lvgl/src/extra/widgets/imgbtn/lv_imgbtn.c **** 
 303:Middlewares/LVGL/GUI/lvgl/src/extra/widgets/imgbtn/lv_imgbtn.c ****     lv_res_t info_res = LV_RES_OK;
 304:Middlewares/LVGL/GUI/lvgl/src/extra/widgets/imgbtn/lv_imgbtn.c ****     info_res = lv_img_decoder_get_info(src, &header);
 305:Middlewares/LVGL/GUI/lvgl/src/extra/widgets/imgbtn/lv_imgbtn.c **** 
 306:Middlewares/LVGL/GUI/lvgl/src/extra/widgets/imgbtn/lv_imgbtn.c ****     if(info_res == LV_RES_OK) {
 307:Middlewares/LVGL/GUI/lvgl/src/extra/widgets/imgbtn/lv_imgbtn.c ****         imgbtn->act_cf = header.cf;
 308:Middlewares/LVGL/GUI/lvgl/src/extra/widgets/imgbtn/lv_imgbtn.c ****         lv_obj_refresh_self_size(obj);
 309:Middlewares/LVGL/GUI/lvgl/src/extra/widgets/imgbtn/lv_imgbtn.c ****         lv_obj_set_height(obj, header.h); /*Keep the user defined width*/
 310:Middlewares/LVGL/GUI/lvgl/src/extra/widgets/imgbtn/lv_imgbtn.c ****     }
 311:Middlewares/LVGL/GUI/lvgl/src/extra/widgets/imgbtn/lv_imgbtn.c ****     else {
 312:Middlewares/LVGL/GUI/lvgl/src/extra/widgets/imgbtn/lv_imgbtn.c ****         imgbtn->act_cf = LV_IMG_CF_UNKNOWN;
 313:Middlewares/LVGL/GUI/lvgl/src/extra/widgets/imgbtn/lv_imgbtn.c ****     }
 314:Middlewares/LVGL/GUI/lvgl/src/extra/widgets/imgbtn/lv_imgbtn.c **** 
 315:Middlewares/LVGL/GUI/lvgl/src/extra/widgets/imgbtn/lv_imgbtn.c ****     lv_obj_invalidate(obj);
ARM GAS  C:\Users\ADMINI~1\AppData\Local\Temp\ccVzpgJw.s 			page 7


 316:Middlewares/LVGL/GUI/lvgl/src/extra/widgets/imgbtn/lv_imgbtn.c **** }
 317:Middlewares/LVGL/GUI/lvgl/src/extra/widgets/imgbtn/lv_imgbtn.c **** 
 318:Middlewares/LVGL/GUI/lvgl/src/extra/widgets/imgbtn/lv_imgbtn.c **** /**
 319:Middlewares/LVGL/GUI/lvgl/src/extra/widgets/imgbtn/lv_imgbtn.c ****  * If `src` is not defined for the current state try to get a state which is related to the current
 320:Middlewares/LVGL/GUI/lvgl/src/extra/widgets/imgbtn/lv_imgbtn.c ****  * E.g. if the PRESSED src is not set but the RELEASED does, use the RELEASED.
 321:Middlewares/LVGL/GUI/lvgl/src/extra/widgets/imgbtn/lv_imgbtn.c ****  * @param imgbtn pointer to an image button
 322:Middlewares/LVGL/GUI/lvgl/src/extra/widgets/imgbtn/lv_imgbtn.c ****  * @param state the state to convert
 323:Middlewares/LVGL/GUI/lvgl/src/extra/widgets/imgbtn/lv_imgbtn.c ****  * @return the suggested state
 324:Middlewares/LVGL/GUI/lvgl/src/extra/widgets/imgbtn/lv_imgbtn.c ****  */
 325:Middlewares/LVGL/GUI/lvgl/src/extra/widgets/imgbtn/lv_imgbtn.c **** static lv_imgbtn_state_t suggest_state(lv_obj_t * obj, lv_imgbtn_state_t state)
 326:Middlewares/LVGL/GUI/lvgl/src/extra/widgets/imgbtn/lv_imgbtn.c **** {
  29              		.loc 1 326 1 view -0
  30              		.cfi_startproc
  31              		@ args = 0, pretend = 0, frame = 0
  32              		@ frame_needed = 0, uses_anonymous_args = 0
  33              		@ link register save eliminated.
  34              		.loc 1 326 1 is_stmt 0 view .LVU1
  35 0000 0346     		mov	r3, r0
  36 0002 0846     		mov	r0, r1
  37              	.LVL1:
 327:Middlewares/LVGL/GUI/lvgl/src/extra/widgets/imgbtn/lv_imgbtn.c ****     lv_imgbtn_t * imgbtn = (lv_imgbtn_t *)obj;
  38              		.loc 1 327 5 is_stmt 1 view .LVU2
 328:Middlewares/LVGL/GUI/lvgl/src/extra/widgets/imgbtn/lv_imgbtn.c ****     if(imgbtn->img_src_mid[state] == NULL) {
  39              		.loc 1 328 5 view .LVU3
  40              		.loc 1 328 27 is_stmt 0 view .LVU4
  41 0004 01F10A02 		add	r2, r1, #10
  42 0008 03EB8202 		add	r2, r3, r2, lsl #2
  43 000c 5268     		ldr	r2, [r2, #4]
  44              		.loc 1 328 7 view .LVU5
  45 000e 02B1     		cbz	r2, .L17
  46              	.LVL2:
  47              	.L2:
 329:Middlewares/LVGL/GUI/lvgl/src/extra/widgets/imgbtn/lv_imgbtn.c ****         switch(state) {
 330:Middlewares/LVGL/GUI/lvgl/src/extra/widgets/imgbtn/lv_imgbtn.c ****             case LV_IMGBTN_STATE_PRESSED:
 331:Middlewares/LVGL/GUI/lvgl/src/extra/widgets/imgbtn/lv_imgbtn.c ****                 if(imgbtn->img_src_mid[LV_IMGBTN_STATE_RELEASED]) return LV_IMGBTN_STATE_RELEASED;
 332:Middlewares/LVGL/GUI/lvgl/src/extra/widgets/imgbtn/lv_imgbtn.c ****                 break;
 333:Middlewares/LVGL/GUI/lvgl/src/extra/widgets/imgbtn/lv_imgbtn.c ****             case LV_IMGBTN_STATE_CHECKED_RELEASED:
 334:Middlewares/LVGL/GUI/lvgl/src/extra/widgets/imgbtn/lv_imgbtn.c ****                 if(imgbtn->img_src_mid[LV_IMGBTN_STATE_RELEASED]) return LV_IMGBTN_STATE_RELEASED;
 335:Middlewares/LVGL/GUI/lvgl/src/extra/widgets/imgbtn/lv_imgbtn.c ****                 break;
 336:Middlewares/LVGL/GUI/lvgl/src/extra/widgets/imgbtn/lv_imgbtn.c ****             case LV_IMGBTN_STATE_CHECKED_PRESSED:
 337:Middlewares/LVGL/GUI/lvgl/src/extra/widgets/imgbtn/lv_imgbtn.c ****                 if(imgbtn->img_src_mid[LV_IMGBTN_STATE_CHECKED_RELEASED]) return LV_IMGBTN_STATE_CH
 338:Middlewares/LVGL/GUI/lvgl/src/extra/widgets/imgbtn/lv_imgbtn.c ****                 if(imgbtn->img_src_mid[LV_IMGBTN_STATE_PRESSED]) return LV_IMGBTN_STATE_PRESSED;
 339:Middlewares/LVGL/GUI/lvgl/src/extra/widgets/imgbtn/lv_imgbtn.c ****                 if(imgbtn->img_src_mid[LV_IMGBTN_STATE_RELEASED]) return LV_IMGBTN_STATE_RELEASED;
 340:Middlewares/LVGL/GUI/lvgl/src/extra/widgets/imgbtn/lv_imgbtn.c ****                 break;
 341:Middlewares/LVGL/GUI/lvgl/src/extra/widgets/imgbtn/lv_imgbtn.c ****             case LV_IMGBTN_STATE_DISABLED:
 342:Middlewares/LVGL/GUI/lvgl/src/extra/widgets/imgbtn/lv_imgbtn.c ****                 if(imgbtn->img_src_mid[LV_IMGBTN_STATE_RELEASED]) return LV_IMGBTN_STATE_RELEASED;
 343:Middlewares/LVGL/GUI/lvgl/src/extra/widgets/imgbtn/lv_imgbtn.c ****                 break;
 344:Middlewares/LVGL/GUI/lvgl/src/extra/widgets/imgbtn/lv_imgbtn.c ****             case LV_IMGBTN_STATE_CHECKED_DISABLED:
 345:Middlewares/LVGL/GUI/lvgl/src/extra/widgets/imgbtn/lv_imgbtn.c ****                 if(imgbtn->img_src_mid[LV_IMGBTN_STATE_CHECKED_RELEASED]) return LV_IMGBTN_STATE_CH
 346:Middlewares/LVGL/GUI/lvgl/src/extra/widgets/imgbtn/lv_imgbtn.c ****                 if(imgbtn->img_src_mid[LV_IMGBTN_STATE_RELEASED]) return LV_IMGBTN_STATE_RELEASED;
 347:Middlewares/LVGL/GUI/lvgl/src/extra/widgets/imgbtn/lv_imgbtn.c ****                 break;
 348:Middlewares/LVGL/GUI/lvgl/src/extra/widgets/imgbtn/lv_imgbtn.c ****             default:
 349:Middlewares/LVGL/GUI/lvgl/src/extra/widgets/imgbtn/lv_imgbtn.c ****                 break;
 350:Middlewares/LVGL/GUI/lvgl/src/extra/widgets/imgbtn/lv_imgbtn.c ****         }
 351:Middlewares/LVGL/GUI/lvgl/src/extra/widgets/imgbtn/lv_imgbtn.c ****     }
 352:Middlewares/LVGL/GUI/lvgl/src/extra/widgets/imgbtn/lv_imgbtn.c **** 
 353:Middlewares/LVGL/GUI/lvgl/src/extra/widgets/imgbtn/lv_imgbtn.c ****     return state;
ARM GAS  C:\Users\ADMINI~1\AppData\Local\Temp\ccVzpgJw.s 			page 8


 354:Middlewares/LVGL/GUI/lvgl/src/extra/widgets/imgbtn/lv_imgbtn.c **** }
  48              		.loc 1 354 1 view .LVU6
  49 0010 7047     		bx	lr
  50              	.LVL3:
  51              	.L17:
 329:Middlewares/LVGL/GUI/lvgl/src/extra/widgets/imgbtn/lv_imgbtn.c ****         switch(state) {
  52              		.loc 1 329 9 is_stmt 1 view .LVU7
  53 0012 4A1E     		subs	r2, r1, #1
  54 0014 042A     		cmp	r2, #4
  55 0016 FBD8     		bhi	.L2
  56 0018 DFE802F0 		tbb	[pc, r2]
  57              	.LVL4:
  58              	.L4:
  59 001c 03       		.byte	(.L8-.L4)/2
  60 001d 18       		.byte	(.L7-.L4)/2
  61 001e 08       		.byte	(.L6-.L4)/2
  62 001f 0D       		.byte	(.L5-.L4)/2
  63 0020 1D       		.byte	(.L3-.L4)/2
  64 0021 00       		.p2align 1
  65              	.L8:
 331:Middlewares/LVGL/GUI/lvgl/src/extra/widgets/imgbtn/lv_imgbtn.c ****                 break;
  66              		.loc 1 331 17 view .LVU8
 331:Middlewares/LVGL/GUI/lvgl/src/extra/widgets/imgbtn/lv_imgbtn.c ****                 break;
  67              		.loc 1 331 39 is_stmt 0 view .LVU9
  68 0022 DB6A     		ldr	r3, [r3, #44]
  69              	.LVL5:
 331:Middlewares/LVGL/GUI/lvgl/src/extra/widgets/imgbtn/lv_imgbtn.c ****                 break;
  70              		.loc 1 331 19 view .LVU10
  71 0024 0BB1     		cbz	r3, .L18
 331:Middlewares/LVGL/GUI/lvgl/src/extra/widgets/imgbtn/lv_imgbtn.c ****                 break;
  72              		.loc 1 331 74 view .LVU11
  73 0026 0020     		movs	r0, #0
  74 0028 7047     		bx	lr
  75              	.L18:
  76 002a 7047     		bx	lr
  77              	.LVL6:
  78              	.L6:
 334:Middlewares/LVGL/GUI/lvgl/src/extra/widgets/imgbtn/lv_imgbtn.c ****                 break;
  79              		.loc 1 334 17 is_stmt 1 view .LVU12
 334:Middlewares/LVGL/GUI/lvgl/src/extra/widgets/imgbtn/lv_imgbtn.c ****                 break;
  80              		.loc 1 334 39 is_stmt 0 view .LVU13
  81 002c DB6A     		ldr	r3, [r3, #44]
  82              	.LVL7:
 334:Middlewares/LVGL/GUI/lvgl/src/extra/widgets/imgbtn/lv_imgbtn.c ****                 break;
  83              		.loc 1 334 19 view .LVU14
  84 002e 0BB1     		cbz	r3, .L19
 334:Middlewares/LVGL/GUI/lvgl/src/extra/widgets/imgbtn/lv_imgbtn.c ****                 break;
  85              		.loc 1 334 74 view .LVU15
  86 0030 0020     		movs	r0, #0
  87 0032 7047     		bx	lr
  88              	.L19:
  89 0034 7047     		bx	lr
  90              	.LVL8:
  91              	.L5:
 337:Middlewares/LVGL/GUI/lvgl/src/extra/widgets/imgbtn/lv_imgbtn.c ****                 if(imgbtn->img_src_mid[LV_IMGBTN_STATE_PRESSED]) return LV_IMGBTN_STATE_PRESSED;
  92              		.loc 1 337 17 is_stmt 1 view .LVU16
 337:Middlewares/LVGL/GUI/lvgl/src/extra/widgets/imgbtn/lv_imgbtn.c ****                 if(imgbtn->img_src_mid[LV_IMGBTN_STATE_PRESSED]) return LV_IMGBTN_STATE_PRESSED;
ARM GAS  C:\Users\ADMINI~1\AppData\Local\Temp\ccVzpgJw.s 			page 9


  93              		.loc 1 337 39 is_stmt 0 view .LVU17
  94 0036 9A6B     		ldr	r2, [r3, #56]
 337:Middlewares/LVGL/GUI/lvgl/src/extra/widgets/imgbtn/lv_imgbtn.c ****                 if(imgbtn->img_src_mid[LV_IMGBTN_STATE_PRESSED]) return LV_IMGBTN_STATE_PRESSED;
  95              		.loc 1 337 19 view .LVU18
  96 0038 A2B9     		cbnz	r2, .L11
 338:Middlewares/LVGL/GUI/lvgl/src/extra/widgets/imgbtn/lv_imgbtn.c ****                 if(imgbtn->img_src_mid[LV_IMGBTN_STATE_RELEASED]) return LV_IMGBTN_STATE_RELEASED;
  97              		.loc 1 338 17 is_stmt 1 view .LVU19
 338:Middlewares/LVGL/GUI/lvgl/src/extra/widgets/imgbtn/lv_imgbtn.c ****                 if(imgbtn->img_src_mid[LV_IMGBTN_STATE_RELEASED]) return LV_IMGBTN_STATE_RELEASED;
  98              		.loc 1 338 39 is_stmt 0 view .LVU20
  99 003a 1A6B     		ldr	r2, [r3, #48]
 338:Middlewares/LVGL/GUI/lvgl/src/extra/widgets/imgbtn/lv_imgbtn.c ****                 if(imgbtn->img_src_mid[LV_IMGBTN_STATE_RELEASED]) return LV_IMGBTN_STATE_RELEASED;
 100              		.loc 1 338 19 view .LVU21
 101 003c 0AB1     		cbz	r2, .L20
 338:Middlewares/LVGL/GUI/lvgl/src/extra/widgets/imgbtn/lv_imgbtn.c ****                 if(imgbtn->img_src_mid[LV_IMGBTN_STATE_RELEASED]) return LV_IMGBTN_STATE_RELEASED;
 102              		.loc 1 338 73 view .LVU22
 103 003e 0120     		movs	r0, #1
 104 0040 7047     		bx	lr
 105              	.L20:
 339:Middlewares/LVGL/GUI/lvgl/src/extra/widgets/imgbtn/lv_imgbtn.c ****                 break;
 106              		.loc 1 339 17 is_stmt 1 view .LVU23
 339:Middlewares/LVGL/GUI/lvgl/src/extra/widgets/imgbtn/lv_imgbtn.c ****                 break;
 107              		.loc 1 339 39 is_stmt 0 view .LVU24
 108 0042 DB6A     		ldr	r3, [r3, #44]
 109              	.LVL9:
 339:Middlewares/LVGL/GUI/lvgl/src/extra/widgets/imgbtn/lv_imgbtn.c ****                 break;
 110              		.loc 1 339 19 view .LVU25
 111 0044 0BB1     		cbz	r3, .L21
 339:Middlewares/LVGL/GUI/lvgl/src/extra/widgets/imgbtn/lv_imgbtn.c ****                 break;
 112              		.loc 1 339 74 view .LVU26
 113 0046 0020     		movs	r0, #0
 114 0048 7047     		bx	lr
 115              	.L21:
 116 004a 7047     		bx	lr
 117              	.LVL10:
 118              	.L7:
 342:Middlewares/LVGL/GUI/lvgl/src/extra/widgets/imgbtn/lv_imgbtn.c ****                 break;
 119              		.loc 1 342 17 is_stmt 1 view .LVU27
 342:Middlewares/LVGL/GUI/lvgl/src/extra/widgets/imgbtn/lv_imgbtn.c ****                 break;
 120              		.loc 1 342 39 is_stmt 0 view .LVU28
 121 004c DB6A     		ldr	r3, [r3, #44]
 122              	.LVL11:
 342:Middlewares/LVGL/GUI/lvgl/src/extra/widgets/imgbtn/lv_imgbtn.c ****                 break;
 123              		.loc 1 342 19 view .LVU29
 124 004e 0BB1     		cbz	r3, .L22
 342:Middlewares/LVGL/GUI/lvgl/src/extra/widgets/imgbtn/lv_imgbtn.c ****                 break;
 125              		.loc 1 342 74 view .LVU30
 126 0050 0020     		movs	r0, #0
 127 0052 7047     		bx	lr
 128              	.L22:
 129 0054 7047     		bx	lr
 130              	.LVL12:
 131              	.L3:
 345:Middlewares/LVGL/GUI/lvgl/src/extra/widgets/imgbtn/lv_imgbtn.c ****                 if(imgbtn->img_src_mid[LV_IMGBTN_STATE_RELEASED]) return LV_IMGBTN_STATE_RELEASED;
 132              		.loc 1 345 17 is_stmt 1 view .LVU31
 345:Middlewares/LVGL/GUI/lvgl/src/extra/widgets/imgbtn/lv_imgbtn.c ****                 if(imgbtn->img_src_mid[LV_IMGBTN_STATE_RELEASED]) return LV_IMGBTN_STATE_RELEASED;
 133              		.loc 1 345 39 is_stmt 0 view .LVU32
 134 0056 9A6B     		ldr	r2, [r3, #56]
ARM GAS  C:\Users\ADMINI~1\AppData\Local\Temp\ccVzpgJw.s 			page 10


 345:Middlewares/LVGL/GUI/lvgl/src/extra/widgets/imgbtn/lv_imgbtn.c ****                 if(imgbtn->img_src_mid[LV_IMGBTN_STATE_RELEASED]) return LV_IMGBTN_STATE_RELEASED;
 135              		.loc 1 345 19 view .LVU33
 136 0058 32B9     		cbnz	r2, .L15
 346:Middlewares/LVGL/GUI/lvgl/src/extra/widgets/imgbtn/lv_imgbtn.c ****                 break;
 137              		.loc 1 346 17 is_stmt 1 view .LVU34
 346:Middlewares/LVGL/GUI/lvgl/src/extra/widgets/imgbtn/lv_imgbtn.c ****                 break;
 138              		.loc 1 346 39 is_stmt 0 view .LVU35
 139 005a DB6A     		ldr	r3, [r3, #44]
 140              	.LVL13:
 346:Middlewares/LVGL/GUI/lvgl/src/extra/widgets/imgbtn/lv_imgbtn.c ****                 break;
 141              		.loc 1 346 19 view .LVU36
 142 005c 0BB1     		cbz	r3, .L23
 346:Middlewares/LVGL/GUI/lvgl/src/extra/widgets/imgbtn/lv_imgbtn.c ****                 break;
 143              		.loc 1 346 74 view .LVU37
 144 005e 0020     		movs	r0, #0
 145 0060 D6E7     		b	.L2
 146              	.L23:
 147 0062 7047     		bx	lr
 148              	.LVL14:
 149              	.L11:
 337:Middlewares/LVGL/GUI/lvgl/src/extra/widgets/imgbtn/lv_imgbtn.c ****                 if(imgbtn->img_src_mid[LV_IMGBTN_STATE_PRESSED]) return LV_IMGBTN_STATE_PRESSED;
 150              		.loc 1 337 82 view .LVU38
 151 0064 0320     		movs	r0, #3
 152 0066 7047     		bx	lr
 153              	.L15:
 345:Middlewares/LVGL/GUI/lvgl/src/extra/widgets/imgbtn/lv_imgbtn.c ****                 if(imgbtn->img_src_mid[LV_IMGBTN_STATE_RELEASED]) return LV_IMGBTN_STATE_RELEASED;
 154              		.loc 1 345 82 view .LVU39
 155 0068 0320     		movs	r0, #3
 156 006a 7047     		bx	lr
 157              		.cfi_endproc
 158              	.LFE206:
 160              		.section	.text.lv_imgbtn_constructor,"ax",%progbits
 161              		.align	1
 162              		.syntax unified
 163              		.thumb
 164              		.thumb_func
 166              	lv_imgbtn_constructor:
 167              	.LVL15:
 168              	.LFB202:
 165:Middlewares/LVGL/GUI/lvgl/src/extra/widgets/imgbtn/lv_imgbtn.c ****     LV_UNUSED(class_p);
 169              		.loc 1 165 1 is_stmt 1 view -0
 170              		.cfi_startproc
 171              		@ args = 0, pretend = 0, frame = 0
 172              		@ frame_needed = 0, uses_anonymous_args = 0
 165:Middlewares/LVGL/GUI/lvgl/src/extra/widgets/imgbtn/lv_imgbtn.c ****     LV_UNUSED(class_p);
 173              		.loc 1 165 1 is_stmt 0 view .LVU41
 174 0000 10B5     		push	{r4, lr}
 175              	.LCFI0:
 176              		.cfi_def_cfa_offset 8
 177              		.cfi_offset 4, -8
 178              		.cfi_offset 14, -4
 179 0002 0C46     		mov	r4, r1
 166:Middlewares/LVGL/GUI/lvgl/src/extra/widgets/imgbtn/lv_imgbtn.c ****     lv_imgbtn_t * imgbtn = (lv_imgbtn_t *)obj;
 180              		.loc 1 166 5 is_stmt 1 view .LVU42
 167:Middlewares/LVGL/GUI/lvgl/src/extra/widgets/imgbtn/lv_imgbtn.c ****     /*Initialize the allocated 'ext'*/
 181              		.loc 1 167 5 view .LVU43
 182              	.LVL16:
ARM GAS  C:\Users\ADMINI~1\AppData\Local\Temp\ccVzpgJw.s 			page 11


 169:Middlewares/LVGL/GUI/lvgl/src/extra/widgets/imgbtn/lv_imgbtn.c ****     lv_memset_00(imgbtn->img_src_left, sizeof(imgbtn->img_src_left));
 183              		.loc 1 169 5 view .LVU44
 184 0004 1821     		movs	r1, #24
 185              	.LVL17:
 169:Middlewares/LVGL/GUI/lvgl/src/extra/widgets/imgbtn/lv_imgbtn.c ****     lv_memset_00(imgbtn->img_src_left, sizeof(imgbtn->img_src_left));
 186              		.loc 1 169 5 is_stmt 0 view .LVU45
 187 0006 04F12C00 		add	r0, r4, #44
 188              	.LVL18:
 169:Middlewares/LVGL/GUI/lvgl/src/extra/widgets/imgbtn/lv_imgbtn.c ****     lv_memset_00(imgbtn->img_src_left, sizeof(imgbtn->img_src_left));
 189              		.loc 1 169 5 view .LVU46
 190 000a FFF7FEFF 		bl	lv_memset_00
 191              	.LVL19:
 170:Middlewares/LVGL/GUI/lvgl/src/extra/widgets/imgbtn/lv_imgbtn.c ****     lv_memset_00(imgbtn->img_src_right, sizeof(imgbtn->img_src_right));
 192              		.loc 1 170 5 is_stmt 1 view .LVU47
 193 000e 1821     		movs	r1, #24
 194 0010 04F14400 		add	r0, r4, #68
 195 0014 FFF7FEFF 		bl	lv_memset_00
 196              	.LVL20:
 171:Middlewares/LVGL/GUI/lvgl/src/extra/widgets/imgbtn/lv_imgbtn.c **** 
 197              		.loc 1 171 5 view .LVU48
 198 0018 1821     		movs	r1, #24
 199 001a 04F15C00 		add	r0, r4, #92
 200 001e FFF7FEFF 		bl	lv_memset_00
 201              	.LVL21:
 173:Middlewares/LVGL/GUI/lvgl/src/extra/widgets/imgbtn/lv_imgbtn.c **** }
 202              		.loc 1 173 5 view .LVU49
 173:Middlewares/LVGL/GUI/lvgl/src/extra/widgets/imgbtn/lv_imgbtn.c **** }
 203              		.loc 1 173 20 is_stmt 0 view .LVU50
 204 0022 0023     		movs	r3, #0
 205 0024 84F87430 		strb	r3, [r4, #116]
 174:Middlewares/LVGL/GUI/lvgl/src/extra/widgets/imgbtn/lv_imgbtn.c **** 
 206              		.loc 1 174 1 view .LVU51
 207 0028 10BD     		pop	{r4, pc}
 174:Middlewares/LVGL/GUI/lvgl/src/extra/widgets/imgbtn/lv_imgbtn.c **** 
 208              		.loc 1 174 1 view .LVU52
 209              		.cfi_endproc
 210              	.LFE202:
 212              		.section	.text.lv_imgbtn_create,"ax",%progbits
 213              		.align	1
 214              		.global	lv_imgbtn_create
 215              		.syntax unified
 216              		.thumb
 217              		.thumb_func
 219              	lv_imgbtn_create:
 220              	.LVL22:
 221              	.LFB196:
  57:Middlewares/LVGL/GUI/lvgl/src/extra/widgets/imgbtn/lv_imgbtn.c ****     LV_LOG_INFO("begin");
 222              		.loc 1 57 1 is_stmt 1 view -0
 223              		.cfi_startproc
 224              		@ args = 0, pretend = 0, frame = 0
 225              		@ frame_needed = 0, uses_anonymous_args = 0
  57:Middlewares/LVGL/GUI/lvgl/src/extra/widgets/imgbtn/lv_imgbtn.c ****     LV_LOG_INFO("begin");
 226              		.loc 1 57 1 is_stmt 0 view .LVU54
 227 0000 10B5     		push	{r4, lr}
 228              	.LCFI1:
 229              		.cfi_def_cfa_offset 8
 230              		.cfi_offset 4, -8
ARM GAS  C:\Users\ADMINI~1\AppData\Local\Temp\ccVzpgJw.s 			page 12


 231              		.cfi_offset 14, -4
 232 0002 0146     		mov	r1, r0
  58:Middlewares/LVGL/GUI/lvgl/src/extra/widgets/imgbtn/lv_imgbtn.c ****     lv_obj_t * obj = lv_obj_class_create_obj(MY_CLASS, parent);
 233              		.loc 1 58 5 is_stmt 1 view .LVU55
  58:Middlewares/LVGL/GUI/lvgl/src/extra/widgets/imgbtn/lv_imgbtn.c ****     lv_obj_t * obj = lv_obj_class_create_obj(MY_CLASS, parent);
 234              		.loc 1 58 5 view .LVU56
  58:Middlewares/LVGL/GUI/lvgl/src/extra/widgets/imgbtn/lv_imgbtn.c ****     lv_obj_t * obj = lv_obj_class_create_obj(MY_CLASS, parent);
 235              		.loc 1 58 5 view .LVU57
  59:Middlewares/LVGL/GUI/lvgl/src/extra/widgets/imgbtn/lv_imgbtn.c ****     lv_obj_class_init_obj(obj);
 236              		.loc 1 59 5 view .LVU58
  59:Middlewares/LVGL/GUI/lvgl/src/extra/widgets/imgbtn/lv_imgbtn.c ****     lv_obj_class_init_obj(obj);
 237              		.loc 1 59 22 is_stmt 0 view .LVU59
 238 0004 0348     		ldr	r0, .L28
 239              	.LVL23:
  59:Middlewares/LVGL/GUI/lvgl/src/extra/widgets/imgbtn/lv_imgbtn.c ****     lv_obj_class_init_obj(obj);
 240              		.loc 1 59 22 view .LVU60
 241 0006 FFF7FEFF 		bl	lv_obj_class_create_obj
 242              	.LVL24:
  59:Middlewares/LVGL/GUI/lvgl/src/extra/widgets/imgbtn/lv_imgbtn.c ****     lv_obj_class_init_obj(obj);
 243              		.loc 1 59 22 view .LVU61
 244 000a 0446     		mov	r4, r0
 245              	.LVL25:
  60:Middlewares/LVGL/GUI/lvgl/src/extra/widgets/imgbtn/lv_imgbtn.c ****     return obj;
 246              		.loc 1 60 5 is_stmt 1 view .LVU62
 247 000c FFF7FEFF 		bl	lv_obj_class_init_obj
 248              	.LVL26:
  61:Middlewares/LVGL/GUI/lvgl/src/extra/widgets/imgbtn/lv_imgbtn.c **** }
 249              		.loc 1 61 5 view .LVU63
  62:Middlewares/LVGL/GUI/lvgl/src/extra/widgets/imgbtn/lv_imgbtn.c **** 
 250              		.loc 1 62 1 is_stmt 0 view .LVU64
 251 0010 2046     		mov	r0, r4
 252 0012 10BD     		pop	{r4, pc}
 253              	.LVL27:
 254              	.L29:
  62:Middlewares/LVGL/GUI/lvgl/src/extra/widgets/imgbtn/lv_imgbtn.c **** 
 255              		.loc 1 62 1 view .LVU65
 256              		.align	2
 257              	.L28:
 258 0014 00000000 		.word	.LANCHOR0
 259              		.cfi_endproc
 260              	.LFE196:
 262              		.section	.text.lv_imgbtn_get_src_left,"ax",%progbits
 263              		.align	1
 264              		.global	lv_imgbtn_get_src_left
 265              		.syntax unified
 266              		.thumb
 267              		.thumb_func
 269              	lv_imgbtn_get_src_left:
 270              	.LVL28:
 271              	.LFB199:
 123:Middlewares/LVGL/GUI/lvgl/src/extra/widgets/imgbtn/lv_imgbtn.c ****     LV_ASSERT_OBJ(obj, MY_CLASS);
 272              		.loc 1 123 1 is_stmt 1 view -0
 273              		.cfi_startproc
 274              		@ args = 0, pretend = 0, frame = 0
 275              		@ frame_needed = 0, uses_anonymous_args = 0
 276              		@ link register save eliminated.
 124:Middlewares/LVGL/GUI/lvgl/src/extra/widgets/imgbtn/lv_imgbtn.c **** 
ARM GAS  C:\Users\ADMINI~1\AppData\Local\Temp\ccVzpgJw.s 			page 13


 277              		.loc 1 124 5 view .LVU67
 124:Middlewares/LVGL/GUI/lvgl/src/extra/widgets/imgbtn/lv_imgbtn.c **** 
 278              		.loc 1 124 5 view .LVU68
 124:Middlewares/LVGL/GUI/lvgl/src/extra/widgets/imgbtn/lv_imgbtn.c **** 
 279              		.loc 1 124 5 view .LVU69
 126:Middlewares/LVGL/GUI/lvgl/src/extra/widgets/imgbtn/lv_imgbtn.c **** 
 280              		.loc 1 126 5 view .LVU70
 128:Middlewares/LVGL/GUI/lvgl/src/extra/widgets/imgbtn/lv_imgbtn.c **** }
 281              		.loc 1 128 5 view .LVU71
 128:Middlewares/LVGL/GUI/lvgl/src/extra/widgets/imgbtn/lv_imgbtn.c **** }
 282              		.loc 1 128 32 is_stmt 0 view .LVU72
 283 0000 1031     		adds	r1, r1, #16
 284              	.LVL29:
 128:Middlewares/LVGL/GUI/lvgl/src/extra/widgets/imgbtn/lv_imgbtn.c **** }
 285              		.loc 1 128 32 view .LVU73
 286 0002 00EB8100 		add	r0, r0, r1, lsl #2
 287              	.LVL30:
 129:Middlewares/LVGL/GUI/lvgl/src/extra/widgets/imgbtn/lv_imgbtn.c **** 
 288              		.loc 1 129 1 view .LVU74
 289 0006 4068     		ldr	r0, [r0, #4]
 290 0008 7047     		bx	lr
 291              		.cfi_endproc
 292              	.LFE199:
 294              		.section	.text.lv_imgbtn_get_src_middle,"ax",%progbits
 295              		.align	1
 296              		.global	lv_imgbtn_get_src_middle
 297              		.syntax unified
 298              		.thumb
 299              		.thumb_func
 301              	lv_imgbtn_get_src_middle:
 302              	.LVL31:
 303              	.LFB200:
 138:Middlewares/LVGL/GUI/lvgl/src/extra/widgets/imgbtn/lv_imgbtn.c ****     LV_ASSERT_OBJ(obj, MY_CLASS);
 304              		.loc 1 138 1 is_stmt 1 view -0
 305              		.cfi_startproc
 306              		@ args = 0, pretend = 0, frame = 0
 307              		@ frame_needed = 0, uses_anonymous_args = 0
 308              		@ link register save eliminated.
 139:Middlewares/LVGL/GUI/lvgl/src/extra/widgets/imgbtn/lv_imgbtn.c ****     lv_imgbtn_t * imgbtn = (lv_imgbtn_t *)obj;
 309              		.loc 1 139 5 view .LVU76
 139:Middlewares/LVGL/GUI/lvgl/src/extra/widgets/imgbtn/lv_imgbtn.c ****     lv_imgbtn_t * imgbtn = (lv_imgbtn_t *)obj;
 310              		.loc 1 139 5 view .LVU77
 139:Middlewares/LVGL/GUI/lvgl/src/extra/widgets/imgbtn/lv_imgbtn.c ****     lv_imgbtn_t * imgbtn = (lv_imgbtn_t *)obj;
 311              		.loc 1 139 5 view .LVU78
 140:Middlewares/LVGL/GUI/lvgl/src/extra/widgets/imgbtn/lv_imgbtn.c **** 
 312              		.loc 1 140 5 view .LVU79
 142:Middlewares/LVGL/GUI/lvgl/src/extra/widgets/imgbtn/lv_imgbtn.c **** }
 313              		.loc 1 142 5 view .LVU80
 142:Middlewares/LVGL/GUI/lvgl/src/extra/widgets/imgbtn/lv_imgbtn.c **** }
 314              		.loc 1 142 31 is_stmt 0 view .LVU81
 315 0000 0A31     		adds	r1, r1, #10
 316              	.LVL32:
 142:Middlewares/LVGL/GUI/lvgl/src/extra/widgets/imgbtn/lv_imgbtn.c **** }
 317              		.loc 1 142 31 view .LVU82
 318 0002 00EB8100 		add	r0, r0, r1, lsl #2
 319              	.LVL33:
 143:Middlewares/LVGL/GUI/lvgl/src/extra/widgets/imgbtn/lv_imgbtn.c **** 
ARM GAS  C:\Users\ADMINI~1\AppData\Local\Temp\ccVzpgJw.s 			page 14


 320              		.loc 1 143 1 view .LVU83
 321 0006 4068     		ldr	r0, [r0, #4]
 322 0008 7047     		bx	lr
 323              		.cfi_endproc
 324              	.LFE200:
 326              		.section	.text.lv_imgbtn_get_src_right,"ax",%progbits
 327              		.align	1
 328              		.global	lv_imgbtn_get_src_right
 329              		.syntax unified
 330              		.thumb
 331              		.thumb_func
 333              	lv_imgbtn_get_src_right:
 334              	.LVL34:
 335              	.LFB201:
 152:Middlewares/LVGL/GUI/lvgl/src/extra/widgets/imgbtn/lv_imgbtn.c ****     LV_ASSERT_OBJ(obj, MY_CLASS);
 336              		.loc 1 152 1 is_stmt 1 view -0
 337              		.cfi_startproc
 338              		@ args = 0, pretend = 0, frame = 0
 339              		@ frame_needed = 0, uses_anonymous_args = 0
 340              		@ link register save eliminated.
 153:Middlewares/LVGL/GUI/lvgl/src/extra/widgets/imgbtn/lv_imgbtn.c ****     lv_imgbtn_t * imgbtn = (lv_imgbtn_t *)obj;
 341              		.loc 1 153 5 view .LVU85
 153:Middlewares/LVGL/GUI/lvgl/src/extra/widgets/imgbtn/lv_imgbtn.c ****     lv_imgbtn_t * imgbtn = (lv_imgbtn_t *)obj;
 342              		.loc 1 153 5 view .LVU86
 153:Middlewares/LVGL/GUI/lvgl/src/extra/widgets/imgbtn/lv_imgbtn.c ****     lv_imgbtn_t * imgbtn = (lv_imgbtn_t *)obj;
 343              		.loc 1 153 5 view .LVU87
 154:Middlewares/LVGL/GUI/lvgl/src/extra/widgets/imgbtn/lv_imgbtn.c **** 
 344              		.loc 1 154 5 view .LVU88
 156:Middlewares/LVGL/GUI/lvgl/src/extra/widgets/imgbtn/lv_imgbtn.c **** }
 345              		.loc 1 156 5 view .LVU89
 156:Middlewares/LVGL/GUI/lvgl/src/extra/widgets/imgbtn/lv_imgbtn.c **** }
 346              		.loc 1 156 33 is_stmt 0 view .LVU90
 347 0000 1631     		adds	r1, r1, #22
 348              	.LVL35:
 156:Middlewares/LVGL/GUI/lvgl/src/extra/widgets/imgbtn/lv_imgbtn.c **** }
 349              		.loc 1 156 33 view .LVU91
 350 0002 00EB8100 		add	r0, r0, r1, lsl #2
 351              	.LVL36:
 157:Middlewares/LVGL/GUI/lvgl/src/extra/widgets/imgbtn/lv_imgbtn.c **** 
 352              		.loc 1 157 1 view .LVU92
 353 0006 4068     		ldr	r0, [r0, #4]
 354 0008 7047     		bx	lr
 355              		.cfi_endproc
 356              	.LFE201:
 358              		.section	.text.get_state,"ax",%progbits
 359              		.align	1
 360              		.global	get_state
 361              		.syntax unified
 362              		.thumb
 363              		.thumb_func
 365              	get_state:
 366              	.LVL37:
 367              	.LFB207:
 355:Middlewares/LVGL/GUI/lvgl/src/extra/widgets/imgbtn/lv_imgbtn.c **** 
 356:Middlewares/LVGL/GUI/lvgl/src/extra/widgets/imgbtn/lv_imgbtn.c **** lv_imgbtn_state_t get_state(const lv_obj_t * imgbtn)
 357:Middlewares/LVGL/GUI/lvgl/src/extra/widgets/imgbtn/lv_imgbtn.c **** {
 368              		.loc 1 357 1 is_stmt 1 view -0
ARM GAS  C:\Users\ADMINI~1\AppData\Local\Temp\ccVzpgJw.s 			page 15


 369              		.cfi_startproc
 370              		@ args = 0, pretend = 0, frame = 0
 371              		@ frame_needed = 0, uses_anonymous_args = 0
 372              		.loc 1 357 1 is_stmt 0 view .LVU94
 373 0000 08B5     		push	{r3, lr}
 374              	.LCFI2:
 375              		.cfi_def_cfa_offset 8
 376              		.cfi_offset 3, -8
 377              		.cfi_offset 14, -4
 358:Middlewares/LVGL/GUI/lvgl/src/extra/widgets/imgbtn/lv_imgbtn.c ****     LV_ASSERT_OBJ(imgbtn, MY_CLASS);
 378              		.loc 1 358 5 is_stmt 1 view .LVU95
 379              		.loc 1 358 5 view .LVU96
 380              		.loc 1 358 5 view .LVU97
 359:Middlewares/LVGL/GUI/lvgl/src/extra/widgets/imgbtn/lv_imgbtn.c **** 
 360:Middlewares/LVGL/GUI/lvgl/src/extra/widgets/imgbtn/lv_imgbtn.c ****     lv_state_t obj_state = lv_obj_get_state(imgbtn);
 381              		.loc 1 360 5 view .LVU98
 382              		.loc 1 360 28 is_stmt 0 view .LVU99
 383 0002 FFF7FEFF 		bl	lv_obj_get_state
 384              	.LVL38:
 361:Middlewares/LVGL/GUI/lvgl/src/extra/widgets/imgbtn/lv_imgbtn.c **** 
 362:Middlewares/LVGL/GUI/lvgl/src/extra/widgets/imgbtn/lv_imgbtn.c ****     if(obj_state & LV_STATE_DISABLED) {
 385              		.loc 1 362 5 is_stmt 1 view .LVU100
 386              		.loc 1 362 7 is_stmt 0 view .LVU101
 387 0006 10F0800F 		tst	r0, #128
 388 000a 04D0     		beq	.L34
 363:Middlewares/LVGL/GUI/lvgl/src/extra/widgets/imgbtn/lv_imgbtn.c ****         if(obj_state & LV_STATE_CHECKED) return LV_IMGBTN_STATE_CHECKED_DISABLED;
 389              		.loc 1 363 9 is_stmt 1 view .LVU102
 390              		.loc 1 363 11 is_stmt 0 view .LVU103
 391 000c 10F0010F 		tst	r0, #1
 392 0010 0ED0     		beq	.L37
 393              		.loc 1 363 49 view .LVU104
 394 0012 0520     		movs	r0, #5
 395              	.LVL39:
 396              	.L35:
 364:Middlewares/LVGL/GUI/lvgl/src/extra/widgets/imgbtn/lv_imgbtn.c ****         else return LV_IMGBTN_STATE_DISABLED;
 365:Middlewares/LVGL/GUI/lvgl/src/extra/widgets/imgbtn/lv_imgbtn.c ****     }
 366:Middlewares/LVGL/GUI/lvgl/src/extra/widgets/imgbtn/lv_imgbtn.c **** 
 367:Middlewares/LVGL/GUI/lvgl/src/extra/widgets/imgbtn/lv_imgbtn.c ****     if(obj_state & LV_STATE_CHECKED) {
 368:Middlewares/LVGL/GUI/lvgl/src/extra/widgets/imgbtn/lv_imgbtn.c ****         if(obj_state & LV_STATE_PRESSED) return LV_IMGBTN_STATE_CHECKED_PRESSED;
 369:Middlewares/LVGL/GUI/lvgl/src/extra/widgets/imgbtn/lv_imgbtn.c ****         else return LV_IMGBTN_STATE_CHECKED_RELEASED;
 370:Middlewares/LVGL/GUI/lvgl/src/extra/widgets/imgbtn/lv_imgbtn.c ****     }
 371:Middlewares/LVGL/GUI/lvgl/src/extra/widgets/imgbtn/lv_imgbtn.c ****     else {
 372:Middlewares/LVGL/GUI/lvgl/src/extra/widgets/imgbtn/lv_imgbtn.c ****         if(obj_state & LV_STATE_PRESSED) return LV_IMGBTN_STATE_PRESSED;
 373:Middlewares/LVGL/GUI/lvgl/src/extra/widgets/imgbtn/lv_imgbtn.c ****         else return LV_IMGBTN_STATE_RELEASED;
 374:Middlewares/LVGL/GUI/lvgl/src/extra/widgets/imgbtn/lv_imgbtn.c ****     }
 375:Middlewares/LVGL/GUI/lvgl/src/extra/widgets/imgbtn/lv_imgbtn.c **** }
 397              		.loc 1 375 1 view .LVU105
 398 0014 08BD     		pop	{r3, pc}
 399              	.LVL40:
 400              	.L34:
 367:Middlewares/LVGL/GUI/lvgl/src/extra/widgets/imgbtn/lv_imgbtn.c ****         if(obj_state & LV_STATE_PRESSED) return LV_IMGBTN_STATE_CHECKED_PRESSED;
 401              		.loc 1 367 5 is_stmt 1 view .LVU106
 367:Middlewares/LVGL/GUI/lvgl/src/extra/widgets/imgbtn/lv_imgbtn.c ****         if(obj_state & LV_STATE_PRESSED) return LV_IMGBTN_STATE_CHECKED_PRESSED;
 402              		.loc 1 367 7 is_stmt 0 view .LVU107
 403 0016 10F0010F 		tst	r0, #1
 404 001a 04D0     		beq	.L36
 368:Middlewares/LVGL/GUI/lvgl/src/extra/widgets/imgbtn/lv_imgbtn.c ****         else return LV_IMGBTN_STATE_CHECKED_RELEASED;
ARM GAS  C:\Users\ADMINI~1\AppData\Local\Temp\ccVzpgJw.s 			page 16


 405              		.loc 1 368 9 is_stmt 1 view .LVU108
 368:Middlewares/LVGL/GUI/lvgl/src/extra/widgets/imgbtn/lv_imgbtn.c ****         else return LV_IMGBTN_STATE_CHECKED_RELEASED;
 406              		.loc 1 368 11 is_stmt 0 view .LVU109
 407 001c 10F0200F 		tst	r0, #32
 408 0020 08D0     		beq	.L38
 368:Middlewares/LVGL/GUI/lvgl/src/extra/widgets/imgbtn/lv_imgbtn.c ****         else return LV_IMGBTN_STATE_CHECKED_RELEASED;
 409              		.loc 1 368 49 view .LVU110
 410 0022 0420     		movs	r0, #4
 411              	.LVL41:
 368:Middlewares/LVGL/GUI/lvgl/src/extra/widgets/imgbtn/lv_imgbtn.c ****         else return LV_IMGBTN_STATE_CHECKED_RELEASED;
 412              		.loc 1 368 49 view .LVU111
 413 0024 F6E7     		b	.L35
 414              	.LVL42:
 415              	.L36:
 372:Middlewares/LVGL/GUI/lvgl/src/extra/widgets/imgbtn/lv_imgbtn.c ****         else return LV_IMGBTN_STATE_RELEASED;
 416              		.loc 1 372 9 is_stmt 1 view .LVU112
 372:Middlewares/LVGL/GUI/lvgl/src/extra/widgets/imgbtn/lv_imgbtn.c ****         else return LV_IMGBTN_STATE_RELEASED;
 417              		.loc 1 372 11 is_stmt 0 view .LVU113
 418 0026 10F0200F 		tst	r0, #32
 419 002a 05D0     		beq	.L39
 372:Middlewares/LVGL/GUI/lvgl/src/extra/widgets/imgbtn/lv_imgbtn.c ****         else return LV_IMGBTN_STATE_RELEASED;
 420              		.loc 1 372 49 view .LVU114
 421 002c 0120     		movs	r0, #1
 422              	.LVL43:
 372:Middlewares/LVGL/GUI/lvgl/src/extra/widgets/imgbtn/lv_imgbtn.c ****         else return LV_IMGBTN_STATE_RELEASED;
 423              		.loc 1 372 49 view .LVU115
 424 002e F1E7     		b	.L35
 425              	.LVL44:
 426              	.L37:
 364:Middlewares/LVGL/GUI/lvgl/src/extra/widgets/imgbtn/lv_imgbtn.c ****     }
 427              		.loc 1 364 21 view .LVU116
 428 0030 0220     		movs	r0, #2
 429              	.LVL45:
 364:Middlewares/LVGL/GUI/lvgl/src/extra/widgets/imgbtn/lv_imgbtn.c ****     }
 430              		.loc 1 364 21 view .LVU117
 431 0032 EFE7     		b	.L35
 432              	.LVL46:
 433              	.L38:
 369:Middlewares/LVGL/GUI/lvgl/src/extra/widgets/imgbtn/lv_imgbtn.c ****     }
 434              		.loc 1 369 21 view .LVU118
 435 0034 0320     		movs	r0, #3
 436              	.LVL47:
 369:Middlewares/LVGL/GUI/lvgl/src/extra/widgets/imgbtn/lv_imgbtn.c ****     }
 437              		.loc 1 369 21 view .LVU119
 438 0036 EDE7     		b	.L35
 439              	.LVL48:
 440              	.L39:
 373:Middlewares/LVGL/GUI/lvgl/src/extra/widgets/imgbtn/lv_imgbtn.c ****     }
 441              		.loc 1 373 21 view .LVU120
 442 0038 0020     		movs	r0, #0
 443              	.LVL49:
 373:Middlewares/LVGL/GUI/lvgl/src/extra/widgets/imgbtn/lv_imgbtn.c ****     }
 444              		.loc 1 373 21 view .LVU121
 445 003a EBE7     		b	.L35
 446              		.cfi_endproc
 447              	.LFE207:
 449              		.section	.text.refr_img,"ax",%progbits
ARM GAS  C:\Users\ADMINI~1\AppData\Local\Temp\ccVzpgJw.s 			page 17


 450              		.align	1
 451              		.syntax unified
 452              		.thumb
 453              		.thumb_func
 455              	refr_img:
 456              	.LVL50:
 457              	.LFB205:
 295:Middlewares/LVGL/GUI/lvgl/src/extra/widgets/imgbtn/lv_imgbtn.c ****     lv_imgbtn_t * imgbtn = (lv_imgbtn_t *)obj;
 458              		.loc 1 295 1 is_stmt 1 view -0
 459              		.cfi_startproc
 460              		@ args = 0, pretend = 0, frame = 8
 461              		@ frame_needed = 0, uses_anonymous_args = 0
 295:Middlewares/LVGL/GUI/lvgl/src/extra/widgets/imgbtn/lv_imgbtn.c ****     lv_imgbtn_t * imgbtn = (lv_imgbtn_t *)obj;
 462              		.loc 1 295 1 is_stmt 0 view .LVU123
 463 0000 10B5     		push	{r4, lr}
 464              	.LCFI3:
 465              		.cfi_def_cfa_offset 8
 466              		.cfi_offset 4, -8
 467              		.cfi_offset 14, -4
 468 0002 82B0     		sub	sp, sp, #8
 469              	.LCFI4:
 470              		.cfi_def_cfa_offset 16
 471 0004 0446     		mov	r4, r0
 296:Middlewares/LVGL/GUI/lvgl/src/extra/widgets/imgbtn/lv_imgbtn.c ****     lv_imgbtn_state_t state  = suggest_state(obj, get_state(obj));
 472              		.loc 1 296 5 is_stmt 1 view .LVU124
 473              	.LVL51:
 297:Middlewares/LVGL/GUI/lvgl/src/extra/widgets/imgbtn/lv_imgbtn.c ****     lv_img_header_t header;
 474              		.loc 1 297 5 view .LVU125
 297:Middlewares/LVGL/GUI/lvgl/src/extra/widgets/imgbtn/lv_imgbtn.c ****     lv_img_header_t header;
 475              		.loc 1 297 32 is_stmt 0 view .LVU126
 476 0006 FFF7FEFF 		bl	get_state
 477              	.LVL52:
 297:Middlewares/LVGL/GUI/lvgl/src/extra/widgets/imgbtn/lv_imgbtn.c ****     lv_img_header_t header;
 478              		.loc 1 297 32 view .LVU127
 479 000a 0146     		mov	r1, r0
 480 000c 2046     		mov	r0, r4
 481 000e FFF7FEFF 		bl	suggest_state
 482              	.LVL53:
 298:Middlewares/LVGL/GUI/lvgl/src/extra/widgets/imgbtn/lv_imgbtn.c **** 
 483              		.loc 1 298 5 is_stmt 1 view .LVU128
 300:Middlewares/LVGL/GUI/lvgl/src/extra/widgets/imgbtn/lv_imgbtn.c ****     if(src == NULL) return;
 484              		.loc 1 300 5 view .LVU129
 300:Middlewares/LVGL/GUI/lvgl/src/extra/widgets/imgbtn/lv_imgbtn.c ****     if(src == NULL) return;
 485              		.loc 1 300 18 is_stmt 0 view .LVU130
 486 0012 0A30     		adds	r0, r0, #10
 487              	.LVL54:
 300:Middlewares/LVGL/GUI/lvgl/src/extra/widgets/imgbtn/lv_imgbtn.c ****     if(src == NULL) return;
 488              		.loc 1 300 18 view .LVU131
 489 0014 04EB8000 		add	r0, r4, r0, lsl #2
 490 0018 4068     		ldr	r0, [r0, #4]
 491              	.LVL55:
 301:Middlewares/LVGL/GUI/lvgl/src/extra/widgets/imgbtn/lv_imgbtn.c **** 
 492              		.loc 1 301 5 is_stmt 1 view .LVU132
 301:Middlewares/LVGL/GUI/lvgl/src/extra/widgets/imgbtn/lv_imgbtn.c **** 
 493              		.loc 1 301 7 is_stmt 0 view .LVU133
 494 001a 50B1     		cbz	r0, .L41
 303:Middlewares/LVGL/GUI/lvgl/src/extra/widgets/imgbtn/lv_imgbtn.c ****     info_res = lv_img_decoder_get_info(src, &header);
ARM GAS  C:\Users\ADMINI~1\AppData\Local\Temp\ccVzpgJw.s 			page 18


 495              		.loc 1 303 5 is_stmt 1 view .LVU134
 496              	.LVL56:
 304:Middlewares/LVGL/GUI/lvgl/src/extra/widgets/imgbtn/lv_imgbtn.c **** 
 497              		.loc 1 304 5 view .LVU135
 304:Middlewares/LVGL/GUI/lvgl/src/extra/widgets/imgbtn/lv_imgbtn.c **** 
 498              		.loc 1 304 16 is_stmt 0 view .LVU136
 499 001c 01A9     		add	r1, sp, #4
 500 001e FFF7FEFF 		bl	lv_img_decoder_get_info
 501              	.LVL57:
 306:Middlewares/LVGL/GUI/lvgl/src/extra/widgets/imgbtn/lv_imgbtn.c ****         imgbtn->act_cf = header.cf;
 502              		.loc 1 306 5 is_stmt 1 view .LVU137
 306:Middlewares/LVGL/GUI/lvgl/src/extra/widgets/imgbtn/lv_imgbtn.c ****         imgbtn->act_cf = header.cf;
 503              		.loc 1 306 7 is_stmt 0 view .LVU138
 504 0022 0128     		cmp	r0, #1
 505 0024 07D0     		beq	.L47
 312:Middlewares/LVGL/GUI/lvgl/src/extra/widgets/imgbtn/lv_imgbtn.c ****     }
 506              		.loc 1 312 9 is_stmt 1 view .LVU139
 312:Middlewares/LVGL/GUI/lvgl/src/extra/widgets/imgbtn/lv_imgbtn.c ****     }
 507              		.loc 1 312 24 is_stmt 0 view .LVU140
 508 0026 0023     		movs	r3, #0
 509 0028 84F87430 		strb	r3, [r4, #116]
 510              	.LVL58:
 511              	.L45:
 315:Middlewares/LVGL/GUI/lvgl/src/extra/widgets/imgbtn/lv_imgbtn.c **** }
 512              		.loc 1 315 5 is_stmt 1 view .LVU141
 513 002c 2046     		mov	r0, r4
 514 002e FFF7FEFF 		bl	lv_obj_invalidate
 515              	.LVL59:
 516              	.L41:
 316:Middlewares/LVGL/GUI/lvgl/src/extra/widgets/imgbtn/lv_imgbtn.c **** 
 517              		.loc 1 316 1 is_stmt 0 view .LVU142
 518 0032 02B0     		add	sp, sp, #8
 519              	.LCFI5:
 520              		.cfi_remember_state
 521              		.cfi_def_cfa_offset 8
 522              		@ sp needed
 523 0034 10BD     		pop	{r4, pc}
 524              	.LVL60:
 525              	.L47:
 526              	.LCFI6:
 527              		.cfi_restore_state
 307:Middlewares/LVGL/GUI/lvgl/src/extra/widgets/imgbtn/lv_imgbtn.c ****         lv_obj_refresh_self_size(obj);
 528              		.loc 1 307 9 is_stmt 1 view .LVU143
 307:Middlewares/LVGL/GUI/lvgl/src/extra/widgets/imgbtn/lv_imgbtn.c ****         lv_obj_refresh_self_size(obj);
 529              		.loc 1 307 32 is_stmt 0 view .LVU144
 530 0036 9DF80430 		ldrb	r3, [sp, #4]	@ zero_extendqisi2
 531 003a C3F30403 		ubfx	r3, r3, #0, #5
 307:Middlewares/LVGL/GUI/lvgl/src/extra/widgets/imgbtn/lv_imgbtn.c ****         lv_obj_refresh_self_size(obj);
 532              		.loc 1 307 24 view .LVU145
 533 003e 84F87430 		strb	r3, [r4, #116]
 308:Middlewares/LVGL/GUI/lvgl/src/extra/widgets/imgbtn/lv_imgbtn.c ****         lv_obj_set_height(obj, header.h); /*Keep the user defined width*/
 534              		.loc 1 308 9 is_stmt 1 view .LVU146
 535 0042 2046     		mov	r0, r4
 536              	.LVL61:
 308:Middlewares/LVGL/GUI/lvgl/src/extra/widgets/imgbtn/lv_imgbtn.c ****         lv_obj_set_height(obj, header.h); /*Keep the user defined width*/
 537              		.loc 1 308 9 is_stmt 0 view .LVU147
 538 0044 FFF7FEFF 		bl	lv_obj_refresh_self_size
ARM GAS  C:\Users\ADMINI~1\AppData\Local\Temp\ccVzpgJw.s 			page 19


 539              	.LVL62:
 309:Middlewares/LVGL/GUI/lvgl/src/extra/widgets/imgbtn/lv_imgbtn.c ****     }
 540              		.loc 1 309 9 is_stmt 1 view .LVU148
 309:Middlewares/LVGL/GUI/lvgl/src/extra/widgets/imgbtn/lv_imgbtn.c ****     }
 541              		.loc 1 309 38 is_stmt 0 view .LVU149
 542 0048 BDF80610 		ldrh	r1, [sp, #6]
 309:Middlewares/LVGL/GUI/lvgl/src/extra/widgets/imgbtn/lv_imgbtn.c ****     }
 543              		.loc 1 309 9 view .LVU150
 544 004c C1F34A11 		ubfx	r1, r1, #5, #11
 545 0050 2046     		mov	r0, r4
 546 0052 FFF7FEFF 		bl	lv_obj_set_height
 547              	.LVL63:
 548 0056 E9E7     		b	.L45
 549              		.cfi_endproc
 550              	.LFE205:
 552              		.section	.text.lv_imgbtn_set_src,"ax",%progbits
 553              		.align	1
 554              		.global	lv_imgbtn_set_src
 555              		.syntax unified
 556              		.thumb
 557              		.thumb_func
 559              	lv_imgbtn_set_src:
 560              	.LVL64:
 561              	.LFB197:
  81:Middlewares/LVGL/GUI/lvgl/src/extra/widgets/imgbtn/lv_imgbtn.c ****     LV_ASSERT_OBJ(obj, MY_CLASS);
 562              		.loc 1 81 1 is_stmt 1 view -0
 563              		.cfi_startproc
 564              		@ args = 4, pretend = 0, frame = 0
 565              		@ frame_needed = 0, uses_anonymous_args = 0
  81:Middlewares/LVGL/GUI/lvgl/src/extra/widgets/imgbtn/lv_imgbtn.c ****     LV_ASSERT_OBJ(obj, MY_CLASS);
 566              		.loc 1 81 1 is_stmt 0 view .LVU152
 567 0000 08B5     		push	{r3, lr}
 568              	.LCFI7:
 569              		.cfi_def_cfa_offset 8
 570              		.cfi_offset 3, -8
 571              		.cfi_offset 14, -4
  82:Middlewares/LVGL/GUI/lvgl/src/extra/widgets/imgbtn/lv_imgbtn.c **** 
 572              		.loc 1 82 5 is_stmt 1 view .LVU153
  82:Middlewares/LVGL/GUI/lvgl/src/extra/widgets/imgbtn/lv_imgbtn.c **** 
 573              		.loc 1 82 5 view .LVU154
  82:Middlewares/LVGL/GUI/lvgl/src/extra/widgets/imgbtn/lv_imgbtn.c **** 
 574              		.loc 1 82 5 view .LVU155
  84:Middlewares/LVGL/GUI/lvgl/src/extra/widgets/imgbtn/lv_imgbtn.c **** 
 575              		.loc 1 84 5 view .LVU156
 576              	.LVL65:
  86:Middlewares/LVGL/GUI/lvgl/src/extra/widgets/imgbtn/lv_imgbtn.c ****     imgbtn->img_src_mid[state] = src_mid;
 577              		.loc 1 86 5 view .LVU157
  86:Middlewares/LVGL/GUI/lvgl/src/extra/widgets/imgbtn/lv_imgbtn.c ****     imgbtn->img_src_mid[state] = src_mid;
 578              		.loc 1 86 33 is_stmt 0 view .LVU158
 579 0002 01F1100E 		add	lr, r1, #16
 580 0006 00EB8E0E 		add	lr, r0, lr, lsl #2
 581 000a CEF80420 		str	r2, [lr, #4]
  87:Middlewares/LVGL/GUI/lvgl/src/extra/widgets/imgbtn/lv_imgbtn.c ****     imgbtn->img_src_right[state] = src_right;
 582              		.loc 1 87 5 is_stmt 1 view .LVU159
  87:Middlewares/LVGL/GUI/lvgl/src/extra/widgets/imgbtn/lv_imgbtn.c ****     imgbtn->img_src_right[state] = src_right;
 583              		.loc 1 87 32 is_stmt 0 view .LVU160
 584 000e 01F10A02 		add	r2, r1, #10
ARM GAS  C:\Users\ADMINI~1\AppData\Local\Temp\ccVzpgJw.s 			page 20


 585              	.LVL66:
  87:Middlewares/LVGL/GUI/lvgl/src/extra/widgets/imgbtn/lv_imgbtn.c ****     imgbtn->img_src_right[state] = src_right;
 586              		.loc 1 87 32 view .LVU161
 587 0012 00EB8202 		add	r2, r0, r2, lsl #2
 588 0016 5360     		str	r3, [r2, #4]
 589              	.LVL67:
  88:Middlewares/LVGL/GUI/lvgl/src/extra/widgets/imgbtn/lv_imgbtn.c **** 
 590              		.loc 1 88 5 is_stmt 1 view .LVU162
  88:Middlewares/LVGL/GUI/lvgl/src/extra/widgets/imgbtn/lv_imgbtn.c **** 
 591              		.loc 1 88 34 is_stmt 0 view .LVU163
 592 0018 1631     		adds	r1, r1, #22
 593              	.LVL68:
  88:Middlewares/LVGL/GUI/lvgl/src/extra/widgets/imgbtn/lv_imgbtn.c **** 
 594              		.loc 1 88 34 view .LVU164
 595 001a 00EB810C 		add	ip, r0, r1, lsl #2
 596 001e 029B     		ldr	r3, [sp, #8]
 597              	.LVL69:
  88:Middlewares/LVGL/GUI/lvgl/src/extra/widgets/imgbtn/lv_imgbtn.c **** 
 598              		.loc 1 88 34 view .LVU165
 599 0020 CCF80430 		str	r3, [ip, #4]
 600              	.LVL70:
  90:Middlewares/LVGL/GUI/lvgl/src/extra/widgets/imgbtn/lv_imgbtn.c **** }
 601              		.loc 1 90 5 is_stmt 1 view .LVU166
 602 0024 FFF7FEFF 		bl	refr_img
 603              	.LVL71:
  91:Middlewares/LVGL/GUI/lvgl/src/extra/widgets/imgbtn/lv_imgbtn.c **** 
 604              		.loc 1 91 1 is_stmt 0 view .LVU167
 605 0028 08BD     		pop	{r3, pc}
  91:Middlewares/LVGL/GUI/lvgl/src/extra/widgets/imgbtn/lv_imgbtn.c **** 
 606              		.loc 1 91 1 view .LVU168
 607              		.cfi_endproc
 608              	.LFE197:
 610              		.section	.text.lv_imgbtn_set_state,"ax",%progbits
 611              		.align	1
 612              		.global	lv_imgbtn_set_state
 613              		.syntax unified
 614              		.thumb
 615              		.thumb_func
 617              	lv_imgbtn_set_state:
 618              	.LVL72:
 619              	.LFB198:
  94:Middlewares/LVGL/GUI/lvgl/src/extra/widgets/imgbtn/lv_imgbtn.c ****     LV_ASSERT_OBJ(obj, MY_CLASS);
 620              		.loc 1 94 1 is_stmt 1 view -0
 621              		.cfi_startproc
 622              		@ args = 0, pretend = 0, frame = 0
 623              		@ frame_needed = 0, uses_anonymous_args = 0
  94:Middlewares/LVGL/GUI/lvgl/src/extra/widgets/imgbtn/lv_imgbtn.c ****     LV_ASSERT_OBJ(obj, MY_CLASS);
 624              		.loc 1 94 1 is_stmt 0 view .LVU170
 625 0000 38B5     		push	{r3, r4, r5, lr}
 626              	.LCFI8:
 627              		.cfi_def_cfa_offset 16
 628              		.cfi_offset 3, -16
 629              		.cfi_offset 4, -12
 630              		.cfi_offset 5, -8
 631              		.cfi_offset 14, -4
 632 0002 0446     		mov	r4, r0
  95:Middlewares/LVGL/GUI/lvgl/src/extra/widgets/imgbtn/lv_imgbtn.c **** 
ARM GAS  C:\Users\ADMINI~1\AppData\Local\Temp\ccVzpgJw.s 			page 21


 633              		.loc 1 95 5 is_stmt 1 view .LVU171
  95:Middlewares/LVGL/GUI/lvgl/src/extra/widgets/imgbtn/lv_imgbtn.c **** 
 634              		.loc 1 95 5 view .LVU172
  95:Middlewares/LVGL/GUI/lvgl/src/extra/widgets/imgbtn/lv_imgbtn.c **** 
 635              		.loc 1 95 5 view .LVU173
  97:Middlewares/LVGL/GUI/lvgl/src/extra/widgets/imgbtn/lv_imgbtn.c ****     if(state == LV_IMGBTN_STATE_PRESSED || state == LV_IMGBTN_STATE_CHECKED_PRESSED) obj_state |= L
 636              		.loc 1 97 5 view .LVU174
 637              	.LVL73:
  98:Middlewares/LVGL/GUI/lvgl/src/extra/widgets/imgbtn/lv_imgbtn.c ****     if(state == LV_IMGBTN_STATE_DISABLED || state == LV_IMGBTN_STATE_CHECKED_DISABLED) obj_state |=
 638              		.loc 1 98 5 view .LVU175
  98:Middlewares/LVGL/GUI/lvgl/src/extra/widgets/imgbtn/lv_imgbtn.c ****     if(state == LV_IMGBTN_STATE_DISABLED || state == LV_IMGBTN_STATE_CHECKED_DISABLED) obj_state |=
 639              		.loc 1 98 7 is_stmt 0 view .LVU176
 640 0004 0129     		cmp	r1, #1
 641 0006 1AD0     		beq	.L55
  98:Middlewares/LVGL/GUI/lvgl/src/extra/widgets/imgbtn/lv_imgbtn.c ****     if(state == LV_IMGBTN_STATE_DISABLED || state == LV_IMGBTN_STATE_CHECKED_DISABLED) obj_state |=
 642              		.loc 1 98 41 discriminator 2 view .LVU177
 643 0008 0429     		cmp	r1, #4
 644 000a 1AD0     		beq	.L56
  97:Middlewares/LVGL/GUI/lvgl/src/extra/widgets/imgbtn/lv_imgbtn.c ****     if(state == LV_IMGBTN_STATE_PRESSED || state == LV_IMGBTN_STATE_CHECKED_PRESSED) obj_state |= L
 645              		.loc 1 97 16 view .LVU178
 646 000c 0025     		movs	r5, #0
 647              	.L51:
 648              	.LVL74:
  99:Middlewares/LVGL/GUI/lvgl/src/extra/widgets/imgbtn/lv_imgbtn.c ****     if(state == LV_IMGBTN_STATE_CHECKED_DISABLED || state == LV_IMGBTN_STATE_CHECKED_PRESSED ||
 649              		.loc 1 99 5 is_stmt 1 view .LVU179
  99:Middlewares/LVGL/GUI/lvgl/src/extra/widgets/imgbtn/lv_imgbtn.c ****     if(state == LV_IMGBTN_STATE_CHECKED_DISABLED || state == LV_IMGBTN_STATE_CHECKED_PRESSED ||
 650              		.loc 1 99 7 is_stmt 0 view .LVU180
 651 000e 0229     		cmp	r1, #2
 652 0010 01D0     		beq	.L52
  99:Middlewares/LVGL/GUI/lvgl/src/extra/widgets/imgbtn/lv_imgbtn.c ****     if(state == LV_IMGBTN_STATE_CHECKED_DISABLED || state == LV_IMGBTN_STATE_CHECKED_PRESSED ||
 653              		.loc 1 99 42 discriminator 2 view .LVU181
 654 0012 0529     		cmp	r1, #5
 655 0014 01D1     		bne	.L53
 656              	.L52:
  99:Middlewares/LVGL/GUI/lvgl/src/extra/widgets/imgbtn/lv_imgbtn.c ****     if(state == LV_IMGBTN_STATE_CHECKED_DISABLED || state == LV_IMGBTN_STATE_CHECKED_PRESSED ||
 657              		.loc 1 99 88 is_stmt 1 discriminator 3 view .LVU182
  99:Middlewares/LVGL/GUI/lvgl/src/extra/widgets/imgbtn/lv_imgbtn.c ****     if(state == LV_IMGBTN_STATE_CHECKED_DISABLED || state == LV_IMGBTN_STATE_CHECKED_PRESSED ||
 658              		.loc 1 99 98 is_stmt 0 discriminator 3 view .LVU183
 659 0016 45F08005 		orr	r5, r5, #128
 660              	.LVL75:
 661              	.L53:
 100:Middlewares/LVGL/GUI/lvgl/src/extra/widgets/imgbtn/lv_imgbtn.c ****        state == LV_IMGBTN_STATE_CHECKED_RELEASED) {
 662              		.loc 1 100 5 is_stmt 1 view .LVU184
 100:Middlewares/LVGL/GUI/lvgl/src/extra/widgets/imgbtn/lv_imgbtn.c ****        state == LV_IMGBTN_STATE_CHECKED_RELEASED) {
 663              		.loc 1 100 94 is_stmt 0 view .LVU185
 664 001a 0339     		subs	r1, r1, #3
 665              	.LVL76:
 100:Middlewares/LVGL/GUI/lvgl/src/extra/widgets/imgbtn/lv_imgbtn.c ****        state == LV_IMGBTN_STATE_CHECKED_RELEASED) {
 666              		.loc 1 100 94 view .LVU186
 667 001c C9B2     		uxtb	r1, r1
 100:Middlewares/LVGL/GUI/lvgl/src/extra/widgets/imgbtn/lv_imgbtn.c ****        state == LV_IMGBTN_STATE_CHECKED_RELEASED) {
 668              		.loc 1 100 7 view .LVU187
 669 001e 0229     		cmp	r1, #2
 670 0020 01D8     		bhi	.L54
 102:Middlewares/LVGL/GUI/lvgl/src/extra/widgets/imgbtn/lv_imgbtn.c ****     }
 671              		.loc 1 102 9 is_stmt 1 view .LVU188
 102:Middlewares/LVGL/GUI/lvgl/src/extra/widgets/imgbtn/lv_imgbtn.c ****     }
ARM GAS  C:\Users\ADMINI~1\AppData\Local\Temp\ccVzpgJw.s 			page 22


 672              		.loc 1 102 19 is_stmt 0 view .LVU189
 673 0022 45F00105 		orr	r5, r5, #1
 674              	.LVL77:
 675              	.L54:
 105:Middlewares/LVGL/GUI/lvgl/src/extra/widgets/imgbtn/lv_imgbtn.c ****     lv_obj_add_state(obj, obj_state);
 676              		.loc 1 105 5 is_stmt 1 view .LVU190
 677 0026 A121     		movs	r1, #161
 678 0028 2046     		mov	r0, r4
 679              	.LVL78:
 105:Middlewares/LVGL/GUI/lvgl/src/extra/widgets/imgbtn/lv_imgbtn.c ****     lv_obj_add_state(obj, obj_state);
 680              		.loc 1 105 5 is_stmt 0 view .LVU191
 681 002a FFF7FEFF 		bl	lv_obj_clear_state
 682              	.LVL79:
 106:Middlewares/LVGL/GUI/lvgl/src/extra/widgets/imgbtn/lv_imgbtn.c **** 
 683              		.loc 1 106 5 is_stmt 1 view .LVU192
 684 002e 2946     		mov	r1, r5
 685 0030 2046     		mov	r0, r4
 686 0032 FFF7FEFF 		bl	lv_obj_add_state
 687              	.LVL80:
 108:Middlewares/LVGL/GUI/lvgl/src/extra/widgets/imgbtn/lv_imgbtn.c **** }
 688              		.loc 1 108 5 view .LVU193
 689 0036 2046     		mov	r0, r4
 690 0038 FFF7FEFF 		bl	refr_img
 691              	.LVL81:
 109:Middlewares/LVGL/GUI/lvgl/src/extra/widgets/imgbtn/lv_imgbtn.c **** 
 692              		.loc 1 109 1 is_stmt 0 view .LVU194
 693 003c 38BD     		pop	{r3, r4, r5, pc}
 694              	.LVL82:
 695              	.L55:
  98:Middlewares/LVGL/GUI/lvgl/src/extra/widgets/imgbtn/lv_imgbtn.c ****     if(state == LV_IMGBTN_STATE_DISABLED || state == LV_IMGBTN_STATE_CHECKED_DISABLED) obj_state |=
 696              		.loc 1 98 96 view .LVU195
 697 003e 2025     		movs	r5, #32
 698 0040 E5E7     		b	.L51
 699              	.L56:
 700 0042 2025     		movs	r5, #32
 701 0044 E3E7     		b	.L51
 702              		.cfi_endproc
 703              	.LFE198:
 705              		.section	.text.draw_main,"ax",%progbits
 706              		.align	1
 707              		.syntax unified
 708              		.thumb
 709              		.thumb_func
 711              	draw_main:
 712              	.LVL83:
 713              	.LFB204:
 211:Middlewares/LVGL/GUI/lvgl/src/extra/widgets/imgbtn/lv_imgbtn.c ****     lv_obj_t * obj = lv_event_get_target(e);
 714              		.loc 1 211 1 is_stmt 1 view -0
 715              		.cfi_startproc
 716              		@ args = 0, pretend = 0, frame = 88
 717              		@ frame_needed = 0, uses_anonymous_args = 0
 211:Middlewares/LVGL/GUI/lvgl/src/extra/widgets/imgbtn/lv_imgbtn.c ****     lv_obj_t * obj = lv_event_get_target(e);
 718              		.loc 1 211 1 is_stmt 0 view .LVU197
 719 0000 2DE9F04F 		push	{r4, r5, r6, r7, r8, r9, r10, fp, lr}
 720              	.LCFI9:
 721              		.cfi_def_cfa_offset 36
 722              		.cfi_offset 4, -36
ARM GAS  C:\Users\ADMINI~1\AppData\Local\Temp\ccVzpgJw.s 			page 23


 723              		.cfi_offset 5, -32
 724              		.cfi_offset 6, -28
 725              		.cfi_offset 7, -24
 726              		.cfi_offset 8, -20
 727              		.cfi_offset 9, -16
 728              		.cfi_offset 10, -12
 729              		.cfi_offset 11, -8
 730              		.cfi_offset 14, -4
 731 0004 97B0     		sub	sp, sp, #92
 732              	.LCFI10:
 733              		.cfi_def_cfa_offset 128
 734 0006 0546     		mov	r5, r0
 212:Middlewares/LVGL/GUI/lvgl/src/extra/widgets/imgbtn/lv_imgbtn.c ****     lv_imgbtn_t * imgbtn = (lv_imgbtn_t *)obj;
 735              		.loc 1 212 5 is_stmt 1 view .LVU198
 212:Middlewares/LVGL/GUI/lvgl/src/extra/widgets/imgbtn/lv_imgbtn.c ****     lv_imgbtn_t * imgbtn = (lv_imgbtn_t *)obj;
 736              		.loc 1 212 22 is_stmt 0 view .LVU199
 737 0008 FFF7FEFF 		bl	lv_event_get_target
 738              	.LVL84:
 212:Middlewares/LVGL/GUI/lvgl/src/extra/widgets/imgbtn/lv_imgbtn.c ****     lv_imgbtn_t * imgbtn = (lv_imgbtn_t *)obj;
 739              		.loc 1 212 22 view .LVU200
 740 000c 0446     		mov	r4, r0
 741              	.LVL85:
 213:Middlewares/LVGL/GUI/lvgl/src/extra/widgets/imgbtn/lv_imgbtn.c ****     lv_draw_ctx_t * draw_ctx = lv_event_get_draw_ctx(e);
 742              		.loc 1 213 5 is_stmt 1 view .LVU201
 214:Middlewares/LVGL/GUI/lvgl/src/extra/widgets/imgbtn/lv_imgbtn.c **** 
 743              		.loc 1 214 5 view .LVU202
 214:Middlewares/LVGL/GUI/lvgl/src/extra/widgets/imgbtn/lv_imgbtn.c **** 
 744              		.loc 1 214 32 is_stmt 0 view .LVU203
 745 000e 2846     		mov	r0, r5
 746              	.LVL86:
 214:Middlewares/LVGL/GUI/lvgl/src/extra/widgets/imgbtn/lv_imgbtn.c **** 
 747              		.loc 1 214 32 view .LVU204
 748 0010 FFF7FEFF 		bl	lv_event_get_draw_ctx
 749              	.LVL87:
 750 0014 8146     		mov	r9, r0
 751              	.LVL88:
 217:Middlewares/LVGL/GUI/lvgl/src/extra/widgets/imgbtn/lv_imgbtn.c **** 
 752              		.loc 1 217 5 is_stmt 1 view .LVU205
 217:Middlewares/LVGL/GUI/lvgl/src/extra/widgets/imgbtn/lv_imgbtn.c **** 
 753              		.loc 1 217 32 is_stmt 0 view .LVU206
 754 0016 2046     		mov	r0, r4
 755              	.LVL89:
 217:Middlewares/LVGL/GUI/lvgl/src/extra/widgets/imgbtn/lv_imgbtn.c **** 
 756              		.loc 1 217 32 view .LVU207
 757 0018 FFF7FEFF 		bl	get_state
 758              	.LVL90:
 759 001c 0146     		mov	r1, r0
 760 001e 2046     		mov	r0, r4
 761 0020 FFF7FEFF 		bl	suggest_state
 762              	.LVL91:
 763 0024 0746     		mov	r7, r0
 764              	.LVL92:
 220:Middlewares/LVGL/GUI/lvgl/src/extra/widgets/imgbtn/lv_imgbtn.c **** 
 765              		.loc 1 220 5 is_stmt 1 view .LVU208
 220:Middlewares/LVGL/GUI/lvgl/src/extra/widgets/imgbtn/lv_imgbtn.c **** 
 766              		.loc 1 220 18 is_stmt 0 view .LVU209
 767 0026 00F11003 		add	r3, r0, #16
ARM GAS  C:\Users\ADMINI~1\AppData\Local\Temp\ccVzpgJw.s 			page 24


 768 002a 04EB8303 		add	r3, r4, r3, lsl #2
 769 002e D3F804B0 		ldr	fp, [r3, #4]
 770              	.LVL93:
 222:Middlewares/LVGL/GUI/lvgl/src/extra/widgets/imgbtn/lv_imgbtn.c ****     lv_coord_t th = lv_obj_get_style_transform_height(obj, LV_PART_MAIN);
 771              		.loc 1 222 5 is_stmt 1 view .LVU210
 772              	.LBB10:
 773              	.LBI10:
 774              		.file 2 "Middlewares/LVGL/GUI/lvgl/src/extra/widgets/imgbtn/../../../../src/core/lv_obj_style_gen.
   1:Middlewares/LVGL/GUI/lvgl/src/extra/widgets/imgbtn/../../../../src/core/lv_obj_style_gen.h **** static inline lv_coord_t lv_obj_get_style_width(const struct _lv_obj_t * obj, uint32_t part)
   2:Middlewares/LVGL/GUI/lvgl/src/extra/widgets/imgbtn/../../../../src/core/lv_obj_style_gen.h **** {
   3:Middlewares/LVGL/GUI/lvgl/src/extra/widgets/imgbtn/../../../../src/core/lv_obj_style_gen.h ****     lv_style_value_t v = lv_obj_get_style_prop(obj, part, LV_STYLE_WIDTH);
   4:Middlewares/LVGL/GUI/lvgl/src/extra/widgets/imgbtn/../../../../src/core/lv_obj_style_gen.h ****     return (lv_coord_t)v.num;
   5:Middlewares/LVGL/GUI/lvgl/src/extra/widgets/imgbtn/../../../../src/core/lv_obj_style_gen.h **** }
   6:Middlewares/LVGL/GUI/lvgl/src/extra/widgets/imgbtn/../../../../src/core/lv_obj_style_gen.h **** 
   7:Middlewares/LVGL/GUI/lvgl/src/extra/widgets/imgbtn/../../../../src/core/lv_obj_style_gen.h **** static inline lv_coord_t lv_obj_get_style_min_width(const struct _lv_obj_t * obj, uint32_t part)
   8:Middlewares/LVGL/GUI/lvgl/src/extra/widgets/imgbtn/../../../../src/core/lv_obj_style_gen.h **** {
   9:Middlewares/LVGL/GUI/lvgl/src/extra/widgets/imgbtn/../../../../src/core/lv_obj_style_gen.h ****     lv_style_value_t v = lv_obj_get_style_prop(obj, part, LV_STYLE_MIN_WIDTH);
  10:Middlewares/LVGL/GUI/lvgl/src/extra/widgets/imgbtn/../../../../src/core/lv_obj_style_gen.h ****     return (lv_coord_t)v.num;
  11:Middlewares/LVGL/GUI/lvgl/src/extra/widgets/imgbtn/../../../../src/core/lv_obj_style_gen.h **** }
  12:Middlewares/LVGL/GUI/lvgl/src/extra/widgets/imgbtn/../../../../src/core/lv_obj_style_gen.h **** 
  13:Middlewares/LVGL/GUI/lvgl/src/extra/widgets/imgbtn/../../../../src/core/lv_obj_style_gen.h **** static inline lv_coord_t lv_obj_get_style_max_width(const struct _lv_obj_t * obj, uint32_t part)
  14:Middlewares/LVGL/GUI/lvgl/src/extra/widgets/imgbtn/../../../../src/core/lv_obj_style_gen.h **** {
  15:Middlewares/LVGL/GUI/lvgl/src/extra/widgets/imgbtn/../../../../src/core/lv_obj_style_gen.h ****     lv_style_value_t v = lv_obj_get_style_prop(obj, part, LV_STYLE_MAX_WIDTH);
  16:Middlewares/LVGL/GUI/lvgl/src/extra/widgets/imgbtn/../../../../src/core/lv_obj_style_gen.h ****     return (lv_coord_t)v.num;
  17:Middlewares/LVGL/GUI/lvgl/src/extra/widgets/imgbtn/../../../../src/core/lv_obj_style_gen.h **** }
  18:Middlewares/LVGL/GUI/lvgl/src/extra/widgets/imgbtn/../../../../src/core/lv_obj_style_gen.h **** 
  19:Middlewares/LVGL/GUI/lvgl/src/extra/widgets/imgbtn/../../../../src/core/lv_obj_style_gen.h **** static inline lv_coord_t lv_obj_get_style_height(const struct _lv_obj_t * obj, uint32_t part)
  20:Middlewares/LVGL/GUI/lvgl/src/extra/widgets/imgbtn/../../../../src/core/lv_obj_style_gen.h **** {
  21:Middlewares/LVGL/GUI/lvgl/src/extra/widgets/imgbtn/../../../../src/core/lv_obj_style_gen.h ****     lv_style_value_t v = lv_obj_get_style_prop(obj, part, LV_STYLE_HEIGHT);
  22:Middlewares/LVGL/GUI/lvgl/src/extra/widgets/imgbtn/../../../../src/core/lv_obj_style_gen.h ****     return (lv_coord_t)v.num;
  23:Middlewares/LVGL/GUI/lvgl/src/extra/widgets/imgbtn/../../../../src/core/lv_obj_style_gen.h **** }
  24:Middlewares/LVGL/GUI/lvgl/src/extra/widgets/imgbtn/../../../../src/core/lv_obj_style_gen.h **** 
  25:Middlewares/LVGL/GUI/lvgl/src/extra/widgets/imgbtn/../../../../src/core/lv_obj_style_gen.h **** static inline lv_coord_t lv_obj_get_style_min_height(const struct _lv_obj_t * obj, uint32_t part)
  26:Middlewares/LVGL/GUI/lvgl/src/extra/widgets/imgbtn/../../../../src/core/lv_obj_style_gen.h **** {
  27:Middlewares/LVGL/GUI/lvgl/src/extra/widgets/imgbtn/../../../../src/core/lv_obj_style_gen.h ****     lv_style_value_t v = lv_obj_get_style_prop(obj, part, LV_STYLE_MIN_HEIGHT);
  28:Middlewares/LVGL/GUI/lvgl/src/extra/widgets/imgbtn/../../../../src/core/lv_obj_style_gen.h ****     return (lv_coord_t)v.num;
  29:Middlewares/LVGL/GUI/lvgl/src/extra/widgets/imgbtn/../../../../src/core/lv_obj_style_gen.h **** }
  30:Middlewares/LVGL/GUI/lvgl/src/extra/widgets/imgbtn/../../../../src/core/lv_obj_style_gen.h **** 
  31:Middlewares/LVGL/GUI/lvgl/src/extra/widgets/imgbtn/../../../../src/core/lv_obj_style_gen.h **** static inline lv_coord_t lv_obj_get_style_max_height(const struct _lv_obj_t * obj, uint32_t part)
  32:Middlewares/LVGL/GUI/lvgl/src/extra/widgets/imgbtn/../../../../src/core/lv_obj_style_gen.h **** {
  33:Middlewares/LVGL/GUI/lvgl/src/extra/widgets/imgbtn/../../../../src/core/lv_obj_style_gen.h ****     lv_style_value_t v = lv_obj_get_style_prop(obj, part, LV_STYLE_MAX_HEIGHT);
  34:Middlewares/LVGL/GUI/lvgl/src/extra/widgets/imgbtn/../../../../src/core/lv_obj_style_gen.h ****     return (lv_coord_t)v.num;
  35:Middlewares/LVGL/GUI/lvgl/src/extra/widgets/imgbtn/../../../../src/core/lv_obj_style_gen.h **** }
  36:Middlewares/LVGL/GUI/lvgl/src/extra/widgets/imgbtn/../../../../src/core/lv_obj_style_gen.h **** 
  37:Middlewares/LVGL/GUI/lvgl/src/extra/widgets/imgbtn/../../../../src/core/lv_obj_style_gen.h **** static inline lv_coord_t lv_obj_get_style_x(const struct _lv_obj_t * obj, uint32_t part)
  38:Middlewares/LVGL/GUI/lvgl/src/extra/widgets/imgbtn/../../../../src/core/lv_obj_style_gen.h **** {
  39:Middlewares/LVGL/GUI/lvgl/src/extra/widgets/imgbtn/../../../../src/core/lv_obj_style_gen.h ****     lv_style_value_t v = lv_obj_get_style_prop(obj, part, LV_STYLE_X);
  40:Middlewares/LVGL/GUI/lvgl/src/extra/widgets/imgbtn/../../../../src/core/lv_obj_style_gen.h ****     return (lv_coord_t)v.num;
  41:Middlewares/LVGL/GUI/lvgl/src/extra/widgets/imgbtn/../../../../src/core/lv_obj_style_gen.h **** }
  42:Middlewares/LVGL/GUI/lvgl/src/extra/widgets/imgbtn/../../../../src/core/lv_obj_style_gen.h **** 
  43:Middlewares/LVGL/GUI/lvgl/src/extra/widgets/imgbtn/../../../../src/core/lv_obj_style_gen.h **** static inline lv_coord_t lv_obj_get_style_y(const struct _lv_obj_t * obj, uint32_t part)
  44:Middlewares/LVGL/GUI/lvgl/src/extra/widgets/imgbtn/../../../../src/core/lv_obj_style_gen.h **** {
  45:Middlewares/LVGL/GUI/lvgl/src/extra/widgets/imgbtn/../../../../src/core/lv_obj_style_gen.h ****     lv_style_value_t v = lv_obj_get_style_prop(obj, part, LV_STYLE_Y);
  46:Middlewares/LVGL/GUI/lvgl/src/extra/widgets/imgbtn/../../../../src/core/lv_obj_style_gen.h ****     return (lv_coord_t)v.num;
  47:Middlewares/LVGL/GUI/lvgl/src/extra/widgets/imgbtn/../../../../src/core/lv_obj_style_gen.h **** }
  48:Middlewares/LVGL/GUI/lvgl/src/extra/widgets/imgbtn/../../../../src/core/lv_obj_style_gen.h **** 
  49:Middlewares/LVGL/GUI/lvgl/src/extra/widgets/imgbtn/../../../../src/core/lv_obj_style_gen.h **** static inline lv_align_t lv_obj_get_style_align(const struct _lv_obj_t * obj, uint32_t part)
ARM GAS  C:\Users\ADMINI~1\AppData\Local\Temp\ccVzpgJw.s 			page 25


  50:Middlewares/LVGL/GUI/lvgl/src/extra/widgets/imgbtn/../../../../src/core/lv_obj_style_gen.h **** {
  51:Middlewares/LVGL/GUI/lvgl/src/extra/widgets/imgbtn/../../../../src/core/lv_obj_style_gen.h ****     lv_style_value_t v = lv_obj_get_style_prop(obj, part, LV_STYLE_ALIGN);
  52:Middlewares/LVGL/GUI/lvgl/src/extra/widgets/imgbtn/../../../../src/core/lv_obj_style_gen.h ****     return (lv_align_t)v.num;
  53:Middlewares/LVGL/GUI/lvgl/src/extra/widgets/imgbtn/../../../../src/core/lv_obj_style_gen.h **** }
  54:Middlewares/LVGL/GUI/lvgl/src/extra/widgets/imgbtn/../../../../src/core/lv_obj_style_gen.h **** 
  55:Middlewares/LVGL/GUI/lvgl/src/extra/widgets/imgbtn/../../../../src/core/lv_obj_style_gen.h **** static inline lv_coord_t lv_obj_get_style_transform_width(const struct _lv_obj_t * obj, uint32_t pa
 775              		.loc 2 55 26 view .LVU211
 776              	.LBB11:
  56:Middlewares/LVGL/GUI/lvgl/src/extra/widgets/imgbtn/../../../../src/core/lv_obj_style_gen.h **** {
  57:Middlewares/LVGL/GUI/lvgl/src/extra/widgets/imgbtn/../../../../src/core/lv_obj_style_gen.h ****     lv_style_value_t v = lv_obj_get_style_prop(obj, part, LV_STYLE_TRANSFORM_WIDTH);
 777              		.loc 2 57 5 view .LVU212
 778              		.loc 2 57 26 is_stmt 0 view .LVU213
 779 0032 40F60A02 		movw	r2, #2058
 780 0036 0021     		movs	r1, #0
 781 0038 2046     		mov	r0, r4
 782              	.LVL94:
 783              		.loc 2 57 26 view .LVU214
 784 003a FFF7FEFF 		bl	lv_obj_get_style_prop
 785              	.LVL95:
 786 003e 8046     		mov	r8, r0
 787              	.LVL96:
  58:Middlewares/LVGL/GUI/lvgl/src/extra/widgets/imgbtn/../../../../src/core/lv_obj_style_gen.h ****     return (lv_coord_t)v.num;
 788              		.loc 2 58 5 is_stmt 1 view .LVU215
 789              		.loc 2 58 5 is_stmt 0 view .LVU216
 790              	.LBE11:
 791              	.LBE10:
 223:Middlewares/LVGL/GUI/lvgl/src/extra/widgets/imgbtn/lv_imgbtn.c ****     lv_area_t coords;
 792              		.loc 1 223 5 is_stmt 1 view .LVU217
 793              	.LBB12:
 794              	.LBI12:
  59:Middlewares/LVGL/GUI/lvgl/src/extra/widgets/imgbtn/../../../../src/core/lv_obj_style_gen.h **** }
  60:Middlewares/LVGL/GUI/lvgl/src/extra/widgets/imgbtn/../../../../src/core/lv_obj_style_gen.h **** 
  61:Middlewares/LVGL/GUI/lvgl/src/extra/widgets/imgbtn/../../../../src/core/lv_obj_style_gen.h **** static inline lv_coord_t lv_obj_get_style_transform_height(const struct _lv_obj_t * obj, uint32_t p
 795              		.loc 2 61 26 view .LVU218
 796              	.LBB13:
  62:Middlewares/LVGL/GUI/lvgl/src/extra/widgets/imgbtn/../../../../src/core/lv_obj_style_gen.h **** {
  63:Middlewares/LVGL/GUI/lvgl/src/extra/widgets/imgbtn/../../../../src/core/lv_obj_style_gen.h ****     lv_style_value_t v = lv_obj_get_style_prop(obj, part, LV_STYLE_TRANSFORM_HEIGHT);
 797              		.loc 2 63 5 view .LVU219
 798              		.loc 2 63 26 is_stmt 0 view .LVU220
 799 0040 40F60B02 		movw	r2, #2059
 800 0044 0021     		movs	r1, #0
 801 0046 2046     		mov	r0, r4
 802              	.LVL97:
 803              		.loc 2 63 26 view .LVU221
 804 0048 FFF7FEFF 		bl	lv_obj_get_style_prop
 805              	.LVL98:
  64:Middlewares/LVGL/GUI/lvgl/src/extra/widgets/imgbtn/../../../../src/core/lv_obj_style_gen.h ****     return (lv_coord_t)v.num;
 806              		.loc 2 64 5 is_stmt 1 view .LVU222
 807              		.loc 2 64 5 is_stmt 0 view .LVU223
 808              	.LBE13:
 809              	.LBE12:
 224:Middlewares/LVGL/GUI/lvgl/src/extra/widgets/imgbtn/lv_imgbtn.c ****     lv_area_copy(&coords, &obj->coords);
 810              		.loc 1 224 5 is_stmt 1 view .LVU224
 225:Middlewares/LVGL/GUI/lvgl/src/extra/widgets/imgbtn/lv_imgbtn.c ****     coords.x1 -= tw;
 811              		.loc 1 225 5 view .LVU225
 812              	.LBB14:
 813              	.LBI14:
ARM GAS  C:\Users\ADMINI~1\AppData\Local\Temp\ccVzpgJw.s 			page 26


 814              		.file 3 "Middlewares/LVGL/GUI/lvgl/src/extra/widgets/imgbtn/../../../../src/hal/../draw/../misc/..
   1:Middlewares/LVGL/GUI/lvgl/src/extra/widgets/imgbtn/../../../../src/hal/../draw/../misc/../font/../misc/lv_area.h **** /**
   2:Middlewares/LVGL/GUI/lvgl/src/extra/widgets/imgbtn/../../../../src/hal/../draw/../misc/../font/../misc/lv_area.h ****  * @file lv_area.h
   3:Middlewares/LVGL/GUI/lvgl/src/extra/widgets/imgbtn/../../../../src/hal/../draw/../misc/../font/../misc/lv_area.h ****  *
   4:Middlewares/LVGL/GUI/lvgl/src/extra/widgets/imgbtn/../../../../src/hal/../draw/../misc/../font/../misc/lv_area.h ****  */
   5:Middlewares/LVGL/GUI/lvgl/src/extra/widgets/imgbtn/../../../../src/hal/../draw/../misc/../font/../misc/lv_area.h **** 
   6:Middlewares/LVGL/GUI/lvgl/src/extra/widgets/imgbtn/../../../../src/hal/../draw/../misc/../font/../misc/lv_area.h **** #ifndef LV_AREA_H
   7:Middlewares/LVGL/GUI/lvgl/src/extra/widgets/imgbtn/../../../../src/hal/../draw/../misc/../font/../misc/lv_area.h **** #define LV_AREA_H
   8:Middlewares/LVGL/GUI/lvgl/src/extra/widgets/imgbtn/../../../../src/hal/../draw/../misc/../font/../misc/lv_area.h **** 
   9:Middlewares/LVGL/GUI/lvgl/src/extra/widgets/imgbtn/../../../../src/hal/../draw/../misc/../font/../misc/lv_area.h **** #ifdef __cplusplus
  10:Middlewares/LVGL/GUI/lvgl/src/extra/widgets/imgbtn/../../../../src/hal/../draw/../misc/../font/../misc/lv_area.h **** extern "C" {
  11:Middlewares/LVGL/GUI/lvgl/src/extra/widgets/imgbtn/../../../../src/hal/../draw/../misc/../font/../misc/lv_area.h **** #endif
  12:Middlewares/LVGL/GUI/lvgl/src/extra/widgets/imgbtn/../../../../src/hal/../draw/../misc/../font/../misc/lv_area.h **** 
  13:Middlewares/LVGL/GUI/lvgl/src/extra/widgets/imgbtn/../../../../src/hal/../draw/../misc/../font/../misc/lv_area.h **** /*********************
  14:Middlewares/LVGL/GUI/lvgl/src/extra/widgets/imgbtn/../../../../src/hal/../draw/../misc/../font/../misc/lv_area.h ****  *      INCLUDES
  15:Middlewares/LVGL/GUI/lvgl/src/extra/widgets/imgbtn/../../../../src/hal/../draw/../misc/../font/../misc/lv_area.h ****  *********************/
  16:Middlewares/LVGL/GUI/lvgl/src/extra/widgets/imgbtn/../../../../src/hal/../draw/../misc/../font/../misc/lv_area.h **** #include "../lv_conf_internal.h"
  17:Middlewares/LVGL/GUI/lvgl/src/extra/widgets/imgbtn/../../../../src/hal/../draw/../misc/../font/../misc/lv_area.h **** #include <stdbool.h>
  18:Middlewares/LVGL/GUI/lvgl/src/extra/widgets/imgbtn/../../../../src/hal/../draw/../misc/../font/../misc/lv_area.h **** #include <stdint.h>
  19:Middlewares/LVGL/GUI/lvgl/src/extra/widgets/imgbtn/../../../../src/hal/../draw/../misc/../font/../misc/lv_area.h **** 
  20:Middlewares/LVGL/GUI/lvgl/src/extra/widgets/imgbtn/../../../../src/hal/../draw/../misc/../font/../misc/lv_area.h **** /*********************
  21:Middlewares/LVGL/GUI/lvgl/src/extra/widgets/imgbtn/../../../../src/hal/../draw/../misc/../font/../misc/lv_area.h ****  *      DEFINES
  22:Middlewares/LVGL/GUI/lvgl/src/extra/widgets/imgbtn/../../../../src/hal/../draw/../misc/../font/../misc/lv_area.h ****  *********************/
  23:Middlewares/LVGL/GUI/lvgl/src/extra/widgets/imgbtn/../../../../src/hal/../draw/../misc/../font/../misc/lv_area.h **** 
  24:Middlewares/LVGL/GUI/lvgl/src/extra/widgets/imgbtn/../../../../src/hal/../draw/../misc/../font/../misc/lv_area.h **** #if LV_USE_LARGE_COORD
  25:Middlewares/LVGL/GUI/lvgl/src/extra/widgets/imgbtn/../../../../src/hal/../draw/../misc/../font/../misc/lv_area.h **** typedef int32_t lv_coord_t;
  26:Middlewares/LVGL/GUI/lvgl/src/extra/widgets/imgbtn/../../../../src/hal/../draw/../misc/../font/../misc/lv_area.h **** #else
  27:Middlewares/LVGL/GUI/lvgl/src/extra/widgets/imgbtn/../../../../src/hal/../draw/../misc/../font/../misc/lv_area.h **** typedef int16_t lv_coord_t;
  28:Middlewares/LVGL/GUI/lvgl/src/extra/widgets/imgbtn/../../../../src/hal/../draw/../misc/../font/../misc/lv_area.h **** #endif
  29:Middlewares/LVGL/GUI/lvgl/src/extra/widgets/imgbtn/../../../../src/hal/../draw/../misc/../font/../misc/lv_area.h **** 
  30:Middlewares/LVGL/GUI/lvgl/src/extra/widgets/imgbtn/../../../../src/hal/../draw/../misc/../font/../misc/lv_area.h **** /**********************
  31:Middlewares/LVGL/GUI/lvgl/src/extra/widgets/imgbtn/../../../../src/hal/../draw/../misc/../font/../misc/lv_area.h ****  *      TYPEDEFS
  32:Middlewares/LVGL/GUI/lvgl/src/extra/widgets/imgbtn/../../../../src/hal/../draw/../misc/../font/../misc/lv_area.h ****  **********************/
  33:Middlewares/LVGL/GUI/lvgl/src/extra/widgets/imgbtn/../../../../src/hal/../draw/../misc/../font/../misc/lv_area.h **** 
  34:Middlewares/LVGL/GUI/lvgl/src/extra/widgets/imgbtn/../../../../src/hal/../draw/../misc/../font/../misc/lv_area.h **** /**
  35:Middlewares/LVGL/GUI/lvgl/src/extra/widgets/imgbtn/../../../../src/hal/../draw/../misc/../font/../misc/lv_area.h ****  * Represents a point on the screen.
  36:Middlewares/LVGL/GUI/lvgl/src/extra/widgets/imgbtn/../../../../src/hal/../draw/../misc/../font/../misc/lv_area.h ****  */
  37:Middlewares/LVGL/GUI/lvgl/src/extra/widgets/imgbtn/../../../../src/hal/../draw/../misc/../font/../misc/lv_area.h **** typedef struct {
  38:Middlewares/LVGL/GUI/lvgl/src/extra/widgets/imgbtn/../../../../src/hal/../draw/../misc/../font/../misc/lv_area.h ****     lv_coord_t x;
  39:Middlewares/LVGL/GUI/lvgl/src/extra/widgets/imgbtn/../../../../src/hal/../draw/../misc/../font/../misc/lv_area.h ****     lv_coord_t y;
  40:Middlewares/LVGL/GUI/lvgl/src/extra/widgets/imgbtn/../../../../src/hal/../draw/../misc/../font/../misc/lv_area.h **** } lv_point_t;
  41:Middlewares/LVGL/GUI/lvgl/src/extra/widgets/imgbtn/../../../../src/hal/../draw/../misc/../font/../misc/lv_area.h **** 
  42:Middlewares/LVGL/GUI/lvgl/src/extra/widgets/imgbtn/../../../../src/hal/../draw/../misc/../font/../misc/lv_area.h **** /** Represents an area of the screen.*/
  43:Middlewares/LVGL/GUI/lvgl/src/extra/widgets/imgbtn/../../../../src/hal/../draw/../misc/../font/../misc/lv_area.h **** typedef struct {
  44:Middlewares/LVGL/GUI/lvgl/src/extra/widgets/imgbtn/../../../../src/hal/../draw/../misc/../font/../misc/lv_area.h ****     lv_coord_t x1;
  45:Middlewares/LVGL/GUI/lvgl/src/extra/widgets/imgbtn/../../../../src/hal/../draw/../misc/../font/../misc/lv_area.h ****     lv_coord_t y1;
  46:Middlewares/LVGL/GUI/lvgl/src/extra/widgets/imgbtn/../../../../src/hal/../draw/../misc/../font/../misc/lv_area.h ****     lv_coord_t x2;
  47:Middlewares/LVGL/GUI/lvgl/src/extra/widgets/imgbtn/../../../../src/hal/../draw/../misc/../font/../misc/lv_area.h ****     lv_coord_t y2;
  48:Middlewares/LVGL/GUI/lvgl/src/extra/widgets/imgbtn/../../../../src/hal/../draw/../misc/../font/../misc/lv_area.h **** } lv_area_t;
  49:Middlewares/LVGL/GUI/lvgl/src/extra/widgets/imgbtn/../../../../src/hal/../draw/../misc/../font/../misc/lv_area.h **** 
  50:Middlewares/LVGL/GUI/lvgl/src/extra/widgets/imgbtn/../../../../src/hal/../draw/../misc/../font/../misc/lv_area.h **** /** Alignments*/
  51:Middlewares/LVGL/GUI/lvgl/src/extra/widgets/imgbtn/../../../../src/hal/../draw/../misc/../font/../misc/lv_area.h **** enum {
  52:Middlewares/LVGL/GUI/lvgl/src/extra/widgets/imgbtn/../../../../src/hal/../draw/../misc/../font/../misc/lv_area.h ****     LV_ALIGN_DEFAULT = 0,
  53:Middlewares/LVGL/GUI/lvgl/src/extra/widgets/imgbtn/../../../../src/hal/../draw/../misc/../font/../misc/lv_area.h ****     LV_ALIGN_TOP_LEFT,
  54:Middlewares/LVGL/GUI/lvgl/src/extra/widgets/imgbtn/../../../../src/hal/../draw/../misc/../font/../misc/lv_area.h ****     LV_ALIGN_TOP_MID,
  55:Middlewares/LVGL/GUI/lvgl/src/extra/widgets/imgbtn/../../../../src/hal/../draw/../misc/../font/../misc/lv_area.h ****     LV_ALIGN_TOP_RIGHT,
  56:Middlewares/LVGL/GUI/lvgl/src/extra/widgets/imgbtn/../../../../src/hal/../draw/../misc/../font/../misc/lv_area.h ****     LV_ALIGN_BOTTOM_LEFT,
ARM GAS  C:\Users\ADMINI~1\AppData\Local\Temp\ccVzpgJw.s 			page 27


  57:Middlewares/LVGL/GUI/lvgl/src/extra/widgets/imgbtn/../../../../src/hal/../draw/../misc/../font/../misc/lv_area.h ****     LV_ALIGN_BOTTOM_MID,
  58:Middlewares/LVGL/GUI/lvgl/src/extra/widgets/imgbtn/../../../../src/hal/../draw/../misc/../font/../misc/lv_area.h ****     LV_ALIGN_BOTTOM_RIGHT,
  59:Middlewares/LVGL/GUI/lvgl/src/extra/widgets/imgbtn/../../../../src/hal/../draw/../misc/../font/../misc/lv_area.h ****     LV_ALIGN_LEFT_MID,
  60:Middlewares/LVGL/GUI/lvgl/src/extra/widgets/imgbtn/../../../../src/hal/../draw/../misc/../font/../misc/lv_area.h ****     LV_ALIGN_RIGHT_MID,
  61:Middlewares/LVGL/GUI/lvgl/src/extra/widgets/imgbtn/../../../../src/hal/../draw/../misc/../font/../misc/lv_area.h ****     LV_ALIGN_CENTER,
  62:Middlewares/LVGL/GUI/lvgl/src/extra/widgets/imgbtn/../../../../src/hal/../draw/../misc/../font/../misc/lv_area.h **** 
  63:Middlewares/LVGL/GUI/lvgl/src/extra/widgets/imgbtn/../../../../src/hal/../draw/../misc/../font/../misc/lv_area.h ****     LV_ALIGN_OUT_TOP_LEFT,
  64:Middlewares/LVGL/GUI/lvgl/src/extra/widgets/imgbtn/../../../../src/hal/../draw/../misc/../font/../misc/lv_area.h ****     LV_ALIGN_OUT_TOP_MID,
  65:Middlewares/LVGL/GUI/lvgl/src/extra/widgets/imgbtn/../../../../src/hal/../draw/../misc/../font/../misc/lv_area.h ****     LV_ALIGN_OUT_TOP_RIGHT,
  66:Middlewares/LVGL/GUI/lvgl/src/extra/widgets/imgbtn/../../../../src/hal/../draw/../misc/../font/../misc/lv_area.h ****     LV_ALIGN_OUT_BOTTOM_LEFT,
  67:Middlewares/LVGL/GUI/lvgl/src/extra/widgets/imgbtn/../../../../src/hal/../draw/../misc/../font/../misc/lv_area.h ****     LV_ALIGN_OUT_BOTTOM_MID,
  68:Middlewares/LVGL/GUI/lvgl/src/extra/widgets/imgbtn/../../../../src/hal/../draw/../misc/../font/../misc/lv_area.h ****     LV_ALIGN_OUT_BOTTOM_RIGHT,
  69:Middlewares/LVGL/GUI/lvgl/src/extra/widgets/imgbtn/../../../../src/hal/../draw/../misc/../font/../misc/lv_area.h ****     LV_ALIGN_OUT_LEFT_TOP,
  70:Middlewares/LVGL/GUI/lvgl/src/extra/widgets/imgbtn/../../../../src/hal/../draw/../misc/../font/../misc/lv_area.h ****     LV_ALIGN_OUT_LEFT_MID,
  71:Middlewares/LVGL/GUI/lvgl/src/extra/widgets/imgbtn/../../../../src/hal/../draw/../misc/../font/../misc/lv_area.h ****     LV_ALIGN_OUT_LEFT_BOTTOM,
  72:Middlewares/LVGL/GUI/lvgl/src/extra/widgets/imgbtn/../../../../src/hal/../draw/../misc/../font/../misc/lv_area.h ****     LV_ALIGN_OUT_RIGHT_TOP,
  73:Middlewares/LVGL/GUI/lvgl/src/extra/widgets/imgbtn/../../../../src/hal/../draw/../misc/../font/../misc/lv_area.h ****     LV_ALIGN_OUT_RIGHT_MID,
  74:Middlewares/LVGL/GUI/lvgl/src/extra/widgets/imgbtn/../../../../src/hal/../draw/../misc/../font/../misc/lv_area.h ****     LV_ALIGN_OUT_RIGHT_BOTTOM,
  75:Middlewares/LVGL/GUI/lvgl/src/extra/widgets/imgbtn/../../../../src/hal/../draw/../misc/../font/../misc/lv_area.h **** };
  76:Middlewares/LVGL/GUI/lvgl/src/extra/widgets/imgbtn/../../../../src/hal/../draw/../misc/../font/../misc/lv_area.h **** typedef uint8_t lv_align_t;
  77:Middlewares/LVGL/GUI/lvgl/src/extra/widgets/imgbtn/../../../../src/hal/../draw/../misc/../font/../misc/lv_area.h **** 
  78:Middlewares/LVGL/GUI/lvgl/src/extra/widgets/imgbtn/../../../../src/hal/../draw/../misc/../font/../misc/lv_area.h **** enum {
  79:Middlewares/LVGL/GUI/lvgl/src/extra/widgets/imgbtn/../../../../src/hal/../draw/../misc/../font/../misc/lv_area.h ****     LV_DIR_NONE     = 0x00,
  80:Middlewares/LVGL/GUI/lvgl/src/extra/widgets/imgbtn/../../../../src/hal/../draw/../misc/../font/../misc/lv_area.h ****     LV_DIR_LEFT     = (1 << 0),
  81:Middlewares/LVGL/GUI/lvgl/src/extra/widgets/imgbtn/../../../../src/hal/../draw/../misc/../font/../misc/lv_area.h ****     LV_DIR_RIGHT    = (1 << 1),
  82:Middlewares/LVGL/GUI/lvgl/src/extra/widgets/imgbtn/../../../../src/hal/../draw/../misc/../font/../misc/lv_area.h ****     LV_DIR_TOP      = (1 << 2),
  83:Middlewares/LVGL/GUI/lvgl/src/extra/widgets/imgbtn/../../../../src/hal/../draw/../misc/../font/../misc/lv_area.h ****     LV_DIR_BOTTOM   = (1 << 3),
  84:Middlewares/LVGL/GUI/lvgl/src/extra/widgets/imgbtn/../../../../src/hal/../draw/../misc/../font/../misc/lv_area.h ****     LV_DIR_HOR      = LV_DIR_LEFT | LV_DIR_RIGHT,
  85:Middlewares/LVGL/GUI/lvgl/src/extra/widgets/imgbtn/../../../../src/hal/../draw/../misc/../font/../misc/lv_area.h ****     LV_DIR_VER      = LV_DIR_TOP | LV_DIR_BOTTOM,
  86:Middlewares/LVGL/GUI/lvgl/src/extra/widgets/imgbtn/../../../../src/hal/../draw/../misc/../font/../misc/lv_area.h ****     LV_DIR_ALL      = LV_DIR_HOR | LV_DIR_VER,
  87:Middlewares/LVGL/GUI/lvgl/src/extra/widgets/imgbtn/../../../../src/hal/../draw/../misc/../font/../misc/lv_area.h **** };
  88:Middlewares/LVGL/GUI/lvgl/src/extra/widgets/imgbtn/../../../../src/hal/../draw/../misc/../font/../misc/lv_area.h **** 
  89:Middlewares/LVGL/GUI/lvgl/src/extra/widgets/imgbtn/../../../../src/hal/../draw/../misc/../font/../misc/lv_area.h **** typedef uint8_t lv_dir_t;
  90:Middlewares/LVGL/GUI/lvgl/src/extra/widgets/imgbtn/../../../../src/hal/../draw/../misc/../font/../misc/lv_area.h **** 
  91:Middlewares/LVGL/GUI/lvgl/src/extra/widgets/imgbtn/../../../../src/hal/../draw/../misc/../font/../misc/lv_area.h **** /**********************
  92:Middlewares/LVGL/GUI/lvgl/src/extra/widgets/imgbtn/../../../../src/hal/../draw/../misc/../font/../misc/lv_area.h ****  * GLOBAL PROTOTYPES
  93:Middlewares/LVGL/GUI/lvgl/src/extra/widgets/imgbtn/../../../../src/hal/../draw/../misc/../font/../misc/lv_area.h ****  **********************/
  94:Middlewares/LVGL/GUI/lvgl/src/extra/widgets/imgbtn/../../../../src/hal/../draw/../misc/../font/../misc/lv_area.h **** 
  95:Middlewares/LVGL/GUI/lvgl/src/extra/widgets/imgbtn/../../../../src/hal/../draw/../misc/../font/../misc/lv_area.h **** /**
  96:Middlewares/LVGL/GUI/lvgl/src/extra/widgets/imgbtn/../../../../src/hal/../draw/../misc/../font/../misc/lv_area.h ****  * Initialize an area
  97:Middlewares/LVGL/GUI/lvgl/src/extra/widgets/imgbtn/../../../../src/hal/../draw/../misc/../font/../misc/lv_area.h ****  * @param area_p pointer to an area
  98:Middlewares/LVGL/GUI/lvgl/src/extra/widgets/imgbtn/../../../../src/hal/../draw/../misc/../font/../misc/lv_area.h ****  * @param x1 left coordinate of the area
  99:Middlewares/LVGL/GUI/lvgl/src/extra/widgets/imgbtn/../../../../src/hal/../draw/../misc/../font/../misc/lv_area.h ****  * @param y1 top coordinate of the area
 100:Middlewares/LVGL/GUI/lvgl/src/extra/widgets/imgbtn/../../../../src/hal/../draw/../misc/../font/../misc/lv_area.h ****  * @param x2 right coordinate of the area
 101:Middlewares/LVGL/GUI/lvgl/src/extra/widgets/imgbtn/../../../../src/hal/../draw/../misc/../font/../misc/lv_area.h ****  * @param y2 bottom coordinate of the area
 102:Middlewares/LVGL/GUI/lvgl/src/extra/widgets/imgbtn/../../../../src/hal/../draw/../misc/../font/../misc/lv_area.h ****  */
 103:Middlewares/LVGL/GUI/lvgl/src/extra/widgets/imgbtn/../../../../src/hal/../draw/../misc/../font/../misc/lv_area.h **** void lv_area_set(lv_area_t * area_p, lv_coord_t x1, lv_coord_t y1, lv_coord_t x2, lv_coord_t y2);
 104:Middlewares/LVGL/GUI/lvgl/src/extra/widgets/imgbtn/../../../../src/hal/../draw/../misc/../font/../misc/lv_area.h **** 
 105:Middlewares/LVGL/GUI/lvgl/src/extra/widgets/imgbtn/../../../../src/hal/../draw/../misc/../font/../misc/lv_area.h **** /**
 106:Middlewares/LVGL/GUI/lvgl/src/extra/widgets/imgbtn/../../../../src/hal/../draw/../misc/../font/../misc/lv_area.h ****  * Copy an area
 107:Middlewares/LVGL/GUI/lvgl/src/extra/widgets/imgbtn/../../../../src/hal/../draw/../misc/../font/../misc/lv_area.h ****  * @param dest pointer to the destination area
 108:Middlewares/LVGL/GUI/lvgl/src/extra/widgets/imgbtn/../../../../src/hal/../draw/../misc/../font/../misc/lv_area.h ****  * @param src pointer to the source area
 109:Middlewares/LVGL/GUI/lvgl/src/extra/widgets/imgbtn/../../../../src/hal/../draw/../misc/../font/../misc/lv_area.h ****  */
 110:Middlewares/LVGL/GUI/lvgl/src/extra/widgets/imgbtn/../../../../src/hal/../draw/../misc/../font/../misc/lv_area.h **** inline static void lv_area_copy(lv_area_t * dest, const lv_area_t * src)
 815              		.loc 3 110 20 view .LVU226
 816              	.LBB15:
 111:Middlewares/LVGL/GUI/lvgl/src/extra/widgets/imgbtn/../../../../src/hal/../draw/../misc/../font/../misc/lv_area.h **** {
ARM GAS  C:\Users\ADMINI~1\AppData\Local\Temp\ccVzpgJw.s 			page 28


 112:Middlewares/LVGL/GUI/lvgl/src/extra/widgets/imgbtn/../../../../src/hal/../draw/../misc/../font/../misc/lv_area.h ****     dest->x1 = src->x1;
 817              		.loc 3 112 5 view .LVU227
 818              		.loc 3 112 19 is_stmt 0 view .LVU228
 819 004c 6569     		ldr	r5, [r4, #20]
 820              	.LVL99:
 821              		.loc 3 112 14 view .LVU229
 822 004e 1295     		str	r5, [sp, #72]
 113:Middlewares/LVGL/GUI/lvgl/src/extra/widgets/imgbtn/../../../../src/hal/../draw/../misc/../font/../misc/lv_area.h ****     dest->y1 = src->y1;
 823              		.loc 3 113 5 is_stmt 1 view .LVU230
 824              		.loc 3 113 19 is_stmt 0 view .LVU231
 825 0050 A669     		ldr	r6, [r4, #24]
 826              		.loc 3 113 14 view .LVU232
 827 0052 1396     		str	r6, [sp, #76]
 114:Middlewares/LVGL/GUI/lvgl/src/extra/widgets/imgbtn/../../../../src/hal/../draw/../misc/../font/../misc/lv_area.h ****     dest->x2 = src->x2;
 828              		.loc 3 114 5 is_stmt 1 view .LVU233
 829              		.loc 3 114 19 is_stmt 0 view .LVU234
 830 0054 E269     		ldr	r2, [r4, #28]
 831              		.loc 3 114 14 view .LVU235
 832 0056 1492     		str	r2, [sp, #80]
 115:Middlewares/LVGL/GUI/lvgl/src/extra/widgets/imgbtn/../../../../src/hal/../draw/../misc/../font/../misc/lv_area.h ****     dest->y2 = src->y2;
 833              		.loc 3 115 5 is_stmt 1 view .LVU236
 834              		.loc 3 115 19 is_stmt 0 view .LVU237
 835 0058 236A     		ldr	r3, [r4, #32]
 836              		.loc 3 115 14 view .LVU238
 837 005a 1593     		str	r3, [sp, #84]
 838              	.LVL100:
 839              		.loc 3 115 14 view .LVU239
 840              	.LBE15:
 841              	.LBE14:
 226:Middlewares/LVGL/GUI/lvgl/src/extra/widgets/imgbtn/lv_imgbtn.c ****     coords.x2 += tw;
 842              		.loc 1 226 5 is_stmt 1 view .LVU240
 226:Middlewares/LVGL/GUI/lvgl/src/extra/widgets/imgbtn/lv_imgbtn.c ****     coords.x2 += tw;
 843              		.loc 1 226 15 is_stmt 0 view .LVU241
 844 005c A5EB0805 		sub	r5, r5, r8
 845 0060 1295     		str	r5, [sp, #72]
 227:Middlewares/LVGL/GUI/lvgl/src/extra/widgets/imgbtn/lv_imgbtn.c ****     coords.y1 -= th;
 846              		.loc 1 227 5 is_stmt 1 view .LVU242
 227:Middlewares/LVGL/GUI/lvgl/src/extra/widgets/imgbtn/lv_imgbtn.c ****     coords.y1 -= th;
 847              		.loc 1 227 15 is_stmt 0 view .LVU243
 848 0062 9044     		add	r8, r8, r2
 849              	.LVL101:
 227:Middlewares/LVGL/GUI/lvgl/src/extra/widgets/imgbtn/lv_imgbtn.c ****     coords.y1 -= th;
 850              		.loc 1 227 15 view .LVU244
 851 0064 CDF85080 		str	r8, [sp, #80]
 228:Middlewares/LVGL/GUI/lvgl/src/extra/widgets/imgbtn/lv_imgbtn.c ****     coords.y2 += th;
 852              		.loc 1 228 5 is_stmt 1 view .LVU245
 228:Middlewares/LVGL/GUI/lvgl/src/extra/widgets/imgbtn/lv_imgbtn.c ****     coords.y2 += th;
 853              		.loc 1 228 15 is_stmt 0 view .LVU246
 854 0068 361A     		subs	r6, r6, r0
 855 006a 1396     		str	r6, [sp, #76]
 229:Middlewares/LVGL/GUI/lvgl/src/extra/widgets/imgbtn/lv_imgbtn.c **** 
 856              		.loc 1 229 5 is_stmt 1 view .LVU247
 229:Middlewares/LVGL/GUI/lvgl/src/extra/widgets/imgbtn/lv_imgbtn.c **** 
 857              		.loc 1 229 15 is_stmt 0 view .LVU248
 858 006c 03EB000A 		add	r10, r3, r0
 859 0070 CDF854A0 		str	r10, [sp, #84]
 231:Middlewares/LVGL/GUI/lvgl/src/extra/widgets/imgbtn/lv_imgbtn.c ****     lv_draw_img_dsc_init(&img_dsc);
ARM GAS  C:\Users\ADMINI~1\AppData\Local\Temp\ccVzpgJw.s 			page 29


 860              		.loc 1 231 5 is_stmt 1 view .LVU249
 232:Middlewares/LVGL/GUI/lvgl/src/extra/widgets/imgbtn/lv_imgbtn.c ****     lv_obj_init_draw_img_dsc(obj, LV_PART_MAIN, &img_dsc);
 861              		.loc 1 232 5 view .LVU250
 862 0074 0BA8     		add	r0, sp, #44
 863              	.LVL102:
 232:Middlewares/LVGL/GUI/lvgl/src/extra/widgets/imgbtn/lv_imgbtn.c ****     lv_obj_init_draw_img_dsc(obj, LV_PART_MAIN, &img_dsc);
 864              		.loc 1 232 5 is_stmt 0 view .LVU251
 865 0076 FFF7FEFF 		bl	lv_draw_img_dsc_init
 866              	.LVL103:
 233:Middlewares/LVGL/GUI/lvgl/src/extra/widgets/imgbtn/lv_imgbtn.c **** 
 867              		.loc 1 233 5 is_stmt 1 view .LVU252
 868 007a 0BAA     		add	r2, sp, #44
 869 007c 0021     		movs	r1, #0
 870 007e 2046     		mov	r0, r4
 871 0080 FFF7FEFF 		bl	lv_obj_init_draw_img_dsc
 872              	.LVL104:
 235:Middlewares/LVGL/GUI/lvgl/src/extra/widgets/imgbtn/lv_imgbtn.c ****     lv_area_t coords_part;
 873              		.loc 1 235 5 view .LVU253
 236:Middlewares/LVGL/GUI/lvgl/src/extra/widgets/imgbtn/lv_imgbtn.c ****     lv_coord_t left_w = 0;
 874              		.loc 1 236 5 view .LVU254
 237:Middlewares/LVGL/GUI/lvgl/src/extra/widgets/imgbtn/lv_imgbtn.c ****     lv_coord_t right_w = 0;
 875              		.loc 1 237 5 view .LVU255
 238:Middlewares/LVGL/GUI/lvgl/src/extra/widgets/imgbtn/lv_imgbtn.c **** 
 876              		.loc 1 238 5 view .LVU256
 240:Middlewares/LVGL/GUI/lvgl/src/extra/widgets/imgbtn/lv_imgbtn.c ****         lv_img_decoder_get_info(src, &header);
 877              		.loc 1 240 5 view .LVU257
 240:Middlewares/LVGL/GUI/lvgl/src/extra/widgets/imgbtn/lv_imgbtn.c ****         lv_img_decoder_get_info(src, &header);
 878              		.loc 1 240 7 is_stmt 0 view .LVU258
 879 0084 BBF1000F 		cmp	fp, #0
 880 0088 57D0     		beq	.L65
 241:Middlewares/LVGL/GUI/lvgl/src/extra/widgets/imgbtn/lv_imgbtn.c ****         left_w = header.w;
 881              		.loc 1 241 9 is_stmt 1 view .LVU259
 882 008a 0AA9     		add	r1, sp, #40
 883 008c 5846     		mov	r0, fp
 884 008e FFF7FEFF 		bl	lv_img_decoder_get_info
 885              	.LVL105:
 242:Middlewares/LVGL/GUI/lvgl/src/extra/widgets/imgbtn/lv_imgbtn.c ****         coords_part.x1 = coords.x1;
 886              		.loc 1 242 9 view .LVU260
 242:Middlewares/LVGL/GUI/lvgl/src/extra/widgets/imgbtn/lv_imgbtn.c ****         coords_part.x1 = coords.x1;
 887              		.loc 1 242 24 is_stmt 0 view .LVU261
 888 0092 0A9B     		ldr	r3, [sp, #40]
 889 0094 C3F38A23 		ubfx	r3, r3, #10, #11
 890 0098 0093     		str	r3, [sp]
 891              	.LVL106:
 243:Middlewares/LVGL/GUI/lvgl/src/extra/widgets/imgbtn/lv_imgbtn.c ****         coords_part.y1 = coords.y1;
 892              		.loc 1 243 9 is_stmt 1 view .LVU262
 243:Middlewares/LVGL/GUI/lvgl/src/extra/widgets/imgbtn/lv_imgbtn.c ****         coords_part.y1 = coords.y1;
 893              		.loc 1 243 24 is_stmt 0 view .LVU263
 894 009a 0695     		str	r5, [sp, #24]
 244:Middlewares/LVGL/GUI/lvgl/src/extra/widgets/imgbtn/lv_imgbtn.c ****         coords_part.x2 = coords.x1 + header.w - 1;
 895              		.loc 1 244 9 is_stmt 1 view .LVU264
 244:Middlewares/LVGL/GUI/lvgl/src/extra/widgets/imgbtn/lv_imgbtn.c ****         coords_part.x2 = coords.x1 + header.w - 1;
 896              		.loc 1 244 24 is_stmt 0 view .LVU265
 897 009c 0796     		str	r6, [sp, #28]
 245:Middlewares/LVGL/GUI/lvgl/src/extra/widgets/imgbtn/lv_imgbtn.c ****         coords_part.y2 = coords.y1 + header.h - 1;
 898              		.loc 1 245 9 is_stmt 1 view .LVU266
 245:Middlewares/LVGL/GUI/lvgl/src/extra/widgets/imgbtn/lv_imgbtn.c ****         coords_part.y2 = coords.y1 + header.h - 1;
ARM GAS  C:\Users\ADMINI~1\AppData\Local\Temp\ccVzpgJw.s 			page 30


 899              		.loc 1 245 36 is_stmt 0 view .LVU267
 900 009e EB18     		adds	r3, r5, r3
 901              	.LVL107:
 245:Middlewares/LVGL/GUI/lvgl/src/extra/widgets/imgbtn/lv_imgbtn.c ****         coords_part.y2 = coords.y1 + header.h - 1;
 902              		.loc 1 245 47 view .LVU268
 903 00a0 013B     		subs	r3, r3, #1
 245:Middlewares/LVGL/GUI/lvgl/src/extra/widgets/imgbtn/lv_imgbtn.c ****         coords_part.y2 = coords.y1 + header.h - 1;
 904              		.loc 1 245 24 view .LVU269
 905 00a2 0893     		str	r3, [sp, #32]
 246:Middlewares/LVGL/GUI/lvgl/src/extra/widgets/imgbtn/lv_imgbtn.c ****         lv_draw_img(draw_ctx, &img_dsc, &coords_part, src);
 906              		.loc 1 246 9 is_stmt 1 view .LVU270
 246:Middlewares/LVGL/GUI/lvgl/src/extra/widgets/imgbtn/lv_imgbtn.c ****         lv_draw_img(draw_ctx, &img_dsc, &coords_part, src);
 907              		.loc 1 246 44 is_stmt 0 view .LVU271
 908 00a4 BDF82A30 		ldrh	r3, [sp, #42]
 909 00a8 C3F34A13 		ubfx	r3, r3, #5, #11
 246:Middlewares/LVGL/GUI/lvgl/src/extra/widgets/imgbtn/lv_imgbtn.c ****         lv_draw_img(draw_ctx, &img_dsc, &coords_part, src);
 910              		.loc 1 246 36 view .LVU272
 911 00ac 3344     		add	r3, r3, r6
 246:Middlewares/LVGL/GUI/lvgl/src/extra/widgets/imgbtn/lv_imgbtn.c ****         lv_draw_img(draw_ctx, &img_dsc, &coords_part, src);
 912              		.loc 1 246 47 view .LVU273
 913 00ae 013B     		subs	r3, r3, #1
 246:Middlewares/LVGL/GUI/lvgl/src/extra/widgets/imgbtn/lv_imgbtn.c ****         lv_draw_img(draw_ctx, &img_dsc, &coords_part, src);
 914              		.loc 1 246 24 view .LVU274
 915 00b0 0993     		str	r3, [sp, #36]
 247:Middlewares/LVGL/GUI/lvgl/src/extra/widgets/imgbtn/lv_imgbtn.c ****     }
 916              		.loc 1 247 9 is_stmt 1 view .LVU275
 917 00b2 5B46     		mov	r3, fp
 918 00b4 06AA     		add	r2, sp, #24
 919 00b6 0BA9     		add	r1, sp, #44
 920 00b8 4846     		mov	r0, r9
 921 00ba FFF7FEFF 		bl	lv_draw_img
 922              	.LVL108:
 923              	.L59:
 250:Middlewares/LVGL/GUI/lvgl/src/extra/widgets/imgbtn/lv_imgbtn.c ****     if(src) {
 924              		.loc 1 250 5 view .LVU276
 250:Middlewares/LVGL/GUI/lvgl/src/extra/widgets/imgbtn/lv_imgbtn.c ****     if(src) {
 925              		.loc 1 250 9 is_stmt 0 view .LVU277
 926 00be 07F11603 		add	r3, r7, #22
 927 00c2 04EB8303 		add	r3, r4, r3, lsl #2
 928 00c6 D3F804B0 		ldr	fp, [r3, #4]
 929              	.LVL109:
 251:Middlewares/LVGL/GUI/lvgl/src/extra/widgets/imgbtn/lv_imgbtn.c ****         lv_img_decoder_get_info(src, &header);
 930              		.loc 1 251 5 is_stmt 1 view .LVU278
 251:Middlewares/LVGL/GUI/lvgl/src/extra/widgets/imgbtn/lv_imgbtn.c ****         lv_img_decoder_get_info(src, &header);
 931              		.loc 1 251 7 is_stmt 0 view .LVU279
 932 00ca BBF1000F 		cmp	fp, #0
 933 00ce 37D0     		beq	.L66
 252:Middlewares/LVGL/GUI/lvgl/src/extra/widgets/imgbtn/lv_imgbtn.c ****         right_w = header.w;
 934              		.loc 1 252 9 is_stmt 1 view .LVU280
 935 00d0 0AA9     		add	r1, sp, #40
 936 00d2 5846     		mov	r0, fp
 937 00d4 FFF7FEFF 		bl	lv_img_decoder_get_info
 938              	.LVL110:
 253:Middlewares/LVGL/GUI/lvgl/src/extra/widgets/imgbtn/lv_imgbtn.c ****         coords_part.x1 = coords.x2 - header.w + 1;
 939              		.loc 1 253 9 view .LVU281
 253:Middlewares/LVGL/GUI/lvgl/src/extra/widgets/imgbtn/lv_imgbtn.c ****         coords_part.x1 = coords.x2 - header.w + 1;
 940              		.loc 1 253 25 is_stmt 0 view .LVU282
ARM GAS  C:\Users\ADMINI~1\AppData\Local\Temp\ccVzpgJw.s 			page 31


 941 00d8 0A9B     		ldr	r3, [sp, #40]
 942 00da C3F38A23 		ubfx	r3, r3, #10, #11
 943 00de 0193     		str	r3, [sp, #4]
 944              	.LVL111:
 254:Middlewares/LVGL/GUI/lvgl/src/extra/widgets/imgbtn/lv_imgbtn.c ****         coords_part.y1 = coords.y1;
 945              		.loc 1 254 9 is_stmt 1 view .LVU283
 254:Middlewares/LVGL/GUI/lvgl/src/extra/widgets/imgbtn/lv_imgbtn.c ****         coords_part.y1 = coords.y1;
 946              		.loc 1 254 36 is_stmt 0 view .LVU284
 947 00e0 A8EB0303 		sub	r3, r8, r3
 948              	.LVL112:
 254:Middlewares/LVGL/GUI/lvgl/src/extra/widgets/imgbtn/lv_imgbtn.c ****         coords_part.y1 = coords.y1;
 949              		.loc 1 254 47 view .LVU285
 950 00e4 0133     		adds	r3, r3, #1
 254:Middlewares/LVGL/GUI/lvgl/src/extra/widgets/imgbtn/lv_imgbtn.c ****         coords_part.y1 = coords.y1;
 951              		.loc 1 254 24 view .LVU286
 952 00e6 0693     		str	r3, [sp, #24]
 255:Middlewares/LVGL/GUI/lvgl/src/extra/widgets/imgbtn/lv_imgbtn.c ****         coords_part.x2 = coords.x2;
 953              		.loc 1 255 9 is_stmt 1 view .LVU287
 255:Middlewares/LVGL/GUI/lvgl/src/extra/widgets/imgbtn/lv_imgbtn.c ****         coords_part.x2 = coords.x2;
 954              		.loc 1 255 24 is_stmt 0 view .LVU288
 955 00e8 0796     		str	r6, [sp, #28]
 256:Middlewares/LVGL/GUI/lvgl/src/extra/widgets/imgbtn/lv_imgbtn.c ****         coords_part.y2 = coords.y1 + header.h - 1;
 956              		.loc 1 256 9 is_stmt 1 view .LVU289
 256:Middlewares/LVGL/GUI/lvgl/src/extra/widgets/imgbtn/lv_imgbtn.c ****         coords_part.y2 = coords.y1 + header.h - 1;
 957              		.loc 1 256 24 is_stmt 0 view .LVU290
 958 00ea CDF82080 		str	r8, [sp, #32]
 257:Middlewares/LVGL/GUI/lvgl/src/extra/widgets/imgbtn/lv_imgbtn.c ****         lv_draw_img(draw_ctx, &img_dsc, &coords_part, src);
 959              		.loc 1 257 9 is_stmt 1 view .LVU291
 257:Middlewares/LVGL/GUI/lvgl/src/extra/widgets/imgbtn/lv_imgbtn.c ****         lv_draw_img(draw_ctx, &img_dsc, &coords_part, src);
 960              		.loc 1 257 44 is_stmt 0 view .LVU292
 961 00ee BDF82A30 		ldrh	r3, [sp, #42]
 962 00f2 C3F34A13 		ubfx	r3, r3, #5, #11
 257:Middlewares/LVGL/GUI/lvgl/src/extra/widgets/imgbtn/lv_imgbtn.c ****         lv_draw_img(draw_ctx, &img_dsc, &coords_part, src);
 963              		.loc 1 257 36 view .LVU293
 964 00f6 3344     		add	r3, r3, r6
 257:Middlewares/LVGL/GUI/lvgl/src/extra/widgets/imgbtn/lv_imgbtn.c ****         lv_draw_img(draw_ctx, &img_dsc, &coords_part, src);
 965              		.loc 1 257 47 view .LVU294
 966 00f8 013B     		subs	r3, r3, #1
 257:Middlewares/LVGL/GUI/lvgl/src/extra/widgets/imgbtn/lv_imgbtn.c ****         lv_draw_img(draw_ctx, &img_dsc, &coords_part, src);
 967              		.loc 1 257 24 view .LVU295
 968 00fa 0993     		str	r3, [sp, #36]
 258:Middlewares/LVGL/GUI/lvgl/src/extra/widgets/imgbtn/lv_imgbtn.c ****     }
 969              		.loc 1 258 9 is_stmt 1 view .LVU296
 970 00fc 5B46     		mov	r3, fp
 971 00fe 06AA     		add	r2, sp, #24
 972 0100 0BA9     		add	r1, sp, #44
 973 0102 4846     		mov	r0, r9
 974 0104 FFF7FEFF 		bl	lv_draw_img
 975              	.LVL113:
 976              	.L60:
 261:Middlewares/LVGL/GUI/lvgl/src/extra/widgets/imgbtn/lv_imgbtn.c ****     if(src) {
 977              		.loc 1 261 5 view .LVU297
 261:Middlewares/LVGL/GUI/lvgl/src/extra/widgets/imgbtn/lv_imgbtn.c ****     if(src) {
 978              		.loc 1 261 9 is_stmt 0 view .LVU298
 979 0108 0A37     		adds	r7, r7, #10
 980 010a 04EB8704 		add	r4, r4, r7, lsl #2
 981              	.LVL114:
ARM GAS  C:\Users\ADMINI~1\AppData\Local\Temp\ccVzpgJw.s 			page 32


 261:Middlewares/LVGL/GUI/lvgl/src/extra/widgets/imgbtn/lv_imgbtn.c ****     if(src) {
 982              		.loc 1 261 9 view .LVU299
 983 010e 6468     		ldr	r4, [r4, #4]
 984              	.LVL115:
 262:Middlewares/LVGL/GUI/lvgl/src/extra/widgets/imgbtn/lv_imgbtn.c ****         lv_area_t clip_area_center;
 985              		.loc 1 262 5 is_stmt 1 view .LVU300
 262:Middlewares/LVGL/GUI/lvgl/src/extra/widgets/imgbtn/lv_imgbtn.c ****         lv_area_t clip_area_center;
 986              		.loc 1 262 7 is_stmt 0 view .LVU301
 987 0110 84B1     		cbz	r4, .L58
 988              	.LBB16:
 263:Middlewares/LVGL/GUI/lvgl/src/extra/widgets/imgbtn/lv_imgbtn.c ****         clip_area_center.x1 = coords.x1 + left_w;
 989              		.loc 1 263 9 is_stmt 1 view .LVU302
 264:Middlewares/LVGL/GUI/lvgl/src/extra/widgets/imgbtn/lv_imgbtn.c ****         clip_area_center.x2 = coords.x2 - right_w;
 990              		.loc 1 264 9 view .LVU303
 264:Middlewares/LVGL/GUI/lvgl/src/extra/widgets/imgbtn/lv_imgbtn.c ****         clip_area_center.x2 = coords.x2 - right_w;
 991              		.loc 1 264 41 is_stmt 0 view .LVU304
 992 0112 009B     		ldr	r3, [sp]
 993 0114 1D44     		add	r5, r5, r3
 264:Middlewares/LVGL/GUI/lvgl/src/extra/widgets/imgbtn/lv_imgbtn.c ****         clip_area_center.x2 = coords.x2 - right_w;
 994              		.loc 1 264 29 view .LVU305
 995 0116 0295     		str	r5, [sp, #8]
 265:Middlewares/LVGL/GUI/lvgl/src/extra/widgets/imgbtn/lv_imgbtn.c ****         clip_area_center.y1 = coords.y1;
 996              		.loc 1 265 9 is_stmt 1 view .LVU306
 265:Middlewares/LVGL/GUI/lvgl/src/extra/widgets/imgbtn/lv_imgbtn.c ****         clip_area_center.y1 = coords.y1;
 997              		.loc 1 265 41 is_stmt 0 view .LVU307
 998 0118 019B     		ldr	r3, [sp, #4]
 999 011a A8EB0300 		sub	r0, r8, r3
 265:Middlewares/LVGL/GUI/lvgl/src/extra/widgets/imgbtn/lv_imgbtn.c ****         clip_area_center.y1 = coords.y1;
 1000              		.loc 1 265 29 view .LVU308
 1001 011e 0490     		str	r0, [sp, #16]
 266:Middlewares/LVGL/GUI/lvgl/src/extra/widgets/imgbtn/lv_imgbtn.c ****         clip_area_center.y2 = coords.y2;
 1002              		.loc 1 266 9 is_stmt 1 view .LVU309
 266:Middlewares/LVGL/GUI/lvgl/src/extra/widgets/imgbtn/lv_imgbtn.c ****         clip_area_center.y2 = coords.y2;
 1003              		.loc 1 266 29 is_stmt 0 view .LVU310
 1004 0120 0396     		str	r6, [sp, #12]
 267:Middlewares/LVGL/GUI/lvgl/src/extra/widgets/imgbtn/lv_imgbtn.c **** 
 1005              		.loc 1 267 9 is_stmt 1 view .LVU311
 267:Middlewares/LVGL/GUI/lvgl/src/extra/widgets/imgbtn/lv_imgbtn.c **** 
 1006              		.loc 1 267 29 is_stmt 0 view .LVU312
 1007 0122 CDF814A0 		str	r10, [sp, #20]
 270:Middlewares/LVGL/GUI/lvgl/src/extra/widgets/imgbtn/lv_imgbtn.c ****         comm_res = _lv_area_intersect(&clip_area_center, &clip_area_center, draw_ctx->clip_area);
 1008              		.loc 1 270 9 is_stmt 1 view .LVU313
 271:Middlewares/LVGL/GUI/lvgl/src/extra/widgets/imgbtn/lv_imgbtn.c ****         if(comm_res) {
 1009              		.loc 1 271 9 view .LVU314
 271:Middlewares/LVGL/GUI/lvgl/src/extra/widgets/imgbtn/lv_imgbtn.c ****         if(comm_res) {
 1010              		.loc 1 271 20 is_stmt 0 view .LVU315
 1011 0126 D9F80820 		ldr	r2, [r9, #8]
 1012 012a 02A9     		add	r1, sp, #8
 1013 012c 0846     		mov	r0, r1
 1014 012e FFF7FEFF 		bl	_lv_area_intersect
 1015              	.LVL116:
 272:Middlewares/LVGL/GUI/lvgl/src/extra/widgets/imgbtn/lv_imgbtn.c ****             lv_coord_t i;
 1016              		.loc 1 272 9 is_stmt 1 view .LVU316
 272:Middlewares/LVGL/GUI/lvgl/src/extra/widgets/imgbtn/lv_imgbtn.c ****             lv_coord_t i;
 1017              		.loc 1 272 11 is_stmt 0 view .LVU317
 1018 0132 40B9     		cbnz	r0, .L68
 1019              	.LVL117:
ARM GAS  C:\Users\ADMINI~1\AppData\Local\Temp\ccVzpgJw.s 			page 33


 1020              	.L58:
 272:Middlewares/LVGL/GUI/lvgl/src/extra/widgets/imgbtn/lv_imgbtn.c ****             lv_coord_t i;
 1021              		.loc 1 272 11 view .LVU318
 1022              	.LBE16:
 292:Middlewares/LVGL/GUI/lvgl/src/extra/widgets/imgbtn/lv_imgbtn.c **** 
 1023              		.loc 1 292 1 view .LVU319
 1024 0134 17B0     		add	sp, sp, #92
 1025              	.LCFI11:
 1026              		.cfi_remember_state
 1027              		.cfi_def_cfa_offset 36
 1028              	.LVL118:
 292:Middlewares/LVGL/GUI/lvgl/src/extra/widgets/imgbtn/lv_imgbtn.c **** 
 1029              		.loc 1 292 1 view .LVU320
 1030              		@ sp needed
 1031 0136 BDE8F08F 		pop	{r4, r5, r6, r7, r8, r9, r10, fp, pc}
 1032              	.LVL119:
 1033              	.L65:
 1034              	.LCFI12:
 1035              		.cfi_restore_state
 237:Middlewares/LVGL/GUI/lvgl/src/extra/widgets/imgbtn/lv_imgbtn.c ****     lv_coord_t right_w = 0;
 1036              		.loc 1 237 16 view .LVU321
 1037 013a 0023     		movs	r3, #0
 1038 013c 0093     		str	r3, [sp]
 1039 013e BEE7     		b	.L59
 1040              	.LVL120:
 1041              	.L66:
 238:Middlewares/LVGL/GUI/lvgl/src/extra/widgets/imgbtn/lv_imgbtn.c **** 
 1042              		.loc 1 238 16 view .LVU322
 1043 0140 0023     		movs	r3, #0
 1044 0142 0193     		str	r3, [sp, #4]
 1045 0144 E0E7     		b	.L60
 1046              	.LVL121:
 1047              	.L68:
 1048              	.LBB18:
 1049              	.LBB17:
 273:Middlewares/LVGL/GUI/lvgl/src/extra/widgets/imgbtn/lv_imgbtn.c ****             lv_img_decoder_get_info(src, &header);
 1050              		.loc 1 273 13 is_stmt 1 view .LVU323
 274:Middlewares/LVGL/GUI/lvgl/src/extra/widgets/imgbtn/lv_imgbtn.c **** 
 1051              		.loc 1 274 13 view .LVU324
 1052 0146 0AA9     		add	r1, sp, #40
 1053 0148 2046     		mov	r0, r4
 1054              	.LVL122:
 274:Middlewares/LVGL/GUI/lvgl/src/extra/widgets/imgbtn/lv_imgbtn.c **** 
 1055              		.loc 1 274 13 is_stmt 0 view .LVU325
 1056 014a FFF7FEFF 		bl	lv_img_decoder_get_info
 1057              	.LVL123:
 276:Middlewares/LVGL/GUI/lvgl/src/extra/widgets/imgbtn/lv_imgbtn.c ****             draw_ctx->clip_area = &clip_area_center;
 1058              		.loc 1 276 13 is_stmt 1 view .LVU326
 276:Middlewares/LVGL/GUI/lvgl/src/extra/widgets/imgbtn/lv_imgbtn.c ****             draw_ctx->clip_area = &clip_area_center;
 1059              		.loc 1 276 31 is_stmt 0 view .LVU327
 1060 014e D9F80870 		ldr	r7, [r9, #8]
 1061              	.LVL124:
 277:Middlewares/LVGL/GUI/lvgl/src/extra/widgets/imgbtn/lv_imgbtn.c **** 
 1062              		.loc 1 277 13 is_stmt 1 view .LVU328
 277:Middlewares/LVGL/GUI/lvgl/src/extra/widgets/imgbtn/lv_imgbtn.c **** 
 1063              		.loc 1 277 33 is_stmt 0 view .LVU329
 1064 0152 02AB     		add	r3, sp, #8
ARM GAS  C:\Users\ADMINI~1\AppData\Local\Temp\ccVzpgJw.s 			page 34


 1065 0154 C9F80830 		str	r3, [r9, #8]
 279:Middlewares/LVGL/GUI/lvgl/src/extra/widgets/imgbtn/lv_imgbtn.c ****             coords_part.y1 = coords.y1;
 1066              		.loc 1 279 13 is_stmt 1 view .LVU330
 279:Middlewares/LVGL/GUI/lvgl/src/extra/widgets/imgbtn/lv_imgbtn.c ****             coords_part.y1 = coords.y1;
 1067              		.loc 1 279 28 is_stmt 0 view .LVU331
 1068 0158 0695     		str	r5, [sp, #24]
 280:Middlewares/LVGL/GUI/lvgl/src/extra/widgets/imgbtn/lv_imgbtn.c ****             coords_part.x2 = coords_part.x1 + header.w - 1;
 1069              		.loc 1 280 13 is_stmt 1 view .LVU332
 280:Middlewares/LVGL/GUI/lvgl/src/extra/widgets/imgbtn/lv_imgbtn.c ****             coords_part.x2 = coords_part.x1 + header.w - 1;
 1070              		.loc 1 280 28 is_stmt 0 view .LVU333
 1071 015a 0796     		str	r6, [sp, #28]
 281:Middlewares/LVGL/GUI/lvgl/src/extra/widgets/imgbtn/lv_imgbtn.c ****             coords_part.y2 = coords_part.y1 + header.h - 1;
 1072              		.loc 1 281 13 is_stmt 1 view .LVU334
 281:Middlewares/LVGL/GUI/lvgl/src/extra/widgets/imgbtn/lv_imgbtn.c ****             coords_part.y2 = coords_part.y1 + header.h - 1;
 1073              		.loc 1 281 53 is_stmt 0 view .LVU335
 1074 015c 0A9B     		ldr	r3, [sp, #40]
 1075 015e C3F38A23 		ubfx	r3, r3, #10, #11
 281:Middlewares/LVGL/GUI/lvgl/src/extra/widgets/imgbtn/lv_imgbtn.c ****             coords_part.y2 = coords_part.y1 + header.h - 1;
 1076              		.loc 1 281 45 view .LVU336
 1077 0162 2B44     		add	r3, r3, r5
 281:Middlewares/LVGL/GUI/lvgl/src/extra/widgets/imgbtn/lv_imgbtn.c ****             coords_part.y2 = coords_part.y1 + header.h - 1;
 1078              		.loc 1 281 56 view .LVU337
 1079 0164 013B     		subs	r3, r3, #1
 281:Middlewares/LVGL/GUI/lvgl/src/extra/widgets/imgbtn/lv_imgbtn.c ****             coords_part.y2 = coords_part.y1 + header.h - 1;
 1080              		.loc 1 281 28 view .LVU338
 1081 0166 0893     		str	r3, [sp, #32]
 282:Middlewares/LVGL/GUI/lvgl/src/extra/widgets/imgbtn/lv_imgbtn.c **** 
 1082              		.loc 1 282 13 is_stmt 1 view .LVU339
 282:Middlewares/LVGL/GUI/lvgl/src/extra/widgets/imgbtn/lv_imgbtn.c **** 
 1083              		.loc 1 282 53 is_stmt 0 view .LVU340
 1084 0168 BDF82A30 		ldrh	r3, [sp, #42]
 1085 016c C3F34A13 		ubfx	r3, r3, #5, #11
 282:Middlewares/LVGL/GUI/lvgl/src/extra/widgets/imgbtn/lv_imgbtn.c **** 
 1086              		.loc 1 282 45 view .LVU341
 1087 0170 1E44     		add	r6, r6, r3
 282:Middlewares/LVGL/GUI/lvgl/src/extra/widgets/imgbtn/lv_imgbtn.c **** 
 1088              		.loc 1 282 56 view .LVU342
 1089 0172 013E     		subs	r6, r6, #1
 282:Middlewares/LVGL/GUI/lvgl/src/extra/widgets/imgbtn/lv_imgbtn.c **** 
 1090              		.loc 1 282 28 view .LVU343
 1091 0174 0996     		str	r6, [sp, #36]
 284:Middlewares/LVGL/GUI/lvgl/src/extra/widgets/imgbtn/lv_imgbtn.c ****                 lv_draw_img(draw_ctx, &img_dsc, &coords_part, src);
 1092              		.loc 1 284 13 is_stmt 1 view .LVU344
 1093              	.LVL125:
 284:Middlewares/LVGL/GUI/lvgl/src/extra/widgets/imgbtn/lv_imgbtn.c ****                 lv_draw_img(draw_ctx, &img_dsc, &coords_part, src);
 1094              		.loc 1 284 13 is_stmt 0 view .LVU345
 1095 0176 0EE0     		b	.L63
 1096              	.LVL126:
 1097              	.L64:
 285:Middlewares/LVGL/GUI/lvgl/src/extra/widgets/imgbtn/lv_imgbtn.c ****                 coords_part.x1 = coords_part.x2 + 1;
 1098              		.loc 1 285 17 is_stmt 1 discriminator 3 view .LVU346
 1099 0178 2346     		mov	r3, r4
 1100 017a 06AA     		add	r2, sp, #24
 1101 017c 0BA9     		add	r1, sp, #44
 1102 017e 4846     		mov	r0, r9
 1103 0180 FFF7FEFF 		bl	lv_draw_img
 1104              	.LVL127:
ARM GAS  C:\Users\ADMINI~1\AppData\Local\Temp\ccVzpgJw.s 			page 35


 286:Middlewares/LVGL/GUI/lvgl/src/extra/widgets/imgbtn/lv_imgbtn.c ****                 coords_part.x2 += header.w;
 1105              		.loc 1 286 17 discriminator 3 view .LVU347
 286:Middlewares/LVGL/GUI/lvgl/src/extra/widgets/imgbtn/lv_imgbtn.c ****                 coords_part.x2 += header.w;
 1106              		.loc 1 286 45 is_stmt 0 discriminator 3 view .LVU348
 1107 0184 089A     		ldr	r2, [sp, #32]
 286:Middlewares/LVGL/GUI/lvgl/src/extra/widgets/imgbtn/lv_imgbtn.c ****                 coords_part.x2 += header.w;
 1108              		.loc 1 286 49 discriminator 3 view .LVU349
 1109 0186 531C     		adds	r3, r2, #1
 286:Middlewares/LVGL/GUI/lvgl/src/extra/widgets/imgbtn/lv_imgbtn.c ****                 coords_part.x2 += header.w;
 1110              		.loc 1 286 32 discriminator 3 view .LVU350
 1111 0188 0693     		str	r3, [sp, #24]
 287:Middlewares/LVGL/GUI/lvgl/src/extra/widgets/imgbtn/lv_imgbtn.c ****             }
 1112              		.loc 1 287 17 is_stmt 1 discriminator 3 view .LVU351
 287:Middlewares/LVGL/GUI/lvgl/src/extra/widgets/imgbtn/lv_imgbtn.c ****             }
 1113              		.loc 1 287 41 is_stmt 0 discriminator 3 view .LVU352
 1114 018a 0A9B     		ldr	r3, [sp, #40]
 1115 018c C3F38A23 		ubfx	r3, r3, #10, #11
 287:Middlewares/LVGL/GUI/lvgl/src/extra/widgets/imgbtn/lv_imgbtn.c ****             }
 1116              		.loc 1 287 32 discriminator 3 view .LVU353
 1117 0190 1A44     		add	r2, r2, r3
 1118 0192 0892     		str	r2, [sp, #32]
 284:Middlewares/LVGL/GUI/lvgl/src/extra/widgets/imgbtn/lv_imgbtn.c ****                 lv_draw_img(draw_ctx, &img_dsc, &coords_part, src);
 1119              		.loc 1 284 91 is_stmt 1 discriminator 3 view .LVU354
 284:Middlewares/LVGL/GUI/lvgl/src/extra/widgets/imgbtn/lv_imgbtn.c ****                 lv_draw_img(draw_ctx, &img_dsc, &coords_part, src);
 1120              		.loc 1 284 93 is_stmt 0 discriminator 3 view .LVU355
 1121 0194 1D44     		add	r5, r5, r3
 1122              	.LVL128:
 1123              	.L63:
 284:Middlewares/LVGL/GUI/lvgl/src/extra/widgets/imgbtn/lv_imgbtn.c ****                 lv_draw_img(draw_ctx, &img_dsc, &coords_part, src);
 1124              		.loc 1 284 37 is_stmt 1 discriminator 1 view .LVU356
 284:Middlewares/LVGL/GUI/lvgl/src/extra/widgets/imgbtn/lv_imgbtn.c ****                 lv_draw_img(draw_ctx, &img_dsc, &coords_part, src);
 1125              		.loc 1 284 82 is_stmt 0 discriminator 1 view .LVU357
 1126 0196 0A9B     		ldr	r3, [sp, #40]
 1127 0198 C3F38A22 		ubfx	r2, r3, #10, #11
 284:Middlewares/LVGL/GUI/lvgl/src/extra/widgets/imgbtn/lv_imgbtn.c ****                 lv_draw_img(draw_ctx, &img_dsc, &coords_part, src);
 1128              		.loc 1 284 74 discriminator 1 view .LVU358
 1129 019c 049B     		ldr	r3, [sp, #16]
 1130 019e 1344     		add	r3, r3, r2
 284:Middlewares/LVGL/GUI/lvgl/src/extra/widgets/imgbtn/lv_imgbtn.c ****                 lv_draw_img(draw_ctx, &img_dsc, &coords_part, src);
 1131              		.loc 1 284 41 discriminator 1 view .LVU359
 1132 01a0 013B     		subs	r3, r3, #1
 284:Middlewares/LVGL/GUI/lvgl/src/extra/widgets/imgbtn/lv_imgbtn.c ****                 lv_draw_img(draw_ctx, &img_dsc, &coords_part, src);
 1133              		.loc 1 284 13 discriminator 1 view .LVU360
 1134 01a2 AB42     		cmp	r3, r5
 1135 01a4 E8DC     		bgt	.L64
 289:Middlewares/LVGL/GUI/lvgl/src/extra/widgets/imgbtn/lv_imgbtn.c ****         }
 1136              		.loc 1 289 13 is_stmt 1 view .LVU361
 289:Middlewares/LVGL/GUI/lvgl/src/extra/widgets/imgbtn/lv_imgbtn.c ****         }
 1137              		.loc 1 289 33 is_stmt 0 view .LVU362
 1138 01a6 C9F80870 		str	r7, [r9, #8]
 1139              	.LBE17:
 1140              	.LBE18:
 292:Middlewares/LVGL/GUI/lvgl/src/extra/widgets/imgbtn/lv_imgbtn.c **** 
 1141              		.loc 1 292 1 view .LVU363
 1142 01aa C3E7     		b	.L58
 1143              		.cfi_endproc
 1144              	.LFE204:
ARM GAS  C:\Users\ADMINI~1\AppData\Local\Temp\ccVzpgJw.s 			page 36


 1146              		.section	.text.lv_imgbtn_event,"ax",%progbits
 1147              		.align	1
 1148              		.syntax unified
 1149              		.thumb
 1150              		.thumb_func
 1152              	lv_imgbtn_event:
 1153              	.LVL129:
 1154              	.LFB203:
 178:Middlewares/LVGL/GUI/lvgl/src/extra/widgets/imgbtn/lv_imgbtn.c ****     LV_UNUSED(class_p);
 1155              		.loc 1 178 1 is_stmt 1 view -0
 1156              		.cfi_startproc
 1157              		@ args = 0, pretend = 0, frame = 8
 1158              		@ frame_needed = 0, uses_anonymous_args = 0
 178:Middlewares/LVGL/GUI/lvgl/src/extra/widgets/imgbtn/lv_imgbtn.c ****     LV_UNUSED(class_p);
 1159              		.loc 1 178 1 is_stmt 0 view .LVU365
 1160 0000 70B5     		push	{r4, r5, r6, lr}
 1161              	.LCFI13:
 1162              		.cfi_def_cfa_offset 16
 1163              		.cfi_offset 4, -16
 1164              		.cfi_offset 5, -12
 1165              		.cfi_offset 6, -8
 1166              		.cfi_offset 14, -4
 1167 0002 82B0     		sub	sp, sp, #8
 1168              	.LCFI14:
 1169              		.cfi_def_cfa_offset 24
 1170 0004 0C46     		mov	r4, r1
 179:Middlewares/LVGL/GUI/lvgl/src/extra/widgets/imgbtn/lv_imgbtn.c **** 
 1171              		.loc 1 179 5 is_stmt 1 view .LVU366
 181:Middlewares/LVGL/GUI/lvgl/src/extra/widgets/imgbtn/lv_imgbtn.c ****     if(res != LV_RES_OK) return;
 1172              		.loc 1 181 5 view .LVU367
 181:Middlewares/LVGL/GUI/lvgl/src/extra/widgets/imgbtn/lv_imgbtn.c ****     if(res != LV_RES_OK) return;
 1173              		.loc 1 181 20 is_stmt 0 view .LVU368
 1174 0006 2C48     		ldr	r0, .L79
 1175              	.LVL130:
 181:Middlewares/LVGL/GUI/lvgl/src/extra/widgets/imgbtn/lv_imgbtn.c ****     if(res != LV_RES_OK) return;
 1176              		.loc 1 181 20 view .LVU369
 1177 0008 FFF7FEFF 		bl	lv_obj_event_base
 1178              	.LVL131:
 182:Middlewares/LVGL/GUI/lvgl/src/extra/widgets/imgbtn/lv_imgbtn.c **** 
 1179              		.loc 1 182 5 is_stmt 1 view .LVU370
 182:Middlewares/LVGL/GUI/lvgl/src/extra/widgets/imgbtn/lv_imgbtn.c **** 
 1180              		.loc 1 182 7 is_stmt 0 view .LVU371
 1181 000c 0128     		cmp	r0, #1
 1182 000e 01D0     		beq	.L76
 1183              	.LVL132:
 1184              	.L69:
 208:Middlewares/LVGL/GUI/lvgl/src/extra/widgets/imgbtn/lv_imgbtn.c **** 
 1185              		.loc 1 208 1 view .LVU372
 1186 0010 02B0     		add	sp, sp, #8
 1187              	.LCFI15:
 1188              		.cfi_remember_state
 1189              		.cfi_def_cfa_offset 16
 1190              		@ sp needed
 1191 0012 70BD     		pop	{r4, r5, r6, pc}
 1192              	.LVL133:
 1193              	.L76:
 1194              	.LCFI16:
ARM GAS  C:\Users\ADMINI~1\AppData\Local\Temp\ccVzpgJw.s 			page 37


 1195              		.cfi_restore_state
 184:Middlewares/LVGL/GUI/lvgl/src/extra/widgets/imgbtn/lv_imgbtn.c ****     lv_obj_t * obj = lv_event_get_target(e);
 1196              		.loc 1 184 5 is_stmt 1 view .LVU373
 184:Middlewares/LVGL/GUI/lvgl/src/extra/widgets/imgbtn/lv_imgbtn.c ****     lv_obj_t * obj = lv_event_get_target(e);
 1197              		.loc 1 184 28 is_stmt 0 view .LVU374
 1198 0014 2046     		mov	r0, r4
 1199              	.LVL134:
 184:Middlewares/LVGL/GUI/lvgl/src/extra/widgets/imgbtn/lv_imgbtn.c ****     lv_obj_t * obj = lv_event_get_target(e);
 1200              		.loc 1 184 28 view .LVU375
 1201 0016 FFF7FEFF 		bl	lv_event_get_code
 1202              	.LVL135:
 1203 001a 0546     		mov	r5, r0
 1204              	.LVL136:
 185:Middlewares/LVGL/GUI/lvgl/src/extra/widgets/imgbtn/lv_imgbtn.c ****     if(code == LV_EVENT_PRESSED || code == LV_EVENT_RELEASED || code == LV_EVENT_PRESS_LOST) {
 1205              		.loc 1 185 5 is_stmt 1 view .LVU376
 185:Middlewares/LVGL/GUI/lvgl/src/extra/widgets/imgbtn/lv_imgbtn.c ****     if(code == LV_EVENT_PRESSED || code == LV_EVENT_RELEASED || code == LV_EVENT_PRESS_LOST) {
 1206              		.loc 1 185 22 is_stmt 0 view .LVU377
 1207 001c 2046     		mov	r0, r4
 1208 001e FFF7FEFF 		bl	lv_event_get_target
 1209              	.LVL137:
 1210 0022 0646     		mov	r6, r0
 1211              	.LVL138:
 186:Middlewares/LVGL/GUI/lvgl/src/extra/widgets/imgbtn/lv_imgbtn.c ****         refr_img(obj);
 1212              		.loc 1 186 5 is_stmt 1 view .LVU378
 186:Middlewares/LVGL/GUI/lvgl/src/extra/widgets/imgbtn/lv_imgbtn.c ****         refr_img(obj);
 1213              		.loc 1 186 7 is_stmt 0 view .LVU379
 1214 0024 012D     		cmp	r5, #1
 1215 0026 36D0     		beq	.L71
 186:Middlewares/LVGL/GUI/lvgl/src/extra/widgets/imgbtn/lv_imgbtn.c ****         refr_img(obj);
 1216              		.loc 1 186 33 discriminator 1 view .LVU380
 1217 0028 082D     		cmp	r5, #8
 1218 002a 34D0     		beq	.L71
 186:Middlewares/LVGL/GUI/lvgl/src/extra/widgets/imgbtn/lv_imgbtn.c ****         refr_img(obj);
 1219              		.loc 1 186 62 discriminator 2 view .LVU381
 1220 002c 032D     		cmp	r5, #3
 1221 002e 32D0     		beq	.L71
 189:Middlewares/LVGL/GUI/lvgl/src/extra/widgets/imgbtn/lv_imgbtn.c ****         draw_main(e);
 1222              		.loc 1 189 10 is_stmt 1 view .LVU382
 189:Middlewares/LVGL/GUI/lvgl/src/extra/widgets/imgbtn/lv_imgbtn.c ****         draw_main(e);
 1223              		.loc 1 189 12 is_stmt 0 view .LVU383
 1224 0030 152D     		cmp	r5, #21
 1225 0032 34D0     		beq	.L77
 192:Middlewares/LVGL/GUI/lvgl/src/extra/widgets/imgbtn/lv_imgbtn.c ****         lv_cover_check_info_t * info = lv_event_get_param(e);
 1226              		.loc 1 192 10 is_stmt 1 view .LVU384
 192:Middlewares/LVGL/GUI/lvgl/src/extra/widgets/imgbtn/lv_imgbtn.c ****         lv_cover_check_info_t * info = lv_event_get_param(e);
 1227              		.loc 1 192 12 is_stmt 0 view .LVU385
 1228 0034 122D     		cmp	r5, #18
 1229 0036 36D0     		beq	.L78
 196:Middlewares/LVGL/GUI/lvgl/src/extra/widgets/imgbtn/lv_imgbtn.c ****         lv_point_t * p = lv_event_get_self_size_info(e);
 1230              		.loc 1 196 10 is_stmt 1 view .LVU386
 196:Middlewares/LVGL/GUI/lvgl/src/extra/widgets/imgbtn/lv_imgbtn.c ****         lv_point_t * p = lv_event_get_self_size_info(e);
 1231              		.loc 1 196 12 is_stmt 0 view .LVU387
 1232 0038 2C2D     		cmp	r5, #44
 1233 003a E9D1     		bne	.L69
 1234              	.LBB19:
 197:Middlewares/LVGL/GUI/lvgl/src/extra/widgets/imgbtn/lv_imgbtn.c ****         lv_imgbtn_t * imgbtn = (lv_imgbtn_t *)obj;
 1235              		.loc 1 197 9 is_stmt 1 view .LVU388
ARM GAS  C:\Users\ADMINI~1\AppData\Local\Temp\ccVzpgJw.s 			page 38


 197:Middlewares/LVGL/GUI/lvgl/src/extra/widgets/imgbtn/lv_imgbtn.c ****         lv_imgbtn_t * imgbtn = (lv_imgbtn_t *)obj;
 1236              		.loc 1 197 26 is_stmt 0 view .LVU389
 1237 003c 2046     		mov	r0, r4
 1238              	.LVL139:
 197:Middlewares/LVGL/GUI/lvgl/src/extra/widgets/imgbtn/lv_imgbtn.c ****         lv_imgbtn_t * imgbtn = (lv_imgbtn_t *)obj;
 1239              		.loc 1 197 26 view .LVU390
 1240 003e FFF7FEFF 		bl	lv_event_get_self_size_info
 1241              	.LVL140:
 1242 0042 0446     		mov	r4, r0
 1243              	.LVL141:
 198:Middlewares/LVGL/GUI/lvgl/src/extra/widgets/imgbtn/lv_imgbtn.c ****         lv_imgbtn_state_t state  = suggest_state(obj, get_state(obj));
 1244              		.loc 1 198 9 is_stmt 1 view .LVU391
 199:Middlewares/LVGL/GUI/lvgl/src/extra/widgets/imgbtn/lv_imgbtn.c ****         if(imgbtn->img_src_left[state] == NULL &&
 1245              		.loc 1 199 9 view .LVU392
 199:Middlewares/LVGL/GUI/lvgl/src/extra/widgets/imgbtn/lv_imgbtn.c ****         if(imgbtn->img_src_left[state] == NULL &&
 1246              		.loc 1 199 36 is_stmt 0 view .LVU393
 1247 0044 3046     		mov	r0, r6
 1248              	.LVL142:
 199:Middlewares/LVGL/GUI/lvgl/src/extra/widgets/imgbtn/lv_imgbtn.c ****         if(imgbtn->img_src_left[state] == NULL &&
 1249              		.loc 1 199 36 view .LVU394
 1250 0046 FFF7FEFF 		bl	get_state
 1251              	.LVL143:
 1252 004a 0146     		mov	r1, r0
 1253 004c 3046     		mov	r0, r6
 1254 004e FFF7FEFF 		bl	suggest_state
 1255              	.LVL144:
 200:Middlewares/LVGL/GUI/lvgl/src/extra/widgets/imgbtn/lv_imgbtn.c ****            imgbtn->img_src_mid[state] != NULL &&
 1256              		.loc 1 200 9 is_stmt 1 view .LVU395
 200:Middlewares/LVGL/GUI/lvgl/src/extra/widgets/imgbtn/lv_imgbtn.c ****            imgbtn->img_src_mid[state] != NULL &&
 1257              		.loc 1 200 32 is_stmt 0 view .LVU396
 1258 0052 00F11003 		add	r3, r0, #16
 1259 0056 06EB8303 		add	r3, r6, r3, lsl #2
 1260 005a 5B68     		ldr	r3, [r3, #4]
 200:Middlewares/LVGL/GUI/lvgl/src/extra/widgets/imgbtn/lv_imgbtn.c ****            imgbtn->img_src_mid[state] != NULL &&
 1261              		.loc 1 200 11 view .LVU397
 1262 005c 002B     		cmp	r3, #0
 1263 005e D7D1     		bne	.L69
 201:Middlewares/LVGL/GUI/lvgl/src/extra/widgets/imgbtn/lv_imgbtn.c ****            imgbtn->img_src_right[state] == NULL) {
 1264              		.loc 1 201 31 discriminator 1 view .LVU398
 1265 0060 00F10A03 		add	r3, r0, #10
 1266 0064 06EB8303 		add	r3, r6, r3, lsl #2
 1267 0068 5A68     		ldr	r2, [r3, #4]
 200:Middlewares/LVGL/GUI/lvgl/src/extra/widgets/imgbtn/lv_imgbtn.c ****            imgbtn->img_src_mid[state] != NULL &&
 1268              		.loc 1 200 48 discriminator 1 view .LVU399
 1269 006a 002A     		cmp	r2, #0
 1270 006c D0D0     		beq	.L69
 202:Middlewares/LVGL/GUI/lvgl/src/extra/widgets/imgbtn/lv_imgbtn.c ****             lv_img_header_t header;
 1271              		.loc 1 202 33 view .LVU400
 1272 006e 00F11603 		add	r3, r0, #22
 1273 0072 06EB8306 		add	r6, r6, r3, lsl #2
 1274              	.LVL145:
 202:Middlewares/LVGL/GUI/lvgl/src/extra/widgets/imgbtn/lv_imgbtn.c ****             lv_img_header_t header;
 1275              		.loc 1 202 33 view .LVU401
 1276 0076 7368     		ldr	r3, [r6, #4]
 201:Middlewares/LVGL/GUI/lvgl/src/extra/widgets/imgbtn/lv_imgbtn.c ****            imgbtn->img_src_right[state] == NULL) {
 1277              		.loc 1 201 47 view .LVU402
 1278 0078 002B     		cmp	r3, #0
ARM GAS  C:\Users\ADMINI~1\AppData\Local\Temp\ccVzpgJw.s 			page 39


 1279 007a C9D1     		bne	.L69
 1280              	.LBB20:
 203:Middlewares/LVGL/GUI/lvgl/src/extra/widgets/imgbtn/lv_imgbtn.c ****             lv_img_decoder_get_info(imgbtn->img_src_mid[state], &header);
 1281              		.loc 1 203 13 is_stmt 1 discriminator 2 view .LVU403
 204:Middlewares/LVGL/GUI/lvgl/src/extra/widgets/imgbtn/lv_imgbtn.c ****             p->x = LV_MAX(p->x, header.w);
 1282              		.loc 1 204 13 discriminator 2 view .LVU404
 1283 007c 01A9     		add	r1, sp, #4
 1284 007e 1046     		mov	r0, r2
 1285              	.LVL146:
 204:Middlewares/LVGL/GUI/lvgl/src/extra/widgets/imgbtn/lv_imgbtn.c ****             p->x = LV_MAX(p->x, header.w);
 1286              		.loc 1 204 13 is_stmt 0 discriminator 2 view .LVU405
 1287 0080 FFF7FEFF 		bl	lv_img_decoder_get_info
 1288              	.LVL147:
 205:Middlewares/LVGL/GUI/lvgl/src/extra/widgets/imgbtn/lv_imgbtn.c ****         }
 1289              		.loc 1 205 13 is_stmt 1 discriminator 2 view .LVU406
 205:Middlewares/LVGL/GUI/lvgl/src/extra/widgets/imgbtn/lv_imgbtn.c ****         }
 1290              		.loc 1 205 20 is_stmt 0 discriminator 2 view .LVU407
 1291 0084 019B     		ldr	r3, [sp, #4]
 1292 0086 C3F38A23 		ubfx	r3, r3, #10, #11
 1293 008a 2268     		ldr	r2, [r4]
 1294 008c 9342     		cmp	r3, r2
 1295 008e B8BF     		it	lt
 1296 0090 1346     		movlt	r3, r2
 205:Middlewares/LVGL/GUI/lvgl/src/extra/widgets/imgbtn/lv_imgbtn.c ****         }
 1297              		.loc 1 205 18 discriminator 2 view .LVU408
 1298 0092 2360     		str	r3, [r4]
 1299 0094 BCE7     		b	.L69
 1300              	.LVL148:
 1301              	.L71:
 205:Middlewares/LVGL/GUI/lvgl/src/extra/widgets/imgbtn/lv_imgbtn.c ****         }
 1302              		.loc 1 205 18 discriminator 2 view .LVU409
 1303              	.LBE20:
 1304              	.LBE19:
 187:Middlewares/LVGL/GUI/lvgl/src/extra/widgets/imgbtn/lv_imgbtn.c ****     }
 1305              		.loc 1 187 9 is_stmt 1 view .LVU410
 1306 0096 3046     		mov	r0, r6
 1307              	.LVL149:
 187:Middlewares/LVGL/GUI/lvgl/src/extra/widgets/imgbtn/lv_imgbtn.c ****     }
 1308              		.loc 1 187 9 is_stmt 0 view .LVU411
 1309 0098 FFF7FEFF 		bl	refr_img
 1310              	.LVL150:
 1311 009c B8E7     		b	.L69
 1312              	.LVL151:
 1313              	.L77:
 190:Middlewares/LVGL/GUI/lvgl/src/extra/widgets/imgbtn/lv_imgbtn.c ****     }
 1314              		.loc 1 190 9 is_stmt 1 view .LVU412
 1315 009e 2046     		mov	r0, r4
 1316              	.LVL152:
 190:Middlewares/LVGL/GUI/lvgl/src/extra/widgets/imgbtn/lv_imgbtn.c ****     }
 1317              		.loc 1 190 9 is_stmt 0 view .LVU413
 1318 00a0 FFF7FEFF 		bl	draw_main
 1319              	.LVL153:
 1320 00a4 B4E7     		b	.L69
 1321              	.LVL154:
 1322              	.L78:
 1323              	.LBB21:
 193:Middlewares/LVGL/GUI/lvgl/src/extra/widgets/imgbtn/lv_imgbtn.c ****         if(info->res != LV_COVER_RES_MASKED) info->res = LV_COVER_RES_NOT_COVER;
ARM GAS  C:\Users\ADMINI~1\AppData\Local\Temp\ccVzpgJw.s 			page 40


 1324              		.loc 1 193 9 is_stmt 1 view .LVU414
 193:Middlewares/LVGL/GUI/lvgl/src/extra/widgets/imgbtn/lv_imgbtn.c ****         if(info->res != LV_COVER_RES_MASKED) info->res = LV_COVER_RES_NOT_COVER;
 1325              		.loc 1 193 40 is_stmt 0 view .LVU415
 1326 00a6 2046     		mov	r0, r4
 1327              	.LVL155:
 193:Middlewares/LVGL/GUI/lvgl/src/extra/widgets/imgbtn/lv_imgbtn.c ****         if(info->res != LV_COVER_RES_MASKED) info->res = LV_COVER_RES_NOT_COVER;
 1328              		.loc 1 193 40 view .LVU416
 1329 00a8 FFF7FEFF 		bl	lv_event_get_param
 1330              	.LVL156:
 194:Middlewares/LVGL/GUI/lvgl/src/extra/widgets/imgbtn/lv_imgbtn.c ****     }
 1331              		.loc 1 194 9 is_stmt 1 view .LVU417
 194:Middlewares/LVGL/GUI/lvgl/src/extra/widgets/imgbtn/lv_imgbtn.c ****     }
 1332              		.loc 1 194 16 is_stmt 0 view .LVU418
 1333 00ac 0378     		ldrb	r3, [r0]	@ zero_extendqisi2
 194:Middlewares/LVGL/GUI/lvgl/src/extra/widgets/imgbtn/lv_imgbtn.c ****     }
 1334              		.loc 1 194 11 view .LVU419
 1335 00ae 022B     		cmp	r3, #2
 1336 00b0 AED0     		beq	.L69
 194:Middlewares/LVGL/GUI/lvgl/src/extra/widgets/imgbtn/lv_imgbtn.c ****     }
 1337              		.loc 1 194 46 is_stmt 1 discriminator 1 view .LVU420
 194:Middlewares/LVGL/GUI/lvgl/src/extra/widgets/imgbtn/lv_imgbtn.c ****     }
 1338              		.loc 1 194 56 is_stmt 0 discriminator 1 view .LVU421
 1339 00b2 0123     		movs	r3, #1
 1340 00b4 0370     		strb	r3, [r0]
 1341 00b6 ABE7     		b	.L69
 1342              	.L80:
 1343              		.align	2
 1344              	.L79:
 1345 00b8 00000000 		.word	.LANCHOR0
 1346              	.LBE21:
 1347              		.cfi_endproc
 1348              	.LFE203:
 1350              		.global	lv_imgbtn_class
 1351              		.section	.rodata.lv_imgbtn_class,"a"
 1352              		.align	2
 1353              		.set	.LANCHOR0,. + 0
 1356              	lv_imgbtn_class:
 1357 0000 00000000 		.word	lv_obj_class
 1358 0004 00000000 		.word	lv_imgbtn_constructor
 1359 0008 00000000 		.space	8
 1359      00000000 
 1360 0010 00000000 		.word	lv_imgbtn_event
 1361 0014 00000000 		.space	8
 1361      00000000 
 1362 001c 80       		.byte	128
 1363 001d 07       		.byte	7
 1364 001e 00       		.byte	0
 1365 001f 00       		.space	1
 1366              		.text
 1367              	.Letext0:
 1368              		.file 4 "c:\\gnu arm embedded toolchain\\10 2021.10\\arm-none-eabi\\include\\machine\\_default_typ
 1369              		.file 5 "c:\\gnu arm embedded toolchain\\10 2021.10\\arm-none-eabi\\include\\sys\\_stdint.h"
 1370              		.file 6 "Middlewares/LVGL/GUI/lvgl/src/extra/widgets/imgbtn/../../../../src/misc/lv_types.h"
 1371              		.file 7 "Middlewares/LVGL/GUI/lvgl/src/extra/widgets/imgbtn/../../../../src/hal/../draw/../misc/..
 1372              		.file 8 "Middlewares/LVGL/GUI/lvgl/src/extra/widgets/imgbtn/../../../../src/hal/../draw/../misc/lv
 1373              		.file 9 "Middlewares/LVGL/GUI/lvgl/src/extra/widgets/imgbtn/../../../../src/hal/../draw/../misc/lv
 1374              		.file 10 "Middlewares/LVGL/GUI/lvgl/src/extra/widgets/imgbtn/../../../../src/hal/../draw/../misc/l
ARM GAS  C:\Users\ADMINI~1\AppData\Local\Temp\ccVzpgJw.s 			page 41


 1375              		.file 11 "Middlewares/LVGL/GUI/lvgl/src/extra/widgets/imgbtn/../../../../src/hal/../draw/../misc/l
 1376              		.file 12 "Middlewares/LVGL/GUI/lvgl/src/extra/widgets/imgbtn/../../../../src/hal/../draw/lv_img_bu
 1377              		.file 13 "Middlewares/LVGL/GUI/lvgl/src/extra/widgets/imgbtn/../../../../src/core/lv_obj.h"
 1378              		.file 14 "Middlewares/LVGL/GUI/lvgl/src/extra/widgets/imgbtn/../../../../src/hal/../draw/lv_draw_r
 1379              		.file 15 "Middlewares/LVGL/GUI/lvgl/src/extra/widgets/imgbtn/../../../../src/hal/../draw/lv_draw_l
 1380              		.file 16 "Middlewares/LVGL/GUI/lvgl/src/extra/widgets/imgbtn/../../../../src/hal/../draw/lv_draw_i
 1381              		.file 17 "Middlewares/LVGL/GUI/lvgl/src/extra/widgets/imgbtn/../../../../src/hal/../draw/lv_draw_l
 1382              		.file 18 "Middlewares/LVGL/GUI/lvgl/src/extra/widgets/imgbtn/../../../../src/hal/../draw/lv_draw_a
 1383              		.file 19 "Middlewares/LVGL/GUI/lvgl/src/extra/widgets/imgbtn/../../../../src/hal/../draw/lv_draw.h
 1384              		.file 20 "Middlewares/LVGL/GUI/lvgl/src/extra/widgets/imgbtn/../../../../src/hal/../misc/lv_ll.h"
 1385              		.file 21 "Middlewares/LVGL/GUI/lvgl/src/extra/widgets/imgbtn/../../../../src/core/lv_group.h"
 1386              		.file 22 "Middlewares/LVGL/GUI/lvgl/src/extra/widgets/imgbtn/../../../../src/core/lv_obj_scroll.h"
 1387              		.file 23 "Middlewares/LVGL/GUI/lvgl/src/extra/widgets/imgbtn/../../../../src/core/lv_obj_style.h"
 1388              		.file 24 "Middlewares/LVGL/GUI/lvgl/src/extra/widgets/imgbtn/../../../../src/core/lv_obj_draw.h"
 1389              		.file 25 "Middlewares/LVGL/GUI/lvgl/src/extra/widgets/imgbtn/../../../../src/core/lv_obj_class.h"
 1390              		.file 26 "Middlewares/LVGL/GUI/lvgl/src/extra/widgets/imgbtn/../../../../src/core/lv_event.h"
 1391              		.file 27 "Middlewares/LVGL/GUI/lvgl/src/extra/widgets/imgbtn/../../../../src/widgets/lv_bar.h"
 1392              		.file 28 "Middlewares/LVGL/GUI/lvgl/src/extra/widgets/imgbtn/lv_imgbtn.h"
 1393              		.file 29 "Middlewares/LVGL/GUI/lvgl/src/extra/widgets/imgbtn/../../../../src/hal/../draw/lv_img_de
 1394              		.file 30 "Middlewares/LVGL/GUI/lvgl/src/extra/widgets/imgbtn/../../../../src/hal/../draw/sw/../../
 1395              		.file 31 "Middlewares/LVGL/GUI/lvgl/src/extra/widgets/imgbtn/../../../../src/misc/lv_mem.h"
ARM GAS  C:\Users\ADMINI~1\AppData\Local\Temp\ccVzpgJw.s 			page 42

