ARM GAS  C:\Users\ADMINI~1\AppData\Local\Temp\ccU2iQFc.s 			page 1


   1              		.cpu cortex-m4
   2              		.arch armv7e-m
   3              		.fpu fpv4-sp-d16
   4              		.eabi_attribute 27, 1
   5              		.eabi_attribute 28, 1
   6              		.eabi_attribute 20, 1
   7              		.eabi_attribute 21, 1
   8              		.eabi_attribute 23, 3
   9              		.eabi_attribute 24, 1
  10              		.eabi_attribute 25, 1
  11              		.eabi_attribute 26, 1
  12              		.eabi_attribute 30, 1
  13              		.eabi_attribute 34, 1
  14              		.eabi_attribute 18, 4
  15              		.file	"lv_indev.c"
  16              		.text
  17              	.Ltext0:
  18              		.cfi_sections	.debug_frame
  19              		.section	.text.indev_proc_reset_query_handler,"ax",%progbits
  20              		.align	1
  21              		.syntax unified
  22              		.thumb
  23              		.thumb_func
  25              	indev_proc_reset_query_handler:
  26              	.LVL0:
  27              	.LFB184:
  28              		.file 1 "Middlewares/LVGL/GUI/lvgl/src/core/lv_indev.c"
   1:Middlewares/LVGL/GUI/lvgl/src/core/lv_indev.c **** /**
   2:Middlewares/LVGL/GUI/lvgl/src/core/lv_indev.c ****  * @file lv_indev.c
   3:Middlewares/LVGL/GUI/lvgl/src/core/lv_indev.c ****  *
   4:Middlewares/LVGL/GUI/lvgl/src/core/lv_indev.c ****  */
   5:Middlewares/LVGL/GUI/lvgl/src/core/lv_indev.c **** 
   6:Middlewares/LVGL/GUI/lvgl/src/core/lv_indev.c **** /*********************
   7:Middlewares/LVGL/GUI/lvgl/src/core/lv_indev.c ****  *      INCLUDES
   8:Middlewares/LVGL/GUI/lvgl/src/core/lv_indev.c ****  ********************/
   9:Middlewares/LVGL/GUI/lvgl/src/core/lv_indev.c **** #include "lv_indev.h"
  10:Middlewares/LVGL/GUI/lvgl/src/core/lv_indev.c **** #include "lv_disp.h"
  11:Middlewares/LVGL/GUI/lvgl/src/core/lv_indev.c **** #include "lv_obj.h"
  12:Middlewares/LVGL/GUI/lvgl/src/core/lv_indev.c **** #include "lv_indev_scroll.h"
  13:Middlewares/LVGL/GUI/lvgl/src/core/lv_indev.c **** #include "lv_group.h"
  14:Middlewares/LVGL/GUI/lvgl/src/core/lv_indev.c **** #include "lv_refr.h"
  15:Middlewares/LVGL/GUI/lvgl/src/core/lv_indev.c **** 
  16:Middlewares/LVGL/GUI/lvgl/src/core/lv_indev.c **** #include "../hal/lv_hal_tick.h"
  17:Middlewares/LVGL/GUI/lvgl/src/core/lv_indev.c **** #include "../misc/lv_timer.h"
  18:Middlewares/LVGL/GUI/lvgl/src/core/lv_indev.c **** #include "../misc/lv_math.h"
  19:Middlewares/LVGL/GUI/lvgl/src/core/lv_indev.c **** 
  20:Middlewares/LVGL/GUI/lvgl/src/core/lv_indev.c **** /*********************
  21:Middlewares/LVGL/GUI/lvgl/src/core/lv_indev.c ****  *      DEFINES
  22:Middlewares/LVGL/GUI/lvgl/src/core/lv_indev.c ****  *********************/
  23:Middlewares/LVGL/GUI/lvgl/src/core/lv_indev.c **** #if LV_INDEV_DEF_SCROLL_THROW <= 0
  24:Middlewares/LVGL/GUI/lvgl/src/core/lv_indev.c ****     #warning "LV_INDEV_DRAG_THROW must be greater than 0"
  25:Middlewares/LVGL/GUI/lvgl/src/core/lv_indev.c **** #endif
  26:Middlewares/LVGL/GUI/lvgl/src/core/lv_indev.c **** 
  27:Middlewares/LVGL/GUI/lvgl/src/core/lv_indev.c **** /**********************
  28:Middlewares/LVGL/GUI/lvgl/src/core/lv_indev.c ****  *      TYPEDEFS
  29:Middlewares/LVGL/GUI/lvgl/src/core/lv_indev.c ****  **********************/
  30:Middlewares/LVGL/GUI/lvgl/src/core/lv_indev.c **** 
ARM GAS  C:\Users\ADMINI~1\AppData\Local\Temp\ccU2iQFc.s 			page 2


  31:Middlewares/LVGL/GUI/lvgl/src/core/lv_indev.c **** /**********************
  32:Middlewares/LVGL/GUI/lvgl/src/core/lv_indev.c ****  *  STATIC PROTOTYPES
  33:Middlewares/LVGL/GUI/lvgl/src/core/lv_indev.c ****  **********************/
  34:Middlewares/LVGL/GUI/lvgl/src/core/lv_indev.c **** static void indev_pointer_proc(lv_indev_t * i, lv_indev_data_t * data);
  35:Middlewares/LVGL/GUI/lvgl/src/core/lv_indev.c **** static void indev_keypad_proc(lv_indev_t * i, lv_indev_data_t * data);
  36:Middlewares/LVGL/GUI/lvgl/src/core/lv_indev.c **** static void indev_encoder_proc(lv_indev_t * i, lv_indev_data_t * data);
  37:Middlewares/LVGL/GUI/lvgl/src/core/lv_indev.c **** static void indev_button_proc(lv_indev_t * i, lv_indev_data_t * data);
  38:Middlewares/LVGL/GUI/lvgl/src/core/lv_indev.c **** static void indev_proc_press(_lv_indev_proc_t * proc);
  39:Middlewares/LVGL/GUI/lvgl/src/core/lv_indev.c **** static void indev_proc_release(_lv_indev_proc_t * proc);
  40:Middlewares/LVGL/GUI/lvgl/src/core/lv_indev.c **** static void indev_proc_reset_query_handler(lv_indev_t * indev);
  41:Middlewares/LVGL/GUI/lvgl/src/core/lv_indev.c **** static void indev_click_focus(_lv_indev_proc_t * proc);
  42:Middlewares/LVGL/GUI/lvgl/src/core/lv_indev.c **** static void indev_gesture(_lv_indev_proc_t * proc);
  43:Middlewares/LVGL/GUI/lvgl/src/core/lv_indev.c **** static bool indev_reset_check(_lv_indev_proc_t * proc);
  44:Middlewares/LVGL/GUI/lvgl/src/core/lv_indev.c **** 
  45:Middlewares/LVGL/GUI/lvgl/src/core/lv_indev.c **** /**********************
  46:Middlewares/LVGL/GUI/lvgl/src/core/lv_indev.c ****  *  STATIC VARIABLES
  47:Middlewares/LVGL/GUI/lvgl/src/core/lv_indev.c ****  **********************/
  48:Middlewares/LVGL/GUI/lvgl/src/core/lv_indev.c **** static lv_indev_t * indev_act;
  49:Middlewares/LVGL/GUI/lvgl/src/core/lv_indev.c **** static lv_obj_t * indev_obj_act = NULL;
  50:Middlewares/LVGL/GUI/lvgl/src/core/lv_indev.c **** 
  51:Middlewares/LVGL/GUI/lvgl/src/core/lv_indev.c **** /**********************
  52:Middlewares/LVGL/GUI/lvgl/src/core/lv_indev.c ****  *      MACROS
  53:Middlewares/LVGL/GUI/lvgl/src/core/lv_indev.c ****  **********************/
  54:Middlewares/LVGL/GUI/lvgl/src/core/lv_indev.c **** #if LV_LOG_TRACE_INDEV
  55:Middlewares/LVGL/GUI/lvgl/src/core/lv_indev.c ****     #define INDEV_TRACE(...) LV_LOG_TRACE(__VA_ARGS__)
  56:Middlewares/LVGL/GUI/lvgl/src/core/lv_indev.c **** #else
  57:Middlewares/LVGL/GUI/lvgl/src/core/lv_indev.c ****     #define INDEV_TRACE(...)
  58:Middlewares/LVGL/GUI/lvgl/src/core/lv_indev.c **** #endif
  59:Middlewares/LVGL/GUI/lvgl/src/core/lv_indev.c **** 
  60:Middlewares/LVGL/GUI/lvgl/src/core/lv_indev.c **** /**********************
  61:Middlewares/LVGL/GUI/lvgl/src/core/lv_indev.c ****  *   GLOBAL FUNCTIONS
  62:Middlewares/LVGL/GUI/lvgl/src/core/lv_indev.c ****  **********************/
  63:Middlewares/LVGL/GUI/lvgl/src/core/lv_indev.c **** 
  64:Middlewares/LVGL/GUI/lvgl/src/core/lv_indev.c **** void lv_indev_read_timer_cb(lv_timer_t * timer)
  65:Middlewares/LVGL/GUI/lvgl/src/core/lv_indev.c **** {
  66:Middlewares/LVGL/GUI/lvgl/src/core/lv_indev.c ****     INDEV_TRACE("begin");
  67:Middlewares/LVGL/GUI/lvgl/src/core/lv_indev.c **** 
  68:Middlewares/LVGL/GUI/lvgl/src/core/lv_indev.c ****     lv_indev_data_t data;
  69:Middlewares/LVGL/GUI/lvgl/src/core/lv_indev.c **** 
  70:Middlewares/LVGL/GUI/lvgl/src/core/lv_indev.c ****     indev_act = timer->user_data;
  71:Middlewares/LVGL/GUI/lvgl/src/core/lv_indev.c **** 
  72:Middlewares/LVGL/GUI/lvgl/src/core/lv_indev.c ****     /*Read and process all indevs*/
  73:Middlewares/LVGL/GUI/lvgl/src/core/lv_indev.c ****     if(indev_act->driver->disp == NULL) return; /*Not assigned to any displays*/
  74:Middlewares/LVGL/GUI/lvgl/src/core/lv_indev.c **** 
  75:Middlewares/LVGL/GUI/lvgl/src/core/lv_indev.c ****     /*Handle reset query before processing the point*/
  76:Middlewares/LVGL/GUI/lvgl/src/core/lv_indev.c ****     indev_proc_reset_query_handler(indev_act);
  77:Middlewares/LVGL/GUI/lvgl/src/core/lv_indev.c **** 
  78:Middlewares/LVGL/GUI/lvgl/src/core/lv_indev.c ****     if(indev_act->proc.disabled) return;
  79:Middlewares/LVGL/GUI/lvgl/src/core/lv_indev.c ****     bool continue_reading;
  80:Middlewares/LVGL/GUI/lvgl/src/core/lv_indev.c ****     do {
  81:Middlewares/LVGL/GUI/lvgl/src/core/lv_indev.c ****         /*Read the data*/
  82:Middlewares/LVGL/GUI/lvgl/src/core/lv_indev.c ****         _lv_indev_read(indev_act, &data);
  83:Middlewares/LVGL/GUI/lvgl/src/core/lv_indev.c ****         continue_reading = data.continue_reading;
  84:Middlewares/LVGL/GUI/lvgl/src/core/lv_indev.c **** 
  85:Middlewares/LVGL/GUI/lvgl/src/core/lv_indev.c ****         /*The active object might deleted even in the read function*/
  86:Middlewares/LVGL/GUI/lvgl/src/core/lv_indev.c ****         indev_proc_reset_query_handler(indev_act);
  87:Middlewares/LVGL/GUI/lvgl/src/core/lv_indev.c ****         indev_obj_act = NULL;
ARM GAS  C:\Users\ADMINI~1\AppData\Local\Temp\ccU2iQFc.s 			page 3


  88:Middlewares/LVGL/GUI/lvgl/src/core/lv_indev.c **** 
  89:Middlewares/LVGL/GUI/lvgl/src/core/lv_indev.c ****         indev_act->proc.state = data.state;
  90:Middlewares/LVGL/GUI/lvgl/src/core/lv_indev.c **** 
  91:Middlewares/LVGL/GUI/lvgl/src/core/lv_indev.c ****         /*Save the last activity time*/
  92:Middlewares/LVGL/GUI/lvgl/src/core/lv_indev.c ****         if(indev_act->proc.state == LV_INDEV_STATE_PRESSED) {
  93:Middlewares/LVGL/GUI/lvgl/src/core/lv_indev.c ****             indev_act->driver->disp->last_activity_time = lv_tick_get();
  94:Middlewares/LVGL/GUI/lvgl/src/core/lv_indev.c ****         }
  95:Middlewares/LVGL/GUI/lvgl/src/core/lv_indev.c ****         else if(indev_act->driver->type == LV_INDEV_TYPE_ENCODER && data.enc_diff) {
  96:Middlewares/LVGL/GUI/lvgl/src/core/lv_indev.c ****             indev_act->driver->disp->last_activity_time = lv_tick_get();
  97:Middlewares/LVGL/GUI/lvgl/src/core/lv_indev.c ****         }
  98:Middlewares/LVGL/GUI/lvgl/src/core/lv_indev.c **** 
  99:Middlewares/LVGL/GUI/lvgl/src/core/lv_indev.c ****         if(indev_act->driver->type == LV_INDEV_TYPE_POINTER) {
 100:Middlewares/LVGL/GUI/lvgl/src/core/lv_indev.c ****             indev_pointer_proc(indev_act, &data);
 101:Middlewares/LVGL/GUI/lvgl/src/core/lv_indev.c ****         }
 102:Middlewares/LVGL/GUI/lvgl/src/core/lv_indev.c ****         else if(indev_act->driver->type == LV_INDEV_TYPE_KEYPAD) {
 103:Middlewares/LVGL/GUI/lvgl/src/core/lv_indev.c ****             indev_keypad_proc(indev_act, &data);
 104:Middlewares/LVGL/GUI/lvgl/src/core/lv_indev.c ****         }
 105:Middlewares/LVGL/GUI/lvgl/src/core/lv_indev.c ****         else if(indev_act->driver->type == LV_INDEV_TYPE_ENCODER) {
 106:Middlewares/LVGL/GUI/lvgl/src/core/lv_indev.c ****             indev_encoder_proc(indev_act, &data);
 107:Middlewares/LVGL/GUI/lvgl/src/core/lv_indev.c ****         }
 108:Middlewares/LVGL/GUI/lvgl/src/core/lv_indev.c ****         else if(indev_act->driver->type == LV_INDEV_TYPE_BUTTON) {
 109:Middlewares/LVGL/GUI/lvgl/src/core/lv_indev.c ****             indev_button_proc(indev_act, &data);
 110:Middlewares/LVGL/GUI/lvgl/src/core/lv_indev.c ****         }
 111:Middlewares/LVGL/GUI/lvgl/src/core/lv_indev.c ****         /*Handle reset query if it happened in during processing*/
 112:Middlewares/LVGL/GUI/lvgl/src/core/lv_indev.c ****         indev_proc_reset_query_handler(indev_act);
 113:Middlewares/LVGL/GUI/lvgl/src/core/lv_indev.c ****     } while(continue_reading);
 114:Middlewares/LVGL/GUI/lvgl/src/core/lv_indev.c **** 
 115:Middlewares/LVGL/GUI/lvgl/src/core/lv_indev.c ****     /*End of indev processing, so no act indev*/
 116:Middlewares/LVGL/GUI/lvgl/src/core/lv_indev.c ****     indev_act     = NULL;
 117:Middlewares/LVGL/GUI/lvgl/src/core/lv_indev.c ****     indev_obj_act = NULL;
 118:Middlewares/LVGL/GUI/lvgl/src/core/lv_indev.c **** 
 119:Middlewares/LVGL/GUI/lvgl/src/core/lv_indev.c ****     INDEV_TRACE("finished");
 120:Middlewares/LVGL/GUI/lvgl/src/core/lv_indev.c **** }
 121:Middlewares/LVGL/GUI/lvgl/src/core/lv_indev.c **** 
 122:Middlewares/LVGL/GUI/lvgl/src/core/lv_indev.c **** void lv_indev_enable(lv_indev_t * indev, bool en)
 123:Middlewares/LVGL/GUI/lvgl/src/core/lv_indev.c **** {
 124:Middlewares/LVGL/GUI/lvgl/src/core/lv_indev.c ****     if(!indev) return;
 125:Middlewares/LVGL/GUI/lvgl/src/core/lv_indev.c **** 
 126:Middlewares/LVGL/GUI/lvgl/src/core/lv_indev.c ****     indev->proc.disabled = en ? 0 : 1;
 127:Middlewares/LVGL/GUI/lvgl/src/core/lv_indev.c **** }
 128:Middlewares/LVGL/GUI/lvgl/src/core/lv_indev.c **** 
 129:Middlewares/LVGL/GUI/lvgl/src/core/lv_indev.c **** lv_indev_t * lv_indev_get_act(void)
 130:Middlewares/LVGL/GUI/lvgl/src/core/lv_indev.c **** {
 131:Middlewares/LVGL/GUI/lvgl/src/core/lv_indev.c ****     return indev_act;
 132:Middlewares/LVGL/GUI/lvgl/src/core/lv_indev.c **** }
 133:Middlewares/LVGL/GUI/lvgl/src/core/lv_indev.c **** 
 134:Middlewares/LVGL/GUI/lvgl/src/core/lv_indev.c **** lv_indev_type_t lv_indev_get_type(const lv_indev_t * indev)
 135:Middlewares/LVGL/GUI/lvgl/src/core/lv_indev.c **** {
 136:Middlewares/LVGL/GUI/lvgl/src/core/lv_indev.c ****     if(indev == NULL) return LV_INDEV_TYPE_NONE;
 137:Middlewares/LVGL/GUI/lvgl/src/core/lv_indev.c **** 
 138:Middlewares/LVGL/GUI/lvgl/src/core/lv_indev.c ****     return indev->driver->type;
 139:Middlewares/LVGL/GUI/lvgl/src/core/lv_indev.c **** }
 140:Middlewares/LVGL/GUI/lvgl/src/core/lv_indev.c **** 
 141:Middlewares/LVGL/GUI/lvgl/src/core/lv_indev.c **** void lv_indev_reset(lv_indev_t * indev, lv_obj_t * obj)
 142:Middlewares/LVGL/GUI/lvgl/src/core/lv_indev.c **** {
 143:Middlewares/LVGL/GUI/lvgl/src/core/lv_indev.c ****     if(indev) {
 144:Middlewares/LVGL/GUI/lvgl/src/core/lv_indev.c ****         indev->proc.reset_query = 1;
ARM GAS  C:\Users\ADMINI~1\AppData\Local\Temp\ccU2iQFc.s 			page 4


 145:Middlewares/LVGL/GUI/lvgl/src/core/lv_indev.c ****         if(indev_act == indev) indev_obj_act = NULL;
 146:Middlewares/LVGL/GUI/lvgl/src/core/lv_indev.c ****         if(indev->driver->type == LV_INDEV_TYPE_POINTER || indev->driver->type == LV_INDEV_TYPE_KEY
 147:Middlewares/LVGL/GUI/lvgl/src/core/lv_indev.c ****             if(obj == NULL || indev->proc.types.pointer.last_pressed == obj) {
 148:Middlewares/LVGL/GUI/lvgl/src/core/lv_indev.c ****                 indev->proc.types.pointer.last_pressed = NULL;
 149:Middlewares/LVGL/GUI/lvgl/src/core/lv_indev.c ****             }
 150:Middlewares/LVGL/GUI/lvgl/src/core/lv_indev.c ****             if(obj == NULL || indev->proc.types.pointer.act_obj == obj) {
 151:Middlewares/LVGL/GUI/lvgl/src/core/lv_indev.c ****                 indev->proc.types.pointer.act_obj = NULL;
 152:Middlewares/LVGL/GUI/lvgl/src/core/lv_indev.c ****             }
 153:Middlewares/LVGL/GUI/lvgl/src/core/lv_indev.c ****             if(obj == NULL || indev->proc.types.pointer.last_obj == obj) {
 154:Middlewares/LVGL/GUI/lvgl/src/core/lv_indev.c ****                 indev->proc.types.pointer.last_obj = NULL;
 155:Middlewares/LVGL/GUI/lvgl/src/core/lv_indev.c ****             }
 156:Middlewares/LVGL/GUI/lvgl/src/core/lv_indev.c ****         }
 157:Middlewares/LVGL/GUI/lvgl/src/core/lv_indev.c ****     }
 158:Middlewares/LVGL/GUI/lvgl/src/core/lv_indev.c ****     else {
 159:Middlewares/LVGL/GUI/lvgl/src/core/lv_indev.c ****         lv_indev_t * i = lv_indev_get_next(NULL);
 160:Middlewares/LVGL/GUI/lvgl/src/core/lv_indev.c ****         while(i) {
 161:Middlewares/LVGL/GUI/lvgl/src/core/lv_indev.c ****             i->proc.reset_query = 1;
 162:Middlewares/LVGL/GUI/lvgl/src/core/lv_indev.c ****             if(i->driver->type == LV_INDEV_TYPE_POINTER || i->driver->type == LV_INDEV_TYPE_KEYPAD)
 163:Middlewares/LVGL/GUI/lvgl/src/core/lv_indev.c ****                 if(obj == NULL || i->proc.types.pointer.last_pressed == obj) {
 164:Middlewares/LVGL/GUI/lvgl/src/core/lv_indev.c ****                     i->proc.types.pointer.last_pressed = NULL;
 165:Middlewares/LVGL/GUI/lvgl/src/core/lv_indev.c ****                 }
 166:Middlewares/LVGL/GUI/lvgl/src/core/lv_indev.c ****                 if(obj == NULL || i->proc.types.pointer.act_obj == obj) {
 167:Middlewares/LVGL/GUI/lvgl/src/core/lv_indev.c ****                     i->proc.types.pointer.act_obj = NULL;
 168:Middlewares/LVGL/GUI/lvgl/src/core/lv_indev.c ****                 }
 169:Middlewares/LVGL/GUI/lvgl/src/core/lv_indev.c ****                 if(obj == NULL || i->proc.types.pointer.last_obj == obj) {
 170:Middlewares/LVGL/GUI/lvgl/src/core/lv_indev.c ****                     i->proc.types.pointer.last_obj = NULL;
 171:Middlewares/LVGL/GUI/lvgl/src/core/lv_indev.c ****                 }
 172:Middlewares/LVGL/GUI/lvgl/src/core/lv_indev.c ****             }
 173:Middlewares/LVGL/GUI/lvgl/src/core/lv_indev.c ****             i = lv_indev_get_next(i);
 174:Middlewares/LVGL/GUI/lvgl/src/core/lv_indev.c ****         }
 175:Middlewares/LVGL/GUI/lvgl/src/core/lv_indev.c ****         indev_obj_act = NULL;
 176:Middlewares/LVGL/GUI/lvgl/src/core/lv_indev.c ****     }
 177:Middlewares/LVGL/GUI/lvgl/src/core/lv_indev.c **** }
 178:Middlewares/LVGL/GUI/lvgl/src/core/lv_indev.c **** 
 179:Middlewares/LVGL/GUI/lvgl/src/core/lv_indev.c **** void lv_indev_reset_long_press(lv_indev_t * indev)
 180:Middlewares/LVGL/GUI/lvgl/src/core/lv_indev.c **** {
 181:Middlewares/LVGL/GUI/lvgl/src/core/lv_indev.c ****     indev->proc.long_pr_sent         = 0;
 182:Middlewares/LVGL/GUI/lvgl/src/core/lv_indev.c ****     indev->proc.longpr_rep_timestamp = lv_tick_get();
 183:Middlewares/LVGL/GUI/lvgl/src/core/lv_indev.c ****     indev->proc.pr_timestamp         = lv_tick_get();
 184:Middlewares/LVGL/GUI/lvgl/src/core/lv_indev.c **** }
 185:Middlewares/LVGL/GUI/lvgl/src/core/lv_indev.c **** 
 186:Middlewares/LVGL/GUI/lvgl/src/core/lv_indev.c **** void lv_indev_set_cursor(lv_indev_t * indev, lv_obj_t * cur_obj)
 187:Middlewares/LVGL/GUI/lvgl/src/core/lv_indev.c **** {
 188:Middlewares/LVGL/GUI/lvgl/src/core/lv_indev.c ****     if(indev->driver->type != LV_INDEV_TYPE_POINTER) return;
 189:Middlewares/LVGL/GUI/lvgl/src/core/lv_indev.c **** 
 190:Middlewares/LVGL/GUI/lvgl/src/core/lv_indev.c ****     indev->cursor = cur_obj;
 191:Middlewares/LVGL/GUI/lvgl/src/core/lv_indev.c ****     lv_obj_set_parent(indev->cursor, lv_disp_get_layer_sys(indev->driver->disp));
 192:Middlewares/LVGL/GUI/lvgl/src/core/lv_indev.c ****     lv_obj_set_pos(indev->cursor, indev->proc.types.pointer.act_point.x, indev->proc.types.pointer.
 193:Middlewares/LVGL/GUI/lvgl/src/core/lv_indev.c ****     lv_obj_clear_flag(indev->cursor, LV_OBJ_FLAG_CLICKABLE);
 194:Middlewares/LVGL/GUI/lvgl/src/core/lv_indev.c ****     lv_obj_add_flag(indev->cursor, LV_OBJ_FLAG_IGNORE_LAYOUT | LV_OBJ_FLAG_FLOATING);
 195:Middlewares/LVGL/GUI/lvgl/src/core/lv_indev.c **** }
 196:Middlewares/LVGL/GUI/lvgl/src/core/lv_indev.c **** 
 197:Middlewares/LVGL/GUI/lvgl/src/core/lv_indev.c **** void lv_indev_set_group(lv_indev_t * indev, lv_group_t * group)
 198:Middlewares/LVGL/GUI/lvgl/src/core/lv_indev.c **** {
 199:Middlewares/LVGL/GUI/lvgl/src/core/lv_indev.c ****     if(indev->driver->type == LV_INDEV_TYPE_KEYPAD || indev->driver->type == LV_INDEV_TYPE_ENCODER)
 200:Middlewares/LVGL/GUI/lvgl/src/core/lv_indev.c ****         indev->group = group;
 201:Middlewares/LVGL/GUI/lvgl/src/core/lv_indev.c ****     }
ARM GAS  C:\Users\ADMINI~1\AppData\Local\Temp\ccU2iQFc.s 			page 5


 202:Middlewares/LVGL/GUI/lvgl/src/core/lv_indev.c **** }
 203:Middlewares/LVGL/GUI/lvgl/src/core/lv_indev.c **** 
 204:Middlewares/LVGL/GUI/lvgl/src/core/lv_indev.c **** void lv_indev_set_button_points(lv_indev_t * indev, const lv_point_t points[])
 205:Middlewares/LVGL/GUI/lvgl/src/core/lv_indev.c **** {
 206:Middlewares/LVGL/GUI/lvgl/src/core/lv_indev.c ****     if(indev->driver->type == LV_INDEV_TYPE_BUTTON) {
 207:Middlewares/LVGL/GUI/lvgl/src/core/lv_indev.c ****         indev->btn_points = points;
 208:Middlewares/LVGL/GUI/lvgl/src/core/lv_indev.c ****     }
 209:Middlewares/LVGL/GUI/lvgl/src/core/lv_indev.c **** }
 210:Middlewares/LVGL/GUI/lvgl/src/core/lv_indev.c **** 
 211:Middlewares/LVGL/GUI/lvgl/src/core/lv_indev.c **** void lv_indev_get_point(const lv_indev_t * indev, lv_point_t * point)
 212:Middlewares/LVGL/GUI/lvgl/src/core/lv_indev.c **** {
 213:Middlewares/LVGL/GUI/lvgl/src/core/lv_indev.c ****     if(indev == NULL) {
 214:Middlewares/LVGL/GUI/lvgl/src/core/lv_indev.c ****         point->x = 0;
 215:Middlewares/LVGL/GUI/lvgl/src/core/lv_indev.c ****         point->y = 0;
 216:Middlewares/LVGL/GUI/lvgl/src/core/lv_indev.c ****         return;
 217:Middlewares/LVGL/GUI/lvgl/src/core/lv_indev.c ****     }
 218:Middlewares/LVGL/GUI/lvgl/src/core/lv_indev.c ****     if(indev->driver->type != LV_INDEV_TYPE_POINTER && indev->driver->type != LV_INDEV_TYPE_BUTTON)
 219:Middlewares/LVGL/GUI/lvgl/src/core/lv_indev.c ****         point->x = -1;
 220:Middlewares/LVGL/GUI/lvgl/src/core/lv_indev.c ****         point->y = -1;
 221:Middlewares/LVGL/GUI/lvgl/src/core/lv_indev.c ****     }
 222:Middlewares/LVGL/GUI/lvgl/src/core/lv_indev.c ****     else {
 223:Middlewares/LVGL/GUI/lvgl/src/core/lv_indev.c ****         point->x = indev->proc.types.pointer.act_point.x;
 224:Middlewares/LVGL/GUI/lvgl/src/core/lv_indev.c ****         point->y = indev->proc.types.pointer.act_point.y;
 225:Middlewares/LVGL/GUI/lvgl/src/core/lv_indev.c ****     }
 226:Middlewares/LVGL/GUI/lvgl/src/core/lv_indev.c **** }
 227:Middlewares/LVGL/GUI/lvgl/src/core/lv_indev.c **** 
 228:Middlewares/LVGL/GUI/lvgl/src/core/lv_indev.c **** lv_dir_t lv_indev_get_gesture_dir(const lv_indev_t * indev)
 229:Middlewares/LVGL/GUI/lvgl/src/core/lv_indev.c **** {
 230:Middlewares/LVGL/GUI/lvgl/src/core/lv_indev.c ****     return indev->proc.types.pointer.gesture_dir;
 231:Middlewares/LVGL/GUI/lvgl/src/core/lv_indev.c **** }
 232:Middlewares/LVGL/GUI/lvgl/src/core/lv_indev.c **** 
 233:Middlewares/LVGL/GUI/lvgl/src/core/lv_indev.c **** uint32_t lv_indev_get_key(const lv_indev_t * indev)
 234:Middlewares/LVGL/GUI/lvgl/src/core/lv_indev.c **** {
 235:Middlewares/LVGL/GUI/lvgl/src/core/lv_indev.c ****     if(indev->driver->type != LV_INDEV_TYPE_KEYPAD)
 236:Middlewares/LVGL/GUI/lvgl/src/core/lv_indev.c ****         return 0;
 237:Middlewares/LVGL/GUI/lvgl/src/core/lv_indev.c ****     else
 238:Middlewares/LVGL/GUI/lvgl/src/core/lv_indev.c ****         return indev->proc.types.keypad.last_key;
 239:Middlewares/LVGL/GUI/lvgl/src/core/lv_indev.c **** }
 240:Middlewares/LVGL/GUI/lvgl/src/core/lv_indev.c **** 
 241:Middlewares/LVGL/GUI/lvgl/src/core/lv_indev.c **** lv_dir_t lv_indev_get_scroll_dir(const lv_indev_t * indev)
 242:Middlewares/LVGL/GUI/lvgl/src/core/lv_indev.c **** {
 243:Middlewares/LVGL/GUI/lvgl/src/core/lv_indev.c ****     if(indev == NULL) return false;
 244:Middlewares/LVGL/GUI/lvgl/src/core/lv_indev.c ****     if(indev->driver->type != LV_INDEV_TYPE_POINTER && indev->driver->type != LV_INDEV_TYPE_BUTTON)
 245:Middlewares/LVGL/GUI/lvgl/src/core/lv_indev.c ****     return indev->proc.types.pointer.scroll_dir;
 246:Middlewares/LVGL/GUI/lvgl/src/core/lv_indev.c **** }
 247:Middlewares/LVGL/GUI/lvgl/src/core/lv_indev.c **** 
 248:Middlewares/LVGL/GUI/lvgl/src/core/lv_indev.c **** lv_obj_t * lv_indev_get_scroll_obj(const lv_indev_t * indev)
 249:Middlewares/LVGL/GUI/lvgl/src/core/lv_indev.c **** {
 250:Middlewares/LVGL/GUI/lvgl/src/core/lv_indev.c ****     if(indev == NULL) return NULL;
 251:Middlewares/LVGL/GUI/lvgl/src/core/lv_indev.c ****     if(indev->driver->type != LV_INDEV_TYPE_POINTER && indev->driver->type != LV_INDEV_TYPE_BUTTON)
 252:Middlewares/LVGL/GUI/lvgl/src/core/lv_indev.c ****     return indev->proc.types.pointer.scroll_obj;
 253:Middlewares/LVGL/GUI/lvgl/src/core/lv_indev.c **** }
 254:Middlewares/LVGL/GUI/lvgl/src/core/lv_indev.c **** 
 255:Middlewares/LVGL/GUI/lvgl/src/core/lv_indev.c **** void lv_indev_get_vect(const lv_indev_t * indev, lv_point_t * point)
 256:Middlewares/LVGL/GUI/lvgl/src/core/lv_indev.c **** {
 257:Middlewares/LVGL/GUI/lvgl/src/core/lv_indev.c ****     point->x = 0;
 258:Middlewares/LVGL/GUI/lvgl/src/core/lv_indev.c ****     point->y = 0;
ARM GAS  C:\Users\ADMINI~1\AppData\Local\Temp\ccU2iQFc.s 			page 6


 259:Middlewares/LVGL/GUI/lvgl/src/core/lv_indev.c **** 
 260:Middlewares/LVGL/GUI/lvgl/src/core/lv_indev.c ****     if(indev == NULL) return;
 261:Middlewares/LVGL/GUI/lvgl/src/core/lv_indev.c **** 
 262:Middlewares/LVGL/GUI/lvgl/src/core/lv_indev.c ****     if(indev->driver->type == LV_INDEV_TYPE_POINTER || indev->driver->type == LV_INDEV_TYPE_BUTTON)
 263:Middlewares/LVGL/GUI/lvgl/src/core/lv_indev.c ****         point->x = indev->proc.types.pointer.vect.x;
 264:Middlewares/LVGL/GUI/lvgl/src/core/lv_indev.c ****         point->y = indev->proc.types.pointer.vect.y;
 265:Middlewares/LVGL/GUI/lvgl/src/core/lv_indev.c ****     }
 266:Middlewares/LVGL/GUI/lvgl/src/core/lv_indev.c **** }
 267:Middlewares/LVGL/GUI/lvgl/src/core/lv_indev.c **** 
 268:Middlewares/LVGL/GUI/lvgl/src/core/lv_indev.c **** void lv_indev_wait_release(lv_indev_t * indev)
 269:Middlewares/LVGL/GUI/lvgl/src/core/lv_indev.c **** {
 270:Middlewares/LVGL/GUI/lvgl/src/core/lv_indev.c ****     if(indev == NULL)return;
 271:Middlewares/LVGL/GUI/lvgl/src/core/lv_indev.c ****     indev->proc.wait_until_release = 1;
 272:Middlewares/LVGL/GUI/lvgl/src/core/lv_indev.c **** }
 273:Middlewares/LVGL/GUI/lvgl/src/core/lv_indev.c **** 
 274:Middlewares/LVGL/GUI/lvgl/src/core/lv_indev.c **** lv_obj_t * lv_indev_get_obj_act(void)
 275:Middlewares/LVGL/GUI/lvgl/src/core/lv_indev.c **** {
 276:Middlewares/LVGL/GUI/lvgl/src/core/lv_indev.c ****     return indev_obj_act;
 277:Middlewares/LVGL/GUI/lvgl/src/core/lv_indev.c **** }
 278:Middlewares/LVGL/GUI/lvgl/src/core/lv_indev.c **** 
 279:Middlewares/LVGL/GUI/lvgl/src/core/lv_indev.c **** lv_timer_t * lv_indev_get_read_timer(lv_disp_t * indev)
 280:Middlewares/LVGL/GUI/lvgl/src/core/lv_indev.c **** {
 281:Middlewares/LVGL/GUI/lvgl/src/core/lv_indev.c ****     if(!indev) {
 282:Middlewares/LVGL/GUI/lvgl/src/core/lv_indev.c ****         LV_LOG_WARN("lv_indev_get_read_timer: indev was NULL");
 283:Middlewares/LVGL/GUI/lvgl/src/core/lv_indev.c ****         return NULL;
 284:Middlewares/LVGL/GUI/lvgl/src/core/lv_indev.c ****     }
 285:Middlewares/LVGL/GUI/lvgl/src/core/lv_indev.c **** 
 286:Middlewares/LVGL/GUI/lvgl/src/core/lv_indev.c ****     return indev->refr_timer;
 287:Middlewares/LVGL/GUI/lvgl/src/core/lv_indev.c **** }
 288:Middlewares/LVGL/GUI/lvgl/src/core/lv_indev.c **** 
 289:Middlewares/LVGL/GUI/lvgl/src/core/lv_indev.c **** lv_obj_t * lv_indev_search_obj(lv_obj_t * obj, lv_point_t * point)
 290:Middlewares/LVGL/GUI/lvgl/src/core/lv_indev.c **** {
 291:Middlewares/LVGL/GUI/lvgl/src/core/lv_indev.c ****     lv_obj_t * found_p = NULL;
 292:Middlewares/LVGL/GUI/lvgl/src/core/lv_indev.c **** 
 293:Middlewares/LVGL/GUI/lvgl/src/core/lv_indev.c ****     /*If this obj is hidden the children are hidden too so return immediately*/
 294:Middlewares/LVGL/GUI/lvgl/src/core/lv_indev.c ****     if(lv_obj_has_flag(obj, LV_OBJ_FLAG_HIDDEN)) return NULL;
 295:Middlewares/LVGL/GUI/lvgl/src/core/lv_indev.c **** 
 296:Middlewares/LVGL/GUI/lvgl/src/core/lv_indev.c ****     bool hit_test_ok = lv_obj_hit_test(obj, point);
 297:Middlewares/LVGL/GUI/lvgl/src/core/lv_indev.c **** 
 298:Middlewares/LVGL/GUI/lvgl/src/core/lv_indev.c ****     /*If the point is on this object or has overflow visible check its children too*/
 299:Middlewares/LVGL/GUI/lvgl/src/core/lv_indev.c ****     if(_lv_area_is_point_on(&obj->coords, point, 0) || lv_obj_has_flag(obj, LV_OBJ_FLAG_OVERFLOW_VI
 300:Middlewares/LVGL/GUI/lvgl/src/core/lv_indev.c ****         int32_t i;
 301:Middlewares/LVGL/GUI/lvgl/src/core/lv_indev.c ****         uint32_t child_cnt = lv_obj_get_child_cnt(obj);
 302:Middlewares/LVGL/GUI/lvgl/src/core/lv_indev.c ****         /*If a child matches use it*/
 303:Middlewares/LVGL/GUI/lvgl/src/core/lv_indev.c ****         for(i = child_cnt - 1; i >= 0; i--) {
 304:Middlewares/LVGL/GUI/lvgl/src/core/lv_indev.c ****             lv_obj_t * child = obj->spec_attr->children[i];
 305:Middlewares/LVGL/GUI/lvgl/src/core/lv_indev.c ****             found_p = lv_indev_search_obj(child, point);
 306:Middlewares/LVGL/GUI/lvgl/src/core/lv_indev.c ****             if(found_p) return found_p;
 307:Middlewares/LVGL/GUI/lvgl/src/core/lv_indev.c ****         }
 308:Middlewares/LVGL/GUI/lvgl/src/core/lv_indev.c ****     }
 309:Middlewares/LVGL/GUI/lvgl/src/core/lv_indev.c **** 
 310:Middlewares/LVGL/GUI/lvgl/src/core/lv_indev.c ****     /*If not return earlier for a clicked child and this obj's hittest was ok use it
 311:Middlewares/LVGL/GUI/lvgl/src/core/lv_indev.c ****      *else return NULL*/
 312:Middlewares/LVGL/GUI/lvgl/src/core/lv_indev.c ****     if(hit_test_ok) return obj;
 313:Middlewares/LVGL/GUI/lvgl/src/core/lv_indev.c ****     else return NULL;
 314:Middlewares/LVGL/GUI/lvgl/src/core/lv_indev.c **** }
 315:Middlewares/LVGL/GUI/lvgl/src/core/lv_indev.c **** 
ARM GAS  C:\Users\ADMINI~1\AppData\Local\Temp\ccU2iQFc.s 			page 7


 316:Middlewares/LVGL/GUI/lvgl/src/core/lv_indev.c **** /**********************
 317:Middlewares/LVGL/GUI/lvgl/src/core/lv_indev.c ****  *   STATIC FUNCTIONS
 318:Middlewares/LVGL/GUI/lvgl/src/core/lv_indev.c ****  **********************/
 319:Middlewares/LVGL/GUI/lvgl/src/core/lv_indev.c **** 
 320:Middlewares/LVGL/GUI/lvgl/src/core/lv_indev.c **** /**
 321:Middlewares/LVGL/GUI/lvgl/src/core/lv_indev.c ****  * Process a new point from LV_INDEV_TYPE_POINTER input device
 322:Middlewares/LVGL/GUI/lvgl/src/core/lv_indev.c ****  * @param i pointer to an input device
 323:Middlewares/LVGL/GUI/lvgl/src/core/lv_indev.c ****  * @param data pointer to the data read from the input device
 324:Middlewares/LVGL/GUI/lvgl/src/core/lv_indev.c ****  */
 325:Middlewares/LVGL/GUI/lvgl/src/core/lv_indev.c **** static void indev_pointer_proc(lv_indev_t * i, lv_indev_data_t * data)
 326:Middlewares/LVGL/GUI/lvgl/src/core/lv_indev.c **** {
 327:Middlewares/LVGL/GUI/lvgl/src/core/lv_indev.c ****     lv_disp_t * disp = i->driver->disp;
 328:Middlewares/LVGL/GUI/lvgl/src/core/lv_indev.c ****     /*Save the raw points so they can be used again in _lv_indev_read*/
 329:Middlewares/LVGL/GUI/lvgl/src/core/lv_indev.c ****     i->proc.types.pointer.last_raw_point.x = data->point.x;
 330:Middlewares/LVGL/GUI/lvgl/src/core/lv_indev.c ****     i->proc.types.pointer.last_raw_point.y = data->point.y;
 331:Middlewares/LVGL/GUI/lvgl/src/core/lv_indev.c **** 
 332:Middlewares/LVGL/GUI/lvgl/src/core/lv_indev.c ****     if(disp->driver->rotated == LV_DISP_ROT_180 || disp->driver->rotated == LV_DISP_ROT_270) {
 333:Middlewares/LVGL/GUI/lvgl/src/core/lv_indev.c ****         data->point.x = disp->driver->hor_res - data->point.x - 1;
 334:Middlewares/LVGL/GUI/lvgl/src/core/lv_indev.c ****         data->point.y = disp->driver->ver_res - data->point.y - 1;
 335:Middlewares/LVGL/GUI/lvgl/src/core/lv_indev.c ****     }
 336:Middlewares/LVGL/GUI/lvgl/src/core/lv_indev.c ****     if(disp->driver->rotated == LV_DISP_ROT_90 || disp->driver->rotated == LV_DISP_ROT_270) {
 337:Middlewares/LVGL/GUI/lvgl/src/core/lv_indev.c ****         lv_coord_t tmp = data->point.y;
 338:Middlewares/LVGL/GUI/lvgl/src/core/lv_indev.c ****         data->point.y = data->point.x;
 339:Middlewares/LVGL/GUI/lvgl/src/core/lv_indev.c ****         data->point.x = disp->driver->ver_res - tmp - 1;
 340:Middlewares/LVGL/GUI/lvgl/src/core/lv_indev.c ****     }
 341:Middlewares/LVGL/GUI/lvgl/src/core/lv_indev.c **** 
 342:Middlewares/LVGL/GUI/lvgl/src/core/lv_indev.c ****     /*Simple sanity check*/
 343:Middlewares/LVGL/GUI/lvgl/src/core/lv_indev.c ****     if(data->point.x < 0) {
 344:Middlewares/LVGL/GUI/lvgl/src/core/lv_indev.c ****         LV_LOG_WARN("X is %d which is smaller than zero", data->point.x);
 345:Middlewares/LVGL/GUI/lvgl/src/core/lv_indev.c ****     }
 346:Middlewares/LVGL/GUI/lvgl/src/core/lv_indev.c ****     if(data->point.x >= lv_disp_get_hor_res(i->driver->disp)) {
 347:Middlewares/LVGL/GUI/lvgl/src/core/lv_indev.c ****         LV_LOG_WARN("X is %d which is greater than hor. res", data->point.x);
 348:Middlewares/LVGL/GUI/lvgl/src/core/lv_indev.c ****     }
 349:Middlewares/LVGL/GUI/lvgl/src/core/lv_indev.c ****     if(data->point.y < 0) {
 350:Middlewares/LVGL/GUI/lvgl/src/core/lv_indev.c ****         LV_LOG_WARN("Y is %d which is smaller than zero", data->point.y);
 351:Middlewares/LVGL/GUI/lvgl/src/core/lv_indev.c ****     }
 352:Middlewares/LVGL/GUI/lvgl/src/core/lv_indev.c ****     if(data->point.y >= lv_disp_get_ver_res(i->driver->disp)) {
 353:Middlewares/LVGL/GUI/lvgl/src/core/lv_indev.c ****         LV_LOG_WARN("Y is %d which is greater than ver. res", data->point.y);
 354:Middlewares/LVGL/GUI/lvgl/src/core/lv_indev.c ****     }
 355:Middlewares/LVGL/GUI/lvgl/src/core/lv_indev.c **** 
 356:Middlewares/LVGL/GUI/lvgl/src/core/lv_indev.c ****     /*Move the cursor if set and moved*/
 357:Middlewares/LVGL/GUI/lvgl/src/core/lv_indev.c ****     if(i->cursor != NULL &&
 358:Middlewares/LVGL/GUI/lvgl/src/core/lv_indev.c ****        (i->proc.types.pointer.last_point.x != data->point.x || i->proc.types.pointer.last_point.y !
 359:Middlewares/LVGL/GUI/lvgl/src/core/lv_indev.c ****         lv_obj_set_pos(i->cursor, data->point.x, data->point.y);
 360:Middlewares/LVGL/GUI/lvgl/src/core/lv_indev.c ****     }
 361:Middlewares/LVGL/GUI/lvgl/src/core/lv_indev.c **** 
 362:Middlewares/LVGL/GUI/lvgl/src/core/lv_indev.c ****     i->proc.types.pointer.act_point.x = data->point.x;
 363:Middlewares/LVGL/GUI/lvgl/src/core/lv_indev.c ****     i->proc.types.pointer.act_point.y = data->point.y;
 364:Middlewares/LVGL/GUI/lvgl/src/core/lv_indev.c **** 
 365:Middlewares/LVGL/GUI/lvgl/src/core/lv_indev.c ****     if(i->proc.state == LV_INDEV_STATE_PRESSED) {
 366:Middlewares/LVGL/GUI/lvgl/src/core/lv_indev.c ****         indev_proc_press(&i->proc);
 367:Middlewares/LVGL/GUI/lvgl/src/core/lv_indev.c ****     }
 368:Middlewares/LVGL/GUI/lvgl/src/core/lv_indev.c ****     else {
 369:Middlewares/LVGL/GUI/lvgl/src/core/lv_indev.c ****         indev_proc_release(&i->proc);
 370:Middlewares/LVGL/GUI/lvgl/src/core/lv_indev.c ****     }
 371:Middlewares/LVGL/GUI/lvgl/src/core/lv_indev.c **** 
 372:Middlewares/LVGL/GUI/lvgl/src/core/lv_indev.c ****     i->proc.types.pointer.last_point.x = i->proc.types.pointer.act_point.x;
ARM GAS  C:\Users\ADMINI~1\AppData\Local\Temp\ccU2iQFc.s 			page 8


 373:Middlewares/LVGL/GUI/lvgl/src/core/lv_indev.c ****     i->proc.types.pointer.last_point.y = i->proc.types.pointer.act_point.y;
 374:Middlewares/LVGL/GUI/lvgl/src/core/lv_indev.c **** }
 375:Middlewares/LVGL/GUI/lvgl/src/core/lv_indev.c **** 
 376:Middlewares/LVGL/GUI/lvgl/src/core/lv_indev.c **** /**
 377:Middlewares/LVGL/GUI/lvgl/src/core/lv_indev.c ****  * Process a new point from LV_INDEV_TYPE_KEYPAD input device
 378:Middlewares/LVGL/GUI/lvgl/src/core/lv_indev.c ****  * @param i pointer to an input device
 379:Middlewares/LVGL/GUI/lvgl/src/core/lv_indev.c ****  * @param data pointer to the data read from the input device
 380:Middlewares/LVGL/GUI/lvgl/src/core/lv_indev.c ****  */
 381:Middlewares/LVGL/GUI/lvgl/src/core/lv_indev.c **** static void indev_keypad_proc(lv_indev_t * i, lv_indev_data_t * data)
 382:Middlewares/LVGL/GUI/lvgl/src/core/lv_indev.c **** {
 383:Middlewares/LVGL/GUI/lvgl/src/core/lv_indev.c ****     if(data->state == LV_INDEV_STATE_PRESSED && i->proc.wait_until_release) return;
 384:Middlewares/LVGL/GUI/lvgl/src/core/lv_indev.c **** 
 385:Middlewares/LVGL/GUI/lvgl/src/core/lv_indev.c ****     if(i->proc.wait_until_release) {
 386:Middlewares/LVGL/GUI/lvgl/src/core/lv_indev.c ****         i->proc.wait_until_release      = 0;
 387:Middlewares/LVGL/GUI/lvgl/src/core/lv_indev.c ****         i->proc.pr_timestamp            = 0;
 388:Middlewares/LVGL/GUI/lvgl/src/core/lv_indev.c ****         i->proc.long_pr_sent            = 0;
 389:Middlewares/LVGL/GUI/lvgl/src/core/lv_indev.c ****         i->proc.types.keypad.last_state = LV_INDEV_STATE_RELEASED; /*To skip the processing of rele
 390:Middlewares/LVGL/GUI/lvgl/src/core/lv_indev.c ****     }
 391:Middlewares/LVGL/GUI/lvgl/src/core/lv_indev.c **** 
 392:Middlewares/LVGL/GUI/lvgl/src/core/lv_indev.c ****     lv_group_t * g = i->group;
 393:Middlewares/LVGL/GUI/lvgl/src/core/lv_indev.c ****     if(g == NULL) return;
 394:Middlewares/LVGL/GUI/lvgl/src/core/lv_indev.c **** 
 395:Middlewares/LVGL/GUI/lvgl/src/core/lv_indev.c ****     indev_obj_act = lv_group_get_focused(g);
 396:Middlewares/LVGL/GUI/lvgl/src/core/lv_indev.c ****     if(indev_obj_act == NULL) return;
 397:Middlewares/LVGL/GUI/lvgl/src/core/lv_indev.c **** 
 398:Middlewares/LVGL/GUI/lvgl/src/core/lv_indev.c ****     /*Save the last key to compare it with the current latter on RELEASE*/
 399:Middlewares/LVGL/GUI/lvgl/src/core/lv_indev.c ****     uint32_t prev_key = i->proc.types.keypad.last_key;
 400:Middlewares/LVGL/GUI/lvgl/src/core/lv_indev.c **** 
 401:Middlewares/LVGL/GUI/lvgl/src/core/lv_indev.c ****     /*Save the last key.
 402:Middlewares/LVGL/GUI/lvgl/src/core/lv_indev.c ****      *It must be done here else `lv_indev_get_key` will return the last key in events*/
 403:Middlewares/LVGL/GUI/lvgl/src/core/lv_indev.c ****     i->proc.types.keypad.last_key = data->key;
 404:Middlewares/LVGL/GUI/lvgl/src/core/lv_indev.c **** 
 405:Middlewares/LVGL/GUI/lvgl/src/core/lv_indev.c ****     /*Save the previous state so we can detect state changes below and also set the last state now
 406:Middlewares/LVGL/GUI/lvgl/src/core/lv_indev.c ****      *so if any event handler on the way returns `LV_RES_INV` the last state is remembered
 407:Middlewares/LVGL/GUI/lvgl/src/core/lv_indev.c ****      *for the next time*/
 408:Middlewares/LVGL/GUI/lvgl/src/core/lv_indev.c ****     uint32_t prev_state             = i->proc.types.keypad.last_state;
 409:Middlewares/LVGL/GUI/lvgl/src/core/lv_indev.c ****     i->proc.types.keypad.last_state = data->state;
 410:Middlewares/LVGL/GUI/lvgl/src/core/lv_indev.c **** 
 411:Middlewares/LVGL/GUI/lvgl/src/core/lv_indev.c ****     /*Key press happened*/
 412:Middlewares/LVGL/GUI/lvgl/src/core/lv_indev.c ****     if(data->state == LV_INDEV_STATE_PRESSED && prev_state == LV_INDEV_STATE_RELEASED) {
 413:Middlewares/LVGL/GUI/lvgl/src/core/lv_indev.c ****         LV_LOG_INFO("%d key is pressed", data->key);
 414:Middlewares/LVGL/GUI/lvgl/src/core/lv_indev.c ****         i->proc.pr_timestamp = lv_tick_get();
 415:Middlewares/LVGL/GUI/lvgl/src/core/lv_indev.c **** 
 416:Middlewares/LVGL/GUI/lvgl/src/core/lv_indev.c ****         /*Simulate a press on the object if ENTER was pressed*/
 417:Middlewares/LVGL/GUI/lvgl/src/core/lv_indev.c ****         if(data->key == LV_KEY_ENTER) {
 418:Middlewares/LVGL/GUI/lvgl/src/core/lv_indev.c ****             /*Send the ENTER as a normal KEY*/
 419:Middlewares/LVGL/GUI/lvgl/src/core/lv_indev.c ****             lv_group_send_data(g, LV_KEY_ENTER);
 420:Middlewares/LVGL/GUI/lvgl/src/core/lv_indev.c **** 
 421:Middlewares/LVGL/GUI/lvgl/src/core/lv_indev.c ****             lv_event_send(indev_obj_act, LV_EVENT_PRESSED, indev_act);
 422:Middlewares/LVGL/GUI/lvgl/src/core/lv_indev.c ****             if(indev_reset_check(&i->proc)) return;
 423:Middlewares/LVGL/GUI/lvgl/src/core/lv_indev.c ****         }
 424:Middlewares/LVGL/GUI/lvgl/src/core/lv_indev.c ****         else if(data->key == LV_KEY_ESC) {
 425:Middlewares/LVGL/GUI/lvgl/src/core/lv_indev.c ****             /*Send the ESC as a normal KEY*/
 426:Middlewares/LVGL/GUI/lvgl/src/core/lv_indev.c ****             lv_group_send_data(g, LV_KEY_ESC);
 427:Middlewares/LVGL/GUI/lvgl/src/core/lv_indev.c **** 
 428:Middlewares/LVGL/GUI/lvgl/src/core/lv_indev.c ****             lv_event_send(indev_obj_act, LV_EVENT_CANCEL, indev_act);
 429:Middlewares/LVGL/GUI/lvgl/src/core/lv_indev.c ****             if(indev_reset_check(&i->proc)) return;
ARM GAS  C:\Users\ADMINI~1\AppData\Local\Temp\ccU2iQFc.s 			page 9


 430:Middlewares/LVGL/GUI/lvgl/src/core/lv_indev.c ****         }
 431:Middlewares/LVGL/GUI/lvgl/src/core/lv_indev.c ****         /*Move the focus on NEXT*/
 432:Middlewares/LVGL/GUI/lvgl/src/core/lv_indev.c ****         else if(data->key == LV_KEY_NEXT) {
 433:Middlewares/LVGL/GUI/lvgl/src/core/lv_indev.c ****             lv_group_set_editing(g, false); /*Editing is not used by KEYPAD is be sure it is disabl
 434:Middlewares/LVGL/GUI/lvgl/src/core/lv_indev.c ****             lv_group_focus_next(g);
 435:Middlewares/LVGL/GUI/lvgl/src/core/lv_indev.c ****             if(indev_reset_check(&i->proc)) return;
 436:Middlewares/LVGL/GUI/lvgl/src/core/lv_indev.c ****         }
 437:Middlewares/LVGL/GUI/lvgl/src/core/lv_indev.c ****         /*Move the focus on PREV*/
 438:Middlewares/LVGL/GUI/lvgl/src/core/lv_indev.c ****         else if(data->key == LV_KEY_PREV) {
 439:Middlewares/LVGL/GUI/lvgl/src/core/lv_indev.c ****             lv_group_set_editing(g, false); /*Editing is not used by KEYPAD is be sure it is disabl
 440:Middlewares/LVGL/GUI/lvgl/src/core/lv_indev.c ****             lv_group_focus_prev(g);
 441:Middlewares/LVGL/GUI/lvgl/src/core/lv_indev.c ****             if(indev_reset_check(&i->proc)) return;
 442:Middlewares/LVGL/GUI/lvgl/src/core/lv_indev.c ****         }
 443:Middlewares/LVGL/GUI/lvgl/src/core/lv_indev.c ****         /*Just send other keys to the object (e.g. 'A' or `LV_GROUP_KEY_RIGHT`)*/
 444:Middlewares/LVGL/GUI/lvgl/src/core/lv_indev.c ****         else {
 445:Middlewares/LVGL/GUI/lvgl/src/core/lv_indev.c ****             lv_group_send_data(g, data->key);
 446:Middlewares/LVGL/GUI/lvgl/src/core/lv_indev.c ****         }
 447:Middlewares/LVGL/GUI/lvgl/src/core/lv_indev.c ****     }
 448:Middlewares/LVGL/GUI/lvgl/src/core/lv_indev.c ****     /*Pressing*/
 449:Middlewares/LVGL/GUI/lvgl/src/core/lv_indev.c ****     else if(data->state == LV_INDEV_STATE_PRESSED && prev_state == LV_INDEV_STATE_PRESSED) {
 450:Middlewares/LVGL/GUI/lvgl/src/core/lv_indev.c **** 
 451:Middlewares/LVGL/GUI/lvgl/src/core/lv_indev.c ****         if(data->key == LV_KEY_ENTER) {
 452:Middlewares/LVGL/GUI/lvgl/src/core/lv_indev.c ****             lv_event_send(indev_obj_act, LV_EVENT_PRESSING, indev_act);
 453:Middlewares/LVGL/GUI/lvgl/src/core/lv_indev.c ****             if(indev_reset_check(&i->proc)) return;
 454:Middlewares/LVGL/GUI/lvgl/src/core/lv_indev.c ****         }
 455:Middlewares/LVGL/GUI/lvgl/src/core/lv_indev.c **** 
 456:Middlewares/LVGL/GUI/lvgl/src/core/lv_indev.c ****         /*Long press time has elapsed?*/
 457:Middlewares/LVGL/GUI/lvgl/src/core/lv_indev.c ****         if(i->proc.long_pr_sent == 0 && lv_tick_elaps(i->proc.pr_timestamp) > i->driver->long_press
 458:Middlewares/LVGL/GUI/lvgl/src/core/lv_indev.c ****             i->proc.long_pr_sent = 1;
 459:Middlewares/LVGL/GUI/lvgl/src/core/lv_indev.c ****             if(data->key == LV_KEY_ENTER) {
 460:Middlewares/LVGL/GUI/lvgl/src/core/lv_indev.c ****                 i->proc.longpr_rep_timestamp = lv_tick_get();
 461:Middlewares/LVGL/GUI/lvgl/src/core/lv_indev.c ****                 lv_event_send(indev_obj_act, LV_EVENT_LONG_PRESSED, indev_act);
 462:Middlewares/LVGL/GUI/lvgl/src/core/lv_indev.c ****                 if(indev_reset_check(&i->proc)) return;
 463:Middlewares/LVGL/GUI/lvgl/src/core/lv_indev.c ****             }
 464:Middlewares/LVGL/GUI/lvgl/src/core/lv_indev.c ****         }
 465:Middlewares/LVGL/GUI/lvgl/src/core/lv_indev.c ****         /*Long press repeated time has elapsed?*/
 466:Middlewares/LVGL/GUI/lvgl/src/core/lv_indev.c ****         else if(i->proc.long_pr_sent != 0 &&
 467:Middlewares/LVGL/GUI/lvgl/src/core/lv_indev.c ****                 lv_tick_elaps(i->proc.longpr_rep_timestamp) > i->driver->long_press_repeat_time) {
 468:Middlewares/LVGL/GUI/lvgl/src/core/lv_indev.c **** 
 469:Middlewares/LVGL/GUI/lvgl/src/core/lv_indev.c ****             i->proc.longpr_rep_timestamp = lv_tick_get();
 470:Middlewares/LVGL/GUI/lvgl/src/core/lv_indev.c **** 
 471:Middlewares/LVGL/GUI/lvgl/src/core/lv_indev.c ****             /*Send LONG_PRESS_REP on ENTER*/
 472:Middlewares/LVGL/GUI/lvgl/src/core/lv_indev.c ****             if(data->key == LV_KEY_ENTER) {
 473:Middlewares/LVGL/GUI/lvgl/src/core/lv_indev.c ****                 lv_event_send(indev_obj_act, LV_EVENT_LONG_PRESSED_REPEAT, indev_act);
 474:Middlewares/LVGL/GUI/lvgl/src/core/lv_indev.c ****                 if(indev_reset_check(&i->proc)) return;
 475:Middlewares/LVGL/GUI/lvgl/src/core/lv_indev.c ****             }
 476:Middlewares/LVGL/GUI/lvgl/src/core/lv_indev.c ****             /*Move the focus on NEXT again*/
 477:Middlewares/LVGL/GUI/lvgl/src/core/lv_indev.c ****             else if(data->key == LV_KEY_NEXT) {
 478:Middlewares/LVGL/GUI/lvgl/src/core/lv_indev.c ****                 lv_group_set_editing(g, false); /*Editing is not used by KEYPAD is be sure it is di
 479:Middlewares/LVGL/GUI/lvgl/src/core/lv_indev.c ****                 lv_group_focus_next(g);
 480:Middlewares/LVGL/GUI/lvgl/src/core/lv_indev.c ****                 if(indev_reset_check(&i->proc)) return;
 481:Middlewares/LVGL/GUI/lvgl/src/core/lv_indev.c ****             }
 482:Middlewares/LVGL/GUI/lvgl/src/core/lv_indev.c ****             /*Move the focus on PREV again*/
 483:Middlewares/LVGL/GUI/lvgl/src/core/lv_indev.c ****             else if(data->key == LV_KEY_PREV) {
 484:Middlewares/LVGL/GUI/lvgl/src/core/lv_indev.c ****                 lv_group_set_editing(g, false); /*Editing is not used by KEYPAD is be sure it is di
 485:Middlewares/LVGL/GUI/lvgl/src/core/lv_indev.c ****                 lv_group_focus_prev(g);
 486:Middlewares/LVGL/GUI/lvgl/src/core/lv_indev.c ****                 if(indev_reset_check(&i->proc)) return;
ARM GAS  C:\Users\ADMINI~1\AppData\Local\Temp\ccU2iQFc.s 			page 10


 487:Middlewares/LVGL/GUI/lvgl/src/core/lv_indev.c ****             }
 488:Middlewares/LVGL/GUI/lvgl/src/core/lv_indev.c ****             /*Just send other keys again to the object (e.g. 'A' or `LV_GROUP_KEY_RIGHT)*/
 489:Middlewares/LVGL/GUI/lvgl/src/core/lv_indev.c ****             else {
 490:Middlewares/LVGL/GUI/lvgl/src/core/lv_indev.c ****                 lv_group_send_data(g, data->key);
 491:Middlewares/LVGL/GUI/lvgl/src/core/lv_indev.c ****                 if(indev_reset_check(&i->proc)) return;
 492:Middlewares/LVGL/GUI/lvgl/src/core/lv_indev.c ****             }
 493:Middlewares/LVGL/GUI/lvgl/src/core/lv_indev.c ****         }
 494:Middlewares/LVGL/GUI/lvgl/src/core/lv_indev.c ****     }
 495:Middlewares/LVGL/GUI/lvgl/src/core/lv_indev.c ****     /*Release happened*/
 496:Middlewares/LVGL/GUI/lvgl/src/core/lv_indev.c ****     else if(data->state == LV_INDEV_STATE_RELEASED && prev_state == LV_INDEV_STATE_PRESSED) {
 497:Middlewares/LVGL/GUI/lvgl/src/core/lv_indev.c ****         LV_LOG_INFO("%d key is released", data->key);
 498:Middlewares/LVGL/GUI/lvgl/src/core/lv_indev.c ****         /*The user might clear the key when it was released. Always release the pressed key*/
 499:Middlewares/LVGL/GUI/lvgl/src/core/lv_indev.c ****         data->key = prev_key;
 500:Middlewares/LVGL/GUI/lvgl/src/core/lv_indev.c ****         if(data->key == LV_KEY_ENTER) {
 501:Middlewares/LVGL/GUI/lvgl/src/core/lv_indev.c **** 
 502:Middlewares/LVGL/GUI/lvgl/src/core/lv_indev.c ****             lv_event_send(indev_obj_act, LV_EVENT_RELEASED, indev_act);
 503:Middlewares/LVGL/GUI/lvgl/src/core/lv_indev.c ****             if(indev_reset_check(&i->proc)) return;
 504:Middlewares/LVGL/GUI/lvgl/src/core/lv_indev.c **** 
 505:Middlewares/LVGL/GUI/lvgl/src/core/lv_indev.c ****             if(i->proc.long_pr_sent == 0) {
 506:Middlewares/LVGL/GUI/lvgl/src/core/lv_indev.c ****                 lv_event_send(indev_obj_act, LV_EVENT_SHORT_CLICKED, indev_act);
 507:Middlewares/LVGL/GUI/lvgl/src/core/lv_indev.c ****                 if(indev_reset_check(&i->proc)) return;
 508:Middlewares/LVGL/GUI/lvgl/src/core/lv_indev.c ****             }
 509:Middlewares/LVGL/GUI/lvgl/src/core/lv_indev.c **** 
 510:Middlewares/LVGL/GUI/lvgl/src/core/lv_indev.c ****             lv_event_send(indev_obj_act, LV_EVENT_CLICKED, indev_act);
 511:Middlewares/LVGL/GUI/lvgl/src/core/lv_indev.c ****             if(indev_reset_check(&i->proc)) return;
 512:Middlewares/LVGL/GUI/lvgl/src/core/lv_indev.c **** 
 513:Middlewares/LVGL/GUI/lvgl/src/core/lv_indev.c ****         }
 514:Middlewares/LVGL/GUI/lvgl/src/core/lv_indev.c ****         i->proc.pr_timestamp = 0;
 515:Middlewares/LVGL/GUI/lvgl/src/core/lv_indev.c ****         i->proc.long_pr_sent = 0;
 516:Middlewares/LVGL/GUI/lvgl/src/core/lv_indev.c ****     }
 517:Middlewares/LVGL/GUI/lvgl/src/core/lv_indev.c ****     indev_obj_act = NULL;
 518:Middlewares/LVGL/GUI/lvgl/src/core/lv_indev.c **** }
 519:Middlewares/LVGL/GUI/lvgl/src/core/lv_indev.c **** 
 520:Middlewares/LVGL/GUI/lvgl/src/core/lv_indev.c **** /**
 521:Middlewares/LVGL/GUI/lvgl/src/core/lv_indev.c ****  * Process a new point from LV_INDEV_TYPE_ENCODER input device
 522:Middlewares/LVGL/GUI/lvgl/src/core/lv_indev.c ****  * @param i pointer to an input device
 523:Middlewares/LVGL/GUI/lvgl/src/core/lv_indev.c ****  * @param data pointer to the data read from the input device
 524:Middlewares/LVGL/GUI/lvgl/src/core/lv_indev.c ****  */
 525:Middlewares/LVGL/GUI/lvgl/src/core/lv_indev.c **** static void indev_encoder_proc(lv_indev_t * i, lv_indev_data_t * data)
 526:Middlewares/LVGL/GUI/lvgl/src/core/lv_indev.c **** {
 527:Middlewares/LVGL/GUI/lvgl/src/core/lv_indev.c ****     if(data->state == LV_INDEV_STATE_PRESSED && i->proc.wait_until_release) return;
 528:Middlewares/LVGL/GUI/lvgl/src/core/lv_indev.c **** 
 529:Middlewares/LVGL/GUI/lvgl/src/core/lv_indev.c ****     if(i->proc.wait_until_release) {
 530:Middlewares/LVGL/GUI/lvgl/src/core/lv_indev.c ****         i->proc.wait_until_release      = 0;
 531:Middlewares/LVGL/GUI/lvgl/src/core/lv_indev.c ****         i->proc.pr_timestamp            = 0;
 532:Middlewares/LVGL/GUI/lvgl/src/core/lv_indev.c ****         i->proc.long_pr_sent            = 0;
 533:Middlewares/LVGL/GUI/lvgl/src/core/lv_indev.c ****         i->proc.types.keypad.last_state = LV_INDEV_STATE_RELEASED; /*To skip the processing of rele
 534:Middlewares/LVGL/GUI/lvgl/src/core/lv_indev.c ****     }
 535:Middlewares/LVGL/GUI/lvgl/src/core/lv_indev.c **** 
 536:Middlewares/LVGL/GUI/lvgl/src/core/lv_indev.c ****     /*Save the last keys before anything else.
 537:Middlewares/LVGL/GUI/lvgl/src/core/lv_indev.c ****      *They need to be already saved if the function returns for any reason*/
 538:Middlewares/LVGL/GUI/lvgl/src/core/lv_indev.c ****     lv_indev_state_t last_state     = i->proc.types.keypad.last_state;
 539:Middlewares/LVGL/GUI/lvgl/src/core/lv_indev.c ****     i->proc.types.keypad.last_state = data->state;
 540:Middlewares/LVGL/GUI/lvgl/src/core/lv_indev.c ****     i->proc.types.keypad.last_key   = data->key;
 541:Middlewares/LVGL/GUI/lvgl/src/core/lv_indev.c **** 
 542:Middlewares/LVGL/GUI/lvgl/src/core/lv_indev.c ****     lv_group_t * g = i->group;
 543:Middlewares/LVGL/GUI/lvgl/src/core/lv_indev.c ****     if(g == NULL) return;
ARM GAS  C:\Users\ADMINI~1\AppData\Local\Temp\ccU2iQFc.s 			page 11


 544:Middlewares/LVGL/GUI/lvgl/src/core/lv_indev.c **** 
 545:Middlewares/LVGL/GUI/lvgl/src/core/lv_indev.c ****     indev_obj_act = lv_group_get_focused(g);
 546:Middlewares/LVGL/GUI/lvgl/src/core/lv_indev.c ****     if(indev_obj_act == NULL) return;
 547:Middlewares/LVGL/GUI/lvgl/src/core/lv_indev.c **** 
 548:Middlewares/LVGL/GUI/lvgl/src/core/lv_indev.c ****     /*Process the steps they are valid only with released button*/
 549:Middlewares/LVGL/GUI/lvgl/src/core/lv_indev.c ****     if(data->state != LV_INDEV_STATE_RELEASED) {
 550:Middlewares/LVGL/GUI/lvgl/src/core/lv_indev.c ****         data->enc_diff = 0;
 551:Middlewares/LVGL/GUI/lvgl/src/core/lv_indev.c ****     }
 552:Middlewares/LVGL/GUI/lvgl/src/core/lv_indev.c **** 
 553:Middlewares/LVGL/GUI/lvgl/src/core/lv_indev.c ****     /*Refresh the focused object. It might change due to lv_group_focus_prev/next*/
 554:Middlewares/LVGL/GUI/lvgl/src/core/lv_indev.c ****     indev_obj_act = lv_group_get_focused(g);
 555:Middlewares/LVGL/GUI/lvgl/src/core/lv_indev.c ****     if(indev_obj_act == NULL) return;
 556:Middlewares/LVGL/GUI/lvgl/src/core/lv_indev.c **** 
 557:Middlewares/LVGL/GUI/lvgl/src/core/lv_indev.c ****     /*Button press happened*/
 558:Middlewares/LVGL/GUI/lvgl/src/core/lv_indev.c ****     if(data->state == LV_INDEV_STATE_PRESSED && last_state == LV_INDEV_STATE_RELEASED) {
 559:Middlewares/LVGL/GUI/lvgl/src/core/lv_indev.c ****         LV_LOG_INFO("pressed");
 560:Middlewares/LVGL/GUI/lvgl/src/core/lv_indev.c **** 
 561:Middlewares/LVGL/GUI/lvgl/src/core/lv_indev.c ****         i->proc.pr_timestamp = lv_tick_get();
 562:Middlewares/LVGL/GUI/lvgl/src/core/lv_indev.c **** 
 563:Middlewares/LVGL/GUI/lvgl/src/core/lv_indev.c ****         if(data->key == LV_KEY_ENTER) {
 564:Middlewares/LVGL/GUI/lvgl/src/core/lv_indev.c ****             bool editable_or_scrollable = lv_obj_is_editable(indev_obj_act) ||
 565:Middlewares/LVGL/GUI/lvgl/src/core/lv_indev.c ****                                           lv_obj_has_flag(indev_obj_act, LV_OBJ_FLAG_SCROLLABLE);
 566:Middlewares/LVGL/GUI/lvgl/src/core/lv_indev.c ****             if(lv_group_get_editing(g) == true || editable_or_scrollable == false) {
 567:Middlewares/LVGL/GUI/lvgl/src/core/lv_indev.c ****                 lv_event_send(indev_obj_act, LV_EVENT_PRESSED, indev_act);
 568:Middlewares/LVGL/GUI/lvgl/src/core/lv_indev.c ****                 if(indev_reset_check(&i->proc)) return;
 569:Middlewares/LVGL/GUI/lvgl/src/core/lv_indev.c ****             }
 570:Middlewares/LVGL/GUI/lvgl/src/core/lv_indev.c ****         }
 571:Middlewares/LVGL/GUI/lvgl/src/core/lv_indev.c ****         else if(data->key == LV_KEY_LEFT) {
 572:Middlewares/LVGL/GUI/lvgl/src/core/lv_indev.c ****             /*emulate encoder left*/
 573:Middlewares/LVGL/GUI/lvgl/src/core/lv_indev.c ****             data->enc_diff--;
 574:Middlewares/LVGL/GUI/lvgl/src/core/lv_indev.c ****         }
 575:Middlewares/LVGL/GUI/lvgl/src/core/lv_indev.c ****         else if(data->key == LV_KEY_RIGHT) {
 576:Middlewares/LVGL/GUI/lvgl/src/core/lv_indev.c ****             /*emulate encoder right*/
 577:Middlewares/LVGL/GUI/lvgl/src/core/lv_indev.c ****             data->enc_diff++;
 578:Middlewares/LVGL/GUI/lvgl/src/core/lv_indev.c ****         }
 579:Middlewares/LVGL/GUI/lvgl/src/core/lv_indev.c ****         else if(data->key == LV_KEY_ESC) {
 580:Middlewares/LVGL/GUI/lvgl/src/core/lv_indev.c ****             /*Send the ESC as a normal KEY*/
 581:Middlewares/LVGL/GUI/lvgl/src/core/lv_indev.c ****             lv_group_send_data(g, LV_KEY_ESC);
 582:Middlewares/LVGL/GUI/lvgl/src/core/lv_indev.c **** 
 583:Middlewares/LVGL/GUI/lvgl/src/core/lv_indev.c ****             lv_event_send(indev_obj_act, LV_EVENT_CANCEL, indev_act);
 584:Middlewares/LVGL/GUI/lvgl/src/core/lv_indev.c ****             if(indev_reset_check(&i->proc)) return;
 585:Middlewares/LVGL/GUI/lvgl/src/core/lv_indev.c ****         }
 586:Middlewares/LVGL/GUI/lvgl/src/core/lv_indev.c ****         /*Just send other keys to the object (e.g. 'A' or `LV_GROUP_KEY_RIGHT`)*/
 587:Middlewares/LVGL/GUI/lvgl/src/core/lv_indev.c ****         else {
 588:Middlewares/LVGL/GUI/lvgl/src/core/lv_indev.c ****             lv_group_send_data(g, data->key);
 589:Middlewares/LVGL/GUI/lvgl/src/core/lv_indev.c ****         }
 590:Middlewares/LVGL/GUI/lvgl/src/core/lv_indev.c ****     }
 591:Middlewares/LVGL/GUI/lvgl/src/core/lv_indev.c ****     /*Pressing*/
 592:Middlewares/LVGL/GUI/lvgl/src/core/lv_indev.c ****     else if(data->state == LV_INDEV_STATE_PRESSED && last_state == LV_INDEV_STATE_PRESSED) {
 593:Middlewares/LVGL/GUI/lvgl/src/core/lv_indev.c ****         /*Long press*/
 594:Middlewares/LVGL/GUI/lvgl/src/core/lv_indev.c ****         if(i->proc.long_pr_sent == 0 && lv_tick_elaps(i->proc.pr_timestamp) > i->driver->long_press
 595:Middlewares/LVGL/GUI/lvgl/src/core/lv_indev.c **** 
 596:Middlewares/LVGL/GUI/lvgl/src/core/lv_indev.c ****             i->proc.long_pr_sent = 1;
 597:Middlewares/LVGL/GUI/lvgl/src/core/lv_indev.c ****             i->proc.longpr_rep_timestamp = lv_tick_get();
 598:Middlewares/LVGL/GUI/lvgl/src/core/lv_indev.c **** 
 599:Middlewares/LVGL/GUI/lvgl/src/core/lv_indev.c ****             if(data->key == LV_KEY_ENTER) {
 600:Middlewares/LVGL/GUI/lvgl/src/core/lv_indev.c ****                 bool editable_or_scrollable = lv_obj_is_editable(indev_obj_act) ||
ARM GAS  C:\Users\ADMINI~1\AppData\Local\Temp\ccU2iQFc.s 			page 12


 601:Middlewares/LVGL/GUI/lvgl/src/core/lv_indev.c ****                                               lv_obj_has_flag(indev_obj_act, LV_OBJ_FLAG_SCROLLABLE
 602:Middlewares/LVGL/GUI/lvgl/src/core/lv_indev.c **** 
 603:Middlewares/LVGL/GUI/lvgl/src/core/lv_indev.c ****                 /*On enter long press toggle edit mode.*/
 604:Middlewares/LVGL/GUI/lvgl/src/core/lv_indev.c ****                 if(editable_or_scrollable) {
 605:Middlewares/LVGL/GUI/lvgl/src/core/lv_indev.c ****                     /*Don't leave edit mode if there is only one object (nowhere to navigate)*/
 606:Middlewares/LVGL/GUI/lvgl/src/core/lv_indev.c ****                     if(lv_group_get_obj_count(g) > 1) {
 607:Middlewares/LVGL/GUI/lvgl/src/core/lv_indev.c ****                         LV_LOG_INFO("toggling edit mode");
 608:Middlewares/LVGL/GUI/lvgl/src/core/lv_indev.c ****                         lv_group_set_editing(g, lv_group_get_editing(g) ? false : true); /*Toggle e
 609:Middlewares/LVGL/GUI/lvgl/src/core/lv_indev.c ****                         lv_obj_clear_state(indev_obj_act, LV_STATE_PRESSED);    /*Remove the presse
 610:Middlewares/LVGL/GUI/lvgl/src/core/lv_indev.c ****                     }
 611:Middlewares/LVGL/GUI/lvgl/src/core/lv_indev.c ****                 }
 612:Middlewares/LVGL/GUI/lvgl/src/core/lv_indev.c ****                 /*If not editable then just send a long press Call the ancestor's event handler*/
 613:Middlewares/LVGL/GUI/lvgl/src/core/lv_indev.c ****                 else {
 614:Middlewares/LVGL/GUI/lvgl/src/core/lv_indev.c ****                     lv_event_send(indev_obj_act, LV_EVENT_LONG_PRESSED, indev_act);
 615:Middlewares/LVGL/GUI/lvgl/src/core/lv_indev.c ****                     if(indev_reset_check(&i->proc)) return;
 616:Middlewares/LVGL/GUI/lvgl/src/core/lv_indev.c ****                 }
 617:Middlewares/LVGL/GUI/lvgl/src/core/lv_indev.c ****             }
 618:Middlewares/LVGL/GUI/lvgl/src/core/lv_indev.c **** 
 619:Middlewares/LVGL/GUI/lvgl/src/core/lv_indev.c ****             i->proc.long_pr_sent = 1;
 620:Middlewares/LVGL/GUI/lvgl/src/core/lv_indev.c ****         }
 621:Middlewares/LVGL/GUI/lvgl/src/core/lv_indev.c ****         /*Long press repeated time has elapsed?*/
 622:Middlewares/LVGL/GUI/lvgl/src/core/lv_indev.c ****         else if(i->proc.long_pr_sent != 0 && lv_tick_elaps(i->proc.longpr_rep_timestamp) > i->drive
 623:Middlewares/LVGL/GUI/lvgl/src/core/lv_indev.c **** 
 624:Middlewares/LVGL/GUI/lvgl/src/core/lv_indev.c ****             i->proc.longpr_rep_timestamp = lv_tick_get();
 625:Middlewares/LVGL/GUI/lvgl/src/core/lv_indev.c **** 
 626:Middlewares/LVGL/GUI/lvgl/src/core/lv_indev.c ****             if(data->key == LV_KEY_ENTER) {
 627:Middlewares/LVGL/GUI/lvgl/src/core/lv_indev.c ****                 lv_event_send(indev_obj_act, LV_EVENT_LONG_PRESSED_REPEAT, indev_act);
 628:Middlewares/LVGL/GUI/lvgl/src/core/lv_indev.c ****                 if(indev_reset_check(&i->proc)) return;
 629:Middlewares/LVGL/GUI/lvgl/src/core/lv_indev.c ****             }
 630:Middlewares/LVGL/GUI/lvgl/src/core/lv_indev.c ****             else if(data->key == LV_KEY_LEFT) {
 631:Middlewares/LVGL/GUI/lvgl/src/core/lv_indev.c ****                 /*emulate encoder left*/
 632:Middlewares/LVGL/GUI/lvgl/src/core/lv_indev.c ****                 data->enc_diff--;
 633:Middlewares/LVGL/GUI/lvgl/src/core/lv_indev.c ****             }
 634:Middlewares/LVGL/GUI/lvgl/src/core/lv_indev.c ****             else if(data->key == LV_KEY_RIGHT) {
 635:Middlewares/LVGL/GUI/lvgl/src/core/lv_indev.c ****                 /*emulate encoder right*/
 636:Middlewares/LVGL/GUI/lvgl/src/core/lv_indev.c ****                 data->enc_diff++;
 637:Middlewares/LVGL/GUI/lvgl/src/core/lv_indev.c ****             }
 638:Middlewares/LVGL/GUI/lvgl/src/core/lv_indev.c ****             else {
 639:Middlewares/LVGL/GUI/lvgl/src/core/lv_indev.c ****                 lv_group_send_data(g, data->key);
 640:Middlewares/LVGL/GUI/lvgl/src/core/lv_indev.c ****                 if(indev_reset_check(&i->proc)) return;
 641:Middlewares/LVGL/GUI/lvgl/src/core/lv_indev.c ****             }
 642:Middlewares/LVGL/GUI/lvgl/src/core/lv_indev.c **** 
 643:Middlewares/LVGL/GUI/lvgl/src/core/lv_indev.c ****         }
 644:Middlewares/LVGL/GUI/lvgl/src/core/lv_indev.c **** 
 645:Middlewares/LVGL/GUI/lvgl/src/core/lv_indev.c ****     }
 646:Middlewares/LVGL/GUI/lvgl/src/core/lv_indev.c ****     /*Release happened*/
 647:Middlewares/LVGL/GUI/lvgl/src/core/lv_indev.c ****     else if(data->state == LV_INDEV_STATE_RELEASED && last_state == LV_INDEV_STATE_PRESSED) {
 648:Middlewares/LVGL/GUI/lvgl/src/core/lv_indev.c ****         LV_LOG_INFO("released");
 649:Middlewares/LVGL/GUI/lvgl/src/core/lv_indev.c **** 
 650:Middlewares/LVGL/GUI/lvgl/src/core/lv_indev.c ****         if(data->key == LV_KEY_ENTER) {
 651:Middlewares/LVGL/GUI/lvgl/src/core/lv_indev.c ****             bool editable_or_scrollable = lv_obj_is_editable(indev_obj_act) ||
 652:Middlewares/LVGL/GUI/lvgl/src/core/lv_indev.c ****                                           lv_obj_has_flag(indev_obj_act, LV_OBJ_FLAG_SCROLLABLE);
 653:Middlewares/LVGL/GUI/lvgl/src/core/lv_indev.c **** 
 654:Middlewares/LVGL/GUI/lvgl/src/core/lv_indev.c ****             /*The button was released on a non-editable object. Just send enter*/
 655:Middlewares/LVGL/GUI/lvgl/src/core/lv_indev.c ****             if(editable_or_scrollable == false) {
 656:Middlewares/LVGL/GUI/lvgl/src/core/lv_indev.c ****                 lv_event_send(indev_obj_act, LV_EVENT_RELEASED, indev_act);
 657:Middlewares/LVGL/GUI/lvgl/src/core/lv_indev.c ****                 if(indev_reset_check(&i->proc)) return;
ARM GAS  C:\Users\ADMINI~1\AppData\Local\Temp\ccU2iQFc.s 			page 13


 658:Middlewares/LVGL/GUI/lvgl/src/core/lv_indev.c **** 
 659:Middlewares/LVGL/GUI/lvgl/src/core/lv_indev.c ****                 if(i->proc.long_pr_sent == 0) lv_event_send(indev_obj_act, LV_EVENT_SHORT_CLICKED, 
 660:Middlewares/LVGL/GUI/lvgl/src/core/lv_indev.c ****                 if(indev_reset_check(&i->proc)) return;
 661:Middlewares/LVGL/GUI/lvgl/src/core/lv_indev.c **** 
 662:Middlewares/LVGL/GUI/lvgl/src/core/lv_indev.c ****                 lv_event_send(indev_obj_act, LV_EVENT_CLICKED, indev_act);
 663:Middlewares/LVGL/GUI/lvgl/src/core/lv_indev.c ****                 if(indev_reset_check(&i->proc)) return;
 664:Middlewares/LVGL/GUI/lvgl/src/core/lv_indev.c **** 
 665:Middlewares/LVGL/GUI/lvgl/src/core/lv_indev.c ****             }
 666:Middlewares/LVGL/GUI/lvgl/src/core/lv_indev.c ****             /*An object is being edited and the button is released.*/
 667:Middlewares/LVGL/GUI/lvgl/src/core/lv_indev.c ****             else if(lv_group_get_editing(g)) {
 668:Middlewares/LVGL/GUI/lvgl/src/core/lv_indev.c ****                 /*Ignore long pressed enter release because it comes from mode switch*/
 669:Middlewares/LVGL/GUI/lvgl/src/core/lv_indev.c ****                 if(!i->proc.long_pr_sent || lv_group_get_obj_count(g) <= 1) {
 670:Middlewares/LVGL/GUI/lvgl/src/core/lv_indev.c ****                     lv_event_send(indev_obj_act, LV_EVENT_RELEASED, indev_act);
 671:Middlewares/LVGL/GUI/lvgl/src/core/lv_indev.c ****                     if(indev_reset_check(&i->proc)) return;
 672:Middlewares/LVGL/GUI/lvgl/src/core/lv_indev.c **** 
 673:Middlewares/LVGL/GUI/lvgl/src/core/lv_indev.c ****                     lv_event_send(indev_obj_act, LV_EVENT_SHORT_CLICKED, indev_act);
 674:Middlewares/LVGL/GUI/lvgl/src/core/lv_indev.c ****                     if(indev_reset_check(&i->proc)) return;
 675:Middlewares/LVGL/GUI/lvgl/src/core/lv_indev.c **** 
 676:Middlewares/LVGL/GUI/lvgl/src/core/lv_indev.c ****                     lv_event_send(indev_obj_act, LV_EVENT_CLICKED, indev_act);
 677:Middlewares/LVGL/GUI/lvgl/src/core/lv_indev.c ****                     if(indev_reset_check(&i->proc)) return;
 678:Middlewares/LVGL/GUI/lvgl/src/core/lv_indev.c **** 
 679:Middlewares/LVGL/GUI/lvgl/src/core/lv_indev.c **** 
 680:Middlewares/LVGL/GUI/lvgl/src/core/lv_indev.c ****                     lv_group_send_data(g, LV_KEY_ENTER);
 681:Middlewares/LVGL/GUI/lvgl/src/core/lv_indev.c ****                 }
 682:Middlewares/LVGL/GUI/lvgl/src/core/lv_indev.c ****                 else {
 683:Middlewares/LVGL/GUI/lvgl/src/core/lv_indev.c ****                     lv_obj_clear_state(indev_obj_act, LV_STATE_PRESSED);    /*Remove the pressed st
 684:Middlewares/LVGL/GUI/lvgl/src/core/lv_indev.c ****                 }
 685:Middlewares/LVGL/GUI/lvgl/src/core/lv_indev.c ****             }
 686:Middlewares/LVGL/GUI/lvgl/src/core/lv_indev.c ****             /*If the focused object is editable and now in navigate mode then on enter switch edit
 687:Middlewares/LVGL/GUI/lvgl/src/core/lv_indev.c ****                mode*/
 688:Middlewares/LVGL/GUI/lvgl/src/core/lv_indev.c ****             else if(!i->proc.long_pr_sent) {
 689:Middlewares/LVGL/GUI/lvgl/src/core/lv_indev.c ****                 LV_LOG_INFO("entering edit mode");
 690:Middlewares/LVGL/GUI/lvgl/src/core/lv_indev.c ****                 lv_group_set_editing(g, true); /*Set edit mode*/
 691:Middlewares/LVGL/GUI/lvgl/src/core/lv_indev.c ****             }
 692:Middlewares/LVGL/GUI/lvgl/src/core/lv_indev.c ****         }
 693:Middlewares/LVGL/GUI/lvgl/src/core/lv_indev.c **** 
 694:Middlewares/LVGL/GUI/lvgl/src/core/lv_indev.c ****         i->proc.pr_timestamp = 0;
 695:Middlewares/LVGL/GUI/lvgl/src/core/lv_indev.c ****         i->proc.long_pr_sent = 0;
 696:Middlewares/LVGL/GUI/lvgl/src/core/lv_indev.c ****     }
 697:Middlewares/LVGL/GUI/lvgl/src/core/lv_indev.c ****     indev_obj_act = NULL;
 698:Middlewares/LVGL/GUI/lvgl/src/core/lv_indev.c **** 
 699:Middlewares/LVGL/GUI/lvgl/src/core/lv_indev.c ****     /*if encoder steps or simulated steps via left/right keys*/
 700:Middlewares/LVGL/GUI/lvgl/src/core/lv_indev.c ****     if(data->enc_diff != 0) {
 701:Middlewares/LVGL/GUI/lvgl/src/core/lv_indev.c ****         /*In edit mode send LEFT/RIGHT keys*/
 702:Middlewares/LVGL/GUI/lvgl/src/core/lv_indev.c ****         if(lv_group_get_editing(g)) {
 703:Middlewares/LVGL/GUI/lvgl/src/core/lv_indev.c ****             LV_LOG_INFO("rotated by %+d (edit)", data->enc_diff);
 704:Middlewares/LVGL/GUI/lvgl/src/core/lv_indev.c ****             int32_t s;
 705:Middlewares/LVGL/GUI/lvgl/src/core/lv_indev.c ****             if(data->enc_diff < 0) {
 706:Middlewares/LVGL/GUI/lvgl/src/core/lv_indev.c ****                 for(s = 0; s < -data->enc_diff; s++) lv_group_send_data(g, LV_KEY_LEFT);
 707:Middlewares/LVGL/GUI/lvgl/src/core/lv_indev.c ****             }
 708:Middlewares/LVGL/GUI/lvgl/src/core/lv_indev.c ****             else if(data->enc_diff > 0) {
 709:Middlewares/LVGL/GUI/lvgl/src/core/lv_indev.c ****                 for(s = 0; s < data->enc_diff; s++) lv_group_send_data(g, LV_KEY_RIGHT);
 710:Middlewares/LVGL/GUI/lvgl/src/core/lv_indev.c ****             }
 711:Middlewares/LVGL/GUI/lvgl/src/core/lv_indev.c ****         }
 712:Middlewares/LVGL/GUI/lvgl/src/core/lv_indev.c ****         /*In navigate mode focus on the next/prev objects*/
 713:Middlewares/LVGL/GUI/lvgl/src/core/lv_indev.c ****         else {
 714:Middlewares/LVGL/GUI/lvgl/src/core/lv_indev.c ****             LV_LOG_INFO("rotated by %+d (nav)", data->enc_diff);
ARM GAS  C:\Users\ADMINI~1\AppData\Local\Temp\ccU2iQFc.s 			page 14


 715:Middlewares/LVGL/GUI/lvgl/src/core/lv_indev.c ****             int32_t s;
 716:Middlewares/LVGL/GUI/lvgl/src/core/lv_indev.c ****             if(data->enc_diff < 0) {
 717:Middlewares/LVGL/GUI/lvgl/src/core/lv_indev.c ****                 for(s = 0; s < -data->enc_diff; s++) lv_group_focus_prev(g);
 718:Middlewares/LVGL/GUI/lvgl/src/core/lv_indev.c ****             }
 719:Middlewares/LVGL/GUI/lvgl/src/core/lv_indev.c ****             else if(data->enc_diff > 0) {
 720:Middlewares/LVGL/GUI/lvgl/src/core/lv_indev.c ****                 for(s = 0; s < data->enc_diff; s++) lv_group_focus_next(g);
 721:Middlewares/LVGL/GUI/lvgl/src/core/lv_indev.c ****             }
 722:Middlewares/LVGL/GUI/lvgl/src/core/lv_indev.c ****         }
 723:Middlewares/LVGL/GUI/lvgl/src/core/lv_indev.c ****     }
 724:Middlewares/LVGL/GUI/lvgl/src/core/lv_indev.c **** }
 725:Middlewares/LVGL/GUI/lvgl/src/core/lv_indev.c **** 
 726:Middlewares/LVGL/GUI/lvgl/src/core/lv_indev.c **** /**
 727:Middlewares/LVGL/GUI/lvgl/src/core/lv_indev.c ****  * Process new points from an input device. indev->state.pressed has to be set
 728:Middlewares/LVGL/GUI/lvgl/src/core/lv_indev.c ****  * @param indev pointer to an input device state
 729:Middlewares/LVGL/GUI/lvgl/src/core/lv_indev.c ****  * @param x x coordinate of the next point
 730:Middlewares/LVGL/GUI/lvgl/src/core/lv_indev.c ****  * @param y y coordinate of the next point
 731:Middlewares/LVGL/GUI/lvgl/src/core/lv_indev.c ****  */
 732:Middlewares/LVGL/GUI/lvgl/src/core/lv_indev.c **** static void indev_button_proc(lv_indev_t * i, lv_indev_data_t * data)
 733:Middlewares/LVGL/GUI/lvgl/src/core/lv_indev.c **** {
 734:Middlewares/LVGL/GUI/lvgl/src/core/lv_indev.c ****     /*Die gracefully if i->btn_points is NULL*/
 735:Middlewares/LVGL/GUI/lvgl/src/core/lv_indev.c ****     if(i->btn_points == NULL) {
 736:Middlewares/LVGL/GUI/lvgl/src/core/lv_indev.c ****         LV_LOG_WARN("btn_points is NULL");
 737:Middlewares/LVGL/GUI/lvgl/src/core/lv_indev.c ****         return;
 738:Middlewares/LVGL/GUI/lvgl/src/core/lv_indev.c ****     }
 739:Middlewares/LVGL/GUI/lvgl/src/core/lv_indev.c **** 
 740:Middlewares/LVGL/GUI/lvgl/src/core/lv_indev.c ****     lv_coord_t x = i->btn_points[data->btn_id].x;
 741:Middlewares/LVGL/GUI/lvgl/src/core/lv_indev.c ****     lv_coord_t y = i->btn_points[data->btn_id].y;
 742:Middlewares/LVGL/GUI/lvgl/src/core/lv_indev.c **** 
 743:Middlewares/LVGL/GUI/lvgl/src/core/lv_indev.c ****     static lv_indev_state_t prev_state = LV_INDEV_STATE_RELEASED;
 744:Middlewares/LVGL/GUI/lvgl/src/core/lv_indev.c ****     if(prev_state != data->state) {
 745:Middlewares/LVGL/GUI/lvgl/src/core/lv_indev.c ****         if(data->state == LV_INDEV_STATE_PRESSED) {
 746:Middlewares/LVGL/GUI/lvgl/src/core/lv_indev.c ****             LV_LOG_INFO("button %d is pressed (x:%d y:%d)", data->btn_id, x, y);
 747:Middlewares/LVGL/GUI/lvgl/src/core/lv_indev.c ****         }
 748:Middlewares/LVGL/GUI/lvgl/src/core/lv_indev.c ****         else {
 749:Middlewares/LVGL/GUI/lvgl/src/core/lv_indev.c ****             LV_LOG_INFO("button %d is released (x:%d y:%d)", data->btn_id, x, y);
 750:Middlewares/LVGL/GUI/lvgl/src/core/lv_indev.c ****         }
 751:Middlewares/LVGL/GUI/lvgl/src/core/lv_indev.c ****     }
 752:Middlewares/LVGL/GUI/lvgl/src/core/lv_indev.c **** 
 753:Middlewares/LVGL/GUI/lvgl/src/core/lv_indev.c ****     /*If a new point comes always make a release*/
 754:Middlewares/LVGL/GUI/lvgl/src/core/lv_indev.c ****     if(data->state == LV_INDEV_STATE_PRESSED) {
 755:Middlewares/LVGL/GUI/lvgl/src/core/lv_indev.c ****         if(i->proc.types.pointer.last_point.x != x ||
 756:Middlewares/LVGL/GUI/lvgl/src/core/lv_indev.c ****            i->proc.types.pointer.last_point.y != y) {
 757:Middlewares/LVGL/GUI/lvgl/src/core/lv_indev.c ****             indev_proc_release(&i->proc);
 758:Middlewares/LVGL/GUI/lvgl/src/core/lv_indev.c ****         }
 759:Middlewares/LVGL/GUI/lvgl/src/core/lv_indev.c ****     }
 760:Middlewares/LVGL/GUI/lvgl/src/core/lv_indev.c **** 
 761:Middlewares/LVGL/GUI/lvgl/src/core/lv_indev.c ****     if(indev_reset_check(&i->proc)) return;
 762:Middlewares/LVGL/GUI/lvgl/src/core/lv_indev.c **** 
 763:Middlewares/LVGL/GUI/lvgl/src/core/lv_indev.c ****     /*Save the new points*/
 764:Middlewares/LVGL/GUI/lvgl/src/core/lv_indev.c ****     i->proc.types.pointer.act_point.x = x;
 765:Middlewares/LVGL/GUI/lvgl/src/core/lv_indev.c ****     i->proc.types.pointer.act_point.y = y;
 766:Middlewares/LVGL/GUI/lvgl/src/core/lv_indev.c **** 
 767:Middlewares/LVGL/GUI/lvgl/src/core/lv_indev.c ****     if(data->state == LV_INDEV_STATE_PRESSED) indev_proc_press(&i->proc);
 768:Middlewares/LVGL/GUI/lvgl/src/core/lv_indev.c ****     else indev_proc_release(&i->proc);
 769:Middlewares/LVGL/GUI/lvgl/src/core/lv_indev.c **** 
 770:Middlewares/LVGL/GUI/lvgl/src/core/lv_indev.c ****     if(indev_reset_check(&i->proc)) return;
 771:Middlewares/LVGL/GUI/lvgl/src/core/lv_indev.c **** 
ARM GAS  C:\Users\ADMINI~1\AppData\Local\Temp\ccU2iQFc.s 			page 15


 772:Middlewares/LVGL/GUI/lvgl/src/core/lv_indev.c ****     i->proc.types.pointer.last_point.x = i->proc.types.pointer.act_point.x;
 773:Middlewares/LVGL/GUI/lvgl/src/core/lv_indev.c ****     i->proc.types.pointer.last_point.y = i->proc.types.pointer.act_point.y;
 774:Middlewares/LVGL/GUI/lvgl/src/core/lv_indev.c **** }
 775:Middlewares/LVGL/GUI/lvgl/src/core/lv_indev.c **** 
 776:Middlewares/LVGL/GUI/lvgl/src/core/lv_indev.c **** /**
 777:Middlewares/LVGL/GUI/lvgl/src/core/lv_indev.c ****  * Process the pressed state of LV_INDEV_TYPE_POINTER input devices
 778:Middlewares/LVGL/GUI/lvgl/src/core/lv_indev.c ****  * @param indev pointer to an input device 'proc'
 779:Middlewares/LVGL/GUI/lvgl/src/core/lv_indev.c ****  * @return LV_RES_OK: no indev reset required; LV_RES_INV: indev reset is required
 780:Middlewares/LVGL/GUI/lvgl/src/core/lv_indev.c ****  */
 781:Middlewares/LVGL/GUI/lvgl/src/core/lv_indev.c **** static void indev_proc_press(_lv_indev_proc_t * proc)
 782:Middlewares/LVGL/GUI/lvgl/src/core/lv_indev.c **** {
 783:Middlewares/LVGL/GUI/lvgl/src/core/lv_indev.c ****     LV_LOG_INFO("pressed at x:%d y:%d", proc->types.pointer.act_point.x, proc->types.pointer.act_po
 784:Middlewares/LVGL/GUI/lvgl/src/core/lv_indev.c ****     indev_obj_act = proc->types.pointer.act_obj;
 785:Middlewares/LVGL/GUI/lvgl/src/core/lv_indev.c **** 
 786:Middlewares/LVGL/GUI/lvgl/src/core/lv_indev.c ****     if(proc->wait_until_release != 0) return;
 787:Middlewares/LVGL/GUI/lvgl/src/core/lv_indev.c **** 
 788:Middlewares/LVGL/GUI/lvgl/src/core/lv_indev.c ****     lv_disp_t * disp = indev_act->driver->disp;
 789:Middlewares/LVGL/GUI/lvgl/src/core/lv_indev.c ****     bool new_obj_searched = false;
 790:Middlewares/LVGL/GUI/lvgl/src/core/lv_indev.c **** 
 791:Middlewares/LVGL/GUI/lvgl/src/core/lv_indev.c ****     /*If there is no last object then search*/
 792:Middlewares/LVGL/GUI/lvgl/src/core/lv_indev.c ****     if(indev_obj_act == NULL) {
 793:Middlewares/LVGL/GUI/lvgl/src/core/lv_indev.c ****         indev_obj_act = lv_indev_search_obj(lv_disp_get_layer_sys(disp), &proc->types.pointer.act_p
 794:Middlewares/LVGL/GUI/lvgl/src/core/lv_indev.c ****         if(indev_obj_act == NULL) indev_obj_act = lv_indev_search_obj(lv_disp_get_layer_top(disp),
 795:Middlewares/LVGL/GUI/lvgl/src/core/lv_indev.c ****                                                                           &proc->types.pointer.act_
 796:Middlewares/LVGL/GUI/lvgl/src/core/lv_indev.c ****         if(indev_obj_act == NULL) indev_obj_act = lv_indev_search_obj(lv_disp_get_scr_act(disp),
 797:Middlewares/LVGL/GUI/lvgl/src/core/lv_indev.c ****                                                                           &proc->types.pointer.act_
 798:Middlewares/LVGL/GUI/lvgl/src/core/lv_indev.c ****         new_obj_searched = true;
 799:Middlewares/LVGL/GUI/lvgl/src/core/lv_indev.c ****     }
 800:Middlewares/LVGL/GUI/lvgl/src/core/lv_indev.c ****     /*If there is last object but it is not scrolled and not protected also search*/
 801:Middlewares/LVGL/GUI/lvgl/src/core/lv_indev.c ****     else if(proc->types.pointer.scroll_obj == NULL &&
 802:Middlewares/LVGL/GUI/lvgl/src/core/lv_indev.c ****             lv_obj_has_flag(indev_obj_act, LV_OBJ_FLAG_PRESS_LOCK) == false) {
 803:Middlewares/LVGL/GUI/lvgl/src/core/lv_indev.c ****         indev_obj_act = lv_indev_search_obj(lv_disp_get_layer_sys(disp), &proc->types.pointer.act_p
 804:Middlewares/LVGL/GUI/lvgl/src/core/lv_indev.c ****         if(indev_obj_act == NULL) indev_obj_act = lv_indev_search_obj(lv_disp_get_layer_top(disp),
 805:Middlewares/LVGL/GUI/lvgl/src/core/lv_indev.c ****                                                                           &proc->types.pointer.act_
 806:Middlewares/LVGL/GUI/lvgl/src/core/lv_indev.c ****         if(indev_obj_act == NULL) indev_obj_act = lv_indev_search_obj(lv_disp_get_scr_act(disp),
 807:Middlewares/LVGL/GUI/lvgl/src/core/lv_indev.c ****                                                                           &proc->types.pointer.act_
 808:Middlewares/LVGL/GUI/lvgl/src/core/lv_indev.c ****         new_obj_searched = true;
 809:Middlewares/LVGL/GUI/lvgl/src/core/lv_indev.c ****     }
 810:Middlewares/LVGL/GUI/lvgl/src/core/lv_indev.c **** 
 811:Middlewares/LVGL/GUI/lvgl/src/core/lv_indev.c ****     /*The last object might have scroll throw. Stop it manually*/
 812:Middlewares/LVGL/GUI/lvgl/src/core/lv_indev.c ****     if(new_obj_searched && proc->types.pointer.last_obj) {
 813:Middlewares/LVGL/GUI/lvgl/src/core/lv_indev.c ****         proc->types.pointer.scroll_throw_vect.x = 0;
 814:Middlewares/LVGL/GUI/lvgl/src/core/lv_indev.c ****         proc->types.pointer.scroll_throw_vect.y = 0;
 815:Middlewares/LVGL/GUI/lvgl/src/core/lv_indev.c ****         _lv_indev_scroll_throw_handler(proc);
 816:Middlewares/LVGL/GUI/lvgl/src/core/lv_indev.c ****         if(indev_reset_check(proc)) return;
 817:Middlewares/LVGL/GUI/lvgl/src/core/lv_indev.c ****     }
 818:Middlewares/LVGL/GUI/lvgl/src/core/lv_indev.c **** 
 819:Middlewares/LVGL/GUI/lvgl/src/core/lv_indev.c ****     /*If a new object was found reset some variables and send a pressed Call the ancestor's event h
 820:Middlewares/LVGL/GUI/lvgl/src/core/lv_indev.c ****     if(indev_obj_act != proc->types.pointer.act_obj) {
 821:Middlewares/LVGL/GUI/lvgl/src/core/lv_indev.c ****         proc->types.pointer.last_point.x = proc->types.pointer.act_point.x;
 822:Middlewares/LVGL/GUI/lvgl/src/core/lv_indev.c ****         proc->types.pointer.last_point.y = proc->types.pointer.act_point.y;
 823:Middlewares/LVGL/GUI/lvgl/src/core/lv_indev.c **** 
 824:Middlewares/LVGL/GUI/lvgl/src/core/lv_indev.c ****         /*If a new object found the previous was lost, so send a Call the ancestor's event handler*
 825:Middlewares/LVGL/GUI/lvgl/src/core/lv_indev.c ****         if(proc->types.pointer.act_obj != NULL) {
 826:Middlewares/LVGL/GUI/lvgl/src/core/lv_indev.c ****             /*Save the obj because in special cases `act_obj` can change in the Call the ancestor's
 827:Middlewares/LVGL/GUI/lvgl/src/core/lv_indev.c ****             lv_obj_t * last_obj = proc->types.pointer.act_obj;
 828:Middlewares/LVGL/GUI/lvgl/src/core/lv_indev.c **** 
ARM GAS  C:\Users\ADMINI~1\AppData\Local\Temp\ccU2iQFc.s 			page 16


 829:Middlewares/LVGL/GUI/lvgl/src/core/lv_indev.c ****             lv_event_send(last_obj, LV_EVENT_PRESS_LOST, indev_act);
 830:Middlewares/LVGL/GUI/lvgl/src/core/lv_indev.c ****             if(indev_reset_check(proc)) return;
 831:Middlewares/LVGL/GUI/lvgl/src/core/lv_indev.c ****         }
 832:Middlewares/LVGL/GUI/lvgl/src/core/lv_indev.c **** 
 833:Middlewares/LVGL/GUI/lvgl/src/core/lv_indev.c ****         proc->types.pointer.act_obj  = indev_obj_act; /*Save the pressed object*/
 834:Middlewares/LVGL/GUI/lvgl/src/core/lv_indev.c ****         proc->types.pointer.last_obj = indev_obj_act;
 835:Middlewares/LVGL/GUI/lvgl/src/core/lv_indev.c **** 
 836:Middlewares/LVGL/GUI/lvgl/src/core/lv_indev.c ****         if(indev_obj_act != NULL) {
 837:Middlewares/LVGL/GUI/lvgl/src/core/lv_indev.c ****             /*Save the time when the obj pressed to count long press time.*/
 838:Middlewares/LVGL/GUI/lvgl/src/core/lv_indev.c ****             proc->pr_timestamp                 = lv_tick_get();
 839:Middlewares/LVGL/GUI/lvgl/src/core/lv_indev.c ****             proc->long_pr_sent                 = 0;
 840:Middlewares/LVGL/GUI/lvgl/src/core/lv_indev.c ****             proc->types.pointer.scroll_sum.x     = 0;
 841:Middlewares/LVGL/GUI/lvgl/src/core/lv_indev.c ****             proc->types.pointer.scroll_sum.y     = 0;
 842:Middlewares/LVGL/GUI/lvgl/src/core/lv_indev.c ****             proc->types.pointer.scroll_dir = LV_DIR_NONE;
 843:Middlewares/LVGL/GUI/lvgl/src/core/lv_indev.c ****             proc->types.pointer.gesture_dir = LV_DIR_NONE;
 844:Middlewares/LVGL/GUI/lvgl/src/core/lv_indev.c ****             proc->types.pointer.gesture_sent   = 0;
 845:Middlewares/LVGL/GUI/lvgl/src/core/lv_indev.c ****             proc->types.pointer.gesture_sum.x  = 0;
 846:Middlewares/LVGL/GUI/lvgl/src/core/lv_indev.c ****             proc->types.pointer.gesture_sum.y  = 0;
 847:Middlewares/LVGL/GUI/lvgl/src/core/lv_indev.c ****             proc->types.pointer.vect.x         = 0;
 848:Middlewares/LVGL/GUI/lvgl/src/core/lv_indev.c ****             proc->types.pointer.vect.y         = 0;
 849:Middlewares/LVGL/GUI/lvgl/src/core/lv_indev.c **** 
 850:Middlewares/LVGL/GUI/lvgl/src/core/lv_indev.c ****             /*Call the ancestor's event handler about the press*/
 851:Middlewares/LVGL/GUI/lvgl/src/core/lv_indev.c ****             lv_event_send(indev_obj_act, LV_EVENT_PRESSED, indev_act);
 852:Middlewares/LVGL/GUI/lvgl/src/core/lv_indev.c ****             if(indev_reset_check(proc)) return;
 853:Middlewares/LVGL/GUI/lvgl/src/core/lv_indev.c **** 
 854:Middlewares/LVGL/GUI/lvgl/src/core/lv_indev.c ****             if(indev_act->proc.wait_until_release) return;
 855:Middlewares/LVGL/GUI/lvgl/src/core/lv_indev.c **** 
 856:Middlewares/LVGL/GUI/lvgl/src/core/lv_indev.c ****             /*Handle focus*/
 857:Middlewares/LVGL/GUI/lvgl/src/core/lv_indev.c ****             indev_click_focus(&indev_act->proc);
 858:Middlewares/LVGL/GUI/lvgl/src/core/lv_indev.c ****             if(indev_reset_check(proc)) return;
 859:Middlewares/LVGL/GUI/lvgl/src/core/lv_indev.c **** 
 860:Middlewares/LVGL/GUI/lvgl/src/core/lv_indev.c ****         }
 861:Middlewares/LVGL/GUI/lvgl/src/core/lv_indev.c ****     }
 862:Middlewares/LVGL/GUI/lvgl/src/core/lv_indev.c **** 
 863:Middlewares/LVGL/GUI/lvgl/src/core/lv_indev.c ****     /*Calculate the vector and apply a low pass filter: new value = 0.5 * old_value + 0.5 * new_val
 864:Middlewares/LVGL/GUI/lvgl/src/core/lv_indev.c ****     proc->types.pointer.vect.x = proc->types.pointer.act_point.x - proc->types.pointer.last_point.x
 865:Middlewares/LVGL/GUI/lvgl/src/core/lv_indev.c ****     proc->types.pointer.vect.y = proc->types.pointer.act_point.y - proc->types.pointer.last_point.y
 866:Middlewares/LVGL/GUI/lvgl/src/core/lv_indev.c **** 
 867:Middlewares/LVGL/GUI/lvgl/src/core/lv_indev.c ****     proc->types.pointer.scroll_throw_vect.x = (proc->types.pointer.scroll_throw_vect.x * 4) >> 3;
 868:Middlewares/LVGL/GUI/lvgl/src/core/lv_indev.c ****     proc->types.pointer.scroll_throw_vect.y = (proc->types.pointer.scroll_throw_vect.y * 4) >> 3;
 869:Middlewares/LVGL/GUI/lvgl/src/core/lv_indev.c **** 
 870:Middlewares/LVGL/GUI/lvgl/src/core/lv_indev.c ****     proc->types.pointer.scroll_throw_vect.x += (proc->types.pointer.vect.x * 4) >> 3;
 871:Middlewares/LVGL/GUI/lvgl/src/core/lv_indev.c ****     proc->types.pointer.scroll_throw_vect.y += (proc->types.pointer.vect.y * 4) >> 3;
 872:Middlewares/LVGL/GUI/lvgl/src/core/lv_indev.c **** 
 873:Middlewares/LVGL/GUI/lvgl/src/core/lv_indev.c ****     proc->types.pointer.scroll_throw_vect_ori = proc->types.pointer.scroll_throw_vect;
 874:Middlewares/LVGL/GUI/lvgl/src/core/lv_indev.c **** 
 875:Middlewares/LVGL/GUI/lvgl/src/core/lv_indev.c ****     if(indev_obj_act) {
 876:Middlewares/LVGL/GUI/lvgl/src/core/lv_indev.c ****         lv_event_send(indev_obj_act, LV_EVENT_PRESSING, indev_act);
 877:Middlewares/LVGL/GUI/lvgl/src/core/lv_indev.c ****         if(indev_reset_check(proc)) return;
 878:Middlewares/LVGL/GUI/lvgl/src/core/lv_indev.c **** 
 879:Middlewares/LVGL/GUI/lvgl/src/core/lv_indev.c ****         if(indev_act->proc.wait_until_release) return;
 880:Middlewares/LVGL/GUI/lvgl/src/core/lv_indev.c **** 
 881:Middlewares/LVGL/GUI/lvgl/src/core/lv_indev.c ****         _lv_indev_scroll_handler(proc);
 882:Middlewares/LVGL/GUI/lvgl/src/core/lv_indev.c ****         if(indev_reset_check(proc)) return;
 883:Middlewares/LVGL/GUI/lvgl/src/core/lv_indev.c ****         indev_gesture(proc);
 884:Middlewares/LVGL/GUI/lvgl/src/core/lv_indev.c ****         if(indev_reset_check(proc)) return;
 885:Middlewares/LVGL/GUI/lvgl/src/core/lv_indev.c **** 
ARM GAS  C:\Users\ADMINI~1\AppData\Local\Temp\ccU2iQFc.s 			page 17


 886:Middlewares/LVGL/GUI/lvgl/src/core/lv_indev.c ****         /*If there is no scrolling then check for long press time*/
 887:Middlewares/LVGL/GUI/lvgl/src/core/lv_indev.c ****         if(proc->types.pointer.scroll_obj == NULL && proc->long_pr_sent == 0) {
 888:Middlewares/LVGL/GUI/lvgl/src/core/lv_indev.c ****             /*Call the ancestor's event handler about the long press if enough time elapsed*/
 889:Middlewares/LVGL/GUI/lvgl/src/core/lv_indev.c ****             if(lv_tick_elaps(proc->pr_timestamp) > indev_act->driver->long_press_time) {
 890:Middlewares/LVGL/GUI/lvgl/src/core/lv_indev.c ****                 lv_event_send(indev_obj_act, LV_EVENT_LONG_PRESSED, indev_act);
 891:Middlewares/LVGL/GUI/lvgl/src/core/lv_indev.c ****                 if(indev_reset_check(proc)) return;
 892:Middlewares/LVGL/GUI/lvgl/src/core/lv_indev.c **** 
 893:Middlewares/LVGL/GUI/lvgl/src/core/lv_indev.c ****                 /*Mark the Call the ancestor's event handler sending to do not send it again*/
 894:Middlewares/LVGL/GUI/lvgl/src/core/lv_indev.c ****                 proc->long_pr_sent = 1;
 895:Middlewares/LVGL/GUI/lvgl/src/core/lv_indev.c **** 
 896:Middlewares/LVGL/GUI/lvgl/src/core/lv_indev.c ****                 /*Save the long press time stamp for the long press repeat handler*/
 897:Middlewares/LVGL/GUI/lvgl/src/core/lv_indev.c ****                 proc->longpr_rep_timestamp = lv_tick_get();
 898:Middlewares/LVGL/GUI/lvgl/src/core/lv_indev.c ****             }
 899:Middlewares/LVGL/GUI/lvgl/src/core/lv_indev.c ****         }
 900:Middlewares/LVGL/GUI/lvgl/src/core/lv_indev.c **** 
 901:Middlewares/LVGL/GUI/lvgl/src/core/lv_indev.c ****         /*Send long press repeated Call the ancestor's event handler*/
 902:Middlewares/LVGL/GUI/lvgl/src/core/lv_indev.c ****         if(proc->types.pointer.scroll_obj == NULL && proc->long_pr_sent == 1) {
 903:Middlewares/LVGL/GUI/lvgl/src/core/lv_indev.c ****             /*Call the ancestor's event handler about the long press repeat if enough time elapsed*
 904:Middlewares/LVGL/GUI/lvgl/src/core/lv_indev.c ****             if(lv_tick_elaps(proc->longpr_rep_timestamp) > indev_act->driver->long_press_repeat_tim
 905:Middlewares/LVGL/GUI/lvgl/src/core/lv_indev.c ****                 lv_event_send(indev_obj_act, LV_EVENT_LONG_PRESSED_REPEAT, indev_act);
 906:Middlewares/LVGL/GUI/lvgl/src/core/lv_indev.c ****                 if(indev_reset_check(proc)) return;
 907:Middlewares/LVGL/GUI/lvgl/src/core/lv_indev.c ****                 proc->longpr_rep_timestamp = lv_tick_get();
 908:Middlewares/LVGL/GUI/lvgl/src/core/lv_indev.c ****             }
 909:Middlewares/LVGL/GUI/lvgl/src/core/lv_indev.c ****         }
 910:Middlewares/LVGL/GUI/lvgl/src/core/lv_indev.c ****     }
 911:Middlewares/LVGL/GUI/lvgl/src/core/lv_indev.c **** }
 912:Middlewares/LVGL/GUI/lvgl/src/core/lv_indev.c **** 
 913:Middlewares/LVGL/GUI/lvgl/src/core/lv_indev.c **** /**
 914:Middlewares/LVGL/GUI/lvgl/src/core/lv_indev.c ****  * Process the released state of LV_INDEV_TYPE_POINTER input devices
 915:Middlewares/LVGL/GUI/lvgl/src/core/lv_indev.c ****  * @param proc pointer to an input device 'proc'
 916:Middlewares/LVGL/GUI/lvgl/src/core/lv_indev.c ****  */
 917:Middlewares/LVGL/GUI/lvgl/src/core/lv_indev.c **** static void indev_proc_release(_lv_indev_proc_t * proc)
 918:Middlewares/LVGL/GUI/lvgl/src/core/lv_indev.c **** {
 919:Middlewares/LVGL/GUI/lvgl/src/core/lv_indev.c ****     if(proc->wait_until_release != 0) {
 920:Middlewares/LVGL/GUI/lvgl/src/core/lv_indev.c ****         proc->types.pointer.act_obj  = NULL;
 921:Middlewares/LVGL/GUI/lvgl/src/core/lv_indev.c ****         proc->types.pointer.last_obj = NULL;
 922:Middlewares/LVGL/GUI/lvgl/src/core/lv_indev.c ****         proc->pr_timestamp           = 0;
 923:Middlewares/LVGL/GUI/lvgl/src/core/lv_indev.c ****         proc->longpr_rep_timestamp   = 0;
 924:Middlewares/LVGL/GUI/lvgl/src/core/lv_indev.c ****         proc->wait_until_release     = 0;
 925:Middlewares/LVGL/GUI/lvgl/src/core/lv_indev.c ****     }
 926:Middlewares/LVGL/GUI/lvgl/src/core/lv_indev.c ****     indev_obj_act = proc->types.pointer.act_obj;
 927:Middlewares/LVGL/GUI/lvgl/src/core/lv_indev.c ****     lv_obj_t * scroll_obj = proc->types.pointer.scroll_obj;
 928:Middlewares/LVGL/GUI/lvgl/src/core/lv_indev.c **** 
 929:Middlewares/LVGL/GUI/lvgl/src/core/lv_indev.c ****     /*Forget the act obj and send a released Call the ancestor's event handler*/
 930:Middlewares/LVGL/GUI/lvgl/src/core/lv_indev.c ****     if(indev_obj_act) {
 931:Middlewares/LVGL/GUI/lvgl/src/core/lv_indev.c ****         LV_LOG_INFO("released");
 932:Middlewares/LVGL/GUI/lvgl/src/core/lv_indev.c **** 
 933:Middlewares/LVGL/GUI/lvgl/src/core/lv_indev.c ****         /*Send RELEASE Call the ancestor's event handler and event*/
 934:Middlewares/LVGL/GUI/lvgl/src/core/lv_indev.c ****         lv_event_send(indev_obj_act, LV_EVENT_RELEASED, indev_act);
 935:Middlewares/LVGL/GUI/lvgl/src/core/lv_indev.c ****         if(indev_reset_check(proc)) return;
 936:Middlewares/LVGL/GUI/lvgl/src/core/lv_indev.c **** 
 937:Middlewares/LVGL/GUI/lvgl/src/core/lv_indev.c ****         /*Send CLICK if no scrolling*/
 938:Middlewares/LVGL/GUI/lvgl/src/core/lv_indev.c ****         if(scroll_obj == NULL) {
 939:Middlewares/LVGL/GUI/lvgl/src/core/lv_indev.c ****             if(proc->long_pr_sent == 0) {
 940:Middlewares/LVGL/GUI/lvgl/src/core/lv_indev.c ****                 lv_event_send(indev_obj_act, LV_EVENT_SHORT_CLICKED, indev_act);
 941:Middlewares/LVGL/GUI/lvgl/src/core/lv_indev.c ****                 if(indev_reset_check(proc)) return;
 942:Middlewares/LVGL/GUI/lvgl/src/core/lv_indev.c ****             }
ARM GAS  C:\Users\ADMINI~1\AppData\Local\Temp\ccU2iQFc.s 			page 18


 943:Middlewares/LVGL/GUI/lvgl/src/core/lv_indev.c **** 
 944:Middlewares/LVGL/GUI/lvgl/src/core/lv_indev.c ****             lv_event_send(indev_obj_act, LV_EVENT_CLICKED, indev_act);
 945:Middlewares/LVGL/GUI/lvgl/src/core/lv_indev.c ****             if(indev_reset_check(proc)) return;
 946:Middlewares/LVGL/GUI/lvgl/src/core/lv_indev.c ****         }
 947:Middlewares/LVGL/GUI/lvgl/src/core/lv_indev.c **** 
 948:Middlewares/LVGL/GUI/lvgl/src/core/lv_indev.c ****         proc->types.pointer.act_obj = NULL;
 949:Middlewares/LVGL/GUI/lvgl/src/core/lv_indev.c ****         proc->pr_timestamp          = 0;
 950:Middlewares/LVGL/GUI/lvgl/src/core/lv_indev.c ****         proc->longpr_rep_timestamp  = 0;
 951:Middlewares/LVGL/GUI/lvgl/src/core/lv_indev.c **** 
 952:Middlewares/LVGL/GUI/lvgl/src/core/lv_indev.c ****     }
 953:Middlewares/LVGL/GUI/lvgl/src/core/lv_indev.c **** 
 954:Middlewares/LVGL/GUI/lvgl/src/core/lv_indev.c ****     /*The reset can be set in the Call the ancestor's event handler function.
 955:Middlewares/LVGL/GUI/lvgl/src/core/lv_indev.c ****      * In case of reset query ignore the remaining parts.*/
 956:Middlewares/LVGL/GUI/lvgl/src/core/lv_indev.c ****     if(scroll_obj) {
 957:Middlewares/LVGL/GUI/lvgl/src/core/lv_indev.c ****         _lv_indev_scroll_throw_handler(proc);
 958:Middlewares/LVGL/GUI/lvgl/src/core/lv_indev.c ****         if(indev_reset_check(proc)) return;
 959:Middlewares/LVGL/GUI/lvgl/src/core/lv_indev.c ****     }
 960:Middlewares/LVGL/GUI/lvgl/src/core/lv_indev.c **** }
 961:Middlewares/LVGL/GUI/lvgl/src/core/lv_indev.c **** 
 962:Middlewares/LVGL/GUI/lvgl/src/core/lv_indev.c **** /**
 963:Middlewares/LVGL/GUI/lvgl/src/core/lv_indev.c ****  * Process a new point from LV_INDEV_TYPE_BUTTON input device
 964:Middlewares/LVGL/GUI/lvgl/src/core/lv_indev.c ****  * @param i pointer to an input device
 965:Middlewares/LVGL/GUI/lvgl/src/core/lv_indev.c ****  * @param data pointer to the data read from the input device
 966:Middlewares/LVGL/GUI/lvgl/src/core/lv_indev.c ****  * Reset input device if a reset query has been sent to it
 967:Middlewares/LVGL/GUI/lvgl/src/core/lv_indev.c ****  * @param indev pointer to an input device
 968:Middlewares/LVGL/GUI/lvgl/src/core/lv_indev.c ****  */
 969:Middlewares/LVGL/GUI/lvgl/src/core/lv_indev.c **** static void indev_proc_reset_query_handler(lv_indev_t * indev)
 970:Middlewares/LVGL/GUI/lvgl/src/core/lv_indev.c **** {
  29              		.loc 1 970 1 view -0
  30              		.cfi_startproc
  31              		@ args = 0, pretend = 0, frame = 0
  32              		@ frame_needed = 0, uses_anonymous_args = 0
  33              		@ link register save eliminated.
 971:Middlewares/LVGL/GUI/lvgl/src/core/lv_indev.c ****     if(indev->proc.reset_query) {
  34              		.loc 1 971 5 view .LVU1
  35              		.loc 1 971 8 is_stmt 0 view .LVU2
  36 0000 4379     		ldrb	r3, [r0, #5]	@ zero_extendqisi2
  37              		.loc 1 971 7 view .LVU3
  38 0002 13F0020F 		tst	r3, #2
  39 0006 1BD0     		beq	.L1
 972:Middlewares/LVGL/GUI/lvgl/src/core/lv_indev.c ****         indev->proc.types.pointer.act_obj           = NULL;
  40              		.loc 1 972 9 is_stmt 1 view .LVU4
  41              		.loc 1 972 53 is_stmt 0 view .LVU5
  42 0008 0023     		movs	r3, #0
  43 000a 0364     		str	r3, [r0, #64]
 973:Middlewares/LVGL/GUI/lvgl/src/core/lv_indev.c ****         indev->proc.types.pointer.last_obj          = NULL;
  44              		.loc 1 973 9 is_stmt 1 view .LVU6
  45              		.loc 1 973 53 is_stmt 0 view .LVU7
  46 000c 4364     		str	r3, [r0, #68]
 974:Middlewares/LVGL/GUI/lvgl/src/core/lv_indev.c ****         indev->proc.types.pointer.scroll_obj          = NULL;
  47              		.loc 1 974 9 is_stmt 1 view .LVU8
  48              		.loc 1 974 55 is_stmt 0 view .LVU9
  49 000e 8364     		str	r3, [r0, #72]
 975:Middlewares/LVGL/GUI/lvgl/src/core/lv_indev.c ****         indev->proc.long_pr_sent                    = 0;
  50              		.loc 1 975 9 is_stmt 1 view .LVU10
  51              		.loc 1 975 53 is_stmt 0 view .LVU11
  52 0010 4279     		ldrb	r2, [r0, #5]	@ zero_extendqisi2
ARM GAS  C:\Users\ADMINI~1\AppData\Local\Temp\ccU2iQFc.s 			page 19


  53 0012 63F30002 		bfi	r2, r3, #0, #1
  54 0016 4271     		strb	r2, [r0, #5]
 976:Middlewares/LVGL/GUI/lvgl/src/core/lv_indev.c ****         indev->proc.pr_timestamp                    = 0;
  55              		.loc 1 976 9 is_stmt 1 view .LVU12
  56              		.loc 1 976 53 is_stmt 0 view .LVU13
  57 0018 C366     		str	r3, [r0, #108]
 977:Middlewares/LVGL/GUI/lvgl/src/core/lv_indev.c ****         indev->proc.longpr_rep_timestamp            = 0;
  58              		.loc 1 977 9 is_stmt 1 view .LVU14
  59              		.loc 1 977 53 is_stmt 0 view .LVU15
  60 001a 0367     		str	r3, [r0, #112]
 978:Middlewares/LVGL/GUI/lvgl/src/core/lv_indev.c ****         indev->proc.types.pointer.scroll_sum.x        = 0;
  61              		.loc 1 978 9 is_stmt 1 view .LVU16
  62              		.loc 1 978 55 is_stmt 0 view .LVU17
  63 001c 8362     		str	r3, [r0, #40]
 979:Middlewares/LVGL/GUI/lvgl/src/core/lv_indev.c ****         indev->proc.types.pointer.scroll_sum.y        = 0;
  64              		.loc 1 979 9 is_stmt 1 view .LVU18
  65              		.loc 1 979 55 is_stmt 0 view .LVU19
  66 001e C362     		str	r3, [r0, #44]
 980:Middlewares/LVGL/GUI/lvgl/src/core/lv_indev.c ****         indev->proc.types.pointer.scroll_dir = LV_DIR_NONE;
  67              		.loc 1 980 9 is_stmt 1 view .LVU20
  68              		.loc 1 980 46 is_stmt 0 view .LVU21
  69 0020 90F86820 		ldrb	r2, [r0, #104]	@ zero_extendqisi2
  70 0024 63F30302 		bfi	r2, r3, #0, #4
  71 0028 80F86820 		strb	r2, [r0, #104]
 981:Middlewares/LVGL/GUI/lvgl/src/core/lv_indev.c ****         indev->proc.types.pointer.scroll_throw_vect.x = 0;
  72              		.loc 1 981 9 is_stmt 1 view .LVU22
  73              		.loc 1 981 55 is_stmt 0 view .LVU23
  74 002c 0363     		str	r3, [r0, #48]
 982:Middlewares/LVGL/GUI/lvgl/src/core/lv_indev.c ****         indev->proc.types.pointer.scroll_throw_vect.y = 0;
  75              		.loc 1 982 9 is_stmt 1 view .LVU24
  76              		.loc 1 982 55 is_stmt 0 view .LVU25
  77 002e 4363     		str	r3, [r0, #52]
 983:Middlewares/LVGL/GUI/lvgl/src/core/lv_indev.c ****         indev->proc.types.pointer.gesture_sum.x     = 0;
  78              		.loc 1 983 9 is_stmt 1 view .LVU26
  79              		.loc 1 983 53 is_stmt 0 view .LVU27
  80 0030 0366     		str	r3, [r0, #96]
 984:Middlewares/LVGL/GUI/lvgl/src/core/lv_indev.c ****         indev->proc.types.pointer.gesture_sum.y     = 0;
  81              		.loc 1 984 9 is_stmt 1 view .LVU28
  82              		.loc 1 984 53 is_stmt 0 view .LVU29
  83 0032 4366     		str	r3, [r0, #100]
 985:Middlewares/LVGL/GUI/lvgl/src/core/lv_indev.c ****         indev->proc.reset_query                     = 0;
  84              		.loc 1 985 9 is_stmt 1 view .LVU30
  85              		.loc 1 985 53 is_stmt 0 view .LVU31
  86 0034 4279     		ldrb	r2, [r0, #5]	@ zero_extendqisi2
  87 0036 63F34102 		bfi	r2, r3, #1, #1
  88 003a 4271     		strb	r2, [r0, #5]
 986:Middlewares/LVGL/GUI/lvgl/src/core/lv_indev.c ****         indev_obj_act                               = NULL;
  89              		.loc 1 986 9 is_stmt 1 view .LVU32
  90              		.loc 1 986 53 is_stmt 0 view .LVU33
  91 003c 014A     		ldr	r2, .L3
  92 003e 1360     		str	r3, [r2]
  93              	.L1:
 987:Middlewares/LVGL/GUI/lvgl/src/core/lv_indev.c ****     }
 988:Middlewares/LVGL/GUI/lvgl/src/core/lv_indev.c **** }
  94              		.loc 1 988 1 view .LVU34
  95 0040 7047     		bx	lr
  96              	.L4:
ARM GAS  C:\Users\ADMINI~1\AppData\Local\Temp\ccU2iQFc.s 			page 20


  97 0042 00BF     		.align	2
  98              	.L3:
  99 0044 00000000 		.word	.LANCHOR0
 100              		.cfi_endproc
 101              	.LFE184:
 103              		.section	.text.indev_reset_check,"ax",%progbits
 104              		.align	1
 105              		.syntax unified
 106              		.thumb
 107              		.thumb_func
 109              	indev_reset_check:
 110              	.LVL1:
 111              	.LFB187:
 989:Middlewares/LVGL/GUI/lvgl/src/core/lv_indev.c **** 
 990:Middlewares/LVGL/GUI/lvgl/src/core/lv_indev.c **** /**
 991:Middlewares/LVGL/GUI/lvgl/src/core/lv_indev.c ****  * Handle focus/defocus on click for POINTER input devices
 992:Middlewares/LVGL/GUI/lvgl/src/core/lv_indev.c ****  * @param proc pointer to the state of the indev
 993:Middlewares/LVGL/GUI/lvgl/src/core/lv_indev.c ****  */
 994:Middlewares/LVGL/GUI/lvgl/src/core/lv_indev.c **** static void indev_click_focus(_lv_indev_proc_t * proc)
 995:Middlewares/LVGL/GUI/lvgl/src/core/lv_indev.c **** {
 996:Middlewares/LVGL/GUI/lvgl/src/core/lv_indev.c ****     /*Handle click focus*/
 997:Middlewares/LVGL/GUI/lvgl/src/core/lv_indev.c ****     if(lv_obj_has_flag(indev_obj_act, LV_OBJ_FLAG_CLICK_FOCUSABLE) == false ||
 998:Middlewares/LVGL/GUI/lvgl/src/core/lv_indev.c ****        proc->types.pointer.last_pressed == indev_obj_act) {
 999:Middlewares/LVGL/GUI/lvgl/src/core/lv_indev.c ****         return;
1000:Middlewares/LVGL/GUI/lvgl/src/core/lv_indev.c ****     }
1001:Middlewares/LVGL/GUI/lvgl/src/core/lv_indev.c **** 
1002:Middlewares/LVGL/GUI/lvgl/src/core/lv_indev.c ****     lv_group_t * g_act = lv_obj_get_group(indev_obj_act);
1003:Middlewares/LVGL/GUI/lvgl/src/core/lv_indev.c ****     lv_group_t * g_prev = proc->types.pointer.last_pressed ? lv_obj_get_group(proc->types.pointer.l
1004:Middlewares/LVGL/GUI/lvgl/src/core/lv_indev.c **** 
1005:Middlewares/LVGL/GUI/lvgl/src/core/lv_indev.c ****     /*If both the last and act. obj. are in the same group (or have no group)*/
1006:Middlewares/LVGL/GUI/lvgl/src/core/lv_indev.c ****     if(g_act == g_prev) {
1007:Middlewares/LVGL/GUI/lvgl/src/core/lv_indev.c ****         /*The objects are in a group*/
1008:Middlewares/LVGL/GUI/lvgl/src/core/lv_indev.c ****         if(g_act) {
1009:Middlewares/LVGL/GUI/lvgl/src/core/lv_indev.c ****             lv_group_focus_obj(indev_obj_act);
1010:Middlewares/LVGL/GUI/lvgl/src/core/lv_indev.c ****             if(indev_reset_check(proc)) return;
1011:Middlewares/LVGL/GUI/lvgl/src/core/lv_indev.c ****         }
1012:Middlewares/LVGL/GUI/lvgl/src/core/lv_indev.c ****         /*The object are not in group*/
1013:Middlewares/LVGL/GUI/lvgl/src/core/lv_indev.c ****         else {
1014:Middlewares/LVGL/GUI/lvgl/src/core/lv_indev.c ****             if(proc->types.pointer.last_pressed) {
1015:Middlewares/LVGL/GUI/lvgl/src/core/lv_indev.c ****                 lv_event_send(proc->types.pointer.last_pressed, LV_EVENT_DEFOCUSED, indev_act);
1016:Middlewares/LVGL/GUI/lvgl/src/core/lv_indev.c ****                 if(indev_reset_check(proc)) return;
1017:Middlewares/LVGL/GUI/lvgl/src/core/lv_indev.c ****             }
1018:Middlewares/LVGL/GUI/lvgl/src/core/lv_indev.c **** 
1019:Middlewares/LVGL/GUI/lvgl/src/core/lv_indev.c ****             lv_event_send(indev_obj_act, LV_EVENT_FOCUSED, indev_act);
1020:Middlewares/LVGL/GUI/lvgl/src/core/lv_indev.c ****             if(indev_reset_check(proc)) return;
1021:Middlewares/LVGL/GUI/lvgl/src/core/lv_indev.c ****         }
1022:Middlewares/LVGL/GUI/lvgl/src/core/lv_indev.c ****     }
1023:Middlewares/LVGL/GUI/lvgl/src/core/lv_indev.c ****     /*The object are not in the same group (in different groups or one has no group)*/
1024:Middlewares/LVGL/GUI/lvgl/src/core/lv_indev.c ****     else {
1025:Middlewares/LVGL/GUI/lvgl/src/core/lv_indev.c ****         /*If the prev. obj. is not in a group then defocus it.*/
1026:Middlewares/LVGL/GUI/lvgl/src/core/lv_indev.c ****         if(g_prev == NULL && proc->types.pointer.last_pressed) {
1027:Middlewares/LVGL/GUI/lvgl/src/core/lv_indev.c ****             lv_event_send(proc->types.pointer.last_pressed, LV_EVENT_DEFOCUSED, indev_act);
1028:Middlewares/LVGL/GUI/lvgl/src/core/lv_indev.c ****             if(indev_reset_check(proc)) return;
1029:Middlewares/LVGL/GUI/lvgl/src/core/lv_indev.c ****         }
1030:Middlewares/LVGL/GUI/lvgl/src/core/lv_indev.c ****         /*Focus on a non-group object*/
1031:Middlewares/LVGL/GUI/lvgl/src/core/lv_indev.c ****         else {
1032:Middlewares/LVGL/GUI/lvgl/src/core/lv_indev.c ****             if(proc->types.pointer.last_pressed) {
ARM GAS  C:\Users\ADMINI~1\AppData\Local\Temp\ccU2iQFc.s 			page 21


1033:Middlewares/LVGL/GUI/lvgl/src/core/lv_indev.c ****                 /*If the prev. object also wasn't in a group defocus it*/
1034:Middlewares/LVGL/GUI/lvgl/src/core/lv_indev.c ****                 if(g_prev == NULL) {
1035:Middlewares/LVGL/GUI/lvgl/src/core/lv_indev.c ****                     lv_event_send(proc->types.pointer.last_pressed, LV_EVENT_DEFOCUSED, indev_act);
1036:Middlewares/LVGL/GUI/lvgl/src/core/lv_indev.c ****                     if(indev_reset_check(proc)) return;
1037:Middlewares/LVGL/GUI/lvgl/src/core/lv_indev.c ****                 }
1038:Middlewares/LVGL/GUI/lvgl/src/core/lv_indev.c ****                 /*If the prev. object also was in a group at least "LEAVE" it instead of defocus*/
1039:Middlewares/LVGL/GUI/lvgl/src/core/lv_indev.c ****                 else {
1040:Middlewares/LVGL/GUI/lvgl/src/core/lv_indev.c ****                     lv_event_send(proc->types.pointer.last_pressed, LV_EVENT_LEAVE, indev_act);
1041:Middlewares/LVGL/GUI/lvgl/src/core/lv_indev.c ****                     if(indev_reset_check(proc)) return;
1042:Middlewares/LVGL/GUI/lvgl/src/core/lv_indev.c ****                 }
1043:Middlewares/LVGL/GUI/lvgl/src/core/lv_indev.c ****             }
1044:Middlewares/LVGL/GUI/lvgl/src/core/lv_indev.c ****         }
1045:Middlewares/LVGL/GUI/lvgl/src/core/lv_indev.c **** 
1046:Middlewares/LVGL/GUI/lvgl/src/core/lv_indev.c ****         /*Focus to the act. in its group*/
1047:Middlewares/LVGL/GUI/lvgl/src/core/lv_indev.c ****         if(g_act) {
1048:Middlewares/LVGL/GUI/lvgl/src/core/lv_indev.c ****             lv_group_focus_obj(indev_obj_act);
1049:Middlewares/LVGL/GUI/lvgl/src/core/lv_indev.c ****             if(indev_reset_check(proc)) return;
1050:Middlewares/LVGL/GUI/lvgl/src/core/lv_indev.c ****         }
1051:Middlewares/LVGL/GUI/lvgl/src/core/lv_indev.c ****         else {
1052:Middlewares/LVGL/GUI/lvgl/src/core/lv_indev.c ****             lv_event_send(indev_obj_act, LV_EVENT_FOCUSED, indev_act);
1053:Middlewares/LVGL/GUI/lvgl/src/core/lv_indev.c ****             if(indev_reset_check(proc)) return;
1054:Middlewares/LVGL/GUI/lvgl/src/core/lv_indev.c ****         }
1055:Middlewares/LVGL/GUI/lvgl/src/core/lv_indev.c ****     }
1056:Middlewares/LVGL/GUI/lvgl/src/core/lv_indev.c ****     proc->types.pointer.last_pressed = indev_obj_act;
1057:Middlewares/LVGL/GUI/lvgl/src/core/lv_indev.c **** }
1058:Middlewares/LVGL/GUI/lvgl/src/core/lv_indev.c **** 
1059:Middlewares/LVGL/GUI/lvgl/src/core/lv_indev.c **** /**
1060:Middlewares/LVGL/GUI/lvgl/src/core/lv_indev.c **** * Handle the gesture of indev_proc_p->types.pointer.act_obj
1061:Middlewares/LVGL/GUI/lvgl/src/core/lv_indev.c **** * @param indev pointer to an input device state
1062:Middlewares/LVGL/GUI/lvgl/src/core/lv_indev.c **** */
1063:Middlewares/LVGL/GUI/lvgl/src/core/lv_indev.c **** void indev_gesture(_lv_indev_proc_t * proc)
1064:Middlewares/LVGL/GUI/lvgl/src/core/lv_indev.c **** {
1065:Middlewares/LVGL/GUI/lvgl/src/core/lv_indev.c **** 
1066:Middlewares/LVGL/GUI/lvgl/src/core/lv_indev.c ****     if(proc->types.pointer.scroll_obj) return;
1067:Middlewares/LVGL/GUI/lvgl/src/core/lv_indev.c ****     if(proc->types.pointer.gesture_sent) return;
1068:Middlewares/LVGL/GUI/lvgl/src/core/lv_indev.c **** 
1069:Middlewares/LVGL/GUI/lvgl/src/core/lv_indev.c ****     lv_obj_t * gesture_obj = proc->types.pointer.act_obj;
1070:Middlewares/LVGL/GUI/lvgl/src/core/lv_indev.c **** 
1071:Middlewares/LVGL/GUI/lvgl/src/core/lv_indev.c ****     /*If gesture parent is active check recursively the gesture attribute*/
1072:Middlewares/LVGL/GUI/lvgl/src/core/lv_indev.c ****     while(gesture_obj && lv_obj_has_flag(gesture_obj, LV_OBJ_FLAG_GESTURE_BUBBLE)) {
1073:Middlewares/LVGL/GUI/lvgl/src/core/lv_indev.c ****         gesture_obj = lv_obj_get_parent(gesture_obj);
1074:Middlewares/LVGL/GUI/lvgl/src/core/lv_indev.c ****     }
1075:Middlewares/LVGL/GUI/lvgl/src/core/lv_indev.c **** 
1076:Middlewares/LVGL/GUI/lvgl/src/core/lv_indev.c ****     if(gesture_obj == NULL) return;
1077:Middlewares/LVGL/GUI/lvgl/src/core/lv_indev.c **** 
1078:Middlewares/LVGL/GUI/lvgl/src/core/lv_indev.c ****     if((LV_ABS(proc->types.pointer.vect.x) < indev_act->driver->gesture_min_velocity) &&
1079:Middlewares/LVGL/GUI/lvgl/src/core/lv_indev.c ****        (LV_ABS(proc->types.pointer.vect.y) < indev_act->driver->gesture_min_velocity)) {
1080:Middlewares/LVGL/GUI/lvgl/src/core/lv_indev.c ****         proc->types.pointer.gesture_sum.x = 0;
1081:Middlewares/LVGL/GUI/lvgl/src/core/lv_indev.c ****         proc->types.pointer.gesture_sum.y = 0;
1082:Middlewares/LVGL/GUI/lvgl/src/core/lv_indev.c ****     }
1083:Middlewares/LVGL/GUI/lvgl/src/core/lv_indev.c **** 
1084:Middlewares/LVGL/GUI/lvgl/src/core/lv_indev.c ****     /*Count the movement by gesture*/
1085:Middlewares/LVGL/GUI/lvgl/src/core/lv_indev.c ****     proc->types.pointer.gesture_sum.x += proc->types.pointer.vect.x;
1086:Middlewares/LVGL/GUI/lvgl/src/core/lv_indev.c ****     proc->types.pointer.gesture_sum.y += proc->types.pointer.vect.y;
1087:Middlewares/LVGL/GUI/lvgl/src/core/lv_indev.c **** 
1088:Middlewares/LVGL/GUI/lvgl/src/core/lv_indev.c ****     if((LV_ABS(proc->types.pointer.gesture_sum.x) > indev_act->driver->gesture_limit) ||
1089:Middlewares/LVGL/GUI/lvgl/src/core/lv_indev.c ****        (LV_ABS(proc->types.pointer.gesture_sum.y) > indev_act->driver->gesture_limit)) {
ARM GAS  C:\Users\ADMINI~1\AppData\Local\Temp\ccU2iQFc.s 			page 22


1090:Middlewares/LVGL/GUI/lvgl/src/core/lv_indev.c **** 
1091:Middlewares/LVGL/GUI/lvgl/src/core/lv_indev.c ****         proc->types.pointer.gesture_sent = 1;
1092:Middlewares/LVGL/GUI/lvgl/src/core/lv_indev.c **** 
1093:Middlewares/LVGL/GUI/lvgl/src/core/lv_indev.c ****         if(LV_ABS(proc->types.pointer.gesture_sum.x) > LV_ABS(proc->types.pointer.gesture_sum.y)) {
1094:Middlewares/LVGL/GUI/lvgl/src/core/lv_indev.c ****             if(proc->types.pointer.gesture_sum.x > 0)
1095:Middlewares/LVGL/GUI/lvgl/src/core/lv_indev.c ****                 proc->types.pointer.gesture_dir = LV_DIR_RIGHT;
1096:Middlewares/LVGL/GUI/lvgl/src/core/lv_indev.c ****             else
1097:Middlewares/LVGL/GUI/lvgl/src/core/lv_indev.c ****                 proc->types.pointer.gesture_dir = LV_DIR_LEFT;
1098:Middlewares/LVGL/GUI/lvgl/src/core/lv_indev.c ****         }
1099:Middlewares/LVGL/GUI/lvgl/src/core/lv_indev.c ****         else {
1100:Middlewares/LVGL/GUI/lvgl/src/core/lv_indev.c ****             if(proc->types.pointer.gesture_sum.y > 0)
1101:Middlewares/LVGL/GUI/lvgl/src/core/lv_indev.c ****                 proc->types.pointer.gesture_dir = LV_DIR_BOTTOM;
1102:Middlewares/LVGL/GUI/lvgl/src/core/lv_indev.c ****             else
1103:Middlewares/LVGL/GUI/lvgl/src/core/lv_indev.c ****                 proc->types.pointer.gesture_dir = LV_DIR_TOP;
1104:Middlewares/LVGL/GUI/lvgl/src/core/lv_indev.c ****         }
1105:Middlewares/LVGL/GUI/lvgl/src/core/lv_indev.c **** 
1106:Middlewares/LVGL/GUI/lvgl/src/core/lv_indev.c ****         lv_event_send(gesture_obj, LV_EVENT_GESTURE, indev_act);
1107:Middlewares/LVGL/GUI/lvgl/src/core/lv_indev.c ****         if(indev_reset_check(proc)) return;
1108:Middlewares/LVGL/GUI/lvgl/src/core/lv_indev.c ****     }
1109:Middlewares/LVGL/GUI/lvgl/src/core/lv_indev.c **** }
1110:Middlewares/LVGL/GUI/lvgl/src/core/lv_indev.c **** 
1111:Middlewares/LVGL/GUI/lvgl/src/core/lv_indev.c **** /**
1112:Middlewares/LVGL/GUI/lvgl/src/core/lv_indev.c ****  * Checks if the reset_query flag has been set. If so, perform necessary global indev cleanup actio
1113:Middlewares/LVGL/GUI/lvgl/src/core/lv_indev.c ****  * @param proc pointer to an input device 'proc'
1114:Middlewares/LVGL/GUI/lvgl/src/core/lv_indev.c ****  * @return true if indev query should be immediately truncated.
1115:Middlewares/LVGL/GUI/lvgl/src/core/lv_indev.c ****  */
1116:Middlewares/LVGL/GUI/lvgl/src/core/lv_indev.c **** static bool indev_reset_check(_lv_indev_proc_t * proc)
1117:Middlewares/LVGL/GUI/lvgl/src/core/lv_indev.c **** {
 112              		.loc 1 1117 1 is_stmt 1 view -0
 113              		.cfi_startproc
 114              		@ args = 0, pretend = 0, frame = 0
 115              		@ frame_needed = 0, uses_anonymous_args = 0
 116              		@ link register save eliminated.
1118:Middlewares/LVGL/GUI/lvgl/src/core/lv_indev.c ****     if(proc->reset_query) {
 117              		.loc 1 1118 5 view .LVU36
 118              		.loc 1 1118 8 is_stmt 0 view .LVU37
 119 0000 4078     		ldrb	r0, [r0, #1]	@ zero_extendqisi2
 120              	.LVL2:
 121              		.loc 1 1118 7 view .LVU38
 122 0002 10F0020F 		tst	r0, #2
 123 0006 02D0     		beq	.L6
1119:Middlewares/LVGL/GUI/lvgl/src/core/lv_indev.c ****         indev_obj_act = NULL;
 124              		.loc 1 1119 9 is_stmt 1 view .LVU39
 125              		.loc 1 1119 23 is_stmt 0 view .LVU40
 126 0008 024B     		ldr	r3, .L7
 127 000a 0022     		movs	r2, #0
 128 000c 1A60     		str	r2, [r3]
 129              	.L6:
1120:Middlewares/LVGL/GUI/lvgl/src/core/lv_indev.c ****     }
1121:Middlewares/LVGL/GUI/lvgl/src/core/lv_indev.c **** 
1122:Middlewares/LVGL/GUI/lvgl/src/core/lv_indev.c ****     return proc->reset_query ? true : false;
 130              		.loc 1 1122 5 is_stmt 1 view .LVU41
1123:Middlewares/LVGL/GUI/lvgl/src/core/lv_indev.c **** }
 131              		.loc 1 1123 1 is_stmt 0 view .LVU42
 132 000e C0F34000 		ubfx	r0, r0, #1, #1
 133 0012 7047     		bx	lr
 134              	.L8:
ARM GAS  C:\Users\ADMINI~1\AppData\Local\Temp\ccU2iQFc.s 			page 23


 135              		.align	2
 136              	.L7:
 137 0014 00000000 		.word	.LANCHOR0
 138              		.cfi_endproc
 139              	.LFE187:
 141              		.section	.text.indev_proc_release,"ax",%progbits
 142              		.align	1
 143              		.syntax unified
 144              		.thumb
 145              		.thumb_func
 147              	indev_proc_release:
 148              	.LVL3:
 149              	.LFB183:
 918:Middlewares/LVGL/GUI/lvgl/src/core/lv_indev.c ****     if(proc->wait_until_release != 0) {
 150              		.loc 1 918 1 is_stmt 1 view -0
 151              		.cfi_startproc
 152              		@ args = 0, pretend = 0, frame = 0
 153              		@ frame_needed = 0, uses_anonymous_args = 0
 918:Middlewares/LVGL/GUI/lvgl/src/core/lv_indev.c ****     if(proc->wait_until_release != 0) {
 154              		.loc 1 918 1 is_stmt 0 view .LVU44
 155 0000 38B5     		push	{r3, r4, r5, lr}
 156              	.LCFI0:
 157              		.cfi_def_cfa_offset 16
 158              		.cfi_offset 3, -16
 159              		.cfi_offset 4, -12
 160              		.cfi_offset 5, -8
 161              		.cfi_offset 14, -4
 162 0002 0446     		mov	r4, r0
 919:Middlewares/LVGL/GUI/lvgl/src/core/lv_indev.c ****         proc->types.pointer.act_obj  = NULL;
 163              		.loc 1 919 5 is_stmt 1 view .LVU45
 919:Middlewares/LVGL/GUI/lvgl/src/core/lv_indev.c ****         proc->types.pointer.act_obj  = NULL;
 164              		.loc 1 919 33 is_stmt 0 view .LVU46
 165 0004 4378     		ldrb	r3, [r0, #1]	@ zero_extendqisi2
 919:Middlewares/LVGL/GUI/lvgl/src/core/lv_indev.c ****         proc->types.pointer.act_obj  = NULL;
 166              		.loc 1 919 7 view .LVU47
 167 0006 13F0080F 		tst	r3, #8
 168 000a 08D0     		beq	.L10
 920:Middlewares/LVGL/GUI/lvgl/src/core/lv_indev.c ****         proc->types.pointer.last_obj = NULL;
 169              		.loc 1 920 9 is_stmt 1 view .LVU48
 920:Middlewares/LVGL/GUI/lvgl/src/core/lv_indev.c ****         proc->types.pointer.last_obj = NULL;
 170              		.loc 1 920 38 is_stmt 0 view .LVU49
 171 000c 0023     		movs	r3, #0
 172 000e C363     		str	r3, [r0, #60]
 921:Middlewares/LVGL/GUI/lvgl/src/core/lv_indev.c ****         proc->pr_timestamp           = 0;
 173              		.loc 1 921 9 is_stmt 1 view .LVU50
 921:Middlewares/LVGL/GUI/lvgl/src/core/lv_indev.c ****         proc->pr_timestamp           = 0;
 174              		.loc 1 921 38 is_stmt 0 view .LVU51
 175 0010 0364     		str	r3, [r0, #64]
 922:Middlewares/LVGL/GUI/lvgl/src/core/lv_indev.c ****         proc->longpr_rep_timestamp   = 0;
 176              		.loc 1 922 9 is_stmt 1 view .LVU52
 922:Middlewares/LVGL/GUI/lvgl/src/core/lv_indev.c ****         proc->longpr_rep_timestamp   = 0;
 177              		.loc 1 922 38 is_stmt 0 view .LVU53
 178 0012 8366     		str	r3, [r0, #104]
 923:Middlewares/LVGL/GUI/lvgl/src/core/lv_indev.c ****         proc->wait_until_release     = 0;
 179              		.loc 1 923 9 is_stmt 1 view .LVU54
 923:Middlewares/LVGL/GUI/lvgl/src/core/lv_indev.c ****         proc->wait_until_release     = 0;
 180              		.loc 1 923 38 is_stmt 0 view .LVU55
ARM GAS  C:\Users\ADMINI~1\AppData\Local\Temp\ccU2iQFc.s 			page 24


 181 0014 C366     		str	r3, [r0, #108]
 924:Middlewares/LVGL/GUI/lvgl/src/core/lv_indev.c ****     }
 182              		.loc 1 924 9 is_stmt 1 view .LVU56
 924:Middlewares/LVGL/GUI/lvgl/src/core/lv_indev.c ****     }
 183              		.loc 1 924 38 is_stmt 0 view .LVU57
 184 0016 4278     		ldrb	r2, [r0, #1]	@ zero_extendqisi2
 185 0018 63F3C302 		bfi	r2, r3, #3, #1
 186 001c 4270     		strb	r2, [r0, #1]
 187              	.L10:
 926:Middlewares/LVGL/GUI/lvgl/src/core/lv_indev.c ****     lv_obj_t * scroll_obj = proc->types.pointer.scroll_obj;
 188              		.loc 1 926 5 is_stmt 1 view .LVU58
 926:Middlewares/LVGL/GUI/lvgl/src/core/lv_indev.c ****     lv_obj_t * scroll_obj = proc->types.pointer.scroll_obj;
 189              		.loc 1 926 40 is_stmt 0 view .LVU59
 190 001e E06B     		ldr	r0, [r4, #60]
 191              	.LVL4:
 926:Middlewares/LVGL/GUI/lvgl/src/core/lv_indev.c ****     lv_obj_t * scroll_obj = proc->types.pointer.scroll_obj;
 192              		.loc 1 926 19 view .LVU60
 193 0020 1B4B     		ldr	r3, .L17
 194 0022 1860     		str	r0, [r3]
 927:Middlewares/LVGL/GUI/lvgl/src/core/lv_indev.c **** 
 195              		.loc 1 927 5 is_stmt 1 view .LVU61
 927:Middlewares/LVGL/GUI/lvgl/src/core/lv_indev.c **** 
 196              		.loc 1 927 16 is_stmt 0 view .LVU62
 197 0024 656C     		ldr	r5, [r4, #68]
 198              	.LVL5:
 930:Middlewares/LVGL/GUI/lvgl/src/core/lv_indev.c ****         LV_LOG_INFO("released");
 199              		.loc 1 930 5 is_stmt 1 view .LVU63
 930:Middlewares/LVGL/GUI/lvgl/src/core/lv_indev.c ****         LV_LOG_INFO("released");
 200              		.loc 1 930 7 is_stmt 0 view .LVU64
 201 0026 68B1     		cbz	r0, .L11
 931:Middlewares/LVGL/GUI/lvgl/src/core/lv_indev.c **** 
 202              		.loc 1 931 9 is_stmt 1 view .LVU65
 931:Middlewares/LVGL/GUI/lvgl/src/core/lv_indev.c **** 
 203              		.loc 1 931 9 view .LVU66
 931:Middlewares/LVGL/GUI/lvgl/src/core/lv_indev.c **** 
 204              		.loc 1 931 9 view .LVU67
 934:Middlewares/LVGL/GUI/lvgl/src/core/lv_indev.c ****         if(indev_reset_check(proc)) return;
 205              		.loc 1 934 9 view .LVU68
 206 0028 1A4B     		ldr	r3, .L17+4
 207 002a 1A68     		ldr	r2, [r3]
 208 002c 0821     		movs	r1, #8
 209 002e FFF7FEFF 		bl	lv_event_send
 210              	.LVL6:
 935:Middlewares/LVGL/GUI/lvgl/src/core/lv_indev.c **** 
 211              		.loc 1 935 9 view .LVU69
 935:Middlewares/LVGL/GUI/lvgl/src/core/lv_indev.c **** 
 212              		.loc 1 935 12 is_stmt 0 view .LVU70
 213 0032 2046     		mov	r0, r4
 214 0034 FFF7FEFF 		bl	indev_reset_check
 215              	.LVL7:
 935:Middlewares/LVGL/GUI/lvgl/src/core/lv_indev.c **** 
 216              		.loc 1 935 11 view .LVU71
 217 0038 58B9     		cbnz	r0, .L9
 938:Middlewares/LVGL/GUI/lvgl/src/core/lv_indev.c ****             if(proc->long_pr_sent == 0) {
 218              		.loc 1 938 9 is_stmt 1 view .LVU72
 938:Middlewares/LVGL/GUI/lvgl/src/core/lv_indev.c ****             if(proc->long_pr_sent == 0) {
 219              		.loc 1 938 11 is_stmt 0 view .LVU73
ARM GAS  C:\Users\ADMINI~1\AppData\Local\Temp\ccU2iQFc.s 			page 25


 220 003a 5DB1     		cbz	r5, .L16
 221              	.L13:
 948:Middlewares/LVGL/GUI/lvgl/src/core/lv_indev.c ****         proc->pr_timestamp          = 0;
 222              		.loc 1 948 9 is_stmt 1 view .LVU74
 948:Middlewares/LVGL/GUI/lvgl/src/core/lv_indev.c ****         proc->pr_timestamp          = 0;
 223              		.loc 1 948 37 is_stmt 0 view .LVU75
 224 003c 0023     		movs	r3, #0
 225 003e E363     		str	r3, [r4, #60]
 949:Middlewares/LVGL/GUI/lvgl/src/core/lv_indev.c ****         proc->longpr_rep_timestamp  = 0;
 226              		.loc 1 949 9 is_stmt 1 view .LVU76
 949:Middlewares/LVGL/GUI/lvgl/src/core/lv_indev.c ****         proc->longpr_rep_timestamp  = 0;
 227              		.loc 1 949 37 is_stmt 0 view .LVU77
 228 0040 A366     		str	r3, [r4, #104]
 950:Middlewares/LVGL/GUI/lvgl/src/core/lv_indev.c **** 
 229              		.loc 1 950 9 is_stmt 1 view .LVU78
 950:Middlewares/LVGL/GUI/lvgl/src/core/lv_indev.c **** 
 230              		.loc 1 950 37 is_stmt 0 view .LVU79
 231 0042 E366     		str	r3, [r4, #108]
 232              	.L11:
 956:Middlewares/LVGL/GUI/lvgl/src/core/lv_indev.c ****         _lv_indev_scroll_throw_handler(proc);
 233              		.loc 1 956 5 is_stmt 1 view .LVU80
 956:Middlewares/LVGL/GUI/lvgl/src/core/lv_indev.c ****         _lv_indev_scroll_throw_handler(proc);
 234              		.loc 1 956 7 is_stmt 0 view .LVU81
 235 0044 2DB1     		cbz	r5, .L9
 957:Middlewares/LVGL/GUI/lvgl/src/core/lv_indev.c ****         if(indev_reset_check(proc)) return;
 236              		.loc 1 957 9 is_stmt 1 view .LVU82
 237 0046 2046     		mov	r0, r4
 238 0048 FFF7FEFF 		bl	_lv_indev_scroll_throw_handler
 239              	.LVL8:
 958:Middlewares/LVGL/GUI/lvgl/src/core/lv_indev.c ****     }
 240              		.loc 1 958 9 view .LVU83
 958:Middlewares/LVGL/GUI/lvgl/src/core/lv_indev.c ****     }
 241              		.loc 1 958 12 is_stmt 0 view .LVU84
 242 004c 2046     		mov	r0, r4
 243 004e FFF7FEFF 		bl	indev_reset_check
 244              	.LVL9:
 245              	.L9:
 960:Middlewares/LVGL/GUI/lvgl/src/core/lv_indev.c **** 
 246              		.loc 1 960 1 view .LVU85
 247 0052 38BD     		pop	{r3, r4, r5, pc}
 248              	.LVL10:
 249              	.L16:
 939:Middlewares/LVGL/GUI/lvgl/src/core/lv_indev.c ****                 lv_event_send(indev_obj_act, LV_EVENT_SHORT_CLICKED, indev_act);
 250              		.loc 1 939 13 is_stmt 1 view .LVU86
 939:Middlewares/LVGL/GUI/lvgl/src/core/lv_indev.c ****                 lv_event_send(indev_obj_act, LV_EVENT_SHORT_CLICKED, indev_act);
 251              		.loc 1 939 35 is_stmt 0 view .LVU87
 252 0054 6378     		ldrb	r3, [r4, #1]	@ zero_extendqisi2
 939:Middlewares/LVGL/GUI/lvgl/src/core/lv_indev.c ****                 lv_event_send(indev_obj_act, LV_EVENT_SHORT_CLICKED, indev_act);
 253              		.loc 1 939 15 view .LVU88
 254 0056 13F0010F 		tst	r3, #1
 255 005a 0BD1     		bne	.L14
 940:Middlewares/LVGL/GUI/lvgl/src/core/lv_indev.c ****                 if(indev_reset_check(proc)) return;
 256              		.loc 1 940 17 is_stmt 1 view .LVU89
 257 005c 0D4B     		ldr	r3, .L17+4
 258 005e 1A68     		ldr	r2, [r3]
 259 0060 0421     		movs	r1, #4
 260 0062 0B4B     		ldr	r3, .L17
ARM GAS  C:\Users\ADMINI~1\AppData\Local\Temp\ccU2iQFc.s 			page 26


 261 0064 1868     		ldr	r0, [r3]
 262 0066 FFF7FEFF 		bl	lv_event_send
 263              	.LVL11:
 941:Middlewares/LVGL/GUI/lvgl/src/core/lv_indev.c ****             }
 264              		.loc 1 941 17 view .LVU90
 941:Middlewares/LVGL/GUI/lvgl/src/core/lv_indev.c ****             }
 265              		.loc 1 941 20 is_stmt 0 view .LVU91
 266 006a 2046     		mov	r0, r4
 267 006c FFF7FEFF 		bl	indev_reset_check
 268              	.LVL12:
 941:Middlewares/LVGL/GUI/lvgl/src/core/lv_indev.c ****             }
 269              		.loc 1 941 19 view .LVU92
 270 0070 0028     		cmp	r0, #0
 271 0072 EED1     		bne	.L9
 272              	.L14:
 944:Middlewares/LVGL/GUI/lvgl/src/core/lv_indev.c ****             if(indev_reset_check(proc)) return;
 273              		.loc 1 944 13 is_stmt 1 view .LVU93
 274 0074 074B     		ldr	r3, .L17+4
 275 0076 1A68     		ldr	r2, [r3]
 276 0078 0721     		movs	r1, #7
 277 007a 054B     		ldr	r3, .L17
 278 007c 1868     		ldr	r0, [r3]
 279 007e FFF7FEFF 		bl	lv_event_send
 280              	.LVL13:
 945:Middlewares/LVGL/GUI/lvgl/src/core/lv_indev.c ****         }
 281              		.loc 1 945 13 view .LVU94
 945:Middlewares/LVGL/GUI/lvgl/src/core/lv_indev.c ****         }
 282              		.loc 1 945 16 is_stmt 0 view .LVU95
 283 0082 2046     		mov	r0, r4
 284 0084 FFF7FEFF 		bl	indev_reset_check
 285              	.LVL14:
 945:Middlewares/LVGL/GUI/lvgl/src/core/lv_indev.c ****         }
 286              		.loc 1 945 15 view .LVU96
 287 0088 0028     		cmp	r0, #0
 288 008a D7D0     		beq	.L13
 289 008c E1E7     		b	.L9
 290              	.L18:
 291 008e 00BF     		.align	2
 292              	.L17:
 293 0090 00000000 		.word	.LANCHOR0
 294 0094 00000000 		.word	.LANCHOR1
 295              		.cfi_endproc
 296              	.LFE183:
 298              		.section	.text.indev_click_focus,"ax",%progbits
 299              		.align	1
 300              		.syntax unified
 301              		.thumb
 302              		.thumb_func
 304              	indev_click_focus:
 305              	.LVL15:
 306              	.LFB185:
 995:Middlewares/LVGL/GUI/lvgl/src/core/lv_indev.c ****     /*Handle click focus*/
 307              		.loc 1 995 1 is_stmt 1 view -0
 308              		.cfi_startproc
 309              		@ args = 0, pretend = 0, frame = 0
 310              		@ frame_needed = 0, uses_anonymous_args = 0
 995:Middlewares/LVGL/GUI/lvgl/src/core/lv_indev.c ****     /*Handle click focus*/
ARM GAS  C:\Users\ADMINI~1\AppData\Local\Temp\ccU2iQFc.s 			page 27


 311              		.loc 1 995 1 is_stmt 0 view .LVU98
 312 0000 38B5     		push	{r3, r4, r5, lr}
 313              	.LCFI1:
 314              		.cfi_def_cfa_offset 16
 315              		.cfi_offset 3, -16
 316              		.cfi_offset 4, -12
 317              		.cfi_offset 5, -8
 318              		.cfi_offset 14, -4
 319 0002 0446     		mov	r4, r0
 997:Middlewares/LVGL/GUI/lvgl/src/core/lv_indev.c ****        proc->types.pointer.last_pressed == indev_obj_act) {
 320              		.loc 1 997 5 is_stmt 1 view .LVU99
 997:Middlewares/LVGL/GUI/lvgl/src/core/lv_indev.c ****        proc->types.pointer.last_pressed == indev_obj_act) {
 321              		.loc 1 997 8 is_stmt 0 view .LVU100
 322 0004 0421     		movs	r1, #4
 323 0006 3E4B     		ldr	r3, .L34
 324 0008 1868     		ldr	r0, [r3]
 325              	.LVL16:
 997:Middlewares/LVGL/GUI/lvgl/src/core/lv_indev.c ****        proc->types.pointer.last_pressed == indev_obj_act) {
 326              		.loc 1 997 8 view .LVU101
 327 000a FFF7FEFF 		bl	lv_obj_has_flag
 328              	.LVL17:
 997:Middlewares/LVGL/GUI/lvgl/src/core/lv_indev.c ****        proc->types.pointer.last_pressed == indev_obj_act) {
 329              		.loc 1 997 7 view .LVU102
 330 000e 50B3     		cbz	r0, .L19
 998:Middlewares/LVGL/GUI/lvgl/src/core/lv_indev.c ****         return;
 331              		.loc 1 998 27 discriminator 1 view .LVU103
 332 0010 A36C     		ldr	r3, [r4, #72]
 998:Middlewares/LVGL/GUI/lvgl/src/core/lv_indev.c ****         return;
 333              		.loc 1 998 41 discriminator 1 view .LVU104
 334 0012 3B4A     		ldr	r2, .L34
 335 0014 1068     		ldr	r0, [r2]
 997:Middlewares/LVGL/GUI/lvgl/src/core/lv_indev.c ****        proc->types.pointer.last_pressed == indev_obj_act) {
 336              		.loc 1 997 77 discriminator 1 view .LVU105
 337 0016 8342     		cmp	r3, r0
 338 0018 25D0     		beq	.L19
1002:Middlewares/LVGL/GUI/lvgl/src/core/lv_indev.c ****     lv_group_t * g_prev = proc->types.pointer.last_pressed ? lv_obj_get_group(proc->types.pointer.l
 339              		.loc 1 1002 5 is_stmt 1 view .LVU106
1002:Middlewares/LVGL/GUI/lvgl/src/core/lv_indev.c ****     lv_group_t * g_prev = proc->types.pointer.last_pressed ? lv_obj_get_group(proc->types.pointer.l
 340              		.loc 1 1002 26 is_stmt 0 view .LVU107
 341 001a FFF7FEFF 		bl	lv_obj_get_group
 342              	.LVL18:
 343 001e 0546     		mov	r5, r0
 344              	.LVL19:
1003:Middlewares/LVGL/GUI/lvgl/src/core/lv_indev.c **** 
 345              		.loc 1 1003 5 is_stmt 1 view .LVU108
1003:Middlewares/LVGL/GUI/lvgl/src/core/lv_indev.c **** 
 346              		.loc 1 1003 46 is_stmt 0 view .LVU109
 347 0020 A06C     		ldr	r0, [r4, #72]
 348              	.LVL20:
1003:Middlewares/LVGL/GUI/lvgl/src/core/lv_indev.c **** 
 349              		.loc 1 1003 113 view .LVU110
 350 0022 08B1     		cbz	r0, .L21
1003:Middlewares/LVGL/GUI/lvgl/src/core/lv_indev.c **** 
 351              		.loc 1 1003 62 discriminator 1 view .LVU111
 352 0024 FFF7FEFF 		bl	lv_obj_get_group
 353              	.LVL21:
 354              	.L21:
ARM GAS  C:\Users\ADMINI~1\AppData\Local\Temp\ccU2iQFc.s 			page 28


1006:Middlewares/LVGL/GUI/lvgl/src/core/lv_indev.c ****         /*The objects are in a group*/
 355              		.loc 1 1006 5 is_stmt 1 discriminator 4 view .LVU112
1006:Middlewares/LVGL/GUI/lvgl/src/core/lv_indev.c ****         /*The objects are in a group*/
 356              		.loc 1 1006 7 is_stmt 0 discriminator 4 view .LVU113
 357 0028 A842     		cmp	r0, r5
 358 002a 1DD0     		beq	.L31
1026:Middlewares/LVGL/GUI/lvgl/src/core/lv_indev.c ****             lv_event_send(proc->types.pointer.last_pressed, LV_EVENT_DEFOCUSED, indev_act);
 359              		.loc 1 1026 9 is_stmt 1 view .LVU114
1026:Middlewares/LVGL/GUI/lvgl/src/core/lv_indev.c ****             lv_event_send(proc->types.pointer.last_pressed, LV_EVENT_DEFOCUSED, indev_act);
 360              		.loc 1 1026 11 is_stmt 0 view .LVU115
 361 002c 0028     		cmp	r0, #0
 362 002e 3FD0     		beq	.L32
 363              	.L26:
1032:Middlewares/LVGL/GUI/lvgl/src/core/lv_indev.c ****                 /*If the prev. object also wasn't in a group defocus it*/
 364              		.loc 1 1032 13 is_stmt 1 view .LVU116
1032:Middlewares/LVGL/GUI/lvgl/src/core/lv_indev.c ****                 /*If the prev. object also wasn't in a group defocus it*/
 365              		.loc 1 1032 35 is_stmt 0 view .LVU117
 366 0030 A36C     		ldr	r3, [r4, #72]
1032:Middlewares/LVGL/GUI/lvgl/src/core/lv_indev.c ****                 /*If the prev. object also wasn't in a group defocus it*/
 367              		.loc 1 1032 15 view .LVU118
 368 0032 5BB1     		cbz	r3, .L27
1034:Middlewares/LVGL/GUI/lvgl/src/core/lv_indev.c ****                     lv_event_send(proc->types.pointer.last_pressed, LV_EVENT_DEFOCUSED, indev_act);
 369              		.loc 1 1034 17 is_stmt 1 view .LVU119
1034:Middlewares/LVGL/GUI/lvgl/src/core/lv_indev.c ****                     lv_event_send(proc->types.pointer.last_pressed, LV_EVENT_DEFOCUSED, indev_act);
 370              		.loc 1 1034 19 is_stmt 0 view .LVU120
 371 0034 0028     		cmp	r0, #0
 372 0036 4AD0     		beq	.L33
1040:Middlewares/LVGL/GUI/lvgl/src/core/lv_indev.c ****                     if(indev_reset_check(proc)) return;
 373              		.loc 1 1040 21 is_stmt 1 view .LVU121
 374 0038 324A     		ldr	r2, .L34+4
 375 003a 1268     		ldr	r2, [r2]
 376 003c 1021     		movs	r1, #16
 377 003e 1846     		mov	r0, r3
 378              	.LVL22:
1040:Middlewares/LVGL/GUI/lvgl/src/core/lv_indev.c ****                     if(indev_reset_check(proc)) return;
 379              		.loc 1 1040 21 is_stmt 0 view .LVU122
 380 0040 FFF7FEFF 		bl	lv_event_send
 381              	.LVL23:
1041:Middlewares/LVGL/GUI/lvgl/src/core/lv_indev.c ****                 }
 382              		.loc 1 1041 21 is_stmt 1 view .LVU123
1041:Middlewares/LVGL/GUI/lvgl/src/core/lv_indev.c ****                 }
 383              		.loc 1 1041 24 is_stmt 0 view .LVU124
 384 0044 2046     		mov	r0, r4
 385 0046 FFF7FEFF 		bl	indev_reset_check
 386              	.LVL24:
1041:Middlewares/LVGL/GUI/lvgl/src/core/lv_indev.c ****                 }
 387              		.loc 1 1041 23 view .LVU125
 388 004a 60B9     		cbnz	r0, .L19
 389              	.L27:
1047:Middlewares/LVGL/GUI/lvgl/src/core/lv_indev.c ****             lv_group_focus_obj(indev_obj_act);
 390              		.loc 1 1047 9 is_stmt 1 view .LVU126
1047:Middlewares/LVGL/GUI/lvgl/src/core/lv_indev.c ****             lv_group_focus_obj(indev_obj_act);
 391              		.loc 1 1047 11 is_stmt 0 view .LVU127
 392 004c 002D     		cmp	r5, #0
 393 004e 4AD0     		beq	.L29
1048:Middlewares/LVGL/GUI/lvgl/src/core/lv_indev.c ****             if(indev_reset_check(proc)) return;
 394              		.loc 1 1048 13 is_stmt 1 view .LVU128
ARM GAS  C:\Users\ADMINI~1\AppData\Local\Temp\ccU2iQFc.s 			page 29


 395 0050 2B4B     		ldr	r3, .L34
 396 0052 1868     		ldr	r0, [r3]
 397 0054 FFF7FEFF 		bl	lv_group_focus_obj
 398              	.LVL25:
1049:Middlewares/LVGL/GUI/lvgl/src/core/lv_indev.c ****         }
 399              		.loc 1 1049 13 view .LVU129
1049:Middlewares/LVGL/GUI/lvgl/src/core/lv_indev.c ****         }
 400              		.loc 1 1049 16 is_stmt 0 view .LVU130
 401 0058 2046     		mov	r0, r4
 402 005a FFF7FEFF 		bl	indev_reset_check
 403              	.LVL26:
1049:Middlewares/LVGL/GUI/lvgl/src/core/lv_indev.c ****         }
 404              		.loc 1 1049 15 view .LVU131
 405 005e 10B9     		cbnz	r0, .L19
 406              	.L24:
1056:Middlewares/LVGL/GUI/lvgl/src/core/lv_indev.c **** }
 407              		.loc 1 1056 5 is_stmt 1 view .LVU132
1056:Middlewares/LVGL/GUI/lvgl/src/core/lv_indev.c **** }
 408              		.loc 1 1056 38 is_stmt 0 view .LVU133
 409 0060 274B     		ldr	r3, .L34
 410 0062 1B68     		ldr	r3, [r3]
 411 0064 A364     		str	r3, [r4, #72]
 412              	.LVL27:
 413              	.L19:
1057:Middlewares/LVGL/GUI/lvgl/src/core/lv_indev.c **** 
 414              		.loc 1 1057 1 view .LVU134
 415 0066 38BD     		pop	{r3, r4, r5, pc}
 416              	.LVL28:
 417              	.L31:
1008:Middlewares/LVGL/GUI/lvgl/src/core/lv_indev.c ****             lv_group_focus_obj(indev_obj_act);
 418              		.loc 1 1008 9 is_stmt 1 view .LVU135
1008:Middlewares/LVGL/GUI/lvgl/src/core/lv_indev.c ****             lv_group_focus_obj(indev_obj_act);
 419              		.loc 1 1008 11 is_stmt 0 view .LVU136
 420 0068 4DB1     		cbz	r5, .L23
1009:Middlewares/LVGL/GUI/lvgl/src/core/lv_indev.c ****             if(indev_reset_check(proc)) return;
 421              		.loc 1 1009 13 is_stmt 1 view .LVU137
 422 006a 254B     		ldr	r3, .L34
 423 006c 1868     		ldr	r0, [r3]
 424              	.LVL29:
1009:Middlewares/LVGL/GUI/lvgl/src/core/lv_indev.c ****             if(indev_reset_check(proc)) return;
 425              		.loc 1 1009 13 is_stmt 0 view .LVU138
 426 006e FFF7FEFF 		bl	lv_group_focus_obj
 427              	.LVL30:
1010:Middlewares/LVGL/GUI/lvgl/src/core/lv_indev.c ****         }
 428              		.loc 1 1010 13 is_stmt 1 view .LVU139
1010:Middlewares/LVGL/GUI/lvgl/src/core/lv_indev.c ****         }
 429              		.loc 1 1010 16 is_stmt 0 view .LVU140
 430 0072 2046     		mov	r0, r4
 431 0074 FFF7FEFF 		bl	indev_reset_check
 432              	.LVL31:
1010:Middlewares/LVGL/GUI/lvgl/src/core/lv_indev.c ****         }
 433              		.loc 1 1010 15 view .LVU141
 434 0078 0028     		cmp	r0, #0
 435 007a F1D0     		beq	.L24
 436 007c F3E7     		b	.L19
 437              	.LVL32:
 438              	.L23:
ARM GAS  C:\Users\ADMINI~1\AppData\Local\Temp\ccU2iQFc.s 			page 30


1014:Middlewares/LVGL/GUI/lvgl/src/core/lv_indev.c ****                 lv_event_send(proc->types.pointer.last_pressed, LV_EVENT_DEFOCUSED, indev_act);
 439              		.loc 1 1014 13 is_stmt 1 view .LVU142
1014:Middlewares/LVGL/GUI/lvgl/src/core/lv_indev.c ****                 lv_event_send(proc->types.pointer.last_pressed, LV_EVENT_DEFOCUSED, indev_act);
 440              		.loc 1 1014 35 is_stmt 0 view .LVU143
 441 007e A06C     		ldr	r0, [r4, #72]
 442              	.LVL33:
1014:Middlewares/LVGL/GUI/lvgl/src/core/lv_indev.c ****                 lv_event_send(proc->types.pointer.last_pressed, LV_EVENT_DEFOCUSED, indev_act);
 443              		.loc 1 1014 15 view .LVU144
 444 0080 48B1     		cbz	r0, .L25
1015:Middlewares/LVGL/GUI/lvgl/src/core/lv_indev.c ****                 if(indev_reset_check(proc)) return;
 445              		.loc 1 1015 17 is_stmt 1 view .LVU145
 446 0082 204B     		ldr	r3, .L34+4
 447 0084 1A68     		ldr	r2, [r3]
 448 0086 0F21     		movs	r1, #15
 449 0088 FFF7FEFF 		bl	lv_event_send
 450              	.LVL34:
1016:Middlewares/LVGL/GUI/lvgl/src/core/lv_indev.c ****             }
 451              		.loc 1 1016 17 view .LVU146
1016:Middlewares/LVGL/GUI/lvgl/src/core/lv_indev.c ****             }
 452              		.loc 1 1016 20 is_stmt 0 view .LVU147
 453 008c 2046     		mov	r0, r4
 454 008e FFF7FEFF 		bl	indev_reset_check
 455              	.LVL35:
1016:Middlewares/LVGL/GUI/lvgl/src/core/lv_indev.c ****             }
 456              		.loc 1 1016 19 view .LVU148
 457 0092 0028     		cmp	r0, #0
 458 0094 E7D1     		bne	.L19
 459              	.L25:
1019:Middlewares/LVGL/GUI/lvgl/src/core/lv_indev.c ****             if(indev_reset_check(proc)) return;
 460              		.loc 1 1019 13 is_stmt 1 view .LVU149
 461 0096 1B4B     		ldr	r3, .L34+4
 462 0098 1A68     		ldr	r2, [r3]
 463 009a 0E21     		movs	r1, #14
 464 009c 184B     		ldr	r3, .L34
 465 009e 1868     		ldr	r0, [r3]
 466 00a0 FFF7FEFF 		bl	lv_event_send
 467              	.LVL36:
1020:Middlewares/LVGL/GUI/lvgl/src/core/lv_indev.c ****         }
 468              		.loc 1 1020 13 view .LVU150
1020:Middlewares/LVGL/GUI/lvgl/src/core/lv_indev.c ****         }
 469              		.loc 1 1020 16 is_stmt 0 view .LVU151
 470 00a4 2046     		mov	r0, r4
 471 00a6 FFF7FEFF 		bl	indev_reset_check
 472              	.LVL37:
1020:Middlewares/LVGL/GUI/lvgl/src/core/lv_indev.c ****         }
 473              		.loc 1 1020 15 view .LVU152
 474 00aa 0028     		cmp	r0, #0
 475 00ac D8D0     		beq	.L24
 476 00ae DAE7     		b	.L19
 477              	.LVL38:
 478              	.L32:
1026:Middlewares/LVGL/GUI/lvgl/src/core/lv_indev.c ****             lv_event_send(proc->types.pointer.last_pressed, LV_EVENT_DEFOCUSED, indev_act);
 479              		.loc 1 1026 49 discriminator 1 view .LVU153
 480 00b0 A36C     		ldr	r3, [r4, #72]
1026:Middlewares/LVGL/GUI/lvgl/src/core/lv_indev.c ****             lv_event_send(proc->types.pointer.last_pressed, LV_EVENT_DEFOCUSED, indev_act);
 481              		.loc 1 1026 27 discriminator 1 view .LVU154
 482 00b2 002B     		cmp	r3, #0
ARM GAS  C:\Users\ADMINI~1\AppData\Local\Temp\ccU2iQFc.s 			page 31


 483 00b4 BCD0     		beq	.L26
1027:Middlewares/LVGL/GUI/lvgl/src/core/lv_indev.c ****             if(indev_reset_check(proc)) return;
 484              		.loc 1 1027 13 is_stmt 1 view .LVU155
 485 00b6 134A     		ldr	r2, .L34+4
 486 00b8 1268     		ldr	r2, [r2]
 487 00ba 0F21     		movs	r1, #15
 488 00bc 1846     		mov	r0, r3
 489              	.LVL39:
1027:Middlewares/LVGL/GUI/lvgl/src/core/lv_indev.c ****             if(indev_reset_check(proc)) return;
 490              		.loc 1 1027 13 is_stmt 0 view .LVU156
 491 00be FFF7FEFF 		bl	lv_event_send
 492              	.LVL40:
1028:Middlewares/LVGL/GUI/lvgl/src/core/lv_indev.c ****         }
 493              		.loc 1 1028 13 is_stmt 1 view .LVU157
1028:Middlewares/LVGL/GUI/lvgl/src/core/lv_indev.c ****         }
 494              		.loc 1 1028 16 is_stmt 0 view .LVU158
 495 00c2 2046     		mov	r0, r4
 496 00c4 FFF7FEFF 		bl	indev_reset_check
 497              	.LVL41:
1028:Middlewares/LVGL/GUI/lvgl/src/core/lv_indev.c ****         }
 498              		.loc 1 1028 15 view .LVU159
 499 00c8 0028     		cmp	r0, #0
 500 00ca BFD0     		beq	.L27
 501 00cc CBE7     		b	.L19
 502              	.LVL42:
 503              	.L33:
1035:Middlewares/LVGL/GUI/lvgl/src/core/lv_indev.c ****                     if(indev_reset_check(proc)) return;
 504              		.loc 1 1035 21 is_stmt 1 view .LVU160
 505 00ce 0D4A     		ldr	r2, .L34+4
 506 00d0 1268     		ldr	r2, [r2]
 507 00d2 0F21     		movs	r1, #15
 508 00d4 1846     		mov	r0, r3
 509              	.LVL43:
1035:Middlewares/LVGL/GUI/lvgl/src/core/lv_indev.c ****                     if(indev_reset_check(proc)) return;
 510              		.loc 1 1035 21 is_stmt 0 view .LVU161
 511 00d6 FFF7FEFF 		bl	lv_event_send
 512              	.LVL44:
1036:Middlewares/LVGL/GUI/lvgl/src/core/lv_indev.c ****                 }
 513              		.loc 1 1036 21 is_stmt 1 view .LVU162
1036:Middlewares/LVGL/GUI/lvgl/src/core/lv_indev.c ****                 }
 514              		.loc 1 1036 24 is_stmt 0 view .LVU163
 515 00da 2046     		mov	r0, r4
 516 00dc FFF7FEFF 		bl	indev_reset_check
 517              	.LVL45:
1036:Middlewares/LVGL/GUI/lvgl/src/core/lv_indev.c ****                 }
 518              		.loc 1 1036 23 view .LVU164
 519 00e0 0028     		cmp	r0, #0
 520 00e2 B3D0     		beq	.L27
 521 00e4 BFE7     		b	.L19
 522              	.L29:
1052:Middlewares/LVGL/GUI/lvgl/src/core/lv_indev.c ****             if(indev_reset_check(proc)) return;
 523              		.loc 1 1052 13 is_stmt 1 view .LVU165
 524 00e6 074B     		ldr	r3, .L34+4
 525 00e8 1A68     		ldr	r2, [r3]
 526 00ea 0E21     		movs	r1, #14
 527 00ec 044B     		ldr	r3, .L34
 528 00ee 1868     		ldr	r0, [r3]
ARM GAS  C:\Users\ADMINI~1\AppData\Local\Temp\ccU2iQFc.s 			page 32


 529 00f0 FFF7FEFF 		bl	lv_event_send
 530              	.LVL46:
1053:Middlewares/LVGL/GUI/lvgl/src/core/lv_indev.c ****         }
 531              		.loc 1 1053 13 view .LVU166
1053:Middlewares/LVGL/GUI/lvgl/src/core/lv_indev.c ****         }
 532              		.loc 1 1053 16 is_stmt 0 view .LVU167
 533 00f4 2046     		mov	r0, r4
 534 00f6 FFF7FEFF 		bl	indev_reset_check
 535              	.LVL47:
1053:Middlewares/LVGL/GUI/lvgl/src/core/lv_indev.c ****         }
 536              		.loc 1 1053 15 view .LVU168
 537 00fa 0028     		cmp	r0, #0
 538 00fc B0D0     		beq	.L24
 539 00fe B2E7     		b	.L19
 540              	.L35:
 541              		.align	2
 542              	.L34:
 543 0100 00000000 		.word	.LANCHOR0
 544 0104 00000000 		.word	.LANCHOR1
 545              		.cfi_endproc
 546              	.LFE185:
 548              		.section	.text.indev_gesture,"ax",%progbits
 549              		.align	1
 550              		.syntax unified
 551              		.thumb
 552              		.thumb_func
 554              	indev_gesture:
 555              	.LVL48:
 556              	.LFB186:
1064:Middlewares/LVGL/GUI/lvgl/src/core/lv_indev.c **** 
 557              		.loc 1 1064 1 is_stmt 1 view -0
 558              		.cfi_startproc
 559              		@ args = 0, pretend = 0, frame = 0
 560              		@ frame_needed = 0, uses_anonymous_args = 0
1064:Middlewares/LVGL/GUI/lvgl/src/core/lv_indev.c **** 
 561              		.loc 1 1064 1 is_stmt 0 view .LVU170
 562 0000 38B5     		push	{r3, r4, r5, lr}
 563              	.LCFI2:
 564              		.cfi_def_cfa_offset 16
 565              		.cfi_offset 3, -16
 566              		.cfi_offset 4, -12
 567              		.cfi_offset 5, -8
 568              		.cfi_offset 14, -4
1066:Middlewares/LVGL/GUI/lvgl/src/core/lv_indev.c ****     if(proc->types.pointer.gesture_sent) return;
 569              		.loc 1 1066 5 is_stmt 1 view .LVU171
1066:Middlewares/LVGL/GUI/lvgl/src/core/lv_indev.c ****     if(proc->types.pointer.gesture_sent) return;
 570              		.loc 1 1066 27 is_stmt 0 view .LVU172
 571 0002 436C     		ldr	r3, [r0, #68]
1066:Middlewares/LVGL/GUI/lvgl/src/core/lv_indev.c ****     if(proc->types.pointer.gesture_sent) return;
 572              		.loc 1 1066 7 view .LVU173
 573 0004 03B1     		cbz	r3, .L48
 574              	.LVL49:
 575              	.L36:
1109:Middlewares/LVGL/GUI/lvgl/src/core/lv_indev.c **** 
 576              		.loc 1 1109 1 view .LVU174
 577 0006 38BD     		pop	{r3, r4, r5, pc}
 578              	.LVL50:
ARM GAS  C:\Users\ADMINI~1\AppData\Local\Temp\ccU2iQFc.s 			page 33


 579              	.L48:
1109:Middlewares/LVGL/GUI/lvgl/src/core/lv_indev.c **** 
 580              		.loc 1 1109 1 view .LVU175
 581 0008 0546     		mov	r5, r0
1067:Middlewares/LVGL/GUI/lvgl/src/core/lv_indev.c **** 
 582              		.loc 1 1067 5 is_stmt 1 view .LVU176
1067:Middlewares/LVGL/GUI/lvgl/src/core/lv_indev.c **** 
 583              		.loc 1 1067 8 is_stmt 0 view .LVU177
 584 000a 90F86530 		ldrb	r3, [r0, #101]	@ zero_extendqisi2
1067:Middlewares/LVGL/GUI/lvgl/src/core/lv_indev.c **** 
 585              		.loc 1 1067 7 view .LVU178
 586 000e 13F0010F 		tst	r3, #1
 587 0012 F8D1     		bne	.L36
1069:Middlewares/LVGL/GUI/lvgl/src/core/lv_indev.c **** 
 588              		.loc 1 1069 5 is_stmt 1 view .LVU179
1069:Middlewares/LVGL/GUI/lvgl/src/core/lv_indev.c **** 
 589              		.loc 1 1069 16 is_stmt 0 view .LVU180
 590 0014 C46B     		ldr	r4, [r0, #60]
 591              	.LVL51:
1072:Middlewares/LVGL/GUI/lvgl/src/core/lv_indev.c ****         gesture_obj = lv_obj_get_parent(gesture_obj);
 592              		.loc 1 1072 5 is_stmt 1 view .LVU181
1072:Middlewares/LVGL/GUI/lvgl/src/core/lv_indev.c ****         gesture_obj = lv_obj_get_parent(gesture_obj);
 593              		.loc 1 1072 10 is_stmt 0 view .LVU182
 594 0016 03E0     		b	.L38
 595              	.LVL52:
 596              	.L40:
1073:Middlewares/LVGL/GUI/lvgl/src/core/lv_indev.c ****     }
 597              		.loc 1 1073 9 is_stmt 1 view .LVU183
1073:Middlewares/LVGL/GUI/lvgl/src/core/lv_indev.c ****     }
 598              		.loc 1 1073 23 is_stmt 0 view .LVU184
 599 0018 2046     		mov	r0, r4
 600 001a FFF7FEFF 		bl	lv_obj_get_parent
 601              	.LVL53:
 602 001e 0446     		mov	r4, r0
 603              	.LVL54:
 604              	.L38:
1072:Middlewares/LVGL/GUI/lvgl/src/core/lv_indev.c ****         gesture_obj = lv_obj_get_parent(gesture_obj);
 605              		.loc 1 1072 10 is_stmt 1 view .LVU185
 606 0020 34B1     		cbz	r4, .L39
1072:Middlewares/LVGL/GUI/lvgl/src/core/lv_indev.c ****         gesture_obj = lv_obj_get_parent(gesture_obj);
 607              		.loc 1 1072 26 is_stmt 0 discriminator 1 view .LVU186
 608 0022 4FF40041 		mov	r1, #32768
 609 0026 2046     		mov	r0, r4
 610 0028 FFF7FEFF 		bl	lv_obj_has_flag
 611              	.LVL55:
1072:Middlewares/LVGL/GUI/lvgl/src/core/lv_indev.c ****         gesture_obj = lv_obj_get_parent(gesture_obj);
 612              		.loc 1 1072 23 discriminator 1 view .LVU187
 613 002c 0028     		cmp	r0, #0
 614 002e F3D1     		bne	.L40
 615              	.L39:
1076:Middlewares/LVGL/GUI/lvgl/src/core/lv_indev.c **** 
 616              		.loc 1 1076 5 is_stmt 1 view .LVU188
1076:Middlewares/LVGL/GUI/lvgl/src/core/lv_indev.c **** 
 617              		.loc 1 1076 7 is_stmt 0 view .LVU189
 618 0030 002C     		cmp	r4, #0
 619 0032 E8D0     		beq	.L36
1078:Middlewares/LVGL/GUI/lvgl/src/core/lv_indev.c ****        (LV_ABS(proc->types.pointer.vect.y) < indev_act->driver->gesture_min_velocity)) {
ARM GAS  C:\Users\ADMINI~1\AppData\Local\Temp\ccU2iQFc.s 			page 34


 620              		.loc 1 1078 5 is_stmt 1 view .LVU190
1078:Middlewares/LVGL/GUI/lvgl/src/core/lv_indev.c ****        (LV_ABS(proc->types.pointer.vect.y) < indev_act->driver->gesture_min_velocity)) {
 621              		.loc 1 1078 9 is_stmt 0 view .LVU191
 622 0034 EB69     		ldr	r3, [r5, #28]
 623 0036 83EAE370 		eor	r0, r3, r3, asr #31
 624 003a A0EBE370 		sub	r0, r0, r3, asr #31
1078:Middlewares/LVGL/GUI/lvgl/src/core/lv_indev.c ****        (LV_ABS(proc->types.pointer.vect.y) < indev_act->driver->gesture_min_velocity)) {
 625              		.loc 1 1078 55 view .LVU192
 626 003e 2D4A     		ldr	r2, .L49
 627 0040 1268     		ldr	r2, [r2]
 628 0042 1168     		ldr	r1, [r2]
1078:Middlewares/LVGL/GUI/lvgl/src/core/lv_indev.c ****        (LV_ABS(proc->types.pointer.vect.y) < indev_act->driver->gesture_min_velocity)) {
 629              		.loc 1 1078 63 view .LVU193
 630 0044 897E     		ldrb	r1, [r1, #26]	@ zero_extendqisi2
1078:Middlewares/LVGL/GUI/lvgl/src/core/lv_indev.c ****        (LV_ABS(proc->types.pointer.vect.y) < indev_act->driver->gesture_min_velocity)) {
 631              		.loc 1 1078 7 view .LVU194
 632 0046 8842     		cmp	r0, r1
 633 0048 08DA     		bge	.L41
1079:Middlewares/LVGL/GUI/lvgl/src/core/lv_indev.c ****         proc->types.pointer.gesture_sum.x = 0;
 634              		.loc 1 1079 9 discriminator 1 view .LVU195
 635 004a 286A     		ldr	r0, [r5, #32]
 636 004c 0028     		cmp	r0, #0
 637 004e B8BF     		it	lt
 638 0050 4042     		rsblt	r0, r0, #0
1078:Middlewares/LVGL/GUI/lvgl/src/core/lv_indev.c ****        (LV_ABS(proc->types.pointer.vect.y) < indev_act->driver->gesture_min_velocity)) {
 639              		.loc 1 1078 87 discriminator 1 view .LVU196
 640 0052 8142     		cmp	r1, r0
 641 0054 02DD     		ble	.L41
1080:Middlewares/LVGL/GUI/lvgl/src/core/lv_indev.c ****         proc->types.pointer.gesture_sum.y = 0;
 642              		.loc 1 1080 9 is_stmt 1 view .LVU197
1080:Middlewares/LVGL/GUI/lvgl/src/core/lv_indev.c ****         proc->types.pointer.gesture_sum.y = 0;
 643              		.loc 1 1080 43 is_stmt 0 view .LVU198
 644 0056 0021     		movs	r1, #0
 645 0058 E965     		str	r1, [r5, #92]
1081:Middlewares/LVGL/GUI/lvgl/src/core/lv_indev.c ****     }
 646              		.loc 1 1081 9 is_stmt 1 view .LVU199
1081:Middlewares/LVGL/GUI/lvgl/src/core/lv_indev.c ****     }
 647              		.loc 1 1081 43 is_stmt 0 view .LVU200
 648 005a 2966     		str	r1, [r5, #96]
 649              	.L41:
1085:Middlewares/LVGL/GUI/lvgl/src/core/lv_indev.c ****     proc->types.pointer.gesture_sum.y += proc->types.pointer.vect.y;
 650              		.loc 1 1085 5 is_stmt 1 view .LVU201
1085:Middlewares/LVGL/GUI/lvgl/src/core/lv_indev.c ****     proc->types.pointer.gesture_sum.y += proc->types.pointer.vect.y;
 651              		.loc 1 1085 39 is_stmt 0 view .LVU202
 652 005c E96D     		ldr	r1, [r5, #92]
 653 005e 0B44     		add	r3, r3, r1
 654 0060 EB65     		str	r3, [r5, #92]
1086:Middlewares/LVGL/GUI/lvgl/src/core/lv_indev.c **** 
 655              		.loc 1 1086 5 is_stmt 1 view .LVU203
1086:Middlewares/LVGL/GUI/lvgl/src/core/lv_indev.c **** 
 656              		.loc 1 1086 66 is_stmt 0 view .LVU204
 657 0062 296A     		ldr	r1, [r5, #32]
1086:Middlewares/LVGL/GUI/lvgl/src/core/lv_indev.c **** 
 658              		.loc 1 1086 39 view .LVU205
 659 0064 286E     		ldr	r0, [r5, #96]
 660 0066 0144     		add	r1, r1, r0
 661 0068 2966     		str	r1, [r5, #96]
ARM GAS  C:\Users\ADMINI~1\AppData\Local\Temp\ccU2iQFc.s 			page 35


1088:Middlewares/LVGL/GUI/lvgl/src/core/lv_indev.c ****        (LV_ABS(proc->types.pointer.gesture_sum.y) > indev_act->driver->gesture_limit)) {
 662              		.loc 1 1088 5 is_stmt 1 view .LVU206
1088:Middlewares/LVGL/GUI/lvgl/src/core/lv_indev.c ****        (LV_ABS(proc->types.pointer.gesture_sum.y) > indev_act->driver->gesture_limit)) {
 663              		.loc 1 1088 9 is_stmt 0 view .LVU207
 664 006a 83EAE37C 		eor	ip, r3, r3, asr #31
 665 006e ACEBE37C 		sub	ip, ip, r3, asr #31
1088:Middlewares/LVGL/GUI/lvgl/src/core/lv_indev.c ****        (LV_ABS(proc->types.pointer.gesture_sum.y) > indev_act->driver->gesture_limit)) {
 666              		.loc 1 1088 62 view .LVU208
 667 0072 1068     		ldr	r0, [r2]
1088:Middlewares/LVGL/GUI/lvgl/src/core/lv_indev.c ****        (LV_ABS(proc->types.pointer.gesture_sum.y) > indev_act->driver->gesture_limit)) {
 668              		.loc 1 1088 70 view .LVU209
 669 0074 C07E     		ldrb	r0, [r0, #27]	@ zero_extendqisi2
1088:Middlewares/LVGL/GUI/lvgl/src/core/lv_indev.c ****        (LV_ABS(proc->types.pointer.gesture_sum.y) > indev_act->driver->gesture_limit)) {
 670              		.loc 1 1088 7 view .LVU210
 671 0076 8445     		cmp	ip, r0
 672 0078 05DC     		bgt	.L42
1089:Middlewares/LVGL/GUI/lvgl/src/core/lv_indev.c **** 
 673              		.loc 1 1089 9 discriminator 1 view .LVU211
 674 007a 81EAE17E 		eor	lr, r1, r1, asr #31
 675 007e AEEBE17E 		sub	lr, lr, r1, asr #31
1088:Middlewares/LVGL/GUI/lvgl/src/core/lv_indev.c ****        (LV_ABS(proc->types.pointer.gesture_sum.y) > indev_act->driver->gesture_limit)) {
 676              		.loc 1 1088 87 discriminator 1 view .LVU212
 677 0082 7045     		cmp	r0, lr
 678 0084 BFDA     		bge	.L36
 679              	.L42:
1091:Middlewares/LVGL/GUI/lvgl/src/core/lv_indev.c **** 
 680              		.loc 1 1091 9 is_stmt 1 view .LVU213
1091:Middlewares/LVGL/GUI/lvgl/src/core/lv_indev.c **** 
 681              		.loc 1 1091 42 is_stmt 0 view .LVU214
 682 0086 95F86500 		ldrb	r0, [r5, #101]	@ zero_extendqisi2
 683 008a 40F00100 		orr	r0, r0, #1
 684 008e 85F86500 		strb	r0, [r5, #101]
1093:Middlewares/LVGL/GUI/lvgl/src/core/lv_indev.c ****             if(proc->types.pointer.gesture_sum.x > 0)
 685              		.loc 1 1093 9 is_stmt 1 view .LVU215
1093:Middlewares/LVGL/GUI/lvgl/src/core/lv_indev.c ****             if(proc->types.pointer.gesture_sum.x > 0)
 686              		.loc 1 1093 56 is_stmt 0 view .LVU216
 687 0092 81EAE170 		eor	r0, r1, r1, asr #31
 688 0096 A0EBE170 		sub	r0, r0, r1, asr #31
1093:Middlewares/LVGL/GUI/lvgl/src/core/lv_indev.c ****             if(proc->types.pointer.gesture_sum.x > 0)
 689              		.loc 1 1093 11 view .LVU217
 690 009a 8445     		cmp	ip, r0
 691 009c 18DD     		ble	.L43
1094:Middlewares/LVGL/GUI/lvgl/src/core/lv_indev.c ****                 proc->types.pointer.gesture_dir = LV_DIR_RIGHT;
 692              		.loc 1 1094 13 is_stmt 1 view .LVU218
1094:Middlewares/LVGL/GUI/lvgl/src/core/lv_indev.c ****                 proc->types.pointer.gesture_dir = LV_DIR_RIGHT;
 693              		.loc 1 1094 15 is_stmt 0 view .LVU219
 694 009e 002B     		cmp	r3, #0
 695 00a0 0EDD     		ble	.L44
1095:Middlewares/LVGL/GUI/lvgl/src/core/lv_indev.c ****             else
 696              		.loc 1 1095 17 is_stmt 1 view .LVU220
1095:Middlewares/LVGL/GUI/lvgl/src/core/lv_indev.c ****             else
 697              		.loc 1 1095 49 is_stmt 0 view .LVU221
 698 00a2 95F86430 		ldrb	r3, [r5, #100]	@ zero_extendqisi2
 699 00a6 0221     		movs	r1, #2
 700 00a8 61F30713 		bfi	r3, r1, #4, #4
 701 00ac 85F86430 		strb	r3, [r5, #100]
 702              	.L45:
ARM GAS  C:\Users\ADMINI~1\AppData\Local\Temp\ccU2iQFc.s 			page 36


1106:Middlewares/LVGL/GUI/lvgl/src/core/lv_indev.c ****         if(indev_reset_check(proc)) return;
 703              		.loc 1 1106 9 is_stmt 1 view .LVU222
 704 00b0 0C21     		movs	r1, #12
 705 00b2 2046     		mov	r0, r4
 706 00b4 FFF7FEFF 		bl	lv_event_send
 707              	.LVL56:
1107:Middlewares/LVGL/GUI/lvgl/src/core/lv_indev.c ****     }
 708              		.loc 1 1107 9 view .LVU223
1107:Middlewares/LVGL/GUI/lvgl/src/core/lv_indev.c ****     }
 709              		.loc 1 1107 12 is_stmt 0 view .LVU224
 710 00b8 2846     		mov	r0, r5
 711 00ba FFF7FEFF 		bl	indev_reset_check
 712              	.LVL57:
 713 00be A2E7     		b	.L36
 714              	.L44:
1097:Middlewares/LVGL/GUI/lvgl/src/core/lv_indev.c ****         }
 715              		.loc 1 1097 17 is_stmt 1 view .LVU225
1097:Middlewares/LVGL/GUI/lvgl/src/core/lv_indev.c ****         }
 716              		.loc 1 1097 49 is_stmt 0 view .LVU226
 717 00c0 95F86430 		ldrb	r3, [r5, #100]	@ zero_extendqisi2
 718 00c4 0121     		movs	r1, #1
 719 00c6 61F30713 		bfi	r3, r1, #4, #4
 720 00ca 85F86430 		strb	r3, [r5, #100]
 721 00ce EFE7     		b	.L45
 722              	.L43:
1100:Middlewares/LVGL/GUI/lvgl/src/core/lv_indev.c ****                 proc->types.pointer.gesture_dir = LV_DIR_BOTTOM;
 723              		.loc 1 1100 13 is_stmt 1 view .LVU227
1100:Middlewares/LVGL/GUI/lvgl/src/core/lv_indev.c ****                 proc->types.pointer.gesture_dir = LV_DIR_BOTTOM;
 724              		.loc 1 1100 15 is_stmt 0 view .LVU228
 725 00d0 0029     		cmp	r1, #0
 726 00d2 07DD     		ble	.L46
1101:Middlewares/LVGL/GUI/lvgl/src/core/lv_indev.c ****             else
 727              		.loc 1 1101 17 is_stmt 1 view .LVU229
1101:Middlewares/LVGL/GUI/lvgl/src/core/lv_indev.c ****             else
 728              		.loc 1 1101 49 is_stmt 0 view .LVU230
 729 00d4 95F86430 		ldrb	r3, [r5, #100]	@ zero_extendqisi2
 730 00d8 0821     		movs	r1, #8
 731 00da 61F30713 		bfi	r3, r1, #4, #4
 732 00de 85F86430 		strb	r3, [r5, #100]
 733 00e2 E5E7     		b	.L45
 734              	.L46:
1103:Middlewares/LVGL/GUI/lvgl/src/core/lv_indev.c ****         }
 735              		.loc 1 1103 17 is_stmt 1 view .LVU231
1103:Middlewares/LVGL/GUI/lvgl/src/core/lv_indev.c ****         }
 736              		.loc 1 1103 49 is_stmt 0 view .LVU232
 737 00e4 95F86430 		ldrb	r3, [r5, #100]	@ zero_extendqisi2
 738 00e8 0421     		movs	r1, #4
 739 00ea 61F30713 		bfi	r3, r1, #4, #4
 740 00ee 85F86430 		strb	r3, [r5, #100]
 741 00f2 DDE7     		b	.L45
 742              	.L50:
 743              		.align	2
 744              	.L49:
 745 00f4 00000000 		.word	.LANCHOR1
 746              		.cfi_endproc
 747              	.LFE186:
 749              		.section	.text.indev_keypad_proc,"ax",%progbits
ARM GAS  C:\Users\ADMINI~1\AppData\Local\Temp\ccU2iQFc.s 			page 37


 750              		.align	1
 751              		.syntax unified
 752              		.thumb
 753              		.thumb_func
 755              	indev_keypad_proc:
 756              	.LVL58:
 757              	.LFB179:
 382:Middlewares/LVGL/GUI/lvgl/src/core/lv_indev.c ****     if(data->state == LV_INDEV_STATE_PRESSED && i->proc.wait_until_release) return;
 758              		.loc 1 382 1 is_stmt 1 view -0
 759              		.cfi_startproc
 760              		@ args = 0, pretend = 0, frame = 0
 761              		@ frame_needed = 0, uses_anonymous_args = 0
 382:Middlewares/LVGL/GUI/lvgl/src/core/lv_indev.c ****     if(data->state == LV_INDEV_STATE_PRESSED && i->proc.wait_until_release) return;
 762              		.loc 1 382 1 is_stmt 0 view .LVU234
 763 0000 70B5     		push	{r4, r5, r6, lr}
 764              	.LCFI3:
 765              		.cfi_def_cfa_offset 16
 766              		.cfi_offset 4, -16
 767              		.cfi_offset 5, -12
 768              		.cfi_offset 6, -8
 769              		.cfi_offset 14, -4
 770 0002 0446     		mov	r4, r0
 771 0004 0D46     		mov	r5, r1
 383:Middlewares/LVGL/GUI/lvgl/src/core/lv_indev.c **** 
 772              		.loc 1 383 5 is_stmt 1 view .LVU235
 383:Middlewares/LVGL/GUI/lvgl/src/core/lv_indev.c **** 
 773              		.loc 1 383 12 is_stmt 0 view .LVU236
 774 0006 8B7C     		ldrb	r3, [r1, #18]	@ zero_extendqisi2
 383:Middlewares/LVGL/GUI/lvgl/src/core/lv_indev.c **** 
 775              		.loc 1 383 7 view .LVU237
 776 0008 012B     		cmp	r3, #1
 777 000a 28D0     		beq	.L70
 778              	.L52:
 385:Middlewares/LVGL/GUI/lvgl/src/core/lv_indev.c ****         i->proc.wait_until_release      = 0;
 779              		.loc 1 385 5 is_stmt 1 view .LVU238
 385:Middlewares/LVGL/GUI/lvgl/src/core/lv_indev.c ****         i->proc.wait_until_release      = 0;
 780              		.loc 1 385 8 is_stmt 0 view .LVU239
 781 000c 6379     		ldrb	r3, [r4, #5]	@ zero_extendqisi2
 385:Middlewares/LVGL/GUI/lvgl/src/core/lv_indev.c ****         i->proc.wait_until_release      = 0;
 782              		.loc 1 385 7 view .LVU240
 783 000e 13F0080F 		tst	r3, #8
 784 0012 0AD0     		beq	.L54
 386:Middlewares/LVGL/GUI/lvgl/src/core/lv_indev.c ****         i->proc.pr_timestamp            = 0;
 785              		.loc 1 386 9 is_stmt 1 view .LVU241
 386:Middlewares/LVGL/GUI/lvgl/src/core/lv_indev.c ****         i->proc.pr_timestamp            = 0;
 786              		.loc 1 386 41 is_stmt 0 view .LVU242
 787 0014 6379     		ldrb	r3, [r4, #5]	@ zero_extendqisi2
 788 0016 6FF3C303 		bfc	r3, #3, #1
 789 001a 6371     		strb	r3, [r4, #5]
 387:Middlewares/LVGL/GUI/lvgl/src/core/lv_indev.c ****         i->proc.long_pr_sent            = 0;
 790              		.loc 1 387 9 is_stmt 1 view .LVU243
 387:Middlewares/LVGL/GUI/lvgl/src/core/lv_indev.c ****         i->proc.long_pr_sent            = 0;
 791              		.loc 1 387 41 is_stmt 0 view .LVU244
 792 001c 0023     		movs	r3, #0
 793 001e E366     		str	r3, [r4, #108]
 388:Middlewares/LVGL/GUI/lvgl/src/core/lv_indev.c ****         i->proc.types.keypad.last_state = LV_INDEV_STATE_RELEASED; /*To skip the processing of rele
 794              		.loc 1 388 9 is_stmt 1 view .LVU245
ARM GAS  C:\Users\ADMINI~1\AppData\Local\Temp\ccU2iQFc.s 			page 38


 388:Middlewares/LVGL/GUI/lvgl/src/core/lv_indev.c ****         i->proc.types.keypad.last_state = LV_INDEV_STATE_RELEASED; /*To skip the processing of rele
 795              		.loc 1 388 41 is_stmt 0 view .LVU246
 796 0020 6279     		ldrb	r2, [r4, #5]	@ zero_extendqisi2
 797 0022 63F30002 		bfi	r2, r3, #0, #1
 798 0026 6271     		strb	r2, [r4, #5]
 389:Middlewares/LVGL/GUI/lvgl/src/core/lv_indev.c ****     }
 799              		.loc 1 389 9 is_stmt 1 view .LVU247
 389:Middlewares/LVGL/GUI/lvgl/src/core/lv_indev.c ****     }
 800              		.loc 1 389 41 is_stmt 0 view .LVU248
 801 0028 2372     		strb	r3, [r4, #8]
 802              	.L54:
 392:Middlewares/LVGL/GUI/lvgl/src/core/lv_indev.c ****     if(g == NULL) return;
 803              		.loc 1 392 5 is_stmt 1 view .LVU249
 392:Middlewares/LVGL/GUI/lvgl/src/core/lv_indev.c ****     if(g == NULL) return;
 804              		.loc 1 392 18 is_stmt 0 view .LVU250
 805 002a A66F     		ldr	r6, [r4, #120]
 806              	.LVL59:
 393:Middlewares/LVGL/GUI/lvgl/src/core/lv_indev.c **** 
 807              		.loc 1 393 5 is_stmt 1 view .LVU251
 393:Middlewares/LVGL/GUI/lvgl/src/core/lv_indev.c **** 
 808              		.loc 1 393 7 is_stmt 0 view .LVU252
 809 002c B6B1     		cbz	r6, .L51
 395:Middlewares/LVGL/GUI/lvgl/src/core/lv_indev.c ****     if(indev_obj_act == NULL) return;
 810              		.loc 1 395 5 is_stmt 1 view .LVU253
 395:Middlewares/LVGL/GUI/lvgl/src/core/lv_indev.c ****     if(indev_obj_act == NULL) return;
 811              		.loc 1 395 21 is_stmt 0 view .LVU254
 812 002e 3046     		mov	r0, r6
 813              	.LVL60:
 395:Middlewares/LVGL/GUI/lvgl/src/core/lv_indev.c ****     if(indev_obj_act == NULL) return;
 814              		.loc 1 395 21 view .LVU255
 815 0030 FFF7FEFF 		bl	lv_group_get_focused
 816              	.LVL61:
 395:Middlewares/LVGL/GUI/lvgl/src/core/lv_indev.c ****     if(indev_obj_act == NULL) return;
 817              		.loc 1 395 19 view .LVU256
 818 0034 8A4B     		ldr	r3, .L84
 819 0036 1860     		str	r0, [r3]
 396:Middlewares/LVGL/GUI/lvgl/src/core/lv_indev.c **** 
 820              		.loc 1 396 5 is_stmt 1 view .LVU257
 396:Middlewares/LVGL/GUI/lvgl/src/core/lv_indev.c **** 
 821              		.loc 1 396 7 is_stmt 0 view .LVU258
 822 0038 80B1     		cbz	r0, .L51
 399:Middlewares/LVGL/GUI/lvgl/src/core/lv_indev.c **** 
 823              		.loc 1 399 5 is_stmt 1 view .LVU259
 399:Middlewares/LVGL/GUI/lvgl/src/core/lv_indev.c **** 
 824              		.loc 1 399 14 is_stmt 0 view .LVU260
 825 003a E168     		ldr	r1, [r4, #12]
 826              	.LVL62:
 403:Middlewares/LVGL/GUI/lvgl/src/core/lv_indev.c **** 
 827              		.loc 1 403 5 is_stmt 1 view .LVU261
 403:Middlewares/LVGL/GUI/lvgl/src/core/lv_indev.c **** 
 828              		.loc 1 403 41 is_stmt 0 view .LVU262
 829 003c AB68     		ldr	r3, [r5, #8]
 403:Middlewares/LVGL/GUI/lvgl/src/core/lv_indev.c **** 
 830              		.loc 1 403 35 view .LVU263
 831 003e E360     		str	r3, [r4, #12]
 408:Middlewares/LVGL/GUI/lvgl/src/core/lv_indev.c ****     i->proc.types.keypad.last_state = data->state;
 832              		.loc 1 408 5 is_stmt 1 view .LVU264
ARM GAS  C:\Users\ADMINI~1\AppData\Local\Temp\ccU2iQFc.s 			page 39


 408:Middlewares/LVGL/GUI/lvgl/src/core/lv_indev.c ****     i->proc.types.keypad.last_state = data->state;
 833              		.loc 1 408 59 is_stmt 0 view .LVU265
 834 0040 227A     		ldrb	r2, [r4, #8]	@ zero_extendqisi2
 835              	.LVL63:
 409:Middlewares/LVGL/GUI/lvgl/src/core/lv_indev.c **** 
 836              		.loc 1 409 5 is_stmt 1 view .LVU266
 409:Middlewares/LVGL/GUI/lvgl/src/core/lv_indev.c **** 
 837              		.loc 1 409 43 is_stmt 0 view .LVU267
 838 0042 AB7C     		ldrb	r3, [r5, #18]	@ zero_extendqisi2
 409:Middlewares/LVGL/GUI/lvgl/src/core/lv_indev.c **** 
 839              		.loc 1 409 37 view .LVU268
 840 0044 2372     		strb	r3, [r4, #8]
 412:Middlewares/LVGL/GUI/lvgl/src/core/lv_indev.c ****         LV_LOG_INFO("%d key is pressed", data->key);
 841              		.loc 1 412 5 is_stmt 1 view .LVU269
 412:Middlewares/LVGL/GUI/lvgl/src/core/lv_indev.c ****         LV_LOG_INFO("%d key is pressed", data->key);
 842              		.loc 1 412 7 is_stmt 0 view .LVU270
 843 0046 012B     		cmp	r3, #1
 844 0048 0ED0     		beq	.L71
 845              	.L55:
 449:Middlewares/LVGL/GUI/lvgl/src/core/lv_indev.c **** 
 846              		.loc 1 449 10 is_stmt 1 view .LVU271
 449:Middlewares/LVGL/GUI/lvgl/src/core/lv_indev.c **** 
 847              		.loc 1 449 12 is_stmt 0 view .LVU272
 848 004a 012B     		cmp	r3, #1
 849 004c 58D0     		beq	.L72
 850              	.L61:
 496:Middlewares/LVGL/GUI/lvgl/src/core/lv_indev.c ****         LV_LOG_INFO("%d key is released", data->key);
 851              		.loc 1 496 10 is_stmt 1 view .LVU273
 496:Middlewares/LVGL/GUI/lvgl/src/core/lv_indev.c ****         LV_LOG_INFO("%d key is released", data->key);
 852              		.loc 1 496 12 is_stmt 0 view .LVU274
 853 004e 13B9     		cbnz	r3, .L57
 496:Middlewares/LVGL/GUI/lvgl/src/core/lv_indev.c ****         LV_LOG_INFO("%d key is released", data->key);
 854              		.loc 1 496 52 discriminator 1 view .LVU275
 855 0050 012A     		cmp	r2, #1
 856 0052 00F0D180 		beq	.L73
 857              	.LVL64:
 858              	.L57:
 517:Middlewares/LVGL/GUI/lvgl/src/core/lv_indev.c **** }
 859              		.loc 1 517 5 is_stmt 1 view .LVU276
 517:Middlewares/LVGL/GUI/lvgl/src/core/lv_indev.c **** }
 860              		.loc 1 517 19 is_stmt 0 view .LVU277
 861 0056 824B     		ldr	r3, .L84
 862 0058 0022     		movs	r2, #0
 863 005a 1A60     		str	r2, [r3]
 864              	.LVL65:
 865              	.L51:
 518:Middlewares/LVGL/GUI/lvgl/src/core/lv_indev.c **** 
 866              		.loc 1 518 1 view .LVU278
 867 005c 70BD     		pop	{r4, r5, r6, pc}
 868              	.LVL66:
 869              	.L70:
 383:Middlewares/LVGL/GUI/lvgl/src/core/lv_indev.c **** 
 870              		.loc 1 383 46 discriminator 1 view .LVU279
 871 005e 4379     		ldrb	r3, [r0, #5]	@ zero_extendqisi2
 872 0060 13F0080F 		tst	r3, #8
 873 0064 D2D0     		beq	.L52
 874 0066 F9E7     		b	.L51
ARM GAS  C:\Users\ADMINI~1\AppData\Local\Temp\ccU2iQFc.s 			page 40


 875              	.LVL67:
 876              	.L71:
 412:Middlewares/LVGL/GUI/lvgl/src/core/lv_indev.c ****         LV_LOG_INFO("%d key is pressed", data->key);
 877              		.loc 1 412 46 discriminator 1 view .LVU280
 878 0068 002A     		cmp	r2, #0
 879 006a EED1     		bne	.L55
 413:Middlewares/LVGL/GUI/lvgl/src/core/lv_indev.c ****         i->proc.pr_timestamp = lv_tick_get();
 880              		.loc 1 413 9 is_stmt 1 view .LVU281
 413:Middlewares/LVGL/GUI/lvgl/src/core/lv_indev.c ****         i->proc.pr_timestamp = lv_tick_get();
 881              		.loc 1 413 9 view .LVU282
 413:Middlewares/LVGL/GUI/lvgl/src/core/lv_indev.c ****         i->proc.pr_timestamp = lv_tick_get();
 882              		.loc 1 413 9 view .LVU283
 414:Middlewares/LVGL/GUI/lvgl/src/core/lv_indev.c **** 
 883              		.loc 1 414 9 view .LVU284
 414:Middlewares/LVGL/GUI/lvgl/src/core/lv_indev.c **** 
 884              		.loc 1 414 32 is_stmt 0 view .LVU285
 885 006c FFF7FEFF 		bl	lv_tick_get
 886              	.LVL68:
 414:Middlewares/LVGL/GUI/lvgl/src/core/lv_indev.c **** 
 887              		.loc 1 414 30 view .LVU286
 888 0070 E066     		str	r0, [r4, #108]
 417:Middlewares/LVGL/GUI/lvgl/src/core/lv_indev.c ****             /*Send the ENTER as a normal KEY*/
 889              		.loc 1 417 9 is_stmt 1 view .LVU287
 417:Middlewares/LVGL/GUI/lvgl/src/core/lv_indev.c ****             /*Send the ENTER as a normal KEY*/
 890              		.loc 1 417 16 is_stmt 0 view .LVU288
 891 0072 A968     		ldr	r1, [r5, #8]
 417:Middlewares/LVGL/GUI/lvgl/src/core/lv_indev.c ****             /*Send the ENTER as a normal KEY*/
 892              		.loc 1 417 11 view .LVU289
 893 0074 0A29     		cmp	r1, #10
 894 0076 09D0     		beq	.L74
 424:Middlewares/LVGL/GUI/lvgl/src/core/lv_indev.c ****             /*Send the ESC as a normal KEY*/
 895              		.loc 1 424 14 is_stmt 1 view .LVU290
 424:Middlewares/LVGL/GUI/lvgl/src/core/lv_indev.c ****             /*Send the ESC as a normal KEY*/
 896              		.loc 1 424 16 is_stmt 0 view .LVU291
 897 0078 1B29     		cmp	r1, #27
 898 007a 17D0     		beq	.L75
 432:Middlewares/LVGL/GUI/lvgl/src/core/lv_indev.c ****             lv_group_set_editing(g, false); /*Editing is not used by KEYPAD is be sure it is disabl
 899              		.loc 1 432 14 is_stmt 1 view .LVU292
 432:Middlewares/LVGL/GUI/lvgl/src/core/lv_indev.c ****             lv_group_set_editing(g, false); /*Editing is not used by KEYPAD is be sure it is disabl
 900              		.loc 1 432 16 is_stmt 0 view .LVU293
 901 007c 0929     		cmp	r1, #9
 902 007e 25D0     		beq	.L76
 438:Middlewares/LVGL/GUI/lvgl/src/core/lv_indev.c ****             lv_group_set_editing(g, false); /*Editing is not used by KEYPAD is be sure it is disabl
 903              		.loc 1 438 14 is_stmt 1 view .LVU294
 438:Middlewares/LVGL/GUI/lvgl/src/core/lv_indev.c ****             lv_group_set_editing(g, false); /*Editing is not used by KEYPAD is be sure it is disabl
 904              		.loc 1 438 16 is_stmt 0 view .LVU295
 905 0080 0B29     		cmp	r1, #11
 906 0082 30D0     		beq	.L77
 445:Middlewares/LVGL/GUI/lvgl/src/core/lv_indev.c ****         }
 907              		.loc 1 445 13 is_stmt 1 view .LVU296
 908 0084 3046     		mov	r0, r6
 909 0086 FFF7FEFF 		bl	lv_group_send_data
 910              	.LVL69:
 911 008a E4E7     		b	.L57
 912              	.L74:
 419:Middlewares/LVGL/GUI/lvgl/src/core/lv_indev.c **** 
 913              		.loc 1 419 13 view .LVU297
ARM GAS  C:\Users\ADMINI~1\AppData\Local\Temp\ccU2iQFc.s 			page 41


 914 008c 3046     		mov	r0, r6
 915 008e FFF7FEFF 		bl	lv_group_send_data
 916              	.LVL70:
 421:Middlewares/LVGL/GUI/lvgl/src/core/lv_indev.c ****             if(indev_reset_check(&i->proc)) return;
 917              		.loc 1 421 13 view .LVU298
 918 0092 744B     		ldr	r3, .L84+4
 919 0094 1A68     		ldr	r2, [r3]
 920 0096 0121     		movs	r1, #1
 921 0098 714B     		ldr	r3, .L84
 922 009a 1868     		ldr	r0, [r3]
 923 009c FFF7FEFF 		bl	lv_event_send
 924              	.LVL71:
 422:Middlewares/LVGL/GUI/lvgl/src/core/lv_indev.c ****         }
 925              		.loc 1 422 13 view .LVU299
 422:Middlewares/LVGL/GUI/lvgl/src/core/lv_indev.c ****         }
 926              		.loc 1 422 16 is_stmt 0 view .LVU300
 927 00a0 201D     		adds	r0, r4, #4
 928 00a2 FFF7FEFF 		bl	indev_reset_check
 929              	.LVL72:
 422:Middlewares/LVGL/GUI/lvgl/src/core/lv_indev.c ****         }
 930              		.loc 1 422 15 view .LVU301
 931 00a6 0028     		cmp	r0, #0
 932 00a8 D5D0     		beq	.L57
 933 00aa D7E7     		b	.L51
 934              	.L75:
 426:Middlewares/LVGL/GUI/lvgl/src/core/lv_indev.c **** 
 935              		.loc 1 426 13 is_stmt 1 view .LVU302
 936 00ac 3046     		mov	r0, r6
 937 00ae FFF7FEFF 		bl	lv_group_send_data
 938              	.LVL73:
 428:Middlewares/LVGL/GUI/lvgl/src/core/lv_indev.c ****             if(indev_reset_check(&i->proc)) return;
 939              		.loc 1 428 13 view .LVU303
 940 00b2 6C4B     		ldr	r3, .L84+4
 941 00b4 1A68     		ldr	r2, [r3]
 942 00b6 2021     		movs	r1, #32
 943 00b8 694B     		ldr	r3, .L84
 944 00ba 1868     		ldr	r0, [r3]
 945 00bc FFF7FEFF 		bl	lv_event_send
 946              	.LVL74:
 429:Middlewares/LVGL/GUI/lvgl/src/core/lv_indev.c ****         }
 947              		.loc 1 429 13 view .LVU304
 429:Middlewares/LVGL/GUI/lvgl/src/core/lv_indev.c ****         }
 948              		.loc 1 429 16 is_stmt 0 view .LVU305
 949 00c0 201D     		adds	r0, r4, #4
 950 00c2 FFF7FEFF 		bl	indev_reset_check
 951              	.LVL75:
 429:Middlewares/LVGL/GUI/lvgl/src/core/lv_indev.c ****         }
 952              		.loc 1 429 15 view .LVU306
 953 00c6 0028     		cmp	r0, #0
 954 00c8 C5D0     		beq	.L57
 955 00ca C7E7     		b	.L51
 956              	.L76:
 433:Middlewares/LVGL/GUI/lvgl/src/core/lv_indev.c ****             lv_group_focus_next(g);
 957              		.loc 1 433 13 is_stmt 1 view .LVU307
 958 00cc 0021     		movs	r1, #0
 959 00ce 3046     		mov	r0, r6
 960 00d0 FFF7FEFF 		bl	lv_group_set_editing
ARM GAS  C:\Users\ADMINI~1\AppData\Local\Temp\ccU2iQFc.s 			page 42


 961              	.LVL76:
 434:Middlewares/LVGL/GUI/lvgl/src/core/lv_indev.c ****             if(indev_reset_check(&i->proc)) return;
 962              		.loc 1 434 13 view .LVU308
 963 00d4 3046     		mov	r0, r6
 964 00d6 FFF7FEFF 		bl	lv_group_focus_next
 965              	.LVL77:
 435:Middlewares/LVGL/GUI/lvgl/src/core/lv_indev.c ****         }
 966              		.loc 1 435 13 view .LVU309
 435:Middlewares/LVGL/GUI/lvgl/src/core/lv_indev.c ****         }
 967              		.loc 1 435 16 is_stmt 0 view .LVU310
 968 00da 201D     		adds	r0, r4, #4
 969 00dc FFF7FEFF 		bl	indev_reset_check
 970              	.LVL78:
 435:Middlewares/LVGL/GUI/lvgl/src/core/lv_indev.c ****         }
 971              		.loc 1 435 15 view .LVU311
 972 00e0 0028     		cmp	r0, #0
 973 00e2 B8D0     		beq	.L57
 974 00e4 BAE7     		b	.L51
 975              	.L77:
 439:Middlewares/LVGL/GUI/lvgl/src/core/lv_indev.c ****             lv_group_focus_prev(g);
 976              		.loc 1 439 13 is_stmt 1 view .LVU312
 977 00e6 0021     		movs	r1, #0
 978 00e8 3046     		mov	r0, r6
 979 00ea FFF7FEFF 		bl	lv_group_set_editing
 980              	.LVL79:
 440:Middlewares/LVGL/GUI/lvgl/src/core/lv_indev.c ****             if(indev_reset_check(&i->proc)) return;
 981              		.loc 1 440 13 view .LVU313
 982 00ee 3046     		mov	r0, r6
 983 00f0 FFF7FEFF 		bl	lv_group_focus_prev
 984              	.LVL80:
 441:Middlewares/LVGL/GUI/lvgl/src/core/lv_indev.c ****         }
 985              		.loc 1 441 13 view .LVU314
 441:Middlewares/LVGL/GUI/lvgl/src/core/lv_indev.c ****         }
 986              		.loc 1 441 16 is_stmt 0 view .LVU315
 987 00f4 201D     		adds	r0, r4, #4
 988 00f6 FFF7FEFF 		bl	indev_reset_check
 989              	.LVL81:
 441:Middlewares/LVGL/GUI/lvgl/src/core/lv_indev.c ****         }
 990              		.loc 1 441 15 view .LVU316
 991 00fa 0028     		cmp	r0, #0
 992 00fc ABD0     		beq	.L57
 993 00fe ADE7     		b	.L51
 994              	.LVL82:
 995              	.L72:
 449:Middlewares/LVGL/GUI/lvgl/src/core/lv_indev.c **** 
 996              		.loc 1 449 51 discriminator 1 view .LVU317
 997 0100 012A     		cmp	r2, #1
 998 0102 A4D1     		bne	.L61
 451:Middlewares/LVGL/GUI/lvgl/src/core/lv_indev.c ****             lv_event_send(indev_obj_act, LV_EVENT_PRESSING, indev_act);
 999              		.loc 1 451 9 is_stmt 1 view .LVU318
 451:Middlewares/LVGL/GUI/lvgl/src/core/lv_indev.c ****             lv_event_send(indev_obj_act, LV_EVENT_PRESSING, indev_act);
 1000              		.loc 1 451 16 is_stmt 0 view .LVU319
 1001 0104 AB68     		ldr	r3, [r5, #8]
 451:Middlewares/LVGL/GUI/lvgl/src/core/lv_indev.c ****             lv_event_send(indev_obj_act, LV_EVENT_PRESSING, indev_act);
 1002              		.loc 1 451 11 view .LVU320
 1003 0106 0A2B     		cmp	r3, #10
 1004 0108 21D0     		beq	.L78
ARM GAS  C:\Users\ADMINI~1\AppData\Local\Temp\ccU2iQFc.s 			page 43


 1005              	.LVL83:
 1006              	.L62:
 457:Middlewares/LVGL/GUI/lvgl/src/core/lv_indev.c ****             i->proc.long_pr_sent = 1;
 1007              		.loc 1 457 9 is_stmt 1 view .LVU321
 457:Middlewares/LVGL/GUI/lvgl/src/core/lv_indev.c ****             i->proc.long_pr_sent = 1;
 1008              		.loc 1 457 33 is_stmt 0 view .LVU322
 1009 010a 6379     		ldrb	r3, [r4, #5]	@ zero_extendqisi2
 457:Middlewares/LVGL/GUI/lvgl/src/core/lv_indev.c ****             i->proc.long_pr_sent = 1;
 1010              		.loc 1 457 11 view .LVU323
 1011 010c 13F0010F 		tst	r3, #1
 1012 0110 28D0     		beq	.L79
 1013              	.L63:
 466:Middlewares/LVGL/GUI/lvgl/src/core/lv_indev.c ****                 lv_tick_elaps(i->proc.longpr_rep_timestamp) > i->driver->long_press_repeat_time) {
 1014              		.loc 1 466 14 is_stmt 1 view .LVU324
 466:Middlewares/LVGL/GUI/lvgl/src/core/lv_indev.c ****                 lv_tick_elaps(i->proc.longpr_rep_timestamp) > i->driver->long_press_repeat_time) {
 1015              		.loc 1 466 38 is_stmt 0 view .LVU325
 1016 0112 6379     		ldrb	r3, [r4, #5]	@ zero_extendqisi2
 466:Middlewares/LVGL/GUI/lvgl/src/core/lv_indev.c ****                 lv_tick_elaps(i->proc.longpr_rep_timestamp) > i->driver->long_press_repeat_time) {
 1017              		.loc 1 466 16 view .LVU326
 1018 0114 13F0010F 		tst	r3, #1
 1019 0118 9DD0     		beq	.L57
 467:Middlewares/LVGL/GUI/lvgl/src/core/lv_indev.c **** 
 1020              		.loc 1 467 17 discriminator 1 view .LVU327
 1021 011a 206F     		ldr	r0, [r4, #112]
 1022 011c FFF7FEFF 		bl	lv_tick_elaps
 1023              	.LVL84:
 467:Middlewares/LVGL/GUI/lvgl/src/core/lv_indev.c **** 
 1024              		.loc 1 467 64 discriminator 1 view .LVU328
 1025 0120 2368     		ldr	r3, [r4]
 467:Middlewares/LVGL/GUI/lvgl/src/core/lv_indev.c **** 
 1026              		.loc 1 467 72 discriminator 1 view .LVU329
 1027 0122 DB8B     		ldrh	r3, [r3, #30]
 466:Middlewares/LVGL/GUI/lvgl/src/core/lv_indev.c ****                 lv_tick_elaps(i->proc.longpr_rep_timestamp) > i->driver->long_press_repeat_time) {
 1028              		.loc 1 466 43 discriminator 1 view .LVU330
 1029 0124 9842     		cmp	r0, r3
 1030 0126 96D9     		bls	.L57
 469:Middlewares/LVGL/GUI/lvgl/src/core/lv_indev.c **** 
 1031              		.loc 1 469 13 is_stmt 1 view .LVU331
 469:Middlewares/LVGL/GUI/lvgl/src/core/lv_indev.c **** 
 1032              		.loc 1 469 44 is_stmt 0 view .LVU332
 1033 0128 FFF7FEFF 		bl	lv_tick_get
 1034              	.LVL85:
 469:Middlewares/LVGL/GUI/lvgl/src/core/lv_indev.c **** 
 1035              		.loc 1 469 42 view .LVU333
 1036 012c 2067     		str	r0, [r4, #112]
 472:Middlewares/LVGL/GUI/lvgl/src/core/lv_indev.c ****                 lv_event_send(indev_obj_act, LV_EVENT_LONG_PRESSED_REPEAT, indev_act);
 1037              		.loc 1 472 13 is_stmt 1 view .LVU334
 472:Middlewares/LVGL/GUI/lvgl/src/core/lv_indev.c ****                 lv_event_send(indev_obj_act, LV_EVENT_LONG_PRESSED_REPEAT, indev_act);
 1038              		.loc 1 472 20 is_stmt 0 view .LVU335
 1039 012e A968     		ldr	r1, [r5, #8]
 472:Middlewares/LVGL/GUI/lvgl/src/core/lv_indev.c ****                 lv_event_send(indev_obj_act, LV_EVENT_LONG_PRESSED_REPEAT, indev_act);
 1040              		.loc 1 472 15 view .LVU336
 1041 0130 0A29     		cmp	r1, #10
 1042 0132 37D0     		beq	.L80
 477:Middlewares/LVGL/GUI/lvgl/src/core/lv_indev.c ****                 lv_group_set_editing(g, false); /*Editing is not used by KEYPAD is be sure it is di
 1043              		.loc 1 477 18 is_stmt 1 view .LVU337
 477:Middlewares/LVGL/GUI/lvgl/src/core/lv_indev.c ****                 lv_group_set_editing(g, false); /*Editing is not used by KEYPAD is be sure it is di
ARM GAS  C:\Users\ADMINI~1\AppData\Local\Temp\ccU2iQFc.s 			page 44


 1044              		.loc 1 477 20 is_stmt 0 view .LVU338
 1045 0134 0929     		cmp	r1, #9
 1046 0136 43D0     		beq	.L81
 483:Middlewares/LVGL/GUI/lvgl/src/core/lv_indev.c ****                 lv_group_set_editing(g, false); /*Editing is not used by KEYPAD is be sure it is di
 1047              		.loc 1 483 18 is_stmt 1 view .LVU339
 483:Middlewares/LVGL/GUI/lvgl/src/core/lv_indev.c ****                 lv_group_set_editing(g, false); /*Editing is not used by KEYPAD is be sure it is di
 1048              		.loc 1 483 20 is_stmt 0 view .LVU340
 1049 0138 0B29     		cmp	r1, #11
 1050 013a 4FD0     		beq	.L82
 490:Middlewares/LVGL/GUI/lvgl/src/core/lv_indev.c ****                 if(indev_reset_check(&i->proc)) return;
 1051              		.loc 1 490 17 is_stmt 1 view .LVU341
 1052 013c 3046     		mov	r0, r6
 1053 013e FFF7FEFF 		bl	lv_group_send_data
 1054              	.LVL86:
 491:Middlewares/LVGL/GUI/lvgl/src/core/lv_indev.c ****             }
 1055              		.loc 1 491 17 view .LVU342
 491:Middlewares/LVGL/GUI/lvgl/src/core/lv_indev.c ****             }
 1056              		.loc 1 491 20 is_stmt 0 view .LVU343
 1057 0142 201D     		adds	r0, r4, #4
 1058 0144 FFF7FEFF 		bl	indev_reset_check
 1059              	.LVL87:
 491:Middlewares/LVGL/GUI/lvgl/src/core/lv_indev.c ****             }
 1060              		.loc 1 491 19 view .LVU344
 1061 0148 0028     		cmp	r0, #0
 1062 014a 84D0     		beq	.L57
 1063 014c 86E7     		b	.L51
 1064              	.LVL88:
 1065              	.L78:
 452:Middlewares/LVGL/GUI/lvgl/src/core/lv_indev.c ****             if(indev_reset_check(&i->proc)) return;
 1066              		.loc 1 452 13 is_stmt 1 view .LVU345
 1067 014e 454B     		ldr	r3, .L84+4
 1068 0150 1A68     		ldr	r2, [r3]
 1069              	.LVL89:
 452:Middlewares/LVGL/GUI/lvgl/src/core/lv_indev.c ****             if(indev_reset_check(&i->proc)) return;
 1070              		.loc 1 452 13 is_stmt 0 view .LVU346
 1071 0152 0221     		movs	r1, #2
 1072              	.LVL90:
 452:Middlewares/LVGL/GUI/lvgl/src/core/lv_indev.c ****             if(indev_reset_check(&i->proc)) return;
 1073              		.loc 1 452 13 view .LVU347
 1074 0154 FFF7FEFF 		bl	lv_event_send
 1075              	.LVL91:
 453:Middlewares/LVGL/GUI/lvgl/src/core/lv_indev.c ****         }
 1076              		.loc 1 453 13 is_stmt 1 view .LVU348
 453:Middlewares/LVGL/GUI/lvgl/src/core/lv_indev.c ****         }
 1077              		.loc 1 453 16 is_stmt 0 view .LVU349
 1078 0158 201D     		adds	r0, r4, #4
 1079 015a FFF7FEFF 		bl	indev_reset_check
 1080              	.LVL92:
 453:Middlewares/LVGL/GUI/lvgl/src/core/lv_indev.c ****         }
 1081              		.loc 1 453 15 view .LVU350
 1082 015e 0028     		cmp	r0, #0
 1083 0160 D3D0     		beq	.L62
 1084 0162 7BE7     		b	.L51
 1085              	.L79:
 457:Middlewares/LVGL/GUI/lvgl/src/core/lv_indev.c ****             i->proc.long_pr_sent = 1;
 1086              		.loc 1 457 41 discriminator 1 view .LVU351
 1087 0164 E06E     		ldr	r0, [r4, #108]
ARM GAS  C:\Users\ADMINI~1\AppData\Local\Temp\ccU2iQFc.s 			page 45


 1088 0166 FFF7FEFF 		bl	lv_tick_elaps
 1089              	.LVL93:
 457:Middlewares/LVGL/GUI/lvgl/src/core/lv_indev.c ****             i->proc.long_pr_sent = 1;
 1090              		.loc 1 457 80 discriminator 1 view .LVU352
 1091 016a 2368     		ldr	r3, [r4]
 457:Middlewares/LVGL/GUI/lvgl/src/core/lv_indev.c ****             i->proc.long_pr_sent = 1;
 1092              		.loc 1 457 88 discriminator 1 view .LVU353
 1093 016c 9B8B     		ldrh	r3, [r3, #28]
 457:Middlewares/LVGL/GUI/lvgl/src/core/lv_indev.c ****             i->proc.long_pr_sent = 1;
 1094              		.loc 1 457 38 discriminator 1 view .LVU354
 1095 016e 9842     		cmp	r0, r3
 1096 0170 CFD9     		bls	.L63
 458:Middlewares/LVGL/GUI/lvgl/src/core/lv_indev.c ****             if(data->key == LV_KEY_ENTER) {
 1097              		.loc 1 458 13 is_stmt 1 view .LVU355
 458:Middlewares/LVGL/GUI/lvgl/src/core/lv_indev.c ****             if(data->key == LV_KEY_ENTER) {
 1098              		.loc 1 458 34 is_stmt 0 view .LVU356
 1099 0172 6379     		ldrb	r3, [r4, #5]	@ zero_extendqisi2
 1100 0174 43F00103 		orr	r3, r3, #1
 1101 0178 6371     		strb	r3, [r4, #5]
 459:Middlewares/LVGL/GUI/lvgl/src/core/lv_indev.c ****                 i->proc.longpr_rep_timestamp = lv_tick_get();
 1102              		.loc 1 459 13 is_stmt 1 view .LVU357
 459:Middlewares/LVGL/GUI/lvgl/src/core/lv_indev.c ****                 i->proc.longpr_rep_timestamp = lv_tick_get();
 1103              		.loc 1 459 20 is_stmt 0 view .LVU358
 1104 017a AB68     		ldr	r3, [r5, #8]
 459:Middlewares/LVGL/GUI/lvgl/src/core/lv_indev.c ****                 i->proc.longpr_rep_timestamp = lv_tick_get();
 1105              		.loc 1 459 15 view .LVU359
 1106 017c 0A2B     		cmp	r3, #10
 1107 017e 7FF46AAF 		bne	.L57
 460:Middlewares/LVGL/GUI/lvgl/src/core/lv_indev.c ****                 lv_event_send(indev_obj_act, LV_EVENT_LONG_PRESSED, indev_act);
 1108              		.loc 1 460 17 is_stmt 1 view .LVU360
 460:Middlewares/LVGL/GUI/lvgl/src/core/lv_indev.c ****                 lv_event_send(indev_obj_act, LV_EVENT_LONG_PRESSED, indev_act);
 1109              		.loc 1 460 48 is_stmt 0 view .LVU361
 1110 0182 FFF7FEFF 		bl	lv_tick_get
 1111              	.LVL94:
 460:Middlewares/LVGL/GUI/lvgl/src/core/lv_indev.c ****                 lv_event_send(indev_obj_act, LV_EVENT_LONG_PRESSED, indev_act);
 1112              		.loc 1 460 46 view .LVU362
 1113 0186 2067     		str	r0, [r4, #112]
 461:Middlewares/LVGL/GUI/lvgl/src/core/lv_indev.c ****                 if(indev_reset_check(&i->proc)) return;
 1114              		.loc 1 461 17 is_stmt 1 view .LVU363
 1115 0188 364B     		ldr	r3, .L84+4
 1116 018a 1A68     		ldr	r2, [r3]
 1117 018c 0521     		movs	r1, #5
 1118 018e 344B     		ldr	r3, .L84
 1119 0190 1868     		ldr	r0, [r3]
 1120 0192 FFF7FEFF 		bl	lv_event_send
 1121              	.LVL95:
 462:Middlewares/LVGL/GUI/lvgl/src/core/lv_indev.c ****             }
 1122              		.loc 1 462 17 view .LVU364
 462:Middlewares/LVGL/GUI/lvgl/src/core/lv_indev.c ****             }
 1123              		.loc 1 462 20 is_stmt 0 view .LVU365
 1124 0196 201D     		adds	r0, r4, #4
 1125 0198 FFF7FEFF 		bl	indev_reset_check
 1126              	.LVL96:
 462:Middlewares/LVGL/GUI/lvgl/src/core/lv_indev.c ****             }
 1127              		.loc 1 462 19 view .LVU366
 1128 019c 0028     		cmp	r0, #0
 1129 019e 3FF45AAF 		beq	.L57
ARM GAS  C:\Users\ADMINI~1\AppData\Local\Temp\ccU2iQFc.s 			page 46


 1130 01a2 5BE7     		b	.L51
 1131              	.L80:
 473:Middlewares/LVGL/GUI/lvgl/src/core/lv_indev.c ****                 if(indev_reset_check(&i->proc)) return;
 1132              		.loc 1 473 17 is_stmt 1 view .LVU367
 1133 01a4 2F4B     		ldr	r3, .L84+4
 1134 01a6 1A68     		ldr	r2, [r3]
 1135 01a8 0621     		movs	r1, #6
 1136 01aa 2D4B     		ldr	r3, .L84
 1137 01ac 1868     		ldr	r0, [r3]
 1138 01ae FFF7FEFF 		bl	lv_event_send
 1139              	.LVL97:
 474:Middlewares/LVGL/GUI/lvgl/src/core/lv_indev.c ****             }
 1140              		.loc 1 474 17 view .LVU368
 474:Middlewares/LVGL/GUI/lvgl/src/core/lv_indev.c ****             }
 1141              		.loc 1 474 20 is_stmt 0 view .LVU369
 1142 01b2 201D     		adds	r0, r4, #4
 1143 01b4 FFF7FEFF 		bl	indev_reset_check
 1144              	.LVL98:
 474:Middlewares/LVGL/GUI/lvgl/src/core/lv_indev.c ****             }
 1145              		.loc 1 474 19 view .LVU370
 1146 01b8 0028     		cmp	r0, #0
 1147 01ba 3FF44CAF 		beq	.L57
 1148 01be 4DE7     		b	.L51
 1149              	.L81:
 478:Middlewares/LVGL/GUI/lvgl/src/core/lv_indev.c ****                 lv_group_focus_next(g);
 1150              		.loc 1 478 17 is_stmt 1 view .LVU371
 1151 01c0 0021     		movs	r1, #0
 1152 01c2 3046     		mov	r0, r6
 1153 01c4 FFF7FEFF 		bl	lv_group_set_editing
 1154              	.LVL99:
 479:Middlewares/LVGL/GUI/lvgl/src/core/lv_indev.c ****                 if(indev_reset_check(&i->proc)) return;
 1155              		.loc 1 479 17 view .LVU372
 1156 01c8 3046     		mov	r0, r6
 1157 01ca FFF7FEFF 		bl	lv_group_focus_next
 1158              	.LVL100:
 480:Middlewares/LVGL/GUI/lvgl/src/core/lv_indev.c ****             }
 1159              		.loc 1 480 17 view .LVU373
 480:Middlewares/LVGL/GUI/lvgl/src/core/lv_indev.c ****             }
 1160              		.loc 1 480 20 is_stmt 0 view .LVU374
 1161 01ce 201D     		adds	r0, r4, #4
 1162 01d0 FFF7FEFF 		bl	indev_reset_check
 1163              	.LVL101:
 480:Middlewares/LVGL/GUI/lvgl/src/core/lv_indev.c ****             }
 1164              		.loc 1 480 19 view .LVU375
 1165 01d4 0028     		cmp	r0, #0
 1166 01d6 3FF43EAF 		beq	.L57
 1167 01da 3FE7     		b	.L51
 1168              	.L82:
 484:Middlewares/LVGL/GUI/lvgl/src/core/lv_indev.c ****                 lv_group_focus_prev(g);
 1169              		.loc 1 484 17 is_stmt 1 view .LVU376
 1170 01dc 0021     		movs	r1, #0
 1171 01de 3046     		mov	r0, r6
 1172 01e0 FFF7FEFF 		bl	lv_group_set_editing
 1173              	.LVL102:
 485:Middlewares/LVGL/GUI/lvgl/src/core/lv_indev.c ****                 if(indev_reset_check(&i->proc)) return;
 1174              		.loc 1 485 17 view .LVU377
 1175 01e4 3046     		mov	r0, r6
ARM GAS  C:\Users\ADMINI~1\AppData\Local\Temp\ccU2iQFc.s 			page 47


 1176 01e6 FFF7FEFF 		bl	lv_group_focus_prev
 1177              	.LVL103:
 486:Middlewares/LVGL/GUI/lvgl/src/core/lv_indev.c ****             }
 1178              		.loc 1 486 17 view .LVU378
 486:Middlewares/LVGL/GUI/lvgl/src/core/lv_indev.c ****             }
 1179              		.loc 1 486 20 is_stmt 0 view .LVU379
 1180 01ea 201D     		adds	r0, r4, #4
 1181 01ec FFF7FEFF 		bl	indev_reset_check
 1182              	.LVL104:
 486:Middlewares/LVGL/GUI/lvgl/src/core/lv_indev.c ****             }
 1183              		.loc 1 486 19 view .LVU380
 1184 01f0 0028     		cmp	r0, #0
 1185 01f2 3FF430AF 		beq	.L57
 1186 01f6 31E7     		b	.L51
 1187              	.LVL105:
 1188              	.L73:
 497:Middlewares/LVGL/GUI/lvgl/src/core/lv_indev.c ****         /*The user might clear the key when it was released. Always release the pressed key*/
 1189              		.loc 1 497 9 is_stmt 1 view .LVU381
 497:Middlewares/LVGL/GUI/lvgl/src/core/lv_indev.c ****         /*The user might clear the key when it was released. Always release the pressed key*/
 1190              		.loc 1 497 9 view .LVU382
 497:Middlewares/LVGL/GUI/lvgl/src/core/lv_indev.c ****         /*The user might clear the key when it was released. Always release the pressed key*/
 1191              		.loc 1 497 9 view .LVU383
 499:Middlewares/LVGL/GUI/lvgl/src/core/lv_indev.c ****         if(data->key == LV_KEY_ENTER) {
 1192              		.loc 1 499 9 view .LVU384
 499:Middlewares/LVGL/GUI/lvgl/src/core/lv_indev.c ****         if(data->key == LV_KEY_ENTER) {
 1193              		.loc 1 499 19 is_stmt 0 view .LVU385
 1194 01f8 A960     		str	r1, [r5, #8]
 500:Middlewares/LVGL/GUI/lvgl/src/core/lv_indev.c **** 
 1195              		.loc 1 500 9 is_stmt 1 view .LVU386
 500:Middlewares/LVGL/GUI/lvgl/src/core/lv_indev.c **** 
 1196              		.loc 1 500 11 is_stmt 0 view .LVU387
 1197 01fa 0A29     		cmp	r1, #10
 1198 01fc 06D0     		beq	.L83
 1199              	.LVL106:
 1200              	.L67:
 514:Middlewares/LVGL/GUI/lvgl/src/core/lv_indev.c ****         i->proc.long_pr_sent = 0;
 1201              		.loc 1 514 9 is_stmt 1 view .LVU388
 514:Middlewares/LVGL/GUI/lvgl/src/core/lv_indev.c ****         i->proc.long_pr_sent = 0;
 1202              		.loc 1 514 30 is_stmt 0 view .LVU389
 1203 01fe 0022     		movs	r2, #0
 1204 0200 E266     		str	r2, [r4, #108]
 515:Middlewares/LVGL/GUI/lvgl/src/core/lv_indev.c ****     }
 1205              		.loc 1 515 9 is_stmt 1 view .LVU390
 515:Middlewares/LVGL/GUI/lvgl/src/core/lv_indev.c ****     }
 1206              		.loc 1 515 30 is_stmt 0 view .LVU391
 1207 0202 6379     		ldrb	r3, [r4, #5]	@ zero_extendqisi2
 1208 0204 62F30003 		bfi	r3, r2, #0, #1
 1209 0208 6371     		strb	r3, [r4, #5]
 1210 020a 24E7     		b	.L57
 1211              	.LVL107:
 1212              	.L83:
 502:Middlewares/LVGL/GUI/lvgl/src/core/lv_indev.c ****             if(indev_reset_check(&i->proc)) return;
 1213              		.loc 1 502 13 is_stmt 1 view .LVU392
 1214 020c 154B     		ldr	r3, .L84+4
 1215 020e 1A68     		ldr	r2, [r3]
 1216              	.LVL108:
 502:Middlewares/LVGL/GUI/lvgl/src/core/lv_indev.c ****             if(indev_reset_check(&i->proc)) return;
ARM GAS  C:\Users\ADMINI~1\AppData\Local\Temp\ccU2iQFc.s 			page 48


 1217              		.loc 1 502 13 is_stmt 0 view .LVU393
 1218 0210 0821     		movs	r1, #8
 1219              	.LVL109:
 502:Middlewares/LVGL/GUI/lvgl/src/core/lv_indev.c ****             if(indev_reset_check(&i->proc)) return;
 1220              		.loc 1 502 13 view .LVU394
 1221 0212 FFF7FEFF 		bl	lv_event_send
 1222              	.LVL110:
 503:Middlewares/LVGL/GUI/lvgl/src/core/lv_indev.c **** 
 1223              		.loc 1 503 13 is_stmt 1 view .LVU395
 503:Middlewares/LVGL/GUI/lvgl/src/core/lv_indev.c **** 
 1224              		.loc 1 503 16 is_stmt 0 view .LVU396
 1225 0216 251D     		adds	r5, r4, #4
 1226              	.LVL111:
 503:Middlewares/LVGL/GUI/lvgl/src/core/lv_indev.c **** 
 1227              		.loc 1 503 16 view .LVU397
 1228 0218 2846     		mov	r0, r5
 1229 021a FFF7FEFF 		bl	indev_reset_check
 1230              	.LVL112:
 503:Middlewares/LVGL/GUI/lvgl/src/core/lv_indev.c **** 
 1231              		.loc 1 503 15 view .LVU398
 1232 021e 0028     		cmp	r0, #0
 1233 0220 7FF41CAF 		bne	.L51
 505:Middlewares/LVGL/GUI/lvgl/src/core/lv_indev.c ****                 lv_event_send(indev_obj_act, LV_EVENT_SHORT_CLICKED, indev_act);
 1234              		.loc 1 505 13 is_stmt 1 view .LVU399
 505:Middlewares/LVGL/GUI/lvgl/src/core/lv_indev.c ****                 lv_event_send(indev_obj_act, LV_EVENT_SHORT_CLICKED, indev_act);
 1235              		.loc 1 505 37 is_stmt 0 view .LVU400
 1236 0224 6379     		ldrb	r3, [r4, #5]	@ zero_extendqisi2
 505:Middlewares/LVGL/GUI/lvgl/src/core/lv_indev.c ****                 lv_event_send(indev_obj_act, LV_EVENT_SHORT_CLICKED, indev_act);
 1237              		.loc 1 505 15 view .LVU401
 1238 0226 13F0010F 		tst	r3, #1
 1239 022a 0CD1     		bne	.L68
 506:Middlewares/LVGL/GUI/lvgl/src/core/lv_indev.c ****                 if(indev_reset_check(&i->proc)) return;
 1240              		.loc 1 506 17 is_stmt 1 view .LVU402
 1241 022c 0D4B     		ldr	r3, .L84+4
 1242 022e 1A68     		ldr	r2, [r3]
 1243 0230 0421     		movs	r1, #4
 1244 0232 0B4B     		ldr	r3, .L84
 1245 0234 1868     		ldr	r0, [r3]
 1246 0236 FFF7FEFF 		bl	lv_event_send
 1247              	.LVL113:
 507:Middlewares/LVGL/GUI/lvgl/src/core/lv_indev.c ****             }
 1248              		.loc 1 507 17 view .LVU403
 507:Middlewares/LVGL/GUI/lvgl/src/core/lv_indev.c ****             }
 1249              		.loc 1 507 20 is_stmt 0 view .LVU404
 1250 023a 2846     		mov	r0, r5
 1251 023c FFF7FEFF 		bl	indev_reset_check
 1252              	.LVL114:
 507:Middlewares/LVGL/GUI/lvgl/src/core/lv_indev.c ****             }
 1253              		.loc 1 507 19 view .LVU405
 1254 0240 0028     		cmp	r0, #0
 1255 0242 7FF40BAF 		bne	.L51
 1256              	.L68:
 510:Middlewares/LVGL/GUI/lvgl/src/core/lv_indev.c ****             if(indev_reset_check(&i->proc)) return;
 1257              		.loc 1 510 13 is_stmt 1 view .LVU406
 1258 0246 074B     		ldr	r3, .L84+4
 1259 0248 1A68     		ldr	r2, [r3]
 1260 024a 0721     		movs	r1, #7
ARM GAS  C:\Users\ADMINI~1\AppData\Local\Temp\ccU2iQFc.s 			page 49


 1261 024c 044B     		ldr	r3, .L84
 1262 024e 1868     		ldr	r0, [r3]
 1263 0250 FFF7FEFF 		bl	lv_event_send
 1264              	.LVL115:
 511:Middlewares/LVGL/GUI/lvgl/src/core/lv_indev.c **** 
 1265              		.loc 1 511 13 view .LVU407
 511:Middlewares/LVGL/GUI/lvgl/src/core/lv_indev.c **** 
 1266              		.loc 1 511 16 is_stmt 0 view .LVU408
 1267 0254 2846     		mov	r0, r5
 1268 0256 FFF7FEFF 		bl	indev_reset_check
 1269              	.LVL116:
 511:Middlewares/LVGL/GUI/lvgl/src/core/lv_indev.c **** 
 1270              		.loc 1 511 15 view .LVU409
 1271 025a 0028     		cmp	r0, #0
 1272 025c CFD0     		beq	.L67
 1273 025e FDE6     		b	.L51
 1274              	.L85:
 1275              		.align	2
 1276              	.L84:
 1277 0260 00000000 		.word	.LANCHOR0
 1278 0264 00000000 		.word	.LANCHOR1
 1279              		.cfi_endproc
 1280              	.LFE179:
 1282              		.section	.text.indev_encoder_proc,"ax",%progbits
 1283              		.align	1
 1284              		.syntax unified
 1285              		.thumb
 1286              		.thumb_func
 1288              	indev_encoder_proc:
 1289              	.LVL117:
 1290              	.LFB180:
 526:Middlewares/LVGL/GUI/lvgl/src/core/lv_indev.c ****     if(data->state == LV_INDEV_STATE_PRESSED && i->proc.wait_until_release) return;
 1291              		.loc 1 526 1 is_stmt 1 view -0
 1292              		.cfi_startproc
 1293              		@ args = 0, pretend = 0, frame = 0
 1294              		@ frame_needed = 0, uses_anonymous_args = 0
 526:Middlewares/LVGL/GUI/lvgl/src/core/lv_indev.c ****     if(data->state == LV_INDEV_STATE_PRESSED && i->proc.wait_until_release) return;
 1295              		.loc 1 526 1 is_stmt 0 view .LVU411
 1296 0000 F8B5     		push	{r3, r4, r5, r6, r7, lr}
 1297              	.LCFI4:
 1298              		.cfi_def_cfa_offset 24
 1299              		.cfi_offset 3, -24
 1300              		.cfi_offset 4, -20
 1301              		.cfi_offset 5, -16
 1302              		.cfi_offset 6, -12
 1303              		.cfi_offset 7, -8
 1304              		.cfi_offset 14, -4
 1305 0002 0446     		mov	r4, r0
 1306 0004 0D46     		mov	r5, r1
 527:Middlewares/LVGL/GUI/lvgl/src/core/lv_indev.c **** 
 1307              		.loc 1 527 5 is_stmt 1 view .LVU412
 527:Middlewares/LVGL/GUI/lvgl/src/core/lv_indev.c **** 
 1308              		.loc 1 527 12 is_stmt 0 view .LVU413
 1309 0006 8B7C     		ldrb	r3, [r1, #18]	@ zero_extendqisi2
 527:Middlewares/LVGL/GUI/lvgl/src/core/lv_indev.c **** 
 1310              		.loc 1 527 7 view .LVU414
 1311 0008 012B     		cmp	r3, #1
ARM GAS  C:\Users\ADMINI~1\AppData\Local\Temp\ccU2iQFc.s 			page 50


 1312 000a 37D0     		beq	.L138
 1313              	.L87:
 529:Middlewares/LVGL/GUI/lvgl/src/core/lv_indev.c ****         i->proc.wait_until_release      = 0;
 1314              		.loc 1 529 5 is_stmt 1 view .LVU415
 529:Middlewares/LVGL/GUI/lvgl/src/core/lv_indev.c ****         i->proc.wait_until_release      = 0;
 1315              		.loc 1 529 8 is_stmt 0 view .LVU416
 1316 000c 6379     		ldrb	r3, [r4, #5]	@ zero_extendqisi2
 529:Middlewares/LVGL/GUI/lvgl/src/core/lv_indev.c ****         i->proc.wait_until_release      = 0;
 1317              		.loc 1 529 7 view .LVU417
 1318 000e 13F0080F 		tst	r3, #8
 1319 0012 0AD0     		beq	.L89
 530:Middlewares/LVGL/GUI/lvgl/src/core/lv_indev.c ****         i->proc.pr_timestamp            = 0;
 1320              		.loc 1 530 9 is_stmt 1 view .LVU418
 530:Middlewares/LVGL/GUI/lvgl/src/core/lv_indev.c ****         i->proc.pr_timestamp            = 0;
 1321              		.loc 1 530 41 is_stmt 0 view .LVU419
 1322 0014 6379     		ldrb	r3, [r4, #5]	@ zero_extendqisi2
 1323 0016 6FF3C303 		bfc	r3, #3, #1
 1324 001a 6371     		strb	r3, [r4, #5]
 531:Middlewares/LVGL/GUI/lvgl/src/core/lv_indev.c ****         i->proc.long_pr_sent            = 0;
 1325              		.loc 1 531 9 is_stmt 1 view .LVU420
 531:Middlewares/LVGL/GUI/lvgl/src/core/lv_indev.c ****         i->proc.long_pr_sent            = 0;
 1326              		.loc 1 531 41 is_stmt 0 view .LVU421
 1327 001c 0023     		movs	r3, #0
 1328 001e E366     		str	r3, [r4, #108]
 532:Middlewares/LVGL/GUI/lvgl/src/core/lv_indev.c ****         i->proc.types.keypad.last_state = LV_INDEV_STATE_RELEASED; /*To skip the processing of rele
 1329              		.loc 1 532 9 is_stmt 1 view .LVU422
 532:Middlewares/LVGL/GUI/lvgl/src/core/lv_indev.c ****         i->proc.types.keypad.last_state = LV_INDEV_STATE_RELEASED; /*To skip the processing of rele
 1330              		.loc 1 532 41 is_stmt 0 view .LVU423
 1331 0020 6279     		ldrb	r2, [r4, #5]	@ zero_extendqisi2
 1332 0022 63F30002 		bfi	r2, r3, #0, #1
 1333 0026 6271     		strb	r2, [r4, #5]
 533:Middlewares/LVGL/GUI/lvgl/src/core/lv_indev.c ****     }
 1334              		.loc 1 533 9 is_stmt 1 view .LVU424
 533:Middlewares/LVGL/GUI/lvgl/src/core/lv_indev.c ****     }
 1335              		.loc 1 533 41 is_stmt 0 view .LVU425
 1336 0028 2372     		strb	r3, [r4, #8]
 1337              	.L89:
 538:Middlewares/LVGL/GUI/lvgl/src/core/lv_indev.c ****     i->proc.types.keypad.last_state = data->state;
 1338              		.loc 1 538 5 is_stmt 1 view .LVU426
 538:Middlewares/LVGL/GUI/lvgl/src/core/lv_indev.c ****     i->proc.types.keypad.last_state = data->state;
 1339              		.loc 1 538 22 is_stmt 0 view .LVU427
 1340 002a 277A     		ldrb	r7, [r4, #8]	@ zero_extendqisi2
 1341              	.LVL118:
 539:Middlewares/LVGL/GUI/lvgl/src/core/lv_indev.c ****     i->proc.types.keypad.last_key   = data->key;
 1342              		.loc 1 539 5 is_stmt 1 view .LVU428
 539:Middlewares/LVGL/GUI/lvgl/src/core/lv_indev.c ****     i->proc.types.keypad.last_key   = data->key;
 1343              		.loc 1 539 43 is_stmt 0 view .LVU429
 1344 002c AB7C     		ldrb	r3, [r5, #18]	@ zero_extendqisi2
 539:Middlewares/LVGL/GUI/lvgl/src/core/lv_indev.c ****     i->proc.types.keypad.last_key   = data->key;
 1345              		.loc 1 539 37 view .LVU430
 1346 002e 2372     		strb	r3, [r4, #8]
 540:Middlewares/LVGL/GUI/lvgl/src/core/lv_indev.c **** 
 1347              		.loc 1 540 5 is_stmt 1 view .LVU431
 540:Middlewares/LVGL/GUI/lvgl/src/core/lv_indev.c **** 
 1348              		.loc 1 540 43 is_stmt 0 view .LVU432
 1349 0030 AB68     		ldr	r3, [r5, #8]
 540:Middlewares/LVGL/GUI/lvgl/src/core/lv_indev.c **** 
ARM GAS  C:\Users\ADMINI~1\AppData\Local\Temp\ccU2iQFc.s 			page 51


 1350              		.loc 1 540 37 view .LVU433
 1351 0032 E360     		str	r3, [r4, #12]
 542:Middlewares/LVGL/GUI/lvgl/src/core/lv_indev.c ****     if(g == NULL) return;
 1352              		.loc 1 542 5 is_stmt 1 view .LVU434
 542:Middlewares/LVGL/GUI/lvgl/src/core/lv_indev.c ****     if(g == NULL) return;
 1353              		.loc 1 542 18 is_stmt 0 view .LVU435
 1354 0034 A66F     		ldr	r6, [r4, #120]
 1355              	.LVL119:
 543:Middlewares/LVGL/GUI/lvgl/src/core/lv_indev.c **** 
 1356              		.loc 1 543 5 is_stmt 1 view .LVU436
 543:Middlewares/LVGL/GUI/lvgl/src/core/lv_indev.c **** 
 1357              		.loc 1 543 7 is_stmt 0 view .LVU437
 1358 0036 06B3     		cbz	r6, .L86
 545:Middlewares/LVGL/GUI/lvgl/src/core/lv_indev.c ****     if(indev_obj_act == NULL) return;
 1359              		.loc 1 545 5 is_stmt 1 view .LVU438
 545:Middlewares/LVGL/GUI/lvgl/src/core/lv_indev.c ****     if(indev_obj_act == NULL) return;
 1360              		.loc 1 545 21 is_stmt 0 view .LVU439
 1361 0038 3046     		mov	r0, r6
 1362              	.LVL120:
 545:Middlewares/LVGL/GUI/lvgl/src/core/lv_indev.c ****     if(indev_obj_act == NULL) return;
 1363              		.loc 1 545 21 view .LVU440
 1364 003a FFF7FEFF 		bl	lv_group_get_focused
 1365              	.LVL121:
 545:Middlewares/LVGL/GUI/lvgl/src/core/lv_indev.c ****     if(indev_obj_act == NULL) return;
 1366              		.loc 1 545 19 view .LVU441
 1367 003e 9C4B     		ldr	r3, .L158
 1368 0040 1860     		str	r0, [r3]
 546:Middlewares/LVGL/GUI/lvgl/src/core/lv_indev.c **** 
 1369              		.loc 1 546 5 is_stmt 1 view .LVU442
 546:Middlewares/LVGL/GUI/lvgl/src/core/lv_indev.c **** 
 1370              		.loc 1 546 7 is_stmt 0 view .LVU443
 1371 0042 D0B1     		cbz	r0, .L86
 549:Middlewares/LVGL/GUI/lvgl/src/core/lv_indev.c ****         data->enc_diff = 0;
 1372              		.loc 1 549 5 is_stmt 1 view .LVU444
 549:Middlewares/LVGL/GUI/lvgl/src/core/lv_indev.c ****         data->enc_diff = 0;
 1373              		.loc 1 549 12 is_stmt 0 view .LVU445
 1374 0044 AB7C     		ldrb	r3, [r5, #18]	@ zero_extendqisi2
 549:Middlewares/LVGL/GUI/lvgl/src/core/lv_indev.c ****         data->enc_diff = 0;
 1375              		.loc 1 549 7 view .LVU446
 1376 0046 0BB1     		cbz	r3, .L90
 550:Middlewares/LVGL/GUI/lvgl/src/core/lv_indev.c ****     }
 1377              		.loc 1 550 9 is_stmt 1 view .LVU447
 550:Middlewares/LVGL/GUI/lvgl/src/core/lv_indev.c ****     }
 1378              		.loc 1 550 24 is_stmt 0 view .LVU448
 1379 0048 0023     		movs	r3, #0
 1380 004a 2B82     		strh	r3, [r5, #16]	@ movhi
 1381              	.L90:
 554:Middlewares/LVGL/GUI/lvgl/src/core/lv_indev.c ****     if(indev_obj_act == NULL) return;
 1382              		.loc 1 554 5 is_stmt 1 view .LVU449
 554:Middlewares/LVGL/GUI/lvgl/src/core/lv_indev.c ****     if(indev_obj_act == NULL) return;
 1383              		.loc 1 554 21 is_stmt 0 view .LVU450
 1384 004c 3046     		mov	r0, r6
 1385 004e FFF7FEFF 		bl	lv_group_get_focused
 1386              	.LVL122:
 554:Middlewares/LVGL/GUI/lvgl/src/core/lv_indev.c ****     if(indev_obj_act == NULL) return;
 1387              		.loc 1 554 19 view .LVU451
 1388 0052 974B     		ldr	r3, .L158
ARM GAS  C:\Users\ADMINI~1\AppData\Local\Temp\ccU2iQFc.s 			page 52


 1389 0054 1860     		str	r0, [r3]
 555:Middlewares/LVGL/GUI/lvgl/src/core/lv_indev.c **** 
 1390              		.loc 1 555 5 is_stmt 1 view .LVU452
 555:Middlewares/LVGL/GUI/lvgl/src/core/lv_indev.c **** 
 1391              		.loc 1 555 7 is_stmt 0 view .LVU453
 1392 0056 80B1     		cbz	r0, .L86
 558:Middlewares/LVGL/GUI/lvgl/src/core/lv_indev.c ****         LV_LOG_INFO("pressed");
 1393              		.loc 1 558 5 is_stmt 1 view .LVU454
 558:Middlewares/LVGL/GUI/lvgl/src/core/lv_indev.c ****         LV_LOG_INFO("pressed");
 1394              		.loc 1 558 12 is_stmt 0 view .LVU455
 1395 0058 AB7C     		ldrb	r3, [r5, #18]	@ zero_extendqisi2
 558:Middlewares/LVGL/GUI/lvgl/src/core/lv_indev.c ****         LV_LOG_INFO("pressed");
 1396              		.loc 1 558 7 view .LVU456
 1397 005a 012B     		cmp	r3, #1
 1398 005c 13D0     		beq	.L139
 1399              	.L91:
 592:Middlewares/LVGL/GUI/lvgl/src/core/lv_indev.c ****         /*Long press*/
 1400              		.loc 1 592 10 is_stmt 1 view .LVU457
 592:Middlewares/LVGL/GUI/lvgl/src/core/lv_indev.c ****         /*Long press*/
 1401              		.loc 1 592 12 is_stmt 0 view .LVU458
 1402 005e 012B     		cmp	r3, #1
 1403 0060 61D0     		beq	.L140
 1404              	.L99:
 647:Middlewares/LVGL/GUI/lvgl/src/core/lv_indev.c ****         LV_LOG_INFO("released");
 1405              		.loc 1 647 10 is_stmt 1 view .LVU459
 647:Middlewares/LVGL/GUI/lvgl/src/core/lv_indev.c ****         LV_LOG_INFO("released");
 1406              		.loc 1 647 12 is_stmt 0 view .LVU460
 1407 0062 13B9     		cbnz	r3, .L95
 647:Middlewares/LVGL/GUI/lvgl/src/core/lv_indev.c ****         LV_LOG_INFO("released");
 1408              		.loc 1 647 52 discriminator 1 view .LVU461
 1409 0064 012F     		cmp	r7, #1
 1410 0066 00F0E380 		beq	.L141
 1411              	.LVL123:
 1412              	.L95:
 697:Middlewares/LVGL/GUI/lvgl/src/core/lv_indev.c **** 
 1413              		.loc 1 697 5 is_stmt 1 view .LVU462
 697:Middlewares/LVGL/GUI/lvgl/src/core/lv_indev.c **** 
 1414              		.loc 1 697 19 is_stmt 0 view .LVU463
 1415 006a 914B     		ldr	r3, .L158
 1416 006c 0022     		movs	r2, #0
 1417 006e 1A60     		str	r2, [r3]
 700:Middlewares/LVGL/GUI/lvgl/src/core/lv_indev.c ****         /*In edit mode send LEFT/RIGHT keys*/
 1418              		.loc 1 700 5 is_stmt 1 view .LVU464
 700:Middlewares/LVGL/GUI/lvgl/src/core/lv_indev.c ****         /*In edit mode send LEFT/RIGHT keys*/
 1419              		.loc 1 700 12 is_stmt 0 view .LVU465
 1420 0070 B5F91030 		ldrsh	r3, [r5, #16]
 700:Middlewares/LVGL/GUI/lvgl/src/core/lv_indev.c ****         /*In edit mode send LEFT/RIGHT keys*/
 1421              		.loc 1 700 7 view .LVU466
 1422 0074 002B     		cmp	r3, #0
 1423 0076 40F07281 		bne	.L142
 1424              	.LVL124:
 1425              	.L86:
 724:Middlewares/LVGL/GUI/lvgl/src/core/lv_indev.c **** 
 1426              		.loc 1 724 1 view .LVU467
 1427 007a F8BD     		pop	{r3, r4, r5, r6, r7, pc}
 1428              	.LVL125:
 1429              	.L138:
ARM GAS  C:\Users\ADMINI~1\AppData\Local\Temp\ccU2iQFc.s 			page 53


 527:Middlewares/LVGL/GUI/lvgl/src/core/lv_indev.c **** 
 1430              		.loc 1 527 46 discriminator 1 view .LVU468
 1431 007c 4379     		ldrb	r3, [r0, #5]	@ zero_extendqisi2
 1432 007e 13F0080F 		tst	r3, #8
 1433 0082 C3D0     		beq	.L87
 1434 0084 F9E7     		b	.L86
 1435              	.LVL126:
 1436              	.L139:
 558:Middlewares/LVGL/GUI/lvgl/src/core/lv_indev.c ****         LV_LOG_INFO("pressed");
 1437              		.loc 1 558 46 discriminator 1 view .LVU469
 1438 0086 002F     		cmp	r7, #0
 1439 0088 E9D1     		bne	.L91
 559:Middlewares/LVGL/GUI/lvgl/src/core/lv_indev.c **** 
 1440              		.loc 1 559 9 is_stmt 1 view .LVU470
 559:Middlewares/LVGL/GUI/lvgl/src/core/lv_indev.c **** 
 1441              		.loc 1 559 9 view .LVU471
 559:Middlewares/LVGL/GUI/lvgl/src/core/lv_indev.c **** 
 1442              		.loc 1 559 9 view .LVU472
 561:Middlewares/LVGL/GUI/lvgl/src/core/lv_indev.c **** 
 1443              		.loc 1 561 9 view .LVU473
 561:Middlewares/LVGL/GUI/lvgl/src/core/lv_indev.c **** 
 1444              		.loc 1 561 32 is_stmt 0 view .LVU474
 1445 008a FFF7FEFF 		bl	lv_tick_get
 1446              	.LVL127:
 561:Middlewares/LVGL/GUI/lvgl/src/core/lv_indev.c **** 
 1447              		.loc 1 561 30 view .LVU475
 1448 008e E066     		str	r0, [r4, #108]
 563:Middlewares/LVGL/GUI/lvgl/src/core/lv_indev.c ****             bool editable_or_scrollable = lv_obj_is_editable(indev_obj_act) ||
 1449              		.loc 1 563 9 is_stmt 1 view .LVU476
 563:Middlewares/LVGL/GUI/lvgl/src/core/lv_indev.c ****             bool editable_or_scrollable = lv_obj_is_editable(indev_obj_act) ||
 1450              		.loc 1 563 16 is_stmt 0 view .LVU477
 1451 0090 A968     		ldr	r1, [r5, #8]
 563:Middlewares/LVGL/GUI/lvgl/src/core/lv_indev.c ****             bool editable_or_scrollable = lv_obj_is_editable(indev_obj_act) ||
 1452              		.loc 1 563 11 view .LVU478
 1453 0092 0A29     		cmp	r1, #10
 1454 0094 09D0     		beq	.L143
 571:Middlewares/LVGL/GUI/lvgl/src/core/lv_indev.c ****             /*emulate encoder left*/
 1455              		.loc 1 571 14 is_stmt 1 view .LVU479
 571:Middlewares/LVGL/GUI/lvgl/src/core/lv_indev.c ****             /*emulate encoder left*/
 1456              		.loc 1 571 16 is_stmt 0 view .LVU480
 1457 0096 1429     		cmp	r1, #20
 1458 0098 2BD0     		beq	.L144
 575:Middlewares/LVGL/GUI/lvgl/src/core/lv_indev.c ****             /*emulate encoder right*/
 1459              		.loc 1 575 14 is_stmt 1 view .LVU481
 575:Middlewares/LVGL/GUI/lvgl/src/core/lv_indev.c ****             /*emulate encoder right*/
 1460              		.loc 1 575 16 is_stmt 0 view .LVU482
 1461 009a 1329     		cmp	r1, #19
 1462 009c 2ED0     		beq	.L145
 579:Middlewares/LVGL/GUI/lvgl/src/core/lv_indev.c ****             /*Send the ESC as a normal KEY*/
 1463              		.loc 1 579 14 is_stmt 1 view .LVU483
 579:Middlewares/LVGL/GUI/lvgl/src/core/lv_indev.c ****             /*Send the ESC as a normal KEY*/
 1464              		.loc 1 579 16 is_stmt 0 view .LVU484
 1465 009e 1B29     		cmp	r1, #27
 1466 00a0 31D0     		beq	.L146
 588:Middlewares/LVGL/GUI/lvgl/src/core/lv_indev.c ****         }
 1467              		.loc 1 588 13 is_stmt 1 view .LVU485
 1468 00a2 3046     		mov	r0, r6
ARM GAS  C:\Users\ADMINI~1\AppData\Local\Temp\ccU2iQFc.s 			page 54


 1469 00a4 FFF7FEFF 		bl	lv_group_send_data
 1470              	.LVL128:
 1471 00a8 DFE7     		b	.L95
 1472              	.L143:
 1473              	.LBB2:
 564:Middlewares/LVGL/GUI/lvgl/src/core/lv_indev.c ****                                           lv_obj_has_flag(indev_obj_act, LV_OBJ_FLAG_SCROLLABLE);
 1474              		.loc 1 564 13 view .LVU486
 564:Middlewares/LVGL/GUI/lvgl/src/core/lv_indev.c ****                                           lv_obj_has_flag(indev_obj_act, LV_OBJ_FLAG_SCROLLABLE);
 1475              		.loc 1 564 43 is_stmt 0 view .LVU487
 1476 00aa 814B     		ldr	r3, .L158
 1477 00ac 1868     		ldr	r0, [r3]
 1478 00ae FFF7FEFF 		bl	lv_obj_is_editable
 1479              	.LVL129:
 564:Middlewares/LVGL/GUI/lvgl/src/core/lv_indev.c ****                                           lv_obj_has_flag(indev_obj_act, LV_OBJ_FLAG_SCROLLABLE);
 1480              		.loc 1 564 77 view .LVU488
 1481 00b2 A0B1     		cbz	r0, .L147
 1482 00b4 0123     		movs	r3, #1
 1483              	.L93:
 564:Middlewares/LVGL/GUI/lvgl/src/core/lv_indev.c ****                                           lv_obj_has_flag(indev_obj_act, LV_OBJ_FLAG_SCROLLABLE);
 1484              		.loc 1 564 18 discriminator 6 view .LVU489
 1485 00b6 1F46     		mov	r7, r3
 1486              	.LVL130:
 566:Middlewares/LVGL/GUI/lvgl/src/core/lv_indev.c ****                 lv_event_send(indev_obj_act, LV_EVENT_PRESSED, indev_act);
 1487              		.loc 1 566 13 is_stmt 1 discriminator 6 view .LVU490
 566:Middlewares/LVGL/GUI/lvgl/src/core/lv_indev.c ****                 lv_event_send(indev_obj_act, LV_EVENT_PRESSED, indev_act);
 1488              		.loc 1 566 16 is_stmt 0 discriminator 6 view .LVU491
 1489 00b8 3046     		mov	r0, r6
 1490 00ba FFF7FEFF 		bl	lv_group_get_editing
 1491              	.LVL131:
 566:Middlewares/LVGL/GUI/lvgl/src/core/lv_indev.c ****                 lv_event_send(indev_obj_act, LV_EVENT_PRESSED, indev_act);
 1492              		.loc 1 566 15 discriminator 6 view .LVU492
 1493 00be 08B9     		cbnz	r0, .L94
 566:Middlewares/LVGL/GUI/lvgl/src/core/lv_indev.c ****                 lv_event_send(indev_obj_act, LV_EVENT_PRESSED, indev_act);
 1494              		.loc 1 566 48 discriminator 1 view .LVU493
 1495 00c0 002F     		cmp	r7, #0
 1496 00c2 D2D1     		bne	.L95
 1497              	.L94:
 567:Middlewares/LVGL/GUI/lvgl/src/core/lv_indev.c ****                 if(indev_reset_check(&i->proc)) return;
 1498              		.loc 1 567 17 is_stmt 1 view .LVU494
 1499 00c4 7B4B     		ldr	r3, .L158+4
 1500 00c6 1A68     		ldr	r2, [r3]
 1501 00c8 0121     		movs	r1, #1
 1502 00ca 794B     		ldr	r3, .L158
 1503 00cc 1868     		ldr	r0, [r3]
 1504 00ce FFF7FEFF 		bl	lv_event_send
 1505              	.LVL132:
 568:Middlewares/LVGL/GUI/lvgl/src/core/lv_indev.c ****             }
 1506              		.loc 1 568 17 view .LVU495
 568:Middlewares/LVGL/GUI/lvgl/src/core/lv_indev.c ****             }
 1507              		.loc 1 568 20 is_stmt 0 view .LVU496
 1508 00d2 201D     		adds	r0, r4, #4
 1509 00d4 FFF7FEFF 		bl	indev_reset_check
 1510              	.LVL133:
 568:Middlewares/LVGL/GUI/lvgl/src/core/lv_indev.c ****             }
 1511              		.loc 1 568 19 view .LVU497
 1512 00d8 0028     		cmp	r0, #0
 1513 00da C6D0     		beq	.L95
ARM GAS  C:\Users\ADMINI~1\AppData\Local\Temp\ccU2iQFc.s 			page 55


 1514 00dc CDE7     		b	.L86
 1515              	.LVL134:
 1516              	.L147:
 565:Middlewares/LVGL/GUI/lvgl/src/core/lv_indev.c ****             if(lv_group_get_editing(g) == true || editable_or_scrollable == false) {
 1517              		.loc 1 565 43 discriminator 2 view .LVU498
 1518 00de 1021     		movs	r1, #16
 1519 00e0 734B     		ldr	r3, .L158
 1520 00e2 1868     		ldr	r0, [r3]
 1521 00e4 FFF7FEFF 		bl	lv_obj_has_flag
 1522              	.LVL135:
 564:Middlewares/LVGL/GUI/lvgl/src/core/lv_indev.c ****                                           lv_obj_has_flag(indev_obj_act, LV_OBJ_FLAG_SCROLLABLE);
 1523              		.loc 1 564 77 discriminator 2 view .LVU499
 1524 00e8 08B9     		cbnz	r0, .L126
 564:Middlewares/LVGL/GUI/lvgl/src/core/lv_indev.c ****                                           lv_obj_has_flag(indev_obj_act, LV_OBJ_FLAG_SCROLLABLE);
 1525              		.loc 1 564 77 view .LVU500
 1526 00ea 0023     		movs	r3, #0
 1527 00ec E3E7     		b	.L93
 1528              	.L126:
 1529 00ee 0123     		movs	r3, #1
 1530 00f0 E1E7     		b	.L93
 1531              	.L144:
 1532              	.LBE2:
 573:Middlewares/LVGL/GUI/lvgl/src/core/lv_indev.c ****         }
 1533              		.loc 1 573 13 is_stmt 1 view .LVU501
 573:Middlewares/LVGL/GUI/lvgl/src/core/lv_indev.c ****         }
 1534              		.loc 1 573 17 is_stmt 0 view .LVU502
 1535 00f2 B5F91030 		ldrsh	r3, [r5, #16]
 573:Middlewares/LVGL/GUI/lvgl/src/core/lv_indev.c ****         }
 1536              		.loc 1 573 27 view .LVU503
 1537 00f6 013B     		subs	r3, r3, #1
 1538 00f8 2B82     		strh	r3, [r5, #16]	@ movhi
 1539 00fa B6E7     		b	.L95
 1540              	.L145:
 577:Middlewares/LVGL/GUI/lvgl/src/core/lv_indev.c ****         }
 1541              		.loc 1 577 13 is_stmt 1 view .LVU504
 577:Middlewares/LVGL/GUI/lvgl/src/core/lv_indev.c ****         }
 1542              		.loc 1 577 17 is_stmt 0 view .LVU505
 1543 00fc B5F91030 		ldrsh	r3, [r5, #16]
 577:Middlewares/LVGL/GUI/lvgl/src/core/lv_indev.c ****         }
 1544              		.loc 1 577 27 view .LVU506
 1545 0100 0133     		adds	r3, r3, #1
 1546 0102 2B82     		strh	r3, [r5, #16]	@ movhi
 1547 0104 B1E7     		b	.L95
 1548              	.L146:
 581:Middlewares/LVGL/GUI/lvgl/src/core/lv_indev.c **** 
 1549              		.loc 1 581 13 is_stmt 1 view .LVU507
 1550 0106 3046     		mov	r0, r6
 1551 0108 FFF7FEFF 		bl	lv_group_send_data
 1552              	.LVL136:
 583:Middlewares/LVGL/GUI/lvgl/src/core/lv_indev.c ****             if(indev_reset_check(&i->proc)) return;
 1553              		.loc 1 583 13 view .LVU508
 1554 010c 694B     		ldr	r3, .L158+4
 1555 010e 1A68     		ldr	r2, [r3]
 1556 0110 2021     		movs	r1, #32
 1557 0112 674B     		ldr	r3, .L158
 1558 0114 1868     		ldr	r0, [r3]
 1559 0116 FFF7FEFF 		bl	lv_event_send
ARM GAS  C:\Users\ADMINI~1\AppData\Local\Temp\ccU2iQFc.s 			page 56


 1560              	.LVL137:
 584:Middlewares/LVGL/GUI/lvgl/src/core/lv_indev.c ****         }
 1561              		.loc 1 584 13 view .LVU509
 584:Middlewares/LVGL/GUI/lvgl/src/core/lv_indev.c ****         }
 1562              		.loc 1 584 16 is_stmt 0 view .LVU510
 1563 011a 201D     		adds	r0, r4, #4
 1564 011c FFF7FEFF 		bl	indev_reset_check
 1565              	.LVL138:
 584:Middlewares/LVGL/GUI/lvgl/src/core/lv_indev.c ****         }
 1566              		.loc 1 584 15 view .LVU511
 1567 0120 0028     		cmp	r0, #0
 1568 0122 A2D0     		beq	.L95
 1569 0124 A9E7     		b	.L86
 1570              	.L140:
 592:Middlewares/LVGL/GUI/lvgl/src/core/lv_indev.c ****         /*Long press*/
 1571              		.loc 1 592 51 discriminator 1 view .LVU512
 1572 0126 012F     		cmp	r7, #1
 1573 0128 9BD1     		bne	.L99
 594:Middlewares/LVGL/GUI/lvgl/src/core/lv_indev.c **** 
 1574              		.loc 1 594 9 is_stmt 1 view .LVU513
 594:Middlewares/LVGL/GUI/lvgl/src/core/lv_indev.c **** 
 1575              		.loc 1 594 33 is_stmt 0 view .LVU514
 1576 012a 6379     		ldrb	r3, [r4, #5]	@ zero_extendqisi2
 594:Middlewares/LVGL/GUI/lvgl/src/core/lv_indev.c **** 
 1577              		.loc 1 594 11 view .LVU515
 1578 012c 13F0010F 		tst	r3, #1
 1579 0130 19D0     		beq	.L148
 1580              	.L100:
 622:Middlewares/LVGL/GUI/lvgl/src/core/lv_indev.c **** 
 1581              		.loc 1 622 14 is_stmt 1 view .LVU516
 622:Middlewares/LVGL/GUI/lvgl/src/core/lv_indev.c **** 
 1582              		.loc 1 622 38 is_stmt 0 view .LVU517
 1583 0132 6379     		ldrb	r3, [r4, #5]	@ zero_extendqisi2
 622:Middlewares/LVGL/GUI/lvgl/src/core/lv_indev.c **** 
 1584              		.loc 1 622 16 view .LVU518
 1585 0134 13F0010F 		tst	r3, #1
 1586 0138 97D0     		beq	.L95
 622:Middlewares/LVGL/GUI/lvgl/src/core/lv_indev.c **** 
 1587              		.loc 1 622 46 discriminator 1 view .LVU519
 1588 013a 206F     		ldr	r0, [r4, #112]
 1589 013c FFF7FEFF 		bl	lv_tick_elaps
 1590              	.LVL139:
 622:Middlewares/LVGL/GUI/lvgl/src/core/lv_indev.c **** 
 1591              		.loc 1 622 93 discriminator 1 view .LVU520
 1592 0140 2368     		ldr	r3, [r4]
 622:Middlewares/LVGL/GUI/lvgl/src/core/lv_indev.c **** 
 1593              		.loc 1 622 101 discriminator 1 view .LVU521
 1594 0142 DB8B     		ldrh	r3, [r3, #30]
 622:Middlewares/LVGL/GUI/lvgl/src/core/lv_indev.c **** 
 1595              		.loc 1 622 43 discriminator 1 view .LVU522
 1596 0144 9842     		cmp	r0, r3
 1597 0146 90D9     		bls	.L95
 624:Middlewares/LVGL/GUI/lvgl/src/core/lv_indev.c **** 
 1598              		.loc 1 624 13 is_stmt 1 view .LVU523
 624:Middlewares/LVGL/GUI/lvgl/src/core/lv_indev.c **** 
 1599              		.loc 1 624 44 is_stmt 0 view .LVU524
 1600 0148 FFF7FEFF 		bl	lv_tick_get
ARM GAS  C:\Users\ADMINI~1\AppData\Local\Temp\ccU2iQFc.s 			page 57


 1601              	.LVL140:
 624:Middlewares/LVGL/GUI/lvgl/src/core/lv_indev.c **** 
 1602              		.loc 1 624 42 view .LVU525
 1603 014c 2067     		str	r0, [r4, #112]
 626:Middlewares/LVGL/GUI/lvgl/src/core/lv_indev.c ****                 lv_event_send(indev_obj_act, LV_EVENT_LONG_PRESSED_REPEAT, indev_act);
 1604              		.loc 1 626 13 is_stmt 1 view .LVU526
 626:Middlewares/LVGL/GUI/lvgl/src/core/lv_indev.c ****                 lv_event_send(indev_obj_act, LV_EVENT_LONG_PRESSED_REPEAT, indev_act);
 1605              		.loc 1 626 20 is_stmt 0 view .LVU527
 1606 014e A968     		ldr	r1, [r5, #8]
 626:Middlewares/LVGL/GUI/lvgl/src/core/lv_indev.c ****                 lv_event_send(indev_obj_act, LV_EVENT_LONG_PRESSED_REPEAT, indev_act);
 1607              		.loc 1 626 15 view .LVU528
 1608 0150 0A29     		cmp	r1, #10
 1609 0152 50D0     		beq	.L149
 630:Middlewares/LVGL/GUI/lvgl/src/core/lv_indev.c ****                 /*emulate encoder left*/
 1610              		.loc 1 630 18 is_stmt 1 view .LVU529
 630:Middlewares/LVGL/GUI/lvgl/src/core/lv_indev.c ****                 /*emulate encoder left*/
 1611              		.loc 1 630 20 is_stmt 0 view .LVU530
 1612 0154 1429     		cmp	r1, #20
 1613 0156 5CD0     		beq	.L150
 634:Middlewares/LVGL/GUI/lvgl/src/core/lv_indev.c ****                 /*emulate encoder right*/
 1614              		.loc 1 634 18 is_stmt 1 view .LVU531
 634:Middlewares/LVGL/GUI/lvgl/src/core/lv_indev.c ****                 /*emulate encoder right*/
 1615              		.loc 1 634 20 is_stmt 0 view .LVU532
 1616 0158 1329     		cmp	r1, #19
 1617 015a 5FD1     		bne	.L106
 636:Middlewares/LVGL/GUI/lvgl/src/core/lv_indev.c ****             }
 1618              		.loc 1 636 17 is_stmt 1 view .LVU533
 636:Middlewares/LVGL/GUI/lvgl/src/core/lv_indev.c ****             }
 1619              		.loc 1 636 21 is_stmt 0 view .LVU534
 1620 015c B5F91030 		ldrsh	r3, [r5, #16]
 636:Middlewares/LVGL/GUI/lvgl/src/core/lv_indev.c ****             }
 1621              		.loc 1 636 31 view .LVU535
 1622 0160 0133     		adds	r3, r3, #1
 1623 0162 2B82     		strh	r3, [r5, #16]	@ movhi
 1624 0164 81E7     		b	.L95
 1625              	.L148:
 594:Middlewares/LVGL/GUI/lvgl/src/core/lv_indev.c **** 
 1626              		.loc 1 594 41 discriminator 1 view .LVU536
 1627 0166 E06E     		ldr	r0, [r4, #108]
 1628 0168 FFF7FEFF 		bl	lv_tick_elaps
 1629              	.LVL141:
 594:Middlewares/LVGL/GUI/lvgl/src/core/lv_indev.c **** 
 1630              		.loc 1 594 80 discriminator 1 view .LVU537
 1631 016c 2368     		ldr	r3, [r4]
 594:Middlewares/LVGL/GUI/lvgl/src/core/lv_indev.c **** 
 1632              		.loc 1 594 88 discriminator 1 view .LVU538
 1633 016e 9B8B     		ldrh	r3, [r3, #28]
 594:Middlewares/LVGL/GUI/lvgl/src/core/lv_indev.c **** 
 1634              		.loc 1 594 38 discriminator 1 view .LVU539
 1635 0170 9842     		cmp	r0, r3
 1636 0172 DED9     		bls	.L100
 596:Middlewares/LVGL/GUI/lvgl/src/core/lv_indev.c ****             i->proc.longpr_rep_timestamp = lv_tick_get();
 1637              		.loc 1 596 13 is_stmt 1 view .LVU540
 596:Middlewares/LVGL/GUI/lvgl/src/core/lv_indev.c ****             i->proc.longpr_rep_timestamp = lv_tick_get();
 1638              		.loc 1 596 34 is_stmt 0 view .LVU541
 1639 0174 6379     		ldrb	r3, [r4, #5]	@ zero_extendqisi2
 1640 0176 43F00103 		orr	r3, r3, #1
ARM GAS  C:\Users\ADMINI~1\AppData\Local\Temp\ccU2iQFc.s 			page 58


 1641 017a 6371     		strb	r3, [r4, #5]
 597:Middlewares/LVGL/GUI/lvgl/src/core/lv_indev.c **** 
 1642              		.loc 1 597 13 is_stmt 1 view .LVU542
 597:Middlewares/LVGL/GUI/lvgl/src/core/lv_indev.c **** 
 1643              		.loc 1 597 44 is_stmt 0 view .LVU543
 1644 017c FFF7FEFF 		bl	lv_tick_get
 1645              	.LVL142:
 597:Middlewares/LVGL/GUI/lvgl/src/core/lv_indev.c **** 
 1646              		.loc 1 597 42 view .LVU544
 1647 0180 2067     		str	r0, [r4, #112]
 599:Middlewares/LVGL/GUI/lvgl/src/core/lv_indev.c ****                 bool editable_or_scrollable = lv_obj_is_editable(indev_obj_act) ||
 1648              		.loc 1 599 13 is_stmt 1 view .LVU545
 599:Middlewares/LVGL/GUI/lvgl/src/core/lv_indev.c ****                 bool editable_or_scrollable = lv_obj_is_editable(indev_obj_act) ||
 1649              		.loc 1 599 20 is_stmt 0 view .LVU546
 1650 0182 AB68     		ldr	r3, [r5, #8]
 599:Middlewares/LVGL/GUI/lvgl/src/core/lv_indev.c ****                 bool editable_or_scrollable = lv_obj_is_editable(indev_obj_act) ||
 1651              		.loc 1 599 15 view .LVU547
 1652 0184 0A2B     		cmp	r3, #10
 1653 0186 04D0     		beq	.L151
 1654              	.L101:
 619:Middlewares/LVGL/GUI/lvgl/src/core/lv_indev.c ****         }
 1655              		.loc 1 619 13 is_stmt 1 view .LVU548
 619:Middlewares/LVGL/GUI/lvgl/src/core/lv_indev.c ****         }
 1656              		.loc 1 619 34 is_stmt 0 view .LVU549
 1657 0188 6379     		ldrb	r3, [r4, #5]	@ zero_extendqisi2
 1658 018a 43F00103 		orr	r3, r3, #1
 1659 018e 6371     		strb	r3, [r4, #5]
 1660 0190 6BE7     		b	.L95
 1661              	.L151:
 1662              	.LBB3:
 600:Middlewares/LVGL/GUI/lvgl/src/core/lv_indev.c ****                                               lv_obj_has_flag(indev_obj_act, LV_OBJ_FLAG_SCROLLABLE
 1663              		.loc 1 600 17 is_stmt 1 view .LVU550
 600:Middlewares/LVGL/GUI/lvgl/src/core/lv_indev.c ****                                               lv_obj_has_flag(indev_obj_act, LV_OBJ_FLAG_SCROLLABLE
 1664              		.loc 1 600 47 is_stmt 0 view .LVU551
 1665 0192 474B     		ldr	r3, .L158
 1666 0194 1868     		ldr	r0, [r3]
 1667 0196 FFF7FEFF 		bl	lv_obj_is_editable
 1668              	.LVL143:
 600:Middlewares/LVGL/GUI/lvgl/src/core/lv_indev.c ****                                               lv_obj_has_flag(indev_obj_act, LV_OBJ_FLAG_SCROLLABLE
 1669              		.loc 1 600 81 view .LVU552
 1670 019a A8B1     		cbz	r0, .L152
 1671 019c 0123     		movs	r3, #1
 1672              	.L102:
 1673              	.LVL144:
 604:Middlewares/LVGL/GUI/lvgl/src/core/lv_indev.c ****                     /*Don't leave edit mode if there is only one object (nowhere to navigate)*/
 1674              		.loc 1 604 17 is_stmt 1 discriminator 6 view .LVU553
 604:Middlewares/LVGL/GUI/lvgl/src/core/lv_indev.c ****                     /*Don't leave edit mode if there is only one object (nowhere to navigate)*/
 1675              		.loc 1 604 19 is_stmt 0 discriminator 6 view .LVU554
 1676 019e EBB1     		cbz	r3, .L103
 606:Middlewares/LVGL/GUI/lvgl/src/core/lv_indev.c ****                         LV_LOG_INFO("toggling edit mode");
 1677              		.loc 1 606 21 is_stmt 1 view .LVU555
 606:Middlewares/LVGL/GUI/lvgl/src/core/lv_indev.c ****                         LV_LOG_INFO("toggling edit mode");
 1678              		.loc 1 606 24 is_stmt 0 view .LVU556
 1679 01a0 3046     		mov	r0, r6
 1680 01a2 FFF7FEFF 		bl	lv_group_get_obj_count
 1681              	.LVL145:
 606:Middlewares/LVGL/GUI/lvgl/src/core/lv_indev.c ****                         LV_LOG_INFO("toggling edit mode");
ARM GAS  C:\Users\ADMINI~1\AppData\Local\Temp\ccU2iQFc.s 			page 59


 1682              		.loc 1 606 23 view .LVU557
 1683 01a6 0128     		cmp	r0, #1
 1684 01a8 EED9     		bls	.L101
 607:Middlewares/LVGL/GUI/lvgl/src/core/lv_indev.c ****                         lv_group_set_editing(g, lv_group_get_editing(g) ? false : true); /*Toggle e
 1685              		.loc 1 607 25 is_stmt 1 view .LVU558
 607:Middlewares/LVGL/GUI/lvgl/src/core/lv_indev.c ****                         lv_group_set_editing(g, lv_group_get_editing(g) ? false : true); /*Toggle e
 1686              		.loc 1 607 25 view .LVU559
 607:Middlewares/LVGL/GUI/lvgl/src/core/lv_indev.c ****                         lv_group_set_editing(g, lv_group_get_editing(g) ? false : true); /*Toggle e
 1687              		.loc 1 607 25 view .LVU560
 608:Middlewares/LVGL/GUI/lvgl/src/core/lv_indev.c ****                         lv_obj_clear_state(indev_obj_act, LV_STATE_PRESSED);    /*Remove the presse
 1688              		.loc 1 608 25 view .LVU561
 608:Middlewares/LVGL/GUI/lvgl/src/core/lv_indev.c ****                         lv_obj_clear_state(indev_obj_act, LV_STATE_PRESSED);    /*Remove the presse
 1689              		.loc 1 608 49 is_stmt 0 view .LVU562
 1690 01aa 3046     		mov	r0, r6
 1691 01ac FFF7FEFF 		bl	lv_group_get_editing
 1692              	.LVL146:
 608:Middlewares/LVGL/GUI/lvgl/src/core/lv_indev.c ****                         lv_obj_clear_state(indev_obj_act, LV_STATE_PRESSED);    /*Remove the presse
 1693              		.loc 1 608 25 view .LVU563
 1694 01b0 80F00101 		eor	r1, r0, #1
 1695 01b4 C9B2     		uxtb	r1, r1
 1696 01b6 3046     		mov	r0, r6
 1697 01b8 FFF7FEFF 		bl	lv_group_set_editing
 1698              	.LVL147:
 609:Middlewares/LVGL/GUI/lvgl/src/core/lv_indev.c ****                     }
 1699              		.loc 1 609 25 is_stmt 1 view .LVU564
 1700 01bc 2021     		movs	r1, #32
 1701 01be 3C4B     		ldr	r3, .L158
 1702 01c0 1868     		ldr	r0, [r3]
 1703 01c2 FFF7FEFF 		bl	lv_obj_clear_state
 1704              	.LVL148:
 1705 01c6 DFE7     		b	.L101
 1706              	.L152:
 601:Middlewares/LVGL/GUI/lvgl/src/core/lv_indev.c **** 
 1707              		.loc 1 601 47 is_stmt 0 discriminator 2 view .LVU565
 1708 01c8 1021     		movs	r1, #16
 1709 01ca 394B     		ldr	r3, .L158
 1710 01cc 1868     		ldr	r0, [r3]
 1711 01ce FFF7FEFF 		bl	lv_obj_has_flag
 1712              	.LVL149:
 600:Middlewares/LVGL/GUI/lvgl/src/core/lv_indev.c ****                                               lv_obj_has_flag(indev_obj_act, LV_OBJ_FLAG_SCROLLABLE
 1713              		.loc 1 600 81 discriminator 2 view .LVU566
 1714 01d2 08B9     		cbnz	r0, .L128
 600:Middlewares/LVGL/GUI/lvgl/src/core/lv_indev.c ****                                               lv_obj_has_flag(indev_obj_act, LV_OBJ_FLAG_SCROLLABLE
 1715              		.loc 1 600 81 view .LVU567
 1716 01d4 0023     		movs	r3, #0
 1717 01d6 E2E7     		b	.L102
 1718              	.L128:
 1719 01d8 0123     		movs	r3, #1
 1720 01da E0E7     		b	.L102
 1721              	.LVL150:
 1722              	.L103:
 614:Middlewares/LVGL/GUI/lvgl/src/core/lv_indev.c ****                     if(indev_reset_check(&i->proc)) return;
 1723              		.loc 1 614 21 is_stmt 1 view .LVU568
 1724 01dc 354B     		ldr	r3, .L158+4
 1725              	.LVL151:
 614:Middlewares/LVGL/GUI/lvgl/src/core/lv_indev.c ****                     if(indev_reset_check(&i->proc)) return;
 1726              		.loc 1 614 21 is_stmt 0 view .LVU569
ARM GAS  C:\Users\ADMINI~1\AppData\Local\Temp\ccU2iQFc.s 			page 60


 1727 01de 1A68     		ldr	r2, [r3]
 1728 01e0 0521     		movs	r1, #5
 1729 01e2 334B     		ldr	r3, .L158
 1730 01e4 1868     		ldr	r0, [r3]
 1731 01e6 FFF7FEFF 		bl	lv_event_send
 1732              	.LVL152:
 615:Middlewares/LVGL/GUI/lvgl/src/core/lv_indev.c ****                 }
 1733              		.loc 1 615 21 is_stmt 1 view .LVU570
 615:Middlewares/LVGL/GUI/lvgl/src/core/lv_indev.c ****                 }
 1734              		.loc 1 615 24 is_stmt 0 view .LVU571
 1735 01ea 201D     		adds	r0, r4, #4
 1736 01ec FFF7FEFF 		bl	indev_reset_check
 1737              	.LVL153:
 615:Middlewares/LVGL/GUI/lvgl/src/core/lv_indev.c ****                 }
 1738              		.loc 1 615 23 view .LVU572
 1739 01f0 0028     		cmp	r0, #0
 1740 01f2 C9D0     		beq	.L101
 1741 01f4 41E7     		b	.L86
 1742              	.L149:
 615:Middlewares/LVGL/GUI/lvgl/src/core/lv_indev.c ****                 }
 1743              		.loc 1 615 23 view .LVU573
 1744              	.LBE3:
 627:Middlewares/LVGL/GUI/lvgl/src/core/lv_indev.c ****                 if(indev_reset_check(&i->proc)) return;
 1745              		.loc 1 627 17 is_stmt 1 view .LVU574
 1746 01f6 2F4B     		ldr	r3, .L158+4
 1747 01f8 1A68     		ldr	r2, [r3]
 1748 01fa 0621     		movs	r1, #6
 1749 01fc 2C4B     		ldr	r3, .L158
 1750 01fe 1868     		ldr	r0, [r3]
 1751 0200 FFF7FEFF 		bl	lv_event_send
 1752              	.LVL154:
 628:Middlewares/LVGL/GUI/lvgl/src/core/lv_indev.c ****             }
 1753              		.loc 1 628 17 view .LVU575
 628:Middlewares/LVGL/GUI/lvgl/src/core/lv_indev.c ****             }
 1754              		.loc 1 628 20 is_stmt 0 view .LVU576
 1755 0204 201D     		adds	r0, r4, #4
 1756 0206 FFF7FEFF 		bl	indev_reset_check
 1757              	.LVL155:
 628:Middlewares/LVGL/GUI/lvgl/src/core/lv_indev.c ****             }
 1758              		.loc 1 628 19 view .LVU577
 1759 020a 0028     		cmp	r0, #0
 1760 020c 3FF42DAF 		beq	.L95
 1761 0210 33E7     		b	.L86
 1762              	.L150:
 632:Middlewares/LVGL/GUI/lvgl/src/core/lv_indev.c ****             }
 1763              		.loc 1 632 17 is_stmt 1 view .LVU578
 632:Middlewares/LVGL/GUI/lvgl/src/core/lv_indev.c ****             }
 1764              		.loc 1 632 21 is_stmt 0 view .LVU579
 1765 0212 B5F91030 		ldrsh	r3, [r5, #16]
 632:Middlewares/LVGL/GUI/lvgl/src/core/lv_indev.c ****             }
 1766              		.loc 1 632 31 view .LVU580
 1767 0216 013B     		subs	r3, r3, #1
 1768 0218 2B82     		strh	r3, [r5, #16]	@ movhi
 1769 021a 26E7     		b	.L95
 1770              	.L106:
 639:Middlewares/LVGL/GUI/lvgl/src/core/lv_indev.c ****                 if(indev_reset_check(&i->proc)) return;
 1771              		.loc 1 639 17 is_stmt 1 view .LVU581
ARM GAS  C:\Users\ADMINI~1\AppData\Local\Temp\ccU2iQFc.s 			page 61


 1772 021c 3046     		mov	r0, r6
 1773 021e FFF7FEFF 		bl	lv_group_send_data
 1774              	.LVL156:
 640:Middlewares/LVGL/GUI/lvgl/src/core/lv_indev.c ****             }
 1775              		.loc 1 640 17 view .LVU582
 640:Middlewares/LVGL/GUI/lvgl/src/core/lv_indev.c ****             }
 1776              		.loc 1 640 20 is_stmt 0 view .LVU583
 1777 0222 201D     		adds	r0, r4, #4
 1778 0224 FFF7FEFF 		bl	indev_reset_check
 1779              	.LVL157:
 640:Middlewares/LVGL/GUI/lvgl/src/core/lv_indev.c ****             }
 1780              		.loc 1 640 19 view .LVU584
 1781 0228 0028     		cmp	r0, #0
 1782 022a 3FF41EAF 		beq	.L95
 1783 022e 24E7     		b	.L86
 1784              	.L141:
 648:Middlewares/LVGL/GUI/lvgl/src/core/lv_indev.c **** 
 1785              		.loc 1 648 9 is_stmt 1 view .LVU585
 648:Middlewares/LVGL/GUI/lvgl/src/core/lv_indev.c **** 
 1786              		.loc 1 648 9 view .LVU586
 648:Middlewares/LVGL/GUI/lvgl/src/core/lv_indev.c **** 
 1787              		.loc 1 648 9 view .LVU587
 650:Middlewares/LVGL/GUI/lvgl/src/core/lv_indev.c ****             bool editable_or_scrollable = lv_obj_is_editable(indev_obj_act) ||
 1788              		.loc 1 650 9 view .LVU588
 650:Middlewares/LVGL/GUI/lvgl/src/core/lv_indev.c ****             bool editable_or_scrollable = lv_obj_is_editable(indev_obj_act) ||
 1789              		.loc 1 650 16 is_stmt 0 view .LVU589
 1790 0230 AB68     		ldr	r3, [r5, #8]
 650:Middlewares/LVGL/GUI/lvgl/src/core/lv_indev.c ****             bool editable_or_scrollable = lv_obj_is_editable(indev_obj_act) ||
 1791              		.loc 1 650 11 view .LVU590
 1792 0232 0A2B     		cmp	r3, #10
 1793 0234 06D0     		beq	.L153
 1794              	.LVL158:
 1795              	.L107:
 694:Middlewares/LVGL/GUI/lvgl/src/core/lv_indev.c ****         i->proc.long_pr_sent = 0;
 1796              		.loc 1 694 9 is_stmt 1 view .LVU591
 694:Middlewares/LVGL/GUI/lvgl/src/core/lv_indev.c ****         i->proc.long_pr_sent = 0;
 1797              		.loc 1 694 30 is_stmt 0 view .LVU592
 1798 0236 0022     		movs	r2, #0
 1799 0238 E266     		str	r2, [r4, #108]
 695:Middlewares/LVGL/GUI/lvgl/src/core/lv_indev.c ****     }
 1800              		.loc 1 695 9 is_stmt 1 view .LVU593
 695:Middlewares/LVGL/GUI/lvgl/src/core/lv_indev.c ****     }
 1801              		.loc 1 695 30 is_stmt 0 view .LVU594
 1802 023a 6379     		ldrb	r3, [r4, #5]	@ zero_extendqisi2
 1803 023c 62F30003 		bfi	r3, r2, #0, #1
 1804 0240 6371     		strb	r3, [r4, #5]
 1805 0242 12E7     		b	.L95
 1806              	.LVL159:
 1807              	.L153:
 1808              	.LBB4:
 651:Middlewares/LVGL/GUI/lvgl/src/core/lv_indev.c ****                                           lv_obj_has_flag(indev_obj_act, LV_OBJ_FLAG_SCROLLABLE);
 1809              		.loc 1 651 13 is_stmt 1 view .LVU595
 651:Middlewares/LVGL/GUI/lvgl/src/core/lv_indev.c ****                                           lv_obj_has_flag(indev_obj_act, LV_OBJ_FLAG_SCROLLABLE);
 1810              		.loc 1 651 43 is_stmt 0 view .LVU596
 1811 0244 FFF7FEFF 		bl	lv_obj_is_editable
 1812              	.LVL160:
 651:Middlewares/LVGL/GUI/lvgl/src/core/lv_indev.c ****                                           lv_obj_has_flag(indev_obj_act, LV_OBJ_FLAG_SCROLLABLE);
ARM GAS  C:\Users\ADMINI~1\AppData\Local\Temp\ccU2iQFc.s 			page 62


 1813              		.loc 1 651 77 view .LVU597
 1814 0248 38B3     		cbz	r0, .L154
 1815 024a 0123     		movs	r3, #1
 1816              	.L108:
 1817              	.LVL161:
 655:Middlewares/LVGL/GUI/lvgl/src/core/lv_indev.c ****                 lv_event_send(indev_obj_act, LV_EVENT_RELEASED, indev_act);
 1818              		.loc 1 655 13 is_stmt 1 discriminator 6 view .LVU598
 655:Middlewares/LVGL/GUI/lvgl/src/core/lv_indev.c ****                 lv_event_send(indev_obj_act, LV_EVENT_RELEASED, indev_act);
 1819              		.loc 1 655 15 is_stmt 0 discriminator 6 view .LVU599
 1820 024c 002B     		cmp	r3, #0
 1821 024e 3BD1     		bne	.L109
 656:Middlewares/LVGL/GUI/lvgl/src/core/lv_indev.c ****                 if(indev_reset_check(&i->proc)) return;
 1822              		.loc 1 656 17 is_stmt 1 view .LVU600
 1823 0250 184B     		ldr	r3, .L158+4
 1824              	.LVL162:
 656:Middlewares/LVGL/GUI/lvgl/src/core/lv_indev.c ****                 if(indev_reset_check(&i->proc)) return;
 1825              		.loc 1 656 17 is_stmt 0 view .LVU601
 1826 0252 1A68     		ldr	r2, [r3]
 1827 0254 0821     		movs	r1, #8
 1828 0256 164B     		ldr	r3, .L158
 1829 0258 1868     		ldr	r0, [r3]
 1830 025a FFF7FEFF 		bl	lv_event_send
 1831              	.LVL163:
 657:Middlewares/LVGL/GUI/lvgl/src/core/lv_indev.c **** 
 1832              		.loc 1 657 17 is_stmt 1 view .LVU602
 657:Middlewares/LVGL/GUI/lvgl/src/core/lv_indev.c **** 
 1833              		.loc 1 657 20 is_stmt 0 view .LVU603
 1834 025e 271D     		adds	r7, r4, #4
 1835              	.LVL164:
 657:Middlewares/LVGL/GUI/lvgl/src/core/lv_indev.c **** 
 1836              		.loc 1 657 20 view .LVU604
 1837 0260 3846     		mov	r0, r7
 1838 0262 FFF7FEFF 		bl	indev_reset_check
 1839              	.LVL165:
 657:Middlewares/LVGL/GUI/lvgl/src/core/lv_indev.c **** 
 1840              		.loc 1 657 19 view .LVU605
 1841 0266 0028     		cmp	r0, #0
 1842 0268 7FF407AF 		bne	.L86
 659:Middlewares/LVGL/GUI/lvgl/src/core/lv_indev.c ****                 if(indev_reset_check(&i->proc)) return;
 1843              		.loc 1 659 17 is_stmt 1 view .LVU606
 659:Middlewares/LVGL/GUI/lvgl/src/core/lv_indev.c ****                 if(indev_reset_check(&i->proc)) return;
 1844              		.loc 1 659 41 is_stmt 0 view .LVU607
 1845 026c 6379     		ldrb	r3, [r4, #5]	@ zero_extendqisi2
 659:Middlewares/LVGL/GUI/lvgl/src/core/lv_indev.c ****                 if(indev_reset_check(&i->proc)) return;
 1846              		.loc 1 659 19 view .LVU608
 1847 026e 13F0010F 		tst	r3, #1
 1848 0272 21D0     		beq	.L155
 1849              	.L110:
 660:Middlewares/LVGL/GUI/lvgl/src/core/lv_indev.c **** 
 1850              		.loc 1 660 17 is_stmt 1 view .LVU609
 660:Middlewares/LVGL/GUI/lvgl/src/core/lv_indev.c **** 
 1851              		.loc 1 660 20 is_stmt 0 view .LVU610
 1852 0274 3846     		mov	r0, r7
 1853 0276 FFF7FEFF 		bl	indev_reset_check
 1854              	.LVL166:
 660:Middlewares/LVGL/GUI/lvgl/src/core/lv_indev.c **** 
 1855              		.loc 1 660 19 view .LVU611
ARM GAS  C:\Users\ADMINI~1\AppData\Local\Temp\ccU2iQFc.s 			page 63


 1856 027a 0028     		cmp	r0, #0
 1857 027c 7FF4FDAE 		bne	.L86
 662:Middlewares/LVGL/GUI/lvgl/src/core/lv_indev.c ****                 if(indev_reset_check(&i->proc)) return;
 1858              		.loc 1 662 17 is_stmt 1 view .LVU612
 1859 0280 0C4B     		ldr	r3, .L158+4
 1860 0282 1A68     		ldr	r2, [r3]
 1861 0284 0721     		movs	r1, #7
 1862 0286 0A4B     		ldr	r3, .L158
 1863 0288 1868     		ldr	r0, [r3]
 1864 028a FFF7FEFF 		bl	lv_event_send
 1865              	.LVL167:
 663:Middlewares/LVGL/GUI/lvgl/src/core/lv_indev.c **** 
 1866              		.loc 1 663 17 view .LVU613
 663:Middlewares/LVGL/GUI/lvgl/src/core/lv_indev.c **** 
 1867              		.loc 1 663 20 is_stmt 0 view .LVU614
 1868 028e 3846     		mov	r0, r7
 1869 0290 FFF7FEFF 		bl	indev_reset_check
 1870              	.LVL168:
 663:Middlewares/LVGL/GUI/lvgl/src/core/lv_indev.c **** 
 1871              		.loc 1 663 19 view .LVU615
 1872 0294 0028     		cmp	r0, #0
 1873 0296 CED0     		beq	.L107
 1874 0298 EFE6     		b	.L86
 1875              	.LVL169:
 1876              	.L154:
 652:Middlewares/LVGL/GUI/lvgl/src/core/lv_indev.c **** 
 1877              		.loc 1 652 43 discriminator 2 view .LVU616
 1878 029a 1021     		movs	r1, #16
 1879 029c 044B     		ldr	r3, .L158
 1880 029e 1868     		ldr	r0, [r3]
 1881 02a0 FFF7FEFF 		bl	lv_obj_has_flag
 1882              	.LVL170:
 651:Middlewares/LVGL/GUI/lvgl/src/core/lv_indev.c ****                                           lv_obj_has_flag(indev_obj_act, LV_OBJ_FLAG_SCROLLABLE);
 1883              		.loc 1 651 77 discriminator 2 view .LVU617
 1884 02a4 08B9     		cbnz	r0, .L130
 651:Middlewares/LVGL/GUI/lvgl/src/core/lv_indev.c ****                                           lv_obj_has_flag(indev_obj_act, LV_OBJ_FLAG_SCROLLABLE);
 1885              		.loc 1 651 77 view .LVU618
 1886 02a6 0023     		movs	r3, #0
 1887 02a8 D0E7     		b	.L108
 1888              	.L130:
 1889 02aa 0123     		movs	r3, #1
 1890 02ac CEE7     		b	.L108
 1891              	.L159:
 1892 02ae 00BF     		.align	2
 1893              	.L158:
 1894 02b0 00000000 		.word	.LANCHOR0
 1895 02b4 00000000 		.word	.LANCHOR1
 1896              	.LVL171:
 1897              	.L155:
 659:Middlewares/LVGL/GUI/lvgl/src/core/lv_indev.c ****                 if(indev_reset_check(&i->proc)) return;
 1898              		.loc 1 659 47 is_stmt 1 discriminator 1 view .LVU619
 1899 02b8 4A4B     		ldr	r3, .L160
 1900 02ba 1A68     		ldr	r2, [r3]
 1901 02bc 0421     		movs	r1, #4
 1902 02be 4A4B     		ldr	r3, .L160+4
 1903 02c0 1868     		ldr	r0, [r3]
 1904 02c2 FFF7FEFF 		bl	lv_event_send
ARM GAS  C:\Users\ADMINI~1\AppData\Local\Temp\ccU2iQFc.s 			page 64


 1905              	.LVL172:
 1906 02c6 D5E7     		b	.L110
 1907              	.LVL173:
 1908              	.L109:
 667:Middlewares/LVGL/GUI/lvgl/src/core/lv_indev.c ****                 /*Ignore long pressed enter release because it comes from mode switch*/
 1909              		.loc 1 667 18 view .LVU620
 667:Middlewares/LVGL/GUI/lvgl/src/core/lv_indev.c ****                 /*Ignore long pressed enter release because it comes from mode switch*/
 1910              		.loc 1 667 21 is_stmt 0 view .LVU621
 1911 02c8 3046     		mov	r0, r6
 1912 02ca FFF7FEFF 		bl	lv_group_get_editing
 1913              	.LVL174:
 667:Middlewares/LVGL/GUI/lvgl/src/core/lv_indev.c ****                 /*Ignore long pressed enter release because it comes from mode switch*/
 1914              		.loc 1 667 20 view .LVU622
 1915 02ce 0028     		cmp	r0, #0
 1916 02d0 3BD0     		beq	.L111
 669:Middlewares/LVGL/GUI/lvgl/src/core/lv_indev.c ****                     lv_event_send(indev_obj_act, LV_EVENT_RELEASED, indev_act);
 1917              		.loc 1 669 17 is_stmt 1 view .LVU623
 669:Middlewares/LVGL/GUI/lvgl/src/core/lv_indev.c ****                     lv_event_send(indev_obj_act, LV_EVENT_RELEASED, indev_act);
 1918              		.loc 1 669 20 is_stmt 0 view .LVU624
 1919 02d2 6379     		ldrb	r3, [r4, #5]	@ zero_extendqisi2
 669:Middlewares/LVGL/GUI/lvgl/src/core/lv_indev.c ****                     lv_event_send(indev_obj_act, LV_EVENT_RELEASED, indev_act);
 1920              		.loc 1 669 19 view .LVU625
 1921 02d4 13F0010F 		tst	r3, #1
 1922 02d8 04D0     		beq	.L112
 669:Middlewares/LVGL/GUI/lvgl/src/core/lv_indev.c ****                     lv_event_send(indev_obj_act, LV_EVENT_RELEASED, indev_act);
 1923              		.loc 1 669 45 discriminator 1 view .LVU626
 1924 02da 3046     		mov	r0, r6
 1925 02dc FFF7FEFF 		bl	lv_group_get_obj_count
 1926              	.LVL175:
 669:Middlewares/LVGL/GUI/lvgl/src/core/lv_indev.c ****                     lv_event_send(indev_obj_act, LV_EVENT_RELEASED, indev_act);
 1927              		.loc 1 669 42 discriminator 1 view .LVU627
 1928 02e0 0128     		cmp	r0, #1
 1929 02e2 2CD8     		bhi	.L113
 1930              	.L112:
 670:Middlewares/LVGL/GUI/lvgl/src/core/lv_indev.c ****                     if(indev_reset_check(&i->proc)) return;
 1931              		.loc 1 670 21 is_stmt 1 view .LVU628
 1932 02e4 3F4B     		ldr	r3, .L160
 1933 02e6 1A68     		ldr	r2, [r3]
 1934 02e8 0821     		movs	r1, #8
 1935 02ea 3F4B     		ldr	r3, .L160+4
 1936 02ec 1868     		ldr	r0, [r3]
 1937 02ee FFF7FEFF 		bl	lv_event_send
 1938              	.LVL176:
 671:Middlewares/LVGL/GUI/lvgl/src/core/lv_indev.c **** 
 1939              		.loc 1 671 21 view .LVU629
 671:Middlewares/LVGL/GUI/lvgl/src/core/lv_indev.c **** 
 1940              		.loc 1 671 24 is_stmt 0 view .LVU630
 1941 02f2 271D     		adds	r7, r4, #4
 1942              	.LVL177:
 671:Middlewares/LVGL/GUI/lvgl/src/core/lv_indev.c **** 
 1943              		.loc 1 671 24 view .LVU631
 1944 02f4 3846     		mov	r0, r7
 1945 02f6 FFF7FEFF 		bl	indev_reset_check
 1946              	.LVL178:
 671:Middlewares/LVGL/GUI/lvgl/src/core/lv_indev.c **** 
 1947              		.loc 1 671 23 view .LVU632
 1948 02fa 0028     		cmp	r0, #0
ARM GAS  C:\Users\ADMINI~1\AppData\Local\Temp\ccU2iQFc.s 			page 65


 1949 02fc 7FF4BDAE 		bne	.L86
 673:Middlewares/LVGL/GUI/lvgl/src/core/lv_indev.c ****                     if(indev_reset_check(&i->proc)) return;
 1950              		.loc 1 673 21 is_stmt 1 view .LVU633
 1951 0300 384B     		ldr	r3, .L160
 1952 0302 1A68     		ldr	r2, [r3]
 1953 0304 0421     		movs	r1, #4
 1954 0306 384B     		ldr	r3, .L160+4
 1955 0308 1868     		ldr	r0, [r3]
 1956 030a FFF7FEFF 		bl	lv_event_send
 1957              	.LVL179:
 674:Middlewares/LVGL/GUI/lvgl/src/core/lv_indev.c **** 
 1958              		.loc 1 674 21 view .LVU634
 674:Middlewares/LVGL/GUI/lvgl/src/core/lv_indev.c **** 
 1959              		.loc 1 674 24 is_stmt 0 view .LVU635
 1960 030e 3846     		mov	r0, r7
 1961 0310 FFF7FEFF 		bl	indev_reset_check
 1962              	.LVL180:
 674:Middlewares/LVGL/GUI/lvgl/src/core/lv_indev.c **** 
 1963              		.loc 1 674 23 view .LVU636
 1964 0314 0028     		cmp	r0, #0
 1965 0316 7FF4B0AE 		bne	.L86
 676:Middlewares/LVGL/GUI/lvgl/src/core/lv_indev.c ****                     if(indev_reset_check(&i->proc)) return;
 1966              		.loc 1 676 21 is_stmt 1 view .LVU637
 1967 031a 324B     		ldr	r3, .L160
 1968 031c 1A68     		ldr	r2, [r3]
 1969 031e 0721     		movs	r1, #7
 1970 0320 314B     		ldr	r3, .L160+4
 1971 0322 1868     		ldr	r0, [r3]
 1972 0324 FFF7FEFF 		bl	lv_event_send
 1973              	.LVL181:
 677:Middlewares/LVGL/GUI/lvgl/src/core/lv_indev.c **** 
 1974              		.loc 1 677 21 view .LVU638
 677:Middlewares/LVGL/GUI/lvgl/src/core/lv_indev.c **** 
 1975              		.loc 1 677 24 is_stmt 0 view .LVU639
 1976 0328 3846     		mov	r0, r7
 1977 032a FFF7FEFF 		bl	indev_reset_check
 1978              	.LVL182:
 677:Middlewares/LVGL/GUI/lvgl/src/core/lv_indev.c **** 
 1979              		.loc 1 677 23 view .LVU640
 1980 032e 0028     		cmp	r0, #0
 1981 0330 7FF4A3AE 		bne	.L86
 680:Middlewares/LVGL/GUI/lvgl/src/core/lv_indev.c ****                 }
 1982              		.loc 1 680 21 is_stmt 1 view .LVU641
 1983 0334 0A21     		movs	r1, #10
 1984 0336 3046     		mov	r0, r6
 1985 0338 FFF7FEFF 		bl	lv_group_send_data
 1986              	.LVL183:
 1987 033c 7BE7     		b	.L107
 1988              	.LVL184:
 1989              	.L113:
 683:Middlewares/LVGL/GUI/lvgl/src/core/lv_indev.c ****                 }
 1990              		.loc 1 683 21 view .LVU642
 1991 033e 2021     		movs	r1, #32
 1992 0340 294B     		ldr	r3, .L160+4
 1993 0342 1868     		ldr	r0, [r3]
 1994 0344 FFF7FEFF 		bl	lv_obj_clear_state
 1995              	.LVL185:
ARM GAS  C:\Users\ADMINI~1\AppData\Local\Temp\ccU2iQFc.s 			page 66


 1996 0348 75E7     		b	.L107
 1997              	.L111:
 688:Middlewares/LVGL/GUI/lvgl/src/core/lv_indev.c ****                 LV_LOG_INFO("entering edit mode");
 1998              		.loc 1 688 18 view .LVU643
 688:Middlewares/LVGL/GUI/lvgl/src/core/lv_indev.c ****                 LV_LOG_INFO("entering edit mode");
 1999              		.loc 1 688 21 is_stmt 0 view .LVU644
 2000 034a 6379     		ldrb	r3, [r4, #5]	@ zero_extendqisi2
 688:Middlewares/LVGL/GUI/lvgl/src/core/lv_indev.c ****                 LV_LOG_INFO("entering edit mode");
 2001              		.loc 1 688 20 view .LVU645
 2002 034c 13F0010F 		tst	r3, #1
 2003 0350 7FF471AF 		bne	.L107
 689:Middlewares/LVGL/GUI/lvgl/src/core/lv_indev.c ****                 lv_group_set_editing(g, true); /*Set edit mode*/
 2004              		.loc 1 689 17 is_stmt 1 view .LVU646
 689:Middlewares/LVGL/GUI/lvgl/src/core/lv_indev.c ****                 lv_group_set_editing(g, true); /*Set edit mode*/
 2005              		.loc 1 689 17 view .LVU647
 689:Middlewares/LVGL/GUI/lvgl/src/core/lv_indev.c ****                 lv_group_set_editing(g, true); /*Set edit mode*/
 2006              		.loc 1 689 17 view .LVU648
 690:Middlewares/LVGL/GUI/lvgl/src/core/lv_indev.c ****             }
 2007              		.loc 1 690 17 view .LVU649
 2008 0354 0121     		movs	r1, #1
 2009 0356 3046     		mov	r0, r6
 2010 0358 FFF7FEFF 		bl	lv_group_set_editing
 2011              	.LVL186:
 2012 035c 6BE7     		b	.L107
 2013              	.LVL187:
 2014              	.L142:
 690:Middlewares/LVGL/GUI/lvgl/src/core/lv_indev.c ****             }
 2015              		.loc 1 690 17 is_stmt 0 view .LVU650
 2016              	.LBE4:
 702:Middlewares/LVGL/GUI/lvgl/src/core/lv_indev.c ****             LV_LOG_INFO("rotated by %+d (edit)", data->enc_diff);
 2017              		.loc 1 702 9 is_stmt 1 view .LVU651
 702:Middlewares/LVGL/GUI/lvgl/src/core/lv_indev.c ****             LV_LOG_INFO("rotated by %+d (edit)", data->enc_diff);
 2018              		.loc 1 702 12 is_stmt 0 view .LVU652
 2019 035e 3046     		mov	r0, r6
 2020 0360 FFF7FEFF 		bl	lv_group_get_editing
 2021              	.LVL188:
 702:Middlewares/LVGL/GUI/lvgl/src/core/lv_indev.c ****             LV_LOG_INFO("rotated by %+d (edit)", data->enc_diff);
 2022              		.loc 1 702 11 view .LVU653
 2023 0364 F8B1     		cbz	r0, .L114
 2024              	.LBB5:
 703:Middlewares/LVGL/GUI/lvgl/src/core/lv_indev.c ****             int32_t s;
 2025              		.loc 1 703 13 is_stmt 1 view .LVU654
 703:Middlewares/LVGL/GUI/lvgl/src/core/lv_indev.c ****             int32_t s;
 2026              		.loc 1 703 13 view .LVU655
 703:Middlewares/LVGL/GUI/lvgl/src/core/lv_indev.c ****             int32_t s;
 2027              		.loc 1 703 13 view .LVU656
 704:Middlewares/LVGL/GUI/lvgl/src/core/lv_indev.c ****             if(data->enc_diff < 0) {
 2028              		.loc 1 704 13 view .LVU657
 705:Middlewares/LVGL/GUI/lvgl/src/core/lv_indev.c ****                 for(s = 0; s < -data->enc_diff; s++) lv_group_send_data(g, LV_KEY_LEFT);
 2029              		.loc 1 705 13 view .LVU658
 705:Middlewares/LVGL/GUI/lvgl/src/core/lv_indev.c ****                 for(s = 0; s < -data->enc_diff; s++) lv_group_send_data(g, LV_KEY_LEFT);
 2030              		.loc 1 705 20 is_stmt 0 view .LVU659
 2031 0366 B5F91030 		ldrsh	r3, [r5, #16]
 705:Middlewares/LVGL/GUI/lvgl/src/core/lv_indev.c ****                 for(s = 0; s < -data->enc_diff; s++) lv_group_send_data(g, LV_KEY_LEFT);
 2032              		.loc 1 705 15 view .LVU660
 2033 036a 002B     		cmp	r3, #0
 2034 036c 0FDB     		blt	.L156
ARM GAS  C:\Users\ADMINI~1\AppData\Local\Temp\ccU2iQFc.s 			page 67


 708:Middlewares/LVGL/GUI/lvgl/src/core/lv_indev.c ****                 for(s = 0; s < data->enc_diff; s++) lv_group_send_data(g, LV_KEY_RIGHT);
 2035              		.loc 1 708 18 is_stmt 1 view .LVU661
 708:Middlewares/LVGL/GUI/lvgl/src/core/lv_indev.c ****                 for(s = 0; s < data->enc_diff; s++) lv_group_send_data(g, LV_KEY_RIGHT);
 2036              		.loc 1 708 20 is_stmt 0 view .LVU662
 2037 036e 002B     		cmp	r3, #0
 2038 0370 7FF783AE 		ble	.L86
 709:Middlewares/LVGL/GUI/lvgl/src/core/lv_indev.c ****             }
 2039              		.loc 1 709 23 view .LVU663
 2040 0374 0024     		movs	r4, #0
 2041              	.LVL189:
 709:Middlewares/LVGL/GUI/lvgl/src/core/lv_indev.c ****             }
 2042              		.loc 1 709 23 view .LVU664
 2043 0376 11E0     		b	.L118
 2044              	.LVL190:
 2045              	.L117:
 706:Middlewares/LVGL/GUI/lvgl/src/core/lv_indev.c ****             }
 2046              		.loc 1 706 54 is_stmt 1 discriminator 3 view .LVU665
 2047 0378 1421     		movs	r1, #20
 2048 037a 3046     		mov	r0, r6
 2049 037c FFF7FEFF 		bl	lv_group_send_data
 2050              	.LVL191:
 706:Middlewares/LVGL/GUI/lvgl/src/core/lv_indev.c ****             }
 2051              		.loc 1 706 49 discriminator 3 view .LVU666
 706:Middlewares/LVGL/GUI/lvgl/src/core/lv_indev.c ****             }
 2052              		.loc 1 706 50 is_stmt 0 discriminator 3 view .LVU667
 2053 0380 0134     		adds	r4, r4, #1
 2054              	.LVL192:
 2055              	.L115:
 706:Middlewares/LVGL/GUI/lvgl/src/core/lv_indev.c ****             }
 2056              		.loc 1 706 28 is_stmt 1 discriminator 1 view .LVU668
 706:Middlewares/LVGL/GUI/lvgl/src/core/lv_indev.c ****             }
 2057              		.loc 1 706 37 is_stmt 0 discriminator 1 view .LVU669
 2058 0382 B5F91030 		ldrsh	r3, [r5, #16]
 706:Middlewares/LVGL/GUI/lvgl/src/core/lv_indev.c ****             }
 2059              		.loc 1 706 32 discriminator 1 view .LVU670
 2060 0386 5B42     		rsbs	r3, r3, #0
 706:Middlewares/LVGL/GUI/lvgl/src/core/lv_indev.c ****             }
 2061              		.loc 1 706 17 discriminator 1 view .LVU671
 2062 0388 A342     		cmp	r3, r4
 2063 038a F5DC     		bgt	.L117
 2064 038c 75E6     		b	.L86
 2065              	.LVL193:
 2066              	.L156:
 706:Middlewares/LVGL/GUI/lvgl/src/core/lv_indev.c ****             }
 2067              		.loc 1 706 23 view .LVU672
 2068 038e 0024     		movs	r4, #0
 2069              	.LVL194:
 706:Middlewares/LVGL/GUI/lvgl/src/core/lv_indev.c ****             }
 2070              		.loc 1 706 23 view .LVU673
 2071 0390 F7E7     		b	.L115
 2072              	.LVL195:
 2073              	.L119:
 709:Middlewares/LVGL/GUI/lvgl/src/core/lv_indev.c ****             }
 2074              		.loc 1 709 53 is_stmt 1 discriminator 3 view .LVU674
 2075 0392 1321     		movs	r1, #19
 2076 0394 3046     		mov	r0, r6
 2077 0396 FFF7FEFF 		bl	lv_group_send_data
ARM GAS  C:\Users\ADMINI~1\AppData\Local\Temp\ccU2iQFc.s 			page 68


 2078              	.LVL196:
 709:Middlewares/LVGL/GUI/lvgl/src/core/lv_indev.c ****             }
 2079              		.loc 1 709 48 discriminator 3 view .LVU675
 709:Middlewares/LVGL/GUI/lvgl/src/core/lv_indev.c ****             }
 2080              		.loc 1 709 49 is_stmt 0 discriminator 3 view .LVU676
 2081 039a 0134     		adds	r4, r4, #1
 2082              	.LVL197:
 2083              	.L118:
 709:Middlewares/LVGL/GUI/lvgl/src/core/lv_indev.c ****             }
 2084              		.loc 1 709 28 is_stmt 1 discriminator 1 view .LVU677
 709:Middlewares/LVGL/GUI/lvgl/src/core/lv_indev.c ****             }
 2085              		.loc 1 709 36 is_stmt 0 discriminator 1 view .LVU678
 2086 039c B5F91030 		ldrsh	r3, [r5, #16]
 709:Middlewares/LVGL/GUI/lvgl/src/core/lv_indev.c ****             }
 2087              		.loc 1 709 17 discriminator 1 view .LVU679
 2088 03a0 A342     		cmp	r3, r4
 2089 03a2 F6DC     		bgt	.L119
 2090 03a4 69E6     		b	.L86
 2091              	.LVL198:
 2092              	.L114:
 709:Middlewares/LVGL/GUI/lvgl/src/core/lv_indev.c ****             }
 2093              		.loc 1 709 17 discriminator 1 view .LVU680
 2094              	.LBE5:
 2095              	.LBB6:
 714:Middlewares/LVGL/GUI/lvgl/src/core/lv_indev.c ****             int32_t s;
 2096              		.loc 1 714 13 is_stmt 1 view .LVU681
 714:Middlewares/LVGL/GUI/lvgl/src/core/lv_indev.c ****             int32_t s;
 2097              		.loc 1 714 13 view .LVU682
 714:Middlewares/LVGL/GUI/lvgl/src/core/lv_indev.c ****             int32_t s;
 2098              		.loc 1 714 13 view .LVU683
 715:Middlewares/LVGL/GUI/lvgl/src/core/lv_indev.c ****             if(data->enc_diff < 0) {
 2099              		.loc 1 715 13 view .LVU684
 716:Middlewares/LVGL/GUI/lvgl/src/core/lv_indev.c ****                 for(s = 0; s < -data->enc_diff; s++) lv_group_focus_prev(g);
 2100              		.loc 1 716 13 view .LVU685
 716:Middlewares/LVGL/GUI/lvgl/src/core/lv_indev.c ****                 for(s = 0; s < -data->enc_diff; s++) lv_group_focus_prev(g);
 2101              		.loc 1 716 20 is_stmt 0 view .LVU686
 2102 03a6 B5F91030 		ldrsh	r3, [r5, #16]
 716:Middlewares/LVGL/GUI/lvgl/src/core/lv_indev.c ****                 for(s = 0; s < -data->enc_diff; s++) lv_group_focus_prev(g);
 2103              		.loc 1 716 15 view .LVU687
 2104 03aa 002B     		cmp	r3, #0
 2105 03ac 0EDB     		blt	.L157
 719:Middlewares/LVGL/GUI/lvgl/src/core/lv_indev.c ****                 for(s = 0; s < data->enc_diff; s++) lv_group_focus_next(g);
 2106              		.loc 1 719 18 is_stmt 1 view .LVU688
 719:Middlewares/LVGL/GUI/lvgl/src/core/lv_indev.c ****                 for(s = 0; s < data->enc_diff; s++) lv_group_focus_next(g);
 2107              		.loc 1 719 20 is_stmt 0 view .LVU689
 2108 03ae 002B     		cmp	r3, #0
 2109 03b0 7FF763AE 		ble	.L86
 720:Middlewares/LVGL/GUI/lvgl/src/core/lv_indev.c ****             }
 2110              		.loc 1 720 23 view .LVU690
 2111 03b4 0024     		movs	r4, #0
 2112              	.LVL199:
 720:Middlewares/LVGL/GUI/lvgl/src/core/lv_indev.c ****             }
 2113              		.loc 1 720 23 view .LVU691
 2114 03b6 0FE0     		b	.L123
 2115              	.LVL200:
 2116              	.L122:
 717:Middlewares/LVGL/GUI/lvgl/src/core/lv_indev.c ****             }
ARM GAS  C:\Users\ADMINI~1\AppData\Local\Temp\ccU2iQFc.s 			page 69


 2117              		.loc 1 717 54 is_stmt 1 discriminator 3 view .LVU692
 2118 03b8 3046     		mov	r0, r6
 2119 03ba FFF7FEFF 		bl	lv_group_focus_prev
 2120              	.LVL201:
 717:Middlewares/LVGL/GUI/lvgl/src/core/lv_indev.c ****             }
 2121              		.loc 1 717 49 discriminator 3 view .LVU693
 717:Middlewares/LVGL/GUI/lvgl/src/core/lv_indev.c ****             }
 2122              		.loc 1 717 50 is_stmt 0 discriminator 3 view .LVU694
 2123 03be 0134     		adds	r4, r4, #1
 2124              	.LVL202:
 2125              	.L120:
 717:Middlewares/LVGL/GUI/lvgl/src/core/lv_indev.c ****             }
 2126              		.loc 1 717 28 is_stmt 1 discriminator 1 view .LVU695
 717:Middlewares/LVGL/GUI/lvgl/src/core/lv_indev.c ****             }
 2127              		.loc 1 717 37 is_stmt 0 discriminator 1 view .LVU696
 2128 03c0 B5F91030 		ldrsh	r3, [r5, #16]
 717:Middlewares/LVGL/GUI/lvgl/src/core/lv_indev.c ****             }
 2129              		.loc 1 717 32 discriminator 1 view .LVU697
 2130 03c4 5B42     		rsbs	r3, r3, #0
 717:Middlewares/LVGL/GUI/lvgl/src/core/lv_indev.c ****             }
 2131              		.loc 1 717 17 discriminator 1 view .LVU698
 2132 03c6 A342     		cmp	r3, r4
 2133 03c8 F6DC     		bgt	.L122
 2134 03ca 56E6     		b	.L86
 2135              	.LVL203:
 2136              	.L157:
 717:Middlewares/LVGL/GUI/lvgl/src/core/lv_indev.c ****             }
 2137              		.loc 1 717 23 view .LVU699
 2138 03cc 0024     		movs	r4, #0
 2139              	.LVL204:
 717:Middlewares/LVGL/GUI/lvgl/src/core/lv_indev.c ****             }
 2140              		.loc 1 717 23 view .LVU700
 2141 03ce F7E7     		b	.L120
 2142              	.LVL205:
 2143              	.L124:
 720:Middlewares/LVGL/GUI/lvgl/src/core/lv_indev.c ****             }
 2144              		.loc 1 720 53 is_stmt 1 discriminator 3 view .LVU701
 2145 03d0 3046     		mov	r0, r6
 2146 03d2 FFF7FEFF 		bl	lv_group_focus_next
 2147              	.LVL206:
 720:Middlewares/LVGL/GUI/lvgl/src/core/lv_indev.c ****             }
 2148              		.loc 1 720 48 discriminator 3 view .LVU702
 720:Middlewares/LVGL/GUI/lvgl/src/core/lv_indev.c ****             }
 2149              		.loc 1 720 49 is_stmt 0 discriminator 3 view .LVU703
 2150 03d6 0134     		adds	r4, r4, #1
 2151              	.LVL207:
 2152              	.L123:
 720:Middlewares/LVGL/GUI/lvgl/src/core/lv_indev.c ****             }
 2153              		.loc 1 720 28 is_stmt 1 discriminator 1 view .LVU704
 720:Middlewares/LVGL/GUI/lvgl/src/core/lv_indev.c ****             }
 2154              		.loc 1 720 36 is_stmt 0 discriminator 1 view .LVU705
 2155 03d8 B5F91030 		ldrsh	r3, [r5, #16]
 720:Middlewares/LVGL/GUI/lvgl/src/core/lv_indev.c ****             }
 2156              		.loc 1 720 17 discriminator 1 view .LVU706
 2157 03dc A342     		cmp	r3, r4
 2158 03de F7DC     		bgt	.L124
 2159 03e0 4BE6     		b	.L86
ARM GAS  C:\Users\ADMINI~1\AppData\Local\Temp\ccU2iQFc.s 			page 70


 2160              	.L161:
 2161 03e2 00BF     		.align	2
 2162              	.L160:
 2163 03e4 00000000 		.word	.LANCHOR1
 2164 03e8 00000000 		.word	.LANCHOR0
 2165              	.LBE6:
 2166              		.cfi_endproc
 2167              	.LFE180:
 2169              		.section	.text.lv_indev_enable,"ax",%progbits
 2170              		.align	1
 2171              		.global	lv_indev_enable
 2172              		.syntax unified
 2173              		.thumb
 2174              		.thumb_func
 2176              	lv_indev_enable:
 2177              	.LVL208:
 2178              	.LFB160:
 123:Middlewares/LVGL/GUI/lvgl/src/core/lv_indev.c ****     if(!indev) return;
 2179              		.loc 1 123 1 is_stmt 1 view -0
 2180              		.cfi_startproc
 2181              		@ args = 0, pretend = 0, frame = 0
 2182              		@ frame_needed = 0, uses_anonymous_args = 0
 2183              		@ link register save eliminated.
 124:Middlewares/LVGL/GUI/lvgl/src/core/lv_indev.c **** 
 2184              		.loc 1 124 5 view .LVU708
 124:Middlewares/LVGL/GUI/lvgl/src/core/lv_indev.c **** 
 2185              		.loc 1 124 7 is_stmt 0 view .LVU709
 2186 0000 28B1     		cbz	r0, .L162
 126:Middlewares/LVGL/GUI/lvgl/src/core/lv_indev.c **** }
 2187              		.loc 1 126 5 is_stmt 1 view .LVU710
 126:Middlewares/LVGL/GUI/lvgl/src/core/lv_indev.c **** }
 2188              		.loc 1 126 35 is_stmt 0 view .LVU711
 2189 0002 81F00101 		eor	r1, r1, #1
 2190              	.LVL209:
 126:Middlewares/LVGL/GUI/lvgl/src/core/lv_indev.c **** }
 2191              		.loc 1 126 26 view .LVU712
 2192 0006 4279     		ldrb	r2, [r0, #5]	@ zero_extendqisi2
 2193 0008 61F38202 		bfi	r2, r1, #2, #1
 2194 000c 4271     		strb	r2, [r0, #5]
 2195              	.L162:
 127:Middlewares/LVGL/GUI/lvgl/src/core/lv_indev.c **** 
 2196              		.loc 1 127 1 view .LVU713
 2197 000e 7047     		bx	lr
 2198              		.cfi_endproc
 2199              	.LFE160:
 2201              		.section	.text.lv_indev_get_act,"ax",%progbits
 2202              		.align	1
 2203              		.global	lv_indev_get_act
 2204              		.syntax unified
 2205              		.thumb
 2206              		.thumb_func
 2208              	lv_indev_get_act:
 2209              	.LFB161:
 130:Middlewares/LVGL/GUI/lvgl/src/core/lv_indev.c ****     return indev_act;
 2210              		.loc 1 130 1 is_stmt 1 view -0
 2211              		.cfi_startproc
 2212              		@ args = 0, pretend = 0, frame = 0
ARM GAS  C:\Users\ADMINI~1\AppData\Local\Temp\ccU2iQFc.s 			page 71


 2213              		@ frame_needed = 0, uses_anonymous_args = 0
 2214              		@ link register save eliminated.
 131:Middlewares/LVGL/GUI/lvgl/src/core/lv_indev.c **** }
 2215              		.loc 1 131 5 view .LVU715
 132:Middlewares/LVGL/GUI/lvgl/src/core/lv_indev.c **** 
 2216              		.loc 1 132 1 is_stmt 0 view .LVU716
 2217 0000 014B     		ldr	r3, .L165
 2218 0002 1868     		ldr	r0, [r3]
 2219 0004 7047     		bx	lr
 2220              	.L166:
 2221 0006 00BF     		.align	2
 2222              	.L165:
 2223 0008 00000000 		.word	.LANCHOR1
 2224              		.cfi_endproc
 2225              	.LFE161:
 2227              		.section	.text.lv_indev_get_type,"ax",%progbits
 2228              		.align	1
 2229              		.global	lv_indev_get_type
 2230              		.syntax unified
 2231              		.thumb
 2232              		.thumb_func
 2234              	lv_indev_get_type:
 2235              	.LVL210:
 2236              	.LFB162:
 135:Middlewares/LVGL/GUI/lvgl/src/core/lv_indev.c ****     if(indev == NULL) return LV_INDEV_TYPE_NONE;
 2237              		.loc 1 135 1 is_stmt 1 view -0
 2238              		.cfi_startproc
 2239              		@ args = 0, pretend = 0, frame = 0
 2240              		@ frame_needed = 0, uses_anonymous_args = 0
 2241              		@ link register save eliminated.
 136:Middlewares/LVGL/GUI/lvgl/src/core/lv_indev.c **** 
 2242              		.loc 1 136 5 view .LVU718
 136:Middlewares/LVGL/GUI/lvgl/src/core/lv_indev.c **** 
 2243              		.loc 1 136 7 is_stmt 0 view .LVU719
 2244 0000 10B1     		cbz	r0, .L169
 138:Middlewares/LVGL/GUI/lvgl/src/core/lv_indev.c **** }
 2245              		.loc 1 138 5 is_stmt 1 view .LVU720
 138:Middlewares/LVGL/GUI/lvgl/src/core/lv_indev.c **** }
 2246              		.loc 1 138 17 is_stmt 0 view .LVU721
 2247 0002 0368     		ldr	r3, [r0]
 138:Middlewares/LVGL/GUI/lvgl/src/core/lv_indev.c **** }
 2248              		.loc 1 138 25 view .LVU722
 2249 0004 1878     		ldrb	r0, [r3]	@ zero_extendqisi2
 2250              	.LVL211:
 138:Middlewares/LVGL/GUI/lvgl/src/core/lv_indev.c **** }
 2251              		.loc 1 138 25 view .LVU723
 2252 0006 7047     		bx	lr
 2253              	.LVL212:
 2254              	.L169:
 136:Middlewares/LVGL/GUI/lvgl/src/core/lv_indev.c **** 
 2255              		.loc 1 136 30 view .LVU724
 2256 0008 0020     		movs	r0, #0
 2257              	.LVL213:
 139:Middlewares/LVGL/GUI/lvgl/src/core/lv_indev.c **** 
 2258              		.loc 1 139 1 view .LVU725
 2259 000a 7047     		bx	lr
 2260              		.cfi_endproc
ARM GAS  C:\Users\ADMINI~1\AppData\Local\Temp\ccU2iQFc.s 			page 72


 2261              	.LFE162:
 2263              		.section	.text.lv_indev_reset,"ax",%progbits
 2264              		.align	1
 2265              		.global	lv_indev_reset
 2266              		.syntax unified
 2267              		.thumb
 2268              		.thumb_func
 2270              	lv_indev_reset:
 2271              	.LVL214:
 2272              	.LFB163:
 142:Middlewares/LVGL/GUI/lvgl/src/core/lv_indev.c ****     if(indev) {
 2273              		.loc 1 142 1 is_stmt 1 view -0
 2274              		.cfi_startproc
 2275              		@ args = 0, pretend = 0, frame = 0
 2276              		@ frame_needed = 0, uses_anonymous_args = 0
 142:Middlewares/LVGL/GUI/lvgl/src/core/lv_indev.c ****     if(indev) {
 2277              		.loc 1 142 1 is_stmt 0 view .LVU727
 2278 0000 10B5     		push	{r4, lr}
 2279              	.LCFI5:
 2280              		.cfi_def_cfa_offset 8
 2281              		.cfi_offset 4, -8
 2282              		.cfi_offset 14, -4
 2283 0002 0C46     		mov	r4, r1
 143:Middlewares/LVGL/GUI/lvgl/src/core/lv_indev.c ****         indev->proc.reset_query = 1;
 2284              		.loc 1 143 5 is_stmt 1 view .LVU728
 143:Middlewares/LVGL/GUI/lvgl/src/core/lv_indev.c ****         indev->proc.reset_query = 1;
 2285              		.loc 1 143 7 is_stmt 0 view .LVU729
 2286 0004 30B3     		cbz	r0, .L171
 2287 0006 0346     		mov	r3, r0
 144:Middlewares/LVGL/GUI/lvgl/src/core/lv_indev.c ****         if(indev_act == indev) indev_obj_act = NULL;
 2288              		.loc 1 144 9 is_stmt 1 view .LVU730
 144:Middlewares/LVGL/GUI/lvgl/src/core/lv_indev.c ****         if(indev_act == indev) indev_obj_act = NULL;
 2289              		.loc 1 144 33 is_stmt 0 view .LVU731
 2290 0008 4279     		ldrb	r2, [r0, #5]	@ zero_extendqisi2
 2291 000a 42F00202 		orr	r2, r2, #2
 2292 000e 4271     		strb	r2, [r0, #5]
 145:Middlewares/LVGL/GUI/lvgl/src/core/lv_indev.c ****         if(indev->driver->type == LV_INDEV_TYPE_POINTER || indev->driver->type == LV_INDEV_TYPE_KEY
 2293              		.loc 1 145 9 is_stmt 1 view .LVU732
 145:Middlewares/LVGL/GUI/lvgl/src/core/lv_indev.c ****         if(indev->driver->type == LV_INDEV_TYPE_POINTER || indev->driver->type == LV_INDEV_TYPE_KEY
 2294              		.loc 1 145 22 is_stmt 0 view .LVU733
 2295 0010 254A     		ldr	r2, .L191
 2296 0012 1268     		ldr	r2, [r2]
 145:Middlewares/LVGL/GUI/lvgl/src/core/lv_indev.c ****         if(indev->driver->type == LV_INDEV_TYPE_POINTER || indev->driver->type == LV_INDEV_TYPE_KEY
 2297              		.loc 1 145 11 view .LVU734
 2298 0014 8242     		cmp	r2, r0
 2299 0016 06D0     		beq	.L188
 2300              	.LVL215:
 2301              	.L172:
 146:Middlewares/LVGL/GUI/lvgl/src/core/lv_indev.c ****             if(obj == NULL || indev->proc.types.pointer.last_pressed == obj) {
 2302              		.loc 1 146 9 is_stmt 1 view .LVU735
 146:Middlewares/LVGL/GUI/lvgl/src/core/lv_indev.c ****             if(obj == NULL || indev->proc.types.pointer.last_pressed == obj) {
 2303              		.loc 1 146 17 is_stmt 0 view .LVU736
 2304 0018 1A68     		ldr	r2, [r3]
 146:Middlewares/LVGL/GUI/lvgl/src/core/lv_indev.c ****             if(obj == NULL || indev->proc.types.pointer.last_pressed == obj) {
 2305              		.loc 1 146 25 view .LVU737
 2306 001a 1278     		ldrb	r2, [r2]	@ zero_extendqisi2
 146:Middlewares/LVGL/GUI/lvgl/src/core/lv_indev.c ****             if(obj == NULL || indev->proc.types.pointer.last_pressed == obj) {
ARM GAS  C:\Users\ADMINI~1\AppData\Local\Temp\ccU2iQFc.s 			page 73


 2307              		.loc 1 146 57 view .LVU738
 2308 001c 013A     		subs	r2, r2, #1
 2309 001e D2B2     		uxtb	r2, r2
 146:Middlewares/LVGL/GUI/lvgl/src/core/lv_indev.c ****             if(obj == NULL || indev->proc.types.pointer.last_pressed == obj) {
 2310              		.loc 1 146 11 view .LVU739
 2311 0020 012A     		cmp	r2, #1
 2312 0022 04D9     		bls	.L189
 2313              	.LVL216:
 2314              	.L170:
 177:Middlewares/LVGL/GUI/lvgl/src/core/lv_indev.c **** 
 2315              		.loc 1 177 1 view .LVU740
 2316 0024 10BD     		pop	{r4, pc}
 2317              	.LVL217:
 2318              	.L188:
 145:Middlewares/LVGL/GUI/lvgl/src/core/lv_indev.c ****         if(indev->driver->type == LV_INDEV_TYPE_POINTER || indev->driver->type == LV_INDEV_TYPE_KEY
 2319              		.loc 1 145 32 is_stmt 1 discriminator 1 view .LVU741
 145:Middlewares/LVGL/GUI/lvgl/src/core/lv_indev.c ****         if(indev->driver->type == LV_INDEV_TYPE_POINTER || indev->driver->type == LV_INDEV_TYPE_KEY
 2320              		.loc 1 145 46 is_stmt 0 discriminator 1 view .LVU742
 2321 0026 214A     		ldr	r2, .L191+4
 2322 0028 0021     		movs	r1, #0
 2323              	.LVL218:
 145:Middlewares/LVGL/GUI/lvgl/src/core/lv_indev.c ****         if(indev->driver->type == LV_INDEV_TYPE_POINTER || indev->driver->type == LV_INDEV_TYPE_KEY
 2324              		.loc 1 145 46 discriminator 1 view .LVU743
 2325 002a 1160     		str	r1, [r2]
 2326 002c F4E7     		b	.L172
 2327              	.L189:
 147:Middlewares/LVGL/GUI/lvgl/src/core/lv_indev.c ****                 indev->proc.types.pointer.last_pressed = NULL;
 2328              		.loc 1 147 13 is_stmt 1 view .LVU744
 147:Middlewares/LVGL/GUI/lvgl/src/core/lv_indev.c ****                 indev->proc.types.pointer.last_pressed = NULL;
 2329              		.loc 1 147 15 is_stmt 0 view .LVU745
 2330 002e 14B1     		cbz	r4, .L174
 147:Middlewares/LVGL/GUI/lvgl/src/core/lv_indev.c ****                 indev->proc.types.pointer.last_pressed = NULL;
 2331              		.loc 1 147 56 discriminator 1 view .LVU746
 2332 0030 DA6C     		ldr	r2, [r3, #76]
 147:Middlewares/LVGL/GUI/lvgl/src/core/lv_indev.c ****                 indev->proc.types.pointer.last_pressed = NULL;
 2333              		.loc 1 147 28 discriminator 1 view .LVU747
 2334 0032 A242     		cmp	r2, r4
 2335 0034 01D1     		bne	.L175
 2336              	.L174:
 148:Middlewares/LVGL/GUI/lvgl/src/core/lv_indev.c ****             }
 2337              		.loc 1 148 17 is_stmt 1 view .LVU748
 148:Middlewares/LVGL/GUI/lvgl/src/core/lv_indev.c ****             }
 2338              		.loc 1 148 56 is_stmt 0 view .LVU749
 2339 0036 0022     		movs	r2, #0
 2340 0038 DA64     		str	r2, [r3, #76]
 2341              	.L175:
 150:Middlewares/LVGL/GUI/lvgl/src/core/lv_indev.c ****                 indev->proc.types.pointer.act_obj = NULL;
 2342              		.loc 1 150 13 is_stmt 1 view .LVU750
 150:Middlewares/LVGL/GUI/lvgl/src/core/lv_indev.c ****                 indev->proc.types.pointer.act_obj = NULL;
 2343              		.loc 1 150 15 is_stmt 0 view .LVU751
 2344 003a 14B1     		cbz	r4, .L176
 150:Middlewares/LVGL/GUI/lvgl/src/core/lv_indev.c ****                 indev->proc.types.pointer.act_obj = NULL;
 2345              		.loc 1 150 56 discriminator 1 view .LVU752
 2346 003c 1A6C     		ldr	r2, [r3, #64]
 150:Middlewares/LVGL/GUI/lvgl/src/core/lv_indev.c ****                 indev->proc.types.pointer.act_obj = NULL;
 2347              		.loc 1 150 28 discriminator 1 view .LVU753
 2348 003e A242     		cmp	r2, r4
ARM GAS  C:\Users\ADMINI~1\AppData\Local\Temp\ccU2iQFc.s 			page 74


 2349 0040 01D1     		bne	.L177
 2350              	.L176:
 151:Middlewares/LVGL/GUI/lvgl/src/core/lv_indev.c ****             }
 2351              		.loc 1 151 17 is_stmt 1 view .LVU754
 151:Middlewares/LVGL/GUI/lvgl/src/core/lv_indev.c ****             }
 2352              		.loc 1 151 51 is_stmt 0 view .LVU755
 2353 0042 0022     		movs	r2, #0
 2354 0044 1A64     		str	r2, [r3, #64]
 2355              	.L177:
 153:Middlewares/LVGL/GUI/lvgl/src/core/lv_indev.c ****                 indev->proc.types.pointer.last_obj = NULL;
 2356              		.loc 1 153 13 is_stmt 1 view .LVU756
 153:Middlewares/LVGL/GUI/lvgl/src/core/lv_indev.c ****                 indev->proc.types.pointer.last_obj = NULL;
 2357              		.loc 1 153 15 is_stmt 0 view .LVU757
 2358 0046 14B1     		cbz	r4, .L178
 153:Middlewares/LVGL/GUI/lvgl/src/core/lv_indev.c ****                 indev->proc.types.pointer.last_obj = NULL;
 2359              		.loc 1 153 56 discriminator 1 view .LVU758
 2360 0048 5A6C     		ldr	r2, [r3, #68]
 153:Middlewares/LVGL/GUI/lvgl/src/core/lv_indev.c ****                 indev->proc.types.pointer.last_obj = NULL;
 2361              		.loc 1 153 28 discriminator 1 view .LVU759
 2362 004a A242     		cmp	r2, r4
 2363 004c EAD1     		bne	.L170
 2364              	.L178:
 154:Middlewares/LVGL/GUI/lvgl/src/core/lv_indev.c ****             }
 2365              		.loc 1 154 17 is_stmt 1 view .LVU760
 154:Middlewares/LVGL/GUI/lvgl/src/core/lv_indev.c ****             }
 2366              		.loc 1 154 52 is_stmt 0 view .LVU761
 2367 004e 0022     		movs	r2, #0
 2368 0050 5A64     		str	r2, [r3, #68]
 2369 0052 E7E7     		b	.L170
 2370              	.LVL219:
 2371              	.L171:
 2372              	.LBB7:
 159:Middlewares/LVGL/GUI/lvgl/src/core/lv_indev.c ****         while(i) {
 2373              		.loc 1 159 9 is_stmt 1 view .LVU762
 159:Middlewares/LVGL/GUI/lvgl/src/core/lv_indev.c ****         while(i) {
 2374              		.loc 1 159 26 is_stmt 0 view .LVU763
 2375 0054 0020     		movs	r0, #0
 2376              	.LVL220:
 159:Middlewares/LVGL/GUI/lvgl/src/core/lv_indev.c ****         while(i) {
 2377              		.loc 1 159 26 view .LVU764
 2378 0056 FFF7FEFF 		bl	lv_indev_get_next
 2379              	.LVL221:
 160:Middlewares/LVGL/GUI/lvgl/src/core/lv_indev.c ****             i->proc.reset_query = 1;
 2380              		.loc 1 160 9 is_stmt 1 view .LVU765
 160:Middlewares/LVGL/GUI/lvgl/src/core/lv_indev.c ****             i->proc.reset_query = 1;
 2381              		.loc 1 160 14 is_stmt 0 view .LVU766
 2382 005a 03E0     		b	.L179
 2383              	.L185:
 170:Middlewares/LVGL/GUI/lvgl/src/core/lv_indev.c ****                 }
 2384              		.loc 1 170 21 is_stmt 1 view .LVU767
 170:Middlewares/LVGL/GUI/lvgl/src/core/lv_indev.c ****                 }
 2385              		.loc 1 170 52 is_stmt 0 view .LVU768
 2386 005c 0023     		movs	r3, #0
 2387 005e 4364     		str	r3, [r0, #68]
 2388              	.L180:
 173:Middlewares/LVGL/GUI/lvgl/src/core/lv_indev.c ****         }
 2389              		.loc 1 173 13 is_stmt 1 view .LVU769
ARM GAS  C:\Users\ADMINI~1\AppData\Local\Temp\ccU2iQFc.s 			page 75


 173:Middlewares/LVGL/GUI/lvgl/src/core/lv_indev.c ****         }
 2390              		.loc 1 173 17 is_stmt 0 view .LVU770
 2391 0060 FFF7FEFF 		bl	lv_indev_get_next
 2392              	.LVL222:
 2393              	.L179:
 160:Middlewares/LVGL/GUI/lvgl/src/core/lv_indev.c ****             i->proc.reset_query = 1;
 2394              		.loc 1 160 14 is_stmt 1 view .LVU771
 2395 0064 D8B1     		cbz	r0, .L190
 161:Middlewares/LVGL/GUI/lvgl/src/core/lv_indev.c ****             if(i->driver->type == LV_INDEV_TYPE_POINTER || i->driver->type == LV_INDEV_TYPE_KEYPAD)
 2396              		.loc 1 161 13 view .LVU772
 161:Middlewares/LVGL/GUI/lvgl/src/core/lv_indev.c ****             if(i->driver->type == LV_INDEV_TYPE_POINTER || i->driver->type == LV_INDEV_TYPE_KEYPAD)
 2397              		.loc 1 161 33 is_stmt 0 view .LVU773
 2398 0066 4379     		ldrb	r3, [r0, #5]	@ zero_extendqisi2
 2399 0068 43F00203 		orr	r3, r3, #2
 2400 006c 4371     		strb	r3, [r0, #5]
 162:Middlewares/LVGL/GUI/lvgl/src/core/lv_indev.c ****                 if(obj == NULL || i->proc.types.pointer.last_pressed == obj) {
 2401              		.loc 1 162 13 is_stmt 1 view .LVU774
 162:Middlewares/LVGL/GUI/lvgl/src/core/lv_indev.c ****                 if(obj == NULL || i->proc.types.pointer.last_pressed == obj) {
 2402              		.loc 1 162 17 is_stmt 0 view .LVU775
 2403 006e 0368     		ldr	r3, [r0]
 162:Middlewares/LVGL/GUI/lvgl/src/core/lv_indev.c ****                 if(obj == NULL || i->proc.types.pointer.last_pressed == obj) {
 2404              		.loc 1 162 25 view .LVU776
 2405 0070 1B78     		ldrb	r3, [r3]	@ zero_extendqisi2
 162:Middlewares/LVGL/GUI/lvgl/src/core/lv_indev.c ****                 if(obj == NULL || i->proc.types.pointer.last_pressed == obj) {
 2406              		.loc 1 162 57 view .LVU777
 2407 0072 013B     		subs	r3, r3, #1
 2408 0074 DBB2     		uxtb	r3, r3
 162:Middlewares/LVGL/GUI/lvgl/src/core/lv_indev.c ****                 if(obj == NULL || i->proc.types.pointer.last_pressed == obj) {
 2409              		.loc 1 162 15 view .LVU778
 2410 0076 012B     		cmp	r3, #1
 2411 0078 F2D8     		bhi	.L180
 163:Middlewares/LVGL/GUI/lvgl/src/core/lv_indev.c ****                     i->proc.types.pointer.last_pressed = NULL;
 2412              		.loc 1 163 17 is_stmt 1 view .LVU779
 163:Middlewares/LVGL/GUI/lvgl/src/core/lv_indev.c ****                     i->proc.types.pointer.last_pressed = NULL;
 2413              		.loc 1 163 19 is_stmt 0 view .LVU780
 2414 007a 14B1     		cbz	r4, .L181
 163:Middlewares/LVGL/GUI/lvgl/src/core/lv_indev.c ****                     i->proc.types.pointer.last_pressed = NULL;
 2415              		.loc 1 163 56 discriminator 1 view .LVU781
 2416 007c C36C     		ldr	r3, [r0, #76]
 163:Middlewares/LVGL/GUI/lvgl/src/core/lv_indev.c ****                     i->proc.types.pointer.last_pressed = NULL;
 2417              		.loc 1 163 32 discriminator 1 view .LVU782
 2418 007e A342     		cmp	r3, r4
 2419 0080 01D1     		bne	.L182
 2420              	.L181:
 164:Middlewares/LVGL/GUI/lvgl/src/core/lv_indev.c ****                 }
 2421              		.loc 1 164 21 is_stmt 1 view .LVU783
 164:Middlewares/LVGL/GUI/lvgl/src/core/lv_indev.c ****                 }
 2422              		.loc 1 164 56 is_stmt 0 view .LVU784
 2423 0082 0023     		movs	r3, #0
 2424 0084 C364     		str	r3, [r0, #76]
 2425              	.L182:
 166:Middlewares/LVGL/GUI/lvgl/src/core/lv_indev.c ****                     i->proc.types.pointer.act_obj = NULL;
 2426              		.loc 1 166 17 is_stmt 1 view .LVU785
 166:Middlewares/LVGL/GUI/lvgl/src/core/lv_indev.c ****                     i->proc.types.pointer.act_obj = NULL;
 2427              		.loc 1 166 19 is_stmt 0 view .LVU786
 2428 0086 14B1     		cbz	r4, .L183
 166:Middlewares/LVGL/GUI/lvgl/src/core/lv_indev.c ****                     i->proc.types.pointer.act_obj = NULL;
ARM GAS  C:\Users\ADMINI~1\AppData\Local\Temp\ccU2iQFc.s 			page 76


 2429              		.loc 1 166 56 discriminator 1 view .LVU787
 2430 0088 036C     		ldr	r3, [r0, #64]
 166:Middlewares/LVGL/GUI/lvgl/src/core/lv_indev.c ****                     i->proc.types.pointer.act_obj = NULL;
 2431              		.loc 1 166 32 discriminator 1 view .LVU788
 2432 008a A342     		cmp	r3, r4
 2433 008c 01D1     		bne	.L184
 2434              	.L183:
 167:Middlewares/LVGL/GUI/lvgl/src/core/lv_indev.c ****                 }
 2435              		.loc 1 167 21 is_stmt 1 view .LVU789
 167:Middlewares/LVGL/GUI/lvgl/src/core/lv_indev.c ****                 }
 2436              		.loc 1 167 51 is_stmt 0 view .LVU790
 2437 008e 0023     		movs	r3, #0
 2438 0090 0364     		str	r3, [r0, #64]
 2439              	.L184:
 169:Middlewares/LVGL/GUI/lvgl/src/core/lv_indev.c ****                     i->proc.types.pointer.last_obj = NULL;
 2440              		.loc 1 169 17 is_stmt 1 view .LVU791
 169:Middlewares/LVGL/GUI/lvgl/src/core/lv_indev.c ****                     i->proc.types.pointer.last_obj = NULL;
 2441              		.loc 1 169 19 is_stmt 0 view .LVU792
 2442 0092 002C     		cmp	r4, #0
 2443 0094 E2D0     		beq	.L185
 169:Middlewares/LVGL/GUI/lvgl/src/core/lv_indev.c ****                     i->proc.types.pointer.last_obj = NULL;
 2444              		.loc 1 169 56 discriminator 1 view .LVU793
 2445 0096 436C     		ldr	r3, [r0, #68]
 169:Middlewares/LVGL/GUI/lvgl/src/core/lv_indev.c ****                     i->proc.types.pointer.last_obj = NULL;
 2446              		.loc 1 169 32 discriminator 1 view .LVU794
 2447 0098 A342     		cmp	r3, r4
 2448 009a E1D1     		bne	.L180
 2449 009c DEE7     		b	.L185
 2450              	.L190:
 175:Middlewares/LVGL/GUI/lvgl/src/core/lv_indev.c ****     }
 2451              		.loc 1 175 9 is_stmt 1 view .LVU795
 175:Middlewares/LVGL/GUI/lvgl/src/core/lv_indev.c ****     }
 2452              		.loc 1 175 23 is_stmt 0 view .LVU796
 2453 009e 034B     		ldr	r3, .L191+4
 2454 00a0 0022     		movs	r2, #0
 2455 00a2 1A60     		str	r2, [r3]
 2456              	.LBE7:
 177:Middlewares/LVGL/GUI/lvgl/src/core/lv_indev.c **** 
 2457              		.loc 1 177 1 view .LVU797
 2458 00a4 BEE7     		b	.L170
 2459              	.L192:
 2460 00a6 00BF     		.align	2
 2461              	.L191:
 2462 00a8 00000000 		.word	.LANCHOR1
 2463 00ac 00000000 		.word	.LANCHOR0
 2464              		.cfi_endproc
 2465              	.LFE163:
 2467              		.section	.text.lv_indev_reset_long_press,"ax",%progbits
 2468              		.align	1
 2469              		.global	lv_indev_reset_long_press
 2470              		.syntax unified
 2471              		.thumb
 2472              		.thumb_func
 2474              	lv_indev_reset_long_press:
 2475              	.LVL223:
 2476              	.LFB164:
 180:Middlewares/LVGL/GUI/lvgl/src/core/lv_indev.c ****     indev->proc.long_pr_sent         = 0;
ARM GAS  C:\Users\ADMINI~1\AppData\Local\Temp\ccU2iQFc.s 			page 77


 2477              		.loc 1 180 1 is_stmt 1 view -0
 2478              		.cfi_startproc
 2479              		@ args = 0, pretend = 0, frame = 0
 2480              		@ frame_needed = 0, uses_anonymous_args = 0
 180:Middlewares/LVGL/GUI/lvgl/src/core/lv_indev.c ****     indev->proc.long_pr_sent         = 0;
 2481              		.loc 1 180 1 is_stmt 0 view .LVU799
 2482 0000 10B5     		push	{r4, lr}
 2483              	.LCFI6:
 2484              		.cfi_def_cfa_offset 8
 2485              		.cfi_offset 4, -8
 2486              		.cfi_offset 14, -4
 2487 0002 0446     		mov	r4, r0
 181:Middlewares/LVGL/GUI/lvgl/src/core/lv_indev.c ****     indev->proc.longpr_rep_timestamp = lv_tick_get();
 2488              		.loc 1 181 5 is_stmt 1 view .LVU800
 181:Middlewares/LVGL/GUI/lvgl/src/core/lv_indev.c ****     indev->proc.longpr_rep_timestamp = lv_tick_get();
 2489              		.loc 1 181 38 is_stmt 0 view .LVU801
 2490 0004 4379     		ldrb	r3, [r0, #5]	@ zero_extendqisi2
 2491 0006 6FF30003 		bfc	r3, #0, #1
 2492 000a 4371     		strb	r3, [r0, #5]
 182:Middlewares/LVGL/GUI/lvgl/src/core/lv_indev.c ****     indev->proc.pr_timestamp         = lv_tick_get();
 2493              		.loc 1 182 5 is_stmt 1 view .LVU802
 182:Middlewares/LVGL/GUI/lvgl/src/core/lv_indev.c ****     indev->proc.pr_timestamp         = lv_tick_get();
 2494              		.loc 1 182 40 is_stmt 0 view .LVU803
 2495 000c FFF7FEFF 		bl	lv_tick_get
 2496              	.LVL224:
 182:Middlewares/LVGL/GUI/lvgl/src/core/lv_indev.c ****     indev->proc.pr_timestamp         = lv_tick_get();
 2497              		.loc 1 182 38 view .LVU804
 2498 0010 2067     		str	r0, [r4, #112]
 183:Middlewares/LVGL/GUI/lvgl/src/core/lv_indev.c **** }
 2499              		.loc 1 183 5 is_stmt 1 view .LVU805
 183:Middlewares/LVGL/GUI/lvgl/src/core/lv_indev.c **** }
 2500              		.loc 1 183 40 is_stmt 0 view .LVU806
 2501 0012 FFF7FEFF 		bl	lv_tick_get
 2502              	.LVL225:
 183:Middlewares/LVGL/GUI/lvgl/src/core/lv_indev.c **** }
 2503              		.loc 1 183 38 view .LVU807
 2504 0016 E066     		str	r0, [r4, #108]
 184:Middlewares/LVGL/GUI/lvgl/src/core/lv_indev.c **** 
 2505              		.loc 1 184 1 view .LVU808
 2506 0018 10BD     		pop	{r4, pc}
 184:Middlewares/LVGL/GUI/lvgl/src/core/lv_indev.c **** 
 2507              		.loc 1 184 1 view .LVU809
 2508              		.cfi_endproc
 2509              	.LFE164:
 2511              		.section	.text.lv_indev_set_cursor,"ax",%progbits
 2512              		.align	1
 2513              		.global	lv_indev_set_cursor
 2514              		.syntax unified
 2515              		.thumb
 2516              		.thumb_func
 2518              	lv_indev_set_cursor:
 2519              	.LVL226:
 2520              	.LFB165:
 187:Middlewares/LVGL/GUI/lvgl/src/core/lv_indev.c ****     if(indev->driver->type != LV_INDEV_TYPE_POINTER) return;
 2521              		.loc 1 187 1 is_stmt 1 view -0
 2522              		.cfi_startproc
 2523              		@ args = 0, pretend = 0, frame = 0
ARM GAS  C:\Users\ADMINI~1\AppData\Local\Temp\ccU2iQFc.s 			page 78


 2524              		@ frame_needed = 0, uses_anonymous_args = 0
 187:Middlewares/LVGL/GUI/lvgl/src/core/lv_indev.c ****     if(indev->driver->type != LV_INDEV_TYPE_POINTER) return;
 2525              		.loc 1 187 1 is_stmt 0 view .LVU811
 2526 0000 38B5     		push	{r3, r4, r5, lr}
 2527              	.LCFI7:
 2528              		.cfi_def_cfa_offset 16
 2529              		.cfi_offset 3, -16
 2530              		.cfi_offset 4, -12
 2531              		.cfi_offset 5, -8
 2532              		.cfi_offset 14, -4
 188:Middlewares/LVGL/GUI/lvgl/src/core/lv_indev.c **** 
 2533              		.loc 1 188 5 is_stmt 1 view .LVU812
 188:Middlewares/LVGL/GUI/lvgl/src/core/lv_indev.c **** 
 2534              		.loc 1 188 13 is_stmt 0 view .LVU813
 2535 0002 0368     		ldr	r3, [r0]
 188:Middlewares/LVGL/GUI/lvgl/src/core/lv_indev.c **** 
 2536              		.loc 1 188 21 view .LVU814
 2537 0004 1A78     		ldrb	r2, [r3]	@ zero_extendqisi2
 188:Middlewares/LVGL/GUI/lvgl/src/core/lv_indev.c **** 
 2538              		.loc 1 188 7 view .LVU815
 2539 0006 012A     		cmp	r2, #1
 2540 0008 00D0     		beq	.L198
 2541              	.LVL227:
 2542              	.L195:
 195:Middlewares/LVGL/GUI/lvgl/src/core/lv_indev.c **** 
 2543              		.loc 1 195 1 view .LVU816
 2544 000a 38BD     		pop	{r3, r4, r5, pc}
 2545              	.LVL228:
 2546              	.L198:
 195:Middlewares/LVGL/GUI/lvgl/src/core/lv_indev.c **** 
 2547              		.loc 1 195 1 view .LVU817
 2548 000c 0446     		mov	r4, r0
 2549 000e 0D46     		mov	r5, r1
 190:Middlewares/LVGL/GUI/lvgl/src/core/lv_indev.c ****     lv_obj_set_parent(indev->cursor, lv_disp_get_layer_sys(indev->driver->disp));
 2550              		.loc 1 190 5 is_stmt 1 view .LVU818
 190:Middlewares/LVGL/GUI/lvgl/src/core/lv_indev.c ****     lv_obj_set_parent(indev->cursor, lv_disp_get_layer_sys(indev->driver->disp));
 2551              		.loc 1 190 19 is_stmt 0 view .LVU819
 2552 0010 4167     		str	r1, [r0, #116]
 191:Middlewares/LVGL/GUI/lvgl/src/core/lv_indev.c ****     lv_obj_set_pos(indev->cursor, indev->proc.types.pointer.act_point.x, indev->proc.types.pointer.
 2553              		.loc 1 191 5 is_stmt 1 view .LVU820
 191:Middlewares/LVGL/GUI/lvgl/src/core/lv_indev.c ****     lv_obj_set_pos(indev->cursor, indev->proc.types.pointer.act_point.x, indev->proc.types.pointer.
 2554              		.loc 1 191 38 is_stmt 0 view .LVU821
 2555 0012 1869     		ldr	r0, [r3, #16]
 2556              	.LVL229:
 191:Middlewares/LVGL/GUI/lvgl/src/core/lv_indev.c ****     lv_obj_set_pos(indev->cursor, indev->proc.types.pointer.act_point.x, indev->proc.types.pointer.
 2557              		.loc 1 191 38 view .LVU822
 2558 0014 FFF7FEFF 		bl	lv_disp_get_layer_sys
 2559              	.LVL230:
 191:Middlewares/LVGL/GUI/lvgl/src/core/lv_indev.c ****     lv_obj_set_pos(indev->cursor, indev->proc.types.pointer.act_point.x, indev->proc.types.pointer.
 2560              		.loc 1 191 38 view .LVU823
 2561 0018 0146     		mov	r1, r0
 191:Middlewares/LVGL/GUI/lvgl/src/core/lv_indev.c ****     lv_obj_set_pos(indev->cursor, indev->proc.types.pointer.act_point.x, indev->proc.types.pointer.
 2562              		.loc 1 191 5 view .LVU824
 2563 001a 2846     		mov	r0, r5
 2564 001c FFF7FEFF 		bl	lv_obj_set_parent
 2565              	.LVL231:
 192:Middlewares/LVGL/GUI/lvgl/src/core/lv_indev.c ****     lv_obj_clear_flag(indev->cursor, LV_OBJ_FLAG_CLICKABLE);
ARM GAS  C:\Users\ADMINI~1\AppData\Local\Temp\ccU2iQFc.s 			page 79


 2566              		.loc 1 192 5 is_stmt 1 view .LVU825
 2567 0020 E268     		ldr	r2, [r4, #12]
 2568 0022 A168     		ldr	r1, [r4, #8]
 2569 0024 606F     		ldr	r0, [r4, #116]
 2570 0026 FFF7FEFF 		bl	lv_obj_set_pos
 2571              	.LVL232:
 193:Middlewares/LVGL/GUI/lvgl/src/core/lv_indev.c ****     lv_obj_add_flag(indev->cursor, LV_OBJ_FLAG_IGNORE_LAYOUT | LV_OBJ_FLAG_FLOATING);
 2572              		.loc 1 193 5 view .LVU826
 2573 002a 0221     		movs	r1, #2
 2574 002c 606F     		ldr	r0, [r4, #116]
 2575 002e FFF7FEFF 		bl	lv_obj_clear_flag
 2576              	.LVL233:
 194:Middlewares/LVGL/GUI/lvgl/src/core/lv_indev.c **** }
 2577              		.loc 1 194 5 view .LVU827
 2578 0032 4FF4C021 		mov	r1, #393216
 2579 0036 606F     		ldr	r0, [r4, #116]
 2580 0038 FFF7FEFF 		bl	lv_obj_add_flag
 2581              	.LVL234:
 2582 003c E5E7     		b	.L195
 2583              		.cfi_endproc
 2584              	.LFE165:
 2586              		.section	.text.lv_indev_set_group,"ax",%progbits
 2587              		.align	1
 2588              		.global	lv_indev_set_group
 2589              		.syntax unified
 2590              		.thumb
 2591              		.thumb_func
 2593              	lv_indev_set_group:
 2594              	.LVL235:
 2595              	.LFB166:
 198:Middlewares/LVGL/GUI/lvgl/src/core/lv_indev.c ****     if(indev->driver->type == LV_INDEV_TYPE_KEYPAD || indev->driver->type == LV_INDEV_TYPE_ENCODER)
 2596              		.loc 1 198 1 view -0
 2597              		.cfi_startproc
 2598              		@ args = 0, pretend = 0, frame = 0
 2599              		@ frame_needed = 0, uses_anonymous_args = 0
 2600              		@ link register save eliminated.
 199:Middlewares/LVGL/GUI/lvgl/src/core/lv_indev.c ****         indev->group = group;
 2601              		.loc 1 199 5 view .LVU829
 199:Middlewares/LVGL/GUI/lvgl/src/core/lv_indev.c ****         indev->group = group;
 2602              		.loc 1 199 13 is_stmt 0 view .LVU830
 2603 0000 0368     		ldr	r3, [r0]
 199:Middlewares/LVGL/GUI/lvgl/src/core/lv_indev.c ****         indev->group = group;
 2604              		.loc 1 199 21 view .LVU831
 2605 0002 1B78     		ldrb	r3, [r3]	@ zero_extendqisi2
 199:Middlewares/LVGL/GUI/lvgl/src/core/lv_indev.c ****         indev->group = group;
 2606              		.loc 1 199 7 view .LVU832
 2607 0004 022B     		cmp	r3, #2
 2608 0006 01D0     		beq	.L200
 199:Middlewares/LVGL/GUI/lvgl/src/core/lv_indev.c ****         indev->group = group;
 2609              		.loc 1 199 52 discriminator 1 view .LVU833
 2610 0008 042B     		cmp	r3, #4
 2611 000a 00D1     		bne	.L199
 2612              	.L200:
 200:Middlewares/LVGL/GUI/lvgl/src/core/lv_indev.c ****     }
 2613              		.loc 1 200 9 is_stmt 1 view .LVU834
 200:Middlewares/LVGL/GUI/lvgl/src/core/lv_indev.c ****     }
 2614              		.loc 1 200 22 is_stmt 0 view .LVU835
ARM GAS  C:\Users\ADMINI~1\AppData\Local\Temp\ccU2iQFc.s 			page 80


 2615 000c 8167     		str	r1, [r0, #120]
 2616              	.L199:
 202:Middlewares/LVGL/GUI/lvgl/src/core/lv_indev.c **** 
 2617              		.loc 1 202 1 view .LVU836
 2618 000e 7047     		bx	lr
 2619              		.cfi_endproc
 2620              	.LFE166:
 2622              		.section	.text.lv_indev_set_button_points,"ax",%progbits
 2623              		.align	1
 2624              		.global	lv_indev_set_button_points
 2625              		.syntax unified
 2626              		.thumb
 2627              		.thumb_func
 2629              	lv_indev_set_button_points:
 2630              	.LVL236:
 2631              	.LFB167:
 205:Middlewares/LVGL/GUI/lvgl/src/core/lv_indev.c ****     if(indev->driver->type == LV_INDEV_TYPE_BUTTON) {
 2632              		.loc 1 205 1 is_stmt 1 view -0
 2633              		.cfi_startproc
 2634              		@ args = 0, pretend = 0, frame = 0
 2635              		@ frame_needed = 0, uses_anonymous_args = 0
 2636              		@ link register save eliminated.
 206:Middlewares/LVGL/GUI/lvgl/src/core/lv_indev.c ****         indev->btn_points = points;
 2637              		.loc 1 206 5 view .LVU838
 206:Middlewares/LVGL/GUI/lvgl/src/core/lv_indev.c ****         indev->btn_points = points;
 2638              		.loc 1 206 13 is_stmt 0 view .LVU839
 2639 0000 0368     		ldr	r3, [r0]
 206:Middlewares/LVGL/GUI/lvgl/src/core/lv_indev.c ****         indev->btn_points = points;
 2640              		.loc 1 206 21 view .LVU840
 2641 0002 1B78     		ldrb	r3, [r3]	@ zero_extendqisi2
 206:Middlewares/LVGL/GUI/lvgl/src/core/lv_indev.c ****         indev->btn_points = points;
 2642              		.loc 1 206 7 view .LVU841
 2643 0004 032B     		cmp	r3, #3
 2644 0006 00D0     		beq	.L204
 2645              	.L202:
 209:Middlewares/LVGL/GUI/lvgl/src/core/lv_indev.c **** 
 2646              		.loc 1 209 1 view .LVU842
 2647 0008 7047     		bx	lr
 2648              	.L204:
 207:Middlewares/LVGL/GUI/lvgl/src/core/lv_indev.c ****     }
 2649              		.loc 1 207 9 is_stmt 1 view .LVU843
 207:Middlewares/LVGL/GUI/lvgl/src/core/lv_indev.c ****     }
 2650              		.loc 1 207 27 is_stmt 0 view .LVU844
 2651 000a C167     		str	r1, [r0, #124]
 209:Middlewares/LVGL/GUI/lvgl/src/core/lv_indev.c **** 
 2652              		.loc 1 209 1 view .LVU845
 2653 000c FCE7     		b	.L202
 2654              		.cfi_endproc
 2655              	.LFE167:
 2657              		.section	.text.lv_indev_get_point,"ax",%progbits
 2658              		.align	1
 2659              		.global	lv_indev_get_point
 2660              		.syntax unified
 2661              		.thumb
 2662              		.thumb_func
 2664              	lv_indev_get_point:
 2665              	.LVL237:
ARM GAS  C:\Users\ADMINI~1\AppData\Local\Temp\ccU2iQFc.s 			page 81


 2666              	.LFB168:
 212:Middlewares/LVGL/GUI/lvgl/src/core/lv_indev.c ****     if(indev == NULL) {
 2667              		.loc 1 212 1 is_stmt 1 view -0
 2668              		.cfi_startproc
 2669              		@ args = 0, pretend = 0, frame = 0
 2670              		@ frame_needed = 0, uses_anonymous_args = 0
 2671              		@ link register save eliminated.
 213:Middlewares/LVGL/GUI/lvgl/src/core/lv_indev.c ****         point->x = 0;
 2672              		.loc 1 213 5 view .LVU847
 213:Middlewares/LVGL/GUI/lvgl/src/core/lv_indev.c ****         point->x = 0;
 2673              		.loc 1 213 7 is_stmt 0 view .LVU848
 2674 0000 0346     		mov	r3, r0
 2675 0002 50B1     		cbz	r0, .L209
 218:Middlewares/LVGL/GUI/lvgl/src/core/lv_indev.c ****         point->x = -1;
 2676              		.loc 1 218 5 is_stmt 1 view .LVU849
 218:Middlewares/LVGL/GUI/lvgl/src/core/lv_indev.c ****         point->x = -1;
 2677              		.loc 1 218 13 is_stmt 0 view .LVU850
 2678 0004 0268     		ldr	r2, [r0]
 218:Middlewares/LVGL/GUI/lvgl/src/core/lv_indev.c ****         point->x = -1;
 2679              		.loc 1 218 21 view .LVU851
 2680 0006 1278     		ldrb	r2, [r2]	@ zero_extendqisi2
 218:Middlewares/LVGL/GUI/lvgl/src/core/lv_indev.c ****         point->x = -1;
 2681              		.loc 1 218 7 view .LVU852
 2682 0008 012A     		cmp	r2, #1
 2683 000a 0AD0     		beq	.L208
 218:Middlewares/LVGL/GUI/lvgl/src/core/lv_indev.c ****         point->x = -1;
 2684              		.loc 1 218 53 discriminator 1 view .LVU853
 2685 000c 032A     		cmp	r2, #3
 2686 000e 08D0     		beq	.L208
 219:Middlewares/LVGL/GUI/lvgl/src/core/lv_indev.c ****         point->y = -1;
 2687              		.loc 1 219 9 is_stmt 1 view .LVU854
 219:Middlewares/LVGL/GUI/lvgl/src/core/lv_indev.c ****         point->y = -1;
 2688              		.loc 1 219 18 is_stmt 0 view .LVU855
 2689 0010 4FF0FF33 		mov	r3, #-1
 2690 0014 0B60     		str	r3, [r1]
 220:Middlewares/LVGL/GUI/lvgl/src/core/lv_indev.c ****     }
 2691              		.loc 1 220 9 is_stmt 1 view .LVU856
 220:Middlewares/LVGL/GUI/lvgl/src/core/lv_indev.c ****     }
 2692              		.loc 1 220 18 is_stmt 0 view .LVU857
 2693 0016 4B60     		str	r3, [r1, #4]
 2694 0018 7047     		bx	lr
 2695              	.L209:
 214:Middlewares/LVGL/GUI/lvgl/src/core/lv_indev.c ****         point->y = 0;
 2696              		.loc 1 214 9 is_stmt 1 view .LVU858
 214:Middlewares/LVGL/GUI/lvgl/src/core/lv_indev.c ****         point->y = 0;
 2697              		.loc 1 214 18 is_stmt 0 view .LVU859
 2698 001a 0023     		movs	r3, #0
 2699 001c 0B60     		str	r3, [r1]
 215:Middlewares/LVGL/GUI/lvgl/src/core/lv_indev.c ****         return;
 2700              		.loc 1 215 9 is_stmt 1 view .LVU860
 215:Middlewares/LVGL/GUI/lvgl/src/core/lv_indev.c ****         return;
 2701              		.loc 1 215 18 is_stmt 0 view .LVU861
 2702 001e 4B60     		str	r3, [r1, #4]
 216:Middlewares/LVGL/GUI/lvgl/src/core/lv_indev.c ****     }
 2703              		.loc 1 216 9 is_stmt 1 view .LVU862
 2704 0020 7047     		bx	lr
 2705              	.L208:
ARM GAS  C:\Users\ADMINI~1\AppData\Local\Temp\ccU2iQFc.s 			page 82


 223:Middlewares/LVGL/GUI/lvgl/src/core/lv_indev.c ****         point->y = indev->proc.types.pointer.act_point.y;
 2706              		.loc 1 223 9 view .LVU863
 223:Middlewares/LVGL/GUI/lvgl/src/core/lv_indev.c ****         point->y = indev->proc.types.pointer.act_point.y;
 2707              		.loc 1 223 55 is_stmt 0 view .LVU864
 2708 0022 9A68     		ldr	r2, [r3, #8]
 223:Middlewares/LVGL/GUI/lvgl/src/core/lv_indev.c ****         point->y = indev->proc.types.pointer.act_point.y;
 2709              		.loc 1 223 18 view .LVU865
 2710 0024 0A60     		str	r2, [r1]
 224:Middlewares/LVGL/GUI/lvgl/src/core/lv_indev.c ****     }
 2711              		.loc 1 224 9 is_stmt 1 view .LVU866
 224:Middlewares/LVGL/GUI/lvgl/src/core/lv_indev.c ****     }
 2712              		.loc 1 224 55 is_stmt 0 view .LVU867
 2713 0026 DB68     		ldr	r3, [r3, #12]
 224:Middlewares/LVGL/GUI/lvgl/src/core/lv_indev.c ****     }
 2714              		.loc 1 224 18 view .LVU868
 2715 0028 4B60     		str	r3, [r1, #4]
 226:Middlewares/LVGL/GUI/lvgl/src/core/lv_indev.c **** 
 2716              		.loc 1 226 1 view .LVU869
 2717 002a 7047     		bx	lr
 2718              		.cfi_endproc
 2719              	.LFE168:
 2721              		.section	.text.lv_indev_get_gesture_dir,"ax",%progbits
 2722              		.align	1
 2723              		.global	lv_indev_get_gesture_dir
 2724              		.syntax unified
 2725              		.thumb
 2726              		.thumb_func
 2728              	lv_indev_get_gesture_dir:
 2729              	.LVL238:
 2730              	.LFB169:
 229:Middlewares/LVGL/GUI/lvgl/src/core/lv_indev.c ****     return indev->proc.types.pointer.gesture_dir;
 2731              		.loc 1 229 1 is_stmt 1 view -0
 2732              		.cfi_startproc
 2733              		@ args = 0, pretend = 0, frame = 0
 2734              		@ frame_needed = 0, uses_anonymous_args = 0
 2735              		@ link register save eliminated.
 230:Middlewares/LVGL/GUI/lvgl/src/core/lv_indev.c **** }
 2736              		.loc 1 230 5 view .LVU871
 230:Middlewares/LVGL/GUI/lvgl/src/core/lv_indev.c **** }
 2737              		.loc 1 230 37 is_stmt 0 view .LVU872
 2738 0000 90F86800 		ldrb	r0, [r0, #104]	@ zero_extendqisi2
 2739              	.LVL239:
 231:Middlewares/LVGL/GUI/lvgl/src/core/lv_indev.c **** 
 2740              		.loc 1 231 1 view .LVU873
 2741 0004 0009     		lsrs	r0, r0, #4
 2742 0006 7047     		bx	lr
 2743              		.cfi_endproc
 2744              	.LFE169:
 2746              		.section	.text.lv_indev_get_key,"ax",%progbits
 2747              		.align	1
 2748              		.global	lv_indev_get_key
 2749              		.syntax unified
 2750              		.thumb
 2751              		.thumb_func
 2753              	lv_indev_get_key:
 2754              	.LVL240:
 2755              	.LFB170:
ARM GAS  C:\Users\ADMINI~1\AppData\Local\Temp\ccU2iQFc.s 			page 83


 234:Middlewares/LVGL/GUI/lvgl/src/core/lv_indev.c ****     if(indev->driver->type != LV_INDEV_TYPE_KEYPAD)
 2756              		.loc 1 234 1 is_stmt 1 view -0
 2757              		.cfi_startproc
 2758              		@ args = 0, pretend = 0, frame = 0
 2759              		@ frame_needed = 0, uses_anonymous_args = 0
 2760              		@ link register save eliminated.
 235:Middlewares/LVGL/GUI/lvgl/src/core/lv_indev.c ****         return 0;
 2761              		.loc 1 235 5 view .LVU875
 235:Middlewares/LVGL/GUI/lvgl/src/core/lv_indev.c ****         return 0;
 2762              		.loc 1 235 13 is_stmt 0 view .LVU876
 2763 0000 0368     		ldr	r3, [r0]
 235:Middlewares/LVGL/GUI/lvgl/src/core/lv_indev.c ****         return 0;
 2764              		.loc 1 235 21 view .LVU877
 2765 0002 1B78     		ldrb	r3, [r3]	@ zero_extendqisi2
 235:Middlewares/LVGL/GUI/lvgl/src/core/lv_indev.c ****         return 0;
 2766              		.loc 1 235 7 view .LVU878
 2767 0004 022B     		cmp	r3, #2
 2768 0006 01D0     		beq	.L214
 236:Middlewares/LVGL/GUI/lvgl/src/core/lv_indev.c ****     else
 2769              		.loc 1 236 16 view .LVU879
 2770 0008 0020     		movs	r0, #0
 2771              	.LVL241:
 239:Middlewares/LVGL/GUI/lvgl/src/core/lv_indev.c **** 
 2772              		.loc 1 239 1 view .LVU880
 2773 000a 7047     		bx	lr
 2774              	.LVL242:
 2775              	.L214:
 238:Middlewares/LVGL/GUI/lvgl/src/core/lv_indev.c **** }
 2776              		.loc 1 238 9 is_stmt 1 view .LVU881
 238:Middlewares/LVGL/GUI/lvgl/src/core/lv_indev.c **** }
 2777              		.loc 1 238 40 is_stmt 0 view .LVU882
 2778 000c C068     		ldr	r0, [r0, #12]
 2779              	.LVL243:
 238:Middlewares/LVGL/GUI/lvgl/src/core/lv_indev.c **** }
 2780              		.loc 1 238 40 view .LVU883
 2781 000e 7047     		bx	lr
 2782              		.cfi_endproc
 2783              	.LFE170:
 2785              		.section	.text.lv_indev_get_scroll_dir,"ax",%progbits
 2786              		.align	1
 2787              		.global	lv_indev_get_scroll_dir
 2788              		.syntax unified
 2789              		.thumb
 2790              		.thumb_func
 2792              	lv_indev_get_scroll_dir:
 2793              	.LVL244:
 2794              	.LFB171:
 242:Middlewares/LVGL/GUI/lvgl/src/core/lv_indev.c ****     if(indev == NULL) return false;
 2795              		.loc 1 242 1 is_stmt 1 view -0
 2796              		.cfi_startproc
 2797              		@ args = 0, pretend = 0, frame = 0
 2798              		@ frame_needed = 0, uses_anonymous_args = 0
 2799              		@ link register save eliminated.
 243:Middlewares/LVGL/GUI/lvgl/src/core/lv_indev.c ****     if(indev->driver->type != LV_INDEV_TYPE_POINTER && indev->driver->type != LV_INDEV_TYPE_BUTTON)
 2800              		.loc 1 243 5 view .LVU885
 243:Middlewares/LVGL/GUI/lvgl/src/core/lv_indev.c ****     if(indev->driver->type != LV_INDEV_TYPE_POINTER && indev->driver->type != LV_INDEV_TYPE_BUTTON)
 2801              		.loc 1 243 7 is_stmt 0 view .LVU886
ARM GAS  C:\Users\ADMINI~1\AppData\Local\Temp\ccU2iQFc.s 			page 84


 2802 0000 0346     		mov	r3, r0
 2803 0002 50B1     		cbz	r0, .L218
 244:Middlewares/LVGL/GUI/lvgl/src/core/lv_indev.c ****     return indev->proc.types.pointer.scroll_dir;
 2804              		.loc 1 244 5 is_stmt 1 view .LVU887
 244:Middlewares/LVGL/GUI/lvgl/src/core/lv_indev.c ****     return indev->proc.types.pointer.scroll_dir;
 2805              		.loc 1 244 13 is_stmt 0 view .LVU888
 2806 0004 0268     		ldr	r2, [r0]
 244:Middlewares/LVGL/GUI/lvgl/src/core/lv_indev.c ****     return indev->proc.types.pointer.scroll_dir;
 2807              		.loc 1 244 21 view .LVU889
 2808 0006 1278     		ldrb	r2, [r2]	@ zero_extendqisi2
 244:Middlewares/LVGL/GUI/lvgl/src/core/lv_indev.c ****     return indev->proc.types.pointer.scroll_dir;
 2809              		.loc 1 244 7 view .LVU890
 2810 0008 012A     		cmp	r2, #1
 2811 000a 01D0     		beq	.L217
 244:Middlewares/LVGL/GUI/lvgl/src/core/lv_indev.c ****     return indev->proc.types.pointer.scroll_dir;
 2812              		.loc 1 244 53 discriminator 1 view .LVU891
 2813 000c 032A     		cmp	r2, #3
 2814 000e 06D1     		bne	.L219
 2815              	.L217:
 245:Middlewares/LVGL/GUI/lvgl/src/core/lv_indev.c **** }
 2816              		.loc 1 245 5 is_stmt 1 view .LVU892
 245:Middlewares/LVGL/GUI/lvgl/src/core/lv_indev.c **** }
 2817              		.loc 1 245 37 is_stmt 0 view .LVU893
 2818 0010 93F86800 		ldrb	r0, [r3, #104]	@ zero_extendqisi2
 2819              	.LVL245:
 245:Middlewares/LVGL/GUI/lvgl/src/core/lv_indev.c **** }
 2820              		.loc 1 245 37 view .LVU894
 2821 0014 00F00F00 		and	r0, r0, #15
 2822 0018 7047     		bx	lr
 2823              	.LVL246:
 2824              	.L218:
 243:Middlewares/LVGL/GUI/lvgl/src/core/lv_indev.c ****     if(indev->driver->type != LV_INDEV_TYPE_POINTER && indev->driver->type != LV_INDEV_TYPE_BUTTON)
 2825              		.loc 1 243 30 view .LVU895
 2826 001a 0020     		movs	r0, #0
 2827              	.LVL247:
 243:Middlewares/LVGL/GUI/lvgl/src/core/lv_indev.c ****     if(indev->driver->type != LV_INDEV_TYPE_POINTER && indev->driver->type != LV_INDEV_TYPE_BUTTON)
 2828              		.loc 1 243 30 view .LVU896
 2829 001c 7047     		bx	lr
 2830              	.LVL248:
 2831              	.L219:
 244:Middlewares/LVGL/GUI/lvgl/src/core/lv_indev.c ****     return indev->proc.types.pointer.scroll_dir;
 2832              		.loc 1 244 108 view .LVU897
 2833 001e 0020     		movs	r0, #0
 2834              	.LVL249:
 246:Middlewares/LVGL/GUI/lvgl/src/core/lv_indev.c **** 
 2835              		.loc 1 246 1 view .LVU898
 2836 0020 7047     		bx	lr
 2837              		.cfi_endproc
 2838              	.LFE171:
 2840              		.section	.text.lv_indev_get_scroll_obj,"ax",%progbits
 2841              		.align	1
 2842              		.global	lv_indev_get_scroll_obj
 2843              		.syntax unified
 2844              		.thumb
 2845              		.thumb_func
 2847              	lv_indev_get_scroll_obj:
 2848              	.LVL250:
ARM GAS  C:\Users\ADMINI~1\AppData\Local\Temp\ccU2iQFc.s 			page 85


 2849              	.LFB172:
 249:Middlewares/LVGL/GUI/lvgl/src/core/lv_indev.c ****     if(indev == NULL) return NULL;
 2850              		.loc 1 249 1 is_stmt 1 view -0
 2851              		.cfi_startproc
 2852              		@ args = 0, pretend = 0, frame = 0
 2853              		@ frame_needed = 0, uses_anonymous_args = 0
 2854              		@ link register save eliminated.
 250:Middlewares/LVGL/GUI/lvgl/src/core/lv_indev.c ****     if(indev->driver->type != LV_INDEV_TYPE_POINTER && indev->driver->type != LV_INDEV_TYPE_BUTTON)
 2855              		.loc 1 250 5 view .LVU900
 250:Middlewares/LVGL/GUI/lvgl/src/core/lv_indev.c ****     if(indev->driver->type != LV_INDEV_TYPE_POINTER && indev->driver->type != LV_INDEV_TYPE_BUTTON)
 2856              		.loc 1 250 7 is_stmt 0 view .LVU901
 2857 0000 0346     		mov	r3, r0
 2858 0002 38B1     		cbz	r0, .L223
 251:Middlewares/LVGL/GUI/lvgl/src/core/lv_indev.c ****     return indev->proc.types.pointer.scroll_obj;
 2859              		.loc 1 251 5 is_stmt 1 view .LVU902
 251:Middlewares/LVGL/GUI/lvgl/src/core/lv_indev.c ****     return indev->proc.types.pointer.scroll_obj;
 2860              		.loc 1 251 13 is_stmt 0 view .LVU903
 2861 0004 0268     		ldr	r2, [r0]
 251:Middlewares/LVGL/GUI/lvgl/src/core/lv_indev.c ****     return indev->proc.types.pointer.scroll_obj;
 2862              		.loc 1 251 21 view .LVU904
 2863 0006 1278     		ldrb	r2, [r2]	@ zero_extendqisi2
 251:Middlewares/LVGL/GUI/lvgl/src/core/lv_indev.c ****     return indev->proc.types.pointer.scroll_obj;
 2864              		.loc 1 251 7 view .LVU905
 2865 0008 012A     		cmp	r2, #1
 2866 000a 01D0     		beq	.L222
 251:Middlewares/LVGL/GUI/lvgl/src/core/lv_indev.c ****     return indev->proc.types.pointer.scroll_obj;
 2867              		.loc 1 251 53 discriminator 1 view .LVU906
 2868 000c 032A     		cmp	r2, #3
 2869 000e 02D1     		bne	.L224
 2870              	.L222:
 252:Middlewares/LVGL/GUI/lvgl/src/core/lv_indev.c **** }
 2871              		.loc 1 252 5 is_stmt 1 view .LVU907
 252:Middlewares/LVGL/GUI/lvgl/src/core/lv_indev.c **** }
 2872              		.loc 1 252 37 is_stmt 0 view .LVU908
 2873 0010 986C     		ldr	r0, [r3, #72]
 2874              	.LVL251:
 252:Middlewares/LVGL/GUI/lvgl/src/core/lv_indev.c **** }
 2875              		.loc 1 252 37 view .LVU909
 2876 0012 7047     		bx	lr
 2877              	.LVL252:
 2878              	.L223:
 252:Middlewares/LVGL/GUI/lvgl/src/core/lv_indev.c **** }
 2879              		.loc 1 252 37 view .LVU910
 2880 0014 7047     		bx	lr
 2881              	.L224:
 251:Middlewares/LVGL/GUI/lvgl/src/core/lv_indev.c ****     return indev->proc.types.pointer.scroll_obj;
 2882              		.loc 1 251 108 view .LVU911
 2883 0016 0020     		movs	r0, #0
 2884              	.LVL253:
 253:Middlewares/LVGL/GUI/lvgl/src/core/lv_indev.c **** 
 2885              		.loc 1 253 1 view .LVU912
 2886 0018 7047     		bx	lr
 2887              		.cfi_endproc
 2888              	.LFE172:
 2890              		.section	.text.lv_indev_get_vect,"ax",%progbits
 2891              		.align	1
 2892              		.global	lv_indev_get_vect
ARM GAS  C:\Users\ADMINI~1\AppData\Local\Temp\ccU2iQFc.s 			page 86


 2893              		.syntax unified
 2894              		.thumb
 2895              		.thumb_func
 2897              	lv_indev_get_vect:
 2898              	.LVL254:
 2899              	.LFB173:
 256:Middlewares/LVGL/GUI/lvgl/src/core/lv_indev.c ****     point->x = 0;
 2900              		.loc 1 256 1 is_stmt 1 view -0
 2901              		.cfi_startproc
 2902              		@ args = 0, pretend = 0, frame = 0
 2903              		@ frame_needed = 0, uses_anonymous_args = 0
 2904              		@ link register save eliminated.
 257:Middlewares/LVGL/GUI/lvgl/src/core/lv_indev.c ****     point->y = 0;
 2905              		.loc 1 257 5 view .LVU914
 257:Middlewares/LVGL/GUI/lvgl/src/core/lv_indev.c ****     point->y = 0;
 2906              		.loc 1 257 14 is_stmt 0 view .LVU915
 2907 0000 0023     		movs	r3, #0
 2908 0002 0B60     		str	r3, [r1]
 258:Middlewares/LVGL/GUI/lvgl/src/core/lv_indev.c **** 
 2909              		.loc 1 258 5 is_stmt 1 view .LVU916
 258:Middlewares/LVGL/GUI/lvgl/src/core/lv_indev.c **** 
 2910              		.loc 1 258 14 is_stmt 0 view .LVU917
 2911 0004 4B60     		str	r3, [r1, #4]
 260:Middlewares/LVGL/GUI/lvgl/src/core/lv_indev.c **** 
 2912              		.loc 1 260 5 is_stmt 1 view .LVU918
 260:Middlewares/LVGL/GUI/lvgl/src/core/lv_indev.c **** 
 2913              		.loc 1 260 7 is_stmt 0 view .LVU919
 2914 0006 0346     		mov	r3, r0
 2915 0008 48B1     		cbz	r0, .L225
 262:Middlewares/LVGL/GUI/lvgl/src/core/lv_indev.c ****         point->x = indev->proc.types.pointer.vect.x;
 2916              		.loc 1 262 5 is_stmt 1 view .LVU920
 262:Middlewares/LVGL/GUI/lvgl/src/core/lv_indev.c ****         point->x = indev->proc.types.pointer.vect.x;
 2917              		.loc 1 262 13 is_stmt 0 view .LVU921
 2918 000a 0268     		ldr	r2, [r0]
 262:Middlewares/LVGL/GUI/lvgl/src/core/lv_indev.c ****         point->x = indev->proc.types.pointer.vect.x;
 2919              		.loc 1 262 21 view .LVU922
 2920 000c 1278     		ldrb	r2, [r2]	@ zero_extendqisi2
 262:Middlewares/LVGL/GUI/lvgl/src/core/lv_indev.c ****         point->x = indev->proc.types.pointer.vect.x;
 2921              		.loc 1 262 7 view .LVU923
 2922 000e 012A     		cmp	r2, #1
 2923 0010 01D0     		beq	.L227
 262:Middlewares/LVGL/GUI/lvgl/src/core/lv_indev.c ****         point->x = indev->proc.types.pointer.vect.x;
 2924              		.loc 1 262 53 discriminator 1 view .LVU924
 2925 0012 032A     		cmp	r2, #3
 2926 0014 03D1     		bne	.L225
 2927              	.L227:
 263:Middlewares/LVGL/GUI/lvgl/src/core/lv_indev.c ****         point->y = indev->proc.types.pointer.vect.y;
 2928              		.loc 1 263 9 is_stmt 1 view .LVU925
 263:Middlewares/LVGL/GUI/lvgl/src/core/lv_indev.c ****         point->y = indev->proc.types.pointer.vect.y;
 2929              		.loc 1 263 50 is_stmt 0 view .LVU926
 2930 0016 1A6A     		ldr	r2, [r3, #32]
 263:Middlewares/LVGL/GUI/lvgl/src/core/lv_indev.c ****         point->y = indev->proc.types.pointer.vect.y;
 2931              		.loc 1 263 18 view .LVU927
 2932 0018 0A60     		str	r2, [r1]
 264:Middlewares/LVGL/GUI/lvgl/src/core/lv_indev.c ****     }
 2933              		.loc 1 264 9 is_stmt 1 view .LVU928
 264:Middlewares/LVGL/GUI/lvgl/src/core/lv_indev.c ****     }
ARM GAS  C:\Users\ADMINI~1\AppData\Local\Temp\ccU2iQFc.s 			page 87


 2934              		.loc 1 264 50 is_stmt 0 view .LVU929
 2935 001a 5B6A     		ldr	r3, [r3, #36]
 264:Middlewares/LVGL/GUI/lvgl/src/core/lv_indev.c ****     }
 2936              		.loc 1 264 18 view .LVU930
 2937 001c 4B60     		str	r3, [r1, #4]
 2938              	.L225:
 266:Middlewares/LVGL/GUI/lvgl/src/core/lv_indev.c **** 
 2939              		.loc 1 266 1 view .LVU931
 2940 001e 7047     		bx	lr
 2941              		.cfi_endproc
 2942              	.LFE173:
 2944              		.section	.text.lv_indev_wait_release,"ax",%progbits
 2945              		.align	1
 2946              		.global	lv_indev_wait_release
 2947              		.syntax unified
 2948              		.thumb
 2949              		.thumb_func
 2951              	lv_indev_wait_release:
 2952              	.LVL255:
 2953              	.LFB174:
 269:Middlewares/LVGL/GUI/lvgl/src/core/lv_indev.c ****     if(indev == NULL)return;
 2954              		.loc 1 269 1 is_stmt 1 view -0
 2955              		.cfi_startproc
 2956              		@ args = 0, pretend = 0, frame = 0
 2957              		@ frame_needed = 0, uses_anonymous_args = 0
 2958              		@ link register save eliminated.
 270:Middlewares/LVGL/GUI/lvgl/src/core/lv_indev.c ****     indev->proc.wait_until_release = 1;
 2959              		.loc 1 270 5 view .LVU933
 270:Middlewares/LVGL/GUI/lvgl/src/core/lv_indev.c ****     indev->proc.wait_until_release = 1;
 2960              		.loc 1 270 7 is_stmt 0 view .LVU934
 2961 0000 18B1     		cbz	r0, .L228
 271:Middlewares/LVGL/GUI/lvgl/src/core/lv_indev.c **** }
 2962              		.loc 1 271 5 is_stmt 1 view .LVU935
 271:Middlewares/LVGL/GUI/lvgl/src/core/lv_indev.c **** }
 2963              		.loc 1 271 36 is_stmt 0 view .LVU936
 2964 0002 4379     		ldrb	r3, [r0, #5]	@ zero_extendqisi2
 2965 0004 43F00803 		orr	r3, r3, #8
 2966 0008 4371     		strb	r3, [r0, #5]
 2967              	.L228:
 272:Middlewares/LVGL/GUI/lvgl/src/core/lv_indev.c **** 
 2968              		.loc 1 272 1 view .LVU937
 2969 000a 7047     		bx	lr
 2970              		.cfi_endproc
 2971              	.LFE174:
 2973              		.section	.text.lv_indev_get_obj_act,"ax",%progbits
 2974              		.align	1
 2975              		.global	lv_indev_get_obj_act
 2976              		.syntax unified
 2977              		.thumb
 2978              		.thumb_func
 2980              	lv_indev_get_obj_act:
 2981              	.LFB175:
 275:Middlewares/LVGL/GUI/lvgl/src/core/lv_indev.c ****     return indev_obj_act;
 2982              		.loc 1 275 1 is_stmt 1 view -0
 2983              		.cfi_startproc
 2984              		@ args = 0, pretend = 0, frame = 0
 2985              		@ frame_needed = 0, uses_anonymous_args = 0
ARM GAS  C:\Users\ADMINI~1\AppData\Local\Temp\ccU2iQFc.s 			page 88


 2986              		@ link register save eliminated.
 276:Middlewares/LVGL/GUI/lvgl/src/core/lv_indev.c **** }
 2987              		.loc 1 276 5 view .LVU939
 277:Middlewares/LVGL/GUI/lvgl/src/core/lv_indev.c **** 
 2988              		.loc 1 277 1 is_stmt 0 view .LVU940
 2989 0000 014B     		ldr	r3, .L231
 2990 0002 1868     		ldr	r0, [r3]
 2991 0004 7047     		bx	lr
 2992              	.L232:
 2993 0006 00BF     		.align	2
 2994              	.L231:
 2995 0008 00000000 		.word	.LANCHOR0
 2996              		.cfi_endproc
 2997              	.LFE175:
 2999              		.section	.text.lv_indev_get_read_timer,"ax",%progbits
 3000              		.align	1
 3001              		.global	lv_indev_get_read_timer
 3002              		.syntax unified
 3003              		.thumb
 3004              		.thumb_func
 3006              	lv_indev_get_read_timer:
 3007              	.LVL256:
 3008              	.LFB176:
 280:Middlewares/LVGL/GUI/lvgl/src/core/lv_indev.c ****     if(!indev) {
 3009              		.loc 1 280 1 is_stmt 1 view -0
 3010              		.cfi_startproc
 3011              		@ args = 0, pretend = 0, frame = 0
 3012              		@ frame_needed = 0, uses_anonymous_args = 0
 3013              		@ link register save eliminated.
 281:Middlewares/LVGL/GUI/lvgl/src/core/lv_indev.c ****         LV_LOG_WARN("lv_indev_get_read_timer: indev was NULL");
 3014              		.loc 1 281 5 view .LVU942
 281:Middlewares/LVGL/GUI/lvgl/src/core/lv_indev.c ****         LV_LOG_WARN("lv_indev_get_read_timer: indev was NULL");
 3015              		.loc 1 281 7 is_stmt 0 view .LVU943
 3016 0000 08B1     		cbz	r0, .L235
 286:Middlewares/LVGL/GUI/lvgl/src/core/lv_indev.c **** }
 3017              		.loc 1 286 5 is_stmt 1 view .LVU944
 286:Middlewares/LVGL/GUI/lvgl/src/core/lv_indev.c **** }
 3018              		.loc 1 286 17 is_stmt 0 view .LVU945
 3019 0002 4068     		ldr	r0, [r0, #4]
 3020              	.LVL257:
 286:Middlewares/LVGL/GUI/lvgl/src/core/lv_indev.c **** }
 3021              		.loc 1 286 17 view .LVU946
 3022 0004 7047     		bx	lr
 3023              	.LVL258:
 3024              	.L235:
 287:Middlewares/LVGL/GUI/lvgl/src/core/lv_indev.c **** 
 3025              		.loc 1 287 1 view .LVU947
 3026 0006 7047     		bx	lr
 3027              		.cfi_endproc
 3028              	.LFE176:
 3030              		.section	.text.lv_indev_search_obj,"ax",%progbits
 3031              		.align	1
 3032              		.global	lv_indev_search_obj
 3033              		.syntax unified
 3034              		.thumb
 3035              		.thumb_func
 3037              	lv_indev_search_obj:
ARM GAS  C:\Users\ADMINI~1\AppData\Local\Temp\ccU2iQFc.s 			page 89


 3038              	.LVL259:
 3039              	.LFB177:
 290:Middlewares/LVGL/GUI/lvgl/src/core/lv_indev.c ****     lv_obj_t * found_p = NULL;
 3040              		.loc 1 290 1 is_stmt 1 view -0
 3041              		.cfi_startproc
 3042              		@ args = 0, pretend = 0, frame = 0
 3043              		@ frame_needed = 0, uses_anonymous_args = 0
 290:Middlewares/LVGL/GUI/lvgl/src/core/lv_indev.c ****     lv_obj_t * found_p = NULL;
 3044              		.loc 1 290 1 is_stmt 0 view .LVU949
 3045 0000 F8B5     		push	{r3, r4, r5, r6, r7, lr}
 3046              	.LCFI8:
 3047              		.cfi_def_cfa_offset 24
 3048              		.cfi_offset 3, -24
 3049              		.cfi_offset 4, -20
 3050              		.cfi_offset 5, -16
 3051              		.cfi_offset 6, -12
 3052              		.cfi_offset 7, -8
 3053              		.cfi_offset 14, -4
 3054 0002 0546     		mov	r5, r0
 3055 0004 0E46     		mov	r6, r1
 291:Middlewares/LVGL/GUI/lvgl/src/core/lv_indev.c **** 
 3056              		.loc 1 291 5 is_stmt 1 view .LVU950
 3057              	.LVL260:
 294:Middlewares/LVGL/GUI/lvgl/src/core/lv_indev.c **** 
 3058              		.loc 1 294 5 view .LVU951
 294:Middlewares/LVGL/GUI/lvgl/src/core/lv_indev.c **** 
 3059              		.loc 1 294 8 is_stmt 0 view .LVU952
 3060 0006 0121     		movs	r1, #1
 3061              	.LVL261:
 294:Middlewares/LVGL/GUI/lvgl/src/core/lv_indev.c **** 
 3062              		.loc 1 294 8 view .LVU953
 3063 0008 FFF7FEFF 		bl	lv_obj_has_flag
 3064              	.LVL262:
 294:Middlewares/LVGL/GUI/lvgl/src/core/lv_indev.c **** 
 3065              		.loc 1 294 7 view .LVU954
 3066 000c 30BB     		cbnz	r0, .L242
 296:Middlewares/LVGL/GUI/lvgl/src/core/lv_indev.c **** 
 3067              		.loc 1 296 5 is_stmt 1 view .LVU955
 296:Middlewares/LVGL/GUI/lvgl/src/core/lv_indev.c **** 
 3068              		.loc 1 296 24 is_stmt 0 view .LVU956
 3069 000e 3146     		mov	r1, r6
 3070 0010 2846     		mov	r0, r5
 3071 0012 FFF7FEFF 		bl	lv_obj_hit_test
 3072              	.LVL263:
 3073 0016 0746     		mov	r7, r0
 3074              	.LVL264:
 299:Middlewares/LVGL/GUI/lvgl/src/core/lv_indev.c ****         int32_t i;
 3075              		.loc 1 299 5 is_stmt 1 view .LVU957
 299:Middlewares/LVGL/GUI/lvgl/src/core/lv_indev.c ****         int32_t i;
 3076              		.loc 1 299 8 is_stmt 0 view .LVU958
 3077 0018 0022     		movs	r2, #0
 3078 001a 3146     		mov	r1, r6
 3079 001c 05F11400 		add	r0, r5, #20
 3080 0020 FFF7FEFF 		bl	_lv_area_is_point_on
 3081              	.LVL265:
 299:Middlewares/LVGL/GUI/lvgl/src/core/lv_indev.c ****         int32_t i;
 3082              		.loc 1 299 7 view .LVU959
ARM GAS  C:\Users\ADMINI~1\AppData\Local\Temp\ccU2iQFc.s 			page 90


 3083 0024 28B9     		cbnz	r0, .L238
 299:Middlewares/LVGL/GUI/lvgl/src/core/lv_indev.c ****         int32_t i;
 3084              		.loc 1 299 56 discriminator 1 view .LVU960
 3085 0026 4FF40021 		mov	r1, #524288
 3086 002a 2846     		mov	r0, r5
 3087 002c FFF7FEFF 		bl	lv_obj_has_flag
 3088              	.LVL266:
 299:Middlewares/LVGL/GUI/lvgl/src/core/lv_indev.c ****         int32_t i;
 3089              		.loc 1 299 53 discriminator 1 view .LVU961
 3090 0030 80B1     		cbz	r0, .L239
 3091              	.L238:
 3092              	.LBB8:
 300:Middlewares/LVGL/GUI/lvgl/src/core/lv_indev.c ****         uint32_t child_cnt = lv_obj_get_child_cnt(obj);
 3093              		.loc 1 300 9 is_stmt 1 view .LVU962
 301:Middlewares/LVGL/GUI/lvgl/src/core/lv_indev.c ****         /*If a child matches use it*/
 3094              		.loc 1 301 9 view .LVU963
 301:Middlewares/LVGL/GUI/lvgl/src/core/lv_indev.c ****         /*If a child matches use it*/
 3095              		.loc 1 301 30 is_stmt 0 view .LVU964
 3096 0032 2846     		mov	r0, r5
 3097 0034 FFF7FEFF 		bl	lv_obj_get_child_cnt
 3098              	.LVL267:
 303:Middlewares/LVGL/GUI/lvgl/src/core/lv_indev.c ****             lv_obj_t * child = obj->spec_attr->children[i];
 3099              		.loc 1 303 9 is_stmt 1 view .LVU965
 303:Middlewares/LVGL/GUI/lvgl/src/core/lv_indev.c ****             lv_obj_t * child = obj->spec_attr->children[i];
 3100              		.loc 1 303 27 is_stmt 0 view .LVU966
 3101 0038 441E     		subs	r4, r0, #1
 3102              	.LVL268:
 3103              	.L240:
 303:Middlewares/LVGL/GUI/lvgl/src/core/lv_indev.c ****             lv_obj_t * child = obj->spec_attr->children[i];
 3104              		.loc 1 303 32 is_stmt 1 discriminator 1 view .LVU967
 303:Middlewares/LVGL/GUI/lvgl/src/core/lv_indev.c ****             lv_obj_t * child = obj->spec_attr->children[i];
 3105              		.loc 1 303 9 is_stmt 0 discriminator 1 view .LVU968
 3106 003a 002C     		cmp	r4, #0
 3107 003c 0ADB     		blt	.L239
 3108              	.LBB9:
 304:Middlewares/LVGL/GUI/lvgl/src/core/lv_indev.c ****             found_p = lv_indev_search_obj(child, point);
 3109              		.loc 1 304 13 is_stmt 1 view .LVU969
 304:Middlewares/LVGL/GUI/lvgl/src/core/lv_indev.c ****             found_p = lv_indev_search_obj(child, point);
 3110              		.loc 1 304 35 is_stmt 0 view .LVU970
 3111 003e AB68     		ldr	r3, [r5, #8]
 304:Middlewares/LVGL/GUI/lvgl/src/core/lv_indev.c ****             found_p = lv_indev_search_obj(child, point);
 3112              		.loc 1 304 46 view .LVU971
 3113 0040 1B68     		ldr	r3, [r3]
 3114              	.LVL269:
 305:Middlewares/LVGL/GUI/lvgl/src/core/lv_indev.c ****             if(found_p) return found_p;
 3115              		.loc 1 305 13 is_stmt 1 view .LVU972
 305:Middlewares/LVGL/GUI/lvgl/src/core/lv_indev.c ****             if(found_p) return found_p;
 3116              		.loc 1 305 23 is_stmt 0 view .LVU973
 3117 0042 3146     		mov	r1, r6
 3118 0044 53F82400 		ldr	r0, [r3, r4, lsl #2]
 3119 0048 FFF7FEFF 		bl	lv_indev_search_obj
 3120              	.LVL270:
 306:Middlewares/LVGL/GUI/lvgl/src/core/lv_indev.c ****         }
 3121              		.loc 1 306 13 is_stmt 1 view .LVU974
 306:Middlewares/LVGL/GUI/lvgl/src/core/lv_indev.c ****         }
 3122              		.loc 1 306 15 is_stmt 0 view .LVU975
 3123 004c 0346     		mov	r3, r0
ARM GAS  C:\Users\ADMINI~1\AppData\Local\Temp\ccU2iQFc.s 			page 91


 3124 004e 18B9     		cbnz	r0, .L236
 3125              	.LBE9:
 303:Middlewares/LVGL/GUI/lvgl/src/core/lv_indev.c ****             lv_obj_t * child = obj->spec_attr->children[i];
 3126              		.loc 1 303 40 is_stmt 1 discriminator 2 view .LVU976
 303:Middlewares/LVGL/GUI/lvgl/src/core/lv_indev.c ****             lv_obj_t * child = obj->spec_attr->children[i];
 3127              		.loc 1 303 41 is_stmt 0 discriminator 2 view .LVU977
 3128 0050 013C     		subs	r4, r4, #1
 3129              	.LVL271:
 303:Middlewares/LVGL/GUI/lvgl/src/core/lv_indev.c ****             lv_obj_t * child = obj->spec_attr->children[i];
 3130              		.loc 1 303 41 discriminator 2 view .LVU978
 3131 0052 F2E7     		b	.L240
 3132              	.LVL272:
 3133              	.L239:
 303:Middlewares/LVGL/GUI/lvgl/src/core/lv_indev.c ****             lv_obj_t * child = obj->spec_attr->children[i];
 3134              		.loc 1 303 41 discriminator 2 view .LVU979
 3135              	.LBE8:
 312:Middlewares/LVGL/GUI/lvgl/src/core/lv_indev.c ****     else return NULL;
 3136              		.loc 1 312 5 is_stmt 1 view .LVU980
 312:Middlewares/LVGL/GUI/lvgl/src/core/lv_indev.c ****     else return NULL;
 3137              		.loc 1 312 7 is_stmt 0 view .LVU981
 3138 0054 27B1     		cbz	r7, .L243
 312:Middlewares/LVGL/GUI/lvgl/src/core/lv_indev.c ****     else return NULL;
 3139              		.loc 1 312 28 view .LVU982
 3140 0056 2B46     		mov	r3, r5
 3141              	.LVL273:
 3142              	.L236:
 314:Middlewares/LVGL/GUI/lvgl/src/core/lv_indev.c **** 
 3143              		.loc 1 314 1 view .LVU983
 3144 0058 1846     		mov	r0, r3
 3145 005a F8BD     		pop	{r3, r4, r5, r6, r7, pc}
 3146              	.LVL274:
 3147              	.L242:
 294:Middlewares/LVGL/GUI/lvgl/src/core/lv_indev.c **** 
 3148              		.loc 1 294 57 view .LVU984
 3149 005c 0023     		movs	r3, #0
 3150 005e FBE7     		b	.L236
 3151              	.LVL275:
 3152              	.L243:
 313:Middlewares/LVGL/GUI/lvgl/src/core/lv_indev.c **** }
 3153              		.loc 1 313 17 view .LVU985
 3154 0060 0023     		movs	r3, #0
 3155 0062 F9E7     		b	.L236
 3156              		.cfi_endproc
 3157              	.LFE177:
 3159              		.section	.text.indev_proc_press,"ax",%progbits
 3160              		.align	1
 3161              		.syntax unified
 3162              		.thumb
 3163              		.thumb_func
 3165              	indev_proc_press:
 3166              	.LVL276:
 3167              	.LFB182:
 782:Middlewares/LVGL/GUI/lvgl/src/core/lv_indev.c ****     LV_LOG_INFO("pressed at x:%d y:%d", proc->types.pointer.act_point.x, proc->types.pointer.act_po
 3168              		.loc 1 782 1 is_stmt 1 view -0
 3169              		.cfi_startproc
 3170              		@ args = 0, pretend = 0, frame = 0
 3171              		@ frame_needed = 0, uses_anonymous_args = 0
ARM GAS  C:\Users\ADMINI~1\AppData\Local\Temp\ccU2iQFc.s 			page 92


 782:Middlewares/LVGL/GUI/lvgl/src/core/lv_indev.c ****     LV_LOG_INFO("pressed at x:%d y:%d", proc->types.pointer.act_point.x, proc->types.pointer.act_po
 3172              		.loc 1 782 1 is_stmt 0 view .LVU987
 3173 0000 70B5     		push	{r4, r5, r6, lr}
 3174              	.LCFI9:
 3175              		.cfi_def_cfa_offset 16
 3176              		.cfi_offset 4, -16
 3177              		.cfi_offset 5, -12
 3178              		.cfi_offset 6, -8
 3179              		.cfi_offset 14, -4
 3180 0002 0446     		mov	r4, r0
 783:Middlewares/LVGL/GUI/lvgl/src/core/lv_indev.c ****     indev_obj_act = proc->types.pointer.act_obj;
 3181              		.loc 1 783 5 is_stmt 1 view .LVU988
 783:Middlewares/LVGL/GUI/lvgl/src/core/lv_indev.c ****     indev_obj_act = proc->types.pointer.act_obj;
 3182              		.loc 1 783 5 view .LVU989
 783:Middlewares/LVGL/GUI/lvgl/src/core/lv_indev.c ****     indev_obj_act = proc->types.pointer.act_obj;
 3183              		.loc 1 783 5 view .LVU990
 784:Middlewares/LVGL/GUI/lvgl/src/core/lv_indev.c **** 
 3184              		.loc 1 784 5 view .LVU991
 784:Middlewares/LVGL/GUI/lvgl/src/core/lv_indev.c **** 
 3185              		.loc 1 784 40 is_stmt 0 view .LVU992
 3186 0004 C06B     		ldr	r0, [r0, #60]
 3187              	.LVL277:
 784:Middlewares/LVGL/GUI/lvgl/src/core/lv_indev.c **** 
 3188              		.loc 1 784 19 view .LVU993
 3189 0006 A04B     		ldr	r3, .L263
 3190 0008 1860     		str	r0, [r3]
 786:Middlewares/LVGL/GUI/lvgl/src/core/lv_indev.c **** 
 3191              		.loc 1 786 5 is_stmt 1 view .LVU994
 786:Middlewares/LVGL/GUI/lvgl/src/core/lv_indev.c **** 
 3192              		.loc 1 786 33 is_stmt 0 view .LVU995
 3193 000a 6378     		ldrb	r3, [r4, #1]	@ zero_extendqisi2
 786:Middlewares/LVGL/GUI/lvgl/src/core/lv_indev.c **** 
 3194              		.loc 1 786 7 view .LVU996
 3195 000c 13F0080F 		tst	r3, #8
 3196 0010 40F09080 		bne	.L245
 788:Middlewares/LVGL/GUI/lvgl/src/core/lv_indev.c ****     bool new_obj_searched = false;
 3197              		.loc 1 788 5 is_stmt 1 view .LVU997
 788:Middlewares/LVGL/GUI/lvgl/src/core/lv_indev.c ****     bool new_obj_searched = false;
 3198              		.loc 1 788 33 is_stmt 0 view .LVU998
 3199 0014 9D4B     		ldr	r3, .L263+4
 3200 0016 1B68     		ldr	r3, [r3]
 3201 0018 1B68     		ldr	r3, [r3]
 788:Middlewares/LVGL/GUI/lvgl/src/core/lv_indev.c ****     bool new_obj_searched = false;
 3202              		.loc 1 788 17 view .LVU999
 3203 001a 1D69     		ldr	r5, [r3, #16]
 3204              	.LVL278:
 789:Middlewares/LVGL/GUI/lvgl/src/core/lv_indev.c **** 
 3205              		.loc 1 789 5 is_stmt 1 view .LVU1000
 792:Middlewares/LVGL/GUI/lvgl/src/core/lv_indev.c ****         indev_obj_act = lv_indev_search_obj(lv_disp_get_layer_sys(disp), &proc->types.pointer.act_p
 3206              		.loc 1 792 5 view .LVU1001
 792:Middlewares/LVGL/GUI/lvgl/src/core/lv_indev.c ****         indev_obj_act = lv_indev_search_obj(lv_disp_get_layer_sys(disp), &proc->types.pointer.act_p
 3207              		.loc 1 792 7 is_stmt 0 view .LVU1002
 3208 001c 0028     		cmp	r0, #0
 3209 001e 00F08A80 		beq	.L256
 801:Middlewares/LVGL/GUI/lvgl/src/core/lv_indev.c ****             lv_obj_has_flag(indev_obj_act, LV_OBJ_FLAG_PRESS_LOCK) == false) {
 3210              		.loc 1 801 10 is_stmt 1 view .LVU1003
 801:Middlewares/LVGL/GUI/lvgl/src/core/lv_indev.c ****             lv_obj_has_flag(indev_obj_act, LV_OBJ_FLAG_PRESS_LOCK) == false) {
ARM GAS  C:\Users\ADMINI~1\AppData\Local\Temp\ccU2iQFc.s 			page 93


 3211              		.loc 1 801 32 is_stmt 0 view .LVU1004
 3212 0022 636C     		ldr	r3, [r4, #68]
 801:Middlewares/LVGL/GUI/lvgl/src/core/lv_indev.c ****             lv_obj_has_flag(indev_obj_act, LV_OBJ_FLAG_PRESS_LOCK) == false) {
 3213              		.loc 1 801 12 view .LVU1005
 3214 0024 002B     		cmp	r3, #0
 3215 0026 00F0B680 		beq	.L257
 3216              	.LVL279:
 3217              	.L250:
 820:Middlewares/LVGL/GUI/lvgl/src/core/lv_indev.c ****         proc->types.pointer.last_point.x = proc->types.pointer.act_point.x;
 3218              		.loc 1 820 5 is_stmt 1 view .LVU1006
 820:Middlewares/LVGL/GUI/lvgl/src/core/lv_indev.c ****         proc->types.pointer.last_point.x = proc->types.pointer.act_point.x;
 3219              		.loc 1 820 44 is_stmt 0 view .LVU1007
 3220 002a E06B     		ldr	r0, [r4, #60]
 820:Middlewares/LVGL/GUI/lvgl/src/core/lv_indev.c ****         proc->types.pointer.last_point.x = proc->types.pointer.act_point.x;
 3221              		.loc 1 820 22 view .LVU1008
 3222 002c 964B     		ldr	r3, .L263
 3223 002e 1B68     		ldr	r3, [r3]
 820:Middlewares/LVGL/GUI/lvgl/src/core/lv_indev.c ****         proc->types.pointer.last_point.x = proc->types.pointer.act_point.x;
 3224              		.loc 1 820 7 view .LVU1009
 3225 0030 9842     		cmp	r0, r3
 3226 0032 4DD0     		beq	.L252
 821:Middlewares/LVGL/GUI/lvgl/src/core/lv_indev.c ****         proc->types.pointer.last_point.y = proc->types.pointer.act_point.y;
 3227              		.loc 1 821 9 is_stmt 1 view .LVU1010
 821:Middlewares/LVGL/GUI/lvgl/src/core/lv_indev.c ****         proc->types.pointer.last_point.y = proc->types.pointer.act_point.y;
 3228              		.loc 1 821 73 is_stmt 0 view .LVU1011
 3229 0034 6368     		ldr	r3, [r4, #4]
 821:Middlewares/LVGL/GUI/lvgl/src/core/lv_indev.c ****         proc->types.pointer.last_point.y = proc->types.pointer.act_point.y;
 3230              		.loc 1 821 42 view .LVU1012
 3231 0036 E360     		str	r3, [r4, #12]
 822:Middlewares/LVGL/GUI/lvgl/src/core/lv_indev.c **** 
 3232              		.loc 1 822 9 is_stmt 1 view .LVU1013
 822:Middlewares/LVGL/GUI/lvgl/src/core/lv_indev.c **** 
 3233              		.loc 1 822 73 is_stmt 0 view .LVU1014
 3234 0038 A368     		ldr	r3, [r4, #8]
 822:Middlewares/LVGL/GUI/lvgl/src/core/lv_indev.c **** 
 3235              		.loc 1 822 42 view .LVU1015
 3236 003a 2361     		str	r3, [r4, #16]
 825:Middlewares/LVGL/GUI/lvgl/src/core/lv_indev.c ****             /*Save the obj because in special cases `act_obj` can change in the Call the ancestor's
 3237              		.loc 1 825 9 is_stmt 1 view .LVU1016
 825:Middlewares/LVGL/GUI/lvgl/src/core/lv_indev.c ****             /*Save the obj because in special cases `act_obj` can change in the Call the ancestor's
 3238              		.loc 1 825 11 is_stmt 0 view .LVU1017
 3239 003c 48B1     		cbz	r0, .L253
 3240              	.LBB10:
 827:Middlewares/LVGL/GUI/lvgl/src/core/lv_indev.c **** 
 3241              		.loc 1 827 13 is_stmt 1 view .LVU1018
 3242              	.LVL280:
 829:Middlewares/LVGL/GUI/lvgl/src/core/lv_indev.c ****             if(indev_reset_check(proc)) return;
 3243              		.loc 1 829 13 view .LVU1019
 3244 003e 934B     		ldr	r3, .L263+4
 3245 0040 1A68     		ldr	r2, [r3]
 3246 0042 0321     		movs	r1, #3
 3247 0044 FFF7FEFF 		bl	lv_event_send
 3248              	.LVL281:
 830:Middlewares/LVGL/GUI/lvgl/src/core/lv_indev.c ****         }
 3249              		.loc 1 830 13 view .LVU1020
 830:Middlewares/LVGL/GUI/lvgl/src/core/lv_indev.c ****         }
 3250              		.loc 1 830 16 is_stmt 0 view .LVU1021
ARM GAS  C:\Users\ADMINI~1\AppData\Local\Temp\ccU2iQFc.s 			page 94


 3251 0048 2046     		mov	r0, r4
 3252 004a FFF7FEFF 		bl	indev_reset_check
 3253              	.LVL282:
 830:Middlewares/LVGL/GUI/lvgl/src/core/lv_indev.c ****         }
 3254              		.loc 1 830 15 view .LVU1022
 3255 004e 0028     		cmp	r0, #0
 3256 0050 70D1     		bne	.L245
 3257              	.L253:
 830:Middlewares/LVGL/GUI/lvgl/src/core/lv_indev.c ****         }
 3258              		.loc 1 830 15 view .LVU1023
 3259              	.LBE10:
 833:Middlewares/LVGL/GUI/lvgl/src/core/lv_indev.c ****         proc->types.pointer.last_obj = indev_obj_act;
 3260              		.loc 1 833 9 is_stmt 1 view .LVU1024
 833:Middlewares/LVGL/GUI/lvgl/src/core/lv_indev.c ****         proc->types.pointer.last_obj = indev_obj_act;
 3261              		.loc 1 833 38 is_stmt 0 view .LVU1025
 3262 0052 8D4B     		ldr	r3, .L263
 3263 0054 1B68     		ldr	r3, [r3]
 3264 0056 E363     		str	r3, [r4, #60]
 834:Middlewares/LVGL/GUI/lvgl/src/core/lv_indev.c **** 
 3265              		.loc 1 834 9 is_stmt 1 view .LVU1026
 834:Middlewares/LVGL/GUI/lvgl/src/core/lv_indev.c **** 
 3266              		.loc 1 834 38 is_stmt 0 view .LVU1027
 3267 0058 2364     		str	r3, [r4, #64]
 836:Middlewares/LVGL/GUI/lvgl/src/core/lv_indev.c ****             /*Save the time when the obj pressed to count long press time.*/
 3268              		.loc 1 836 9 is_stmt 1 view .LVU1028
 836:Middlewares/LVGL/GUI/lvgl/src/core/lv_indev.c ****             /*Save the time when the obj pressed to count long press time.*/
 3269              		.loc 1 836 11 is_stmt 0 view .LVU1029
 3270 005a 002B     		cmp	r3, #0
 3271 005c 38D0     		beq	.L252
 838:Middlewares/LVGL/GUI/lvgl/src/core/lv_indev.c ****             proc->long_pr_sent                 = 0;
 3272              		.loc 1 838 13 is_stmt 1 view .LVU1030
 838:Middlewares/LVGL/GUI/lvgl/src/core/lv_indev.c ****             proc->long_pr_sent                 = 0;
 3273              		.loc 1 838 50 is_stmt 0 view .LVU1031
 3274 005e FFF7FEFF 		bl	lv_tick_get
 3275              	.LVL283:
 838:Middlewares/LVGL/GUI/lvgl/src/core/lv_indev.c ****             proc->long_pr_sent                 = 0;
 3276              		.loc 1 838 48 view .LVU1032
 3277 0062 A066     		str	r0, [r4, #104]
 839:Middlewares/LVGL/GUI/lvgl/src/core/lv_indev.c ****             proc->types.pointer.scroll_sum.x     = 0;
 3278              		.loc 1 839 13 is_stmt 1 view .LVU1033
 839:Middlewares/LVGL/GUI/lvgl/src/core/lv_indev.c ****             proc->types.pointer.scroll_sum.x     = 0;
 3279              		.loc 1 839 48 is_stmt 0 view .LVU1034
 3280 0064 6378     		ldrb	r3, [r4, #1]	@ zero_extendqisi2
 3281 0066 6FF30003 		bfc	r3, #0, #1
 3282 006a 6370     		strb	r3, [r4, #1]
 840:Middlewares/LVGL/GUI/lvgl/src/core/lv_indev.c ****             proc->types.pointer.scroll_sum.y     = 0;
 3283              		.loc 1 840 13 is_stmt 1 view .LVU1035
 840:Middlewares/LVGL/GUI/lvgl/src/core/lv_indev.c ****             proc->types.pointer.scroll_sum.y     = 0;
 3284              		.loc 1 840 50 is_stmt 0 view .LVU1036
 3285 006c 0023     		movs	r3, #0
 3286 006e 6362     		str	r3, [r4, #36]
 841:Middlewares/LVGL/GUI/lvgl/src/core/lv_indev.c ****             proc->types.pointer.scroll_dir = LV_DIR_NONE;
 3287              		.loc 1 841 13 is_stmt 1 view .LVU1037
 841:Middlewares/LVGL/GUI/lvgl/src/core/lv_indev.c ****             proc->types.pointer.scroll_dir = LV_DIR_NONE;
 3288              		.loc 1 841 50 is_stmt 0 view .LVU1038
 3289 0070 A362     		str	r3, [r4, #40]
 842:Middlewares/LVGL/GUI/lvgl/src/core/lv_indev.c ****             proc->types.pointer.gesture_dir = LV_DIR_NONE;
ARM GAS  C:\Users\ADMINI~1\AppData\Local\Temp\ccU2iQFc.s 			page 95


 3290              		.loc 1 842 13 is_stmt 1 view .LVU1039
 842:Middlewares/LVGL/GUI/lvgl/src/core/lv_indev.c ****             proc->types.pointer.gesture_dir = LV_DIR_NONE;
 3291              		.loc 1 842 44 is_stmt 0 view .LVU1040
 3292 0072 94F86420 		ldrb	r2, [r4, #100]	@ zero_extendqisi2
 3293 0076 63F30302 		bfi	r2, r3, #0, #4
 3294 007a 84F86420 		strb	r2, [r4, #100]
 843:Middlewares/LVGL/GUI/lvgl/src/core/lv_indev.c ****             proc->types.pointer.gesture_sent   = 0;
 3295              		.loc 1 843 13 is_stmt 1 view .LVU1041
 843:Middlewares/LVGL/GUI/lvgl/src/core/lv_indev.c ****             proc->types.pointer.gesture_sent   = 0;
 3296              		.loc 1 843 45 is_stmt 0 view .LVU1042
 3297 007e D2B2     		uxtb	r2, r2
 3298 0080 63F30712 		bfi	r2, r3, #4, #4
 3299 0084 84F86420 		strb	r2, [r4, #100]
 844:Middlewares/LVGL/GUI/lvgl/src/core/lv_indev.c ****             proc->types.pointer.gesture_sum.x  = 0;
 3300              		.loc 1 844 13 is_stmt 1 view .LVU1043
 844:Middlewares/LVGL/GUI/lvgl/src/core/lv_indev.c ****             proc->types.pointer.gesture_sum.x  = 0;
 3301              		.loc 1 844 48 is_stmt 0 view .LVU1044
 3302 0088 94F86520 		ldrb	r2, [r4, #101]	@ zero_extendqisi2
 3303 008c 63F30002 		bfi	r2, r3, #0, #1
 3304 0090 84F86520 		strb	r2, [r4, #101]
 845:Middlewares/LVGL/GUI/lvgl/src/core/lv_indev.c ****             proc->types.pointer.gesture_sum.y  = 0;
 3305              		.loc 1 845 13 is_stmt 1 view .LVU1045
 845:Middlewares/LVGL/GUI/lvgl/src/core/lv_indev.c ****             proc->types.pointer.gesture_sum.y  = 0;
 3306              		.loc 1 845 48 is_stmt 0 view .LVU1046
 3307 0094 E365     		str	r3, [r4, #92]
 846:Middlewares/LVGL/GUI/lvgl/src/core/lv_indev.c ****             proc->types.pointer.vect.x         = 0;
 3308              		.loc 1 846 13 is_stmt 1 view .LVU1047
 846:Middlewares/LVGL/GUI/lvgl/src/core/lv_indev.c ****             proc->types.pointer.vect.x         = 0;
 3309              		.loc 1 846 48 is_stmt 0 view .LVU1048
 3310 0096 2366     		str	r3, [r4, #96]
 847:Middlewares/LVGL/GUI/lvgl/src/core/lv_indev.c ****             proc->types.pointer.vect.y         = 0;
 3311              		.loc 1 847 13 is_stmt 1 view .LVU1049
 847:Middlewares/LVGL/GUI/lvgl/src/core/lv_indev.c ****             proc->types.pointer.vect.y         = 0;
 3312              		.loc 1 847 48 is_stmt 0 view .LVU1050
 3313 0098 E361     		str	r3, [r4, #28]
 848:Middlewares/LVGL/GUI/lvgl/src/core/lv_indev.c **** 
 3314              		.loc 1 848 13 is_stmt 1 view .LVU1051
 848:Middlewares/LVGL/GUI/lvgl/src/core/lv_indev.c **** 
 3315              		.loc 1 848 48 is_stmt 0 view .LVU1052
 3316 009a 2362     		str	r3, [r4, #32]
 851:Middlewares/LVGL/GUI/lvgl/src/core/lv_indev.c ****             if(indev_reset_check(proc)) return;
 3317              		.loc 1 851 13 is_stmt 1 view .LVU1053
 3318 009c 7B4B     		ldr	r3, .L263+4
 3319 009e 1A68     		ldr	r2, [r3]
 3320 00a0 0121     		movs	r1, #1
 3321 00a2 794B     		ldr	r3, .L263
 3322 00a4 1868     		ldr	r0, [r3]
 3323 00a6 FFF7FEFF 		bl	lv_event_send
 3324              	.LVL284:
 852:Middlewares/LVGL/GUI/lvgl/src/core/lv_indev.c **** 
 3325              		.loc 1 852 13 view .LVU1054
 852:Middlewares/LVGL/GUI/lvgl/src/core/lv_indev.c **** 
 3326              		.loc 1 852 16 is_stmt 0 view .LVU1055
 3327 00aa 2046     		mov	r0, r4
 3328 00ac FFF7FEFF 		bl	indev_reset_check
 3329              	.LVL285:
 852:Middlewares/LVGL/GUI/lvgl/src/core/lv_indev.c **** 
ARM GAS  C:\Users\ADMINI~1\AppData\Local\Temp\ccU2iQFc.s 			page 96


 3330              		.loc 1 852 15 view .LVU1056
 3331 00b0 0028     		cmp	r0, #0
 3332 00b2 3FD1     		bne	.L245
 854:Middlewares/LVGL/GUI/lvgl/src/core/lv_indev.c **** 
 3333              		.loc 1 854 13 is_stmt 1 view .LVU1057
 854:Middlewares/LVGL/GUI/lvgl/src/core/lv_indev.c **** 
 3334              		.loc 1 854 25 is_stmt 0 view .LVU1058
 3335 00b4 754B     		ldr	r3, .L263+4
 3336 00b6 1868     		ldr	r0, [r3]
 854:Middlewares/LVGL/GUI/lvgl/src/core/lv_indev.c **** 
 3337              		.loc 1 854 16 view .LVU1059
 3338 00b8 4379     		ldrb	r3, [r0, #5]	@ zero_extendqisi2
 854:Middlewares/LVGL/GUI/lvgl/src/core/lv_indev.c **** 
 3339              		.loc 1 854 15 view .LVU1060
 3340 00ba 13F0080F 		tst	r3, #8
 3341 00be 39D1     		bne	.L245
 857:Middlewares/LVGL/GUI/lvgl/src/core/lv_indev.c ****             if(indev_reset_check(proc)) return;
 3342              		.loc 1 857 13 is_stmt 1 view .LVU1061
 3343 00c0 0430     		adds	r0, r0, #4
 3344 00c2 FFF7FEFF 		bl	indev_click_focus
 3345              	.LVL286:
 858:Middlewares/LVGL/GUI/lvgl/src/core/lv_indev.c **** 
 3346              		.loc 1 858 13 view .LVU1062
 858:Middlewares/LVGL/GUI/lvgl/src/core/lv_indev.c **** 
 3347              		.loc 1 858 16 is_stmt 0 view .LVU1063
 3348 00c6 2046     		mov	r0, r4
 3349 00c8 FFF7FEFF 		bl	indev_reset_check
 3350              	.LVL287:
 858:Middlewares/LVGL/GUI/lvgl/src/core/lv_indev.c **** 
 3351              		.loc 1 858 15 view .LVU1064
 3352 00cc 0028     		cmp	r0, #0
 3353 00ce 31D1     		bne	.L245
 3354              	.L252:
 864:Middlewares/LVGL/GUI/lvgl/src/core/lv_indev.c ****     proc->types.pointer.vect.y = proc->types.pointer.act_point.y - proc->types.pointer.last_point.y
 3355              		.loc 1 864 5 is_stmt 1 view .LVU1065
 864:Middlewares/LVGL/GUI/lvgl/src/core/lv_indev.c ****     proc->types.pointer.vect.y = proc->types.pointer.act_point.y - proc->types.pointer.last_point.y
 3356              		.loc 1 864 63 is_stmt 0 view .LVU1066
 3357 00d0 6068     		ldr	r0, [r4, #4]
 864:Middlewares/LVGL/GUI/lvgl/src/core/lv_indev.c ****     proc->types.pointer.vect.y = proc->types.pointer.act_point.y - proc->types.pointer.last_point.y
 3358              		.loc 1 864 98 view .LVU1067
 3359 00d2 E168     		ldr	r1, [r4, #12]
 864:Middlewares/LVGL/GUI/lvgl/src/core/lv_indev.c ****     proc->types.pointer.vect.y = proc->types.pointer.act_point.y - proc->types.pointer.last_point.y
 3360              		.loc 1 864 66 view .LVU1068
 3361 00d4 401A     		subs	r0, r0, r1
 864:Middlewares/LVGL/GUI/lvgl/src/core/lv_indev.c ****     proc->types.pointer.vect.y = proc->types.pointer.act_point.y - proc->types.pointer.last_point.y
 3362              		.loc 1 864 32 view .LVU1069
 3363 00d6 E061     		str	r0, [r4, #28]
 865:Middlewares/LVGL/GUI/lvgl/src/core/lv_indev.c **** 
 3364              		.loc 1 865 5 is_stmt 1 view .LVU1070
 865:Middlewares/LVGL/GUI/lvgl/src/core/lv_indev.c **** 
 3365              		.loc 1 865 63 is_stmt 0 view .LVU1071
 3366 00d8 A268     		ldr	r2, [r4, #8]
 865:Middlewares/LVGL/GUI/lvgl/src/core/lv_indev.c **** 
 3367              		.loc 1 865 98 view .LVU1072
 3368 00da 2369     		ldr	r3, [r4, #16]
 865:Middlewares/LVGL/GUI/lvgl/src/core/lv_indev.c **** 
 3369              		.loc 1 865 66 view .LVU1073
ARM GAS  C:\Users\ADMINI~1\AppData\Local\Temp\ccU2iQFc.s 			page 97


 3370 00dc D21A     		subs	r2, r2, r3
 865:Middlewares/LVGL/GUI/lvgl/src/core/lv_indev.c **** 
 3371              		.loc 1 865 32 view .LVU1074
 3372 00de 2262     		str	r2, [r4, #32]
 867:Middlewares/LVGL/GUI/lvgl/src/core/lv_indev.c ****     proc->types.pointer.scroll_throw_vect.y = (proc->types.pointer.scroll_throw_vect.y * 4) >> 3;
 3373              		.loc 1 867 5 is_stmt 1 view .LVU1075
 867:Middlewares/LVGL/GUI/lvgl/src/core/lv_indev.c ****     proc->types.pointer.scroll_throw_vect.y = (proc->types.pointer.scroll_throw_vect.y * 4) >> 3;
 3374              		.loc 1 867 85 is_stmt 0 view .LVU1076
 3375 00e0 E16A     		ldr	r1, [r4, #44]
 867:Middlewares/LVGL/GUI/lvgl/src/core/lv_indev.c ****     proc->types.pointer.scroll_throw_vect.y = (proc->types.pointer.scroll_throw_vect.y * 4) >> 3;
 3376              		.loc 1 867 93 view .LVU1077
 3377 00e2 41F35C01 		sbfx	r1, r1, #1, #29
 867:Middlewares/LVGL/GUI/lvgl/src/core/lv_indev.c ****     proc->types.pointer.scroll_throw_vect.y = (proc->types.pointer.scroll_throw_vect.y * 4) >> 3;
 3378              		.loc 1 867 45 view .LVU1078
 3379 00e6 E162     		str	r1, [r4, #44]
 868:Middlewares/LVGL/GUI/lvgl/src/core/lv_indev.c **** 
 3380              		.loc 1 868 5 is_stmt 1 view .LVU1079
 868:Middlewares/LVGL/GUI/lvgl/src/core/lv_indev.c **** 
 3381              		.loc 1 868 85 is_stmt 0 view .LVU1080
 3382 00e8 236B     		ldr	r3, [r4, #48]
 868:Middlewares/LVGL/GUI/lvgl/src/core/lv_indev.c **** 
 3383              		.loc 1 868 93 view .LVU1081
 3384 00ea 43F35C03 		sbfx	r3, r3, #1, #29
 868:Middlewares/LVGL/GUI/lvgl/src/core/lv_indev.c **** 
 3385              		.loc 1 868 45 view .LVU1082
 3386 00ee 2363     		str	r3, [r4, #48]
 870:Middlewares/LVGL/GUI/lvgl/src/core/lv_indev.c ****     proc->types.pointer.scroll_throw_vect.y += (proc->types.pointer.vect.y * 4) >> 3;
 3387              		.loc 1 870 5 is_stmt 1 view .LVU1083
 870:Middlewares/LVGL/GUI/lvgl/src/core/lv_indev.c ****     proc->types.pointer.scroll_throw_vect.y += (proc->types.pointer.vect.y * 4) >> 3;
 3388              		.loc 1 870 81 is_stmt 0 view .LVU1084
 3389 00f0 40F35C00 		sbfx	r0, r0, #1, #29
 870:Middlewares/LVGL/GUI/lvgl/src/core/lv_indev.c ****     proc->types.pointer.scroll_throw_vect.y += (proc->types.pointer.vect.y * 4) >> 3;
 3390              		.loc 1 870 45 view .LVU1085
 3391 00f4 0144     		add	r1, r1, r0
 3392 00f6 E162     		str	r1, [r4, #44]
 871:Middlewares/LVGL/GUI/lvgl/src/core/lv_indev.c **** 
 3393              		.loc 1 871 5 is_stmt 1 view .LVU1086
 871:Middlewares/LVGL/GUI/lvgl/src/core/lv_indev.c **** 
 3394              		.loc 1 871 81 is_stmt 0 view .LVU1087
 3395 00f8 42F35C02 		sbfx	r2, r2, #1, #29
 871:Middlewares/LVGL/GUI/lvgl/src/core/lv_indev.c **** 
 3396              		.loc 1 871 45 view .LVU1088
 3397 00fc 1344     		add	r3, r3, r2
 3398 00fe 2363     		str	r3, [r4, #48]
 873:Middlewares/LVGL/GUI/lvgl/src/core/lv_indev.c **** 
 3399              		.loc 1 873 5 is_stmt 1 view .LVU1089
 873:Middlewares/LVGL/GUI/lvgl/src/core/lv_indev.c **** 
 3400              		.loc 1 873 47 is_stmt 0 view .LVU1090
 3401 0100 04F13403 		add	r3, r4, #52
 3402 0104 04F12C02 		add	r2, r4, #44
 3403 0108 92E80300 		ldm	r2, {r0, r1}
 3404 010c 83E80300 		stm	r3, {r0, r1}
 875:Middlewares/LVGL/GUI/lvgl/src/core/lv_indev.c ****         lv_event_send(indev_obj_act, LV_EVENT_PRESSING, indev_act);
 3405              		.loc 1 875 5 is_stmt 1 view .LVU1091
 875:Middlewares/LVGL/GUI/lvgl/src/core/lv_indev.c ****         lv_event_send(indev_obj_act, LV_EVENT_PRESSING, indev_act);
 3406              		.loc 1 875 8 is_stmt 0 view .LVU1092
 3407 0110 5D4B     		ldr	r3, .L263
ARM GAS  C:\Users\ADMINI~1\AppData\Local\Temp\ccU2iQFc.s 			page 98


 3408 0112 1868     		ldr	r0, [r3]
 875:Middlewares/LVGL/GUI/lvgl/src/core/lv_indev.c ****         lv_event_send(indev_obj_act, LV_EVENT_PRESSING, indev_act);
 3409              		.loc 1 875 7 view .LVU1093
 3410 0114 70B1     		cbz	r0, .L245
 876:Middlewares/LVGL/GUI/lvgl/src/core/lv_indev.c ****         if(indev_reset_check(proc)) return;
 3411              		.loc 1 876 9 is_stmt 1 view .LVU1094
 3412 0116 5D4B     		ldr	r3, .L263+4
 3413 0118 1A68     		ldr	r2, [r3]
 3414 011a 0221     		movs	r1, #2
 3415 011c FFF7FEFF 		bl	lv_event_send
 3416              	.LVL288:
 877:Middlewares/LVGL/GUI/lvgl/src/core/lv_indev.c **** 
 3417              		.loc 1 877 9 view .LVU1095
 877:Middlewares/LVGL/GUI/lvgl/src/core/lv_indev.c **** 
 3418              		.loc 1 877 12 is_stmt 0 view .LVU1096
 3419 0120 2046     		mov	r0, r4
 3420 0122 FFF7FEFF 		bl	indev_reset_check
 3421              	.LVL289:
 877:Middlewares/LVGL/GUI/lvgl/src/core/lv_indev.c **** 
 3422              		.loc 1 877 11 view .LVU1097
 3423 0126 28B9     		cbnz	r0, .L245
 879:Middlewares/LVGL/GUI/lvgl/src/core/lv_indev.c **** 
 3424              		.loc 1 879 9 is_stmt 1 view .LVU1098
 879:Middlewares/LVGL/GUI/lvgl/src/core/lv_indev.c **** 
 3425              		.loc 1 879 21 is_stmt 0 view .LVU1099
 3426 0128 584B     		ldr	r3, .L263+4
 3427 012a 1B68     		ldr	r3, [r3]
 879:Middlewares/LVGL/GUI/lvgl/src/core/lv_indev.c **** 
 3428              		.loc 1 879 12 view .LVU1100
 3429 012c 5B79     		ldrb	r3, [r3, #5]	@ zero_extendqisi2
 879:Middlewares/LVGL/GUI/lvgl/src/core/lv_indev.c **** 
 3430              		.loc 1 879 11 view .LVU1101
 3431 012e 13F0080F 		tst	r3, #8
 3432 0132 57D0     		beq	.L258
 3433              	.LVL290:
 3434              	.L245:
 911:Middlewares/LVGL/GUI/lvgl/src/core/lv_indev.c **** 
 3435              		.loc 1 911 1 view .LVU1102
 3436 0134 70BD     		pop	{r4, r5, r6, pc}
 3437              	.LVL291:
 3438              	.L256:
 793:Middlewares/LVGL/GUI/lvgl/src/core/lv_indev.c ****         if(indev_obj_act == NULL) indev_obj_act = lv_indev_search_obj(lv_disp_get_layer_top(disp),
 3439              		.loc 1 793 9 is_stmt 1 view .LVU1103
 793:Middlewares/LVGL/GUI/lvgl/src/core/lv_indev.c ****         if(indev_obj_act == NULL) indev_obj_act = lv_indev_search_obj(lv_disp_get_layer_top(disp),
 3440              		.loc 1 793 25 is_stmt 0 view .LVU1104
 3441 0136 2846     		mov	r0, r5
 3442 0138 FFF7FEFF 		bl	lv_disp_get_layer_sys
 3443              	.LVL292:
 3444 013c 261D     		adds	r6, r4, #4
 3445 013e 3146     		mov	r1, r6
 3446 0140 FFF7FEFF 		bl	lv_indev_search_obj
 3447              	.LVL293:
 793:Middlewares/LVGL/GUI/lvgl/src/core/lv_indev.c ****         if(indev_obj_act == NULL) indev_obj_act = lv_indev_search_obj(lv_disp_get_layer_top(disp),
 3448              		.loc 1 793 23 view .LVU1105
 3449 0144 504B     		ldr	r3, .L263
 3450 0146 1860     		str	r0, [r3]
 794:Middlewares/LVGL/GUI/lvgl/src/core/lv_indev.c ****                                                                           &proc->types.pointer.act_
ARM GAS  C:\Users\ADMINI~1\AppData\Local\Temp\ccU2iQFc.s 			page 99


 3451              		.loc 1 794 9 is_stmt 1 view .LVU1106
 794:Middlewares/LVGL/GUI/lvgl/src/core/lv_indev.c ****                                                                           &proc->types.pointer.act_
 3452              		.loc 1 794 11 is_stmt 0 view .LVU1107
 3453 0148 98B1     		cbz	r0, .L259
 3454              	.L248:
 796:Middlewares/LVGL/GUI/lvgl/src/core/lv_indev.c ****                                                                           &proc->types.pointer.act_
 3455              		.loc 1 796 9 is_stmt 1 view .LVU1108
 796:Middlewares/LVGL/GUI/lvgl/src/core/lv_indev.c ****                                                                           &proc->types.pointer.act_
 3456              		.loc 1 796 26 is_stmt 0 view .LVU1109
 3457 014a 4F4B     		ldr	r3, .L263
 3458 014c 1B68     		ldr	r3, [r3]
 796:Middlewares/LVGL/GUI/lvgl/src/core/lv_indev.c ****                                                                           &proc->types.pointer.act_
 3459              		.loc 1 796 11 view .LVU1110
 3460 014e CBB1     		cbz	r3, .L260
 3461              	.L249:
 3462              	.LVL294:
 812:Middlewares/LVGL/GUI/lvgl/src/core/lv_indev.c ****         proc->types.pointer.scroll_throw_vect.x = 0;
 3463              		.loc 1 812 47 discriminator 1 view .LVU1111
 3464 0150 236C     		ldr	r3, [r4, #64]
 812:Middlewares/LVGL/GUI/lvgl/src/core/lv_indev.c ****         proc->types.pointer.scroll_throw_vect.x = 0;
 3465              		.loc 1 812 25 discriminator 1 view .LVU1112
 3466 0152 002B     		cmp	r3, #0
 3467 0154 3FF469AF 		beq	.L250
 813:Middlewares/LVGL/GUI/lvgl/src/core/lv_indev.c ****         proc->types.pointer.scroll_throw_vect.y = 0;
 3468              		.loc 1 813 9 is_stmt 1 view .LVU1113
 813:Middlewares/LVGL/GUI/lvgl/src/core/lv_indev.c ****         proc->types.pointer.scroll_throw_vect.y = 0;
 3469              		.loc 1 813 49 is_stmt 0 view .LVU1114
 3470 0158 0023     		movs	r3, #0
 3471 015a E362     		str	r3, [r4, #44]
 814:Middlewares/LVGL/GUI/lvgl/src/core/lv_indev.c ****         _lv_indev_scroll_throw_handler(proc);
 3472              		.loc 1 814 9 is_stmt 1 view .LVU1115
 814:Middlewares/LVGL/GUI/lvgl/src/core/lv_indev.c ****         _lv_indev_scroll_throw_handler(proc);
 3473              		.loc 1 814 49 is_stmt 0 view .LVU1116
 3474 015c 2363     		str	r3, [r4, #48]
 815:Middlewares/LVGL/GUI/lvgl/src/core/lv_indev.c ****         if(indev_reset_check(proc)) return;
 3475              		.loc 1 815 9 is_stmt 1 view .LVU1117
 3476 015e 2046     		mov	r0, r4
 3477 0160 FFF7FEFF 		bl	_lv_indev_scroll_throw_handler
 3478              	.LVL295:
 816:Middlewares/LVGL/GUI/lvgl/src/core/lv_indev.c ****     }
 3479              		.loc 1 816 9 view .LVU1118
 816:Middlewares/LVGL/GUI/lvgl/src/core/lv_indev.c ****     }
 3480              		.loc 1 816 12 is_stmt 0 view .LVU1119
 3481 0164 2046     		mov	r0, r4
 3482 0166 FFF7FEFF 		bl	indev_reset_check
 3483              	.LVL296:
 816:Middlewares/LVGL/GUI/lvgl/src/core/lv_indev.c ****     }
 3484              		.loc 1 816 11 view .LVU1120
 3485 016a 0028     		cmp	r0, #0
 3486 016c 3FF45DAF 		beq	.L250
 3487 0170 E0E7     		b	.L245
 3488              	.LVL297:
 3489              	.L259:
 794:Middlewares/LVGL/GUI/lvgl/src/core/lv_indev.c ****                                                                           &proc->types.pointer.act_
 3490              		.loc 1 794 35 is_stmt 1 discriminator 1 view .LVU1121
 794:Middlewares/LVGL/GUI/lvgl/src/core/lv_indev.c ****                                                                           &proc->types.pointer.act_
 3491              		.loc 1 794 51 is_stmt 0 discriminator 1 view .LVU1122
ARM GAS  C:\Users\ADMINI~1\AppData\Local\Temp\ccU2iQFc.s 			page 100


 3492 0172 2846     		mov	r0, r5
 3493 0174 FFF7FEFF 		bl	lv_disp_get_layer_top
 3494              	.LVL298:
 3495 0178 3146     		mov	r1, r6
 3496 017a FFF7FEFF 		bl	lv_indev_search_obj
 3497              	.LVL299:
 794:Middlewares/LVGL/GUI/lvgl/src/core/lv_indev.c ****                                                                           &proc->types.pointer.act_
 3498              		.loc 1 794 49 discriminator 1 view .LVU1123
 3499 017e 424B     		ldr	r3, .L263
 3500 0180 1860     		str	r0, [r3]
 3501 0182 E2E7     		b	.L248
 3502              	.L260:
 796:Middlewares/LVGL/GUI/lvgl/src/core/lv_indev.c ****                                                                           &proc->types.pointer.act_
 3503              		.loc 1 796 35 is_stmt 1 discriminator 1 view .LVU1124
 796:Middlewares/LVGL/GUI/lvgl/src/core/lv_indev.c ****                                                                           &proc->types.pointer.act_
 3504              		.loc 1 796 51 is_stmt 0 discriminator 1 view .LVU1125
 3505 0184 2846     		mov	r0, r5
 3506 0186 FFF7FEFF 		bl	lv_disp_get_scr_act
 3507              	.LVL300:
 3508 018a 3146     		mov	r1, r6
 3509 018c FFF7FEFF 		bl	lv_indev_search_obj
 3510              	.LVL301:
 796:Middlewares/LVGL/GUI/lvgl/src/core/lv_indev.c ****                                                                           &proc->types.pointer.act_
 3511              		.loc 1 796 49 discriminator 1 view .LVU1126
 3512 0190 3D4B     		ldr	r3, .L263
 3513 0192 1860     		str	r0, [r3]
 3514 0194 DCE7     		b	.L249
 3515              	.L257:
 802:Middlewares/LVGL/GUI/lvgl/src/core/lv_indev.c ****         indev_obj_act = lv_indev_search_obj(lv_disp_get_layer_sys(disp), &proc->types.pointer.act_p
 3516              		.loc 1 802 13 discriminator 1 view .LVU1127
 3517 0196 4FF40051 		mov	r1, #8192
 3518 019a FFF7FEFF 		bl	lv_obj_has_flag
 3519              	.LVL302:
 801:Middlewares/LVGL/GUI/lvgl/src/core/lv_indev.c ****             lv_obj_has_flag(indev_obj_act, LV_OBJ_FLAG_PRESS_LOCK) == false) {
 3520              		.loc 1 801 52 discriminator 1 view .LVU1128
 3521 019e 0028     		cmp	r0, #0
 3522 01a0 7FF443AF 		bne	.L250
 803:Middlewares/LVGL/GUI/lvgl/src/core/lv_indev.c ****         if(indev_obj_act == NULL) indev_obj_act = lv_indev_search_obj(lv_disp_get_layer_top(disp),
 3523              		.loc 1 803 9 is_stmt 1 view .LVU1129
 803:Middlewares/LVGL/GUI/lvgl/src/core/lv_indev.c ****         if(indev_obj_act == NULL) indev_obj_act = lv_indev_search_obj(lv_disp_get_layer_top(disp),
 3524              		.loc 1 803 25 is_stmt 0 view .LVU1130
 3525 01a4 2846     		mov	r0, r5
 3526 01a6 FFF7FEFF 		bl	lv_disp_get_layer_sys
 3527              	.LVL303:
 3528 01aa 261D     		adds	r6, r4, #4
 3529 01ac 3146     		mov	r1, r6
 3530 01ae FFF7FEFF 		bl	lv_indev_search_obj
 3531              	.LVL304:
 803:Middlewares/LVGL/GUI/lvgl/src/core/lv_indev.c ****         if(indev_obj_act == NULL) indev_obj_act = lv_indev_search_obj(lv_disp_get_layer_top(disp),
 3532              		.loc 1 803 23 view .LVU1131
 3533 01b2 354B     		ldr	r3, .L263
 3534 01b4 1860     		str	r0, [r3]
 804:Middlewares/LVGL/GUI/lvgl/src/core/lv_indev.c ****                                                                           &proc->types.pointer.act_
 3535              		.loc 1 804 9 is_stmt 1 view .LVU1132
 804:Middlewares/LVGL/GUI/lvgl/src/core/lv_indev.c ****                                                                           &proc->types.pointer.act_
 3536              		.loc 1 804 11 is_stmt 0 view .LVU1133
 3537 01b6 60B1     		cbz	r0, .L261
ARM GAS  C:\Users\ADMINI~1\AppData\Local\Temp\ccU2iQFc.s 			page 101


 3538              	.L251:
 806:Middlewares/LVGL/GUI/lvgl/src/core/lv_indev.c ****                                                                           &proc->types.pointer.act_
 3539              		.loc 1 806 9 is_stmt 1 view .LVU1134
 806:Middlewares/LVGL/GUI/lvgl/src/core/lv_indev.c ****                                                                           &proc->types.pointer.act_
 3540              		.loc 1 806 26 is_stmt 0 view .LVU1135
 3541 01b8 334B     		ldr	r3, .L263
 3542 01ba 1B68     		ldr	r3, [r3]
 806:Middlewares/LVGL/GUI/lvgl/src/core/lv_indev.c ****                                                                           &proc->types.pointer.act_
 3543              		.loc 1 806 11 view .LVU1136
 3544 01bc 002B     		cmp	r3, #0
 3545 01be C7D1     		bne	.L249
 806:Middlewares/LVGL/GUI/lvgl/src/core/lv_indev.c ****                                                                           &proc->types.pointer.act_
 3546              		.loc 1 806 35 is_stmt 1 discriminator 1 view .LVU1137
 806:Middlewares/LVGL/GUI/lvgl/src/core/lv_indev.c ****                                                                           &proc->types.pointer.act_
 3547              		.loc 1 806 51 is_stmt 0 discriminator 1 view .LVU1138
 3548 01c0 2846     		mov	r0, r5
 3549 01c2 FFF7FEFF 		bl	lv_disp_get_scr_act
 3550              	.LVL305:
 3551 01c6 3146     		mov	r1, r6
 3552 01c8 FFF7FEFF 		bl	lv_indev_search_obj
 3553              	.LVL306:
 806:Middlewares/LVGL/GUI/lvgl/src/core/lv_indev.c ****                                                                           &proc->types.pointer.act_
 3554              		.loc 1 806 49 discriminator 1 view .LVU1139
 3555 01cc 2E4B     		ldr	r3, .L263
 3556 01ce 1860     		str	r0, [r3]
 3557 01d0 BEE7     		b	.L249
 3558              	.L261:
 804:Middlewares/LVGL/GUI/lvgl/src/core/lv_indev.c ****                                                                           &proc->types.pointer.act_
 3559              		.loc 1 804 35 is_stmt 1 discriminator 1 view .LVU1140
 804:Middlewares/LVGL/GUI/lvgl/src/core/lv_indev.c ****                                                                           &proc->types.pointer.act_
 3560              		.loc 1 804 51 is_stmt 0 discriminator 1 view .LVU1141
 3561 01d2 2846     		mov	r0, r5
 3562 01d4 FFF7FEFF 		bl	lv_disp_get_layer_top
 3563              	.LVL307:
 3564 01d8 3146     		mov	r1, r6
 3565 01da FFF7FEFF 		bl	lv_indev_search_obj
 3566              	.LVL308:
 804:Middlewares/LVGL/GUI/lvgl/src/core/lv_indev.c ****                                                                           &proc->types.pointer.act_
 3567              		.loc 1 804 49 discriminator 1 view .LVU1142
 3568 01de 2A4B     		ldr	r3, .L263
 3569 01e0 1860     		str	r0, [r3]
 3570 01e2 E9E7     		b	.L251
 3571              	.LVL309:
 3572              	.L258:
 881:Middlewares/LVGL/GUI/lvgl/src/core/lv_indev.c ****         if(indev_reset_check(proc)) return;
 3573              		.loc 1 881 9 is_stmt 1 view .LVU1143
 3574 01e4 2046     		mov	r0, r4
 3575 01e6 FFF7FEFF 		bl	_lv_indev_scroll_handler
 3576              	.LVL310:
 882:Middlewares/LVGL/GUI/lvgl/src/core/lv_indev.c ****         indev_gesture(proc);
 3577              		.loc 1 882 9 view .LVU1144
 882:Middlewares/LVGL/GUI/lvgl/src/core/lv_indev.c ****         indev_gesture(proc);
 3578              		.loc 1 882 12 is_stmt 0 view .LVU1145
 3579 01ea 2046     		mov	r0, r4
 3580 01ec FFF7FEFF 		bl	indev_reset_check
 3581              	.LVL311:
 882:Middlewares/LVGL/GUI/lvgl/src/core/lv_indev.c ****         indev_gesture(proc);
ARM GAS  C:\Users\ADMINI~1\AppData\Local\Temp\ccU2iQFc.s 			page 102


 3582              		.loc 1 882 11 view .LVU1146
 3583 01f0 0028     		cmp	r0, #0
 3584 01f2 9FD1     		bne	.L245
 883:Middlewares/LVGL/GUI/lvgl/src/core/lv_indev.c ****         if(indev_reset_check(proc)) return;
 3585              		.loc 1 883 9 is_stmt 1 view .LVU1147
 3586 01f4 2046     		mov	r0, r4
 3587 01f6 FFF7FEFF 		bl	indev_gesture
 3588              	.LVL312:
 884:Middlewares/LVGL/GUI/lvgl/src/core/lv_indev.c **** 
 3589              		.loc 1 884 9 view .LVU1148
 884:Middlewares/LVGL/GUI/lvgl/src/core/lv_indev.c **** 
 3590              		.loc 1 884 12 is_stmt 0 view .LVU1149
 3591 01fa 2046     		mov	r0, r4
 3592 01fc FFF7FEFF 		bl	indev_reset_check
 3593              	.LVL313:
 884:Middlewares/LVGL/GUI/lvgl/src/core/lv_indev.c **** 
 3594              		.loc 1 884 11 view .LVU1150
 3595 0200 0028     		cmp	r0, #0
 3596 0202 97D1     		bne	.L245
 887:Middlewares/LVGL/GUI/lvgl/src/core/lv_indev.c ****             /*Call the ancestor's event handler about the long press if enough time elapsed*/
 3597              		.loc 1 887 9 is_stmt 1 view .LVU1151
 887:Middlewares/LVGL/GUI/lvgl/src/core/lv_indev.c ****             /*Call the ancestor's event handler about the long press if enough time elapsed*/
 3598              		.loc 1 887 31 is_stmt 0 view .LVU1152
 3599 0204 636C     		ldr	r3, [r4, #68]
 887:Middlewares/LVGL/GUI/lvgl/src/core/lv_indev.c ****             /*Call the ancestor's event handler about the long press if enough time elapsed*/
 3600              		.loc 1 887 11 view .LVU1153
 3601 0206 F3B1     		cbz	r3, .L262
 3602              	.L254:
 902:Middlewares/LVGL/GUI/lvgl/src/core/lv_indev.c ****             /*Call the ancestor's event handler about the long press repeat if enough time elapsed*
 3603              		.loc 1 902 9 is_stmt 1 view .LVU1154
 902:Middlewares/LVGL/GUI/lvgl/src/core/lv_indev.c ****             /*Call the ancestor's event handler about the long press repeat if enough time elapsed*
 3604              		.loc 1 902 31 is_stmt 0 view .LVU1155
 3605 0208 636C     		ldr	r3, [r4, #68]
 902:Middlewares/LVGL/GUI/lvgl/src/core/lv_indev.c ****             /*Call the ancestor's event handler about the long press repeat if enough time elapsed*
 3606              		.loc 1 902 11 view .LVU1156
 3607 020a 002B     		cmp	r3, #0
 3608 020c 92D1     		bne	.L245
 902:Middlewares/LVGL/GUI/lvgl/src/core/lv_indev.c ****             /*Call the ancestor's event handler about the long press repeat if enough time elapsed*
 3609              		.loc 1 902 73 discriminator 1 view .LVU1157
 3610 020e 6378     		ldrb	r3, [r4, #1]	@ zero_extendqisi2
 902:Middlewares/LVGL/GUI/lvgl/src/core/lv_indev.c ****             /*Call the ancestor's event handler about the long press repeat if enough time elapsed*
 3611              		.loc 1 902 51 discriminator 1 view .LVU1158
 3612 0210 13F0010F 		tst	r3, #1
 3613 0214 8ED0     		beq	.L245
 904:Middlewares/LVGL/GUI/lvgl/src/core/lv_indev.c ****                 lv_event_send(indev_obj_act, LV_EVENT_LONG_PRESSED_REPEAT, indev_act);
 3614              		.loc 1 904 13 is_stmt 1 view .LVU1159
 904:Middlewares/LVGL/GUI/lvgl/src/core/lv_indev.c ****                 lv_event_send(indev_obj_act, LV_EVENT_LONG_PRESSED_REPEAT, indev_act);
 3615              		.loc 1 904 16 is_stmt 0 view .LVU1160
 3616 0216 E06E     		ldr	r0, [r4, #108]
 3617 0218 FFF7FEFF 		bl	lv_tick_elaps
 3618              	.LVL314:
 904:Middlewares/LVGL/GUI/lvgl/src/core/lv_indev.c ****                 lv_event_send(indev_obj_act, LV_EVENT_LONG_PRESSED_REPEAT, indev_act);
 3619              		.loc 1 904 69 view .LVU1161
 3620 021c 1B4B     		ldr	r3, .L263+4
 3621 021e 1A68     		ldr	r2, [r3]
 3622 0220 1368     		ldr	r3, [r2]
 904:Middlewares/LVGL/GUI/lvgl/src/core/lv_indev.c ****                 lv_event_send(indev_obj_act, LV_EVENT_LONG_PRESSED_REPEAT, indev_act);
ARM GAS  C:\Users\ADMINI~1\AppData\Local\Temp\ccU2iQFc.s 			page 103


 3623              		.loc 1 904 77 view .LVU1162
 3624 0222 DB8B     		ldrh	r3, [r3, #30]
 904:Middlewares/LVGL/GUI/lvgl/src/core/lv_indev.c ****                 lv_event_send(indev_obj_act, LV_EVENT_LONG_PRESSED_REPEAT, indev_act);
 3625              		.loc 1 904 15 view .LVU1163
 3626 0224 9842     		cmp	r0, r3
 3627 0226 85D9     		bls	.L245
 905:Middlewares/LVGL/GUI/lvgl/src/core/lv_indev.c ****                 if(indev_reset_check(proc)) return;
 3628              		.loc 1 905 17 is_stmt 1 view .LVU1164
 3629 0228 0621     		movs	r1, #6
 3630 022a 174B     		ldr	r3, .L263
 3631 022c 1868     		ldr	r0, [r3]
 3632 022e FFF7FEFF 		bl	lv_event_send
 3633              	.LVL315:
 906:Middlewares/LVGL/GUI/lvgl/src/core/lv_indev.c ****                 proc->longpr_rep_timestamp = lv_tick_get();
 3634              		.loc 1 906 17 view .LVU1165
 906:Middlewares/LVGL/GUI/lvgl/src/core/lv_indev.c ****                 proc->longpr_rep_timestamp = lv_tick_get();
 3635              		.loc 1 906 20 is_stmt 0 view .LVU1166
 3636 0232 2046     		mov	r0, r4
 3637 0234 FFF7FEFF 		bl	indev_reset_check
 3638              	.LVL316:
 906:Middlewares/LVGL/GUI/lvgl/src/core/lv_indev.c ****                 proc->longpr_rep_timestamp = lv_tick_get();
 3639              		.loc 1 906 19 view .LVU1167
 3640 0238 0028     		cmp	r0, #0
 3641 023a 7FF47BAF 		bne	.L245
 907:Middlewares/LVGL/GUI/lvgl/src/core/lv_indev.c ****             }
 3642              		.loc 1 907 17 is_stmt 1 view .LVU1168
 907:Middlewares/LVGL/GUI/lvgl/src/core/lv_indev.c ****             }
 3643              		.loc 1 907 46 is_stmt 0 view .LVU1169
 3644 023e FFF7FEFF 		bl	lv_tick_get
 3645              	.LVL317:
 907:Middlewares/LVGL/GUI/lvgl/src/core/lv_indev.c ****             }
 3646              		.loc 1 907 44 view .LVU1170
 3647 0242 E066     		str	r0, [r4, #108]
 3648 0244 76E7     		b	.L245
 3649              	.L262:
 887:Middlewares/LVGL/GUI/lvgl/src/core/lv_indev.c ****             /*Call the ancestor's event handler about the long press if enough time elapsed*/
 3650              		.loc 1 887 73 discriminator 1 view .LVU1171
 3651 0246 6378     		ldrb	r3, [r4, #1]	@ zero_extendqisi2
 887:Middlewares/LVGL/GUI/lvgl/src/core/lv_indev.c ****             /*Call the ancestor's event handler about the long press if enough time elapsed*/
 3652              		.loc 1 887 51 discriminator 1 view .LVU1172
 3653 0248 13F0010F 		tst	r3, #1
 3654 024c DCD1     		bne	.L254
 889:Middlewares/LVGL/GUI/lvgl/src/core/lv_indev.c ****                 lv_event_send(indev_obj_act, LV_EVENT_LONG_PRESSED, indev_act);
 3655              		.loc 1 889 13 is_stmt 1 view .LVU1173
 889:Middlewares/LVGL/GUI/lvgl/src/core/lv_indev.c ****                 lv_event_send(indev_obj_act, LV_EVENT_LONG_PRESSED, indev_act);
 3656              		.loc 1 889 16 is_stmt 0 view .LVU1174
 3657 024e A06E     		ldr	r0, [r4, #104]
 3658 0250 FFF7FEFF 		bl	lv_tick_elaps
 3659              	.LVL318:
 889:Middlewares/LVGL/GUI/lvgl/src/core/lv_indev.c ****                 lv_event_send(indev_obj_act, LV_EVENT_LONG_PRESSED, indev_act);
 3660              		.loc 1 889 61 view .LVU1175
 3661 0254 0D4B     		ldr	r3, .L263+4
 3662 0256 1A68     		ldr	r2, [r3]
 3663 0258 1368     		ldr	r3, [r2]
 889:Middlewares/LVGL/GUI/lvgl/src/core/lv_indev.c ****                 lv_event_send(indev_obj_act, LV_EVENT_LONG_PRESSED, indev_act);
 3664              		.loc 1 889 69 view .LVU1176
 3665 025a 9B8B     		ldrh	r3, [r3, #28]
ARM GAS  C:\Users\ADMINI~1\AppData\Local\Temp\ccU2iQFc.s 			page 104


 889:Middlewares/LVGL/GUI/lvgl/src/core/lv_indev.c ****                 lv_event_send(indev_obj_act, LV_EVENT_LONG_PRESSED, indev_act);
 3666              		.loc 1 889 15 view .LVU1177
 3667 025c 9842     		cmp	r0, r3
 3668 025e D3D9     		bls	.L254
 890:Middlewares/LVGL/GUI/lvgl/src/core/lv_indev.c ****                 if(indev_reset_check(proc)) return;
 3669              		.loc 1 890 17 is_stmt 1 view .LVU1178
 3670 0260 0521     		movs	r1, #5
 3671 0262 094B     		ldr	r3, .L263
 3672 0264 1868     		ldr	r0, [r3]
 3673 0266 FFF7FEFF 		bl	lv_event_send
 3674              	.LVL319:
 891:Middlewares/LVGL/GUI/lvgl/src/core/lv_indev.c **** 
 3675              		.loc 1 891 17 view .LVU1179
 891:Middlewares/LVGL/GUI/lvgl/src/core/lv_indev.c **** 
 3676              		.loc 1 891 20 is_stmt 0 view .LVU1180
 3677 026a 2046     		mov	r0, r4
 3678 026c FFF7FEFF 		bl	indev_reset_check
 3679              	.LVL320:
 891:Middlewares/LVGL/GUI/lvgl/src/core/lv_indev.c **** 
 3680              		.loc 1 891 19 view .LVU1181
 3681 0270 0028     		cmp	r0, #0
 3682 0272 7FF45FAF 		bne	.L245
 894:Middlewares/LVGL/GUI/lvgl/src/core/lv_indev.c **** 
 3683              		.loc 1 894 17 is_stmt 1 view .LVU1182
 894:Middlewares/LVGL/GUI/lvgl/src/core/lv_indev.c **** 
 3684              		.loc 1 894 36 is_stmt 0 view .LVU1183
 3685 0276 6378     		ldrb	r3, [r4, #1]	@ zero_extendqisi2
 3686 0278 43F00103 		orr	r3, r3, #1
 3687 027c 6370     		strb	r3, [r4, #1]
 897:Middlewares/LVGL/GUI/lvgl/src/core/lv_indev.c ****             }
 3688              		.loc 1 897 17 is_stmt 1 view .LVU1184
 897:Middlewares/LVGL/GUI/lvgl/src/core/lv_indev.c ****             }
 3689              		.loc 1 897 46 is_stmt 0 view .LVU1185
 3690 027e FFF7FEFF 		bl	lv_tick_get
 3691              	.LVL321:
 897:Middlewares/LVGL/GUI/lvgl/src/core/lv_indev.c ****             }
 3692              		.loc 1 897 44 view .LVU1186
 3693 0282 E066     		str	r0, [r4, #108]
 3694 0284 C0E7     		b	.L254
 3695              	.L264:
 3696 0286 00BF     		.align	2
 3697              	.L263:
 3698 0288 00000000 		.word	.LANCHOR0
 3699 028c 00000000 		.word	.LANCHOR1
 3700              		.cfi_endproc
 3701              	.LFE182:
 3703              		.section	.text.indev_pointer_proc,"ax",%progbits
 3704              		.align	1
 3705              		.syntax unified
 3706              		.thumb
 3707              		.thumb_func
 3709              	indev_pointer_proc:
 3710              	.LVL322:
 3711              	.LFB178:
 326:Middlewares/LVGL/GUI/lvgl/src/core/lv_indev.c ****     lv_disp_t * disp = i->driver->disp;
 3712              		.loc 1 326 1 is_stmt 1 view -0
 3713              		.cfi_startproc
ARM GAS  C:\Users\ADMINI~1\AppData\Local\Temp\ccU2iQFc.s 			page 105


 3714              		@ args = 0, pretend = 0, frame = 0
 3715              		@ frame_needed = 0, uses_anonymous_args = 0
 326:Middlewares/LVGL/GUI/lvgl/src/core/lv_indev.c ****     lv_disp_t * disp = i->driver->disp;
 3716              		.loc 1 326 1 is_stmt 0 view .LVU1188
 3717 0000 38B5     		push	{r3, r4, r5, lr}
 3718              	.LCFI10:
 3719              		.cfi_def_cfa_offset 16
 3720              		.cfi_offset 3, -16
 3721              		.cfi_offset 4, -12
 3722              		.cfi_offset 5, -8
 3723              		.cfi_offset 14, -4
 3724 0002 0446     		mov	r4, r0
 3725 0004 0D46     		mov	r5, r1
 327:Middlewares/LVGL/GUI/lvgl/src/core/lv_indev.c ****     /*Save the raw points so they can be used again in _lv_indev_read*/
 3726              		.loc 1 327 5 is_stmt 1 view .LVU1189
 327:Middlewares/LVGL/GUI/lvgl/src/core/lv_indev.c ****     /*Save the raw points so they can be used again in _lv_indev_read*/
 3727              		.loc 1 327 25 is_stmt 0 view .LVU1190
 3728 0006 0368     		ldr	r3, [r0]
 327:Middlewares/LVGL/GUI/lvgl/src/core/lv_indev.c ****     /*Save the raw points so they can be used again in _lv_indev_read*/
 3729              		.loc 1 327 17 view .LVU1191
 3730 0008 1A69     		ldr	r2, [r3, #16]
 3731              	.LVL323:
 329:Middlewares/LVGL/GUI/lvgl/src/core/lv_indev.c ****     i->proc.types.pointer.last_raw_point.y = data->point.y;
 3732              		.loc 1 329 5 is_stmt 1 view .LVU1192
 329:Middlewares/LVGL/GUI/lvgl/src/core/lv_indev.c ****     i->proc.types.pointer.last_raw_point.y = data->point.y;
 3733              		.loc 1 329 57 is_stmt 0 view .LVU1193
 3734 000a 0B68     		ldr	r3, [r1]
 329:Middlewares/LVGL/GUI/lvgl/src/core/lv_indev.c ****     i->proc.types.pointer.last_raw_point.y = data->point.y;
 3735              		.loc 1 329 44 view .LVU1194
 3736 000c 8361     		str	r3, [r0, #24]
 330:Middlewares/LVGL/GUI/lvgl/src/core/lv_indev.c **** 
 3737              		.loc 1 330 5 is_stmt 1 view .LVU1195
 330:Middlewares/LVGL/GUI/lvgl/src/core/lv_indev.c **** 
 3738              		.loc 1 330 57 is_stmt 0 view .LVU1196
 3739 000e 4868     		ldr	r0, [r1, #4]
 3740              	.LVL324:
 330:Middlewares/LVGL/GUI/lvgl/src/core/lv_indev.c **** 
 3741              		.loc 1 330 44 view .LVU1197
 3742 0010 E061     		str	r0, [r4, #28]
 332:Middlewares/LVGL/GUI/lvgl/src/core/lv_indev.c ****         data->point.x = disp->driver->hor_res - data->point.x - 1;
 3743              		.loc 1 332 5 is_stmt 1 view .LVU1198
 332:Middlewares/LVGL/GUI/lvgl/src/core/lv_indev.c ****         data->point.x = disp->driver->hor_res - data->point.x - 1;
 3744              		.loc 1 332 12 is_stmt 0 view .LVU1199
 3745 0012 1168     		ldr	r1, [r2]
 3746              	.LVL325:
 332:Middlewares/LVGL/GUI/lvgl/src/core/lv_indev.c ****         data->point.x = disp->driver->hor_res - data->point.x - 1;
 3747              		.loc 1 332 30 view .LVU1200
 3748 0014 0B7F     		ldrb	r3, [r1, #28]	@ zero_extendqisi2
 3749 0016 03F03003 		and	r3, r3, #48
 332:Middlewares/LVGL/GUI/lvgl/src/core/lv_indev.c ****         data->point.x = disp->driver->hor_res - data->point.x - 1;
 3750              		.loc 1 332 7 view .LVU1201
 3751 001a 202B     		cmp	r3, #32
 3752 001c 01D0     		beq	.L266
 332:Middlewares/LVGL/GUI/lvgl/src/core/lv_indev.c ****         data->point.x = disp->driver->hor_res - data->point.x - 1;
 3753              		.loc 1 332 49 discriminator 1 view .LVU1202
 3754 001e 302B     		cmp	r3, #48
 3755 0020 09D1     		bne	.L267
ARM GAS  C:\Users\ADMINI~1\AppData\Local\Temp\ccU2iQFc.s 			page 106


 3756              	.L266:
 333:Middlewares/LVGL/GUI/lvgl/src/core/lv_indev.c ****         data->point.y = disp->driver->ver_res - data->point.y - 1;
 3757              		.loc 1 333 9 is_stmt 1 view .LVU1203
 333:Middlewares/LVGL/GUI/lvgl/src/core/lv_indev.c ****         data->point.y = disp->driver->ver_res - data->point.y - 1;
 3758              		.loc 1 333 37 is_stmt 0 view .LVU1204
 3759 0022 0968     		ldr	r1, [r1]
 333:Middlewares/LVGL/GUI/lvgl/src/core/lv_indev.c ****         data->point.y = disp->driver->ver_res - data->point.y - 1;
 3760              		.loc 1 333 60 view .LVU1205
 3761 0024 2B68     		ldr	r3, [r5]
 333:Middlewares/LVGL/GUI/lvgl/src/core/lv_indev.c ****         data->point.y = disp->driver->ver_res - data->point.y - 1;
 3762              		.loc 1 333 47 view .LVU1206
 3763 0026 C91A     		subs	r1, r1, r3
 333:Middlewares/LVGL/GUI/lvgl/src/core/lv_indev.c ****         data->point.y = disp->driver->ver_res - data->point.y - 1;
 3764              		.loc 1 333 63 view .LVU1207
 3765 0028 0139     		subs	r1, r1, #1
 333:Middlewares/LVGL/GUI/lvgl/src/core/lv_indev.c ****         data->point.y = disp->driver->ver_res - data->point.y - 1;
 3766              		.loc 1 333 23 view .LVU1208
 3767 002a 2960     		str	r1, [r5]
 334:Middlewares/LVGL/GUI/lvgl/src/core/lv_indev.c ****     }
 3768              		.loc 1 334 9 is_stmt 1 view .LVU1209
 334:Middlewares/LVGL/GUI/lvgl/src/core/lv_indev.c ****     }
 3769              		.loc 1 334 29 is_stmt 0 view .LVU1210
 3770 002c 1368     		ldr	r3, [r2]
 334:Middlewares/LVGL/GUI/lvgl/src/core/lv_indev.c ****     }
 3771              		.loc 1 334 37 view .LVU1211
 3772 002e 5B68     		ldr	r3, [r3, #4]
 334:Middlewares/LVGL/GUI/lvgl/src/core/lv_indev.c ****     }
 3773              		.loc 1 334 47 view .LVU1212
 3774 0030 1B1A     		subs	r3, r3, r0
 334:Middlewares/LVGL/GUI/lvgl/src/core/lv_indev.c ****     }
 3775              		.loc 1 334 63 view .LVU1213
 3776 0032 013B     		subs	r3, r3, #1
 334:Middlewares/LVGL/GUI/lvgl/src/core/lv_indev.c ****     }
 3777              		.loc 1 334 23 view .LVU1214
 3778 0034 6B60     		str	r3, [r5, #4]
 3779              	.L267:
 336:Middlewares/LVGL/GUI/lvgl/src/core/lv_indev.c ****         lv_coord_t tmp = data->point.y;
 3780              		.loc 1 336 5 is_stmt 1 view .LVU1215
 336:Middlewares/LVGL/GUI/lvgl/src/core/lv_indev.c ****         lv_coord_t tmp = data->point.y;
 3781              		.loc 1 336 12 is_stmt 0 view .LVU1216
 3782 0036 1368     		ldr	r3, [r2]
 336:Middlewares/LVGL/GUI/lvgl/src/core/lv_indev.c ****         lv_coord_t tmp = data->point.y;
 3783              		.loc 1 336 30 view .LVU1217
 3784 0038 1B7F     		ldrb	r3, [r3, #28]	@ zero_extendqisi2
 3785 003a 03F03003 		and	r3, r3, #48
 336:Middlewares/LVGL/GUI/lvgl/src/core/lv_indev.c ****         lv_coord_t tmp = data->point.y;
 3786              		.loc 1 336 7 view .LVU1218
 3787 003e 102B     		cmp	r3, #16
 3788 0040 01D0     		beq	.L268
 336:Middlewares/LVGL/GUI/lvgl/src/core/lv_indev.c ****         lv_coord_t tmp = data->point.y;
 3789              		.loc 1 336 48 discriminator 1 view .LVU1219
 3790 0042 302B     		cmp	r3, #48
 3791 0044 07D1     		bne	.L269
 3792              	.L268:
 3793              	.LBB11:
 337:Middlewares/LVGL/GUI/lvgl/src/core/lv_indev.c ****         data->point.y = data->point.x;
 3794              		.loc 1 337 9 is_stmt 1 view .LVU1220
ARM GAS  C:\Users\ADMINI~1\AppData\Local\Temp\ccU2iQFc.s 			page 107


 337:Middlewares/LVGL/GUI/lvgl/src/core/lv_indev.c ****         data->point.y = data->point.x;
 3795              		.loc 1 337 20 is_stmt 0 view .LVU1221
 3796 0046 6968     		ldr	r1, [r5, #4]
 3797              	.LVL326:
 338:Middlewares/LVGL/GUI/lvgl/src/core/lv_indev.c ****         data->point.x = disp->driver->ver_res - tmp - 1;
 3798              		.loc 1 338 9 is_stmt 1 view .LVU1222
 338:Middlewares/LVGL/GUI/lvgl/src/core/lv_indev.c ****         data->point.x = disp->driver->ver_res - tmp - 1;
 3799              		.loc 1 338 36 is_stmt 0 view .LVU1223
 3800 0048 2B68     		ldr	r3, [r5]
 338:Middlewares/LVGL/GUI/lvgl/src/core/lv_indev.c ****         data->point.x = disp->driver->ver_res - tmp - 1;
 3801              		.loc 1 338 23 view .LVU1224
 3802 004a 6B60     		str	r3, [r5, #4]
 339:Middlewares/LVGL/GUI/lvgl/src/core/lv_indev.c ****     }
 3803              		.loc 1 339 9 is_stmt 1 view .LVU1225
 339:Middlewares/LVGL/GUI/lvgl/src/core/lv_indev.c ****     }
 3804              		.loc 1 339 29 is_stmt 0 view .LVU1226
 3805 004c 1368     		ldr	r3, [r2]
 339:Middlewares/LVGL/GUI/lvgl/src/core/lv_indev.c ****     }
 3806              		.loc 1 339 37 view .LVU1227
 3807 004e 5B68     		ldr	r3, [r3, #4]
 339:Middlewares/LVGL/GUI/lvgl/src/core/lv_indev.c ****     }
 3808              		.loc 1 339 47 view .LVU1228
 3809 0050 5B1A     		subs	r3, r3, r1
 339:Middlewares/LVGL/GUI/lvgl/src/core/lv_indev.c ****     }
 3810              		.loc 1 339 53 view .LVU1229
 3811 0052 013B     		subs	r3, r3, #1
 339:Middlewares/LVGL/GUI/lvgl/src/core/lv_indev.c ****     }
 3812              		.loc 1 339 23 view .LVU1230
 3813 0054 2B60     		str	r3, [r5]
 3814              	.LVL327:
 3815              	.L269:
 339:Middlewares/LVGL/GUI/lvgl/src/core/lv_indev.c ****     }
 3816              		.loc 1 339 23 view .LVU1231
 3817              	.LBE11:
 343:Middlewares/LVGL/GUI/lvgl/src/core/lv_indev.c ****         LV_LOG_WARN("X is %d which is smaller than zero", data->point.x);
 3818              		.loc 1 343 5 is_stmt 1 view .LVU1232
 344:Middlewares/LVGL/GUI/lvgl/src/core/lv_indev.c ****     }
 3819              		.loc 1 344 9 view .LVU1233
 344:Middlewares/LVGL/GUI/lvgl/src/core/lv_indev.c ****     }
 3820              		.loc 1 344 9 view .LVU1234
 344:Middlewares/LVGL/GUI/lvgl/src/core/lv_indev.c ****     }
 3821              		.loc 1 344 9 view .LVU1235
 346:Middlewares/LVGL/GUI/lvgl/src/core/lv_indev.c ****         LV_LOG_WARN("X is %d which is greater than hor. res", data->point.x);
 3822              		.loc 1 346 5 view .LVU1236
 346:Middlewares/LVGL/GUI/lvgl/src/core/lv_indev.c ****         LV_LOG_WARN("X is %d which is greater than hor. res", data->point.x);
 3823              		.loc 1 346 46 is_stmt 0 view .LVU1237
 3824 0056 2368     		ldr	r3, [r4]
 346:Middlewares/LVGL/GUI/lvgl/src/core/lv_indev.c ****         LV_LOG_WARN("X is %d which is greater than hor. res", data->point.x);
 3825              		.loc 1 346 25 view .LVU1238
 3826 0058 1869     		ldr	r0, [r3, #16]
 3827 005a FFF7FEFF 		bl	lv_disp_get_hor_res
 3828              	.LVL328:
 347:Middlewares/LVGL/GUI/lvgl/src/core/lv_indev.c ****     }
 3829              		.loc 1 347 9 is_stmt 1 view .LVU1239
 347:Middlewares/LVGL/GUI/lvgl/src/core/lv_indev.c ****     }
 3830              		.loc 1 347 9 view .LVU1240
 347:Middlewares/LVGL/GUI/lvgl/src/core/lv_indev.c ****     }
ARM GAS  C:\Users\ADMINI~1\AppData\Local\Temp\ccU2iQFc.s 			page 108


 3831              		.loc 1 347 9 view .LVU1241
 349:Middlewares/LVGL/GUI/lvgl/src/core/lv_indev.c ****         LV_LOG_WARN("Y is %d which is smaller than zero", data->point.y);
 3832              		.loc 1 349 5 view .LVU1242
 350:Middlewares/LVGL/GUI/lvgl/src/core/lv_indev.c ****     }
 3833              		.loc 1 350 9 view .LVU1243
 350:Middlewares/LVGL/GUI/lvgl/src/core/lv_indev.c ****     }
 3834              		.loc 1 350 9 view .LVU1244
 350:Middlewares/LVGL/GUI/lvgl/src/core/lv_indev.c ****     }
 3835              		.loc 1 350 9 view .LVU1245
 352:Middlewares/LVGL/GUI/lvgl/src/core/lv_indev.c ****         LV_LOG_WARN("Y is %d which is greater than ver. res", data->point.y);
 3836              		.loc 1 352 5 view .LVU1246
 352:Middlewares/LVGL/GUI/lvgl/src/core/lv_indev.c ****         LV_LOG_WARN("Y is %d which is greater than ver. res", data->point.y);
 3837              		.loc 1 352 46 is_stmt 0 view .LVU1247
 3838 005e 2368     		ldr	r3, [r4]
 352:Middlewares/LVGL/GUI/lvgl/src/core/lv_indev.c ****         LV_LOG_WARN("Y is %d which is greater than ver. res", data->point.y);
 3839              		.loc 1 352 25 view .LVU1248
 3840 0060 1869     		ldr	r0, [r3, #16]
 3841 0062 FFF7FEFF 		bl	lv_disp_get_ver_res
 3842              	.LVL329:
 353:Middlewares/LVGL/GUI/lvgl/src/core/lv_indev.c ****     }
 3843              		.loc 1 353 9 is_stmt 1 view .LVU1249
 353:Middlewares/LVGL/GUI/lvgl/src/core/lv_indev.c ****     }
 3844              		.loc 1 353 9 view .LVU1250
 353:Middlewares/LVGL/GUI/lvgl/src/core/lv_indev.c ****     }
 3845              		.loc 1 353 9 view .LVU1251
 357:Middlewares/LVGL/GUI/lvgl/src/core/lv_indev.c ****        (i->proc.types.pointer.last_point.x != data->point.x || i->proc.types.pointer.last_point.y !
 3846              		.loc 1 357 5 view .LVU1252
 357:Middlewares/LVGL/GUI/lvgl/src/core/lv_indev.c ****        (i->proc.types.pointer.last_point.x != data->point.x || i->proc.types.pointer.last_point.y !
 3847              		.loc 1 357 9 is_stmt 0 view .LVU1253
 3848 0066 606F     		ldr	r0, [r4, #116]
 357:Middlewares/LVGL/GUI/lvgl/src/core/lv_indev.c ****        (i->proc.types.pointer.last_point.x != data->point.x || i->proc.types.pointer.last_point.y !
 3849              		.loc 1 357 7 view .LVU1254
 3850 0068 50B1     		cbz	r0, .L270
 358:Middlewares/LVGL/GUI/lvgl/src/core/lv_indev.c ****         lv_obj_set_pos(i->cursor, data->point.x, data->point.y);
 3851              		.loc 1 358 41 discriminator 1 view .LVU1255
 3852 006a 2369     		ldr	r3, [r4, #16]
 358:Middlewares/LVGL/GUI/lvgl/src/core/lv_indev.c ****         lv_obj_set_pos(i->cursor, data->point.x, data->point.y);
 3853              		.loc 1 358 58 discriminator 1 view .LVU1256
 3854 006c 2968     		ldr	r1, [r5]
 357:Middlewares/LVGL/GUI/lvgl/src/core/lv_indev.c ****        (i->proc.types.pointer.last_point.x != data->point.x || i->proc.types.pointer.last_point.y !
 3855              		.loc 1 357 26 discriminator 1 view .LVU1257
 3856 006e 8B42     		cmp	r3, r1
 3857 0070 03D1     		bne	.L271
 358:Middlewares/LVGL/GUI/lvgl/src/core/lv_indev.c ****         lv_obj_set_pos(i->cursor, data->point.x, data->point.y);
 3858              		.loc 1 358 96 view .LVU1258
 3859 0072 6269     		ldr	r2, [r4, #20]
 358:Middlewares/LVGL/GUI/lvgl/src/core/lv_indev.c ****         lv_obj_set_pos(i->cursor, data->point.x, data->point.y);
 3860              		.loc 1 358 113 view .LVU1259
 3861 0074 6B68     		ldr	r3, [r5, #4]
 358:Middlewares/LVGL/GUI/lvgl/src/core/lv_indev.c ****         lv_obj_set_pos(i->cursor, data->point.x, data->point.y);
 3862              		.loc 1 358 61 view .LVU1260
 3863 0076 9A42     		cmp	r2, r3
 3864 0078 02D0     		beq	.L270
 3865              	.L271:
 359:Middlewares/LVGL/GUI/lvgl/src/core/lv_indev.c ****     }
 3866              		.loc 1 359 9 is_stmt 1 view .LVU1261
 3867 007a 6A68     		ldr	r2, [r5, #4]
ARM GAS  C:\Users\ADMINI~1\AppData\Local\Temp\ccU2iQFc.s 			page 109


 3868 007c FFF7FEFF 		bl	lv_obj_set_pos
 3869              	.LVL330:
 3870              	.L270:
 362:Middlewares/LVGL/GUI/lvgl/src/core/lv_indev.c ****     i->proc.types.pointer.act_point.y = data->point.y;
 3871              		.loc 1 362 5 view .LVU1262
 362:Middlewares/LVGL/GUI/lvgl/src/core/lv_indev.c ****     i->proc.types.pointer.act_point.y = data->point.y;
 3872              		.loc 1 362 52 is_stmt 0 view .LVU1263
 3873 0080 2B68     		ldr	r3, [r5]
 362:Middlewares/LVGL/GUI/lvgl/src/core/lv_indev.c ****     i->proc.types.pointer.act_point.y = data->point.y;
 3874              		.loc 1 362 39 view .LVU1264
 3875 0082 A360     		str	r3, [r4, #8]
 363:Middlewares/LVGL/GUI/lvgl/src/core/lv_indev.c **** 
 3876              		.loc 1 363 5 is_stmt 1 view .LVU1265
 363:Middlewares/LVGL/GUI/lvgl/src/core/lv_indev.c **** 
 3877              		.loc 1 363 52 is_stmt 0 view .LVU1266
 3878 0084 6B68     		ldr	r3, [r5, #4]
 363:Middlewares/LVGL/GUI/lvgl/src/core/lv_indev.c **** 
 3879              		.loc 1 363 39 view .LVU1267
 3880 0086 E360     		str	r3, [r4, #12]
 365:Middlewares/LVGL/GUI/lvgl/src/core/lv_indev.c ****         indev_proc_press(&i->proc);
 3881              		.loc 1 365 5 is_stmt 1 view .LVU1268
 365:Middlewares/LVGL/GUI/lvgl/src/core/lv_indev.c ****         indev_proc_press(&i->proc);
 3882              		.loc 1 365 15 is_stmt 0 view .LVU1269
 3883 0088 2379     		ldrb	r3, [r4, #4]	@ zero_extendqisi2
 365:Middlewares/LVGL/GUI/lvgl/src/core/lv_indev.c ****         indev_proc_press(&i->proc);
 3884              		.loc 1 365 7 view .LVU1270
 3885 008a 012B     		cmp	r3, #1
 3886 008c 07D0     		beq	.L275
 369:Middlewares/LVGL/GUI/lvgl/src/core/lv_indev.c ****     }
 3887              		.loc 1 369 9 is_stmt 1 view .LVU1271
 3888 008e 201D     		adds	r0, r4, #4
 3889 0090 FFF7FEFF 		bl	indev_proc_release
 3890              	.LVL331:
 3891              	.L273:
 372:Middlewares/LVGL/GUI/lvgl/src/core/lv_indev.c ****     i->proc.types.pointer.last_point.y = i->proc.types.pointer.act_point.y;
 3892              		.loc 1 372 5 view .LVU1272
 372:Middlewares/LVGL/GUI/lvgl/src/core/lv_indev.c ****     i->proc.types.pointer.last_point.y = i->proc.types.pointer.act_point.y;
 3893              		.loc 1 372 73 is_stmt 0 view .LVU1273
 3894 0094 A368     		ldr	r3, [r4, #8]
 372:Middlewares/LVGL/GUI/lvgl/src/core/lv_indev.c ****     i->proc.types.pointer.last_point.y = i->proc.types.pointer.act_point.y;
 3895              		.loc 1 372 40 view .LVU1274
 3896 0096 2361     		str	r3, [r4, #16]
 373:Middlewares/LVGL/GUI/lvgl/src/core/lv_indev.c **** }
 3897              		.loc 1 373 5 is_stmt 1 view .LVU1275
 373:Middlewares/LVGL/GUI/lvgl/src/core/lv_indev.c **** }
 3898              		.loc 1 373 73 is_stmt 0 view .LVU1276
 3899 0098 E368     		ldr	r3, [r4, #12]
 373:Middlewares/LVGL/GUI/lvgl/src/core/lv_indev.c **** }
 3900              		.loc 1 373 40 view .LVU1277
 3901 009a 6361     		str	r3, [r4, #20]
 374:Middlewares/LVGL/GUI/lvgl/src/core/lv_indev.c **** 
 3902              		.loc 1 374 1 view .LVU1278
 3903 009c 38BD     		pop	{r3, r4, r5, pc}
 3904              	.LVL332:
 3905              	.L275:
 366:Middlewares/LVGL/GUI/lvgl/src/core/lv_indev.c ****     }
 3906              		.loc 1 366 9 is_stmt 1 view .LVU1279
ARM GAS  C:\Users\ADMINI~1\AppData\Local\Temp\ccU2iQFc.s 			page 110


 3907 009e 201D     		adds	r0, r4, #4
 3908 00a0 FFF7FEFF 		bl	indev_proc_press
 3909              	.LVL333:
 3910 00a4 F6E7     		b	.L273
 3911              		.cfi_endproc
 3912              	.LFE178:
 3914              		.section	.text.indev_button_proc,"ax",%progbits
 3915              		.align	1
 3916              		.syntax unified
 3917              		.thumb
 3918              		.thumb_func
 3920              	indev_button_proc:
 3921              	.LVL334:
 3922              	.LFB181:
 733:Middlewares/LVGL/GUI/lvgl/src/core/lv_indev.c ****     /*Die gracefully if i->btn_points is NULL*/
 3923              		.loc 1 733 1 view -0
 3924              		.cfi_startproc
 3925              		@ args = 0, pretend = 0, frame = 0
 3926              		@ frame_needed = 0, uses_anonymous_args = 0
 735:Middlewares/LVGL/GUI/lvgl/src/core/lv_indev.c ****         LV_LOG_WARN("btn_points is NULL");
 3927              		.loc 1 735 5 view .LVU1281
 735:Middlewares/LVGL/GUI/lvgl/src/core/lv_indev.c ****         LV_LOG_WARN("btn_points is NULL");
 3928              		.loc 1 735 9 is_stmt 0 view .LVU1282
 3929 0000 C36F     		ldr	r3, [r0, #124]
 735:Middlewares/LVGL/GUI/lvgl/src/core/lv_indev.c ****         LV_LOG_WARN("btn_points is NULL");
 3930              		.loc 1 735 7 view .LVU1283
 3931 0002 9BB3     		cbz	r3, .L283
 733:Middlewares/LVGL/GUI/lvgl/src/core/lv_indev.c ****     /*Die gracefully if i->btn_points is NULL*/
 3932              		.loc 1 733 1 view .LVU1284
 3933 0004 2DE9F041 		push	{r4, r5, r6, r7, r8, lr}
 3934              	.LCFI11:
 3935              		.cfi_def_cfa_offset 24
 3936              		.cfi_offset 4, -24
 3937              		.cfi_offset 5, -20
 3938              		.cfi_offset 6, -16
 3939              		.cfi_offset 7, -12
 3940              		.cfi_offset 8, -8
 3941              		.cfi_offset 14, -4
 3942 0008 0446     		mov	r4, r0
 3943 000a 0D46     		mov	r5, r1
 740:Middlewares/LVGL/GUI/lvgl/src/core/lv_indev.c ****     lv_coord_t y = i->btn_points[data->btn_id].y;
 3944              		.loc 1 740 5 is_stmt 1 view .LVU1285
 740:Middlewares/LVGL/GUI/lvgl/src/core/lv_indev.c ****     lv_coord_t y = i->btn_points[data->btn_id].y;
 3945              		.loc 1 740 38 is_stmt 0 view .LVU1286
 3946 000c CA68     		ldr	r2, [r1, #12]
 740:Middlewares/LVGL/GUI/lvgl/src/core/lv_indev.c ****     lv_coord_t y = i->btn_points[data->btn_id].y;
 3947              		.loc 1 740 33 view .LVU1287
 3948 000e 03EBC201 		add	r1, r3, r2, lsl #3
 3949              	.LVL335:
 740:Middlewares/LVGL/GUI/lvgl/src/core/lv_indev.c ****     lv_coord_t y = i->btn_points[data->btn_id].y;
 3950              		.loc 1 740 16 view .LVU1288
 3951 0012 53F83270 		ldr	r7, [r3, r2, lsl #3]
 3952              	.LVL336:
 741:Middlewares/LVGL/GUI/lvgl/src/core/lv_indev.c **** 
 3953              		.loc 1 741 5 is_stmt 1 view .LVU1289
 741:Middlewares/LVGL/GUI/lvgl/src/core/lv_indev.c **** 
 3954              		.loc 1 741 16 is_stmt 0 view .LVU1290
ARM GAS  C:\Users\ADMINI~1\AppData\Local\Temp\ccU2iQFc.s 			page 111


 3955 0016 D1F80480 		ldr	r8, [r1, #4]
 3956              	.LVL337:
 743:Middlewares/LVGL/GUI/lvgl/src/core/lv_indev.c ****     if(prev_state != data->state) {
 3957              		.loc 1 743 5 is_stmt 1 view .LVU1291
 744:Middlewares/LVGL/GUI/lvgl/src/core/lv_indev.c ****         if(data->state == LV_INDEV_STATE_PRESSED) {
 3958              		.loc 1 744 5 view .LVU1292
 744:Middlewares/LVGL/GUI/lvgl/src/core/lv_indev.c ****         if(data->state == LV_INDEV_STATE_PRESSED) {
 3959              		.loc 1 744 26 is_stmt 0 view .LVU1293
 3960 001a AB7C     		ldrb	r3, [r5, #18]	@ zero_extendqisi2
 749:Middlewares/LVGL/GUI/lvgl/src/core/lv_indev.c ****         }
 3961              		.loc 1 749 13 is_stmt 1 view .LVU1294
 749:Middlewares/LVGL/GUI/lvgl/src/core/lv_indev.c ****         }
 3962              		.loc 1 749 13 view .LVU1295
 749:Middlewares/LVGL/GUI/lvgl/src/core/lv_indev.c ****         }
 3963              		.loc 1 749 13 view .LVU1296
 754:Middlewares/LVGL/GUI/lvgl/src/core/lv_indev.c ****         if(i->proc.types.pointer.last_point.x != x ||
 3964              		.loc 1 754 5 view .LVU1297
 754:Middlewares/LVGL/GUI/lvgl/src/core/lv_indev.c ****         if(i->proc.types.pointer.last_point.x != x ||
 3965              		.loc 1 754 7 is_stmt 0 view .LVU1298
 3966 001c 012B     		cmp	r3, #1
 3967 001e 17D0     		beq	.L286
 3968              	.LVL338:
 3969              	.L278:
 761:Middlewares/LVGL/GUI/lvgl/src/core/lv_indev.c **** 
 3970              		.loc 1 761 5 is_stmt 1 view .LVU1299
 761:Middlewares/LVGL/GUI/lvgl/src/core/lv_indev.c **** 
 3971              		.loc 1 761 8 is_stmt 0 view .LVU1300
 3972 0020 261D     		adds	r6, r4, #4
 3973 0022 3046     		mov	r0, r6
 3974 0024 FFF7FEFF 		bl	indev_reset_check
 3975              	.LVL339:
 761:Middlewares/LVGL/GUI/lvgl/src/core/lv_indev.c **** 
 3976              		.loc 1 761 7 view .LVU1301
 3977 0028 80B9     		cbnz	r0, .L276
 764:Middlewares/LVGL/GUI/lvgl/src/core/lv_indev.c ****     i->proc.types.pointer.act_point.y = y;
 3978              		.loc 1 764 5 is_stmt 1 view .LVU1302
 764:Middlewares/LVGL/GUI/lvgl/src/core/lv_indev.c ****     i->proc.types.pointer.act_point.y = y;
 3979              		.loc 1 764 39 is_stmt 0 view .LVU1303
 3980 002a A760     		str	r7, [r4, #8]
 765:Middlewares/LVGL/GUI/lvgl/src/core/lv_indev.c **** 
 3981              		.loc 1 765 5 is_stmt 1 view .LVU1304
 765:Middlewares/LVGL/GUI/lvgl/src/core/lv_indev.c **** 
 3982              		.loc 1 765 39 is_stmt 0 view .LVU1305
 3983 002c C4F80C80 		str	r8, [r4, #12]
 767:Middlewares/LVGL/GUI/lvgl/src/core/lv_indev.c ****     else indev_proc_release(&i->proc);
 3984              		.loc 1 767 5 is_stmt 1 view .LVU1306
 767:Middlewares/LVGL/GUI/lvgl/src/core/lv_indev.c ****     else indev_proc_release(&i->proc);
 3985              		.loc 1 767 12 is_stmt 0 view .LVU1307
 3986 0030 AB7C     		ldrb	r3, [r5, #18]	@ zero_extendqisi2
 767:Middlewares/LVGL/GUI/lvgl/src/core/lv_indev.c ****     else indev_proc_release(&i->proc);
 3987              		.loc 1 767 7 view .LVU1308
 3988 0032 012B     		cmp	r3, #1
 3989 0034 16D0     		beq	.L287
 768:Middlewares/LVGL/GUI/lvgl/src/core/lv_indev.c **** 
 3990              		.loc 1 768 10 is_stmt 1 view .LVU1309
 3991 0036 3046     		mov	r0, r6
 3992 0038 FFF7FEFF 		bl	indev_proc_release
ARM GAS  C:\Users\ADMINI~1\AppData\Local\Temp\ccU2iQFc.s 			page 112


 3993              	.LVL340:
 3994              	.L281:
 770:Middlewares/LVGL/GUI/lvgl/src/core/lv_indev.c **** 
 3995              		.loc 1 770 5 view .LVU1310
 770:Middlewares/LVGL/GUI/lvgl/src/core/lv_indev.c **** 
 3996              		.loc 1 770 8 is_stmt 0 view .LVU1311
 3997 003c 3046     		mov	r0, r6
 3998 003e FFF7FEFF 		bl	indev_reset_check
 3999              	.LVL341:
 770:Middlewares/LVGL/GUI/lvgl/src/core/lv_indev.c **** 
 4000              		.loc 1 770 7 view .LVU1312
 4001 0042 18B9     		cbnz	r0, .L276
 772:Middlewares/LVGL/GUI/lvgl/src/core/lv_indev.c ****     i->proc.types.pointer.last_point.y = i->proc.types.pointer.act_point.y;
 4002              		.loc 1 772 5 is_stmt 1 view .LVU1313
 772:Middlewares/LVGL/GUI/lvgl/src/core/lv_indev.c ****     i->proc.types.pointer.last_point.y = i->proc.types.pointer.act_point.y;
 4003              		.loc 1 772 73 is_stmt 0 view .LVU1314
 4004 0044 A368     		ldr	r3, [r4, #8]
 772:Middlewares/LVGL/GUI/lvgl/src/core/lv_indev.c ****     i->proc.types.pointer.last_point.y = i->proc.types.pointer.act_point.y;
 4005              		.loc 1 772 40 view .LVU1315
 4006 0046 2361     		str	r3, [r4, #16]
 773:Middlewares/LVGL/GUI/lvgl/src/core/lv_indev.c **** }
 4007              		.loc 1 773 5 is_stmt 1 view .LVU1316
 773:Middlewares/LVGL/GUI/lvgl/src/core/lv_indev.c **** }
 4008              		.loc 1 773 73 is_stmt 0 view .LVU1317
 4009 0048 E368     		ldr	r3, [r4, #12]
 773:Middlewares/LVGL/GUI/lvgl/src/core/lv_indev.c **** }
 4010              		.loc 1 773 40 view .LVU1318
 4011 004a 6361     		str	r3, [r4, #20]
 4012              	.L276:
 774:Middlewares/LVGL/GUI/lvgl/src/core/lv_indev.c **** 
 4013              		.loc 1 774 1 view .LVU1319
 4014 004c BDE8F081 		pop	{r4, r5, r6, r7, r8, pc}
 4015              	.LVL342:
 4016              	.L286:
 755:Middlewares/LVGL/GUI/lvgl/src/core/lv_indev.c ****            i->proc.types.pointer.last_point.y != y) {
 4017              		.loc 1 755 9 is_stmt 1 view .LVU1320
 755:Middlewares/LVGL/GUI/lvgl/src/core/lv_indev.c ****            i->proc.types.pointer.last_point.y != y) {
 4018              		.loc 1 755 44 is_stmt 0 view .LVU1321
 4019 0050 0369     		ldr	r3, [r0, #16]
 755:Middlewares/LVGL/GUI/lvgl/src/core/lv_indev.c ****            i->proc.types.pointer.last_point.y != y) {
 4020              		.loc 1 755 11 view .LVU1322
 4021 0052 BB42     		cmp	r3, r7
 4022 0054 02D1     		bne	.L279
 756:Middlewares/LVGL/GUI/lvgl/src/core/lv_indev.c ****             indev_proc_release(&i->proc);
 4023              		.loc 1 756 44 discriminator 1 view .LVU1323
 4024 0056 4369     		ldr	r3, [r0, #20]
 755:Middlewares/LVGL/GUI/lvgl/src/core/lv_indev.c ****            i->proc.types.pointer.last_point.y != y) {
 4025              		.loc 1 755 52 discriminator 1 view .LVU1324
 4026 0058 4345     		cmp	r3, r8
 4027 005a E1D0     		beq	.L278
 4028              	.L279:
 757:Middlewares/LVGL/GUI/lvgl/src/core/lv_indev.c ****         }
 4029              		.loc 1 757 13 is_stmt 1 view .LVU1325
 4030 005c 201D     		adds	r0, r4, #4
 4031              	.LVL343:
 757:Middlewares/LVGL/GUI/lvgl/src/core/lv_indev.c ****         }
 4032              		.loc 1 757 13 is_stmt 0 view .LVU1326
ARM GAS  C:\Users\ADMINI~1\AppData\Local\Temp\ccU2iQFc.s 			page 113


 4033 005e FFF7FEFF 		bl	indev_proc_release
 4034              	.LVL344:
 4035 0062 DDE7     		b	.L278
 4036              	.L287:
 767:Middlewares/LVGL/GUI/lvgl/src/core/lv_indev.c ****     else indev_proc_release(&i->proc);
 4037              		.loc 1 767 47 is_stmt 1 discriminator 1 view .LVU1327
 4038 0064 3046     		mov	r0, r6
 4039 0066 FFF7FEFF 		bl	indev_proc_press
 4040              	.LVL345:
 4041 006a E7E7     		b	.L281
 4042              	.LVL346:
 4043              	.L283:
 4044              	.LCFI12:
 4045              		.cfi_def_cfa_offset 0
 4046              		.cfi_restore 4
 4047              		.cfi_restore 5
 4048              		.cfi_restore 6
 4049              		.cfi_restore 7
 4050              		.cfi_restore 8
 4051              		.cfi_restore 14
 767:Middlewares/LVGL/GUI/lvgl/src/core/lv_indev.c ****     else indev_proc_release(&i->proc);
 4052              		.loc 1 767 47 is_stmt 0 discriminator 1 view .LVU1328
 4053 006c 7047     		bx	lr
 4054              		.cfi_endproc
 4055              	.LFE181:
 4057              		.section	.text.lv_indev_read_timer_cb,"ax",%progbits
 4058              		.align	1
 4059              		.global	lv_indev_read_timer_cb
 4060              		.syntax unified
 4061              		.thumb
 4062              		.thumb_func
 4064              	lv_indev_read_timer_cb:
 4065              	.LVL347:
 4066              	.LFB159:
  65:Middlewares/LVGL/GUI/lvgl/src/core/lv_indev.c ****     INDEV_TRACE("begin");
 4067              		.loc 1 65 1 is_stmt 1 view -0
 4068              		.cfi_startproc
 4069              		@ args = 0, pretend = 0, frame = 24
 4070              		@ frame_needed = 0, uses_anonymous_args = 0
  66:Middlewares/LVGL/GUI/lvgl/src/core/lv_indev.c **** 
 4071              		.loc 1 66 25 view .LVU1330
  68:Middlewares/LVGL/GUI/lvgl/src/core/lv_indev.c **** 
 4072              		.loc 1 68 5 view .LVU1331
  70:Middlewares/LVGL/GUI/lvgl/src/core/lv_indev.c **** 
 4073              		.loc 1 70 5 view .LVU1332
  70:Middlewares/LVGL/GUI/lvgl/src/core/lv_indev.c **** 
 4074              		.loc 1 70 22 is_stmt 0 view .LVU1333
 4075 0000 C068     		ldr	r0, [r0, #12]
 4076              	.LVL348:
  70:Middlewares/LVGL/GUI/lvgl/src/core/lv_indev.c **** 
 4077              		.loc 1 70 15 view .LVU1334
 4078 0002 304B     		ldr	r3, .L308
 4079 0004 1860     		str	r0, [r3]
  73:Middlewares/LVGL/GUI/lvgl/src/core/lv_indev.c **** 
 4080              		.loc 1 73 5 is_stmt 1 view .LVU1335
  73:Middlewares/LVGL/GUI/lvgl/src/core/lv_indev.c **** 
 4081              		.loc 1 73 17 is_stmt 0 view .LVU1336
ARM GAS  C:\Users\ADMINI~1\AppData\Local\Temp\ccU2iQFc.s 			page 114


 4082 0006 0368     		ldr	r3, [r0]
  73:Middlewares/LVGL/GUI/lvgl/src/core/lv_indev.c **** 
 4083              		.loc 1 73 25 view .LVU1337
 4084 0008 1B69     		ldr	r3, [r3, #16]
  73:Middlewares/LVGL/GUI/lvgl/src/core/lv_indev.c **** 
 4085              		.loc 1 73 7 view .LVU1338
 4086 000a 002B     		cmp	r3, #0
 4087 000c 58D0     		beq	.L299
  65:Middlewares/LVGL/GUI/lvgl/src/core/lv_indev.c ****     INDEV_TRACE("begin");
 4088              		.loc 1 65 1 view .LVU1339
 4089 000e 30B5     		push	{r4, r5, lr}
 4090              	.LCFI13:
 4091              		.cfi_def_cfa_offset 12
 4092              		.cfi_offset 4, -12
 4093              		.cfi_offset 5, -8
 4094              		.cfi_offset 14, -4
 4095 0010 87B0     		sub	sp, sp, #28
 4096              	.LCFI14:
 4097              		.cfi_def_cfa_offset 40
  76:Middlewares/LVGL/GUI/lvgl/src/core/lv_indev.c **** 
 4098              		.loc 1 76 5 is_stmt 1 view .LVU1340
 4099 0012 FFF7FEFF 		bl	indev_proc_reset_query_handler
 4100              	.LVL349:
  78:Middlewares/LVGL/GUI/lvgl/src/core/lv_indev.c ****     bool continue_reading;
 4101              		.loc 1 78 5 view .LVU1341
  78:Middlewares/LVGL/GUI/lvgl/src/core/lv_indev.c ****     bool continue_reading;
 4102              		.loc 1 78 17 is_stmt 0 view .LVU1342
 4103 0016 2B4B     		ldr	r3, .L308
 4104 0018 1B68     		ldr	r3, [r3]
  78:Middlewares/LVGL/GUI/lvgl/src/core/lv_indev.c ****     bool continue_reading;
 4105              		.loc 1 78 8 view .LVU1343
 4106 001a 5B79     		ldrb	r3, [r3, #5]	@ zero_extendqisi2
  78:Middlewares/LVGL/GUI/lvgl/src/core/lv_indev.c ****     bool continue_reading;
 4107              		.loc 1 78 7 view .LVU1344
 4108 001c 13F0040F 		tst	r3, #4
 4109 0020 18D0     		beq	.L296
 4110 0022 4BE0     		b	.L288
 4111              	.LVL350:
 4112              	.L303:
  93:Middlewares/LVGL/GUI/lvgl/src/core/lv_indev.c ****         }
 4113              		.loc 1 93 13 is_stmt 1 view .LVU1345
  93:Middlewares/LVGL/GUI/lvgl/src/core/lv_indev.c ****         }
 4114              		.loc 1 93 22 is_stmt 0 view .LVU1346
 4115 0024 1368     		ldr	r3, [r2]
  93:Middlewares/LVGL/GUI/lvgl/src/core/lv_indev.c ****         }
 4116              		.loc 1 93 30 view .LVU1347
 4117 0026 1C69     		ldr	r4, [r3, #16]
  93:Middlewares/LVGL/GUI/lvgl/src/core/lv_indev.c ****         }
 4118              		.loc 1 93 59 view .LVU1348
 4119 0028 FFF7FEFF 		bl	lv_tick_get
 4120              	.LVL351:
  93:Middlewares/LVGL/GUI/lvgl/src/core/lv_indev.c ****         }
 4121              		.loc 1 93 57 view .LVU1349
 4122 002c C4F85402 		str	r0, [r4, #596]
 4123 0030 27E0     		b	.L291
 4124              	.L304:
  95:Middlewares/LVGL/GUI/lvgl/src/core/lv_indev.c ****             indev_act->driver->disp->last_activity_time = lv_tick_get();
ARM GAS  C:\Users\ADMINI~1\AppData\Local\Temp\ccU2iQFc.s 			page 115


 4125              		.loc 1 95 73 discriminator 1 view .LVU1350
 4126 0032 BDF91420 		ldrsh	r2, [sp, #20]
  95:Middlewares/LVGL/GUI/lvgl/src/core/lv_indev.c ****             indev_act->driver->disp->last_activity_time = lv_tick_get();
 4127              		.loc 1 95 66 discriminator 1 view .LVU1351
 4128 0036 22B3     		cbz	r2, .L291
  96:Middlewares/LVGL/GUI/lvgl/src/core/lv_indev.c ****         }
 4129              		.loc 1 96 13 is_stmt 1 view .LVU1352
  96:Middlewares/LVGL/GUI/lvgl/src/core/lv_indev.c ****         }
 4130              		.loc 1 96 30 is_stmt 0 view .LVU1353
 4131 0038 1C69     		ldr	r4, [r3, #16]
  96:Middlewares/LVGL/GUI/lvgl/src/core/lv_indev.c ****         }
 4132              		.loc 1 96 59 view .LVU1354
 4133 003a FFF7FEFF 		bl	lv_tick_get
 4134              	.LVL352:
  96:Middlewares/LVGL/GUI/lvgl/src/core/lv_indev.c ****         }
 4135              		.loc 1 96 57 view .LVU1355
 4136 003e C4F85402 		str	r0, [r4, #596]
 4137 0042 1EE0     		b	.L291
 4138              	.L305:
 100:Middlewares/LVGL/GUI/lvgl/src/core/lv_indev.c ****         }
 4139              		.loc 1 100 13 is_stmt 1 view .LVU1356
 4140 0044 01A9     		add	r1, sp, #4
 4141 0046 FFF7FEFF 		bl	indev_pointer_proc
 4142              	.LVL353:
 4143              	.L293:
 112:Middlewares/LVGL/GUI/lvgl/src/core/lv_indev.c ****     } while(continue_reading);
 4144              		.loc 1 112 9 view .LVU1357
 4145 004a 1E4B     		ldr	r3, .L308
 4146 004c 1868     		ldr	r0, [r3]
 4147 004e FFF7FEFF 		bl	indev_proc_reset_query_handler
 4148              	.LVL354:
 113:Middlewares/LVGL/GUI/lvgl/src/core/lv_indev.c **** 
 4149              		.loc 1 113 12 view .LVU1358
 113:Middlewares/LVGL/GUI/lvgl/src/core/lv_indev.c **** 
 4150              		.loc 1 113 5 is_stmt 0 view .LVU1359
 4151 0052 75B3     		cbz	r5, .L302
 4152              	.LVL355:
 4153              	.L296:
  79:Middlewares/LVGL/GUI/lvgl/src/core/lv_indev.c ****     do {
 4154              		.loc 1 79 5 is_stmt 1 view .LVU1360
  80:Middlewares/LVGL/GUI/lvgl/src/core/lv_indev.c ****         /*Read the data*/
 4155              		.loc 1 80 5 view .LVU1361
  82:Middlewares/LVGL/GUI/lvgl/src/core/lv_indev.c ****         continue_reading = data.continue_reading;
 4156              		.loc 1 82 9 view .LVU1362
 4157 0054 1B4C     		ldr	r4, .L308
 4158 0056 01A9     		add	r1, sp, #4
 4159 0058 2068     		ldr	r0, [r4]
 4160 005a FFF7FEFF 		bl	_lv_indev_read
 4161              	.LVL356:
  83:Middlewares/LVGL/GUI/lvgl/src/core/lv_indev.c **** 
 4162              		.loc 1 83 9 view .LVU1363
  83:Middlewares/LVGL/GUI/lvgl/src/core/lv_indev.c **** 
 4163              		.loc 1 83 26 is_stmt 0 view .LVU1364
 4164 005e 9DF81750 		ldrb	r5, [sp, #23]	@ zero_extendqisi2
 4165              	.LVL357:
  86:Middlewares/LVGL/GUI/lvgl/src/core/lv_indev.c ****         indev_obj_act = NULL;
 4166              		.loc 1 86 9 is_stmt 1 view .LVU1365
ARM GAS  C:\Users\ADMINI~1\AppData\Local\Temp\ccU2iQFc.s 			page 116


 4167 0062 2068     		ldr	r0, [r4]
 4168 0064 FFF7FEFF 		bl	indev_proc_reset_query_handler
 4169              	.LVL358:
  87:Middlewares/LVGL/GUI/lvgl/src/core/lv_indev.c **** 
 4170              		.loc 1 87 9 view .LVU1366
  87:Middlewares/LVGL/GUI/lvgl/src/core/lv_indev.c **** 
 4171              		.loc 1 87 23 is_stmt 0 view .LVU1367
 4172 0068 174B     		ldr	r3, .L308+4
 4173 006a 0022     		movs	r2, #0
 4174 006c 1A60     		str	r2, [r3]
  89:Middlewares/LVGL/GUI/lvgl/src/core/lv_indev.c **** 
 4175              		.loc 1 89 9 is_stmt 1 view .LVU1368
  89:Middlewares/LVGL/GUI/lvgl/src/core/lv_indev.c **** 
 4176              		.loc 1 89 18 is_stmt 0 view .LVU1369
 4177 006e 2268     		ldr	r2, [r4]
  89:Middlewares/LVGL/GUI/lvgl/src/core/lv_indev.c **** 
 4178              		.loc 1 89 37 view .LVU1370
 4179 0070 9DF81630 		ldrb	r3, [sp, #22]	@ zero_extendqisi2
  89:Middlewares/LVGL/GUI/lvgl/src/core/lv_indev.c **** 
 4180              		.loc 1 89 31 view .LVU1371
 4181 0074 1371     		strb	r3, [r2, #4]
  92:Middlewares/LVGL/GUI/lvgl/src/core/lv_indev.c ****             indev_act->driver->disp->last_activity_time = lv_tick_get();
 4182              		.loc 1 92 9 is_stmt 1 view .LVU1372
  92:Middlewares/LVGL/GUI/lvgl/src/core/lv_indev.c ****             indev_act->driver->disp->last_activity_time = lv_tick_get();
 4183              		.loc 1 92 11 is_stmt 0 view .LVU1373
 4184 0076 012B     		cmp	r3, #1
 4185 0078 D4D0     		beq	.L303
  95:Middlewares/LVGL/GUI/lvgl/src/core/lv_indev.c ****             indev_act->driver->disp->last_activity_time = lv_tick_get();
 4186              		.loc 1 95 14 is_stmt 1 view .LVU1374
  95:Middlewares/LVGL/GUI/lvgl/src/core/lv_indev.c ****             indev_act->driver->disp->last_activity_time = lv_tick_get();
 4187              		.loc 1 95 26 is_stmt 0 view .LVU1375
 4188 007a 1368     		ldr	r3, [r2]
  95:Middlewares/LVGL/GUI/lvgl/src/core/lv_indev.c ****             indev_act->driver->disp->last_activity_time = lv_tick_get();
 4189              		.loc 1 95 34 view .LVU1376
 4190 007c 1A78     		ldrb	r2, [r3]	@ zero_extendqisi2
  95:Middlewares/LVGL/GUI/lvgl/src/core/lv_indev.c ****             indev_act->driver->disp->last_activity_time = lv_tick_get();
 4191              		.loc 1 95 16 view .LVU1377
 4192 007e 042A     		cmp	r2, #4
 4193 0080 D7D0     		beq	.L304
 4194              	.L291:
  99:Middlewares/LVGL/GUI/lvgl/src/core/lv_indev.c ****             indev_pointer_proc(indev_act, &data);
 4195              		.loc 1 99 9 is_stmt 1 view .LVU1378
  99:Middlewares/LVGL/GUI/lvgl/src/core/lv_indev.c ****             indev_pointer_proc(indev_act, &data);
 4196              		.loc 1 99 21 is_stmt 0 view .LVU1379
 4197 0082 104B     		ldr	r3, .L308
 4198 0084 1868     		ldr	r0, [r3]
 4199 0086 0368     		ldr	r3, [r0]
  99:Middlewares/LVGL/GUI/lvgl/src/core/lv_indev.c ****             indev_pointer_proc(indev_act, &data);
 4200              		.loc 1 99 29 view .LVU1380
 4201 0088 1B78     		ldrb	r3, [r3]	@ zero_extendqisi2
  99:Middlewares/LVGL/GUI/lvgl/src/core/lv_indev.c ****             indev_pointer_proc(indev_act, &data);
 4202              		.loc 1 99 11 view .LVU1381
 4203 008a 012B     		cmp	r3, #1
 4204 008c DAD0     		beq	.L305
 102:Middlewares/LVGL/GUI/lvgl/src/core/lv_indev.c ****             indev_keypad_proc(indev_act, &data);
 4205              		.loc 1 102 14 is_stmt 1 view .LVU1382
 102:Middlewares/LVGL/GUI/lvgl/src/core/lv_indev.c ****             indev_keypad_proc(indev_act, &data);
ARM GAS  C:\Users\ADMINI~1\AppData\Local\Temp\ccU2iQFc.s 			page 117


 4206              		.loc 1 102 16 is_stmt 0 view .LVU1383
 4207 008e 022B     		cmp	r3, #2
 4208 0090 07D0     		beq	.L306
 105:Middlewares/LVGL/GUI/lvgl/src/core/lv_indev.c ****             indev_encoder_proc(indev_act, &data);
 4209              		.loc 1 105 14 is_stmt 1 view .LVU1384
 105:Middlewares/LVGL/GUI/lvgl/src/core/lv_indev.c ****             indev_encoder_proc(indev_act, &data);
 4210              		.loc 1 105 16 is_stmt 0 view .LVU1385
 4211 0092 042B     		cmp	r3, #4
 4212 0094 09D0     		beq	.L307
 108:Middlewares/LVGL/GUI/lvgl/src/core/lv_indev.c ****             indev_button_proc(indev_act, &data);
 4213              		.loc 1 108 14 is_stmt 1 view .LVU1386
 108:Middlewares/LVGL/GUI/lvgl/src/core/lv_indev.c ****             indev_button_proc(indev_act, &data);
 4214              		.loc 1 108 16 is_stmt 0 view .LVU1387
 4215 0096 032B     		cmp	r3, #3
 4216 0098 D7D1     		bne	.L293
 109:Middlewares/LVGL/GUI/lvgl/src/core/lv_indev.c ****         }
 4217              		.loc 1 109 13 is_stmt 1 view .LVU1388
 4218 009a 01A9     		add	r1, sp, #4
 4219 009c FFF7FEFF 		bl	indev_button_proc
 4220              	.LVL359:
 4221 00a0 D3E7     		b	.L293
 4222              	.L306:
 103:Middlewares/LVGL/GUI/lvgl/src/core/lv_indev.c ****         }
 4223              		.loc 1 103 13 view .LVU1389
 4224 00a2 01A9     		add	r1, sp, #4
 4225 00a4 FFF7FEFF 		bl	indev_keypad_proc
 4226              	.LVL360:
 4227 00a8 CFE7     		b	.L293
 4228              	.L307:
 106:Middlewares/LVGL/GUI/lvgl/src/core/lv_indev.c ****         }
 4229              		.loc 1 106 13 view .LVU1390
 4230 00aa 01A9     		add	r1, sp, #4
 4231 00ac FFF7FEFF 		bl	indev_encoder_proc
 4232              	.LVL361:
 4233 00b0 CBE7     		b	.L293
 4234              	.L302:
 116:Middlewares/LVGL/GUI/lvgl/src/core/lv_indev.c ****     indev_obj_act = NULL;
 4235              		.loc 1 116 5 view .LVU1391
 116:Middlewares/LVGL/GUI/lvgl/src/core/lv_indev.c ****     indev_obj_act = NULL;
 4236              		.loc 1 116 19 is_stmt 0 view .LVU1392
 4237 00b2 0023     		movs	r3, #0
 4238 00b4 034A     		ldr	r2, .L308
 4239 00b6 1360     		str	r3, [r2]
 117:Middlewares/LVGL/GUI/lvgl/src/core/lv_indev.c **** 
 4240              		.loc 1 117 5 is_stmt 1 view .LVU1393
 117:Middlewares/LVGL/GUI/lvgl/src/core/lv_indev.c **** 
 4241              		.loc 1 117 19 is_stmt 0 view .LVU1394
 4242 00b8 034A     		ldr	r2, .L308+4
 4243 00ba 1360     		str	r3, [r2]
 119:Middlewares/LVGL/GUI/lvgl/src/core/lv_indev.c **** }
 4244              		.loc 1 119 28 is_stmt 1 view .LVU1395
 4245              	.LVL362:
 4246              	.L288:
 120:Middlewares/LVGL/GUI/lvgl/src/core/lv_indev.c **** 
 4247              		.loc 1 120 1 is_stmt 0 view .LVU1396
 4248 00bc 07B0     		add	sp, sp, #28
 4249              	.LCFI15:
ARM GAS  C:\Users\ADMINI~1\AppData\Local\Temp\ccU2iQFc.s 			page 118


 4250              		.cfi_def_cfa_offset 12
 4251              		@ sp needed
 4252 00be 30BD     		pop	{r4, r5, pc}
 4253              	.L299:
 4254              	.LCFI16:
 4255              		.cfi_def_cfa_offset 0
 4256              		.cfi_restore 4
 4257              		.cfi_restore 5
 4258              		.cfi_restore 14
 4259 00c0 7047     		bx	lr
 4260              	.L309:
 4261 00c2 00BF     		.align	2
 4262              	.L308:
 4263 00c4 00000000 		.word	.LANCHOR1
 4264 00c8 00000000 		.word	.LANCHOR0
 4265              		.cfi_endproc
 4266              	.LFE159:
 4268              		.section	.bss.indev_act,"aw",%nobits
 4269              		.align	2
 4270              		.set	.LANCHOR1,. + 0
 4273              	indev_act:
 4274 0000 00000000 		.space	4
 4275              		.section	.bss.indev_obj_act,"aw",%nobits
 4276              		.align	2
 4277              		.set	.LANCHOR0,. + 0
 4280              	indev_obj_act:
 4281 0000 00000000 		.space	4
 4282              		.text
 4283              	.Letext0:
 4284              		.file 2 "c:\\gnu arm embedded toolchain\\10 2021.10\\arm-none-eabi\\include\\machine\\_default_typ
 4285              		.file 3 "c:\\gnu arm embedded toolchain\\10 2021.10\\arm-none-eabi\\include\\sys\\_stdint.h"
 4286              		.file 4 "c:\\gnu arm embedded toolchain\\10 2021.10\\lib\\gcc\\arm-none-eabi\\10.3.1\\include\\std
 4287              		.file 5 "Middlewares/LVGL/GUI/lvgl/src/core/../misc/../font/../misc/lv_area.h"
 4288              		.file 6 "Middlewares/LVGL/GUI/lvgl/src/core/../misc/../font/lv_font.h"
 4289              		.file 7 "Middlewares/LVGL/GUI/lvgl/src/core/../misc/lv_types.h"
 4290              		.file 8 "Middlewares/LVGL/GUI/lvgl/src/core/../misc/lv_color.h"
 4291              		.file 9 "Middlewares/LVGL/GUI/lvgl/src/core/../misc/lv_txt.h"
 4292              		.file 10 "Middlewares/LVGL/GUI/lvgl/src/core/../misc/lv_bidi.h"
 4293              		.file 11 "Middlewares/LVGL/GUI/lvgl/src/core/../misc/lv_style.h"
 4294              		.file 12 "Middlewares/LVGL/GUI/lvgl/src/core/../hal/../draw/lv_img_buf.h"
 4295              		.file 13 "Middlewares/LVGL/GUI/lvgl/src/core/lv_obj.h"
 4296              		.file 14 "Middlewares/LVGL/GUI/lvgl/src/core/../hal/../draw/lv_draw_rect.h"
 4297              		.file 15 "Middlewares/LVGL/GUI/lvgl/src/core/../hal/../draw/lv_draw_label.h"
 4298              		.file 16 "Middlewares/LVGL/GUI/lvgl/src/core/../hal/../draw/lv_draw_img.h"
 4299              		.file 17 "Middlewares/LVGL/GUI/lvgl/src/core/../hal/../draw/lv_draw_line.h"
 4300              		.file 18 "Middlewares/LVGL/GUI/lvgl/src/core/../hal/../draw/lv_draw_arc.h"
 4301              		.file 19 "Middlewares/LVGL/GUI/lvgl/src/core/../hal/../draw/lv_draw.h"
 4302              		.file 20 "Middlewares/LVGL/GUI/lvgl/src/core/../hal/../misc/lv_ll.h"
 4303              		.file 21 "Middlewares/LVGL/GUI/lvgl/src/core/../hal/../misc/lv_timer.h"
 4304              		.file 22 "Middlewares/LVGL/GUI/lvgl/src/core/../hal/lv_hal_disp.h"
 4305              		.file 23 "Middlewares/LVGL/GUI/lvgl/src/core/lv_theme.h"
 4306              		.file 24 "Middlewares/LVGL/GUI/lvgl/src/core/../hal/lv_hal_indev.h"
 4307              		.file 25 "Middlewares/LVGL/GUI/lvgl/src/core/lv_group.h"
 4308              		.file 26 "Middlewares/LVGL/GUI/lvgl/src/core/lv_obj_scroll.h"
 4309              		.file 27 "Middlewares/LVGL/GUI/lvgl/src/core/lv_obj_style.h"
 4310              		.file 28 "Middlewares/LVGL/GUI/lvgl/src/core/lv_obj_class.h"
 4311              		.file 29 "Middlewares/LVGL/GUI/lvgl/src/core/lv_event.h"
ARM GAS  C:\Users\ADMINI~1\AppData\Local\Temp\ccU2iQFc.s 			page 119


 4312              		.file 30 "Middlewares/LVGL/GUI/lvgl/src/core/lv_obj_tree.h"
 4313              		.file 31 "Middlewares/LVGL/GUI/lvgl/src/core/lv_indev_scroll.h"
 4314              		.file 32 "Middlewares/LVGL/GUI/lvgl/src/core/../hal/lv_hal_tick.h"
 4315              		.file 33 "Middlewares/LVGL/GUI/lvgl/src/core/lv_disp.h"
 4316              		.file 34 "Middlewares/LVGL/GUI/lvgl/src/core/../hal/../draw/sw/../../core/lv_obj_pos.h"
ARM GAS  C:\Users\ADMINI~1\AppData\Local\Temp\ccU2iQFc.s 			page 120


DEFINED SYMBOLS
                            *ABS*:00000000 lv_indev.c
C:\Users\ADMINI~1\AppData\Local\Temp\ccU2iQFc.s:20     .text.indev_proc_reset_query_handler:00000000 $t
C:\Users\ADMINI~1\AppData\Local\Temp\ccU2iQFc.s:25     .text.indev_proc_reset_query_handler:00000000 indev_proc_reset_query_handler
C:\Users\ADMINI~1\AppData\Local\Temp\ccU2iQFc.s:99     .text.indev_proc_reset_query_handler:00000044 $d
C:\Users\ADMINI~1\AppData\Local\Temp\ccU2iQFc.s:104    .text.indev_reset_check:00000000 $t
C:\Users\ADMINI~1\AppData\Local\Temp\ccU2iQFc.s:109    .text.indev_reset_check:00000000 indev_reset_check
C:\Users\ADMINI~1\AppData\Local\Temp\ccU2iQFc.s:137    .text.indev_reset_check:00000014 $d
C:\Users\ADMINI~1\AppData\Local\Temp\ccU2iQFc.s:142    .text.indev_proc_release:00000000 $t
C:\Users\ADMINI~1\AppData\Local\Temp\ccU2iQFc.s:147    .text.indev_proc_release:00000000 indev_proc_release
C:\Users\ADMINI~1\AppData\Local\Temp\ccU2iQFc.s:293    .text.indev_proc_release:00000090 $d
C:\Users\ADMINI~1\AppData\Local\Temp\ccU2iQFc.s:299    .text.indev_click_focus:00000000 $t
C:\Users\ADMINI~1\AppData\Local\Temp\ccU2iQFc.s:304    .text.indev_click_focus:00000000 indev_click_focus
C:\Users\ADMINI~1\AppData\Local\Temp\ccU2iQFc.s:543    .text.indev_click_focus:00000100 $d
C:\Users\ADMINI~1\AppData\Local\Temp\ccU2iQFc.s:549    .text.indev_gesture:00000000 $t
C:\Users\ADMINI~1\AppData\Local\Temp\ccU2iQFc.s:554    .text.indev_gesture:00000000 indev_gesture
C:\Users\ADMINI~1\AppData\Local\Temp\ccU2iQFc.s:745    .text.indev_gesture:000000f4 $d
C:\Users\ADMINI~1\AppData\Local\Temp\ccU2iQFc.s:750    .text.indev_keypad_proc:00000000 $t
C:\Users\ADMINI~1\AppData\Local\Temp\ccU2iQFc.s:755    .text.indev_keypad_proc:00000000 indev_keypad_proc
C:\Users\ADMINI~1\AppData\Local\Temp\ccU2iQFc.s:1277   .text.indev_keypad_proc:00000260 $d
C:\Users\ADMINI~1\AppData\Local\Temp\ccU2iQFc.s:1283   .text.indev_encoder_proc:00000000 $t
C:\Users\ADMINI~1\AppData\Local\Temp\ccU2iQFc.s:1288   .text.indev_encoder_proc:00000000 indev_encoder_proc
C:\Users\ADMINI~1\AppData\Local\Temp\ccU2iQFc.s:1894   .text.indev_encoder_proc:000002b0 $d
C:\Users\ADMINI~1\AppData\Local\Temp\ccU2iQFc.s:1899   .text.indev_encoder_proc:000002b8 $t
C:\Users\ADMINI~1\AppData\Local\Temp\ccU2iQFc.s:2163   .text.indev_encoder_proc:000003e4 $d
C:\Users\ADMINI~1\AppData\Local\Temp\ccU2iQFc.s:2170   .text.lv_indev_enable:00000000 $t
C:\Users\ADMINI~1\AppData\Local\Temp\ccU2iQFc.s:2176   .text.lv_indev_enable:00000000 lv_indev_enable
C:\Users\ADMINI~1\AppData\Local\Temp\ccU2iQFc.s:2202   .text.lv_indev_get_act:00000000 $t
C:\Users\ADMINI~1\AppData\Local\Temp\ccU2iQFc.s:2208   .text.lv_indev_get_act:00000000 lv_indev_get_act
C:\Users\ADMINI~1\AppData\Local\Temp\ccU2iQFc.s:2223   .text.lv_indev_get_act:00000008 $d
C:\Users\ADMINI~1\AppData\Local\Temp\ccU2iQFc.s:2228   .text.lv_indev_get_type:00000000 $t
C:\Users\ADMINI~1\AppData\Local\Temp\ccU2iQFc.s:2234   .text.lv_indev_get_type:00000000 lv_indev_get_type
C:\Users\ADMINI~1\AppData\Local\Temp\ccU2iQFc.s:2264   .text.lv_indev_reset:00000000 $t
C:\Users\ADMINI~1\AppData\Local\Temp\ccU2iQFc.s:2270   .text.lv_indev_reset:00000000 lv_indev_reset
C:\Users\ADMINI~1\AppData\Local\Temp\ccU2iQFc.s:2462   .text.lv_indev_reset:000000a8 $d
C:\Users\ADMINI~1\AppData\Local\Temp\ccU2iQFc.s:2468   .text.lv_indev_reset_long_press:00000000 $t
C:\Users\ADMINI~1\AppData\Local\Temp\ccU2iQFc.s:2474   .text.lv_indev_reset_long_press:00000000 lv_indev_reset_long_press
C:\Users\ADMINI~1\AppData\Local\Temp\ccU2iQFc.s:2512   .text.lv_indev_set_cursor:00000000 $t
C:\Users\ADMINI~1\AppData\Local\Temp\ccU2iQFc.s:2518   .text.lv_indev_set_cursor:00000000 lv_indev_set_cursor
C:\Users\ADMINI~1\AppData\Local\Temp\ccU2iQFc.s:2587   .text.lv_indev_set_group:00000000 $t
C:\Users\ADMINI~1\AppData\Local\Temp\ccU2iQFc.s:2593   .text.lv_indev_set_group:00000000 lv_indev_set_group
C:\Users\ADMINI~1\AppData\Local\Temp\ccU2iQFc.s:2623   .text.lv_indev_set_button_points:00000000 $t
C:\Users\ADMINI~1\AppData\Local\Temp\ccU2iQFc.s:2629   .text.lv_indev_set_button_points:00000000 lv_indev_set_button_points
C:\Users\ADMINI~1\AppData\Local\Temp\ccU2iQFc.s:2658   .text.lv_indev_get_point:00000000 $t
C:\Users\ADMINI~1\AppData\Local\Temp\ccU2iQFc.s:2664   .text.lv_indev_get_point:00000000 lv_indev_get_point
C:\Users\ADMINI~1\AppData\Local\Temp\ccU2iQFc.s:2722   .text.lv_indev_get_gesture_dir:00000000 $t
C:\Users\ADMINI~1\AppData\Local\Temp\ccU2iQFc.s:2728   .text.lv_indev_get_gesture_dir:00000000 lv_indev_get_gesture_dir
C:\Users\ADMINI~1\AppData\Local\Temp\ccU2iQFc.s:2747   .text.lv_indev_get_key:00000000 $t
C:\Users\ADMINI~1\AppData\Local\Temp\ccU2iQFc.s:2753   .text.lv_indev_get_key:00000000 lv_indev_get_key
C:\Users\ADMINI~1\AppData\Local\Temp\ccU2iQFc.s:2786   .text.lv_indev_get_scroll_dir:00000000 $t
C:\Users\ADMINI~1\AppData\Local\Temp\ccU2iQFc.s:2792   .text.lv_indev_get_scroll_dir:00000000 lv_indev_get_scroll_dir
C:\Users\ADMINI~1\AppData\Local\Temp\ccU2iQFc.s:2841   .text.lv_indev_get_scroll_obj:00000000 $t
C:\Users\ADMINI~1\AppData\Local\Temp\ccU2iQFc.s:2847   .text.lv_indev_get_scroll_obj:00000000 lv_indev_get_scroll_obj
C:\Users\ADMINI~1\AppData\Local\Temp\ccU2iQFc.s:2891   .text.lv_indev_get_vect:00000000 $t
C:\Users\ADMINI~1\AppData\Local\Temp\ccU2iQFc.s:2897   .text.lv_indev_get_vect:00000000 lv_indev_get_vect
C:\Users\ADMINI~1\AppData\Local\Temp\ccU2iQFc.s:2945   .text.lv_indev_wait_release:00000000 $t
C:\Users\ADMINI~1\AppData\Local\Temp\ccU2iQFc.s:2951   .text.lv_indev_wait_release:00000000 lv_indev_wait_release
ARM GAS  C:\Users\ADMINI~1\AppData\Local\Temp\ccU2iQFc.s 			page 121


C:\Users\ADMINI~1\AppData\Local\Temp\ccU2iQFc.s:2974   .text.lv_indev_get_obj_act:00000000 $t
C:\Users\ADMINI~1\AppData\Local\Temp\ccU2iQFc.s:2980   .text.lv_indev_get_obj_act:00000000 lv_indev_get_obj_act
C:\Users\ADMINI~1\AppData\Local\Temp\ccU2iQFc.s:2995   .text.lv_indev_get_obj_act:00000008 $d
C:\Users\ADMINI~1\AppData\Local\Temp\ccU2iQFc.s:3000   .text.lv_indev_get_read_timer:00000000 $t
C:\Users\ADMINI~1\AppData\Local\Temp\ccU2iQFc.s:3006   .text.lv_indev_get_read_timer:00000000 lv_indev_get_read_timer
C:\Users\ADMINI~1\AppData\Local\Temp\ccU2iQFc.s:3031   .text.lv_indev_search_obj:00000000 $t
C:\Users\ADMINI~1\AppData\Local\Temp\ccU2iQFc.s:3037   .text.lv_indev_search_obj:00000000 lv_indev_search_obj
C:\Users\ADMINI~1\AppData\Local\Temp\ccU2iQFc.s:3160   .text.indev_proc_press:00000000 $t
C:\Users\ADMINI~1\AppData\Local\Temp\ccU2iQFc.s:3165   .text.indev_proc_press:00000000 indev_proc_press
C:\Users\ADMINI~1\AppData\Local\Temp\ccU2iQFc.s:3698   .text.indev_proc_press:00000288 $d
C:\Users\ADMINI~1\AppData\Local\Temp\ccU2iQFc.s:3704   .text.indev_pointer_proc:00000000 $t
C:\Users\ADMINI~1\AppData\Local\Temp\ccU2iQFc.s:3709   .text.indev_pointer_proc:00000000 indev_pointer_proc
C:\Users\ADMINI~1\AppData\Local\Temp\ccU2iQFc.s:3915   .text.indev_button_proc:00000000 $t
C:\Users\ADMINI~1\AppData\Local\Temp\ccU2iQFc.s:3920   .text.indev_button_proc:00000000 indev_button_proc
C:\Users\ADMINI~1\AppData\Local\Temp\ccU2iQFc.s:4058   .text.lv_indev_read_timer_cb:00000000 $t
C:\Users\ADMINI~1\AppData\Local\Temp\ccU2iQFc.s:4064   .text.lv_indev_read_timer_cb:00000000 lv_indev_read_timer_cb
C:\Users\ADMINI~1\AppData\Local\Temp\ccU2iQFc.s:4263   .text.lv_indev_read_timer_cb:000000c4 $d
C:\Users\ADMINI~1\AppData\Local\Temp\ccU2iQFc.s:4269   .bss.indev_act:00000000 $d
C:\Users\ADMINI~1\AppData\Local\Temp\ccU2iQFc.s:4273   .bss.indev_act:00000000 indev_act
C:\Users\ADMINI~1\AppData\Local\Temp\ccU2iQFc.s:4276   .bss.indev_obj_act:00000000 $d
C:\Users\ADMINI~1\AppData\Local\Temp\ccU2iQFc.s:4280   .bss.indev_obj_act:00000000 indev_obj_act

UNDEFINED SYMBOLS
lv_event_send
_lv_indev_scroll_throw_handler
lv_obj_has_flag
lv_obj_get_group
lv_group_focus_obj
lv_obj_get_parent
lv_group_get_focused
lv_tick_get
lv_group_send_data
lv_group_set_editing
lv_group_focus_next
lv_group_focus_prev
lv_tick_elaps
lv_obj_is_editable
lv_group_get_editing
lv_group_get_obj_count
lv_obj_clear_state
lv_indev_get_next
lv_disp_get_layer_sys
lv_obj_set_parent
lv_obj_set_pos
lv_obj_clear_flag
lv_obj_add_flag
lv_obj_hit_test
_lv_area_is_point_on
lv_obj_get_child_cnt
lv_disp_get_layer_top
lv_disp_get_scr_act
_lv_indev_scroll_handler
lv_disp_get_hor_res
lv_disp_get_ver_res
_lv_indev_read
