ARM GAS  C:\Users\ADMINI~1\AppData\Local\Temp\cc9uxO7B.s 			page 1


   1              		.cpu cortex-m4
   2              		.arch armv7e-m
   3              		.fpu fpv4-sp-d16
   4              		.eabi_attribute 27, 1
   5              		.eabi_attribute 28, 1
   6              		.eabi_attribute 20, 1
   7              		.eabi_attribute 21, 1
   8              		.eabi_attribute 23, 3
   9              		.eabi_attribute 24, 1
  10              		.eabi_attribute 25, 1
  11              		.eabi_attribute 26, 1
  12              		.eabi_attribute 30, 1
  13              		.eabi_attribute 34, 1
  14              		.eabi_attribute 18, 4
  15              		.file	"lv_keyboard.c"
  16              		.text
  17              	.Ltext0:
  18              		.cfi_sections	.debug_frame
  19              		.section	.text.lv_keyboard_update_ctrl_map,"ax",%progbits
  20              		.align	1
  21              		.syntax unified
  22              		.thumb
  23              		.thumb_func
  25              	lv_keyboard_update_ctrl_map:
  26              	.LVL0:
  27              	.LFB167:
  28              		.file 1 "Middlewares/LVGL/GUI/lvgl/src/extra/widgets/keyboard/lv_keyboard.c"
   1:Middlewares/LVGL/GUI/lvgl/src/extra/widgets/keyboard/lv_keyboard.c **** 
   2:Middlewares/LVGL/GUI/lvgl/src/extra/widgets/keyboard/lv_keyboard.c **** /**
   3:Middlewares/LVGL/GUI/lvgl/src/extra/widgets/keyboard/lv_keyboard.c ****  * @file lv_keyboard.c
   4:Middlewares/LVGL/GUI/lvgl/src/extra/widgets/keyboard/lv_keyboard.c ****  *
   5:Middlewares/LVGL/GUI/lvgl/src/extra/widgets/keyboard/lv_keyboard.c ****  */
   6:Middlewares/LVGL/GUI/lvgl/src/extra/widgets/keyboard/lv_keyboard.c **** 
   7:Middlewares/LVGL/GUI/lvgl/src/extra/widgets/keyboard/lv_keyboard.c **** /*********************
   8:Middlewares/LVGL/GUI/lvgl/src/extra/widgets/keyboard/lv_keyboard.c ****  *      INCLUDES
   9:Middlewares/LVGL/GUI/lvgl/src/extra/widgets/keyboard/lv_keyboard.c ****  *********************/
  10:Middlewares/LVGL/GUI/lvgl/src/extra/widgets/keyboard/lv_keyboard.c **** #include "lv_keyboard.h"
  11:Middlewares/LVGL/GUI/lvgl/src/extra/widgets/keyboard/lv_keyboard.c **** #if LV_USE_KEYBOARD
  12:Middlewares/LVGL/GUI/lvgl/src/extra/widgets/keyboard/lv_keyboard.c **** 
  13:Middlewares/LVGL/GUI/lvgl/src/extra/widgets/keyboard/lv_keyboard.c **** #include "../../../widgets/lv_textarea.h"
  14:Middlewares/LVGL/GUI/lvgl/src/extra/widgets/keyboard/lv_keyboard.c **** #include "../../../misc/lv_assert.h"
  15:Middlewares/LVGL/GUI/lvgl/src/extra/widgets/keyboard/lv_keyboard.c **** 
  16:Middlewares/LVGL/GUI/lvgl/src/extra/widgets/keyboard/lv_keyboard.c **** #include <stdlib.h>
  17:Middlewares/LVGL/GUI/lvgl/src/extra/widgets/keyboard/lv_keyboard.c **** 
  18:Middlewares/LVGL/GUI/lvgl/src/extra/widgets/keyboard/lv_keyboard.c **** /*********************
  19:Middlewares/LVGL/GUI/lvgl/src/extra/widgets/keyboard/lv_keyboard.c ****  *      DEFINES
  20:Middlewares/LVGL/GUI/lvgl/src/extra/widgets/keyboard/lv_keyboard.c ****  *********************/
  21:Middlewares/LVGL/GUI/lvgl/src/extra/widgets/keyboard/lv_keyboard.c **** #define MY_CLASS    &lv_keyboard_class
  22:Middlewares/LVGL/GUI/lvgl/src/extra/widgets/keyboard/lv_keyboard.c **** #define LV_KB_BTN(width) LV_BTNMATRIX_CTRL_POPOVER | width
  23:Middlewares/LVGL/GUI/lvgl/src/extra/widgets/keyboard/lv_keyboard.c **** 
  24:Middlewares/LVGL/GUI/lvgl/src/extra/widgets/keyboard/lv_keyboard.c **** /**********************
  25:Middlewares/LVGL/GUI/lvgl/src/extra/widgets/keyboard/lv_keyboard.c ****  *      TYPEDEFS
  26:Middlewares/LVGL/GUI/lvgl/src/extra/widgets/keyboard/lv_keyboard.c ****  **********************/
  27:Middlewares/LVGL/GUI/lvgl/src/extra/widgets/keyboard/lv_keyboard.c **** 
  28:Middlewares/LVGL/GUI/lvgl/src/extra/widgets/keyboard/lv_keyboard.c **** /**********************
  29:Middlewares/LVGL/GUI/lvgl/src/extra/widgets/keyboard/lv_keyboard.c ****  *  STATIC PROTOTYPES
  30:Middlewares/LVGL/GUI/lvgl/src/extra/widgets/keyboard/lv_keyboard.c ****  **********************/
ARM GAS  C:\Users\ADMINI~1\AppData\Local\Temp\cc9uxO7B.s 			page 2


  31:Middlewares/LVGL/GUI/lvgl/src/extra/widgets/keyboard/lv_keyboard.c **** static void lv_keyboard_constructor(const lv_obj_class_t * class_p, lv_obj_t * obj);
  32:Middlewares/LVGL/GUI/lvgl/src/extra/widgets/keyboard/lv_keyboard.c **** 
  33:Middlewares/LVGL/GUI/lvgl/src/extra/widgets/keyboard/lv_keyboard.c **** static void lv_keyboard_update_map(lv_obj_t * obj);
  34:Middlewares/LVGL/GUI/lvgl/src/extra/widgets/keyboard/lv_keyboard.c **** 
  35:Middlewares/LVGL/GUI/lvgl/src/extra/widgets/keyboard/lv_keyboard.c **** static void lv_keyboard_update_ctrl_map(lv_obj_t * obj);
  36:Middlewares/LVGL/GUI/lvgl/src/extra/widgets/keyboard/lv_keyboard.c **** 
  37:Middlewares/LVGL/GUI/lvgl/src/extra/widgets/keyboard/lv_keyboard.c **** /**********************
  38:Middlewares/LVGL/GUI/lvgl/src/extra/widgets/keyboard/lv_keyboard.c ****  *  STATIC VARIABLES
  39:Middlewares/LVGL/GUI/lvgl/src/extra/widgets/keyboard/lv_keyboard.c ****  **********************/
  40:Middlewares/LVGL/GUI/lvgl/src/extra/widgets/keyboard/lv_keyboard.c **** const lv_obj_class_t lv_keyboard_class = {
  41:Middlewares/LVGL/GUI/lvgl/src/extra/widgets/keyboard/lv_keyboard.c ****     .constructor_cb = lv_keyboard_constructor,
  42:Middlewares/LVGL/GUI/lvgl/src/extra/widgets/keyboard/lv_keyboard.c ****     .width_def = LV_PCT(100),
  43:Middlewares/LVGL/GUI/lvgl/src/extra/widgets/keyboard/lv_keyboard.c ****     .height_def = LV_PCT(50),
  44:Middlewares/LVGL/GUI/lvgl/src/extra/widgets/keyboard/lv_keyboard.c ****     .instance_size = sizeof(lv_keyboard_t),
  45:Middlewares/LVGL/GUI/lvgl/src/extra/widgets/keyboard/lv_keyboard.c ****     .editable = 1,
  46:Middlewares/LVGL/GUI/lvgl/src/extra/widgets/keyboard/lv_keyboard.c ****     .base_class = &lv_btnmatrix_class
  47:Middlewares/LVGL/GUI/lvgl/src/extra/widgets/keyboard/lv_keyboard.c **** };
  48:Middlewares/LVGL/GUI/lvgl/src/extra/widgets/keyboard/lv_keyboard.c **** 
  49:Middlewares/LVGL/GUI/lvgl/src/extra/widgets/keyboard/lv_keyboard.c **** static const char * const default_kb_map_lc[] = {"1#", "q", "w", "e", "r", "t", "y", "u", "i", "o",
  50:Middlewares/LVGL/GUI/lvgl/src/extra/widgets/keyboard/lv_keyboard.c ****                                                  "ABC", "a", "s", "d", "f", "g", "h", "j", "k", "l"
  51:Middlewares/LVGL/GUI/lvgl/src/extra/widgets/keyboard/lv_keyboard.c ****                                                  "_", "-", "z", "x", "c", "v", "b", "n", "m", ".", 
  52:Middlewares/LVGL/GUI/lvgl/src/extra/widgets/keyboard/lv_keyboard.c ****                                                  LV_SYMBOL_KEYBOARD, LV_SYMBOL_LEFT, " ", LV_SYMBOL
  53:Middlewares/LVGL/GUI/lvgl/src/extra/widgets/keyboard/lv_keyboard.c ****                                                 };
  54:Middlewares/LVGL/GUI/lvgl/src/extra/widgets/keyboard/lv_keyboard.c **** 
  55:Middlewares/LVGL/GUI/lvgl/src/extra/widgets/keyboard/lv_keyboard.c **** static const lv_btnmatrix_ctrl_t default_kb_ctrl_lc_map[] = {
  56:Middlewares/LVGL/GUI/lvgl/src/extra/widgets/keyboard/lv_keyboard.c ****     LV_KEYBOARD_CTRL_BTN_FLAGS | 5, LV_KB_BTN(4), LV_KB_BTN(4), LV_KB_BTN(4), LV_KB_BTN(4), LV_KB_B
  57:Middlewares/LVGL/GUI/lvgl/src/extra/widgets/keyboard/lv_keyboard.c ****     LV_KEYBOARD_CTRL_BTN_FLAGS | 6, LV_KB_BTN(3), LV_KB_BTN(3), LV_KB_BTN(3), LV_KB_BTN(3), LV_KB_B
  58:Middlewares/LVGL/GUI/lvgl/src/extra/widgets/keyboard/lv_keyboard.c ****     LV_BTNMATRIX_CTRL_CHECKED | LV_KB_BTN(1), LV_BTNMATRIX_CTRL_CHECKED | LV_KB_BTN(1), LV_KB_BTN(1
  59:Middlewares/LVGL/GUI/lvgl/src/extra/widgets/keyboard/lv_keyboard.c ****     LV_KEYBOARD_CTRL_BTN_FLAGS | 2, LV_BTNMATRIX_CTRL_CHECKED | 2, 6, LV_BTNMATRIX_CTRL_CHECKED | 2
  60:Middlewares/LVGL/GUI/lvgl/src/extra/widgets/keyboard/lv_keyboard.c **** };
  61:Middlewares/LVGL/GUI/lvgl/src/extra/widgets/keyboard/lv_keyboard.c **** 
  62:Middlewares/LVGL/GUI/lvgl/src/extra/widgets/keyboard/lv_keyboard.c **** static const char * const default_kb_map_uc[] = {"1#", "Q", "W", "E", "R", "T", "Y", "U", "I", "O",
  63:Middlewares/LVGL/GUI/lvgl/src/extra/widgets/keyboard/lv_keyboard.c ****                                                  "abc", "A", "S", "D", "F", "G", "H", "J", "K", "L"
  64:Middlewares/LVGL/GUI/lvgl/src/extra/widgets/keyboard/lv_keyboard.c ****                                                  "_", "-", "Z", "X", "C", "V", "B", "N", "M", ".", 
  65:Middlewares/LVGL/GUI/lvgl/src/extra/widgets/keyboard/lv_keyboard.c ****                                                  LV_SYMBOL_KEYBOARD, LV_SYMBOL_LEFT, " ", LV_SYMBOL
  66:Middlewares/LVGL/GUI/lvgl/src/extra/widgets/keyboard/lv_keyboard.c ****                                                 };
  67:Middlewares/LVGL/GUI/lvgl/src/extra/widgets/keyboard/lv_keyboard.c **** 
  68:Middlewares/LVGL/GUI/lvgl/src/extra/widgets/keyboard/lv_keyboard.c **** static const lv_btnmatrix_ctrl_t default_kb_ctrl_uc_map[] = {
  69:Middlewares/LVGL/GUI/lvgl/src/extra/widgets/keyboard/lv_keyboard.c ****     LV_KEYBOARD_CTRL_BTN_FLAGS | 5, LV_KB_BTN(4), LV_KB_BTN(4), LV_KB_BTN(4), LV_KB_BTN(4), LV_KB_B
  70:Middlewares/LVGL/GUI/lvgl/src/extra/widgets/keyboard/lv_keyboard.c ****     LV_KEYBOARD_CTRL_BTN_FLAGS | 6, LV_KB_BTN(3), LV_KB_BTN(3), LV_KB_BTN(3), LV_KB_BTN(3), LV_KB_B
  71:Middlewares/LVGL/GUI/lvgl/src/extra/widgets/keyboard/lv_keyboard.c ****     LV_BTNMATRIX_CTRL_CHECKED | LV_KB_BTN(1), LV_BTNMATRIX_CTRL_CHECKED | LV_KB_BTN(1), LV_KB_BTN(1
  72:Middlewares/LVGL/GUI/lvgl/src/extra/widgets/keyboard/lv_keyboard.c ****     LV_KEYBOARD_CTRL_BTN_FLAGS | 2, LV_BTNMATRIX_CTRL_CHECKED | 2, 6, LV_BTNMATRIX_CTRL_CHECKED | 2
  73:Middlewares/LVGL/GUI/lvgl/src/extra/widgets/keyboard/lv_keyboard.c **** };
  74:Middlewares/LVGL/GUI/lvgl/src/extra/widgets/keyboard/lv_keyboard.c **** 
  75:Middlewares/LVGL/GUI/lvgl/src/extra/widgets/keyboard/lv_keyboard.c **** static const char * const default_kb_map_spec[] = {"1", "2", "3", "4", "5", "6", "7", "8", "9", "0"
  76:Middlewares/LVGL/GUI/lvgl/src/extra/widgets/keyboard/lv_keyboard.c ****                                                    "abc", "+", "-", "/", "*", "=", "%", "!", "?", "
  77:Middlewares/LVGL/GUI/lvgl/src/extra/widgets/keyboard/lv_keyboard.c ****                                                    "\\",  "@", "$", "(", ")", "{", "}", "[", "]", "
  78:Middlewares/LVGL/GUI/lvgl/src/extra/widgets/keyboard/lv_keyboard.c ****                                                    LV_SYMBOL_KEYBOARD, LV_SYMBOL_LEFT, " ", LV_SYMB
  79:Middlewares/LVGL/GUI/lvgl/src/extra/widgets/keyboard/lv_keyboard.c ****                                                   };
  80:Middlewares/LVGL/GUI/lvgl/src/extra/widgets/keyboard/lv_keyboard.c **** 
  81:Middlewares/LVGL/GUI/lvgl/src/extra/widgets/keyboard/lv_keyboard.c **** static const lv_btnmatrix_ctrl_t default_kb_ctrl_spec_map[] = {
  82:Middlewares/LVGL/GUI/lvgl/src/extra/widgets/keyboard/lv_keyboard.c ****     LV_KB_BTN(1), LV_KB_BTN(1), LV_KB_BTN(1), LV_KB_BTN(1), LV_KB_BTN(1), LV_KB_BTN(1), LV_KB_BTN(1
  83:Middlewares/LVGL/GUI/lvgl/src/extra/widgets/keyboard/lv_keyboard.c ****     LV_KEYBOARD_CTRL_BTN_FLAGS | 2, LV_KB_BTN(1), LV_KB_BTN(1), LV_KB_BTN(1), LV_KB_BTN(1), LV_KB_B
  84:Middlewares/LVGL/GUI/lvgl/src/extra/widgets/keyboard/lv_keyboard.c ****     LV_KB_BTN(1), LV_KB_BTN(1), LV_KB_BTN(1), LV_KB_BTN(1), LV_KB_BTN(1), LV_KB_BTN(1), LV_KB_BTN(1
  85:Middlewares/LVGL/GUI/lvgl/src/extra/widgets/keyboard/lv_keyboard.c ****     LV_KEYBOARD_CTRL_BTN_FLAGS | 2, LV_BTNMATRIX_CTRL_CHECKED | 2, 6, LV_BTNMATRIX_CTRL_CHECKED | 2
  86:Middlewares/LVGL/GUI/lvgl/src/extra/widgets/keyboard/lv_keyboard.c **** };
  87:Middlewares/LVGL/GUI/lvgl/src/extra/widgets/keyboard/lv_keyboard.c **** 
ARM GAS  C:\Users\ADMINI~1\AppData\Local\Temp\cc9uxO7B.s 			page 3


  88:Middlewares/LVGL/GUI/lvgl/src/extra/widgets/keyboard/lv_keyboard.c **** static const char * const default_kb_map_num[] = {"1", "2", "3", LV_SYMBOL_KEYBOARD, "\n",
  89:Middlewares/LVGL/GUI/lvgl/src/extra/widgets/keyboard/lv_keyboard.c ****                                                   "4", "5", "6", LV_SYMBOL_OK, "\n",
  90:Middlewares/LVGL/GUI/lvgl/src/extra/widgets/keyboard/lv_keyboard.c ****                                                   "7", "8", "9", LV_SYMBOL_BACKSPACE, "\n",
  91:Middlewares/LVGL/GUI/lvgl/src/extra/widgets/keyboard/lv_keyboard.c ****                                                   "+/-", "0", ".", LV_SYMBOL_LEFT, LV_SYMBOL_RIGHT,
  92:Middlewares/LVGL/GUI/lvgl/src/extra/widgets/keyboard/lv_keyboard.c ****                                                  };
  93:Middlewares/LVGL/GUI/lvgl/src/extra/widgets/keyboard/lv_keyboard.c **** 
  94:Middlewares/LVGL/GUI/lvgl/src/extra/widgets/keyboard/lv_keyboard.c **** static const lv_btnmatrix_ctrl_t default_kb_ctrl_num_map[] = {
  95:Middlewares/LVGL/GUI/lvgl/src/extra/widgets/keyboard/lv_keyboard.c ****     1, 1, 1, LV_KEYBOARD_CTRL_BTN_FLAGS | 2,
  96:Middlewares/LVGL/GUI/lvgl/src/extra/widgets/keyboard/lv_keyboard.c ****     1, 1, 1, LV_KEYBOARD_CTRL_BTN_FLAGS | 2,
  97:Middlewares/LVGL/GUI/lvgl/src/extra/widgets/keyboard/lv_keyboard.c ****     1, 1, 1, 2,
  98:Middlewares/LVGL/GUI/lvgl/src/extra/widgets/keyboard/lv_keyboard.c ****     1, 1, 1, 1, 1
  99:Middlewares/LVGL/GUI/lvgl/src/extra/widgets/keyboard/lv_keyboard.c **** };
 100:Middlewares/LVGL/GUI/lvgl/src/extra/widgets/keyboard/lv_keyboard.c **** 
 101:Middlewares/LVGL/GUI/lvgl/src/extra/widgets/keyboard/lv_keyboard.c **** static const char * * kb_map[9] = {
 102:Middlewares/LVGL/GUI/lvgl/src/extra/widgets/keyboard/lv_keyboard.c ****     (const char * *)default_kb_map_lc,
 103:Middlewares/LVGL/GUI/lvgl/src/extra/widgets/keyboard/lv_keyboard.c ****     (const char * *)default_kb_map_uc,
 104:Middlewares/LVGL/GUI/lvgl/src/extra/widgets/keyboard/lv_keyboard.c ****     (const char * *)default_kb_map_spec,
 105:Middlewares/LVGL/GUI/lvgl/src/extra/widgets/keyboard/lv_keyboard.c ****     (const char * *)default_kb_map_num,
 106:Middlewares/LVGL/GUI/lvgl/src/extra/widgets/keyboard/lv_keyboard.c ****     (const char * *)default_kb_map_lc,
 107:Middlewares/LVGL/GUI/lvgl/src/extra/widgets/keyboard/lv_keyboard.c ****     (const char * *)default_kb_map_lc,
 108:Middlewares/LVGL/GUI/lvgl/src/extra/widgets/keyboard/lv_keyboard.c ****     (const char * *)default_kb_map_lc,
 109:Middlewares/LVGL/GUI/lvgl/src/extra/widgets/keyboard/lv_keyboard.c ****     (const char * *)default_kb_map_lc,
 110:Middlewares/LVGL/GUI/lvgl/src/extra/widgets/keyboard/lv_keyboard.c ****     (const char * *)NULL,
 111:Middlewares/LVGL/GUI/lvgl/src/extra/widgets/keyboard/lv_keyboard.c **** };
 112:Middlewares/LVGL/GUI/lvgl/src/extra/widgets/keyboard/lv_keyboard.c **** static const lv_btnmatrix_ctrl_t * kb_ctrl[9] = {
 113:Middlewares/LVGL/GUI/lvgl/src/extra/widgets/keyboard/lv_keyboard.c ****     default_kb_ctrl_lc_map,
 114:Middlewares/LVGL/GUI/lvgl/src/extra/widgets/keyboard/lv_keyboard.c ****     default_kb_ctrl_uc_map,
 115:Middlewares/LVGL/GUI/lvgl/src/extra/widgets/keyboard/lv_keyboard.c ****     default_kb_ctrl_spec_map,
 116:Middlewares/LVGL/GUI/lvgl/src/extra/widgets/keyboard/lv_keyboard.c ****     default_kb_ctrl_num_map,
 117:Middlewares/LVGL/GUI/lvgl/src/extra/widgets/keyboard/lv_keyboard.c ****     default_kb_ctrl_lc_map,
 118:Middlewares/LVGL/GUI/lvgl/src/extra/widgets/keyboard/lv_keyboard.c ****     default_kb_ctrl_lc_map,
 119:Middlewares/LVGL/GUI/lvgl/src/extra/widgets/keyboard/lv_keyboard.c ****     default_kb_ctrl_lc_map,
 120:Middlewares/LVGL/GUI/lvgl/src/extra/widgets/keyboard/lv_keyboard.c ****     default_kb_ctrl_lc_map,
 121:Middlewares/LVGL/GUI/lvgl/src/extra/widgets/keyboard/lv_keyboard.c ****     NULL,
 122:Middlewares/LVGL/GUI/lvgl/src/extra/widgets/keyboard/lv_keyboard.c **** };
 123:Middlewares/LVGL/GUI/lvgl/src/extra/widgets/keyboard/lv_keyboard.c **** 
 124:Middlewares/LVGL/GUI/lvgl/src/extra/widgets/keyboard/lv_keyboard.c **** /**********************
 125:Middlewares/LVGL/GUI/lvgl/src/extra/widgets/keyboard/lv_keyboard.c ****  *      MACROS
 126:Middlewares/LVGL/GUI/lvgl/src/extra/widgets/keyboard/lv_keyboard.c ****  **********************/
 127:Middlewares/LVGL/GUI/lvgl/src/extra/widgets/keyboard/lv_keyboard.c **** 
 128:Middlewares/LVGL/GUI/lvgl/src/extra/widgets/keyboard/lv_keyboard.c **** /**********************
 129:Middlewares/LVGL/GUI/lvgl/src/extra/widgets/keyboard/lv_keyboard.c ****  *   GLOBAL FUNCTIONS
 130:Middlewares/LVGL/GUI/lvgl/src/extra/widgets/keyboard/lv_keyboard.c ****  **********************/
 131:Middlewares/LVGL/GUI/lvgl/src/extra/widgets/keyboard/lv_keyboard.c **** 
 132:Middlewares/LVGL/GUI/lvgl/src/extra/widgets/keyboard/lv_keyboard.c **** /**
 133:Middlewares/LVGL/GUI/lvgl/src/extra/widgets/keyboard/lv_keyboard.c ****  * Create a Keyboard object
 134:Middlewares/LVGL/GUI/lvgl/src/extra/widgets/keyboard/lv_keyboard.c ****  * @param parent pointer to an object, it will be the parent of the new keyboard
 135:Middlewares/LVGL/GUI/lvgl/src/extra/widgets/keyboard/lv_keyboard.c ****  * @return pointer to the created keyboard
 136:Middlewares/LVGL/GUI/lvgl/src/extra/widgets/keyboard/lv_keyboard.c ****  */
 137:Middlewares/LVGL/GUI/lvgl/src/extra/widgets/keyboard/lv_keyboard.c **** lv_obj_t * lv_keyboard_create(lv_obj_t * parent)
 138:Middlewares/LVGL/GUI/lvgl/src/extra/widgets/keyboard/lv_keyboard.c **** {
 139:Middlewares/LVGL/GUI/lvgl/src/extra/widgets/keyboard/lv_keyboard.c ****     LV_LOG_INFO("begin");
 140:Middlewares/LVGL/GUI/lvgl/src/extra/widgets/keyboard/lv_keyboard.c ****     lv_obj_t * obj = lv_obj_class_create_obj(&lv_keyboard_class, parent);
 141:Middlewares/LVGL/GUI/lvgl/src/extra/widgets/keyboard/lv_keyboard.c ****     lv_obj_class_init_obj(obj);
 142:Middlewares/LVGL/GUI/lvgl/src/extra/widgets/keyboard/lv_keyboard.c ****     return obj;
 143:Middlewares/LVGL/GUI/lvgl/src/extra/widgets/keyboard/lv_keyboard.c **** }
 144:Middlewares/LVGL/GUI/lvgl/src/extra/widgets/keyboard/lv_keyboard.c **** 
ARM GAS  C:\Users\ADMINI~1\AppData\Local\Temp\cc9uxO7B.s 			page 4


 145:Middlewares/LVGL/GUI/lvgl/src/extra/widgets/keyboard/lv_keyboard.c **** /*=====================
 146:Middlewares/LVGL/GUI/lvgl/src/extra/widgets/keyboard/lv_keyboard.c ****  * Setter functions
 147:Middlewares/LVGL/GUI/lvgl/src/extra/widgets/keyboard/lv_keyboard.c ****  *====================*/
 148:Middlewares/LVGL/GUI/lvgl/src/extra/widgets/keyboard/lv_keyboard.c **** 
 149:Middlewares/LVGL/GUI/lvgl/src/extra/widgets/keyboard/lv_keyboard.c **** /**
 150:Middlewares/LVGL/GUI/lvgl/src/extra/widgets/keyboard/lv_keyboard.c ****  * Assign a Text Area to the Keyboard. The pressed characters will be put there.
 151:Middlewares/LVGL/GUI/lvgl/src/extra/widgets/keyboard/lv_keyboard.c ****  * @param kb pointer to a Keyboard object
 152:Middlewares/LVGL/GUI/lvgl/src/extra/widgets/keyboard/lv_keyboard.c ****  * @param ta pointer to a Text Area object to write there
 153:Middlewares/LVGL/GUI/lvgl/src/extra/widgets/keyboard/lv_keyboard.c ****  */
 154:Middlewares/LVGL/GUI/lvgl/src/extra/widgets/keyboard/lv_keyboard.c **** void lv_keyboard_set_textarea(lv_obj_t * obj, lv_obj_t * ta)
 155:Middlewares/LVGL/GUI/lvgl/src/extra/widgets/keyboard/lv_keyboard.c **** {
 156:Middlewares/LVGL/GUI/lvgl/src/extra/widgets/keyboard/lv_keyboard.c ****     if(ta) {
 157:Middlewares/LVGL/GUI/lvgl/src/extra/widgets/keyboard/lv_keyboard.c ****         LV_ASSERT_OBJ(ta, &lv_textarea_class);
 158:Middlewares/LVGL/GUI/lvgl/src/extra/widgets/keyboard/lv_keyboard.c ****     }
 159:Middlewares/LVGL/GUI/lvgl/src/extra/widgets/keyboard/lv_keyboard.c **** 
 160:Middlewares/LVGL/GUI/lvgl/src/extra/widgets/keyboard/lv_keyboard.c ****     LV_ASSERT_OBJ(obj, MY_CLASS);
 161:Middlewares/LVGL/GUI/lvgl/src/extra/widgets/keyboard/lv_keyboard.c ****     lv_keyboard_t * keyboard = (lv_keyboard_t *)obj;
 162:Middlewares/LVGL/GUI/lvgl/src/extra/widgets/keyboard/lv_keyboard.c **** 
 163:Middlewares/LVGL/GUI/lvgl/src/extra/widgets/keyboard/lv_keyboard.c ****     /*Hide the cursor of the old Text area if cursor management is enabled*/
 164:Middlewares/LVGL/GUI/lvgl/src/extra/widgets/keyboard/lv_keyboard.c ****     if(keyboard->ta) {
 165:Middlewares/LVGL/GUI/lvgl/src/extra/widgets/keyboard/lv_keyboard.c ****         lv_obj_clear_state(obj, LV_STATE_FOCUSED);
 166:Middlewares/LVGL/GUI/lvgl/src/extra/widgets/keyboard/lv_keyboard.c ****     }
 167:Middlewares/LVGL/GUI/lvgl/src/extra/widgets/keyboard/lv_keyboard.c **** 
 168:Middlewares/LVGL/GUI/lvgl/src/extra/widgets/keyboard/lv_keyboard.c ****     keyboard->ta = ta;
 169:Middlewares/LVGL/GUI/lvgl/src/extra/widgets/keyboard/lv_keyboard.c **** 
 170:Middlewares/LVGL/GUI/lvgl/src/extra/widgets/keyboard/lv_keyboard.c ****     /*Show the cursor of the new Text area if cursor management is enabled*/
 171:Middlewares/LVGL/GUI/lvgl/src/extra/widgets/keyboard/lv_keyboard.c ****     if(keyboard->ta) {
 172:Middlewares/LVGL/GUI/lvgl/src/extra/widgets/keyboard/lv_keyboard.c ****         lv_obj_add_flag(obj, LV_STATE_FOCUSED);
 173:Middlewares/LVGL/GUI/lvgl/src/extra/widgets/keyboard/lv_keyboard.c ****     }
 174:Middlewares/LVGL/GUI/lvgl/src/extra/widgets/keyboard/lv_keyboard.c **** }
 175:Middlewares/LVGL/GUI/lvgl/src/extra/widgets/keyboard/lv_keyboard.c **** 
 176:Middlewares/LVGL/GUI/lvgl/src/extra/widgets/keyboard/lv_keyboard.c **** /**
 177:Middlewares/LVGL/GUI/lvgl/src/extra/widgets/keyboard/lv_keyboard.c ****  * Set a new a mode (text or number map)
 178:Middlewares/LVGL/GUI/lvgl/src/extra/widgets/keyboard/lv_keyboard.c ****  * @param kb pointer to a Keyboard object
 179:Middlewares/LVGL/GUI/lvgl/src/extra/widgets/keyboard/lv_keyboard.c ****  * @param mode the mode from 'lv_keyboard_mode_t'
 180:Middlewares/LVGL/GUI/lvgl/src/extra/widgets/keyboard/lv_keyboard.c ****  */
 181:Middlewares/LVGL/GUI/lvgl/src/extra/widgets/keyboard/lv_keyboard.c **** void lv_keyboard_set_mode(lv_obj_t * obj, lv_keyboard_mode_t mode)
 182:Middlewares/LVGL/GUI/lvgl/src/extra/widgets/keyboard/lv_keyboard.c **** {
 183:Middlewares/LVGL/GUI/lvgl/src/extra/widgets/keyboard/lv_keyboard.c ****     LV_ASSERT_OBJ(obj, MY_CLASS);
 184:Middlewares/LVGL/GUI/lvgl/src/extra/widgets/keyboard/lv_keyboard.c ****     lv_keyboard_t * keyboard = (lv_keyboard_t *)obj;
 185:Middlewares/LVGL/GUI/lvgl/src/extra/widgets/keyboard/lv_keyboard.c ****     if(keyboard->mode == mode) return;
 186:Middlewares/LVGL/GUI/lvgl/src/extra/widgets/keyboard/lv_keyboard.c **** 
 187:Middlewares/LVGL/GUI/lvgl/src/extra/widgets/keyboard/lv_keyboard.c ****     keyboard->mode = mode;
 188:Middlewares/LVGL/GUI/lvgl/src/extra/widgets/keyboard/lv_keyboard.c ****     lv_keyboard_update_map(obj);
 189:Middlewares/LVGL/GUI/lvgl/src/extra/widgets/keyboard/lv_keyboard.c **** }
 190:Middlewares/LVGL/GUI/lvgl/src/extra/widgets/keyboard/lv_keyboard.c **** 
 191:Middlewares/LVGL/GUI/lvgl/src/extra/widgets/keyboard/lv_keyboard.c **** /**
 192:Middlewares/LVGL/GUI/lvgl/src/extra/widgets/keyboard/lv_keyboard.c ****  * Show the button title in a popover when pressed.
 193:Middlewares/LVGL/GUI/lvgl/src/extra/widgets/keyboard/lv_keyboard.c ****  * @param kb pointer to a Keyboard object
 194:Middlewares/LVGL/GUI/lvgl/src/extra/widgets/keyboard/lv_keyboard.c ****  * @param en whether "popovers" mode is enabled
 195:Middlewares/LVGL/GUI/lvgl/src/extra/widgets/keyboard/lv_keyboard.c ****  */
 196:Middlewares/LVGL/GUI/lvgl/src/extra/widgets/keyboard/lv_keyboard.c **** void lv_keyboard_set_popovers(lv_obj_t * obj, bool en)
 197:Middlewares/LVGL/GUI/lvgl/src/extra/widgets/keyboard/lv_keyboard.c **** {
 198:Middlewares/LVGL/GUI/lvgl/src/extra/widgets/keyboard/lv_keyboard.c ****     lv_keyboard_t * keyboard = (lv_keyboard_t *)obj;
 199:Middlewares/LVGL/GUI/lvgl/src/extra/widgets/keyboard/lv_keyboard.c **** 
 200:Middlewares/LVGL/GUI/lvgl/src/extra/widgets/keyboard/lv_keyboard.c ****     if(keyboard->popovers == en) {
 201:Middlewares/LVGL/GUI/lvgl/src/extra/widgets/keyboard/lv_keyboard.c ****         return;
ARM GAS  C:\Users\ADMINI~1\AppData\Local\Temp\cc9uxO7B.s 			page 5


 202:Middlewares/LVGL/GUI/lvgl/src/extra/widgets/keyboard/lv_keyboard.c ****     }
 203:Middlewares/LVGL/GUI/lvgl/src/extra/widgets/keyboard/lv_keyboard.c **** 
 204:Middlewares/LVGL/GUI/lvgl/src/extra/widgets/keyboard/lv_keyboard.c ****     keyboard->popovers = en;
 205:Middlewares/LVGL/GUI/lvgl/src/extra/widgets/keyboard/lv_keyboard.c ****     lv_keyboard_update_ctrl_map(obj);
 206:Middlewares/LVGL/GUI/lvgl/src/extra/widgets/keyboard/lv_keyboard.c **** }
 207:Middlewares/LVGL/GUI/lvgl/src/extra/widgets/keyboard/lv_keyboard.c **** 
 208:Middlewares/LVGL/GUI/lvgl/src/extra/widgets/keyboard/lv_keyboard.c **** /**
 209:Middlewares/LVGL/GUI/lvgl/src/extra/widgets/keyboard/lv_keyboard.c ****  * Set a new map for the keyboard
 210:Middlewares/LVGL/GUI/lvgl/src/extra/widgets/keyboard/lv_keyboard.c ****  * @param kb pointer to a Keyboard object
 211:Middlewares/LVGL/GUI/lvgl/src/extra/widgets/keyboard/lv_keyboard.c ****  * @param mode keyboard map to alter 'lv_keyboard_mode_t'
 212:Middlewares/LVGL/GUI/lvgl/src/extra/widgets/keyboard/lv_keyboard.c ****  * @param map pointer to a string array to describe the map.
 213:Middlewares/LVGL/GUI/lvgl/src/extra/widgets/keyboard/lv_keyboard.c ****  *            See 'lv_btnmatrix_set_map()' for more info.
 214:Middlewares/LVGL/GUI/lvgl/src/extra/widgets/keyboard/lv_keyboard.c ****  */
 215:Middlewares/LVGL/GUI/lvgl/src/extra/widgets/keyboard/lv_keyboard.c **** void lv_keyboard_set_map(lv_obj_t * obj, lv_keyboard_mode_t mode, const char * map[],
 216:Middlewares/LVGL/GUI/lvgl/src/extra/widgets/keyboard/lv_keyboard.c ****                          const lv_btnmatrix_ctrl_t ctrl_map[])
 217:Middlewares/LVGL/GUI/lvgl/src/extra/widgets/keyboard/lv_keyboard.c **** {
 218:Middlewares/LVGL/GUI/lvgl/src/extra/widgets/keyboard/lv_keyboard.c ****     kb_map[mode] = map;
 219:Middlewares/LVGL/GUI/lvgl/src/extra/widgets/keyboard/lv_keyboard.c ****     kb_ctrl[mode] = ctrl_map;
 220:Middlewares/LVGL/GUI/lvgl/src/extra/widgets/keyboard/lv_keyboard.c ****     lv_keyboard_update_map(obj);
 221:Middlewares/LVGL/GUI/lvgl/src/extra/widgets/keyboard/lv_keyboard.c **** }
 222:Middlewares/LVGL/GUI/lvgl/src/extra/widgets/keyboard/lv_keyboard.c **** 
 223:Middlewares/LVGL/GUI/lvgl/src/extra/widgets/keyboard/lv_keyboard.c **** /*=====================
 224:Middlewares/LVGL/GUI/lvgl/src/extra/widgets/keyboard/lv_keyboard.c ****  * Getter functions
 225:Middlewares/LVGL/GUI/lvgl/src/extra/widgets/keyboard/lv_keyboard.c ****  *====================*/
 226:Middlewares/LVGL/GUI/lvgl/src/extra/widgets/keyboard/lv_keyboard.c **** 
 227:Middlewares/LVGL/GUI/lvgl/src/extra/widgets/keyboard/lv_keyboard.c **** /**
 228:Middlewares/LVGL/GUI/lvgl/src/extra/widgets/keyboard/lv_keyboard.c ****  * Assign a Text Area to the Keyboard. The pressed characters will be put there.
 229:Middlewares/LVGL/GUI/lvgl/src/extra/widgets/keyboard/lv_keyboard.c ****  * @param kb pointer to a Keyboard object
 230:Middlewares/LVGL/GUI/lvgl/src/extra/widgets/keyboard/lv_keyboard.c ****  * @return pointer to the assigned Text Area object
 231:Middlewares/LVGL/GUI/lvgl/src/extra/widgets/keyboard/lv_keyboard.c ****  */
 232:Middlewares/LVGL/GUI/lvgl/src/extra/widgets/keyboard/lv_keyboard.c **** lv_obj_t * lv_keyboard_get_textarea(const lv_obj_t * obj)
 233:Middlewares/LVGL/GUI/lvgl/src/extra/widgets/keyboard/lv_keyboard.c **** {
 234:Middlewares/LVGL/GUI/lvgl/src/extra/widgets/keyboard/lv_keyboard.c ****     LV_ASSERT_OBJ(obj, MY_CLASS);
 235:Middlewares/LVGL/GUI/lvgl/src/extra/widgets/keyboard/lv_keyboard.c ****     lv_keyboard_t * keyboard = (lv_keyboard_t *)obj;
 236:Middlewares/LVGL/GUI/lvgl/src/extra/widgets/keyboard/lv_keyboard.c ****     return keyboard->ta;
 237:Middlewares/LVGL/GUI/lvgl/src/extra/widgets/keyboard/lv_keyboard.c **** }
 238:Middlewares/LVGL/GUI/lvgl/src/extra/widgets/keyboard/lv_keyboard.c **** 
 239:Middlewares/LVGL/GUI/lvgl/src/extra/widgets/keyboard/lv_keyboard.c **** /**
 240:Middlewares/LVGL/GUI/lvgl/src/extra/widgets/keyboard/lv_keyboard.c ****  * Set a new a mode (text or number map)
 241:Middlewares/LVGL/GUI/lvgl/src/extra/widgets/keyboard/lv_keyboard.c ****  * @param kb pointer to a Keyboard object
 242:Middlewares/LVGL/GUI/lvgl/src/extra/widgets/keyboard/lv_keyboard.c ****  * @return the current mode from 'lv_keyboard_mode_t'
 243:Middlewares/LVGL/GUI/lvgl/src/extra/widgets/keyboard/lv_keyboard.c ****  */
 244:Middlewares/LVGL/GUI/lvgl/src/extra/widgets/keyboard/lv_keyboard.c **** lv_keyboard_mode_t lv_keyboard_get_mode(const lv_obj_t * obj)
 245:Middlewares/LVGL/GUI/lvgl/src/extra/widgets/keyboard/lv_keyboard.c **** {
 246:Middlewares/LVGL/GUI/lvgl/src/extra/widgets/keyboard/lv_keyboard.c ****     LV_ASSERT_OBJ(obj, MY_CLASS);
 247:Middlewares/LVGL/GUI/lvgl/src/extra/widgets/keyboard/lv_keyboard.c ****     lv_keyboard_t * keyboard = (lv_keyboard_t *)obj;
 248:Middlewares/LVGL/GUI/lvgl/src/extra/widgets/keyboard/lv_keyboard.c ****     return keyboard->mode;
 249:Middlewares/LVGL/GUI/lvgl/src/extra/widgets/keyboard/lv_keyboard.c **** }
 250:Middlewares/LVGL/GUI/lvgl/src/extra/widgets/keyboard/lv_keyboard.c **** 
 251:Middlewares/LVGL/GUI/lvgl/src/extra/widgets/keyboard/lv_keyboard.c **** /**
 252:Middlewares/LVGL/GUI/lvgl/src/extra/widgets/keyboard/lv_keyboard.c ****  * Tell whether "popovers" mode is enabled or not.
 253:Middlewares/LVGL/GUI/lvgl/src/extra/widgets/keyboard/lv_keyboard.c ****  * @param kb pointer to a Keyboard object
 254:Middlewares/LVGL/GUI/lvgl/src/extra/widgets/keyboard/lv_keyboard.c ****  * @return true: "popovers" mode is enabled; false: disabled
 255:Middlewares/LVGL/GUI/lvgl/src/extra/widgets/keyboard/lv_keyboard.c ****  */
 256:Middlewares/LVGL/GUI/lvgl/src/extra/widgets/keyboard/lv_keyboard.c **** bool lv_btnmatrix_get_popovers(const lv_obj_t * obj)
 257:Middlewares/LVGL/GUI/lvgl/src/extra/widgets/keyboard/lv_keyboard.c **** {
 258:Middlewares/LVGL/GUI/lvgl/src/extra/widgets/keyboard/lv_keyboard.c ****     lv_keyboard_t * keyboard = (lv_keyboard_t *)obj;
ARM GAS  C:\Users\ADMINI~1\AppData\Local\Temp\cc9uxO7B.s 			page 6


 259:Middlewares/LVGL/GUI/lvgl/src/extra/widgets/keyboard/lv_keyboard.c ****     return keyboard->popovers;
 260:Middlewares/LVGL/GUI/lvgl/src/extra/widgets/keyboard/lv_keyboard.c **** }
 261:Middlewares/LVGL/GUI/lvgl/src/extra/widgets/keyboard/lv_keyboard.c **** 
 262:Middlewares/LVGL/GUI/lvgl/src/extra/widgets/keyboard/lv_keyboard.c **** /*=====================
 263:Middlewares/LVGL/GUI/lvgl/src/extra/widgets/keyboard/lv_keyboard.c ****  * Other functions
 264:Middlewares/LVGL/GUI/lvgl/src/extra/widgets/keyboard/lv_keyboard.c ****  *====================*/
 265:Middlewares/LVGL/GUI/lvgl/src/extra/widgets/keyboard/lv_keyboard.c **** 
 266:Middlewares/LVGL/GUI/lvgl/src/extra/widgets/keyboard/lv_keyboard.c **** /**
 267:Middlewares/LVGL/GUI/lvgl/src/extra/widgets/keyboard/lv_keyboard.c ****  * Default keyboard event to add characters to the Text area and change the map.
 268:Middlewares/LVGL/GUI/lvgl/src/extra/widgets/keyboard/lv_keyboard.c ****  * If a custom `event_cb` is added to the keyboard this function can be called from it to handle th
 269:Middlewares/LVGL/GUI/lvgl/src/extra/widgets/keyboard/lv_keyboard.c ****  * button clicks
 270:Middlewares/LVGL/GUI/lvgl/src/extra/widgets/keyboard/lv_keyboard.c ****  * @param kb pointer to a keyboard
 271:Middlewares/LVGL/GUI/lvgl/src/extra/widgets/keyboard/lv_keyboard.c ****  * @param event the triggering event
 272:Middlewares/LVGL/GUI/lvgl/src/extra/widgets/keyboard/lv_keyboard.c ****  */
 273:Middlewares/LVGL/GUI/lvgl/src/extra/widgets/keyboard/lv_keyboard.c **** void lv_keyboard_def_event_cb(lv_event_t * e)
 274:Middlewares/LVGL/GUI/lvgl/src/extra/widgets/keyboard/lv_keyboard.c **** {
 275:Middlewares/LVGL/GUI/lvgl/src/extra/widgets/keyboard/lv_keyboard.c ****     lv_obj_t * obj = lv_event_get_target(e);
 276:Middlewares/LVGL/GUI/lvgl/src/extra/widgets/keyboard/lv_keyboard.c **** 
 277:Middlewares/LVGL/GUI/lvgl/src/extra/widgets/keyboard/lv_keyboard.c ****     LV_ASSERT_OBJ(obj, MY_CLASS);
 278:Middlewares/LVGL/GUI/lvgl/src/extra/widgets/keyboard/lv_keyboard.c ****     lv_keyboard_t * keyboard = (lv_keyboard_t *)obj;
 279:Middlewares/LVGL/GUI/lvgl/src/extra/widgets/keyboard/lv_keyboard.c ****     uint16_t btn_id   = lv_btnmatrix_get_selected_btn(obj);
 280:Middlewares/LVGL/GUI/lvgl/src/extra/widgets/keyboard/lv_keyboard.c ****     if(btn_id == LV_BTNMATRIX_BTN_NONE) return;
 281:Middlewares/LVGL/GUI/lvgl/src/extra/widgets/keyboard/lv_keyboard.c **** 
 282:Middlewares/LVGL/GUI/lvgl/src/extra/widgets/keyboard/lv_keyboard.c ****     const char * txt = lv_btnmatrix_get_btn_text(obj, lv_btnmatrix_get_selected_btn(obj));
 283:Middlewares/LVGL/GUI/lvgl/src/extra/widgets/keyboard/lv_keyboard.c ****     if(txt == NULL) return;
 284:Middlewares/LVGL/GUI/lvgl/src/extra/widgets/keyboard/lv_keyboard.c **** 
 285:Middlewares/LVGL/GUI/lvgl/src/extra/widgets/keyboard/lv_keyboard.c ****     if(strcmp(txt, "abc") == 0) {
 286:Middlewares/LVGL/GUI/lvgl/src/extra/widgets/keyboard/lv_keyboard.c ****         keyboard->mode = LV_KEYBOARD_MODE_TEXT_LOWER;
 287:Middlewares/LVGL/GUI/lvgl/src/extra/widgets/keyboard/lv_keyboard.c ****         lv_btnmatrix_set_map(obj, kb_map[LV_KEYBOARD_MODE_TEXT_LOWER]);
 288:Middlewares/LVGL/GUI/lvgl/src/extra/widgets/keyboard/lv_keyboard.c ****         lv_btnmatrix_set_ctrl_map(obj, kb_ctrl[LV_KEYBOARD_MODE_TEXT_LOWER]);
 289:Middlewares/LVGL/GUI/lvgl/src/extra/widgets/keyboard/lv_keyboard.c ****         return;
 290:Middlewares/LVGL/GUI/lvgl/src/extra/widgets/keyboard/lv_keyboard.c ****     }
 291:Middlewares/LVGL/GUI/lvgl/src/extra/widgets/keyboard/lv_keyboard.c ****     else if(strcmp(txt, "ABC") == 0) {
 292:Middlewares/LVGL/GUI/lvgl/src/extra/widgets/keyboard/lv_keyboard.c ****         keyboard->mode = LV_KEYBOARD_MODE_TEXT_UPPER;
 293:Middlewares/LVGL/GUI/lvgl/src/extra/widgets/keyboard/lv_keyboard.c ****         lv_btnmatrix_set_map(obj, kb_map[LV_KEYBOARD_MODE_TEXT_UPPER]);
 294:Middlewares/LVGL/GUI/lvgl/src/extra/widgets/keyboard/lv_keyboard.c ****         lv_btnmatrix_set_ctrl_map(obj, kb_ctrl[LV_KEYBOARD_MODE_TEXT_UPPER]);
 295:Middlewares/LVGL/GUI/lvgl/src/extra/widgets/keyboard/lv_keyboard.c ****         return;
 296:Middlewares/LVGL/GUI/lvgl/src/extra/widgets/keyboard/lv_keyboard.c ****     }
 297:Middlewares/LVGL/GUI/lvgl/src/extra/widgets/keyboard/lv_keyboard.c ****     else if(strcmp(txt, "1#") == 0) {
 298:Middlewares/LVGL/GUI/lvgl/src/extra/widgets/keyboard/lv_keyboard.c ****         keyboard->mode = LV_KEYBOARD_MODE_SPECIAL;
 299:Middlewares/LVGL/GUI/lvgl/src/extra/widgets/keyboard/lv_keyboard.c ****         lv_btnmatrix_set_map(obj, kb_map[LV_KEYBOARD_MODE_SPECIAL]);
 300:Middlewares/LVGL/GUI/lvgl/src/extra/widgets/keyboard/lv_keyboard.c ****         lv_btnmatrix_set_ctrl_map(obj, kb_ctrl[LV_KEYBOARD_MODE_SPECIAL]);
 301:Middlewares/LVGL/GUI/lvgl/src/extra/widgets/keyboard/lv_keyboard.c ****         return;
 302:Middlewares/LVGL/GUI/lvgl/src/extra/widgets/keyboard/lv_keyboard.c ****     }
 303:Middlewares/LVGL/GUI/lvgl/src/extra/widgets/keyboard/lv_keyboard.c ****     else if(strcmp(txt, LV_SYMBOL_CLOSE) == 0 || strcmp(txt, LV_SYMBOL_KEYBOARD) == 0) {
 304:Middlewares/LVGL/GUI/lvgl/src/extra/widgets/keyboard/lv_keyboard.c ****         lv_res_t res = lv_event_send(obj, LV_EVENT_CANCEL, NULL);
 305:Middlewares/LVGL/GUI/lvgl/src/extra/widgets/keyboard/lv_keyboard.c ****         if(res != LV_RES_OK) return;
 306:Middlewares/LVGL/GUI/lvgl/src/extra/widgets/keyboard/lv_keyboard.c **** 
 307:Middlewares/LVGL/GUI/lvgl/src/extra/widgets/keyboard/lv_keyboard.c ****         if(keyboard->ta) {
 308:Middlewares/LVGL/GUI/lvgl/src/extra/widgets/keyboard/lv_keyboard.c ****             res = lv_event_send(keyboard->ta, LV_EVENT_CANCEL, NULL);
 309:Middlewares/LVGL/GUI/lvgl/src/extra/widgets/keyboard/lv_keyboard.c ****             if(res != LV_RES_OK) return;
 310:Middlewares/LVGL/GUI/lvgl/src/extra/widgets/keyboard/lv_keyboard.c ****         }
 311:Middlewares/LVGL/GUI/lvgl/src/extra/widgets/keyboard/lv_keyboard.c ****         return;
 312:Middlewares/LVGL/GUI/lvgl/src/extra/widgets/keyboard/lv_keyboard.c ****     }
 313:Middlewares/LVGL/GUI/lvgl/src/extra/widgets/keyboard/lv_keyboard.c ****     else if(strcmp(txt, LV_SYMBOL_OK) == 0) {
 314:Middlewares/LVGL/GUI/lvgl/src/extra/widgets/keyboard/lv_keyboard.c ****         lv_res_t res = lv_event_send(obj, LV_EVENT_READY, NULL);
 315:Middlewares/LVGL/GUI/lvgl/src/extra/widgets/keyboard/lv_keyboard.c ****         if(res != LV_RES_OK) return;
ARM GAS  C:\Users\ADMINI~1\AppData\Local\Temp\cc9uxO7B.s 			page 7


 316:Middlewares/LVGL/GUI/lvgl/src/extra/widgets/keyboard/lv_keyboard.c **** 
 317:Middlewares/LVGL/GUI/lvgl/src/extra/widgets/keyboard/lv_keyboard.c ****         if(keyboard->ta) {
 318:Middlewares/LVGL/GUI/lvgl/src/extra/widgets/keyboard/lv_keyboard.c ****             res = lv_event_send(keyboard->ta, LV_EVENT_READY, NULL);
 319:Middlewares/LVGL/GUI/lvgl/src/extra/widgets/keyboard/lv_keyboard.c ****             if(res != LV_RES_OK) return;
 320:Middlewares/LVGL/GUI/lvgl/src/extra/widgets/keyboard/lv_keyboard.c ****         }
 321:Middlewares/LVGL/GUI/lvgl/src/extra/widgets/keyboard/lv_keyboard.c ****         return;
 322:Middlewares/LVGL/GUI/lvgl/src/extra/widgets/keyboard/lv_keyboard.c ****     }
 323:Middlewares/LVGL/GUI/lvgl/src/extra/widgets/keyboard/lv_keyboard.c **** 
 324:Middlewares/LVGL/GUI/lvgl/src/extra/widgets/keyboard/lv_keyboard.c ****     /*Add the characters to the text area if set*/
 325:Middlewares/LVGL/GUI/lvgl/src/extra/widgets/keyboard/lv_keyboard.c ****     if(keyboard->ta == NULL) return;
 326:Middlewares/LVGL/GUI/lvgl/src/extra/widgets/keyboard/lv_keyboard.c **** 
 327:Middlewares/LVGL/GUI/lvgl/src/extra/widgets/keyboard/lv_keyboard.c ****     if(strcmp(txt, "Enter") == 0 || strcmp(txt, LV_SYMBOL_NEW_LINE) == 0) {
 328:Middlewares/LVGL/GUI/lvgl/src/extra/widgets/keyboard/lv_keyboard.c ****         lv_textarea_add_char(keyboard->ta, '\n');
 329:Middlewares/LVGL/GUI/lvgl/src/extra/widgets/keyboard/lv_keyboard.c ****         if(lv_textarea_get_one_line(keyboard->ta)) {
 330:Middlewares/LVGL/GUI/lvgl/src/extra/widgets/keyboard/lv_keyboard.c ****             lv_res_t res = lv_event_send(keyboard->ta, LV_EVENT_READY, NULL);
 331:Middlewares/LVGL/GUI/lvgl/src/extra/widgets/keyboard/lv_keyboard.c ****             if(res != LV_RES_OK) return;
 332:Middlewares/LVGL/GUI/lvgl/src/extra/widgets/keyboard/lv_keyboard.c ****         }
 333:Middlewares/LVGL/GUI/lvgl/src/extra/widgets/keyboard/lv_keyboard.c ****     }
 334:Middlewares/LVGL/GUI/lvgl/src/extra/widgets/keyboard/lv_keyboard.c ****     else if(strcmp(txt, LV_SYMBOL_LEFT) == 0) {
 335:Middlewares/LVGL/GUI/lvgl/src/extra/widgets/keyboard/lv_keyboard.c ****         lv_textarea_cursor_left(keyboard->ta);
 336:Middlewares/LVGL/GUI/lvgl/src/extra/widgets/keyboard/lv_keyboard.c ****     }
 337:Middlewares/LVGL/GUI/lvgl/src/extra/widgets/keyboard/lv_keyboard.c ****     else if(strcmp(txt, LV_SYMBOL_RIGHT) == 0) {
 338:Middlewares/LVGL/GUI/lvgl/src/extra/widgets/keyboard/lv_keyboard.c ****         lv_textarea_cursor_right(keyboard->ta);
 339:Middlewares/LVGL/GUI/lvgl/src/extra/widgets/keyboard/lv_keyboard.c ****     }
 340:Middlewares/LVGL/GUI/lvgl/src/extra/widgets/keyboard/lv_keyboard.c ****     else if(strcmp(txt, LV_SYMBOL_BACKSPACE) == 0) {
 341:Middlewares/LVGL/GUI/lvgl/src/extra/widgets/keyboard/lv_keyboard.c ****         lv_textarea_del_char(keyboard->ta);
 342:Middlewares/LVGL/GUI/lvgl/src/extra/widgets/keyboard/lv_keyboard.c ****     }
 343:Middlewares/LVGL/GUI/lvgl/src/extra/widgets/keyboard/lv_keyboard.c ****     else if(strcmp(txt, "+/-") == 0) {
 344:Middlewares/LVGL/GUI/lvgl/src/extra/widgets/keyboard/lv_keyboard.c ****         uint16_t cur        = lv_textarea_get_cursor_pos(keyboard->ta);
 345:Middlewares/LVGL/GUI/lvgl/src/extra/widgets/keyboard/lv_keyboard.c ****         const char * ta_txt = lv_textarea_get_text(keyboard->ta);
 346:Middlewares/LVGL/GUI/lvgl/src/extra/widgets/keyboard/lv_keyboard.c ****         if(ta_txt[0] == '-') {
 347:Middlewares/LVGL/GUI/lvgl/src/extra/widgets/keyboard/lv_keyboard.c ****             lv_textarea_set_cursor_pos(keyboard->ta, 1);
 348:Middlewares/LVGL/GUI/lvgl/src/extra/widgets/keyboard/lv_keyboard.c ****             lv_textarea_del_char(keyboard->ta);
 349:Middlewares/LVGL/GUI/lvgl/src/extra/widgets/keyboard/lv_keyboard.c ****             lv_textarea_add_char(keyboard->ta, '+');
 350:Middlewares/LVGL/GUI/lvgl/src/extra/widgets/keyboard/lv_keyboard.c ****             lv_textarea_set_cursor_pos(keyboard->ta, cur);
 351:Middlewares/LVGL/GUI/lvgl/src/extra/widgets/keyboard/lv_keyboard.c ****         }
 352:Middlewares/LVGL/GUI/lvgl/src/extra/widgets/keyboard/lv_keyboard.c ****         else if(ta_txt[0] == '+') {
 353:Middlewares/LVGL/GUI/lvgl/src/extra/widgets/keyboard/lv_keyboard.c ****             lv_textarea_set_cursor_pos(keyboard->ta, 1);
 354:Middlewares/LVGL/GUI/lvgl/src/extra/widgets/keyboard/lv_keyboard.c ****             lv_textarea_del_char(keyboard->ta);
 355:Middlewares/LVGL/GUI/lvgl/src/extra/widgets/keyboard/lv_keyboard.c ****             lv_textarea_add_char(keyboard->ta, '-');
 356:Middlewares/LVGL/GUI/lvgl/src/extra/widgets/keyboard/lv_keyboard.c ****             lv_textarea_set_cursor_pos(keyboard->ta, cur);
 357:Middlewares/LVGL/GUI/lvgl/src/extra/widgets/keyboard/lv_keyboard.c ****         }
 358:Middlewares/LVGL/GUI/lvgl/src/extra/widgets/keyboard/lv_keyboard.c ****         else {
 359:Middlewares/LVGL/GUI/lvgl/src/extra/widgets/keyboard/lv_keyboard.c ****             lv_textarea_set_cursor_pos(keyboard->ta, 0);
 360:Middlewares/LVGL/GUI/lvgl/src/extra/widgets/keyboard/lv_keyboard.c ****             lv_textarea_add_char(keyboard->ta, '-');
 361:Middlewares/LVGL/GUI/lvgl/src/extra/widgets/keyboard/lv_keyboard.c ****             lv_textarea_set_cursor_pos(keyboard->ta, cur + 1);
 362:Middlewares/LVGL/GUI/lvgl/src/extra/widgets/keyboard/lv_keyboard.c ****         }
 363:Middlewares/LVGL/GUI/lvgl/src/extra/widgets/keyboard/lv_keyboard.c ****     }
 364:Middlewares/LVGL/GUI/lvgl/src/extra/widgets/keyboard/lv_keyboard.c ****     else {
 365:Middlewares/LVGL/GUI/lvgl/src/extra/widgets/keyboard/lv_keyboard.c ****         lv_textarea_add_text(keyboard->ta, txt);
 366:Middlewares/LVGL/GUI/lvgl/src/extra/widgets/keyboard/lv_keyboard.c ****     }
 367:Middlewares/LVGL/GUI/lvgl/src/extra/widgets/keyboard/lv_keyboard.c **** }
 368:Middlewares/LVGL/GUI/lvgl/src/extra/widgets/keyboard/lv_keyboard.c **** 
 369:Middlewares/LVGL/GUI/lvgl/src/extra/widgets/keyboard/lv_keyboard.c **** /**********************
 370:Middlewares/LVGL/GUI/lvgl/src/extra/widgets/keyboard/lv_keyboard.c ****  *   STATIC FUNCTIONS
 371:Middlewares/LVGL/GUI/lvgl/src/extra/widgets/keyboard/lv_keyboard.c ****  **********************/
 372:Middlewares/LVGL/GUI/lvgl/src/extra/widgets/keyboard/lv_keyboard.c **** 
ARM GAS  C:\Users\ADMINI~1\AppData\Local\Temp\cc9uxO7B.s 			page 8


 373:Middlewares/LVGL/GUI/lvgl/src/extra/widgets/keyboard/lv_keyboard.c **** static void lv_keyboard_constructor(const lv_obj_class_t * class_p, lv_obj_t * obj)
 374:Middlewares/LVGL/GUI/lvgl/src/extra/widgets/keyboard/lv_keyboard.c **** {
 375:Middlewares/LVGL/GUI/lvgl/src/extra/widgets/keyboard/lv_keyboard.c ****     LV_UNUSED(class_p);
 376:Middlewares/LVGL/GUI/lvgl/src/extra/widgets/keyboard/lv_keyboard.c ****     lv_obj_clear_flag(obj, LV_OBJ_FLAG_CLICK_FOCUSABLE);
 377:Middlewares/LVGL/GUI/lvgl/src/extra/widgets/keyboard/lv_keyboard.c **** 
 378:Middlewares/LVGL/GUI/lvgl/src/extra/widgets/keyboard/lv_keyboard.c ****     lv_keyboard_t * keyboard = (lv_keyboard_t *)obj;
 379:Middlewares/LVGL/GUI/lvgl/src/extra/widgets/keyboard/lv_keyboard.c ****     keyboard->ta         = NULL;
 380:Middlewares/LVGL/GUI/lvgl/src/extra/widgets/keyboard/lv_keyboard.c ****     keyboard->mode       = LV_KEYBOARD_MODE_TEXT_LOWER;
 381:Middlewares/LVGL/GUI/lvgl/src/extra/widgets/keyboard/lv_keyboard.c ****     keyboard->popovers   = 0;
 382:Middlewares/LVGL/GUI/lvgl/src/extra/widgets/keyboard/lv_keyboard.c **** 
 383:Middlewares/LVGL/GUI/lvgl/src/extra/widgets/keyboard/lv_keyboard.c ****     lv_obj_align(obj, LV_ALIGN_BOTTOM_MID, 0, 0);
 384:Middlewares/LVGL/GUI/lvgl/src/extra/widgets/keyboard/lv_keyboard.c ****     lv_obj_add_event_cb(obj, lv_keyboard_def_event_cb, LV_EVENT_VALUE_CHANGED, NULL);
 385:Middlewares/LVGL/GUI/lvgl/src/extra/widgets/keyboard/lv_keyboard.c ****     lv_obj_set_style_base_dir(obj, LV_BASE_DIR_LTR, 0);
 386:Middlewares/LVGL/GUI/lvgl/src/extra/widgets/keyboard/lv_keyboard.c **** 
 387:Middlewares/LVGL/GUI/lvgl/src/extra/widgets/keyboard/lv_keyboard.c ****     lv_keyboard_update_map(obj);
 388:Middlewares/LVGL/GUI/lvgl/src/extra/widgets/keyboard/lv_keyboard.c **** }
 389:Middlewares/LVGL/GUI/lvgl/src/extra/widgets/keyboard/lv_keyboard.c **** 
 390:Middlewares/LVGL/GUI/lvgl/src/extra/widgets/keyboard/lv_keyboard.c **** /**
 391:Middlewares/LVGL/GUI/lvgl/src/extra/widgets/keyboard/lv_keyboard.c ****  * Update the key and control map for the current mode
 392:Middlewares/LVGL/GUI/lvgl/src/extra/widgets/keyboard/lv_keyboard.c ****  * @param obj pointer to a keyboard object
 393:Middlewares/LVGL/GUI/lvgl/src/extra/widgets/keyboard/lv_keyboard.c ****  */
 394:Middlewares/LVGL/GUI/lvgl/src/extra/widgets/keyboard/lv_keyboard.c **** static void lv_keyboard_update_map(lv_obj_t * obj)
 395:Middlewares/LVGL/GUI/lvgl/src/extra/widgets/keyboard/lv_keyboard.c **** {
 396:Middlewares/LVGL/GUI/lvgl/src/extra/widgets/keyboard/lv_keyboard.c ****     lv_keyboard_t * keyboard = (lv_keyboard_t *)obj;
 397:Middlewares/LVGL/GUI/lvgl/src/extra/widgets/keyboard/lv_keyboard.c ****     lv_btnmatrix_set_map(obj, kb_map[keyboard->mode]);
 398:Middlewares/LVGL/GUI/lvgl/src/extra/widgets/keyboard/lv_keyboard.c ****     lv_keyboard_update_ctrl_map(obj);
 399:Middlewares/LVGL/GUI/lvgl/src/extra/widgets/keyboard/lv_keyboard.c **** }
 400:Middlewares/LVGL/GUI/lvgl/src/extra/widgets/keyboard/lv_keyboard.c **** 
 401:Middlewares/LVGL/GUI/lvgl/src/extra/widgets/keyboard/lv_keyboard.c **** /**
 402:Middlewares/LVGL/GUI/lvgl/src/extra/widgets/keyboard/lv_keyboard.c ****  * Update the control map for the current mode
 403:Middlewares/LVGL/GUI/lvgl/src/extra/widgets/keyboard/lv_keyboard.c ****  * @param obj pointer to a keyboard object
 404:Middlewares/LVGL/GUI/lvgl/src/extra/widgets/keyboard/lv_keyboard.c ****  */
 405:Middlewares/LVGL/GUI/lvgl/src/extra/widgets/keyboard/lv_keyboard.c **** static void lv_keyboard_update_ctrl_map(lv_obj_t * obj)
 406:Middlewares/LVGL/GUI/lvgl/src/extra/widgets/keyboard/lv_keyboard.c **** {
  29              		.loc 1 406 1 view -0
  30              		.cfi_startproc
  31              		@ args = 0, pretend = 0, frame = 0
  32              		@ frame_needed = 0, uses_anonymous_args = 0
  33              		.loc 1 406 1 is_stmt 0 view .LVU1
  34 0000 38B5     		push	{r3, r4, r5, lr}
  35              	.LCFI0:
  36              		.cfi_def_cfa_offset 16
  37              		.cfi_offset 3, -16
  38              		.cfi_offset 4, -12
  39              		.cfi_offset 5, -8
  40              		.cfi_offset 14, -4
  41 0002 0446     		mov	r4, r0
 407:Middlewares/LVGL/GUI/lvgl/src/extra/widgets/keyboard/lv_keyboard.c ****     lv_keyboard_t * keyboard = (lv_keyboard_t *)obj;
  42              		.loc 1 407 5 is_stmt 1 view .LVU2
  43              	.LVL1:
 408:Middlewares/LVGL/GUI/lvgl/src/extra/widgets/keyboard/lv_keyboard.c **** 
 409:Middlewares/LVGL/GUI/lvgl/src/extra/widgets/keyboard/lv_keyboard.c ****     if(keyboard->popovers) {
  44              		.loc 1 409 5 view .LVU3
  45              		.loc 1 409 8 is_stmt 0 view .LVU4
  46 0004 90F84530 		ldrb	r3, [r0, #69]	@ zero_extendqisi2
  47              		.loc 1 409 7 view .LVU5
  48 0008 13F0010F 		tst	r3, #1
ARM GAS  C:\Users\ADMINI~1\AppData\Local\Temp\cc9uxO7B.s 			page 9


  49 000c 07D0     		beq	.L2
 410:Middlewares/LVGL/GUI/lvgl/src/extra/widgets/keyboard/lv_keyboard.c ****         /*Apply the current control map (already includes LV_BTNMATRIX_CTRL_POPOVER flags)*/
 411:Middlewares/LVGL/GUI/lvgl/src/extra/widgets/keyboard/lv_keyboard.c ****         lv_btnmatrix_set_ctrl_map(obj, kb_ctrl[keyboard->mode]);
  50              		.loc 1 411 9 is_stmt 1 view .LVU6
  51              		.loc 1 411 56 is_stmt 0 view .LVU7
  52 000e 90F84420 		ldrb	r2, [r0, #68]	@ zero_extendqisi2
  53              		.loc 1 411 9 view .LVU8
  54 0012 144B     		ldr	r3, .L7
  55 0014 53F82210 		ldr	r1, [r3, r2, lsl #2]
  56 0018 FFF7FEFF 		bl	lv_btnmatrix_set_ctrl_map
  57              	.LVL2:
  58              	.L1:
 412:Middlewares/LVGL/GUI/lvgl/src/extra/widgets/keyboard/lv_keyboard.c ****     }
 413:Middlewares/LVGL/GUI/lvgl/src/extra/widgets/keyboard/lv_keyboard.c ****     else {
 414:Middlewares/LVGL/GUI/lvgl/src/extra/widgets/keyboard/lv_keyboard.c ****         /*Make a copy of the current control map*/
 415:Middlewares/LVGL/GUI/lvgl/src/extra/widgets/keyboard/lv_keyboard.c ****         lv_btnmatrix_t * btnm = (lv_btnmatrix_t *)obj;
 416:Middlewares/LVGL/GUI/lvgl/src/extra/widgets/keyboard/lv_keyboard.c ****         lv_btnmatrix_ctrl_t * ctrl_map = lv_mem_alloc(btnm->btn_cnt * sizeof(lv_btnmatrix_ctrl_t));
 417:Middlewares/LVGL/GUI/lvgl/src/extra/widgets/keyboard/lv_keyboard.c ****         lv_memcpy(ctrl_map, kb_ctrl[keyboard->mode], sizeof(lv_btnmatrix_ctrl_t) * btnm->btn_cnt);
 418:Middlewares/LVGL/GUI/lvgl/src/extra/widgets/keyboard/lv_keyboard.c **** 
 419:Middlewares/LVGL/GUI/lvgl/src/extra/widgets/keyboard/lv_keyboard.c ****         /*Remove all LV_BTNMATRIX_CTRL_POPOVER flags*/
 420:Middlewares/LVGL/GUI/lvgl/src/extra/widgets/keyboard/lv_keyboard.c ****         for(uint16_t i = 0; i < btnm->btn_cnt; i++) {
 421:Middlewares/LVGL/GUI/lvgl/src/extra/widgets/keyboard/lv_keyboard.c ****             ctrl_map[i] &= (~LV_BTNMATRIX_CTRL_POPOVER);
 422:Middlewares/LVGL/GUI/lvgl/src/extra/widgets/keyboard/lv_keyboard.c ****         }
 423:Middlewares/LVGL/GUI/lvgl/src/extra/widgets/keyboard/lv_keyboard.c **** 
 424:Middlewares/LVGL/GUI/lvgl/src/extra/widgets/keyboard/lv_keyboard.c ****         /*Apply new control map and clean up*/
 425:Middlewares/LVGL/GUI/lvgl/src/extra/widgets/keyboard/lv_keyboard.c ****         lv_btnmatrix_set_ctrl_map(obj, ctrl_map);
 426:Middlewares/LVGL/GUI/lvgl/src/extra/widgets/keyboard/lv_keyboard.c ****         lv_mem_free(ctrl_map);
 427:Middlewares/LVGL/GUI/lvgl/src/extra/widgets/keyboard/lv_keyboard.c ****     }
 428:Middlewares/LVGL/GUI/lvgl/src/extra/widgets/keyboard/lv_keyboard.c **** }
  59              		.loc 1 428 1 view .LVU9
  60 001c 38BD     		pop	{r3, r4, r5, pc}
  61              	.LVL3:
  62              	.L2:
  63              	.LBB2:
 415:Middlewares/LVGL/GUI/lvgl/src/extra/widgets/keyboard/lv_keyboard.c ****         lv_btnmatrix_ctrl_t * ctrl_map = lv_mem_alloc(btnm->btn_cnt * sizeof(lv_btnmatrix_ctrl_t));
  64              		.loc 1 415 9 is_stmt 1 view .LVU10
 416:Middlewares/LVGL/GUI/lvgl/src/extra/widgets/keyboard/lv_keyboard.c ****         lv_memcpy(ctrl_map, kb_ctrl[keyboard->mode], sizeof(lv_btnmatrix_ctrl_t) * btnm->btn_cnt);
  65              		.loc 1 416 9 view .LVU11
 416:Middlewares/LVGL/GUI/lvgl/src/extra/widgets/keyboard/lv_keyboard.c ****         lv_memcpy(ctrl_map, kb_ctrl[keyboard->mode], sizeof(lv_btnmatrix_ctrl_t) * btnm->btn_cnt);
  66              		.loc 1 416 59 is_stmt 0 view .LVU12
  67 001e 008F     		ldrh	r0, [r0, #56]
  68              	.LVL4:
 416:Middlewares/LVGL/GUI/lvgl/src/extra/widgets/keyboard/lv_keyboard.c ****         lv_memcpy(ctrl_map, kb_ctrl[keyboard->mode], sizeof(lv_btnmatrix_ctrl_t) * btnm->btn_cnt);
  69              		.loc 1 416 42 view .LVU13
  70 0020 4000     		lsls	r0, r0, #1
  71 0022 FFF7FEFF 		bl	lv_mem_alloc
  72              	.LVL5:
  73 0026 0546     		mov	r5, r0
  74              	.LVL6:
 417:Middlewares/LVGL/GUI/lvgl/src/extra/widgets/keyboard/lv_keyboard.c **** 
  75              		.loc 1 417 9 is_stmt 1 view .LVU14
 417:Middlewares/LVGL/GUI/lvgl/src/extra/widgets/keyboard/lv_keyboard.c **** 
  76              		.loc 1 417 45 is_stmt 0 view .LVU15
  77 0028 94F84410 		ldrb	r1, [r4, #68]	@ zero_extendqisi2
 417:Middlewares/LVGL/GUI/lvgl/src/extra/widgets/keyboard/lv_keyboard.c **** 
  78              		.loc 1 417 88 view .LVU16
  79 002c 228F     		ldrh	r2, [r4, #56]
ARM GAS  C:\Users\ADMINI~1\AppData\Local\Temp\cc9uxO7B.s 			page 10


 417:Middlewares/LVGL/GUI/lvgl/src/extra/widgets/keyboard/lv_keyboard.c **** 
  80              		.loc 1 417 9 view .LVU17
  81 002e 5200     		lsls	r2, r2, #1
  82 0030 0C4B     		ldr	r3, .L7
  83 0032 53F82110 		ldr	r1, [r3, r1, lsl #2]
  84 0036 FFF7FEFF 		bl	lv_memcpy
  85              	.LVL7:
 420:Middlewares/LVGL/GUI/lvgl/src/extra/widgets/keyboard/lv_keyboard.c ****             ctrl_map[i] &= (~LV_BTNMATRIX_CTRL_POPOVER);
  86              		.loc 1 420 9 is_stmt 1 view .LVU18
  87              	.LBB3:
 420:Middlewares/LVGL/GUI/lvgl/src/extra/widgets/keyboard/lv_keyboard.c ****             ctrl_map[i] &= (~LV_BTNMATRIX_CTRL_POPOVER);
  88              		.loc 1 420 13 view .LVU19
 420:Middlewares/LVGL/GUI/lvgl/src/extra/widgets/keyboard/lv_keyboard.c ****             ctrl_map[i] &= (~LV_BTNMATRIX_CTRL_POPOVER);
  89              		.loc 1 420 22 is_stmt 0 view .LVU20
  90 003a 0023     		movs	r3, #0
 420:Middlewares/LVGL/GUI/lvgl/src/extra/widgets/keyboard/lv_keyboard.c ****             ctrl_map[i] &= (~LV_BTNMATRIX_CTRL_POPOVER);
  91              		.loc 1 420 9 view .LVU21
  92 003c 07E0     		b	.L4
  93              	.LVL8:
  94              	.L5:
 421:Middlewares/LVGL/GUI/lvgl/src/extra/widgets/keyboard/lv_keyboard.c ****         }
  95              		.loc 1 421 13 is_stmt 1 discriminator 3 view .LVU22
 421:Middlewares/LVGL/GUI/lvgl/src/extra/widgets/keyboard/lv_keyboard.c ****         }
  96              		.loc 1 421 25 is_stmt 0 discriminator 3 view .LVU23
  97 003e 35F81320 		ldrh	r2, [r5, r3, lsl #1]
  98 0042 22F40072 		bic	r2, r2, #512
  99 0046 25F81320 		strh	r2, [r5, r3, lsl #1]	@ movhi
 420:Middlewares/LVGL/GUI/lvgl/src/extra/widgets/keyboard/lv_keyboard.c ****             ctrl_map[i] &= (~LV_BTNMATRIX_CTRL_POPOVER);
 100              		.loc 1 420 48 is_stmt 1 discriminator 3 view .LVU24
 420:Middlewares/LVGL/GUI/lvgl/src/extra/widgets/keyboard/lv_keyboard.c ****             ctrl_map[i] &= (~LV_BTNMATRIX_CTRL_POPOVER);
 101              		.loc 1 420 49 is_stmt 0 discriminator 3 view .LVU25
 102 004a 0133     		adds	r3, r3, #1
 103              	.LVL9:
 420:Middlewares/LVGL/GUI/lvgl/src/extra/widgets/keyboard/lv_keyboard.c ****             ctrl_map[i] &= (~LV_BTNMATRIX_CTRL_POPOVER);
 104              		.loc 1 420 49 discriminator 3 view .LVU26
 105 004c 9BB2     		uxth	r3, r3
 106              	.LVL10:
 107              	.L4:
 420:Middlewares/LVGL/GUI/lvgl/src/extra/widgets/keyboard/lv_keyboard.c ****             ctrl_map[i] &= (~LV_BTNMATRIX_CTRL_POPOVER);
 108              		.loc 1 420 29 is_stmt 1 discriminator 1 view .LVU27
 420:Middlewares/LVGL/GUI/lvgl/src/extra/widgets/keyboard/lv_keyboard.c ****             ctrl_map[i] &= (~LV_BTNMATRIX_CTRL_POPOVER);
 109              		.loc 1 420 37 is_stmt 0 discriminator 1 view .LVU28
 110 004e 228F     		ldrh	r2, [r4, #56]
 420:Middlewares/LVGL/GUI/lvgl/src/extra/widgets/keyboard/lv_keyboard.c ****             ctrl_map[i] &= (~LV_BTNMATRIX_CTRL_POPOVER);
 111              		.loc 1 420 9 discriminator 1 view .LVU29
 112 0050 9A42     		cmp	r2, r3
 113 0052 F4D8     		bhi	.L5
 114              	.LBE3:
 425:Middlewares/LVGL/GUI/lvgl/src/extra/widgets/keyboard/lv_keyboard.c ****         lv_mem_free(ctrl_map);
 115              		.loc 1 425 9 is_stmt 1 view .LVU30
 116 0054 2946     		mov	r1, r5
 117 0056 2046     		mov	r0, r4
 118 0058 FFF7FEFF 		bl	lv_btnmatrix_set_ctrl_map
 119              	.LVL11:
 426:Middlewares/LVGL/GUI/lvgl/src/extra/widgets/keyboard/lv_keyboard.c ****     }
 120              		.loc 1 426 9 view .LVU31
 121 005c 2846     		mov	r0, r5
ARM GAS  C:\Users\ADMINI~1\AppData\Local\Temp\cc9uxO7B.s 			page 11


 122 005e FFF7FEFF 		bl	lv_mem_free
 123              	.LVL12:
 124              	.LBE2:
 125              		.loc 1 428 1 is_stmt 0 view .LVU32
 126 0062 DBE7     		b	.L1
 127              	.L8:
 128              		.align	2
 129              	.L7:
 130 0064 00000000 		.word	.LANCHOR0
 131              		.cfi_endproc
 132              	.LFE167:
 134              		.section	.text.lv_keyboard_update_map,"ax",%progbits
 135              		.align	1
 136              		.syntax unified
 137              		.thumb
 138              		.thumb_func
 140              	lv_keyboard_update_map:
 141              	.LVL13:
 142              	.LFB166:
 395:Middlewares/LVGL/GUI/lvgl/src/extra/widgets/keyboard/lv_keyboard.c ****     lv_keyboard_t * keyboard = (lv_keyboard_t *)obj;
 143              		.loc 1 395 1 is_stmt 1 view -0
 144              		.cfi_startproc
 145              		@ args = 0, pretend = 0, frame = 0
 146              		@ frame_needed = 0, uses_anonymous_args = 0
 395:Middlewares/LVGL/GUI/lvgl/src/extra/widgets/keyboard/lv_keyboard.c ****     lv_keyboard_t * keyboard = (lv_keyboard_t *)obj;
 147              		.loc 1 395 1 is_stmt 0 view .LVU34
 148 0000 10B5     		push	{r4, lr}
 149              	.LCFI1:
 150              		.cfi_def_cfa_offset 8
 151              		.cfi_offset 4, -8
 152              		.cfi_offset 14, -4
 153 0002 0446     		mov	r4, r0
 396:Middlewares/LVGL/GUI/lvgl/src/extra/widgets/keyboard/lv_keyboard.c ****     lv_btnmatrix_set_map(obj, kb_map[keyboard->mode]);
 154              		.loc 1 396 5 is_stmt 1 view .LVU35
 155              	.LVL14:
 397:Middlewares/LVGL/GUI/lvgl/src/extra/widgets/keyboard/lv_keyboard.c ****     lv_keyboard_update_ctrl_map(obj);
 156              		.loc 1 397 5 view .LVU36
 397:Middlewares/LVGL/GUI/lvgl/src/extra/widgets/keyboard/lv_keyboard.c ****     lv_keyboard_update_ctrl_map(obj);
 157              		.loc 1 397 46 is_stmt 0 view .LVU37
 158 0004 90F84420 		ldrb	r2, [r0, #68]	@ zero_extendqisi2
 397:Middlewares/LVGL/GUI/lvgl/src/extra/widgets/keyboard/lv_keyboard.c ****     lv_keyboard_update_ctrl_map(obj);
 159              		.loc 1 397 5 view .LVU38
 160 0008 044B     		ldr	r3, .L11
 161 000a 53F82210 		ldr	r1, [r3, r2, lsl #2]
 162 000e FFF7FEFF 		bl	lv_btnmatrix_set_map
 163              	.LVL15:
 398:Middlewares/LVGL/GUI/lvgl/src/extra/widgets/keyboard/lv_keyboard.c **** }
 164              		.loc 1 398 5 is_stmt 1 view .LVU39
 165 0012 2046     		mov	r0, r4
 166 0014 FFF7FEFF 		bl	lv_keyboard_update_ctrl_map
 167              	.LVL16:
 399:Middlewares/LVGL/GUI/lvgl/src/extra/widgets/keyboard/lv_keyboard.c **** 
 168              		.loc 1 399 1 is_stmt 0 view .LVU40
 169 0018 10BD     		pop	{r4, pc}
 170              	.LVL17:
 171              	.L12:
 399:Middlewares/LVGL/GUI/lvgl/src/extra/widgets/keyboard/lv_keyboard.c **** 
ARM GAS  C:\Users\ADMINI~1\AppData\Local\Temp\cc9uxO7B.s 			page 12


 172              		.loc 1 399 1 view .LVU41
 173 001a 00BF     		.align	2
 174              	.L11:
 175 001c 00000000 		.word	.LANCHOR1
 176              		.cfi_endproc
 177              	.LFE166:
 179              		.section	.text.lv_keyboard_constructor,"ax",%progbits
 180              		.align	1
 181              		.syntax unified
 182              		.thumb
 183              		.thumb_func
 185              	lv_keyboard_constructor:
 186              	.LVL18:
 187              	.LFB165:
 374:Middlewares/LVGL/GUI/lvgl/src/extra/widgets/keyboard/lv_keyboard.c ****     LV_UNUSED(class_p);
 188              		.loc 1 374 1 is_stmt 1 view -0
 189              		.cfi_startproc
 190              		@ args = 0, pretend = 0, frame = 0
 191              		@ frame_needed = 0, uses_anonymous_args = 0
 374:Middlewares/LVGL/GUI/lvgl/src/extra/widgets/keyboard/lv_keyboard.c ****     LV_UNUSED(class_p);
 192              		.loc 1 374 1 is_stmt 0 view .LVU43
 193 0000 38B5     		push	{r3, r4, r5, lr}
 194              	.LCFI2:
 195              		.cfi_def_cfa_offset 16
 196              		.cfi_offset 3, -16
 197              		.cfi_offset 4, -12
 198              		.cfi_offset 5, -8
 199              		.cfi_offset 14, -4
 200 0002 0C46     		mov	r4, r1
 375:Middlewares/LVGL/GUI/lvgl/src/extra/widgets/keyboard/lv_keyboard.c ****     lv_obj_clear_flag(obj, LV_OBJ_FLAG_CLICK_FOCUSABLE);
 201              		.loc 1 375 5 is_stmt 1 view .LVU44
 376:Middlewares/LVGL/GUI/lvgl/src/extra/widgets/keyboard/lv_keyboard.c **** 
 202              		.loc 1 376 5 view .LVU45
 203 0004 0421     		movs	r1, #4
 204              	.LVL19:
 376:Middlewares/LVGL/GUI/lvgl/src/extra/widgets/keyboard/lv_keyboard.c **** 
 205              		.loc 1 376 5 is_stmt 0 view .LVU46
 206 0006 2046     		mov	r0, r4
 207              	.LVL20:
 376:Middlewares/LVGL/GUI/lvgl/src/extra/widgets/keyboard/lv_keyboard.c **** 
 208              		.loc 1 376 5 view .LVU47
 209 0008 FFF7FEFF 		bl	lv_obj_clear_flag
 210              	.LVL21:
 378:Middlewares/LVGL/GUI/lvgl/src/extra/widgets/keyboard/lv_keyboard.c ****     keyboard->ta         = NULL;
 211              		.loc 1 378 5 is_stmt 1 view .LVU48
 379:Middlewares/LVGL/GUI/lvgl/src/extra/widgets/keyboard/lv_keyboard.c ****     keyboard->mode       = LV_KEYBOARD_MODE_TEXT_LOWER;
 212              		.loc 1 379 5 view .LVU49
 379:Middlewares/LVGL/GUI/lvgl/src/extra/widgets/keyboard/lv_keyboard.c ****     keyboard->mode       = LV_KEYBOARD_MODE_TEXT_LOWER;
 213              		.loc 1 379 26 is_stmt 0 view .LVU50
 214 000c 0025     		movs	r5, #0
 215 000e 2564     		str	r5, [r4, #64]
 380:Middlewares/LVGL/GUI/lvgl/src/extra/widgets/keyboard/lv_keyboard.c ****     keyboard->popovers   = 0;
 216              		.loc 1 380 5 is_stmt 1 view .LVU51
 380:Middlewares/LVGL/GUI/lvgl/src/extra/widgets/keyboard/lv_keyboard.c ****     keyboard->popovers   = 0;
 217              		.loc 1 380 26 is_stmt 0 view .LVU52
 218 0010 84F84450 		strb	r5, [r4, #68]
 381:Middlewares/LVGL/GUI/lvgl/src/extra/widgets/keyboard/lv_keyboard.c **** 
ARM GAS  C:\Users\ADMINI~1\AppData\Local\Temp\cc9uxO7B.s 			page 13


 219              		.loc 1 381 5 is_stmt 1 view .LVU53
 381:Middlewares/LVGL/GUI/lvgl/src/extra/widgets/keyboard/lv_keyboard.c **** 
 220              		.loc 1 381 26 is_stmt 0 view .LVU54
 221 0014 94F84530 		ldrb	r3, [r4, #69]	@ zero_extendqisi2
 222 0018 65F30003 		bfi	r3, r5, #0, #1
 223 001c 84F84530 		strb	r3, [r4, #69]
 383:Middlewares/LVGL/GUI/lvgl/src/extra/widgets/keyboard/lv_keyboard.c ****     lv_obj_add_event_cb(obj, lv_keyboard_def_event_cb, LV_EVENT_VALUE_CHANGED, NULL);
 224              		.loc 1 383 5 is_stmt 1 view .LVU55
 225 0020 2B46     		mov	r3, r5
 226 0022 2A46     		mov	r2, r5
 227 0024 0521     		movs	r1, #5
 228 0026 2046     		mov	r0, r4
 229 0028 FFF7FEFF 		bl	lv_obj_align
 230              	.LVL22:
 384:Middlewares/LVGL/GUI/lvgl/src/extra/widgets/keyboard/lv_keyboard.c ****     lv_obj_set_style_base_dir(obj, LV_BASE_DIR_LTR, 0);
 231              		.loc 1 384 5 view .LVU56
 232 002c 2B46     		mov	r3, r5
 233 002e 1C22     		movs	r2, #28
 234 0030 0649     		ldr	r1, .L15
 235 0032 2046     		mov	r0, r4
 236 0034 FFF7FEFF 		bl	lv_obj_add_event_cb
 237              	.LVL23:
 385:Middlewares/LVGL/GUI/lvgl/src/extra/widgets/keyboard/lv_keyboard.c **** 
 238              		.loc 1 385 5 view .LVU57
 239 0038 2A46     		mov	r2, r5
 240 003a 2946     		mov	r1, r5
 241 003c 2046     		mov	r0, r4
 242 003e FFF7FEFF 		bl	lv_obj_set_style_base_dir
 243              	.LVL24:
 387:Middlewares/LVGL/GUI/lvgl/src/extra/widgets/keyboard/lv_keyboard.c **** }
 244              		.loc 1 387 5 view .LVU58
 245 0042 2046     		mov	r0, r4
 246 0044 FFF7FEFF 		bl	lv_keyboard_update_map
 247              	.LVL25:
 388:Middlewares/LVGL/GUI/lvgl/src/extra/widgets/keyboard/lv_keyboard.c **** 
 248              		.loc 1 388 1 is_stmt 0 view .LVU59
 249 0048 38BD     		pop	{r3, r4, r5, pc}
 250              	.LVL26:
 251              	.L16:
 388:Middlewares/LVGL/GUI/lvgl/src/extra/widgets/keyboard/lv_keyboard.c **** 
 252              		.loc 1 388 1 view .LVU60
 253 004a 00BF     		.align	2
 254              	.L15:
 255 004c 00000000 		.word	lv_keyboard_def_event_cb
 256              		.cfi_endproc
 257              	.LFE165:
 259              		.section	.rodata.lv_keyboard_def_event_cb.str1.4,"aMS",%progbits,1
 260              		.align	2
 261              	.LC0:
 262 0000 61626300 		.ascii	"abc\000"
 263              		.align	2
 264              	.LC1:
 265 0004 41424300 		.ascii	"ABC\000"
 266              		.align	2
 267              	.LC2:
 268 0008 312300   		.ascii	"1#\000"
 269 000b 00       		.align	2
ARM GAS  C:\Users\ADMINI~1\AppData\Local\Temp\cc9uxO7B.s 			page 14


 270              	.LC3:
 271 000c EF808D00 		.ascii	"\357\200\215\000"
 272              		.align	2
 273              	.LC4:
 274 0010 EF849C00 		.ascii	"\357\204\234\000"
 275              		.align	2
 276              	.LC5:
 277 0014 EF808C00 		.ascii	"\357\200\214\000"
 278              		.align	2
 279              	.LC6:
 280 0018 456E7465 		.ascii	"Enter\000"
 280      7200
 281 001e 0000     		.align	2
 282              	.LC7:
 283 0020 EFA2A200 		.ascii	"\357\242\242\000"
 284              		.align	2
 285              	.LC8:
 286 0024 EF819300 		.ascii	"\357\201\223\000"
 287              		.align	2
 288              	.LC9:
 289 0028 EF819400 		.ascii	"\357\201\224\000"
 290              		.align	2
 291              	.LC10:
 292 002c EF959A00 		.ascii	"\357\225\232\000"
 293              		.align	2
 294              	.LC11:
 295 0030 2B2F2D00 		.ascii	"+/-\000"
 296              		.section	.text.lv_keyboard_def_event_cb,"ax",%progbits
 297              		.align	1
 298              		.global	lv_keyboard_def_event_cb
 299              		.syntax unified
 300              		.thumb
 301              		.thumb_func
 303              	lv_keyboard_def_event_cb:
 304              	.LVL27:
 305              	.LFB164:
 274:Middlewares/LVGL/GUI/lvgl/src/extra/widgets/keyboard/lv_keyboard.c ****     lv_obj_t * obj = lv_event_get_target(e);
 306              		.loc 1 274 1 is_stmt 1 view -0
 307              		.cfi_startproc
 308              		@ args = 0, pretend = 0, frame = 0
 309              		@ frame_needed = 0, uses_anonymous_args = 0
 274:Middlewares/LVGL/GUI/lvgl/src/extra/widgets/keyboard/lv_keyboard.c ****     lv_obj_t * obj = lv_event_get_target(e);
 310              		.loc 1 274 1 is_stmt 0 view .LVU62
 311 0000 70B5     		push	{r4, r5, r6, lr}
 312              	.LCFI3:
 313              		.cfi_def_cfa_offset 16
 314              		.cfi_offset 4, -16
 315              		.cfi_offset 5, -12
 316              		.cfi_offset 6, -8
 317              		.cfi_offset 14, -4
 275:Middlewares/LVGL/GUI/lvgl/src/extra/widgets/keyboard/lv_keyboard.c **** 
 318              		.loc 1 275 5 is_stmt 1 view .LVU63
 275:Middlewares/LVGL/GUI/lvgl/src/extra/widgets/keyboard/lv_keyboard.c **** 
 319              		.loc 1 275 22 is_stmt 0 view .LVU64
 320 0002 FFF7FEFF 		bl	lv_event_get_target
 321              	.LVL28:
 275:Middlewares/LVGL/GUI/lvgl/src/extra/widgets/keyboard/lv_keyboard.c **** 
ARM GAS  C:\Users\ADMINI~1\AppData\Local\Temp\cc9uxO7B.s 			page 15


 322              		.loc 1 275 22 view .LVU65
 323 0006 0446     		mov	r4, r0
 324              	.LVL29:
 277:Middlewares/LVGL/GUI/lvgl/src/extra/widgets/keyboard/lv_keyboard.c ****     lv_keyboard_t * keyboard = (lv_keyboard_t *)obj;
 325              		.loc 1 277 5 is_stmt 1 view .LVU66
 277:Middlewares/LVGL/GUI/lvgl/src/extra/widgets/keyboard/lv_keyboard.c ****     lv_keyboard_t * keyboard = (lv_keyboard_t *)obj;
 326              		.loc 1 277 5 view .LVU67
 277:Middlewares/LVGL/GUI/lvgl/src/extra/widgets/keyboard/lv_keyboard.c ****     lv_keyboard_t * keyboard = (lv_keyboard_t *)obj;
 327              		.loc 1 277 5 view .LVU68
 278:Middlewares/LVGL/GUI/lvgl/src/extra/widgets/keyboard/lv_keyboard.c ****     uint16_t btn_id   = lv_btnmatrix_get_selected_btn(obj);
 328              		.loc 1 278 5 view .LVU69
 279:Middlewares/LVGL/GUI/lvgl/src/extra/widgets/keyboard/lv_keyboard.c ****     if(btn_id == LV_BTNMATRIX_BTN_NONE) return;
 329              		.loc 1 279 5 view .LVU70
 279:Middlewares/LVGL/GUI/lvgl/src/extra/widgets/keyboard/lv_keyboard.c ****     if(btn_id == LV_BTNMATRIX_BTN_NONE) return;
 330              		.loc 1 279 25 is_stmt 0 view .LVU71
 331 0008 FFF7FEFF 		bl	lv_btnmatrix_get_selected_btn
 332              	.LVL30:
 280:Middlewares/LVGL/GUI/lvgl/src/extra/widgets/keyboard/lv_keyboard.c **** 
 333              		.loc 1 280 5 is_stmt 1 view .LVU72
 280:Middlewares/LVGL/GUI/lvgl/src/extra/widgets/keyboard/lv_keyboard.c **** 
 334              		.loc 1 280 7 is_stmt 0 view .LVU73
 335 000c 4FF6FF73 		movw	r3, #65535
 336 0010 9842     		cmp	r0, r3
 337 0012 3ED0     		beq	.L17
 282:Middlewares/LVGL/GUI/lvgl/src/extra/widgets/keyboard/lv_keyboard.c ****     if(txt == NULL) return;
 338              		.loc 1 282 5 is_stmt 1 view .LVU74
 282:Middlewares/LVGL/GUI/lvgl/src/extra/widgets/keyboard/lv_keyboard.c ****     if(txt == NULL) return;
 339              		.loc 1 282 24 is_stmt 0 view .LVU75
 340 0014 2046     		mov	r0, r4
 341              	.LVL31:
 282:Middlewares/LVGL/GUI/lvgl/src/extra/widgets/keyboard/lv_keyboard.c ****     if(txt == NULL) return;
 342              		.loc 1 282 24 view .LVU76
 343 0016 FFF7FEFF 		bl	lv_btnmatrix_get_selected_btn
 344              	.LVL32:
 345 001a 0146     		mov	r1, r0
 346 001c 2046     		mov	r0, r4
 347 001e FFF7FEFF 		bl	lv_btnmatrix_get_btn_text
 348              	.LVL33:
 283:Middlewares/LVGL/GUI/lvgl/src/extra/widgets/keyboard/lv_keyboard.c **** 
 349              		.loc 1 283 5 is_stmt 1 view .LVU77
 283:Middlewares/LVGL/GUI/lvgl/src/extra/widgets/keyboard/lv_keyboard.c **** 
 350              		.loc 1 283 7 is_stmt 0 view .LVU78
 351 0022 0546     		mov	r5, r0
 352 0024 0028     		cmp	r0, #0
 353 0026 34D0     		beq	.L17
 285:Middlewares/LVGL/GUI/lvgl/src/extra/widgets/keyboard/lv_keyboard.c ****         keyboard->mode = LV_KEYBOARD_MODE_TEXT_LOWER;
 354              		.loc 1 285 5 is_stmt 1 view .LVU79
 285:Middlewares/LVGL/GUI/lvgl/src/extra/widgets/keyboard/lv_keyboard.c ****         keyboard->mode = LV_KEYBOARD_MODE_TEXT_LOWER;
 355              		.loc 1 285 8 is_stmt 0 view .LVU80
 356 0028 7049     		ldr	r1, .L45
 357 002a FFF7FEFF 		bl	strcmp
 358              	.LVL34:
 285:Middlewares/LVGL/GUI/lvgl/src/extra/widgets/keyboard/lv_keyboard.c ****         keyboard->mode = LV_KEYBOARD_MODE_TEXT_LOWER;
 359              		.loc 1 285 7 view .LVU81
 360 002e 18B3     		cbz	r0, .L36
 291:Middlewares/LVGL/GUI/lvgl/src/extra/widgets/keyboard/lv_keyboard.c ****         keyboard->mode = LV_KEYBOARD_MODE_TEXT_UPPER;
 361              		.loc 1 291 10 is_stmt 1 view .LVU82
ARM GAS  C:\Users\ADMINI~1\AppData\Local\Temp\cc9uxO7B.s 			page 16


 291:Middlewares/LVGL/GUI/lvgl/src/extra/widgets/keyboard/lv_keyboard.c ****         keyboard->mode = LV_KEYBOARD_MODE_TEXT_UPPER;
 362              		.loc 1 291 13 is_stmt 0 view .LVU83
 363 0030 6F49     		ldr	r1, .L45+4
 364 0032 2846     		mov	r0, r5
 365 0034 FFF7FEFF 		bl	strcmp
 366              	.LVL35:
 291:Middlewares/LVGL/GUI/lvgl/src/extra/widgets/keyboard/lv_keyboard.c ****         keyboard->mode = LV_KEYBOARD_MODE_TEXT_UPPER;
 367              		.loc 1 291 12 view .LVU84
 368 0038 60B3     		cbz	r0, .L37
 297:Middlewares/LVGL/GUI/lvgl/src/extra/widgets/keyboard/lv_keyboard.c ****         keyboard->mode = LV_KEYBOARD_MODE_SPECIAL;
 369              		.loc 1 297 10 is_stmt 1 view .LVU85
 297:Middlewares/LVGL/GUI/lvgl/src/extra/widgets/keyboard/lv_keyboard.c ****         keyboard->mode = LV_KEYBOARD_MODE_SPECIAL;
 370              		.loc 1 297 13 is_stmt 0 view .LVU86
 371 003a 6E49     		ldr	r1, .L45+8
 372 003c 2846     		mov	r0, r5
 373 003e FFF7FEFF 		bl	strcmp
 374              	.LVL36:
 297:Middlewares/LVGL/GUI/lvgl/src/extra/widgets/keyboard/lv_keyboard.c ****         keyboard->mode = LV_KEYBOARD_MODE_SPECIAL;
 375              		.loc 1 297 12 view .LVU87
 376 0042 0028     		cmp	r0, #0
 377 0044 34D0     		beq	.L38
 303:Middlewares/LVGL/GUI/lvgl/src/extra/widgets/keyboard/lv_keyboard.c ****         lv_res_t res = lv_event_send(obj, LV_EVENT_CANCEL, NULL);
 378              		.loc 1 303 10 is_stmt 1 view .LVU88
 303:Middlewares/LVGL/GUI/lvgl/src/extra/widgets/keyboard/lv_keyboard.c ****         lv_res_t res = lv_event_send(obj, LV_EVENT_CANCEL, NULL);
 379              		.loc 1 303 13 is_stmt 0 view .LVU89
 380 0046 6C49     		ldr	r1, .L45+12
 381 0048 2846     		mov	r0, r5
 382 004a FFF7FEFF 		bl	strcmp
 383              	.LVL37:
 303:Middlewares/LVGL/GUI/lvgl/src/extra/widgets/keyboard/lv_keyboard.c ****         lv_res_t res = lv_event_send(obj, LV_EVENT_CANCEL, NULL);
 384              		.loc 1 303 12 view .LVU90
 385 004e 28B1     		cbz	r0, .L22
 303:Middlewares/LVGL/GUI/lvgl/src/extra/widgets/keyboard/lv_keyboard.c ****         lv_res_t res = lv_event_send(obj, LV_EVENT_CANCEL, NULL);
 386              		.loc 1 303 50 discriminator 1 view .LVU91
 387 0050 6A49     		ldr	r1, .L45+16
 388 0052 2846     		mov	r0, r5
 389 0054 FFF7FEFF 		bl	strcmp
 390              	.LVL38:
 303:Middlewares/LVGL/GUI/lvgl/src/extra/widgets/keyboard/lv_keyboard.c ****         lv_res_t res = lv_event_send(obj, LV_EVENT_CANCEL, NULL);
 391              		.loc 1 303 47 discriminator 1 view .LVU92
 392 0058 0028     		cmp	r0, #0
 393 005a 37D1     		bne	.L23
 394              	.L22:
 395              	.LBB4:
 304:Middlewares/LVGL/GUI/lvgl/src/extra/widgets/keyboard/lv_keyboard.c ****         if(res != LV_RES_OK) return;
 396              		.loc 1 304 9 is_stmt 1 view .LVU93
 304:Middlewares/LVGL/GUI/lvgl/src/extra/widgets/keyboard/lv_keyboard.c ****         if(res != LV_RES_OK) return;
 397              		.loc 1 304 24 is_stmt 0 view .LVU94
 398 005c 0022     		movs	r2, #0
 399 005e 2021     		movs	r1, #32
 400 0060 2046     		mov	r0, r4
 401 0062 FFF7FEFF 		bl	lv_event_send
 402              	.LVL39:
 305:Middlewares/LVGL/GUI/lvgl/src/extra/widgets/keyboard/lv_keyboard.c **** 
 403              		.loc 1 305 9 is_stmt 1 view .LVU95
 305:Middlewares/LVGL/GUI/lvgl/src/extra/widgets/keyboard/lv_keyboard.c **** 
 404              		.loc 1 305 11 is_stmt 0 view .LVU96
ARM GAS  C:\Users\ADMINI~1\AppData\Local\Temp\cc9uxO7B.s 			page 17


 405 0066 0128     		cmp	r0, #1
 406 0068 13D1     		bne	.L17
 307:Middlewares/LVGL/GUI/lvgl/src/extra/widgets/keyboard/lv_keyboard.c ****             res = lv_event_send(keyboard->ta, LV_EVENT_CANCEL, NULL);
 407              		.loc 1 307 9 is_stmt 1 view .LVU97
 307:Middlewares/LVGL/GUI/lvgl/src/extra/widgets/keyboard/lv_keyboard.c ****             res = lv_event_send(keyboard->ta, LV_EVENT_CANCEL, NULL);
 408              		.loc 1 307 20 is_stmt 0 view .LVU98
 409 006a 206C     		ldr	r0, [r4, #64]
 410              	.LVL40:
 307:Middlewares/LVGL/GUI/lvgl/src/extra/widgets/keyboard/lv_keyboard.c ****             res = lv_event_send(keyboard->ta, LV_EVENT_CANCEL, NULL);
 411              		.loc 1 307 11 view .LVU99
 412 006c 88B1     		cbz	r0, .L17
 308:Middlewares/LVGL/GUI/lvgl/src/extra/widgets/keyboard/lv_keyboard.c ****             if(res != LV_RES_OK) return;
 413              		.loc 1 308 13 is_stmt 1 view .LVU100
 308:Middlewares/LVGL/GUI/lvgl/src/extra/widgets/keyboard/lv_keyboard.c ****             if(res != LV_RES_OK) return;
 414              		.loc 1 308 19 is_stmt 0 view .LVU101
 415 006e 0022     		movs	r2, #0
 416 0070 2021     		movs	r1, #32
 417 0072 FFF7FEFF 		bl	lv_event_send
 418              	.LVL41:
 309:Middlewares/LVGL/GUI/lvgl/src/extra/widgets/keyboard/lv_keyboard.c ****         }
 419              		.loc 1 309 13 is_stmt 1 view .LVU102
 420 0076 0CE0     		b	.L17
 421              	.LVL42:
 422              	.L36:
 309:Middlewares/LVGL/GUI/lvgl/src/extra/widgets/keyboard/lv_keyboard.c ****         }
 423              		.loc 1 309 13 is_stmt 0 view .LVU103
 424              	.LBE4:
 286:Middlewares/LVGL/GUI/lvgl/src/extra/widgets/keyboard/lv_keyboard.c ****         lv_btnmatrix_set_map(obj, kb_map[LV_KEYBOARD_MODE_TEXT_LOWER]);
 425              		.loc 1 286 9 is_stmt 1 view .LVU104
 286:Middlewares/LVGL/GUI/lvgl/src/extra/widgets/keyboard/lv_keyboard.c ****         lv_btnmatrix_set_map(obj, kb_map[LV_KEYBOARD_MODE_TEXT_LOWER]);
 426              		.loc 1 286 24 is_stmt 0 view .LVU105
 427 0078 0023     		movs	r3, #0
 428 007a 84F84430 		strb	r3, [r4, #68]
 287:Middlewares/LVGL/GUI/lvgl/src/extra/widgets/keyboard/lv_keyboard.c ****         lv_btnmatrix_set_ctrl_map(obj, kb_ctrl[LV_KEYBOARD_MODE_TEXT_LOWER]);
 429              		.loc 1 287 9 is_stmt 1 view .LVU106
 430 007e 604B     		ldr	r3, .L45+20
 431 0080 1968     		ldr	r1, [r3]
 432 0082 2046     		mov	r0, r4
 433 0084 FFF7FEFF 		bl	lv_btnmatrix_set_map
 434              	.LVL43:
 288:Middlewares/LVGL/GUI/lvgl/src/extra/widgets/keyboard/lv_keyboard.c ****         return;
 435              		.loc 1 288 9 view .LVU107
 436 0088 5E4B     		ldr	r3, .L45+24
 437 008a 1968     		ldr	r1, [r3]
 438 008c 2046     		mov	r0, r4
 439 008e FFF7FEFF 		bl	lv_btnmatrix_set_ctrl_map
 440              	.LVL44:
 289:Middlewares/LVGL/GUI/lvgl/src/extra/widgets/keyboard/lv_keyboard.c ****     }
 441              		.loc 1 289 9 view .LVU108
 442              	.L17:
 367:Middlewares/LVGL/GUI/lvgl/src/extra/widgets/keyboard/lv_keyboard.c **** 
 443              		.loc 1 367 1 is_stmt 0 view .LVU109
 444 0092 70BD     		pop	{r4, r5, r6, pc}
 445              	.LVL45:
 446              	.L37:
 292:Middlewares/LVGL/GUI/lvgl/src/extra/widgets/keyboard/lv_keyboard.c ****         lv_btnmatrix_set_map(obj, kb_map[LV_KEYBOARD_MODE_TEXT_UPPER]);
 447              		.loc 1 292 9 is_stmt 1 view .LVU110
ARM GAS  C:\Users\ADMINI~1\AppData\Local\Temp\cc9uxO7B.s 			page 18


 292:Middlewares/LVGL/GUI/lvgl/src/extra/widgets/keyboard/lv_keyboard.c ****         lv_btnmatrix_set_map(obj, kb_map[LV_KEYBOARD_MODE_TEXT_UPPER]);
 448              		.loc 1 292 24 is_stmt 0 view .LVU111
 449 0094 0123     		movs	r3, #1
 450 0096 84F84430 		strb	r3, [r4, #68]
 293:Middlewares/LVGL/GUI/lvgl/src/extra/widgets/keyboard/lv_keyboard.c ****         lv_btnmatrix_set_ctrl_map(obj, kb_ctrl[LV_KEYBOARD_MODE_TEXT_UPPER]);
 451              		.loc 1 293 9 is_stmt 1 view .LVU112
 452 009a 594B     		ldr	r3, .L45+20
 453 009c 5968     		ldr	r1, [r3, #4]
 454 009e 2046     		mov	r0, r4
 455 00a0 FFF7FEFF 		bl	lv_btnmatrix_set_map
 456              	.LVL46:
 294:Middlewares/LVGL/GUI/lvgl/src/extra/widgets/keyboard/lv_keyboard.c ****         return;
 457              		.loc 1 294 9 view .LVU113
 458 00a4 574B     		ldr	r3, .L45+24
 459 00a6 5968     		ldr	r1, [r3, #4]
 460 00a8 2046     		mov	r0, r4
 461 00aa FFF7FEFF 		bl	lv_btnmatrix_set_ctrl_map
 462              	.LVL47:
 295:Middlewares/LVGL/GUI/lvgl/src/extra/widgets/keyboard/lv_keyboard.c ****     }
 463              		.loc 1 295 9 view .LVU114
 464 00ae F0E7     		b	.L17
 465              	.L38:
 298:Middlewares/LVGL/GUI/lvgl/src/extra/widgets/keyboard/lv_keyboard.c ****         lv_btnmatrix_set_map(obj, kb_map[LV_KEYBOARD_MODE_SPECIAL]);
 466              		.loc 1 298 9 view .LVU115
 298:Middlewares/LVGL/GUI/lvgl/src/extra/widgets/keyboard/lv_keyboard.c ****         lv_btnmatrix_set_map(obj, kb_map[LV_KEYBOARD_MODE_SPECIAL]);
 467              		.loc 1 298 24 is_stmt 0 view .LVU116
 468 00b0 0223     		movs	r3, #2
 469 00b2 84F84430 		strb	r3, [r4, #68]
 299:Middlewares/LVGL/GUI/lvgl/src/extra/widgets/keyboard/lv_keyboard.c ****         lv_btnmatrix_set_ctrl_map(obj, kb_ctrl[LV_KEYBOARD_MODE_SPECIAL]);
 470              		.loc 1 299 9 is_stmt 1 view .LVU117
 471 00b6 524B     		ldr	r3, .L45+20
 472 00b8 9968     		ldr	r1, [r3, #8]
 473 00ba 2046     		mov	r0, r4
 474 00bc FFF7FEFF 		bl	lv_btnmatrix_set_map
 475              	.LVL48:
 300:Middlewares/LVGL/GUI/lvgl/src/extra/widgets/keyboard/lv_keyboard.c ****         return;
 476              		.loc 1 300 9 view .LVU118
 477 00c0 504B     		ldr	r3, .L45+24
 478 00c2 9968     		ldr	r1, [r3, #8]
 479 00c4 2046     		mov	r0, r4
 480 00c6 FFF7FEFF 		bl	lv_btnmatrix_set_ctrl_map
 481              	.LVL49:
 301:Middlewares/LVGL/GUI/lvgl/src/extra/widgets/keyboard/lv_keyboard.c ****     }
 482              		.loc 1 301 9 view .LVU119
 483 00ca E2E7     		b	.L17
 484              	.L23:
 313:Middlewares/LVGL/GUI/lvgl/src/extra/widgets/keyboard/lv_keyboard.c ****         lv_res_t res = lv_event_send(obj, LV_EVENT_READY, NULL);
 485              		.loc 1 313 10 view .LVU120
 313:Middlewares/LVGL/GUI/lvgl/src/extra/widgets/keyboard/lv_keyboard.c ****         lv_res_t res = lv_event_send(obj, LV_EVENT_READY, NULL);
 486              		.loc 1 313 13 is_stmt 0 view .LVU121
 487 00cc 4E49     		ldr	r1, .L45+28
 488 00ce 2846     		mov	r0, r5
 489 00d0 FFF7FEFF 		bl	strcmp
 490              	.LVL50:
 313:Middlewares/LVGL/GUI/lvgl/src/extra/widgets/keyboard/lv_keyboard.c ****         lv_res_t res = lv_event_send(obj, LV_EVENT_READY, NULL);
 491              		.loc 1 313 12 view .LVU122
 492 00d4 D8B1     		cbz	r0, .L39
ARM GAS  C:\Users\ADMINI~1\AppData\Local\Temp\cc9uxO7B.s 			page 19


 325:Middlewares/LVGL/GUI/lvgl/src/extra/widgets/keyboard/lv_keyboard.c **** 
 493              		.loc 1 325 5 is_stmt 1 view .LVU123
 325:Middlewares/LVGL/GUI/lvgl/src/extra/widgets/keyboard/lv_keyboard.c **** 
 494              		.loc 1 325 16 is_stmt 0 view .LVU124
 495 00d6 266C     		ldr	r6, [r4, #64]
 325:Middlewares/LVGL/GUI/lvgl/src/extra/widgets/keyboard/lv_keyboard.c **** 
 496              		.loc 1 325 7 view .LVU125
 497 00d8 002E     		cmp	r6, #0
 498 00da DAD0     		beq	.L17
 327:Middlewares/LVGL/GUI/lvgl/src/extra/widgets/keyboard/lv_keyboard.c ****         lv_textarea_add_char(keyboard->ta, '\n');
 499              		.loc 1 327 5 is_stmt 1 view .LVU126
 327:Middlewares/LVGL/GUI/lvgl/src/extra/widgets/keyboard/lv_keyboard.c ****         lv_textarea_add_char(keyboard->ta, '\n');
 500              		.loc 1 327 8 is_stmt 0 view .LVU127
 501 00dc 4B49     		ldr	r1, .L45+32
 502 00de 2846     		mov	r0, r5
 503 00e0 FFF7FEFF 		bl	strcmp
 504              	.LVL51:
 327:Middlewares/LVGL/GUI/lvgl/src/extra/widgets/keyboard/lv_keyboard.c ****         lv_textarea_add_char(keyboard->ta, '\n');
 505              		.loc 1 327 7 view .LVU128
 506 00e4 20B1     		cbz	r0, .L27
 327:Middlewares/LVGL/GUI/lvgl/src/extra/widgets/keyboard/lv_keyboard.c ****         lv_textarea_add_char(keyboard->ta, '\n');
 507              		.loc 1 327 37 discriminator 1 view .LVU129
 508 00e6 4A49     		ldr	r1, .L45+36
 509 00e8 2846     		mov	r0, r5
 510 00ea FFF7FEFF 		bl	strcmp
 511              	.LVL52:
 327:Middlewares/LVGL/GUI/lvgl/src/extra/widgets/keyboard/lv_keyboard.c ****         lv_textarea_add_char(keyboard->ta, '\n');
 512              		.loc 1 327 34 discriminator 1 view .LVU130
 513 00ee E8B9     		cbnz	r0, .L28
 514              	.L27:
 328:Middlewares/LVGL/GUI/lvgl/src/extra/widgets/keyboard/lv_keyboard.c ****         if(lv_textarea_get_one_line(keyboard->ta)) {
 515              		.loc 1 328 9 is_stmt 1 view .LVU131
 516 00f0 0A21     		movs	r1, #10
 517 00f2 3046     		mov	r0, r6
 518 00f4 FFF7FEFF 		bl	lv_textarea_add_char
 519              	.LVL53:
 329:Middlewares/LVGL/GUI/lvgl/src/extra/widgets/keyboard/lv_keyboard.c ****             lv_res_t res = lv_event_send(keyboard->ta, LV_EVENT_READY, NULL);
 520              		.loc 1 329 9 view .LVU132
 329:Middlewares/LVGL/GUI/lvgl/src/extra/widgets/keyboard/lv_keyboard.c ****             lv_res_t res = lv_event_send(keyboard->ta, LV_EVENT_READY, NULL);
 521              		.loc 1 329 12 is_stmt 0 view .LVU133
 522 00f8 206C     		ldr	r0, [r4, #64]
 523 00fa FFF7FEFF 		bl	lv_textarea_get_one_line
 524              	.LVL54:
 329:Middlewares/LVGL/GUI/lvgl/src/extra/widgets/keyboard/lv_keyboard.c ****             lv_res_t res = lv_event_send(keyboard->ta, LV_EVENT_READY, NULL);
 525              		.loc 1 329 11 view .LVU134
 526 00fe 0028     		cmp	r0, #0
 527 0100 C7D0     		beq	.L17
 528              	.LBB5:
 330:Middlewares/LVGL/GUI/lvgl/src/extra/widgets/keyboard/lv_keyboard.c ****             if(res != LV_RES_OK) return;
 529              		.loc 1 330 13 is_stmt 1 view .LVU135
 330:Middlewares/LVGL/GUI/lvgl/src/extra/widgets/keyboard/lv_keyboard.c ****             if(res != LV_RES_OK) return;
 530              		.loc 1 330 28 is_stmt 0 view .LVU136
 531 0102 0022     		movs	r2, #0
 532 0104 1F21     		movs	r1, #31
 533 0106 206C     		ldr	r0, [r4, #64]
 534 0108 FFF7FEFF 		bl	lv_event_send
 535              	.LVL55:
ARM GAS  C:\Users\ADMINI~1\AppData\Local\Temp\cc9uxO7B.s 			page 20


 331:Middlewares/LVGL/GUI/lvgl/src/extra/widgets/keyboard/lv_keyboard.c ****         }
 536              		.loc 1 331 13 is_stmt 1 view .LVU137
 537 010c C1E7     		b	.L17
 538              	.L39:
 331:Middlewares/LVGL/GUI/lvgl/src/extra/widgets/keyboard/lv_keyboard.c ****         }
 539              		.loc 1 331 13 is_stmt 0 view .LVU138
 540              	.LBE5:
 541              	.LBB6:
 314:Middlewares/LVGL/GUI/lvgl/src/extra/widgets/keyboard/lv_keyboard.c ****         if(res != LV_RES_OK) return;
 542              		.loc 1 314 9 is_stmt 1 view .LVU139
 314:Middlewares/LVGL/GUI/lvgl/src/extra/widgets/keyboard/lv_keyboard.c ****         if(res != LV_RES_OK) return;
 543              		.loc 1 314 24 is_stmt 0 view .LVU140
 544 010e 0022     		movs	r2, #0
 545 0110 1F21     		movs	r1, #31
 546 0112 2046     		mov	r0, r4
 547 0114 FFF7FEFF 		bl	lv_event_send
 548              	.LVL56:
 315:Middlewares/LVGL/GUI/lvgl/src/extra/widgets/keyboard/lv_keyboard.c **** 
 549              		.loc 1 315 9 is_stmt 1 view .LVU141
 315:Middlewares/LVGL/GUI/lvgl/src/extra/widgets/keyboard/lv_keyboard.c **** 
 550              		.loc 1 315 11 is_stmt 0 view .LVU142
 551 0118 0128     		cmp	r0, #1
 552 011a BAD1     		bne	.L17
 317:Middlewares/LVGL/GUI/lvgl/src/extra/widgets/keyboard/lv_keyboard.c ****             res = lv_event_send(keyboard->ta, LV_EVENT_READY, NULL);
 553              		.loc 1 317 9 is_stmt 1 view .LVU143
 317:Middlewares/LVGL/GUI/lvgl/src/extra/widgets/keyboard/lv_keyboard.c ****             res = lv_event_send(keyboard->ta, LV_EVENT_READY, NULL);
 554              		.loc 1 317 20 is_stmt 0 view .LVU144
 555 011c 206C     		ldr	r0, [r4, #64]
 556              	.LVL57:
 317:Middlewares/LVGL/GUI/lvgl/src/extra/widgets/keyboard/lv_keyboard.c ****             res = lv_event_send(keyboard->ta, LV_EVENT_READY, NULL);
 557              		.loc 1 317 11 view .LVU145
 558 011e 0028     		cmp	r0, #0
 559 0120 B7D0     		beq	.L17
 318:Middlewares/LVGL/GUI/lvgl/src/extra/widgets/keyboard/lv_keyboard.c ****             if(res != LV_RES_OK) return;
 560              		.loc 1 318 13 is_stmt 1 view .LVU146
 318:Middlewares/LVGL/GUI/lvgl/src/extra/widgets/keyboard/lv_keyboard.c ****             if(res != LV_RES_OK) return;
 561              		.loc 1 318 19 is_stmt 0 view .LVU147
 562 0122 0022     		movs	r2, #0
 563 0124 1F21     		movs	r1, #31
 564 0126 FFF7FEFF 		bl	lv_event_send
 565              	.LVL58:
 319:Middlewares/LVGL/GUI/lvgl/src/extra/widgets/keyboard/lv_keyboard.c ****         }
 566              		.loc 1 319 13 is_stmt 1 view .LVU148
 567 012a B2E7     		b	.L17
 568              	.LVL59:
 569              	.L28:
 319:Middlewares/LVGL/GUI/lvgl/src/extra/widgets/keyboard/lv_keyboard.c ****         }
 570              		.loc 1 319 13 is_stmt 0 view .LVU149
 571              	.LBE6:
 334:Middlewares/LVGL/GUI/lvgl/src/extra/widgets/keyboard/lv_keyboard.c ****         lv_textarea_cursor_left(keyboard->ta);
 572              		.loc 1 334 10 is_stmt 1 view .LVU150
 334:Middlewares/LVGL/GUI/lvgl/src/extra/widgets/keyboard/lv_keyboard.c ****         lv_textarea_cursor_left(keyboard->ta);
 573              		.loc 1 334 13 is_stmt 0 view .LVU151
 574 012c 3949     		ldr	r1, .L45+40
 575 012e 2846     		mov	r0, r5
 576 0130 FFF7FEFF 		bl	strcmp
 577              	.LVL60:
ARM GAS  C:\Users\ADMINI~1\AppData\Local\Temp\cc9uxO7B.s 			page 21


 334:Middlewares/LVGL/GUI/lvgl/src/extra/widgets/keyboard/lv_keyboard.c ****         lv_textarea_cursor_left(keyboard->ta);
 578              		.loc 1 334 12 view .LVU152
 579 0134 48B3     		cbz	r0, .L40
 337:Middlewares/LVGL/GUI/lvgl/src/extra/widgets/keyboard/lv_keyboard.c ****         lv_textarea_cursor_right(keyboard->ta);
 580              		.loc 1 337 10 is_stmt 1 view .LVU153
 337:Middlewares/LVGL/GUI/lvgl/src/extra/widgets/keyboard/lv_keyboard.c ****         lv_textarea_cursor_right(keyboard->ta);
 581              		.loc 1 337 13 is_stmt 0 view .LVU154
 582 0136 3849     		ldr	r1, .L45+44
 583 0138 2846     		mov	r0, r5
 584 013a FFF7FEFF 		bl	strcmp
 585              	.LVL61:
 337:Middlewares/LVGL/GUI/lvgl/src/extra/widgets/keyboard/lv_keyboard.c ****         lv_textarea_cursor_right(keyboard->ta);
 586              		.loc 1 337 12 view .LVU155
 587 013e 40B3     		cbz	r0, .L41
 340:Middlewares/LVGL/GUI/lvgl/src/extra/widgets/keyboard/lv_keyboard.c ****         lv_textarea_del_char(keyboard->ta);
 588              		.loc 1 340 10 is_stmt 1 view .LVU156
 340:Middlewares/LVGL/GUI/lvgl/src/extra/widgets/keyboard/lv_keyboard.c ****         lv_textarea_del_char(keyboard->ta);
 589              		.loc 1 340 13 is_stmt 0 view .LVU157
 590 0140 3649     		ldr	r1, .L45+48
 591 0142 2846     		mov	r0, r5
 592 0144 FFF7FEFF 		bl	strcmp
 593              	.LVL62:
 340:Middlewares/LVGL/GUI/lvgl/src/extra/widgets/keyboard/lv_keyboard.c ****         lv_textarea_del_char(keyboard->ta);
 594              		.loc 1 340 12 view .LVU158
 595 0148 38B3     		cbz	r0, .L42
 343:Middlewares/LVGL/GUI/lvgl/src/extra/widgets/keyboard/lv_keyboard.c ****         uint16_t cur        = lv_textarea_get_cursor_pos(keyboard->ta);
 596              		.loc 1 343 10 is_stmt 1 view .LVU159
 343:Middlewares/LVGL/GUI/lvgl/src/extra/widgets/keyboard/lv_keyboard.c ****         uint16_t cur        = lv_textarea_get_cursor_pos(keyboard->ta);
 597              		.loc 1 343 13 is_stmt 0 view .LVU160
 598 014a 3549     		ldr	r1, .L45+52
 599 014c 2846     		mov	r0, r5
 600 014e FFF7FEFF 		bl	strcmp
 601              	.LVL63:
 343:Middlewares/LVGL/GUI/lvgl/src/extra/widgets/keyboard/lv_keyboard.c ****         uint16_t cur        = lv_textarea_get_cursor_pos(keyboard->ta);
 602              		.loc 1 343 12 view .LVU161
 603 0152 0028     		cmp	r0, #0
 604 0154 45D1     		bne	.L32
 605              	.LBB7:
 344:Middlewares/LVGL/GUI/lvgl/src/extra/widgets/keyboard/lv_keyboard.c ****         const char * ta_txt = lv_textarea_get_text(keyboard->ta);
 606              		.loc 1 344 9 is_stmt 1 view .LVU162
 344:Middlewares/LVGL/GUI/lvgl/src/extra/widgets/keyboard/lv_keyboard.c ****         const char * ta_txt = lv_textarea_get_text(keyboard->ta);
 607              		.loc 1 344 31 is_stmt 0 view .LVU163
 608 0156 3046     		mov	r0, r6
 609 0158 FFF7FEFF 		bl	lv_textarea_get_cursor_pos
 610              	.LVL64:
 611 015c 0546     		mov	r5, r0
 612              	.LVL65:
 345:Middlewares/LVGL/GUI/lvgl/src/extra/widgets/keyboard/lv_keyboard.c ****         if(ta_txt[0] == '-') {
 613              		.loc 1 345 9 is_stmt 1 view .LVU164
 345:Middlewares/LVGL/GUI/lvgl/src/extra/widgets/keyboard/lv_keyboard.c ****         if(ta_txt[0] == '-') {
 614              		.loc 1 345 31 is_stmt 0 view .LVU165
 615 015e 206C     		ldr	r0, [r4, #64]
 616 0160 FFF7FEFF 		bl	lv_textarea_get_text
 617              	.LVL66:
 346:Middlewares/LVGL/GUI/lvgl/src/extra/widgets/keyboard/lv_keyboard.c ****             lv_textarea_set_cursor_pos(keyboard->ta, 1);
 618              		.loc 1 346 9 is_stmt 1 view .LVU166
 346:Middlewares/LVGL/GUI/lvgl/src/extra/widgets/keyboard/lv_keyboard.c ****             lv_textarea_set_cursor_pos(keyboard->ta, 1);
ARM GAS  C:\Users\ADMINI~1\AppData\Local\Temp\cc9uxO7B.s 			page 22


 619              		.loc 1 346 18 is_stmt 0 view .LVU167
 620 0164 0378     		ldrb	r3, [r0]	@ zero_extendqisi2
 346:Middlewares/LVGL/GUI/lvgl/src/extra/widgets/keyboard/lv_keyboard.c ****             lv_textarea_set_cursor_pos(keyboard->ta, 1);
 621              		.loc 1 346 11 view .LVU168
 622 0166 2D2B     		cmp	r3, #45
 623 0168 1BD0     		beq	.L43
 352:Middlewares/LVGL/GUI/lvgl/src/extra/widgets/keyboard/lv_keyboard.c ****             lv_textarea_set_cursor_pos(keyboard->ta, 1);
 624              		.loc 1 352 14 is_stmt 1 view .LVU169
 352:Middlewares/LVGL/GUI/lvgl/src/extra/widgets/keyboard/lv_keyboard.c ****             lv_textarea_set_cursor_pos(keyboard->ta, 1);
 625              		.loc 1 352 16 is_stmt 0 view .LVU170
 626 016a 2B2B     		cmp	r3, #43
 627 016c 29D0     		beq	.L44
 359:Middlewares/LVGL/GUI/lvgl/src/extra/widgets/keyboard/lv_keyboard.c ****             lv_textarea_add_char(keyboard->ta, '-');
 628              		.loc 1 359 13 is_stmt 1 view .LVU171
 629 016e 0021     		movs	r1, #0
 630 0170 206C     		ldr	r0, [r4, #64]
 631              	.LVL67:
 359:Middlewares/LVGL/GUI/lvgl/src/extra/widgets/keyboard/lv_keyboard.c ****             lv_textarea_add_char(keyboard->ta, '-');
 632              		.loc 1 359 13 is_stmt 0 view .LVU172
 633 0172 FFF7FEFF 		bl	lv_textarea_set_cursor_pos
 634              	.LVL68:
 360:Middlewares/LVGL/GUI/lvgl/src/extra/widgets/keyboard/lv_keyboard.c ****             lv_textarea_set_cursor_pos(keyboard->ta, cur + 1);
 635              		.loc 1 360 13 is_stmt 1 view .LVU173
 636 0176 2D21     		movs	r1, #45
 637 0178 206C     		ldr	r0, [r4, #64]
 638 017a FFF7FEFF 		bl	lv_textarea_add_char
 639              	.LVL69:
 361:Middlewares/LVGL/GUI/lvgl/src/extra/widgets/keyboard/lv_keyboard.c ****         }
 640              		.loc 1 361 13 view .LVU174
 641 017e A9B2     		uxth	r1, r5
 642 0180 0131     		adds	r1, r1, #1
 643 0182 206C     		ldr	r0, [r4, #64]
 644 0184 FFF7FEFF 		bl	lv_textarea_set_cursor_pos
 645              	.LVL70:
 646 0188 83E7     		b	.L17
 647              	.LVL71:
 648              	.L40:
 361:Middlewares/LVGL/GUI/lvgl/src/extra/widgets/keyboard/lv_keyboard.c ****         }
 649              		.loc 1 361 13 is_stmt 0 view .LVU175
 650              	.LBE7:
 335:Middlewares/LVGL/GUI/lvgl/src/extra/widgets/keyboard/lv_keyboard.c ****     }
 651              		.loc 1 335 9 is_stmt 1 view .LVU176
 652 018a 3046     		mov	r0, r6
 653 018c FFF7FEFF 		bl	lv_textarea_cursor_left
 654              	.LVL72:
 655 0190 7FE7     		b	.L17
 656              	.L41:
 338:Middlewares/LVGL/GUI/lvgl/src/extra/widgets/keyboard/lv_keyboard.c ****     }
 657              		.loc 1 338 9 view .LVU177
 658 0192 3046     		mov	r0, r6
 659 0194 FFF7FEFF 		bl	lv_textarea_cursor_right
 660              	.LVL73:
 661 0198 7BE7     		b	.L17
 662              	.L42:
 341:Middlewares/LVGL/GUI/lvgl/src/extra/widgets/keyboard/lv_keyboard.c ****     }
 663              		.loc 1 341 9 view .LVU178
 664 019a 3046     		mov	r0, r6
ARM GAS  C:\Users\ADMINI~1\AppData\Local\Temp\cc9uxO7B.s 			page 23


 665 019c FFF7FEFF 		bl	lv_textarea_del_char
 666              	.LVL74:
 667 01a0 77E7     		b	.L17
 668              	.LVL75:
 669              	.L43:
 670              	.LBB8:
 347:Middlewares/LVGL/GUI/lvgl/src/extra/widgets/keyboard/lv_keyboard.c ****             lv_textarea_del_char(keyboard->ta);
 671              		.loc 1 347 13 view .LVU179
 672 01a2 0121     		movs	r1, #1
 673 01a4 206C     		ldr	r0, [r4, #64]
 674              	.LVL76:
 347:Middlewares/LVGL/GUI/lvgl/src/extra/widgets/keyboard/lv_keyboard.c ****             lv_textarea_del_char(keyboard->ta);
 675              		.loc 1 347 13 is_stmt 0 view .LVU180
 676 01a6 FFF7FEFF 		bl	lv_textarea_set_cursor_pos
 677              	.LVL77:
 348:Middlewares/LVGL/GUI/lvgl/src/extra/widgets/keyboard/lv_keyboard.c ****             lv_textarea_add_char(keyboard->ta, '+');
 678              		.loc 1 348 13 is_stmt 1 view .LVU181
 679 01aa 206C     		ldr	r0, [r4, #64]
 680 01ac FFF7FEFF 		bl	lv_textarea_del_char
 681              	.LVL78:
 349:Middlewares/LVGL/GUI/lvgl/src/extra/widgets/keyboard/lv_keyboard.c ****             lv_textarea_set_cursor_pos(keyboard->ta, cur);
 682              		.loc 1 349 13 view .LVU182
 683 01b0 2B21     		movs	r1, #43
 684 01b2 206C     		ldr	r0, [r4, #64]
 685 01b4 FFF7FEFF 		bl	lv_textarea_add_char
 686              	.LVL79:
 350:Middlewares/LVGL/GUI/lvgl/src/extra/widgets/keyboard/lv_keyboard.c ****         }
 687              		.loc 1 350 13 view .LVU183
 688 01b8 A9B2     		uxth	r1, r5
 689 01ba 206C     		ldr	r0, [r4, #64]
 690 01bc FFF7FEFF 		bl	lv_textarea_set_cursor_pos
 691              	.LVL80:
 692 01c0 67E7     		b	.L17
 693              	.LVL81:
 694              	.L44:
 353:Middlewares/LVGL/GUI/lvgl/src/extra/widgets/keyboard/lv_keyboard.c ****             lv_textarea_del_char(keyboard->ta);
 695              		.loc 1 353 13 view .LVU184
 696 01c2 0121     		movs	r1, #1
 697 01c4 206C     		ldr	r0, [r4, #64]
 698              	.LVL82:
 353:Middlewares/LVGL/GUI/lvgl/src/extra/widgets/keyboard/lv_keyboard.c ****             lv_textarea_del_char(keyboard->ta);
 699              		.loc 1 353 13 is_stmt 0 view .LVU185
 700 01c6 FFF7FEFF 		bl	lv_textarea_set_cursor_pos
 701              	.LVL83:
 354:Middlewares/LVGL/GUI/lvgl/src/extra/widgets/keyboard/lv_keyboard.c ****             lv_textarea_add_char(keyboard->ta, '-');
 702              		.loc 1 354 13 is_stmt 1 view .LVU186
 703 01ca 206C     		ldr	r0, [r4, #64]
 704 01cc FFF7FEFF 		bl	lv_textarea_del_char
 705              	.LVL84:
 355:Middlewares/LVGL/GUI/lvgl/src/extra/widgets/keyboard/lv_keyboard.c ****             lv_textarea_set_cursor_pos(keyboard->ta, cur);
 706              		.loc 1 355 13 view .LVU187
 707 01d0 2D21     		movs	r1, #45
 708 01d2 206C     		ldr	r0, [r4, #64]
 709 01d4 FFF7FEFF 		bl	lv_textarea_add_char
 710              	.LVL85:
 356:Middlewares/LVGL/GUI/lvgl/src/extra/widgets/keyboard/lv_keyboard.c ****         }
 711              		.loc 1 356 13 view .LVU188
ARM GAS  C:\Users\ADMINI~1\AppData\Local\Temp\cc9uxO7B.s 			page 24


 712 01d8 A9B2     		uxth	r1, r5
 713 01da 206C     		ldr	r0, [r4, #64]
 714 01dc FFF7FEFF 		bl	lv_textarea_set_cursor_pos
 715              	.LVL86:
 716 01e0 57E7     		b	.L17
 717              	.LVL87:
 718              	.L32:
 356:Middlewares/LVGL/GUI/lvgl/src/extra/widgets/keyboard/lv_keyboard.c ****         }
 719              		.loc 1 356 13 is_stmt 0 view .LVU189
 720              	.LBE8:
 365:Middlewares/LVGL/GUI/lvgl/src/extra/widgets/keyboard/lv_keyboard.c ****     }
 721              		.loc 1 365 9 is_stmt 1 view .LVU190
 722 01e2 2946     		mov	r1, r5
 723 01e4 3046     		mov	r0, r6
 724 01e6 FFF7FEFF 		bl	lv_textarea_add_text
 725              	.LVL88:
 726 01ea 52E7     		b	.L17
 727              	.L46:
 728              		.align	2
 729              	.L45:
 730 01ec 00000000 		.word	.LC0
 731 01f0 04000000 		.word	.LC1
 732 01f4 08000000 		.word	.LC2
 733 01f8 0C000000 		.word	.LC3
 734 01fc 10000000 		.word	.LC4
 735 0200 00000000 		.word	.LANCHOR1
 736 0204 00000000 		.word	.LANCHOR0
 737 0208 14000000 		.word	.LC5
 738 020c 18000000 		.word	.LC6
 739 0210 20000000 		.word	.LC7
 740 0214 24000000 		.word	.LC8
 741 0218 28000000 		.word	.LC9
 742 021c 2C000000 		.word	.LC10
 743 0220 30000000 		.word	.LC11
 744              		.cfi_endproc
 745              	.LFE164:
 747              		.section	.text.lv_keyboard_create,"ax",%progbits
 748              		.align	1
 749              		.global	lv_keyboard_create
 750              		.syntax unified
 751              		.thumb
 752              		.thumb_func
 754              	lv_keyboard_create:
 755              	.LVL89:
 756              	.LFB156:
 138:Middlewares/LVGL/GUI/lvgl/src/extra/widgets/keyboard/lv_keyboard.c ****     LV_LOG_INFO("begin");
 757              		.loc 1 138 1 view -0
 758              		.cfi_startproc
 759              		@ args = 0, pretend = 0, frame = 0
 760              		@ frame_needed = 0, uses_anonymous_args = 0
 138:Middlewares/LVGL/GUI/lvgl/src/extra/widgets/keyboard/lv_keyboard.c ****     LV_LOG_INFO("begin");
 761              		.loc 1 138 1 is_stmt 0 view .LVU192
 762 0000 10B5     		push	{r4, lr}
 763              	.LCFI4:
 764              		.cfi_def_cfa_offset 8
 765              		.cfi_offset 4, -8
 766              		.cfi_offset 14, -4
ARM GAS  C:\Users\ADMINI~1\AppData\Local\Temp\cc9uxO7B.s 			page 25


 767 0002 0146     		mov	r1, r0
 139:Middlewares/LVGL/GUI/lvgl/src/extra/widgets/keyboard/lv_keyboard.c ****     lv_obj_t * obj = lv_obj_class_create_obj(&lv_keyboard_class, parent);
 768              		.loc 1 139 5 is_stmt 1 view .LVU193
 139:Middlewares/LVGL/GUI/lvgl/src/extra/widgets/keyboard/lv_keyboard.c ****     lv_obj_t * obj = lv_obj_class_create_obj(&lv_keyboard_class, parent);
 769              		.loc 1 139 5 view .LVU194
 139:Middlewares/LVGL/GUI/lvgl/src/extra/widgets/keyboard/lv_keyboard.c ****     lv_obj_t * obj = lv_obj_class_create_obj(&lv_keyboard_class, parent);
 770              		.loc 1 139 5 view .LVU195
 140:Middlewares/LVGL/GUI/lvgl/src/extra/widgets/keyboard/lv_keyboard.c ****     lv_obj_class_init_obj(obj);
 771              		.loc 1 140 5 view .LVU196
 140:Middlewares/LVGL/GUI/lvgl/src/extra/widgets/keyboard/lv_keyboard.c ****     lv_obj_class_init_obj(obj);
 772              		.loc 1 140 22 is_stmt 0 view .LVU197
 773 0004 0348     		ldr	r0, .L49
 774              	.LVL90:
 140:Middlewares/LVGL/GUI/lvgl/src/extra/widgets/keyboard/lv_keyboard.c ****     lv_obj_class_init_obj(obj);
 775              		.loc 1 140 22 view .LVU198
 776 0006 FFF7FEFF 		bl	lv_obj_class_create_obj
 777              	.LVL91:
 140:Middlewares/LVGL/GUI/lvgl/src/extra/widgets/keyboard/lv_keyboard.c ****     lv_obj_class_init_obj(obj);
 778              		.loc 1 140 22 view .LVU199
 779 000a 0446     		mov	r4, r0
 780              	.LVL92:
 141:Middlewares/LVGL/GUI/lvgl/src/extra/widgets/keyboard/lv_keyboard.c ****     return obj;
 781              		.loc 1 141 5 is_stmt 1 view .LVU200
 782 000c FFF7FEFF 		bl	lv_obj_class_init_obj
 783              	.LVL93:
 142:Middlewares/LVGL/GUI/lvgl/src/extra/widgets/keyboard/lv_keyboard.c **** }
 784              		.loc 1 142 5 view .LVU201
 143:Middlewares/LVGL/GUI/lvgl/src/extra/widgets/keyboard/lv_keyboard.c **** 
 785              		.loc 1 143 1 is_stmt 0 view .LVU202
 786 0010 2046     		mov	r0, r4
 787 0012 10BD     		pop	{r4, pc}
 788              	.LVL94:
 789              	.L50:
 143:Middlewares/LVGL/GUI/lvgl/src/extra/widgets/keyboard/lv_keyboard.c **** 
 790              		.loc 1 143 1 view .LVU203
 791              		.align	2
 792              	.L49:
 793 0014 00000000 		.word	.LANCHOR2
 794              		.cfi_endproc
 795              	.LFE156:
 797              		.section	.text.lv_keyboard_set_textarea,"ax",%progbits
 798              		.align	1
 799              		.global	lv_keyboard_set_textarea
 800              		.syntax unified
 801              		.thumb
 802              		.thumb_func
 804              	lv_keyboard_set_textarea:
 805              	.LVL95:
 806              	.LFB157:
 155:Middlewares/LVGL/GUI/lvgl/src/extra/widgets/keyboard/lv_keyboard.c ****     if(ta) {
 807              		.loc 1 155 1 is_stmt 1 view -0
 808              		.cfi_startproc
 809              		@ args = 0, pretend = 0, frame = 0
 810              		@ frame_needed = 0, uses_anonymous_args = 0
 155:Middlewares/LVGL/GUI/lvgl/src/extra/widgets/keyboard/lv_keyboard.c ****     if(ta) {
 811              		.loc 1 155 1 is_stmt 0 view .LVU205
 812 0000 38B5     		push	{r3, r4, r5, lr}
ARM GAS  C:\Users\ADMINI~1\AppData\Local\Temp\cc9uxO7B.s 			page 26


 813              	.LCFI5:
 814              		.cfi_def_cfa_offset 16
 815              		.cfi_offset 3, -16
 816              		.cfi_offset 4, -12
 817              		.cfi_offset 5, -8
 818              		.cfi_offset 14, -4
 819 0002 0446     		mov	r4, r0
 820 0004 0D46     		mov	r5, r1
 156:Middlewares/LVGL/GUI/lvgl/src/extra/widgets/keyboard/lv_keyboard.c ****         LV_ASSERT_OBJ(ta, &lv_textarea_class);
 821              		.loc 1 156 5 is_stmt 1 view .LVU206
 157:Middlewares/LVGL/GUI/lvgl/src/extra/widgets/keyboard/lv_keyboard.c ****     }
 822              		.loc 1 157 9 view .LVU207
 157:Middlewares/LVGL/GUI/lvgl/src/extra/widgets/keyboard/lv_keyboard.c ****     }
 823              		.loc 1 157 9 view .LVU208
 157:Middlewares/LVGL/GUI/lvgl/src/extra/widgets/keyboard/lv_keyboard.c ****     }
 824              		.loc 1 157 9 view .LVU209
 160:Middlewares/LVGL/GUI/lvgl/src/extra/widgets/keyboard/lv_keyboard.c ****     lv_keyboard_t * keyboard = (lv_keyboard_t *)obj;
 825              		.loc 1 160 5 view .LVU210
 160:Middlewares/LVGL/GUI/lvgl/src/extra/widgets/keyboard/lv_keyboard.c ****     lv_keyboard_t * keyboard = (lv_keyboard_t *)obj;
 826              		.loc 1 160 5 view .LVU211
 160:Middlewares/LVGL/GUI/lvgl/src/extra/widgets/keyboard/lv_keyboard.c ****     lv_keyboard_t * keyboard = (lv_keyboard_t *)obj;
 827              		.loc 1 160 5 view .LVU212
 161:Middlewares/LVGL/GUI/lvgl/src/extra/widgets/keyboard/lv_keyboard.c **** 
 828              		.loc 1 161 5 view .LVU213
 829              	.LVL96:
 164:Middlewares/LVGL/GUI/lvgl/src/extra/widgets/keyboard/lv_keyboard.c ****         lv_obj_clear_state(obj, LV_STATE_FOCUSED);
 830              		.loc 1 164 5 view .LVU214
 164:Middlewares/LVGL/GUI/lvgl/src/extra/widgets/keyboard/lv_keyboard.c ****         lv_obj_clear_state(obj, LV_STATE_FOCUSED);
 831              		.loc 1 164 16 is_stmt 0 view .LVU215
 832 0006 036C     		ldr	r3, [r0, #64]
 164:Middlewares/LVGL/GUI/lvgl/src/extra/widgets/keyboard/lv_keyboard.c ****         lv_obj_clear_state(obj, LV_STATE_FOCUSED);
 833              		.loc 1 164 7 view .LVU216
 834 0008 13B1     		cbz	r3, .L52
 165:Middlewares/LVGL/GUI/lvgl/src/extra/widgets/keyboard/lv_keyboard.c ****     }
 835              		.loc 1 165 9 is_stmt 1 view .LVU217
 836 000a 0221     		movs	r1, #2
 837              	.LVL97:
 165:Middlewares/LVGL/GUI/lvgl/src/extra/widgets/keyboard/lv_keyboard.c ****     }
 838              		.loc 1 165 9 is_stmt 0 view .LVU218
 839 000c FFF7FEFF 		bl	lv_obj_clear_state
 840              	.LVL98:
 841              	.L52:
 168:Middlewares/LVGL/GUI/lvgl/src/extra/widgets/keyboard/lv_keyboard.c **** 
 842              		.loc 1 168 5 is_stmt 1 view .LVU219
 168:Middlewares/LVGL/GUI/lvgl/src/extra/widgets/keyboard/lv_keyboard.c **** 
 843              		.loc 1 168 18 is_stmt 0 view .LVU220
 844 0010 2564     		str	r5, [r4, #64]
 171:Middlewares/LVGL/GUI/lvgl/src/extra/widgets/keyboard/lv_keyboard.c ****         lv_obj_add_flag(obj, LV_STATE_FOCUSED);
 845              		.loc 1 171 5 is_stmt 1 view .LVU221
 171:Middlewares/LVGL/GUI/lvgl/src/extra/widgets/keyboard/lv_keyboard.c ****         lv_obj_add_flag(obj, LV_STATE_FOCUSED);
 846              		.loc 1 171 7 is_stmt 0 view .LVU222
 847 0012 1DB1     		cbz	r5, .L51
 172:Middlewares/LVGL/GUI/lvgl/src/extra/widgets/keyboard/lv_keyboard.c ****     }
 848              		.loc 1 172 9 is_stmt 1 view .LVU223
 849 0014 0221     		movs	r1, #2
 850 0016 2046     		mov	r0, r4
 851 0018 FFF7FEFF 		bl	lv_obj_add_flag
ARM GAS  C:\Users\ADMINI~1\AppData\Local\Temp\cc9uxO7B.s 			page 27


 852              	.LVL99:
 853              	.L51:
 174:Middlewares/LVGL/GUI/lvgl/src/extra/widgets/keyboard/lv_keyboard.c **** 
 854              		.loc 1 174 1 is_stmt 0 view .LVU224
 855 001c 38BD     		pop	{r3, r4, r5, pc}
 174:Middlewares/LVGL/GUI/lvgl/src/extra/widgets/keyboard/lv_keyboard.c **** 
 856              		.loc 1 174 1 view .LVU225
 857              		.cfi_endproc
 858              	.LFE157:
 860              		.section	.text.lv_keyboard_set_mode,"ax",%progbits
 861              		.align	1
 862              		.global	lv_keyboard_set_mode
 863              		.syntax unified
 864              		.thumb
 865              		.thumb_func
 867              	lv_keyboard_set_mode:
 868              	.LVL100:
 869              	.LFB158:
 182:Middlewares/LVGL/GUI/lvgl/src/extra/widgets/keyboard/lv_keyboard.c ****     LV_ASSERT_OBJ(obj, MY_CLASS);
 870              		.loc 1 182 1 is_stmt 1 view -0
 871              		.cfi_startproc
 872              		@ args = 0, pretend = 0, frame = 0
 873              		@ frame_needed = 0, uses_anonymous_args = 0
 182:Middlewares/LVGL/GUI/lvgl/src/extra/widgets/keyboard/lv_keyboard.c ****     LV_ASSERT_OBJ(obj, MY_CLASS);
 874              		.loc 1 182 1 is_stmt 0 view .LVU227
 875 0000 08B5     		push	{r3, lr}
 876              	.LCFI6:
 877              		.cfi_def_cfa_offset 8
 878              		.cfi_offset 3, -8
 879              		.cfi_offset 14, -4
 183:Middlewares/LVGL/GUI/lvgl/src/extra/widgets/keyboard/lv_keyboard.c ****     lv_keyboard_t * keyboard = (lv_keyboard_t *)obj;
 880              		.loc 1 183 5 is_stmt 1 view .LVU228
 183:Middlewares/LVGL/GUI/lvgl/src/extra/widgets/keyboard/lv_keyboard.c ****     lv_keyboard_t * keyboard = (lv_keyboard_t *)obj;
 881              		.loc 1 183 5 view .LVU229
 183:Middlewares/LVGL/GUI/lvgl/src/extra/widgets/keyboard/lv_keyboard.c ****     lv_keyboard_t * keyboard = (lv_keyboard_t *)obj;
 882              		.loc 1 183 5 view .LVU230
 184:Middlewares/LVGL/GUI/lvgl/src/extra/widgets/keyboard/lv_keyboard.c ****     if(keyboard->mode == mode) return;
 883              		.loc 1 184 5 view .LVU231
 884              	.LVL101:
 185:Middlewares/LVGL/GUI/lvgl/src/extra/widgets/keyboard/lv_keyboard.c **** 
 885              		.loc 1 185 5 view .LVU232
 185:Middlewares/LVGL/GUI/lvgl/src/extra/widgets/keyboard/lv_keyboard.c **** 
 886              		.loc 1 185 16 is_stmt 0 view .LVU233
 887 0002 90F84430 		ldrb	r3, [r0, #68]	@ zero_extendqisi2
 185:Middlewares/LVGL/GUI/lvgl/src/extra/widgets/keyboard/lv_keyboard.c **** 
 888              		.loc 1 185 7 view .LVU234
 889 0006 8B42     		cmp	r3, r1
 890 0008 03D0     		beq	.L55
 187:Middlewares/LVGL/GUI/lvgl/src/extra/widgets/keyboard/lv_keyboard.c ****     lv_keyboard_update_map(obj);
 891              		.loc 1 187 5 is_stmt 1 view .LVU235
 187:Middlewares/LVGL/GUI/lvgl/src/extra/widgets/keyboard/lv_keyboard.c ****     lv_keyboard_update_map(obj);
 892              		.loc 1 187 20 is_stmt 0 view .LVU236
 893 000a 80F84410 		strb	r1, [r0, #68]
 188:Middlewares/LVGL/GUI/lvgl/src/extra/widgets/keyboard/lv_keyboard.c **** }
 894              		.loc 1 188 5 is_stmt 1 view .LVU237
 895 000e FFF7FEFF 		bl	lv_keyboard_update_map
 896              	.LVL102:
ARM GAS  C:\Users\ADMINI~1\AppData\Local\Temp\cc9uxO7B.s 			page 28


 897              	.L55:
 189:Middlewares/LVGL/GUI/lvgl/src/extra/widgets/keyboard/lv_keyboard.c **** 
 898              		.loc 1 189 1 is_stmt 0 view .LVU238
 899 0012 08BD     		pop	{r3, pc}
 900              		.cfi_endproc
 901              	.LFE158:
 903              		.section	.text.lv_keyboard_set_popovers,"ax",%progbits
 904              		.align	1
 905              		.global	lv_keyboard_set_popovers
 906              		.syntax unified
 907              		.thumb
 908              		.thumb_func
 910              	lv_keyboard_set_popovers:
 911              	.LVL103:
 912              	.LFB159:
 197:Middlewares/LVGL/GUI/lvgl/src/extra/widgets/keyboard/lv_keyboard.c ****     lv_keyboard_t * keyboard = (lv_keyboard_t *)obj;
 913              		.loc 1 197 1 is_stmt 1 view -0
 914              		.cfi_startproc
 915              		@ args = 0, pretend = 0, frame = 0
 916              		@ frame_needed = 0, uses_anonymous_args = 0
 197:Middlewares/LVGL/GUI/lvgl/src/extra/widgets/keyboard/lv_keyboard.c ****     lv_keyboard_t * keyboard = (lv_keyboard_t *)obj;
 917              		.loc 1 197 1 is_stmt 0 view .LVU240
 918 0000 08B5     		push	{r3, lr}
 919              	.LCFI7:
 920              		.cfi_def_cfa_offset 8
 921              		.cfi_offset 3, -8
 922              		.cfi_offset 14, -4
 198:Middlewares/LVGL/GUI/lvgl/src/extra/widgets/keyboard/lv_keyboard.c **** 
 923              		.loc 1 198 5 is_stmt 1 view .LVU241
 924              	.LVL104:
 200:Middlewares/LVGL/GUI/lvgl/src/extra/widgets/keyboard/lv_keyboard.c ****         return;
 925              		.loc 1 200 5 view .LVU242
 200:Middlewares/LVGL/GUI/lvgl/src/extra/widgets/keyboard/lv_keyboard.c ****         return;
 926              		.loc 1 200 16 is_stmt 0 view .LVU243
 927 0002 90F84530 		ldrb	r3, [r0, #69]	@ zero_extendqisi2
 928 0006 03F00103 		and	r3, r3, #1
 200:Middlewares/LVGL/GUI/lvgl/src/extra/widgets/keyboard/lv_keyboard.c ****         return;
 929              		.loc 1 200 7 view .LVU244
 930 000a 8B42     		cmp	r3, r1
 931 000c 07D0     		beq	.L58
 204:Middlewares/LVGL/GUI/lvgl/src/extra/widgets/keyboard/lv_keyboard.c ****     lv_keyboard_update_ctrl_map(obj);
 932              		.loc 1 204 5 is_stmt 1 view .LVU245
 204:Middlewares/LVGL/GUI/lvgl/src/extra/widgets/keyboard/lv_keyboard.c ****     lv_keyboard_update_ctrl_map(obj);
 933              		.loc 1 204 24 is_stmt 0 view .LVU246
 934 000e 90F84530 		ldrb	r3, [r0, #69]	@ zero_extendqisi2
 935 0012 61F30003 		bfi	r3, r1, #0, #1
 936 0016 80F84530 		strb	r3, [r0, #69]
 205:Middlewares/LVGL/GUI/lvgl/src/extra/widgets/keyboard/lv_keyboard.c **** }
 937              		.loc 1 205 5 is_stmt 1 view .LVU247
 938 001a FFF7FEFF 		bl	lv_keyboard_update_ctrl_map
 939              	.LVL105:
 940              	.L58:
 206:Middlewares/LVGL/GUI/lvgl/src/extra/widgets/keyboard/lv_keyboard.c **** 
 941              		.loc 1 206 1 is_stmt 0 view .LVU248
 942 001e 08BD     		pop	{r3, pc}
 943              		.cfi_endproc
 944              	.LFE159:
ARM GAS  C:\Users\ADMINI~1\AppData\Local\Temp\cc9uxO7B.s 			page 29


 946              		.section	.text.lv_keyboard_set_map,"ax",%progbits
 947              		.align	1
 948              		.global	lv_keyboard_set_map
 949              		.syntax unified
 950              		.thumb
 951              		.thumb_func
 953              	lv_keyboard_set_map:
 954              	.LVL106:
 955              	.LFB160:
 217:Middlewares/LVGL/GUI/lvgl/src/extra/widgets/keyboard/lv_keyboard.c ****     kb_map[mode] = map;
 956              		.loc 1 217 1 is_stmt 1 view -0
 957              		.cfi_startproc
 958              		@ args = 0, pretend = 0, frame = 0
 959              		@ frame_needed = 0, uses_anonymous_args = 0
 217:Middlewares/LVGL/GUI/lvgl/src/extra/widgets/keyboard/lv_keyboard.c ****     kb_map[mode] = map;
 960              		.loc 1 217 1 is_stmt 0 view .LVU250
 961 0000 10B5     		push	{r4, lr}
 962              	.LCFI8:
 963              		.cfi_def_cfa_offset 8
 964              		.cfi_offset 4, -8
 965              		.cfi_offset 14, -4
 218:Middlewares/LVGL/GUI/lvgl/src/extra/widgets/keyboard/lv_keyboard.c ****     kb_ctrl[mode] = ctrl_map;
 966              		.loc 1 218 5 is_stmt 1 view .LVU251
 218:Middlewares/LVGL/GUI/lvgl/src/extra/widgets/keyboard/lv_keyboard.c ****     kb_ctrl[mode] = ctrl_map;
 967              		.loc 1 218 18 is_stmt 0 view .LVU252
 968 0002 044C     		ldr	r4, .L63
 969 0004 44F82120 		str	r2, [r4, r1, lsl #2]
 219:Middlewares/LVGL/GUI/lvgl/src/extra/widgets/keyboard/lv_keyboard.c ****     lv_keyboard_update_map(obj);
 970              		.loc 1 219 5 is_stmt 1 view .LVU253
 219:Middlewares/LVGL/GUI/lvgl/src/extra/widgets/keyboard/lv_keyboard.c ****     lv_keyboard_update_map(obj);
 971              		.loc 1 219 19 is_stmt 0 view .LVU254
 972 0008 034A     		ldr	r2, .L63+4
 973              	.LVL107:
 219:Middlewares/LVGL/GUI/lvgl/src/extra/widgets/keyboard/lv_keyboard.c ****     lv_keyboard_update_map(obj);
 974              		.loc 1 219 19 view .LVU255
 975 000a 42F82130 		str	r3, [r2, r1, lsl #2]
 220:Middlewares/LVGL/GUI/lvgl/src/extra/widgets/keyboard/lv_keyboard.c **** }
 976              		.loc 1 220 5 is_stmt 1 view .LVU256
 977 000e FFF7FEFF 		bl	lv_keyboard_update_map
 978              	.LVL108:
 221:Middlewares/LVGL/GUI/lvgl/src/extra/widgets/keyboard/lv_keyboard.c **** 
 979              		.loc 1 221 1 is_stmt 0 view .LVU257
 980 0012 10BD     		pop	{r4, pc}
 981              	.L64:
 982              		.align	2
 983              	.L63:
 984 0014 00000000 		.word	.LANCHOR1
 985 0018 00000000 		.word	.LANCHOR0
 986              		.cfi_endproc
 987              	.LFE160:
 989              		.section	.text.lv_keyboard_get_textarea,"ax",%progbits
 990              		.align	1
 991              		.global	lv_keyboard_get_textarea
 992              		.syntax unified
 993              		.thumb
 994              		.thumb_func
 996              	lv_keyboard_get_textarea:
ARM GAS  C:\Users\ADMINI~1\AppData\Local\Temp\cc9uxO7B.s 			page 30


 997              	.LVL109:
 998              	.LFB161:
 233:Middlewares/LVGL/GUI/lvgl/src/extra/widgets/keyboard/lv_keyboard.c ****     LV_ASSERT_OBJ(obj, MY_CLASS);
 999              		.loc 1 233 1 is_stmt 1 view -0
 1000              		.cfi_startproc
 1001              		@ args = 0, pretend = 0, frame = 0
 1002              		@ frame_needed = 0, uses_anonymous_args = 0
 1003              		@ link register save eliminated.
 234:Middlewares/LVGL/GUI/lvgl/src/extra/widgets/keyboard/lv_keyboard.c ****     lv_keyboard_t * keyboard = (lv_keyboard_t *)obj;
 1004              		.loc 1 234 5 view .LVU259
 234:Middlewares/LVGL/GUI/lvgl/src/extra/widgets/keyboard/lv_keyboard.c ****     lv_keyboard_t * keyboard = (lv_keyboard_t *)obj;
 1005              		.loc 1 234 5 view .LVU260
 234:Middlewares/LVGL/GUI/lvgl/src/extra/widgets/keyboard/lv_keyboard.c ****     lv_keyboard_t * keyboard = (lv_keyboard_t *)obj;
 1006              		.loc 1 234 5 view .LVU261
 235:Middlewares/LVGL/GUI/lvgl/src/extra/widgets/keyboard/lv_keyboard.c ****     return keyboard->ta;
 1007              		.loc 1 235 5 view .LVU262
 236:Middlewares/LVGL/GUI/lvgl/src/extra/widgets/keyboard/lv_keyboard.c **** }
 1008              		.loc 1 236 5 view .LVU263
 237:Middlewares/LVGL/GUI/lvgl/src/extra/widgets/keyboard/lv_keyboard.c **** 
 1009              		.loc 1 237 1 is_stmt 0 view .LVU264
 1010 0000 006C     		ldr	r0, [r0, #64]
 1011              	.LVL110:
 237:Middlewares/LVGL/GUI/lvgl/src/extra/widgets/keyboard/lv_keyboard.c **** 
 1012              		.loc 1 237 1 view .LVU265
 1013 0002 7047     		bx	lr
 1014              		.cfi_endproc
 1015              	.LFE161:
 1017              		.section	.text.lv_keyboard_get_mode,"ax",%progbits
 1018              		.align	1
 1019              		.global	lv_keyboard_get_mode
 1020              		.syntax unified
 1021              		.thumb
 1022              		.thumb_func
 1024              	lv_keyboard_get_mode:
 1025              	.LVL111:
 1026              	.LFB162:
 245:Middlewares/LVGL/GUI/lvgl/src/extra/widgets/keyboard/lv_keyboard.c ****     LV_ASSERT_OBJ(obj, MY_CLASS);
 1027              		.loc 1 245 1 is_stmt 1 view -0
 1028              		.cfi_startproc
 1029              		@ args = 0, pretend = 0, frame = 0
 1030              		@ frame_needed = 0, uses_anonymous_args = 0
 1031              		@ link register save eliminated.
 246:Middlewares/LVGL/GUI/lvgl/src/extra/widgets/keyboard/lv_keyboard.c ****     lv_keyboard_t * keyboard = (lv_keyboard_t *)obj;
 1032              		.loc 1 246 5 view .LVU267
 246:Middlewares/LVGL/GUI/lvgl/src/extra/widgets/keyboard/lv_keyboard.c ****     lv_keyboard_t * keyboard = (lv_keyboard_t *)obj;
 1033              		.loc 1 246 5 view .LVU268
 246:Middlewares/LVGL/GUI/lvgl/src/extra/widgets/keyboard/lv_keyboard.c ****     lv_keyboard_t * keyboard = (lv_keyboard_t *)obj;
 1034              		.loc 1 246 5 view .LVU269
 247:Middlewares/LVGL/GUI/lvgl/src/extra/widgets/keyboard/lv_keyboard.c ****     return keyboard->mode;
 1035              		.loc 1 247 5 view .LVU270
 248:Middlewares/LVGL/GUI/lvgl/src/extra/widgets/keyboard/lv_keyboard.c **** }
 1036              		.loc 1 248 5 view .LVU271
 249:Middlewares/LVGL/GUI/lvgl/src/extra/widgets/keyboard/lv_keyboard.c **** 
 1037              		.loc 1 249 1 is_stmt 0 view .LVU272
 1038 0000 90F84400 		ldrb	r0, [r0, #68]	@ zero_extendqisi2
 1039              	.LVL112:
 249:Middlewares/LVGL/GUI/lvgl/src/extra/widgets/keyboard/lv_keyboard.c **** 
ARM GAS  C:\Users\ADMINI~1\AppData\Local\Temp\cc9uxO7B.s 			page 31


 1040              		.loc 1 249 1 view .LVU273
 1041 0004 7047     		bx	lr
 1042              		.cfi_endproc
 1043              	.LFE162:
 1045              		.section	.text.lv_btnmatrix_get_popovers,"ax",%progbits
 1046              		.align	1
 1047              		.global	lv_btnmatrix_get_popovers
 1048              		.syntax unified
 1049              		.thumb
 1050              		.thumb_func
 1052              	lv_btnmatrix_get_popovers:
 1053              	.LVL113:
 1054              	.LFB163:
 257:Middlewares/LVGL/GUI/lvgl/src/extra/widgets/keyboard/lv_keyboard.c ****     lv_keyboard_t * keyboard = (lv_keyboard_t *)obj;
 1055              		.loc 1 257 1 is_stmt 1 view -0
 1056              		.cfi_startproc
 1057              		@ args = 0, pretend = 0, frame = 0
 1058              		@ frame_needed = 0, uses_anonymous_args = 0
 1059              		@ link register save eliminated.
 258:Middlewares/LVGL/GUI/lvgl/src/extra/widgets/keyboard/lv_keyboard.c ****     return keyboard->popovers;
 1060              		.loc 1 258 5 view .LVU275
 259:Middlewares/LVGL/GUI/lvgl/src/extra/widgets/keyboard/lv_keyboard.c **** }
 1061              		.loc 1 259 5 view .LVU276
 259:Middlewares/LVGL/GUI/lvgl/src/extra/widgets/keyboard/lv_keyboard.c **** }
 1062              		.loc 1 259 20 is_stmt 0 view .LVU277
 1063 0000 90F84500 		ldrb	r0, [r0, #69]	@ zero_extendqisi2
 1064              	.LVL114:
 260:Middlewares/LVGL/GUI/lvgl/src/extra/widgets/keyboard/lv_keyboard.c **** 
 1065              		.loc 1 260 1 view .LVU278
 1066 0004 00F00100 		and	r0, r0, #1
 1067 0008 7047     		bx	lr
 1068              		.cfi_endproc
 1069              	.LFE163:
 1071              		.section	.rodata.str1.4,"aMS",%progbits,1
 1072              		.align	2
 1073              	.LC12:
 1074 0000 3100     		.ascii	"1\000"
 1075 0002 0000     		.align	2
 1076              	.LC13:
 1077 0004 3200     		.ascii	"2\000"
 1078 0006 0000     		.align	2
 1079              	.LC14:
 1080 0008 3300     		.ascii	"3\000"
 1081 000a 0000     		.align	2
 1082              	.LC15:
 1083 000c 0A00     		.ascii	"\012\000"
 1084 000e 0000     		.align	2
 1085              	.LC16:
 1086 0010 3400     		.ascii	"4\000"
 1087 0012 0000     		.align	2
 1088              	.LC17:
 1089 0014 3500     		.ascii	"5\000"
 1090 0016 0000     		.align	2
 1091              	.LC18:
 1092 0018 3600     		.ascii	"6\000"
 1093 001a 0000     		.align	2
 1094              	.LC19:
ARM GAS  C:\Users\ADMINI~1\AppData\Local\Temp\cc9uxO7B.s 			page 32


 1095 001c 3700     		.ascii	"7\000"
 1096 001e 0000     		.align	2
 1097              	.LC20:
 1098 0020 3800     		.ascii	"8\000"
 1099 0022 0000     		.align	2
 1100              	.LC21:
 1101 0024 3900     		.ascii	"9\000"
 1102 0026 0000     		.align	2
 1103              	.LC22:
 1104 0028 3000     		.ascii	"0\000"
 1105 002a 0000     		.align	2
 1106              	.LC23:
 1107 002c 2E00     		.ascii	".\000"
 1108 002e 0000     		.align	2
 1109              	.LC24:
 1110 0030 00       		.ascii	"\000"
 1111 0031 000000   		.align	2
 1112              	.LC25:
 1113 0034 2B00     		.ascii	"+\000"
 1114 0036 0000     		.align	2
 1115              	.LC26:
 1116 0038 2D00     		.ascii	"-\000"
 1117 003a 0000     		.align	2
 1118              	.LC27:
 1119 003c 2F00     		.ascii	"/\000"
 1120 003e 0000     		.align	2
 1121              	.LC28:
 1122 0040 2A00     		.ascii	"*\000"
 1123 0042 0000     		.align	2
 1124              	.LC29:
 1125 0044 3D00     		.ascii	"=\000"
 1126 0046 0000     		.align	2
 1127              	.LC30:
 1128 0048 2500     		.ascii	"%\000"
 1129 004a 0000     		.align	2
 1130              	.LC31:
 1131 004c 2100     		.ascii	"!\000"
 1132 004e 0000     		.align	2
 1133              	.LC32:
 1134 0050 3F00     		.ascii	"?\000"
 1135 0052 0000     		.align	2
 1136              	.LC33:
 1137 0054 2300     		.ascii	"#\000"
 1138 0056 0000     		.align	2
 1139              	.LC34:
 1140 0058 3C00     		.ascii	"<\000"
 1141 005a 0000     		.align	2
 1142              	.LC35:
 1143 005c 3E00     		.ascii	">\000"
 1144 005e 0000     		.align	2
 1145              	.LC36:
 1146 0060 5C00     		.ascii	"\\\000"
 1147 0062 0000     		.align	2
 1148              	.LC37:
 1149 0064 4000     		.ascii	"@\000"
 1150 0066 0000     		.align	2
 1151              	.LC38:
ARM GAS  C:\Users\ADMINI~1\AppData\Local\Temp\cc9uxO7B.s 			page 33


 1152 0068 2400     		.ascii	"$\000"
 1153 006a 0000     		.align	2
 1154              	.LC39:
 1155 006c 2800     		.ascii	"(\000"
 1156 006e 0000     		.align	2
 1157              	.LC40:
 1158 0070 2900     		.ascii	")\000"
 1159 0072 0000     		.align	2
 1160              	.LC41:
 1161 0074 7B00     		.ascii	"{\000"
 1162 0076 0000     		.align	2
 1163              	.LC42:
 1164 0078 7D00     		.ascii	"}\000"
 1165 007a 0000     		.align	2
 1166              	.LC43:
 1167 007c 5B00     		.ascii	"[\000"
 1168 007e 0000     		.align	2
 1169              	.LC44:
 1170 0080 5D00     		.ascii	"]\000"
 1171 0082 0000     		.align	2
 1172              	.LC45:
 1173 0084 3B00     		.ascii	";\000"
 1174 0086 0000     		.align	2
 1175              	.LC46:
 1176 0088 2200     		.ascii	"\"\000"
 1177 008a 0000     		.align	2
 1178              	.LC47:
 1179 008c 2700     		.ascii	"'\000"
 1180 008e 0000     		.align	2
 1181              	.LC48:
 1182 0090 2000     		.ascii	" \000"
 1183 0092 0000     		.align	2
 1184              	.LC49:
 1185 0094 5100     		.ascii	"Q\000"
 1186 0096 0000     		.align	2
 1187              	.LC50:
 1188 0098 5700     		.ascii	"W\000"
 1189 009a 0000     		.align	2
 1190              	.LC51:
 1191 009c 4500     		.ascii	"E\000"
 1192 009e 0000     		.align	2
 1193              	.LC52:
 1194 00a0 5200     		.ascii	"R\000"
 1195 00a2 0000     		.align	2
 1196              	.LC53:
 1197 00a4 5400     		.ascii	"T\000"
 1198 00a6 0000     		.align	2
 1199              	.LC54:
 1200 00a8 5900     		.ascii	"Y\000"
 1201 00aa 0000     		.align	2
 1202              	.LC55:
 1203 00ac 5500     		.ascii	"U\000"
 1204 00ae 0000     		.align	2
 1205              	.LC56:
 1206 00b0 4900     		.ascii	"I\000"
 1207 00b2 0000     		.align	2
 1208              	.LC57:
ARM GAS  C:\Users\ADMINI~1\AppData\Local\Temp\cc9uxO7B.s 			page 34


 1209 00b4 4F00     		.ascii	"O\000"
 1210 00b6 0000     		.align	2
 1211              	.LC58:
 1212 00b8 5000     		.ascii	"P\000"
 1213 00ba 0000     		.align	2
 1214              	.LC59:
 1215 00bc 4100     		.ascii	"A\000"
 1216 00be 0000     		.align	2
 1217              	.LC60:
 1218 00c0 5300     		.ascii	"S\000"
 1219 00c2 0000     		.align	2
 1220              	.LC61:
 1221 00c4 4400     		.ascii	"D\000"
 1222 00c6 0000     		.align	2
 1223              	.LC62:
 1224 00c8 4600     		.ascii	"F\000"
 1225 00ca 0000     		.align	2
 1226              	.LC63:
 1227 00cc 4700     		.ascii	"G\000"
 1228 00ce 0000     		.align	2
 1229              	.LC64:
 1230 00d0 4800     		.ascii	"H\000"
 1231 00d2 0000     		.align	2
 1232              	.LC65:
 1233 00d4 4A00     		.ascii	"J\000"
 1234 00d6 0000     		.align	2
 1235              	.LC66:
 1236 00d8 4B00     		.ascii	"K\000"
 1237 00da 0000     		.align	2
 1238              	.LC67:
 1239 00dc 4C00     		.ascii	"L\000"
 1240 00de 0000     		.align	2
 1241              	.LC68:
 1242 00e0 5F00     		.ascii	"_\000"
 1243 00e2 0000     		.align	2
 1244              	.LC69:
 1245 00e4 5A00     		.ascii	"Z\000"
 1246 00e6 0000     		.align	2
 1247              	.LC70:
 1248 00e8 5800     		.ascii	"X\000"
 1249 00ea 0000     		.align	2
 1250              	.LC71:
 1251 00ec 4300     		.ascii	"C\000"
 1252 00ee 0000     		.align	2
 1253              	.LC72:
 1254 00f0 5600     		.ascii	"V\000"
 1255 00f2 0000     		.align	2
 1256              	.LC73:
 1257 00f4 4200     		.ascii	"B\000"
 1258 00f6 0000     		.align	2
 1259              	.LC74:
 1260 00f8 4E00     		.ascii	"N\000"
 1261 00fa 0000     		.align	2
 1262              	.LC75:
 1263 00fc 4D00     		.ascii	"M\000"
 1264 00fe 0000     		.align	2
 1265              	.LC76:
ARM GAS  C:\Users\ADMINI~1\AppData\Local\Temp\cc9uxO7B.s 			page 35


 1266 0100 2C00     		.ascii	",\000"
 1267 0102 0000     		.align	2
 1268              	.LC77:
 1269 0104 3A00     		.ascii	":\000"
 1270 0106 0000     		.align	2
 1271              	.LC78:
 1272 0108 7100     		.ascii	"q\000"
 1273 010a 0000     		.align	2
 1274              	.LC79:
 1275 010c 7700     		.ascii	"w\000"
 1276 010e 0000     		.align	2
 1277              	.LC80:
 1278 0110 6500     		.ascii	"e\000"
 1279 0112 0000     		.align	2
 1280              	.LC81:
 1281 0114 7200     		.ascii	"r\000"
 1282 0116 0000     		.align	2
 1283              	.LC82:
 1284 0118 7400     		.ascii	"t\000"
 1285 011a 0000     		.align	2
 1286              	.LC83:
 1287 011c 7900     		.ascii	"y\000"
 1288 011e 0000     		.align	2
 1289              	.LC84:
 1290 0120 7500     		.ascii	"u\000"
 1291 0122 0000     		.align	2
 1292              	.LC85:
 1293 0124 6900     		.ascii	"i\000"
 1294 0126 0000     		.align	2
 1295              	.LC86:
 1296 0128 6F00     		.ascii	"o\000"
 1297 012a 0000     		.align	2
 1298              	.LC87:
 1299 012c 7000     		.ascii	"p\000"
 1300 012e 0000     		.align	2
 1301              	.LC88:
 1302 0130 6100     		.ascii	"a\000"
 1303 0132 0000     		.align	2
 1304              	.LC89:
 1305 0134 7300     		.ascii	"s\000"
 1306 0136 0000     		.align	2
 1307              	.LC90:
 1308 0138 6400     		.ascii	"d\000"
 1309 013a 0000     		.align	2
 1310              	.LC91:
 1311 013c 6600     		.ascii	"f\000"
 1312 013e 0000     		.align	2
 1313              	.LC92:
 1314 0140 6700     		.ascii	"g\000"
 1315 0142 0000     		.align	2
 1316              	.LC93:
 1317 0144 6800     		.ascii	"h\000"
 1318 0146 0000     		.align	2
 1319              	.LC94:
 1320 0148 6A00     		.ascii	"j\000"
 1321 014a 0000     		.align	2
 1322              	.LC95:
ARM GAS  C:\Users\ADMINI~1\AppData\Local\Temp\cc9uxO7B.s 			page 36


 1323 014c 6B00     		.ascii	"k\000"
 1324 014e 0000     		.align	2
 1325              	.LC96:
 1326 0150 6C00     		.ascii	"l\000"
 1327 0152 0000     		.align	2
 1328              	.LC97:
 1329 0154 7A00     		.ascii	"z\000"
 1330 0156 0000     		.align	2
 1331              	.LC98:
 1332 0158 7800     		.ascii	"x\000"
 1333 015a 0000     		.align	2
 1334              	.LC99:
 1335 015c 6300     		.ascii	"c\000"
 1336 015e 0000     		.align	2
 1337              	.LC100:
 1338 0160 7600     		.ascii	"v\000"
 1339 0162 0000     		.align	2
 1340              	.LC101:
 1341 0164 6200     		.ascii	"b\000"
 1342 0166 0000     		.align	2
 1343              	.LC102:
 1344 0168 6E00     		.ascii	"n\000"
 1345 016a 0000     		.align	2
 1346              	.LC103:
 1347 016c 6D00     		.ascii	"m\000"
 1348              		.global	lv_keyboard_class
 1349              		.section	.data.kb_ctrl,"aw"
 1350              		.align	2
 1351              		.set	.LANCHOR0,. + 0
 1354              	kb_ctrl:
 1355 0000 00000000 		.word	default_kb_ctrl_lc_map
 1356 0004 00000000 		.word	default_kb_ctrl_uc_map
 1357 0008 00000000 		.word	default_kb_ctrl_spec_map
 1358 000c 00000000 		.word	default_kb_ctrl_num_map
 1359 0010 00000000 		.word	default_kb_ctrl_lc_map
 1360 0014 00000000 		.word	default_kb_ctrl_lc_map
 1361 0018 00000000 		.word	default_kb_ctrl_lc_map
 1362 001c 00000000 		.word	default_kb_ctrl_lc_map
 1363 0020 00000000 		.word	0
 1364              		.section	.data.kb_map,"aw"
 1365              		.align	2
 1366              		.set	.LANCHOR1,. + 0
 1369              	kb_map:
 1370 0000 00000000 		.word	default_kb_map_lc
 1371 0004 00000000 		.word	default_kb_map_uc
 1372 0008 00000000 		.word	default_kb_map_spec
 1373 000c 00000000 		.word	default_kb_map_num
 1374 0010 00000000 		.word	default_kb_map_lc
 1375 0014 00000000 		.word	default_kb_map_lc
 1376 0018 00000000 		.word	default_kb_map_lc
 1377 001c 00000000 		.word	default_kb_map_lc
 1378 0020 00000000 		.word	0
 1379              		.section	.rodata.default_kb_ctrl_lc_map,"a"
 1380              		.align	2
 1383              	default_kb_ctrl_lc_map:
 1384 0000 9501     		.short	405
 1385 0002 0402     		.short	516
ARM GAS  C:\Users\ADMINI~1\AppData\Local\Temp\cc9uxO7B.s 			page 37


 1386 0004 0402     		.short	516
 1387 0006 0402     		.short	516
 1388 0008 0402     		.short	516
 1389 000a 0402     		.short	516
 1390 000c 0402     		.short	516
 1391 000e 0402     		.short	516
 1392 0010 0402     		.short	516
 1393 0012 0402     		.short	516
 1394 0014 0402     		.short	516
 1395 0016 8700     		.short	135
 1396 0018 9601     		.short	406
 1397 001a 0302     		.short	515
 1398 001c 0302     		.short	515
 1399 001e 0302     		.short	515
 1400 0020 0302     		.short	515
 1401 0022 0302     		.short	515
 1402 0024 0302     		.short	515
 1403 0026 0302     		.short	515
 1404 0028 0302     		.short	515
 1405 002a 0302     		.short	515
 1406 002c 8700     		.short	135
 1407 002e 8102     		.short	641
 1408 0030 8102     		.short	641
 1409 0032 0102     		.short	513
 1410 0034 0102     		.short	513
 1411 0036 0102     		.short	513
 1412 0038 0102     		.short	513
 1413 003a 0102     		.short	513
 1414 003c 0102     		.short	513
 1415 003e 0102     		.short	513
 1416 0040 8102     		.short	641
 1417 0042 8102     		.short	641
 1418 0044 8102     		.short	641
 1419 0046 9201     		.short	402
 1420 0048 8200     		.short	130
 1421 004a 0600     		.short	6
 1422 004c 8200     		.short	130
 1423 004e 9201     		.short	402
 1424              		.section	.rodata.default_kb_ctrl_num_map,"a"
 1425              		.align	2
 1428              	default_kb_ctrl_num_map:
 1429 0000 0100     		.short	1
 1430 0002 0100     		.short	1
 1431 0004 0100     		.short	1
 1432 0006 9201     		.short	402
 1433 0008 0100     		.short	1
 1434 000a 0100     		.short	1
 1435 000c 0100     		.short	1
 1436 000e 9201     		.short	402
 1437 0010 0100     		.short	1
 1438 0012 0100     		.short	1
 1439 0014 0100     		.short	1
 1440 0016 0200     		.short	2
 1441 0018 0100     		.short	1
 1442 001a 0100     		.short	1
 1443 001c 0100     		.short	1
 1444 001e 0100     		.short	1
ARM GAS  C:\Users\ADMINI~1\AppData\Local\Temp\cc9uxO7B.s 			page 38


 1445 0020 0100     		.short	1
 1446              		.section	.rodata.default_kb_ctrl_spec_map,"a"
 1447              		.align	2
 1450              	default_kb_ctrl_spec_map:
 1451 0000 0102     		.short	513
 1452 0002 0102     		.short	513
 1453 0004 0102     		.short	513
 1454 0006 0102     		.short	513
 1455 0008 0102     		.short	513
 1456 000a 0102     		.short	513
 1457 000c 0102     		.short	513
 1458 000e 0102     		.short	513
 1459 0010 0102     		.short	513
 1460 0012 0102     		.short	513
 1461 0014 8200     		.short	130
 1462 0016 9201     		.short	402
 1463 0018 0102     		.short	513
 1464 001a 0102     		.short	513
 1465 001c 0102     		.short	513
 1466 001e 0102     		.short	513
 1467 0020 0102     		.short	513
 1468 0022 0102     		.short	513
 1469 0024 0102     		.short	513
 1470 0026 0102     		.short	513
 1471 0028 0102     		.short	513
 1472 002a 0102     		.short	513
 1473 002c 0102     		.short	513
 1474 002e 0102     		.short	513
 1475 0030 0102     		.short	513
 1476 0032 0102     		.short	513
 1477 0034 0102     		.short	513
 1478 0036 0102     		.short	513
 1479 0038 0102     		.short	513
 1480 003a 0102     		.short	513
 1481 003c 0102     		.short	513
 1482 003e 0102     		.short	513
 1483 0040 0102     		.short	513
 1484 0042 0102     		.short	513
 1485 0044 0102     		.short	513
 1486 0046 9201     		.short	402
 1487 0048 8200     		.short	130
 1488 004a 0600     		.short	6
 1489 004c 8200     		.short	130
 1490 004e 9201     		.short	402
 1491              		.section	.rodata.default_kb_ctrl_uc_map,"a"
 1492              		.align	2
 1495              	default_kb_ctrl_uc_map:
 1496 0000 9501     		.short	405
 1497 0002 0402     		.short	516
 1498 0004 0402     		.short	516
 1499 0006 0402     		.short	516
 1500 0008 0402     		.short	516
 1501 000a 0402     		.short	516
 1502 000c 0402     		.short	516
 1503 000e 0402     		.short	516
 1504 0010 0402     		.short	516
 1505 0012 0402     		.short	516
ARM GAS  C:\Users\ADMINI~1\AppData\Local\Temp\cc9uxO7B.s 			page 39


 1506 0014 0402     		.short	516
 1507 0016 8700     		.short	135
 1508 0018 9601     		.short	406
 1509 001a 0302     		.short	515
 1510 001c 0302     		.short	515
 1511 001e 0302     		.short	515
 1512 0020 0302     		.short	515
 1513 0022 0302     		.short	515
 1514 0024 0302     		.short	515
 1515 0026 0302     		.short	515
 1516 0028 0302     		.short	515
 1517 002a 0302     		.short	515
 1518 002c 8700     		.short	135
 1519 002e 8102     		.short	641
 1520 0030 8102     		.short	641
 1521 0032 0102     		.short	513
 1522 0034 0102     		.short	513
 1523 0036 0102     		.short	513
 1524 0038 0102     		.short	513
 1525 003a 0102     		.short	513
 1526 003c 0102     		.short	513
 1527 003e 0102     		.short	513
 1528 0040 8102     		.short	641
 1529 0042 8102     		.short	641
 1530 0044 8102     		.short	641
 1531 0046 9201     		.short	402
 1532 0048 8200     		.short	130
 1533 004a 0600     		.short	6
 1534 004c 8200     		.short	130
 1535 004e 9201     		.short	402
 1536              		.section	.rodata.default_kb_map_lc,"a"
 1537              		.align	2
 1540              	default_kb_map_lc:
 1541 0000 08000000 		.word	.LC2
 1542 0004 08010000 		.word	.LC78
 1543 0008 0C010000 		.word	.LC79
 1544 000c 10010000 		.word	.LC80
 1545 0010 14010000 		.word	.LC81
 1546 0014 18010000 		.word	.LC82
 1547 0018 1C010000 		.word	.LC83
 1548 001c 20010000 		.word	.LC84
 1549 0020 24010000 		.word	.LC85
 1550 0024 28010000 		.word	.LC86
 1551 0028 2C010000 		.word	.LC87
 1552 002c 2C000000 		.word	.LC10
 1553 0030 0C000000 		.word	.LC15
 1554 0034 04000000 		.word	.LC1
 1555 0038 30010000 		.word	.LC88
 1556 003c 34010000 		.word	.LC89
 1557 0040 38010000 		.word	.LC90
 1558 0044 3C010000 		.word	.LC91
 1559 0048 40010000 		.word	.LC92
 1560 004c 44010000 		.word	.LC93
 1561 0050 48010000 		.word	.LC94
 1562 0054 4C010000 		.word	.LC95
 1563 0058 50010000 		.word	.LC96
 1564 005c 20000000 		.word	.LC7
ARM GAS  C:\Users\ADMINI~1\AppData\Local\Temp\cc9uxO7B.s 			page 40


 1565 0060 0C000000 		.word	.LC15
 1566 0064 E0000000 		.word	.LC68
 1567 0068 38000000 		.word	.LC26
 1568 006c 54010000 		.word	.LC97
 1569 0070 58010000 		.word	.LC98
 1570 0074 5C010000 		.word	.LC99
 1571 0078 60010000 		.word	.LC100
 1572 007c 64010000 		.word	.LC101
 1573 0080 68010000 		.word	.LC102
 1574 0084 6C010000 		.word	.LC103
 1575 0088 2C000000 		.word	.LC23
 1576 008c 00010000 		.word	.LC76
 1577 0090 04010000 		.word	.LC77
 1578 0094 0C000000 		.word	.LC15
 1579 0098 10000000 		.word	.LC4
 1580 009c 24000000 		.word	.LC8
 1581 00a0 90000000 		.word	.LC48
 1582 00a4 28000000 		.word	.LC9
 1583 00a8 14000000 		.word	.LC5
 1584 00ac 30000000 		.word	.LC24
 1585              		.section	.rodata.default_kb_map_num,"a"
 1586              		.align	2
 1589              	default_kb_map_num:
 1590 0000 00000000 		.word	.LC12
 1591 0004 04000000 		.word	.LC13
 1592 0008 08000000 		.word	.LC14
 1593 000c 10000000 		.word	.LC4
 1594 0010 0C000000 		.word	.LC15
 1595 0014 10000000 		.word	.LC16
 1596 0018 14000000 		.word	.LC17
 1597 001c 18000000 		.word	.LC18
 1598 0020 14000000 		.word	.LC5
 1599 0024 0C000000 		.word	.LC15
 1600 0028 1C000000 		.word	.LC19
 1601 002c 20000000 		.word	.LC20
 1602 0030 24000000 		.word	.LC21
 1603 0034 2C000000 		.word	.LC10
 1604 0038 0C000000 		.word	.LC15
 1605 003c 30000000 		.word	.LC11
 1606 0040 28000000 		.word	.LC22
 1607 0044 2C000000 		.word	.LC23
 1608 0048 24000000 		.word	.LC8
 1609 004c 28000000 		.word	.LC9
 1610 0050 30000000 		.word	.LC24
 1611              		.section	.rodata.default_kb_map_spec,"a"
 1612              		.align	2
 1615              	default_kb_map_spec:
 1616 0000 00000000 		.word	.LC12
 1617 0004 04000000 		.word	.LC13
 1618 0008 08000000 		.word	.LC14
 1619 000c 10000000 		.word	.LC16
 1620 0010 14000000 		.word	.LC17
 1621 0014 18000000 		.word	.LC18
 1622 0018 1C000000 		.word	.LC19
 1623 001c 20000000 		.word	.LC20
 1624 0020 24000000 		.word	.LC21
 1625 0024 28000000 		.word	.LC22
ARM GAS  C:\Users\ADMINI~1\AppData\Local\Temp\cc9uxO7B.s 			page 41


 1626 0028 2C000000 		.word	.LC10
 1627 002c 0C000000 		.word	.LC15
 1628 0030 00000000 		.word	.LC0
 1629 0034 34000000 		.word	.LC25
 1630 0038 38000000 		.word	.LC26
 1631 003c 3C000000 		.word	.LC27
 1632 0040 40000000 		.word	.LC28
 1633 0044 44000000 		.word	.LC29
 1634 0048 48000000 		.word	.LC30
 1635 004c 4C000000 		.word	.LC31
 1636 0050 50000000 		.word	.LC32
 1637 0054 54000000 		.word	.LC33
 1638 0058 58000000 		.word	.LC34
 1639 005c 5C000000 		.word	.LC35
 1640 0060 0C000000 		.word	.LC15
 1641 0064 60000000 		.word	.LC36
 1642 0068 64000000 		.word	.LC37
 1643 006c 68000000 		.word	.LC38
 1644 0070 6C000000 		.word	.LC39
 1645 0074 70000000 		.word	.LC40
 1646 0078 74000000 		.word	.LC41
 1647 007c 78000000 		.word	.LC42
 1648 0080 7C000000 		.word	.LC43
 1649 0084 80000000 		.word	.LC44
 1650 0088 84000000 		.word	.LC45
 1651 008c 88000000 		.word	.LC46
 1652 0090 8C000000 		.word	.LC47
 1653 0094 0C000000 		.word	.LC15
 1654 0098 10000000 		.word	.LC4
 1655 009c 24000000 		.word	.LC8
 1656 00a0 90000000 		.word	.LC48
 1657 00a4 28000000 		.word	.LC9
 1658 00a8 14000000 		.word	.LC5
 1659 00ac 30000000 		.word	.LC24
 1660              		.section	.rodata.default_kb_map_uc,"a"
 1661              		.align	2
 1664              	default_kb_map_uc:
 1665 0000 08000000 		.word	.LC2
 1666 0004 94000000 		.word	.LC49
 1667 0008 98000000 		.word	.LC50
 1668 000c 9C000000 		.word	.LC51
 1669 0010 A0000000 		.word	.LC52
 1670 0014 A4000000 		.word	.LC53
 1671 0018 A8000000 		.word	.LC54
 1672 001c AC000000 		.word	.LC55
 1673 0020 B0000000 		.word	.LC56
 1674 0024 B4000000 		.word	.LC57
 1675 0028 B8000000 		.word	.LC58
 1676 002c 2C000000 		.word	.LC10
 1677 0030 0C000000 		.word	.LC15
 1678 0034 00000000 		.word	.LC0
 1679 0038 BC000000 		.word	.LC59
 1680 003c C0000000 		.word	.LC60
 1681 0040 C4000000 		.word	.LC61
 1682 0044 C8000000 		.word	.LC62
 1683 0048 CC000000 		.word	.LC63
 1684 004c D0000000 		.word	.LC64
ARM GAS  C:\Users\ADMINI~1\AppData\Local\Temp\cc9uxO7B.s 			page 42


 1685 0050 D4000000 		.word	.LC65
 1686 0054 D8000000 		.word	.LC66
 1687 0058 DC000000 		.word	.LC67
 1688 005c 20000000 		.word	.LC7
 1689 0060 0C000000 		.word	.LC15
 1690 0064 E0000000 		.word	.LC68
 1691 0068 38000000 		.word	.LC26
 1692 006c E4000000 		.word	.LC69
 1693 0070 E8000000 		.word	.LC70
 1694 0074 EC000000 		.word	.LC71
 1695 0078 F0000000 		.word	.LC72
 1696 007c F4000000 		.word	.LC73
 1697 0080 F8000000 		.word	.LC74
 1698 0084 FC000000 		.word	.LC75
 1699 0088 2C000000 		.word	.LC23
 1700 008c 00010000 		.word	.LC76
 1701 0090 04010000 		.word	.LC77
 1702 0094 0C000000 		.word	.LC15
 1703 0098 10000000 		.word	.LC4
 1704 009c 24000000 		.word	.LC8
 1705 00a0 90000000 		.word	.LC48
 1706 00a4 28000000 		.word	.LC9
 1707 00a8 14000000 		.word	.LC5
 1708 00ac 30000000 		.word	.LC24
 1709              		.section	.rodata.lv_keyboard_class,"a"
 1710              		.align	2
 1711              		.set	.LANCHOR2,. + 0
 1714              	lv_keyboard_class:
 1715 0000 00000000 		.word	lv_btnmatrix_class
 1716 0004 00000000 		.word	lv_keyboard_constructor
 1717 0008 00000000 		.space	12
 1717      00000000 
 1717      00000000 
 1718 0014 64000020 		.word	536871012
 1719 0018 32000020 		.word	536870962
 1720 001c 81       		.byte	129
 1721 001d 04       		.byte	4
 1722 001e 00       		.byte	0
 1723 001f 00       		.space	1
 1724              		.text
 1725              	.Letext0:
 1726              		.file 2 "c:\\gnu arm embedded toolchain\\10 2021.10\\arm-none-eabi\\include\\machine\\_default_typ
 1727              		.file 3 "c:\\gnu arm embedded toolchain\\10 2021.10\\arm-none-eabi\\include\\sys\\_stdint.h"
 1728              		.file 4 "Middlewares/LVGL/GUI/lvgl/src/extra/widgets/keyboard/../../../widgets/../core/../misc/../
 1729              		.file 5 "Middlewares/LVGL/GUI/lvgl/src/extra/widgets/keyboard/../../../widgets/../core/../misc/lv_
 1730              		.file 6 "Middlewares/LVGL/GUI/lvgl/src/extra/widgets/keyboard/../../../widgets/../core/../misc/lv_
 1731              		.file 7 "Middlewares/LVGL/GUI/lvgl/src/extra/widgets/keyboard/../../../widgets/../core/../misc/lv_
 1732              		.file 8 "Middlewares/LVGL/GUI/lvgl/src/extra/widgets/keyboard/../../../widgets/../core/../misc/lv_
 1733              		.file 9 "Middlewares/LVGL/GUI/lvgl/src/extra/widgets/keyboard/../../../widgets/../core/lv_obj.h"
 1734              		.file 10 "Middlewares/LVGL/GUI/lvgl/src/extra/widgets/keyboard/../../../widgets/../core/../hal/../
 1735              		.file 11 "Middlewares/LVGL/GUI/lvgl/src/extra/widgets/keyboard/../../../widgets/../core/lv_group.h
 1736              		.file 12 "Middlewares/LVGL/GUI/lvgl/src/extra/widgets/keyboard/../../../widgets/../core/lv_obj_scr
 1737              		.file 13 "Middlewares/LVGL/GUI/lvgl/src/extra/widgets/keyboard/../../../widgets/../core/lv_obj_sty
 1738              		.file 14 "Middlewares/LVGL/GUI/lvgl/src/extra/widgets/keyboard/../../../widgets/../core/lv_obj_cla
 1739              		.file 15 "Middlewares/LVGL/GUI/lvgl/src/extra/widgets/keyboard/../../../widgets/../core/lv_event.h
 1740              		.file 16 "Middlewares/LVGL/GUI/lvgl/src/extra/widgets/keyboard/../../../widgets/lv_btnmatrix.h"
 1741              		.file 17 "Middlewares/LVGL/GUI/lvgl/src/extra/widgets/keyboard/lv_keyboard.h"
ARM GAS  C:\Users\ADMINI~1\AppData\Local\Temp\cc9uxO7B.s 			page 43


 1742              		.file 18 "Middlewares/LVGL/GUI/lvgl/src/extra/widgets/keyboard/../../../widgets/../core/../misc/lv
 1743              		.file 19 "Middlewares/LVGL/GUI/lvgl/src/extra/widgets/keyboard/../../../widgets/../core/../hal/../
 1744              		.file 20 "Middlewares/LVGL/GUI/lvgl/src/extra/widgets/keyboard/../../../widgets/../core/lv_obj_sty
 1745              		.file 21 "Middlewares/LVGL/GUI/lvgl/src/extra/widgets/keyboard/../../../widgets/lv_textarea.h"
 1746              		.file 22 "c:\\gnu arm embedded toolchain\\10 2021.10\\arm-none-eabi\\include\\string.h"
ARM GAS  C:\Users\ADMINI~1\AppData\Local\Temp\cc9uxO7B.s 			page 44

