ARM GAS  C:\Users\ADMINI~1\AppData\Local\Temp\ccD0EkwD.s 			page 1


   1              		.cpu cortex-m4
   2              		.arch armv7e-m
   3              		.fpu fpv4-sp-d16
   4              		.eabi_attribute 27, 1
   5              		.eabi_attribute 28, 1
   6              		.eabi_attribute 20, 1
   7              		.eabi_attribute 21, 1
   8              		.eabi_attribute 23, 3
   9              		.eabi_attribute 24, 1
  10              		.eabi_attribute 25, 1
  11              		.eabi_attribute 26, 1
  12              		.eabi_attribute 30, 1
  13              		.eabi_attribute 34, 1
  14              		.eabi_attribute 18, 4
  15              		.file	"lv_led.c"
  16              		.text
  17              	.Ltext0:
  18              		.cfi_sections	.debug_frame
  19              		.section	.text.lv_led_constructor,"ax",%progbits
  20              		.align	1
  21              		.syntax unified
  22              		.thumb
  23              		.thumb_func
  25              	lv_led_constructor:
  26              	.LVL0:
  27              	.LFB203:
  28              		.file 1 "Middlewares/LVGL/GUI/lvgl/src/extra/widgets/led/lv_led.c"
   1:Middlewares/LVGL/GUI/lvgl/src/extra/widgets/led/lv_led.c **** /**
   2:Middlewares/LVGL/GUI/lvgl/src/extra/widgets/led/lv_led.c ****  * @file lv_led.c
   3:Middlewares/LVGL/GUI/lvgl/src/extra/widgets/led/lv_led.c ****  *
   4:Middlewares/LVGL/GUI/lvgl/src/extra/widgets/led/lv_led.c ****  */
   5:Middlewares/LVGL/GUI/lvgl/src/extra/widgets/led/lv_led.c **** 
   6:Middlewares/LVGL/GUI/lvgl/src/extra/widgets/led/lv_led.c **** /*********************
   7:Middlewares/LVGL/GUI/lvgl/src/extra/widgets/led/lv_led.c ****  *      INCLUDES
   8:Middlewares/LVGL/GUI/lvgl/src/extra/widgets/led/lv_led.c ****  *********************/
   9:Middlewares/LVGL/GUI/lvgl/src/extra/widgets/led/lv_led.c **** #include "lv_led.h"
  10:Middlewares/LVGL/GUI/lvgl/src/extra/widgets/led/lv_led.c **** #if LV_USE_LED
  11:Middlewares/LVGL/GUI/lvgl/src/extra/widgets/led/lv_led.c **** 
  12:Middlewares/LVGL/GUI/lvgl/src/extra/widgets/led/lv_led.c **** #include "../../../misc/lv_assert.h"
  13:Middlewares/LVGL/GUI/lvgl/src/extra/widgets/led/lv_led.c **** 
  14:Middlewares/LVGL/GUI/lvgl/src/extra/widgets/led/lv_led.c **** /*********************
  15:Middlewares/LVGL/GUI/lvgl/src/extra/widgets/led/lv_led.c ****  *      DEFINES
  16:Middlewares/LVGL/GUI/lvgl/src/extra/widgets/led/lv_led.c ****  *********************/
  17:Middlewares/LVGL/GUI/lvgl/src/extra/widgets/led/lv_led.c **** #define MY_CLASS &lv_led_class
  18:Middlewares/LVGL/GUI/lvgl/src/extra/widgets/led/lv_led.c **** 
  19:Middlewares/LVGL/GUI/lvgl/src/extra/widgets/led/lv_led.c **** /**********************
  20:Middlewares/LVGL/GUI/lvgl/src/extra/widgets/led/lv_led.c ****  *      TYPEDEFS
  21:Middlewares/LVGL/GUI/lvgl/src/extra/widgets/led/lv_led.c ****  **********************/
  22:Middlewares/LVGL/GUI/lvgl/src/extra/widgets/led/lv_led.c **** 
  23:Middlewares/LVGL/GUI/lvgl/src/extra/widgets/led/lv_led.c **** /**********************
  24:Middlewares/LVGL/GUI/lvgl/src/extra/widgets/led/lv_led.c ****  *  STATIC PROTOTYPES
  25:Middlewares/LVGL/GUI/lvgl/src/extra/widgets/led/lv_led.c ****  **********************/
  26:Middlewares/LVGL/GUI/lvgl/src/extra/widgets/led/lv_led.c **** static void lv_led_constructor(const lv_obj_class_t * class_p, lv_obj_t * obj);
  27:Middlewares/LVGL/GUI/lvgl/src/extra/widgets/led/lv_led.c **** static void lv_led_event(const lv_obj_class_t * class_p, lv_event_t * e);
  28:Middlewares/LVGL/GUI/lvgl/src/extra/widgets/led/lv_led.c **** 
  29:Middlewares/LVGL/GUI/lvgl/src/extra/widgets/led/lv_led.c **** /**********************
  30:Middlewares/LVGL/GUI/lvgl/src/extra/widgets/led/lv_led.c ****  *  STATIC VARIABLES
ARM GAS  C:\Users\ADMINI~1\AppData\Local\Temp\ccD0EkwD.s 			page 2


  31:Middlewares/LVGL/GUI/lvgl/src/extra/widgets/led/lv_led.c ****  **********************/
  32:Middlewares/LVGL/GUI/lvgl/src/extra/widgets/led/lv_led.c **** const lv_obj_class_t lv_led_class  = {
  33:Middlewares/LVGL/GUI/lvgl/src/extra/widgets/led/lv_led.c ****     .base_class = &lv_obj_class,
  34:Middlewares/LVGL/GUI/lvgl/src/extra/widgets/led/lv_led.c ****     .constructor_cb = lv_led_constructor,
  35:Middlewares/LVGL/GUI/lvgl/src/extra/widgets/led/lv_led.c ****     .width_def = LV_DPI_DEF / 5,
  36:Middlewares/LVGL/GUI/lvgl/src/extra/widgets/led/lv_led.c ****     .height_def = LV_DPI_DEF / 5,
  37:Middlewares/LVGL/GUI/lvgl/src/extra/widgets/led/lv_led.c ****     .event_cb = lv_led_event,
  38:Middlewares/LVGL/GUI/lvgl/src/extra/widgets/led/lv_led.c ****     .instance_size = sizeof(lv_led_t),
  39:Middlewares/LVGL/GUI/lvgl/src/extra/widgets/led/lv_led.c **** };
  40:Middlewares/LVGL/GUI/lvgl/src/extra/widgets/led/lv_led.c **** 
  41:Middlewares/LVGL/GUI/lvgl/src/extra/widgets/led/lv_led.c **** /**********************
  42:Middlewares/LVGL/GUI/lvgl/src/extra/widgets/led/lv_led.c ****  *      MACROS
  43:Middlewares/LVGL/GUI/lvgl/src/extra/widgets/led/lv_led.c ****  **********************/
  44:Middlewares/LVGL/GUI/lvgl/src/extra/widgets/led/lv_led.c **** 
  45:Middlewares/LVGL/GUI/lvgl/src/extra/widgets/led/lv_led.c **** /**********************
  46:Middlewares/LVGL/GUI/lvgl/src/extra/widgets/led/lv_led.c ****  *   GLOBAL FUNCTIONS
  47:Middlewares/LVGL/GUI/lvgl/src/extra/widgets/led/lv_led.c ****  **********************/
  48:Middlewares/LVGL/GUI/lvgl/src/extra/widgets/led/lv_led.c **** 
  49:Middlewares/LVGL/GUI/lvgl/src/extra/widgets/led/lv_led.c **** /**
  50:Middlewares/LVGL/GUI/lvgl/src/extra/widgets/led/lv_led.c ****  * Create a led object
  51:Middlewares/LVGL/GUI/lvgl/src/extra/widgets/led/lv_led.c ****  * @param parent pointer to an object, it will be the parent of the new led
  52:Middlewares/LVGL/GUI/lvgl/src/extra/widgets/led/lv_led.c ****  * @return pointer to the created led
  53:Middlewares/LVGL/GUI/lvgl/src/extra/widgets/led/lv_led.c ****  */
  54:Middlewares/LVGL/GUI/lvgl/src/extra/widgets/led/lv_led.c **** lv_obj_t * lv_led_create(lv_obj_t * parent)
  55:Middlewares/LVGL/GUI/lvgl/src/extra/widgets/led/lv_led.c **** {
  56:Middlewares/LVGL/GUI/lvgl/src/extra/widgets/led/lv_led.c ****     LV_LOG_INFO("begin");
  57:Middlewares/LVGL/GUI/lvgl/src/extra/widgets/led/lv_led.c ****     lv_obj_t * obj = lv_obj_class_create_obj(MY_CLASS, parent);
  58:Middlewares/LVGL/GUI/lvgl/src/extra/widgets/led/lv_led.c ****     lv_obj_class_init_obj(obj);
  59:Middlewares/LVGL/GUI/lvgl/src/extra/widgets/led/lv_led.c ****     return obj;
  60:Middlewares/LVGL/GUI/lvgl/src/extra/widgets/led/lv_led.c **** }
  61:Middlewares/LVGL/GUI/lvgl/src/extra/widgets/led/lv_led.c **** 
  62:Middlewares/LVGL/GUI/lvgl/src/extra/widgets/led/lv_led.c **** /*=====================
  63:Middlewares/LVGL/GUI/lvgl/src/extra/widgets/led/lv_led.c ****  * Setter functions
  64:Middlewares/LVGL/GUI/lvgl/src/extra/widgets/led/lv_led.c ****  *====================*/
  65:Middlewares/LVGL/GUI/lvgl/src/extra/widgets/led/lv_led.c **** 
  66:Middlewares/LVGL/GUI/lvgl/src/extra/widgets/led/lv_led.c **** /**
  67:Middlewares/LVGL/GUI/lvgl/src/extra/widgets/led/lv_led.c ****  * Set the color of the LED
  68:Middlewares/LVGL/GUI/lvgl/src/extra/widgets/led/lv_led.c ****  * @param led       pointer to a LED object
  69:Middlewares/LVGL/GUI/lvgl/src/extra/widgets/led/lv_led.c ****  * @param color     the color of the LED
  70:Middlewares/LVGL/GUI/lvgl/src/extra/widgets/led/lv_led.c ****  */
  71:Middlewares/LVGL/GUI/lvgl/src/extra/widgets/led/lv_led.c **** void lv_led_set_color(lv_obj_t * obj, lv_color_t color)
  72:Middlewares/LVGL/GUI/lvgl/src/extra/widgets/led/lv_led.c **** {
  73:Middlewares/LVGL/GUI/lvgl/src/extra/widgets/led/lv_led.c ****     LV_ASSERT_OBJ(obj, MY_CLASS);
  74:Middlewares/LVGL/GUI/lvgl/src/extra/widgets/led/lv_led.c **** 
  75:Middlewares/LVGL/GUI/lvgl/src/extra/widgets/led/lv_led.c ****     lv_led_t * led = (lv_led_t *)obj;
  76:Middlewares/LVGL/GUI/lvgl/src/extra/widgets/led/lv_led.c ****     led->color = color;
  77:Middlewares/LVGL/GUI/lvgl/src/extra/widgets/led/lv_led.c ****     lv_obj_invalidate(obj);
  78:Middlewares/LVGL/GUI/lvgl/src/extra/widgets/led/lv_led.c **** }
  79:Middlewares/LVGL/GUI/lvgl/src/extra/widgets/led/lv_led.c **** 
  80:Middlewares/LVGL/GUI/lvgl/src/extra/widgets/led/lv_led.c **** /**
  81:Middlewares/LVGL/GUI/lvgl/src/extra/widgets/led/lv_led.c ****  * Set the brightness of a LED object
  82:Middlewares/LVGL/GUI/lvgl/src/extra/widgets/led/lv_led.c ****  * @param led pointer to a LED object
  83:Middlewares/LVGL/GUI/lvgl/src/extra/widgets/led/lv_led.c ****  * @param bright LV_LED_BRIGHT_MIN (max. dark) ... LV_LED_BRIGHT_MAX (max. light)
  84:Middlewares/LVGL/GUI/lvgl/src/extra/widgets/led/lv_led.c ****  */
  85:Middlewares/LVGL/GUI/lvgl/src/extra/widgets/led/lv_led.c **** void lv_led_set_brightness(lv_obj_t * obj, uint8_t bright)
  86:Middlewares/LVGL/GUI/lvgl/src/extra/widgets/led/lv_led.c **** {
  87:Middlewares/LVGL/GUI/lvgl/src/extra/widgets/led/lv_led.c ****     LV_ASSERT_OBJ(obj, MY_CLASS);
ARM GAS  C:\Users\ADMINI~1\AppData\Local\Temp\ccD0EkwD.s 			page 3


  88:Middlewares/LVGL/GUI/lvgl/src/extra/widgets/led/lv_led.c **** 
  89:Middlewares/LVGL/GUI/lvgl/src/extra/widgets/led/lv_led.c ****     lv_led_t * led = (lv_led_t *)obj;
  90:Middlewares/LVGL/GUI/lvgl/src/extra/widgets/led/lv_led.c ****     if(led->bright == bright) return;
  91:Middlewares/LVGL/GUI/lvgl/src/extra/widgets/led/lv_led.c **** 
  92:Middlewares/LVGL/GUI/lvgl/src/extra/widgets/led/lv_led.c ****     led->bright = LV_CLAMP(LV_LED_BRIGHT_MIN, bright, LV_LED_BRIGHT_MAX);
  93:Middlewares/LVGL/GUI/lvgl/src/extra/widgets/led/lv_led.c **** 
  94:Middlewares/LVGL/GUI/lvgl/src/extra/widgets/led/lv_led.c ****     /*Invalidate the object there fore it will be redrawn*/
  95:Middlewares/LVGL/GUI/lvgl/src/extra/widgets/led/lv_led.c ****     lv_obj_invalidate(obj);
  96:Middlewares/LVGL/GUI/lvgl/src/extra/widgets/led/lv_led.c **** }
  97:Middlewares/LVGL/GUI/lvgl/src/extra/widgets/led/lv_led.c **** 
  98:Middlewares/LVGL/GUI/lvgl/src/extra/widgets/led/lv_led.c **** /**
  99:Middlewares/LVGL/GUI/lvgl/src/extra/widgets/led/lv_led.c ****  * Light on a LED
 100:Middlewares/LVGL/GUI/lvgl/src/extra/widgets/led/lv_led.c ****  * @param led pointer to a LED object
 101:Middlewares/LVGL/GUI/lvgl/src/extra/widgets/led/lv_led.c ****  */
 102:Middlewares/LVGL/GUI/lvgl/src/extra/widgets/led/lv_led.c **** void lv_led_on(lv_obj_t * led)
 103:Middlewares/LVGL/GUI/lvgl/src/extra/widgets/led/lv_led.c **** {
 104:Middlewares/LVGL/GUI/lvgl/src/extra/widgets/led/lv_led.c ****     lv_led_set_brightness(led, LV_LED_BRIGHT_MAX);
 105:Middlewares/LVGL/GUI/lvgl/src/extra/widgets/led/lv_led.c **** }
 106:Middlewares/LVGL/GUI/lvgl/src/extra/widgets/led/lv_led.c **** 
 107:Middlewares/LVGL/GUI/lvgl/src/extra/widgets/led/lv_led.c **** /**
 108:Middlewares/LVGL/GUI/lvgl/src/extra/widgets/led/lv_led.c ****  * Light off a LED
 109:Middlewares/LVGL/GUI/lvgl/src/extra/widgets/led/lv_led.c ****  * @param led pointer to a LED object
 110:Middlewares/LVGL/GUI/lvgl/src/extra/widgets/led/lv_led.c ****  */
 111:Middlewares/LVGL/GUI/lvgl/src/extra/widgets/led/lv_led.c **** void lv_led_off(lv_obj_t * led)
 112:Middlewares/LVGL/GUI/lvgl/src/extra/widgets/led/lv_led.c **** {
 113:Middlewares/LVGL/GUI/lvgl/src/extra/widgets/led/lv_led.c ****     lv_led_set_brightness(led, LV_LED_BRIGHT_MIN);
 114:Middlewares/LVGL/GUI/lvgl/src/extra/widgets/led/lv_led.c **** }
 115:Middlewares/LVGL/GUI/lvgl/src/extra/widgets/led/lv_led.c **** 
 116:Middlewares/LVGL/GUI/lvgl/src/extra/widgets/led/lv_led.c **** /**
 117:Middlewares/LVGL/GUI/lvgl/src/extra/widgets/led/lv_led.c ****  * Toggle the state of a LED
 118:Middlewares/LVGL/GUI/lvgl/src/extra/widgets/led/lv_led.c ****  * @param led pointer to a LED object
 119:Middlewares/LVGL/GUI/lvgl/src/extra/widgets/led/lv_led.c ****  */
 120:Middlewares/LVGL/GUI/lvgl/src/extra/widgets/led/lv_led.c **** void lv_led_toggle(lv_obj_t * obj)
 121:Middlewares/LVGL/GUI/lvgl/src/extra/widgets/led/lv_led.c **** {
 122:Middlewares/LVGL/GUI/lvgl/src/extra/widgets/led/lv_led.c ****     uint8_t bright = lv_led_get_brightness(obj);
 123:Middlewares/LVGL/GUI/lvgl/src/extra/widgets/led/lv_led.c ****     if(bright > (LV_LED_BRIGHT_MIN + LV_LED_BRIGHT_MAX) >> 1)
 124:Middlewares/LVGL/GUI/lvgl/src/extra/widgets/led/lv_led.c ****         lv_led_off(obj);
 125:Middlewares/LVGL/GUI/lvgl/src/extra/widgets/led/lv_led.c ****     else
 126:Middlewares/LVGL/GUI/lvgl/src/extra/widgets/led/lv_led.c ****         lv_led_on(obj);
 127:Middlewares/LVGL/GUI/lvgl/src/extra/widgets/led/lv_led.c **** }
 128:Middlewares/LVGL/GUI/lvgl/src/extra/widgets/led/lv_led.c **** 
 129:Middlewares/LVGL/GUI/lvgl/src/extra/widgets/led/lv_led.c **** /*=====================
 130:Middlewares/LVGL/GUI/lvgl/src/extra/widgets/led/lv_led.c ****  * Getter functions
 131:Middlewares/LVGL/GUI/lvgl/src/extra/widgets/led/lv_led.c ****  *====================*/
 132:Middlewares/LVGL/GUI/lvgl/src/extra/widgets/led/lv_led.c **** 
 133:Middlewares/LVGL/GUI/lvgl/src/extra/widgets/led/lv_led.c **** /**
 134:Middlewares/LVGL/GUI/lvgl/src/extra/widgets/led/lv_led.c ****  * Get the brightness of a LEd object
 135:Middlewares/LVGL/GUI/lvgl/src/extra/widgets/led/lv_led.c ****  * @param led pointer to LED object
 136:Middlewares/LVGL/GUI/lvgl/src/extra/widgets/led/lv_led.c ****  * @return bright 0 (max. dark) ... 255 (max. light)
 137:Middlewares/LVGL/GUI/lvgl/src/extra/widgets/led/lv_led.c ****  */
 138:Middlewares/LVGL/GUI/lvgl/src/extra/widgets/led/lv_led.c **** uint8_t lv_led_get_brightness(const lv_obj_t * obj)
 139:Middlewares/LVGL/GUI/lvgl/src/extra/widgets/led/lv_led.c **** {
 140:Middlewares/LVGL/GUI/lvgl/src/extra/widgets/led/lv_led.c ****     LV_ASSERT_OBJ(obj, MY_CLASS);
 141:Middlewares/LVGL/GUI/lvgl/src/extra/widgets/led/lv_led.c **** 
 142:Middlewares/LVGL/GUI/lvgl/src/extra/widgets/led/lv_led.c ****     lv_led_t * led = (lv_led_t *)obj;
 143:Middlewares/LVGL/GUI/lvgl/src/extra/widgets/led/lv_led.c ****     return led->bright;
 144:Middlewares/LVGL/GUI/lvgl/src/extra/widgets/led/lv_led.c **** }
ARM GAS  C:\Users\ADMINI~1\AppData\Local\Temp\ccD0EkwD.s 			page 4


 145:Middlewares/LVGL/GUI/lvgl/src/extra/widgets/led/lv_led.c **** 
 146:Middlewares/LVGL/GUI/lvgl/src/extra/widgets/led/lv_led.c **** /**********************
 147:Middlewares/LVGL/GUI/lvgl/src/extra/widgets/led/lv_led.c ****  *   STATIC FUNCTIONS
 148:Middlewares/LVGL/GUI/lvgl/src/extra/widgets/led/lv_led.c ****  **********************/
 149:Middlewares/LVGL/GUI/lvgl/src/extra/widgets/led/lv_led.c **** 
 150:Middlewares/LVGL/GUI/lvgl/src/extra/widgets/led/lv_led.c **** static void lv_led_constructor(const lv_obj_class_t * class_p, lv_obj_t * obj)
 151:Middlewares/LVGL/GUI/lvgl/src/extra/widgets/led/lv_led.c **** {
  29              		.loc 1 151 1 view -0
  30              		.cfi_startproc
  31              		@ args = 0, pretend = 0, frame = 0
  32              		@ frame_needed = 0, uses_anonymous_args = 0
  33              		.loc 1 151 1 is_stmt 0 view .LVU1
  34 0000 10B5     		push	{r4, lr}
  35              	.LCFI0:
  36              		.cfi_def_cfa_offset 8
  37              		.cfi_offset 4, -8
  38              		.cfi_offset 14, -4
  39 0002 0C46     		mov	r4, r1
 152:Middlewares/LVGL/GUI/lvgl/src/extra/widgets/led/lv_led.c ****     LV_UNUSED(class_p);
  40              		.loc 1 152 5 is_stmt 1 view .LVU2
 153:Middlewares/LVGL/GUI/lvgl/src/extra/widgets/led/lv_led.c ****     lv_led_t * led = (lv_led_t *)obj;
  41              		.loc 1 153 5 view .LVU3
  42              	.LVL1:
 154:Middlewares/LVGL/GUI/lvgl/src/extra/widgets/led/lv_led.c ****     led->color = lv_theme_get_color_primary(obj);
  43              		.loc 1 154 5 view .LVU4
  44              		.loc 1 154 18 is_stmt 0 view .LVU5
  45 0004 0846     		mov	r0, r1
  46              	.LVL2:
  47              		.loc 1 154 18 view .LVU6
  48 0006 FFF7FEFF 		bl	lv_theme_get_color_primary
  49              	.LVL3:
  50              		.loc 1 154 18 view .LVU7
  51 000a A085     		strh	r0, [r4, #44]	@ movhi
 155:Middlewares/LVGL/GUI/lvgl/src/extra/widgets/led/lv_led.c ****     led->bright = LV_LED_BRIGHT_MAX;
  52              		.loc 1 155 5 is_stmt 1 view .LVU8
  53              		.loc 1 155 17 is_stmt 0 view .LVU9
  54 000c FF23     		movs	r3, #255
  55 000e 84F82E30 		strb	r3, [r4, #46]
 156:Middlewares/LVGL/GUI/lvgl/src/extra/widgets/led/lv_led.c **** }
  56              		.loc 1 156 1 view .LVU10
  57 0012 10BD     		pop	{r4, pc}
  58              		.loc 1 156 1 view .LVU11
  59              		.cfi_endproc
  60              	.LFE203:
  62              		.section	.text.lv_led_event,"ax",%progbits
  63              		.align	1
  64              		.syntax unified
  65              		.thumb
  66              		.thumb_func
  68              	lv_led_event:
  69              	.LVL4:
  70              	.LFB204:
 157:Middlewares/LVGL/GUI/lvgl/src/extra/widgets/led/lv_led.c **** 
 158:Middlewares/LVGL/GUI/lvgl/src/extra/widgets/led/lv_led.c **** static void lv_led_event(const lv_obj_class_t * class_p, lv_event_t * e)
 159:Middlewares/LVGL/GUI/lvgl/src/extra/widgets/led/lv_led.c **** {
  71              		.loc 1 159 1 is_stmt 1 view -0
  72              		.cfi_startproc
ARM GAS  C:\Users\ADMINI~1\AppData\Local\Temp\ccD0EkwD.s 			page 5


  73              		@ args = 0, pretend = 0, frame = 144
  74              		@ frame_needed = 0, uses_anonymous_args = 0
  75              		.loc 1 159 1 is_stmt 0 view .LVU13
  76 0000 2DE9F043 		push	{r4, r5, r6, r7, r8, r9, lr}
  77              	.LCFI1:
  78              		.cfi_def_cfa_offset 28
  79              		.cfi_offset 4, -28
  80              		.cfi_offset 5, -24
  81              		.cfi_offset 6, -20
  82              		.cfi_offset 7, -16
  83              		.cfi_offset 8, -12
  84              		.cfi_offset 9, -8
  85              		.cfi_offset 14, -4
  86 0004 A5B0     		sub	sp, sp, #148
  87              	.LCFI2:
  88              		.cfi_def_cfa_offset 176
  89 0006 0C46     		mov	r4, r1
 160:Middlewares/LVGL/GUI/lvgl/src/extra/widgets/led/lv_led.c ****     LV_UNUSED(class_p);
  90              		.loc 1 160 5 is_stmt 1 view .LVU14
 161:Middlewares/LVGL/GUI/lvgl/src/extra/widgets/led/lv_led.c **** 
 162:Middlewares/LVGL/GUI/lvgl/src/extra/widgets/led/lv_led.c ****     lv_res_t res;
  91              		.loc 1 162 5 view .LVU15
 163:Middlewares/LVGL/GUI/lvgl/src/extra/widgets/led/lv_led.c **** 
 164:Middlewares/LVGL/GUI/lvgl/src/extra/widgets/led/lv_led.c ****     /* Call the ancestor's event handler */
 165:Middlewares/LVGL/GUI/lvgl/src/extra/widgets/led/lv_led.c ****     lv_event_code_t code = lv_event_get_code(e);
  92              		.loc 1 165 5 view .LVU16
  93              		.loc 1 165 28 is_stmt 0 view .LVU17
  94 0008 0846     		mov	r0, r1
  95              	.LVL5:
  96              		.loc 1 165 28 view .LVU18
  97 000a FFF7FEFF 		bl	lv_event_get_code
  98              	.LVL6:
  99              		.loc 1 165 28 view .LVU19
 100 000e 0546     		mov	r5, r0
 101              	.LVL7:
 166:Middlewares/LVGL/GUI/lvgl/src/extra/widgets/led/lv_led.c ****     if(code != LV_EVENT_DRAW_MAIN && code != LV_EVENT_DRAW_MAIN_END) {
 102              		.loc 1 166 5 is_stmt 1 view .LVU20
 103              		.loc 1 166 35 is_stmt 0 view .LVU21
 104 0010 A0F11503 		sub	r3, r0, #21
 105 0014 DBB2     		uxtb	r3, r3
 106              		.loc 1 166 7 view .LVU22
 107 0016 012B     		cmp	r3, #1
 108 0018 05D9     		bls	.L4
 167:Middlewares/LVGL/GUI/lvgl/src/extra/widgets/led/lv_led.c ****         res = lv_obj_event_base(MY_CLASS, e);
 109              		.loc 1 167 9 is_stmt 1 view .LVU23
 110              		.loc 1 167 15 is_stmt 0 view .LVU24
 111 001a 2146     		mov	r1, r4
 112 001c 0648     		ldr	r0, .L8
 113              	.LVL8:
 114              		.loc 1 167 15 view .LVU25
 115 001e FFF7FEFF 		bl	lv_obj_event_base
 116              	.LVL9:
 168:Middlewares/LVGL/GUI/lvgl/src/extra/widgets/led/lv_led.c ****         if(res != LV_RES_OK) return;
 117              		.loc 1 168 9 is_stmt 1 view .LVU26
 118              		.loc 1 168 11 is_stmt 0 view .LVU27
 119 0022 0128     		cmp	r0, #1
 120 0024 05D1     		bne	.L3
ARM GAS  C:\Users\ADMINI~1\AppData\Local\Temp\ccD0EkwD.s 			page 6


 121              	.LVL10:
 122              	.L4:
 169:Middlewares/LVGL/GUI/lvgl/src/extra/widgets/led/lv_led.c ****     }
 170:Middlewares/LVGL/GUI/lvgl/src/extra/widgets/led/lv_led.c **** 
 171:Middlewares/LVGL/GUI/lvgl/src/extra/widgets/led/lv_led.c ****     lv_obj_t * obj = lv_event_get_target(e);
 123              		.loc 1 171 5 is_stmt 1 view .LVU28
 124              		.loc 1 171 22 is_stmt 0 view .LVU29
 125 0026 2046     		mov	r0, r4
 126 0028 FFF7FEFF 		bl	lv_event_get_target
 127              	.LVL11:
 128 002c 0646     		mov	r6, r0
 129              	.LVL12:
 172:Middlewares/LVGL/GUI/lvgl/src/extra/widgets/led/lv_led.c ****     if(code == LV_EVENT_DRAW_MAIN) {
 130              		.loc 1 172 5 is_stmt 1 view .LVU30
 131              		.loc 1 172 7 is_stmt 0 view .LVU31
 132 002e 152D     		cmp	r5, #21
 133 0030 04D0     		beq	.L7
 134              	.LVL13:
 135              	.L3:
 173:Middlewares/LVGL/GUI/lvgl/src/extra/widgets/led/lv_led.c ****         /*Make darker colors in a temporary style according to the brightness*/
 174:Middlewares/LVGL/GUI/lvgl/src/extra/widgets/led/lv_led.c ****         lv_led_t * led = (lv_led_t *)obj;
 175:Middlewares/LVGL/GUI/lvgl/src/extra/widgets/led/lv_led.c **** 
 176:Middlewares/LVGL/GUI/lvgl/src/extra/widgets/led/lv_led.c ****         lv_draw_rect_dsc_t rect_dsc;
 177:Middlewares/LVGL/GUI/lvgl/src/extra/widgets/led/lv_led.c ****         lv_draw_rect_dsc_init(&rect_dsc);
 178:Middlewares/LVGL/GUI/lvgl/src/extra/widgets/led/lv_led.c ****         lv_obj_init_draw_rect_dsc(obj, LV_PART_MAIN, &rect_dsc);
 179:Middlewares/LVGL/GUI/lvgl/src/extra/widgets/led/lv_led.c **** 
 180:Middlewares/LVGL/GUI/lvgl/src/extra/widgets/led/lv_led.c ****         /*Use the original colors brightness to modify color->led*/
 181:Middlewares/LVGL/GUI/lvgl/src/extra/widgets/led/lv_led.c ****         rect_dsc.bg_grad.stops[0].color = lv_color_mix(led->color, lv_color_black(),
 182:Middlewares/LVGL/GUI/lvgl/src/extra/widgets/led/lv_led.c ****                                                        lv_color_brightness(rect_dsc.bg_grad.stops[0
 183:Middlewares/LVGL/GUI/lvgl/src/extra/widgets/led/lv_led.c ****         rect_dsc.bg_grad.stops[1].color = lv_color_mix(led->color, lv_color_black(),
 184:Middlewares/LVGL/GUI/lvgl/src/extra/widgets/led/lv_led.c ****                                                        lv_color_brightness(rect_dsc.bg_grad.stops[1
 185:Middlewares/LVGL/GUI/lvgl/src/extra/widgets/led/lv_led.c ****         rect_dsc.shadow_color = lv_color_mix(led->color, lv_color_black(), lv_color_brightness(rect
 186:Middlewares/LVGL/GUI/lvgl/src/extra/widgets/led/lv_led.c ****         rect_dsc.border_color = lv_color_mix(led->color, lv_color_black(), lv_color_brightness(rect
 187:Middlewares/LVGL/GUI/lvgl/src/extra/widgets/led/lv_led.c ****         rect_dsc.outline_color = lv_color_mix(led->color, lv_color_black(), lv_color_brightness(rec
 188:Middlewares/LVGL/GUI/lvgl/src/extra/widgets/led/lv_led.c **** 
 189:Middlewares/LVGL/GUI/lvgl/src/extra/widgets/led/lv_led.c ****         /*Mix. the color with black proportionally with brightness*/
 190:Middlewares/LVGL/GUI/lvgl/src/extra/widgets/led/lv_led.c ****         rect_dsc.bg_grad.stops[0].color   = lv_color_mix(rect_dsc.bg_grad.stops[0].color, lv_color_
 191:Middlewares/LVGL/GUI/lvgl/src/extra/widgets/led/lv_led.c ****         rect_dsc.bg_grad.stops[1].color   = lv_color_mix(rect_dsc.bg_grad.stops[1].color, lv_color_
 192:Middlewares/LVGL/GUI/lvgl/src/extra/widgets/led/lv_led.c ****         rect_dsc.border_color = lv_color_mix(rect_dsc.border_color, lv_color_black(), led->bright);
 193:Middlewares/LVGL/GUI/lvgl/src/extra/widgets/led/lv_led.c ****         rect_dsc.shadow_color = lv_color_mix(rect_dsc.shadow_color, lv_color_black(), led->bright);
 194:Middlewares/LVGL/GUI/lvgl/src/extra/widgets/led/lv_led.c ****         rect_dsc.outline_color = lv_color_mix(rect_dsc.outline_color, lv_color_black(), led->bright
 195:Middlewares/LVGL/GUI/lvgl/src/extra/widgets/led/lv_led.c **** 
 196:Middlewares/LVGL/GUI/lvgl/src/extra/widgets/led/lv_led.c ****         /*Set the current shadow width according to brightness proportionally between LV_LED_BRIGHT
 197:Middlewares/LVGL/GUI/lvgl/src/extra/widgets/led/lv_led.c ****          * and LV_LED_BRIGHT_ON*/
 198:Middlewares/LVGL/GUI/lvgl/src/extra/widgets/led/lv_led.c ****         rect_dsc.shadow_width = ((led->bright - LV_LED_BRIGHT_MIN) * rect_dsc.shadow_width) /
 199:Middlewares/LVGL/GUI/lvgl/src/extra/widgets/led/lv_led.c ****                                 (LV_LED_BRIGHT_MAX - LV_LED_BRIGHT_MIN);
 200:Middlewares/LVGL/GUI/lvgl/src/extra/widgets/led/lv_led.c ****         rect_dsc.shadow_spread = ((led->bright - LV_LED_BRIGHT_MIN) * rect_dsc.shadow_spread) /
 201:Middlewares/LVGL/GUI/lvgl/src/extra/widgets/led/lv_led.c ****                                  (LV_LED_BRIGHT_MAX - LV_LED_BRIGHT_MIN);
 202:Middlewares/LVGL/GUI/lvgl/src/extra/widgets/led/lv_led.c **** 
 203:Middlewares/LVGL/GUI/lvgl/src/extra/widgets/led/lv_led.c ****         lv_draw_ctx_t * draw_ctx = lv_event_get_draw_ctx(e);
 204:Middlewares/LVGL/GUI/lvgl/src/extra/widgets/led/lv_led.c **** 
 205:Middlewares/LVGL/GUI/lvgl/src/extra/widgets/led/lv_led.c ****         lv_obj_draw_part_dsc_t  part_draw_dsc;
 206:Middlewares/LVGL/GUI/lvgl/src/extra/widgets/led/lv_led.c ****         lv_obj_draw_dsc_init(&part_draw_dsc, draw_ctx);
 207:Middlewares/LVGL/GUI/lvgl/src/extra/widgets/led/lv_led.c ****         part_draw_dsc.draw_area = &obj->coords;
 208:Middlewares/LVGL/GUI/lvgl/src/extra/widgets/led/lv_led.c ****         part_draw_dsc.class_p = MY_CLASS;
 209:Middlewares/LVGL/GUI/lvgl/src/extra/widgets/led/lv_led.c ****         part_draw_dsc.type = LV_LED_DRAW_PART_RECTANGLE;
 210:Middlewares/LVGL/GUI/lvgl/src/extra/widgets/led/lv_led.c ****         part_draw_dsc.rect_dsc = &rect_dsc;
ARM GAS  C:\Users\ADMINI~1\AppData\Local\Temp\ccD0EkwD.s 			page 7


 211:Middlewares/LVGL/GUI/lvgl/src/extra/widgets/led/lv_led.c ****         part_draw_dsc.part = LV_PART_MAIN;
 212:Middlewares/LVGL/GUI/lvgl/src/extra/widgets/led/lv_led.c **** 
 213:Middlewares/LVGL/GUI/lvgl/src/extra/widgets/led/lv_led.c ****         lv_event_send(obj, LV_EVENT_DRAW_PART_BEGIN, &part_draw_dsc);
 214:Middlewares/LVGL/GUI/lvgl/src/extra/widgets/led/lv_led.c ****         lv_draw_rect(draw_ctx, &rect_dsc, &obj->coords);
 215:Middlewares/LVGL/GUI/lvgl/src/extra/widgets/led/lv_led.c ****         lv_event_send(obj, LV_EVENT_DRAW_PART_END, &part_draw_dsc);
 216:Middlewares/LVGL/GUI/lvgl/src/extra/widgets/led/lv_led.c ****     }
 217:Middlewares/LVGL/GUI/lvgl/src/extra/widgets/led/lv_led.c **** }
 136              		.loc 1 217 1 view .LVU32
 137 0032 25B0     		add	sp, sp, #148
 138              	.LCFI3:
 139              		.cfi_remember_state
 140              		.cfi_def_cfa_offset 28
 141              		@ sp needed
 142 0034 BDE8F083 		pop	{r4, r5, r6, r7, r8, r9, pc}
 143              	.L9:
 144              		.align	2
 145              	.L8:
 146 0038 00000000 		.word	.LANCHOR0
 147              	.LVL14:
 148              	.L7:
 149              	.LCFI4:
 150              		.cfi_restore_state
 151              	.LBB126:
 174:Middlewares/LVGL/GUI/lvgl/src/extra/widgets/led/lv_led.c **** 
 152              		.loc 1 174 9 is_stmt 1 view .LVU33
 176:Middlewares/LVGL/GUI/lvgl/src/extra/widgets/led/lv_led.c ****         lv_draw_rect_dsc_init(&rect_dsc);
 153              		.loc 1 176 9 view .LVU34
 177:Middlewares/LVGL/GUI/lvgl/src/extra/widgets/led/lv_led.c ****         lv_obj_init_draw_rect_dsc(obj, LV_PART_MAIN, &rect_dsc);
 154              		.loc 1 177 9 view .LVU35
 155 003c 6846     		mov	r0, sp
 156              	.LVL15:
 177:Middlewares/LVGL/GUI/lvgl/src/extra/widgets/led/lv_led.c ****         lv_obj_init_draw_rect_dsc(obj, LV_PART_MAIN, &rect_dsc);
 157              		.loc 1 177 9 is_stmt 0 view .LVU36
 158 003e FFF7FEFF 		bl	lv_draw_rect_dsc_init
 159              	.LVL16:
 178:Middlewares/LVGL/GUI/lvgl/src/extra/widgets/led/lv_led.c **** 
 160              		.loc 1 178 9 is_stmt 1 view .LVU37
 161 0042 6A46     		mov	r2, sp
 162 0044 0021     		movs	r1, #0
 163 0046 3046     		mov	r0, r6
 164 0048 FFF7FEFF 		bl	lv_obj_init_draw_rect_dsc
 165              	.LVL17:
 181:Middlewares/LVGL/GUI/lvgl/src/extra/widgets/led/lv_led.c ****                                                        lv_color_brightness(rect_dsc.bg_grad.stops[0
 166              		.loc 1 181 9 view .LVU38
 167              	.LBB127:
 168              	.LBI127:
 169              		.file 2 "Middlewares/LVGL/GUI/lvgl/src/extra/widgets/led/../../../../src/hal/../draw/../misc/lv_co
   1:Middlewares/LVGL/GUI/lvgl/src/extra/widgets/led/../../../../src/hal/../draw/../misc/lv_color.h **** /**
   2:Middlewares/LVGL/GUI/lvgl/src/extra/widgets/led/../../../../src/hal/../draw/../misc/lv_color.h ****  * @file lv_color.h
   3:Middlewares/LVGL/GUI/lvgl/src/extra/widgets/led/../../../../src/hal/../draw/../misc/lv_color.h ****  *
   4:Middlewares/LVGL/GUI/lvgl/src/extra/widgets/led/../../../../src/hal/../draw/../misc/lv_color.h ****  */
   5:Middlewares/LVGL/GUI/lvgl/src/extra/widgets/led/../../../../src/hal/../draw/../misc/lv_color.h **** 
   6:Middlewares/LVGL/GUI/lvgl/src/extra/widgets/led/../../../../src/hal/../draw/../misc/lv_color.h **** #ifndef LV_COLOR_H
   7:Middlewares/LVGL/GUI/lvgl/src/extra/widgets/led/../../../../src/hal/../draw/../misc/lv_color.h **** #define LV_COLOR_H
   8:Middlewares/LVGL/GUI/lvgl/src/extra/widgets/led/../../../../src/hal/../draw/../misc/lv_color.h **** 
   9:Middlewares/LVGL/GUI/lvgl/src/extra/widgets/led/../../../../src/hal/../draw/../misc/lv_color.h **** #ifdef __cplusplus
  10:Middlewares/LVGL/GUI/lvgl/src/extra/widgets/led/../../../../src/hal/../draw/../misc/lv_color.h **** extern "C" {
ARM GAS  C:\Users\ADMINI~1\AppData\Local\Temp\ccD0EkwD.s 			page 8


  11:Middlewares/LVGL/GUI/lvgl/src/extra/widgets/led/../../../../src/hal/../draw/../misc/lv_color.h **** #endif
  12:Middlewares/LVGL/GUI/lvgl/src/extra/widgets/led/../../../../src/hal/../draw/../misc/lv_color.h **** 
  13:Middlewares/LVGL/GUI/lvgl/src/extra/widgets/led/../../../../src/hal/../draw/../misc/lv_color.h **** /*********************
  14:Middlewares/LVGL/GUI/lvgl/src/extra/widgets/led/../../../../src/hal/../draw/../misc/lv_color.h ****  *      INCLUDES
  15:Middlewares/LVGL/GUI/lvgl/src/extra/widgets/led/../../../../src/hal/../draw/../misc/lv_color.h ****  *********************/
  16:Middlewares/LVGL/GUI/lvgl/src/extra/widgets/led/../../../../src/hal/../draw/../misc/lv_color.h **** #include "../lv_conf_internal.h"
  17:Middlewares/LVGL/GUI/lvgl/src/extra/widgets/led/../../../../src/hal/../draw/../misc/lv_color.h **** #include "lv_assert.h"
  18:Middlewares/LVGL/GUI/lvgl/src/extra/widgets/led/../../../../src/hal/../draw/../misc/lv_color.h **** #include "lv_math.h"
  19:Middlewares/LVGL/GUI/lvgl/src/extra/widgets/led/../../../../src/hal/../draw/../misc/lv_color.h **** #include "lv_types.h"
  20:Middlewares/LVGL/GUI/lvgl/src/extra/widgets/led/../../../../src/hal/../draw/../misc/lv_color.h **** 
  21:Middlewares/LVGL/GUI/lvgl/src/extra/widgets/led/../../../../src/hal/../draw/../misc/lv_color.h **** /*Error checking*/
  22:Middlewares/LVGL/GUI/lvgl/src/extra/widgets/led/../../../../src/hal/../draw/../misc/lv_color.h **** #if LV_COLOR_DEPTH == 24
  23:Middlewares/LVGL/GUI/lvgl/src/extra/widgets/led/../../../../src/hal/../draw/../misc/lv_color.h **** #error "LV_COLOR_DEPTH 24 is deprecated. Use LV_COLOR_DEPTH 32 instead (lv_conf.h)"
  24:Middlewares/LVGL/GUI/lvgl/src/extra/widgets/led/../../../../src/hal/../draw/../misc/lv_color.h **** #endif
  25:Middlewares/LVGL/GUI/lvgl/src/extra/widgets/led/../../../../src/hal/../draw/../misc/lv_color.h **** 
  26:Middlewares/LVGL/GUI/lvgl/src/extra/widgets/led/../../../../src/hal/../draw/../misc/lv_color.h **** #if LV_COLOR_DEPTH != 32 && LV_COLOR_SCREEN_TRANSP != 0
  27:Middlewares/LVGL/GUI/lvgl/src/extra/widgets/led/../../../../src/hal/../draw/../misc/lv_color.h **** #error "LV_COLOR_SCREEN_TRANSP requires LV_COLOR_DEPTH == 32. Set it in lv_conf.h"
  28:Middlewares/LVGL/GUI/lvgl/src/extra/widgets/led/../../../../src/hal/../draw/../misc/lv_color.h **** #endif
  29:Middlewares/LVGL/GUI/lvgl/src/extra/widgets/led/../../../../src/hal/../draw/../misc/lv_color.h **** 
  30:Middlewares/LVGL/GUI/lvgl/src/extra/widgets/led/../../../../src/hal/../draw/../misc/lv_color.h **** #if LV_COLOR_DEPTH != 16 && LV_COLOR_16_SWAP != 0
  31:Middlewares/LVGL/GUI/lvgl/src/extra/widgets/led/../../../../src/hal/../draw/../misc/lv_color.h **** #error "LV_COLOR_16_SWAP requires LV_COLOR_DEPTH == 16. Set it in lv_conf.h"
  32:Middlewares/LVGL/GUI/lvgl/src/extra/widgets/led/../../../../src/hal/../draw/../misc/lv_color.h **** #endif
  33:Middlewares/LVGL/GUI/lvgl/src/extra/widgets/led/../../../../src/hal/../draw/../misc/lv_color.h **** 
  34:Middlewares/LVGL/GUI/lvgl/src/extra/widgets/led/../../../../src/hal/../draw/../misc/lv_color.h **** #include <stdint.h>
  35:Middlewares/LVGL/GUI/lvgl/src/extra/widgets/led/../../../../src/hal/../draw/../misc/lv_color.h **** 
  36:Middlewares/LVGL/GUI/lvgl/src/extra/widgets/led/../../../../src/hal/../draw/../misc/lv_color.h **** /*********************
  37:Middlewares/LVGL/GUI/lvgl/src/extra/widgets/led/../../../../src/hal/../draw/../misc/lv_color.h ****  *      DEFINES
  38:Middlewares/LVGL/GUI/lvgl/src/extra/widgets/led/../../../../src/hal/../draw/../misc/lv_color.h ****  *********************/
  39:Middlewares/LVGL/GUI/lvgl/src/extra/widgets/led/../../../../src/hal/../draw/../misc/lv_color.h **** LV_EXPORT_CONST_INT(LV_COLOR_DEPTH);
  40:Middlewares/LVGL/GUI/lvgl/src/extra/widgets/led/../../../../src/hal/../draw/../misc/lv_color.h **** LV_EXPORT_CONST_INT(LV_COLOR_16_SWAP);
  41:Middlewares/LVGL/GUI/lvgl/src/extra/widgets/led/../../../../src/hal/../draw/../misc/lv_color.h **** 
  42:Middlewares/LVGL/GUI/lvgl/src/extra/widgets/led/../../../../src/hal/../draw/../misc/lv_color.h **** /**
  43:Middlewares/LVGL/GUI/lvgl/src/extra/widgets/led/../../../../src/hal/../draw/../misc/lv_color.h ****  * Opacity percentages.
  44:Middlewares/LVGL/GUI/lvgl/src/extra/widgets/led/../../../../src/hal/../draw/../misc/lv_color.h ****  */
  45:Middlewares/LVGL/GUI/lvgl/src/extra/widgets/led/../../../../src/hal/../draw/../misc/lv_color.h **** enum {
  46:Middlewares/LVGL/GUI/lvgl/src/extra/widgets/led/../../../../src/hal/../draw/../misc/lv_color.h ****     LV_OPA_TRANSP = 0,
  47:Middlewares/LVGL/GUI/lvgl/src/extra/widgets/led/../../../../src/hal/../draw/../misc/lv_color.h ****     LV_OPA_0      = 0,
  48:Middlewares/LVGL/GUI/lvgl/src/extra/widgets/led/../../../../src/hal/../draw/../misc/lv_color.h ****     LV_OPA_10     = 25,
  49:Middlewares/LVGL/GUI/lvgl/src/extra/widgets/led/../../../../src/hal/../draw/../misc/lv_color.h ****     LV_OPA_20     = 51,
  50:Middlewares/LVGL/GUI/lvgl/src/extra/widgets/led/../../../../src/hal/../draw/../misc/lv_color.h ****     LV_OPA_30     = 76,
  51:Middlewares/LVGL/GUI/lvgl/src/extra/widgets/led/../../../../src/hal/../draw/../misc/lv_color.h ****     LV_OPA_40     = 102,
  52:Middlewares/LVGL/GUI/lvgl/src/extra/widgets/led/../../../../src/hal/../draw/../misc/lv_color.h ****     LV_OPA_50     = 127,
  53:Middlewares/LVGL/GUI/lvgl/src/extra/widgets/led/../../../../src/hal/../draw/../misc/lv_color.h ****     LV_OPA_60     = 153,
  54:Middlewares/LVGL/GUI/lvgl/src/extra/widgets/led/../../../../src/hal/../draw/../misc/lv_color.h ****     LV_OPA_70     = 178,
  55:Middlewares/LVGL/GUI/lvgl/src/extra/widgets/led/../../../../src/hal/../draw/../misc/lv_color.h ****     LV_OPA_80     = 204,
  56:Middlewares/LVGL/GUI/lvgl/src/extra/widgets/led/../../../../src/hal/../draw/../misc/lv_color.h ****     LV_OPA_90     = 229,
  57:Middlewares/LVGL/GUI/lvgl/src/extra/widgets/led/../../../../src/hal/../draw/../misc/lv_color.h ****     LV_OPA_100    = 255,
  58:Middlewares/LVGL/GUI/lvgl/src/extra/widgets/led/../../../../src/hal/../draw/../misc/lv_color.h ****     LV_OPA_COVER  = 255,
  59:Middlewares/LVGL/GUI/lvgl/src/extra/widgets/led/../../../../src/hal/../draw/../misc/lv_color.h **** };
  60:Middlewares/LVGL/GUI/lvgl/src/extra/widgets/led/../../../../src/hal/../draw/../misc/lv_color.h **** 
  61:Middlewares/LVGL/GUI/lvgl/src/extra/widgets/led/../../../../src/hal/../draw/../misc/lv_color.h **** #define LV_OPA_MIN 2    /*Opacities below this will be transparent*/
  62:Middlewares/LVGL/GUI/lvgl/src/extra/widgets/led/../../../../src/hal/../draw/../misc/lv_color.h **** #define LV_OPA_MAX 253  /*Opacities above this will fully cover*/
  63:Middlewares/LVGL/GUI/lvgl/src/extra/widgets/led/../../../../src/hal/../draw/../misc/lv_color.h **** 
  64:Middlewares/LVGL/GUI/lvgl/src/extra/widgets/led/../../../../src/hal/../draw/../misc/lv_color.h **** #if LV_COLOR_DEPTH == 1
  65:Middlewares/LVGL/GUI/lvgl/src/extra/widgets/led/../../../../src/hal/../draw/../misc/lv_color.h **** #define LV_COLOR_SIZE 8
  66:Middlewares/LVGL/GUI/lvgl/src/extra/widgets/led/../../../../src/hal/../draw/../misc/lv_color.h **** #elif LV_COLOR_DEPTH == 8
  67:Middlewares/LVGL/GUI/lvgl/src/extra/widgets/led/../../../../src/hal/../draw/../misc/lv_color.h **** #define LV_COLOR_SIZE 8
ARM GAS  C:\Users\ADMINI~1\AppData\Local\Temp\ccD0EkwD.s 			page 9


  68:Middlewares/LVGL/GUI/lvgl/src/extra/widgets/led/../../../../src/hal/../draw/../misc/lv_color.h **** #elif LV_COLOR_DEPTH == 16
  69:Middlewares/LVGL/GUI/lvgl/src/extra/widgets/led/../../../../src/hal/../draw/../misc/lv_color.h **** #define LV_COLOR_SIZE 16
  70:Middlewares/LVGL/GUI/lvgl/src/extra/widgets/led/../../../../src/hal/../draw/../misc/lv_color.h **** #elif LV_COLOR_DEPTH == 32
  71:Middlewares/LVGL/GUI/lvgl/src/extra/widgets/led/../../../../src/hal/../draw/../misc/lv_color.h **** #define LV_COLOR_SIZE 32
  72:Middlewares/LVGL/GUI/lvgl/src/extra/widgets/led/../../../../src/hal/../draw/../misc/lv_color.h **** #else
  73:Middlewares/LVGL/GUI/lvgl/src/extra/widgets/led/../../../../src/hal/../draw/../misc/lv_color.h **** #error "Invalid LV_COLOR_DEPTH in lv_conf.h! Set it to 1, 8, 16 or 32!"
  74:Middlewares/LVGL/GUI/lvgl/src/extra/widgets/led/../../../../src/hal/../draw/../misc/lv_color.h **** #endif
  75:Middlewares/LVGL/GUI/lvgl/src/extra/widgets/led/../../../../src/hal/../draw/../misc/lv_color.h **** 
  76:Middlewares/LVGL/GUI/lvgl/src/extra/widgets/led/../../../../src/hal/../draw/../misc/lv_color.h **** #if defined(__cplusplus) && !defined(_LV_COLOR_HAS_MODERN_CPP)
  77:Middlewares/LVGL/GUI/lvgl/src/extra/widgets/led/../../../../src/hal/../draw/../misc/lv_color.h **** /**
  78:Middlewares/LVGL/GUI/lvgl/src/extra/widgets/led/../../../../src/hal/../draw/../misc/lv_color.h **** * MSVC compiler's definition of the __cplusplus indicating 199711L regardless to C++ standard versi
  79:Middlewares/LVGL/GUI/lvgl/src/extra/widgets/led/../../../../src/hal/../draw/../misc/lv_color.h **** * see https://devblogs.microsoft.com/cppblog/msvc-now-correctly-reports-cplusplus
  80:Middlewares/LVGL/GUI/lvgl/src/extra/widgets/led/../../../../src/hal/../draw/../misc/lv_color.h **** * so we use _MSC_VER macro instead of __cplusplus
  81:Middlewares/LVGL/GUI/lvgl/src/extra/widgets/led/../../../../src/hal/../draw/../misc/lv_color.h **** */
  82:Middlewares/LVGL/GUI/lvgl/src/extra/widgets/led/../../../../src/hal/../draw/../misc/lv_color.h **** #ifdef _MSC_VER
  83:Middlewares/LVGL/GUI/lvgl/src/extra/widgets/led/../../../../src/hal/../draw/../misc/lv_color.h **** #if _MSC_VER >= 1900 /*Visual Studio 2015*/
  84:Middlewares/LVGL/GUI/lvgl/src/extra/widgets/led/../../../../src/hal/../draw/../misc/lv_color.h **** #define _LV_COLOR_HAS_MODERN_CPP 1
  85:Middlewares/LVGL/GUI/lvgl/src/extra/widgets/led/../../../../src/hal/../draw/../misc/lv_color.h **** #endif
  86:Middlewares/LVGL/GUI/lvgl/src/extra/widgets/led/../../../../src/hal/../draw/../misc/lv_color.h **** #else
  87:Middlewares/LVGL/GUI/lvgl/src/extra/widgets/led/../../../../src/hal/../draw/../misc/lv_color.h **** #if __cplusplus >= 201103L
  88:Middlewares/LVGL/GUI/lvgl/src/extra/widgets/led/../../../../src/hal/../draw/../misc/lv_color.h **** #define _LV_COLOR_HAS_MODERN_CPP 1
  89:Middlewares/LVGL/GUI/lvgl/src/extra/widgets/led/../../../../src/hal/../draw/../misc/lv_color.h **** #endif
  90:Middlewares/LVGL/GUI/lvgl/src/extra/widgets/led/../../../../src/hal/../draw/../misc/lv_color.h **** #endif
  91:Middlewares/LVGL/GUI/lvgl/src/extra/widgets/led/../../../../src/hal/../draw/../misc/lv_color.h **** #endif /*__cplusplus*/
  92:Middlewares/LVGL/GUI/lvgl/src/extra/widgets/led/../../../../src/hal/../draw/../misc/lv_color.h **** 
  93:Middlewares/LVGL/GUI/lvgl/src/extra/widgets/led/../../../../src/hal/../draw/../misc/lv_color.h **** #ifndef _LV_COLOR_HAS_MODERN_CPP
  94:Middlewares/LVGL/GUI/lvgl/src/extra/widgets/led/../../../../src/hal/../draw/../misc/lv_color.h **** #define _LV_COLOR_HAS_MODERN_CPP 0
  95:Middlewares/LVGL/GUI/lvgl/src/extra/widgets/led/../../../../src/hal/../draw/../misc/lv_color.h **** #endif
  96:Middlewares/LVGL/GUI/lvgl/src/extra/widgets/led/../../../../src/hal/../draw/../misc/lv_color.h **** 
  97:Middlewares/LVGL/GUI/lvgl/src/extra/widgets/led/../../../../src/hal/../draw/../misc/lv_color.h **** #if _LV_COLOR_HAS_MODERN_CPP
  98:Middlewares/LVGL/GUI/lvgl/src/extra/widgets/led/../../../../src/hal/../draw/../misc/lv_color.h **** /*Fix msvc compiler error C4576 inside C++ code*/
  99:Middlewares/LVGL/GUI/lvgl/src/extra/widgets/led/../../../../src/hal/../draw/../misc/lv_color.h **** #define _LV_COLOR_MAKE_TYPE_HELPER lv_color_t
 100:Middlewares/LVGL/GUI/lvgl/src/extra/widgets/led/../../../../src/hal/../draw/../misc/lv_color.h **** #else
 101:Middlewares/LVGL/GUI/lvgl/src/extra/widgets/led/../../../../src/hal/../draw/../misc/lv_color.h **** #define _LV_COLOR_MAKE_TYPE_HELPER (lv_color_t)
 102:Middlewares/LVGL/GUI/lvgl/src/extra/widgets/led/../../../../src/hal/../draw/../misc/lv_color.h **** #endif
 103:Middlewares/LVGL/GUI/lvgl/src/extra/widgets/led/../../../../src/hal/../draw/../misc/lv_color.h **** 
 104:Middlewares/LVGL/GUI/lvgl/src/extra/widgets/led/../../../../src/hal/../draw/../misc/lv_color.h **** /*---------------------------------------
 105:Middlewares/LVGL/GUI/lvgl/src/extra/widgets/led/../../../../src/hal/../draw/../misc/lv_color.h ****  * Macros for all existing color depths
 106:Middlewares/LVGL/GUI/lvgl/src/extra/widgets/led/../../../../src/hal/../draw/../misc/lv_color.h ****  * to set/get values of the color channels
 107:Middlewares/LVGL/GUI/lvgl/src/extra/widgets/led/../../../../src/hal/../draw/../misc/lv_color.h ****  *------------------------------------------*/
 108:Middlewares/LVGL/GUI/lvgl/src/extra/widgets/led/../../../../src/hal/../draw/../misc/lv_color.h **** # define LV_COLOR_SET_R1(c, v) (c).ch.red = (uint8_t)((v) & 0x1)
 109:Middlewares/LVGL/GUI/lvgl/src/extra/widgets/led/../../../../src/hal/../draw/../misc/lv_color.h **** # define LV_COLOR_SET_G1(c, v) (c).ch.green = (uint8_t)((v) & 0x1)
 110:Middlewares/LVGL/GUI/lvgl/src/extra/widgets/led/../../../../src/hal/../draw/../misc/lv_color.h **** # define LV_COLOR_SET_B1(c, v) (c).ch.blue = (uint8_t)((v) & 0x1)
 111:Middlewares/LVGL/GUI/lvgl/src/extra/widgets/led/../../../../src/hal/../draw/../misc/lv_color.h **** # define LV_COLOR_SET_A1(c, v) do {} while(0)
 112:Middlewares/LVGL/GUI/lvgl/src/extra/widgets/led/../../../../src/hal/../draw/../misc/lv_color.h **** 
 113:Middlewares/LVGL/GUI/lvgl/src/extra/widgets/led/../../../../src/hal/../draw/../misc/lv_color.h **** # define LV_COLOR_GET_R1(c) (c).ch.red
 114:Middlewares/LVGL/GUI/lvgl/src/extra/widgets/led/../../../../src/hal/../draw/../misc/lv_color.h **** # define LV_COLOR_GET_G1(c) (c).ch.green
 115:Middlewares/LVGL/GUI/lvgl/src/extra/widgets/led/../../../../src/hal/../draw/../misc/lv_color.h **** # define LV_COLOR_GET_B1(c) (c).ch.blue
 116:Middlewares/LVGL/GUI/lvgl/src/extra/widgets/led/../../../../src/hal/../draw/../misc/lv_color.h **** # define LV_COLOR_GET_A1(c) 0xFF
 117:Middlewares/LVGL/GUI/lvgl/src/extra/widgets/led/../../../../src/hal/../draw/../misc/lv_color.h **** 
 118:Middlewares/LVGL/GUI/lvgl/src/extra/widgets/led/../../../../src/hal/../draw/../misc/lv_color.h **** # define _LV_COLOR_ZERO_INITIALIZER1 {0x00}
 119:Middlewares/LVGL/GUI/lvgl/src/extra/widgets/led/../../../../src/hal/../draw/../misc/lv_color.h **** # define LV_COLOR_MAKE1(r8, g8, b8)  {(uint8_t)((b8 >> 7) | (g8 >> 7) | (r8 >> 7))}
 120:Middlewares/LVGL/GUI/lvgl/src/extra/widgets/led/../../../../src/hal/../draw/../misc/lv_color.h **** 
 121:Middlewares/LVGL/GUI/lvgl/src/extra/widgets/led/../../../../src/hal/../draw/../misc/lv_color.h **** # define LV_COLOR_SET_R8(c, v) (c).ch.red = (uint8_t)((v) & 0x7U)
 122:Middlewares/LVGL/GUI/lvgl/src/extra/widgets/led/../../../../src/hal/../draw/../misc/lv_color.h **** # define LV_COLOR_SET_G8(c, v) (c).ch.green = (uint8_t)((v) & 0x7U)
 123:Middlewares/LVGL/GUI/lvgl/src/extra/widgets/led/../../../../src/hal/../draw/../misc/lv_color.h **** # define LV_COLOR_SET_B8(c, v) (c).ch.blue = (uint8_t)((v) & 0x3U)
 124:Middlewares/LVGL/GUI/lvgl/src/extra/widgets/led/../../../../src/hal/../draw/../misc/lv_color.h **** # define LV_COLOR_SET_A8(c, v) do {} while(0)
ARM GAS  C:\Users\ADMINI~1\AppData\Local\Temp\ccD0EkwD.s 			page 10


 125:Middlewares/LVGL/GUI/lvgl/src/extra/widgets/led/../../../../src/hal/../draw/../misc/lv_color.h **** 
 126:Middlewares/LVGL/GUI/lvgl/src/extra/widgets/led/../../../../src/hal/../draw/../misc/lv_color.h **** # define LV_COLOR_GET_R8(c) (c).ch.red
 127:Middlewares/LVGL/GUI/lvgl/src/extra/widgets/led/../../../../src/hal/../draw/../misc/lv_color.h **** # define LV_COLOR_GET_G8(c) (c).ch.green
 128:Middlewares/LVGL/GUI/lvgl/src/extra/widgets/led/../../../../src/hal/../draw/../misc/lv_color.h **** # define LV_COLOR_GET_B8(c) (c).ch.blue
 129:Middlewares/LVGL/GUI/lvgl/src/extra/widgets/led/../../../../src/hal/../draw/../misc/lv_color.h **** # define LV_COLOR_GET_A8(c) 0xFF
 130:Middlewares/LVGL/GUI/lvgl/src/extra/widgets/led/../../../../src/hal/../draw/../misc/lv_color.h **** 
 131:Middlewares/LVGL/GUI/lvgl/src/extra/widgets/led/../../../../src/hal/../draw/../misc/lv_color.h **** # define _LV_COLOR_ZERO_INITIALIZER8 {{0x00, 0x00, 0x00}}
 132:Middlewares/LVGL/GUI/lvgl/src/extra/widgets/led/../../../../src/hal/../draw/../misc/lv_color.h **** # define LV_COLOR_MAKE8(r8, g8, b8) {{(uint8_t)((b8 >> 6) & 0x3U), (uint8_t)((g8 >> 5) & 0x7U), (ui
 133:Middlewares/LVGL/GUI/lvgl/src/extra/widgets/led/../../../../src/hal/../draw/../misc/lv_color.h **** 
 134:Middlewares/LVGL/GUI/lvgl/src/extra/widgets/led/../../../../src/hal/../draw/../misc/lv_color.h **** # define LV_COLOR_SET_R16(c, v) (c).ch.red = (uint8_t)((v) & 0x1FU)
 135:Middlewares/LVGL/GUI/lvgl/src/extra/widgets/led/../../../../src/hal/../draw/../misc/lv_color.h **** #if LV_COLOR_16_SWAP == 0
 136:Middlewares/LVGL/GUI/lvgl/src/extra/widgets/led/../../../../src/hal/../draw/../misc/lv_color.h **** # define LV_COLOR_SET_G16(c, v) (c).ch.green = (uint8_t)((v) & 0x3FU)
 137:Middlewares/LVGL/GUI/lvgl/src/extra/widgets/led/../../../../src/hal/../draw/../misc/lv_color.h **** #else
 138:Middlewares/LVGL/GUI/lvgl/src/extra/widgets/led/../../../../src/hal/../draw/../misc/lv_color.h **** # define LV_COLOR_SET_G16(c, v) {(c).ch.green_h = (uint8_t)(((v) >> 3) & 0x7); (c).ch.green_l = (ui
 139:Middlewares/LVGL/GUI/lvgl/src/extra/widgets/led/../../../../src/hal/../draw/../misc/lv_color.h **** #endif
 140:Middlewares/LVGL/GUI/lvgl/src/extra/widgets/led/../../../../src/hal/../draw/../misc/lv_color.h **** # define LV_COLOR_SET_B16(c, v) (c).ch.blue = (uint8_t)((v) & 0x1FU)
 141:Middlewares/LVGL/GUI/lvgl/src/extra/widgets/led/../../../../src/hal/../draw/../misc/lv_color.h **** # define LV_COLOR_SET_A16(c, v) do {} while(0)
 142:Middlewares/LVGL/GUI/lvgl/src/extra/widgets/led/../../../../src/hal/../draw/../misc/lv_color.h **** 
 143:Middlewares/LVGL/GUI/lvgl/src/extra/widgets/led/../../../../src/hal/../draw/../misc/lv_color.h **** # define LV_COLOR_GET_R16(c) (c).ch.red
 144:Middlewares/LVGL/GUI/lvgl/src/extra/widgets/led/../../../../src/hal/../draw/../misc/lv_color.h **** #if LV_COLOR_16_SWAP == 0
 145:Middlewares/LVGL/GUI/lvgl/src/extra/widgets/led/../../../../src/hal/../draw/../misc/lv_color.h **** # define LV_COLOR_GET_G16(c) (c).ch.green
 146:Middlewares/LVGL/GUI/lvgl/src/extra/widgets/led/../../../../src/hal/../draw/../misc/lv_color.h **** #else
 147:Middlewares/LVGL/GUI/lvgl/src/extra/widgets/led/../../../../src/hal/../draw/../misc/lv_color.h **** # define LV_COLOR_GET_G16(c) (((c).ch.green_h << 3) + (c).ch.green_l)
 148:Middlewares/LVGL/GUI/lvgl/src/extra/widgets/led/../../../../src/hal/../draw/../misc/lv_color.h **** #endif
 149:Middlewares/LVGL/GUI/lvgl/src/extra/widgets/led/../../../../src/hal/../draw/../misc/lv_color.h **** # define LV_COLOR_GET_B16(c) (c).ch.blue
 150:Middlewares/LVGL/GUI/lvgl/src/extra/widgets/led/../../../../src/hal/../draw/../misc/lv_color.h **** # define LV_COLOR_GET_A16(c) 0xFF
 151:Middlewares/LVGL/GUI/lvgl/src/extra/widgets/led/../../../../src/hal/../draw/../misc/lv_color.h **** 
 152:Middlewares/LVGL/GUI/lvgl/src/extra/widgets/led/../../../../src/hal/../draw/../misc/lv_color.h **** #if LV_COLOR_16_SWAP == 0
 153:Middlewares/LVGL/GUI/lvgl/src/extra/widgets/led/../../../../src/hal/../draw/../misc/lv_color.h **** # define _LV_COLOR_ZERO_INITIALIZER16  {{0x00, 0x00, 0x00}}
 154:Middlewares/LVGL/GUI/lvgl/src/extra/widgets/led/../../../../src/hal/../draw/../misc/lv_color.h **** # define LV_COLOR_MAKE16(r8, g8, b8) {{(uint8_t)((b8 >> 3) & 0x1FU), (uint8_t)((g8 >> 2) & 0x3FU), 
 155:Middlewares/LVGL/GUI/lvgl/src/extra/widgets/led/../../../../src/hal/../draw/../misc/lv_color.h **** #else
 156:Middlewares/LVGL/GUI/lvgl/src/extra/widgets/led/../../../../src/hal/../draw/../misc/lv_color.h **** # define _LV_COLOR_ZERO_INITIALIZER16 {{0x00, 0x00, 0x00, 0x00}}
 157:Middlewares/LVGL/GUI/lvgl/src/extra/widgets/led/../../../../src/hal/../draw/../misc/lv_color.h **** # define LV_COLOR_MAKE16(r8, g8, b8) {{(uint8_t)((g8 >> 5) & 0x7U), (uint8_t)((r8 >> 3) & 0x1FU), (
 158:Middlewares/LVGL/GUI/lvgl/src/extra/widgets/led/../../../../src/hal/../draw/../misc/lv_color.h **** #endif
 159:Middlewares/LVGL/GUI/lvgl/src/extra/widgets/led/../../../../src/hal/../draw/../misc/lv_color.h **** 
 160:Middlewares/LVGL/GUI/lvgl/src/extra/widgets/led/../../../../src/hal/../draw/../misc/lv_color.h **** # define LV_COLOR_SET_R32(c, v) (c).ch.red = (uint8_t)((v) & 0xFF)
 161:Middlewares/LVGL/GUI/lvgl/src/extra/widgets/led/../../../../src/hal/../draw/../misc/lv_color.h **** # define LV_COLOR_SET_G32(c, v) (c).ch.green = (uint8_t)((v) & 0xFF)
 162:Middlewares/LVGL/GUI/lvgl/src/extra/widgets/led/../../../../src/hal/../draw/../misc/lv_color.h **** # define LV_COLOR_SET_B32(c, v) (c).ch.blue = (uint8_t)((v) & 0xFF)
 163:Middlewares/LVGL/GUI/lvgl/src/extra/widgets/led/../../../../src/hal/../draw/../misc/lv_color.h **** # define LV_COLOR_SET_A32(c, v) (c).ch.alpha = (uint8_t)((v) & 0xFF)
 164:Middlewares/LVGL/GUI/lvgl/src/extra/widgets/led/../../../../src/hal/../draw/../misc/lv_color.h **** 
 165:Middlewares/LVGL/GUI/lvgl/src/extra/widgets/led/../../../../src/hal/../draw/../misc/lv_color.h **** # define LV_COLOR_GET_R32(c) (c).ch.red
 166:Middlewares/LVGL/GUI/lvgl/src/extra/widgets/led/../../../../src/hal/../draw/../misc/lv_color.h **** # define LV_COLOR_GET_G32(c) (c).ch.green
 167:Middlewares/LVGL/GUI/lvgl/src/extra/widgets/led/../../../../src/hal/../draw/../misc/lv_color.h **** # define LV_COLOR_GET_B32(c) (c).ch.blue
 168:Middlewares/LVGL/GUI/lvgl/src/extra/widgets/led/../../../../src/hal/../draw/../misc/lv_color.h **** # define LV_COLOR_GET_A32(c) (c).ch.alpha
 169:Middlewares/LVGL/GUI/lvgl/src/extra/widgets/led/../../../../src/hal/../draw/../misc/lv_color.h **** 
 170:Middlewares/LVGL/GUI/lvgl/src/extra/widgets/led/../../../../src/hal/../draw/../misc/lv_color.h **** # define _LV_COLOR_ZERO_INITIALIZER32  {{0x00, 0x00, 0x00, 0x00}}
 171:Middlewares/LVGL/GUI/lvgl/src/extra/widgets/led/../../../../src/hal/../draw/../misc/lv_color.h **** # define LV_COLOR_MAKE32(r8, g8, b8) {{b8, g8, r8, 0xff}} /*Fix 0xff alpha*/
 172:Middlewares/LVGL/GUI/lvgl/src/extra/widgets/led/../../../../src/hal/../draw/../misc/lv_color.h **** 
 173:Middlewares/LVGL/GUI/lvgl/src/extra/widgets/led/../../../../src/hal/../draw/../misc/lv_color.h **** /*---------------------------------------
 174:Middlewares/LVGL/GUI/lvgl/src/extra/widgets/led/../../../../src/hal/../draw/../misc/lv_color.h ****  * Macros for the current color depth
 175:Middlewares/LVGL/GUI/lvgl/src/extra/widgets/led/../../../../src/hal/../draw/../misc/lv_color.h ****  * to set/get values of the color channels
 176:Middlewares/LVGL/GUI/lvgl/src/extra/widgets/led/../../../../src/hal/../draw/../misc/lv_color.h ****  *------------------------------------------*/
 177:Middlewares/LVGL/GUI/lvgl/src/extra/widgets/led/../../../../src/hal/../draw/../misc/lv_color.h **** #define LV_COLOR_SET_R(c, v) LV_CONCAT(LV_COLOR_SET_R, LV_COLOR_DEPTH)(c, v)
 178:Middlewares/LVGL/GUI/lvgl/src/extra/widgets/led/../../../../src/hal/../draw/../misc/lv_color.h **** #define LV_COLOR_SET_G(c, v) LV_CONCAT(LV_COLOR_SET_G, LV_COLOR_DEPTH)(c, v)
 179:Middlewares/LVGL/GUI/lvgl/src/extra/widgets/led/../../../../src/hal/../draw/../misc/lv_color.h **** #define LV_COLOR_SET_B(c, v) LV_CONCAT(LV_COLOR_SET_B, LV_COLOR_DEPTH)(c, v)
 180:Middlewares/LVGL/GUI/lvgl/src/extra/widgets/led/../../../../src/hal/../draw/../misc/lv_color.h **** #define LV_COLOR_SET_A(c, v) LV_CONCAT(LV_COLOR_SET_A, LV_COLOR_DEPTH)(c, v)
 181:Middlewares/LVGL/GUI/lvgl/src/extra/widgets/led/../../../../src/hal/../draw/../misc/lv_color.h **** 
ARM GAS  C:\Users\ADMINI~1\AppData\Local\Temp\ccD0EkwD.s 			page 11


 182:Middlewares/LVGL/GUI/lvgl/src/extra/widgets/led/../../../../src/hal/../draw/../misc/lv_color.h **** #define LV_COLOR_GET_R(c) LV_CONCAT(LV_COLOR_GET_R, LV_COLOR_DEPTH)(c)
 183:Middlewares/LVGL/GUI/lvgl/src/extra/widgets/led/../../../../src/hal/../draw/../misc/lv_color.h **** #define LV_COLOR_GET_G(c) LV_CONCAT(LV_COLOR_GET_G, LV_COLOR_DEPTH)(c)
 184:Middlewares/LVGL/GUI/lvgl/src/extra/widgets/led/../../../../src/hal/../draw/../misc/lv_color.h **** #define LV_COLOR_GET_B(c) LV_CONCAT(LV_COLOR_GET_B, LV_COLOR_DEPTH)(c)
 185:Middlewares/LVGL/GUI/lvgl/src/extra/widgets/led/../../../../src/hal/../draw/../misc/lv_color.h **** #define LV_COLOR_GET_A(c) LV_CONCAT(LV_COLOR_GET_A, LV_COLOR_DEPTH)(c)
 186:Middlewares/LVGL/GUI/lvgl/src/extra/widgets/led/../../../../src/hal/../draw/../misc/lv_color.h **** 
 187:Middlewares/LVGL/GUI/lvgl/src/extra/widgets/led/../../../../src/hal/../draw/../misc/lv_color.h **** #define _LV_COLOR_ZERO_INITIALIZER LV_CONCAT(_LV_COLOR_ZERO_INITIALIZER, LV_COLOR_DEPTH)
 188:Middlewares/LVGL/GUI/lvgl/src/extra/widgets/led/../../../../src/hal/../draw/../misc/lv_color.h **** #define LV_COLOR_MAKE(r8, g8, b8) LV_CONCAT(LV_COLOR_MAKE, LV_COLOR_DEPTH)(r8, g8, b8)
 189:Middlewares/LVGL/GUI/lvgl/src/extra/widgets/led/../../../../src/hal/../draw/../misc/lv_color.h **** 
 190:Middlewares/LVGL/GUI/lvgl/src/extra/widgets/led/../../../../src/hal/../draw/../misc/lv_color.h **** /**********************
 191:Middlewares/LVGL/GUI/lvgl/src/extra/widgets/led/../../../../src/hal/../draw/../misc/lv_color.h ****  *      TYPEDEFS
 192:Middlewares/LVGL/GUI/lvgl/src/extra/widgets/led/../../../../src/hal/../draw/../misc/lv_color.h ****  **********************/
 193:Middlewares/LVGL/GUI/lvgl/src/extra/widgets/led/../../../../src/hal/../draw/../misc/lv_color.h **** 
 194:Middlewares/LVGL/GUI/lvgl/src/extra/widgets/led/../../../../src/hal/../draw/../misc/lv_color.h **** typedef union {
 195:Middlewares/LVGL/GUI/lvgl/src/extra/widgets/led/../../../../src/hal/../draw/../misc/lv_color.h ****     uint8_t full; /*must be declared first to set all bits of byte via initializer list*/
 196:Middlewares/LVGL/GUI/lvgl/src/extra/widgets/led/../../../../src/hal/../draw/../misc/lv_color.h ****     union {
 197:Middlewares/LVGL/GUI/lvgl/src/extra/widgets/led/../../../../src/hal/../draw/../misc/lv_color.h ****         uint8_t blue : 1;
 198:Middlewares/LVGL/GUI/lvgl/src/extra/widgets/led/../../../../src/hal/../draw/../misc/lv_color.h ****         uint8_t green : 1;
 199:Middlewares/LVGL/GUI/lvgl/src/extra/widgets/led/../../../../src/hal/../draw/../misc/lv_color.h ****         uint8_t red : 1;
 200:Middlewares/LVGL/GUI/lvgl/src/extra/widgets/led/../../../../src/hal/../draw/../misc/lv_color.h ****     } ch;
 201:Middlewares/LVGL/GUI/lvgl/src/extra/widgets/led/../../../../src/hal/../draw/../misc/lv_color.h **** } lv_color1_t;
 202:Middlewares/LVGL/GUI/lvgl/src/extra/widgets/led/../../../../src/hal/../draw/../misc/lv_color.h **** 
 203:Middlewares/LVGL/GUI/lvgl/src/extra/widgets/led/../../../../src/hal/../draw/../misc/lv_color.h **** typedef union {
 204:Middlewares/LVGL/GUI/lvgl/src/extra/widgets/led/../../../../src/hal/../draw/../misc/lv_color.h ****     struct {
 205:Middlewares/LVGL/GUI/lvgl/src/extra/widgets/led/../../../../src/hal/../draw/../misc/lv_color.h ****         uint8_t blue : 2;
 206:Middlewares/LVGL/GUI/lvgl/src/extra/widgets/led/../../../../src/hal/../draw/../misc/lv_color.h ****         uint8_t green : 3;
 207:Middlewares/LVGL/GUI/lvgl/src/extra/widgets/led/../../../../src/hal/../draw/../misc/lv_color.h ****         uint8_t red : 3;
 208:Middlewares/LVGL/GUI/lvgl/src/extra/widgets/led/../../../../src/hal/../draw/../misc/lv_color.h ****     } ch;
 209:Middlewares/LVGL/GUI/lvgl/src/extra/widgets/led/../../../../src/hal/../draw/../misc/lv_color.h ****     uint8_t full;
 210:Middlewares/LVGL/GUI/lvgl/src/extra/widgets/led/../../../../src/hal/../draw/../misc/lv_color.h **** } lv_color8_t;
 211:Middlewares/LVGL/GUI/lvgl/src/extra/widgets/led/../../../../src/hal/../draw/../misc/lv_color.h **** 
 212:Middlewares/LVGL/GUI/lvgl/src/extra/widgets/led/../../../../src/hal/../draw/../misc/lv_color.h **** typedef union {
 213:Middlewares/LVGL/GUI/lvgl/src/extra/widgets/led/../../../../src/hal/../draw/../misc/lv_color.h ****     struct {
 214:Middlewares/LVGL/GUI/lvgl/src/extra/widgets/led/../../../../src/hal/../draw/../misc/lv_color.h **** #if LV_COLOR_16_SWAP == 0
 215:Middlewares/LVGL/GUI/lvgl/src/extra/widgets/led/../../../../src/hal/../draw/../misc/lv_color.h ****         uint16_t blue : 5;
 216:Middlewares/LVGL/GUI/lvgl/src/extra/widgets/led/../../../../src/hal/../draw/../misc/lv_color.h ****         uint16_t green : 6;
 217:Middlewares/LVGL/GUI/lvgl/src/extra/widgets/led/../../../../src/hal/../draw/../misc/lv_color.h ****         uint16_t red : 5;
 218:Middlewares/LVGL/GUI/lvgl/src/extra/widgets/led/../../../../src/hal/../draw/../misc/lv_color.h **** #else
 219:Middlewares/LVGL/GUI/lvgl/src/extra/widgets/led/../../../../src/hal/../draw/../misc/lv_color.h ****         uint16_t green_h : 3;
 220:Middlewares/LVGL/GUI/lvgl/src/extra/widgets/led/../../../../src/hal/../draw/../misc/lv_color.h ****         uint16_t red : 5;
 221:Middlewares/LVGL/GUI/lvgl/src/extra/widgets/led/../../../../src/hal/../draw/../misc/lv_color.h ****         uint16_t blue : 5;
 222:Middlewares/LVGL/GUI/lvgl/src/extra/widgets/led/../../../../src/hal/../draw/../misc/lv_color.h ****         uint16_t green_l : 3;
 223:Middlewares/LVGL/GUI/lvgl/src/extra/widgets/led/../../../../src/hal/../draw/../misc/lv_color.h **** #endif
 224:Middlewares/LVGL/GUI/lvgl/src/extra/widgets/led/../../../../src/hal/../draw/../misc/lv_color.h ****     } ch;
 225:Middlewares/LVGL/GUI/lvgl/src/extra/widgets/led/../../../../src/hal/../draw/../misc/lv_color.h ****     uint16_t full;
 226:Middlewares/LVGL/GUI/lvgl/src/extra/widgets/led/../../../../src/hal/../draw/../misc/lv_color.h **** } lv_color16_t;
 227:Middlewares/LVGL/GUI/lvgl/src/extra/widgets/led/../../../../src/hal/../draw/../misc/lv_color.h **** 
 228:Middlewares/LVGL/GUI/lvgl/src/extra/widgets/led/../../../../src/hal/../draw/../misc/lv_color.h **** typedef union {
 229:Middlewares/LVGL/GUI/lvgl/src/extra/widgets/led/../../../../src/hal/../draw/../misc/lv_color.h ****     struct {
 230:Middlewares/LVGL/GUI/lvgl/src/extra/widgets/led/../../../../src/hal/../draw/../misc/lv_color.h ****         uint8_t blue;
 231:Middlewares/LVGL/GUI/lvgl/src/extra/widgets/led/../../../../src/hal/../draw/../misc/lv_color.h ****         uint8_t green;
 232:Middlewares/LVGL/GUI/lvgl/src/extra/widgets/led/../../../../src/hal/../draw/../misc/lv_color.h ****         uint8_t red;
 233:Middlewares/LVGL/GUI/lvgl/src/extra/widgets/led/../../../../src/hal/../draw/../misc/lv_color.h ****         uint8_t alpha;
 234:Middlewares/LVGL/GUI/lvgl/src/extra/widgets/led/../../../../src/hal/../draw/../misc/lv_color.h ****     } ch;
 235:Middlewares/LVGL/GUI/lvgl/src/extra/widgets/led/../../../../src/hal/../draw/../misc/lv_color.h ****     uint32_t full;
 236:Middlewares/LVGL/GUI/lvgl/src/extra/widgets/led/../../../../src/hal/../draw/../misc/lv_color.h **** } lv_color32_t;
 237:Middlewares/LVGL/GUI/lvgl/src/extra/widgets/led/../../../../src/hal/../draw/../misc/lv_color.h **** 
 238:Middlewares/LVGL/GUI/lvgl/src/extra/widgets/led/../../../../src/hal/../draw/../misc/lv_color.h **** typedef LV_CONCAT3(uint, LV_COLOR_SIZE, _t) lv_color_int_t;
ARM GAS  C:\Users\ADMINI~1\AppData\Local\Temp\ccD0EkwD.s 			page 12


 239:Middlewares/LVGL/GUI/lvgl/src/extra/widgets/led/../../../../src/hal/../draw/../misc/lv_color.h **** typedef LV_CONCAT3(lv_color, LV_COLOR_DEPTH, _t) lv_color_t;
 240:Middlewares/LVGL/GUI/lvgl/src/extra/widgets/led/../../../../src/hal/../draw/../misc/lv_color.h **** 
 241:Middlewares/LVGL/GUI/lvgl/src/extra/widgets/led/../../../../src/hal/../draw/../misc/lv_color.h **** typedef struct {
 242:Middlewares/LVGL/GUI/lvgl/src/extra/widgets/led/../../../../src/hal/../draw/../misc/lv_color.h ****     uint16_t h;
 243:Middlewares/LVGL/GUI/lvgl/src/extra/widgets/led/../../../../src/hal/../draw/../misc/lv_color.h ****     uint8_t s;
 244:Middlewares/LVGL/GUI/lvgl/src/extra/widgets/led/../../../../src/hal/../draw/../misc/lv_color.h ****     uint8_t v;
 245:Middlewares/LVGL/GUI/lvgl/src/extra/widgets/led/../../../../src/hal/../draw/../misc/lv_color.h **** } lv_color_hsv_t;
 246:Middlewares/LVGL/GUI/lvgl/src/extra/widgets/led/../../../../src/hal/../draw/../misc/lv_color.h **** 
 247:Middlewares/LVGL/GUI/lvgl/src/extra/widgets/led/../../../../src/hal/../draw/../misc/lv_color.h **** //! @cond Doxygen_Suppress
 248:Middlewares/LVGL/GUI/lvgl/src/extra/widgets/led/../../../../src/hal/../draw/../misc/lv_color.h **** /*No idea where the guard is required but else throws warnings in the docs*/
 249:Middlewares/LVGL/GUI/lvgl/src/extra/widgets/led/../../../../src/hal/../draw/../misc/lv_color.h **** typedef uint8_t lv_opa_t;
 250:Middlewares/LVGL/GUI/lvgl/src/extra/widgets/led/../../../../src/hal/../draw/../misc/lv_color.h **** //! @endcond
 251:Middlewares/LVGL/GUI/lvgl/src/extra/widgets/led/../../../../src/hal/../draw/../misc/lv_color.h **** 
 252:Middlewares/LVGL/GUI/lvgl/src/extra/widgets/led/../../../../src/hal/../draw/../misc/lv_color.h **** struct _lv_color_filter_dsc_t;
 253:Middlewares/LVGL/GUI/lvgl/src/extra/widgets/led/../../../../src/hal/../draw/../misc/lv_color.h **** 
 254:Middlewares/LVGL/GUI/lvgl/src/extra/widgets/led/../../../../src/hal/../draw/../misc/lv_color.h **** typedef lv_color_t (*lv_color_filter_cb_t)(const struct _lv_color_filter_dsc_t *, lv_color_t, lv_op
 255:Middlewares/LVGL/GUI/lvgl/src/extra/widgets/led/../../../../src/hal/../draw/../misc/lv_color.h **** 
 256:Middlewares/LVGL/GUI/lvgl/src/extra/widgets/led/../../../../src/hal/../draw/../misc/lv_color.h **** typedef struct _lv_color_filter_dsc_t {
 257:Middlewares/LVGL/GUI/lvgl/src/extra/widgets/led/../../../../src/hal/../draw/../misc/lv_color.h ****     lv_color_filter_cb_t filter_cb;
 258:Middlewares/LVGL/GUI/lvgl/src/extra/widgets/led/../../../../src/hal/../draw/../misc/lv_color.h ****     void * user_data;
 259:Middlewares/LVGL/GUI/lvgl/src/extra/widgets/led/../../../../src/hal/../draw/../misc/lv_color.h **** } lv_color_filter_dsc_t;
 260:Middlewares/LVGL/GUI/lvgl/src/extra/widgets/led/../../../../src/hal/../draw/../misc/lv_color.h **** 
 261:Middlewares/LVGL/GUI/lvgl/src/extra/widgets/led/../../../../src/hal/../draw/../misc/lv_color.h **** 
 262:Middlewares/LVGL/GUI/lvgl/src/extra/widgets/led/../../../../src/hal/../draw/../misc/lv_color.h **** typedef enum {
 263:Middlewares/LVGL/GUI/lvgl/src/extra/widgets/led/../../../../src/hal/../draw/../misc/lv_color.h ****     LV_PALETTE_RED,
 264:Middlewares/LVGL/GUI/lvgl/src/extra/widgets/led/../../../../src/hal/../draw/../misc/lv_color.h ****     LV_PALETTE_PINK,
 265:Middlewares/LVGL/GUI/lvgl/src/extra/widgets/led/../../../../src/hal/../draw/../misc/lv_color.h ****     LV_PALETTE_PURPLE,
 266:Middlewares/LVGL/GUI/lvgl/src/extra/widgets/led/../../../../src/hal/../draw/../misc/lv_color.h ****     LV_PALETTE_DEEP_PURPLE,
 267:Middlewares/LVGL/GUI/lvgl/src/extra/widgets/led/../../../../src/hal/../draw/../misc/lv_color.h ****     LV_PALETTE_INDIGO,
 268:Middlewares/LVGL/GUI/lvgl/src/extra/widgets/led/../../../../src/hal/../draw/../misc/lv_color.h ****     LV_PALETTE_BLUE,
 269:Middlewares/LVGL/GUI/lvgl/src/extra/widgets/led/../../../../src/hal/../draw/../misc/lv_color.h ****     LV_PALETTE_LIGHT_BLUE,
 270:Middlewares/LVGL/GUI/lvgl/src/extra/widgets/led/../../../../src/hal/../draw/../misc/lv_color.h ****     LV_PALETTE_CYAN,
 271:Middlewares/LVGL/GUI/lvgl/src/extra/widgets/led/../../../../src/hal/../draw/../misc/lv_color.h ****     LV_PALETTE_TEAL,
 272:Middlewares/LVGL/GUI/lvgl/src/extra/widgets/led/../../../../src/hal/../draw/../misc/lv_color.h ****     LV_PALETTE_GREEN,
 273:Middlewares/LVGL/GUI/lvgl/src/extra/widgets/led/../../../../src/hal/../draw/../misc/lv_color.h ****     LV_PALETTE_LIGHT_GREEN,
 274:Middlewares/LVGL/GUI/lvgl/src/extra/widgets/led/../../../../src/hal/../draw/../misc/lv_color.h ****     LV_PALETTE_LIME,
 275:Middlewares/LVGL/GUI/lvgl/src/extra/widgets/led/../../../../src/hal/../draw/../misc/lv_color.h ****     LV_PALETTE_YELLOW,
 276:Middlewares/LVGL/GUI/lvgl/src/extra/widgets/led/../../../../src/hal/../draw/../misc/lv_color.h ****     LV_PALETTE_AMBER,
 277:Middlewares/LVGL/GUI/lvgl/src/extra/widgets/led/../../../../src/hal/../draw/../misc/lv_color.h ****     LV_PALETTE_ORANGE,
 278:Middlewares/LVGL/GUI/lvgl/src/extra/widgets/led/../../../../src/hal/../draw/../misc/lv_color.h ****     LV_PALETTE_DEEP_ORANGE,
 279:Middlewares/LVGL/GUI/lvgl/src/extra/widgets/led/../../../../src/hal/../draw/../misc/lv_color.h ****     LV_PALETTE_BROWN,
 280:Middlewares/LVGL/GUI/lvgl/src/extra/widgets/led/../../../../src/hal/../draw/../misc/lv_color.h ****     LV_PALETTE_BLUE_GREY,
 281:Middlewares/LVGL/GUI/lvgl/src/extra/widgets/led/../../../../src/hal/../draw/../misc/lv_color.h ****     LV_PALETTE_GREY,
 282:Middlewares/LVGL/GUI/lvgl/src/extra/widgets/led/../../../../src/hal/../draw/../misc/lv_color.h ****     _LV_PALETTE_LAST,
 283:Middlewares/LVGL/GUI/lvgl/src/extra/widgets/led/../../../../src/hal/../draw/../misc/lv_color.h ****     LV_PALETTE_NONE = 0xff,
 284:Middlewares/LVGL/GUI/lvgl/src/extra/widgets/led/../../../../src/hal/../draw/../misc/lv_color.h **** } lv_palette_t;
 285:Middlewares/LVGL/GUI/lvgl/src/extra/widgets/led/../../../../src/hal/../draw/../misc/lv_color.h **** 
 286:Middlewares/LVGL/GUI/lvgl/src/extra/widgets/led/../../../../src/hal/../draw/../misc/lv_color.h **** /**********************
 287:Middlewares/LVGL/GUI/lvgl/src/extra/widgets/led/../../../../src/hal/../draw/../misc/lv_color.h ****  * GLOBAL PROTOTYPES
 288:Middlewares/LVGL/GUI/lvgl/src/extra/widgets/led/../../../../src/hal/../draw/../misc/lv_color.h ****  **********************/
 289:Middlewares/LVGL/GUI/lvgl/src/extra/widgets/led/../../../../src/hal/../draw/../misc/lv_color.h **** 
 290:Middlewares/LVGL/GUI/lvgl/src/extra/widgets/led/../../../../src/hal/../draw/../misc/lv_color.h **** /*In color conversations:
 291:Middlewares/LVGL/GUI/lvgl/src/extra/widgets/led/../../../../src/hal/../draw/../misc/lv_color.h ****  * - When converting to bigger color type the LSB weight of 1 LSB is calculated
 292:Middlewares/LVGL/GUI/lvgl/src/extra/widgets/led/../../../../src/hal/../draw/../misc/lv_color.h ****  *   E.g. 16 bit Red has 5 bits
 293:Middlewares/LVGL/GUI/lvgl/src/extra/widgets/led/../../../../src/hal/../draw/../misc/lv_color.h ****  *         8 bit Red has 3 bits
 294:Middlewares/LVGL/GUI/lvgl/src/extra/widgets/led/../../../../src/hal/../draw/../misc/lv_color.h ****  *        ----------------------
 295:Middlewares/LVGL/GUI/lvgl/src/extra/widgets/led/../../../../src/hal/../draw/../misc/lv_color.h ****  *        8 bit red LSB = (2^5 - 1) / (2^3 - 1) = 31 / 7 = 4
ARM GAS  C:\Users\ADMINI~1\AppData\Local\Temp\ccD0EkwD.s 			page 13


 296:Middlewares/LVGL/GUI/lvgl/src/extra/widgets/led/../../../../src/hal/../draw/../misc/lv_color.h ****  *
 297:Middlewares/LVGL/GUI/lvgl/src/extra/widgets/led/../../../../src/hal/../draw/../misc/lv_color.h ****  * - When calculating to smaller color type simply shift out the LSBs
 298:Middlewares/LVGL/GUI/lvgl/src/extra/widgets/led/../../../../src/hal/../draw/../misc/lv_color.h ****  *   E.g.  8 bit Red has 3 bits
 299:Middlewares/LVGL/GUI/lvgl/src/extra/widgets/led/../../../../src/hal/../draw/../misc/lv_color.h ****  *        16 bit Red has 5 bits
 300:Middlewares/LVGL/GUI/lvgl/src/extra/widgets/led/../../../../src/hal/../draw/../misc/lv_color.h ****  *        ----------------------
 301:Middlewares/LVGL/GUI/lvgl/src/extra/widgets/led/../../../../src/hal/../draw/../misc/lv_color.h ****  *         Shift right with 5 - 3 = 2
 302:Middlewares/LVGL/GUI/lvgl/src/extra/widgets/led/../../../../src/hal/../draw/../misc/lv_color.h ****  */
 303:Middlewares/LVGL/GUI/lvgl/src/extra/widgets/led/../../../../src/hal/../draw/../misc/lv_color.h **** static inline uint8_t lv_color_to1(lv_color_t color)
 304:Middlewares/LVGL/GUI/lvgl/src/extra/widgets/led/../../../../src/hal/../draw/../misc/lv_color.h **** {
 305:Middlewares/LVGL/GUI/lvgl/src/extra/widgets/led/../../../../src/hal/../draw/../misc/lv_color.h **** #if LV_COLOR_DEPTH == 1
 306:Middlewares/LVGL/GUI/lvgl/src/extra/widgets/led/../../../../src/hal/../draw/../misc/lv_color.h ****     return color.full;
 307:Middlewares/LVGL/GUI/lvgl/src/extra/widgets/led/../../../../src/hal/../draw/../misc/lv_color.h **** #elif LV_COLOR_DEPTH == 8
 308:Middlewares/LVGL/GUI/lvgl/src/extra/widgets/led/../../../../src/hal/../draw/../misc/lv_color.h ****     if((LV_COLOR_GET_R(color) & 0x4) || (LV_COLOR_GET_G(color) & 0x4) || (LV_COLOR_GET_B(color) & 0
 309:Middlewares/LVGL/GUI/lvgl/src/extra/widgets/led/../../../../src/hal/../draw/../misc/lv_color.h ****         return 1;
 310:Middlewares/LVGL/GUI/lvgl/src/extra/widgets/led/../../../../src/hal/../draw/../misc/lv_color.h ****     }
 311:Middlewares/LVGL/GUI/lvgl/src/extra/widgets/led/../../../../src/hal/../draw/../misc/lv_color.h ****     else {
 312:Middlewares/LVGL/GUI/lvgl/src/extra/widgets/led/../../../../src/hal/../draw/../misc/lv_color.h ****         return 0;
 313:Middlewares/LVGL/GUI/lvgl/src/extra/widgets/led/../../../../src/hal/../draw/../misc/lv_color.h ****     }
 314:Middlewares/LVGL/GUI/lvgl/src/extra/widgets/led/../../../../src/hal/../draw/../misc/lv_color.h **** #elif LV_COLOR_DEPTH == 16
 315:Middlewares/LVGL/GUI/lvgl/src/extra/widgets/led/../../../../src/hal/../draw/../misc/lv_color.h ****     if((LV_COLOR_GET_R(color) & 0x10) || (LV_COLOR_GET_G(color) & 0x20) || (LV_COLOR_GET_B(color) &
 316:Middlewares/LVGL/GUI/lvgl/src/extra/widgets/led/../../../../src/hal/../draw/../misc/lv_color.h ****         return 1;
 317:Middlewares/LVGL/GUI/lvgl/src/extra/widgets/led/../../../../src/hal/../draw/../misc/lv_color.h ****     }
 318:Middlewares/LVGL/GUI/lvgl/src/extra/widgets/led/../../../../src/hal/../draw/../misc/lv_color.h ****     else {
 319:Middlewares/LVGL/GUI/lvgl/src/extra/widgets/led/../../../../src/hal/../draw/../misc/lv_color.h ****         return 0;
 320:Middlewares/LVGL/GUI/lvgl/src/extra/widgets/led/../../../../src/hal/../draw/../misc/lv_color.h ****     }
 321:Middlewares/LVGL/GUI/lvgl/src/extra/widgets/led/../../../../src/hal/../draw/../misc/lv_color.h **** #elif LV_COLOR_DEPTH == 32
 322:Middlewares/LVGL/GUI/lvgl/src/extra/widgets/led/../../../../src/hal/../draw/../misc/lv_color.h ****     if((LV_COLOR_GET_R(color) & 0x80) || (LV_COLOR_GET_G(color) & 0x80) || (LV_COLOR_GET_B(color) &
 323:Middlewares/LVGL/GUI/lvgl/src/extra/widgets/led/../../../../src/hal/../draw/../misc/lv_color.h ****         return 1;
 324:Middlewares/LVGL/GUI/lvgl/src/extra/widgets/led/../../../../src/hal/../draw/../misc/lv_color.h ****     }
 325:Middlewares/LVGL/GUI/lvgl/src/extra/widgets/led/../../../../src/hal/../draw/../misc/lv_color.h ****     else {
 326:Middlewares/LVGL/GUI/lvgl/src/extra/widgets/led/../../../../src/hal/../draw/../misc/lv_color.h ****         return 0;
 327:Middlewares/LVGL/GUI/lvgl/src/extra/widgets/led/../../../../src/hal/../draw/../misc/lv_color.h ****     }
 328:Middlewares/LVGL/GUI/lvgl/src/extra/widgets/led/../../../../src/hal/../draw/../misc/lv_color.h **** #endif
 329:Middlewares/LVGL/GUI/lvgl/src/extra/widgets/led/../../../../src/hal/../draw/../misc/lv_color.h **** }
 330:Middlewares/LVGL/GUI/lvgl/src/extra/widgets/led/../../../../src/hal/../draw/../misc/lv_color.h **** 
 331:Middlewares/LVGL/GUI/lvgl/src/extra/widgets/led/../../../../src/hal/../draw/../misc/lv_color.h **** static inline uint8_t lv_color_to8(lv_color_t color)
 332:Middlewares/LVGL/GUI/lvgl/src/extra/widgets/led/../../../../src/hal/../draw/../misc/lv_color.h **** {
 333:Middlewares/LVGL/GUI/lvgl/src/extra/widgets/led/../../../../src/hal/../draw/../misc/lv_color.h **** #if LV_COLOR_DEPTH == 1
 334:Middlewares/LVGL/GUI/lvgl/src/extra/widgets/led/../../../../src/hal/../draw/../misc/lv_color.h ****     if(color.full == 0)
 335:Middlewares/LVGL/GUI/lvgl/src/extra/widgets/led/../../../../src/hal/../draw/../misc/lv_color.h ****         return 0;
 336:Middlewares/LVGL/GUI/lvgl/src/extra/widgets/led/../../../../src/hal/../draw/../misc/lv_color.h ****     else
 337:Middlewares/LVGL/GUI/lvgl/src/extra/widgets/led/../../../../src/hal/../draw/../misc/lv_color.h ****         return 0xFF;
 338:Middlewares/LVGL/GUI/lvgl/src/extra/widgets/led/../../../../src/hal/../draw/../misc/lv_color.h **** #elif LV_COLOR_DEPTH == 8
 339:Middlewares/LVGL/GUI/lvgl/src/extra/widgets/led/../../../../src/hal/../draw/../misc/lv_color.h ****     return color.full;
 340:Middlewares/LVGL/GUI/lvgl/src/extra/widgets/led/../../../../src/hal/../draw/../misc/lv_color.h **** #elif LV_COLOR_DEPTH == 16
 341:Middlewares/LVGL/GUI/lvgl/src/extra/widgets/led/../../../../src/hal/../draw/../misc/lv_color.h ****     lv_color8_t ret;
 342:Middlewares/LVGL/GUI/lvgl/src/extra/widgets/led/../../../../src/hal/../draw/../misc/lv_color.h ****     LV_COLOR_SET_R8(ret, LV_COLOR_GET_R(color) >> 2); /*5 - 3  = 2*/
 343:Middlewares/LVGL/GUI/lvgl/src/extra/widgets/led/../../../../src/hal/../draw/../misc/lv_color.h ****     LV_COLOR_SET_G8(ret, LV_COLOR_GET_G(color) >> 3); /*6 - 3  = 3*/
 344:Middlewares/LVGL/GUI/lvgl/src/extra/widgets/led/../../../../src/hal/../draw/../misc/lv_color.h ****     LV_COLOR_SET_B8(ret, LV_COLOR_GET_B(color) >> 3); /*5 - 2  = 3*/
 345:Middlewares/LVGL/GUI/lvgl/src/extra/widgets/led/../../../../src/hal/../draw/../misc/lv_color.h ****     return ret.full;
 346:Middlewares/LVGL/GUI/lvgl/src/extra/widgets/led/../../../../src/hal/../draw/../misc/lv_color.h **** #elif LV_COLOR_DEPTH == 32
 347:Middlewares/LVGL/GUI/lvgl/src/extra/widgets/led/../../../../src/hal/../draw/../misc/lv_color.h ****     lv_color8_t ret;
 348:Middlewares/LVGL/GUI/lvgl/src/extra/widgets/led/../../../../src/hal/../draw/../misc/lv_color.h ****     LV_COLOR_SET_R8(ret, LV_COLOR_GET_R(color) >> 5); /*8 - 3  = 5*/
 349:Middlewares/LVGL/GUI/lvgl/src/extra/widgets/led/../../../../src/hal/../draw/../misc/lv_color.h ****     LV_COLOR_SET_G8(ret, LV_COLOR_GET_G(color) >> 5); /*8 - 3  = 5*/
 350:Middlewares/LVGL/GUI/lvgl/src/extra/widgets/led/../../../../src/hal/../draw/../misc/lv_color.h ****     LV_COLOR_SET_B8(ret, LV_COLOR_GET_B(color) >> 6); /*8 - 2  = 6*/
 351:Middlewares/LVGL/GUI/lvgl/src/extra/widgets/led/../../../../src/hal/../draw/../misc/lv_color.h ****     return ret.full;
 352:Middlewares/LVGL/GUI/lvgl/src/extra/widgets/led/../../../../src/hal/../draw/../misc/lv_color.h **** #endif
ARM GAS  C:\Users\ADMINI~1\AppData\Local\Temp\ccD0EkwD.s 			page 14


 353:Middlewares/LVGL/GUI/lvgl/src/extra/widgets/led/../../../../src/hal/../draw/../misc/lv_color.h **** }
 354:Middlewares/LVGL/GUI/lvgl/src/extra/widgets/led/../../../../src/hal/../draw/../misc/lv_color.h **** 
 355:Middlewares/LVGL/GUI/lvgl/src/extra/widgets/led/../../../../src/hal/../draw/../misc/lv_color.h **** static inline uint16_t lv_color_to16(lv_color_t color)
 356:Middlewares/LVGL/GUI/lvgl/src/extra/widgets/led/../../../../src/hal/../draw/../misc/lv_color.h **** {
 357:Middlewares/LVGL/GUI/lvgl/src/extra/widgets/led/../../../../src/hal/../draw/../misc/lv_color.h **** #if LV_COLOR_DEPTH == 1
 358:Middlewares/LVGL/GUI/lvgl/src/extra/widgets/led/../../../../src/hal/../draw/../misc/lv_color.h ****     if(color.full == 0)
 359:Middlewares/LVGL/GUI/lvgl/src/extra/widgets/led/../../../../src/hal/../draw/../misc/lv_color.h ****         return 0;
 360:Middlewares/LVGL/GUI/lvgl/src/extra/widgets/led/../../../../src/hal/../draw/../misc/lv_color.h ****     else
 361:Middlewares/LVGL/GUI/lvgl/src/extra/widgets/led/../../../../src/hal/../draw/../misc/lv_color.h ****         return 0xFFFF;
 362:Middlewares/LVGL/GUI/lvgl/src/extra/widgets/led/../../../../src/hal/../draw/../misc/lv_color.h **** #elif LV_COLOR_DEPTH == 8
 363:Middlewares/LVGL/GUI/lvgl/src/extra/widgets/led/../../../../src/hal/../draw/../misc/lv_color.h ****     lv_color16_t ret;
 364:Middlewares/LVGL/GUI/lvgl/src/extra/widgets/led/../../../../src/hal/../draw/../misc/lv_color.h ****     LV_COLOR_SET_R16(ret, LV_COLOR_GET_R(color) * 4);  /*(2^5 - 1)/(2^3 - 1) = 31/7 = 4*/
 365:Middlewares/LVGL/GUI/lvgl/src/extra/widgets/led/../../../../src/hal/../draw/../misc/lv_color.h ****     LV_COLOR_SET_G16(ret, LV_COLOR_GET_G(color) * 9);  /*(2^6 - 1)/(2^3 - 1) = 63/7 = 9*/
 366:Middlewares/LVGL/GUI/lvgl/src/extra/widgets/led/../../../../src/hal/../draw/../misc/lv_color.h ****     LV_COLOR_SET_B16(ret, LV_COLOR_GET_B(color) * 10); /*(2^5 - 1)/(2^2 - 1) = 31/3 = 10*/
 367:Middlewares/LVGL/GUI/lvgl/src/extra/widgets/led/../../../../src/hal/../draw/../misc/lv_color.h ****     return ret.full;
 368:Middlewares/LVGL/GUI/lvgl/src/extra/widgets/led/../../../../src/hal/../draw/../misc/lv_color.h **** #elif LV_COLOR_DEPTH == 16
 369:Middlewares/LVGL/GUI/lvgl/src/extra/widgets/led/../../../../src/hal/../draw/../misc/lv_color.h ****     return color.full;
 370:Middlewares/LVGL/GUI/lvgl/src/extra/widgets/led/../../../../src/hal/../draw/../misc/lv_color.h **** #elif LV_COLOR_DEPTH == 32
 371:Middlewares/LVGL/GUI/lvgl/src/extra/widgets/led/../../../../src/hal/../draw/../misc/lv_color.h ****     lv_color16_t ret;
 372:Middlewares/LVGL/GUI/lvgl/src/extra/widgets/led/../../../../src/hal/../draw/../misc/lv_color.h ****     LV_COLOR_SET_R16(ret, LV_COLOR_GET_R(color) >> 3); /*8 - 5  = 3*/
 373:Middlewares/LVGL/GUI/lvgl/src/extra/widgets/led/../../../../src/hal/../draw/../misc/lv_color.h ****     LV_COLOR_SET_G16(ret, LV_COLOR_GET_G(color) >> 2); /*8 - 6  = 2*/
 374:Middlewares/LVGL/GUI/lvgl/src/extra/widgets/led/../../../../src/hal/../draw/../misc/lv_color.h ****     LV_COLOR_SET_B16(ret, LV_COLOR_GET_B(color) >> 3); /*8 - 5  = 3*/
 375:Middlewares/LVGL/GUI/lvgl/src/extra/widgets/led/../../../../src/hal/../draw/../misc/lv_color.h ****     return ret.full;
 376:Middlewares/LVGL/GUI/lvgl/src/extra/widgets/led/../../../../src/hal/../draw/../misc/lv_color.h **** #endif
 377:Middlewares/LVGL/GUI/lvgl/src/extra/widgets/led/../../../../src/hal/../draw/../misc/lv_color.h **** }
 378:Middlewares/LVGL/GUI/lvgl/src/extra/widgets/led/../../../../src/hal/../draw/../misc/lv_color.h **** 
 379:Middlewares/LVGL/GUI/lvgl/src/extra/widgets/led/../../../../src/hal/../draw/../misc/lv_color.h **** static inline uint32_t lv_color_to32(lv_color_t color)
 380:Middlewares/LVGL/GUI/lvgl/src/extra/widgets/led/../../../../src/hal/../draw/../misc/lv_color.h **** {
 381:Middlewares/LVGL/GUI/lvgl/src/extra/widgets/led/../../../../src/hal/../draw/../misc/lv_color.h **** #if LV_COLOR_DEPTH == 1
 382:Middlewares/LVGL/GUI/lvgl/src/extra/widgets/led/../../../../src/hal/../draw/../misc/lv_color.h ****     if(color.full == 0)
 383:Middlewares/LVGL/GUI/lvgl/src/extra/widgets/led/../../../../src/hal/../draw/../misc/lv_color.h ****         return 0xFF000000;
 384:Middlewares/LVGL/GUI/lvgl/src/extra/widgets/led/../../../../src/hal/../draw/../misc/lv_color.h ****     else
 385:Middlewares/LVGL/GUI/lvgl/src/extra/widgets/led/../../../../src/hal/../draw/../misc/lv_color.h ****         return 0xFFFFFFFF;
 386:Middlewares/LVGL/GUI/lvgl/src/extra/widgets/led/../../../../src/hal/../draw/../misc/lv_color.h **** #elif LV_COLOR_DEPTH == 8
 387:Middlewares/LVGL/GUI/lvgl/src/extra/widgets/led/../../../../src/hal/../draw/../misc/lv_color.h ****     lv_color32_t ret;
 388:Middlewares/LVGL/GUI/lvgl/src/extra/widgets/led/../../../../src/hal/../draw/../misc/lv_color.h ****     LV_COLOR_SET_R32(ret, LV_COLOR_GET_R(color) * 36); /*(2^8 - 1)/(2^3 - 1) = 255/7 = 36*/
 389:Middlewares/LVGL/GUI/lvgl/src/extra/widgets/led/../../../../src/hal/../draw/../misc/lv_color.h ****     LV_COLOR_SET_G32(ret, LV_COLOR_GET_G(color) * 36); /*(2^8 - 1)/(2^3 - 1) = 255/7 = 36*/
 390:Middlewares/LVGL/GUI/lvgl/src/extra/widgets/led/../../../../src/hal/../draw/../misc/lv_color.h ****     LV_COLOR_SET_B32(ret, LV_COLOR_GET_B(color) * 85); /*(2^8 - 1)/(2^2 - 1) = 255/3 = 85*/
 391:Middlewares/LVGL/GUI/lvgl/src/extra/widgets/led/../../../../src/hal/../draw/../misc/lv_color.h ****     LV_COLOR_SET_A32(ret, 0xFF);
 392:Middlewares/LVGL/GUI/lvgl/src/extra/widgets/led/../../../../src/hal/../draw/../misc/lv_color.h ****     return ret.full;
 393:Middlewares/LVGL/GUI/lvgl/src/extra/widgets/led/../../../../src/hal/../draw/../misc/lv_color.h **** #elif LV_COLOR_DEPTH == 16
 394:Middlewares/LVGL/GUI/lvgl/src/extra/widgets/led/../../../../src/hal/../draw/../misc/lv_color.h ****     /**
 395:Middlewares/LVGL/GUI/lvgl/src/extra/widgets/led/../../../../src/hal/../draw/../misc/lv_color.h ****      * The floating point math for conversion is:
 396:Middlewares/LVGL/GUI/lvgl/src/extra/widgets/led/../../../../src/hal/../draw/../misc/lv_color.h ****      *  valueto = valuefrom * ( (2^bitsto - 1) / (float)(2^bitsfrom - 1) )
 397:Middlewares/LVGL/GUI/lvgl/src/extra/widgets/led/../../../../src/hal/../draw/../misc/lv_color.h ****      * The faster integer math for conversion is:
 398:Middlewares/LVGL/GUI/lvgl/src/extra/widgets/led/../../../../src/hal/../draw/../misc/lv_color.h ****      *  valueto = ( valuefrom * multiplier + adder ) >> divisor
 399:Middlewares/LVGL/GUI/lvgl/src/extra/widgets/led/../../../../src/hal/../draw/../misc/lv_color.h ****      *   multiplier = FLOOR( ( (2^bitsto - 1) << divisor ) / (float)(2^bitsfrom - 1) )
 400:Middlewares/LVGL/GUI/lvgl/src/extra/widgets/led/../../../../src/hal/../draw/../misc/lv_color.h ****      *
 401:Middlewares/LVGL/GUI/lvgl/src/extra/widgets/led/../../../../src/hal/../draw/../misc/lv_color.h ****      * Find the first divisor where ( adder >> divisor ) <= 0
 402:Middlewares/LVGL/GUI/lvgl/src/extra/widgets/led/../../../../src/hal/../draw/../misc/lv_color.h ****      *
 403:Middlewares/LVGL/GUI/lvgl/src/extra/widgets/led/../../../../src/hal/../draw/../misc/lv_color.h ****      * 5-bit to 8-bit: ( 31 * multiplier + adder ) >> divisor = 255
 404:Middlewares/LVGL/GUI/lvgl/src/extra/widgets/led/../../../../src/hal/../draw/../misc/lv_color.h ****      * divisor  multiplier  adder  min (0)  max (31)
 405:Middlewares/LVGL/GUI/lvgl/src/extra/widgets/led/../../../../src/hal/../draw/../misc/lv_color.h ****      *       0           8      7        7       255
 406:Middlewares/LVGL/GUI/lvgl/src/extra/widgets/led/../../../../src/hal/../draw/../misc/lv_color.h ****      *       1          16     14        7       255
 407:Middlewares/LVGL/GUI/lvgl/src/extra/widgets/led/../../../../src/hal/../draw/../misc/lv_color.h ****      *       2          32     28        7       255
 408:Middlewares/LVGL/GUI/lvgl/src/extra/widgets/led/../../../../src/hal/../draw/../misc/lv_color.h ****      *       3          65     25        3       255
 409:Middlewares/LVGL/GUI/lvgl/src/extra/widgets/led/../../../../src/hal/../draw/../misc/lv_color.h ****      *       4         131     19        1       255
ARM GAS  C:\Users\ADMINI~1\AppData\Local\Temp\ccD0EkwD.s 			page 15


 410:Middlewares/LVGL/GUI/lvgl/src/extra/widgets/led/../../../../src/hal/../draw/../misc/lv_color.h ****      *       5         263      7        0       255
 411:Middlewares/LVGL/GUI/lvgl/src/extra/widgets/led/../../../../src/hal/../draw/../misc/lv_color.h ****      *
 412:Middlewares/LVGL/GUI/lvgl/src/extra/widgets/led/../../../../src/hal/../draw/../misc/lv_color.h ****      * 6-bit to 8-bit: 255 = ( 63 * multiplier + adder ) >> divisor
 413:Middlewares/LVGL/GUI/lvgl/src/extra/widgets/led/../../../../src/hal/../draw/../misc/lv_color.h ****      * divisor  multiplier  adder  min (0)  max (63)
 414:Middlewares/LVGL/GUI/lvgl/src/extra/widgets/led/../../../../src/hal/../draw/../misc/lv_color.h ****      *       0           4      3        3       255
 415:Middlewares/LVGL/GUI/lvgl/src/extra/widgets/led/../../../../src/hal/../draw/../misc/lv_color.h ****      *       1           8      6        3       255
 416:Middlewares/LVGL/GUI/lvgl/src/extra/widgets/led/../../../../src/hal/../draw/../misc/lv_color.h ****      *       2          16     12        3       255
 417:Middlewares/LVGL/GUI/lvgl/src/extra/widgets/led/../../../../src/hal/../draw/../misc/lv_color.h ****      *       3          32     24        3       255
 418:Middlewares/LVGL/GUI/lvgl/src/extra/widgets/led/../../../../src/hal/../draw/../misc/lv_color.h ****      *       4          64     48        3       255
 419:Middlewares/LVGL/GUI/lvgl/src/extra/widgets/led/../../../../src/hal/../draw/../misc/lv_color.h ****      *       5         129     33        1       255
 420:Middlewares/LVGL/GUI/lvgl/src/extra/widgets/led/../../../../src/hal/../draw/../misc/lv_color.h ****      *       6         259      3        0       255
 421:Middlewares/LVGL/GUI/lvgl/src/extra/widgets/led/../../../../src/hal/../draw/../misc/lv_color.h ****      */
 422:Middlewares/LVGL/GUI/lvgl/src/extra/widgets/led/../../../../src/hal/../draw/../misc/lv_color.h **** 
 423:Middlewares/LVGL/GUI/lvgl/src/extra/widgets/led/../../../../src/hal/../draw/../misc/lv_color.h ****     lv_color32_t ret;
 424:Middlewares/LVGL/GUI/lvgl/src/extra/widgets/led/../../../../src/hal/../draw/../misc/lv_color.h ****     LV_COLOR_SET_R32(ret, (LV_COLOR_GET_R(color) * 263 + 7) >> 5);
 425:Middlewares/LVGL/GUI/lvgl/src/extra/widgets/led/../../../../src/hal/../draw/../misc/lv_color.h ****     LV_COLOR_SET_G32(ret, (LV_COLOR_GET_G(color) * 259 + 3) >> 6);
 426:Middlewares/LVGL/GUI/lvgl/src/extra/widgets/led/../../../../src/hal/../draw/../misc/lv_color.h ****     LV_COLOR_SET_B32(ret, (LV_COLOR_GET_B(color) * 263 + 7) >> 5);
 427:Middlewares/LVGL/GUI/lvgl/src/extra/widgets/led/../../../../src/hal/../draw/../misc/lv_color.h ****     LV_COLOR_SET_A32(ret, 0xFF);
 428:Middlewares/LVGL/GUI/lvgl/src/extra/widgets/led/../../../../src/hal/../draw/../misc/lv_color.h ****     return ret.full;
 429:Middlewares/LVGL/GUI/lvgl/src/extra/widgets/led/../../../../src/hal/../draw/../misc/lv_color.h **** #elif LV_COLOR_DEPTH == 32
 430:Middlewares/LVGL/GUI/lvgl/src/extra/widgets/led/../../../../src/hal/../draw/../misc/lv_color.h ****     return color.full;
 431:Middlewares/LVGL/GUI/lvgl/src/extra/widgets/led/../../../../src/hal/../draw/../misc/lv_color.h **** #endif
 432:Middlewares/LVGL/GUI/lvgl/src/extra/widgets/led/../../../../src/hal/../draw/../misc/lv_color.h **** }
 433:Middlewares/LVGL/GUI/lvgl/src/extra/widgets/led/../../../../src/hal/../draw/../misc/lv_color.h **** 
 434:Middlewares/LVGL/GUI/lvgl/src/extra/widgets/led/../../../../src/hal/../draw/../misc/lv_color.h **** //! @cond Doxygen_Suppress
 435:Middlewares/LVGL/GUI/lvgl/src/extra/widgets/led/../../../../src/hal/../draw/../misc/lv_color.h **** 
 436:Middlewares/LVGL/GUI/lvgl/src/extra/widgets/led/../../../../src/hal/../draw/../misc/lv_color.h **** /**
 437:Middlewares/LVGL/GUI/lvgl/src/extra/widgets/led/../../../../src/hal/../draw/../misc/lv_color.h ****  * Mix two colors with a given ratio.
 438:Middlewares/LVGL/GUI/lvgl/src/extra/widgets/led/../../../../src/hal/../draw/../misc/lv_color.h ****  * @param c1 the first color to mix (usually the foreground)
 439:Middlewares/LVGL/GUI/lvgl/src/extra/widgets/led/../../../../src/hal/../draw/../misc/lv_color.h ****  * @param c2 the second color to mix (usually the background)
 440:Middlewares/LVGL/GUI/lvgl/src/extra/widgets/led/../../../../src/hal/../draw/../misc/lv_color.h ****  * @param mix The ratio of the colors. 0: full `c2`, 255: full `c1`, 127: half `c1` and half`c2`
 441:Middlewares/LVGL/GUI/lvgl/src/extra/widgets/led/../../../../src/hal/../draw/../misc/lv_color.h ****  * @return the mixed color
 442:Middlewares/LVGL/GUI/lvgl/src/extra/widgets/led/../../../../src/hal/../draw/../misc/lv_color.h ****  */
 443:Middlewares/LVGL/GUI/lvgl/src/extra/widgets/led/../../../../src/hal/../draw/../misc/lv_color.h **** LV_ATTRIBUTE_FAST_MEM static inline lv_color_t lv_color_mix(lv_color_t c1, lv_color_t c2, uint8_t m
 444:Middlewares/LVGL/GUI/lvgl/src/extra/widgets/led/../../../../src/hal/../draw/../misc/lv_color.h **** {
 445:Middlewares/LVGL/GUI/lvgl/src/extra/widgets/led/../../../../src/hal/../draw/../misc/lv_color.h ****     lv_color_t ret;
 446:Middlewares/LVGL/GUI/lvgl/src/extra/widgets/led/../../../../src/hal/../draw/../misc/lv_color.h **** 
 447:Middlewares/LVGL/GUI/lvgl/src/extra/widgets/led/../../../../src/hal/../draw/../misc/lv_color.h **** #if LV_COLOR_DEPTH == 16 && LV_COLOR_16_SWAP == 0
 448:Middlewares/LVGL/GUI/lvgl/src/extra/widgets/led/../../../../src/hal/../draw/../misc/lv_color.h ****     /*Source: https://stackoverflow.com/a/50012418/1999969*/
 449:Middlewares/LVGL/GUI/lvgl/src/extra/widgets/led/../../../../src/hal/../draw/../misc/lv_color.h ****     mix = (mix + 4) >> 3;
 450:Middlewares/LVGL/GUI/lvgl/src/extra/widgets/led/../../../../src/hal/../draw/../misc/lv_color.h ****     uint32_t bg = (uint32_t)((uint32_t)c2.full | ((uint32_t)c2.full << 16)) &
 451:Middlewares/LVGL/GUI/lvgl/src/extra/widgets/led/../../../../src/hal/../draw/../misc/lv_color.h ****                   0x7E0F81F; /*0b00000111111000001111100000011111*/
 452:Middlewares/LVGL/GUI/lvgl/src/extra/widgets/led/../../../../src/hal/../draw/../misc/lv_color.h ****     uint32_t fg = (uint32_t)((uint32_t)c1.full | ((uint32_t)c1.full << 16)) & 0x7E0F81F;
 453:Middlewares/LVGL/GUI/lvgl/src/extra/widgets/led/../../../../src/hal/../draw/../misc/lv_color.h ****     uint32_t result = ((((fg - bg) * mix) >> 5) + bg) & 0x7E0F81F;
 454:Middlewares/LVGL/GUI/lvgl/src/extra/widgets/led/../../../../src/hal/../draw/../misc/lv_color.h ****     ret.full = (uint16_t)((result >> 16) | result);
 455:Middlewares/LVGL/GUI/lvgl/src/extra/widgets/led/../../../../src/hal/../draw/../misc/lv_color.h **** #elif LV_COLOR_DEPTH != 1
 456:Middlewares/LVGL/GUI/lvgl/src/extra/widgets/led/../../../../src/hal/../draw/../misc/lv_color.h ****     /*LV_COLOR_DEPTH == 8, 16 or 32*/
 457:Middlewares/LVGL/GUI/lvgl/src/extra/widgets/led/../../../../src/hal/../draw/../misc/lv_color.h ****     LV_COLOR_SET_R(ret, LV_UDIV255((uint16_t)LV_COLOR_GET_R(c1) * mix + LV_COLOR_GET_R(c2) *
 458:Middlewares/LVGL/GUI/lvgl/src/extra/widgets/led/../../../../src/hal/../draw/../misc/lv_color.h ****                                    (255 - mix) + LV_COLOR_MIX_ROUND_OFS));
 459:Middlewares/LVGL/GUI/lvgl/src/extra/widgets/led/../../../../src/hal/../draw/../misc/lv_color.h ****     LV_COLOR_SET_G(ret, LV_UDIV255((uint16_t)LV_COLOR_GET_G(c1) * mix + LV_COLOR_GET_G(c2) *
 460:Middlewares/LVGL/GUI/lvgl/src/extra/widgets/led/../../../../src/hal/../draw/../misc/lv_color.h ****                                    (255 - mix) + LV_COLOR_MIX_ROUND_OFS));
 461:Middlewares/LVGL/GUI/lvgl/src/extra/widgets/led/../../../../src/hal/../draw/../misc/lv_color.h ****     LV_COLOR_SET_B(ret, LV_UDIV255((uint16_t)LV_COLOR_GET_B(c1) * mix + LV_COLOR_GET_B(c2) *
 462:Middlewares/LVGL/GUI/lvgl/src/extra/widgets/led/../../../../src/hal/../draw/../misc/lv_color.h ****                                    (255 - mix) + LV_COLOR_MIX_ROUND_OFS));
 463:Middlewares/LVGL/GUI/lvgl/src/extra/widgets/led/../../../../src/hal/../draw/../misc/lv_color.h ****     LV_COLOR_SET_A(ret, 0xFF);
 464:Middlewares/LVGL/GUI/lvgl/src/extra/widgets/led/../../../../src/hal/../draw/../misc/lv_color.h **** #else
 465:Middlewares/LVGL/GUI/lvgl/src/extra/widgets/led/../../../../src/hal/../draw/../misc/lv_color.h ****     /*LV_COLOR_DEPTH == 1*/
 466:Middlewares/LVGL/GUI/lvgl/src/extra/widgets/led/../../../../src/hal/../draw/../misc/lv_color.h ****     ret.full = mix > LV_OPA_50 ? c1.full : c2.full;
ARM GAS  C:\Users\ADMINI~1\AppData\Local\Temp\ccD0EkwD.s 			page 16


 467:Middlewares/LVGL/GUI/lvgl/src/extra/widgets/led/../../../../src/hal/../draw/../misc/lv_color.h **** #endif
 468:Middlewares/LVGL/GUI/lvgl/src/extra/widgets/led/../../../../src/hal/../draw/../misc/lv_color.h **** 
 469:Middlewares/LVGL/GUI/lvgl/src/extra/widgets/led/../../../../src/hal/../draw/../misc/lv_color.h ****     return ret;
 470:Middlewares/LVGL/GUI/lvgl/src/extra/widgets/led/../../../../src/hal/../draw/../misc/lv_color.h **** }
 471:Middlewares/LVGL/GUI/lvgl/src/extra/widgets/led/../../../../src/hal/../draw/../misc/lv_color.h **** 
 472:Middlewares/LVGL/GUI/lvgl/src/extra/widgets/led/../../../../src/hal/../draw/../misc/lv_color.h **** LV_ATTRIBUTE_FAST_MEM static inline void lv_color_premult(lv_color_t c, uint8_t mix, uint16_t * out
 473:Middlewares/LVGL/GUI/lvgl/src/extra/widgets/led/../../../../src/hal/../draw/../misc/lv_color.h **** {
 474:Middlewares/LVGL/GUI/lvgl/src/extra/widgets/led/../../../../src/hal/../draw/../misc/lv_color.h **** #if LV_COLOR_DEPTH != 1
 475:Middlewares/LVGL/GUI/lvgl/src/extra/widgets/led/../../../../src/hal/../draw/../misc/lv_color.h ****     out[0] = (uint16_t)LV_COLOR_GET_R(c) * mix;
 476:Middlewares/LVGL/GUI/lvgl/src/extra/widgets/led/../../../../src/hal/../draw/../misc/lv_color.h ****     out[1] = (uint16_t)LV_COLOR_GET_G(c) * mix;
 477:Middlewares/LVGL/GUI/lvgl/src/extra/widgets/led/../../../../src/hal/../draw/../misc/lv_color.h ****     out[2] = (uint16_t)LV_COLOR_GET_B(c) * mix;
 478:Middlewares/LVGL/GUI/lvgl/src/extra/widgets/led/../../../../src/hal/../draw/../misc/lv_color.h **** #else
 479:Middlewares/LVGL/GUI/lvgl/src/extra/widgets/led/../../../../src/hal/../draw/../misc/lv_color.h ****     (void) mix;
 480:Middlewares/LVGL/GUI/lvgl/src/extra/widgets/led/../../../../src/hal/../draw/../misc/lv_color.h ****     /*Pre-multiplication can't be used with 1 bpp*/
 481:Middlewares/LVGL/GUI/lvgl/src/extra/widgets/led/../../../../src/hal/../draw/../misc/lv_color.h ****     out[0] = LV_COLOR_GET_R(c);
 482:Middlewares/LVGL/GUI/lvgl/src/extra/widgets/led/../../../../src/hal/../draw/../misc/lv_color.h ****     out[1] = LV_COLOR_GET_G(c);
 483:Middlewares/LVGL/GUI/lvgl/src/extra/widgets/led/../../../../src/hal/../draw/../misc/lv_color.h ****     out[2] = LV_COLOR_GET_B(c);
 484:Middlewares/LVGL/GUI/lvgl/src/extra/widgets/led/../../../../src/hal/../draw/../misc/lv_color.h **** #endif
 485:Middlewares/LVGL/GUI/lvgl/src/extra/widgets/led/../../../../src/hal/../draw/../misc/lv_color.h **** 
 486:Middlewares/LVGL/GUI/lvgl/src/extra/widgets/led/../../../../src/hal/../draw/../misc/lv_color.h **** }
 487:Middlewares/LVGL/GUI/lvgl/src/extra/widgets/led/../../../../src/hal/../draw/../misc/lv_color.h **** 
 488:Middlewares/LVGL/GUI/lvgl/src/extra/widgets/led/../../../../src/hal/../draw/../misc/lv_color.h **** /**
 489:Middlewares/LVGL/GUI/lvgl/src/extra/widgets/led/../../../../src/hal/../draw/../misc/lv_color.h ****  * Mix two colors with a given ratio. It runs faster then `lv_color_mix` but requires some pre comp
 490:Middlewares/LVGL/GUI/lvgl/src/extra/widgets/led/../../../../src/hal/../draw/../misc/lv_color.h ****  * @param premult_c1 The first color. Should be preprocessed with `lv_color_premult(c1)`
 491:Middlewares/LVGL/GUI/lvgl/src/extra/widgets/led/../../../../src/hal/../draw/../misc/lv_color.h ****  * @param c2 The second color. As it is no pre computation required on it
 492:Middlewares/LVGL/GUI/lvgl/src/extra/widgets/led/../../../../src/hal/../draw/../misc/lv_color.h ****  * @param mix The ratio of the colors. 0: full `c1`, 255: full `c2`, 127: half `c1` and half `c2`.
 493:Middlewares/LVGL/GUI/lvgl/src/extra/widgets/led/../../../../src/hal/../draw/../misc/lv_color.h ****  *            Should be modified like mix = `255 - mix`
 494:Middlewares/LVGL/GUI/lvgl/src/extra/widgets/led/../../../../src/hal/../draw/../misc/lv_color.h ****  * @return the mixed color
 495:Middlewares/LVGL/GUI/lvgl/src/extra/widgets/led/../../../../src/hal/../draw/../misc/lv_color.h ****  * @note 255 won't give clearly `c1`.
 496:Middlewares/LVGL/GUI/lvgl/src/extra/widgets/led/../../../../src/hal/../draw/../misc/lv_color.h ****  */
 497:Middlewares/LVGL/GUI/lvgl/src/extra/widgets/led/../../../../src/hal/../draw/../misc/lv_color.h **** LV_ATTRIBUTE_FAST_MEM static inline lv_color_t lv_color_mix_premult(uint16_t * premult_c1, lv_color
 498:Middlewares/LVGL/GUI/lvgl/src/extra/widgets/led/../../../../src/hal/../draw/../misc/lv_color.h **** {
 499:Middlewares/LVGL/GUI/lvgl/src/extra/widgets/led/../../../../src/hal/../draw/../misc/lv_color.h ****     lv_color_t ret;
 500:Middlewares/LVGL/GUI/lvgl/src/extra/widgets/led/../../../../src/hal/../draw/../misc/lv_color.h **** #if LV_COLOR_DEPTH != 1
 501:Middlewares/LVGL/GUI/lvgl/src/extra/widgets/led/../../../../src/hal/../draw/../misc/lv_color.h ****     /*LV_COLOR_DEPTH == 8 or 32*/
 502:Middlewares/LVGL/GUI/lvgl/src/extra/widgets/led/../../../../src/hal/../draw/../misc/lv_color.h ****     LV_COLOR_SET_R(ret, LV_UDIV255(premult_c1[0] + LV_COLOR_GET_R(c2) * mix + LV_COLOR_MIX_ROUND_OF
 503:Middlewares/LVGL/GUI/lvgl/src/extra/widgets/led/../../../../src/hal/../draw/../misc/lv_color.h ****     LV_COLOR_SET_G(ret, LV_UDIV255(premult_c1[1] + LV_COLOR_GET_G(c2) * mix + LV_COLOR_MIX_ROUND_OF
 504:Middlewares/LVGL/GUI/lvgl/src/extra/widgets/led/../../../../src/hal/../draw/../misc/lv_color.h ****     LV_COLOR_SET_B(ret, LV_UDIV255(premult_c1[2] + LV_COLOR_GET_B(c2) * mix + LV_COLOR_MIX_ROUND_OF
 505:Middlewares/LVGL/GUI/lvgl/src/extra/widgets/led/../../../../src/hal/../draw/../misc/lv_color.h ****     LV_COLOR_SET_A(ret, 0xFF);
 506:Middlewares/LVGL/GUI/lvgl/src/extra/widgets/led/../../../../src/hal/../draw/../misc/lv_color.h **** #else
 507:Middlewares/LVGL/GUI/lvgl/src/extra/widgets/led/../../../../src/hal/../draw/../misc/lv_color.h ****     /*LV_COLOR_DEPTH == 1*/
 508:Middlewares/LVGL/GUI/lvgl/src/extra/widgets/led/../../../../src/hal/../draw/../misc/lv_color.h ****     /*Restore color1*/
 509:Middlewares/LVGL/GUI/lvgl/src/extra/widgets/led/../../../../src/hal/../draw/../misc/lv_color.h ****     lv_color_t c1;
 510:Middlewares/LVGL/GUI/lvgl/src/extra/widgets/led/../../../../src/hal/../draw/../misc/lv_color.h ****     LV_COLOR_SET_R(c1, premult_c1[0]);
 511:Middlewares/LVGL/GUI/lvgl/src/extra/widgets/led/../../../../src/hal/../draw/../misc/lv_color.h ****     LV_COLOR_SET_G(c1, premult_c1[1]);
 512:Middlewares/LVGL/GUI/lvgl/src/extra/widgets/led/../../../../src/hal/../draw/../misc/lv_color.h ****     LV_COLOR_SET_B(c1, premult_c1[2]);
 513:Middlewares/LVGL/GUI/lvgl/src/extra/widgets/led/../../../../src/hal/../draw/../misc/lv_color.h ****     ret.full = mix > LV_OPA_50 ? c2.full : c1.full;
 514:Middlewares/LVGL/GUI/lvgl/src/extra/widgets/led/../../../../src/hal/../draw/../misc/lv_color.h **** #endif
 515:Middlewares/LVGL/GUI/lvgl/src/extra/widgets/led/../../../../src/hal/../draw/../misc/lv_color.h **** 
 516:Middlewares/LVGL/GUI/lvgl/src/extra/widgets/led/../../../../src/hal/../draw/../misc/lv_color.h ****     return ret;
 517:Middlewares/LVGL/GUI/lvgl/src/extra/widgets/led/../../../../src/hal/../draw/../misc/lv_color.h **** }
 518:Middlewares/LVGL/GUI/lvgl/src/extra/widgets/led/../../../../src/hal/../draw/../misc/lv_color.h **** 
 519:Middlewares/LVGL/GUI/lvgl/src/extra/widgets/led/../../../../src/hal/../draw/../misc/lv_color.h **** /**
 520:Middlewares/LVGL/GUI/lvgl/src/extra/widgets/led/../../../../src/hal/../draw/../misc/lv_color.h ****  * Mix two colors. Both color can have alpha value.
 521:Middlewares/LVGL/GUI/lvgl/src/extra/widgets/led/../../../../src/hal/../draw/../misc/lv_color.h ****  * @param bg_color background color
 522:Middlewares/LVGL/GUI/lvgl/src/extra/widgets/led/../../../../src/hal/../draw/../misc/lv_color.h ****  * @param bg_opa alpha of the background color
 523:Middlewares/LVGL/GUI/lvgl/src/extra/widgets/led/../../../../src/hal/../draw/../misc/lv_color.h ****  * @param fg_color foreground color
ARM GAS  C:\Users\ADMINI~1\AppData\Local\Temp\ccD0EkwD.s 			page 17


 524:Middlewares/LVGL/GUI/lvgl/src/extra/widgets/led/../../../../src/hal/../draw/../misc/lv_color.h ****  * @param fg_opa alpha of the foreground color
 525:Middlewares/LVGL/GUI/lvgl/src/extra/widgets/led/../../../../src/hal/../draw/../misc/lv_color.h ****  * @param res_color the result color
 526:Middlewares/LVGL/GUI/lvgl/src/extra/widgets/led/../../../../src/hal/../draw/../misc/lv_color.h ****  * @param res_opa the result opacity
 527:Middlewares/LVGL/GUI/lvgl/src/extra/widgets/led/../../../../src/hal/../draw/../misc/lv_color.h ****  */
 528:Middlewares/LVGL/GUI/lvgl/src/extra/widgets/led/../../../../src/hal/../draw/../misc/lv_color.h **** LV_ATTRIBUTE_FAST_MEM static inline void lv_color_mix_with_alpha(lv_color_t bg_color, lv_opa_t bg_o
 529:Middlewares/LVGL/GUI/lvgl/src/extra/widgets/led/../../../../src/hal/../draw/../misc/lv_color.h ****                                                                  lv_color_t fg_color, lv_opa_t fg_o
 530:Middlewares/LVGL/GUI/lvgl/src/extra/widgets/led/../../../../src/hal/../draw/../misc/lv_color.h ****                                                                  lv_color_t * res_color, lv_opa_t *
 531:Middlewares/LVGL/GUI/lvgl/src/extra/widgets/led/../../../../src/hal/../draw/../misc/lv_color.h **** {
 532:Middlewares/LVGL/GUI/lvgl/src/extra/widgets/led/../../../../src/hal/../draw/../misc/lv_color.h ****     /*Pick the foreground if it's fully opaque or the Background is fully transparent*/
 533:Middlewares/LVGL/GUI/lvgl/src/extra/widgets/led/../../../../src/hal/../draw/../misc/lv_color.h ****     if(fg_opa >= LV_OPA_MAX || bg_opa <= LV_OPA_MIN) {
 534:Middlewares/LVGL/GUI/lvgl/src/extra/widgets/led/../../../../src/hal/../draw/../misc/lv_color.h ****         res_color->full = fg_color.full;
 535:Middlewares/LVGL/GUI/lvgl/src/extra/widgets/led/../../../../src/hal/../draw/../misc/lv_color.h ****         *res_opa = fg_opa;
 536:Middlewares/LVGL/GUI/lvgl/src/extra/widgets/led/../../../../src/hal/../draw/../misc/lv_color.h ****     }
 537:Middlewares/LVGL/GUI/lvgl/src/extra/widgets/led/../../../../src/hal/../draw/../misc/lv_color.h ****     /*Transparent foreground: use the Background*/
 538:Middlewares/LVGL/GUI/lvgl/src/extra/widgets/led/../../../../src/hal/../draw/../misc/lv_color.h ****     else if(fg_opa <= LV_OPA_MIN) {
 539:Middlewares/LVGL/GUI/lvgl/src/extra/widgets/led/../../../../src/hal/../draw/../misc/lv_color.h ****         res_color->full = bg_color.full;
 540:Middlewares/LVGL/GUI/lvgl/src/extra/widgets/led/../../../../src/hal/../draw/../misc/lv_color.h ****         *res_opa = bg_opa;
 541:Middlewares/LVGL/GUI/lvgl/src/extra/widgets/led/../../../../src/hal/../draw/../misc/lv_color.h ****     }
 542:Middlewares/LVGL/GUI/lvgl/src/extra/widgets/led/../../../../src/hal/../draw/../misc/lv_color.h ****     /*Opaque background: use simple mix*/
 543:Middlewares/LVGL/GUI/lvgl/src/extra/widgets/led/../../../../src/hal/../draw/../misc/lv_color.h ****     else if(bg_opa >= LV_OPA_MAX) {
 544:Middlewares/LVGL/GUI/lvgl/src/extra/widgets/led/../../../../src/hal/../draw/../misc/lv_color.h ****         *res_color = lv_color_mix(fg_color, bg_color, fg_opa);
 545:Middlewares/LVGL/GUI/lvgl/src/extra/widgets/led/../../../../src/hal/../draw/../misc/lv_color.h ****         *res_opa = LV_OPA_COVER;
 546:Middlewares/LVGL/GUI/lvgl/src/extra/widgets/led/../../../../src/hal/../draw/../misc/lv_color.h ****     }
 547:Middlewares/LVGL/GUI/lvgl/src/extra/widgets/led/../../../../src/hal/../draw/../misc/lv_color.h ****     /*Both colors have alpha. Expensive calculation need to be applied*/
 548:Middlewares/LVGL/GUI/lvgl/src/extra/widgets/led/../../../../src/hal/../draw/../misc/lv_color.h ****     else {
 549:Middlewares/LVGL/GUI/lvgl/src/extra/widgets/led/../../../../src/hal/../draw/../misc/lv_color.h ****         /*Save the parameters and the result. If they will be asked again don't compute again*/
 550:Middlewares/LVGL/GUI/lvgl/src/extra/widgets/led/../../../../src/hal/../draw/../misc/lv_color.h ****         static lv_opa_t fg_opa_save     = 0;
 551:Middlewares/LVGL/GUI/lvgl/src/extra/widgets/led/../../../../src/hal/../draw/../misc/lv_color.h ****         static lv_opa_t bg_opa_save     = 0;
 552:Middlewares/LVGL/GUI/lvgl/src/extra/widgets/led/../../../../src/hal/../draw/../misc/lv_color.h ****         static lv_color_t fg_color_save = _LV_COLOR_ZERO_INITIALIZER;
 553:Middlewares/LVGL/GUI/lvgl/src/extra/widgets/led/../../../../src/hal/../draw/../misc/lv_color.h ****         static lv_color_t bg_color_save = _LV_COLOR_ZERO_INITIALIZER;
 554:Middlewares/LVGL/GUI/lvgl/src/extra/widgets/led/../../../../src/hal/../draw/../misc/lv_color.h ****         static lv_color_t res_color_saved = _LV_COLOR_ZERO_INITIALIZER;
 555:Middlewares/LVGL/GUI/lvgl/src/extra/widgets/led/../../../../src/hal/../draw/../misc/lv_color.h ****         static lv_opa_t res_opa_saved = 0;
 556:Middlewares/LVGL/GUI/lvgl/src/extra/widgets/led/../../../../src/hal/../draw/../misc/lv_color.h **** 
 557:Middlewares/LVGL/GUI/lvgl/src/extra/widgets/led/../../../../src/hal/../draw/../misc/lv_color.h ****         if(fg_opa != fg_opa_save || bg_opa != bg_opa_save || fg_color.full != fg_color_save.full ||
 558:Middlewares/LVGL/GUI/lvgl/src/extra/widgets/led/../../../../src/hal/../draw/../misc/lv_color.h ****            bg_color.full != bg_color_save.full) {
 559:Middlewares/LVGL/GUI/lvgl/src/extra/widgets/led/../../../../src/hal/../draw/../misc/lv_color.h ****             fg_opa_save        = fg_opa;
 560:Middlewares/LVGL/GUI/lvgl/src/extra/widgets/led/../../../../src/hal/../draw/../misc/lv_color.h ****             bg_opa_save        = bg_opa;
 561:Middlewares/LVGL/GUI/lvgl/src/extra/widgets/led/../../../../src/hal/../draw/../misc/lv_color.h ****             fg_color_save.full = fg_color.full;
 562:Middlewares/LVGL/GUI/lvgl/src/extra/widgets/led/../../../../src/hal/../draw/../misc/lv_color.h ****             bg_color_save.full = bg_color.full;
 563:Middlewares/LVGL/GUI/lvgl/src/extra/widgets/led/../../../../src/hal/../draw/../misc/lv_color.h ****             /*Info:
 564:Middlewares/LVGL/GUI/lvgl/src/extra/widgets/led/../../../../src/hal/../draw/../misc/lv_color.h ****              * https://en.wikipedia.org/wiki/Alpha_compositing#Analytical_derivation_of_the_over_op
 565:Middlewares/LVGL/GUI/lvgl/src/extra/widgets/led/../../../../src/hal/../draw/../misc/lv_color.h ****             res_opa_saved = 255 - ((uint16_t)((uint16_t)(255 - fg_opa) * (255 - bg_opa)) >> 8);
 566:Middlewares/LVGL/GUI/lvgl/src/extra/widgets/led/../../../../src/hal/../draw/../misc/lv_color.h ****             LV_ASSERT(res_opa_saved != 0);
 567:Middlewares/LVGL/GUI/lvgl/src/extra/widgets/led/../../../../src/hal/../draw/../misc/lv_color.h ****             lv_opa_t ratio = (uint16_t)((uint16_t)fg_opa * 255) / res_opa_saved;
 568:Middlewares/LVGL/GUI/lvgl/src/extra/widgets/led/../../../../src/hal/../draw/../misc/lv_color.h ****             res_color_saved = lv_color_mix(fg_color, bg_color, ratio);
 569:Middlewares/LVGL/GUI/lvgl/src/extra/widgets/led/../../../../src/hal/../draw/../misc/lv_color.h **** 
 570:Middlewares/LVGL/GUI/lvgl/src/extra/widgets/led/../../../../src/hal/../draw/../misc/lv_color.h ****         }
 571:Middlewares/LVGL/GUI/lvgl/src/extra/widgets/led/../../../../src/hal/../draw/../misc/lv_color.h **** 
 572:Middlewares/LVGL/GUI/lvgl/src/extra/widgets/led/../../../../src/hal/../draw/../misc/lv_color.h ****         res_color->full = res_color_saved.full;
 573:Middlewares/LVGL/GUI/lvgl/src/extra/widgets/led/../../../../src/hal/../draw/../misc/lv_color.h ****         *res_opa = res_opa_saved;
 574:Middlewares/LVGL/GUI/lvgl/src/extra/widgets/led/../../../../src/hal/../draw/../misc/lv_color.h ****     }
 575:Middlewares/LVGL/GUI/lvgl/src/extra/widgets/led/../../../../src/hal/../draw/../misc/lv_color.h **** }
 576:Middlewares/LVGL/GUI/lvgl/src/extra/widgets/led/../../../../src/hal/../draw/../misc/lv_color.h **** 
 577:Middlewares/LVGL/GUI/lvgl/src/extra/widgets/led/../../../../src/hal/../draw/../misc/lv_color.h **** //! @endcond
 578:Middlewares/LVGL/GUI/lvgl/src/extra/widgets/led/../../../../src/hal/../draw/../misc/lv_color.h **** 
 579:Middlewares/LVGL/GUI/lvgl/src/extra/widgets/led/../../../../src/hal/../draw/../misc/lv_color.h **** /**
 580:Middlewares/LVGL/GUI/lvgl/src/extra/widgets/led/../../../../src/hal/../draw/../misc/lv_color.h ****  * Get the brightness of a color
ARM GAS  C:\Users\ADMINI~1\AppData\Local\Temp\ccD0EkwD.s 			page 18


 581:Middlewares/LVGL/GUI/lvgl/src/extra/widgets/led/../../../../src/hal/../draw/../misc/lv_color.h ****  * @param color a color
 582:Middlewares/LVGL/GUI/lvgl/src/extra/widgets/led/../../../../src/hal/../draw/../misc/lv_color.h ****  * @return the brightness [0..255]
 583:Middlewares/LVGL/GUI/lvgl/src/extra/widgets/led/../../../../src/hal/../draw/../misc/lv_color.h ****  */
 584:Middlewares/LVGL/GUI/lvgl/src/extra/widgets/led/../../../../src/hal/../draw/../misc/lv_color.h **** static inline uint8_t lv_color_brightness(lv_color_t color)
 585:Middlewares/LVGL/GUI/lvgl/src/extra/widgets/led/../../../../src/hal/../draw/../misc/lv_color.h **** {
 586:Middlewares/LVGL/GUI/lvgl/src/extra/widgets/led/../../../../src/hal/../draw/../misc/lv_color.h ****     lv_color32_t c32;
 587:Middlewares/LVGL/GUI/lvgl/src/extra/widgets/led/../../../../src/hal/../draw/../misc/lv_color.h ****     c32.full        = lv_color_to32(color);
 588:Middlewares/LVGL/GUI/lvgl/src/extra/widgets/led/../../../../src/hal/../draw/../misc/lv_color.h ****     uint16_t bright = (uint16_t)(3u * LV_COLOR_GET_R32(c32) + LV_COLOR_GET_B32(c32) + 4u * LV_COLOR
 589:Middlewares/LVGL/GUI/lvgl/src/extra/widgets/led/../../../../src/hal/../draw/../misc/lv_color.h ****     return (uint8_t)(bright >> 3);
 590:Middlewares/LVGL/GUI/lvgl/src/extra/widgets/led/../../../../src/hal/../draw/../misc/lv_color.h **** }
 591:Middlewares/LVGL/GUI/lvgl/src/extra/widgets/led/../../../../src/hal/../draw/../misc/lv_color.h **** 
 592:Middlewares/LVGL/GUI/lvgl/src/extra/widgets/led/../../../../src/hal/../draw/../misc/lv_color.h **** static inline lv_color_t lv_color_make(uint8_t r, uint8_t g, uint8_t b)
 593:Middlewares/LVGL/GUI/lvgl/src/extra/widgets/led/../../../../src/hal/../draw/../misc/lv_color.h **** {
 594:Middlewares/LVGL/GUI/lvgl/src/extra/widgets/led/../../../../src/hal/../draw/../misc/lv_color.h ****     return _LV_COLOR_MAKE_TYPE_HELPER LV_COLOR_MAKE(r, g, b);
 595:Middlewares/LVGL/GUI/lvgl/src/extra/widgets/led/../../../../src/hal/../draw/../misc/lv_color.h **** }
 596:Middlewares/LVGL/GUI/lvgl/src/extra/widgets/led/../../../../src/hal/../draw/../misc/lv_color.h **** 
 597:Middlewares/LVGL/GUI/lvgl/src/extra/widgets/led/../../../../src/hal/../draw/../misc/lv_color.h **** static inline lv_color_t lv_color_hex(uint32_t c)
 598:Middlewares/LVGL/GUI/lvgl/src/extra/widgets/led/../../../../src/hal/../draw/../misc/lv_color.h **** {
 599:Middlewares/LVGL/GUI/lvgl/src/extra/widgets/led/../../../../src/hal/../draw/../misc/lv_color.h **** #if LV_COLOR_DEPTH == 16
 600:Middlewares/LVGL/GUI/lvgl/src/extra/widgets/led/../../../../src/hal/../draw/../misc/lv_color.h ****     lv_color_t r;
 601:Middlewares/LVGL/GUI/lvgl/src/extra/widgets/led/../../../../src/hal/../draw/../misc/lv_color.h **** #if LV_COLOR_16_SWAP == 0
 602:Middlewares/LVGL/GUI/lvgl/src/extra/widgets/led/../../../../src/hal/../draw/../misc/lv_color.h ****     /* Convert a 4 bytes per pixel in format ARGB32 to R5G6B5 format
 603:Middlewares/LVGL/GUI/lvgl/src/extra/widgets/led/../../../../src/hal/../draw/../misc/lv_color.h ****         naive way (by calling lv_color_make with components):
 604:Middlewares/LVGL/GUI/lvgl/src/extra/widgets/led/../../../../src/hal/../draw/../misc/lv_color.h ****                     r = ((c & 0xFF0000) >> 19)
 605:Middlewares/LVGL/GUI/lvgl/src/extra/widgets/led/../../../../src/hal/../draw/../misc/lv_color.h ****                     g = ((c & 0xFF00) >> 10)
 606:Middlewares/LVGL/GUI/lvgl/src/extra/widgets/led/../../../../src/hal/../draw/../misc/lv_color.h ****                     b = ((c & 0xFF) >> 3)
 607:Middlewares/LVGL/GUI/lvgl/src/extra/widgets/led/../../../../src/hal/../draw/../misc/lv_color.h ****                     rgb565 = (r << 11) | (g << 5) | b
 608:Middlewares/LVGL/GUI/lvgl/src/extra/widgets/led/../../../../src/hal/../draw/../misc/lv_color.h ****         That's 3 mask, 5 bitshift and 2 or operations
 609:Middlewares/LVGL/GUI/lvgl/src/extra/widgets/led/../../../../src/hal/../draw/../misc/lv_color.h **** 
 610:Middlewares/LVGL/GUI/lvgl/src/extra/widgets/led/../../../../src/hal/../draw/../misc/lv_color.h ****         A bit better:
 611:Middlewares/LVGL/GUI/lvgl/src/extra/widgets/led/../../../../src/hal/../draw/../misc/lv_color.h ****                     r = ((c & 0xF80000) >> 8)
 612:Middlewares/LVGL/GUI/lvgl/src/extra/widgets/led/../../../../src/hal/../draw/../misc/lv_color.h ****                     g = ((c & 0xFC00) >> 5)
 613:Middlewares/LVGL/GUI/lvgl/src/extra/widgets/led/../../../../src/hal/../draw/../misc/lv_color.h ****                     b = ((c & 0xFF) >> 3)
 614:Middlewares/LVGL/GUI/lvgl/src/extra/widgets/led/../../../../src/hal/../draw/../misc/lv_color.h ****                     rgb565 = r | g | b
 615:Middlewares/LVGL/GUI/lvgl/src/extra/widgets/led/../../../../src/hal/../draw/../misc/lv_color.h ****         That's 3 mask, 3 bitshifts and 2 or operations */
 616:Middlewares/LVGL/GUI/lvgl/src/extra/widgets/led/../../../../src/hal/../draw/../misc/lv_color.h ****     r.full = (uint16_t)(((c & 0xF80000) >> 8) | ((c & 0xFC00) >> 5) | ((c & 0xFF) >> 3));
 617:Middlewares/LVGL/GUI/lvgl/src/extra/widgets/led/../../../../src/hal/../draw/../misc/lv_color.h **** #else
 618:Middlewares/LVGL/GUI/lvgl/src/extra/widgets/led/../../../../src/hal/../draw/../misc/lv_color.h ****     /* We want: rrrr rrrr GGGg gggg bbbb bbbb => gggb bbbb rrrr rGGG */
 619:Middlewares/LVGL/GUI/lvgl/src/extra/widgets/led/../../../../src/hal/../draw/../misc/lv_color.h ****     r.full = (uint16_t)(((c & 0xF80000) >> 16) | ((c & 0xFC00) >> 13) | ((c & 0x1C00) << 3) | ((c &
 620:Middlewares/LVGL/GUI/lvgl/src/extra/widgets/led/../../../../src/hal/../draw/../misc/lv_color.h **** #endif
 621:Middlewares/LVGL/GUI/lvgl/src/extra/widgets/led/../../../../src/hal/../draw/../misc/lv_color.h ****     return r;
 622:Middlewares/LVGL/GUI/lvgl/src/extra/widgets/led/../../../../src/hal/../draw/../misc/lv_color.h **** #elif LV_COLOR_DEPTH == 32
 623:Middlewares/LVGL/GUI/lvgl/src/extra/widgets/led/../../../../src/hal/../draw/../misc/lv_color.h ****     lv_color_t r;
 624:Middlewares/LVGL/GUI/lvgl/src/extra/widgets/led/../../../../src/hal/../draw/../misc/lv_color.h ****     r.full = c | 0xFF000000;
 625:Middlewares/LVGL/GUI/lvgl/src/extra/widgets/led/../../../../src/hal/../draw/../misc/lv_color.h ****     return r;
 626:Middlewares/LVGL/GUI/lvgl/src/extra/widgets/led/../../../../src/hal/../draw/../misc/lv_color.h **** #else /*LV_COLOR_DEPTH == 8*/
 627:Middlewares/LVGL/GUI/lvgl/src/extra/widgets/led/../../../../src/hal/../draw/../misc/lv_color.h ****     return lv_color_make((uint8_t)((c >> 16) & 0xFF), (uint8_t)((c >> 8) & 0xFF), (uint8_t)(c & 0xF
 628:Middlewares/LVGL/GUI/lvgl/src/extra/widgets/led/../../../../src/hal/../draw/../misc/lv_color.h **** #endif
 629:Middlewares/LVGL/GUI/lvgl/src/extra/widgets/led/../../../../src/hal/../draw/../misc/lv_color.h **** }
 630:Middlewares/LVGL/GUI/lvgl/src/extra/widgets/led/../../../../src/hal/../draw/../misc/lv_color.h **** 
 631:Middlewares/LVGL/GUI/lvgl/src/extra/widgets/led/../../../../src/hal/../draw/../misc/lv_color.h **** static inline lv_color_t lv_color_hex3(uint32_t c)
 632:Middlewares/LVGL/GUI/lvgl/src/extra/widgets/led/../../../../src/hal/../draw/../misc/lv_color.h **** {
 633:Middlewares/LVGL/GUI/lvgl/src/extra/widgets/led/../../../../src/hal/../draw/../misc/lv_color.h ****     return lv_color_make((uint8_t)(((c >> 4) & 0xF0) | ((c >> 8) & 0xF)), (uint8_t)((c & 0xF0) | ((
 634:Middlewares/LVGL/GUI/lvgl/src/extra/widgets/led/../../../../src/hal/../draw/../misc/lv_color.h ****                          (uint8_t)((c & 0xF) | ((c & 0xF) << 4)));
 635:Middlewares/LVGL/GUI/lvgl/src/extra/widgets/led/../../../../src/hal/../draw/../misc/lv_color.h **** }
 636:Middlewares/LVGL/GUI/lvgl/src/extra/widgets/led/../../../../src/hal/../draw/../misc/lv_color.h **** 
 637:Middlewares/LVGL/GUI/lvgl/src/extra/widgets/led/../../../../src/hal/../draw/../misc/lv_color.h **** static inline void lv_color_filter_dsc_init(lv_color_filter_dsc_t * dsc, lv_color_filter_cb_t cb)
ARM GAS  C:\Users\ADMINI~1\AppData\Local\Temp\ccD0EkwD.s 			page 19


 638:Middlewares/LVGL/GUI/lvgl/src/extra/widgets/led/../../../../src/hal/../draw/../misc/lv_color.h **** {
 639:Middlewares/LVGL/GUI/lvgl/src/extra/widgets/led/../../../../src/hal/../draw/../misc/lv_color.h ****     dsc->filter_cb = cb;
 640:Middlewares/LVGL/GUI/lvgl/src/extra/widgets/led/../../../../src/hal/../draw/../misc/lv_color.h **** }
 641:Middlewares/LVGL/GUI/lvgl/src/extra/widgets/led/../../../../src/hal/../draw/../misc/lv_color.h **** 
 642:Middlewares/LVGL/GUI/lvgl/src/extra/widgets/led/../../../../src/hal/../draw/../misc/lv_color.h **** //! @cond Doxygen_Suppress
 643:Middlewares/LVGL/GUI/lvgl/src/extra/widgets/led/../../../../src/hal/../draw/../misc/lv_color.h **** //!
 644:Middlewares/LVGL/GUI/lvgl/src/extra/widgets/led/../../../../src/hal/../draw/../misc/lv_color.h **** LV_ATTRIBUTE_FAST_MEM void lv_color_fill(lv_color_t * buf, lv_color_t color, uint32_t px_num);
 645:Middlewares/LVGL/GUI/lvgl/src/extra/widgets/led/../../../../src/hal/../draw/../misc/lv_color.h **** 
 646:Middlewares/LVGL/GUI/lvgl/src/extra/widgets/led/../../../../src/hal/../draw/../misc/lv_color.h **** //! @endcond
 647:Middlewares/LVGL/GUI/lvgl/src/extra/widgets/led/../../../../src/hal/../draw/../misc/lv_color.h **** lv_color_t lv_color_lighten(lv_color_t c, lv_opa_t lvl);
 648:Middlewares/LVGL/GUI/lvgl/src/extra/widgets/led/../../../../src/hal/../draw/../misc/lv_color.h **** 
 649:Middlewares/LVGL/GUI/lvgl/src/extra/widgets/led/../../../../src/hal/../draw/../misc/lv_color.h **** lv_color_t lv_color_darken(lv_color_t c, lv_opa_t lvl);
 650:Middlewares/LVGL/GUI/lvgl/src/extra/widgets/led/../../../../src/hal/../draw/../misc/lv_color.h **** 
 651:Middlewares/LVGL/GUI/lvgl/src/extra/widgets/led/../../../../src/hal/../draw/../misc/lv_color.h **** lv_color_t lv_color_change_lightness(lv_color_t c, lv_opa_t lvl);
 652:Middlewares/LVGL/GUI/lvgl/src/extra/widgets/led/../../../../src/hal/../draw/../misc/lv_color.h **** 
 653:Middlewares/LVGL/GUI/lvgl/src/extra/widgets/led/../../../../src/hal/../draw/../misc/lv_color.h **** /**
 654:Middlewares/LVGL/GUI/lvgl/src/extra/widgets/led/../../../../src/hal/../draw/../misc/lv_color.h ****  * Convert a HSV color to RGB
 655:Middlewares/LVGL/GUI/lvgl/src/extra/widgets/led/../../../../src/hal/../draw/../misc/lv_color.h ****  * @param h hue [0..359]
 656:Middlewares/LVGL/GUI/lvgl/src/extra/widgets/led/../../../../src/hal/../draw/../misc/lv_color.h ****  * @param s saturation [0..100]
 657:Middlewares/LVGL/GUI/lvgl/src/extra/widgets/led/../../../../src/hal/../draw/../misc/lv_color.h ****  * @param v value [0..100]
 658:Middlewares/LVGL/GUI/lvgl/src/extra/widgets/led/../../../../src/hal/../draw/../misc/lv_color.h ****  * @return the given RGB color in RGB (with LV_COLOR_DEPTH depth)
 659:Middlewares/LVGL/GUI/lvgl/src/extra/widgets/led/../../../../src/hal/../draw/../misc/lv_color.h ****  */
 660:Middlewares/LVGL/GUI/lvgl/src/extra/widgets/led/../../../../src/hal/../draw/../misc/lv_color.h **** lv_color_t lv_color_hsv_to_rgb(uint16_t h, uint8_t s, uint8_t v);
 661:Middlewares/LVGL/GUI/lvgl/src/extra/widgets/led/../../../../src/hal/../draw/../misc/lv_color.h **** 
 662:Middlewares/LVGL/GUI/lvgl/src/extra/widgets/led/../../../../src/hal/../draw/../misc/lv_color.h **** /**
 663:Middlewares/LVGL/GUI/lvgl/src/extra/widgets/led/../../../../src/hal/../draw/../misc/lv_color.h ****  * Convert a 32-bit RGB color to HSV
 664:Middlewares/LVGL/GUI/lvgl/src/extra/widgets/led/../../../../src/hal/../draw/../misc/lv_color.h ****  * @param r8 8-bit red
 665:Middlewares/LVGL/GUI/lvgl/src/extra/widgets/led/../../../../src/hal/../draw/../misc/lv_color.h ****  * @param g8 8-bit green
 666:Middlewares/LVGL/GUI/lvgl/src/extra/widgets/led/../../../../src/hal/../draw/../misc/lv_color.h ****  * @param b8 8-bit blue
 667:Middlewares/LVGL/GUI/lvgl/src/extra/widgets/led/../../../../src/hal/../draw/../misc/lv_color.h ****  * @return the given RGB color in HSV
 668:Middlewares/LVGL/GUI/lvgl/src/extra/widgets/led/../../../../src/hal/../draw/../misc/lv_color.h ****  */
 669:Middlewares/LVGL/GUI/lvgl/src/extra/widgets/led/../../../../src/hal/../draw/../misc/lv_color.h **** lv_color_hsv_t lv_color_rgb_to_hsv(uint8_t r8, uint8_t g8, uint8_t b8);
 670:Middlewares/LVGL/GUI/lvgl/src/extra/widgets/led/../../../../src/hal/../draw/../misc/lv_color.h **** 
 671:Middlewares/LVGL/GUI/lvgl/src/extra/widgets/led/../../../../src/hal/../draw/../misc/lv_color.h **** /**
 672:Middlewares/LVGL/GUI/lvgl/src/extra/widgets/led/../../../../src/hal/../draw/../misc/lv_color.h ****  * Convert a color to HSV
 673:Middlewares/LVGL/GUI/lvgl/src/extra/widgets/led/../../../../src/hal/../draw/../misc/lv_color.h ****  * @param color color
 674:Middlewares/LVGL/GUI/lvgl/src/extra/widgets/led/../../../../src/hal/../draw/../misc/lv_color.h ****  * @return the given color in HSV
 675:Middlewares/LVGL/GUI/lvgl/src/extra/widgets/led/../../../../src/hal/../draw/../misc/lv_color.h ****  */
 676:Middlewares/LVGL/GUI/lvgl/src/extra/widgets/led/../../../../src/hal/../draw/../misc/lv_color.h **** lv_color_hsv_t lv_color_to_hsv(lv_color_t color);
 677:Middlewares/LVGL/GUI/lvgl/src/extra/widgets/led/../../../../src/hal/../draw/../misc/lv_color.h **** 
 678:Middlewares/LVGL/GUI/lvgl/src/extra/widgets/led/../../../../src/hal/../draw/../misc/lv_color.h **** /**
 679:Middlewares/LVGL/GUI/lvgl/src/extra/widgets/led/../../../../src/hal/../draw/../misc/lv_color.h ****  * Just a wrapper around LV_COLOR_CHROMA_KEY because it might be more convenient to use a function 
 680:Middlewares/LVGL/GUI/lvgl/src/extra/widgets/led/../../../../src/hal/../draw/../misc/lv_color.h ****  * @return LV_COLOR_CHROMA_KEY
 681:Middlewares/LVGL/GUI/lvgl/src/extra/widgets/led/../../../../src/hal/../draw/../misc/lv_color.h ****  */
 682:Middlewares/LVGL/GUI/lvgl/src/extra/widgets/led/../../../../src/hal/../draw/../misc/lv_color.h **** static inline lv_color_t lv_color_chroma_key(void)
 683:Middlewares/LVGL/GUI/lvgl/src/extra/widgets/led/../../../../src/hal/../draw/../misc/lv_color.h **** {
 684:Middlewares/LVGL/GUI/lvgl/src/extra/widgets/led/../../../../src/hal/../draw/../misc/lv_color.h ****     return LV_COLOR_CHROMA_KEY;
 685:Middlewares/LVGL/GUI/lvgl/src/extra/widgets/led/../../../../src/hal/../draw/../misc/lv_color.h **** }
 686:Middlewares/LVGL/GUI/lvgl/src/extra/widgets/led/../../../../src/hal/../draw/../misc/lv_color.h **** 
 687:Middlewares/LVGL/GUI/lvgl/src/extra/widgets/led/../../../../src/hal/../draw/../misc/lv_color.h **** /**********************
 688:Middlewares/LVGL/GUI/lvgl/src/extra/widgets/led/../../../../src/hal/../draw/../misc/lv_color.h ****  *  PREDEFINED COLORS
 689:Middlewares/LVGL/GUI/lvgl/src/extra/widgets/led/../../../../src/hal/../draw/../misc/lv_color.h ****  **********************/
 690:Middlewares/LVGL/GUI/lvgl/src/extra/widgets/led/../../../../src/hal/../draw/../misc/lv_color.h **** /*Source: https://vuetifyjs.com/en/styles/colors/#material-colors*/
 691:Middlewares/LVGL/GUI/lvgl/src/extra/widgets/led/../../../../src/hal/../draw/../misc/lv_color.h **** 
 692:Middlewares/LVGL/GUI/lvgl/src/extra/widgets/led/../../../../src/hal/../draw/../misc/lv_color.h **** lv_color_t lv_palette_main(lv_palette_t p);
 693:Middlewares/LVGL/GUI/lvgl/src/extra/widgets/led/../../../../src/hal/../draw/../misc/lv_color.h **** static inline lv_color_t lv_color_white(void)
 694:Middlewares/LVGL/GUI/lvgl/src/extra/widgets/led/../../../../src/hal/../draw/../misc/lv_color.h **** {
ARM GAS  C:\Users\ADMINI~1\AppData\Local\Temp\ccD0EkwD.s 			page 20


 695:Middlewares/LVGL/GUI/lvgl/src/extra/widgets/led/../../../../src/hal/../draw/../misc/lv_color.h ****     return lv_color_make(0xff, 0xff, 0xff);
 696:Middlewares/LVGL/GUI/lvgl/src/extra/widgets/led/../../../../src/hal/../draw/../misc/lv_color.h **** }
 697:Middlewares/LVGL/GUI/lvgl/src/extra/widgets/led/../../../../src/hal/../draw/../misc/lv_color.h **** static inline lv_color_t lv_color_black(void)
 170              		.loc 2 697 26 view .LVU39
 171              	.LBE127:
 172              	.LBE126:
 698:Middlewares/LVGL/GUI/lvgl/src/extra/widgets/led/../../../../src/hal/../draw/../misc/lv_color.h **** {
 699:Middlewares/LVGL/GUI/lvgl/src/extra/widgets/led/../../../../src/hal/../draw/../misc/lv_color.h ****     return lv_color_make(0x00, 0x0, 0x00);
 173              		.loc 2 699 5 view .LVU40
 174              	.LBB207:
 175              	.LBB130:
 176              	.LBB128:
 177              	.LBI128:
 592:Middlewares/LVGL/GUI/lvgl/src/extra/widgets/led/../../../../src/hal/../draw/../misc/lv_color.h **** {
 178              		.loc 2 592 26 view .LVU41
 179              	.LBB129:
 594:Middlewares/LVGL/GUI/lvgl/src/extra/widgets/led/../../../../src/hal/../draw/../misc/lv_color.h **** }
 180              		.loc 2 594 5 view .LVU42
 594:Middlewares/LVGL/GUI/lvgl/src/extra/widgets/led/../../../../src/hal/../draw/../misc/lv_color.h **** }
 181              		.loc 2 594 5 is_stmt 0 view .LVU43
 182 004c BDF80630 		ldrh	r3, [sp, #6]
 183              	.LBE129:
 184              	.LBE128:
 185              	.LBE130:
 186              	.LBB131:
 187              	.LBI131:
 584:Middlewares/LVGL/GUI/lvgl/src/extra/widgets/led/../../../../src/hal/../draw/../misc/lv_color.h **** {
 188              		.loc 2 584 23 is_stmt 1 view .LVU44
 189              	.LBB132:
 586:Middlewares/LVGL/GUI/lvgl/src/extra/widgets/led/../../../../src/hal/../draw/../misc/lv_color.h ****     c32.full        = lv_color_to32(color);
 190              		.loc 2 586 5 view .LVU45
 587:Middlewares/LVGL/GUI/lvgl/src/extra/widgets/led/../../../../src/hal/../draw/../misc/lv_color.h ****     uint16_t bright = (uint16_t)(3u * LV_COLOR_GET_R32(c32) + LV_COLOR_GET_B32(c32) + 4u * LV_COLOR
 191              		.loc 2 587 5 view .LVU46
 192              	.LBB133:
 193              	.LBI133:
 379:Middlewares/LVGL/GUI/lvgl/src/extra/widgets/led/../../../../src/hal/../draw/../misc/lv_color.h **** {
 194              		.loc 2 379 24 view .LVU47
 195              	.LBB134:
 423:Middlewares/LVGL/GUI/lvgl/src/extra/widgets/led/../../../../src/hal/../draw/../misc/lv_color.h ****     LV_COLOR_SET_R32(ret, (LV_COLOR_GET_R(color) * 263 + 7) >> 5);
 196              		.loc 2 423 5 view .LVU48
 424:Middlewares/LVGL/GUI/lvgl/src/extra/widgets/led/../../../../src/hal/../draw/../misc/lv_color.h ****     LV_COLOR_SET_G32(ret, (LV_COLOR_GET_G(color) * 259 + 3) >> 6);
 197              		.loc 2 424 5 view .LVU49
 198              	.LVL18:
 424:Middlewares/LVGL/GUI/lvgl/src/extra/widgets/led/../../../../src/hal/../draw/../misc/lv_color.h ****     LV_COLOR_SET_G32(ret, (LV_COLOR_GET_G(color) * 259 + 3) >> 6);
 199              		.loc 2 424 5 is_stmt 0 view .LVU50
 200 0050 C3F3C422 		ubfx	r2, r3, #11, #5
 201 0054 02EB4211 		add	r1, r2, r2, lsl #5
 202 0058 C2EBC101 		rsb	r1, r2, r1, lsl #3
 203 005c 0731     		adds	r1, r1, #7
 204 005e C1F34711 		ubfx	r1, r1, #5, #8
 205 0062 0022     		movs	r2, #0
 206              	.LVL19:
 424:Middlewares/LVGL/GUI/lvgl/src/extra/widgets/led/../../../../src/hal/../draw/../misc/lv_color.h ****     LV_COLOR_SET_G32(ret, (LV_COLOR_GET_G(color) * 259 + 3) >> 6);
 207              		.loc 2 424 5 view .LVU51
 208 0064 61F31742 		bfi	r2, r1, #16, #8
 209              	.LVL20:
 425:Middlewares/LVGL/GUI/lvgl/src/extra/widgets/led/../../../../src/hal/../draw/../misc/lv_color.h ****     LV_COLOR_SET_B32(ret, (LV_COLOR_GET_B(color) * 263 + 7) >> 5);
ARM GAS  C:\Users\ADMINI~1\AppData\Local\Temp\ccD0EkwD.s 			page 21


 210              		.loc 2 425 5 is_stmt 1 view .LVU52
 211 0068 C3F34511 		ubfx	r1, r3, #5, #6
 212 006c 01EBC110 		add	r0, r1, r1, lsl #7
 213 0070 01EB4001 		add	r1, r1, r0, lsl #1
 214 0074 0331     		adds	r1, r1, #3
 215 0076 C1F38711 		ubfx	r1, r1, #6, #8
 216 007a 61F30F22 		bfi	r2, r1, #8, #8
 426:Middlewares/LVGL/GUI/lvgl/src/extra/widgets/led/../../../../src/hal/../draw/../misc/lv_color.h ****     LV_COLOR_SET_A32(ret, 0xFF);
 217              		.loc 2 426 5 view .LVU53
 218 007e 03F01F03 		and	r3, r3, #31
 219              	.LVL21:
 426:Middlewares/LVGL/GUI/lvgl/src/extra/widgets/led/../../../../src/hal/../draw/../misc/lv_color.h ****     LV_COLOR_SET_A32(ret, 0xFF);
 220              		.loc 2 426 5 is_stmt 0 view .LVU54
 221 0082 03EB4311 		add	r1, r3, r3, lsl #5
 222 0086 C3EBC103 		rsb	r3, r3, r1, lsl #3
 223 008a 0733     		adds	r3, r3, #7
 224 008c C3F34713 		ubfx	r3, r3, #5, #8
 225 0090 63F30702 		bfi	r2, r3, #0, #8
 427:Middlewares/LVGL/GUI/lvgl/src/extra/widgets/led/../../../../src/hal/../draw/../misc/lv_color.h ****     return ret.full;
 226              		.loc 2 427 5 is_stmt 1 view .LVU55
 227 0094 42F07F42 		orr	r2, r2, #-16777216
 228              	.LVL22:
 428:Middlewares/LVGL/GUI/lvgl/src/extra/widgets/led/../../../../src/hal/../draw/../misc/lv_color.h **** #elif LV_COLOR_DEPTH == 32
 229              		.loc 2 428 5 view .LVU56
 230              	.LBE134:
 231              	.LBE133:
 588:Middlewares/LVGL/GUI/lvgl/src/extra/widgets/led/../../../../src/hal/../draw/../misc/lv_color.h ****     return (uint8_t)(bright >> 3);
 232              		.loc 2 588 5 view .LVU57
 588:Middlewares/LVGL/GUI/lvgl/src/extra/widgets/led/../../../../src/hal/../draw/../misc/lv_color.h ****     return (uint8_t)(bright >> 3);
 233              		.loc 2 588 39 is_stmt 0 view .LVU58
 234 0098 C2F30743 		ubfx	r3, r2, #16, #8
 588:Middlewares/LVGL/GUI/lvgl/src/extra/widgets/led/../../../../src/hal/../draw/../misc/lv_color.h ****     return (uint8_t)(bright >> 3);
 235              		.loc 2 588 37 view .LVU59
 236 009c 03EB4303 		add	r3, r3, r3, lsl #1
 588:Middlewares/LVGL/GUI/lvgl/src/extra/widgets/led/../../../../src/hal/../draw/../misc/lv_color.h ****     return (uint8_t)(bright >> 3);
 237              		.loc 2 588 92 view .LVU60
 238 00a0 C2F30721 		ubfx	r1, r2, #8, #8
 588:Middlewares/LVGL/GUI/lvgl/src/extra/widgets/led/../../../../src/hal/../draw/../misc/lv_color.h ****     return (uint8_t)(bright >> 3);
 239              		.loc 2 588 85 view .LVU61
 240 00a4 03EB8101 		add	r1, r3, r1, lsl #2
 588:Middlewares/LVGL/GUI/lvgl/src/extra/widgets/led/../../../../src/hal/../draw/../misc/lv_color.h ****     return (uint8_t)(bright >> 3);
 241              		.loc 2 588 63 view .LVU62
 242 00a8 D2B2     		uxtb	r2, r2
 243              	.LVL23:
 588:Middlewares/LVGL/GUI/lvgl/src/extra/widgets/led/../../../../src/hal/../draw/../misc/lv_color.h ****     return (uint8_t)(bright >> 3);
 244              		.loc 2 588 14 view .LVU63
 245 00aa 12FA81F1 		uxtah	r1, r2, r1
 246              	.LVL24:
 589:Middlewares/LVGL/GUI/lvgl/src/extra/widgets/led/../../../../src/hal/../draw/../misc/lv_color.h **** }
 247              		.loc 2 589 5 is_stmt 1 view .LVU64
 589:Middlewares/LVGL/GUI/lvgl/src/extra/widgets/led/../../../../src/hal/../draw/../misc/lv_color.h **** }
 248              		.loc 2 589 12 is_stmt 0 view .LVU65
 249 00ae C1F3C701 		ubfx	r1, r1, #3, #8
 250              	.LVL25:
 589:Middlewares/LVGL/GUI/lvgl/src/extra/widgets/led/../../../../src/hal/../draw/../misc/lv_color.h **** }
 251              		.loc 2 589 12 view .LVU66
 252              	.LBE132:
ARM GAS  C:\Users\ADMINI~1\AppData\Local\Temp\ccD0EkwD.s 			page 22


 253              	.LBE131:
 254              	.LBB135:
 255              	.LBI135:
 443:Middlewares/LVGL/GUI/lvgl/src/extra/widgets/led/../../../../src/hal/../draw/../misc/lv_color.h **** {
 256              		.loc 2 443 48 is_stmt 1 view .LVU67
 257              	.LBB136:
 445:Middlewares/LVGL/GUI/lvgl/src/extra/widgets/led/../../../../src/hal/../draw/../misc/lv_color.h **** 
 258              		.loc 2 445 5 view .LVU68
 449:Middlewares/LVGL/GUI/lvgl/src/extra/widgets/led/../../../../src/hal/../draw/../misc/lv_color.h ****     uint32_t bg = (uint32_t)((uint32_t)c2.full | ((uint32_t)c2.full << 16)) &
 259              		.loc 2 449 5 view .LVU69
 449:Middlewares/LVGL/GUI/lvgl/src/extra/widgets/led/../../../../src/hal/../draw/../misc/lv_color.h ****     uint32_t bg = (uint32_t)((uint32_t)c2.full | ((uint32_t)c2.full << 16)) &
 260              		.loc 2 449 16 is_stmt 0 view .LVU70
 261 00b2 0431     		adds	r1, r1, #4
 262              	.LVL26:
 450:Middlewares/LVGL/GUI/lvgl/src/extra/widgets/led/../../../../src/hal/../draw/../misc/lv_color.h ****                   0x7E0F81F; /*0b00000111111000001111100000011111*/
 263              		.loc 2 450 5 is_stmt 1 view .LVU71
 450:Middlewares/LVGL/GUI/lvgl/src/extra/widgets/led/../../../../src/hal/../draw/../misc/lv_color.h ****                   0x7E0F81F; /*0b00000111111000001111100000011111*/
 264              		.loc 2 450 14 is_stmt 0 view .LVU72
 265 00b4 CB4F     		ldr	r7, .L10
 266              	.LVL27:
 452:Middlewares/LVGL/GUI/lvgl/src/extra/widgets/led/../../../../src/hal/../draw/../misc/lv_color.h ****     uint32_t result = ((((fg - bg) * mix) >> 5) + bg) & 0x7E0F81F;
 267              		.loc 2 452 5 is_stmt 1 view .LVU73
 452:Middlewares/LVGL/GUI/lvgl/src/extra/widgets/led/../../../../src/hal/../draw/../misc/lv_color.h ****     uint32_t result = ((((fg - bg) * mix) >> 5) + bg) & 0x7E0F81F;
 268              		.loc 2 452 42 is_stmt 0 view .LVU74
 269 00b6 B08D     		ldrh	r0, [r6, #44]
 452:Middlewares/LVGL/GUI/lvgl/src/extra/widgets/led/../../../../src/hal/../draw/../misc/lv_color.h ****     uint32_t result = ((((fg - bg) * mix) >> 5) + bg) & 0x7E0F81F;
 270              		.loc 2 452 19 view .LVU75
 271 00b8 40EA0040 		orr	r0, r0, r0, lsl #16
 272              	.LVL28:
 453:Middlewares/LVGL/GUI/lvgl/src/extra/widgets/led/../../../../src/hal/../draw/../misc/lv_color.h ****     ret.full = (uint16_t)((result >> 16) | result);
 273              		.loc 2 453 5 is_stmt 1 view .LVU76
 453:Middlewares/LVGL/GUI/lvgl/src/extra/widgets/led/../../../../src/hal/../draw/../misc/lv_color.h ****     ret.full = (uint16_t)((result >> 16) | result);
 274              		.loc 2 453 30 is_stmt 0 view .LVU77
 275 00bc 00EA0703 		and	r3, r0, r7
 276              	.LVL29:
 453:Middlewares/LVGL/GUI/lvgl/src/extra/widgets/led/../../../../src/hal/../draw/../misc/lv_color.h ****     ret.full = (uint16_t)((result >> 16) | result);
 277              		.loc 2 453 36 view .LVU78
 278 00c0 C1F3C701 		ubfx	r1, r1, #3, #8
 279              	.LVL30:
 453:Middlewares/LVGL/GUI/lvgl/src/extra/widgets/led/../../../../src/hal/../draw/../misc/lv_color.h ****     ret.full = (uint16_t)((result >> 16) | result);
 280              		.loc 2 453 36 view .LVU79
 281 00c4 03FB01F1 		mul	r1, r3, r1
 453:Middlewares/LVGL/GUI/lvgl/src/extra/widgets/led/../../../../src/hal/../draw/../misc/lv_color.h ****     ret.full = (uint16_t)((result >> 16) | result);
 282              		.loc 2 453 14 view .LVU80
 283 00c8 07EA5111 		and	r1, r7, r1, lsr #5
 284              	.LVL31:
 454:Middlewares/LVGL/GUI/lvgl/src/extra/widgets/led/../../../../src/hal/../draw/../misc/lv_color.h **** #elif LV_COLOR_DEPTH != 1
 285              		.loc 2 454 5 is_stmt 1 view .LVU81
 454:Middlewares/LVGL/GUI/lvgl/src/extra/widgets/led/../../../../src/hal/../draw/../misc/lv_color.h **** #elif LV_COLOR_DEPTH != 1
 286              		.loc 2 454 16 is_stmt 0 view .LVU82
 287 00cc 41EA1141 		orr	r1, r1, r1, lsr #16
 288              	.LVL32:
 454:Middlewares/LVGL/GUI/lvgl/src/extra/widgets/led/../../../../src/hal/../draw/../misc/lv_color.h **** #elif LV_COLOR_DEPTH != 1
 289              		.loc 2 454 16 view .LVU83
 290 00d0 89B2     		uxth	r1, r1
 469:Middlewares/LVGL/GUI/lvgl/src/extra/widgets/led/../../../../src/hal/../draw/../misc/lv_color.h **** }
 291              		.loc 2 469 5 is_stmt 1 view .LVU84
ARM GAS  C:\Users\ADMINI~1\AppData\Local\Temp\ccD0EkwD.s 			page 23


 292              	.LVL33:
 469:Middlewares/LVGL/GUI/lvgl/src/extra/widgets/led/../../../../src/hal/../draw/../misc/lv_color.h **** }
 293              		.loc 2 469 5 is_stmt 0 view .LVU85
 294              	.LBE136:
 295              	.LBE135:
 181:Middlewares/LVGL/GUI/lvgl/src/extra/widgets/led/lv_led.c ****                                                        lv_color_brightness(rect_dsc.bg_grad.stops[0
 296              		.loc 1 181 43 view .LVU86
 297 00d2 ADF80610 		strh	r1, [sp, #6]	@ movhi
 183:Middlewares/LVGL/GUI/lvgl/src/extra/widgets/led/lv_led.c ****                                                        lv_color_brightness(rect_dsc.bg_grad.stops[1
 298              		.loc 1 183 9 is_stmt 1 view .LVU87
 299              	.LBB137:
 300              	.LBI137:
 697:Middlewares/LVGL/GUI/lvgl/src/extra/widgets/led/../../../../src/hal/../draw/../misc/lv_color.h **** {
 301              		.loc 2 697 26 view .LVU88
 302              	.LBE137:
 303              	.LBE207:
 304              		.loc 2 699 5 view .LVU89
 305              	.LVL34:
 306              	.LBB208:
 307              	.LBB140:
 308              	.LBB138:
 309              	.LBI138:
 592:Middlewares/LVGL/GUI/lvgl/src/extra/widgets/led/../../../../src/hal/../draw/../misc/lv_color.h **** {
 310              		.loc 2 592 26 view .LVU90
 311              	.LBB139:
 594:Middlewares/LVGL/GUI/lvgl/src/extra/widgets/led/../../../../src/hal/../draw/../misc/lv_color.h **** }
 312              		.loc 2 594 5 view .LVU91
 594:Middlewares/LVGL/GUI/lvgl/src/extra/widgets/led/../../../../src/hal/../draw/../misc/lv_color.h **** }
 313              		.loc 2 594 5 is_stmt 0 view .LVU92
 314 00d6 BDF80A30 		ldrh	r3, [sp, #10]
 315              	.LBE139:
 316              	.LBE138:
 317              	.LBE140:
 318              	.LBB141:
 319              	.LBI141:
 584:Middlewares/LVGL/GUI/lvgl/src/extra/widgets/led/../../../../src/hal/../draw/../misc/lv_color.h **** {
 320              		.loc 2 584 23 is_stmt 1 view .LVU93
 321              	.LBB142:
 586:Middlewares/LVGL/GUI/lvgl/src/extra/widgets/led/../../../../src/hal/../draw/../misc/lv_color.h ****     c32.full        = lv_color_to32(color);
 322              		.loc 2 586 5 view .LVU94
 587:Middlewares/LVGL/GUI/lvgl/src/extra/widgets/led/../../../../src/hal/../draw/../misc/lv_color.h ****     uint16_t bright = (uint16_t)(3u * LV_COLOR_GET_R32(c32) + LV_COLOR_GET_B32(c32) + 4u * LV_COLOR
 323              		.loc 2 587 5 view .LVU95
 324              	.LBB143:
 325              	.LBI143:
 379:Middlewares/LVGL/GUI/lvgl/src/extra/widgets/led/../../../../src/hal/../draw/../misc/lv_color.h **** {
 326              		.loc 2 379 24 view .LVU96
 327              	.LBB144:
 423:Middlewares/LVGL/GUI/lvgl/src/extra/widgets/led/../../../../src/hal/../draw/../misc/lv_color.h ****     LV_COLOR_SET_R32(ret, (LV_COLOR_GET_R(color) * 263 + 7) >> 5);
 328              		.loc 2 423 5 view .LVU97
 424:Middlewares/LVGL/GUI/lvgl/src/extra/widgets/led/../../../../src/hal/../draw/../misc/lv_color.h ****     LV_COLOR_SET_G32(ret, (LV_COLOR_GET_G(color) * 259 + 3) >> 6);
 329              		.loc 2 424 5 view .LVU98
 330              	.LVL35:
 424:Middlewares/LVGL/GUI/lvgl/src/extra/widgets/led/../../../../src/hal/../draw/../misc/lv_color.h ****     LV_COLOR_SET_G32(ret, (LV_COLOR_GET_G(color) * 259 + 3) >> 6);
 331              		.loc 2 424 5 is_stmt 0 view .LVU99
 332 00da C3F3C422 		ubfx	r2, r3, #11, #5
 333 00de 02EB4215 		add	r5, r2, r2, lsl #5
 334 00e2 C2EBC502 		rsb	r2, r2, r5, lsl #3
ARM GAS  C:\Users\ADMINI~1\AppData\Local\Temp\ccD0EkwD.s 			page 24


 335 00e6 0732     		adds	r2, r2, #7
 336 00e8 C2F34712 		ubfx	r2, r2, #5, #8
 337 00ec 0025     		movs	r5, #0
 338              	.LVL36:
 424:Middlewares/LVGL/GUI/lvgl/src/extra/widgets/led/../../../../src/hal/../draw/../misc/lv_color.h ****     LV_COLOR_SET_G32(ret, (LV_COLOR_GET_G(color) * 259 + 3) >> 6);
 339              		.loc 2 424 5 view .LVU100
 340 00ee 62F31745 		bfi	r5, r2, #16, #8
 341              	.LVL37:
 425:Middlewares/LVGL/GUI/lvgl/src/extra/widgets/led/../../../../src/hal/../draw/../misc/lv_color.h ****     LV_COLOR_SET_B32(ret, (LV_COLOR_GET_B(color) * 263 + 7) >> 5);
 342              		.loc 2 425 5 is_stmt 1 view .LVU101
 343 00f2 C3F34512 		ubfx	r2, r3, #5, #6
 344 00f6 02EBC21C 		add	ip, r2, r2, lsl #7
 345 00fa 02EB4C02 		add	r2, r2, ip, lsl #1
 346 00fe 0332     		adds	r2, r2, #3
 347 0100 C2F38712 		ubfx	r2, r2, #6, #8
 348 0104 62F30F25 		bfi	r5, r2, #8, #8
 426:Middlewares/LVGL/GUI/lvgl/src/extra/widgets/led/../../../../src/hal/../draw/../misc/lv_color.h ****     LV_COLOR_SET_A32(ret, 0xFF);
 349              		.loc 2 426 5 view .LVU102
 350 0108 03F01F03 		and	r3, r3, #31
 351              	.LVL38:
 426:Middlewares/LVGL/GUI/lvgl/src/extra/widgets/led/../../../../src/hal/../draw/../misc/lv_color.h ****     LV_COLOR_SET_A32(ret, 0xFF);
 352              		.loc 2 426 5 is_stmt 0 view .LVU103
 353 010c 03EB4312 		add	r2, r3, r3, lsl #5
 354 0110 C3EBC203 		rsb	r3, r3, r2, lsl #3
 355 0114 0733     		adds	r3, r3, #7
 356 0116 C3F34713 		ubfx	r3, r3, #5, #8
 357 011a 63F30705 		bfi	r5, r3, #0, #8
 427:Middlewares/LVGL/GUI/lvgl/src/extra/widgets/led/../../../../src/hal/../draw/../misc/lv_color.h ****     return ret.full;
 358              		.loc 2 427 5 is_stmt 1 view .LVU104
 359 011e 45F07F45 		orr	r5, r5, #-16777216
 360              	.LVL39:
 428:Middlewares/LVGL/GUI/lvgl/src/extra/widgets/led/../../../../src/hal/../draw/../misc/lv_color.h **** #elif LV_COLOR_DEPTH == 32
 361              		.loc 2 428 5 view .LVU105
 362              	.LBE144:
 363              	.LBE143:
 588:Middlewares/LVGL/GUI/lvgl/src/extra/widgets/led/../../../../src/hal/../draw/../misc/lv_color.h ****     return (uint8_t)(bright >> 3);
 364              		.loc 2 588 5 view .LVU106
 588:Middlewares/LVGL/GUI/lvgl/src/extra/widgets/led/../../../../src/hal/../draw/../misc/lv_color.h ****     return (uint8_t)(bright >> 3);
 365              		.loc 2 588 39 is_stmt 0 view .LVU107
 366 0122 C5F30743 		ubfx	r3, r5, #16, #8
 588:Middlewares/LVGL/GUI/lvgl/src/extra/widgets/led/../../../../src/hal/../draw/../misc/lv_color.h ****     return (uint8_t)(bright >> 3);
 367              		.loc 2 588 37 view .LVU108
 368 0126 03EB4303 		add	r3, r3, r3, lsl #1
 588:Middlewares/LVGL/GUI/lvgl/src/extra/widgets/led/../../../../src/hal/../draw/../misc/lv_color.h ****     return (uint8_t)(bright >> 3);
 369              		.loc 2 588 92 view .LVU109
 370 012a C5F30722 		ubfx	r2, r5, #8, #8
 588:Middlewares/LVGL/GUI/lvgl/src/extra/widgets/led/../../../../src/hal/../draw/../misc/lv_color.h ****     return (uint8_t)(bright >> 3);
 371              		.loc 2 588 85 view .LVU110
 372 012e 03EB8202 		add	r2, r3, r2, lsl #2
 588:Middlewares/LVGL/GUI/lvgl/src/extra/widgets/led/../../../../src/hal/../draw/../misc/lv_color.h ****     return (uint8_t)(bright >> 3);
 373              		.loc 2 588 63 view .LVU111
 374 0132 EDB2     		uxtb	r5, r5
 375              	.LVL40:
 588:Middlewares/LVGL/GUI/lvgl/src/extra/widgets/led/../../../../src/hal/../draw/../misc/lv_color.h ****     return (uint8_t)(bright >> 3);
 376              		.loc 2 588 14 view .LVU112
 377 0134 15FA82F2 		uxtah	r2, r5, r2
 378              	.LVL41:
ARM GAS  C:\Users\ADMINI~1\AppData\Local\Temp\ccD0EkwD.s 			page 25


 589:Middlewares/LVGL/GUI/lvgl/src/extra/widgets/led/../../../../src/hal/../draw/../misc/lv_color.h **** }
 379              		.loc 2 589 5 is_stmt 1 view .LVU113
 589:Middlewares/LVGL/GUI/lvgl/src/extra/widgets/led/../../../../src/hal/../draw/../misc/lv_color.h **** }
 380              		.loc 2 589 12 is_stmt 0 view .LVU114
 381 0138 C2F3C702 		ubfx	r2, r2, #3, #8
 382              	.LVL42:
 589:Middlewares/LVGL/GUI/lvgl/src/extra/widgets/led/../../../../src/hal/../draw/../misc/lv_color.h **** }
 383              		.loc 2 589 12 view .LVU115
 384              	.LBE142:
 385              	.LBE141:
 386              	.LBB145:
 387              	.LBI145:
 443:Middlewares/LVGL/GUI/lvgl/src/extra/widgets/led/../../../../src/hal/../draw/../misc/lv_color.h **** {
 388              		.loc 2 443 48 is_stmt 1 view .LVU116
 389              	.LBB146:
 445:Middlewares/LVGL/GUI/lvgl/src/extra/widgets/led/../../../../src/hal/../draw/../misc/lv_color.h **** 
 390              		.loc 2 445 5 view .LVU117
 449:Middlewares/LVGL/GUI/lvgl/src/extra/widgets/led/../../../../src/hal/../draw/../misc/lv_color.h ****     uint32_t bg = (uint32_t)((uint32_t)c2.full | ((uint32_t)c2.full << 16)) &
 391              		.loc 2 449 5 view .LVU118
 449:Middlewares/LVGL/GUI/lvgl/src/extra/widgets/led/../../../../src/hal/../draw/../misc/lv_color.h ****     uint32_t bg = (uint32_t)((uint32_t)c2.full | ((uint32_t)c2.full << 16)) &
 392              		.loc 2 449 16 is_stmt 0 view .LVU119
 393 013c 0432     		adds	r2, r2, #4
 394              	.LVL43:
 450:Middlewares/LVGL/GUI/lvgl/src/extra/widgets/led/../../../../src/hal/../draw/../misc/lv_color.h ****                   0x7E0F81F; /*0b00000111111000001111100000011111*/
 395              		.loc 2 450 5 is_stmt 1 view .LVU120
 452:Middlewares/LVGL/GUI/lvgl/src/extra/widgets/led/../../../../src/hal/../draw/../misc/lv_color.h ****     uint32_t result = ((((fg - bg) * mix) >> 5) + bg) & 0x7E0F81F;
 396              		.loc 2 452 5 view .LVU121
 453:Middlewares/LVGL/GUI/lvgl/src/extra/widgets/led/../../../../src/hal/../draw/../misc/lv_color.h ****     ret.full = (uint16_t)((result >> 16) | result);
 397              		.loc 2 453 5 view .LVU122
 453:Middlewares/LVGL/GUI/lvgl/src/extra/widgets/led/../../../../src/hal/../draw/../misc/lv_color.h ****     ret.full = (uint16_t)((result >> 16) | result);
 398              		.loc 2 453 30 is_stmt 0 view .LVU123
 399 013e 00EA0703 		and	r3, r0, r7
 400              	.LVL44:
 453:Middlewares/LVGL/GUI/lvgl/src/extra/widgets/led/../../../../src/hal/../draw/../misc/lv_color.h ****     ret.full = (uint16_t)((result >> 16) | result);
 401              		.loc 2 453 36 view .LVU124
 402 0142 C2F3C702 		ubfx	r2, r2, #3, #8
 403              	.LVL45:
 453:Middlewares/LVGL/GUI/lvgl/src/extra/widgets/led/../../../../src/hal/../draw/../misc/lv_color.h ****     ret.full = (uint16_t)((result >> 16) | result);
 404              		.loc 2 453 36 view .LVU125
 405 0146 03FB02F2 		mul	r2, r3, r2
 453:Middlewares/LVGL/GUI/lvgl/src/extra/widgets/led/../../../../src/hal/../draw/../misc/lv_color.h ****     ret.full = (uint16_t)((result >> 16) | result);
 406              		.loc 2 453 14 view .LVU126
 407 014a 07EA5212 		and	r2, r7, r2, lsr #5
 408              	.LVL46:
 454:Middlewares/LVGL/GUI/lvgl/src/extra/widgets/led/../../../../src/hal/../draw/../misc/lv_color.h **** #elif LV_COLOR_DEPTH != 1
 409              		.loc 2 454 5 is_stmt 1 view .LVU127
 454:Middlewares/LVGL/GUI/lvgl/src/extra/widgets/led/../../../../src/hal/../draw/../misc/lv_color.h **** #elif LV_COLOR_DEPTH != 1
 410              		.loc 2 454 16 is_stmt 0 view .LVU128
 411 014e 42EA1242 		orr	r2, r2, r2, lsr #16
 412              	.LVL47:
 454:Middlewares/LVGL/GUI/lvgl/src/extra/widgets/led/../../../../src/hal/../draw/../misc/lv_color.h **** #elif LV_COLOR_DEPTH != 1
 413              		.loc 2 454 16 view .LVU129
 414 0152 92B2     		uxth	r2, r2
 469:Middlewares/LVGL/GUI/lvgl/src/extra/widgets/led/../../../../src/hal/../draw/../misc/lv_color.h **** }
 415              		.loc 2 469 5 is_stmt 1 view .LVU130
 416              	.LVL48:
 469:Middlewares/LVGL/GUI/lvgl/src/extra/widgets/led/../../../../src/hal/../draw/../misc/lv_color.h **** }
ARM GAS  C:\Users\ADMINI~1\AppData\Local\Temp\ccD0EkwD.s 			page 26


 417              		.loc 2 469 5 is_stmt 0 view .LVU131
 418              	.LBE146:
 419              	.LBE145:
 183:Middlewares/LVGL/GUI/lvgl/src/extra/widgets/led/lv_led.c ****                                                        lv_color_brightness(rect_dsc.bg_grad.stops[1
 420              		.loc 1 183 43 view .LVU132
 421 0154 ADF80A20 		strh	r2, [sp, #10]	@ movhi
 185:Middlewares/LVGL/GUI/lvgl/src/extra/widgets/led/lv_led.c ****         rect_dsc.border_color = lv_color_mix(led->color, lv_color_black(), lv_color_brightness(rect
 422              		.loc 1 185 9 is_stmt 1 view .LVU133
 423              	.LBB147:
 424              	.LBI147:
 697:Middlewares/LVGL/GUI/lvgl/src/extra/widgets/led/../../../../src/hal/../draw/../misc/lv_color.h **** {
 425              		.loc 2 697 26 view .LVU134
 426              	.LBE147:
 427              	.LBE208:
 428              		.loc 2 699 5 view .LVU135
 429              	.LVL49:
 430              	.LBB209:
 431              	.LBB150:
 432              	.LBB148:
 433              	.LBI148:
 592:Middlewares/LVGL/GUI/lvgl/src/extra/widgets/led/../../../../src/hal/../draw/../misc/lv_color.h **** {
 434              		.loc 2 592 26 view .LVU136
 435              	.LBB149:
 594:Middlewares/LVGL/GUI/lvgl/src/extra/widgets/led/../../../../src/hal/../draw/../misc/lv_color.h **** }
 436              		.loc 2 594 5 view .LVU137
 594:Middlewares/LVGL/GUI/lvgl/src/extra/widgets/led/../../../../src/hal/../draw/../misc/lv_color.h **** }
 437              		.loc 2 594 5 is_stmt 0 view .LVU138
 438 0158 BDF83230 		ldrh	r3, [sp, #50]
 439              	.LBE149:
 440              	.LBE148:
 441              	.LBE150:
 442              	.LBB151:
 443              	.LBI151:
 584:Middlewares/LVGL/GUI/lvgl/src/extra/widgets/led/../../../../src/hal/../draw/../misc/lv_color.h **** {
 444              		.loc 2 584 23 is_stmt 1 view .LVU139
 445              	.LBB152:
 586:Middlewares/LVGL/GUI/lvgl/src/extra/widgets/led/../../../../src/hal/../draw/../misc/lv_color.h ****     c32.full        = lv_color_to32(color);
 446              		.loc 2 586 5 view .LVU140
 587:Middlewares/LVGL/GUI/lvgl/src/extra/widgets/led/../../../../src/hal/../draw/../misc/lv_color.h ****     uint16_t bright = (uint16_t)(3u * LV_COLOR_GET_R32(c32) + LV_COLOR_GET_B32(c32) + 4u * LV_COLOR
 447              		.loc 2 587 5 view .LVU141
 448              	.LBB153:
 449              	.LBI153:
 379:Middlewares/LVGL/GUI/lvgl/src/extra/widgets/led/../../../../src/hal/../draw/../misc/lv_color.h **** {
 450              		.loc 2 379 24 view .LVU142
 451              	.LBB154:
 423:Middlewares/LVGL/GUI/lvgl/src/extra/widgets/led/../../../../src/hal/../draw/../misc/lv_color.h ****     LV_COLOR_SET_R32(ret, (LV_COLOR_GET_R(color) * 263 + 7) >> 5);
 452              		.loc 2 423 5 view .LVU143
 424:Middlewares/LVGL/GUI/lvgl/src/extra/widgets/led/../../../../src/hal/../draw/../misc/lv_color.h ****     LV_COLOR_SET_G32(ret, (LV_COLOR_GET_G(color) * 259 + 3) >> 6);
 453              		.loc 2 424 5 view .LVU144
 454              	.LVL50:
 424:Middlewares/LVGL/GUI/lvgl/src/extra/widgets/led/../../../../src/hal/../draw/../misc/lv_color.h ****     LV_COLOR_SET_G32(ret, (LV_COLOR_GET_G(color) * 259 + 3) >> 6);
 455              		.loc 2 424 5 is_stmt 0 view .LVU145
 456 015c C3F3C425 		ubfx	r5, r3, #11, #5
 457 0160 05EB451C 		add	ip, r5, r5, lsl #5
 458 0164 C5EBCC0C 		rsb	ip, r5, ip, lsl #3
 459 0168 0CF1070C 		add	ip, ip, #7
 460 016c CCF3471C 		ubfx	ip, ip, #5, #8
ARM GAS  C:\Users\ADMINI~1\AppData\Local\Temp\ccD0EkwD.s 			page 27


 461 0170 0025     		movs	r5, #0
 462              	.LVL51:
 424:Middlewares/LVGL/GUI/lvgl/src/extra/widgets/led/../../../../src/hal/../draw/../misc/lv_color.h ****     LV_COLOR_SET_G32(ret, (LV_COLOR_GET_G(color) * 259 + 3) >> 6);
 463              		.loc 2 424 5 view .LVU146
 464 0172 6CF31745 		bfi	r5, ip, #16, #8
 465              	.LVL52:
 425:Middlewares/LVGL/GUI/lvgl/src/extra/widgets/led/../../../../src/hal/../draw/../misc/lv_color.h ****     LV_COLOR_SET_B32(ret, (LV_COLOR_GET_B(color) * 263 + 7) >> 5);
 466              		.loc 2 425 5 is_stmt 1 view .LVU147
 467 0176 C3F3451C 		ubfx	ip, r3, #5, #6
 468 017a 0CEBCC1E 		add	lr, ip, ip, lsl #7
 469 017e 0CEB4E0C 		add	ip, ip, lr, lsl #1
 470 0182 0CF1030C 		add	ip, ip, #3
 471 0186 CCF3871C 		ubfx	ip, ip, #6, #8
 472 018a 6CF30F25 		bfi	r5, ip, #8, #8
 426:Middlewares/LVGL/GUI/lvgl/src/extra/widgets/led/../../../../src/hal/../draw/../misc/lv_color.h ****     LV_COLOR_SET_A32(ret, 0xFF);
 473              		.loc 2 426 5 view .LVU148
 474 018e 03F01F03 		and	r3, r3, #31
 475              	.LVL53:
 426:Middlewares/LVGL/GUI/lvgl/src/extra/widgets/led/../../../../src/hal/../draw/../misc/lv_color.h ****     LV_COLOR_SET_A32(ret, 0xFF);
 476              		.loc 2 426 5 is_stmt 0 view .LVU149
 477 0192 03EB431C 		add	ip, r3, r3, lsl #5
 478 0196 C3EBCC03 		rsb	r3, r3, ip, lsl #3
 479 019a 0733     		adds	r3, r3, #7
 480 019c C3F34713 		ubfx	r3, r3, #5, #8
 481 01a0 63F30705 		bfi	r5, r3, #0, #8
 427:Middlewares/LVGL/GUI/lvgl/src/extra/widgets/led/../../../../src/hal/../draw/../misc/lv_color.h ****     return ret.full;
 482              		.loc 2 427 5 is_stmt 1 view .LVU150
 483 01a4 45F07F45 		orr	r5, r5, #-16777216
 484              	.LVL54:
 428:Middlewares/LVGL/GUI/lvgl/src/extra/widgets/led/../../../../src/hal/../draw/../misc/lv_color.h **** #elif LV_COLOR_DEPTH == 32
 485              		.loc 2 428 5 view .LVU151
 486              	.LBE154:
 487              	.LBE153:
 588:Middlewares/LVGL/GUI/lvgl/src/extra/widgets/led/../../../../src/hal/../draw/../misc/lv_color.h ****     return (uint8_t)(bright >> 3);
 488              		.loc 2 588 5 view .LVU152
 588:Middlewares/LVGL/GUI/lvgl/src/extra/widgets/led/../../../../src/hal/../draw/../misc/lv_color.h ****     return (uint8_t)(bright >> 3);
 489              		.loc 2 588 39 is_stmt 0 view .LVU153
 490 01a8 C5F30743 		ubfx	r3, r5, #16, #8
 588:Middlewares/LVGL/GUI/lvgl/src/extra/widgets/led/../../../../src/hal/../draw/../misc/lv_color.h ****     return (uint8_t)(bright >> 3);
 491              		.loc 2 588 37 view .LVU154
 492 01ac 03EB4303 		add	r3, r3, r3, lsl #1
 588:Middlewares/LVGL/GUI/lvgl/src/extra/widgets/led/../../../../src/hal/../draw/../misc/lv_color.h ****     return (uint8_t)(bright >> 3);
 493              		.loc 2 588 92 view .LVU155
 494 01b0 C5F3072C 		ubfx	ip, r5, #8, #8
 588:Middlewares/LVGL/GUI/lvgl/src/extra/widgets/led/../../../../src/hal/../draw/../misc/lv_color.h ****     return (uint8_t)(bright >> 3);
 495              		.loc 2 588 85 view .LVU156
 496 01b4 03EB8C0C 		add	ip, r3, ip, lsl #2
 588:Middlewares/LVGL/GUI/lvgl/src/extra/widgets/led/../../../../src/hal/../draw/../misc/lv_color.h ****     return (uint8_t)(bright >> 3);
 497              		.loc 2 588 63 view .LVU157
 498 01b8 EDB2     		uxtb	r5, r5
 499              	.LVL55:
 588:Middlewares/LVGL/GUI/lvgl/src/extra/widgets/led/../../../../src/hal/../draw/../misc/lv_color.h ****     return (uint8_t)(bright >> 3);
 500              		.loc 2 588 14 view .LVU158
 501 01ba 15FA8CFC 		uxtah	ip, r5, ip
 502              	.LVL56:
 589:Middlewares/LVGL/GUI/lvgl/src/extra/widgets/led/../../../../src/hal/../draw/../misc/lv_color.h **** }
 503              		.loc 2 589 5 is_stmt 1 view .LVU159
ARM GAS  C:\Users\ADMINI~1\AppData\Local\Temp\ccD0EkwD.s 			page 28


 589:Middlewares/LVGL/GUI/lvgl/src/extra/widgets/led/../../../../src/hal/../draw/../misc/lv_color.h **** }
 504              		.loc 2 589 12 is_stmt 0 view .LVU160
 505 01be CCF3C70C 		ubfx	ip, ip, #3, #8
 506              	.LVL57:
 589:Middlewares/LVGL/GUI/lvgl/src/extra/widgets/led/../../../../src/hal/../draw/../misc/lv_color.h **** }
 507              		.loc 2 589 12 view .LVU161
 508              	.LBE152:
 509              	.LBE151:
 510              	.LBB155:
 511              	.LBI155:
 443:Middlewares/LVGL/GUI/lvgl/src/extra/widgets/led/../../../../src/hal/../draw/../misc/lv_color.h **** {
 512              		.loc 2 443 48 is_stmt 1 view .LVU162
 513              	.LBB156:
 445:Middlewares/LVGL/GUI/lvgl/src/extra/widgets/led/../../../../src/hal/../draw/../misc/lv_color.h **** 
 514              		.loc 2 445 5 view .LVU163
 449:Middlewares/LVGL/GUI/lvgl/src/extra/widgets/led/../../../../src/hal/../draw/../misc/lv_color.h ****     uint32_t bg = (uint32_t)((uint32_t)c2.full | ((uint32_t)c2.full << 16)) &
 515              		.loc 2 449 5 view .LVU164
 449:Middlewares/LVGL/GUI/lvgl/src/extra/widgets/led/../../../../src/hal/../draw/../misc/lv_color.h ****     uint32_t bg = (uint32_t)((uint32_t)c2.full | ((uint32_t)c2.full << 16)) &
 516              		.loc 2 449 16 is_stmt 0 view .LVU165
 517 01c2 0CF1040C 		add	ip, ip, #4
 518              	.LVL58:
 450:Middlewares/LVGL/GUI/lvgl/src/extra/widgets/led/../../../../src/hal/../draw/../misc/lv_color.h ****                   0x7E0F81F; /*0b00000111111000001111100000011111*/
 519              		.loc 2 450 5 is_stmt 1 view .LVU166
 452:Middlewares/LVGL/GUI/lvgl/src/extra/widgets/led/../../../../src/hal/../draw/../misc/lv_color.h ****     uint32_t result = ((((fg - bg) * mix) >> 5) + bg) & 0x7E0F81F;
 520              		.loc 2 452 5 view .LVU167
 453:Middlewares/LVGL/GUI/lvgl/src/extra/widgets/led/../../../../src/hal/../draw/../misc/lv_color.h ****     ret.full = (uint16_t)((result >> 16) | result);
 521              		.loc 2 453 5 view .LVU168
 453:Middlewares/LVGL/GUI/lvgl/src/extra/widgets/led/../../../../src/hal/../draw/../misc/lv_color.h ****     ret.full = (uint16_t)((result >> 16) | result);
 522              		.loc 2 453 30 is_stmt 0 view .LVU169
 523 01c6 3840     		ands	r0, r0, r7
 524              	.LVL59:
 453:Middlewares/LVGL/GUI/lvgl/src/extra/widgets/led/../../../../src/hal/../draw/../misc/lv_color.h ****     ret.full = (uint16_t)((result >> 16) | result);
 525              		.loc 2 453 36 view .LVU170
 526 01c8 CCF3C70C 		ubfx	ip, ip, #3, #8
 527              	.LVL60:
 453:Middlewares/LVGL/GUI/lvgl/src/extra/widgets/led/../../../../src/hal/../draw/../misc/lv_color.h ****     ret.full = (uint16_t)((result >> 16) | result);
 528              		.loc 2 453 36 view .LVU171
 529 01cc 00FB0CFC 		mul	ip, r0, ip
 453:Middlewares/LVGL/GUI/lvgl/src/extra/widgets/led/../../../../src/hal/../draw/../misc/lv_color.h ****     ret.full = (uint16_t)((result >> 16) | result);
 530              		.loc 2 453 14 view .LVU172
 531 01d0 07EA5C1C 		and	ip, r7, ip, lsr #5
 532              	.LVL61:
 454:Middlewares/LVGL/GUI/lvgl/src/extra/widgets/led/../../../../src/hal/../draw/../misc/lv_color.h **** #elif LV_COLOR_DEPTH != 1
 533              		.loc 2 454 5 is_stmt 1 view .LVU173
 454:Middlewares/LVGL/GUI/lvgl/src/extra/widgets/led/../../../../src/hal/../draw/../misc/lv_color.h **** #elif LV_COLOR_DEPTH != 1
 534              		.loc 2 454 16 is_stmt 0 view .LVU174
 535 01d4 4CEA1C4C 		orr	ip, ip, ip, lsr #16
 536              	.LVL62:
 454:Middlewares/LVGL/GUI/lvgl/src/extra/widgets/led/../../../../src/hal/../draw/../misc/lv_color.h **** #elif LV_COLOR_DEPTH != 1
 537              		.loc 2 454 16 view .LVU175
 538 01d8 1FFA8CFC 		uxth	ip, ip
 469:Middlewares/LVGL/GUI/lvgl/src/extra/widgets/led/../../../../src/hal/../draw/../misc/lv_color.h **** }
 539              		.loc 2 469 5 is_stmt 1 view .LVU176
 540              	.LVL63:
 469:Middlewares/LVGL/GUI/lvgl/src/extra/widgets/led/../../../../src/hal/../draw/../misc/lv_color.h **** }
 541              		.loc 2 469 5 is_stmt 0 view .LVU177
 542              	.LBE156:
ARM GAS  C:\Users\ADMINI~1\AppData\Local\Temp\ccD0EkwD.s 			page 29


 543              	.LBE155:
 185:Middlewares/LVGL/GUI/lvgl/src/extra/widgets/led/lv_led.c ****         rect_dsc.border_color = lv_color_mix(led->color, lv_color_black(), lv_color_brightness(rect
 544              		.loc 1 185 33 view .LVU178
 545 01dc ADF832C0 		strh	ip, [sp, #50]	@ movhi
 186:Middlewares/LVGL/GUI/lvgl/src/extra/widgets/led/lv_led.c ****         rect_dsc.outline_color = lv_color_mix(led->color, lv_color_black(), lv_color_brightness(rec
 546              		.loc 1 186 9 is_stmt 1 view .LVU179
 547              	.LBB157:
 548              	.LBI157:
 697:Middlewares/LVGL/GUI/lvgl/src/extra/widgets/led/../../../../src/hal/../draw/../misc/lv_color.h **** {
 549              		.loc 2 697 26 view .LVU180
 550              	.LBE157:
 551              	.LBE209:
 552              		.loc 2 699 5 view .LVU181
 553              	.LVL64:
 554              	.LBB210:
 555              	.LBB160:
 556              	.LBB158:
 557              	.LBI158:
 592:Middlewares/LVGL/GUI/lvgl/src/extra/widgets/led/../../../../src/hal/../draw/../misc/lv_color.h **** {
 558              		.loc 2 592 26 view .LVU182
 559              	.LBB159:
 594:Middlewares/LVGL/GUI/lvgl/src/extra/widgets/led/../../../../src/hal/../draw/../misc/lv_color.h **** }
 560              		.loc 2 594 5 view .LVU183
 594:Middlewares/LVGL/GUI/lvgl/src/extra/widgets/led/../../../../src/hal/../draw/../misc/lv_color.h **** }
 561              		.loc 2 594 5 is_stmt 0 view .LVU184
 562 01e0 BDF81E00 		ldrh	r0, [sp, #30]
 563              	.LBE159:
 564              	.LBE158:
 565              	.LBE160:
 566              	.LBB161:
 567              	.LBI161:
 584:Middlewares/LVGL/GUI/lvgl/src/extra/widgets/led/../../../../src/hal/../draw/../misc/lv_color.h **** {
 568              		.loc 2 584 23 is_stmt 1 view .LVU185
 569              	.LBB162:
 586:Middlewares/LVGL/GUI/lvgl/src/extra/widgets/led/../../../../src/hal/../draw/../misc/lv_color.h ****     c32.full        = lv_color_to32(color);
 570              		.loc 2 586 5 view .LVU186
 587:Middlewares/LVGL/GUI/lvgl/src/extra/widgets/led/../../../../src/hal/../draw/../misc/lv_color.h ****     uint16_t bright = (uint16_t)(3u * LV_COLOR_GET_R32(c32) + LV_COLOR_GET_B32(c32) + 4u * LV_COLOR
 571              		.loc 2 587 5 view .LVU187
 572              	.LBB163:
 573              	.LBI163:
 379:Middlewares/LVGL/GUI/lvgl/src/extra/widgets/led/../../../../src/hal/../draw/../misc/lv_color.h **** {
 574              		.loc 2 379 24 view .LVU188
 575              	.LBB164:
 423:Middlewares/LVGL/GUI/lvgl/src/extra/widgets/led/../../../../src/hal/../draw/../misc/lv_color.h ****     LV_COLOR_SET_R32(ret, (LV_COLOR_GET_R(color) * 263 + 7) >> 5);
 576              		.loc 2 423 5 view .LVU189
 424:Middlewares/LVGL/GUI/lvgl/src/extra/widgets/led/../../../../src/hal/../draw/../misc/lv_color.h ****     LV_COLOR_SET_G32(ret, (LV_COLOR_GET_G(color) * 259 + 3) >> 6);
 577              		.loc 2 424 5 view .LVU190
 578              	.LVL65:
 424:Middlewares/LVGL/GUI/lvgl/src/extra/widgets/led/../../../../src/hal/../draw/../misc/lv_color.h ****     LV_COLOR_SET_G32(ret, (LV_COLOR_GET_G(color) * 259 + 3) >> 6);
 579              		.loc 2 424 5 is_stmt 0 view .LVU191
 580 01e4 C0F3C423 		ubfx	r3, r0, #11, #5
 581 01e8 03EB4315 		add	r5, r3, r3, lsl #5
 582 01ec C3EBC503 		rsb	r3, r3, r5, lsl #3
 583 01f0 0733     		adds	r3, r3, #7
 584 01f2 C3F34713 		ubfx	r3, r3, #5, #8
 585 01f6 0025     		movs	r5, #0
 586              	.LVL66:
ARM GAS  C:\Users\ADMINI~1\AppData\Local\Temp\ccD0EkwD.s 			page 30


 424:Middlewares/LVGL/GUI/lvgl/src/extra/widgets/led/../../../../src/hal/../draw/../misc/lv_color.h ****     LV_COLOR_SET_G32(ret, (LV_COLOR_GET_G(color) * 259 + 3) >> 6);
 587              		.loc 2 424 5 view .LVU192
 588 01f8 63F31745 		bfi	r5, r3, #16, #8
 589              	.LVL67:
 425:Middlewares/LVGL/GUI/lvgl/src/extra/widgets/led/../../../../src/hal/../draw/../misc/lv_color.h ****     LV_COLOR_SET_B32(ret, (LV_COLOR_GET_B(color) * 263 + 7) >> 5);
 590              		.loc 2 425 5 is_stmt 1 view .LVU193
 591 01fc C0F34513 		ubfx	r3, r0, #5, #6
 592 0200 03EBC31E 		add	lr, r3, r3, lsl #7
 593 0204 03EB4E03 		add	r3, r3, lr, lsl #1
 594 0208 0333     		adds	r3, r3, #3
 595 020a C3F38713 		ubfx	r3, r3, #6, #8
 596 020e 63F30F25 		bfi	r5, r3, #8, #8
 426:Middlewares/LVGL/GUI/lvgl/src/extra/widgets/led/../../../../src/hal/../draw/../misc/lv_color.h ****     LV_COLOR_SET_A32(ret, 0xFF);
 597              		.loc 2 426 5 view .LVU194
 598 0212 00F01F00 		and	r0, r0, #31
 599              	.LVL68:
 426:Middlewares/LVGL/GUI/lvgl/src/extra/widgets/led/../../../../src/hal/../draw/../misc/lv_color.h ****     LV_COLOR_SET_A32(ret, 0xFF);
 600              		.loc 2 426 5 is_stmt 0 view .LVU195
 601 0216 00EB4013 		add	r3, r0, r0, lsl #5
 602 021a C0EBC300 		rsb	r0, r0, r3, lsl #3
 603 021e 0730     		adds	r0, r0, #7
 604 0220 C0F34710 		ubfx	r0, r0, #5, #8
 605 0224 60F30705 		bfi	r5, r0, #0, #8
 427:Middlewares/LVGL/GUI/lvgl/src/extra/widgets/led/../../../../src/hal/../draw/../misc/lv_color.h ****     return ret.full;
 606              		.loc 2 427 5 is_stmt 1 view .LVU196
 607 0228 45F07F45 		orr	r5, r5, #-16777216
 608              	.LVL69:
 428:Middlewares/LVGL/GUI/lvgl/src/extra/widgets/led/../../../../src/hal/../draw/../misc/lv_color.h **** #elif LV_COLOR_DEPTH == 32
 609              		.loc 2 428 5 view .LVU197
 610              	.LBE164:
 611              	.LBE163:
 588:Middlewares/LVGL/GUI/lvgl/src/extra/widgets/led/../../../../src/hal/../draw/../misc/lv_color.h ****     return (uint8_t)(bright >> 3);
 612              		.loc 2 588 5 view .LVU198
 588:Middlewares/LVGL/GUI/lvgl/src/extra/widgets/led/../../../../src/hal/../draw/../misc/lv_color.h ****     return (uint8_t)(bright >> 3);
 613              		.loc 2 588 39 is_stmt 0 view .LVU199
 614 022c C5F30743 		ubfx	r3, r5, #16, #8
 588:Middlewares/LVGL/GUI/lvgl/src/extra/widgets/led/../../../../src/hal/../draw/../misc/lv_color.h ****     return (uint8_t)(bright >> 3);
 615              		.loc 2 588 37 view .LVU200
 616 0230 03EB4303 		add	r3, r3, r3, lsl #1
 588:Middlewares/LVGL/GUI/lvgl/src/extra/widgets/led/../../../../src/hal/../draw/../misc/lv_color.h ****     return (uint8_t)(bright >> 3);
 617              		.loc 2 588 92 view .LVU201
 618 0234 C5F30720 		ubfx	r0, r5, #8, #8
 588:Middlewares/LVGL/GUI/lvgl/src/extra/widgets/led/../../../../src/hal/../draw/../misc/lv_color.h ****     return (uint8_t)(bright >> 3);
 619              		.loc 2 588 85 view .LVU202
 620 0238 03EB8003 		add	r3, r3, r0, lsl #2
 588:Middlewares/LVGL/GUI/lvgl/src/extra/widgets/led/../../../../src/hal/../draw/../misc/lv_color.h ****     return (uint8_t)(bright >> 3);
 621              		.loc 2 588 63 view .LVU203
 622 023c EDB2     		uxtb	r5, r5
 623              	.LVL70:
 588:Middlewares/LVGL/GUI/lvgl/src/extra/widgets/led/../../../../src/hal/../draw/../misc/lv_color.h ****     return (uint8_t)(bright >> 3);
 624              		.loc 2 588 14 view .LVU204
 625 023e 15FA83F3 		uxtah	r3, r5, r3
 626              	.LVL71:
 589:Middlewares/LVGL/GUI/lvgl/src/extra/widgets/led/../../../../src/hal/../draw/../misc/lv_color.h **** }
 627              		.loc 2 589 5 is_stmt 1 view .LVU205
 589:Middlewares/LVGL/GUI/lvgl/src/extra/widgets/led/../../../../src/hal/../draw/../misc/lv_color.h **** }
 628              		.loc 2 589 12 is_stmt 0 view .LVU206
ARM GAS  C:\Users\ADMINI~1\AppData\Local\Temp\ccD0EkwD.s 			page 31


 629 0242 C3F3C703 		ubfx	r3, r3, #3, #8
 630              	.LVL72:
 589:Middlewares/LVGL/GUI/lvgl/src/extra/widgets/led/../../../../src/hal/../draw/../misc/lv_color.h **** }
 631              		.loc 2 589 12 view .LVU207
 632              	.LBE162:
 633              	.LBE161:
 634              	.LBB165:
 635              	.LBI165:
 443:Middlewares/LVGL/GUI/lvgl/src/extra/widgets/led/../../../../src/hal/../draw/../misc/lv_color.h **** {
 636              		.loc 2 443 48 is_stmt 1 view .LVU208
 637              	.LBB166:
 445:Middlewares/LVGL/GUI/lvgl/src/extra/widgets/led/../../../../src/hal/../draw/../misc/lv_color.h **** 
 638              		.loc 2 445 5 view .LVU209
 449:Middlewares/LVGL/GUI/lvgl/src/extra/widgets/led/../../../../src/hal/../draw/../misc/lv_color.h ****     uint32_t bg = (uint32_t)((uint32_t)c2.full | ((uint32_t)c2.full << 16)) &
 639              		.loc 2 449 5 view .LVU210
 449:Middlewares/LVGL/GUI/lvgl/src/extra/widgets/led/../../../../src/hal/../draw/../misc/lv_color.h ****     uint32_t bg = (uint32_t)((uint32_t)c2.full | ((uint32_t)c2.full << 16)) &
 640              		.loc 2 449 16 is_stmt 0 view .LVU211
 641 0246 0433     		adds	r3, r3, #4
 642              	.LVL73:
 450:Middlewares/LVGL/GUI/lvgl/src/extra/widgets/led/../../../../src/hal/../draw/../misc/lv_color.h ****                   0x7E0F81F; /*0b00000111111000001111100000011111*/
 643              		.loc 2 450 5 is_stmt 1 view .LVU212
 452:Middlewares/LVGL/GUI/lvgl/src/extra/widgets/led/../../../../src/hal/../draw/../misc/lv_color.h ****     uint32_t result = ((((fg - bg) * mix) >> 5) + bg) & 0x7E0F81F;
 644              		.loc 2 452 5 view .LVU213
 452:Middlewares/LVGL/GUI/lvgl/src/extra/widgets/led/../../../../src/hal/../draw/../misc/lv_color.h ****     uint32_t result = ((((fg - bg) * mix) >> 5) + bg) & 0x7E0F81F;
 645              		.loc 2 452 42 is_stmt 0 view .LVU214
 646 0248 B6F82CE0 		ldrh	lr, [r6, #44]
 452:Middlewares/LVGL/GUI/lvgl/src/extra/widgets/led/../../../../src/hal/../draw/../misc/lv_color.h ****     uint32_t result = ((((fg - bg) * mix) >> 5) + bg) & 0x7E0F81F;
 647              		.loc 2 452 19 view .LVU215
 648 024c 4EEA0E4E 		orr	lr, lr, lr, lsl #16
 649              	.LVL74:
 453:Middlewares/LVGL/GUI/lvgl/src/extra/widgets/led/../../../../src/hal/../draw/../misc/lv_color.h ****     ret.full = (uint16_t)((result >> 16) | result);
 650              		.loc 2 453 5 is_stmt 1 view .LVU216
 453:Middlewares/LVGL/GUI/lvgl/src/extra/widgets/led/../../../../src/hal/../draw/../misc/lv_color.h ****     ret.full = (uint16_t)((result >> 16) | result);
 651              		.loc 2 453 30 is_stmt 0 view .LVU217
 652 0250 0EEA0700 		and	r0, lr, r7
 653              	.LVL75:
 453:Middlewares/LVGL/GUI/lvgl/src/extra/widgets/led/../../../../src/hal/../draw/../misc/lv_color.h ****     ret.full = (uint16_t)((result >> 16) | result);
 654              		.loc 2 453 36 view .LVU218
 655 0254 C3F3C703 		ubfx	r3, r3, #3, #8
 656              	.LVL76:
 453:Middlewares/LVGL/GUI/lvgl/src/extra/widgets/led/../../../../src/hal/../draw/../misc/lv_color.h ****     ret.full = (uint16_t)((result >> 16) | result);
 657              		.loc 2 453 36 view .LVU219
 658 0258 00FB03F3 		mul	r3, r0, r3
 453:Middlewares/LVGL/GUI/lvgl/src/extra/widgets/led/../../../../src/hal/../draw/../misc/lv_color.h ****     ret.full = (uint16_t)((result >> 16) | result);
 659              		.loc 2 453 14 view .LVU220
 660 025c 07EA5313 		and	r3, r7, r3, lsr #5
 661              	.LVL77:
 454:Middlewares/LVGL/GUI/lvgl/src/extra/widgets/led/../../../../src/hal/../draw/../misc/lv_color.h **** #elif LV_COLOR_DEPTH != 1
 662              		.loc 2 454 5 is_stmt 1 view .LVU221
 454:Middlewares/LVGL/GUI/lvgl/src/extra/widgets/led/../../../../src/hal/../draw/../misc/lv_color.h **** #elif LV_COLOR_DEPTH != 1
 663              		.loc 2 454 16 is_stmt 0 view .LVU222
 664 0260 43EA1343 		orr	r3, r3, r3, lsr #16
 665              	.LVL78:
 454:Middlewares/LVGL/GUI/lvgl/src/extra/widgets/led/../../../../src/hal/../draw/../misc/lv_color.h **** #elif LV_COLOR_DEPTH != 1
 666              		.loc 2 454 16 view .LVU223
 667 0264 9BB2     		uxth	r3, r3
 469:Middlewares/LVGL/GUI/lvgl/src/extra/widgets/led/../../../../src/hal/../draw/../misc/lv_color.h **** }
ARM GAS  C:\Users\ADMINI~1\AppData\Local\Temp\ccD0EkwD.s 			page 32


 668              		.loc 2 469 5 is_stmt 1 view .LVU224
 669              	.LVL79:
 469:Middlewares/LVGL/GUI/lvgl/src/extra/widgets/led/../../../../src/hal/../draw/../misc/lv_color.h **** }
 670              		.loc 2 469 5 is_stmt 0 view .LVU225
 671              	.LBE166:
 672              	.LBE165:
 186:Middlewares/LVGL/GUI/lvgl/src/extra/widgets/led/lv_led.c ****         rect_dsc.outline_color = lv_color_mix(led->color, lv_color_black(), lv_color_brightness(rec
 673              		.loc 1 186 33 view .LVU226
 674 0266 ADF81E30 		strh	r3, [sp, #30]	@ movhi
 187:Middlewares/LVGL/GUI/lvgl/src/extra/widgets/led/lv_led.c **** 
 675              		.loc 1 187 9 is_stmt 1 view .LVU227
 676              	.LBB167:
 677              	.LBI167:
 697:Middlewares/LVGL/GUI/lvgl/src/extra/widgets/led/../../../../src/hal/../draw/../misc/lv_color.h **** {
 678              		.loc 2 697 26 view .LVU228
 679              	.LBE167:
 680              	.LBE210:
 681              		.loc 2 699 5 view .LVU229
 682              	.LVL80:
 683              	.LBB211:
 684              	.LBB170:
 685              	.LBB168:
 686              	.LBI168:
 592:Middlewares/LVGL/GUI/lvgl/src/extra/widgets/led/../../../../src/hal/../draw/../misc/lv_color.h **** {
 687              		.loc 2 592 26 view .LVU230
 688              	.LBB169:
 594:Middlewares/LVGL/GUI/lvgl/src/extra/widgets/led/../../../../src/hal/../draw/../misc/lv_color.h **** }
 689              		.loc 2 594 5 view .LVU231
 594:Middlewares/LVGL/GUI/lvgl/src/extra/widgets/led/../../../../src/hal/../draw/../misc/lv_color.h **** }
 690              		.loc 2 594 5 is_stmt 0 view .LVU232
 691 026a BDF82600 		ldrh	r0, [sp, #38]
 692              	.LBE169:
 693              	.LBE168:
 694              	.LBE170:
 695              	.LBB171:
 696              	.LBI171:
 584:Middlewares/LVGL/GUI/lvgl/src/extra/widgets/led/../../../../src/hal/../draw/../misc/lv_color.h **** {
 697              		.loc 2 584 23 is_stmt 1 view .LVU233
 698              	.LBB172:
 586:Middlewares/LVGL/GUI/lvgl/src/extra/widgets/led/../../../../src/hal/../draw/../misc/lv_color.h ****     c32.full        = lv_color_to32(color);
 699              		.loc 2 586 5 view .LVU234
 587:Middlewares/LVGL/GUI/lvgl/src/extra/widgets/led/../../../../src/hal/../draw/../misc/lv_color.h ****     uint16_t bright = (uint16_t)(3u * LV_COLOR_GET_R32(c32) + LV_COLOR_GET_B32(c32) + 4u * LV_COLOR
 700              		.loc 2 587 5 view .LVU235
 701              	.LBB173:
 702              	.LBI173:
 379:Middlewares/LVGL/GUI/lvgl/src/extra/widgets/led/../../../../src/hal/../draw/../misc/lv_color.h **** {
 703              		.loc 2 379 24 view .LVU236
 704              	.LBB174:
 423:Middlewares/LVGL/GUI/lvgl/src/extra/widgets/led/../../../../src/hal/../draw/../misc/lv_color.h ****     LV_COLOR_SET_R32(ret, (LV_COLOR_GET_R(color) * 263 + 7) >> 5);
 705              		.loc 2 423 5 view .LVU237
 424:Middlewares/LVGL/GUI/lvgl/src/extra/widgets/led/../../../../src/hal/../draw/../misc/lv_color.h ****     LV_COLOR_SET_G32(ret, (LV_COLOR_GET_G(color) * 259 + 3) >> 6);
 706              		.loc 2 424 5 view .LVU238
 707              	.LVL81:
 424:Middlewares/LVGL/GUI/lvgl/src/extra/widgets/led/../../../../src/hal/../draw/../misc/lv_color.h ****     LV_COLOR_SET_G32(ret, (LV_COLOR_GET_G(color) * 259 + 3) >> 6);
 708              		.loc 2 424 5 is_stmt 0 view .LVU239
 709 026e C0F3C425 		ubfx	r5, r0, #11, #5
 710 0272 05EB4518 		add	r8, r5, r5, lsl #5
ARM GAS  C:\Users\ADMINI~1\AppData\Local\Temp\ccD0EkwD.s 			page 33


 711 0276 C5EBC805 		rsb	r5, r5, r8, lsl #3
 712 027a 0735     		adds	r5, r5, #7
 713 027c C5F34715 		ubfx	r5, r5, #5, #8
 714 0280 4FF00008 		mov	r8, #0
 715              	.LVL82:
 424:Middlewares/LVGL/GUI/lvgl/src/extra/widgets/led/../../../../src/hal/../draw/../misc/lv_color.h ****     LV_COLOR_SET_G32(ret, (LV_COLOR_GET_G(color) * 259 + 3) >> 6);
 716              		.loc 2 424 5 view .LVU240
 717 0284 65F31748 		bfi	r8, r5, #16, #8
 718              	.LVL83:
 425:Middlewares/LVGL/GUI/lvgl/src/extra/widgets/led/../../../../src/hal/../draw/../misc/lv_color.h ****     LV_COLOR_SET_B32(ret, (LV_COLOR_GET_B(color) * 263 + 7) >> 5);
 719              		.loc 2 425 5 is_stmt 1 view .LVU241
 720 0288 C0F34515 		ubfx	r5, r0, #5, #6
 721 028c 05EBC519 		add	r9, r5, r5, lsl #7
 722 0290 05EB4905 		add	r5, r5, r9, lsl #1
 723 0294 0335     		adds	r5, r5, #3
 724 0296 C5F38715 		ubfx	r5, r5, #6, #8
 725 029a 65F30F28 		bfi	r8, r5, #8, #8
 426:Middlewares/LVGL/GUI/lvgl/src/extra/widgets/led/../../../../src/hal/../draw/../misc/lv_color.h ****     LV_COLOR_SET_A32(ret, 0xFF);
 726              		.loc 2 426 5 view .LVU242
 727 029e 00F01F00 		and	r0, r0, #31
 728              	.LVL84:
 426:Middlewares/LVGL/GUI/lvgl/src/extra/widgets/led/../../../../src/hal/../draw/../misc/lv_color.h ****     LV_COLOR_SET_A32(ret, 0xFF);
 729              		.loc 2 426 5 is_stmt 0 view .LVU243
 730 02a2 00EB4015 		add	r5, r0, r0, lsl #5
 731 02a6 C0EBC500 		rsb	r0, r0, r5, lsl #3
 732 02aa 0730     		adds	r0, r0, #7
 733 02ac C0F34710 		ubfx	r0, r0, #5, #8
 734 02b0 60F30708 		bfi	r8, r0, #0, #8
 427:Middlewares/LVGL/GUI/lvgl/src/extra/widgets/led/../../../../src/hal/../draw/../misc/lv_color.h ****     return ret.full;
 735              		.loc 2 427 5 is_stmt 1 view .LVU244
 736 02b4 48F07F48 		orr	r8, r8, #-16777216
 737              	.LVL85:
 428:Middlewares/LVGL/GUI/lvgl/src/extra/widgets/led/../../../../src/hal/../draw/../misc/lv_color.h **** #elif LV_COLOR_DEPTH == 32
 738              		.loc 2 428 5 view .LVU245
 739              	.LBE174:
 740              	.LBE173:
 588:Middlewares/LVGL/GUI/lvgl/src/extra/widgets/led/../../../../src/hal/../draw/../misc/lv_color.h ****     return (uint8_t)(bright >> 3);
 741              		.loc 2 588 5 view .LVU246
 588:Middlewares/LVGL/GUI/lvgl/src/extra/widgets/led/../../../../src/hal/../draw/../misc/lv_color.h ****     return (uint8_t)(bright >> 3);
 742              		.loc 2 588 39 is_stmt 0 view .LVU247
 743 02b8 C8F30740 		ubfx	r0, r8, #16, #8
 588:Middlewares/LVGL/GUI/lvgl/src/extra/widgets/led/../../../../src/hal/../draw/../misc/lv_color.h ****     return (uint8_t)(bright >> 3);
 744              		.loc 2 588 37 view .LVU248
 745 02bc 00EB4000 		add	r0, r0, r0, lsl #1
 588:Middlewares/LVGL/GUI/lvgl/src/extra/widgets/led/../../../../src/hal/../draw/../misc/lv_color.h ****     return (uint8_t)(bright >> 3);
 746              		.loc 2 588 92 view .LVU249
 747 02c0 C8F30725 		ubfx	r5, r8, #8, #8
 588:Middlewares/LVGL/GUI/lvgl/src/extra/widgets/led/../../../../src/hal/../draw/../misc/lv_color.h ****     return (uint8_t)(bright >> 3);
 748              		.loc 2 588 85 view .LVU250
 749 02c4 00EB8505 		add	r5, r0, r5, lsl #2
 588:Middlewares/LVGL/GUI/lvgl/src/extra/widgets/led/../../../../src/hal/../draw/../misc/lv_color.h ****     return (uint8_t)(bright >> 3);
 750              		.loc 2 588 63 view .LVU251
 751 02c8 5FFA88F8 		uxtb	r8, r8
 752              	.LVL86:
 588:Middlewares/LVGL/GUI/lvgl/src/extra/widgets/led/../../../../src/hal/../draw/../misc/lv_color.h ****     return (uint8_t)(bright >> 3);
 753              		.loc 2 588 14 view .LVU252
 754 02cc 18FA85F5 		uxtah	r5, r8, r5
ARM GAS  C:\Users\ADMINI~1\AppData\Local\Temp\ccD0EkwD.s 			page 34


 755              	.LVL87:
 589:Middlewares/LVGL/GUI/lvgl/src/extra/widgets/led/../../../../src/hal/../draw/../misc/lv_color.h **** }
 756              		.loc 2 589 5 is_stmt 1 view .LVU253
 589:Middlewares/LVGL/GUI/lvgl/src/extra/widgets/led/../../../../src/hal/../draw/../misc/lv_color.h **** }
 757              		.loc 2 589 12 is_stmt 0 view .LVU254
 758 02d0 C5F3C705 		ubfx	r5, r5, #3, #8
 759              	.LVL88:
 589:Middlewares/LVGL/GUI/lvgl/src/extra/widgets/led/../../../../src/hal/../draw/../misc/lv_color.h **** }
 760              		.loc 2 589 12 view .LVU255
 761              	.LBE172:
 762              	.LBE171:
 763              	.LBB175:
 764              	.LBI175:
 443:Middlewares/LVGL/GUI/lvgl/src/extra/widgets/led/../../../../src/hal/../draw/../misc/lv_color.h **** {
 765              		.loc 2 443 48 is_stmt 1 view .LVU256
 766              	.LBB176:
 445:Middlewares/LVGL/GUI/lvgl/src/extra/widgets/led/../../../../src/hal/../draw/../misc/lv_color.h **** 
 767              		.loc 2 445 5 view .LVU257
 449:Middlewares/LVGL/GUI/lvgl/src/extra/widgets/led/../../../../src/hal/../draw/../misc/lv_color.h ****     uint32_t bg = (uint32_t)((uint32_t)c2.full | ((uint32_t)c2.full << 16)) &
 768              		.loc 2 449 5 view .LVU258
 449:Middlewares/LVGL/GUI/lvgl/src/extra/widgets/led/../../../../src/hal/../draw/../misc/lv_color.h ****     uint32_t bg = (uint32_t)((uint32_t)c2.full | ((uint32_t)c2.full << 16)) &
 769              		.loc 2 449 16 is_stmt 0 view .LVU259
 770 02d4 0435     		adds	r5, r5, #4
 771              	.LVL89:
 450:Middlewares/LVGL/GUI/lvgl/src/extra/widgets/led/../../../../src/hal/../draw/../misc/lv_color.h ****                   0x7E0F81F; /*0b00000111111000001111100000011111*/
 772              		.loc 2 450 5 is_stmt 1 view .LVU260
 452:Middlewares/LVGL/GUI/lvgl/src/extra/widgets/led/../../../../src/hal/../draw/../misc/lv_color.h ****     uint32_t result = ((((fg - bg) * mix) >> 5) + bg) & 0x7E0F81F;
 773              		.loc 2 452 5 view .LVU261
 453:Middlewares/LVGL/GUI/lvgl/src/extra/widgets/led/../../../../src/hal/../draw/../misc/lv_color.h ****     ret.full = (uint16_t)((result >> 16) | result);
 774              		.loc 2 453 5 view .LVU262
 453:Middlewares/LVGL/GUI/lvgl/src/extra/widgets/led/../../../../src/hal/../draw/../misc/lv_color.h ****     ret.full = (uint16_t)((result >> 16) | result);
 775              		.loc 2 453 30 is_stmt 0 view .LVU263
 776 02d6 0EEA070E 		and	lr, lr, r7
 777              	.LVL90:
 453:Middlewares/LVGL/GUI/lvgl/src/extra/widgets/led/../../../../src/hal/../draw/../misc/lv_color.h ****     ret.full = (uint16_t)((result >> 16) | result);
 778              		.loc 2 453 36 view .LVU264
 779 02da C5F3C705 		ubfx	r5, r5, #3, #8
 780              	.LVL91:
 453:Middlewares/LVGL/GUI/lvgl/src/extra/widgets/led/../../../../src/hal/../draw/../misc/lv_color.h ****     ret.full = (uint16_t)((result >> 16) | result);
 781              		.loc 2 453 36 view .LVU265
 782 02de 0EFB05F5 		mul	r5, lr, r5
 453:Middlewares/LVGL/GUI/lvgl/src/extra/widgets/led/../../../../src/hal/../draw/../misc/lv_color.h ****     ret.full = (uint16_t)((result >> 16) | result);
 783              		.loc 2 453 14 view .LVU266
 784 02e2 07EA5515 		and	r5, r7, r5, lsr #5
 785              	.LVL92:
 454:Middlewares/LVGL/GUI/lvgl/src/extra/widgets/led/../../../../src/hal/../draw/../misc/lv_color.h **** #elif LV_COLOR_DEPTH != 1
 786              		.loc 2 454 5 is_stmt 1 view .LVU267
 454:Middlewares/LVGL/GUI/lvgl/src/extra/widgets/led/../../../../src/hal/../draw/../misc/lv_color.h **** #elif LV_COLOR_DEPTH != 1
 787              		.loc 2 454 16 is_stmt 0 view .LVU268
 788 02e6 45EA1545 		orr	r5, r5, r5, lsr #16
 789              	.LVL93:
 454:Middlewares/LVGL/GUI/lvgl/src/extra/widgets/led/../../../../src/hal/../draw/../misc/lv_color.h **** #elif LV_COLOR_DEPTH != 1
 790              		.loc 2 454 16 view .LVU269
 791 02ea ADB2     		uxth	r5, r5
 469:Middlewares/LVGL/GUI/lvgl/src/extra/widgets/led/../../../../src/hal/../draw/../misc/lv_color.h **** }
 792              		.loc 2 469 5 is_stmt 1 view .LVU270
 793              	.LVL94:
ARM GAS  C:\Users\ADMINI~1\AppData\Local\Temp\ccD0EkwD.s 			page 35


 469:Middlewares/LVGL/GUI/lvgl/src/extra/widgets/led/../../../../src/hal/../draw/../misc/lv_color.h **** }
 794              		.loc 2 469 5 is_stmt 0 view .LVU271
 795              	.LBE176:
 796              	.LBE175:
 187:Middlewares/LVGL/GUI/lvgl/src/extra/widgets/led/lv_led.c **** 
 797              		.loc 1 187 34 view .LVU272
 798 02ec ADF82650 		strh	r5, [sp, #38]	@ movhi
 190:Middlewares/LVGL/GUI/lvgl/src/extra/widgets/led/lv_led.c ****         rect_dsc.bg_grad.stops[1].color   = lv_color_mix(rect_dsc.bg_grad.stops[1].color, lv_color_
 799              		.loc 1 190 9 is_stmt 1 view .LVU273
 800              	.LBB177:
 801              	.LBI177:
 697:Middlewares/LVGL/GUI/lvgl/src/extra/widgets/led/../../../../src/hal/../draw/../misc/lv_color.h **** {
 802              		.loc 2 697 26 view .LVU274
 803              	.LBE177:
 804              	.LBE211:
 805              		.loc 2 699 5 view .LVU275
 806              	.LVL95:
 807              	.LBB212:
 808              	.LBB180:
 809              	.LBB178:
 810              	.LBI178:
 592:Middlewares/LVGL/GUI/lvgl/src/extra/widgets/led/../../../../src/hal/../draw/../misc/lv_color.h **** {
 811              		.loc 2 592 26 view .LVU276
 812              	.LBB179:
 594:Middlewares/LVGL/GUI/lvgl/src/extra/widgets/led/../../../../src/hal/../draw/../misc/lv_color.h **** }
 813              		.loc 2 594 5 view .LVU277
 594:Middlewares/LVGL/GUI/lvgl/src/extra/widgets/led/../../../../src/hal/../draw/../misc/lv_color.h **** }
 814              		.loc 2 594 5 is_stmt 0 view .LVU278
 815              	.LBE179:
 816              	.LBE178:
 817              	.LBE180:
 190:Middlewares/LVGL/GUI/lvgl/src/extra/widgets/led/lv_led.c ****         rect_dsc.bg_grad.stops[1].color   = lv_color_mix(rect_dsc.bg_grad.stops[1].color, lv_color_
 818              		.loc 1 190 45 view .LVU279
 819 02f0 96F82E00 		ldrb	r0, [r6, #46]	@ zero_extendqisi2
 820              	.LVL96:
 821              	.LBB181:
 822              	.LBI181:
 443:Middlewares/LVGL/GUI/lvgl/src/extra/widgets/led/../../../../src/hal/../draw/../misc/lv_color.h **** {
 823              		.loc 2 443 48 is_stmt 1 view .LVU280
 824              	.LBB182:
 445:Middlewares/LVGL/GUI/lvgl/src/extra/widgets/led/../../../../src/hal/../draw/../misc/lv_color.h **** 
 825              		.loc 2 445 5 view .LVU281
 449:Middlewares/LVGL/GUI/lvgl/src/extra/widgets/led/../../../../src/hal/../draw/../misc/lv_color.h ****     uint32_t bg = (uint32_t)((uint32_t)c2.full | ((uint32_t)c2.full << 16)) &
 826              		.loc 2 449 5 view .LVU282
 449:Middlewares/LVGL/GUI/lvgl/src/extra/widgets/led/../../../../src/hal/../draw/../misc/lv_color.h ****     uint32_t bg = (uint32_t)((uint32_t)c2.full | ((uint32_t)c2.full << 16)) &
 827              		.loc 2 449 16 is_stmt 0 view .LVU283
 828 02f4 0430     		adds	r0, r0, #4
 829              	.LVL97:
 450:Middlewares/LVGL/GUI/lvgl/src/extra/widgets/led/../../../../src/hal/../draw/../misc/lv_color.h ****                   0x7E0F81F; /*0b00000111111000001111100000011111*/
 830              		.loc 2 450 5 is_stmt 1 view .LVU284
 452:Middlewares/LVGL/GUI/lvgl/src/extra/widgets/led/../../../../src/hal/../draw/../misc/lv_color.h ****     uint32_t result = ((((fg - bg) * mix) >> 5) + bg) & 0x7E0F81F;
 831              		.loc 2 452 5 view .LVU285
 452:Middlewares/LVGL/GUI/lvgl/src/extra/widgets/led/../../../../src/hal/../draw/../misc/lv_color.h ****     uint32_t result = ((((fg - bg) * mix) >> 5) + bg) & 0x7E0F81F;
 832              		.loc 2 452 19 is_stmt 0 view .LVU286
 833 02f6 41EA0141 		orr	r1, r1, r1, lsl #16
 834              	.LVL98:
 453:Middlewares/LVGL/GUI/lvgl/src/extra/widgets/led/../../../../src/hal/../draw/../misc/lv_color.h ****     ret.full = (uint16_t)((result >> 16) | result);
ARM GAS  C:\Users\ADMINI~1\AppData\Local\Temp\ccD0EkwD.s 			page 36


 835              		.loc 2 453 5 is_stmt 1 view .LVU287
 453:Middlewares/LVGL/GUI/lvgl/src/extra/widgets/led/../../../../src/hal/../draw/../misc/lv_color.h ****     ret.full = (uint16_t)((result >> 16) | result);
 836              		.loc 2 453 30 is_stmt 0 view .LVU288
 837 02fa 3940     		ands	r1, r1, r7
 838              	.LVL99:
 453:Middlewares/LVGL/GUI/lvgl/src/extra/widgets/led/../../../../src/hal/../draw/../misc/lv_color.h ****     ret.full = (uint16_t)((result >> 16) | result);
 839              		.loc 2 453 36 view .LVU289
 840 02fc C008     		lsrs	r0, r0, #3
 841              	.LVL100:
 453:Middlewares/LVGL/GUI/lvgl/src/extra/widgets/led/../../../../src/hal/../draw/../misc/lv_color.h ****     ret.full = (uint16_t)((result >> 16) | result);
 842              		.loc 2 453 36 view .LVU290
 843 02fe 00FB01F1 		mul	r1, r0, r1
 844              	.LVL101:
 453:Middlewares/LVGL/GUI/lvgl/src/extra/widgets/led/../../../../src/hal/../draw/../misc/lv_color.h ****     ret.full = (uint16_t)((result >> 16) | result);
 845              		.loc 2 453 14 view .LVU291
 846 0302 07EA5111 		and	r1, r7, r1, lsr #5
 847              	.LVL102:
 454:Middlewares/LVGL/GUI/lvgl/src/extra/widgets/led/../../../../src/hal/../draw/../misc/lv_color.h **** #elif LV_COLOR_DEPTH != 1
 848              		.loc 2 454 5 is_stmt 1 view .LVU292
 454:Middlewares/LVGL/GUI/lvgl/src/extra/widgets/led/../../../../src/hal/../draw/../misc/lv_color.h **** #elif LV_COLOR_DEPTH != 1
 849              		.loc 2 454 16 is_stmt 0 view .LVU293
 850 0306 41EA1141 		orr	r1, r1, r1, lsr #16
 851              	.LVL103:
 469:Middlewares/LVGL/GUI/lvgl/src/extra/widgets/led/../../../../src/hal/../draw/../misc/lv_color.h **** }
 852              		.loc 2 469 5 is_stmt 1 view .LVU294
 469:Middlewares/LVGL/GUI/lvgl/src/extra/widgets/led/../../../../src/hal/../draw/../misc/lv_color.h **** }
 853              		.loc 2 469 5 is_stmt 0 view .LVU295
 854              	.LBE182:
 855              	.LBE181:
 190:Middlewares/LVGL/GUI/lvgl/src/extra/widgets/led/lv_led.c ****         rect_dsc.bg_grad.stops[1].color   = lv_color_mix(rect_dsc.bg_grad.stops[1].color, lv_color_
 856              		.loc 1 190 45 view .LVU296
 857 030a ADF80610 		strh	r1, [sp, #6]	@ movhi
 191:Middlewares/LVGL/GUI/lvgl/src/extra/widgets/led/lv_led.c ****         rect_dsc.border_color = lv_color_mix(rect_dsc.border_color, lv_color_black(), led->bright);
 858              		.loc 1 191 9 is_stmt 1 view .LVU297
 859              	.LBB183:
 860              	.LBI183:
 697:Middlewares/LVGL/GUI/lvgl/src/extra/widgets/led/../../../../src/hal/../draw/../misc/lv_color.h **** {
 861              		.loc 2 697 26 view .LVU298
 862              	.LBE183:
 863              	.LBE212:
 864              		.loc 2 699 5 view .LVU299
 865              	.LVL104:
 866              	.LBB213:
 867              	.LBB186:
 868              	.LBB184:
 869              	.LBI184:
 592:Middlewares/LVGL/GUI/lvgl/src/extra/widgets/led/../../../../src/hal/../draw/../misc/lv_color.h **** {
 870              		.loc 2 592 26 view .LVU300
 871              	.LBB185:
 594:Middlewares/LVGL/GUI/lvgl/src/extra/widgets/led/../../../../src/hal/../draw/../misc/lv_color.h **** }
 872              		.loc 2 594 5 view .LVU301
 594:Middlewares/LVGL/GUI/lvgl/src/extra/widgets/led/../../../../src/hal/../draw/../misc/lv_color.h **** }
 873              		.loc 2 594 5 is_stmt 0 view .LVU302
 874              	.LBE185:
 875              	.LBE184:
 876              	.LBE186:
 877              	.LBB187:
ARM GAS  C:\Users\ADMINI~1\AppData\Local\Temp\ccD0EkwD.s 			page 37


 878              	.LBI187:
 443:Middlewares/LVGL/GUI/lvgl/src/extra/widgets/led/../../../../src/hal/../draw/../misc/lv_color.h **** {
 879              		.loc 2 443 48 is_stmt 1 view .LVU303
 880              	.LBB188:
 445:Middlewares/LVGL/GUI/lvgl/src/extra/widgets/led/../../../../src/hal/../draw/../misc/lv_color.h **** 
 881              		.loc 2 445 5 view .LVU304
 449:Middlewares/LVGL/GUI/lvgl/src/extra/widgets/led/../../../../src/hal/../draw/../misc/lv_color.h ****     uint32_t bg = (uint32_t)((uint32_t)c2.full | ((uint32_t)c2.full << 16)) &
 882              		.loc 2 449 5 view .LVU305
 450:Middlewares/LVGL/GUI/lvgl/src/extra/widgets/led/../../../../src/hal/../draw/../misc/lv_color.h ****                   0x7E0F81F; /*0b00000111111000001111100000011111*/
 883              		.loc 2 450 5 view .LVU306
 452:Middlewares/LVGL/GUI/lvgl/src/extra/widgets/led/../../../../src/hal/../draw/../misc/lv_color.h ****     uint32_t result = ((((fg - bg) * mix) >> 5) + bg) & 0x7E0F81F;
 884              		.loc 2 452 5 view .LVU307
 452:Middlewares/LVGL/GUI/lvgl/src/extra/widgets/led/../../../../src/hal/../draw/../misc/lv_color.h ****     uint32_t result = ((((fg - bg) * mix) >> 5) + bg) & 0x7E0F81F;
 885              		.loc 2 452 19 is_stmt 0 view .LVU308
 886 030e 42EA0242 		orr	r2, r2, r2, lsl #16
 887              	.LVL105:
 453:Middlewares/LVGL/GUI/lvgl/src/extra/widgets/led/../../../../src/hal/../draw/../misc/lv_color.h ****     ret.full = (uint16_t)((result >> 16) | result);
 888              		.loc 2 453 5 is_stmt 1 view .LVU309
 453:Middlewares/LVGL/GUI/lvgl/src/extra/widgets/led/../../../../src/hal/../draw/../misc/lv_color.h ****     ret.full = (uint16_t)((result >> 16) | result);
 889              		.loc 2 453 30 is_stmt 0 view .LVU310
 890 0312 3A40     		ands	r2, r2, r7
 891              	.LVL106:
 453:Middlewares/LVGL/GUI/lvgl/src/extra/widgets/led/../../../../src/hal/../draw/../misc/lv_color.h ****     ret.full = (uint16_t)((result >> 16) | result);
 892              		.loc 2 453 36 view .LVU311
 893 0314 00FB02F2 		mul	r2, r0, r2
 894              	.LVL107:
 453:Middlewares/LVGL/GUI/lvgl/src/extra/widgets/led/../../../../src/hal/../draw/../misc/lv_color.h ****     ret.full = (uint16_t)((result >> 16) | result);
 895              		.loc 2 453 14 view .LVU312
 896 0318 07EA5212 		and	r2, r7, r2, lsr #5
 897              	.LVL108:
 454:Middlewares/LVGL/GUI/lvgl/src/extra/widgets/led/../../../../src/hal/../draw/../misc/lv_color.h **** #elif LV_COLOR_DEPTH != 1
 898              		.loc 2 454 5 is_stmt 1 view .LVU313
 454:Middlewares/LVGL/GUI/lvgl/src/extra/widgets/led/../../../../src/hal/../draw/../misc/lv_color.h **** #elif LV_COLOR_DEPTH != 1
 899              		.loc 2 454 16 is_stmt 0 view .LVU314
 900 031c 42EA1242 		orr	r2, r2, r2, lsr #16
 901              	.LVL109:
 469:Middlewares/LVGL/GUI/lvgl/src/extra/widgets/led/../../../../src/hal/../draw/../misc/lv_color.h **** }
 902              		.loc 2 469 5 is_stmt 1 view .LVU315
 469:Middlewares/LVGL/GUI/lvgl/src/extra/widgets/led/../../../../src/hal/../draw/../misc/lv_color.h **** }
 903              		.loc 2 469 5 is_stmt 0 view .LVU316
 904              	.LBE188:
 905              	.LBE187:
 191:Middlewares/LVGL/GUI/lvgl/src/extra/widgets/led/lv_led.c ****         rect_dsc.border_color = lv_color_mix(rect_dsc.border_color, lv_color_black(), led->bright);
 906              		.loc 1 191 45 view .LVU317
 907 0320 ADF80A20 		strh	r2, [sp, #10]	@ movhi
 192:Middlewares/LVGL/GUI/lvgl/src/extra/widgets/led/lv_led.c ****         rect_dsc.shadow_color = lv_color_mix(rect_dsc.shadow_color, lv_color_black(), led->bright);
 908              		.loc 1 192 9 is_stmt 1 view .LVU318
 909              	.LBB189:
 910              	.LBI189:
 697:Middlewares/LVGL/GUI/lvgl/src/extra/widgets/led/../../../../src/hal/../draw/../misc/lv_color.h **** {
 911              		.loc 2 697 26 view .LVU319
 912              	.LBE189:
 913              	.LBE213:
 914              		.loc 2 699 5 view .LVU320
 915              	.LVL110:
 916              	.LBB214:
 917              	.LBB192:
ARM GAS  C:\Users\ADMINI~1\AppData\Local\Temp\ccD0EkwD.s 			page 38


 918              	.LBB190:
 919              	.LBI190:
 592:Middlewares/LVGL/GUI/lvgl/src/extra/widgets/led/../../../../src/hal/../draw/../misc/lv_color.h **** {
 920              		.loc 2 592 26 view .LVU321
 921              	.LBB191:
 594:Middlewares/LVGL/GUI/lvgl/src/extra/widgets/led/../../../../src/hal/../draw/../misc/lv_color.h **** }
 922              		.loc 2 594 5 view .LVU322
 594:Middlewares/LVGL/GUI/lvgl/src/extra/widgets/led/../../../../src/hal/../draw/../misc/lv_color.h **** }
 923              		.loc 2 594 5 is_stmt 0 view .LVU323
 924              	.LBE191:
 925              	.LBE190:
 926              	.LBE192:
 927              	.LBB193:
 928              	.LBI193:
 443:Middlewares/LVGL/GUI/lvgl/src/extra/widgets/led/../../../../src/hal/../draw/../misc/lv_color.h **** {
 929              		.loc 2 443 48 is_stmt 1 view .LVU324
 930              	.LBB194:
 445:Middlewares/LVGL/GUI/lvgl/src/extra/widgets/led/../../../../src/hal/../draw/../misc/lv_color.h **** 
 931              		.loc 2 445 5 view .LVU325
 449:Middlewares/LVGL/GUI/lvgl/src/extra/widgets/led/../../../../src/hal/../draw/../misc/lv_color.h ****     uint32_t bg = (uint32_t)((uint32_t)c2.full | ((uint32_t)c2.full << 16)) &
 932              		.loc 2 449 5 view .LVU326
 450:Middlewares/LVGL/GUI/lvgl/src/extra/widgets/led/../../../../src/hal/../draw/../misc/lv_color.h ****                   0x7E0F81F; /*0b00000111111000001111100000011111*/
 933              		.loc 2 450 5 view .LVU327
 452:Middlewares/LVGL/GUI/lvgl/src/extra/widgets/led/../../../../src/hal/../draw/../misc/lv_color.h ****     uint32_t result = ((((fg - bg) * mix) >> 5) + bg) & 0x7E0F81F;
 934              		.loc 2 452 5 view .LVU328
 452:Middlewares/LVGL/GUI/lvgl/src/extra/widgets/led/../../../../src/hal/../draw/../misc/lv_color.h ****     uint32_t result = ((((fg - bg) * mix) >> 5) + bg) & 0x7E0F81F;
 935              		.loc 2 452 19 is_stmt 0 view .LVU329
 936 0324 43EA0343 		orr	r3, r3, r3, lsl #16
 937              	.LVL111:
 453:Middlewares/LVGL/GUI/lvgl/src/extra/widgets/led/../../../../src/hal/../draw/../misc/lv_color.h ****     ret.full = (uint16_t)((result >> 16) | result);
 938              		.loc 2 453 5 is_stmt 1 view .LVU330
 453:Middlewares/LVGL/GUI/lvgl/src/extra/widgets/led/../../../../src/hal/../draw/../misc/lv_color.h ****     ret.full = (uint16_t)((result >> 16) | result);
 939              		.loc 2 453 30 is_stmt 0 view .LVU331
 940 0328 3B40     		ands	r3, r3, r7
 941              	.LVL112:
 453:Middlewares/LVGL/GUI/lvgl/src/extra/widgets/led/../../../../src/hal/../draw/../misc/lv_color.h ****     ret.full = (uint16_t)((result >> 16) | result);
 942              		.loc 2 453 36 view .LVU332
 943 032a 00FB03F3 		mul	r3, r0, r3
 944              	.LVL113:
 453:Middlewares/LVGL/GUI/lvgl/src/extra/widgets/led/../../../../src/hal/../draw/../misc/lv_color.h ****     ret.full = (uint16_t)((result >> 16) | result);
 945              		.loc 2 453 14 view .LVU333
 946 032e 07EA5313 		and	r3, r7, r3, lsr #5
 947              	.LVL114:
 454:Middlewares/LVGL/GUI/lvgl/src/extra/widgets/led/../../../../src/hal/../draw/../misc/lv_color.h **** #elif LV_COLOR_DEPTH != 1
 948              		.loc 2 454 5 is_stmt 1 view .LVU334
 454:Middlewares/LVGL/GUI/lvgl/src/extra/widgets/led/../../../../src/hal/../draw/../misc/lv_color.h **** #elif LV_COLOR_DEPTH != 1
 949              		.loc 2 454 16 is_stmt 0 view .LVU335
 950 0332 43EA1343 		orr	r3, r3, r3, lsr #16
 951              	.LVL115:
 469:Middlewares/LVGL/GUI/lvgl/src/extra/widgets/led/../../../../src/hal/../draw/../misc/lv_color.h **** }
 952              		.loc 2 469 5 is_stmt 1 view .LVU336
 469:Middlewares/LVGL/GUI/lvgl/src/extra/widgets/led/../../../../src/hal/../draw/../misc/lv_color.h **** }
 953              		.loc 2 469 5 is_stmt 0 view .LVU337
 954              	.LBE194:
 955              	.LBE193:
 192:Middlewares/LVGL/GUI/lvgl/src/extra/widgets/led/lv_led.c ****         rect_dsc.shadow_color = lv_color_mix(rect_dsc.shadow_color, lv_color_black(), led->bright);
 956              		.loc 1 192 33 view .LVU338
ARM GAS  C:\Users\ADMINI~1\AppData\Local\Temp\ccD0EkwD.s 			page 39


 957 0336 ADF81E30 		strh	r3, [sp, #30]	@ movhi
 193:Middlewares/LVGL/GUI/lvgl/src/extra/widgets/led/lv_led.c ****         rect_dsc.outline_color = lv_color_mix(rect_dsc.outline_color, lv_color_black(), led->bright
 958              		.loc 1 193 9 is_stmt 1 view .LVU339
 959              	.LBB195:
 960              	.LBI195:
 697:Middlewares/LVGL/GUI/lvgl/src/extra/widgets/led/../../../../src/hal/../draw/../misc/lv_color.h **** {
 961              		.loc 2 697 26 view .LVU340
 962              	.LBE195:
 963              	.LBE214:
 964              		.loc 2 699 5 view .LVU341
 965              	.LVL116:
 966              	.LBB215:
 967              	.LBB198:
 968              	.LBB196:
 969              	.LBI196:
 592:Middlewares/LVGL/GUI/lvgl/src/extra/widgets/led/../../../../src/hal/../draw/../misc/lv_color.h **** {
 970              		.loc 2 592 26 view .LVU342
 971              	.LBB197:
 594:Middlewares/LVGL/GUI/lvgl/src/extra/widgets/led/../../../../src/hal/../draw/../misc/lv_color.h **** }
 972              		.loc 2 594 5 view .LVU343
 594:Middlewares/LVGL/GUI/lvgl/src/extra/widgets/led/../../../../src/hal/../draw/../misc/lv_color.h **** }
 973              		.loc 2 594 5 is_stmt 0 view .LVU344
 974              	.LBE197:
 975              	.LBE196:
 976              	.LBE198:
 977              	.LBB199:
 978              	.LBI199:
 443:Middlewares/LVGL/GUI/lvgl/src/extra/widgets/led/../../../../src/hal/../draw/../misc/lv_color.h **** {
 979              		.loc 2 443 48 is_stmt 1 view .LVU345
 980              	.LBB200:
 445:Middlewares/LVGL/GUI/lvgl/src/extra/widgets/led/../../../../src/hal/../draw/../misc/lv_color.h **** 
 981              		.loc 2 445 5 view .LVU346
 449:Middlewares/LVGL/GUI/lvgl/src/extra/widgets/led/../../../../src/hal/../draw/../misc/lv_color.h ****     uint32_t bg = (uint32_t)((uint32_t)c2.full | ((uint32_t)c2.full << 16)) &
 982              		.loc 2 449 5 view .LVU347
 450:Middlewares/LVGL/GUI/lvgl/src/extra/widgets/led/../../../../src/hal/../draw/../misc/lv_color.h ****                   0x7E0F81F; /*0b00000111111000001111100000011111*/
 983              		.loc 2 450 5 view .LVU348
 452:Middlewares/LVGL/GUI/lvgl/src/extra/widgets/led/../../../../src/hal/../draw/../misc/lv_color.h ****     uint32_t result = ((((fg - bg) * mix) >> 5) + bg) & 0x7E0F81F;
 984              		.loc 2 452 5 view .LVU349
 452:Middlewares/LVGL/GUI/lvgl/src/extra/widgets/led/../../../../src/hal/../draw/../misc/lv_color.h ****     uint32_t result = ((((fg - bg) * mix) >> 5) + bg) & 0x7E0F81F;
 985              		.loc 2 452 19 is_stmt 0 view .LVU350
 986 033a 4CEA0C4C 		orr	ip, ip, ip, lsl #16
 987              	.LVL117:
 453:Middlewares/LVGL/GUI/lvgl/src/extra/widgets/led/../../../../src/hal/../draw/../misc/lv_color.h ****     ret.full = (uint16_t)((result >> 16) | result);
 988              		.loc 2 453 5 is_stmt 1 view .LVU351
 453:Middlewares/LVGL/GUI/lvgl/src/extra/widgets/led/../../../../src/hal/../draw/../misc/lv_color.h ****     ret.full = (uint16_t)((result >> 16) | result);
 989              		.loc 2 453 30 is_stmt 0 view .LVU352
 990 033e 0CEA070C 		and	ip, ip, r7
 991              	.LVL118:
 453:Middlewares/LVGL/GUI/lvgl/src/extra/widgets/led/../../../../src/hal/../draw/../misc/lv_color.h ****     ret.full = (uint16_t)((result >> 16) | result);
 992              		.loc 2 453 36 view .LVU353
 993 0342 0CFB00F0 		mul	r0, ip, r0
 453:Middlewares/LVGL/GUI/lvgl/src/extra/widgets/led/../../../../src/hal/../draw/../misc/lv_color.h ****     ret.full = (uint16_t)((result >> 16) | result);
 994              		.loc 2 453 14 view .LVU354
 995 0346 07EA5010 		and	r0, r7, r0, lsr #5
 996              	.LVL119:
 454:Middlewares/LVGL/GUI/lvgl/src/extra/widgets/led/../../../../src/hal/../draw/../misc/lv_color.h **** #elif LV_COLOR_DEPTH != 1
 997              		.loc 2 454 5 is_stmt 1 view .LVU355
ARM GAS  C:\Users\ADMINI~1\AppData\Local\Temp\ccD0EkwD.s 			page 40


 454:Middlewares/LVGL/GUI/lvgl/src/extra/widgets/led/../../../../src/hal/../draw/../misc/lv_color.h **** #elif LV_COLOR_DEPTH != 1
 998              		.loc 2 454 16 is_stmt 0 view .LVU356
 999 034a 40EA1040 		orr	r0, r0, r0, lsr #16
 1000              	.LVL120:
 469:Middlewares/LVGL/GUI/lvgl/src/extra/widgets/led/../../../../src/hal/../draw/../misc/lv_color.h **** }
 1001              		.loc 2 469 5 is_stmt 1 view .LVU357
 469:Middlewares/LVGL/GUI/lvgl/src/extra/widgets/led/../../../../src/hal/../draw/../misc/lv_color.h **** }
 1002              		.loc 2 469 5 is_stmt 0 view .LVU358
 1003              	.LBE200:
 1004              	.LBE199:
 193:Middlewares/LVGL/GUI/lvgl/src/extra/widgets/led/lv_led.c ****         rect_dsc.outline_color = lv_color_mix(rect_dsc.outline_color, lv_color_black(), led->bright
 1005              		.loc 1 193 33 view .LVU359
 1006 034e ADF83200 		strh	r0, [sp, #50]	@ movhi
 194:Middlewares/LVGL/GUI/lvgl/src/extra/widgets/led/lv_led.c **** 
 1007              		.loc 1 194 9 is_stmt 1 view .LVU360
 1008              	.LBB201:
 1009              	.LBI201:
 697:Middlewares/LVGL/GUI/lvgl/src/extra/widgets/led/../../../../src/hal/../draw/../misc/lv_color.h **** {
 1010              		.loc 2 697 26 view .LVU361
 1011              	.LBE201:
 1012              	.LBE215:
 1013              		.loc 2 699 5 view .LVU362
 1014              	.LVL121:
 1015              	.LBB216:
 1016              	.LBB204:
 1017              	.LBB202:
 1018              	.LBI202:
 592:Middlewares/LVGL/GUI/lvgl/src/extra/widgets/led/../../../../src/hal/../draw/../misc/lv_color.h **** {
 1019              		.loc 2 592 26 view .LVU363
 1020              	.LBB203:
 594:Middlewares/LVGL/GUI/lvgl/src/extra/widgets/led/../../../../src/hal/../draw/../misc/lv_color.h **** }
 1021              		.loc 2 594 5 view .LVU364
 594:Middlewares/LVGL/GUI/lvgl/src/extra/widgets/led/../../../../src/hal/../draw/../misc/lv_color.h **** }
 1022              		.loc 2 594 5 is_stmt 0 view .LVU365
 1023              	.LBE203:
 1024              	.LBE202:
 1025              	.LBE204:
 194:Middlewares/LVGL/GUI/lvgl/src/extra/widgets/led/lv_led.c **** 
 1026              		.loc 1 194 34 view .LVU366
 1027 0352 96F82E20 		ldrb	r2, [r6, #46]	@ zero_extendqisi2
 1028              	.LVL122:
 1029              	.LBB205:
 1030              	.LBI205:
 443:Middlewares/LVGL/GUI/lvgl/src/extra/widgets/led/../../../../src/hal/../draw/../misc/lv_color.h **** {
 1031              		.loc 2 443 48 is_stmt 1 view .LVU367
 1032              	.LBB206:
 445:Middlewares/LVGL/GUI/lvgl/src/extra/widgets/led/../../../../src/hal/../draw/../misc/lv_color.h **** 
 1033              		.loc 2 445 5 view .LVU368
 449:Middlewares/LVGL/GUI/lvgl/src/extra/widgets/led/../../../../src/hal/../draw/../misc/lv_color.h ****     uint32_t bg = (uint32_t)((uint32_t)c2.full | ((uint32_t)c2.full << 16)) &
 1034              		.loc 2 449 5 view .LVU369
 449:Middlewares/LVGL/GUI/lvgl/src/extra/widgets/led/../../../../src/hal/../draw/../misc/lv_color.h ****     uint32_t bg = (uint32_t)((uint32_t)c2.full | ((uint32_t)c2.full << 16)) &
 1035              		.loc 2 449 16 is_stmt 0 view .LVU370
 1036 0356 131D     		adds	r3, r2, #4
 1037              	.LVL123:
 450:Middlewares/LVGL/GUI/lvgl/src/extra/widgets/led/../../../../src/hal/../draw/../misc/lv_color.h ****                   0x7E0F81F; /*0b00000111111000001111100000011111*/
 1038              		.loc 2 450 5 is_stmt 1 view .LVU371
 452:Middlewares/LVGL/GUI/lvgl/src/extra/widgets/led/../../../../src/hal/../draw/../misc/lv_color.h ****     uint32_t result = ((((fg - bg) * mix) >> 5) + bg) & 0x7E0F81F;
ARM GAS  C:\Users\ADMINI~1\AppData\Local\Temp\ccD0EkwD.s 			page 41


 1039              		.loc 2 452 5 view .LVU372
 452:Middlewares/LVGL/GUI/lvgl/src/extra/widgets/led/../../../../src/hal/../draw/../misc/lv_color.h ****     uint32_t result = ((((fg - bg) * mix) >> 5) + bg) & 0x7E0F81F;
 1040              		.loc 2 452 19 is_stmt 0 view .LVU373
 1041 0358 45EA0545 		orr	r5, r5, r5, lsl #16
 1042              	.LVL124:
 453:Middlewares/LVGL/GUI/lvgl/src/extra/widgets/led/../../../../src/hal/../draw/../misc/lv_color.h ****     ret.full = (uint16_t)((result >> 16) | result);
 1043              		.loc 2 453 5 is_stmt 1 view .LVU374
 453:Middlewares/LVGL/GUI/lvgl/src/extra/widgets/led/../../../../src/hal/../draw/../misc/lv_color.h ****     ret.full = (uint16_t)((result >> 16) | result);
 1044              		.loc 2 453 30 is_stmt 0 view .LVU375
 1045 035c 3D40     		ands	r5, r5, r7
 1046              	.LVL125:
 453:Middlewares/LVGL/GUI/lvgl/src/extra/widgets/led/../../../../src/hal/../draw/../misc/lv_color.h ****     ret.full = (uint16_t)((result >> 16) | result);
 1047              		.loc 2 453 36 view .LVU376
 1048 035e DB08     		lsrs	r3, r3, #3
 1049              	.LVL126:
 453:Middlewares/LVGL/GUI/lvgl/src/extra/widgets/led/../../../../src/hal/../draw/../misc/lv_color.h ****     ret.full = (uint16_t)((result >> 16) | result);
 1050              		.loc 2 453 36 view .LVU377
 1051 0360 03FB05F5 		mul	r5, r3, r5
 1052              	.LVL127:
 453:Middlewares/LVGL/GUI/lvgl/src/extra/widgets/led/../../../../src/hal/../draw/../misc/lv_color.h ****     ret.full = (uint16_t)((result >> 16) | result);
 1053              		.loc 2 453 14 view .LVU378
 1054 0364 07EA5513 		and	r3, r7, r5, lsr #5
 1055              	.LVL128:
 454:Middlewares/LVGL/GUI/lvgl/src/extra/widgets/led/../../../../src/hal/../draw/../misc/lv_color.h **** #elif LV_COLOR_DEPTH != 1
 1056              		.loc 2 454 5 is_stmt 1 view .LVU379
 454:Middlewares/LVGL/GUI/lvgl/src/extra/widgets/led/../../../../src/hal/../draw/../misc/lv_color.h **** #elif LV_COLOR_DEPTH != 1
 1057              		.loc 2 454 16 is_stmt 0 view .LVU380
 1058 0368 43EA1343 		orr	r3, r3, r3, lsr #16
 1059              	.LVL129:
 469:Middlewares/LVGL/GUI/lvgl/src/extra/widgets/led/../../../../src/hal/../draw/../misc/lv_color.h **** }
 1060              		.loc 2 469 5 is_stmt 1 view .LVU381
 469:Middlewares/LVGL/GUI/lvgl/src/extra/widgets/led/../../../../src/hal/../draw/../misc/lv_color.h **** }
 1061              		.loc 2 469 5 is_stmt 0 view .LVU382
 1062              	.LBE206:
 1063              	.LBE205:
 194:Middlewares/LVGL/GUI/lvgl/src/extra/widgets/led/lv_led.c **** 
 1064              		.loc 1 194 34 view .LVU383
 1065 036c ADF82630 		strh	r3, [sp, #38]	@ movhi
 198:Middlewares/LVGL/GUI/lvgl/src/extra/widgets/led/lv_led.c ****                                 (LV_LED_BRIGHT_MAX - LV_LED_BRIGHT_MIN);
 1066              		.loc 1 198 9 is_stmt 1 view .LVU384
 198:Middlewares/LVGL/GUI/lvgl/src/extra/widgets/led/lv_led.c ****                                 (LV_LED_BRIGHT_MAX - LV_LED_BRIGHT_MIN);
 1067              		.loc 1 198 47 is_stmt 0 view .LVU385
 1068 0370 A2F15003 		sub	r3, r2, #80
 198:Middlewares/LVGL/GUI/lvgl/src/extra/widgets/led/lv_led.c ****                                 (LV_LED_BRIGHT_MAX - LV_LED_BRIGHT_MIN);
 1069              		.loc 1 198 78 view .LVU386
 1070 0374 0D9A     		ldr	r2, [sp, #52]
 198:Middlewares/LVGL/GUI/lvgl/src/extra/widgets/led/lv_led.c ****                                 (LV_LED_BRIGHT_MAX - LV_LED_BRIGHT_MIN);
 1071              		.loc 1 198 68 view .LVU387
 1072 0376 02FB03F3 		mul	r3, r2, r3
 198:Middlewares/LVGL/GUI/lvgl/src/extra/widgets/led/lv_led.c ****                                 (LV_LED_BRIGHT_MAX - LV_LED_BRIGHT_MIN);
 1073              		.loc 1 198 93 view .LVU388
 1074 037a 1B4A     		ldr	r2, .L10+4
 1075 037c 82FB0301 		smull	r0, r1, r2, r3
 1076 0380 DB17     		asrs	r3, r3, #31
 1077 0382 C3EBA113 		rsb	r3, r3, r1, asr #6
 198:Middlewares/LVGL/GUI/lvgl/src/extra/widgets/led/lv_led.c ****                                 (LV_LED_BRIGHT_MAX - LV_LED_BRIGHT_MIN);
 1078              		.loc 1 198 31 view .LVU389
ARM GAS  C:\Users\ADMINI~1\AppData\Local\Temp\ccD0EkwD.s 			page 42


 1079 0386 0D93     		str	r3, [sp, #52]
 200:Middlewares/LVGL/GUI/lvgl/src/extra/widgets/led/lv_led.c ****                                  (LV_LED_BRIGHT_MAX - LV_LED_BRIGHT_MIN);
 1080              		.loc 1 200 9 is_stmt 1 view .LVU390
 200:Middlewares/LVGL/GUI/lvgl/src/extra/widgets/led/lv_led.c ****                                  (LV_LED_BRIGHT_MAX - LV_LED_BRIGHT_MIN);
 1081              		.loc 1 200 39 is_stmt 0 view .LVU391
 1082 0388 96F82E30 		ldrb	r3, [r6, #46]	@ zero_extendqisi2
 200:Middlewares/LVGL/GUI/lvgl/src/extra/widgets/led/lv_led.c ****                                  (LV_LED_BRIGHT_MAX - LV_LED_BRIGHT_MIN);
 1083              		.loc 1 200 48 view .LVU392
 1084 038c 503B     		subs	r3, r3, #80
 200:Middlewares/LVGL/GUI/lvgl/src/extra/widgets/led/lv_led.c ****                                  (LV_LED_BRIGHT_MAX - LV_LED_BRIGHT_MIN);
 1085              		.loc 1 200 79 view .LVU393
 1086 038e 1099     		ldr	r1, [sp, #64]
 200:Middlewares/LVGL/GUI/lvgl/src/extra/widgets/led/lv_led.c ****                                  (LV_LED_BRIGHT_MAX - LV_LED_BRIGHT_MIN);
 1087              		.loc 1 200 69 view .LVU394
 1088 0390 01FB03F3 		mul	r3, r1, r3
 200:Middlewares/LVGL/GUI/lvgl/src/extra/widgets/led/lv_led.c ****                                  (LV_LED_BRIGHT_MAX - LV_LED_BRIGHT_MIN);
 1089              		.loc 1 200 95 view .LVU395
 1090 0394 82FB0312 		smull	r1, r2, r2, r3
 1091 0398 DB17     		asrs	r3, r3, #31
 1092 039a C3EBA213 		rsb	r3, r3, r2, asr #6
 200:Middlewares/LVGL/GUI/lvgl/src/extra/widgets/led/lv_led.c ****                                  (LV_LED_BRIGHT_MAX - LV_LED_BRIGHT_MIN);
 1093              		.loc 1 200 32 view .LVU396
 1094 039e 1093     		str	r3, [sp, #64]
 203:Middlewares/LVGL/GUI/lvgl/src/extra/widgets/led/lv_led.c **** 
 1095              		.loc 1 203 9 is_stmt 1 view .LVU397
 203:Middlewares/LVGL/GUI/lvgl/src/extra/widgets/led/lv_led.c **** 
 1096              		.loc 1 203 36 is_stmt 0 view .LVU398
 1097 03a0 2046     		mov	r0, r4
 1098 03a2 FFF7FEFF 		bl	lv_event_get_draw_ctx
 1099              	.LVL130:
 1100 03a6 0446     		mov	r4, r0
 1101              	.LVL131:
 205:Middlewares/LVGL/GUI/lvgl/src/extra/widgets/led/lv_led.c ****         lv_obj_draw_dsc_init(&part_draw_dsc, draw_ctx);
 1102              		.loc 1 205 9 is_stmt 1 view .LVU399
 206:Middlewares/LVGL/GUI/lvgl/src/extra/widgets/led/lv_led.c ****         part_draw_dsc.draw_area = &obj->coords;
 1103              		.loc 1 206 9 view .LVU400
 1104 03a8 0146     		mov	r1, r0
 1105 03aa 12A8     		add	r0, sp, #72
 1106              	.LVL132:
 206:Middlewares/LVGL/GUI/lvgl/src/extra/widgets/led/lv_led.c ****         part_draw_dsc.draw_area = &obj->coords;
 1107              		.loc 1 206 9 is_stmt 0 view .LVU401
 1108 03ac FFF7FEFF 		bl	lv_obj_draw_dsc_init
 1109              	.LVL133:
 207:Middlewares/LVGL/GUI/lvgl/src/extra/widgets/led/lv_led.c ****         part_draw_dsc.class_p = MY_CLASS;
 1110              		.loc 1 207 9 is_stmt 1 view .LVU402
 207:Middlewares/LVGL/GUI/lvgl/src/extra/widgets/led/lv_led.c ****         part_draw_dsc.class_p = MY_CLASS;
 1111              		.loc 1 207 35 is_stmt 0 view .LVU403
 1112 03b0 06F11405 		add	r5, r6, #20
 207:Middlewares/LVGL/GUI/lvgl/src/extra/widgets/led/lv_led.c ****         part_draw_dsc.class_p = MY_CLASS;
 1113              		.loc 1 207 33 view .LVU404
 1114 03b4 1595     		str	r5, [sp, #84]
 208:Middlewares/LVGL/GUI/lvgl/src/extra/widgets/led/lv_led.c ****         part_draw_dsc.type = LV_LED_DRAW_PART_RECTANGLE;
 1115              		.loc 1 208 9 is_stmt 1 view .LVU405
 208:Middlewares/LVGL/GUI/lvgl/src/extra/widgets/led/lv_led.c ****         part_draw_dsc.type = LV_LED_DRAW_PART_RECTANGLE;
 1116              		.loc 1 208 31 is_stmt 0 view .LVU406
 1117 03b6 0D4B     		ldr	r3, .L10+8
 1118 03b8 1393     		str	r3, [sp, #76]
ARM GAS  C:\Users\ADMINI~1\AppData\Local\Temp\ccD0EkwD.s 			page 43


 209:Middlewares/LVGL/GUI/lvgl/src/extra/widgets/led/lv_led.c ****         part_draw_dsc.rect_dsc = &rect_dsc;
 1119              		.loc 1 209 9 is_stmt 1 view .LVU407
 209:Middlewares/LVGL/GUI/lvgl/src/extra/widgets/led/lv_led.c ****         part_draw_dsc.rect_dsc = &rect_dsc;
 1120              		.loc 1 209 28 is_stmt 0 view .LVU408
 1121 03ba 0023     		movs	r3, #0
 1122 03bc 1493     		str	r3, [sp, #80]
 210:Middlewares/LVGL/GUI/lvgl/src/extra/widgets/led/lv_led.c ****         part_draw_dsc.part = LV_PART_MAIN;
 1123              		.loc 1 210 9 is_stmt 1 view .LVU409
 210:Middlewares/LVGL/GUI/lvgl/src/extra/widgets/led/lv_led.c ****         part_draw_dsc.part = LV_PART_MAIN;
 1124              		.loc 1 210 32 is_stmt 0 view .LVU410
 1125 03be CDF858D0 		str	sp, [sp, #88]
 211:Middlewares/LVGL/GUI/lvgl/src/extra/widgets/led/lv_led.c **** 
 1126              		.loc 1 211 9 is_stmt 1 view .LVU411
 211:Middlewares/LVGL/GUI/lvgl/src/extra/widgets/led/lv_led.c **** 
 1127              		.loc 1 211 28 is_stmt 0 view .LVU412
 1128 03c2 1F93     		str	r3, [sp, #124]
 213:Middlewares/LVGL/GUI/lvgl/src/extra/widgets/led/lv_led.c ****         lv_draw_rect(draw_ctx, &rect_dsc, &obj->coords);
 1129              		.loc 1 213 9 is_stmt 1 view .LVU413
 1130 03c4 12AA     		add	r2, sp, #72
 1131 03c6 1A21     		movs	r1, #26
 1132 03c8 3046     		mov	r0, r6
 1133 03ca FFF7FEFF 		bl	lv_event_send
 1134              	.LVL134:
 214:Middlewares/LVGL/GUI/lvgl/src/extra/widgets/led/lv_led.c ****         lv_event_send(obj, LV_EVENT_DRAW_PART_END, &part_draw_dsc);
 1135              		.loc 1 214 9 view .LVU414
 1136 03ce 2A46     		mov	r2, r5
 1137 03d0 6946     		mov	r1, sp
 1138 03d2 2046     		mov	r0, r4
 1139 03d4 FFF7FEFF 		bl	lv_draw_rect
 1140              	.LVL135:
 215:Middlewares/LVGL/GUI/lvgl/src/extra/widgets/led/lv_led.c ****     }
 1141              		.loc 1 215 9 view .LVU415
 1142 03d8 12AA     		add	r2, sp, #72
 1143 03da 1B21     		movs	r1, #27
 1144 03dc 3046     		mov	r0, r6
 1145 03de FFF7FEFF 		bl	lv_event_send
 1146              	.LVL136:
 1147 03e2 26E6     		b	.L3
 1148              	.L11:
 1149              		.align	2
 1150              	.L10:
 1151 03e4 1FF8E007 		.word	132184095
 1152 03e8 91739F5D 		.word	1570730897
 1153 03ec 00000000 		.word	.LANCHOR0
 1154              	.LBE216:
 1155              		.cfi_endproc
 1156              	.LFE204:
 1158              		.section	.text.lv_led_create,"ax",%progbits
 1159              		.align	1
 1160              		.global	lv_led_create
 1161              		.syntax unified
 1162              		.thumb
 1163              		.thumb_func
 1165              	lv_led_create:
 1166              	.LVL137:
 1167              	.LFB196:
  55:Middlewares/LVGL/GUI/lvgl/src/extra/widgets/led/lv_led.c ****     LV_LOG_INFO("begin");
ARM GAS  C:\Users\ADMINI~1\AppData\Local\Temp\ccD0EkwD.s 			page 44


 1168              		.loc 1 55 1 view -0
 1169              		.cfi_startproc
 1170              		@ args = 0, pretend = 0, frame = 0
 1171              		@ frame_needed = 0, uses_anonymous_args = 0
  55:Middlewares/LVGL/GUI/lvgl/src/extra/widgets/led/lv_led.c ****     LV_LOG_INFO("begin");
 1172              		.loc 1 55 1 is_stmt 0 view .LVU417
 1173 0000 10B5     		push	{r4, lr}
 1174              	.LCFI5:
 1175              		.cfi_def_cfa_offset 8
 1176              		.cfi_offset 4, -8
 1177              		.cfi_offset 14, -4
 1178 0002 0146     		mov	r1, r0
  56:Middlewares/LVGL/GUI/lvgl/src/extra/widgets/led/lv_led.c ****     lv_obj_t * obj = lv_obj_class_create_obj(MY_CLASS, parent);
 1179              		.loc 1 56 5 is_stmt 1 view .LVU418
  56:Middlewares/LVGL/GUI/lvgl/src/extra/widgets/led/lv_led.c ****     lv_obj_t * obj = lv_obj_class_create_obj(MY_CLASS, parent);
 1180              		.loc 1 56 5 view .LVU419
  56:Middlewares/LVGL/GUI/lvgl/src/extra/widgets/led/lv_led.c ****     lv_obj_t * obj = lv_obj_class_create_obj(MY_CLASS, parent);
 1181              		.loc 1 56 5 view .LVU420
  57:Middlewares/LVGL/GUI/lvgl/src/extra/widgets/led/lv_led.c ****     lv_obj_class_init_obj(obj);
 1182              		.loc 1 57 5 view .LVU421
  57:Middlewares/LVGL/GUI/lvgl/src/extra/widgets/led/lv_led.c ****     lv_obj_class_init_obj(obj);
 1183              		.loc 1 57 22 is_stmt 0 view .LVU422
 1184 0004 0348     		ldr	r0, .L14
 1185              	.LVL138:
  57:Middlewares/LVGL/GUI/lvgl/src/extra/widgets/led/lv_led.c ****     lv_obj_class_init_obj(obj);
 1186              		.loc 1 57 22 view .LVU423
 1187 0006 FFF7FEFF 		bl	lv_obj_class_create_obj
 1188              	.LVL139:
  57:Middlewares/LVGL/GUI/lvgl/src/extra/widgets/led/lv_led.c ****     lv_obj_class_init_obj(obj);
 1189              		.loc 1 57 22 view .LVU424
 1190 000a 0446     		mov	r4, r0
 1191              	.LVL140:
  58:Middlewares/LVGL/GUI/lvgl/src/extra/widgets/led/lv_led.c ****     return obj;
 1192              		.loc 1 58 5 is_stmt 1 view .LVU425
 1193 000c FFF7FEFF 		bl	lv_obj_class_init_obj
 1194              	.LVL141:
  59:Middlewares/LVGL/GUI/lvgl/src/extra/widgets/led/lv_led.c **** }
 1195              		.loc 1 59 5 view .LVU426
  60:Middlewares/LVGL/GUI/lvgl/src/extra/widgets/led/lv_led.c **** 
 1196              		.loc 1 60 1 is_stmt 0 view .LVU427
 1197 0010 2046     		mov	r0, r4
 1198 0012 10BD     		pop	{r4, pc}
 1199              	.LVL142:
 1200              	.L15:
  60:Middlewares/LVGL/GUI/lvgl/src/extra/widgets/led/lv_led.c **** 
 1201              		.loc 1 60 1 view .LVU428
 1202              		.align	2
 1203              	.L14:
 1204 0014 00000000 		.word	.LANCHOR0
 1205              		.cfi_endproc
 1206              	.LFE196:
 1208              		.section	.text.lv_led_set_color,"ax",%progbits
 1209              		.align	1
 1210              		.global	lv_led_set_color
 1211              		.syntax unified
 1212              		.thumb
 1213              		.thumb_func
ARM GAS  C:\Users\ADMINI~1\AppData\Local\Temp\ccD0EkwD.s 			page 45


 1215              	lv_led_set_color:
 1216              	.LVL143:
 1217              	.LFB197:
  72:Middlewares/LVGL/GUI/lvgl/src/extra/widgets/led/lv_led.c ****     LV_ASSERT_OBJ(obj, MY_CLASS);
 1218              		.loc 1 72 1 is_stmt 1 view -0
 1219              		.cfi_startproc
 1220              		@ args = 0, pretend = 0, frame = 0
 1221              		@ frame_needed = 0, uses_anonymous_args = 0
  72:Middlewares/LVGL/GUI/lvgl/src/extra/widgets/led/lv_led.c ****     LV_ASSERT_OBJ(obj, MY_CLASS);
 1222              		.loc 1 72 1 is_stmt 0 view .LVU430
 1223 0000 08B5     		push	{r3, lr}
 1224              	.LCFI6:
 1225              		.cfi_def_cfa_offset 8
 1226              		.cfi_offset 3, -8
 1227              		.cfi_offset 14, -4
  73:Middlewares/LVGL/GUI/lvgl/src/extra/widgets/led/lv_led.c **** 
 1228              		.loc 1 73 5 is_stmt 1 view .LVU431
  73:Middlewares/LVGL/GUI/lvgl/src/extra/widgets/led/lv_led.c **** 
 1229              		.loc 1 73 5 view .LVU432
  73:Middlewares/LVGL/GUI/lvgl/src/extra/widgets/led/lv_led.c **** 
 1230              		.loc 1 73 5 view .LVU433
  75:Middlewares/LVGL/GUI/lvgl/src/extra/widgets/led/lv_led.c ****     led->color = color;
 1231              		.loc 1 75 5 view .LVU434
 1232              	.LVL144:
  76:Middlewares/LVGL/GUI/lvgl/src/extra/widgets/led/lv_led.c ****     lv_obj_invalidate(obj);
 1233              		.loc 1 76 5 view .LVU435
  76:Middlewares/LVGL/GUI/lvgl/src/extra/widgets/led/lv_led.c ****     lv_obj_invalidate(obj);
 1234              		.loc 1 76 16 is_stmt 0 view .LVU436
 1235 0002 8185     		strh	r1, [r0, #44]	@ movhi
  77:Middlewares/LVGL/GUI/lvgl/src/extra/widgets/led/lv_led.c **** }
 1236              		.loc 1 77 5 is_stmt 1 view .LVU437
 1237 0004 FFF7FEFF 		bl	lv_obj_invalidate
 1238              	.LVL145:
  78:Middlewares/LVGL/GUI/lvgl/src/extra/widgets/led/lv_led.c **** 
 1239              		.loc 1 78 1 is_stmt 0 view .LVU438
 1240 0008 08BD     		pop	{r3, pc}
 1241              		.cfi_endproc
 1242              	.LFE197:
 1244              		.section	.text.lv_led_set_brightness,"ax",%progbits
 1245              		.align	1
 1246              		.global	lv_led_set_brightness
 1247              		.syntax unified
 1248              		.thumb
 1249              		.thumb_func
 1251              	lv_led_set_brightness:
 1252              	.LVL146:
 1253              	.LFB198:
  86:Middlewares/LVGL/GUI/lvgl/src/extra/widgets/led/lv_led.c ****     LV_ASSERT_OBJ(obj, MY_CLASS);
 1254              		.loc 1 86 1 is_stmt 1 view -0
 1255              		.cfi_startproc
 1256              		@ args = 0, pretend = 0, frame = 0
 1257              		@ frame_needed = 0, uses_anonymous_args = 0
  86:Middlewares/LVGL/GUI/lvgl/src/extra/widgets/led/lv_led.c ****     LV_ASSERT_OBJ(obj, MY_CLASS);
 1258              		.loc 1 86 1 is_stmt 0 view .LVU440
 1259 0000 08B5     		push	{r3, lr}
 1260              	.LCFI7:
 1261              		.cfi_def_cfa_offset 8
ARM GAS  C:\Users\ADMINI~1\AppData\Local\Temp\ccD0EkwD.s 			page 46


 1262              		.cfi_offset 3, -8
 1263              		.cfi_offset 14, -4
  87:Middlewares/LVGL/GUI/lvgl/src/extra/widgets/led/lv_led.c **** 
 1264              		.loc 1 87 5 is_stmt 1 view .LVU441
  87:Middlewares/LVGL/GUI/lvgl/src/extra/widgets/led/lv_led.c **** 
 1265              		.loc 1 87 5 view .LVU442
  87:Middlewares/LVGL/GUI/lvgl/src/extra/widgets/led/lv_led.c **** 
 1266              		.loc 1 87 5 view .LVU443
  89:Middlewares/LVGL/GUI/lvgl/src/extra/widgets/led/lv_led.c ****     if(led->bright == bright) return;
 1267              		.loc 1 89 5 view .LVU444
 1268              	.LVL147:
  90:Middlewares/LVGL/GUI/lvgl/src/extra/widgets/led/lv_led.c **** 
 1269              		.loc 1 90 5 view .LVU445
  90:Middlewares/LVGL/GUI/lvgl/src/extra/widgets/led/lv_led.c **** 
 1270              		.loc 1 90 11 is_stmt 0 view .LVU446
 1271 0002 90F82E30 		ldrb	r3, [r0, #46]	@ zero_extendqisi2
  90:Middlewares/LVGL/GUI/lvgl/src/extra/widgets/led/lv_led.c **** 
 1272              		.loc 1 90 7 view .LVU447
 1273 0006 8B42     		cmp	r3, r1
 1274 0008 06D0     		beq	.L18
  92:Middlewares/LVGL/GUI/lvgl/src/extra/widgets/led/lv_led.c **** 
 1275              		.loc 1 92 5 is_stmt 1 view .LVU448
  92:Middlewares/LVGL/GUI/lvgl/src/extra/widgets/led/lv_led.c **** 
 1276              		.loc 1 92 19 is_stmt 0 view .LVU449
 1277 000a 5029     		cmp	r1, #80
 1278 000c 38BF     		it	cc
 1279 000e 5021     		movcc	r1, #80
 1280              	.LVL148:
  92:Middlewares/LVGL/GUI/lvgl/src/extra/widgets/led/lv_led.c **** 
 1281              		.loc 1 92 17 view .LVU450
 1282 0010 80F82E10 		strb	r1, [r0, #46]
  95:Middlewares/LVGL/GUI/lvgl/src/extra/widgets/led/lv_led.c **** }
 1283              		.loc 1 95 5 is_stmt 1 view .LVU451
 1284 0014 FFF7FEFF 		bl	lv_obj_invalidate
 1285              	.LVL149:
 1286              	.L18:
  96:Middlewares/LVGL/GUI/lvgl/src/extra/widgets/led/lv_led.c **** 
 1287              		.loc 1 96 1 is_stmt 0 view .LVU452
 1288 0018 08BD     		pop	{r3, pc}
 1289              		.cfi_endproc
 1290              	.LFE198:
 1292              		.section	.text.lv_led_on,"ax",%progbits
 1293              		.align	1
 1294              		.global	lv_led_on
 1295              		.syntax unified
 1296              		.thumb
 1297              		.thumb_func
 1299              	lv_led_on:
 1300              	.LVL150:
 1301              	.LFB199:
 103:Middlewares/LVGL/GUI/lvgl/src/extra/widgets/led/lv_led.c ****     lv_led_set_brightness(led, LV_LED_BRIGHT_MAX);
 1302              		.loc 1 103 1 is_stmt 1 view -0
 1303              		.cfi_startproc
 1304              		@ args = 0, pretend = 0, frame = 0
 1305              		@ frame_needed = 0, uses_anonymous_args = 0
 103:Middlewares/LVGL/GUI/lvgl/src/extra/widgets/led/lv_led.c ****     lv_led_set_brightness(led, LV_LED_BRIGHT_MAX);
 1306              		.loc 1 103 1 is_stmt 0 view .LVU454
ARM GAS  C:\Users\ADMINI~1\AppData\Local\Temp\ccD0EkwD.s 			page 47


 1307 0000 08B5     		push	{r3, lr}
 1308              	.LCFI8:
 1309              		.cfi_def_cfa_offset 8
 1310              		.cfi_offset 3, -8
 1311              		.cfi_offset 14, -4
 104:Middlewares/LVGL/GUI/lvgl/src/extra/widgets/led/lv_led.c **** }
 1312              		.loc 1 104 5 is_stmt 1 view .LVU455
 1313 0002 FF21     		movs	r1, #255
 1314 0004 FFF7FEFF 		bl	lv_led_set_brightness
 1315              	.LVL151:
 105:Middlewares/LVGL/GUI/lvgl/src/extra/widgets/led/lv_led.c **** 
 1316              		.loc 1 105 1 is_stmt 0 view .LVU456
 1317 0008 08BD     		pop	{r3, pc}
 1318              		.cfi_endproc
 1319              	.LFE199:
 1321              		.section	.text.lv_led_off,"ax",%progbits
 1322              		.align	1
 1323              		.global	lv_led_off
 1324              		.syntax unified
 1325              		.thumb
 1326              		.thumb_func
 1328              	lv_led_off:
 1329              	.LVL152:
 1330              	.LFB200:
 112:Middlewares/LVGL/GUI/lvgl/src/extra/widgets/led/lv_led.c ****     lv_led_set_brightness(led, LV_LED_BRIGHT_MIN);
 1331              		.loc 1 112 1 is_stmt 1 view -0
 1332              		.cfi_startproc
 1333              		@ args = 0, pretend = 0, frame = 0
 1334              		@ frame_needed = 0, uses_anonymous_args = 0
 112:Middlewares/LVGL/GUI/lvgl/src/extra/widgets/led/lv_led.c ****     lv_led_set_brightness(led, LV_LED_BRIGHT_MIN);
 1335              		.loc 1 112 1 is_stmt 0 view .LVU458
 1336 0000 08B5     		push	{r3, lr}
 1337              	.LCFI9:
 1338              		.cfi_def_cfa_offset 8
 1339              		.cfi_offset 3, -8
 1340              		.cfi_offset 14, -4
 113:Middlewares/LVGL/GUI/lvgl/src/extra/widgets/led/lv_led.c **** }
 1341              		.loc 1 113 5 is_stmt 1 view .LVU459
 1342 0002 5021     		movs	r1, #80
 1343 0004 FFF7FEFF 		bl	lv_led_set_brightness
 1344              	.LVL153:
 114:Middlewares/LVGL/GUI/lvgl/src/extra/widgets/led/lv_led.c **** 
 1345              		.loc 1 114 1 is_stmt 0 view .LVU460
 1346 0008 08BD     		pop	{r3, pc}
 1347              		.cfi_endproc
 1348              	.LFE200:
 1350              		.section	.text.lv_led_get_brightness,"ax",%progbits
 1351              		.align	1
 1352              		.global	lv_led_get_brightness
 1353              		.syntax unified
 1354              		.thumb
 1355              		.thumb_func
 1357              	lv_led_get_brightness:
 1358              	.LVL154:
 1359              	.LFB202:
 139:Middlewares/LVGL/GUI/lvgl/src/extra/widgets/led/lv_led.c ****     LV_ASSERT_OBJ(obj, MY_CLASS);
 1360              		.loc 1 139 1 is_stmt 1 view -0
ARM GAS  C:\Users\ADMINI~1\AppData\Local\Temp\ccD0EkwD.s 			page 48


 1361              		.cfi_startproc
 1362              		@ args = 0, pretend = 0, frame = 0
 1363              		@ frame_needed = 0, uses_anonymous_args = 0
 1364              		@ link register save eliminated.
 140:Middlewares/LVGL/GUI/lvgl/src/extra/widgets/led/lv_led.c **** 
 1365              		.loc 1 140 5 view .LVU462
 140:Middlewares/LVGL/GUI/lvgl/src/extra/widgets/led/lv_led.c **** 
 1366              		.loc 1 140 5 view .LVU463
 140:Middlewares/LVGL/GUI/lvgl/src/extra/widgets/led/lv_led.c **** 
 1367              		.loc 1 140 5 view .LVU464
 142:Middlewares/LVGL/GUI/lvgl/src/extra/widgets/led/lv_led.c ****     return led->bright;
 1368              		.loc 1 142 5 view .LVU465
 143:Middlewares/LVGL/GUI/lvgl/src/extra/widgets/led/lv_led.c **** }
 1369              		.loc 1 143 5 view .LVU466
 144:Middlewares/LVGL/GUI/lvgl/src/extra/widgets/led/lv_led.c **** 
 1370              		.loc 1 144 1 is_stmt 0 view .LVU467
 1371 0000 90F82E00 		ldrb	r0, [r0, #46]	@ zero_extendqisi2
 1372              	.LVL155:
 144:Middlewares/LVGL/GUI/lvgl/src/extra/widgets/led/lv_led.c **** 
 1373              		.loc 1 144 1 view .LVU468
 1374 0004 7047     		bx	lr
 1375              		.cfi_endproc
 1376              	.LFE202:
 1378              		.section	.text.lv_led_toggle,"ax",%progbits
 1379              		.align	1
 1380              		.global	lv_led_toggle
 1381              		.syntax unified
 1382              		.thumb
 1383              		.thumb_func
 1385              	lv_led_toggle:
 1386              	.LVL156:
 1387              	.LFB201:
 121:Middlewares/LVGL/GUI/lvgl/src/extra/widgets/led/lv_led.c ****     uint8_t bright = lv_led_get_brightness(obj);
 1388              		.loc 1 121 1 is_stmt 1 view -0
 1389              		.cfi_startproc
 1390              		@ args = 0, pretend = 0, frame = 0
 1391              		@ frame_needed = 0, uses_anonymous_args = 0
 121:Middlewares/LVGL/GUI/lvgl/src/extra/widgets/led/lv_led.c ****     uint8_t bright = lv_led_get_brightness(obj);
 1392              		.loc 1 121 1 is_stmt 0 view .LVU470
 1393 0000 10B5     		push	{r4, lr}
 1394              	.LCFI10:
 1395              		.cfi_def_cfa_offset 8
 1396              		.cfi_offset 4, -8
 1397              		.cfi_offset 14, -4
 1398 0002 0446     		mov	r4, r0
 122:Middlewares/LVGL/GUI/lvgl/src/extra/widgets/led/lv_led.c ****     if(bright > (LV_LED_BRIGHT_MIN + LV_LED_BRIGHT_MAX) >> 1)
 1399              		.loc 1 122 5 is_stmt 1 view .LVU471
 122:Middlewares/LVGL/GUI/lvgl/src/extra/widgets/led/lv_led.c ****     if(bright > (LV_LED_BRIGHT_MIN + LV_LED_BRIGHT_MAX) >> 1)
 1400              		.loc 1 122 22 is_stmt 0 view .LVU472
 1401 0004 FFF7FEFF 		bl	lv_led_get_brightness
 1402              	.LVL157:
 123:Middlewares/LVGL/GUI/lvgl/src/extra/widgets/led/lv_led.c ****         lv_led_off(obj);
 1403              		.loc 1 123 5 is_stmt 1 view .LVU473
 123:Middlewares/LVGL/GUI/lvgl/src/extra/widgets/led/lv_led.c ****         lv_led_off(obj);
 1404              		.loc 1 123 7 is_stmt 0 view .LVU474
 1405 0008 A728     		cmp	r0, #167
 1406 000a 03D9     		bls	.L27
ARM GAS  C:\Users\ADMINI~1\AppData\Local\Temp\ccD0EkwD.s 			page 49


 124:Middlewares/LVGL/GUI/lvgl/src/extra/widgets/led/lv_led.c ****     else
 1407              		.loc 1 124 9 is_stmt 1 view .LVU475
 1408 000c 2046     		mov	r0, r4
 1409              	.LVL158:
 124:Middlewares/LVGL/GUI/lvgl/src/extra/widgets/led/lv_led.c ****     else
 1410              		.loc 1 124 9 is_stmt 0 view .LVU476
 1411 000e FFF7FEFF 		bl	lv_led_off
 1412              	.LVL159:
 1413              	.L26:
 127:Middlewares/LVGL/GUI/lvgl/src/extra/widgets/led/lv_led.c **** 
 1414              		.loc 1 127 1 view .LVU477
 1415 0012 10BD     		pop	{r4, pc}
 1416              	.LVL160:
 1417              	.L27:
 126:Middlewares/LVGL/GUI/lvgl/src/extra/widgets/led/lv_led.c **** }
 1418              		.loc 1 126 9 is_stmt 1 view .LVU478
 1419 0014 2046     		mov	r0, r4
 1420              	.LVL161:
 126:Middlewares/LVGL/GUI/lvgl/src/extra/widgets/led/lv_led.c **** }
 1421              		.loc 1 126 9 is_stmt 0 view .LVU479
 1422 0016 FFF7FEFF 		bl	lv_led_on
 1423              	.LVL162:
 127:Middlewares/LVGL/GUI/lvgl/src/extra/widgets/led/lv_led.c **** 
 1424              		.loc 1 127 1 view .LVU480
 1425 001a FAE7     		b	.L26
 1426              		.cfi_endproc
 1427              	.LFE201:
 1429              		.global	lv_led_class
 1430              		.section	.rodata.lv_led_class,"a"
 1431              		.align	2
 1432              		.set	.LANCHOR0,. + 0
 1435              	lv_led_class:
 1436 0000 00000000 		.word	lv_obj_class
 1437 0004 00000000 		.word	lv_led_constructor
 1438 0008 00000000 		.space	8
 1438      00000000 
 1439 0010 00000000 		.word	lv_led_event
 1440 0014 1A000000 		.word	26
 1441 0018 1A000000 		.word	26
 1442 001c 00       		.byte	0
 1443 001d 03       		.byte	3
 1444 001e 00       		.byte	0
 1445 001f 00       		.space	1
 1446              		.text
 1447              	.Letext0:
 1448              		.file 3 "c:\\gnu arm embedded toolchain\\10 2021.10\\arm-none-eabi\\include\\machine\\_default_typ
 1449              		.file 4 "c:\\gnu arm embedded toolchain\\10 2021.10\\arm-none-eabi\\include\\sys\\_stdint.h"
 1450              		.file 5 "Middlewares/LVGL/GUI/lvgl/src/extra/widgets/led/../../../../src/misc/lv_types.h"
 1451              		.file 6 "Middlewares/LVGL/GUI/lvgl/src/extra/widgets/led/../../../../src/hal/../draw/../misc/../fo
 1452              		.file 7 "Middlewares/LVGL/GUI/lvgl/src/extra/widgets/led/../../../../src/hal/../draw/../misc/../fo
 1453              		.file 8 "Middlewares/LVGL/GUI/lvgl/src/extra/widgets/led/../../../../src/hal/../draw/../misc/lv_tx
 1454              		.file 9 "Middlewares/LVGL/GUI/lvgl/src/extra/widgets/led/../../../../src/hal/../draw/../misc/lv_bi
 1455              		.file 10 "Middlewares/LVGL/GUI/lvgl/src/extra/widgets/led/../../../../src/hal/../draw/../misc/lv_s
 1456              		.file 11 "Middlewares/LVGL/GUI/lvgl/src/extra/widgets/led/../../../../src/hal/../draw/lv_img_buf.h
 1457              		.file 12 "Middlewares/LVGL/GUI/lvgl/src/extra/widgets/led/../../../../src/core/lv_obj.h"
 1458              		.file 13 "Middlewares/LVGL/GUI/lvgl/src/extra/widgets/led/../../../../src/hal/../draw/lv_draw_rect
 1459              		.file 14 "Middlewares/LVGL/GUI/lvgl/src/extra/widgets/led/../../../../src/hal/../draw/lv_draw_labe
ARM GAS  C:\Users\ADMINI~1\AppData\Local\Temp\ccD0EkwD.s 			page 50


 1460              		.file 15 "Middlewares/LVGL/GUI/lvgl/src/extra/widgets/led/../../../../src/hal/../draw/lv_draw_img.
 1461              		.file 16 "Middlewares/LVGL/GUI/lvgl/src/extra/widgets/led/../../../../src/hal/../draw/lv_draw_line
 1462              		.file 17 "Middlewares/LVGL/GUI/lvgl/src/extra/widgets/led/../../../../src/hal/../draw/lv_draw_arc.
 1463              		.file 18 "Middlewares/LVGL/GUI/lvgl/src/extra/widgets/led/../../../../src/hal/../draw/lv_draw.h"
 1464              		.file 19 "Middlewares/LVGL/GUI/lvgl/src/extra/widgets/led/../../../../src/hal/../misc/lv_ll.h"
 1465              		.file 20 "Middlewares/LVGL/GUI/lvgl/src/extra/widgets/led/../../../../src/core/lv_group.h"
 1466              		.file 21 "Middlewares/LVGL/GUI/lvgl/src/extra/widgets/led/../../../../src/core/lv_obj_scroll.h"
 1467              		.file 22 "Middlewares/LVGL/GUI/lvgl/src/extra/widgets/led/../../../../src/core/lv_obj_style.h"
 1468              		.file 23 "Middlewares/LVGL/GUI/lvgl/src/extra/widgets/led/../../../../src/core/lv_obj_draw.h"
 1469              		.file 24 "Middlewares/LVGL/GUI/lvgl/src/extra/widgets/led/../../../../src/core/lv_obj_class.h"
 1470              		.file 25 "Middlewares/LVGL/GUI/lvgl/src/extra/widgets/led/../../../../src/core/lv_event.h"
 1471              		.file 26 "Middlewares/LVGL/GUI/lvgl/src/extra/widgets/led/../../../../src/widgets/lv_bar.h"
 1472              		.file 27 "Middlewares/LVGL/GUI/lvgl/src/extra/widgets/led/../../../../src/extra/widgets/imgbtn/lv_
 1473              		.file 28 "Middlewares/LVGL/GUI/lvgl/src/extra/widgets/led/lv_led.h"
 1474              		.file 29 "Middlewares/LVGL/GUI/lvgl/src/extra/widgets/led/../../../../src/core/lv_theme.h"
 1475              		.file 30 "Middlewares/LVGL/GUI/lvgl/src/extra/widgets/led/../../../../src/hal/../draw/sw/../../cor
ARM GAS  C:\Users\ADMINI~1\AppData\Local\Temp\ccD0EkwD.s 			page 51

