ARM GAS  C:\Users\ADMINI~1\AppData\Local\Temp\cc6YE4sa.s 			page 1


   1              		.cpu cortex-m4
   2              		.arch armv7e-m
   3              		.fpu fpv4-sp-d16
   4              		.eabi_attribute 27, 1
   5              		.eabi_attribute 28, 1
   6              		.eabi_attribute 20, 1
   7              		.eabi_attribute 21, 1
   8              		.eabi_attribute 23, 3
   9              		.eabi_attribute 24, 1
  10              		.eabi_attribute 25, 1
  11              		.eabi_attribute 26, 1
  12              		.eabi_attribute 30, 1
  13              		.eabi_attribute 34, 1
  14              		.eabi_attribute 18, 4
  15              		.file	"lv_ll.c"
  16              		.text
  17              	.Ltext0:
  18              		.cfi_sections	.debug_frame
  19              		.section	.text.node_set_prev,"ax",%progbits
  20              		.align	1
  21              		.syntax unified
  22              		.thumb
  23              		.thumb_func
  25              	node_set_prev:
  26              	.LVL0:
  27              	.LFB15:
  28              		.file 1 "Middlewares/LVGL/GUI/lvgl/src/misc/lv_ll.c"
   1:Middlewares/LVGL/GUI/lvgl/src/misc/lv_ll.c **** /**
   2:Middlewares/LVGL/GUI/lvgl/src/misc/lv_ll.c ****  * @file lv_ll.c
   3:Middlewares/LVGL/GUI/lvgl/src/misc/lv_ll.c ****  * Handle linked lists.
   4:Middlewares/LVGL/GUI/lvgl/src/misc/lv_ll.c ****  * The nodes are dynamically allocated by the 'lv_mem' module,
   5:Middlewares/LVGL/GUI/lvgl/src/misc/lv_ll.c ****  */
   6:Middlewares/LVGL/GUI/lvgl/src/misc/lv_ll.c **** 
   7:Middlewares/LVGL/GUI/lvgl/src/misc/lv_ll.c **** /*********************
   8:Middlewares/LVGL/GUI/lvgl/src/misc/lv_ll.c ****  *      INCLUDES
   9:Middlewares/LVGL/GUI/lvgl/src/misc/lv_ll.c ****  *********************/
  10:Middlewares/LVGL/GUI/lvgl/src/misc/lv_ll.c **** #include "lv_ll.h"
  11:Middlewares/LVGL/GUI/lvgl/src/misc/lv_ll.c **** #include "lv_mem.h"
  12:Middlewares/LVGL/GUI/lvgl/src/misc/lv_ll.c **** 
  13:Middlewares/LVGL/GUI/lvgl/src/misc/lv_ll.c **** /*********************
  14:Middlewares/LVGL/GUI/lvgl/src/misc/lv_ll.c ****  *      DEFINES
  15:Middlewares/LVGL/GUI/lvgl/src/misc/lv_ll.c ****  *********************/
  16:Middlewares/LVGL/GUI/lvgl/src/misc/lv_ll.c **** #define LL_NODE_META_SIZE (sizeof(lv_ll_node_t *) + sizeof(lv_ll_node_t *))
  17:Middlewares/LVGL/GUI/lvgl/src/misc/lv_ll.c **** #define LL_PREV_P_OFFSET(ll_p) (ll_p->n_size)
  18:Middlewares/LVGL/GUI/lvgl/src/misc/lv_ll.c **** #define LL_NEXT_P_OFFSET(ll_p) (ll_p->n_size + sizeof(lv_ll_node_t *))
  19:Middlewares/LVGL/GUI/lvgl/src/misc/lv_ll.c **** 
  20:Middlewares/LVGL/GUI/lvgl/src/misc/lv_ll.c **** /**********************
  21:Middlewares/LVGL/GUI/lvgl/src/misc/lv_ll.c ****  *      TYPEDEFS
  22:Middlewares/LVGL/GUI/lvgl/src/misc/lv_ll.c ****  **********************/
  23:Middlewares/LVGL/GUI/lvgl/src/misc/lv_ll.c **** 
  24:Middlewares/LVGL/GUI/lvgl/src/misc/lv_ll.c **** /**********************
  25:Middlewares/LVGL/GUI/lvgl/src/misc/lv_ll.c ****  *  STATIC PROTOTYPES
  26:Middlewares/LVGL/GUI/lvgl/src/misc/lv_ll.c ****  **********************/
  27:Middlewares/LVGL/GUI/lvgl/src/misc/lv_ll.c **** static void node_set_prev(lv_ll_t * ll_p, lv_ll_node_t * act, lv_ll_node_t * prev);
  28:Middlewares/LVGL/GUI/lvgl/src/misc/lv_ll.c **** static void node_set_next(lv_ll_t * ll_p, lv_ll_node_t * act, lv_ll_node_t * next);
  29:Middlewares/LVGL/GUI/lvgl/src/misc/lv_ll.c **** 
  30:Middlewares/LVGL/GUI/lvgl/src/misc/lv_ll.c **** /**********************
ARM GAS  C:\Users\ADMINI~1\AppData\Local\Temp\cc6YE4sa.s 			page 2


  31:Middlewares/LVGL/GUI/lvgl/src/misc/lv_ll.c ****  *  STATIC VARIABLES
  32:Middlewares/LVGL/GUI/lvgl/src/misc/lv_ll.c ****  **********************/
  33:Middlewares/LVGL/GUI/lvgl/src/misc/lv_ll.c **** 
  34:Middlewares/LVGL/GUI/lvgl/src/misc/lv_ll.c **** /**********************
  35:Middlewares/LVGL/GUI/lvgl/src/misc/lv_ll.c ****  *      MACROS
  36:Middlewares/LVGL/GUI/lvgl/src/misc/lv_ll.c ****  **********************/
  37:Middlewares/LVGL/GUI/lvgl/src/misc/lv_ll.c **** 
  38:Middlewares/LVGL/GUI/lvgl/src/misc/lv_ll.c **** /**********************
  39:Middlewares/LVGL/GUI/lvgl/src/misc/lv_ll.c ****  *   GLOBAL FUNCTIONS
  40:Middlewares/LVGL/GUI/lvgl/src/misc/lv_ll.c ****  **********************/
  41:Middlewares/LVGL/GUI/lvgl/src/misc/lv_ll.c **** 
  42:Middlewares/LVGL/GUI/lvgl/src/misc/lv_ll.c **** /**
  43:Middlewares/LVGL/GUI/lvgl/src/misc/lv_ll.c ****  * Initialize linked list
  44:Middlewares/LVGL/GUI/lvgl/src/misc/lv_ll.c ****  * @param ll_p pointer to lv_ll_t variable
  45:Middlewares/LVGL/GUI/lvgl/src/misc/lv_ll.c ****  * @param node_size the size of 1 node in bytes
  46:Middlewares/LVGL/GUI/lvgl/src/misc/lv_ll.c ****  */
  47:Middlewares/LVGL/GUI/lvgl/src/misc/lv_ll.c **** void _lv_ll_init(lv_ll_t * ll_p, uint32_t node_size)
  48:Middlewares/LVGL/GUI/lvgl/src/misc/lv_ll.c **** {
  49:Middlewares/LVGL/GUI/lvgl/src/misc/lv_ll.c ****     ll_p->head = NULL;
  50:Middlewares/LVGL/GUI/lvgl/src/misc/lv_ll.c ****     ll_p->tail = NULL;
  51:Middlewares/LVGL/GUI/lvgl/src/misc/lv_ll.c **** #ifdef LV_ARCH_64
  52:Middlewares/LVGL/GUI/lvgl/src/misc/lv_ll.c ****     /*Round the size up to 8*/
  53:Middlewares/LVGL/GUI/lvgl/src/misc/lv_ll.c ****     node_size = (node_size + 7) & (~0x7);
  54:Middlewares/LVGL/GUI/lvgl/src/misc/lv_ll.c **** #else
  55:Middlewares/LVGL/GUI/lvgl/src/misc/lv_ll.c ****     /*Round the size up to 4*/
  56:Middlewares/LVGL/GUI/lvgl/src/misc/lv_ll.c ****     node_size = (node_size + 3) & (~0x3);
  57:Middlewares/LVGL/GUI/lvgl/src/misc/lv_ll.c **** #endif
  58:Middlewares/LVGL/GUI/lvgl/src/misc/lv_ll.c **** 
  59:Middlewares/LVGL/GUI/lvgl/src/misc/lv_ll.c ****     ll_p->n_size = node_size;
  60:Middlewares/LVGL/GUI/lvgl/src/misc/lv_ll.c **** }
  61:Middlewares/LVGL/GUI/lvgl/src/misc/lv_ll.c **** 
  62:Middlewares/LVGL/GUI/lvgl/src/misc/lv_ll.c **** /**
  63:Middlewares/LVGL/GUI/lvgl/src/misc/lv_ll.c ****  * Add a new head to a linked list
  64:Middlewares/LVGL/GUI/lvgl/src/misc/lv_ll.c ****  * @param ll_p pointer to linked list
  65:Middlewares/LVGL/GUI/lvgl/src/misc/lv_ll.c ****  * @return pointer to the new head
  66:Middlewares/LVGL/GUI/lvgl/src/misc/lv_ll.c ****  */
  67:Middlewares/LVGL/GUI/lvgl/src/misc/lv_ll.c **** void * _lv_ll_ins_head(lv_ll_t * ll_p)
  68:Middlewares/LVGL/GUI/lvgl/src/misc/lv_ll.c **** {
  69:Middlewares/LVGL/GUI/lvgl/src/misc/lv_ll.c ****     lv_ll_node_t * n_new;
  70:Middlewares/LVGL/GUI/lvgl/src/misc/lv_ll.c **** 
  71:Middlewares/LVGL/GUI/lvgl/src/misc/lv_ll.c ****     n_new = lv_mem_alloc(ll_p->n_size + LL_NODE_META_SIZE);
  72:Middlewares/LVGL/GUI/lvgl/src/misc/lv_ll.c **** 
  73:Middlewares/LVGL/GUI/lvgl/src/misc/lv_ll.c ****     if(n_new != NULL) {
  74:Middlewares/LVGL/GUI/lvgl/src/misc/lv_ll.c ****         node_set_prev(ll_p, n_new, NULL);       /*No prev. before the new head*/
  75:Middlewares/LVGL/GUI/lvgl/src/misc/lv_ll.c ****         node_set_next(ll_p, n_new, ll_p->head); /*After new comes the old head*/
  76:Middlewares/LVGL/GUI/lvgl/src/misc/lv_ll.c **** 
  77:Middlewares/LVGL/GUI/lvgl/src/misc/lv_ll.c ****         if(ll_p->head != NULL) { /*If there is old head then before it goes the new*/
  78:Middlewares/LVGL/GUI/lvgl/src/misc/lv_ll.c ****             node_set_prev(ll_p, ll_p->head, n_new);
  79:Middlewares/LVGL/GUI/lvgl/src/misc/lv_ll.c ****         }
  80:Middlewares/LVGL/GUI/lvgl/src/misc/lv_ll.c **** 
  81:Middlewares/LVGL/GUI/lvgl/src/misc/lv_ll.c ****         ll_p->head = n_new;      /*Set the new head in the dsc.*/
  82:Middlewares/LVGL/GUI/lvgl/src/misc/lv_ll.c ****         if(ll_p->tail == NULL) { /*If there is no tail (1. node) set the tail too*/
  83:Middlewares/LVGL/GUI/lvgl/src/misc/lv_ll.c ****             ll_p->tail = n_new;
  84:Middlewares/LVGL/GUI/lvgl/src/misc/lv_ll.c ****         }
  85:Middlewares/LVGL/GUI/lvgl/src/misc/lv_ll.c ****     }
  86:Middlewares/LVGL/GUI/lvgl/src/misc/lv_ll.c **** 
  87:Middlewares/LVGL/GUI/lvgl/src/misc/lv_ll.c ****     return n_new;
ARM GAS  C:\Users\ADMINI~1\AppData\Local\Temp\cc6YE4sa.s 			page 3


  88:Middlewares/LVGL/GUI/lvgl/src/misc/lv_ll.c **** }
  89:Middlewares/LVGL/GUI/lvgl/src/misc/lv_ll.c **** 
  90:Middlewares/LVGL/GUI/lvgl/src/misc/lv_ll.c **** /**
  91:Middlewares/LVGL/GUI/lvgl/src/misc/lv_ll.c ****  * Insert a new node in front of the n_act node
  92:Middlewares/LVGL/GUI/lvgl/src/misc/lv_ll.c ****  * @param ll_p pointer to linked list
  93:Middlewares/LVGL/GUI/lvgl/src/misc/lv_ll.c ****  * @param n_act pointer a node
  94:Middlewares/LVGL/GUI/lvgl/src/misc/lv_ll.c ****  * @return pointer to the new node
  95:Middlewares/LVGL/GUI/lvgl/src/misc/lv_ll.c ****  */
  96:Middlewares/LVGL/GUI/lvgl/src/misc/lv_ll.c **** void * _lv_ll_ins_prev(lv_ll_t * ll_p, void * n_act)
  97:Middlewares/LVGL/GUI/lvgl/src/misc/lv_ll.c **** {
  98:Middlewares/LVGL/GUI/lvgl/src/misc/lv_ll.c ****     lv_ll_node_t * n_new;
  99:Middlewares/LVGL/GUI/lvgl/src/misc/lv_ll.c **** 
 100:Middlewares/LVGL/GUI/lvgl/src/misc/lv_ll.c ****     if(NULL == ll_p || NULL == n_act) return NULL;
 101:Middlewares/LVGL/GUI/lvgl/src/misc/lv_ll.c **** 
 102:Middlewares/LVGL/GUI/lvgl/src/misc/lv_ll.c ****     if(_lv_ll_get_head(ll_p) == n_act) {
 103:Middlewares/LVGL/GUI/lvgl/src/misc/lv_ll.c ****         n_new = _lv_ll_ins_head(ll_p);
 104:Middlewares/LVGL/GUI/lvgl/src/misc/lv_ll.c ****         if(n_new == NULL) return NULL;
 105:Middlewares/LVGL/GUI/lvgl/src/misc/lv_ll.c ****     }
 106:Middlewares/LVGL/GUI/lvgl/src/misc/lv_ll.c ****     else {
 107:Middlewares/LVGL/GUI/lvgl/src/misc/lv_ll.c ****         n_new = lv_mem_alloc(ll_p->n_size + LL_NODE_META_SIZE);
 108:Middlewares/LVGL/GUI/lvgl/src/misc/lv_ll.c ****         if(n_new == NULL) return NULL;
 109:Middlewares/LVGL/GUI/lvgl/src/misc/lv_ll.c **** 
 110:Middlewares/LVGL/GUI/lvgl/src/misc/lv_ll.c ****         lv_ll_node_t * n_prev;
 111:Middlewares/LVGL/GUI/lvgl/src/misc/lv_ll.c ****         n_prev = _lv_ll_get_prev(ll_p, n_act);
 112:Middlewares/LVGL/GUI/lvgl/src/misc/lv_ll.c ****         node_set_next(ll_p, n_prev, n_new);
 113:Middlewares/LVGL/GUI/lvgl/src/misc/lv_ll.c ****         node_set_prev(ll_p, n_new, n_prev);
 114:Middlewares/LVGL/GUI/lvgl/src/misc/lv_ll.c ****         node_set_prev(ll_p, n_act, n_new);
 115:Middlewares/LVGL/GUI/lvgl/src/misc/lv_ll.c ****         node_set_next(ll_p, n_new, n_act);
 116:Middlewares/LVGL/GUI/lvgl/src/misc/lv_ll.c ****     }
 117:Middlewares/LVGL/GUI/lvgl/src/misc/lv_ll.c **** 
 118:Middlewares/LVGL/GUI/lvgl/src/misc/lv_ll.c ****     return n_new;
 119:Middlewares/LVGL/GUI/lvgl/src/misc/lv_ll.c **** }
 120:Middlewares/LVGL/GUI/lvgl/src/misc/lv_ll.c **** 
 121:Middlewares/LVGL/GUI/lvgl/src/misc/lv_ll.c **** /**
 122:Middlewares/LVGL/GUI/lvgl/src/misc/lv_ll.c ****  * Add a new tail to a linked list
 123:Middlewares/LVGL/GUI/lvgl/src/misc/lv_ll.c ****  * @param ll_p pointer to linked list
 124:Middlewares/LVGL/GUI/lvgl/src/misc/lv_ll.c ****  * @return pointer to the new tail
 125:Middlewares/LVGL/GUI/lvgl/src/misc/lv_ll.c ****  */
 126:Middlewares/LVGL/GUI/lvgl/src/misc/lv_ll.c **** void * _lv_ll_ins_tail(lv_ll_t * ll_p)
 127:Middlewares/LVGL/GUI/lvgl/src/misc/lv_ll.c **** {
 128:Middlewares/LVGL/GUI/lvgl/src/misc/lv_ll.c ****     lv_ll_node_t * n_new;
 129:Middlewares/LVGL/GUI/lvgl/src/misc/lv_ll.c **** 
 130:Middlewares/LVGL/GUI/lvgl/src/misc/lv_ll.c ****     n_new = lv_mem_alloc(ll_p->n_size + LL_NODE_META_SIZE);
 131:Middlewares/LVGL/GUI/lvgl/src/misc/lv_ll.c **** 
 132:Middlewares/LVGL/GUI/lvgl/src/misc/lv_ll.c ****     if(n_new != NULL) {
 133:Middlewares/LVGL/GUI/lvgl/src/misc/lv_ll.c ****         node_set_next(ll_p, n_new, NULL);       /*No next after the new tail*/
 134:Middlewares/LVGL/GUI/lvgl/src/misc/lv_ll.c ****         node_set_prev(ll_p, n_new, ll_p->tail); /*The prev. before new is the old tail*/
 135:Middlewares/LVGL/GUI/lvgl/src/misc/lv_ll.c ****         if(ll_p->tail != NULL) {                /*If there is old tail then the new comes after it*
 136:Middlewares/LVGL/GUI/lvgl/src/misc/lv_ll.c ****             node_set_next(ll_p, ll_p->tail, n_new);
 137:Middlewares/LVGL/GUI/lvgl/src/misc/lv_ll.c ****         }
 138:Middlewares/LVGL/GUI/lvgl/src/misc/lv_ll.c **** 
 139:Middlewares/LVGL/GUI/lvgl/src/misc/lv_ll.c ****         ll_p->tail = n_new;      /*Set the new tail in the dsc.*/
 140:Middlewares/LVGL/GUI/lvgl/src/misc/lv_ll.c ****         if(ll_p->head == NULL) { /*If there is no head (1. node) set the head too*/
 141:Middlewares/LVGL/GUI/lvgl/src/misc/lv_ll.c ****             ll_p->head = n_new;
 142:Middlewares/LVGL/GUI/lvgl/src/misc/lv_ll.c ****         }
 143:Middlewares/LVGL/GUI/lvgl/src/misc/lv_ll.c ****     }
 144:Middlewares/LVGL/GUI/lvgl/src/misc/lv_ll.c **** 
ARM GAS  C:\Users\ADMINI~1\AppData\Local\Temp\cc6YE4sa.s 			page 4


 145:Middlewares/LVGL/GUI/lvgl/src/misc/lv_ll.c ****     return n_new;
 146:Middlewares/LVGL/GUI/lvgl/src/misc/lv_ll.c **** }
 147:Middlewares/LVGL/GUI/lvgl/src/misc/lv_ll.c **** 
 148:Middlewares/LVGL/GUI/lvgl/src/misc/lv_ll.c **** /**
 149:Middlewares/LVGL/GUI/lvgl/src/misc/lv_ll.c ****  * Remove the node 'node_p' from 'll_p' linked list.
 150:Middlewares/LVGL/GUI/lvgl/src/misc/lv_ll.c ****  * It does not free the memory of node.
 151:Middlewares/LVGL/GUI/lvgl/src/misc/lv_ll.c ****  * @param ll_p pointer to the linked list of 'node_p'
 152:Middlewares/LVGL/GUI/lvgl/src/misc/lv_ll.c ****  * @param node_p pointer to node in 'll_p' linked list
 153:Middlewares/LVGL/GUI/lvgl/src/misc/lv_ll.c ****  */
 154:Middlewares/LVGL/GUI/lvgl/src/misc/lv_ll.c **** void _lv_ll_remove(lv_ll_t * ll_p, void * node_p)
 155:Middlewares/LVGL/GUI/lvgl/src/misc/lv_ll.c **** {
 156:Middlewares/LVGL/GUI/lvgl/src/misc/lv_ll.c ****     if(ll_p == NULL) return;
 157:Middlewares/LVGL/GUI/lvgl/src/misc/lv_ll.c **** 
 158:Middlewares/LVGL/GUI/lvgl/src/misc/lv_ll.c ****     if(_lv_ll_get_head(ll_p) == node_p) {
 159:Middlewares/LVGL/GUI/lvgl/src/misc/lv_ll.c ****         /*The new head will be the node after 'n_act'*/
 160:Middlewares/LVGL/GUI/lvgl/src/misc/lv_ll.c ****         ll_p->head = _lv_ll_get_next(ll_p, node_p);
 161:Middlewares/LVGL/GUI/lvgl/src/misc/lv_ll.c ****         if(ll_p->head == NULL) {
 162:Middlewares/LVGL/GUI/lvgl/src/misc/lv_ll.c ****             ll_p->tail = NULL;
 163:Middlewares/LVGL/GUI/lvgl/src/misc/lv_ll.c ****         }
 164:Middlewares/LVGL/GUI/lvgl/src/misc/lv_ll.c ****         else {
 165:Middlewares/LVGL/GUI/lvgl/src/misc/lv_ll.c ****             node_set_prev(ll_p, ll_p->head, NULL);
 166:Middlewares/LVGL/GUI/lvgl/src/misc/lv_ll.c ****         }
 167:Middlewares/LVGL/GUI/lvgl/src/misc/lv_ll.c ****     }
 168:Middlewares/LVGL/GUI/lvgl/src/misc/lv_ll.c ****     else if(_lv_ll_get_tail(ll_p) == node_p) {
 169:Middlewares/LVGL/GUI/lvgl/src/misc/lv_ll.c ****         /*The new tail will be the node before 'n_act'*/
 170:Middlewares/LVGL/GUI/lvgl/src/misc/lv_ll.c ****         ll_p->tail = _lv_ll_get_prev(ll_p, node_p);
 171:Middlewares/LVGL/GUI/lvgl/src/misc/lv_ll.c ****         if(ll_p->tail == NULL) {
 172:Middlewares/LVGL/GUI/lvgl/src/misc/lv_ll.c ****             ll_p->head = NULL;
 173:Middlewares/LVGL/GUI/lvgl/src/misc/lv_ll.c ****         }
 174:Middlewares/LVGL/GUI/lvgl/src/misc/lv_ll.c ****         else {
 175:Middlewares/LVGL/GUI/lvgl/src/misc/lv_ll.c ****             node_set_next(ll_p, ll_p->tail, NULL);
 176:Middlewares/LVGL/GUI/lvgl/src/misc/lv_ll.c ****         }
 177:Middlewares/LVGL/GUI/lvgl/src/misc/lv_ll.c ****     }
 178:Middlewares/LVGL/GUI/lvgl/src/misc/lv_ll.c ****     else {
 179:Middlewares/LVGL/GUI/lvgl/src/misc/lv_ll.c ****         lv_ll_node_t * n_prev = _lv_ll_get_prev(ll_p, node_p);
 180:Middlewares/LVGL/GUI/lvgl/src/misc/lv_ll.c ****         lv_ll_node_t * n_next = _lv_ll_get_next(ll_p, node_p);
 181:Middlewares/LVGL/GUI/lvgl/src/misc/lv_ll.c **** 
 182:Middlewares/LVGL/GUI/lvgl/src/misc/lv_ll.c ****         node_set_next(ll_p, n_prev, n_next);
 183:Middlewares/LVGL/GUI/lvgl/src/misc/lv_ll.c ****         node_set_prev(ll_p, n_next, n_prev);
 184:Middlewares/LVGL/GUI/lvgl/src/misc/lv_ll.c ****     }
 185:Middlewares/LVGL/GUI/lvgl/src/misc/lv_ll.c **** }
 186:Middlewares/LVGL/GUI/lvgl/src/misc/lv_ll.c **** 
 187:Middlewares/LVGL/GUI/lvgl/src/misc/lv_ll.c **** /**
 188:Middlewares/LVGL/GUI/lvgl/src/misc/lv_ll.c ****  * Remove and free all elements from a linked list. The list remain valid but become empty.
 189:Middlewares/LVGL/GUI/lvgl/src/misc/lv_ll.c ****  * @param ll_p pointer to linked list
 190:Middlewares/LVGL/GUI/lvgl/src/misc/lv_ll.c ****  */
 191:Middlewares/LVGL/GUI/lvgl/src/misc/lv_ll.c **** void _lv_ll_clear(lv_ll_t * ll_p)
 192:Middlewares/LVGL/GUI/lvgl/src/misc/lv_ll.c **** {
 193:Middlewares/LVGL/GUI/lvgl/src/misc/lv_ll.c ****     void * i;
 194:Middlewares/LVGL/GUI/lvgl/src/misc/lv_ll.c ****     void * i_next;
 195:Middlewares/LVGL/GUI/lvgl/src/misc/lv_ll.c **** 
 196:Middlewares/LVGL/GUI/lvgl/src/misc/lv_ll.c ****     i      = _lv_ll_get_head(ll_p);
 197:Middlewares/LVGL/GUI/lvgl/src/misc/lv_ll.c ****     i_next = NULL;
 198:Middlewares/LVGL/GUI/lvgl/src/misc/lv_ll.c **** 
 199:Middlewares/LVGL/GUI/lvgl/src/misc/lv_ll.c ****     while(i != NULL) {
 200:Middlewares/LVGL/GUI/lvgl/src/misc/lv_ll.c ****         i_next = _lv_ll_get_next(ll_p, i);
 201:Middlewares/LVGL/GUI/lvgl/src/misc/lv_ll.c **** 
ARM GAS  C:\Users\ADMINI~1\AppData\Local\Temp\cc6YE4sa.s 			page 5


 202:Middlewares/LVGL/GUI/lvgl/src/misc/lv_ll.c ****         _lv_ll_remove(ll_p, i);
 203:Middlewares/LVGL/GUI/lvgl/src/misc/lv_ll.c ****         lv_mem_free(i);
 204:Middlewares/LVGL/GUI/lvgl/src/misc/lv_ll.c **** 
 205:Middlewares/LVGL/GUI/lvgl/src/misc/lv_ll.c ****         i = i_next;
 206:Middlewares/LVGL/GUI/lvgl/src/misc/lv_ll.c ****     }
 207:Middlewares/LVGL/GUI/lvgl/src/misc/lv_ll.c **** }
 208:Middlewares/LVGL/GUI/lvgl/src/misc/lv_ll.c **** 
 209:Middlewares/LVGL/GUI/lvgl/src/misc/lv_ll.c **** /**
 210:Middlewares/LVGL/GUI/lvgl/src/misc/lv_ll.c ****  * Move a node to a new linked list
 211:Middlewares/LVGL/GUI/lvgl/src/misc/lv_ll.c ****  * @param ll_ori_p pointer to the original (old) linked list
 212:Middlewares/LVGL/GUI/lvgl/src/misc/lv_ll.c ****  * @param ll_new_p pointer to the new linked list
 213:Middlewares/LVGL/GUI/lvgl/src/misc/lv_ll.c ****  * @param node pointer to a node
 214:Middlewares/LVGL/GUI/lvgl/src/misc/lv_ll.c ****  * @param head true: be the head in the new list
 215:Middlewares/LVGL/GUI/lvgl/src/misc/lv_ll.c ****  *             false be the tail in the new list
 216:Middlewares/LVGL/GUI/lvgl/src/misc/lv_ll.c ****  */
 217:Middlewares/LVGL/GUI/lvgl/src/misc/lv_ll.c **** void _lv_ll_chg_list(lv_ll_t * ll_ori_p, lv_ll_t * ll_new_p, void * node, bool head)
 218:Middlewares/LVGL/GUI/lvgl/src/misc/lv_ll.c **** {
 219:Middlewares/LVGL/GUI/lvgl/src/misc/lv_ll.c ****     _lv_ll_remove(ll_ori_p, node);
 220:Middlewares/LVGL/GUI/lvgl/src/misc/lv_ll.c **** 
 221:Middlewares/LVGL/GUI/lvgl/src/misc/lv_ll.c ****     if(head) {
 222:Middlewares/LVGL/GUI/lvgl/src/misc/lv_ll.c ****         /*Set node as head*/
 223:Middlewares/LVGL/GUI/lvgl/src/misc/lv_ll.c ****         node_set_prev(ll_new_p, node, NULL);
 224:Middlewares/LVGL/GUI/lvgl/src/misc/lv_ll.c ****         node_set_next(ll_new_p, node, ll_new_p->head);
 225:Middlewares/LVGL/GUI/lvgl/src/misc/lv_ll.c **** 
 226:Middlewares/LVGL/GUI/lvgl/src/misc/lv_ll.c ****         if(ll_new_p->head != NULL) { /*If there is old head then before it goes the new*/
 227:Middlewares/LVGL/GUI/lvgl/src/misc/lv_ll.c ****             node_set_prev(ll_new_p, ll_new_p->head, node);
 228:Middlewares/LVGL/GUI/lvgl/src/misc/lv_ll.c ****         }
 229:Middlewares/LVGL/GUI/lvgl/src/misc/lv_ll.c **** 
 230:Middlewares/LVGL/GUI/lvgl/src/misc/lv_ll.c ****         ll_new_p->head = node;       /*Set the new head in the dsc.*/
 231:Middlewares/LVGL/GUI/lvgl/src/misc/lv_ll.c ****         if(ll_new_p->tail == NULL) { /*If there is no tail (first node) set the tail too*/
 232:Middlewares/LVGL/GUI/lvgl/src/misc/lv_ll.c ****             ll_new_p->tail = node;
 233:Middlewares/LVGL/GUI/lvgl/src/misc/lv_ll.c ****         }
 234:Middlewares/LVGL/GUI/lvgl/src/misc/lv_ll.c ****     }
 235:Middlewares/LVGL/GUI/lvgl/src/misc/lv_ll.c ****     else {
 236:Middlewares/LVGL/GUI/lvgl/src/misc/lv_ll.c ****         /*Set node as tail*/
 237:Middlewares/LVGL/GUI/lvgl/src/misc/lv_ll.c ****         node_set_prev(ll_new_p, node, ll_new_p->tail);
 238:Middlewares/LVGL/GUI/lvgl/src/misc/lv_ll.c ****         node_set_next(ll_new_p, node, NULL);
 239:Middlewares/LVGL/GUI/lvgl/src/misc/lv_ll.c **** 
 240:Middlewares/LVGL/GUI/lvgl/src/misc/lv_ll.c ****         if(ll_new_p->tail != NULL) { /*If there is old tail then after it goes the new*/
 241:Middlewares/LVGL/GUI/lvgl/src/misc/lv_ll.c ****             node_set_next(ll_new_p, ll_new_p->tail, node);
 242:Middlewares/LVGL/GUI/lvgl/src/misc/lv_ll.c ****         }
 243:Middlewares/LVGL/GUI/lvgl/src/misc/lv_ll.c **** 
 244:Middlewares/LVGL/GUI/lvgl/src/misc/lv_ll.c ****         ll_new_p->tail = node;       /*Set the new tail in the dsc.*/
 245:Middlewares/LVGL/GUI/lvgl/src/misc/lv_ll.c ****         if(ll_new_p->head == NULL) { /*If there is no head (first node) set the head too*/
 246:Middlewares/LVGL/GUI/lvgl/src/misc/lv_ll.c ****             ll_new_p->head = node;
 247:Middlewares/LVGL/GUI/lvgl/src/misc/lv_ll.c ****         }
 248:Middlewares/LVGL/GUI/lvgl/src/misc/lv_ll.c ****     }
 249:Middlewares/LVGL/GUI/lvgl/src/misc/lv_ll.c **** }
 250:Middlewares/LVGL/GUI/lvgl/src/misc/lv_ll.c **** 
 251:Middlewares/LVGL/GUI/lvgl/src/misc/lv_ll.c **** /**
 252:Middlewares/LVGL/GUI/lvgl/src/misc/lv_ll.c ****  * Return with head node of the linked list
 253:Middlewares/LVGL/GUI/lvgl/src/misc/lv_ll.c ****  * @param ll_p pointer to linked list
 254:Middlewares/LVGL/GUI/lvgl/src/misc/lv_ll.c ****  * @return pointer to the head of 'll_p'
 255:Middlewares/LVGL/GUI/lvgl/src/misc/lv_ll.c ****  */
 256:Middlewares/LVGL/GUI/lvgl/src/misc/lv_ll.c **** void * _lv_ll_get_head(const lv_ll_t * ll_p)
 257:Middlewares/LVGL/GUI/lvgl/src/misc/lv_ll.c **** {
 258:Middlewares/LVGL/GUI/lvgl/src/misc/lv_ll.c ****     if(ll_p == NULL) return NULL;
ARM GAS  C:\Users\ADMINI~1\AppData\Local\Temp\cc6YE4sa.s 			page 6


 259:Middlewares/LVGL/GUI/lvgl/src/misc/lv_ll.c ****     return ll_p->head;
 260:Middlewares/LVGL/GUI/lvgl/src/misc/lv_ll.c **** }
 261:Middlewares/LVGL/GUI/lvgl/src/misc/lv_ll.c **** 
 262:Middlewares/LVGL/GUI/lvgl/src/misc/lv_ll.c **** /**
 263:Middlewares/LVGL/GUI/lvgl/src/misc/lv_ll.c ****  * Return with tail node of the linked list
 264:Middlewares/LVGL/GUI/lvgl/src/misc/lv_ll.c ****  * @param ll_p pointer to linked list
 265:Middlewares/LVGL/GUI/lvgl/src/misc/lv_ll.c ****  * @return pointer to the tail of 'll_p'
 266:Middlewares/LVGL/GUI/lvgl/src/misc/lv_ll.c ****  */
 267:Middlewares/LVGL/GUI/lvgl/src/misc/lv_ll.c **** void * _lv_ll_get_tail(const lv_ll_t * ll_p)
 268:Middlewares/LVGL/GUI/lvgl/src/misc/lv_ll.c **** {
 269:Middlewares/LVGL/GUI/lvgl/src/misc/lv_ll.c ****     if(ll_p == NULL) return NULL;
 270:Middlewares/LVGL/GUI/lvgl/src/misc/lv_ll.c ****     return ll_p->tail;
 271:Middlewares/LVGL/GUI/lvgl/src/misc/lv_ll.c **** }
 272:Middlewares/LVGL/GUI/lvgl/src/misc/lv_ll.c **** 
 273:Middlewares/LVGL/GUI/lvgl/src/misc/lv_ll.c **** /**
 274:Middlewares/LVGL/GUI/lvgl/src/misc/lv_ll.c ****  * Return with the pointer of the next node after 'n_act'
 275:Middlewares/LVGL/GUI/lvgl/src/misc/lv_ll.c ****  * @param ll_p pointer to linked list
 276:Middlewares/LVGL/GUI/lvgl/src/misc/lv_ll.c ****  * @param n_act pointer a node
 277:Middlewares/LVGL/GUI/lvgl/src/misc/lv_ll.c ****  * @return pointer to the next node
 278:Middlewares/LVGL/GUI/lvgl/src/misc/lv_ll.c ****  */
 279:Middlewares/LVGL/GUI/lvgl/src/misc/lv_ll.c **** void * _lv_ll_get_next(const lv_ll_t * ll_p, const void * n_act)
 280:Middlewares/LVGL/GUI/lvgl/src/misc/lv_ll.c **** {
 281:Middlewares/LVGL/GUI/lvgl/src/misc/lv_ll.c ****     /*Pointer to the next node is stored in the end of this node.
 282:Middlewares/LVGL/GUI/lvgl/src/misc/lv_ll.c ****      *Go there and return the address found there*/
 283:Middlewares/LVGL/GUI/lvgl/src/misc/lv_ll.c ****     const lv_ll_node_t * n_act_d = n_act;
 284:Middlewares/LVGL/GUI/lvgl/src/misc/lv_ll.c ****     n_act_d += LL_NEXT_P_OFFSET(ll_p);
 285:Middlewares/LVGL/GUI/lvgl/src/misc/lv_ll.c ****     return *((lv_ll_node_t **)n_act_d);
 286:Middlewares/LVGL/GUI/lvgl/src/misc/lv_ll.c **** }
 287:Middlewares/LVGL/GUI/lvgl/src/misc/lv_ll.c **** 
 288:Middlewares/LVGL/GUI/lvgl/src/misc/lv_ll.c **** /**
 289:Middlewares/LVGL/GUI/lvgl/src/misc/lv_ll.c ****  * Return with the pointer of the previous node after 'n_act'
 290:Middlewares/LVGL/GUI/lvgl/src/misc/lv_ll.c ****  * @param ll_p pointer to linked list
 291:Middlewares/LVGL/GUI/lvgl/src/misc/lv_ll.c ****  * @param n_act pointer a node
 292:Middlewares/LVGL/GUI/lvgl/src/misc/lv_ll.c ****  * @return pointer to the previous node
 293:Middlewares/LVGL/GUI/lvgl/src/misc/lv_ll.c ****  */
 294:Middlewares/LVGL/GUI/lvgl/src/misc/lv_ll.c **** void * _lv_ll_get_prev(const lv_ll_t * ll_p, const void * n_act)
 295:Middlewares/LVGL/GUI/lvgl/src/misc/lv_ll.c **** {
 296:Middlewares/LVGL/GUI/lvgl/src/misc/lv_ll.c ****     /*Pointer to the prev. node is stored in the end of this node.
 297:Middlewares/LVGL/GUI/lvgl/src/misc/lv_ll.c ****      *Go there and return the address found there*/
 298:Middlewares/LVGL/GUI/lvgl/src/misc/lv_ll.c ****     const lv_ll_node_t * n_act_d = n_act;
 299:Middlewares/LVGL/GUI/lvgl/src/misc/lv_ll.c ****     n_act_d += LL_PREV_P_OFFSET(ll_p);
 300:Middlewares/LVGL/GUI/lvgl/src/misc/lv_ll.c ****     return *((lv_ll_node_t **)n_act_d);
 301:Middlewares/LVGL/GUI/lvgl/src/misc/lv_ll.c **** }
 302:Middlewares/LVGL/GUI/lvgl/src/misc/lv_ll.c **** 
 303:Middlewares/LVGL/GUI/lvgl/src/misc/lv_ll.c **** /**
 304:Middlewares/LVGL/GUI/lvgl/src/misc/lv_ll.c ****  * Return the length of the linked list.
 305:Middlewares/LVGL/GUI/lvgl/src/misc/lv_ll.c ****  * @param ll_p pointer to linked list
 306:Middlewares/LVGL/GUI/lvgl/src/misc/lv_ll.c ****  * @return length of the linked list
 307:Middlewares/LVGL/GUI/lvgl/src/misc/lv_ll.c ****  */
 308:Middlewares/LVGL/GUI/lvgl/src/misc/lv_ll.c **** uint32_t _lv_ll_get_len(const lv_ll_t * ll_p)
 309:Middlewares/LVGL/GUI/lvgl/src/misc/lv_ll.c **** {
 310:Middlewares/LVGL/GUI/lvgl/src/misc/lv_ll.c ****     uint32_t len = 0;
 311:Middlewares/LVGL/GUI/lvgl/src/misc/lv_ll.c ****     void * node;
 312:Middlewares/LVGL/GUI/lvgl/src/misc/lv_ll.c **** 
 313:Middlewares/LVGL/GUI/lvgl/src/misc/lv_ll.c ****     for(node = _lv_ll_get_head(ll_p); node != NULL; node = _lv_ll_get_next(ll_p, node)) {
 314:Middlewares/LVGL/GUI/lvgl/src/misc/lv_ll.c ****         len++;
 315:Middlewares/LVGL/GUI/lvgl/src/misc/lv_ll.c ****     }
ARM GAS  C:\Users\ADMINI~1\AppData\Local\Temp\cc6YE4sa.s 			page 7


 316:Middlewares/LVGL/GUI/lvgl/src/misc/lv_ll.c **** 
 317:Middlewares/LVGL/GUI/lvgl/src/misc/lv_ll.c ****     return len;
 318:Middlewares/LVGL/GUI/lvgl/src/misc/lv_ll.c **** }
 319:Middlewares/LVGL/GUI/lvgl/src/misc/lv_ll.c **** 
 320:Middlewares/LVGL/GUI/lvgl/src/misc/lv_ll.c **** /**
 321:Middlewares/LVGL/GUI/lvgl/src/misc/lv_ll.c ****  * Move a node before an other node in the same linked list
 322:Middlewares/LVGL/GUI/lvgl/src/misc/lv_ll.c ****  * @param ll_p pointer to a linked list
 323:Middlewares/LVGL/GUI/lvgl/src/misc/lv_ll.c ****  * @param n_act pointer to node to move
 324:Middlewares/LVGL/GUI/lvgl/src/misc/lv_ll.c ****  * @param n_after pointer to a node which should be after `n_act`
 325:Middlewares/LVGL/GUI/lvgl/src/misc/lv_ll.c ****  */
 326:Middlewares/LVGL/GUI/lvgl/src/misc/lv_ll.c **** void _lv_ll_move_before(lv_ll_t * ll_p, void * n_act, void * n_after)
 327:Middlewares/LVGL/GUI/lvgl/src/misc/lv_ll.c **** {
 328:Middlewares/LVGL/GUI/lvgl/src/misc/lv_ll.c ****     if(n_act == n_after) return; /*Can't move before itself*/
 329:Middlewares/LVGL/GUI/lvgl/src/misc/lv_ll.c **** 
 330:Middlewares/LVGL/GUI/lvgl/src/misc/lv_ll.c ****     void * n_before;
 331:Middlewares/LVGL/GUI/lvgl/src/misc/lv_ll.c ****     if(n_after != NULL)
 332:Middlewares/LVGL/GUI/lvgl/src/misc/lv_ll.c ****         n_before = _lv_ll_get_prev(ll_p, n_after);
 333:Middlewares/LVGL/GUI/lvgl/src/misc/lv_ll.c ****     else
 334:Middlewares/LVGL/GUI/lvgl/src/misc/lv_ll.c ****         n_before = _lv_ll_get_tail(ll_p); /*if `n_after` is NULL `n_act` should be the new tail*/
 335:Middlewares/LVGL/GUI/lvgl/src/misc/lv_ll.c **** 
 336:Middlewares/LVGL/GUI/lvgl/src/misc/lv_ll.c ****     if(n_act == n_before) return; /*Already before `n_after`*/
 337:Middlewares/LVGL/GUI/lvgl/src/misc/lv_ll.c **** 
 338:Middlewares/LVGL/GUI/lvgl/src/misc/lv_ll.c ****     /*It's much easier to remove from the list and add again*/
 339:Middlewares/LVGL/GUI/lvgl/src/misc/lv_ll.c ****     _lv_ll_remove(ll_p, n_act);
 340:Middlewares/LVGL/GUI/lvgl/src/misc/lv_ll.c **** 
 341:Middlewares/LVGL/GUI/lvgl/src/misc/lv_ll.c ****     /*Add again by setting the prev. and next nodes*/
 342:Middlewares/LVGL/GUI/lvgl/src/misc/lv_ll.c ****     node_set_next(ll_p, n_before, n_act);
 343:Middlewares/LVGL/GUI/lvgl/src/misc/lv_ll.c ****     node_set_prev(ll_p, n_act, n_before);
 344:Middlewares/LVGL/GUI/lvgl/src/misc/lv_ll.c ****     node_set_prev(ll_p, n_after, n_act);
 345:Middlewares/LVGL/GUI/lvgl/src/misc/lv_ll.c ****     node_set_next(ll_p, n_act, n_after);
 346:Middlewares/LVGL/GUI/lvgl/src/misc/lv_ll.c **** 
 347:Middlewares/LVGL/GUI/lvgl/src/misc/lv_ll.c ****     /*If `n_act` was moved before NULL then it become the new tail*/
 348:Middlewares/LVGL/GUI/lvgl/src/misc/lv_ll.c ****     if(n_after == NULL) ll_p->tail = n_act;
 349:Middlewares/LVGL/GUI/lvgl/src/misc/lv_ll.c **** 
 350:Middlewares/LVGL/GUI/lvgl/src/misc/lv_ll.c ****     /*If `n_act` was moved before `NULL` then it's the new head*/
 351:Middlewares/LVGL/GUI/lvgl/src/misc/lv_ll.c ****     if(n_before == NULL) ll_p->head = n_act;
 352:Middlewares/LVGL/GUI/lvgl/src/misc/lv_ll.c **** }
 353:Middlewares/LVGL/GUI/lvgl/src/misc/lv_ll.c **** 
 354:Middlewares/LVGL/GUI/lvgl/src/misc/lv_ll.c **** /**
 355:Middlewares/LVGL/GUI/lvgl/src/misc/lv_ll.c ****  * Check if a linked list is empty
 356:Middlewares/LVGL/GUI/lvgl/src/misc/lv_ll.c ****  * @param ll_p pointer to a linked list
 357:Middlewares/LVGL/GUI/lvgl/src/misc/lv_ll.c ****  * @return true: the linked list is empty; false: not empty
 358:Middlewares/LVGL/GUI/lvgl/src/misc/lv_ll.c ****  */
 359:Middlewares/LVGL/GUI/lvgl/src/misc/lv_ll.c **** bool _lv_ll_is_empty(lv_ll_t * ll_p)
 360:Middlewares/LVGL/GUI/lvgl/src/misc/lv_ll.c **** {
 361:Middlewares/LVGL/GUI/lvgl/src/misc/lv_ll.c ****     if(ll_p == NULL) return true;
 362:Middlewares/LVGL/GUI/lvgl/src/misc/lv_ll.c **** 
 363:Middlewares/LVGL/GUI/lvgl/src/misc/lv_ll.c ****     if(ll_p->head == NULL && ll_p->tail == NULL) return true;
 364:Middlewares/LVGL/GUI/lvgl/src/misc/lv_ll.c **** 
 365:Middlewares/LVGL/GUI/lvgl/src/misc/lv_ll.c ****     return false;
 366:Middlewares/LVGL/GUI/lvgl/src/misc/lv_ll.c **** }
 367:Middlewares/LVGL/GUI/lvgl/src/misc/lv_ll.c **** 
 368:Middlewares/LVGL/GUI/lvgl/src/misc/lv_ll.c **** /**********************
 369:Middlewares/LVGL/GUI/lvgl/src/misc/lv_ll.c ****  *   STATIC FUNCTIONS
 370:Middlewares/LVGL/GUI/lvgl/src/misc/lv_ll.c ****  **********************/
 371:Middlewares/LVGL/GUI/lvgl/src/misc/lv_ll.c **** 
 372:Middlewares/LVGL/GUI/lvgl/src/misc/lv_ll.c **** /**
ARM GAS  C:\Users\ADMINI~1\AppData\Local\Temp\cc6YE4sa.s 			page 8


 373:Middlewares/LVGL/GUI/lvgl/src/misc/lv_ll.c ****  * Set the previous node pointer of a node
 374:Middlewares/LVGL/GUI/lvgl/src/misc/lv_ll.c ****  * @param ll_p pointer to linked list
 375:Middlewares/LVGL/GUI/lvgl/src/misc/lv_ll.c ****  * @param act pointer to a node which prev. node pointer should be set
 376:Middlewares/LVGL/GUI/lvgl/src/misc/lv_ll.c ****  * @param prev pointer to a node which should be the previous node before 'act'
 377:Middlewares/LVGL/GUI/lvgl/src/misc/lv_ll.c ****  */
 378:Middlewares/LVGL/GUI/lvgl/src/misc/lv_ll.c **** static void node_set_prev(lv_ll_t * ll_p, lv_ll_node_t * act, lv_ll_node_t * prev)
 379:Middlewares/LVGL/GUI/lvgl/src/misc/lv_ll.c **** {
  29              		.loc 1 379 1 view -0
  30              		.cfi_startproc
  31              		@ args = 0, pretend = 0, frame = 0
  32              		@ frame_needed = 0, uses_anonymous_args = 0
  33              		@ link register save eliminated.
 380:Middlewares/LVGL/GUI/lvgl/src/misc/lv_ll.c ****     if(act == NULL) return; /*Can't set the prev node of `NULL`*/
  34              		.loc 1 380 5 view .LVU1
  35              		.loc 1 380 7 is_stmt 0 view .LVU2
  36 0000 0B46     		mov	r3, r1
  37 0002 09B1     		cbz	r1, .L1
 381:Middlewares/LVGL/GUI/lvgl/src/misc/lv_ll.c **** 
 382:Middlewares/LVGL/GUI/lvgl/src/misc/lv_ll.c ****     uint8_t * act8 = (uint8_t *)act;
  38              		.loc 1 382 5 is_stmt 1 view .LVU3
  39              	.LVL1:
 383:Middlewares/LVGL/GUI/lvgl/src/misc/lv_ll.c **** 
 384:Middlewares/LVGL/GUI/lvgl/src/misc/lv_ll.c ****     act8 += LL_PREV_P_OFFSET(ll_p);
  40              		.loc 1 384 5 view .LVU4
  41              		.loc 1 384 13 is_stmt 0 view .LVU5
  42 0004 0168     		ldr	r1, [r0]
  43              	.LVL2:
 385:Middlewares/LVGL/GUI/lvgl/src/misc/lv_ll.c **** 
 386:Middlewares/LVGL/GUI/lvgl/src/misc/lv_ll.c ****     lv_ll_node_t ** act_node_p = (lv_ll_node_t **) act8;
  44              		.loc 1 386 5 is_stmt 1 view .LVU6
 387:Middlewares/LVGL/GUI/lvgl/src/misc/lv_ll.c ****     lv_ll_node_t ** prev_node_p = (lv_ll_node_t **) &prev;
  45              		.loc 1 387 5 view .LVU7
 388:Middlewares/LVGL/GUI/lvgl/src/misc/lv_ll.c **** 
 389:Middlewares/LVGL/GUI/lvgl/src/misc/lv_ll.c ****     *act_node_p = *prev_node_p;
  46              		.loc 1 389 5 view .LVU8
  47              		.loc 1 389 17 is_stmt 0 view .LVU9
  48 0006 5A50     		str	r2, [r3, r1]
  49              	.LVL3:
  50              	.L1:
 390:Middlewares/LVGL/GUI/lvgl/src/misc/lv_ll.c **** }
  51              		.loc 1 390 1 view .LVU10
  52 0008 7047     		bx	lr
  53              		.cfi_endproc
  54              	.LFE15:
  56              		.section	.text.node_set_next,"ax",%progbits
  57              		.align	1
  58              		.syntax unified
  59              		.thumb
  60              		.thumb_func
  62              	node_set_next:
  63              	.LVL4:
  64              	.LFB16:
 391:Middlewares/LVGL/GUI/lvgl/src/misc/lv_ll.c **** 
 392:Middlewares/LVGL/GUI/lvgl/src/misc/lv_ll.c **** /**
 393:Middlewares/LVGL/GUI/lvgl/src/misc/lv_ll.c ****  * Set the 'next node pointer' of a node
 394:Middlewares/LVGL/GUI/lvgl/src/misc/lv_ll.c ****  * @param ll_p pointer to linked list
 395:Middlewares/LVGL/GUI/lvgl/src/misc/lv_ll.c ****  * @param act pointer to a node which next node pointer should be set
ARM GAS  C:\Users\ADMINI~1\AppData\Local\Temp\cc6YE4sa.s 			page 9


 396:Middlewares/LVGL/GUI/lvgl/src/misc/lv_ll.c ****  * @param next pointer to a node which should be the next node before 'act'
 397:Middlewares/LVGL/GUI/lvgl/src/misc/lv_ll.c ****  */
 398:Middlewares/LVGL/GUI/lvgl/src/misc/lv_ll.c **** static void node_set_next(lv_ll_t * ll_p, lv_ll_node_t * act, lv_ll_node_t * next)
 399:Middlewares/LVGL/GUI/lvgl/src/misc/lv_ll.c **** {
  65              		.loc 1 399 1 is_stmt 1 view -0
  66              		.cfi_startproc
  67              		@ args = 0, pretend = 0, frame = 0
  68              		@ frame_needed = 0, uses_anonymous_args = 0
  69              		@ link register save eliminated.
 400:Middlewares/LVGL/GUI/lvgl/src/misc/lv_ll.c ****     if(act == NULL) return; /*Can't set the next node of `NULL`*/
  70              		.loc 1 400 5 view .LVU12
  71              		.loc 1 400 7 is_stmt 0 view .LVU13
  72 0000 11B1     		cbz	r1, .L3
 401:Middlewares/LVGL/GUI/lvgl/src/misc/lv_ll.c ****     uint8_t * act8 = (uint8_t *)act;
  73              		.loc 1 401 5 is_stmt 1 view .LVU14
  74              	.LVL5:
 402:Middlewares/LVGL/GUI/lvgl/src/misc/lv_ll.c **** 
 403:Middlewares/LVGL/GUI/lvgl/src/misc/lv_ll.c ****     act8 += LL_NEXT_P_OFFSET(ll_p);
  75              		.loc 1 403 5 view .LVU15
  76              		.loc 1 403 13 is_stmt 0 view .LVU16
  77 0002 0368     		ldr	r3, [r0]
  78              		.loc 1 403 10 view .LVU17
  79 0004 0433     		adds	r3, r3, #4
  80              	.LVL6:
 404:Middlewares/LVGL/GUI/lvgl/src/misc/lv_ll.c ****     lv_ll_node_t ** act_node_p = (lv_ll_node_t **) act8;
  81              		.loc 1 404 5 is_stmt 1 view .LVU18
 405:Middlewares/LVGL/GUI/lvgl/src/misc/lv_ll.c ****     lv_ll_node_t ** next_node_p = (lv_ll_node_t **) &next;
  82              		.loc 1 405 5 view .LVU19
 406:Middlewares/LVGL/GUI/lvgl/src/misc/lv_ll.c **** 
 407:Middlewares/LVGL/GUI/lvgl/src/misc/lv_ll.c ****     *act_node_p = *next_node_p;
  83              		.loc 1 407 5 view .LVU20
  84              		.loc 1 407 17 is_stmt 0 view .LVU21
  85 0006 CA50     		str	r2, [r1, r3]
  86              	.LVL7:
  87              	.L3:
 408:Middlewares/LVGL/GUI/lvgl/src/misc/lv_ll.c **** }
  88              		.loc 1 408 1 view .LVU22
  89 0008 7047     		bx	lr
  90              		.cfi_endproc
  91              	.LFE16:
  93              		.section	.text._lv_ll_init,"ax",%progbits
  94              		.align	1
  95              		.global	_lv_ll_init
  96              		.syntax unified
  97              		.thumb
  98              		.thumb_func
 100              	_lv_ll_init:
 101              	.LVL8:
 102              	.LFB1:
  48:Middlewares/LVGL/GUI/lvgl/src/misc/lv_ll.c ****     ll_p->head = NULL;
 103              		.loc 1 48 1 is_stmt 1 view -0
 104              		.cfi_startproc
 105              		@ args = 0, pretend = 0, frame = 0
 106              		@ frame_needed = 0, uses_anonymous_args = 0
 107              		@ link register save eliminated.
  49:Middlewares/LVGL/GUI/lvgl/src/misc/lv_ll.c ****     ll_p->tail = NULL;
 108              		.loc 1 49 5 view .LVU24
ARM GAS  C:\Users\ADMINI~1\AppData\Local\Temp\cc6YE4sa.s 			page 10


  49:Middlewares/LVGL/GUI/lvgl/src/misc/lv_ll.c ****     ll_p->tail = NULL;
 109              		.loc 1 49 16 is_stmt 0 view .LVU25
 110 0000 0023     		movs	r3, #0
 111 0002 4360     		str	r3, [r0, #4]
  50:Middlewares/LVGL/GUI/lvgl/src/misc/lv_ll.c **** #ifdef LV_ARCH_64
 112              		.loc 1 50 5 is_stmt 1 view .LVU26
  50:Middlewares/LVGL/GUI/lvgl/src/misc/lv_ll.c **** #ifdef LV_ARCH_64
 113              		.loc 1 50 16 is_stmt 0 view .LVU27
 114 0004 8360     		str	r3, [r0, #8]
  56:Middlewares/LVGL/GUI/lvgl/src/misc/lv_ll.c **** #endif
 115              		.loc 1 56 5 is_stmt 1 view .LVU28
  56:Middlewares/LVGL/GUI/lvgl/src/misc/lv_ll.c **** #endif
 116              		.loc 1 56 28 is_stmt 0 view .LVU29
 117 0006 0331     		adds	r1, r1, #3
 118              	.LVL9:
  56:Middlewares/LVGL/GUI/lvgl/src/misc/lv_ll.c **** #endif
 119              		.loc 1 56 15 view .LVU30
 120 0008 21F00301 		bic	r1, r1, #3
 121              	.LVL10:
  59:Middlewares/LVGL/GUI/lvgl/src/misc/lv_ll.c **** }
 122              		.loc 1 59 5 is_stmt 1 view .LVU31
  59:Middlewares/LVGL/GUI/lvgl/src/misc/lv_ll.c **** }
 123              		.loc 1 59 18 is_stmt 0 view .LVU32
 124 000c 0160     		str	r1, [r0]
  60:Middlewares/LVGL/GUI/lvgl/src/misc/lv_ll.c **** 
 125              		.loc 1 60 1 view .LVU33
 126 000e 7047     		bx	lr
 127              		.cfi_endproc
 128              	.LFE1:
 130              		.section	.text._lv_ll_ins_head,"ax",%progbits
 131              		.align	1
 132              		.global	_lv_ll_ins_head
 133              		.syntax unified
 134              		.thumb
 135              		.thumb_func
 137              	_lv_ll_ins_head:
 138              	.LVL11:
 139              	.LFB2:
  68:Middlewares/LVGL/GUI/lvgl/src/misc/lv_ll.c ****     lv_ll_node_t * n_new;
 140              		.loc 1 68 1 is_stmt 1 view -0
 141              		.cfi_startproc
 142              		@ args = 0, pretend = 0, frame = 0
 143              		@ frame_needed = 0, uses_anonymous_args = 0
  68:Middlewares/LVGL/GUI/lvgl/src/misc/lv_ll.c ****     lv_ll_node_t * n_new;
 144              		.loc 1 68 1 is_stmt 0 view .LVU35
 145 0000 38B5     		push	{r3, r4, r5, lr}
 146              	.LCFI0:
 147              		.cfi_def_cfa_offset 16
 148              		.cfi_offset 3, -16
 149              		.cfi_offset 4, -12
 150              		.cfi_offset 5, -8
 151              		.cfi_offset 14, -4
 152 0002 0446     		mov	r4, r0
  69:Middlewares/LVGL/GUI/lvgl/src/misc/lv_ll.c **** 
 153              		.loc 1 69 5 is_stmt 1 view .LVU36
  71:Middlewares/LVGL/GUI/lvgl/src/misc/lv_ll.c **** 
 154              		.loc 1 71 5 view .LVU37
ARM GAS  C:\Users\ADMINI~1\AppData\Local\Temp\cc6YE4sa.s 			page 11


  71:Middlewares/LVGL/GUI/lvgl/src/misc/lv_ll.c **** 
 155              		.loc 1 71 30 is_stmt 0 view .LVU38
 156 0004 0068     		ldr	r0, [r0]
 157              	.LVL12:
  71:Middlewares/LVGL/GUI/lvgl/src/misc/lv_ll.c **** 
 158              		.loc 1 71 13 view .LVU39
 159 0006 0830     		adds	r0, r0, #8
 160 0008 FFF7FEFF 		bl	lv_mem_alloc
 161              	.LVL13:
  73:Middlewares/LVGL/GUI/lvgl/src/misc/lv_ll.c ****         node_set_prev(ll_p, n_new, NULL);       /*No prev. before the new head*/
 162              		.loc 1 73 5 is_stmt 1 view .LVU40
  73:Middlewares/LVGL/GUI/lvgl/src/misc/lv_ll.c ****         node_set_prev(ll_p, n_new, NULL);       /*No prev. before the new head*/
 163              		.loc 1 73 7 is_stmt 0 view .LVU41
 164 000c 0546     		mov	r5, r0
 165 000e 90B1     		cbz	r0, .L6
  74:Middlewares/LVGL/GUI/lvgl/src/misc/lv_ll.c ****         node_set_next(ll_p, n_new, ll_p->head); /*After new comes the old head*/
 166              		.loc 1 74 9 is_stmt 1 view .LVU42
 167 0010 0022     		movs	r2, #0
 168 0012 0146     		mov	r1, r0
 169 0014 2046     		mov	r0, r4
 170              	.LVL14:
  74:Middlewares/LVGL/GUI/lvgl/src/misc/lv_ll.c ****         node_set_next(ll_p, n_new, ll_p->head); /*After new comes the old head*/
 171              		.loc 1 74 9 is_stmt 0 view .LVU43
 172 0016 FFF7FEFF 		bl	node_set_prev
 173              	.LVL15:
  75:Middlewares/LVGL/GUI/lvgl/src/misc/lv_ll.c **** 
 174              		.loc 1 75 9 is_stmt 1 view .LVU44
 175 001a 6268     		ldr	r2, [r4, #4]
 176 001c 2946     		mov	r1, r5
 177 001e 2046     		mov	r0, r4
 178 0020 FFF7FEFF 		bl	node_set_next
 179              	.LVL16:
  77:Middlewares/LVGL/GUI/lvgl/src/misc/lv_ll.c ****             node_set_prev(ll_p, ll_p->head, n_new);
 180              		.loc 1 77 9 view .LVU45
  77:Middlewares/LVGL/GUI/lvgl/src/misc/lv_ll.c ****             node_set_prev(ll_p, ll_p->head, n_new);
 181              		.loc 1 77 16 is_stmt 0 view .LVU46
 182 0024 6168     		ldr	r1, [r4, #4]
  77:Middlewares/LVGL/GUI/lvgl/src/misc/lv_ll.c ****             node_set_prev(ll_p, ll_p->head, n_new);
 183              		.loc 1 77 11 view .LVU47
 184 0026 19B1     		cbz	r1, .L8
  78:Middlewares/LVGL/GUI/lvgl/src/misc/lv_ll.c ****         }
 185              		.loc 1 78 13 is_stmt 1 view .LVU48
 186 0028 2A46     		mov	r2, r5
 187 002a 2046     		mov	r0, r4
 188 002c FFF7FEFF 		bl	node_set_prev
 189              	.LVL17:
 190              	.L8:
  81:Middlewares/LVGL/GUI/lvgl/src/misc/lv_ll.c ****         if(ll_p->tail == NULL) { /*If there is no tail (1. node) set the tail too*/
 191              		.loc 1 81 9 view .LVU49
  81:Middlewares/LVGL/GUI/lvgl/src/misc/lv_ll.c ****         if(ll_p->tail == NULL) { /*If there is no tail (1. node) set the tail too*/
 192              		.loc 1 81 20 is_stmt 0 view .LVU50
 193 0030 6560     		str	r5, [r4, #4]
  82:Middlewares/LVGL/GUI/lvgl/src/misc/lv_ll.c ****             ll_p->tail = n_new;
 194              		.loc 1 82 9 is_stmt 1 view .LVU51
  82:Middlewares/LVGL/GUI/lvgl/src/misc/lv_ll.c ****             ll_p->tail = n_new;
 195              		.loc 1 82 16 is_stmt 0 view .LVU52
 196 0032 A368     		ldr	r3, [r4, #8]
ARM GAS  C:\Users\ADMINI~1\AppData\Local\Temp\cc6YE4sa.s 			page 12


  82:Middlewares/LVGL/GUI/lvgl/src/misc/lv_ll.c ****             ll_p->tail = n_new;
 197              		.loc 1 82 11 view .LVU53
 198 0034 0BB1     		cbz	r3, .L10
 199              	.L6:
  88:Middlewares/LVGL/GUI/lvgl/src/misc/lv_ll.c **** 
 200              		.loc 1 88 1 view .LVU54
 201 0036 2846     		mov	r0, r5
 202 0038 38BD     		pop	{r3, r4, r5, pc}
 203              	.LVL18:
 204              	.L10:
  83:Middlewares/LVGL/GUI/lvgl/src/misc/lv_ll.c ****         }
 205              		.loc 1 83 13 is_stmt 1 view .LVU55
  83:Middlewares/LVGL/GUI/lvgl/src/misc/lv_ll.c ****         }
 206              		.loc 1 83 24 is_stmt 0 view .LVU56
 207 003a A560     		str	r5, [r4, #8]
  87:Middlewares/LVGL/GUI/lvgl/src/misc/lv_ll.c **** }
 208              		.loc 1 87 5 is_stmt 1 view .LVU57
  87:Middlewares/LVGL/GUI/lvgl/src/misc/lv_ll.c **** }
 209              		.loc 1 87 12 is_stmt 0 view .LVU58
 210 003c FBE7     		b	.L6
 211              		.cfi_endproc
 212              	.LFE2:
 214              		.section	.text._lv_ll_ins_tail,"ax",%progbits
 215              		.align	1
 216              		.global	_lv_ll_ins_tail
 217              		.syntax unified
 218              		.thumb
 219              		.thumb_func
 221              	_lv_ll_ins_tail:
 222              	.LVL19:
 223              	.LFB4:
 127:Middlewares/LVGL/GUI/lvgl/src/misc/lv_ll.c ****     lv_ll_node_t * n_new;
 224              		.loc 1 127 1 is_stmt 1 view -0
 225              		.cfi_startproc
 226              		@ args = 0, pretend = 0, frame = 0
 227              		@ frame_needed = 0, uses_anonymous_args = 0
 127:Middlewares/LVGL/GUI/lvgl/src/misc/lv_ll.c ****     lv_ll_node_t * n_new;
 228              		.loc 1 127 1 is_stmt 0 view .LVU60
 229 0000 38B5     		push	{r3, r4, r5, lr}
 230              	.LCFI1:
 231              		.cfi_def_cfa_offset 16
 232              		.cfi_offset 3, -16
 233              		.cfi_offset 4, -12
 234              		.cfi_offset 5, -8
 235              		.cfi_offset 14, -4
 236 0002 0446     		mov	r4, r0
 128:Middlewares/LVGL/GUI/lvgl/src/misc/lv_ll.c **** 
 237              		.loc 1 128 5 is_stmt 1 view .LVU61
 130:Middlewares/LVGL/GUI/lvgl/src/misc/lv_ll.c **** 
 238              		.loc 1 130 5 view .LVU62
 130:Middlewares/LVGL/GUI/lvgl/src/misc/lv_ll.c **** 
 239              		.loc 1 130 30 is_stmt 0 view .LVU63
 240 0004 0068     		ldr	r0, [r0]
 241              	.LVL20:
 130:Middlewares/LVGL/GUI/lvgl/src/misc/lv_ll.c **** 
 242              		.loc 1 130 13 view .LVU64
 243 0006 0830     		adds	r0, r0, #8
ARM GAS  C:\Users\ADMINI~1\AppData\Local\Temp\cc6YE4sa.s 			page 13


 244 0008 FFF7FEFF 		bl	lv_mem_alloc
 245              	.LVL21:
 132:Middlewares/LVGL/GUI/lvgl/src/misc/lv_ll.c ****         node_set_next(ll_p, n_new, NULL);       /*No next after the new tail*/
 246              		.loc 1 132 5 is_stmt 1 view .LVU65
 132:Middlewares/LVGL/GUI/lvgl/src/misc/lv_ll.c ****         node_set_next(ll_p, n_new, NULL);       /*No next after the new tail*/
 247              		.loc 1 132 7 is_stmt 0 view .LVU66
 248 000c 0546     		mov	r5, r0
 249 000e 90B1     		cbz	r0, .L11
 133:Middlewares/LVGL/GUI/lvgl/src/misc/lv_ll.c ****         node_set_prev(ll_p, n_new, ll_p->tail); /*The prev. before new is the old tail*/
 250              		.loc 1 133 9 is_stmt 1 view .LVU67
 251 0010 0022     		movs	r2, #0
 252 0012 0146     		mov	r1, r0
 253 0014 2046     		mov	r0, r4
 254              	.LVL22:
 133:Middlewares/LVGL/GUI/lvgl/src/misc/lv_ll.c ****         node_set_prev(ll_p, n_new, ll_p->tail); /*The prev. before new is the old tail*/
 255              		.loc 1 133 9 is_stmt 0 view .LVU68
 256 0016 FFF7FEFF 		bl	node_set_next
 257              	.LVL23:
 134:Middlewares/LVGL/GUI/lvgl/src/misc/lv_ll.c ****         if(ll_p->tail != NULL) {                /*If there is old tail then the new comes after it*
 258              		.loc 1 134 9 is_stmt 1 view .LVU69
 259 001a A268     		ldr	r2, [r4, #8]
 260 001c 2946     		mov	r1, r5
 261 001e 2046     		mov	r0, r4
 262 0020 FFF7FEFF 		bl	node_set_prev
 263              	.LVL24:
 135:Middlewares/LVGL/GUI/lvgl/src/misc/lv_ll.c ****             node_set_next(ll_p, ll_p->tail, n_new);
 264              		.loc 1 135 9 view .LVU70
 135:Middlewares/LVGL/GUI/lvgl/src/misc/lv_ll.c ****             node_set_next(ll_p, ll_p->tail, n_new);
 265              		.loc 1 135 16 is_stmt 0 view .LVU71
 266 0024 A168     		ldr	r1, [r4, #8]
 135:Middlewares/LVGL/GUI/lvgl/src/misc/lv_ll.c ****             node_set_next(ll_p, ll_p->tail, n_new);
 267              		.loc 1 135 11 view .LVU72
 268 0026 19B1     		cbz	r1, .L13
 136:Middlewares/LVGL/GUI/lvgl/src/misc/lv_ll.c ****         }
 269              		.loc 1 136 13 is_stmt 1 view .LVU73
 270 0028 2A46     		mov	r2, r5
 271 002a 2046     		mov	r0, r4
 272 002c FFF7FEFF 		bl	node_set_next
 273              	.LVL25:
 274              	.L13:
 139:Middlewares/LVGL/GUI/lvgl/src/misc/lv_ll.c ****         if(ll_p->head == NULL) { /*If there is no head (1. node) set the head too*/
 275              		.loc 1 139 9 view .LVU74
 139:Middlewares/LVGL/GUI/lvgl/src/misc/lv_ll.c ****         if(ll_p->head == NULL) { /*If there is no head (1. node) set the head too*/
 276              		.loc 1 139 20 is_stmt 0 view .LVU75
 277 0030 A560     		str	r5, [r4, #8]
 140:Middlewares/LVGL/GUI/lvgl/src/misc/lv_ll.c ****             ll_p->head = n_new;
 278              		.loc 1 140 9 is_stmt 1 view .LVU76
 140:Middlewares/LVGL/GUI/lvgl/src/misc/lv_ll.c ****             ll_p->head = n_new;
 279              		.loc 1 140 16 is_stmt 0 view .LVU77
 280 0032 6368     		ldr	r3, [r4, #4]
 140:Middlewares/LVGL/GUI/lvgl/src/misc/lv_ll.c ****             ll_p->head = n_new;
 281              		.loc 1 140 11 view .LVU78
 282 0034 0BB1     		cbz	r3, .L15
 283              	.L11:
 146:Middlewares/LVGL/GUI/lvgl/src/misc/lv_ll.c **** 
 284              		.loc 1 146 1 view .LVU79
 285 0036 2846     		mov	r0, r5
ARM GAS  C:\Users\ADMINI~1\AppData\Local\Temp\cc6YE4sa.s 			page 14


 286 0038 38BD     		pop	{r3, r4, r5, pc}
 287              	.LVL26:
 288              	.L15:
 141:Middlewares/LVGL/GUI/lvgl/src/misc/lv_ll.c ****         }
 289              		.loc 1 141 13 is_stmt 1 view .LVU80
 141:Middlewares/LVGL/GUI/lvgl/src/misc/lv_ll.c ****         }
 290              		.loc 1 141 24 is_stmt 0 view .LVU81
 291 003a 6560     		str	r5, [r4, #4]
 145:Middlewares/LVGL/GUI/lvgl/src/misc/lv_ll.c **** }
 292              		.loc 1 145 5 is_stmt 1 view .LVU82
 145:Middlewares/LVGL/GUI/lvgl/src/misc/lv_ll.c **** }
 293              		.loc 1 145 12 is_stmt 0 view .LVU83
 294 003c FBE7     		b	.L11
 295              		.cfi_endproc
 296              	.LFE4:
 298              		.section	.text._lv_ll_get_head,"ax",%progbits
 299              		.align	1
 300              		.global	_lv_ll_get_head
 301              		.syntax unified
 302              		.thumb
 303              		.thumb_func
 305              	_lv_ll_get_head:
 306              	.LVL27:
 307              	.LFB8:
 257:Middlewares/LVGL/GUI/lvgl/src/misc/lv_ll.c ****     if(ll_p == NULL) return NULL;
 308              		.loc 1 257 1 is_stmt 1 view -0
 309              		.cfi_startproc
 310              		@ args = 0, pretend = 0, frame = 0
 311              		@ frame_needed = 0, uses_anonymous_args = 0
 312              		@ link register save eliminated.
 258:Middlewares/LVGL/GUI/lvgl/src/misc/lv_ll.c ****     return ll_p->head;
 313              		.loc 1 258 5 view .LVU85
 258:Middlewares/LVGL/GUI/lvgl/src/misc/lv_ll.c ****     return ll_p->head;
 314              		.loc 1 258 7 is_stmt 0 view .LVU86
 315 0000 08B1     		cbz	r0, .L18
 259:Middlewares/LVGL/GUI/lvgl/src/misc/lv_ll.c **** }
 316              		.loc 1 259 5 is_stmt 1 view .LVU87
 259:Middlewares/LVGL/GUI/lvgl/src/misc/lv_ll.c **** }
 317              		.loc 1 259 16 is_stmt 0 view .LVU88
 318 0002 4068     		ldr	r0, [r0, #4]
 319              	.LVL28:
 259:Middlewares/LVGL/GUI/lvgl/src/misc/lv_ll.c **** }
 320              		.loc 1 259 16 view .LVU89
 321 0004 7047     		bx	lr
 322              	.LVL29:
 323              	.L18:
 260:Middlewares/LVGL/GUI/lvgl/src/misc/lv_ll.c **** 
 324              		.loc 1 260 1 view .LVU90
 325 0006 7047     		bx	lr
 326              		.cfi_endproc
 327              	.LFE8:
 329              		.section	.text._lv_ll_get_tail,"ax",%progbits
 330              		.align	1
 331              		.global	_lv_ll_get_tail
 332              		.syntax unified
 333              		.thumb
 334              		.thumb_func
ARM GAS  C:\Users\ADMINI~1\AppData\Local\Temp\cc6YE4sa.s 			page 15


 336              	_lv_ll_get_tail:
 337              	.LVL30:
 338              	.LFB9:
 268:Middlewares/LVGL/GUI/lvgl/src/misc/lv_ll.c ****     if(ll_p == NULL) return NULL;
 339              		.loc 1 268 1 is_stmt 1 view -0
 340              		.cfi_startproc
 341              		@ args = 0, pretend = 0, frame = 0
 342              		@ frame_needed = 0, uses_anonymous_args = 0
 343              		@ link register save eliminated.
 269:Middlewares/LVGL/GUI/lvgl/src/misc/lv_ll.c ****     return ll_p->tail;
 344              		.loc 1 269 5 view .LVU92
 269:Middlewares/LVGL/GUI/lvgl/src/misc/lv_ll.c ****     return ll_p->tail;
 345              		.loc 1 269 7 is_stmt 0 view .LVU93
 346 0000 08B1     		cbz	r0, .L21
 270:Middlewares/LVGL/GUI/lvgl/src/misc/lv_ll.c **** }
 347              		.loc 1 270 5 is_stmt 1 view .LVU94
 270:Middlewares/LVGL/GUI/lvgl/src/misc/lv_ll.c **** }
 348              		.loc 1 270 16 is_stmt 0 view .LVU95
 349 0002 8068     		ldr	r0, [r0, #8]
 350              	.LVL31:
 270:Middlewares/LVGL/GUI/lvgl/src/misc/lv_ll.c **** }
 351              		.loc 1 270 16 view .LVU96
 352 0004 7047     		bx	lr
 353              	.LVL32:
 354              	.L21:
 271:Middlewares/LVGL/GUI/lvgl/src/misc/lv_ll.c **** 
 355              		.loc 1 271 1 view .LVU97
 356 0006 7047     		bx	lr
 357              		.cfi_endproc
 358              	.LFE9:
 360              		.section	.text._lv_ll_get_next,"ax",%progbits
 361              		.align	1
 362              		.global	_lv_ll_get_next
 363              		.syntax unified
 364              		.thumb
 365              		.thumb_func
 367              	_lv_ll_get_next:
 368              	.LVL33:
 369              	.LFB10:
 280:Middlewares/LVGL/GUI/lvgl/src/misc/lv_ll.c ****     /*Pointer to the next node is stored in the end of this node.
 370              		.loc 1 280 1 is_stmt 1 view -0
 371              		.cfi_startproc
 372              		@ args = 0, pretend = 0, frame = 0
 373              		@ frame_needed = 0, uses_anonymous_args = 0
 374              		@ link register save eliminated.
 283:Middlewares/LVGL/GUI/lvgl/src/misc/lv_ll.c ****     n_act_d += LL_NEXT_P_OFFSET(ll_p);
 375              		.loc 1 283 5 view .LVU99
 284:Middlewares/LVGL/GUI/lvgl/src/misc/lv_ll.c ****     return *((lv_ll_node_t **)n_act_d);
 376              		.loc 1 284 5 view .LVU100
 284:Middlewares/LVGL/GUI/lvgl/src/misc/lv_ll.c ****     return *((lv_ll_node_t **)n_act_d);
 377              		.loc 1 284 16 is_stmt 0 view .LVU101
 378 0000 0368     		ldr	r3, [r0]
 284:Middlewares/LVGL/GUI/lvgl/src/misc/lv_ll.c ****     return *((lv_ll_node_t **)n_act_d);
 379              		.loc 1 284 13 view .LVU102
 380 0002 0433     		adds	r3, r3, #4
 381              	.LVL34:
 285:Middlewares/LVGL/GUI/lvgl/src/misc/lv_ll.c **** }
ARM GAS  C:\Users\ADMINI~1\AppData\Local\Temp\cc6YE4sa.s 			page 16


 382              		.loc 1 285 5 is_stmt 1 view .LVU103
 286:Middlewares/LVGL/GUI/lvgl/src/misc/lv_ll.c **** 
 383              		.loc 1 286 1 is_stmt 0 view .LVU104
 384 0004 C858     		ldr	r0, [r1, r3]
 385              	.LVL35:
 286:Middlewares/LVGL/GUI/lvgl/src/misc/lv_ll.c **** 
 386              		.loc 1 286 1 view .LVU105
 387 0006 7047     		bx	lr
 388              		.cfi_endproc
 389              	.LFE10:
 391              		.section	.text._lv_ll_get_prev,"ax",%progbits
 392              		.align	1
 393              		.global	_lv_ll_get_prev
 394              		.syntax unified
 395              		.thumb
 396              		.thumb_func
 398              	_lv_ll_get_prev:
 399              	.LVL36:
 400              	.LFB11:
 295:Middlewares/LVGL/GUI/lvgl/src/misc/lv_ll.c ****     /*Pointer to the prev. node is stored in the end of this node.
 401              		.loc 1 295 1 is_stmt 1 view -0
 402              		.cfi_startproc
 403              		@ args = 0, pretend = 0, frame = 0
 404              		@ frame_needed = 0, uses_anonymous_args = 0
 405              		@ link register save eliminated.
 298:Middlewares/LVGL/GUI/lvgl/src/misc/lv_ll.c ****     n_act_d += LL_PREV_P_OFFSET(ll_p);
 406              		.loc 1 298 5 view .LVU107
 299:Middlewares/LVGL/GUI/lvgl/src/misc/lv_ll.c ****     return *((lv_ll_node_t **)n_act_d);
 407              		.loc 1 299 5 view .LVU108
 299:Middlewares/LVGL/GUI/lvgl/src/misc/lv_ll.c ****     return *((lv_ll_node_t **)n_act_d);
 408              		.loc 1 299 16 is_stmt 0 view .LVU109
 409 0000 0368     		ldr	r3, [r0]
 410              	.LVL37:
 300:Middlewares/LVGL/GUI/lvgl/src/misc/lv_ll.c **** }
 411              		.loc 1 300 5 is_stmt 1 view .LVU110
 301:Middlewares/LVGL/GUI/lvgl/src/misc/lv_ll.c **** 
 412              		.loc 1 301 1 is_stmt 0 view .LVU111
 413 0002 C858     		ldr	r0, [r1, r3]
 414              	.LVL38:
 301:Middlewares/LVGL/GUI/lvgl/src/misc/lv_ll.c **** 
 415              		.loc 1 301 1 view .LVU112
 416 0004 7047     		bx	lr
 417              		.cfi_endproc
 418              	.LFE11:
 420              		.section	.text._lv_ll_ins_prev,"ax",%progbits
 421              		.align	1
 422              		.global	_lv_ll_ins_prev
 423              		.syntax unified
 424              		.thumb
 425              		.thumb_func
 427              	_lv_ll_ins_prev:
 428              	.LVL39:
 429              	.LFB3:
  97:Middlewares/LVGL/GUI/lvgl/src/misc/lv_ll.c ****     lv_ll_node_t * n_new;
 430              		.loc 1 97 1 is_stmt 1 view -0
 431              		.cfi_startproc
 432              		@ args = 0, pretend = 0, frame = 0
ARM GAS  C:\Users\ADMINI~1\AppData\Local\Temp\cc6YE4sa.s 			page 17


 433              		@ frame_needed = 0, uses_anonymous_args = 0
  97:Middlewares/LVGL/GUI/lvgl/src/misc/lv_ll.c ****     lv_ll_node_t * n_new;
 434              		.loc 1 97 1 is_stmt 0 view .LVU114
 435 0000 F8B5     		push	{r3, r4, r5, r6, r7, lr}
 436              	.LCFI2:
 437              		.cfi_def_cfa_offset 24
 438              		.cfi_offset 3, -24
 439              		.cfi_offset 4, -20
 440              		.cfi_offset 5, -16
 441              		.cfi_offset 6, -12
 442              		.cfi_offset 7, -8
 443              		.cfi_offset 14, -4
  98:Middlewares/LVGL/GUI/lvgl/src/misc/lv_ll.c **** 
 444              		.loc 1 98 5 is_stmt 1 view .LVU115
 100:Middlewares/LVGL/GUI/lvgl/src/misc/lv_ll.c **** 
 445              		.loc 1 100 5 view .LVU116
 100:Middlewares/LVGL/GUI/lvgl/src/misc/lv_ll.c **** 
 446              		.loc 1 100 7 is_stmt 0 view .LVU117
 447 0002 0746     		mov	r7, r0
 448 0004 58B3     		cbz	r0, .L27
 449 0006 0C46     		mov	r4, r1
 100:Middlewares/LVGL/GUI/lvgl/src/misc/lv_ll.c **** 
 450              		.loc 1 100 21 discriminator 2 view .LVU118
 451 0008 59B3     		cbz	r1, .L28
 102:Middlewares/LVGL/GUI/lvgl/src/misc/lv_ll.c ****         n_new = _lv_ll_ins_head(ll_p);
 452              		.loc 1 102 5 is_stmt 1 view .LVU119
 102:Middlewares/LVGL/GUI/lvgl/src/misc/lv_ll.c ****         n_new = _lv_ll_ins_head(ll_p);
 453              		.loc 1 102 8 is_stmt 0 view .LVU120
 454 000a FFF7FEFF 		bl	_lv_ll_get_head
 455              	.LVL40:
 102:Middlewares/LVGL/GUI/lvgl/src/misc/lv_ll.c ****         n_new = _lv_ll_ins_head(ll_p);
 456              		.loc 1 102 7 view .LVU121
 457 000e 8442     		cmp	r4, r0
 458 0010 20D0     		beq	.L30
 459              	.LBB2:
 107:Middlewares/LVGL/GUI/lvgl/src/misc/lv_ll.c ****         if(n_new == NULL) return NULL;
 460              		.loc 1 107 9 is_stmt 1 view .LVU122
 107:Middlewares/LVGL/GUI/lvgl/src/misc/lv_ll.c ****         if(n_new == NULL) return NULL;
 461              		.loc 1 107 34 is_stmt 0 view .LVU123
 462 0012 3868     		ldr	r0, [r7]
 107:Middlewares/LVGL/GUI/lvgl/src/misc/lv_ll.c ****         if(n_new == NULL) return NULL;
 463              		.loc 1 107 17 view .LVU124
 464 0014 0830     		adds	r0, r0, #8
 465 0016 FFF7FEFF 		bl	lv_mem_alloc
 466              	.LVL41:
 108:Middlewares/LVGL/GUI/lvgl/src/misc/lv_ll.c **** 
 467              		.loc 1 108 9 is_stmt 1 view .LVU125
 108:Middlewares/LVGL/GUI/lvgl/src/misc/lv_ll.c **** 
 468              		.loc 1 108 11 is_stmt 0 view .LVU126
 469 001a 0546     		mov	r5, r0
 470 001c C0B1     		cbz	r0, .L24
 110:Middlewares/LVGL/GUI/lvgl/src/misc/lv_ll.c ****         n_prev = _lv_ll_get_prev(ll_p, n_act);
 471              		.loc 1 110 9 is_stmt 1 view .LVU127
 111:Middlewares/LVGL/GUI/lvgl/src/misc/lv_ll.c ****         node_set_next(ll_p, n_prev, n_new);
 472              		.loc 1 111 9 view .LVU128
 111:Middlewares/LVGL/GUI/lvgl/src/misc/lv_ll.c ****         node_set_next(ll_p, n_prev, n_new);
 473              		.loc 1 111 18 is_stmt 0 view .LVU129
ARM GAS  C:\Users\ADMINI~1\AppData\Local\Temp\cc6YE4sa.s 			page 18


 474 001e 2146     		mov	r1, r4
 475 0020 3846     		mov	r0, r7
 476              	.LVL42:
 111:Middlewares/LVGL/GUI/lvgl/src/misc/lv_ll.c ****         node_set_next(ll_p, n_prev, n_new);
 477              		.loc 1 111 18 view .LVU130
 478 0022 FFF7FEFF 		bl	_lv_ll_get_prev
 479              	.LVL43:
 480 0026 0646     		mov	r6, r0
 481              	.LVL44:
 112:Middlewares/LVGL/GUI/lvgl/src/misc/lv_ll.c ****         node_set_prev(ll_p, n_new, n_prev);
 482              		.loc 1 112 9 is_stmt 1 view .LVU131
 483 0028 2A46     		mov	r2, r5
 484 002a 0146     		mov	r1, r0
 485 002c 3846     		mov	r0, r7
 486              	.LVL45:
 112:Middlewares/LVGL/GUI/lvgl/src/misc/lv_ll.c ****         node_set_prev(ll_p, n_new, n_prev);
 487              		.loc 1 112 9 is_stmt 0 view .LVU132
 488 002e FFF7FEFF 		bl	node_set_next
 489              	.LVL46:
 113:Middlewares/LVGL/GUI/lvgl/src/misc/lv_ll.c ****         node_set_prev(ll_p, n_act, n_new);
 490              		.loc 1 113 9 is_stmt 1 view .LVU133
 491 0032 3246     		mov	r2, r6
 492 0034 2946     		mov	r1, r5
 493 0036 3846     		mov	r0, r7
 494 0038 FFF7FEFF 		bl	node_set_prev
 495              	.LVL47:
 114:Middlewares/LVGL/GUI/lvgl/src/misc/lv_ll.c ****         node_set_next(ll_p, n_new, n_act);
 496              		.loc 1 114 9 view .LVU134
 497 003c 2A46     		mov	r2, r5
 498 003e 2146     		mov	r1, r4
 499 0040 3846     		mov	r0, r7
 500 0042 FFF7FEFF 		bl	node_set_prev
 501              	.LVL48:
 115:Middlewares/LVGL/GUI/lvgl/src/misc/lv_ll.c ****     }
 502              		.loc 1 115 9 view .LVU135
 503 0046 2246     		mov	r2, r4
 504 0048 2946     		mov	r1, r5
 505 004a 3846     		mov	r0, r7
 506 004c FFF7FEFF 		bl	node_set_next
 507              	.LVL49:
 508              	.L24:
 115:Middlewares/LVGL/GUI/lvgl/src/misc/lv_ll.c ****     }
 509              		.loc 1 115 9 is_stmt 0 view .LVU136
 510              	.LBE2:
 119:Middlewares/LVGL/GUI/lvgl/src/misc/lv_ll.c **** 
 511              		.loc 1 119 1 view .LVU137
 512 0050 2846     		mov	r0, r5
 513 0052 F8BD     		pop	{r3, r4, r5, r6, r7, pc}
 514              	.LVL50:
 515              	.L30:
 103:Middlewares/LVGL/GUI/lvgl/src/misc/lv_ll.c ****         if(n_new == NULL) return NULL;
 516              		.loc 1 103 9 is_stmt 1 view .LVU138
 103:Middlewares/LVGL/GUI/lvgl/src/misc/lv_ll.c ****         if(n_new == NULL) return NULL;
 517              		.loc 1 103 17 is_stmt 0 view .LVU139
 518 0054 3846     		mov	r0, r7
 519 0056 FFF7FEFF 		bl	_lv_ll_ins_head
 520              	.LVL51:
ARM GAS  C:\Users\ADMINI~1\AppData\Local\Temp\cc6YE4sa.s 			page 19


 521 005a 0546     		mov	r5, r0
 522              	.LVL52:
 104:Middlewares/LVGL/GUI/lvgl/src/misc/lv_ll.c ****     }
 523              		.loc 1 104 9 is_stmt 1 view .LVU140
 524 005c F8E7     		b	.L24
 525              	.LVL53:
 526              	.L27:
 100:Middlewares/LVGL/GUI/lvgl/src/misc/lv_ll.c **** 
 527              		.loc 1 100 46 is_stmt 0 view .LVU141
 528 005e 0546     		mov	r5, r0
 529 0060 F6E7     		b	.L24
 530              	.L28:
 100:Middlewares/LVGL/GUI/lvgl/src/misc/lv_ll.c **** 
 531              		.loc 1 100 46 view .LVU142
 532 0062 0D46     		mov	r5, r1
 533 0064 F4E7     		b	.L24
 534              		.cfi_endproc
 535              	.LFE3:
 537              		.section	.text._lv_ll_remove,"ax",%progbits
 538              		.align	1
 539              		.global	_lv_ll_remove
 540              		.syntax unified
 541              		.thumb
 542              		.thumb_func
 544              	_lv_ll_remove:
 545              	.LVL54:
 546              	.LFB5:
 155:Middlewares/LVGL/GUI/lvgl/src/misc/lv_ll.c ****     if(ll_p == NULL) return;
 547              		.loc 1 155 1 is_stmt 1 view -0
 548              		.cfi_startproc
 549              		@ args = 0, pretend = 0, frame = 0
 550              		@ frame_needed = 0, uses_anonymous_args = 0
 156:Middlewares/LVGL/GUI/lvgl/src/misc/lv_ll.c **** 
 551              		.loc 1 156 5 view .LVU144
 156:Middlewares/LVGL/GUI/lvgl/src/misc/lv_ll.c **** 
 552              		.loc 1 156 7 is_stmt 0 view .LVU145
 553 0000 0028     		cmp	r0, #0
 554 0002 3ED0     		beq	.L38
 155:Middlewares/LVGL/GUI/lvgl/src/misc/lv_ll.c ****     if(ll_p == NULL) return;
 555              		.loc 1 155 1 view .LVU146
 556 0004 70B5     		push	{r4, r5, r6, lr}
 557              	.LCFI3:
 558              		.cfi_def_cfa_offset 16
 559              		.cfi_offset 4, -16
 560              		.cfi_offset 5, -12
 561              		.cfi_offset 6, -8
 562              		.cfi_offset 14, -4
 563 0006 0C46     		mov	r4, r1
 564 0008 0546     		mov	r5, r0
 158:Middlewares/LVGL/GUI/lvgl/src/misc/lv_ll.c ****         /*The new head will be the node after 'n_act'*/
 565              		.loc 1 158 5 is_stmt 1 view .LVU147
 158:Middlewares/LVGL/GUI/lvgl/src/misc/lv_ll.c ****         /*The new head will be the node after 'n_act'*/
 566              		.loc 1 158 8 is_stmt 0 view .LVU148
 567 000a FFF7FEFF 		bl	_lv_ll_get_head
 568              	.LVL55:
 158:Middlewares/LVGL/GUI/lvgl/src/misc/lv_ll.c ****         /*The new head will be the node after 'n_act'*/
 569              		.loc 1 158 7 view .LVU149
ARM GAS  C:\Users\ADMINI~1\AppData\Local\Temp\cc6YE4sa.s 			page 20


 570 000e 8442     		cmp	r4, r0
 571 0010 19D0     		beq	.L41
 168:Middlewares/LVGL/GUI/lvgl/src/misc/lv_ll.c ****         /*The new tail will be the node before 'n_act'*/
 572              		.loc 1 168 10 is_stmt 1 view .LVU150
 168:Middlewares/LVGL/GUI/lvgl/src/misc/lv_ll.c ****         /*The new tail will be the node before 'n_act'*/
 573              		.loc 1 168 13 is_stmt 0 view .LVU151
 574 0012 2846     		mov	r0, r5
 575 0014 FFF7FEFF 		bl	_lv_ll_get_tail
 576              	.LVL56:
 168:Middlewares/LVGL/GUI/lvgl/src/misc/lv_ll.c ****         /*The new tail will be the node before 'n_act'*/
 577              		.loc 1 168 12 view .LVU152
 578 0018 8442     		cmp	r4, r0
 579 001a 23D0     		beq	.L42
 580              	.LBB3:
 179:Middlewares/LVGL/GUI/lvgl/src/misc/lv_ll.c ****         lv_ll_node_t * n_next = _lv_ll_get_next(ll_p, node_p);
 581              		.loc 1 179 9 is_stmt 1 view .LVU153
 179:Middlewares/LVGL/GUI/lvgl/src/misc/lv_ll.c ****         lv_ll_node_t * n_next = _lv_ll_get_next(ll_p, node_p);
 582              		.loc 1 179 33 is_stmt 0 view .LVU154
 583 001c 2146     		mov	r1, r4
 584 001e 2846     		mov	r0, r5
 585 0020 FFF7FEFF 		bl	_lv_ll_get_prev
 586              	.LVL57:
 587 0024 0646     		mov	r6, r0
 588              	.LVL58:
 180:Middlewares/LVGL/GUI/lvgl/src/misc/lv_ll.c **** 
 589              		.loc 1 180 9 is_stmt 1 view .LVU155
 180:Middlewares/LVGL/GUI/lvgl/src/misc/lv_ll.c **** 
 590              		.loc 1 180 33 is_stmt 0 view .LVU156
 591 0026 2146     		mov	r1, r4
 592 0028 2846     		mov	r0, r5
 593              	.LVL59:
 180:Middlewares/LVGL/GUI/lvgl/src/misc/lv_ll.c **** 
 594              		.loc 1 180 33 view .LVU157
 595 002a FFF7FEFF 		bl	_lv_ll_get_next
 596              	.LVL60:
 597 002e 0446     		mov	r4, r0
 598              	.LVL61:
 182:Middlewares/LVGL/GUI/lvgl/src/misc/lv_ll.c ****         node_set_prev(ll_p, n_next, n_prev);
 599              		.loc 1 182 9 is_stmt 1 view .LVU158
 600 0030 0246     		mov	r2, r0
 601 0032 3146     		mov	r1, r6
 602 0034 2846     		mov	r0, r5
 603              	.LVL62:
 182:Middlewares/LVGL/GUI/lvgl/src/misc/lv_ll.c ****         node_set_prev(ll_p, n_next, n_prev);
 604              		.loc 1 182 9 is_stmt 0 view .LVU159
 605 0036 FFF7FEFF 		bl	node_set_next
 606              	.LVL63:
 183:Middlewares/LVGL/GUI/lvgl/src/misc/lv_ll.c ****     }
 607              		.loc 1 183 9 is_stmt 1 view .LVU160
 608 003a 3246     		mov	r2, r6
 609 003c 2146     		mov	r1, r4
 610 003e 2846     		mov	r0, r5
 611 0040 FFF7FEFF 		bl	node_set_prev
 612              	.LVL64:
 613              	.L31:
 183:Middlewares/LVGL/GUI/lvgl/src/misc/lv_ll.c ****     }
 614              		.loc 1 183 9 is_stmt 0 view .LVU161
ARM GAS  C:\Users\ADMINI~1\AppData\Local\Temp\cc6YE4sa.s 			page 21


 615              	.LBE3:
 185:Middlewares/LVGL/GUI/lvgl/src/misc/lv_ll.c **** 
 616              		.loc 1 185 1 view .LVU162
 617 0044 70BD     		pop	{r4, r5, r6, pc}
 618              	.LVL65:
 619              	.L41:
 160:Middlewares/LVGL/GUI/lvgl/src/misc/lv_ll.c ****         if(ll_p->head == NULL) {
 620              		.loc 1 160 9 is_stmt 1 view .LVU163
 160:Middlewares/LVGL/GUI/lvgl/src/misc/lv_ll.c ****         if(ll_p->head == NULL) {
 621              		.loc 1 160 22 is_stmt 0 view .LVU164
 622 0046 2146     		mov	r1, r4
 623 0048 2846     		mov	r0, r5
 624 004a FFF7FEFF 		bl	_lv_ll_get_next
 625              	.LVL66:
 626 004e 0146     		mov	r1, r0
 160:Middlewares/LVGL/GUI/lvgl/src/misc/lv_ll.c ****         if(ll_p->head == NULL) {
 627              		.loc 1 160 20 view .LVU165
 628 0050 6860     		str	r0, [r5, #4]
 161:Middlewares/LVGL/GUI/lvgl/src/misc/lv_ll.c ****             ll_p->tail = NULL;
 629              		.loc 1 161 9 is_stmt 1 view .LVU166
 161:Middlewares/LVGL/GUI/lvgl/src/misc/lv_ll.c ****             ll_p->tail = NULL;
 630              		.loc 1 161 11 is_stmt 0 view .LVU167
 631 0052 20B1     		cbz	r0, .L43
 165:Middlewares/LVGL/GUI/lvgl/src/misc/lv_ll.c ****         }
 632              		.loc 1 165 13 is_stmt 1 view .LVU168
 633 0054 0022     		movs	r2, #0
 634 0056 2846     		mov	r0, r5
 635 0058 FFF7FEFF 		bl	node_set_prev
 636              	.LVL67:
 637 005c F2E7     		b	.L31
 638              	.L43:
 162:Middlewares/LVGL/GUI/lvgl/src/misc/lv_ll.c ****         }
 639              		.loc 1 162 13 view .LVU169
 162:Middlewares/LVGL/GUI/lvgl/src/misc/lv_ll.c ****         }
 640              		.loc 1 162 24 is_stmt 0 view .LVU170
 641 005e 0023     		movs	r3, #0
 642 0060 AB60     		str	r3, [r5, #8]
 643 0062 EFE7     		b	.L31
 644              	.L42:
 170:Middlewares/LVGL/GUI/lvgl/src/misc/lv_ll.c ****         if(ll_p->tail == NULL) {
 645              		.loc 1 170 9 is_stmt 1 view .LVU171
 170:Middlewares/LVGL/GUI/lvgl/src/misc/lv_ll.c ****         if(ll_p->tail == NULL) {
 646              		.loc 1 170 22 is_stmt 0 view .LVU172
 647 0064 2146     		mov	r1, r4
 648 0066 2846     		mov	r0, r5
 649 0068 FFF7FEFF 		bl	_lv_ll_get_prev
 650              	.LVL68:
 651 006c 0146     		mov	r1, r0
 170:Middlewares/LVGL/GUI/lvgl/src/misc/lv_ll.c ****         if(ll_p->tail == NULL) {
 652              		.loc 1 170 20 view .LVU173
 653 006e A860     		str	r0, [r5, #8]
 171:Middlewares/LVGL/GUI/lvgl/src/misc/lv_ll.c ****             ll_p->head = NULL;
 654              		.loc 1 171 9 is_stmt 1 view .LVU174
 171:Middlewares/LVGL/GUI/lvgl/src/misc/lv_ll.c ****             ll_p->head = NULL;
 655              		.loc 1 171 11 is_stmt 0 view .LVU175
 656 0070 20B1     		cbz	r0, .L44
 175:Middlewares/LVGL/GUI/lvgl/src/misc/lv_ll.c ****         }
ARM GAS  C:\Users\ADMINI~1\AppData\Local\Temp\cc6YE4sa.s 			page 22


 657              		.loc 1 175 13 is_stmt 1 view .LVU176
 658 0072 0022     		movs	r2, #0
 659 0074 2846     		mov	r0, r5
 660 0076 FFF7FEFF 		bl	node_set_next
 661              	.LVL69:
 662 007a E3E7     		b	.L31
 663              	.L44:
 172:Middlewares/LVGL/GUI/lvgl/src/misc/lv_ll.c ****         }
 664              		.loc 1 172 13 view .LVU177
 172:Middlewares/LVGL/GUI/lvgl/src/misc/lv_ll.c ****         }
 665              		.loc 1 172 24 is_stmt 0 view .LVU178
 666 007c 0023     		movs	r3, #0
 667 007e 6B60     		str	r3, [r5, #4]
 668 0080 E0E7     		b	.L31
 669              	.LVL70:
 670              	.L38:
 671              	.LCFI4:
 672              		.cfi_def_cfa_offset 0
 673              		.cfi_restore 4
 674              		.cfi_restore 5
 675              		.cfi_restore 6
 676              		.cfi_restore 14
 172:Middlewares/LVGL/GUI/lvgl/src/misc/lv_ll.c ****         }
 677              		.loc 1 172 24 view .LVU179
 678 0082 7047     		bx	lr
 679              		.cfi_endproc
 680              	.LFE5:
 682              		.section	.text._lv_ll_clear,"ax",%progbits
 683              		.align	1
 684              		.global	_lv_ll_clear
 685              		.syntax unified
 686              		.thumb
 687              		.thumb_func
 689              	_lv_ll_clear:
 690              	.LVL71:
 691              	.LFB6:
 192:Middlewares/LVGL/GUI/lvgl/src/misc/lv_ll.c ****     void * i;
 692              		.loc 1 192 1 is_stmt 1 view -0
 693              		.cfi_startproc
 694              		@ args = 0, pretend = 0, frame = 0
 695              		@ frame_needed = 0, uses_anonymous_args = 0
 192:Middlewares/LVGL/GUI/lvgl/src/misc/lv_ll.c ****     void * i;
 696              		.loc 1 192 1 is_stmt 0 view .LVU181
 697 0000 70B5     		push	{r4, r5, r6, lr}
 698              	.LCFI5:
 699              		.cfi_def_cfa_offset 16
 700              		.cfi_offset 4, -16
 701              		.cfi_offset 5, -12
 702              		.cfi_offset 6, -8
 703              		.cfi_offset 14, -4
 704 0002 0646     		mov	r6, r0
 193:Middlewares/LVGL/GUI/lvgl/src/misc/lv_ll.c ****     void * i_next;
 705              		.loc 1 193 5 is_stmt 1 view .LVU182
 194:Middlewares/LVGL/GUI/lvgl/src/misc/lv_ll.c **** 
 706              		.loc 1 194 5 view .LVU183
 196:Middlewares/LVGL/GUI/lvgl/src/misc/lv_ll.c ****     i_next = NULL;
 707              		.loc 1 196 5 view .LVU184
ARM GAS  C:\Users\ADMINI~1\AppData\Local\Temp\cc6YE4sa.s 			page 23


 196:Middlewares/LVGL/GUI/lvgl/src/misc/lv_ll.c ****     i_next = NULL;
 708              		.loc 1 196 14 is_stmt 0 view .LVU185
 709 0004 FFF7FEFF 		bl	_lv_ll_get_head
 710              	.LVL72:
 196:Middlewares/LVGL/GUI/lvgl/src/misc/lv_ll.c ****     i_next = NULL;
 711              		.loc 1 196 14 view .LVU186
 712 0008 0446     		mov	r4, r0
 713              	.LVL73:
 197:Middlewares/LVGL/GUI/lvgl/src/misc/lv_ll.c **** 
 714              		.loc 1 197 5 is_stmt 1 view .LVU187
 199:Middlewares/LVGL/GUI/lvgl/src/misc/lv_ll.c ****         i_next = _lv_ll_get_next(ll_p, i);
 715              		.loc 1 199 5 view .LVU188
 199:Middlewares/LVGL/GUI/lvgl/src/misc/lv_ll.c ****         i_next = _lv_ll_get_next(ll_p, i);
 716              		.loc 1 199 10 is_stmt 0 view .LVU189
 717 000a 0CE0     		b	.L46
 718              	.LVL74:
 719              	.L47:
 200:Middlewares/LVGL/GUI/lvgl/src/misc/lv_ll.c **** 
 720              		.loc 1 200 9 is_stmt 1 view .LVU190
 200:Middlewares/LVGL/GUI/lvgl/src/misc/lv_ll.c **** 
 721              		.loc 1 200 18 is_stmt 0 view .LVU191
 722 000c 2146     		mov	r1, r4
 723 000e 3046     		mov	r0, r6
 724 0010 FFF7FEFF 		bl	_lv_ll_get_next
 725              	.LVL75:
 726 0014 0546     		mov	r5, r0
 727              	.LVL76:
 202:Middlewares/LVGL/GUI/lvgl/src/misc/lv_ll.c ****         lv_mem_free(i);
 728              		.loc 1 202 9 is_stmt 1 view .LVU192
 729 0016 2146     		mov	r1, r4
 730 0018 3046     		mov	r0, r6
 731              	.LVL77:
 202:Middlewares/LVGL/GUI/lvgl/src/misc/lv_ll.c ****         lv_mem_free(i);
 732              		.loc 1 202 9 is_stmt 0 view .LVU193
 733 001a FFF7FEFF 		bl	_lv_ll_remove
 734              	.LVL78:
 203:Middlewares/LVGL/GUI/lvgl/src/misc/lv_ll.c **** 
 735              		.loc 1 203 9 is_stmt 1 view .LVU194
 736 001e 2046     		mov	r0, r4
 737 0020 FFF7FEFF 		bl	lv_mem_free
 738              	.LVL79:
 205:Middlewares/LVGL/GUI/lvgl/src/misc/lv_ll.c ****     }
 739              		.loc 1 205 9 view .LVU195
 205:Middlewares/LVGL/GUI/lvgl/src/misc/lv_ll.c ****     }
 740              		.loc 1 205 11 is_stmt 0 view .LVU196
 741 0024 2C46     		mov	r4, r5
 742              	.LVL80:
 743              	.L46:
 199:Middlewares/LVGL/GUI/lvgl/src/misc/lv_ll.c ****         i_next = _lv_ll_get_next(ll_p, i);
 744              		.loc 1 199 10 is_stmt 1 view .LVU197
 745 0026 002C     		cmp	r4, #0
 746 0028 F0D1     		bne	.L47
 207:Middlewares/LVGL/GUI/lvgl/src/misc/lv_ll.c **** 
 747              		.loc 1 207 1 is_stmt 0 view .LVU198
 748 002a 70BD     		pop	{r4, r5, r6, pc}
 207:Middlewares/LVGL/GUI/lvgl/src/misc/lv_ll.c **** 
 749              		.loc 1 207 1 view .LVU199
ARM GAS  C:\Users\ADMINI~1\AppData\Local\Temp\cc6YE4sa.s 			page 24


 750              		.cfi_endproc
 751              	.LFE6:
 753              		.section	.text._lv_ll_chg_list,"ax",%progbits
 754              		.align	1
 755              		.global	_lv_ll_chg_list
 756              		.syntax unified
 757              		.thumb
 758              		.thumb_func
 760              	_lv_ll_chg_list:
 761              	.LVL81:
 762              	.LFB7:
 218:Middlewares/LVGL/GUI/lvgl/src/misc/lv_ll.c ****     _lv_ll_remove(ll_ori_p, node);
 763              		.loc 1 218 1 is_stmt 1 view -0
 764              		.cfi_startproc
 765              		@ args = 0, pretend = 0, frame = 0
 766              		@ frame_needed = 0, uses_anonymous_args = 0
 218:Middlewares/LVGL/GUI/lvgl/src/misc/lv_ll.c ****     _lv_ll_remove(ll_ori_p, node);
 767              		.loc 1 218 1 is_stmt 0 view .LVU201
 768 0000 70B5     		push	{r4, r5, r6, lr}
 769              	.LCFI6:
 770              		.cfi_def_cfa_offset 16
 771              		.cfi_offset 4, -16
 772              		.cfi_offset 5, -12
 773              		.cfi_offset 6, -8
 774              		.cfi_offset 14, -4
 775 0002 0C46     		mov	r4, r1
 776 0004 1546     		mov	r5, r2
 777 0006 1E46     		mov	r6, r3
 219:Middlewares/LVGL/GUI/lvgl/src/misc/lv_ll.c **** 
 778              		.loc 1 219 5 is_stmt 1 view .LVU202
 779 0008 1146     		mov	r1, r2
 780              	.LVL82:
 219:Middlewares/LVGL/GUI/lvgl/src/misc/lv_ll.c **** 
 781              		.loc 1 219 5 is_stmt 0 view .LVU203
 782 000a FFF7FEFF 		bl	_lv_ll_remove
 783              	.LVL83:
 221:Middlewares/LVGL/GUI/lvgl/src/misc/lv_ll.c ****         /*Set node as head*/
 784              		.loc 1 221 5 is_stmt 1 view .LVU204
 221:Middlewares/LVGL/GUI/lvgl/src/misc/lv_ll.c ****         /*Set node as head*/
 785              		.loc 1 221 7 is_stmt 0 view .LVU205
 786 000e AEB1     		cbz	r6, .L50
 223:Middlewares/LVGL/GUI/lvgl/src/misc/lv_ll.c ****         node_set_next(ll_new_p, node, ll_new_p->head);
 787              		.loc 1 223 9 is_stmt 1 view .LVU206
 788 0010 0022     		movs	r2, #0
 789 0012 2946     		mov	r1, r5
 790 0014 2046     		mov	r0, r4
 791 0016 FFF7FEFF 		bl	node_set_prev
 792              	.LVL84:
 224:Middlewares/LVGL/GUI/lvgl/src/misc/lv_ll.c **** 
 793              		.loc 1 224 9 view .LVU207
 794 001a 6268     		ldr	r2, [r4, #4]
 795 001c 2946     		mov	r1, r5
 796 001e 2046     		mov	r0, r4
 797 0020 FFF7FEFF 		bl	node_set_next
 798              	.LVL85:
 226:Middlewares/LVGL/GUI/lvgl/src/misc/lv_ll.c ****             node_set_prev(ll_new_p, ll_new_p->head, node);
 799              		.loc 1 226 9 view .LVU208
ARM GAS  C:\Users\ADMINI~1\AppData\Local\Temp\cc6YE4sa.s 			page 25


 226:Middlewares/LVGL/GUI/lvgl/src/misc/lv_ll.c ****             node_set_prev(ll_new_p, ll_new_p->head, node);
 800              		.loc 1 226 20 is_stmt 0 view .LVU209
 801 0024 6168     		ldr	r1, [r4, #4]
 226:Middlewares/LVGL/GUI/lvgl/src/misc/lv_ll.c ****             node_set_prev(ll_new_p, ll_new_p->head, node);
 802              		.loc 1 226 11 view .LVU210
 803 0026 19B1     		cbz	r1, .L51
 227:Middlewares/LVGL/GUI/lvgl/src/misc/lv_ll.c ****         }
 804              		.loc 1 227 13 is_stmt 1 view .LVU211
 805 0028 2A46     		mov	r2, r5
 806 002a 2046     		mov	r0, r4
 807 002c FFF7FEFF 		bl	node_set_prev
 808              	.LVL86:
 809              	.L51:
 230:Middlewares/LVGL/GUI/lvgl/src/misc/lv_ll.c ****         if(ll_new_p->tail == NULL) { /*If there is no tail (first node) set the tail too*/
 810              		.loc 1 230 9 view .LVU212
 230:Middlewares/LVGL/GUI/lvgl/src/misc/lv_ll.c ****         if(ll_new_p->tail == NULL) { /*If there is no tail (first node) set the tail too*/
 811              		.loc 1 230 24 is_stmt 0 view .LVU213
 812 0030 6560     		str	r5, [r4, #4]
 231:Middlewares/LVGL/GUI/lvgl/src/misc/lv_ll.c ****             ll_new_p->tail = node;
 813              		.loc 1 231 9 is_stmt 1 view .LVU214
 231:Middlewares/LVGL/GUI/lvgl/src/misc/lv_ll.c ****             ll_new_p->tail = node;
 814              		.loc 1 231 20 is_stmt 0 view .LVU215
 815 0032 A368     		ldr	r3, [r4, #8]
 231:Middlewares/LVGL/GUI/lvgl/src/misc/lv_ll.c ****             ll_new_p->tail = node;
 816              		.loc 1 231 11 view .LVU216
 817 0034 03B1     		cbz	r3, .L55
 818              	.L49:
 249:Middlewares/LVGL/GUI/lvgl/src/misc/lv_ll.c **** 
 819              		.loc 1 249 1 view .LVU217
 820 0036 70BD     		pop	{r4, r5, r6, pc}
 821              	.LVL87:
 822              	.L55:
 232:Middlewares/LVGL/GUI/lvgl/src/misc/lv_ll.c ****         }
 823              		.loc 1 232 13 is_stmt 1 view .LVU218
 232:Middlewares/LVGL/GUI/lvgl/src/misc/lv_ll.c ****         }
 824              		.loc 1 232 28 is_stmt 0 view .LVU219
 825 0038 A560     		str	r5, [r4, #8]
 826 003a FCE7     		b	.L49
 827              	.L50:
 237:Middlewares/LVGL/GUI/lvgl/src/misc/lv_ll.c ****         node_set_next(ll_new_p, node, NULL);
 828              		.loc 1 237 9 is_stmt 1 view .LVU220
 829 003c A268     		ldr	r2, [r4, #8]
 830 003e 2946     		mov	r1, r5
 831 0040 2046     		mov	r0, r4
 832 0042 FFF7FEFF 		bl	node_set_prev
 833              	.LVL88:
 238:Middlewares/LVGL/GUI/lvgl/src/misc/lv_ll.c **** 
 834              		.loc 1 238 9 view .LVU221
 835 0046 0022     		movs	r2, #0
 836 0048 2946     		mov	r1, r5
 837 004a 2046     		mov	r0, r4
 838 004c FFF7FEFF 		bl	node_set_next
 839              	.LVL89:
 240:Middlewares/LVGL/GUI/lvgl/src/misc/lv_ll.c ****             node_set_next(ll_new_p, ll_new_p->tail, node);
 840              		.loc 1 240 9 view .LVU222
 240:Middlewares/LVGL/GUI/lvgl/src/misc/lv_ll.c ****             node_set_next(ll_new_p, ll_new_p->tail, node);
 841              		.loc 1 240 20 is_stmt 0 view .LVU223
ARM GAS  C:\Users\ADMINI~1\AppData\Local\Temp\cc6YE4sa.s 			page 26


 842 0050 A168     		ldr	r1, [r4, #8]
 240:Middlewares/LVGL/GUI/lvgl/src/misc/lv_ll.c ****             node_set_next(ll_new_p, ll_new_p->tail, node);
 843              		.loc 1 240 11 view .LVU224
 844 0052 19B1     		cbz	r1, .L53
 241:Middlewares/LVGL/GUI/lvgl/src/misc/lv_ll.c ****         }
 845              		.loc 1 241 13 is_stmt 1 view .LVU225
 846 0054 2A46     		mov	r2, r5
 847 0056 2046     		mov	r0, r4
 848 0058 FFF7FEFF 		bl	node_set_next
 849              	.LVL90:
 850              	.L53:
 244:Middlewares/LVGL/GUI/lvgl/src/misc/lv_ll.c ****         if(ll_new_p->head == NULL) { /*If there is no head (first node) set the head too*/
 851              		.loc 1 244 9 view .LVU226
 244:Middlewares/LVGL/GUI/lvgl/src/misc/lv_ll.c ****         if(ll_new_p->head == NULL) { /*If there is no head (first node) set the head too*/
 852              		.loc 1 244 24 is_stmt 0 view .LVU227
 853 005c A560     		str	r5, [r4, #8]
 245:Middlewares/LVGL/GUI/lvgl/src/misc/lv_ll.c ****             ll_new_p->head = node;
 854              		.loc 1 245 9 is_stmt 1 view .LVU228
 245:Middlewares/LVGL/GUI/lvgl/src/misc/lv_ll.c ****             ll_new_p->head = node;
 855              		.loc 1 245 20 is_stmt 0 view .LVU229
 856 005e 6368     		ldr	r3, [r4, #4]
 245:Middlewares/LVGL/GUI/lvgl/src/misc/lv_ll.c ****             ll_new_p->head = node;
 857              		.loc 1 245 11 view .LVU230
 858 0060 002B     		cmp	r3, #0
 859 0062 E8D1     		bne	.L49
 246:Middlewares/LVGL/GUI/lvgl/src/misc/lv_ll.c ****         }
 860              		.loc 1 246 13 is_stmt 1 view .LVU231
 246:Middlewares/LVGL/GUI/lvgl/src/misc/lv_ll.c ****         }
 861              		.loc 1 246 28 is_stmt 0 view .LVU232
 862 0064 6560     		str	r5, [r4, #4]
 249:Middlewares/LVGL/GUI/lvgl/src/misc/lv_ll.c **** 
 863              		.loc 1 249 1 view .LVU233
 864 0066 E6E7     		b	.L49
 865              		.cfi_endproc
 866              	.LFE7:
 868              		.section	.text._lv_ll_get_len,"ax",%progbits
 869              		.align	1
 870              		.global	_lv_ll_get_len
 871              		.syntax unified
 872              		.thumb
 873              		.thumb_func
 875              	_lv_ll_get_len:
 876              	.LVL91:
 877              	.LFB12:
 309:Middlewares/LVGL/GUI/lvgl/src/misc/lv_ll.c ****     uint32_t len = 0;
 878              		.loc 1 309 1 is_stmt 1 view -0
 879              		.cfi_startproc
 880              		@ args = 0, pretend = 0, frame = 0
 881              		@ frame_needed = 0, uses_anonymous_args = 0
 309:Middlewares/LVGL/GUI/lvgl/src/misc/lv_ll.c ****     uint32_t len = 0;
 882              		.loc 1 309 1 is_stmt 0 view .LVU235
 883 0000 38B5     		push	{r3, r4, r5, lr}
 884              	.LCFI7:
 885              		.cfi_def_cfa_offset 16
 886              		.cfi_offset 3, -16
 887              		.cfi_offset 4, -12
 888              		.cfi_offset 5, -8
ARM GAS  C:\Users\ADMINI~1\AppData\Local\Temp\cc6YE4sa.s 			page 27


 889              		.cfi_offset 14, -4
 890 0002 0546     		mov	r5, r0
 310:Middlewares/LVGL/GUI/lvgl/src/misc/lv_ll.c ****     void * node;
 891              		.loc 1 310 5 is_stmt 1 view .LVU236
 892              	.LVL92:
 311:Middlewares/LVGL/GUI/lvgl/src/misc/lv_ll.c **** 
 893              		.loc 1 311 5 view .LVU237
 313:Middlewares/LVGL/GUI/lvgl/src/misc/lv_ll.c ****         len++;
 894              		.loc 1 313 5 view .LVU238
 313:Middlewares/LVGL/GUI/lvgl/src/misc/lv_ll.c ****         len++;
 895              		.loc 1 313 16 is_stmt 0 view .LVU239
 896 0004 FFF7FEFF 		bl	_lv_ll_get_head
 897              	.LVL93:
 313:Middlewares/LVGL/GUI/lvgl/src/misc/lv_ll.c ****         len++;
 898              		.loc 1 313 16 view .LVU240
 899 0008 0146     		mov	r1, r0
 900              	.LVL94:
 310:Middlewares/LVGL/GUI/lvgl/src/misc/lv_ll.c ****     void * node;
 901              		.loc 1 310 14 view .LVU241
 902 000a 0024     		movs	r4, #0
 313:Middlewares/LVGL/GUI/lvgl/src/misc/lv_ll.c ****         len++;
 903              		.loc 1 313 5 view .LVU242
 904 000c 04E0     		b	.L57
 905              	.LVL95:
 906              	.L58:
 314:Middlewares/LVGL/GUI/lvgl/src/misc/lv_ll.c ****     }
 907              		.loc 1 314 9 is_stmt 1 discriminator 3 view .LVU243
 314:Middlewares/LVGL/GUI/lvgl/src/misc/lv_ll.c ****     }
 908              		.loc 1 314 12 is_stmt 0 discriminator 3 view .LVU244
 909 000e 0134     		adds	r4, r4, #1
 910              	.LVL96:
 313:Middlewares/LVGL/GUI/lvgl/src/misc/lv_ll.c ****         len++;
 911              		.loc 1 313 53 is_stmt 1 discriminator 3 view .LVU245
 313:Middlewares/LVGL/GUI/lvgl/src/misc/lv_ll.c ****         len++;
 912              		.loc 1 313 60 is_stmt 0 discriminator 3 view .LVU246
 913 0010 2846     		mov	r0, r5
 914              	.LVL97:
 313:Middlewares/LVGL/GUI/lvgl/src/misc/lv_ll.c ****         len++;
 915              		.loc 1 313 60 discriminator 3 view .LVU247
 916 0012 FFF7FEFF 		bl	_lv_ll_get_next
 917              	.LVL98:
 313:Middlewares/LVGL/GUI/lvgl/src/misc/lv_ll.c ****         len++;
 918              		.loc 1 313 60 discriminator 3 view .LVU248
 919 0016 0146     		mov	r1, r0
 920              	.LVL99:
 921              	.L57:
 313:Middlewares/LVGL/GUI/lvgl/src/misc/lv_ll.c ****         len++;
 922              		.loc 1 313 39 is_stmt 1 discriminator 1 view .LVU249
 313:Middlewares/LVGL/GUI/lvgl/src/misc/lv_ll.c ****         len++;
 923              		.loc 1 313 5 is_stmt 0 discriminator 1 view .LVU250
 924 0018 0029     		cmp	r1, #0
 925 001a F8D1     		bne	.L58
 317:Middlewares/LVGL/GUI/lvgl/src/misc/lv_ll.c **** }
 926              		.loc 1 317 5 is_stmt 1 view .LVU251
 318:Middlewares/LVGL/GUI/lvgl/src/misc/lv_ll.c **** 
 927              		.loc 1 318 1 is_stmt 0 view .LVU252
 928 001c 2046     		mov	r0, r4
ARM GAS  C:\Users\ADMINI~1\AppData\Local\Temp\cc6YE4sa.s 			page 28


 929              	.LVL100:
 318:Middlewares/LVGL/GUI/lvgl/src/misc/lv_ll.c **** 
 930              		.loc 1 318 1 view .LVU253
 931 001e 38BD     		pop	{r3, r4, r5, pc}
 318:Middlewares/LVGL/GUI/lvgl/src/misc/lv_ll.c **** 
 932              		.loc 1 318 1 view .LVU254
 933              		.cfi_endproc
 934              	.LFE12:
 936              		.section	.text._lv_ll_move_before,"ax",%progbits
 937              		.align	1
 938              		.global	_lv_ll_move_before
 939              		.syntax unified
 940              		.thumb
 941              		.thumb_func
 943              	_lv_ll_move_before:
 944              	.LVL101:
 945              	.LFB13:
 327:Middlewares/LVGL/GUI/lvgl/src/misc/lv_ll.c ****     if(n_act == n_after) return; /*Can't move before itself*/
 946              		.loc 1 327 1 is_stmt 1 view -0
 947              		.cfi_startproc
 948              		@ args = 0, pretend = 0, frame = 0
 949              		@ frame_needed = 0, uses_anonymous_args = 0
 328:Middlewares/LVGL/GUI/lvgl/src/misc/lv_ll.c **** 
 950              		.loc 1 328 5 view .LVU256
 328:Middlewares/LVGL/GUI/lvgl/src/misc/lv_ll.c **** 
 951              		.loc 1 328 7 is_stmt 0 view .LVU257
 952 0000 9142     		cmp	r1, r2
 953 0002 2DD0     		beq	.L66
 327:Middlewares/LVGL/GUI/lvgl/src/misc/lv_ll.c ****     if(n_act == n_after) return; /*Can't move before itself*/
 954              		.loc 1 327 1 view .LVU258
 955 0004 F8B5     		push	{r3, r4, r5, r6, r7, lr}
 956              	.LCFI8:
 957              		.cfi_def_cfa_offset 24
 958              		.cfi_offset 3, -24
 959              		.cfi_offset 4, -20
 960              		.cfi_offset 5, -16
 961              		.cfi_offset 6, -12
 962              		.cfi_offset 7, -8
 963              		.cfi_offset 14, -4
 964 0006 0646     		mov	r6, r0
 965 0008 0C46     		mov	r4, r1
 966 000a 1546     		mov	r5, r2
 330:Middlewares/LVGL/GUI/lvgl/src/misc/lv_ll.c ****     if(n_after != NULL)
 967              		.loc 1 330 5 is_stmt 1 view .LVU259
 331:Middlewares/LVGL/GUI/lvgl/src/misc/lv_ll.c ****         n_before = _lv_ll_get_prev(ll_p, n_after);
 968              		.loc 1 331 5 view .LVU260
 331:Middlewares/LVGL/GUI/lvgl/src/misc/lv_ll.c ****         n_before = _lv_ll_get_prev(ll_p, n_after);
 969              		.loc 1 331 7 is_stmt 0 view .LVU261
 970 000c 02B3     		cbz	r2, .L62
 332:Middlewares/LVGL/GUI/lvgl/src/misc/lv_ll.c ****     else
 971              		.loc 1 332 9 is_stmt 1 view .LVU262
 332:Middlewares/LVGL/GUI/lvgl/src/misc/lv_ll.c ****     else
 972              		.loc 1 332 20 is_stmt 0 view .LVU263
 973 000e 1146     		mov	r1, r2
 974              	.LVL102:
 332:Middlewares/LVGL/GUI/lvgl/src/misc/lv_ll.c ****     else
 975              		.loc 1 332 20 view .LVU264
ARM GAS  C:\Users\ADMINI~1\AppData\Local\Temp\cc6YE4sa.s 			page 29


 976 0010 FFF7FEFF 		bl	_lv_ll_get_prev
 977              	.LVL103:
 332:Middlewares/LVGL/GUI/lvgl/src/misc/lv_ll.c ****     else
 978              		.loc 1 332 20 view .LVU265
 979 0014 0746     		mov	r7, r0
 980              	.LVL104:
 981              	.L63:
 336:Middlewares/LVGL/GUI/lvgl/src/misc/lv_ll.c **** 
 982              		.loc 1 336 5 is_stmt 1 view .LVU266
 336:Middlewares/LVGL/GUI/lvgl/src/misc/lv_ll.c **** 
 983              		.loc 1 336 7 is_stmt 0 view .LVU267
 984 0016 A742     		cmp	r7, r4
 985 0018 19D0     		beq	.L60
 339:Middlewares/LVGL/GUI/lvgl/src/misc/lv_ll.c **** 
 986              		.loc 1 339 5 is_stmt 1 view .LVU268
 987 001a 2146     		mov	r1, r4
 988 001c 3046     		mov	r0, r6
 989              	.LVL105:
 339:Middlewares/LVGL/GUI/lvgl/src/misc/lv_ll.c **** 
 990              		.loc 1 339 5 is_stmt 0 view .LVU269
 991 001e FFF7FEFF 		bl	_lv_ll_remove
 992              	.LVL106:
 342:Middlewares/LVGL/GUI/lvgl/src/misc/lv_ll.c ****     node_set_prev(ll_p, n_act, n_before);
 993              		.loc 1 342 5 is_stmt 1 view .LVU270
 994 0022 2246     		mov	r2, r4
 995 0024 3946     		mov	r1, r7
 996 0026 3046     		mov	r0, r6
 997 0028 FFF7FEFF 		bl	node_set_next
 998              	.LVL107:
 343:Middlewares/LVGL/GUI/lvgl/src/misc/lv_ll.c ****     node_set_prev(ll_p, n_after, n_act);
 999              		.loc 1 343 5 view .LVU271
 1000 002c 3A46     		mov	r2, r7
 1001 002e 2146     		mov	r1, r4
 1002 0030 3046     		mov	r0, r6
 1003 0032 FFF7FEFF 		bl	node_set_prev
 1004              	.LVL108:
 344:Middlewares/LVGL/GUI/lvgl/src/misc/lv_ll.c ****     node_set_next(ll_p, n_act, n_after);
 1005              		.loc 1 344 5 view .LVU272
 1006 0036 2246     		mov	r2, r4
 1007 0038 2946     		mov	r1, r5
 1008 003a 3046     		mov	r0, r6
 1009 003c FFF7FEFF 		bl	node_set_prev
 1010              	.LVL109:
 345:Middlewares/LVGL/GUI/lvgl/src/misc/lv_ll.c **** 
 1011              		.loc 1 345 5 view .LVU273
 1012 0040 2A46     		mov	r2, r5
 1013 0042 2146     		mov	r1, r4
 1014 0044 3046     		mov	r0, r6
 1015 0046 FFF7FEFF 		bl	node_set_next
 1016              	.LVL110:
 348:Middlewares/LVGL/GUI/lvgl/src/misc/lv_ll.c **** 
 1017              		.loc 1 348 5 view .LVU274
 348:Middlewares/LVGL/GUI/lvgl/src/misc/lv_ll.c **** 
 1018              		.loc 1 348 7 is_stmt 0 view .LVU275
 1019 004a 2DB1     		cbz	r5, .L69
 1020              	.L64:
 351:Middlewares/LVGL/GUI/lvgl/src/misc/lv_ll.c **** }
ARM GAS  C:\Users\ADMINI~1\AppData\Local\Temp\cc6YE4sa.s 			page 30


 1021              		.loc 1 351 5 is_stmt 1 view .LVU276
 351:Middlewares/LVGL/GUI/lvgl/src/misc/lv_ll.c **** }
 1022              		.loc 1 351 7 is_stmt 0 view .LVU277
 1023 004c 37B1     		cbz	r7, .L70
 1024              	.L60:
 352:Middlewares/LVGL/GUI/lvgl/src/misc/lv_ll.c **** 
 1025              		.loc 1 352 1 view .LVU278
 1026 004e F8BD     		pop	{r3, r4, r5, r6, r7, pc}
 1027              	.LVL111:
 1028              	.L62:
 334:Middlewares/LVGL/GUI/lvgl/src/misc/lv_ll.c **** 
 1029              		.loc 1 334 9 is_stmt 1 view .LVU279
 334:Middlewares/LVGL/GUI/lvgl/src/misc/lv_ll.c **** 
 1030              		.loc 1 334 20 is_stmt 0 view .LVU280
 1031 0050 FFF7FEFF 		bl	_lv_ll_get_tail
 1032              	.LVL112:
 334:Middlewares/LVGL/GUI/lvgl/src/misc/lv_ll.c **** 
 1033              		.loc 1 334 20 view .LVU281
 1034 0054 0746     		mov	r7, r0
 1035              	.LVL113:
 334:Middlewares/LVGL/GUI/lvgl/src/misc/lv_ll.c **** 
 1036              		.loc 1 334 20 view .LVU282
 1037 0056 DEE7     		b	.L63
 1038              	.LVL114:
 1039              	.L69:
 348:Middlewares/LVGL/GUI/lvgl/src/misc/lv_ll.c **** 
 1040              		.loc 1 348 25 is_stmt 1 discriminator 1 view .LVU283
 348:Middlewares/LVGL/GUI/lvgl/src/misc/lv_ll.c **** 
 1041              		.loc 1 348 36 is_stmt 0 discriminator 1 view .LVU284
 1042 0058 B460     		str	r4, [r6, #8]
 1043 005a F7E7     		b	.L64
 1044              	.L70:
 351:Middlewares/LVGL/GUI/lvgl/src/misc/lv_ll.c **** }
 1045              		.loc 1 351 26 is_stmt 1 discriminator 1 view .LVU285
 351:Middlewares/LVGL/GUI/lvgl/src/misc/lv_ll.c **** }
 1046              		.loc 1 351 37 is_stmt 0 discriminator 1 view .LVU286
 1047 005c 7460     		str	r4, [r6, #4]
 1048 005e F6E7     		b	.L60
 1049              	.LVL115:
 1050              	.L66:
 1051              	.LCFI9:
 1052              		.cfi_def_cfa_offset 0
 1053              		.cfi_restore 3
 1054              		.cfi_restore 4
 1055              		.cfi_restore 5
 1056              		.cfi_restore 6
 1057              		.cfi_restore 7
 1058              		.cfi_restore 14
 351:Middlewares/LVGL/GUI/lvgl/src/misc/lv_ll.c **** }
 1059              		.loc 1 351 37 discriminator 1 view .LVU287
 1060 0060 7047     		bx	lr
 1061              		.cfi_endproc
 1062              	.LFE13:
 1064              		.section	.text._lv_ll_is_empty,"ax",%progbits
 1065              		.align	1
 1066              		.global	_lv_ll_is_empty
 1067              		.syntax unified
ARM GAS  C:\Users\ADMINI~1\AppData\Local\Temp\cc6YE4sa.s 			page 31


 1068              		.thumb
 1069              		.thumb_func
 1071              	_lv_ll_is_empty:
 1072              	.LVL116:
 1073              	.LFB14:
 360:Middlewares/LVGL/GUI/lvgl/src/misc/lv_ll.c ****     if(ll_p == NULL) return true;
 1074              		.loc 1 360 1 is_stmt 1 view -0
 1075              		.cfi_startproc
 1076              		@ args = 0, pretend = 0, frame = 0
 1077              		@ frame_needed = 0, uses_anonymous_args = 0
 1078              		@ link register save eliminated.
 361:Middlewares/LVGL/GUI/lvgl/src/misc/lv_ll.c **** 
 1079              		.loc 1 361 5 view .LVU289
 361:Middlewares/LVGL/GUI/lvgl/src/misc/lv_ll.c **** 
 1080              		.loc 1 361 7 is_stmt 0 view .LVU290
 1081 0000 38B1     		cbz	r0, .L73
 363:Middlewares/LVGL/GUI/lvgl/src/misc/lv_ll.c **** 
 1082              		.loc 1 363 5 is_stmt 1 view .LVU291
 363:Middlewares/LVGL/GUI/lvgl/src/misc/lv_ll.c **** 
 1083              		.loc 1 363 12 is_stmt 0 view .LVU292
 1084 0002 4268     		ldr	r2, [r0, #4]
 363:Middlewares/LVGL/GUI/lvgl/src/misc/lv_ll.c **** 
 1085              		.loc 1 363 7 view .LVU293
 1086 0004 0AB1     		cbz	r2, .L76
 365:Middlewares/LVGL/GUI/lvgl/src/misc/lv_ll.c **** }
 1087              		.loc 1 365 12 view .LVU294
 1088 0006 0020     		movs	r0, #0
 1089              	.LVL117:
 365:Middlewares/LVGL/GUI/lvgl/src/misc/lv_ll.c **** }
 1090              		.loc 1 365 12 view .LVU295
 1091 0008 7047     		bx	lr
 1092              	.LVL118:
 1093              	.L76:
 363:Middlewares/LVGL/GUI/lvgl/src/misc/lv_ll.c **** 
 1094              		.loc 1 363 34 discriminator 1 view .LVU296
 1095 000a 8368     		ldr	r3, [r0, #8]
 363:Middlewares/LVGL/GUI/lvgl/src/misc/lv_ll.c **** 
 1096              		.loc 1 363 27 discriminator 1 view .LVU297
 1097 000c 1BB1     		cbz	r3, .L75
 365:Middlewares/LVGL/GUI/lvgl/src/misc/lv_ll.c **** }
 1098              		.loc 1 365 12 view .LVU298
 1099 000e 0020     		movs	r0, #0
 1100              	.LVL119:
 365:Middlewares/LVGL/GUI/lvgl/src/misc/lv_ll.c **** }
 1101              		.loc 1 365 12 view .LVU299
 1102 0010 7047     		bx	lr
 1103              	.LVL120:
 1104              	.L73:
 361:Middlewares/LVGL/GUI/lvgl/src/misc/lv_ll.c **** 
 1105              		.loc 1 361 29 view .LVU300
 1106 0012 0120     		movs	r0, #1
 1107              	.LVL121:
 361:Middlewares/LVGL/GUI/lvgl/src/misc/lv_ll.c **** 
 1108              		.loc 1 361 29 view .LVU301
 1109 0014 7047     		bx	lr
 1110              	.LVL122:
 1111              	.L75:
ARM GAS  C:\Users\ADMINI~1\AppData\Local\Temp\cc6YE4sa.s 			page 32


 363:Middlewares/LVGL/GUI/lvgl/src/misc/lv_ll.c **** 
 1112              		.loc 1 363 57 view .LVU302
 1113 0016 0120     		movs	r0, #1
 1114              	.LVL123:
 366:Middlewares/LVGL/GUI/lvgl/src/misc/lv_ll.c **** 
 1115              		.loc 1 366 1 view .LVU303
 1116 0018 7047     		bx	lr
 1117              		.cfi_endproc
 1118              	.LFE14:
 1120              		.text
 1121              	.Letext0:
 1122              		.file 2 "c:\\gnu arm embedded toolchain\\10 2021.10\\arm-none-eabi\\include\\machine\\_default_typ
 1123              		.file 3 "c:\\gnu arm embedded toolchain\\10 2021.10\\arm-none-eabi\\include\\sys\\_stdint.h"
 1124              		.file 4 "Middlewares/LVGL/GUI/lvgl/src/misc/lv_ll.h"
 1125              		.file 5 "Middlewares/LVGL/GUI/lvgl/src/misc/lv_mem.h"
ARM GAS  C:\Users\ADMINI~1\AppData\Local\Temp\cc6YE4sa.s 			page 33

