ARM GAS  C:\Users\ADMINI~1\AppData\Local\Temp\ccxvSaAM.s 			page 1


   1              		.cpu cortex-m4
   2              		.arch armv7e-m
   3              		.fpu fpv4-sp-d16
   4              		.eabi_attribute 27, 1
   5              		.eabi_attribute 28, 1
   6              		.eabi_attribute 20, 1
   7              		.eabi_attribute 21, 1
   8              		.eabi_attribute 23, 3
   9              		.eabi_attribute 24, 1
  10              		.eabi_attribute 25, 1
  11              		.eabi_attribute 26, 1
  12              		.eabi_attribute 30, 1
  13              		.eabi_attribute 34, 1
  14              		.eabi_attribute 18, 4
  15              		.file	"lv_msgbox.c"
  16              		.text
  17              	.Ltext0:
  18              		.cfi_sections	.debug_frame
  19              		.section	.rodata.lv_msgbox_create.str1.4,"aMS",%progbits,1
  20              		.align	2
  21              	.LC0:
  22 0000 00       		.ascii	"\000"
  23 0001 000000   		.align	2
  24              	.LC1:
  25 0004 EF808D00 		.ascii	"\357\200\215\000"
  26              		.section	.text.lv_msgbox_create,"ax",%progbits
  27              		.align	1
  28              		.global	lv_msgbox_create
  29              		.syntax unified
  30              		.thumb
  31              		.thumb_func
  33              	lv_msgbox_create:
  34              	.LVL0:
  35              	.LFB196:
  36              		.file 1 "Middlewares/LVGL/GUI/lvgl/src/extra/widgets/msgbox/lv_msgbox.c"
   1:Middlewares/LVGL/GUI/lvgl/src/extra/widgets/msgbox/lv_msgbox.c **** /**
   2:Middlewares/LVGL/GUI/lvgl/src/extra/widgets/msgbox/lv_msgbox.c ****  * @file lv_msgbox.c
   3:Middlewares/LVGL/GUI/lvgl/src/extra/widgets/msgbox/lv_msgbox.c ****  *
   4:Middlewares/LVGL/GUI/lvgl/src/extra/widgets/msgbox/lv_msgbox.c ****  */
   5:Middlewares/LVGL/GUI/lvgl/src/extra/widgets/msgbox/lv_msgbox.c **** 
   6:Middlewares/LVGL/GUI/lvgl/src/extra/widgets/msgbox/lv_msgbox.c **** /*********************
   7:Middlewares/LVGL/GUI/lvgl/src/extra/widgets/msgbox/lv_msgbox.c ****  *      INCLUDES
   8:Middlewares/LVGL/GUI/lvgl/src/extra/widgets/msgbox/lv_msgbox.c ****  *********************/
   9:Middlewares/LVGL/GUI/lvgl/src/extra/widgets/msgbox/lv_msgbox.c **** #include "lv_msgbox.h"
  10:Middlewares/LVGL/GUI/lvgl/src/extra/widgets/msgbox/lv_msgbox.c **** #if LV_USE_MSGBOX
  11:Middlewares/LVGL/GUI/lvgl/src/extra/widgets/msgbox/lv_msgbox.c **** 
  12:Middlewares/LVGL/GUI/lvgl/src/extra/widgets/msgbox/lv_msgbox.c **** #include "../../../misc/lv_assert.h"
  13:Middlewares/LVGL/GUI/lvgl/src/extra/widgets/msgbox/lv_msgbox.c **** 
  14:Middlewares/LVGL/GUI/lvgl/src/extra/widgets/msgbox/lv_msgbox.c **** /*********************
  15:Middlewares/LVGL/GUI/lvgl/src/extra/widgets/msgbox/lv_msgbox.c ****  *      DEFINES
  16:Middlewares/LVGL/GUI/lvgl/src/extra/widgets/msgbox/lv_msgbox.c ****  *********************/
  17:Middlewares/LVGL/GUI/lvgl/src/extra/widgets/msgbox/lv_msgbox.c **** #define LV_MSGBOX_FLAG_AUTO_PARENT  LV_OBJ_FLAG_WIDGET_1        /*Mark that the parent was automati
  18:Middlewares/LVGL/GUI/lvgl/src/extra/widgets/msgbox/lv_msgbox.c **** #define MY_CLASS    &lv_msgbox_class
  19:Middlewares/LVGL/GUI/lvgl/src/extra/widgets/msgbox/lv_msgbox.c **** 
  20:Middlewares/LVGL/GUI/lvgl/src/extra/widgets/msgbox/lv_msgbox.c **** /**********************
  21:Middlewares/LVGL/GUI/lvgl/src/extra/widgets/msgbox/lv_msgbox.c ****  *      TYPEDEFS
  22:Middlewares/LVGL/GUI/lvgl/src/extra/widgets/msgbox/lv_msgbox.c ****  **********************/
ARM GAS  C:\Users\ADMINI~1\AppData\Local\Temp\ccxvSaAM.s 			page 2


  23:Middlewares/LVGL/GUI/lvgl/src/extra/widgets/msgbox/lv_msgbox.c **** 
  24:Middlewares/LVGL/GUI/lvgl/src/extra/widgets/msgbox/lv_msgbox.c **** /**********************
  25:Middlewares/LVGL/GUI/lvgl/src/extra/widgets/msgbox/lv_msgbox.c ****  *  STATIC PROTOTYPES
  26:Middlewares/LVGL/GUI/lvgl/src/extra/widgets/msgbox/lv_msgbox.c ****  **********************/
  27:Middlewares/LVGL/GUI/lvgl/src/extra/widgets/msgbox/lv_msgbox.c **** static void msgbox_close_click_event_cb(lv_event_t * e);
  28:Middlewares/LVGL/GUI/lvgl/src/extra/widgets/msgbox/lv_msgbox.c **** 
  29:Middlewares/LVGL/GUI/lvgl/src/extra/widgets/msgbox/lv_msgbox.c **** /**********************
  30:Middlewares/LVGL/GUI/lvgl/src/extra/widgets/msgbox/lv_msgbox.c ****  *  STATIC VARIABLES
  31:Middlewares/LVGL/GUI/lvgl/src/extra/widgets/msgbox/lv_msgbox.c ****  **********************/
  32:Middlewares/LVGL/GUI/lvgl/src/extra/widgets/msgbox/lv_msgbox.c **** const lv_obj_class_t lv_msgbox_class = {
  33:Middlewares/LVGL/GUI/lvgl/src/extra/widgets/msgbox/lv_msgbox.c ****     .base_class = &lv_obj_class,
  34:Middlewares/LVGL/GUI/lvgl/src/extra/widgets/msgbox/lv_msgbox.c ****     .width_def = LV_DPI_DEF * 2,
  35:Middlewares/LVGL/GUI/lvgl/src/extra/widgets/msgbox/lv_msgbox.c ****     .height_def = LV_SIZE_CONTENT,
  36:Middlewares/LVGL/GUI/lvgl/src/extra/widgets/msgbox/lv_msgbox.c ****     .instance_size = sizeof(lv_msgbox_t)
  37:Middlewares/LVGL/GUI/lvgl/src/extra/widgets/msgbox/lv_msgbox.c **** };
  38:Middlewares/LVGL/GUI/lvgl/src/extra/widgets/msgbox/lv_msgbox.c **** 
  39:Middlewares/LVGL/GUI/lvgl/src/extra/widgets/msgbox/lv_msgbox.c **** const lv_obj_class_t lv_msgbox_content_class = {
  40:Middlewares/LVGL/GUI/lvgl/src/extra/widgets/msgbox/lv_msgbox.c ****     .base_class = &lv_obj_class,
  41:Middlewares/LVGL/GUI/lvgl/src/extra/widgets/msgbox/lv_msgbox.c ****     .width_def = LV_PCT(100),
  42:Middlewares/LVGL/GUI/lvgl/src/extra/widgets/msgbox/lv_msgbox.c ****     .height_def = LV_SIZE_CONTENT,
  43:Middlewares/LVGL/GUI/lvgl/src/extra/widgets/msgbox/lv_msgbox.c ****     .instance_size = sizeof(lv_obj_t)
  44:Middlewares/LVGL/GUI/lvgl/src/extra/widgets/msgbox/lv_msgbox.c **** };
  45:Middlewares/LVGL/GUI/lvgl/src/extra/widgets/msgbox/lv_msgbox.c **** 
  46:Middlewares/LVGL/GUI/lvgl/src/extra/widgets/msgbox/lv_msgbox.c **** const lv_obj_class_t lv_msgbox_backdrop_class = {
  47:Middlewares/LVGL/GUI/lvgl/src/extra/widgets/msgbox/lv_msgbox.c ****     .base_class = &lv_obj_class,
  48:Middlewares/LVGL/GUI/lvgl/src/extra/widgets/msgbox/lv_msgbox.c ****     .width_def = LV_PCT(100),
  49:Middlewares/LVGL/GUI/lvgl/src/extra/widgets/msgbox/lv_msgbox.c ****     .height_def = LV_PCT(100),
  50:Middlewares/LVGL/GUI/lvgl/src/extra/widgets/msgbox/lv_msgbox.c ****     .instance_size = sizeof(lv_obj_t)
  51:Middlewares/LVGL/GUI/lvgl/src/extra/widgets/msgbox/lv_msgbox.c **** };
  52:Middlewares/LVGL/GUI/lvgl/src/extra/widgets/msgbox/lv_msgbox.c **** 
  53:Middlewares/LVGL/GUI/lvgl/src/extra/widgets/msgbox/lv_msgbox.c **** /**********************
  54:Middlewares/LVGL/GUI/lvgl/src/extra/widgets/msgbox/lv_msgbox.c ****  *      MACROS
  55:Middlewares/LVGL/GUI/lvgl/src/extra/widgets/msgbox/lv_msgbox.c ****  **********************/
  56:Middlewares/LVGL/GUI/lvgl/src/extra/widgets/msgbox/lv_msgbox.c **** 
  57:Middlewares/LVGL/GUI/lvgl/src/extra/widgets/msgbox/lv_msgbox.c **** /**********************
  58:Middlewares/LVGL/GUI/lvgl/src/extra/widgets/msgbox/lv_msgbox.c ****  *   GLOBAL FUNCTIONS
  59:Middlewares/LVGL/GUI/lvgl/src/extra/widgets/msgbox/lv_msgbox.c ****  **********************/
  60:Middlewares/LVGL/GUI/lvgl/src/extra/widgets/msgbox/lv_msgbox.c **** 
  61:Middlewares/LVGL/GUI/lvgl/src/extra/widgets/msgbox/lv_msgbox.c **** lv_obj_t * lv_msgbox_create(lv_obj_t * parent, const char * title, const char * txt, const char * b
  62:Middlewares/LVGL/GUI/lvgl/src/extra/widgets/msgbox/lv_msgbox.c ****                             bool add_close_btn)
  63:Middlewares/LVGL/GUI/lvgl/src/extra/widgets/msgbox/lv_msgbox.c **** {
  37              		.loc 1 63 1 view -0
  38              		.cfi_startproc
  39              		@ args = 4, pretend = 0, frame = 0
  40              		@ frame_needed = 0, uses_anonymous_args = 0
  41              		.loc 1 63 1 is_stmt 0 view .LVU1
  42 0000 2DE9F843 		push	{r3, r4, r5, r6, r7, r8, r9, lr}
  43              	.LCFI0:
  44              		.cfi_def_cfa_offset 32
  45              		.cfi_offset 3, -32
  46              		.cfi_offset 4, -28
  47              		.cfi_offset 5, -24
  48              		.cfi_offset 6, -20
  49              		.cfi_offset 7, -16
  50              		.cfi_offset 8, -12
  51              		.cfi_offset 9, -8
  52              		.cfi_offset 14, -4
ARM GAS  C:\Users\ADMINI~1\AppData\Local\Temp\ccxvSaAM.s 			page 3


  53 0004 0D46     		mov	r5, r1
  54 0006 1746     		mov	r7, r2
  55 0008 1E46     		mov	r6, r3
  56 000a 9DF82080 		ldrb	r8, [sp, #32]	@ zero_extendqisi2
  64:Middlewares/LVGL/GUI/lvgl/src/extra/widgets/msgbox/lv_msgbox.c ****     LV_LOG_INFO("begin");
  57              		.loc 1 64 5 is_stmt 1 view .LVU2
  58              		.loc 1 64 5 view .LVU3
  59              		.loc 1 64 5 view .LVU4
  65:Middlewares/LVGL/GUI/lvgl/src/extra/widgets/msgbox/lv_msgbox.c ****     bool auto_parent = false;
  60              		.loc 1 65 5 view .LVU5
  61              	.LVL1:
  66:Middlewares/LVGL/GUI/lvgl/src/extra/widgets/msgbox/lv_msgbox.c ****     if(parent == NULL) {
  62              		.loc 1 66 5 view .LVU6
  63              		.loc 1 66 7 is_stmt 0 view .LVU7
  64 000e 0028     		cmp	r0, #0
  65 0010 58D0     		beq	.L31
  66 0012 0446     		mov	r4, r0
  65:Middlewares/LVGL/GUI/lvgl/src/extra/widgets/msgbox/lv_msgbox.c ****     bool auto_parent = false;
  67              		.loc 1 65 10 view .LVU8
  68 0014 4FF00009 		mov	r9, #0
  69              	.LVL2:
  70              	.L2:
  67:Middlewares/LVGL/GUI/lvgl/src/extra/widgets/msgbox/lv_msgbox.c ****         auto_parent = true;
  68:Middlewares/LVGL/GUI/lvgl/src/extra/widgets/msgbox/lv_msgbox.c ****         parent = lv_obj_class_create_obj(&lv_msgbox_backdrop_class, lv_layer_top());
  69:Middlewares/LVGL/GUI/lvgl/src/extra/widgets/msgbox/lv_msgbox.c ****         LV_ASSERT_MALLOC(parent);
  70:Middlewares/LVGL/GUI/lvgl/src/extra/widgets/msgbox/lv_msgbox.c ****         lv_obj_class_init_obj(parent);
  71:Middlewares/LVGL/GUI/lvgl/src/extra/widgets/msgbox/lv_msgbox.c ****         lv_obj_clear_flag(parent, LV_OBJ_FLAG_IGNORE_LAYOUT);
  72:Middlewares/LVGL/GUI/lvgl/src/extra/widgets/msgbox/lv_msgbox.c ****         lv_obj_set_size(parent, LV_PCT(100), LV_PCT(100));
  73:Middlewares/LVGL/GUI/lvgl/src/extra/widgets/msgbox/lv_msgbox.c ****     }
  74:Middlewares/LVGL/GUI/lvgl/src/extra/widgets/msgbox/lv_msgbox.c **** 
  75:Middlewares/LVGL/GUI/lvgl/src/extra/widgets/msgbox/lv_msgbox.c ****     lv_obj_t * obj = lv_obj_class_create_obj(&lv_msgbox_class, parent);
  71              		.loc 1 75 5 is_stmt 1 view .LVU9
  72              		.loc 1 75 22 is_stmt 0 view .LVU10
  73 0018 2146     		mov	r1, r4
  74 001a 8748     		ldr	r0, .L37
  75 001c FFF7FEFF 		bl	lv_obj_class_create_obj
  76              	.LVL3:
  76:Middlewares/LVGL/GUI/lvgl/src/extra/widgets/msgbox/lv_msgbox.c ****     LV_ASSERT_MALLOC(obj);
  77              		.loc 1 76 5 is_stmt 1 view .LVU11
  78              		.loc 1 76 5 view .LVU12
  79 0020 0446     		mov	r4, r0
  80              	.LVL4:
  81              		.loc 1 76 5 is_stmt 0 view .LVU13
  82 0022 0028     		cmp	r0, #0
  83 0024 68D0     		beq	.L6
  84              		.loc 1 76 5 is_stmt 1 discriminator 2 view .LVU14
  85              		.loc 1 76 26 discriminator 2 view .LVU15
  77:Middlewares/LVGL/GUI/lvgl/src/extra/widgets/msgbox/lv_msgbox.c ****     lv_obj_class_init_obj(obj);
  86              		.loc 1 77 5 discriminator 2 view .LVU16
  87 0026 FFF7FEFF 		bl	lv_obj_class_init_obj
  88              	.LVL5:
  78:Middlewares/LVGL/GUI/lvgl/src/extra/widgets/msgbox/lv_msgbox.c ****     if(obj == NULL) return NULL;
  89              		.loc 1 78 5 discriminator 2 view .LVU17
  79:Middlewares/LVGL/GUI/lvgl/src/extra/widgets/msgbox/lv_msgbox.c ****     lv_msgbox_t * mbox = (lv_msgbox_t *)obj;
  90              		.loc 1 79 5 discriminator 2 view .LVU18
  80:Middlewares/LVGL/GUI/lvgl/src/extra/widgets/msgbox/lv_msgbox.c **** 
  81:Middlewares/LVGL/GUI/lvgl/src/extra/widgets/msgbox/lv_msgbox.c ****     if(auto_parent) lv_obj_add_flag(obj, LV_MSGBOX_FLAG_AUTO_PARENT);
ARM GAS  C:\Users\ADMINI~1\AppData\Local\Temp\ccxvSaAM.s 			page 4


  91              		.loc 1 81 5 discriminator 2 view .LVU19
  92              		.loc 1 81 7 is_stmt 0 discriminator 2 view .LVU20
  93 002a B9F1000F 		cmp	r9, #0
  94 002e 64D1     		bne	.L32
  95              	.L7:
  82:Middlewares/LVGL/GUI/lvgl/src/extra/widgets/msgbox/lv_msgbox.c **** 
  83:Middlewares/LVGL/GUI/lvgl/src/extra/widgets/msgbox/lv_msgbox.c ****     lv_obj_set_flex_flow(obj, LV_FLEX_FLOW_ROW_WRAP);
  96              		.loc 1 83 5 is_stmt 1 view .LVU21
  97 0030 0421     		movs	r1, #4
  98 0032 2046     		mov	r0, r4
  99 0034 FFF7FEFF 		bl	lv_obj_set_flex_flow
 100              	.LVL6:
  84:Middlewares/LVGL/GUI/lvgl/src/extra/widgets/msgbox/lv_msgbox.c **** 
  85:Middlewares/LVGL/GUI/lvgl/src/extra/widgets/msgbox/lv_msgbox.c ****     bool has_title = title && strlen(title) > 0;
 101              		.loc 1 85 5 view .LVU22
 102              		.loc 1 85 28 is_stmt 0 view .LVU23
 103 0038 002D     		cmp	r5, #0
 104 003a 64D0     		beq	.L23
 105              		.loc 1 85 45 discriminator 1 view .LVU24
 106 003c 2B78     		ldrb	r3, [r5]	@ zero_extendqisi2
 107              		.loc 1 85 28 discriminator 1 view .LVU25
 108 003e 002B     		cmp	r3, #0
 109 0040 64D1     		bne	.L24
 110              		.loc 1 85 28 view .LVU26
 111 0042 4FF00009 		mov	r9, #0
 112              	.LVL7:
 113              	.L8:
  86:Middlewares/LVGL/GUI/lvgl/src/extra/widgets/msgbox/lv_msgbox.c **** 
  87:Middlewares/LVGL/GUI/lvgl/src/extra/widgets/msgbox/lv_msgbox.c ****     /*When a close button is required, we need the empty label as spacer to push the button to the 
  88:Middlewares/LVGL/GUI/lvgl/src/extra/widgets/msgbox/lv_msgbox.c ****     if(add_close_btn || has_title) {
 114              		.loc 1 88 5 is_stmt 1 discriminator 6 view .LVU27
 115              		.loc 1 88 7 is_stmt 0 discriminator 6 view .LVU28
 116 0046 B8F1000F 		cmp	r8, #0
 117 004a 02D1     		bne	.L9
 118              		.loc 1 88 22 discriminator 1 view .LVU29
 119 004c B9F1000F 		cmp	r9, #0
 120 0050 15D0     		beq	.L10
 121              	.L9:
  89:Middlewares/LVGL/GUI/lvgl/src/extra/widgets/msgbox/lv_msgbox.c ****         mbox->title = lv_label_create(obj);
 122              		.loc 1 89 9 is_stmt 1 view .LVU30
 123              		.loc 1 89 23 is_stmt 0 view .LVU31
 124 0052 2046     		mov	r0, r4
 125 0054 FFF7FEFF 		bl	lv_label_create
 126              	.LVL8:
 127              		.loc 1 89 21 view .LVU32
 128 0058 E062     		str	r0, [r4, #44]
  90:Middlewares/LVGL/GUI/lvgl/src/extra/widgets/msgbox/lv_msgbox.c ****         lv_label_set_text(mbox->title, has_title ? title : "");
 129              		.loc 1 90 9 is_stmt 1 view .LVU33
 130 005a B9F1000F 		cmp	r9, #0
 131 005e 00D1     		bne	.L11
 132 0060 764D     		ldr	r5, .L37+4
 133              	.LVL9:
 134              	.L11:
 135              		.loc 1 90 9 is_stmt 0 discriminator 4 view .LVU34
 136 0062 2946     		mov	r1, r5
 137 0064 FFF7FEFF 		bl	lv_label_set_text
 138              	.LVL10:
ARM GAS  C:\Users\ADMINI~1\AppData\Local\Temp\ccxvSaAM.s 			page 5


  91:Middlewares/LVGL/GUI/lvgl/src/extra/widgets/msgbox/lv_msgbox.c ****         lv_label_set_long_mode(mbox->title, LV_LABEL_LONG_SCROLL_CIRCULAR);
 139              		.loc 1 91 9 is_stmt 1 discriminator 4 view .LVU35
 140 0068 0321     		movs	r1, #3
 141 006a E06A     		ldr	r0, [r4, #44]
 142 006c FFF7FEFF 		bl	lv_label_set_long_mode
 143              	.LVL11:
  92:Middlewares/LVGL/GUI/lvgl/src/extra/widgets/msgbox/lv_msgbox.c ****         if(add_close_btn) lv_obj_set_flex_grow(mbox->title, 1);
 144              		.loc 1 92 9 discriminator 4 view .LVU36
 145              		.loc 1 92 11 is_stmt 0 discriminator 4 view .LVU37
 146 0070 B8F1000F 		cmp	r8, #0
 147 0074 4DD0     		beq	.L12
 148              		.loc 1 92 27 is_stmt 1 discriminator 1 view .LVU38
 149 0076 0121     		movs	r1, #1
 150 0078 E06A     		ldr	r0, [r4, #44]
 151 007a FFF7FEFF 		bl	lv_obj_set_flex_grow
 152              	.LVL12:
 153              	.L10:
  93:Middlewares/LVGL/GUI/lvgl/src/extra/widgets/msgbox/lv_msgbox.c ****         else lv_obj_set_width(mbox->title, LV_PCT(100));
  94:Middlewares/LVGL/GUI/lvgl/src/extra/widgets/msgbox/lv_msgbox.c ****     }
  95:Middlewares/LVGL/GUI/lvgl/src/extra/widgets/msgbox/lv_msgbox.c **** 
  96:Middlewares/LVGL/GUI/lvgl/src/extra/widgets/msgbox/lv_msgbox.c ****     if(add_close_btn) {
 154              		.loc 1 96 5 view .LVU39
 155              		.loc 1 96 7 is_stmt 0 view .LVU40
 156 007e B8F1000F 		cmp	r8, #0
 157 0082 4BD1     		bne	.L33
 158              	.L13:
  97:Middlewares/LVGL/GUI/lvgl/src/extra/widgets/msgbox/lv_msgbox.c ****         mbox->close_btn = lv_btn_create(obj);
  98:Middlewares/LVGL/GUI/lvgl/src/extra/widgets/msgbox/lv_msgbox.c ****         lv_obj_set_ext_click_area(mbox->close_btn, LV_DPX(10));
  99:Middlewares/LVGL/GUI/lvgl/src/extra/widgets/msgbox/lv_msgbox.c ****         lv_obj_add_event_cb(mbox->close_btn, msgbox_close_click_event_cb, LV_EVENT_CLICKED, NULL);
 100:Middlewares/LVGL/GUI/lvgl/src/extra/widgets/msgbox/lv_msgbox.c ****         lv_obj_t * label = lv_label_create(mbox->close_btn);
 101:Middlewares/LVGL/GUI/lvgl/src/extra/widgets/msgbox/lv_msgbox.c ****         lv_label_set_text(label, LV_SYMBOL_CLOSE);
 102:Middlewares/LVGL/GUI/lvgl/src/extra/widgets/msgbox/lv_msgbox.c ****         const lv_font_t * font = lv_obj_get_style_text_font(mbox->close_btn, LV_PART_MAIN);
 103:Middlewares/LVGL/GUI/lvgl/src/extra/widgets/msgbox/lv_msgbox.c ****         lv_coord_t close_btn_size = lv_font_get_line_height(font) + LV_DPX(10);
 104:Middlewares/LVGL/GUI/lvgl/src/extra/widgets/msgbox/lv_msgbox.c ****         lv_obj_set_size(mbox->close_btn, close_btn_size, close_btn_size);
 105:Middlewares/LVGL/GUI/lvgl/src/extra/widgets/msgbox/lv_msgbox.c ****         lv_obj_align(label, LV_ALIGN_CENTER, 0, 0);
 106:Middlewares/LVGL/GUI/lvgl/src/extra/widgets/msgbox/lv_msgbox.c ****     }
 107:Middlewares/LVGL/GUI/lvgl/src/extra/widgets/msgbox/lv_msgbox.c **** 
 108:Middlewares/LVGL/GUI/lvgl/src/extra/widgets/msgbox/lv_msgbox.c ****     mbox->content = lv_obj_class_create_obj(&lv_msgbox_content_class, obj);
 159              		.loc 1 108 5 is_stmt 1 view .LVU41
 160              		.loc 1 108 21 is_stmt 0 view .LVU42
 161 0084 2146     		mov	r1, r4
 162 0086 6E48     		ldr	r0, .L37+8
 163 0088 FFF7FEFF 		bl	lv_obj_class_create_obj
 164              	.LVL13:
 165              		.loc 1 108 19 view .LVU43
 166 008c 6063     		str	r0, [r4, #52]
 109:Middlewares/LVGL/GUI/lvgl/src/extra/widgets/msgbox/lv_msgbox.c **** 
 110:Middlewares/LVGL/GUI/lvgl/src/extra/widgets/msgbox/lv_msgbox.c ****     bool has_txt = txt && strlen(txt) > 0;
 167              		.loc 1 110 5 is_stmt 1 view .LVU44
 168              		.loc 1 110 24 is_stmt 0 view .LVU45
 169 008e 002F     		cmp	r7, #0
 170 0090 00F09B80 		beq	.L28
 171              		.loc 1 110 39 discriminator 1 view .LVU46
 172 0094 3B78     		ldrb	r3, [r7]	@ zero_extendqisi2
 173              		.loc 1 110 24 discriminator 1 view .LVU47
 174 0096 002B     		cmp	r3, #0
 175 0098 40F09980 		bne	.L29
ARM GAS  C:\Users\ADMINI~1\AppData\Local\Temp\ccxvSaAM.s 			page 6


 176              	.L16:
 177              	.LVL14:
 111:Middlewares/LVGL/GUI/lvgl/src/extra/widgets/msgbox/lv_msgbox.c ****     if(has_txt) {
 178              		.loc 1 111 5 is_stmt 1 discriminator 6 view .LVU48
 179              		.loc 1 111 7 is_stmt 0 discriminator 6 view .LVU49
 180 009c 002B     		cmp	r3, #0
 181 009e 40F09880 		bne	.L34
 182              	.LVL15:
 183              	.L17:
 112:Middlewares/LVGL/GUI/lvgl/src/extra/widgets/msgbox/lv_msgbox.c ****         mbox->text = lv_label_create(mbox->content);
 113:Middlewares/LVGL/GUI/lvgl/src/extra/widgets/msgbox/lv_msgbox.c ****         lv_label_set_text(mbox->text, txt);
 114:Middlewares/LVGL/GUI/lvgl/src/extra/widgets/msgbox/lv_msgbox.c ****         lv_label_set_long_mode(mbox->text, LV_LABEL_LONG_WRAP);
 115:Middlewares/LVGL/GUI/lvgl/src/extra/widgets/msgbox/lv_msgbox.c ****         lv_obj_set_width(mbox->text, lv_pct(100));
 116:Middlewares/LVGL/GUI/lvgl/src/extra/widgets/msgbox/lv_msgbox.c ****     }
 117:Middlewares/LVGL/GUI/lvgl/src/extra/widgets/msgbox/lv_msgbox.c **** 
 118:Middlewares/LVGL/GUI/lvgl/src/extra/widgets/msgbox/lv_msgbox.c ****     if(btn_txts) {
 184              		.loc 1 118 5 is_stmt 1 view .LVU50
 185              		.loc 1 118 7 is_stmt 0 view .LVU51
 186 00a2 002E     		cmp	r6, #0
 187 00a4 00F0C480 		beq	.L1
 188              	.LBB28:
 119:Middlewares/LVGL/GUI/lvgl/src/extra/widgets/msgbox/lv_msgbox.c ****         mbox->btns = lv_btnmatrix_create(obj);
 189              		.loc 1 119 9 is_stmt 1 view .LVU52
 190              		.loc 1 119 22 is_stmt 0 view .LVU53
 191 00a8 2046     		mov	r0, r4
 192 00aa FFF7FEFF 		bl	lv_btnmatrix_create
 193              	.LVL16:
 194              		.loc 1 119 20 view .LVU54
 195 00ae E063     		str	r0, [r4, #60]
 120:Middlewares/LVGL/GUI/lvgl/src/extra/widgets/msgbox/lv_msgbox.c ****         lv_btnmatrix_set_map(mbox->btns, btn_txts);
 196              		.loc 1 120 9 is_stmt 1 view .LVU55
 197 00b0 3146     		mov	r1, r6
 198 00b2 FFF7FEFF 		bl	lv_btnmatrix_set_map
 199              	.LVL17:
 121:Middlewares/LVGL/GUI/lvgl/src/extra/widgets/msgbox/lv_msgbox.c ****         lv_btnmatrix_set_btn_ctrl_all(mbox->btns, LV_BTNMATRIX_CTRL_CLICK_TRIG | LV_BTNMATRIX_CTRL_
 200              		.loc 1 121 9 view .LVU56
 201 00b6 4FF48871 		mov	r1, #272
 202 00ba E06B     		ldr	r0, [r4, #60]
 203 00bc FFF7FEFF 		bl	lv_btnmatrix_set_btn_ctrl_all
 204              	.LVL18:
 122:Middlewares/LVGL/GUI/lvgl/src/extra/widgets/msgbox/lv_msgbox.c **** 
 123:Middlewares/LVGL/GUI/lvgl/src/extra/widgets/msgbox/lv_msgbox.c ****         uint32_t btn_cnt = 0;
 205              		.loc 1 123 9 view .LVU57
 124:Middlewares/LVGL/GUI/lvgl/src/extra/widgets/msgbox/lv_msgbox.c ****         while(btn_txts[btn_cnt] && btn_txts[btn_cnt][0] != '\0') {
 206              		.loc 1 124 9 view .LVU58
 123:Middlewares/LVGL/GUI/lvgl/src/extra/widgets/msgbox/lv_msgbox.c ****         while(btn_txts[btn_cnt] && btn_txts[btn_cnt][0] != '\0') {
 207              		.loc 1 123 18 is_stmt 0 view .LVU59
 208 00c0 0025     		movs	r5, #0
 209              		.loc 1 124 14 view .LVU60
 210 00c2 96E0     		b	.L19
 211              	.LVL19:
 212              	.L31:
 213              		.loc 1 124 14 view .LVU61
 214              	.LBE28:
  67:Middlewares/LVGL/GUI/lvgl/src/extra/widgets/msgbox/lv_msgbox.c ****         parent = lv_obj_class_create_obj(&lv_msgbox_backdrop_class, lv_layer_top());
 215              		.loc 1 67 9 is_stmt 1 view .LVU62
  68:Middlewares/LVGL/GUI/lvgl/src/extra/widgets/msgbox/lv_msgbox.c ****         LV_ASSERT_MALLOC(parent);
ARM GAS  C:\Users\ADMINI~1\AppData\Local\Temp\ccxvSaAM.s 			page 7


 216              		.loc 1 68 9 view .LVU63
 217              	.LBB33:
 218              	.LBI33:
 219              		.file 2 "Middlewares/LVGL/GUI/lvgl/src/extra/widgets/msgbox/../../../../src/core/lv_disp.h"
   1:Middlewares/LVGL/GUI/lvgl/src/extra/widgets/msgbox/../../../../src/core/lv_disp.h **** /**
   2:Middlewares/LVGL/GUI/lvgl/src/extra/widgets/msgbox/../../../../src/core/lv_disp.h ****  * @file lv_disp.h
   3:Middlewares/LVGL/GUI/lvgl/src/extra/widgets/msgbox/../../../../src/core/lv_disp.h ****  *
   4:Middlewares/LVGL/GUI/lvgl/src/extra/widgets/msgbox/../../../../src/core/lv_disp.h ****  */
   5:Middlewares/LVGL/GUI/lvgl/src/extra/widgets/msgbox/../../../../src/core/lv_disp.h **** 
   6:Middlewares/LVGL/GUI/lvgl/src/extra/widgets/msgbox/../../../../src/core/lv_disp.h **** #ifndef LV_DISP_H
   7:Middlewares/LVGL/GUI/lvgl/src/extra/widgets/msgbox/../../../../src/core/lv_disp.h **** #define LV_DISP_H
   8:Middlewares/LVGL/GUI/lvgl/src/extra/widgets/msgbox/../../../../src/core/lv_disp.h **** 
   9:Middlewares/LVGL/GUI/lvgl/src/extra/widgets/msgbox/../../../../src/core/lv_disp.h **** #ifdef __cplusplus
  10:Middlewares/LVGL/GUI/lvgl/src/extra/widgets/msgbox/../../../../src/core/lv_disp.h **** extern "C" {
  11:Middlewares/LVGL/GUI/lvgl/src/extra/widgets/msgbox/../../../../src/core/lv_disp.h **** #endif
  12:Middlewares/LVGL/GUI/lvgl/src/extra/widgets/msgbox/../../../../src/core/lv_disp.h **** 
  13:Middlewares/LVGL/GUI/lvgl/src/extra/widgets/msgbox/../../../../src/core/lv_disp.h **** /*********************
  14:Middlewares/LVGL/GUI/lvgl/src/extra/widgets/msgbox/../../../../src/core/lv_disp.h ****  *      INCLUDES
  15:Middlewares/LVGL/GUI/lvgl/src/extra/widgets/msgbox/../../../../src/core/lv_disp.h ****  *********************/
  16:Middlewares/LVGL/GUI/lvgl/src/extra/widgets/msgbox/../../../../src/core/lv_disp.h **** #include "../hal/lv_hal.h"
  17:Middlewares/LVGL/GUI/lvgl/src/extra/widgets/msgbox/../../../../src/core/lv_disp.h **** #include "lv_obj.h"
  18:Middlewares/LVGL/GUI/lvgl/src/extra/widgets/msgbox/../../../../src/core/lv_disp.h **** #include "lv_theme.h"
  19:Middlewares/LVGL/GUI/lvgl/src/extra/widgets/msgbox/../../../../src/core/lv_disp.h **** 
  20:Middlewares/LVGL/GUI/lvgl/src/extra/widgets/msgbox/../../../../src/core/lv_disp.h **** /*********************
  21:Middlewares/LVGL/GUI/lvgl/src/extra/widgets/msgbox/../../../../src/core/lv_disp.h ****  *      DEFINES
  22:Middlewares/LVGL/GUI/lvgl/src/extra/widgets/msgbox/../../../../src/core/lv_disp.h ****  *********************/
  23:Middlewares/LVGL/GUI/lvgl/src/extra/widgets/msgbox/../../../../src/core/lv_disp.h **** 
  24:Middlewares/LVGL/GUI/lvgl/src/extra/widgets/msgbox/../../../../src/core/lv_disp.h **** /**********************
  25:Middlewares/LVGL/GUI/lvgl/src/extra/widgets/msgbox/../../../../src/core/lv_disp.h ****  *      TYPEDEFS
  26:Middlewares/LVGL/GUI/lvgl/src/extra/widgets/msgbox/../../../../src/core/lv_disp.h ****  **********************/
  27:Middlewares/LVGL/GUI/lvgl/src/extra/widgets/msgbox/../../../../src/core/lv_disp.h **** 
  28:Middlewares/LVGL/GUI/lvgl/src/extra/widgets/msgbox/../../../../src/core/lv_disp.h **** typedef enum {
  29:Middlewares/LVGL/GUI/lvgl/src/extra/widgets/msgbox/../../../../src/core/lv_disp.h ****     LV_SCR_LOAD_ANIM_NONE,
  30:Middlewares/LVGL/GUI/lvgl/src/extra/widgets/msgbox/../../../../src/core/lv_disp.h ****     LV_SCR_LOAD_ANIM_OVER_LEFT,
  31:Middlewares/LVGL/GUI/lvgl/src/extra/widgets/msgbox/../../../../src/core/lv_disp.h ****     LV_SCR_LOAD_ANIM_OVER_RIGHT,
  32:Middlewares/LVGL/GUI/lvgl/src/extra/widgets/msgbox/../../../../src/core/lv_disp.h ****     LV_SCR_LOAD_ANIM_OVER_TOP,
  33:Middlewares/LVGL/GUI/lvgl/src/extra/widgets/msgbox/../../../../src/core/lv_disp.h ****     LV_SCR_LOAD_ANIM_OVER_BOTTOM,
  34:Middlewares/LVGL/GUI/lvgl/src/extra/widgets/msgbox/../../../../src/core/lv_disp.h ****     LV_SCR_LOAD_ANIM_MOVE_LEFT,
  35:Middlewares/LVGL/GUI/lvgl/src/extra/widgets/msgbox/../../../../src/core/lv_disp.h ****     LV_SCR_LOAD_ANIM_MOVE_RIGHT,
  36:Middlewares/LVGL/GUI/lvgl/src/extra/widgets/msgbox/../../../../src/core/lv_disp.h ****     LV_SCR_LOAD_ANIM_MOVE_TOP,
  37:Middlewares/LVGL/GUI/lvgl/src/extra/widgets/msgbox/../../../../src/core/lv_disp.h ****     LV_SCR_LOAD_ANIM_MOVE_BOTTOM,
  38:Middlewares/LVGL/GUI/lvgl/src/extra/widgets/msgbox/../../../../src/core/lv_disp.h ****     LV_SCR_LOAD_ANIM_FADE_ON,
  39:Middlewares/LVGL/GUI/lvgl/src/extra/widgets/msgbox/../../../../src/core/lv_disp.h **** } lv_scr_load_anim_t;
  40:Middlewares/LVGL/GUI/lvgl/src/extra/widgets/msgbox/../../../../src/core/lv_disp.h **** 
  41:Middlewares/LVGL/GUI/lvgl/src/extra/widgets/msgbox/../../../../src/core/lv_disp.h **** /**********************
  42:Middlewares/LVGL/GUI/lvgl/src/extra/widgets/msgbox/../../../../src/core/lv_disp.h ****  * GLOBAL PROTOTYPES
  43:Middlewares/LVGL/GUI/lvgl/src/extra/widgets/msgbox/../../../../src/core/lv_disp.h ****  **********************/
  44:Middlewares/LVGL/GUI/lvgl/src/extra/widgets/msgbox/../../../../src/core/lv_disp.h **** 
  45:Middlewares/LVGL/GUI/lvgl/src/extra/widgets/msgbox/../../../../src/core/lv_disp.h **** /**
  46:Middlewares/LVGL/GUI/lvgl/src/extra/widgets/msgbox/../../../../src/core/lv_disp.h ****  * Return with a pointer to the active screen
  47:Middlewares/LVGL/GUI/lvgl/src/extra/widgets/msgbox/../../../../src/core/lv_disp.h ****  * @param disp pointer to display which active screen should be get. (NULL to use the default
  48:Middlewares/LVGL/GUI/lvgl/src/extra/widgets/msgbox/../../../../src/core/lv_disp.h ****  * screen)
  49:Middlewares/LVGL/GUI/lvgl/src/extra/widgets/msgbox/../../../../src/core/lv_disp.h ****  * @return pointer to the active screen object (loaded by 'lv_scr_load()')
  50:Middlewares/LVGL/GUI/lvgl/src/extra/widgets/msgbox/../../../../src/core/lv_disp.h ****  */
  51:Middlewares/LVGL/GUI/lvgl/src/extra/widgets/msgbox/../../../../src/core/lv_disp.h **** lv_obj_t * lv_disp_get_scr_act(lv_disp_t * disp);
  52:Middlewares/LVGL/GUI/lvgl/src/extra/widgets/msgbox/../../../../src/core/lv_disp.h **** 
  53:Middlewares/LVGL/GUI/lvgl/src/extra/widgets/msgbox/../../../../src/core/lv_disp.h **** /**
ARM GAS  C:\Users\ADMINI~1\AppData\Local\Temp\ccxvSaAM.s 			page 8


  54:Middlewares/LVGL/GUI/lvgl/src/extra/widgets/msgbox/../../../../src/core/lv_disp.h ****  * Return with a pointer to the previous screen. Only used during screen transitions.
  55:Middlewares/LVGL/GUI/lvgl/src/extra/widgets/msgbox/../../../../src/core/lv_disp.h ****  * @param disp pointer to display which previous screen should be get. (NULL to use the default
  56:Middlewares/LVGL/GUI/lvgl/src/extra/widgets/msgbox/../../../../src/core/lv_disp.h ****  * screen)
  57:Middlewares/LVGL/GUI/lvgl/src/extra/widgets/msgbox/../../../../src/core/lv_disp.h ****  * @return pointer to the previous screen object or NULL if not used now
  58:Middlewares/LVGL/GUI/lvgl/src/extra/widgets/msgbox/../../../../src/core/lv_disp.h ****  */
  59:Middlewares/LVGL/GUI/lvgl/src/extra/widgets/msgbox/../../../../src/core/lv_disp.h **** lv_obj_t * lv_disp_get_scr_prev(lv_disp_t * disp);
  60:Middlewares/LVGL/GUI/lvgl/src/extra/widgets/msgbox/../../../../src/core/lv_disp.h **** 
  61:Middlewares/LVGL/GUI/lvgl/src/extra/widgets/msgbox/../../../../src/core/lv_disp.h **** /**
  62:Middlewares/LVGL/GUI/lvgl/src/extra/widgets/msgbox/../../../../src/core/lv_disp.h ****  * Make a screen active
  63:Middlewares/LVGL/GUI/lvgl/src/extra/widgets/msgbox/../../../../src/core/lv_disp.h ****  * @param scr pointer to a screen
  64:Middlewares/LVGL/GUI/lvgl/src/extra/widgets/msgbox/../../../../src/core/lv_disp.h ****  */
  65:Middlewares/LVGL/GUI/lvgl/src/extra/widgets/msgbox/../../../../src/core/lv_disp.h **** void lv_disp_load_scr(lv_obj_t * scr);
  66:Middlewares/LVGL/GUI/lvgl/src/extra/widgets/msgbox/../../../../src/core/lv_disp.h **** 
  67:Middlewares/LVGL/GUI/lvgl/src/extra/widgets/msgbox/../../../../src/core/lv_disp.h **** /**
  68:Middlewares/LVGL/GUI/lvgl/src/extra/widgets/msgbox/../../../../src/core/lv_disp.h ****  * Return with the top layer. (Same on every screen and it is above the normal screen layer)
  69:Middlewares/LVGL/GUI/lvgl/src/extra/widgets/msgbox/../../../../src/core/lv_disp.h ****  * @param disp pointer to display which top layer should be get. (NULL to use the default screen)
  70:Middlewares/LVGL/GUI/lvgl/src/extra/widgets/msgbox/../../../../src/core/lv_disp.h ****  * @return pointer to the top layer object (transparent screen sized lv_obj)
  71:Middlewares/LVGL/GUI/lvgl/src/extra/widgets/msgbox/../../../../src/core/lv_disp.h ****  */
  72:Middlewares/LVGL/GUI/lvgl/src/extra/widgets/msgbox/../../../../src/core/lv_disp.h **** lv_obj_t * lv_disp_get_layer_top(lv_disp_t * disp);
  73:Middlewares/LVGL/GUI/lvgl/src/extra/widgets/msgbox/../../../../src/core/lv_disp.h **** 
  74:Middlewares/LVGL/GUI/lvgl/src/extra/widgets/msgbox/../../../../src/core/lv_disp.h **** /**
  75:Middlewares/LVGL/GUI/lvgl/src/extra/widgets/msgbox/../../../../src/core/lv_disp.h ****  * Return with the sys. layer. (Same on every screen and it is above the normal screen and the top
  76:Middlewares/LVGL/GUI/lvgl/src/extra/widgets/msgbox/../../../../src/core/lv_disp.h ****  * layer)
  77:Middlewares/LVGL/GUI/lvgl/src/extra/widgets/msgbox/../../../../src/core/lv_disp.h ****  * @param disp pointer to display which sys. layer should be retrieved. (NULL to use the default sc
  78:Middlewares/LVGL/GUI/lvgl/src/extra/widgets/msgbox/../../../../src/core/lv_disp.h ****  * @return pointer to the sys layer object (transparent screen sized lv_obj)
  79:Middlewares/LVGL/GUI/lvgl/src/extra/widgets/msgbox/../../../../src/core/lv_disp.h ****  */
  80:Middlewares/LVGL/GUI/lvgl/src/extra/widgets/msgbox/../../../../src/core/lv_disp.h **** lv_obj_t * lv_disp_get_layer_sys(lv_disp_t * disp);
  81:Middlewares/LVGL/GUI/lvgl/src/extra/widgets/msgbox/../../../../src/core/lv_disp.h **** 
  82:Middlewares/LVGL/GUI/lvgl/src/extra/widgets/msgbox/../../../../src/core/lv_disp.h **** /**
  83:Middlewares/LVGL/GUI/lvgl/src/extra/widgets/msgbox/../../../../src/core/lv_disp.h ****  * Set the theme of a display
  84:Middlewares/LVGL/GUI/lvgl/src/extra/widgets/msgbox/../../../../src/core/lv_disp.h ****  * @param disp pointer to a display
  85:Middlewares/LVGL/GUI/lvgl/src/extra/widgets/msgbox/../../../../src/core/lv_disp.h ****  */
  86:Middlewares/LVGL/GUI/lvgl/src/extra/widgets/msgbox/../../../../src/core/lv_disp.h **** void lv_disp_set_theme(lv_disp_t * disp, lv_theme_t * th);
  87:Middlewares/LVGL/GUI/lvgl/src/extra/widgets/msgbox/../../../../src/core/lv_disp.h **** 
  88:Middlewares/LVGL/GUI/lvgl/src/extra/widgets/msgbox/../../../../src/core/lv_disp.h **** /**
  89:Middlewares/LVGL/GUI/lvgl/src/extra/widgets/msgbox/../../../../src/core/lv_disp.h ****  * Get the theme of a display
  90:Middlewares/LVGL/GUI/lvgl/src/extra/widgets/msgbox/../../../../src/core/lv_disp.h ****  * @param disp pointer to a display
  91:Middlewares/LVGL/GUI/lvgl/src/extra/widgets/msgbox/../../../../src/core/lv_disp.h ****  * @return the display's theme (can be NULL)
  92:Middlewares/LVGL/GUI/lvgl/src/extra/widgets/msgbox/../../../../src/core/lv_disp.h ****  */
  93:Middlewares/LVGL/GUI/lvgl/src/extra/widgets/msgbox/../../../../src/core/lv_disp.h **** lv_theme_t * lv_disp_get_theme(lv_disp_t * disp);
  94:Middlewares/LVGL/GUI/lvgl/src/extra/widgets/msgbox/../../../../src/core/lv_disp.h **** 
  95:Middlewares/LVGL/GUI/lvgl/src/extra/widgets/msgbox/../../../../src/core/lv_disp.h **** /**
  96:Middlewares/LVGL/GUI/lvgl/src/extra/widgets/msgbox/../../../../src/core/lv_disp.h ****  * Set the background color of a display
  97:Middlewares/LVGL/GUI/lvgl/src/extra/widgets/msgbox/../../../../src/core/lv_disp.h ****  * @param disp pointer to a display
  98:Middlewares/LVGL/GUI/lvgl/src/extra/widgets/msgbox/../../../../src/core/lv_disp.h ****  * @param color color of the background
  99:Middlewares/LVGL/GUI/lvgl/src/extra/widgets/msgbox/../../../../src/core/lv_disp.h ****  */
 100:Middlewares/LVGL/GUI/lvgl/src/extra/widgets/msgbox/../../../../src/core/lv_disp.h **** void lv_disp_set_bg_color(lv_disp_t * disp, lv_color_t color);
 101:Middlewares/LVGL/GUI/lvgl/src/extra/widgets/msgbox/../../../../src/core/lv_disp.h **** 
 102:Middlewares/LVGL/GUI/lvgl/src/extra/widgets/msgbox/../../../../src/core/lv_disp.h **** /**
 103:Middlewares/LVGL/GUI/lvgl/src/extra/widgets/msgbox/../../../../src/core/lv_disp.h ****  * Set the background image of a display
 104:Middlewares/LVGL/GUI/lvgl/src/extra/widgets/msgbox/../../../../src/core/lv_disp.h ****  * @param disp pointer to a display
 105:Middlewares/LVGL/GUI/lvgl/src/extra/widgets/msgbox/../../../../src/core/lv_disp.h ****  * @param img_src path to file or pointer to an `lv_img_dsc_t` variable
 106:Middlewares/LVGL/GUI/lvgl/src/extra/widgets/msgbox/../../../../src/core/lv_disp.h ****  */
 107:Middlewares/LVGL/GUI/lvgl/src/extra/widgets/msgbox/../../../../src/core/lv_disp.h **** void lv_disp_set_bg_image(lv_disp_t * disp, const void  * img_src);
 108:Middlewares/LVGL/GUI/lvgl/src/extra/widgets/msgbox/../../../../src/core/lv_disp.h **** 
 109:Middlewares/LVGL/GUI/lvgl/src/extra/widgets/msgbox/../../../../src/core/lv_disp.h **** /**
 110:Middlewares/LVGL/GUI/lvgl/src/extra/widgets/msgbox/../../../../src/core/lv_disp.h ****  * Set opacity of the background
ARM GAS  C:\Users\ADMINI~1\AppData\Local\Temp\ccxvSaAM.s 			page 9


 111:Middlewares/LVGL/GUI/lvgl/src/extra/widgets/msgbox/../../../../src/core/lv_disp.h ****  * @param disp pointer to a display
 112:Middlewares/LVGL/GUI/lvgl/src/extra/widgets/msgbox/../../../../src/core/lv_disp.h ****  * @param opa opacity (0..255)
 113:Middlewares/LVGL/GUI/lvgl/src/extra/widgets/msgbox/../../../../src/core/lv_disp.h ****  */
 114:Middlewares/LVGL/GUI/lvgl/src/extra/widgets/msgbox/../../../../src/core/lv_disp.h **** void lv_disp_set_bg_opa(lv_disp_t * disp, lv_opa_t opa);
 115:Middlewares/LVGL/GUI/lvgl/src/extra/widgets/msgbox/../../../../src/core/lv_disp.h **** 
 116:Middlewares/LVGL/GUI/lvgl/src/extra/widgets/msgbox/../../../../src/core/lv_disp.h **** /**
 117:Middlewares/LVGL/GUI/lvgl/src/extra/widgets/msgbox/../../../../src/core/lv_disp.h ****  * Switch screen with animation
 118:Middlewares/LVGL/GUI/lvgl/src/extra/widgets/msgbox/../../../../src/core/lv_disp.h ****  * @param scr pointer to the new screen to load
 119:Middlewares/LVGL/GUI/lvgl/src/extra/widgets/msgbox/../../../../src/core/lv_disp.h ****  * @param anim_type type of the animation from `lv_scr_load_anim_t`. E.g.  `LV_SCR_LOAD_ANIM_MOVE_L
 120:Middlewares/LVGL/GUI/lvgl/src/extra/widgets/msgbox/../../../../src/core/lv_disp.h ****  * @param time time of the animation
 121:Middlewares/LVGL/GUI/lvgl/src/extra/widgets/msgbox/../../../../src/core/lv_disp.h ****  * @param delay delay before the transition
 122:Middlewares/LVGL/GUI/lvgl/src/extra/widgets/msgbox/../../../../src/core/lv_disp.h ****  * @param auto_del true: automatically delete the old screen
 123:Middlewares/LVGL/GUI/lvgl/src/extra/widgets/msgbox/../../../../src/core/lv_disp.h ****  */
 124:Middlewares/LVGL/GUI/lvgl/src/extra/widgets/msgbox/../../../../src/core/lv_disp.h **** void lv_scr_load_anim(lv_obj_t * scr, lv_scr_load_anim_t anim_type, uint32_t time, uint32_t delay, 
 125:Middlewares/LVGL/GUI/lvgl/src/extra/widgets/msgbox/../../../../src/core/lv_disp.h **** 
 126:Middlewares/LVGL/GUI/lvgl/src/extra/widgets/msgbox/../../../../src/core/lv_disp.h **** /**
 127:Middlewares/LVGL/GUI/lvgl/src/extra/widgets/msgbox/../../../../src/core/lv_disp.h ****  * Get elapsed time since last user activity on a display (e.g. click)
 128:Middlewares/LVGL/GUI/lvgl/src/extra/widgets/msgbox/../../../../src/core/lv_disp.h ****  * @param disp pointer to a display (NULL to get the overall smallest inactivity)
 129:Middlewares/LVGL/GUI/lvgl/src/extra/widgets/msgbox/../../../../src/core/lv_disp.h ****  * @return elapsed ticks (milliseconds) since the last activity
 130:Middlewares/LVGL/GUI/lvgl/src/extra/widgets/msgbox/../../../../src/core/lv_disp.h ****  */
 131:Middlewares/LVGL/GUI/lvgl/src/extra/widgets/msgbox/../../../../src/core/lv_disp.h **** uint32_t lv_disp_get_inactive_time(const lv_disp_t * disp);
 132:Middlewares/LVGL/GUI/lvgl/src/extra/widgets/msgbox/../../../../src/core/lv_disp.h **** 
 133:Middlewares/LVGL/GUI/lvgl/src/extra/widgets/msgbox/../../../../src/core/lv_disp.h **** /**
 134:Middlewares/LVGL/GUI/lvgl/src/extra/widgets/msgbox/../../../../src/core/lv_disp.h ****  * Manually trigger an activity on a display
 135:Middlewares/LVGL/GUI/lvgl/src/extra/widgets/msgbox/../../../../src/core/lv_disp.h ****  * @param disp pointer to a display (NULL to use the default display)
 136:Middlewares/LVGL/GUI/lvgl/src/extra/widgets/msgbox/../../../../src/core/lv_disp.h ****  */
 137:Middlewares/LVGL/GUI/lvgl/src/extra/widgets/msgbox/../../../../src/core/lv_disp.h **** void lv_disp_trig_activity(lv_disp_t * disp);
 138:Middlewares/LVGL/GUI/lvgl/src/extra/widgets/msgbox/../../../../src/core/lv_disp.h **** 
 139:Middlewares/LVGL/GUI/lvgl/src/extra/widgets/msgbox/../../../../src/core/lv_disp.h **** /**
 140:Middlewares/LVGL/GUI/lvgl/src/extra/widgets/msgbox/../../../../src/core/lv_disp.h ****  * Clean any CPU cache that is related to the display.
 141:Middlewares/LVGL/GUI/lvgl/src/extra/widgets/msgbox/../../../../src/core/lv_disp.h ****  * @param disp pointer to a display (NULL to use the default display)
 142:Middlewares/LVGL/GUI/lvgl/src/extra/widgets/msgbox/../../../../src/core/lv_disp.h ****  */
 143:Middlewares/LVGL/GUI/lvgl/src/extra/widgets/msgbox/../../../../src/core/lv_disp.h **** void lv_disp_clean_dcache(lv_disp_t * disp);
 144:Middlewares/LVGL/GUI/lvgl/src/extra/widgets/msgbox/../../../../src/core/lv_disp.h **** 
 145:Middlewares/LVGL/GUI/lvgl/src/extra/widgets/msgbox/../../../../src/core/lv_disp.h **** /**
 146:Middlewares/LVGL/GUI/lvgl/src/extra/widgets/msgbox/../../../../src/core/lv_disp.h ****  * Get a pointer to the screen refresher timer to
 147:Middlewares/LVGL/GUI/lvgl/src/extra/widgets/msgbox/../../../../src/core/lv_disp.h ****  * modify its parameters with `lv_timer_...` functions.
 148:Middlewares/LVGL/GUI/lvgl/src/extra/widgets/msgbox/../../../../src/core/lv_disp.h ****  * @param disp pointer to a display
 149:Middlewares/LVGL/GUI/lvgl/src/extra/widgets/msgbox/../../../../src/core/lv_disp.h ****  * @return pointer to the display refresher timer. (NULL on error)
 150:Middlewares/LVGL/GUI/lvgl/src/extra/widgets/msgbox/../../../../src/core/lv_disp.h ****  */
 151:Middlewares/LVGL/GUI/lvgl/src/extra/widgets/msgbox/../../../../src/core/lv_disp.h **** lv_timer_t * _lv_disp_get_refr_timer(lv_disp_t * disp);
 152:Middlewares/LVGL/GUI/lvgl/src/extra/widgets/msgbox/../../../../src/core/lv_disp.h **** 
 153:Middlewares/LVGL/GUI/lvgl/src/extra/widgets/msgbox/../../../../src/core/lv_disp.h **** /*------------------------------------------------
 154:Middlewares/LVGL/GUI/lvgl/src/extra/widgets/msgbox/../../../../src/core/lv_disp.h ****  * To improve backward compatibility
 155:Middlewares/LVGL/GUI/lvgl/src/extra/widgets/msgbox/../../../../src/core/lv_disp.h ****  * Recommended only if you have one display
 156:Middlewares/LVGL/GUI/lvgl/src/extra/widgets/msgbox/../../../../src/core/lv_disp.h ****  *------------------------------------------------*/
 157:Middlewares/LVGL/GUI/lvgl/src/extra/widgets/msgbox/../../../../src/core/lv_disp.h **** 
 158:Middlewares/LVGL/GUI/lvgl/src/extra/widgets/msgbox/../../../../src/core/lv_disp.h **** /**
 159:Middlewares/LVGL/GUI/lvgl/src/extra/widgets/msgbox/../../../../src/core/lv_disp.h ****  * Get the active screen of the default display
 160:Middlewares/LVGL/GUI/lvgl/src/extra/widgets/msgbox/../../../../src/core/lv_disp.h ****  * @return pointer to the active screen
 161:Middlewares/LVGL/GUI/lvgl/src/extra/widgets/msgbox/../../../../src/core/lv_disp.h ****  */
 162:Middlewares/LVGL/GUI/lvgl/src/extra/widgets/msgbox/../../../../src/core/lv_disp.h **** static inline lv_obj_t * lv_scr_act(void)
 163:Middlewares/LVGL/GUI/lvgl/src/extra/widgets/msgbox/../../../../src/core/lv_disp.h **** {
 164:Middlewares/LVGL/GUI/lvgl/src/extra/widgets/msgbox/../../../../src/core/lv_disp.h ****     return lv_disp_get_scr_act(lv_disp_get_default());
 165:Middlewares/LVGL/GUI/lvgl/src/extra/widgets/msgbox/../../../../src/core/lv_disp.h **** }
 166:Middlewares/LVGL/GUI/lvgl/src/extra/widgets/msgbox/../../../../src/core/lv_disp.h **** 
 167:Middlewares/LVGL/GUI/lvgl/src/extra/widgets/msgbox/../../../../src/core/lv_disp.h **** /**
ARM GAS  C:\Users\ADMINI~1\AppData\Local\Temp\ccxvSaAM.s 			page 10


 168:Middlewares/LVGL/GUI/lvgl/src/extra/widgets/msgbox/../../../../src/core/lv_disp.h ****  * Get the top layer  of the default display
 169:Middlewares/LVGL/GUI/lvgl/src/extra/widgets/msgbox/../../../../src/core/lv_disp.h ****  * @return pointer to the top layer
 170:Middlewares/LVGL/GUI/lvgl/src/extra/widgets/msgbox/../../../../src/core/lv_disp.h ****  */
 171:Middlewares/LVGL/GUI/lvgl/src/extra/widgets/msgbox/../../../../src/core/lv_disp.h **** static inline lv_obj_t * lv_layer_top(void)
 220              		.loc 2 171 26 view .LVU64
 221              	.LBB34:
 172:Middlewares/LVGL/GUI/lvgl/src/extra/widgets/msgbox/../../../../src/core/lv_disp.h **** {
 173:Middlewares/LVGL/GUI/lvgl/src/extra/widgets/msgbox/../../../../src/core/lv_disp.h ****     return lv_disp_get_layer_top(lv_disp_get_default());
 222              		.loc 2 173 5 view .LVU65
 223              		.loc 2 173 12 is_stmt 0 view .LVU66
 224 00c4 FFF7FEFF 		bl	lv_disp_get_default
 225              	.LVL20:
 226              		.loc 2 173 12 view .LVU67
 227 00c8 FFF7FEFF 		bl	lv_disp_get_layer_top
 228              	.LVL21:
 229 00cc 0146     		mov	r1, r0
 230              	.LBE34:
 231              	.LBE33:
  68:Middlewares/LVGL/GUI/lvgl/src/extra/widgets/msgbox/lv_msgbox.c ****         LV_ASSERT_MALLOC(parent);
 232              		.loc 1 68 18 view .LVU68
 233 00ce 5D48     		ldr	r0, .L37+12
 234 00d0 FFF7FEFF 		bl	lv_obj_class_create_obj
 235              	.LVL22:
  69:Middlewares/LVGL/GUI/lvgl/src/extra/widgets/msgbox/lv_msgbox.c ****         lv_obj_class_init_obj(parent);
 236              		.loc 1 69 9 is_stmt 1 view .LVU69
  69:Middlewares/LVGL/GUI/lvgl/src/extra/widgets/msgbox/lv_msgbox.c ****         lv_obj_class_init_obj(parent);
 237              		.loc 1 69 9 view .LVU70
 238 00d4 0446     		mov	r4, r0
 239 00d6 70B1     		cbz	r0, .L4
  69:Middlewares/LVGL/GUI/lvgl/src/extra/widgets/msgbox/lv_msgbox.c ****         lv_obj_class_init_obj(parent);
 240              		.loc 1 69 9 discriminator 2 view .LVU71
  69:Middlewares/LVGL/GUI/lvgl/src/extra/widgets/msgbox/lv_msgbox.c ****         lv_obj_class_init_obj(parent);
 241              		.loc 1 69 33 discriminator 2 view .LVU72
  70:Middlewares/LVGL/GUI/lvgl/src/extra/widgets/msgbox/lv_msgbox.c ****         lv_obj_clear_flag(parent, LV_OBJ_FLAG_IGNORE_LAYOUT);
 242              		.loc 1 70 9 discriminator 2 view .LVU73
 243 00d8 FFF7FEFF 		bl	lv_obj_class_init_obj
 244              	.LVL23:
  71:Middlewares/LVGL/GUI/lvgl/src/extra/widgets/msgbox/lv_msgbox.c ****         lv_obj_set_size(parent, LV_PCT(100), LV_PCT(100));
 245              		.loc 1 71 9 discriminator 2 view .LVU74
 246 00dc 4FF40031 		mov	r1, #131072
 247 00e0 2046     		mov	r0, r4
 248 00e2 FFF7FEFF 		bl	lv_obj_clear_flag
 249              	.LVL24:
  72:Middlewares/LVGL/GUI/lvgl/src/extra/widgets/msgbox/lv_msgbox.c ****     }
 250              		.loc 1 72 9 discriminator 2 view .LVU75
 251 00e6 5849     		ldr	r1, .L37+16
 252 00e8 0A46     		mov	r2, r1
 253 00ea 2046     		mov	r0, r4
 254 00ec FFF7FEFF 		bl	lv_obj_set_size
 255              	.LVL25:
  67:Middlewares/LVGL/GUI/lvgl/src/extra/widgets/msgbox/lv_msgbox.c ****         parent = lv_obj_class_create_obj(&lv_msgbox_backdrop_class, lv_layer_top());
 256              		.loc 1 67 21 is_stmt 0 discriminator 2 view .LVU76
 257 00f0 4FF00109 		mov	r9, #1
 258 00f4 90E7     		b	.L2
 259              	.LVL26:
 260              	.L4:
  69:Middlewares/LVGL/GUI/lvgl/src/extra/widgets/msgbox/lv_msgbox.c ****         lv_obj_class_init_obj(parent);
ARM GAS  C:\Users\ADMINI~1\AppData\Local\Temp\ccxvSaAM.s 			page 11


 261              		.loc 1 69 9 is_stmt 1 discriminator 1 view .LVU77
  69:Middlewares/LVGL/GUI/lvgl/src/extra/widgets/msgbox/lv_msgbox.c ****         lv_obj_class_init_obj(parent);
 262              		.loc 1 69 9 discriminator 1 view .LVU78
  69:Middlewares/LVGL/GUI/lvgl/src/extra/widgets/msgbox/lv_msgbox.c ****         lv_obj_class_init_obj(parent);
 263              		.loc 1 69 9 discriminator 1 view .LVU79
  69:Middlewares/LVGL/GUI/lvgl/src/extra/widgets/msgbox/lv_msgbox.c ****         lv_obj_class_init_obj(parent);
 264              		.loc 1 69 9 discriminator 1 view .LVU80
  69:Middlewares/LVGL/GUI/lvgl/src/extra/widgets/msgbox/lv_msgbox.c ****         lv_obj_class_init_obj(parent);
 265              		.loc 1 69 9 discriminator 1 view .LVU81
  69:Middlewares/LVGL/GUI/lvgl/src/extra/widgets/msgbox/lv_msgbox.c ****         lv_obj_class_init_obj(parent);
 266              		.loc 1 69 9 discriminator 1 view .LVU82
 267 00f6 FEE7     		b	.L4
 268              	.LVL27:
 269              	.L6:
  76:Middlewares/LVGL/GUI/lvgl/src/extra/widgets/msgbox/lv_msgbox.c ****     lv_obj_class_init_obj(obj);
 270              		.loc 1 76 5 discriminator 2 view .LVU83
  76:Middlewares/LVGL/GUI/lvgl/src/extra/widgets/msgbox/lv_msgbox.c ****     lv_obj_class_init_obj(obj);
 271              		.loc 1 76 5 discriminator 2 view .LVU84
  76:Middlewares/LVGL/GUI/lvgl/src/extra/widgets/msgbox/lv_msgbox.c ****     lv_obj_class_init_obj(obj);
 272              		.loc 1 76 5 discriminator 2 view .LVU85
  76:Middlewares/LVGL/GUI/lvgl/src/extra/widgets/msgbox/lv_msgbox.c ****     lv_obj_class_init_obj(obj);
 273              		.loc 1 76 5 discriminator 2 view .LVU86
  76:Middlewares/LVGL/GUI/lvgl/src/extra/widgets/msgbox/lv_msgbox.c ****     lv_obj_class_init_obj(obj);
 274              		.loc 1 76 5 discriminator 2 view .LVU87
  76:Middlewares/LVGL/GUI/lvgl/src/extra/widgets/msgbox/lv_msgbox.c ****     lv_obj_class_init_obj(obj);
 275              		.loc 1 76 5 discriminator 2 view .LVU88
 276 00f8 FEE7     		b	.L6
 277              	.LVL28:
 278              	.L32:
  81:Middlewares/LVGL/GUI/lvgl/src/extra/widgets/msgbox/lv_msgbox.c **** 
 279              		.loc 1 81 21 discriminator 1 view .LVU89
 280 00fa 4FF00071 		mov	r1, #33554432
 281 00fe 2046     		mov	r0, r4
 282 0100 FFF7FEFF 		bl	lv_obj_add_flag
 283              	.LVL29:
 284 0104 94E7     		b	.L7
 285              	.L23:
  85:Middlewares/LVGL/GUI/lvgl/src/extra/widgets/msgbox/lv_msgbox.c **** 
 286              		.loc 1 85 28 is_stmt 0 view .LVU90
 287 0106 4FF00009 		mov	r9, #0
 288              	.LVL30:
  85:Middlewares/LVGL/GUI/lvgl/src/extra/widgets/msgbox/lv_msgbox.c **** 
 289              		.loc 1 85 28 view .LVU91
 290 010a 9CE7     		b	.L8
 291              	.LVL31:
 292              	.L24:
  85:Middlewares/LVGL/GUI/lvgl/src/extra/widgets/msgbox/lv_msgbox.c **** 
 293              		.loc 1 85 28 view .LVU92
 294 010c 4FF00109 		mov	r9, #1
 295              	.LVL32:
  85:Middlewares/LVGL/GUI/lvgl/src/extra/widgets/msgbox/lv_msgbox.c **** 
 296              		.loc 1 85 28 view .LVU93
 297 0110 99E7     		b	.L8
 298              	.LVL33:
 299              	.L12:
  93:Middlewares/LVGL/GUI/lvgl/src/extra/widgets/msgbox/lv_msgbox.c ****     }
 300              		.loc 1 93 14 is_stmt 1 view .LVU94
ARM GAS  C:\Users\ADMINI~1\AppData\Local\Temp\ccxvSaAM.s 			page 12


 301 0112 4D49     		ldr	r1, .L37+16
 302 0114 E06A     		ldr	r0, [r4, #44]
 303 0116 FFF7FEFF 		bl	lv_obj_set_width
 304              	.LVL34:
 305 011a B0E7     		b	.L10
 306              	.L33:
 307              	.LBB35:
  97:Middlewares/LVGL/GUI/lvgl/src/extra/widgets/msgbox/lv_msgbox.c ****         lv_obj_set_ext_click_area(mbox->close_btn, LV_DPX(10));
 308              		.loc 1 97 9 view .LVU95
  97:Middlewares/LVGL/GUI/lvgl/src/extra/widgets/msgbox/lv_msgbox.c ****         lv_obj_set_ext_click_area(mbox->close_btn, LV_DPX(10));
 309              		.loc 1 97 27 is_stmt 0 view .LVU96
 310 011c 2046     		mov	r0, r4
 311 011e FFF7FEFF 		bl	lv_btn_create
 312              	.LVL35:
 313 0122 0546     		mov	r5, r0
  97:Middlewares/LVGL/GUI/lvgl/src/extra/widgets/msgbox/lv_msgbox.c ****         lv_obj_set_ext_click_area(mbox->close_btn, LV_DPX(10));
 314              		.loc 1 97 25 view .LVU97
 315 0124 2063     		str	r0, [r4, #48]
  98:Middlewares/LVGL/GUI/lvgl/src/extra/widgets/msgbox/lv_msgbox.c ****         lv_obj_add_event_cb(mbox->close_btn, msgbox_close_click_event_cb, LV_EVENT_CLICKED, NULL);
 316              		.loc 1 98 9 is_stmt 1 view .LVU98
  98:Middlewares/LVGL/GUI/lvgl/src/extra/widgets/msgbox/lv_msgbox.c ****         lv_obj_add_event_cb(mbox->close_btn, msgbox_close_click_event_cb, LV_EVENT_CLICKED, NULL);
 317              		.loc 1 98 52 is_stmt 0 view .LVU99
 318 0126 0020     		movs	r0, #0
 319 0128 FFF7FEFF 		bl	lv_disp_get_dpi
 320              	.LVL36:
 321 012c 00EB8000 		add	r0, r0, r0, lsl #2
 322 0130 4300     		lsls	r3, r0, #1
  98:Middlewares/LVGL/GUI/lvgl/src/extra/widgets/msgbox/lv_msgbox.c ****         lv_obj_add_event_cb(mbox->close_btn, msgbox_close_click_event_cb, LV_EVENT_CLICKED, NULL);
 323              		.loc 1 98 9 view .LVU100
 324 0132 EF2B     		cmp	r3, #239
 325 0134 2DDC     		bgt	.L35
 326 0136 0121     		movs	r1, #1
 327              	.L14:
  98:Middlewares/LVGL/GUI/lvgl/src/extra/widgets/msgbox/lv_msgbox.c ****         lv_obj_add_event_cb(mbox->close_btn, msgbox_close_click_event_cb, LV_EVENT_CLICKED, NULL);
 328              		.loc 1 98 9 discriminator 4 view .LVU101
 329 0138 2846     		mov	r0, r5
 330 013a FFF7FEFF 		bl	lv_obj_set_ext_click_area
 331              	.LVL37:
  99:Middlewares/LVGL/GUI/lvgl/src/extra/widgets/msgbox/lv_msgbox.c ****         lv_obj_t * label = lv_label_create(mbox->close_btn);
 332              		.loc 1 99 9 is_stmt 1 discriminator 4 view .LVU102
 333 013e 0023     		movs	r3, #0
 334 0140 0722     		movs	r2, #7
 335 0142 4249     		ldr	r1, .L37+20
 336 0144 206B     		ldr	r0, [r4, #48]
 337 0146 FFF7FEFF 		bl	lv_obj_add_event_cb
 338              	.LVL38:
 100:Middlewares/LVGL/GUI/lvgl/src/extra/widgets/msgbox/lv_msgbox.c ****         lv_label_set_text(label, LV_SYMBOL_CLOSE);
 339              		.loc 1 100 9 discriminator 4 view .LVU103
 100:Middlewares/LVGL/GUI/lvgl/src/extra/widgets/msgbox/lv_msgbox.c ****         lv_label_set_text(label, LV_SYMBOL_CLOSE);
 340              		.loc 1 100 28 is_stmt 0 discriminator 4 view .LVU104
 341 014a 206B     		ldr	r0, [r4, #48]
 342 014c FFF7FEFF 		bl	lv_label_create
 343              	.LVL39:
 344 0150 0546     		mov	r5, r0
 345              	.LVL40:
 101:Middlewares/LVGL/GUI/lvgl/src/extra/widgets/msgbox/lv_msgbox.c ****         const lv_font_t * font = lv_obj_get_style_text_font(mbox->close_btn, LV_PART_MAIN);
 346              		.loc 1 101 9 is_stmt 1 discriminator 4 view .LVU105
ARM GAS  C:\Users\ADMINI~1\AppData\Local\Temp\ccxvSaAM.s 			page 13


 347 0152 3F49     		ldr	r1, .L37+24
 348 0154 FFF7FEFF 		bl	lv_label_set_text
 349              	.LVL41:
 102:Middlewares/LVGL/GUI/lvgl/src/extra/widgets/msgbox/lv_msgbox.c ****         lv_coord_t close_btn_size = lv_font_get_line_height(font) + LV_DPX(10);
 350              		.loc 1 102 9 discriminator 4 view .LVU106
 351              	.LBB36:
 352              	.LBI36:
 353              		.file 3 "Middlewares/LVGL/GUI/lvgl/src/extra/widgets/msgbox/../../../../src/core/lv_obj_style_gen.
   1:Middlewares/LVGL/GUI/lvgl/src/extra/widgets/msgbox/../../../../src/core/lv_obj_style_gen.h **** static inline lv_coord_t lv_obj_get_style_width(const struct _lv_obj_t * obj, uint32_t part)
   2:Middlewares/LVGL/GUI/lvgl/src/extra/widgets/msgbox/../../../../src/core/lv_obj_style_gen.h **** {
   3:Middlewares/LVGL/GUI/lvgl/src/extra/widgets/msgbox/../../../../src/core/lv_obj_style_gen.h ****     lv_style_value_t v = lv_obj_get_style_prop(obj, part, LV_STYLE_WIDTH);
   4:Middlewares/LVGL/GUI/lvgl/src/extra/widgets/msgbox/../../../../src/core/lv_obj_style_gen.h ****     return (lv_coord_t)v.num;
   5:Middlewares/LVGL/GUI/lvgl/src/extra/widgets/msgbox/../../../../src/core/lv_obj_style_gen.h **** }
   6:Middlewares/LVGL/GUI/lvgl/src/extra/widgets/msgbox/../../../../src/core/lv_obj_style_gen.h **** 
   7:Middlewares/LVGL/GUI/lvgl/src/extra/widgets/msgbox/../../../../src/core/lv_obj_style_gen.h **** static inline lv_coord_t lv_obj_get_style_min_width(const struct _lv_obj_t * obj, uint32_t part)
   8:Middlewares/LVGL/GUI/lvgl/src/extra/widgets/msgbox/../../../../src/core/lv_obj_style_gen.h **** {
   9:Middlewares/LVGL/GUI/lvgl/src/extra/widgets/msgbox/../../../../src/core/lv_obj_style_gen.h ****     lv_style_value_t v = lv_obj_get_style_prop(obj, part, LV_STYLE_MIN_WIDTH);
  10:Middlewares/LVGL/GUI/lvgl/src/extra/widgets/msgbox/../../../../src/core/lv_obj_style_gen.h ****     return (lv_coord_t)v.num;
  11:Middlewares/LVGL/GUI/lvgl/src/extra/widgets/msgbox/../../../../src/core/lv_obj_style_gen.h **** }
  12:Middlewares/LVGL/GUI/lvgl/src/extra/widgets/msgbox/../../../../src/core/lv_obj_style_gen.h **** 
  13:Middlewares/LVGL/GUI/lvgl/src/extra/widgets/msgbox/../../../../src/core/lv_obj_style_gen.h **** static inline lv_coord_t lv_obj_get_style_max_width(const struct _lv_obj_t * obj, uint32_t part)
  14:Middlewares/LVGL/GUI/lvgl/src/extra/widgets/msgbox/../../../../src/core/lv_obj_style_gen.h **** {
  15:Middlewares/LVGL/GUI/lvgl/src/extra/widgets/msgbox/../../../../src/core/lv_obj_style_gen.h ****     lv_style_value_t v = lv_obj_get_style_prop(obj, part, LV_STYLE_MAX_WIDTH);
  16:Middlewares/LVGL/GUI/lvgl/src/extra/widgets/msgbox/../../../../src/core/lv_obj_style_gen.h ****     return (lv_coord_t)v.num;
  17:Middlewares/LVGL/GUI/lvgl/src/extra/widgets/msgbox/../../../../src/core/lv_obj_style_gen.h **** }
  18:Middlewares/LVGL/GUI/lvgl/src/extra/widgets/msgbox/../../../../src/core/lv_obj_style_gen.h **** 
  19:Middlewares/LVGL/GUI/lvgl/src/extra/widgets/msgbox/../../../../src/core/lv_obj_style_gen.h **** static inline lv_coord_t lv_obj_get_style_height(const struct _lv_obj_t * obj, uint32_t part)
  20:Middlewares/LVGL/GUI/lvgl/src/extra/widgets/msgbox/../../../../src/core/lv_obj_style_gen.h **** {
  21:Middlewares/LVGL/GUI/lvgl/src/extra/widgets/msgbox/../../../../src/core/lv_obj_style_gen.h ****     lv_style_value_t v = lv_obj_get_style_prop(obj, part, LV_STYLE_HEIGHT);
  22:Middlewares/LVGL/GUI/lvgl/src/extra/widgets/msgbox/../../../../src/core/lv_obj_style_gen.h ****     return (lv_coord_t)v.num;
  23:Middlewares/LVGL/GUI/lvgl/src/extra/widgets/msgbox/../../../../src/core/lv_obj_style_gen.h **** }
  24:Middlewares/LVGL/GUI/lvgl/src/extra/widgets/msgbox/../../../../src/core/lv_obj_style_gen.h **** 
  25:Middlewares/LVGL/GUI/lvgl/src/extra/widgets/msgbox/../../../../src/core/lv_obj_style_gen.h **** static inline lv_coord_t lv_obj_get_style_min_height(const struct _lv_obj_t * obj, uint32_t part)
  26:Middlewares/LVGL/GUI/lvgl/src/extra/widgets/msgbox/../../../../src/core/lv_obj_style_gen.h **** {
  27:Middlewares/LVGL/GUI/lvgl/src/extra/widgets/msgbox/../../../../src/core/lv_obj_style_gen.h ****     lv_style_value_t v = lv_obj_get_style_prop(obj, part, LV_STYLE_MIN_HEIGHT);
  28:Middlewares/LVGL/GUI/lvgl/src/extra/widgets/msgbox/../../../../src/core/lv_obj_style_gen.h ****     return (lv_coord_t)v.num;
  29:Middlewares/LVGL/GUI/lvgl/src/extra/widgets/msgbox/../../../../src/core/lv_obj_style_gen.h **** }
  30:Middlewares/LVGL/GUI/lvgl/src/extra/widgets/msgbox/../../../../src/core/lv_obj_style_gen.h **** 
  31:Middlewares/LVGL/GUI/lvgl/src/extra/widgets/msgbox/../../../../src/core/lv_obj_style_gen.h **** static inline lv_coord_t lv_obj_get_style_max_height(const struct _lv_obj_t * obj, uint32_t part)
  32:Middlewares/LVGL/GUI/lvgl/src/extra/widgets/msgbox/../../../../src/core/lv_obj_style_gen.h **** {
  33:Middlewares/LVGL/GUI/lvgl/src/extra/widgets/msgbox/../../../../src/core/lv_obj_style_gen.h ****     lv_style_value_t v = lv_obj_get_style_prop(obj, part, LV_STYLE_MAX_HEIGHT);
  34:Middlewares/LVGL/GUI/lvgl/src/extra/widgets/msgbox/../../../../src/core/lv_obj_style_gen.h ****     return (lv_coord_t)v.num;
  35:Middlewares/LVGL/GUI/lvgl/src/extra/widgets/msgbox/../../../../src/core/lv_obj_style_gen.h **** }
  36:Middlewares/LVGL/GUI/lvgl/src/extra/widgets/msgbox/../../../../src/core/lv_obj_style_gen.h **** 
  37:Middlewares/LVGL/GUI/lvgl/src/extra/widgets/msgbox/../../../../src/core/lv_obj_style_gen.h **** static inline lv_coord_t lv_obj_get_style_x(const struct _lv_obj_t * obj, uint32_t part)
  38:Middlewares/LVGL/GUI/lvgl/src/extra/widgets/msgbox/../../../../src/core/lv_obj_style_gen.h **** {
  39:Middlewares/LVGL/GUI/lvgl/src/extra/widgets/msgbox/../../../../src/core/lv_obj_style_gen.h ****     lv_style_value_t v = lv_obj_get_style_prop(obj, part, LV_STYLE_X);
  40:Middlewares/LVGL/GUI/lvgl/src/extra/widgets/msgbox/../../../../src/core/lv_obj_style_gen.h ****     return (lv_coord_t)v.num;
  41:Middlewares/LVGL/GUI/lvgl/src/extra/widgets/msgbox/../../../../src/core/lv_obj_style_gen.h **** }
  42:Middlewares/LVGL/GUI/lvgl/src/extra/widgets/msgbox/../../../../src/core/lv_obj_style_gen.h **** 
  43:Middlewares/LVGL/GUI/lvgl/src/extra/widgets/msgbox/../../../../src/core/lv_obj_style_gen.h **** static inline lv_coord_t lv_obj_get_style_y(const struct _lv_obj_t * obj, uint32_t part)
  44:Middlewares/LVGL/GUI/lvgl/src/extra/widgets/msgbox/../../../../src/core/lv_obj_style_gen.h **** {
  45:Middlewares/LVGL/GUI/lvgl/src/extra/widgets/msgbox/../../../../src/core/lv_obj_style_gen.h ****     lv_style_value_t v = lv_obj_get_style_prop(obj, part, LV_STYLE_Y);
  46:Middlewares/LVGL/GUI/lvgl/src/extra/widgets/msgbox/../../../../src/core/lv_obj_style_gen.h ****     return (lv_coord_t)v.num;
  47:Middlewares/LVGL/GUI/lvgl/src/extra/widgets/msgbox/../../../../src/core/lv_obj_style_gen.h **** }
  48:Middlewares/LVGL/GUI/lvgl/src/extra/widgets/msgbox/../../../../src/core/lv_obj_style_gen.h **** 
  49:Middlewares/LVGL/GUI/lvgl/src/extra/widgets/msgbox/../../../../src/core/lv_obj_style_gen.h **** static inline lv_align_t lv_obj_get_style_align(const struct _lv_obj_t * obj, uint32_t part)
ARM GAS  C:\Users\ADMINI~1\AppData\Local\Temp\ccxvSaAM.s 			page 14


  50:Middlewares/LVGL/GUI/lvgl/src/extra/widgets/msgbox/../../../../src/core/lv_obj_style_gen.h **** {
  51:Middlewares/LVGL/GUI/lvgl/src/extra/widgets/msgbox/../../../../src/core/lv_obj_style_gen.h ****     lv_style_value_t v = lv_obj_get_style_prop(obj, part, LV_STYLE_ALIGN);
  52:Middlewares/LVGL/GUI/lvgl/src/extra/widgets/msgbox/../../../../src/core/lv_obj_style_gen.h ****     return (lv_align_t)v.num;
  53:Middlewares/LVGL/GUI/lvgl/src/extra/widgets/msgbox/../../../../src/core/lv_obj_style_gen.h **** }
  54:Middlewares/LVGL/GUI/lvgl/src/extra/widgets/msgbox/../../../../src/core/lv_obj_style_gen.h **** 
  55:Middlewares/LVGL/GUI/lvgl/src/extra/widgets/msgbox/../../../../src/core/lv_obj_style_gen.h **** static inline lv_coord_t lv_obj_get_style_transform_width(const struct _lv_obj_t * obj, uint32_t pa
  56:Middlewares/LVGL/GUI/lvgl/src/extra/widgets/msgbox/../../../../src/core/lv_obj_style_gen.h **** {
  57:Middlewares/LVGL/GUI/lvgl/src/extra/widgets/msgbox/../../../../src/core/lv_obj_style_gen.h ****     lv_style_value_t v = lv_obj_get_style_prop(obj, part, LV_STYLE_TRANSFORM_WIDTH);
  58:Middlewares/LVGL/GUI/lvgl/src/extra/widgets/msgbox/../../../../src/core/lv_obj_style_gen.h ****     return (lv_coord_t)v.num;
  59:Middlewares/LVGL/GUI/lvgl/src/extra/widgets/msgbox/../../../../src/core/lv_obj_style_gen.h **** }
  60:Middlewares/LVGL/GUI/lvgl/src/extra/widgets/msgbox/../../../../src/core/lv_obj_style_gen.h **** 
  61:Middlewares/LVGL/GUI/lvgl/src/extra/widgets/msgbox/../../../../src/core/lv_obj_style_gen.h **** static inline lv_coord_t lv_obj_get_style_transform_height(const struct _lv_obj_t * obj, uint32_t p
  62:Middlewares/LVGL/GUI/lvgl/src/extra/widgets/msgbox/../../../../src/core/lv_obj_style_gen.h **** {
  63:Middlewares/LVGL/GUI/lvgl/src/extra/widgets/msgbox/../../../../src/core/lv_obj_style_gen.h ****     lv_style_value_t v = lv_obj_get_style_prop(obj, part, LV_STYLE_TRANSFORM_HEIGHT);
  64:Middlewares/LVGL/GUI/lvgl/src/extra/widgets/msgbox/../../../../src/core/lv_obj_style_gen.h ****     return (lv_coord_t)v.num;
  65:Middlewares/LVGL/GUI/lvgl/src/extra/widgets/msgbox/../../../../src/core/lv_obj_style_gen.h **** }
  66:Middlewares/LVGL/GUI/lvgl/src/extra/widgets/msgbox/../../../../src/core/lv_obj_style_gen.h **** 
  67:Middlewares/LVGL/GUI/lvgl/src/extra/widgets/msgbox/../../../../src/core/lv_obj_style_gen.h **** static inline lv_coord_t lv_obj_get_style_translate_x(const struct _lv_obj_t * obj, uint32_t part)
  68:Middlewares/LVGL/GUI/lvgl/src/extra/widgets/msgbox/../../../../src/core/lv_obj_style_gen.h **** {
  69:Middlewares/LVGL/GUI/lvgl/src/extra/widgets/msgbox/../../../../src/core/lv_obj_style_gen.h ****     lv_style_value_t v = lv_obj_get_style_prop(obj, part, LV_STYLE_TRANSLATE_X);
  70:Middlewares/LVGL/GUI/lvgl/src/extra/widgets/msgbox/../../../../src/core/lv_obj_style_gen.h ****     return (lv_coord_t)v.num;
  71:Middlewares/LVGL/GUI/lvgl/src/extra/widgets/msgbox/../../../../src/core/lv_obj_style_gen.h **** }
  72:Middlewares/LVGL/GUI/lvgl/src/extra/widgets/msgbox/../../../../src/core/lv_obj_style_gen.h **** 
  73:Middlewares/LVGL/GUI/lvgl/src/extra/widgets/msgbox/../../../../src/core/lv_obj_style_gen.h **** static inline lv_coord_t lv_obj_get_style_translate_y(const struct _lv_obj_t * obj, uint32_t part)
  74:Middlewares/LVGL/GUI/lvgl/src/extra/widgets/msgbox/../../../../src/core/lv_obj_style_gen.h **** {
  75:Middlewares/LVGL/GUI/lvgl/src/extra/widgets/msgbox/../../../../src/core/lv_obj_style_gen.h ****     lv_style_value_t v = lv_obj_get_style_prop(obj, part, LV_STYLE_TRANSLATE_Y);
  76:Middlewares/LVGL/GUI/lvgl/src/extra/widgets/msgbox/../../../../src/core/lv_obj_style_gen.h ****     return (lv_coord_t)v.num;
  77:Middlewares/LVGL/GUI/lvgl/src/extra/widgets/msgbox/../../../../src/core/lv_obj_style_gen.h **** }
  78:Middlewares/LVGL/GUI/lvgl/src/extra/widgets/msgbox/../../../../src/core/lv_obj_style_gen.h **** 
  79:Middlewares/LVGL/GUI/lvgl/src/extra/widgets/msgbox/../../../../src/core/lv_obj_style_gen.h **** static inline lv_coord_t lv_obj_get_style_transform_zoom(const struct _lv_obj_t * obj, uint32_t par
  80:Middlewares/LVGL/GUI/lvgl/src/extra/widgets/msgbox/../../../../src/core/lv_obj_style_gen.h **** {
  81:Middlewares/LVGL/GUI/lvgl/src/extra/widgets/msgbox/../../../../src/core/lv_obj_style_gen.h ****     lv_style_value_t v = lv_obj_get_style_prop(obj, part, LV_STYLE_TRANSFORM_ZOOM);
  82:Middlewares/LVGL/GUI/lvgl/src/extra/widgets/msgbox/../../../../src/core/lv_obj_style_gen.h ****     return (lv_coord_t)v.num;
  83:Middlewares/LVGL/GUI/lvgl/src/extra/widgets/msgbox/../../../../src/core/lv_obj_style_gen.h **** }
  84:Middlewares/LVGL/GUI/lvgl/src/extra/widgets/msgbox/../../../../src/core/lv_obj_style_gen.h **** 
  85:Middlewares/LVGL/GUI/lvgl/src/extra/widgets/msgbox/../../../../src/core/lv_obj_style_gen.h **** static inline lv_coord_t lv_obj_get_style_transform_angle(const struct _lv_obj_t * obj, uint32_t pa
  86:Middlewares/LVGL/GUI/lvgl/src/extra/widgets/msgbox/../../../../src/core/lv_obj_style_gen.h **** {
  87:Middlewares/LVGL/GUI/lvgl/src/extra/widgets/msgbox/../../../../src/core/lv_obj_style_gen.h ****     lv_style_value_t v = lv_obj_get_style_prop(obj, part, LV_STYLE_TRANSFORM_ANGLE);
  88:Middlewares/LVGL/GUI/lvgl/src/extra/widgets/msgbox/../../../../src/core/lv_obj_style_gen.h ****     return (lv_coord_t)v.num;
  89:Middlewares/LVGL/GUI/lvgl/src/extra/widgets/msgbox/../../../../src/core/lv_obj_style_gen.h **** }
  90:Middlewares/LVGL/GUI/lvgl/src/extra/widgets/msgbox/../../../../src/core/lv_obj_style_gen.h **** 
  91:Middlewares/LVGL/GUI/lvgl/src/extra/widgets/msgbox/../../../../src/core/lv_obj_style_gen.h **** static inline lv_coord_t lv_obj_get_style_pad_top(const struct _lv_obj_t * obj, uint32_t part)
  92:Middlewares/LVGL/GUI/lvgl/src/extra/widgets/msgbox/../../../../src/core/lv_obj_style_gen.h **** {
  93:Middlewares/LVGL/GUI/lvgl/src/extra/widgets/msgbox/../../../../src/core/lv_obj_style_gen.h ****     lv_style_value_t v = lv_obj_get_style_prop(obj, part, LV_STYLE_PAD_TOP);
  94:Middlewares/LVGL/GUI/lvgl/src/extra/widgets/msgbox/../../../../src/core/lv_obj_style_gen.h ****     return (lv_coord_t)v.num;
  95:Middlewares/LVGL/GUI/lvgl/src/extra/widgets/msgbox/../../../../src/core/lv_obj_style_gen.h **** }
  96:Middlewares/LVGL/GUI/lvgl/src/extra/widgets/msgbox/../../../../src/core/lv_obj_style_gen.h **** 
  97:Middlewares/LVGL/GUI/lvgl/src/extra/widgets/msgbox/../../../../src/core/lv_obj_style_gen.h **** static inline lv_coord_t lv_obj_get_style_pad_bottom(const struct _lv_obj_t * obj, uint32_t part)
  98:Middlewares/LVGL/GUI/lvgl/src/extra/widgets/msgbox/../../../../src/core/lv_obj_style_gen.h **** {
  99:Middlewares/LVGL/GUI/lvgl/src/extra/widgets/msgbox/../../../../src/core/lv_obj_style_gen.h ****     lv_style_value_t v = lv_obj_get_style_prop(obj, part, LV_STYLE_PAD_BOTTOM);
 100:Middlewares/LVGL/GUI/lvgl/src/extra/widgets/msgbox/../../../../src/core/lv_obj_style_gen.h ****     return (lv_coord_t)v.num;
 101:Middlewares/LVGL/GUI/lvgl/src/extra/widgets/msgbox/../../../../src/core/lv_obj_style_gen.h **** }
 102:Middlewares/LVGL/GUI/lvgl/src/extra/widgets/msgbox/../../../../src/core/lv_obj_style_gen.h **** 
 103:Middlewares/LVGL/GUI/lvgl/src/extra/widgets/msgbox/../../../../src/core/lv_obj_style_gen.h **** static inline lv_coord_t lv_obj_get_style_pad_left(const struct _lv_obj_t * obj, uint32_t part)
 104:Middlewares/LVGL/GUI/lvgl/src/extra/widgets/msgbox/../../../../src/core/lv_obj_style_gen.h **** {
 105:Middlewares/LVGL/GUI/lvgl/src/extra/widgets/msgbox/../../../../src/core/lv_obj_style_gen.h ****     lv_style_value_t v = lv_obj_get_style_prop(obj, part, LV_STYLE_PAD_LEFT);
 106:Middlewares/LVGL/GUI/lvgl/src/extra/widgets/msgbox/../../../../src/core/lv_obj_style_gen.h ****     return (lv_coord_t)v.num;
ARM GAS  C:\Users\ADMINI~1\AppData\Local\Temp\ccxvSaAM.s 			page 15


 107:Middlewares/LVGL/GUI/lvgl/src/extra/widgets/msgbox/../../../../src/core/lv_obj_style_gen.h **** }
 108:Middlewares/LVGL/GUI/lvgl/src/extra/widgets/msgbox/../../../../src/core/lv_obj_style_gen.h **** 
 109:Middlewares/LVGL/GUI/lvgl/src/extra/widgets/msgbox/../../../../src/core/lv_obj_style_gen.h **** static inline lv_coord_t lv_obj_get_style_pad_right(const struct _lv_obj_t * obj, uint32_t part)
 110:Middlewares/LVGL/GUI/lvgl/src/extra/widgets/msgbox/../../../../src/core/lv_obj_style_gen.h **** {
 111:Middlewares/LVGL/GUI/lvgl/src/extra/widgets/msgbox/../../../../src/core/lv_obj_style_gen.h ****     lv_style_value_t v = lv_obj_get_style_prop(obj, part, LV_STYLE_PAD_RIGHT);
 112:Middlewares/LVGL/GUI/lvgl/src/extra/widgets/msgbox/../../../../src/core/lv_obj_style_gen.h ****     return (lv_coord_t)v.num;
 113:Middlewares/LVGL/GUI/lvgl/src/extra/widgets/msgbox/../../../../src/core/lv_obj_style_gen.h **** }
 114:Middlewares/LVGL/GUI/lvgl/src/extra/widgets/msgbox/../../../../src/core/lv_obj_style_gen.h **** 
 115:Middlewares/LVGL/GUI/lvgl/src/extra/widgets/msgbox/../../../../src/core/lv_obj_style_gen.h **** static inline lv_coord_t lv_obj_get_style_pad_row(const struct _lv_obj_t * obj, uint32_t part)
 116:Middlewares/LVGL/GUI/lvgl/src/extra/widgets/msgbox/../../../../src/core/lv_obj_style_gen.h **** {
 117:Middlewares/LVGL/GUI/lvgl/src/extra/widgets/msgbox/../../../../src/core/lv_obj_style_gen.h ****     lv_style_value_t v = lv_obj_get_style_prop(obj, part, LV_STYLE_PAD_ROW);
 118:Middlewares/LVGL/GUI/lvgl/src/extra/widgets/msgbox/../../../../src/core/lv_obj_style_gen.h ****     return (lv_coord_t)v.num;
 119:Middlewares/LVGL/GUI/lvgl/src/extra/widgets/msgbox/../../../../src/core/lv_obj_style_gen.h **** }
 120:Middlewares/LVGL/GUI/lvgl/src/extra/widgets/msgbox/../../../../src/core/lv_obj_style_gen.h **** 
 121:Middlewares/LVGL/GUI/lvgl/src/extra/widgets/msgbox/../../../../src/core/lv_obj_style_gen.h **** static inline lv_coord_t lv_obj_get_style_pad_column(const struct _lv_obj_t * obj, uint32_t part)
 122:Middlewares/LVGL/GUI/lvgl/src/extra/widgets/msgbox/../../../../src/core/lv_obj_style_gen.h **** {
 123:Middlewares/LVGL/GUI/lvgl/src/extra/widgets/msgbox/../../../../src/core/lv_obj_style_gen.h ****     lv_style_value_t v = lv_obj_get_style_prop(obj, part, LV_STYLE_PAD_COLUMN);
 124:Middlewares/LVGL/GUI/lvgl/src/extra/widgets/msgbox/../../../../src/core/lv_obj_style_gen.h ****     return (lv_coord_t)v.num;
 125:Middlewares/LVGL/GUI/lvgl/src/extra/widgets/msgbox/../../../../src/core/lv_obj_style_gen.h **** }
 126:Middlewares/LVGL/GUI/lvgl/src/extra/widgets/msgbox/../../../../src/core/lv_obj_style_gen.h **** 
 127:Middlewares/LVGL/GUI/lvgl/src/extra/widgets/msgbox/../../../../src/core/lv_obj_style_gen.h **** static inline lv_color_t lv_obj_get_style_bg_color(const struct _lv_obj_t * obj, uint32_t part)
 128:Middlewares/LVGL/GUI/lvgl/src/extra/widgets/msgbox/../../../../src/core/lv_obj_style_gen.h **** {
 129:Middlewares/LVGL/GUI/lvgl/src/extra/widgets/msgbox/../../../../src/core/lv_obj_style_gen.h ****     lv_style_value_t v = lv_obj_get_style_prop(obj, part, LV_STYLE_BG_COLOR);
 130:Middlewares/LVGL/GUI/lvgl/src/extra/widgets/msgbox/../../../../src/core/lv_obj_style_gen.h ****     return v.color;
 131:Middlewares/LVGL/GUI/lvgl/src/extra/widgets/msgbox/../../../../src/core/lv_obj_style_gen.h **** }
 132:Middlewares/LVGL/GUI/lvgl/src/extra/widgets/msgbox/../../../../src/core/lv_obj_style_gen.h **** 
 133:Middlewares/LVGL/GUI/lvgl/src/extra/widgets/msgbox/../../../../src/core/lv_obj_style_gen.h **** static inline lv_color_t lv_obj_get_style_bg_color_filtered(const struct _lv_obj_t * obj, uint32_t 
 134:Middlewares/LVGL/GUI/lvgl/src/extra/widgets/msgbox/../../../../src/core/lv_obj_style_gen.h **** {
 135:Middlewares/LVGL/GUI/lvgl/src/extra/widgets/msgbox/../../../../src/core/lv_obj_style_gen.h ****     lv_style_value_t v = lv_obj_get_style_prop(obj, part, LV_STYLE_BG_COLOR_FILTERED);
 136:Middlewares/LVGL/GUI/lvgl/src/extra/widgets/msgbox/../../../../src/core/lv_obj_style_gen.h ****     return v.color;
 137:Middlewares/LVGL/GUI/lvgl/src/extra/widgets/msgbox/../../../../src/core/lv_obj_style_gen.h **** }
 138:Middlewares/LVGL/GUI/lvgl/src/extra/widgets/msgbox/../../../../src/core/lv_obj_style_gen.h **** 
 139:Middlewares/LVGL/GUI/lvgl/src/extra/widgets/msgbox/../../../../src/core/lv_obj_style_gen.h **** static inline lv_opa_t lv_obj_get_style_bg_opa(const struct _lv_obj_t * obj, uint32_t part)
 140:Middlewares/LVGL/GUI/lvgl/src/extra/widgets/msgbox/../../../../src/core/lv_obj_style_gen.h **** {
 141:Middlewares/LVGL/GUI/lvgl/src/extra/widgets/msgbox/../../../../src/core/lv_obj_style_gen.h ****     lv_style_value_t v = lv_obj_get_style_prop(obj, part, LV_STYLE_BG_OPA);
 142:Middlewares/LVGL/GUI/lvgl/src/extra/widgets/msgbox/../../../../src/core/lv_obj_style_gen.h ****     return (lv_opa_t)v.num;
 143:Middlewares/LVGL/GUI/lvgl/src/extra/widgets/msgbox/../../../../src/core/lv_obj_style_gen.h **** }
 144:Middlewares/LVGL/GUI/lvgl/src/extra/widgets/msgbox/../../../../src/core/lv_obj_style_gen.h **** 
 145:Middlewares/LVGL/GUI/lvgl/src/extra/widgets/msgbox/../../../../src/core/lv_obj_style_gen.h **** static inline lv_color_t lv_obj_get_style_bg_grad_color(const struct _lv_obj_t * obj, uint32_t part
 146:Middlewares/LVGL/GUI/lvgl/src/extra/widgets/msgbox/../../../../src/core/lv_obj_style_gen.h **** {
 147:Middlewares/LVGL/GUI/lvgl/src/extra/widgets/msgbox/../../../../src/core/lv_obj_style_gen.h ****     lv_style_value_t v = lv_obj_get_style_prop(obj, part, LV_STYLE_BG_GRAD_COLOR);
 148:Middlewares/LVGL/GUI/lvgl/src/extra/widgets/msgbox/../../../../src/core/lv_obj_style_gen.h ****     return v.color;
 149:Middlewares/LVGL/GUI/lvgl/src/extra/widgets/msgbox/../../../../src/core/lv_obj_style_gen.h **** }
 150:Middlewares/LVGL/GUI/lvgl/src/extra/widgets/msgbox/../../../../src/core/lv_obj_style_gen.h **** 
 151:Middlewares/LVGL/GUI/lvgl/src/extra/widgets/msgbox/../../../../src/core/lv_obj_style_gen.h **** static inline lv_color_t lv_obj_get_style_bg_grad_color_filtered(const struct _lv_obj_t * obj, uint
 152:Middlewares/LVGL/GUI/lvgl/src/extra/widgets/msgbox/../../../../src/core/lv_obj_style_gen.h **** {
 153:Middlewares/LVGL/GUI/lvgl/src/extra/widgets/msgbox/../../../../src/core/lv_obj_style_gen.h ****     lv_style_value_t v = lv_obj_get_style_prop(obj, part, LV_STYLE_BG_GRAD_COLOR_FILTERED);
 154:Middlewares/LVGL/GUI/lvgl/src/extra/widgets/msgbox/../../../../src/core/lv_obj_style_gen.h ****     return v.color;
 155:Middlewares/LVGL/GUI/lvgl/src/extra/widgets/msgbox/../../../../src/core/lv_obj_style_gen.h **** }
 156:Middlewares/LVGL/GUI/lvgl/src/extra/widgets/msgbox/../../../../src/core/lv_obj_style_gen.h **** 
 157:Middlewares/LVGL/GUI/lvgl/src/extra/widgets/msgbox/../../../../src/core/lv_obj_style_gen.h **** static inline lv_grad_dir_t lv_obj_get_style_bg_grad_dir(const struct _lv_obj_t * obj, uint32_t par
 158:Middlewares/LVGL/GUI/lvgl/src/extra/widgets/msgbox/../../../../src/core/lv_obj_style_gen.h **** {
 159:Middlewares/LVGL/GUI/lvgl/src/extra/widgets/msgbox/../../../../src/core/lv_obj_style_gen.h ****     lv_style_value_t v = lv_obj_get_style_prop(obj, part, LV_STYLE_BG_GRAD_DIR);
 160:Middlewares/LVGL/GUI/lvgl/src/extra/widgets/msgbox/../../../../src/core/lv_obj_style_gen.h ****     return (lv_grad_dir_t)v.num;
 161:Middlewares/LVGL/GUI/lvgl/src/extra/widgets/msgbox/../../../../src/core/lv_obj_style_gen.h **** }
 162:Middlewares/LVGL/GUI/lvgl/src/extra/widgets/msgbox/../../../../src/core/lv_obj_style_gen.h **** 
 163:Middlewares/LVGL/GUI/lvgl/src/extra/widgets/msgbox/../../../../src/core/lv_obj_style_gen.h **** static inline lv_coord_t lv_obj_get_style_bg_main_stop(const struct _lv_obj_t * obj, uint32_t part)
ARM GAS  C:\Users\ADMINI~1\AppData\Local\Temp\ccxvSaAM.s 			page 16


 164:Middlewares/LVGL/GUI/lvgl/src/extra/widgets/msgbox/../../../../src/core/lv_obj_style_gen.h **** {
 165:Middlewares/LVGL/GUI/lvgl/src/extra/widgets/msgbox/../../../../src/core/lv_obj_style_gen.h ****     lv_style_value_t v = lv_obj_get_style_prop(obj, part, LV_STYLE_BG_MAIN_STOP);
 166:Middlewares/LVGL/GUI/lvgl/src/extra/widgets/msgbox/../../../../src/core/lv_obj_style_gen.h ****     return (lv_coord_t)v.num;
 167:Middlewares/LVGL/GUI/lvgl/src/extra/widgets/msgbox/../../../../src/core/lv_obj_style_gen.h **** }
 168:Middlewares/LVGL/GUI/lvgl/src/extra/widgets/msgbox/../../../../src/core/lv_obj_style_gen.h **** 
 169:Middlewares/LVGL/GUI/lvgl/src/extra/widgets/msgbox/../../../../src/core/lv_obj_style_gen.h **** static inline lv_coord_t lv_obj_get_style_bg_grad_stop(const struct _lv_obj_t * obj, uint32_t part)
 170:Middlewares/LVGL/GUI/lvgl/src/extra/widgets/msgbox/../../../../src/core/lv_obj_style_gen.h **** {
 171:Middlewares/LVGL/GUI/lvgl/src/extra/widgets/msgbox/../../../../src/core/lv_obj_style_gen.h ****     lv_style_value_t v = lv_obj_get_style_prop(obj, part, LV_STYLE_BG_GRAD_STOP);
 172:Middlewares/LVGL/GUI/lvgl/src/extra/widgets/msgbox/../../../../src/core/lv_obj_style_gen.h ****     return (lv_coord_t)v.num;
 173:Middlewares/LVGL/GUI/lvgl/src/extra/widgets/msgbox/../../../../src/core/lv_obj_style_gen.h **** }
 174:Middlewares/LVGL/GUI/lvgl/src/extra/widgets/msgbox/../../../../src/core/lv_obj_style_gen.h **** 
 175:Middlewares/LVGL/GUI/lvgl/src/extra/widgets/msgbox/../../../../src/core/lv_obj_style_gen.h **** static inline const lv_grad_dsc_t * lv_obj_get_style_bg_grad(const struct _lv_obj_t * obj, uint32_t
 176:Middlewares/LVGL/GUI/lvgl/src/extra/widgets/msgbox/../../../../src/core/lv_obj_style_gen.h **** {
 177:Middlewares/LVGL/GUI/lvgl/src/extra/widgets/msgbox/../../../../src/core/lv_obj_style_gen.h ****     lv_style_value_t v = lv_obj_get_style_prop(obj, part, LV_STYLE_BG_GRAD);
 178:Middlewares/LVGL/GUI/lvgl/src/extra/widgets/msgbox/../../../../src/core/lv_obj_style_gen.h ****     return (const lv_grad_dsc_t *)v.ptr;
 179:Middlewares/LVGL/GUI/lvgl/src/extra/widgets/msgbox/../../../../src/core/lv_obj_style_gen.h **** }
 180:Middlewares/LVGL/GUI/lvgl/src/extra/widgets/msgbox/../../../../src/core/lv_obj_style_gen.h **** 
 181:Middlewares/LVGL/GUI/lvgl/src/extra/widgets/msgbox/../../../../src/core/lv_obj_style_gen.h **** static inline lv_dither_mode_t lv_obj_get_style_bg_dither_mode(const struct _lv_obj_t * obj, uint32
 182:Middlewares/LVGL/GUI/lvgl/src/extra/widgets/msgbox/../../../../src/core/lv_obj_style_gen.h **** {
 183:Middlewares/LVGL/GUI/lvgl/src/extra/widgets/msgbox/../../../../src/core/lv_obj_style_gen.h ****     lv_style_value_t v = lv_obj_get_style_prop(obj, part, LV_STYLE_BG_DITHER_MODE);
 184:Middlewares/LVGL/GUI/lvgl/src/extra/widgets/msgbox/../../../../src/core/lv_obj_style_gen.h ****     return (lv_dither_mode_t)v.num;
 185:Middlewares/LVGL/GUI/lvgl/src/extra/widgets/msgbox/../../../../src/core/lv_obj_style_gen.h **** }
 186:Middlewares/LVGL/GUI/lvgl/src/extra/widgets/msgbox/../../../../src/core/lv_obj_style_gen.h **** 
 187:Middlewares/LVGL/GUI/lvgl/src/extra/widgets/msgbox/../../../../src/core/lv_obj_style_gen.h **** static inline const void * lv_obj_get_style_bg_img_src(const struct _lv_obj_t * obj, uint32_t part)
 188:Middlewares/LVGL/GUI/lvgl/src/extra/widgets/msgbox/../../../../src/core/lv_obj_style_gen.h **** {
 189:Middlewares/LVGL/GUI/lvgl/src/extra/widgets/msgbox/../../../../src/core/lv_obj_style_gen.h ****     lv_style_value_t v = lv_obj_get_style_prop(obj, part, LV_STYLE_BG_IMG_SRC);
 190:Middlewares/LVGL/GUI/lvgl/src/extra/widgets/msgbox/../../../../src/core/lv_obj_style_gen.h ****     return (const void *)v.ptr;
 191:Middlewares/LVGL/GUI/lvgl/src/extra/widgets/msgbox/../../../../src/core/lv_obj_style_gen.h **** }
 192:Middlewares/LVGL/GUI/lvgl/src/extra/widgets/msgbox/../../../../src/core/lv_obj_style_gen.h **** 
 193:Middlewares/LVGL/GUI/lvgl/src/extra/widgets/msgbox/../../../../src/core/lv_obj_style_gen.h **** static inline lv_opa_t lv_obj_get_style_bg_img_opa(const struct _lv_obj_t * obj, uint32_t part)
 194:Middlewares/LVGL/GUI/lvgl/src/extra/widgets/msgbox/../../../../src/core/lv_obj_style_gen.h **** {
 195:Middlewares/LVGL/GUI/lvgl/src/extra/widgets/msgbox/../../../../src/core/lv_obj_style_gen.h ****     lv_style_value_t v = lv_obj_get_style_prop(obj, part, LV_STYLE_BG_IMG_OPA);
 196:Middlewares/LVGL/GUI/lvgl/src/extra/widgets/msgbox/../../../../src/core/lv_obj_style_gen.h ****     return (lv_opa_t)v.num;
 197:Middlewares/LVGL/GUI/lvgl/src/extra/widgets/msgbox/../../../../src/core/lv_obj_style_gen.h **** }
 198:Middlewares/LVGL/GUI/lvgl/src/extra/widgets/msgbox/../../../../src/core/lv_obj_style_gen.h **** 
 199:Middlewares/LVGL/GUI/lvgl/src/extra/widgets/msgbox/../../../../src/core/lv_obj_style_gen.h **** static inline lv_color_t lv_obj_get_style_bg_img_recolor(const struct _lv_obj_t * obj, uint32_t par
 200:Middlewares/LVGL/GUI/lvgl/src/extra/widgets/msgbox/../../../../src/core/lv_obj_style_gen.h **** {
 201:Middlewares/LVGL/GUI/lvgl/src/extra/widgets/msgbox/../../../../src/core/lv_obj_style_gen.h ****     lv_style_value_t v = lv_obj_get_style_prop(obj, part, LV_STYLE_BG_IMG_RECOLOR);
 202:Middlewares/LVGL/GUI/lvgl/src/extra/widgets/msgbox/../../../../src/core/lv_obj_style_gen.h ****     return v.color;
 203:Middlewares/LVGL/GUI/lvgl/src/extra/widgets/msgbox/../../../../src/core/lv_obj_style_gen.h **** }
 204:Middlewares/LVGL/GUI/lvgl/src/extra/widgets/msgbox/../../../../src/core/lv_obj_style_gen.h **** 
 205:Middlewares/LVGL/GUI/lvgl/src/extra/widgets/msgbox/../../../../src/core/lv_obj_style_gen.h **** static inline lv_color_t lv_obj_get_style_bg_img_recolor_filtered(const struct _lv_obj_t * obj, uin
 206:Middlewares/LVGL/GUI/lvgl/src/extra/widgets/msgbox/../../../../src/core/lv_obj_style_gen.h **** {
 207:Middlewares/LVGL/GUI/lvgl/src/extra/widgets/msgbox/../../../../src/core/lv_obj_style_gen.h ****     lv_style_value_t v = lv_obj_get_style_prop(obj, part, LV_STYLE_BG_IMG_RECOLOR_FILTERED);
 208:Middlewares/LVGL/GUI/lvgl/src/extra/widgets/msgbox/../../../../src/core/lv_obj_style_gen.h ****     return v.color;
 209:Middlewares/LVGL/GUI/lvgl/src/extra/widgets/msgbox/../../../../src/core/lv_obj_style_gen.h **** }
 210:Middlewares/LVGL/GUI/lvgl/src/extra/widgets/msgbox/../../../../src/core/lv_obj_style_gen.h **** 
 211:Middlewares/LVGL/GUI/lvgl/src/extra/widgets/msgbox/../../../../src/core/lv_obj_style_gen.h **** static inline lv_opa_t lv_obj_get_style_bg_img_recolor_opa(const struct _lv_obj_t * obj, uint32_t p
 212:Middlewares/LVGL/GUI/lvgl/src/extra/widgets/msgbox/../../../../src/core/lv_obj_style_gen.h **** {
 213:Middlewares/LVGL/GUI/lvgl/src/extra/widgets/msgbox/../../../../src/core/lv_obj_style_gen.h ****     lv_style_value_t v = lv_obj_get_style_prop(obj, part, LV_STYLE_BG_IMG_RECOLOR_OPA);
 214:Middlewares/LVGL/GUI/lvgl/src/extra/widgets/msgbox/../../../../src/core/lv_obj_style_gen.h ****     return (lv_opa_t)v.num;
 215:Middlewares/LVGL/GUI/lvgl/src/extra/widgets/msgbox/../../../../src/core/lv_obj_style_gen.h **** }
 216:Middlewares/LVGL/GUI/lvgl/src/extra/widgets/msgbox/../../../../src/core/lv_obj_style_gen.h **** 
 217:Middlewares/LVGL/GUI/lvgl/src/extra/widgets/msgbox/../../../../src/core/lv_obj_style_gen.h **** static inline bool lv_obj_get_style_bg_img_tiled(const struct _lv_obj_t * obj, uint32_t part)
 218:Middlewares/LVGL/GUI/lvgl/src/extra/widgets/msgbox/../../../../src/core/lv_obj_style_gen.h **** {
 219:Middlewares/LVGL/GUI/lvgl/src/extra/widgets/msgbox/../../../../src/core/lv_obj_style_gen.h ****     lv_style_value_t v = lv_obj_get_style_prop(obj, part, LV_STYLE_BG_IMG_TILED);
 220:Middlewares/LVGL/GUI/lvgl/src/extra/widgets/msgbox/../../../../src/core/lv_obj_style_gen.h ****     return (bool)v.num;
ARM GAS  C:\Users\ADMINI~1\AppData\Local\Temp\ccxvSaAM.s 			page 17


 221:Middlewares/LVGL/GUI/lvgl/src/extra/widgets/msgbox/../../../../src/core/lv_obj_style_gen.h **** }
 222:Middlewares/LVGL/GUI/lvgl/src/extra/widgets/msgbox/../../../../src/core/lv_obj_style_gen.h **** 
 223:Middlewares/LVGL/GUI/lvgl/src/extra/widgets/msgbox/../../../../src/core/lv_obj_style_gen.h **** static inline lv_color_t lv_obj_get_style_border_color(const struct _lv_obj_t * obj, uint32_t part)
 224:Middlewares/LVGL/GUI/lvgl/src/extra/widgets/msgbox/../../../../src/core/lv_obj_style_gen.h **** {
 225:Middlewares/LVGL/GUI/lvgl/src/extra/widgets/msgbox/../../../../src/core/lv_obj_style_gen.h ****     lv_style_value_t v = lv_obj_get_style_prop(obj, part, LV_STYLE_BORDER_COLOR);
 226:Middlewares/LVGL/GUI/lvgl/src/extra/widgets/msgbox/../../../../src/core/lv_obj_style_gen.h ****     return v.color;
 227:Middlewares/LVGL/GUI/lvgl/src/extra/widgets/msgbox/../../../../src/core/lv_obj_style_gen.h **** }
 228:Middlewares/LVGL/GUI/lvgl/src/extra/widgets/msgbox/../../../../src/core/lv_obj_style_gen.h **** 
 229:Middlewares/LVGL/GUI/lvgl/src/extra/widgets/msgbox/../../../../src/core/lv_obj_style_gen.h **** static inline lv_color_t lv_obj_get_style_border_color_filtered(const struct _lv_obj_t * obj, uint3
 230:Middlewares/LVGL/GUI/lvgl/src/extra/widgets/msgbox/../../../../src/core/lv_obj_style_gen.h **** {
 231:Middlewares/LVGL/GUI/lvgl/src/extra/widgets/msgbox/../../../../src/core/lv_obj_style_gen.h ****     lv_style_value_t v = lv_obj_get_style_prop(obj, part, LV_STYLE_BORDER_COLOR_FILTERED);
 232:Middlewares/LVGL/GUI/lvgl/src/extra/widgets/msgbox/../../../../src/core/lv_obj_style_gen.h ****     return v.color;
 233:Middlewares/LVGL/GUI/lvgl/src/extra/widgets/msgbox/../../../../src/core/lv_obj_style_gen.h **** }
 234:Middlewares/LVGL/GUI/lvgl/src/extra/widgets/msgbox/../../../../src/core/lv_obj_style_gen.h **** 
 235:Middlewares/LVGL/GUI/lvgl/src/extra/widgets/msgbox/../../../../src/core/lv_obj_style_gen.h **** static inline lv_opa_t lv_obj_get_style_border_opa(const struct _lv_obj_t * obj, uint32_t part)
 236:Middlewares/LVGL/GUI/lvgl/src/extra/widgets/msgbox/../../../../src/core/lv_obj_style_gen.h **** {
 237:Middlewares/LVGL/GUI/lvgl/src/extra/widgets/msgbox/../../../../src/core/lv_obj_style_gen.h ****     lv_style_value_t v = lv_obj_get_style_prop(obj, part, LV_STYLE_BORDER_OPA);
 238:Middlewares/LVGL/GUI/lvgl/src/extra/widgets/msgbox/../../../../src/core/lv_obj_style_gen.h ****     return (lv_opa_t)v.num;
 239:Middlewares/LVGL/GUI/lvgl/src/extra/widgets/msgbox/../../../../src/core/lv_obj_style_gen.h **** }
 240:Middlewares/LVGL/GUI/lvgl/src/extra/widgets/msgbox/../../../../src/core/lv_obj_style_gen.h **** 
 241:Middlewares/LVGL/GUI/lvgl/src/extra/widgets/msgbox/../../../../src/core/lv_obj_style_gen.h **** static inline lv_coord_t lv_obj_get_style_border_width(const struct _lv_obj_t * obj, uint32_t part)
 242:Middlewares/LVGL/GUI/lvgl/src/extra/widgets/msgbox/../../../../src/core/lv_obj_style_gen.h **** {
 243:Middlewares/LVGL/GUI/lvgl/src/extra/widgets/msgbox/../../../../src/core/lv_obj_style_gen.h ****     lv_style_value_t v = lv_obj_get_style_prop(obj, part, LV_STYLE_BORDER_WIDTH);
 244:Middlewares/LVGL/GUI/lvgl/src/extra/widgets/msgbox/../../../../src/core/lv_obj_style_gen.h ****     return (lv_coord_t)v.num;
 245:Middlewares/LVGL/GUI/lvgl/src/extra/widgets/msgbox/../../../../src/core/lv_obj_style_gen.h **** }
 246:Middlewares/LVGL/GUI/lvgl/src/extra/widgets/msgbox/../../../../src/core/lv_obj_style_gen.h **** 
 247:Middlewares/LVGL/GUI/lvgl/src/extra/widgets/msgbox/../../../../src/core/lv_obj_style_gen.h **** static inline lv_border_side_t lv_obj_get_style_border_side(const struct _lv_obj_t * obj, uint32_t 
 248:Middlewares/LVGL/GUI/lvgl/src/extra/widgets/msgbox/../../../../src/core/lv_obj_style_gen.h **** {
 249:Middlewares/LVGL/GUI/lvgl/src/extra/widgets/msgbox/../../../../src/core/lv_obj_style_gen.h ****     lv_style_value_t v = lv_obj_get_style_prop(obj, part, LV_STYLE_BORDER_SIDE);
 250:Middlewares/LVGL/GUI/lvgl/src/extra/widgets/msgbox/../../../../src/core/lv_obj_style_gen.h ****     return (lv_border_side_t)v.num;
 251:Middlewares/LVGL/GUI/lvgl/src/extra/widgets/msgbox/../../../../src/core/lv_obj_style_gen.h **** }
 252:Middlewares/LVGL/GUI/lvgl/src/extra/widgets/msgbox/../../../../src/core/lv_obj_style_gen.h **** 
 253:Middlewares/LVGL/GUI/lvgl/src/extra/widgets/msgbox/../../../../src/core/lv_obj_style_gen.h **** static inline bool lv_obj_get_style_border_post(const struct _lv_obj_t * obj, uint32_t part)
 254:Middlewares/LVGL/GUI/lvgl/src/extra/widgets/msgbox/../../../../src/core/lv_obj_style_gen.h **** {
 255:Middlewares/LVGL/GUI/lvgl/src/extra/widgets/msgbox/../../../../src/core/lv_obj_style_gen.h ****     lv_style_value_t v = lv_obj_get_style_prop(obj, part, LV_STYLE_BORDER_POST);
 256:Middlewares/LVGL/GUI/lvgl/src/extra/widgets/msgbox/../../../../src/core/lv_obj_style_gen.h ****     return (bool)v.num;
 257:Middlewares/LVGL/GUI/lvgl/src/extra/widgets/msgbox/../../../../src/core/lv_obj_style_gen.h **** }
 258:Middlewares/LVGL/GUI/lvgl/src/extra/widgets/msgbox/../../../../src/core/lv_obj_style_gen.h **** 
 259:Middlewares/LVGL/GUI/lvgl/src/extra/widgets/msgbox/../../../../src/core/lv_obj_style_gen.h **** static inline lv_coord_t lv_obj_get_style_outline_width(const struct _lv_obj_t * obj, uint32_t part
 260:Middlewares/LVGL/GUI/lvgl/src/extra/widgets/msgbox/../../../../src/core/lv_obj_style_gen.h **** {
 261:Middlewares/LVGL/GUI/lvgl/src/extra/widgets/msgbox/../../../../src/core/lv_obj_style_gen.h ****     lv_style_value_t v = lv_obj_get_style_prop(obj, part, LV_STYLE_OUTLINE_WIDTH);
 262:Middlewares/LVGL/GUI/lvgl/src/extra/widgets/msgbox/../../../../src/core/lv_obj_style_gen.h ****     return (lv_coord_t)v.num;
 263:Middlewares/LVGL/GUI/lvgl/src/extra/widgets/msgbox/../../../../src/core/lv_obj_style_gen.h **** }
 264:Middlewares/LVGL/GUI/lvgl/src/extra/widgets/msgbox/../../../../src/core/lv_obj_style_gen.h **** 
 265:Middlewares/LVGL/GUI/lvgl/src/extra/widgets/msgbox/../../../../src/core/lv_obj_style_gen.h **** static inline lv_color_t lv_obj_get_style_outline_color(const struct _lv_obj_t * obj, uint32_t part
 266:Middlewares/LVGL/GUI/lvgl/src/extra/widgets/msgbox/../../../../src/core/lv_obj_style_gen.h **** {
 267:Middlewares/LVGL/GUI/lvgl/src/extra/widgets/msgbox/../../../../src/core/lv_obj_style_gen.h ****     lv_style_value_t v = lv_obj_get_style_prop(obj, part, LV_STYLE_OUTLINE_COLOR);
 268:Middlewares/LVGL/GUI/lvgl/src/extra/widgets/msgbox/../../../../src/core/lv_obj_style_gen.h ****     return v.color;
 269:Middlewares/LVGL/GUI/lvgl/src/extra/widgets/msgbox/../../../../src/core/lv_obj_style_gen.h **** }
 270:Middlewares/LVGL/GUI/lvgl/src/extra/widgets/msgbox/../../../../src/core/lv_obj_style_gen.h **** 
 271:Middlewares/LVGL/GUI/lvgl/src/extra/widgets/msgbox/../../../../src/core/lv_obj_style_gen.h **** static inline lv_color_t lv_obj_get_style_outline_color_filtered(const struct _lv_obj_t * obj, uint
 272:Middlewares/LVGL/GUI/lvgl/src/extra/widgets/msgbox/../../../../src/core/lv_obj_style_gen.h **** {
 273:Middlewares/LVGL/GUI/lvgl/src/extra/widgets/msgbox/../../../../src/core/lv_obj_style_gen.h ****     lv_style_value_t v = lv_obj_get_style_prop(obj, part, LV_STYLE_OUTLINE_COLOR_FILTERED);
 274:Middlewares/LVGL/GUI/lvgl/src/extra/widgets/msgbox/../../../../src/core/lv_obj_style_gen.h ****     return v.color;
 275:Middlewares/LVGL/GUI/lvgl/src/extra/widgets/msgbox/../../../../src/core/lv_obj_style_gen.h **** }
 276:Middlewares/LVGL/GUI/lvgl/src/extra/widgets/msgbox/../../../../src/core/lv_obj_style_gen.h **** 
 277:Middlewares/LVGL/GUI/lvgl/src/extra/widgets/msgbox/../../../../src/core/lv_obj_style_gen.h **** static inline lv_opa_t lv_obj_get_style_outline_opa(const struct _lv_obj_t * obj, uint32_t part)
ARM GAS  C:\Users\ADMINI~1\AppData\Local\Temp\ccxvSaAM.s 			page 18


 278:Middlewares/LVGL/GUI/lvgl/src/extra/widgets/msgbox/../../../../src/core/lv_obj_style_gen.h **** {
 279:Middlewares/LVGL/GUI/lvgl/src/extra/widgets/msgbox/../../../../src/core/lv_obj_style_gen.h ****     lv_style_value_t v = lv_obj_get_style_prop(obj, part, LV_STYLE_OUTLINE_OPA);
 280:Middlewares/LVGL/GUI/lvgl/src/extra/widgets/msgbox/../../../../src/core/lv_obj_style_gen.h ****     return (lv_opa_t)v.num;
 281:Middlewares/LVGL/GUI/lvgl/src/extra/widgets/msgbox/../../../../src/core/lv_obj_style_gen.h **** }
 282:Middlewares/LVGL/GUI/lvgl/src/extra/widgets/msgbox/../../../../src/core/lv_obj_style_gen.h **** 
 283:Middlewares/LVGL/GUI/lvgl/src/extra/widgets/msgbox/../../../../src/core/lv_obj_style_gen.h **** static inline lv_coord_t lv_obj_get_style_outline_pad(const struct _lv_obj_t * obj, uint32_t part)
 284:Middlewares/LVGL/GUI/lvgl/src/extra/widgets/msgbox/../../../../src/core/lv_obj_style_gen.h **** {
 285:Middlewares/LVGL/GUI/lvgl/src/extra/widgets/msgbox/../../../../src/core/lv_obj_style_gen.h ****     lv_style_value_t v = lv_obj_get_style_prop(obj, part, LV_STYLE_OUTLINE_PAD);
 286:Middlewares/LVGL/GUI/lvgl/src/extra/widgets/msgbox/../../../../src/core/lv_obj_style_gen.h ****     return (lv_coord_t)v.num;
 287:Middlewares/LVGL/GUI/lvgl/src/extra/widgets/msgbox/../../../../src/core/lv_obj_style_gen.h **** }
 288:Middlewares/LVGL/GUI/lvgl/src/extra/widgets/msgbox/../../../../src/core/lv_obj_style_gen.h **** 
 289:Middlewares/LVGL/GUI/lvgl/src/extra/widgets/msgbox/../../../../src/core/lv_obj_style_gen.h **** static inline lv_coord_t lv_obj_get_style_shadow_width(const struct _lv_obj_t * obj, uint32_t part)
 290:Middlewares/LVGL/GUI/lvgl/src/extra/widgets/msgbox/../../../../src/core/lv_obj_style_gen.h **** {
 291:Middlewares/LVGL/GUI/lvgl/src/extra/widgets/msgbox/../../../../src/core/lv_obj_style_gen.h ****     lv_style_value_t v = lv_obj_get_style_prop(obj, part, LV_STYLE_SHADOW_WIDTH);
 292:Middlewares/LVGL/GUI/lvgl/src/extra/widgets/msgbox/../../../../src/core/lv_obj_style_gen.h ****     return (lv_coord_t)v.num;
 293:Middlewares/LVGL/GUI/lvgl/src/extra/widgets/msgbox/../../../../src/core/lv_obj_style_gen.h **** }
 294:Middlewares/LVGL/GUI/lvgl/src/extra/widgets/msgbox/../../../../src/core/lv_obj_style_gen.h **** 
 295:Middlewares/LVGL/GUI/lvgl/src/extra/widgets/msgbox/../../../../src/core/lv_obj_style_gen.h **** static inline lv_coord_t lv_obj_get_style_shadow_ofs_x(const struct _lv_obj_t * obj, uint32_t part)
 296:Middlewares/LVGL/GUI/lvgl/src/extra/widgets/msgbox/../../../../src/core/lv_obj_style_gen.h **** {
 297:Middlewares/LVGL/GUI/lvgl/src/extra/widgets/msgbox/../../../../src/core/lv_obj_style_gen.h ****     lv_style_value_t v = lv_obj_get_style_prop(obj, part, LV_STYLE_SHADOW_OFS_X);
 298:Middlewares/LVGL/GUI/lvgl/src/extra/widgets/msgbox/../../../../src/core/lv_obj_style_gen.h ****     return (lv_coord_t)v.num;
 299:Middlewares/LVGL/GUI/lvgl/src/extra/widgets/msgbox/../../../../src/core/lv_obj_style_gen.h **** }
 300:Middlewares/LVGL/GUI/lvgl/src/extra/widgets/msgbox/../../../../src/core/lv_obj_style_gen.h **** 
 301:Middlewares/LVGL/GUI/lvgl/src/extra/widgets/msgbox/../../../../src/core/lv_obj_style_gen.h **** static inline lv_coord_t lv_obj_get_style_shadow_ofs_y(const struct _lv_obj_t * obj, uint32_t part)
 302:Middlewares/LVGL/GUI/lvgl/src/extra/widgets/msgbox/../../../../src/core/lv_obj_style_gen.h **** {
 303:Middlewares/LVGL/GUI/lvgl/src/extra/widgets/msgbox/../../../../src/core/lv_obj_style_gen.h ****     lv_style_value_t v = lv_obj_get_style_prop(obj, part, LV_STYLE_SHADOW_OFS_Y);
 304:Middlewares/LVGL/GUI/lvgl/src/extra/widgets/msgbox/../../../../src/core/lv_obj_style_gen.h ****     return (lv_coord_t)v.num;
 305:Middlewares/LVGL/GUI/lvgl/src/extra/widgets/msgbox/../../../../src/core/lv_obj_style_gen.h **** }
 306:Middlewares/LVGL/GUI/lvgl/src/extra/widgets/msgbox/../../../../src/core/lv_obj_style_gen.h **** 
 307:Middlewares/LVGL/GUI/lvgl/src/extra/widgets/msgbox/../../../../src/core/lv_obj_style_gen.h **** static inline lv_coord_t lv_obj_get_style_shadow_spread(const struct _lv_obj_t * obj, uint32_t part
 308:Middlewares/LVGL/GUI/lvgl/src/extra/widgets/msgbox/../../../../src/core/lv_obj_style_gen.h **** {
 309:Middlewares/LVGL/GUI/lvgl/src/extra/widgets/msgbox/../../../../src/core/lv_obj_style_gen.h ****     lv_style_value_t v = lv_obj_get_style_prop(obj, part, LV_STYLE_SHADOW_SPREAD);
 310:Middlewares/LVGL/GUI/lvgl/src/extra/widgets/msgbox/../../../../src/core/lv_obj_style_gen.h ****     return (lv_coord_t)v.num;
 311:Middlewares/LVGL/GUI/lvgl/src/extra/widgets/msgbox/../../../../src/core/lv_obj_style_gen.h **** }
 312:Middlewares/LVGL/GUI/lvgl/src/extra/widgets/msgbox/../../../../src/core/lv_obj_style_gen.h **** 
 313:Middlewares/LVGL/GUI/lvgl/src/extra/widgets/msgbox/../../../../src/core/lv_obj_style_gen.h **** static inline lv_color_t lv_obj_get_style_shadow_color(const struct _lv_obj_t * obj, uint32_t part)
 314:Middlewares/LVGL/GUI/lvgl/src/extra/widgets/msgbox/../../../../src/core/lv_obj_style_gen.h **** {
 315:Middlewares/LVGL/GUI/lvgl/src/extra/widgets/msgbox/../../../../src/core/lv_obj_style_gen.h ****     lv_style_value_t v = lv_obj_get_style_prop(obj, part, LV_STYLE_SHADOW_COLOR);
 316:Middlewares/LVGL/GUI/lvgl/src/extra/widgets/msgbox/../../../../src/core/lv_obj_style_gen.h ****     return v.color;
 317:Middlewares/LVGL/GUI/lvgl/src/extra/widgets/msgbox/../../../../src/core/lv_obj_style_gen.h **** }
 318:Middlewares/LVGL/GUI/lvgl/src/extra/widgets/msgbox/../../../../src/core/lv_obj_style_gen.h **** 
 319:Middlewares/LVGL/GUI/lvgl/src/extra/widgets/msgbox/../../../../src/core/lv_obj_style_gen.h **** static inline lv_color_t lv_obj_get_style_shadow_color_filtered(const struct _lv_obj_t * obj, uint3
 320:Middlewares/LVGL/GUI/lvgl/src/extra/widgets/msgbox/../../../../src/core/lv_obj_style_gen.h **** {
 321:Middlewares/LVGL/GUI/lvgl/src/extra/widgets/msgbox/../../../../src/core/lv_obj_style_gen.h ****     lv_style_value_t v = lv_obj_get_style_prop(obj, part, LV_STYLE_SHADOW_COLOR_FILTERED);
 322:Middlewares/LVGL/GUI/lvgl/src/extra/widgets/msgbox/../../../../src/core/lv_obj_style_gen.h ****     return v.color;
 323:Middlewares/LVGL/GUI/lvgl/src/extra/widgets/msgbox/../../../../src/core/lv_obj_style_gen.h **** }
 324:Middlewares/LVGL/GUI/lvgl/src/extra/widgets/msgbox/../../../../src/core/lv_obj_style_gen.h **** 
 325:Middlewares/LVGL/GUI/lvgl/src/extra/widgets/msgbox/../../../../src/core/lv_obj_style_gen.h **** static inline lv_opa_t lv_obj_get_style_shadow_opa(const struct _lv_obj_t * obj, uint32_t part)
 326:Middlewares/LVGL/GUI/lvgl/src/extra/widgets/msgbox/../../../../src/core/lv_obj_style_gen.h **** {
 327:Middlewares/LVGL/GUI/lvgl/src/extra/widgets/msgbox/../../../../src/core/lv_obj_style_gen.h ****     lv_style_value_t v = lv_obj_get_style_prop(obj, part, LV_STYLE_SHADOW_OPA);
 328:Middlewares/LVGL/GUI/lvgl/src/extra/widgets/msgbox/../../../../src/core/lv_obj_style_gen.h ****     return (lv_opa_t)v.num;
 329:Middlewares/LVGL/GUI/lvgl/src/extra/widgets/msgbox/../../../../src/core/lv_obj_style_gen.h **** }
 330:Middlewares/LVGL/GUI/lvgl/src/extra/widgets/msgbox/../../../../src/core/lv_obj_style_gen.h **** 
 331:Middlewares/LVGL/GUI/lvgl/src/extra/widgets/msgbox/../../../../src/core/lv_obj_style_gen.h **** static inline lv_opa_t lv_obj_get_style_img_opa(const struct _lv_obj_t * obj, uint32_t part)
 332:Middlewares/LVGL/GUI/lvgl/src/extra/widgets/msgbox/../../../../src/core/lv_obj_style_gen.h **** {
 333:Middlewares/LVGL/GUI/lvgl/src/extra/widgets/msgbox/../../../../src/core/lv_obj_style_gen.h ****     lv_style_value_t v = lv_obj_get_style_prop(obj, part, LV_STYLE_IMG_OPA);
 334:Middlewares/LVGL/GUI/lvgl/src/extra/widgets/msgbox/../../../../src/core/lv_obj_style_gen.h ****     return (lv_opa_t)v.num;
ARM GAS  C:\Users\ADMINI~1\AppData\Local\Temp\ccxvSaAM.s 			page 19


 335:Middlewares/LVGL/GUI/lvgl/src/extra/widgets/msgbox/../../../../src/core/lv_obj_style_gen.h **** }
 336:Middlewares/LVGL/GUI/lvgl/src/extra/widgets/msgbox/../../../../src/core/lv_obj_style_gen.h **** 
 337:Middlewares/LVGL/GUI/lvgl/src/extra/widgets/msgbox/../../../../src/core/lv_obj_style_gen.h **** static inline lv_color_t lv_obj_get_style_img_recolor(const struct _lv_obj_t * obj, uint32_t part)
 338:Middlewares/LVGL/GUI/lvgl/src/extra/widgets/msgbox/../../../../src/core/lv_obj_style_gen.h **** {
 339:Middlewares/LVGL/GUI/lvgl/src/extra/widgets/msgbox/../../../../src/core/lv_obj_style_gen.h ****     lv_style_value_t v = lv_obj_get_style_prop(obj, part, LV_STYLE_IMG_RECOLOR);
 340:Middlewares/LVGL/GUI/lvgl/src/extra/widgets/msgbox/../../../../src/core/lv_obj_style_gen.h ****     return v.color;
 341:Middlewares/LVGL/GUI/lvgl/src/extra/widgets/msgbox/../../../../src/core/lv_obj_style_gen.h **** }
 342:Middlewares/LVGL/GUI/lvgl/src/extra/widgets/msgbox/../../../../src/core/lv_obj_style_gen.h **** 
 343:Middlewares/LVGL/GUI/lvgl/src/extra/widgets/msgbox/../../../../src/core/lv_obj_style_gen.h **** static inline lv_color_t lv_obj_get_style_img_recolor_filtered(const struct _lv_obj_t * obj, uint32
 344:Middlewares/LVGL/GUI/lvgl/src/extra/widgets/msgbox/../../../../src/core/lv_obj_style_gen.h **** {
 345:Middlewares/LVGL/GUI/lvgl/src/extra/widgets/msgbox/../../../../src/core/lv_obj_style_gen.h ****     lv_style_value_t v = lv_obj_get_style_prop(obj, part, LV_STYLE_IMG_RECOLOR_FILTERED);
 346:Middlewares/LVGL/GUI/lvgl/src/extra/widgets/msgbox/../../../../src/core/lv_obj_style_gen.h ****     return v.color;
 347:Middlewares/LVGL/GUI/lvgl/src/extra/widgets/msgbox/../../../../src/core/lv_obj_style_gen.h **** }
 348:Middlewares/LVGL/GUI/lvgl/src/extra/widgets/msgbox/../../../../src/core/lv_obj_style_gen.h **** 
 349:Middlewares/LVGL/GUI/lvgl/src/extra/widgets/msgbox/../../../../src/core/lv_obj_style_gen.h **** static inline lv_opa_t lv_obj_get_style_img_recolor_opa(const struct _lv_obj_t * obj, uint32_t part
 350:Middlewares/LVGL/GUI/lvgl/src/extra/widgets/msgbox/../../../../src/core/lv_obj_style_gen.h **** {
 351:Middlewares/LVGL/GUI/lvgl/src/extra/widgets/msgbox/../../../../src/core/lv_obj_style_gen.h ****     lv_style_value_t v = lv_obj_get_style_prop(obj, part, LV_STYLE_IMG_RECOLOR_OPA);
 352:Middlewares/LVGL/GUI/lvgl/src/extra/widgets/msgbox/../../../../src/core/lv_obj_style_gen.h ****     return (lv_opa_t)v.num;
 353:Middlewares/LVGL/GUI/lvgl/src/extra/widgets/msgbox/../../../../src/core/lv_obj_style_gen.h **** }
 354:Middlewares/LVGL/GUI/lvgl/src/extra/widgets/msgbox/../../../../src/core/lv_obj_style_gen.h **** 
 355:Middlewares/LVGL/GUI/lvgl/src/extra/widgets/msgbox/../../../../src/core/lv_obj_style_gen.h **** static inline lv_coord_t lv_obj_get_style_line_width(const struct _lv_obj_t * obj, uint32_t part)
 356:Middlewares/LVGL/GUI/lvgl/src/extra/widgets/msgbox/../../../../src/core/lv_obj_style_gen.h **** {
 357:Middlewares/LVGL/GUI/lvgl/src/extra/widgets/msgbox/../../../../src/core/lv_obj_style_gen.h ****     lv_style_value_t v = lv_obj_get_style_prop(obj, part, LV_STYLE_LINE_WIDTH);
 358:Middlewares/LVGL/GUI/lvgl/src/extra/widgets/msgbox/../../../../src/core/lv_obj_style_gen.h ****     return (lv_coord_t)v.num;
 359:Middlewares/LVGL/GUI/lvgl/src/extra/widgets/msgbox/../../../../src/core/lv_obj_style_gen.h **** }
 360:Middlewares/LVGL/GUI/lvgl/src/extra/widgets/msgbox/../../../../src/core/lv_obj_style_gen.h **** 
 361:Middlewares/LVGL/GUI/lvgl/src/extra/widgets/msgbox/../../../../src/core/lv_obj_style_gen.h **** static inline lv_coord_t lv_obj_get_style_line_dash_width(const struct _lv_obj_t * obj, uint32_t pa
 362:Middlewares/LVGL/GUI/lvgl/src/extra/widgets/msgbox/../../../../src/core/lv_obj_style_gen.h **** {
 363:Middlewares/LVGL/GUI/lvgl/src/extra/widgets/msgbox/../../../../src/core/lv_obj_style_gen.h ****     lv_style_value_t v = lv_obj_get_style_prop(obj, part, LV_STYLE_LINE_DASH_WIDTH);
 364:Middlewares/LVGL/GUI/lvgl/src/extra/widgets/msgbox/../../../../src/core/lv_obj_style_gen.h ****     return (lv_coord_t)v.num;
 365:Middlewares/LVGL/GUI/lvgl/src/extra/widgets/msgbox/../../../../src/core/lv_obj_style_gen.h **** }
 366:Middlewares/LVGL/GUI/lvgl/src/extra/widgets/msgbox/../../../../src/core/lv_obj_style_gen.h **** 
 367:Middlewares/LVGL/GUI/lvgl/src/extra/widgets/msgbox/../../../../src/core/lv_obj_style_gen.h **** static inline lv_coord_t lv_obj_get_style_line_dash_gap(const struct _lv_obj_t * obj, uint32_t part
 368:Middlewares/LVGL/GUI/lvgl/src/extra/widgets/msgbox/../../../../src/core/lv_obj_style_gen.h **** {
 369:Middlewares/LVGL/GUI/lvgl/src/extra/widgets/msgbox/../../../../src/core/lv_obj_style_gen.h ****     lv_style_value_t v = lv_obj_get_style_prop(obj, part, LV_STYLE_LINE_DASH_GAP);
 370:Middlewares/LVGL/GUI/lvgl/src/extra/widgets/msgbox/../../../../src/core/lv_obj_style_gen.h ****     return (lv_coord_t)v.num;
 371:Middlewares/LVGL/GUI/lvgl/src/extra/widgets/msgbox/../../../../src/core/lv_obj_style_gen.h **** }
 372:Middlewares/LVGL/GUI/lvgl/src/extra/widgets/msgbox/../../../../src/core/lv_obj_style_gen.h **** 
 373:Middlewares/LVGL/GUI/lvgl/src/extra/widgets/msgbox/../../../../src/core/lv_obj_style_gen.h **** static inline bool lv_obj_get_style_line_rounded(const struct _lv_obj_t * obj, uint32_t part)
 374:Middlewares/LVGL/GUI/lvgl/src/extra/widgets/msgbox/../../../../src/core/lv_obj_style_gen.h **** {
 375:Middlewares/LVGL/GUI/lvgl/src/extra/widgets/msgbox/../../../../src/core/lv_obj_style_gen.h ****     lv_style_value_t v = lv_obj_get_style_prop(obj, part, LV_STYLE_LINE_ROUNDED);
 376:Middlewares/LVGL/GUI/lvgl/src/extra/widgets/msgbox/../../../../src/core/lv_obj_style_gen.h ****     return (bool)v.num;
 377:Middlewares/LVGL/GUI/lvgl/src/extra/widgets/msgbox/../../../../src/core/lv_obj_style_gen.h **** }
 378:Middlewares/LVGL/GUI/lvgl/src/extra/widgets/msgbox/../../../../src/core/lv_obj_style_gen.h **** 
 379:Middlewares/LVGL/GUI/lvgl/src/extra/widgets/msgbox/../../../../src/core/lv_obj_style_gen.h **** static inline lv_color_t lv_obj_get_style_line_color(const struct _lv_obj_t * obj, uint32_t part)
 380:Middlewares/LVGL/GUI/lvgl/src/extra/widgets/msgbox/../../../../src/core/lv_obj_style_gen.h **** {
 381:Middlewares/LVGL/GUI/lvgl/src/extra/widgets/msgbox/../../../../src/core/lv_obj_style_gen.h ****     lv_style_value_t v = lv_obj_get_style_prop(obj, part, LV_STYLE_LINE_COLOR);
 382:Middlewares/LVGL/GUI/lvgl/src/extra/widgets/msgbox/../../../../src/core/lv_obj_style_gen.h ****     return v.color;
 383:Middlewares/LVGL/GUI/lvgl/src/extra/widgets/msgbox/../../../../src/core/lv_obj_style_gen.h **** }
 384:Middlewares/LVGL/GUI/lvgl/src/extra/widgets/msgbox/../../../../src/core/lv_obj_style_gen.h **** 
 385:Middlewares/LVGL/GUI/lvgl/src/extra/widgets/msgbox/../../../../src/core/lv_obj_style_gen.h **** static inline lv_color_t lv_obj_get_style_line_color_filtered(const struct _lv_obj_t * obj, uint32_
 386:Middlewares/LVGL/GUI/lvgl/src/extra/widgets/msgbox/../../../../src/core/lv_obj_style_gen.h **** {
 387:Middlewares/LVGL/GUI/lvgl/src/extra/widgets/msgbox/../../../../src/core/lv_obj_style_gen.h ****     lv_style_value_t v = lv_obj_get_style_prop(obj, part, LV_STYLE_LINE_COLOR_FILTERED);
 388:Middlewares/LVGL/GUI/lvgl/src/extra/widgets/msgbox/../../../../src/core/lv_obj_style_gen.h ****     return v.color;
 389:Middlewares/LVGL/GUI/lvgl/src/extra/widgets/msgbox/../../../../src/core/lv_obj_style_gen.h **** }
 390:Middlewares/LVGL/GUI/lvgl/src/extra/widgets/msgbox/../../../../src/core/lv_obj_style_gen.h **** 
 391:Middlewares/LVGL/GUI/lvgl/src/extra/widgets/msgbox/../../../../src/core/lv_obj_style_gen.h **** static inline lv_opa_t lv_obj_get_style_line_opa(const struct _lv_obj_t * obj, uint32_t part)
ARM GAS  C:\Users\ADMINI~1\AppData\Local\Temp\ccxvSaAM.s 			page 20


 392:Middlewares/LVGL/GUI/lvgl/src/extra/widgets/msgbox/../../../../src/core/lv_obj_style_gen.h **** {
 393:Middlewares/LVGL/GUI/lvgl/src/extra/widgets/msgbox/../../../../src/core/lv_obj_style_gen.h ****     lv_style_value_t v = lv_obj_get_style_prop(obj, part, LV_STYLE_LINE_OPA);
 394:Middlewares/LVGL/GUI/lvgl/src/extra/widgets/msgbox/../../../../src/core/lv_obj_style_gen.h ****     return (lv_opa_t)v.num;
 395:Middlewares/LVGL/GUI/lvgl/src/extra/widgets/msgbox/../../../../src/core/lv_obj_style_gen.h **** }
 396:Middlewares/LVGL/GUI/lvgl/src/extra/widgets/msgbox/../../../../src/core/lv_obj_style_gen.h **** 
 397:Middlewares/LVGL/GUI/lvgl/src/extra/widgets/msgbox/../../../../src/core/lv_obj_style_gen.h **** static inline lv_coord_t lv_obj_get_style_arc_width(const struct _lv_obj_t * obj, uint32_t part)
 398:Middlewares/LVGL/GUI/lvgl/src/extra/widgets/msgbox/../../../../src/core/lv_obj_style_gen.h **** {
 399:Middlewares/LVGL/GUI/lvgl/src/extra/widgets/msgbox/../../../../src/core/lv_obj_style_gen.h ****     lv_style_value_t v = lv_obj_get_style_prop(obj, part, LV_STYLE_ARC_WIDTH);
 400:Middlewares/LVGL/GUI/lvgl/src/extra/widgets/msgbox/../../../../src/core/lv_obj_style_gen.h ****     return (lv_coord_t)v.num;
 401:Middlewares/LVGL/GUI/lvgl/src/extra/widgets/msgbox/../../../../src/core/lv_obj_style_gen.h **** }
 402:Middlewares/LVGL/GUI/lvgl/src/extra/widgets/msgbox/../../../../src/core/lv_obj_style_gen.h **** 
 403:Middlewares/LVGL/GUI/lvgl/src/extra/widgets/msgbox/../../../../src/core/lv_obj_style_gen.h **** static inline bool lv_obj_get_style_arc_rounded(const struct _lv_obj_t * obj, uint32_t part)
 404:Middlewares/LVGL/GUI/lvgl/src/extra/widgets/msgbox/../../../../src/core/lv_obj_style_gen.h **** {
 405:Middlewares/LVGL/GUI/lvgl/src/extra/widgets/msgbox/../../../../src/core/lv_obj_style_gen.h ****     lv_style_value_t v = lv_obj_get_style_prop(obj, part, LV_STYLE_ARC_ROUNDED);
 406:Middlewares/LVGL/GUI/lvgl/src/extra/widgets/msgbox/../../../../src/core/lv_obj_style_gen.h ****     return (bool)v.num;
 407:Middlewares/LVGL/GUI/lvgl/src/extra/widgets/msgbox/../../../../src/core/lv_obj_style_gen.h **** }
 408:Middlewares/LVGL/GUI/lvgl/src/extra/widgets/msgbox/../../../../src/core/lv_obj_style_gen.h **** 
 409:Middlewares/LVGL/GUI/lvgl/src/extra/widgets/msgbox/../../../../src/core/lv_obj_style_gen.h **** static inline lv_color_t lv_obj_get_style_arc_color(const struct _lv_obj_t * obj, uint32_t part)
 410:Middlewares/LVGL/GUI/lvgl/src/extra/widgets/msgbox/../../../../src/core/lv_obj_style_gen.h **** {
 411:Middlewares/LVGL/GUI/lvgl/src/extra/widgets/msgbox/../../../../src/core/lv_obj_style_gen.h ****     lv_style_value_t v = lv_obj_get_style_prop(obj, part, LV_STYLE_ARC_COLOR);
 412:Middlewares/LVGL/GUI/lvgl/src/extra/widgets/msgbox/../../../../src/core/lv_obj_style_gen.h ****     return v.color;
 413:Middlewares/LVGL/GUI/lvgl/src/extra/widgets/msgbox/../../../../src/core/lv_obj_style_gen.h **** }
 414:Middlewares/LVGL/GUI/lvgl/src/extra/widgets/msgbox/../../../../src/core/lv_obj_style_gen.h **** 
 415:Middlewares/LVGL/GUI/lvgl/src/extra/widgets/msgbox/../../../../src/core/lv_obj_style_gen.h **** static inline lv_color_t lv_obj_get_style_arc_color_filtered(const struct _lv_obj_t * obj, uint32_t
 416:Middlewares/LVGL/GUI/lvgl/src/extra/widgets/msgbox/../../../../src/core/lv_obj_style_gen.h **** {
 417:Middlewares/LVGL/GUI/lvgl/src/extra/widgets/msgbox/../../../../src/core/lv_obj_style_gen.h ****     lv_style_value_t v = lv_obj_get_style_prop(obj, part, LV_STYLE_ARC_COLOR_FILTERED);
 418:Middlewares/LVGL/GUI/lvgl/src/extra/widgets/msgbox/../../../../src/core/lv_obj_style_gen.h ****     return v.color;
 419:Middlewares/LVGL/GUI/lvgl/src/extra/widgets/msgbox/../../../../src/core/lv_obj_style_gen.h **** }
 420:Middlewares/LVGL/GUI/lvgl/src/extra/widgets/msgbox/../../../../src/core/lv_obj_style_gen.h **** 
 421:Middlewares/LVGL/GUI/lvgl/src/extra/widgets/msgbox/../../../../src/core/lv_obj_style_gen.h **** static inline lv_opa_t lv_obj_get_style_arc_opa(const struct _lv_obj_t * obj, uint32_t part)
 422:Middlewares/LVGL/GUI/lvgl/src/extra/widgets/msgbox/../../../../src/core/lv_obj_style_gen.h **** {
 423:Middlewares/LVGL/GUI/lvgl/src/extra/widgets/msgbox/../../../../src/core/lv_obj_style_gen.h ****     lv_style_value_t v = lv_obj_get_style_prop(obj, part, LV_STYLE_ARC_OPA);
 424:Middlewares/LVGL/GUI/lvgl/src/extra/widgets/msgbox/../../../../src/core/lv_obj_style_gen.h ****     return (lv_opa_t)v.num;
 425:Middlewares/LVGL/GUI/lvgl/src/extra/widgets/msgbox/../../../../src/core/lv_obj_style_gen.h **** }
 426:Middlewares/LVGL/GUI/lvgl/src/extra/widgets/msgbox/../../../../src/core/lv_obj_style_gen.h **** 
 427:Middlewares/LVGL/GUI/lvgl/src/extra/widgets/msgbox/../../../../src/core/lv_obj_style_gen.h **** static inline const void * lv_obj_get_style_arc_img_src(const struct _lv_obj_t * obj, uint32_t part
 428:Middlewares/LVGL/GUI/lvgl/src/extra/widgets/msgbox/../../../../src/core/lv_obj_style_gen.h **** {
 429:Middlewares/LVGL/GUI/lvgl/src/extra/widgets/msgbox/../../../../src/core/lv_obj_style_gen.h ****     lv_style_value_t v = lv_obj_get_style_prop(obj, part, LV_STYLE_ARC_IMG_SRC);
 430:Middlewares/LVGL/GUI/lvgl/src/extra/widgets/msgbox/../../../../src/core/lv_obj_style_gen.h ****     return (const void *)v.ptr;
 431:Middlewares/LVGL/GUI/lvgl/src/extra/widgets/msgbox/../../../../src/core/lv_obj_style_gen.h **** }
 432:Middlewares/LVGL/GUI/lvgl/src/extra/widgets/msgbox/../../../../src/core/lv_obj_style_gen.h **** 
 433:Middlewares/LVGL/GUI/lvgl/src/extra/widgets/msgbox/../../../../src/core/lv_obj_style_gen.h **** static inline lv_color_t lv_obj_get_style_text_color(const struct _lv_obj_t * obj, uint32_t part)
 434:Middlewares/LVGL/GUI/lvgl/src/extra/widgets/msgbox/../../../../src/core/lv_obj_style_gen.h **** {
 435:Middlewares/LVGL/GUI/lvgl/src/extra/widgets/msgbox/../../../../src/core/lv_obj_style_gen.h ****     lv_style_value_t v = lv_obj_get_style_prop(obj, part, LV_STYLE_TEXT_COLOR);
 436:Middlewares/LVGL/GUI/lvgl/src/extra/widgets/msgbox/../../../../src/core/lv_obj_style_gen.h ****     return v.color;
 437:Middlewares/LVGL/GUI/lvgl/src/extra/widgets/msgbox/../../../../src/core/lv_obj_style_gen.h **** }
 438:Middlewares/LVGL/GUI/lvgl/src/extra/widgets/msgbox/../../../../src/core/lv_obj_style_gen.h **** 
 439:Middlewares/LVGL/GUI/lvgl/src/extra/widgets/msgbox/../../../../src/core/lv_obj_style_gen.h **** static inline lv_color_t lv_obj_get_style_text_color_filtered(const struct _lv_obj_t * obj, uint32_
 440:Middlewares/LVGL/GUI/lvgl/src/extra/widgets/msgbox/../../../../src/core/lv_obj_style_gen.h **** {
 441:Middlewares/LVGL/GUI/lvgl/src/extra/widgets/msgbox/../../../../src/core/lv_obj_style_gen.h ****     lv_style_value_t v = lv_obj_get_style_prop(obj, part, LV_STYLE_TEXT_COLOR_FILTERED);
 442:Middlewares/LVGL/GUI/lvgl/src/extra/widgets/msgbox/../../../../src/core/lv_obj_style_gen.h ****     return v.color;
 443:Middlewares/LVGL/GUI/lvgl/src/extra/widgets/msgbox/../../../../src/core/lv_obj_style_gen.h **** }
 444:Middlewares/LVGL/GUI/lvgl/src/extra/widgets/msgbox/../../../../src/core/lv_obj_style_gen.h **** 
 445:Middlewares/LVGL/GUI/lvgl/src/extra/widgets/msgbox/../../../../src/core/lv_obj_style_gen.h **** static inline lv_opa_t lv_obj_get_style_text_opa(const struct _lv_obj_t * obj, uint32_t part)
 446:Middlewares/LVGL/GUI/lvgl/src/extra/widgets/msgbox/../../../../src/core/lv_obj_style_gen.h **** {
 447:Middlewares/LVGL/GUI/lvgl/src/extra/widgets/msgbox/../../../../src/core/lv_obj_style_gen.h ****     lv_style_value_t v = lv_obj_get_style_prop(obj, part, LV_STYLE_TEXT_OPA);
 448:Middlewares/LVGL/GUI/lvgl/src/extra/widgets/msgbox/../../../../src/core/lv_obj_style_gen.h ****     return (lv_opa_t)v.num;
ARM GAS  C:\Users\ADMINI~1\AppData\Local\Temp\ccxvSaAM.s 			page 21


 449:Middlewares/LVGL/GUI/lvgl/src/extra/widgets/msgbox/../../../../src/core/lv_obj_style_gen.h **** }
 450:Middlewares/LVGL/GUI/lvgl/src/extra/widgets/msgbox/../../../../src/core/lv_obj_style_gen.h **** 
 451:Middlewares/LVGL/GUI/lvgl/src/extra/widgets/msgbox/../../../../src/core/lv_obj_style_gen.h **** static inline const lv_font_t * lv_obj_get_style_text_font(const struct _lv_obj_t * obj, uint32_t p
 354              		.loc 3 451 33 discriminator 4 view .LVU107
 355              	.LBB37:
 452:Middlewares/LVGL/GUI/lvgl/src/extra/widgets/msgbox/../../../../src/core/lv_obj_style_gen.h **** {
 453:Middlewares/LVGL/GUI/lvgl/src/extra/widgets/msgbox/../../../../src/core/lv_obj_style_gen.h ****     lv_style_value_t v = lv_obj_get_style_prop(obj, part, LV_STYLE_TEXT_FONT);
 356              		.loc 3 453 5 discriminator 4 view .LVU108
 357              		.loc 3 453 26 is_stmt 0 discriminator 4 view .LVU109
 358 0158 41F25942 		movw	r2, #5209
 359 015c 0021     		movs	r1, #0
 360 015e 206B     		ldr	r0, [r4, #48]
 361 0160 FFF7FEFF 		bl	lv_obj_get_style_prop
 362              	.LVL42:
 454:Middlewares/LVGL/GUI/lvgl/src/extra/widgets/msgbox/../../../../src/core/lv_obj_style_gen.h ****     return (const lv_font_t *)v.ptr;
 363              		.loc 3 454 5 is_stmt 1 discriminator 4 view .LVU110
 364              		.loc 3 454 5 is_stmt 0 discriminator 4 view .LVU111
 365              	.LBE37:
 366              	.LBE36:
 103:Middlewares/LVGL/GUI/lvgl/src/extra/widgets/msgbox/lv_msgbox.c ****         lv_obj_set_size(mbox->close_btn, close_btn_size, close_btn_size);
 367              		.loc 1 103 9 is_stmt 1 discriminator 4 view .LVU112
 368              	.LBB38:
 369              	.LBI38:
 370              		.file 4 "Middlewares/LVGL/GUI/lvgl/src/extra/widgets/msgbox/../../../../src/hal/../draw/../misc/..
   1:Middlewares/LVGL/GUI/lvgl/src/extra/widgets/msgbox/../../../../src/hal/../draw/../misc/../font/lv_font.h **** /**
   2:Middlewares/LVGL/GUI/lvgl/src/extra/widgets/msgbox/../../../../src/hal/../draw/../misc/../font/lv_font.h ****  * @file lv_font.h
   3:Middlewares/LVGL/GUI/lvgl/src/extra/widgets/msgbox/../../../../src/hal/../draw/../misc/../font/lv_font.h ****  *
   4:Middlewares/LVGL/GUI/lvgl/src/extra/widgets/msgbox/../../../../src/hal/../draw/../misc/../font/lv_font.h ****  */
   5:Middlewares/LVGL/GUI/lvgl/src/extra/widgets/msgbox/../../../../src/hal/../draw/../misc/../font/lv_font.h **** 
   6:Middlewares/LVGL/GUI/lvgl/src/extra/widgets/msgbox/../../../../src/hal/../draw/../misc/../font/lv_font.h **** #ifndef LV_FONT_H
   7:Middlewares/LVGL/GUI/lvgl/src/extra/widgets/msgbox/../../../../src/hal/../draw/../misc/../font/lv_font.h **** #define LV_FONT_H
   8:Middlewares/LVGL/GUI/lvgl/src/extra/widgets/msgbox/../../../../src/hal/../draw/../misc/../font/lv_font.h **** 
   9:Middlewares/LVGL/GUI/lvgl/src/extra/widgets/msgbox/../../../../src/hal/../draw/../misc/../font/lv_font.h **** #ifdef __cplusplus
  10:Middlewares/LVGL/GUI/lvgl/src/extra/widgets/msgbox/../../../../src/hal/../draw/../misc/../font/lv_font.h **** extern "C" {
  11:Middlewares/LVGL/GUI/lvgl/src/extra/widgets/msgbox/../../../../src/hal/../draw/../misc/../font/lv_font.h **** #endif
  12:Middlewares/LVGL/GUI/lvgl/src/extra/widgets/msgbox/../../../../src/hal/../draw/../misc/../font/lv_font.h **** 
  13:Middlewares/LVGL/GUI/lvgl/src/extra/widgets/msgbox/../../../../src/hal/../draw/../misc/../font/lv_font.h **** /*********************
  14:Middlewares/LVGL/GUI/lvgl/src/extra/widgets/msgbox/../../../../src/hal/../draw/../misc/../font/lv_font.h ****  *      INCLUDES
  15:Middlewares/LVGL/GUI/lvgl/src/extra/widgets/msgbox/../../../../src/hal/../draw/../misc/../font/lv_font.h ****  *********************/
  16:Middlewares/LVGL/GUI/lvgl/src/extra/widgets/msgbox/../../../../src/hal/../draw/../misc/../font/lv_font.h **** #include "../lv_conf_internal.h"
  17:Middlewares/LVGL/GUI/lvgl/src/extra/widgets/msgbox/../../../../src/hal/../draw/../misc/../font/lv_font.h **** #include <stdint.h>
  18:Middlewares/LVGL/GUI/lvgl/src/extra/widgets/msgbox/../../../../src/hal/../draw/../misc/../font/lv_font.h **** #include <stddef.h>
  19:Middlewares/LVGL/GUI/lvgl/src/extra/widgets/msgbox/../../../../src/hal/../draw/../misc/../font/lv_font.h **** #include <stdbool.h>
  20:Middlewares/LVGL/GUI/lvgl/src/extra/widgets/msgbox/../../../../src/hal/../draw/../misc/../font/lv_font.h **** 
  21:Middlewares/LVGL/GUI/lvgl/src/extra/widgets/msgbox/../../../../src/hal/../draw/../misc/../font/lv_font.h **** #include "lv_symbol_def.h"
  22:Middlewares/LVGL/GUI/lvgl/src/extra/widgets/msgbox/../../../../src/hal/../draw/../misc/../font/lv_font.h **** #include "../misc/lv_area.h"
  23:Middlewares/LVGL/GUI/lvgl/src/extra/widgets/msgbox/../../../../src/hal/../draw/../misc/../font/lv_font.h **** 
  24:Middlewares/LVGL/GUI/lvgl/src/extra/widgets/msgbox/../../../../src/hal/../draw/../misc/../font/lv_font.h **** /*********************
  25:Middlewares/LVGL/GUI/lvgl/src/extra/widgets/msgbox/../../../../src/hal/../draw/../misc/../font/lv_font.h ****  *      DEFINES
  26:Middlewares/LVGL/GUI/lvgl/src/extra/widgets/msgbox/../../../../src/hal/../draw/../misc/../font/lv_font.h ****  *********************/
  27:Middlewares/LVGL/GUI/lvgl/src/extra/widgets/msgbox/../../../../src/hal/../draw/../misc/../font/lv_font.h **** 
  28:Middlewares/LVGL/GUI/lvgl/src/extra/widgets/msgbox/../../../../src/hal/../draw/../misc/../font/lv_font.h **** /**********************
  29:Middlewares/LVGL/GUI/lvgl/src/extra/widgets/msgbox/../../../../src/hal/../draw/../misc/../font/lv_font.h ****  *      TYPEDEFS
  30:Middlewares/LVGL/GUI/lvgl/src/extra/widgets/msgbox/../../../../src/hal/../draw/../misc/../font/lv_font.h ****  **********************/
  31:Middlewares/LVGL/GUI/lvgl/src/extra/widgets/msgbox/../../../../src/hal/../draw/../misc/../font/lv_font.h **** 
  32:Middlewares/LVGL/GUI/lvgl/src/extra/widgets/msgbox/../../../../src/hal/../draw/../misc/../font/lv_font.h **** /*------------------
  33:Middlewares/LVGL/GUI/lvgl/src/extra/widgets/msgbox/../../../../src/hal/../draw/../misc/../font/lv_font.h ****  * General types
ARM GAS  C:\Users\ADMINI~1\AppData\Local\Temp\ccxvSaAM.s 			page 22


  34:Middlewares/LVGL/GUI/lvgl/src/extra/widgets/msgbox/../../../../src/hal/../draw/../misc/../font/lv_font.h ****  *-----------------*/
  35:Middlewares/LVGL/GUI/lvgl/src/extra/widgets/msgbox/../../../../src/hal/../draw/../misc/../font/lv_font.h **** 
  36:Middlewares/LVGL/GUI/lvgl/src/extra/widgets/msgbox/../../../../src/hal/../draw/../misc/../font/lv_font.h **** struct _lv_font_t;
  37:Middlewares/LVGL/GUI/lvgl/src/extra/widgets/msgbox/../../../../src/hal/../draw/../misc/../font/lv_font.h **** /** Describes the properties of a glyph.*/
  38:Middlewares/LVGL/GUI/lvgl/src/extra/widgets/msgbox/../../../../src/hal/../draw/../misc/../font/lv_font.h **** typedef struct {
  39:Middlewares/LVGL/GUI/lvgl/src/extra/widgets/msgbox/../../../../src/hal/../draw/../misc/../font/lv_font.h ****     const struct _lv_font_t *
  40:Middlewares/LVGL/GUI/lvgl/src/extra/widgets/msgbox/../../../../src/hal/../draw/../misc/../font/lv_font.h ****         resolved_font; /**< Pointer to a font where the gylph was actually found after handling fal
  41:Middlewares/LVGL/GUI/lvgl/src/extra/widgets/msgbox/../../../../src/hal/../draw/../misc/../font/lv_font.h ****     uint16_t adv_w; /**< The glyph needs this space. Draw the next glyph after this width.*/
  42:Middlewares/LVGL/GUI/lvgl/src/extra/widgets/msgbox/../../../../src/hal/../draw/../misc/../font/lv_font.h ****     uint16_t box_w; /**< Width of the glyph's bounding box*/
  43:Middlewares/LVGL/GUI/lvgl/src/extra/widgets/msgbox/../../../../src/hal/../draw/../misc/../font/lv_font.h ****     uint16_t box_h; /**< Height of the glyph's bounding box*/
  44:Middlewares/LVGL/GUI/lvgl/src/extra/widgets/msgbox/../../../../src/hal/../draw/../misc/../font/lv_font.h ****     int16_t ofs_x;  /**< x offset of the bounding box*/
  45:Middlewares/LVGL/GUI/lvgl/src/extra/widgets/msgbox/../../../../src/hal/../draw/../misc/../font/lv_font.h ****     int16_t ofs_y;  /**< y offset of the bounding box*/
  46:Middlewares/LVGL/GUI/lvgl/src/extra/widgets/msgbox/../../../../src/hal/../draw/../misc/../font/lv_font.h ****     uint8_t bpp: 4;  /**< Bit-per-pixel: 1, 2, 4, 8*/
  47:Middlewares/LVGL/GUI/lvgl/src/extra/widgets/msgbox/../../../../src/hal/../draw/../misc/../font/lv_font.h ****     uint8_t is_placeholder: 1; /** Glyph is missing. But placeholder will still be displayed */
  48:Middlewares/LVGL/GUI/lvgl/src/extra/widgets/msgbox/../../../../src/hal/../draw/../misc/../font/lv_font.h **** } lv_font_glyph_dsc_t;
  49:Middlewares/LVGL/GUI/lvgl/src/extra/widgets/msgbox/../../../../src/hal/../draw/../misc/../font/lv_font.h **** 
  50:Middlewares/LVGL/GUI/lvgl/src/extra/widgets/msgbox/../../../../src/hal/../draw/../misc/../font/lv_font.h **** /** The bitmaps might be upscaled by 3 to achieve subpixel rendering.*/
  51:Middlewares/LVGL/GUI/lvgl/src/extra/widgets/msgbox/../../../../src/hal/../draw/../misc/../font/lv_font.h **** enum {
  52:Middlewares/LVGL/GUI/lvgl/src/extra/widgets/msgbox/../../../../src/hal/../draw/../misc/../font/lv_font.h ****     LV_FONT_SUBPX_NONE,
  53:Middlewares/LVGL/GUI/lvgl/src/extra/widgets/msgbox/../../../../src/hal/../draw/../misc/../font/lv_font.h ****     LV_FONT_SUBPX_HOR,
  54:Middlewares/LVGL/GUI/lvgl/src/extra/widgets/msgbox/../../../../src/hal/../draw/../misc/../font/lv_font.h ****     LV_FONT_SUBPX_VER,
  55:Middlewares/LVGL/GUI/lvgl/src/extra/widgets/msgbox/../../../../src/hal/../draw/../misc/../font/lv_font.h ****     LV_FONT_SUBPX_BOTH,
  56:Middlewares/LVGL/GUI/lvgl/src/extra/widgets/msgbox/../../../../src/hal/../draw/../misc/../font/lv_font.h **** };
  57:Middlewares/LVGL/GUI/lvgl/src/extra/widgets/msgbox/../../../../src/hal/../draw/../misc/../font/lv_font.h **** 
  58:Middlewares/LVGL/GUI/lvgl/src/extra/widgets/msgbox/../../../../src/hal/../draw/../misc/../font/lv_font.h **** typedef uint8_t lv_font_subpx_t;
  59:Middlewares/LVGL/GUI/lvgl/src/extra/widgets/msgbox/../../../../src/hal/../draw/../misc/../font/lv_font.h **** 
  60:Middlewares/LVGL/GUI/lvgl/src/extra/widgets/msgbox/../../../../src/hal/../draw/../misc/../font/lv_font.h **** /** Describe the properties of a font*/
  61:Middlewares/LVGL/GUI/lvgl/src/extra/widgets/msgbox/../../../../src/hal/../draw/../misc/../font/lv_font.h **** typedef struct _lv_font_t {
  62:Middlewares/LVGL/GUI/lvgl/src/extra/widgets/msgbox/../../../../src/hal/../draw/../misc/../font/lv_font.h ****     /** Get a glyph's descriptor from a font*/
  63:Middlewares/LVGL/GUI/lvgl/src/extra/widgets/msgbox/../../../../src/hal/../draw/../misc/../font/lv_font.h ****     bool (*get_glyph_dsc)(const struct _lv_font_t *, lv_font_glyph_dsc_t *, uint32_t letter, uint32
  64:Middlewares/LVGL/GUI/lvgl/src/extra/widgets/msgbox/../../../../src/hal/../draw/../misc/../font/lv_font.h **** 
  65:Middlewares/LVGL/GUI/lvgl/src/extra/widgets/msgbox/../../../../src/hal/../draw/../misc/../font/lv_font.h ****     /** Get a glyph's bitmap from a font*/
  66:Middlewares/LVGL/GUI/lvgl/src/extra/widgets/msgbox/../../../../src/hal/../draw/../misc/../font/lv_font.h ****     const uint8_t * (*get_glyph_bitmap)(const struct _lv_font_t *, uint32_t);
  67:Middlewares/LVGL/GUI/lvgl/src/extra/widgets/msgbox/../../../../src/hal/../draw/../misc/../font/lv_font.h **** 
  68:Middlewares/LVGL/GUI/lvgl/src/extra/widgets/msgbox/../../../../src/hal/../draw/../misc/../font/lv_font.h ****     /*Pointer to the font in a font pack (must have the same line height)*/
  69:Middlewares/LVGL/GUI/lvgl/src/extra/widgets/msgbox/../../../../src/hal/../draw/../misc/../font/lv_font.h ****     lv_coord_t line_height;         /**< The real line height where any text fits*/
  70:Middlewares/LVGL/GUI/lvgl/src/extra/widgets/msgbox/../../../../src/hal/../draw/../misc/../font/lv_font.h ****     lv_coord_t base_line;           /**< Base line measured from the top of the line_height*/
  71:Middlewares/LVGL/GUI/lvgl/src/extra/widgets/msgbox/../../../../src/hal/../draw/../misc/../font/lv_font.h ****     uint8_t subpx  : 2;             /**< An element of `lv_font_subpx_t`*/
  72:Middlewares/LVGL/GUI/lvgl/src/extra/widgets/msgbox/../../../../src/hal/../draw/../misc/../font/lv_font.h **** 
  73:Middlewares/LVGL/GUI/lvgl/src/extra/widgets/msgbox/../../../../src/hal/../draw/../misc/../font/lv_font.h ****     int8_t underline_position;      /**< Distance between the top of the underline and base line (<
  74:Middlewares/LVGL/GUI/lvgl/src/extra/widgets/msgbox/../../../../src/hal/../draw/../misc/../font/lv_font.h ****     int8_t underline_thickness;     /**< Thickness of the underline*/
  75:Middlewares/LVGL/GUI/lvgl/src/extra/widgets/msgbox/../../../../src/hal/../draw/../misc/../font/lv_font.h **** 
  76:Middlewares/LVGL/GUI/lvgl/src/extra/widgets/msgbox/../../../../src/hal/../draw/../misc/../font/lv_font.h ****     const void * dsc;               /**< Store implementation specific or run_time data or caching 
  77:Middlewares/LVGL/GUI/lvgl/src/extra/widgets/msgbox/../../../../src/hal/../draw/../misc/../font/lv_font.h ****     const struct _lv_font_t * fallback;   /**< Fallback font for missing glyph. Resolved recursivel
  78:Middlewares/LVGL/GUI/lvgl/src/extra/widgets/msgbox/../../../../src/hal/../draw/../misc/../font/lv_font.h **** #if LV_USE_USER_DATA
  79:Middlewares/LVGL/GUI/lvgl/src/extra/widgets/msgbox/../../../../src/hal/../draw/../misc/../font/lv_font.h ****     void * user_data;               /**< Custom user data for font.*/
  80:Middlewares/LVGL/GUI/lvgl/src/extra/widgets/msgbox/../../../../src/hal/../draw/../misc/../font/lv_font.h **** #endif
  81:Middlewares/LVGL/GUI/lvgl/src/extra/widgets/msgbox/../../../../src/hal/../draw/../misc/../font/lv_font.h **** } lv_font_t;
  82:Middlewares/LVGL/GUI/lvgl/src/extra/widgets/msgbox/../../../../src/hal/../draw/../misc/../font/lv_font.h **** 
  83:Middlewares/LVGL/GUI/lvgl/src/extra/widgets/msgbox/../../../../src/hal/../draw/../misc/../font/lv_font.h **** /**********************
  84:Middlewares/LVGL/GUI/lvgl/src/extra/widgets/msgbox/../../../../src/hal/../draw/../misc/../font/lv_font.h ****  * GLOBAL PROTOTYPES
  85:Middlewares/LVGL/GUI/lvgl/src/extra/widgets/msgbox/../../../../src/hal/../draw/../misc/../font/lv_font.h ****  **********************/
  86:Middlewares/LVGL/GUI/lvgl/src/extra/widgets/msgbox/../../../../src/hal/../draw/../misc/../font/lv_font.h **** 
  87:Middlewares/LVGL/GUI/lvgl/src/extra/widgets/msgbox/../../../../src/hal/../draw/../misc/../font/lv_font.h **** /**
  88:Middlewares/LVGL/GUI/lvgl/src/extra/widgets/msgbox/../../../../src/hal/../draw/../misc/../font/lv_font.h ****  * Return with the bitmap of a font.
  89:Middlewares/LVGL/GUI/lvgl/src/extra/widgets/msgbox/../../../../src/hal/../draw/../misc/../font/lv_font.h ****  * @param font_p pointer to a font
  90:Middlewares/LVGL/GUI/lvgl/src/extra/widgets/msgbox/../../../../src/hal/../draw/../misc/../font/lv_font.h ****  * @param letter an UNICODE character code
ARM GAS  C:\Users\ADMINI~1\AppData\Local\Temp\ccxvSaAM.s 			page 23


  91:Middlewares/LVGL/GUI/lvgl/src/extra/widgets/msgbox/../../../../src/hal/../draw/../misc/../font/lv_font.h ****  * @return pointer to the bitmap of the letter
  92:Middlewares/LVGL/GUI/lvgl/src/extra/widgets/msgbox/../../../../src/hal/../draw/../misc/../font/lv_font.h ****  */
  93:Middlewares/LVGL/GUI/lvgl/src/extra/widgets/msgbox/../../../../src/hal/../draw/../misc/../font/lv_font.h **** const uint8_t * lv_font_get_glyph_bitmap(const lv_font_t * font_p, uint32_t letter);
  94:Middlewares/LVGL/GUI/lvgl/src/extra/widgets/msgbox/../../../../src/hal/../draw/../misc/../font/lv_font.h **** 
  95:Middlewares/LVGL/GUI/lvgl/src/extra/widgets/msgbox/../../../../src/hal/../draw/../misc/../font/lv_font.h **** /**
  96:Middlewares/LVGL/GUI/lvgl/src/extra/widgets/msgbox/../../../../src/hal/../draw/../misc/../font/lv_font.h ****  * Get the descriptor of a glyph
  97:Middlewares/LVGL/GUI/lvgl/src/extra/widgets/msgbox/../../../../src/hal/../draw/../misc/../font/lv_font.h ****  * @param font_p pointer to font
  98:Middlewares/LVGL/GUI/lvgl/src/extra/widgets/msgbox/../../../../src/hal/../draw/../misc/../font/lv_font.h ****  * @param dsc_out store the result descriptor here
  99:Middlewares/LVGL/GUI/lvgl/src/extra/widgets/msgbox/../../../../src/hal/../draw/../misc/../font/lv_font.h ****  * @param letter an UNICODE letter code
 100:Middlewares/LVGL/GUI/lvgl/src/extra/widgets/msgbox/../../../../src/hal/../draw/../misc/../font/lv_font.h ****  * @param letter_next the next letter after `letter`. Used for kerning
 101:Middlewares/LVGL/GUI/lvgl/src/extra/widgets/msgbox/../../../../src/hal/../draw/../misc/../font/lv_font.h ****  * @return true: descriptor is successfully loaded into `dsc_out`.
 102:Middlewares/LVGL/GUI/lvgl/src/extra/widgets/msgbox/../../../../src/hal/../draw/../misc/../font/lv_font.h ****  *         false: the letter was not found, no data is loaded to `dsc_out`
 103:Middlewares/LVGL/GUI/lvgl/src/extra/widgets/msgbox/../../../../src/hal/../draw/../misc/../font/lv_font.h ****  */
 104:Middlewares/LVGL/GUI/lvgl/src/extra/widgets/msgbox/../../../../src/hal/../draw/../misc/../font/lv_font.h **** bool lv_font_get_glyph_dsc(const lv_font_t * font_p, lv_font_glyph_dsc_t * dsc_out, uint32_t letter
 105:Middlewares/LVGL/GUI/lvgl/src/extra/widgets/msgbox/../../../../src/hal/../draw/../misc/../font/lv_font.h ****                            uint32_t letter_next);
 106:Middlewares/LVGL/GUI/lvgl/src/extra/widgets/msgbox/../../../../src/hal/../draw/../misc/../font/lv_font.h **** 
 107:Middlewares/LVGL/GUI/lvgl/src/extra/widgets/msgbox/../../../../src/hal/../draw/../misc/../font/lv_font.h **** /**
 108:Middlewares/LVGL/GUI/lvgl/src/extra/widgets/msgbox/../../../../src/hal/../draw/../misc/../font/lv_font.h ****  * Get the width of a glyph with kerning
 109:Middlewares/LVGL/GUI/lvgl/src/extra/widgets/msgbox/../../../../src/hal/../draw/../misc/../font/lv_font.h ****  * @param font pointer to a font
 110:Middlewares/LVGL/GUI/lvgl/src/extra/widgets/msgbox/../../../../src/hal/../draw/../misc/../font/lv_font.h ****  * @param letter an UNICODE letter
 111:Middlewares/LVGL/GUI/lvgl/src/extra/widgets/msgbox/../../../../src/hal/../draw/../misc/../font/lv_font.h ****  * @param letter_next the next letter after `letter`. Used for kerning
 112:Middlewares/LVGL/GUI/lvgl/src/extra/widgets/msgbox/../../../../src/hal/../draw/../misc/../font/lv_font.h ****  * @return the width of the glyph
 113:Middlewares/LVGL/GUI/lvgl/src/extra/widgets/msgbox/../../../../src/hal/../draw/../misc/../font/lv_font.h ****  */
 114:Middlewares/LVGL/GUI/lvgl/src/extra/widgets/msgbox/../../../../src/hal/../draw/../misc/../font/lv_font.h **** uint16_t lv_font_get_glyph_width(const lv_font_t * font, uint32_t letter, uint32_t letter_next);
 115:Middlewares/LVGL/GUI/lvgl/src/extra/widgets/msgbox/../../../../src/hal/../draw/../misc/../font/lv_font.h **** 
 116:Middlewares/LVGL/GUI/lvgl/src/extra/widgets/msgbox/../../../../src/hal/../draw/../misc/../font/lv_font.h **** /**
 117:Middlewares/LVGL/GUI/lvgl/src/extra/widgets/msgbox/../../../../src/hal/../draw/../misc/../font/lv_font.h ****  * Get the line height of a font. All characters fit into this height
 118:Middlewares/LVGL/GUI/lvgl/src/extra/widgets/msgbox/../../../../src/hal/../draw/../misc/../font/lv_font.h ****  * @param font_p pointer to a font
 119:Middlewares/LVGL/GUI/lvgl/src/extra/widgets/msgbox/../../../../src/hal/../draw/../misc/../font/lv_font.h ****  * @return the height of a font
 120:Middlewares/LVGL/GUI/lvgl/src/extra/widgets/msgbox/../../../../src/hal/../draw/../misc/../font/lv_font.h ****  */
 121:Middlewares/LVGL/GUI/lvgl/src/extra/widgets/msgbox/../../../../src/hal/../draw/../misc/../font/lv_font.h **** static inline lv_coord_t lv_font_get_line_height(const lv_font_t * font_p)
 371              		.loc 4 121 26 discriminator 4 view .LVU113
 372              	.LBB39:
 122:Middlewares/LVGL/GUI/lvgl/src/extra/widgets/msgbox/../../../../src/hal/../draw/../misc/../font/lv_font.h **** {
 123:Middlewares/LVGL/GUI/lvgl/src/extra/widgets/msgbox/../../../../src/hal/../draw/../misc/../font/lv_font.h ****     return font_p->line_height;
 373              		.loc 4 123 5 discriminator 4 view .LVU114
 374              		.loc 4 123 18 is_stmt 0 discriminator 4 view .LVU115
 375 0164 D0F80880 		ldr	r8, [r0, #8]
 376              	.LVL43:
 377              		.loc 4 123 18 discriminator 4 view .LVU116
 378              	.LBE39:
 379              	.LBE38:
 103:Middlewares/LVGL/GUI/lvgl/src/extra/widgets/msgbox/lv_msgbox.c ****         lv_obj_set_size(mbox->close_btn, close_btn_size, close_btn_size);
 380              		.loc 1 103 69 discriminator 4 view .LVU117
 381 0168 0020     		movs	r0, #0
 382              	.LVL44:
 103:Middlewares/LVGL/GUI/lvgl/src/extra/widgets/msgbox/lv_msgbox.c ****         lv_obj_set_size(mbox->close_btn, close_btn_size, close_btn_size);
 383              		.loc 1 103 69 discriminator 4 view .LVU118
 384 016a FFF7FEFF 		bl	lv_disp_get_dpi
 385              	.LVL45:
 386 016e 00EB8000 		add	r0, r0, r0, lsl #2
 387 0172 4300     		lsls	r3, r0, #1
 388 0174 EF2B     		cmp	r3, #239
 389 0176 1ADC     		bgt	.L36
 103:Middlewares/LVGL/GUI/lvgl/src/extra/widgets/msgbox/lv_msgbox.c ****         lv_obj_set_size(mbox->close_btn, close_btn_size, close_btn_size);
 390              		.loc 1 103 69 view .LVU119
 391 0178 0121     		movs	r1, #1
ARM GAS  C:\Users\ADMINI~1\AppData\Local\Temp\ccxvSaAM.s 			page 24


 392              	.L15:
 103:Middlewares/LVGL/GUI/lvgl/src/extra/widgets/msgbox/lv_msgbox.c ****         lv_obj_set_size(mbox->close_btn, close_btn_size, close_btn_size);
 393              		.loc 1 103 20 discriminator 4 view .LVU120
 394 017a 4144     		add	r1, r1, r8
 395              	.LVL46:
 104:Middlewares/LVGL/GUI/lvgl/src/extra/widgets/msgbox/lv_msgbox.c ****         lv_obj_align(label, LV_ALIGN_CENTER, 0, 0);
 396              		.loc 1 104 9 is_stmt 1 discriminator 4 view .LVU121
 397 017c 0A46     		mov	r2, r1
 398 017e 206B     		ldr	r0, [r4, #48]
 399 0180 FFF7FEFF 		bl	lv_obj_set_size
 400              	.LVL47:
 105:Middlewares/LVGL/GUI/lvgl/src/extra/widgets/msgbox/lv_msgbox.c ****     }
 401              		.loc 1 105 9 discriminator 4 view .LVU122
 402 0184 0023     		movs	r3, #0
 403 0186 1A46     		mov	r2, r3
 404 0188 0921     		movs	r1, #9
 405 018a 2846     		mov	r0, r5
 406 018c FFF7FEFF 		bl	lv_obj_align
 407              	.LVL48:
 408 0190 78E7     		b	.L13
 409              	.LVL49:
 410              	.L35:
  98:Middlewares/LVGL/GUI/lvgl/src/extra/widgets/msgbox/lv_msgbox.c ****         lv_obj_add_event_cb(mbox->close_btn, msgbox_close_click_event_cb, LV_EVENT_CLICKED, NULL);
 411              		.loc 1 98 52 is_stmt 0 discriminator 1 view .LVU123
 412 0192 0020     		movs	r0, #0
 413 0194 FFF7FEFF 		bl	lv_disp_get_dpi
 414              	.LVL50:
 415 0198 00EB8000 		add	r0, r0, r0, lsl #2
 416 019c 4300     		lsls	r3, r0, #1
 417 019e 5033     		adds	r3, r3, #80
  98:Middlewares/LVGL/GUI/lvgl/src/extra/widgets/msgbox/lv_msgbox.c ****         lv_obj_add_event_cb(mbox->close_btn, msgbox_close_click_event_cb, LV_EVENT_CLICKED, NULL);
 418              		.loc 1 98 9 discriminator 1 view .LVU124
 419 01a0 2C49     		ldr	r1, .L37+28
 420 01a2 81FB0321 		smull	r2, r1, r1, r3
 421 01a6 DB17     		asrs	r3, r3, #31
 422 01a8 C3EBA111 		rsb	r1, r3, r1, asr #6
 423 01ac C4E7     		b	.L14
 424              	.LVL51:
 425              	.L36:
 103:Middlewares/LVGL/GUI/lvgl/src/extra/widgets/msgbox/lv_msgbox.c ****         lv_obj_set_size(mbox->close_btn, close_btn_size, close_btn_size);
 426              		.loc 1 103 69 discriminator 1 view .LVU125
 427 01ae 0020     		movs	r0, #0
 428 01b0 FFF7FEFF 		bl	lv_disp_get_dpi
 429              	.LVL52:
 430 01b4 00EB8000 		add	r0, r0, r0, lsl #2
 431 01b8 4300     		lsls	r3, r0, #1
 432 01ba 5033     		adds	r3, r3, #80
 433 01bc 254A     		ldr	r2, .L37+28
 434 01be 82FB0312 		smull	r1, r2, r2, r3
 435 01c2 D917     		asrs	r1, r3, #31
 436 01c4 C1EBA211 		rsb	r1, r1, r2, asr #6
 437 01c8 D7E7     		b	.L15
 438              	.LVL53:
 439              	.L28:
 103:Middlewares/LVGL/GUI/lvgl/src/extra/widgets/msgbox/lv_msgbox.c ****         lv_obj_set_size(mbox->close_btn, close_btn_size, close_btn_size);
 440              		.loc 1 103 69 discriminator 1 view .LVU126
 441              	.LBE35:
ARM GAS  C:\Users\ADMINI~1\AppData\Local\Temp\ccxvSaAM.s 			page 25


 110:Middlewares/LVGL/GUI/lvgl/src/extra/widgets/msgbox/lv_msgbox.c ****     if(has_txt) {
 442              		.loc 1 110 24 view .LVU127
 443 01ca 0023     		movs	r3, #0
 444 01cc 66E7     		b	.L16
 445              	.L29:
 110:Middlewares/LVGL/GUI/lvgl/src/extra/widgets/msgbox/lv_msgbox.c ****     if(has_txt) {
 446              		.loc 1 110 24 view .LVU128
 447 01ce 0123     		movs	r3, #1
 448 01d0 64E7     		b	.L16
 449              	.LVL54:
 450              	.L34:
 112:Middlewares/LVGL/GUI/lvgl/src/extra/widgets/msgbox/lv_msgbox.c ****         lv_label_set_text(mbox->text, txt);
 451              		.loc 1 112 9 is_stmt 1 view .LVU129
 112:Middlewares/LVGL/GUI/lvgl/src/extra/widgets/msgbox/lv_msgbox.c ****         lv_label_set_text(mbox->text, txt);
 452              		.loc 1 112 22 is_stmt 0 view .LVU130
 453 01d2 FFF7FEFF 		bl	lv_label_create
 454              	.LVL55:
 112:Middlewares/LVGL/GUI/lvgl/src/extra/widgets/msgbox/lv_msgbox.c ****         lv_label_set_text(mbox->text, txt);
 455              		.loc 1 112 20 view .LVU131
 456 01d6 A063     		str	r0, [r4, #56]
 113:Middlewares/LVGL/GUI/lvgl/src/extra/widgets/msgbox/lv_msgbox.c ****         lv_label_set_long_mode(mbox->text, LV_LABEL_LONG_WRAP);
 457              		.loc 1 113 9 is_stmt 1 view .LVU132
 458 01d8 3946     		mov	r1, r7
 459 01da FFF7FEFF 		bl	lv_label_set_text
 460              	.LVL56:
 114:Middlewares/LVGL/GUI/lvgl/src/extra/widgets/msgbox/lv_msgbox.c ****         lv_obj_set_width(mbox->text, lv_pct(100));
 461              		.loc 1 114 9 view .LVU133
 462 01de 0021     		movs	r1, #0
 463 01e0 A06B     		ldr	r0, [r4, #56]
 464 01e2 FFF7FEFF 		bl	lv_label_set_long_mode
 465              	.LVL57:
 115:Middlewares/LVGL/GUI/lvgl/src/extra/widgets/msgbox/lv_msgbox.c ****     }
 466              		.loc 1 115 9 view .LVU134
 467              		.file 5 "Middlewares/LVGL/GUI/lvgl/src/extra/widgets/msgbox/../../../../src/hal/../draw/../misc/..
   1:Middlewares/LVGL/GUI/lvgl/src/extra/widgets/msgbox/../../../../src/hal/../draw/../misc/../font/../misc/lv_area.h **** /**
   2:Middlewares/LVGL/GUI/lvgl/src/extra/widgets/msgbox/../../../../src/hal/../draw/../misc/../font/../misc/lv_area.h ****  * @file lv_area.h
   3:Middlewares/LVGL/GUI/lvgl/src/extra/widgets/msgbox/../../../../src/hal/../draw/../misc/../font/../misc/lv_area.h ****  *
   4:Middlewares/LVGL/GUI/lvgl/src/extra/widgets/msgbox/../../../../src/hal/../draw/../misc/../font/../misc/lv_area.h ****  */
   5:Middlewares/LVGL/GUI/lvgl/src/extra/widgets/msgbox/../../../../src/hal/../draw/../misc/../font/../misc/lv_area.h **** 
   6:Middlewares/LVGL/GUI/lvgl/src/extra/widgets/msgbox/../../../../src/hal/../draw/../misc/../font/../misc/lv_area.h **** #ifndef LV_AREA_H
   7:Middlewares/LVGL/GUI/lvgl/src/extra/widgets/msgbox/../../../../src/hal/../draw/../misc/../font/../misc/lv_area.h **** #define LV_AREA_H
   8:Middlewares/LVGL/GUI/lvgl/src/extra/widgets/msgbox/../../../../src/hal/../draw/../misc/../font/../misc/lv_area.h **** 
   9:Middlewares/LVGL/GUI/lvgl/src/extra/widgets/msgbox/../../../../src/hal/../draw/../misc/../font/../misc/lv_area.h **** #ifdef __cplusplus
  10:Middlewares/LVGL/GUI/lvgl/src/extra/widgets/msgbox/../../../../src/hal/../draw/../misc/../font/../misc/lv_area.h **** extern "C" {
  11:Middlewares/LVGL/GUI/lvgl/src/extra/widgets/msgbox/../../../../src/hal/../draw/../misc/../font/../misc/lv_area.h **** #endif
  12:Middlewares/LVGL/GUI/lvgl/src/extra/widgets/msgbox/../../../../src/hal/../draw/../misc/../font/../misc/lv_area.h **** 
  13:Middlewares/LVGL/GUI/lvgl/src/extra/widgets/msgbox/../../../../src/hal/../draw/../misc/../font/../misc/lv_area.h **** /*********************
  14:Middlewares/LVGL/GUI/lvgl/src/extra/widgets/msgbox/../../../../src/hal/../draw/../misc/../font/../misc/lv_area.h ****  *      INCLUDES
  15:Middlewares/LVGL/GUI/lvgl/src/extra/widgets/msgbox/../../../../src/hal/../draw/../misc/../font/../misc/lv_area.h ****  *********************/
  16:Middlewares/LVGL/GUI/lvgl/src/extra/widgets/msgbox/../../../../src/hal/../draw/../misc/../font/../misc/lv_area.h **** #include "../lv_conf_internal.h"
  17:Middlewares/LVGL/GUI/lvgl/src/extra/widgets/msgbox/../../../../src/hal/../draw/../misc/../font/../misc/lv_area.h **** #include <stdbool.h>
  18:Middlewares/LVGL/GUI/lvgl/src/extra/widgets/msgbox/../../../../src/hal/../draw/../misc/../font/../misc/lv_area.h **** #include <stdint.h>
  19:Middlewares/LVGL/GUI/lvgl/src/extra/widgets/msgbox/../../../../src/hal/../draw/../misc/../font/../misc/lv_area.h **** 
  20:Middlewares/LVGL/GUI/lvgl/src/extra/widgets/msgbox/../../../../src/hal/../draw/../misc/../font/../misc/lv_area.h **** /*********************
  21:Middlewares/LVGL/GUI/lvgl/src/extra/widgets/msgbox/../../../../src/hal/../draw/../misc/../font/../misc/lv_area.h ****  *      DEFINES
  22:Middlewares/LVGL/GUI/lvgl/src/extra/widgets/msgbox/../../../../src/hal/../draw/../misc/../font/../misc/lv_area.h ****  *********************/
  23:Middlewares/LVGL/GUI/lvgl/src/extra/widgets/msgbox/../../../../src/hal/../draw/../misc/../font/../misc/lv_area.h **** 
ARM GAS  C:\Users\ADMINI~1\AppData\Local\Temp\ccxvSaAM.s 			page 26


  24:Middlewares/LVGL/GUI/lvgl/src/extra/widgets/msgbox/../../../../src/hal/../draw/../misc/../font/../misc/lv_area.h **** #if LV_USE_LARGE_COORD
  25:Middlewares/LVGL/GUI/lvgl/src/extra/widgets/msgbox/../../../../src/hal/../draw/../misc/../font/../misc/lv_area.h **** typedef int32_t lv_coord_t;
  26:Middlewares/LVGL/GUI/lvgl/src/extra/widgets/msgbox/../../../../src/hal/../draw/../misc/../font/../misc/lv_area.h **** #else
  27:Middlewares/LVGL/GUI/lvgl/src/extra/widgets/msgbox/../../../../src/hal/../draw/../misc/../font/../misc/lv_area.h **** typedef int16_t lv_coord_t;
  28:Middlewares/LVGL/GUI/lvgl/src/extra/widgets/msgbox/../../../../src/hal/../draw/../misc/../font/../misc/lv_area.h **** #endif
  29:Middlewares/LVGL/GUI/lvgl/src/extra/widgets/msgbox/../../../../src/hal/../draw/../misc/../font/../misc/lv_area.h **** 
  30:Middlewares/LVGL/GUI/lvgl/src/extra/widgets/msgbox/../../../../src/hal/../draw/../misc/../font/../misc/lv_area.h **** /**********************
  31:Middlewares/LVGL/GUI/lvgl/src/extra/widgets/msgbox/../../../../src/hal/../draw/../misc/../font/../misc/lv_area.h ****  *      TYPEDEFS
  32:Middlewares/LVGL/GUI/lvgl/src/extra/widgets/msgbox/../../../../src/hal/../draw/../misc/../font/../misc/lv_area.h ****  **********************/
  33:Middlewares/LVGL/GUI/lvgl/src/extra/widgets/msgbox/../../../../src/hal/../draw/../misc/../font/../misc/lv_area.h **** 
  34:Middlewares/LVGL/GUI/lvgl/src/extra/widgets/msgbox/../../../../src/hal/../draw/../misc/../font/../misc/lv_area.h **** /**
  35:Middlewares/LVGL/GUI/lvgl/src/extra/widgets/msgbox/../../../../src/hal/../draw/../misc/../font/../misc/lv_area.h ****  * Represents a point on the screen.
  36:Middlewares/LVGL/GUI/lvgl/src/extra/widgets/msgbox/../../../../src/hal/../draw/../misc/../font/../misc/lv_area.h ****  */
  37:Middlewares/LVGL/GUI/lvgl/src/extra/widgets/msgbox/../../../../src/hal/../draw/../misc/../font/../misc/lv_area.h **** typedef struct {
  38:Middlewares/LVGL/GUI/lvgl/src/extra/widgets/msgbox/../../../../src/hal/../draw/../misc/../font/../misc/lv_area.h ****     lv_coord_t x;
  39:Middlewares/LVGL/GUI/lvgl/src/extra/widgets/msgbox/../../../../src/hal/../draw/../misc/../font/../misc/lv_area.h ****     lv_coord_t y;
  40:Middlewares/LVGL/GUI/lvgl/src/extra/widgets/msgbox/../../../../src/hal/../draw/../misc/../font/../misc/lv_area.h **** } lv_point_t;
  41:Middlewares/LVGL/GUI/lvgl/src/extra/widgets/msgbox/../../../../src/hal/../draw/../misc/../font/../misc/lv_area.h **** 
  42:Middlewares/LVGL/GUI/lvgl/src/extra/widgets/msgbox/../../../../src/hal/../draw/../misc/../font/../misc/lv_area.h **** /** Represents an area of the screen.*/
  43:Middlewares/LVGL/GUI/lvgl/src/extra/widgets/msgbox/../../../../src/hal/../draw/../misc/../font/../misc/lv_area.h **** typedef struct {
  44:Middlewares/LVGL/GUI/lvgl/src/extra/widgets/msgbox/../../../../src/hal/../draw/../misc/../font/../misc/lv_area.h ****     lv_coord_t x1;
  45:Middlewares/LVGL/GUI/lvgl/src/extra/widgets/msgbox/../../../../src/hal/../draw/../misc/../font/../misc/lv_area.h ****     lv_coord_t y1;
  46:Middlewares/LVGL/GUI/lvgl/src/extra/widgets/msgbox/../../../../src/hal/../draw/../misc/../font/../misc/lv_area.h ****     lv_coord_t x2;
  47:Middlewares/LVGL/GUI/lvgl/src/extra/widgets/msgbox/../../../../src/hal/../draw/../misc/../font/../misc/lv_area.h ****     lv_coord_t y2;
  48:Middlewares/LVGL/GUI/lvgl/src/extra/widgets/msgbox/../../../../src/hal/../draw/../misc/../font/../misc/lv_area.h **** } lv_area_t;
  49:Middlewares/LVGL/GUI/lvgl/src/extra/widgets/msgbox/../../../../src/hal/../draw/../misc/../font/../misc/lv_area.h **** 
  50:Middlewares/LVGL/GUI/lvgl/src/extra/widgets/msgbox/../../../../src/hal/../draw/../misc/../font/../misc/lv_area.h **** /** Alignments*/
  51:Middlewares/LVGL/GUI/lvgl/src/extra/widgets/msgbox/../../../../src/hal/../draw/../misc/../font/../misc/lv_area.h **** enum {
  52:Middlewares/LVGL/GUI/lvgl/src/extra/widgets/msgbox/../../../../src/hal/../draw/../misc/../font/../misc/lv_area.h ****     LV_ALIGN_DEFAULT = 0,
  53:Middlewares/LVGL/GUI/lvgl/src/extra/widgets/msgbox/../../../../src/hal/../draw/../misc/../font/../misc/lv_area.h ****     LV_ALIGN_TOP_LEFT,
  54:Middlewares/LVGL/GUI/lvgl/src/extra/widgets/msgbox/../../../../src/hal/../draw/../misc/../font/../misc/lv_area.h ****     LV_ALIGN_TOP_MID,
  55:Middlewares/LVGL/GUI/lvgl/src/extra/widgets/msgbox/../../../../src/hal/../draw/../misc/../font/../misc/lv_area.h ****     LV_ALIGN_TOP_RIGHT,
  56:Middlewares/LVGL/GUI/lvgl/src/extra/widgets/msgbox/../../../../src/hal/../draw/../misc/../font/../misc/lv_area.h ****     LV_ALIGN_BOTTOM_LEFT,
  57:Middlewares/LVGL/GUI/lvgl/src/extra/widgets/msgbox/../../../../src/hal/../draw/../misc/../font/../misc/lv_area.h ****     LV_ALIGN_BOTTOM_MID,
  58:Middlewares/LVGL/GUI/lvgl/src/extra/widgets/msgbox/../../../../src/hal/../draw/../misc/../font/../misc/lv_area.h ****     LV_ALIGN_BOTTOM_RIGHT,
  59:Middlewares/LVGL/GUI/lvgl/src/extra/widgets/msgbox/../../../../src/hal/../draw/../misc/../font/../misc/lv_area.h ****     LV_ALIGN_LEFT_MID,
  60:Middlewares/LVGL/GUI/lvgl/src/extra/widgets/msgbox/../../../../src/hal/../draw/../misc/../font/../misc/lv_area.h ****     LV_ALIGN_RIGHT_MID,
  61:Middlewares/LVGL/GUI/lvgl/src/extra/widgets/msgbox/../../../../src/hal/../draw/../misc/../font/../misc/lv_area.h ****     LV_ALIGN_CENTER,
  62:Middlewares/LVGL/GUI/lvgl/src/extra/widgets/msgbox/../../../../src/hal/../draw/../misc/../font/../misc/lv_area.h **** 
  63:Middlewares/LVGL/GUI/lvgl/src/extra/widgets/msgbox/../../../../src/hal/../draw/../misc/../font/../misc/lv_area.h ****     LV_ALIGN_OUT_TOP_LEFT,
  64:Middlewares/LVGL/GUI/lvgl/src/extra/widgets/msgbox/../../../../src/hal/../draw/../misc/../font/../misc/lv_area.h ****     LV_ALIGN_OUT_TOP_MID,
  65:Middlewares/LVGL/GUI/lvgl/src/extra/widgets/msgbox/../../../../src/hal/../draw/../misc/../font/../misc/lv_area.h ****     LV_ALIGN_OUT_TOP_RIGHT,
  66:Middlewares/LVGL/GUI/lvgl/src/extra/widgets/msgbox/../../../../src/hal/../draw/../misc/../font/../misc/lv_area.h ****     LV_ALIGN_OUT_BOTTOM_LEFT,
  67:Middlewares/LVGL/GUI/lvgl/src/extra/widgets/msgbox/../../../../src/hal/../draw/../misc/../font/../misc/lv_area.h ****     LV_ALIGN_OUT_BOTTOM_MID,
  68:Middlewares/LVGL/GUI/lvgl/src/extra/widgets/msgbox/../../../../src/hal/../draw/../misc/../font/../misc/lv_area.h ****     LV_ALIGN_OUT_BOTTOM_RIGHT,
  69:Middlewares/LVGL/GUI/lvgl/src/extra/widgets/msgbox/../../../../src/hal/../draw/../misc/../font/../misc/lv_area.h ****     LV_ALIGN_OUT_LEFT_TOP,
  70:Middlewares/LVGL/GUI/lvgl/src/extra/widgets/msgbox/../../../../src/hal/../draw/../misc/../font/../misc/lv_area.h ****     LV_ALIGN_OUT_LEFT_MID,
  71:Middlewares/LVGL/GUI/lvgl/src/extra/widgets/msgbox/../../../../src/hal/../draw/../misc/../font/../misc/lv_area.h ****     LV_ALIGN_OUT_LEFT_BOTTOM,
  72:Middlewares/LVGL/GUI/lvgl/src/extra/widgets/msgbox/../../../../src/hal/../draw/../misc/../font/../misc/lv_area.h ****     LV_ALIGN_OUT_RIGHT_TOP,
  73:Middlewares/LVGL/GUI/lvgl/src/extra/widgets/msgbox/../../../../src/hal/../draw/../misc/../font/../misc/lv_area.h ****     LV_ALIGN_OUT_RIGHT_MID,
  74:Middlewares/LVGL/GUI/lvgl/src/extra/widgets/msgbox/../../../../src/hal/../draw/../misc/../font/../misc/lv_area.h ****     LV_ALIGN_OUT_RIGHT_BOTTOM,
  75:Middlewares/LVGL/GUI/lvgl/src/extra/widgets/msgbox/../../../../src/hal/../draw/../misc/../font/../misc/lv_area.h **** };
  76:Middlewares/LVGL/GUI/lvgl/src/extra/widgets/msgbox/../../../../src/hal/../draw/../misc/../font/../misc/lv_area.h **** typedef uint8_t lv_align_t;
  77:Middlewares/LVGL/GUI/lvgl/src/extra/widgets/msgbox/../../../../src/hal/../draw/../misc/../font/../misc/lv_area.h **** 
  78:Middlewares/LVGL/GUI/lvgl/src/extra/widgets/msgbox/../../../../src/hal/../draw/../misc/../font/../misc/lv_area.h **** enum {
  79:Middlewares/LVGL/GUI/lvgl/src/extra/widgets/msgbox/../../../../src/hal/../draw/../misc/../font/../misc/lv_area.h ****     LV_DIR_NONE     = 0x00,
  80:Middlewares/LVGL/GUI/lvgl/src/extra/widgets/msgbox/../../../../src/hal/../draw/../misc/../font/../misc/lv_area.h ****     LV_DIR_LEFT     = (1 << 0),
ARM GAS  C:\Users\ADMINI~1\AppData\Local\Temp\ccxvSaAM.s 			page 27


  81:Middlewares/LVGL/GUI/lvgl/src/extra/widgets/msgbox/../../../../src/hal/../draw/../misc/../font/../misc/lv_area.h ****     LV_DIR_RIGHT    = (1 << 1),
  82:Middlewares/LVGL/GUI/lvgl/src/extra/widgets/msgbox/../../../../src/hal/../draw/../misc/../font/../misc/lv_area.h ****     LV_DIR_TOP      = (1 << 2),
  83:Middlewares/LVGL/GUI/lvgl/src/extra/widgets/msgbox/../../../../src/hal/../draw/../misc/../font/../misc/lv_area.h ****     LV_DIR_BOTTOM   = (1 << 3),
  84:Middlewares/LVGL/GUI/lvgl/src/extra/widgets/msgbox/../../../../src/hal/../draw/../misc/../font/../misc/lv_area.h ****     LV_DIR_HOR      = LV_DIR_LEFT | LV_DIR_RIGHT,
  85:Middlewares/LVGL/GUI/lvgl/src/extra/widgets/msgbox/../../../../src/hal/../draw/../misc/../font/../misc/lv_area.h ****     LV_DIR_VER      = LV_DIR_TOP | LV_DIR_BOTTOM,
  86:Middlewares/LVGL/GUI/lvgl/src/extra/widgets/msgbox/../../../../src/hal/../draw/../misc/../font/../misc/lv_area.h ****     LV_DIR_ALL      = LV_DIR_HOR | LV_DIR_VER,
  87:Middlewares/LVGL/GUI/lvgl/src/extra/widgets/msgbox/../../../../src/hal/../draw/../misc/../font/../misc/lv_area.h **** };
  88:Middlewares/LVGL/GUI/lvgl/src/extra/widgets/msgbox/../../../../src/hal/../draw/../misc/../font/../misc/lv_area.h **** 
  89:Middlewares/LVGL/GUI/lvgl/src/extra/widgets/msgbox/../../../../src/hal/../draw/../misc/../font/../misc/lv_area.h **** typedef uint8_t lv_dir_t;
  90:Middlewares/LVGL/GUI/lvgl/src/extra/widgets/msgbox/../../../../src/hal/../draw/../misc/../font/../misc/lv_area.h **** 
  91:Middlewares/LVGL/GUI/lvgl/src/extra/widgets/msgbox/../../../../src/hal/../draw/../misc/../font/../misc/lv_area.h **** /**********************
  92:Middlewares/LVGL/GUI/lvgl/src/extra/widgets/msgbox/../../../../src/hal/../draw/../misc/../font/../misc/lv_area.h ****  * GLOBAL PROTOTYPES
  93:Middlewares/LVGL/GUI/lvgl/src/extra/widgets/msgbox/../../../../src/hal/../draw/../misc/../font/../misc/lv_area.h ****  **********************/
  94:Middlewares/LVGL/GUI/lvgl/src/extra/widgets/msgbox/../../../../src/hal/../draw/../misc/../font/../misc/lv_area.h **** 
  95:Middlewares/LVGL/GUI/lvgl/src/extra/widgets/msgbox/../../../../src/hal/../draw/../misc/../font/../misc/lv_area.h **** /**
  96:Middlewares/LVGL/GUI/lvgl/src/extra/widgets/msgbox/../../../../src/hal/../draw/../misc/../font/../misc/lv_area.h ****  * Initialize an area
  97:Middlewares/LVGL/GUI/lvgl/src/extra/widgets/msgbox/../../../../src/hal/../draw/../misc/../font/../misc/lv_area.h ****  * @param area_p pointer to an area
  98:Middlewares/LVGL/GUI/lvgl/src/extra/widgets/msgbox/../../../../src/hal/../draw/../misc/../font/../misc/lv_area.h ****  * @param x1 left coordinate of the area
  99:Middlewares/LVGL/GUI/lvgl/src/extra/widgets/msgbox/../../../../src/hal/../draw/../misc/../font/../misc/lv_area.h ****  * @param y1 top coordinate of the area
 100:Middlewares/LVGL/GUI/lvgl/src/extra/widgets/msgbox/../../../../src/hal/../draw/../misc/../font/../misc/lv_area.h ****  * @param x2 right coordinate of the area
 101:Middlewares/LVGL/GUI/lvgl/src/extra/widgets/msgbox/../../../../src/hal/../draw/../misc/../font/../misc/lv_area.h ****  * @param y2 bottom coordinate of the area
 102:Middlewares/LVGL/GUI/lvgl/src/extra/widgets/msgbox/../../../../src/hal/../draw/../misc/../font/../misc/lv_area.h ****  */
 103:Middlewares/LVGL/GUI/lvgl/src/extra/widgets/msgbox/../../../../src/hal/../draw/../misc/../font/../misc/lv_area.h **** void lv_area_set(lv_area_t * area_p, lv_coord_t x1, lv_coord_t y1, lv_coord_t x2, lv_coord_t y2);
 104:Middlewares/LVGL/GUI/lvgl/src/extra/widgets/msgbox/../../../../src/hal/../draw/../misc/../font/../misc/lv_area.h **** 
 105:Middlewares/LVGL/GUI/lvgl/src/extra/widgets/msgbox/../../../../src/hal/../draw/../misc/../font/../misc/lv_area.h **** /**
 106:Middlewares/LVGL/GUI/lvgl/src/extra/widgets/msgbox/../../../../src/hal/../draw/../misc/../font/../misc/lv_area.h ****  * Copy an area
 107:Middlewares/LVGL/GUI/lvgl/src/extra/widgets/msgbox/../../../../src/hal/../draw/../misc/../font/../misc/lv_area.h ****  * @param dest pointer to the destination area
 108:Middlewares/LVGL/GUI/lvgl/src/extra/widgets/msgbox/../../../../src/hal/../draw/../misc/../font/../misc/lv_area.h ****  * @param src pointer to the source area
 109:Middlewares/LVGL/GUI/lvgl/src/extra/widgets/msgbox/../../../../src/hal/../draw/../misc/../font/../misc/lv_area.h ****  */
 110:Middlewares/LVGL/GUI/lvgl/src/extra/widgets/msgbox/../../../../src/hal/../draw/../misc/../font/../misc/lv_area.h **** inline static void lv_area_copy(lv_area_t * dest, const lv_area_t * src)
 111:Middlewares/LVGL/GUI/lvgl/src/extra/widgets/msgbox/../../../../src/hal/../draw/../misc/../font/../misc/lv_area.h **** {
 112:Middlewares/LVGL/GUI/lvgl/src/extra/widgets/msgbox/../../../../src/hal/../draw/../misc/../font/../misc/lv_area.h ****     dest->x1 = src->x1;
 113:Middlewares/LVGL/GUI/lvgl/src/extra/widgets/msgbox/../../../../src/hal/../draw/../misc/../font/../misc/lv_area.h ****     dest->y1 = src->y1;
 114:Middlewares/LVGL/GUI/lvgl/src/extra/widgets/msgbox/../../../../src/hal/../draw/../misc/../font/../misc/lv_area.h ****     dest->x2 = src->x2;
 115:Middlewares/LVGL/GUI/lvgl/src/extra/widgets/msgbox/../../../../src/hal/../draw/../misc/../font/../misc/lv_area.h ****     dest->y2 = src->y2;
 116:Middlewares/LVGL/GUI/lvgl/src/extra/widgets/msgbox/../../../../src/hal/../draw/../misc/../font/../misc/lv_area.h **** }
 117:Middlewares/LVGL/GUI/lvgl/src/extra/widgets/msgbox/../../../../src/hal/../draw/../misc/../font/../misc/lv_area.h **** 
 118:Middlewares/LVGL/GUI/lvgl/src/extra/widgets/msgbox/../../../../src/hal/../draw/../misc/../font/../misc/lv_area.h **** /**
 119:Middlewares/LVGL/GUI/lvgl/src/extra/widgets/msgbox/../../../../src/hal/../draw/../misc/../font/../misc/lv_area.h ****  * Get the width of an area
 120:Middlewares/LVGL/GUI/lvgl/src/extra/widgets/msgbox/../../../../src/hal/../draw/../misc/../font/../misc/lv_area.h ****  * @param area_p pointer to an area
 121:Middlewares/LVGL/GUI/lvgl/src/extra/widgets/msgbox/../../../../src/hal/../draw/../misc/../font/../misc/lv_area.h ****  * @return the width of the area (if x1 == x2 -> width = 1)
 122:Middlewares/LVGL/GUI/lvgl/src/extra/widgets/msgbox/../../../../src/hal/../draw/../misc/../font/../misc/lv_area.h ****  */
 123:Middlewares/LVGL/GUI/lvgl/src/extra/widgets/msgbox/../../../../src/hal/../draw/../misc/../font/../misc/lv_area.h **** static inline lv_coord_t lv_area_get_width(const lv_area_t * area_p)
 124:Middlewares/LVGL/GUI/lvgl/src/extra/widgets/msgbox/../../../../src/hal/../draw/../misc/../font/../misc/lv_area.h **** {
 125:Middlewares/LVGL/GUI/lvgl/src/extra/widgets/msgbox/../../../../src/hal/../draw/../misc/../font/../misc/lv_area.h ****     return (lv_coord_t)(area_p->x2 - area_p->x1 + 1);
 126:Middlewares/LVGL/GUI/lvgl/src/extra/widgets/msgbox/../../../../src/hal/../draw/../misc/../font/../misc/lv_area.h **** }
 127:Middlewares/LVGL/GUI/lvgl/src/extra/widgets/msgbox/../../../../src/hal/../draw/../misc/../font/../misc/lv_area.h **** 
 128:Middlewares/LVGL/GUI/lvgl/src/extra/widgets/msgbox/../../../../src/hal/../draw/../misc/../font/../misc/lv_area.h **** /**
 129:Middlewares/LVGL/GUI/lvgl/src/extra/widgets/msgbox/../../../../src/hal/../draw/../misc/../font/../misc/lv_area.h ****  * Get the height of an area
 130:Middlewares/LVGL/GUI/lvgl/src/extra/widgets/msgbox/../../../../src/hal/../draw/../misc/../font/../misc/lv_area.h ****  * @param area_p pointer to an area
 131:Middlewares/LVGL/GUI/lvgl/src/extra/widgets/msgbox/../../../../src/hal/../draw/../misc/../font/../misc/lv_area.h ****  * @return the height of the area (if y1 == y2 -> height = 1)
 132:Middlewares/LVGL/GUI/lvgl/src/extra/widgets/msgbox/../../../../src/hal/../draw/../misc/../font/../misc/lv_area.h ****  */
 133:Middlewares/LVGL/GUI/lvgl/src/extra/widgets/msgbox/../../../../src/hal/../draw/../misc/../font/../misc/lv_area.h **** static inline lv_coord_t lv_area_get_height(const lv_area_t * area_p)
 134:Middlewares/LVGL/GUI/lvgl/src/extra/widgets/msgbox/../../../../src/hal/../draw/../misc/../font/../misc/lv_area.h **** {
 135:Middlewares/LVGL/GUI/lvgl/src/extra/widgets/msgbox/../../../../src/hal/../draw/../misc/../font/../misc/lv_area.h ****     return (lv_coord_t)(area_p->y2 - area_p->y1 + 1);
 136:Middlewares/LVGL/GUI/lvgl/src/extra/widgets/msgbox/../../../../src/hal/../draw/../misc/../font/../misc/lv_area.h **** }
 137:Middlewares/LVGL/GUI/lvgl/src/extra/widgets/msgbox/../../../../src/hal/../draw/../misc/../font/../misc/lv_area.h **** 
ARM GAS  C:\Users\ADMINI~1\AppData\Local\Temp\ccxvSaAM.s 			page 28


 138:Middlewares/LVGL/GUI/lvgl/src/extra/widgets/msgbox/../../../../src/hal/../draw/../misc/../font/../misc/lv_area.h **** /**
 139:Middlewares/LVGL/GUI/lvgl/src/extra/widgets/msgbox/../../../../src/hal/../draw/../misc/../font/../misc/lv_area.h ****  * Set the width of an area
 140:Middlewares/LVGL/GUI/lvgl/src/extra/widgets/msgbox/../../../../src/hal/../draw/../misc/../font/../misc/lv_area.h ****  * @param area_p pointer to an area
 141:Middlewares/LVGL/GUI/lvgl/src/extra/widgets/msgbox/../../../../src/hal/../draw/../misc/../font/../misc/lv_area.h ****  * @param w the new width of the area (w == 1 makes x1 == x2)
 142:Middlewares/LVGL/GUI/lvgl/src/extra/widgets/msgbox/../../../../src/hal/../draw/../misc/../font/../misc/lv_area.h ****  */
 143:Middlewares/LVGL/GUI/lvgl/src/extra/widgets/msgbox/../../../../src/hal/../draw/../misc/../font/../misc/lv_area.h **** void lv_area_set_width(lv_area_t * area_p, lv_coord_t w);
 144:Middlewares/LVGL/GUI/lvgl/src/extra/widgets/msgbox/../../../../src/hal/../draw/../misc/../font/../misc/lv_area.h **** 
 145:Middlewares/LVGL/GUI/lvgl/src/extra/widgets/msgbox/../../../../src/hal/../draw/../misc/../font/../misc/lv_area.h **** /**
 146:Middlewares/LVGL/GUI/lvgl/src/extra/widgets/msgbox/../../../../src/hal/../draw/../misc/../font/../misc/lv_area.h ****  * Set the height of an area
 147:Middlewares/LVGL/GUI/lvgl/src/extra/widgets/msgbox/../../../../src/hal/../draw/../misc/../font/../misc/lv_area.h ****  * @param area_p pointer to an area
 148:Middlewares/LVGL/GUI/lvgl/src/extra/widgets/msgbox/../../../../src/hal/../draw/../misc/../font/../misc/lv_area.h ****  * @param h the new height of the area (h == 1 makes y1 == y2)
 149:Middlewares/LVGL/GUI/lvgl/src/extra/widgets/msgbox/../../../../src/hal/../draw/../misc/../font/../misc/lv_area.h ****  */
 150:Middlewares/LVGL/GUI/lvgl/src/extra/widgets/msgbox/../../../../src/hal/../draw/../misc/../font/../misc/lv_area.h **** void lv_area_set_height(lv_area_t * area_p, lv_coord_t h);
 151:Middlewares/LVGL/GUI/lvgl/src/extra/widgets/msgbox/../../../../src/hal/../draw/../misc/../font/../misc/lv_area.h **** 
 152:Middlewares/LVGL/GUI/lvgl/src/extra/widgets/msgbox/../../../../src/hal/../draw/../misc/../font/../misc/lv_area.h **** /**
 153:Middlewares/LVGL/GUI/lvgl/src/extra/widgets/msgbox/../../../../src/hal/../draw/../misc/../font/../misc/lv_area.h ****  * Set the position of an area (width and height will be kept)
 154:Middlewares/LVGL/GUI/lvgl/src/extra/widgets/msgbox/../../../../src/hal/../draw/../misc/../font/../misc/lv_area.h ****  * @param area_p pointer to an area
 155:Middlewares/LVGL/GUI/lvgl/src/extra/widgets/msgbox/../../../../src/hal/../draw/../misc/../font/../misc/lv_area.h ****  * @param x the new x coordinate of the area
 156:Middlewares/LVGL/GUI/lvgl/src/extra/widgets/msgbox/../../../../src/hal/../draw/../misc/../font/../misc/lv_area.h ****  * @param y the new y coordinate of the area
 157:Middlewares/LVGL/GUI/lvgl/src/extra/widgets/msgbox/../../../../src/hal/../draw/../misc/../font/../misc/lv_area.h ****  */
 158:Middlewares/LVGL/GUI/lvgl/src/extra/widgets/msgbox/../../../../src/hal/../draw/../misc/../font/../misc/lv_area.h **** void _lv_area_set_pos(lv_area_t * area_p, lv_coord_t x, lv_coord_t y);
 159:Middlewares/LVGL/GUI/lvgl/src/extra/widgets/msgbox/../../../../src/hal/../draw/../misc/../font/../misc/lv_area.h **** 
 160:Middlewares/LVGL/GUI/lvgl/src/extra/widgets/msgbox/../../../../src/hal/../draw/../misc/../font/../misc/lv_area.h **** /**
 161:Middlewares/LVGL/GUI/lvgl/src/extra/widgets/msgbox/../../../../src/hal/../draw/../misc/../font/../misc/lv_area.h ****  * Return with area of an area (x * y)
 162:Middlewares/LVGL/GUI/lvgl/src/extra/widgets/msgbox/../../../../src/hal/../draw/../misc/../font/../misc/lv_area.h ****  * @param area_p pointer to an area
 163:Middlewares/LVGL/GUI/lvgl/src/extra/widgets/msgbox/../../../../src/hal/../draw/../misc/../font/../misc/lv_area.h ****  * @return size of area
 164:Middlewares/LVGL/GUI/lvgl/src/extra/widgets/msgbox/../../../../src/hal/../draw/../misc/../font/../misc/lv_area.h ****  */
 165:Middlewares/LVGL/GUI/lvgl/src/extra/widgets/msgbox/../../../../src/hal/../draw/../misc/../font/../misc/lv_area.h **** uint32_t lv_area_get_size(const lv_area_t * area_p);
 166:Middlewares/LVGL/GUI/lvgl/src/extra/widgets/msgbox/../../../../src/hal/../draw/../misc/../font/../misc/lv_area.h **** 
 167:Middlewares/LVGL/GUI/lvgl/src/extra/widgets/msgbox/../../../../src/hal/../draw/../misc/../font/../misc/lv_area.h **** void lv_area_increase(lv_area_t * area, lv_coord_t w_extra, lv_coord_t h_extra);
 168:Middlewares/LVGL/GUI/lvgl/src/extra/widgets/msgbox/../../../../src/hal/../draw/../misc/../font/../misc/lv_area.h **** 
 169:Middlewares/LVGL/GUI/lvgl/src/extra/widgets/msgbox/../../../../src/hal/../draw/../misc/../font/../misc/lv_area.h **** void lv_area_move(lv_area_t * area, lv_coord_t x_ofs, lv_coord_t y_ofs);
 170:Middlewares/LVGL/GUI/lvgl/src/extra/widgets/msgbox/../../../../src/hal/../draw/../misc/../font/../misc/lv_area.h **** 
 171:Middlewares/LVGL/GUI/lvgl/src/extra/widgets/msgbox/../../../../src/hal/../draw/../misc/../font/../misc/lv_area.h **** /**
 172:Middlewares/LVGL/GUI/lvgl/src/extra/widgets/msgbox/../../../../src/hal/../draw/../misc/../font/../misc/lv_area.h ****  * Get the common parts of two areas
 173:Middlewares/LVGL/GUI/lvgl/src/extra/widgets/msgbox/../../../../src/hal/../draw/../misc/../font/../misc/lv_area.h ****  * @param res_p pointer to an area, the result will be stored her
 174:Middlewares/LVGL/GUI/lvgl/src/extra/widgets/msgbox/../../../../src/hal/../draw/../misc/../font/../misc/lv_area.h ****  * @param a1_p pointer to the first area
 175:Middlewares/LVGL/GUI/lvgl/src/extra/widgets/msgbox/../../../../src/hal/../draw/../misc/../font/../misc/lv_area.h ****  * @param a2_p pointer to the second area
 176:Middlewares/LVGL/GUI/lvgl/src/extra/widgets/msgbox/../../../../src/hal/../draw/../misc/../font/../misc/lv_area.h ****  * @return false: the two area has NO common parts, res_p is invalid
 177:Middlewares/LVGL/GUI/lvgl/src/extra/widgets/msgbox/../../../../src/hal/../draw/../misc/../font/../misc/lv_area.h ****  */
 178:Middlewares/LVGL/GUI/lvgl/src/extra/widgets/msgbox/../../../../src/hal/../draw/../misc/../font/../misc/lv_area.h **** bool _lv_area_intersect(lv_area_t * res_p, const lv_area_t * a1_p, const lv_area_t * a2_p);
 179:Middlewares/LVGL/GUI/lvgl/src/extra/widgets/msgbox/../../../../src/hal/../draw/../misc/../font/../misc/lv_area.h **** 
 180:Middlewares/LVGL/GUI/lvgl/src/extra/widgets/msgbox/../../../../src/hal/../draw/../misc/../font/../misc/lv_area.h **** /**
 181:Middlewares/LVGL/GUI/lvgl/src/extra/widgets/msgbox/../../../../src/hal/../draw/../misc/../font/../misc/lv_area.h ****  * Join two areas into a third which involves the other two
 182:Middlewares/LVGL/GUI/lvgl/src/extra/widgets/msgbox/../../../../src/hal/../draw/../misc/../font/../misc/lv_area.h ****  * @param res_p pointer to an area, the result will be stored here
 183:Middlewares/LVGL/GUI/lvgl/src/extra/widgets/msgbox/../../../../src/hal/../draw/../misc/../font/../misc/lv_area.h ****  * @param a1_p pointer to the first area
 184:Middlewares/LVGL/GUI/lvgl/src/extra/widgets/msgbox/../../../../src/hal/../draw/../misc/../font/../misc/lv_area.h ****  * @param a2_p pointer to the second area
 185:Middlewares/LVGL/GUI/lvgl/src/extra/widgets/msgbox/../../../../src/hal/../draw/../misc/../font/../misc/lv_area.h ****  */
 186:Middlewares/LVGL/GUI/lvgl/src/extra/widgets/msgbox/../../../../src/hal/../draw/../misc/../font/../misc/lv_area.h **** void _lv_area_join(lv_area_t * a_res_p, const lv_area_t * a1_p, const lv_area_t * a2_p);
 187:Middlewares/LVGL/GUI/lvgl/src/extra/widgets/msgbox/../../../../src/hal/../draw/../misc/../font/../misc/lv_area.h **** 
 188:Middlewares/LVGL/GUI/lvgl/src/extra/widgets/msgbox/../../../../src/hal/../draw/../misc/../font/../misc/lv_area.h **** /**
 189:Middlewares/LVGL/GUI/lvgl/src/extra/widgets/msgbox/../../../../src/hal/../draw/../misc/../font/../misc/lv_area.h ****  * Check if a point is on an area
 190:Middlewares/LVGL/GUI/lvgl/src/extra/widgets/msgbox/../../../../src/hal/../draw/../misc/../font/../misc/lv_area.h ****  * @param a_p pointer to an area
 191:Middlewares/LVGL/GUI/lvgl/src/extra/widgets/msgbox/../../../../src/hal/../draw/../misc/../font/../misc/lv_area.h ****  * @param p_p pointer to a point
 192:Middlewares/LVGL/GUI/lvgl/src/extra/widgets/msgbox/../../../../src/hal/../draw/../misc/../font/../misc/lv_area.h ****  * @param radius radius of area (e.g. for rounded rectangle)
 193:Middlewares/LVGL/GUI/lvgl/src/extra/widgets/msgbox/../../../../src/hal/../draw/../misc/../font/../misc/lv_area.h ****  * @return false:the point is out of the area
 194:Middlewares/LVGL/GUI/lvgl/src/extra/widgets/msgbox/../../../../src/hal/../draw/../misc/../font/../misc/lv_area.h ****  */
ARM GAS  C:\Users\ADMINI~1\AppData\Local\Temp\ccxvSaAM.s 			page 29


 195:Middlewares/LVGL/GUI/lvgl/src/extra/widgets/msgbox/../../../../src/hal/../draw/../misc/../font/../misc/lv_area.h **** bool _lv_area_is_point_on(const lv_area_t * a_p, const lv_point_t * p_p, lv_coord_t radius);
 196:Middlewares/LVGL/GUI/lvgl/src/extra/widgets/msgbox/../../../../src/hal/../draw/../misc/../font/../misc/lv_area.h **** 
 197:Middlewares/LVGL/GUI/lvgl/src/extra/widgets/msgbox/../../../../src/hal/../draw/../misc/../font/../misc/lv_area.h **** /**
 198:Middlewares/LVGL/GUI/lvgl/src/extra/widgets/msgbox/../../../../src/hal/../draw/../misc/../font/../misc/lv_area.h ****  * Check if two area has common parts
 199:Middlewares/LVGL/GUI/lvgl/src/extra/widgets/msgbox/../../../../src/hal/../draw/../misc/../font/../misc/lv_area.h ****  * @param a1_p pointer to an area.
 200:Middlewares/LVGL/GUI/lvgl/src/extra/widgets/msgbox/../../../../src/hal/../draw/../misc/../font/../misc/lv_area.h ****  * @param a2_p pointer to an other area
 201:Middlewares/LVGL/GUI/lvgl/src/extra/widgets/msgbox/../../../../src/hal/../draw/../misc/../font/../misc/lv_area.h ****  * @return false: a1_p and a2_p has no common parts
 202:Middlewares/LVGL/GUI/lvgl/src/extra/widgets/msgbox/../../../../src/hal/../draw/../misc/../font/../misc/lv_area.h ****  */
 203:Middlewares/LVGL/GUI/lvgl/src/extra/widgets/msgbox/../../../../src/hal/../draw/../misc/../font/../misc/lv_area.h **** bool _lv_area_is_on(const lv_area_t * a1_p, const lv_area_t * a2_p);
 204:Middlewares/LVGL/GUI/lvgl/src/extra/widgets/msgbox/../../../../src/hal/../draw/../misc/../font/../misc/lv_area.h **** 
 205:Middlewares/LVGL/GUI/lvgl/src/extra/widgets/msgbox/../../../../src/hal/../draw/../misc/../font/../misc/lv_area.h **** /**
 206:Middlewares/LVGL/GUI/lvgl/src/extra/widgets/msgbox/../../../../src/hal/../draw/../misc/../font/../misc/lv_area.h ****  * Check if an area is fully on an other
 207:Middlewares/LVGL/GUI/lvgl/src/extra/widgets/msgbox/../../../../src/hal/../draw/../misc/../font/../misc/lv_area.h ****  * @param ain_p pointer to an area which could be in 'aholder_p'
 208:Middlewares/LVGL/GUI/lvgl/src/extra/widgets/msgbox/../../../../src/hal/../draw/../misc/../font/../misc/lv_area.h ****  * @param aholder_p pointer to an area which could involve 'ain_p'
 209:Middlewares/LVGL/GUI/lvgl/src/extra/widgets/msgbox/../../../../src/hal/../draw/../misc/../font/../misc/lv_area.h ****  * @param radius radius of `aholder_p` (e.g. for rounded rectangle)
 210:Middlewares/LVGL/GUI/lvgl/src/extra/widgets/msgbox/../../../../src/hal/../draw/../misc/../font/../misc/lv_area.h ****  * @return true: `ain_p` is fully inside `aholder_p`
 211:Middlewares/LVGL/GUI/lvgl/src/extra/widgets/msgbox/../../../../src/hal/../draw/../misc/../font/../misc/lv_area.h ****  */
 212:Middlewares/LVGL/GUI/lvgl/src/extra/widgets/msgbox/../../../../src/hal/../draw/../misc/../font/../misc/lv_area.h **** bool _lv_area_is_in(const lv_area_t * ain_p, const lv_area_t * aholder_p, lv_coord_t radius);
 213:Middlewares/LVGL/GUI/lvgl/src/extra/widgets/msgbox/../../../../src/hal/../draw/../misc/../font/../misc/lv_area.h **** 
 214:Middlewares/LVGL/GUI/lvgl/src/extra/widgets/msgbox/../../../../src/hal/../draw/../misc/../font/../misc/lv_area.h **** 
 215:Middlewares/LVGL/GUI/lvgl/src/extra/widgets/msgbox/../../../../src/hal/../draw/../misc/../font/../misc/lv_area.h **** /**
 216:Middlewares/LVGL/GUI/lvgl/src/extra/widgets/msgbox/../../../../src/hal/../draw/../misc/../font/../misc/lv_area.h ****  * Check if an area is fully out of an other
 217:Middlewares/LVGL/GUI/lvgl/src/extra/widgets/msgbox/../../../../src/hal/../draw/../misc/../font/../misc/lv_area.h ****  * @param aout_p pointer to an area which could be in 'aholder_p'
 218:Middlewares/LVGL/GUI/lvgl/src/extra/widgets/msgbox/../../../../src/hal/../draw/../misc/../font/../misc/lv_area.h ****  * @param aholder_p pointer to an area which could involve 'ain_p'
 219:Middlewares/LVGL/GUI/lvgl/src/extra/widgets/msgbox/../../../../src/hal/../draw/../misc/../font/../misc/lv_area.h ****  * @param radius radius of `aholder_p` (e.g. for rounded rectangle)
 220:Middlewares/LVGL/GUI/lvgl/src/extra/widgets/msgbox/../../../../src/hal/../draw/../misc/../font/../misc/lv_area.h ****  * @return true: `aout_p` is fully outside `aholder_p`
 221:Middlewares/LVGL/GUI/lvgl/src/extra/widgets/msgbox/../../../../src/hal/../draw/../misc/../font/../misc/lv_area.h ****  */
 222:Middlewares/LVGL/GUI/lvgl/src/extra/widgets/msgbox/../../../../src/hal/../draw/../misc/../font/../misc/lv_area.h **** bool _lv_area_is_out(const lv_area_t * aout_p, const lv_area_t * aholder_p, lv_coord_t radius);
 223:Middlewares/LVGL/GUI/lvgl/src/extra/widgets/msgbox/../../../../src/hal/../draw/../misc/../font/../misc/lv_area.h **** 
 224:Middlewares/LVGL/GUI/lvgl/src/extra/widgets/msgbox/../../../../src/hal/../draw/../misc/../font/../misc/lv_area.h **** /**
 225:Middlewares/LVGL/GUI/lvgl/src/extra/widgets/msgbox/../../../../src/hal/../draw/../misc/../font/../misc/lv_area.h ****  * Check if 2 area is the same
 226:Middlewares/LVGL/GUI/lvgl/src/extra/widgets/msgbox/../../../../src/hal/../draw/../misc/../font/../misc/lv_area.h ****  * @param a pointer to an area
 227:Middlewares/LVGL/GUI/lvgl/src/extra/widgets/msgbox/../../../../src/hal/../draw/../misc/../font/../misc/lv_area.h ****  * @param b pointer to another area
 228:Middlewares/LVGL/GUI/lvgl/src/extra/widgets/msgbox/../../../../src/hal/../draw/../misc/../font/../misc/lv_area.h ****  */
 229:Middlewares/LVGL/GUI/lvgl/src/extra/widgets/msgbox/../../../../src/hal/../draw/../misc/../font/../misc/lv_area.h **** bool _lv_area_is_equal(const lv_area_t * a, const lv_area_t * b);
 230:Middlewares/LVGL/GUI/lvgl/src/extra/widgets/msgbox/../../../../src/hal/../draw/../misc/../font/../misc/lv_area.h **** 
 231:Middlewares/LVGL/GUI/lvgl/src/extra/widgets/msgbox/../../../../src/hal/../draw/../misc/../font/../misc/lv_area.h **** /**
 232:Middlewares/LVGL/GUI/lvgl/src/extra/widgets/msgbox/../../../../src/hal/../draw/../misc/../font/../misc/lv_area.h ****  * Align an area to an other
 233:Middlewares/LVGL/GUI/lvgl/src/extra/widgets/msgbox/../../../../src/hal/../draw/../misc/../font/../misc/lv_area.h ****  * @param base an are where the other will be aligned
 234:Middlewares/LVGL/GUI/lvgl/src/extra/widgets/msgbox/../../../../src/hal/../draw/../misc/../font/../misc/lv_area.h ****  * @param to_align the area to align
 235:Middlewares/LVGL/GUI/lvgl/src/extra/widgets/msgbox/../../../../src/hal/../draw/../misc/../font/../misc/lv_area.h ****  * @param align `LV_ALIGN_...`
 236:Middlewares/LVGL/GUI/lvgl/src/extra/widgets/msgbox/../../../../src/hal/../draw/../misc/../font/../misc/lv_area.h ****  */
 237:Middlewares/LVGL/GUI/lvgl/src/extra/widgets/msgbox/../../../../src/hal/../draw/../misc/../font/../misc/lv_area.h **** void lv_area_align(const lv_area_t * base, lv_area_t * to_align, lv_align_t align, lv_coord_t ofs_x
 238:Middlewares/LVGL/GUI/lvgl/src/extra/widgets/msgbox/../../../../src/hal/../draw/../misc/../font/../misc/lv_area.h **** 
 239:Middlewares/LVGL/GUI/lvgl/src/extra/widgets/msgbox/../../../../src/hal/../draw/../misc/../font/../misc/lv_area.h **** /**********************
 240:Middlewares/LVGL/GUI/lvgl/src/extra/widgets/msgbox/../../../../src/hal/../draw/../misc/../font/../misc/lv_area.h ****  *      MACROS
 241:Middlewares/LVGL/GUI/lvgl/src/extra/widgets/msgbox/../../../../src/hal/../draw/../misc/../font/../misc/lv_area.h ****  **********************/
 242:Middlewares/LVGL/GUI/lvgl/src/extra/widgets/msgbox/../../../../src/hal/../draw/../misc/../font/../misc/lv_area.h **** 
 243:Middlewares/LVGL/GUI/lvgl/src/extra/widgets/msgbox/../../../../src/hal/../draw/../misc/../font/../misc/lv_area.h **** #if LV_USE_LARGE_COORD
 244:Middlewares/LVGL/GUI/lvgl/src/extra/widgets/msgbox/../../../../src/hal/../draw/../misc/../font/../misc/lv_area.h **** #define _LV_COORD_TYPE_SHIFT    (29U)
 245:Middlewares/LVGL/GUI/lvgl/src/extra/widgets/msgbox/../../../../src/hal/../draw/../misc/../font/../misc/lv_area.h **** #else
 246:Middlewares/LVGL/GUI/lvgl/src/extra/widgets/msgbox/../../../../src/hal/../draw/../misc/../font/../misc/lv_area.h **** #define _LV_COORD_TYPE_SHIFT    (13U)
 247:Middlewares/LVGL/GUI/lvgl/src/extra/widgets/msgbox/../../../../src/hal/../draw/../misc/../font/../misc/lv_area.h **** #endif
 248:Middlewares/LVGL/GUI/lvgl/src/extra/widgets/msgbox/../../../../src/hal/../draw/../misc/../font/../misc/lv_area.h **** 
 249:Middlewares/LVGL/GUI/lvgl/src/extra/widgets/msgbox/../../../../src/hal/../draw/../misc/../font/../misc/lv_area.h **** #define _LV_COORD_TYPE_MASK     (3 << _LV_COORD_TYPE_SHIFT)
 250:Middlewares/LVGL/GUI/lvgl/src/extra/widgets/msgbox/../../../../src/hal/../draw/../misc/../font/../misc/lv_area.h **** #define _LV_COORD_TYPE(x)       ((x) & _LV_COORD_TYPE_MASK)  /*Extract type specifiers*/
 251:Middlewares/LVGL/GUI/lvgl/src/extra/widgets/msgbox/../../../../src/hal/../draw/../misc/../font/../misc/lv_area.h **** #define _LV_COORD_PLAIN(x)      ((x) & ~_LV_COORD_TYPE_MASK) /*Remove type specifiers*/
ARM GAS  C:\Users\ADMINI~1\AppData\Local\Temp\ccxvSaAM.s 			page 30


 252:Middlewares/LVGL/GUI/lvgl/src/extra/widgets/msgbox/../../../../src/hal/../draw/../misc/../font/../misc/lv_area.h **** 
 253:Middlewares/LVGL/GUI/lvgl/src/extra/widgets/msgbox/../../../../src/hal/../draw/../misc/../font/../misc/lv_area.h **** #define _LV_COORD_TYPE_PX       (0 << _LV_COORD_TYPE_SHIFT)
 254:Middlewares/LVGL/GUI/lvgl/src/extra/widgets/msgbox/../../../../src/hal/../draw/../misc/../font/../misc/lv_area.h **** #define _LV_COORD_TYPE_SPEC     (1 << _LV_COORD_TYPE_SHIFT)
 255:Middlewares/LVGL/GUI/lvgl/src/extra/widgets/msgbox/../../../../src/hal/../draw/../misc/../font/../misc/lv_area.h **** #define _LV_COORD_TYPE_PX_NEG   (3 << _LV_COORD_TYPE_SHIFT)
 256:Middlewares/LVGL/GUI/lvgl/src/extra/widgets/msgbox/../../../../src/hal/../draw/../misc/../font/../misc/lv_area.h **** 
 257:Middlewares/LVGL/GUI/lvgl/src/extra/widgets/msgbox/../../../../src/hal/../draw/../misc/../font/../misc/lv_area.h **** #define LV_COORD_IS_PX(x)       (_LV_COORD_TYPE(x) == _LV_COORD_TYPE_PX || \
 258:Middlewares/LVGL/GUI/lvgl/src/extra/widgets/msgbox/../../../../src/hal/../draw/../misc/../font/../misc/lv_area.h ****                                  _LV_COORD_TYPE(x) == _LV_COORD_TYPE_PX_NEG ? true : false)
 259:Middlewares/LVGL/GUI/lvgl/src/extra/widgets/msgbox/../../../../src/hal/../draw/../misc/../font/../misc/lv_area.h **** #define LV_COORD_IS_SPEC(x)     (_LV_COORD_TYPE(x) == _LV_COORD_TYPE_SPEC ? true : false)
 260:Middlewares/LVGL/GUI/lvgl/src/extra/widgets/msgbox/../../../../src/hal/../draw/../misc/../font/../misc/lv_area.h **** 
 261:Middlewares/LVGL/GUI/lvgl/src/extra/widgets/msgbox/../../../../src/hal/../draw/../misc/../font/../misc/lv_area.h **** #define LV_COORD_SET_SPEC(x)    ((x) | _LV_COORD_TYPE_SPEC)
 262:Middlewares/LVGL/GUI/lvgl/src/extra/widgets/msgbox/../../../../src/hal/../draw/../misc/../font/../misc/lv_area.h **** 
 263:Middlewares/LVGL/GUI/lvgl/src/extra/widgets/msgbox/../../../../src/hal/../draw/../misc/../font/../misc/lv_area.h **** /*Special coordinates*/
 264:Middlewares/LVGL/GUI/lvgl/src/extra/widgets/msgbox/../../../../src/hal/../draw/../misc/../font/../misc/lv_area.h **** #define LV_PCT(x)               (x < 0 ? LV_COORD_SET_SPEC(1000 - (x)) : LV_COORD_SET_SPEC(x))
 265:Middlewares/LVGL/GUI/lvgl/src/extra/widgets/msgbox/../../../../src/hal/../draw/../misc/../font/../misc/lv_area.h **** #define LV_COORD_IS_PCT(x)      ((LV_COORD_IS_SPEC(x) && _LV_COORD_PLAIN(x) <= 2000) ? true : false
 266:Middlewares/LVGL/GUI/lvgl/src/extra/widgets/msgbox/../../../../src/hal/../draw/../misc/../font/../misc/lv_area.h **** #define LV_COORD_GET_PCT(x)     (_LV_COORD_PLAIN(x) > 1000 ? 1000 - _LV_COORD_PLAIN(x) : _LV_COORD_
 267:Middlewares/LVGL/GUI/lvgl/src/extra/widgets/msgbox/../../../../src/hal/../draw/../misc/../font/../misc/lv_area.h **** #define LV_SIZE_CONTENT         LV_COORD_SET_SPEC(2001)
 268:Middlewares/LVGL/GUI/lvgl/src/extra/widgets/msgbox/../../../../src/hal/../draw/../misc/../font/../misc/lv_area.h **** 
 269:Middlewares/LVGL/GUI/lvgl/src/extra/widgets/msgbox/../../../../src/hal/../draw/../misc/../font/../misc/lv_area.h **** LV_EXPORT_CONST_INT(LV_SIZE_CONTENT);
 270:Middlewares/LVGL/GUI/lvgl/src/extra/widgets/msgbox/../../../../src/hal/../draw/../misc/../font/../misc/lv_area.h **** 
 271:Middlewares/LVGL/GUI/lvgl/src/extra/widgets/msgbox/../../../../src/hal/../draw/../misc/../font/../misc/lv_area.h **** /*Max coordinate value*/
 272:Middlewares/LVGL/GUI/lvgl/src/extra/widgets/msgbox/../../../../src/hal/../draw/../misc/../font/../misc/lv_area.h **** #define LV_COORD_MAX            ((1 << _LV_COORD_TYPE_SHIFT) - 1)
 273:Middlewares/LVGL/GUI/lvgl/src/extra/widgets/msgbox/../../../../src/hal/../draw/../misc/../font/../misc/lv_area.h **** #define LV_COORD_MIN            (-LV_COORD_MAX)
 274:Middlewares/LVGL/GUI/lvgl/src/extra/widgets/msgbox/../../../../src/hal/../draw/../misc/../font/../misc/lv_area.h **** 
 275:Middlewares/LVGL/GUI/lvgl/src/extra/widgets/msgbox/../../../../src/hal/../draw/../misc/../font/../misc/lv_area.h **** LV_EXPORT_CONST_INT(LV_COORD_MAX);
 276:Middlewares/LVGL/GUI/lvgl/src/extra/widgets/msgbox/../../../../src/hal/../draw/../misc/../font/../misc/lv_area.h **** LV_EXPORT_CONST_INT(LV_COORD_MIN);
 277:Middlewares/LVGL/GUI/lvgl/src/extra/widgets/msgbox/../../../../src/hal/../draw/../misc/../font/../misc/lv_area.h **** 
 278:Middlewares/LVGL/GUI/lvgl/src/extra/widgets/msgbox/../../../../src/hal/../draw/../misc/../font/../misc/lv_area.h **** /**
 279:Middlewares/LVGL/GUI/lvgl/src/extra/widgets/msgbox/../../../../src/hal/../draw/../misc/../font/../misc/lv_area.h ****  * Convert a percentage value to `lv_coord_t`.
 280:Middlewares/LVGL/GUI/lvgl/src/extra/widgets/msgbox/../../../../src/hal/../draw/../misc/../font/../misc/lv_area.h ****  * Percentage values are stored in special range
 281:Middlewares/LVGL/GUI/lvgl/src/extra/widgets/msgbox/../../../../src/hal/../draw/../misc/../font/../misc/lv_area.h ****  * @param x the percentage (0..1000)
 282:Middlewares/LVGL/GUI/lvgl/src/extra/widgets/msgbox/../../../../src/hal/../draw/../misc/../font/../misc/lv_area.h ****  * @return a coordinate that stores the percentage
 283:Middlewares/LVGL/GUI/lvgl/src/extra/widgets/msgbox/../../../../src/hal/../draw/../misc/../font/../misc/lv_area.h ****  */
 284:Middlewares/LVGL/GUI/lvgl/src/extra/widgets/msgbox/../../../../src/hal/../draw/../misc/../font/../misc/lv_area.h **** static inline lv_coord_t lv_pct(lv_coord_t x)
 285:Middlewares/LVGL/GUI/lvgl/src/extra/widgets/msgbox/../../../../src/hal/../draw/../misc/../font/../misc/lv_area.h **** {
 286:Middlewares/LVGL/GUI/lvgl/src/extra/widgets/msgbox/../../../../src/hal/../draw/../misc/../font/../misc/lv_area.h ****     return LV_PCT(x);
 468              		.loc 5 286 5 view .LVU135
 115:Middlewares/LVGL/GUI/lvgl/src/extra/widgets/msgbox/lv_msgbox.c ****     }
 469              		.loc 1 115 9 is_stmt 0 view .LVU136
 470 01e6 1849     		ldr	r1, .L37+16
 471 01e8 A06B     		ldr	r0, [r4, #56]
 472 01ea FFF7FEFF 		bl	lv_obj_set_width
 473              	.LVL58:
 474 01ee 58E7     		b	.L17
 475              	.LVL59:
 476              	.L21:
 477              	.LBB40:
 125:Middlewares/LVGL/GUI/lvgl/src/extra/widgets/msgbox/lv_msgbox.c ****             btn_cnt++;
 478              		.loc 1 125 13 is_stmt 1 view .LVU137
 479              		.loc 1 125 20 is_stmt 0 view .LVU138
 480 01f0 0135     		adds	r5, r5, #1
 481              	.LVL60:
 482              	.L19:
 124:Middlewares/LVGL/GUI/lvgl/src/extra/widgets/msgbox/lv_msgbox.c ****             btn_cnt++;
 483              		.loc 1 124 14 is_stmt 1 view .LVU139
 124:Middlewares/LVGL/GUI/lvgl/src/extra/widgets/msgbox/lv_msgbox.c ****             btn_cnt++;
 484              		.loc 1 124 23 is_stmt 0 view .LVU140
 485 01f2 56F82520 		ldr	r2, [r6, r5, lsl #2]
ARM GAS  C:\Users\ADMINI~1\AppData\Local\Temp\ccxvSaAM.s 			page 31


 124:Middlewares/LVGL/GUI/lvgl/src/extra/widgets/msgbox/lv_msgbox.c ****             btn_cnt++;
 486              		.loc 1 124 14 view .LVU141
 487 01f6 12B1     		cbz	r2, .L20
 124:Middlewares/LVGL/GUI/lvgl/src/extra/widgets/msgbox/lv_msgbox.c ****             btn_cnt++;
 488              		.loc 1 124 53 discriminator 1 view .LVU142
 489 01f8 1378     		ldrb	r3, [r2]	@ zero_extendqisi2
 124:Middlewares/LVGL/GUI/lvgl/src/extra/widgets/msgbox/lv_msgbox.c ****             btn_cnt++;
 490              		.loc 1 124 33 discriminator 1 view .LVU143
 491 01fa 002B     		cmp	r3, #0
 492 01fc F8D1     		bne	.L21
 493              	.L20:
 126:Middlewares/LVGL/GUI/lvgl/src/extra/widgets/msgbox/lv_msgbox.c ****         }
 127:Middlewares/LVGL/GUI/lvgl/src/extra/widgets/msgbox/lv_msgbox.c **** 
 128:Middlewares/LVGL/GUI/lvgl/src/extra/widgets/msgbox/lv_msgbox.c ****         const lv_font_t * font = lv_obj_get_style_text_font(mbox->btns, LV_PART_ITEMS);
 494              		.loc 1 128 9 is_stmt 1 view .LVU144
 495              	.LVL61:
 496              	.LBB29:
 497              	.LBI29:
 451:Middlewares/LVGL/GUI/lvgl/src/extra/widgets/msgbox/../../../../src/core/lv_obj_style_gen.h **** {
 498              		.loc 3 451 33 view .LVU145
 499              	.LBB30:
 453:Middlewares/LVGL/GUI/lvgl/src/extra/widgets/msgbox/../../../../src/core/lv_obj_style_gen.h ****     return (const lv_font_t *)v.ptr;
 500              		.loc 3 453 5 view .LVU146
 453:Middlewares/LVGL/GUI/lvgl/src/extra/widgets/msgbox/../../../../src/core/lv_obj_style_gen.h ****     return (const lv_font_t *)v.ptr;
 501              		.loc 3 453 26 is_stmt 0 view .LVU147
 502 01fe 41F25942 		movw	r2, #5209
 503 0202 4FF4A021 		mov	r1, #327680
 504 0206 E06B     		ldr	r0, [r4, #60]
 505 0208 FFF7FEFF 		bl	lv_obj_get_style_prop
 506              	.LVL62:
 507              		.loc 3 454 5 is_stmt 1 view .LVU148
 508              		.loc 3 454 5 is_stmt 0 view .LVU149
 509              	.LBE30:
 510              	.LBE29:
 129:Middlewares/LVGL/GUI/lvgl/src/extra/widgets/msgbox/lv_msgbox.c ****         lv_coord_t btn_h = lv_font_get_line_height(font) + LV_DPI_DEF / 10;
 511              		.loc 1 129 9 is_stmt 1 view .LVU150
 512              	.LBB31:
 513              	.LBI31:
 121:Middlewares/LVGL/GUI/lvgl/src/extra/widgets/msgbox/../../../../src/hal/../draw/../misc/../font/lv_font.h **** {
 514              		.loc 4 121 26 view .LVU151
 515              	.LBB32:
 516              		.loc 4 123 5 view .LVU152
 517              		.loc 4 123 18 is_stmt 0 view .LVU153
 518 020c 8268     		ldr	r2, [r0, #8]
 519              	.LVL63:
 520              		.loc 4 123 18 view .LVU154
 521              	.LBE32:
 522              	.LBE31:
 130:Middlewares/LVGL/GUI/lvgl/src/extra/widgets/msgbox/lv_msgbox.c ****         lv_obj_set_size(mbox->btns, btn_cnt * (2 * LV_DPI_DEF / 3), btn_h);
 523              		.loc 1 130 9 is_stmt 1 view .LVU155
 524 020e 0D32     		adds	r2, r2, #13
 525              	.LVL64:
 526              		.loc 1 130 9 is_stmt 0 view .LVU156
 527 0210 5621     		movs	r1, #86
 528 0212 05FB01F1 		mul	r1, r5, r1
 529 0216 E06B     		ldr	r0, [r4, #60]
 530              	.LVL65:
ARM GAS  C:\Users\ADMINI~1\AppData\Local\Temp\ccxvSaAM.s 			page 32


 531              		.loc 1 130 9 view .LVU157
 532 0218 FFF7FEFF 		bl	lv_obj_set_size
 533              	.LVL66:
 131:Middlewares/LVGL/GUI/lvgl/src/extra/widgets/msgbox/lv_msgbox.c ****         lv_obj_set_style_max_width(mbox->btns, lv_pct(100), 0);
 534              		.loc 1 131 9 is_stmt 1 view .LVU158
 535              		.loc 1 131 9 is_stmt 0 view .LVU159
 536              	.LBE40:
 537              		.loc 5 286 5 is_stmt 1 view .LVU160
 538              	.LBB41:
 539              		.loc 1 131 9 is_stmt 0 view .LVU161
 540 021c 0022     		movs	r2, #0
 541 021e 0A49     		ldr	r1, .L37+16
 542 0220 E06B     		ldr	r0, [r4, #60]
 543 0222 FFF7FEFF 		bl	lv_obj_set_style_max_width
 544              	.LVL67:
 132:Middlewares/LVGL/GUI/lvgl/src/extra/widgets/msgbox/lv_msgbox.c ****         lv_obj_add_flag(mbox->btns, LV_OBJ_FLAG_EVENT_BUBBLE);    /*To see the event directly on th
 545              		.loc 1 132 9 is_stmt 1 view .LVU162
 546 0226 4FF48041 		mov	r1, #16384
 547 022a E06B     		ldr	r0, [r4, #60]
 548 022c FFF7FEFF 		bl	lv_obj_add_flag
 549              	.LVL68:
 550              	.LBE41:
 133:Middlewares/LVGL/GUI/lvgl/src/extra/widgets/msgbox/lv_msgbox.c ****     }
 134:Middlewares/LVGL/GUI/lvgl/src/extra/widgets/msgbox/lv_msgbox.c **** 
 135:Middlewares/LVGL/GUI/lvgl/src/extra/widgets/msgbox/lv_msgbox.c ****     return obj;
 551              		.loc 1 135 5 view .LVU163
 552              	.L1:
 136:Middlewares/LVGL/GUI/lvgl/src/extra/widgets/msgbox/lv_msgbox.c **** }
 553              		.loc 1 136 1 is_stmt 0 view .LVU164
 554 0230 2046     		mov	r0, r4
 555 0232 BDE8F883 		pop	{r3, r4, r5, r6, r7, r8, r9, pc}
 556              	.LVL69:
 557              	.L38:
 558              		.loc 1 136 1 view .LVU165
 559 0236 00BF     		.align	2
 560              	.L37:
 561 0238 00000000 		.word	.LANCHOR1
 562 023c 00000000 		.word	.LC0
 563 0240 00000000 		.word	.LANCHOR2
 564 0244 00000000 		.word	.LANCHOR0
 565 0248 64000020 		.word	536871012
 566 024c 00000000 		.word	msgbox_close_click_event_cb
 567 0250 04000000 		.word	.LC1
 568 0254 67666666 		.word	1717986919
 569              		.cfi_endproc
 570              	.LFE196:
 572              		.section	.text.lv_msgbox_get_title,"ax",%progbits
 573              		.align	1
 574              		.global	lv_msgbox_get_title
 575              		.syntax unified
 576              		.thumb
 577              		.thumb_func
 579              	lv_msgbox_get_title:
 580              	.LVL70:
 581              	.LFB197:
 137:Middlewares/LVGL/GUI/lvgl/src/extra/widgets/msgbox/lv_msgbox.c **** 
 138:Middlewares/LVGL/GUI/lvgl/src/extra/widgets/msgbox/lv_msgbox.c **** 
ARM GAS  C:\Users\ADMINI~1\AppData\Local\Temp\ccxvSaAM.s 			page 33


 139:Middlewares/LVGL/GUI/lvgl/src/extra/widgets/msgbox/lv_msgbox.c **** lv_obj_t * lv_msgbox_get_title(lv_obj_t * obj)
 140:Middlewares/LVGL/GUI/lvgl/src/extra/widgets/msgbox/lv_msgbox.c **** {
 582              		.loc 1 140 1 is_stmt 1 view -0
 583              		.cfi_startproc
 584              		@ args = 0, pretend = 0, frame = 0
 585              		@ frame_needed = 0, uses_anonymous_args = 0
 586              		@ link register save eliminated.
 141:Middlewares/LVGL/GUI/lvgl/src/extra/widgets/msgbox/lv_msgbox.c ****     LV_ASSERT_OBJ(obj, MY_CLASS);
 587              		.loc 1 141 5 view .LVU167
 588              		.loc 1 141 5 view .LVU168
 589              		.loc 1 141 5 view .LVU169
 142:Middlewares/LVGL/GUI/lvgl/src/extra/widgets/msgbox/lv_msgbox.c ****     lv_msgbox_t * mbox = (lv_msgbox_t *)obj;
 590              		.loc 1 142 5 view .LVU170
 143:Middlewares/LVGL/GUI/lvgl/src/extra/widgets/msgbox/lv_msgbox.c ****     return mbox->title;
 591              		.loc 1 143 5 view .LVU171
 144:Middlewares/LVGL/GUI/lvgl/src/extra/widgets/msgbox/lv_msgbox.c **** }
 592              		.loc 1 144 1 is_stmt 0 view .LVU172
 593 0000 C06A     		ldr	r0, [r0, #44]
 594              	.LVL71:
 595              		.loc 1 144 1 view .LVU173
 596 0002 7047     		bx	lr
 597              		.cfi_endproc
 598              	.LFE197:
 600              		.section	.text.lv_msgbox_get_close_btn,"ax",%progbits
 601              		.align	1
 602              		.global	lv_msgbox_get_close_btn
 603              		.syntax unified
 604              		.thumb
 605              		.thumb_func
 607              	lv_msgbox_get_close_btn:
 608              	.LVL72:
 609              	.LFB198:
 145:Middlewares/LVGL/GUI/lvgl/src/extra/widgets/msgbox/lv_msgbox.c **** 
 146:Middlewares/LVGL/GUI/lvgl/src/extra/widgets/msgbox/lv_msgbox.c **** lv_obj_t * lv_msgbox_get_close_btn(lv_obj_t * obj)
 147:Middlewares/LVGL/GUI/lvgl/src/extra/widgets/msgbox/lv_msgbox.c **** {
 610              		.loc 1 147 1 is_stmt 1 view -0
 611              		.cfi_startproc
 612              		@ args = 0, pretend = 0, frame = 0
 613              		@ frame_needed = 0, uses_anonymous_args = 0
 614              		@ link register save eliminated.
 148:Middlewares/LVGL/GUI/lvgl/src/extra/widgets/msgbox/lv_msgbox.c ****     LV_ASSERT_OBJ(obj, MY_CLASS);
 615              		.loc 1 148 5 view .LVU175
 616              		.loc 1 148 5 view .LVU176
 617              		.loc 1 148 5 view .LVU177
 149:Middlewares/LVGL/GUI/lvgl/src/extra/widgets/msgbox/lv_msgbox.c ****     lv_msgbox_t * mbox = (lv_msgbox_t *)obj;
 618              		.loc 1 149 5 view .LVU178
 150:Middlewares/LVGL/GUI/lvgl/src/extra/widgets/msgbox/lv_msgbox.c ****     return mbox->close_btn;
 619              		.loc 1 150 5 view .LVU179
 151:Middlewares/LVGL/GUI/lvgl/src/extra/widgets/msgbox/lv_msgbox.c **** }
 620              		.loc 1 151 1 is_stmt 0 view .LVU180
 621 0000 006B     		ldr	r0, [r0, #48]
 622              	.LVL73:
 623              		.loc 1 151 1 view .LVU181
 624 0002 7047     		bx	lr
 625              		.cfi_endproc
 626              	.LFE198:
 628              		.section	.text.lv_msgbox_get_text,"ax",%progbits
ARM GAS  C:\Users\ADMINI~1\AppData\Local\Temp\ccxvSaAM.s 			page 34


 629              		.align	1
 630              		.global	lv_msgbox_get_text
 631              		.syntax unified
 632              		.thumb
 633              		.thumb_func
 635              	lv_msgbox_get_text:
 636              	.LVL74:
 637              	.LFB199:
 152:Middlewares/LVGL/GUI/lvgl/src/extra/widgets/msgbox/lv_msgbox.c **** 
 153:Middlewares/LVGL/GUI/lvgl/src/extra/widgets/msgbox/lv_msgbox.c **** lv_obj_t * lv_msgbox_get_text(lv_obj_t * obj)
 154:Middlewares/LVGL/GUI/lvgl/src/extra/widgets/msgbox/lv_msgbox.c **** {
 638              		.loc 1 154 1 is_stmt 1 view -0
 639              		.cfi_startproc
 640              		@ args = 0, pretend = 0, frame = 0
 641              		@ frame_needed = 0, uses_anonymous_args = 0
 642              		@ link register save eliminated.
 155:Middlewares/LVGL/GUI/lvgl/src/extra/widgets/msgbox/lv_msgbox.c ****     LV_ASSERT_OBJ(obj, MY_CLASS);
 643              		.loc 1 155 5 view .LVU183
 644              		.loc 1 155 5 view .LVU184
 645              		.loc 1 155 5 view .LVU185
 156:Middlewares/LVGL/GUI/lvgl/src/extra/widgets/msgbox/lv_msgbox.c ****     lv_msgbox_t * mbox = (lv_msgbox_t *)obj;
 646              		.loc 1 156 5 view .LVU186
 157:Middlewares/LVGL/GUI/lvgl/src/extra/widgets/msgbox/lv_msgbox.c ****     return mbox->text;
 647              		.loc 1 157 5 view .LVU187
 158:Middlewares/LVGL/GUI/lvgl/src/extra/widgets/msgbox/lv_msgbox.c **** }
 648              		.loc 1 158 1 is_stmt 0 view .LVU188
 649 0000 806B     		ldr	r0, [r0, #56]
 650              	.LVL75:
 651              		.loc 1 158 1 view .LVU189
 652 0002 7047     		bx	lr
 653              		.cfi_endproc
 654              	.LFE199:
 656              		.section	.text.lv_msgbox_get_content,"ax",%progbits
 657              		.align	1
 658              		.global	lv_msgbox_get_content
 659              		.syntax unified
 660              		.thumb
 661              		.thumb_func
 663              	lv_msgbox_get_content:
 664              	.LVL76:
 665              	.LFB200:
 159:Middlewares/LVGL/GUI/lvgl/src/extra/widgets/msgbox/lv_msgbox.c **** 
 160:Middlewares/LVGL/GUI/lvgl/src/extra/widgets/msgbox/lv_msgbox.c **** lv_obj_t * lv_msgbox_get_content(lv_obj_t * obj)
 161:Middlewares/LVGL/GUI/lvgl/src/extra/widgets/msgbox/lv_msgbox.c **** {
 666              		.loc 1 161 1 is_stmt 1 view -0
 667              		.cfi_startproc
 668              		@ args = 0, pretend = 0, frame = 0
 669              		@ frame_needed = 0, uses_anonymous_args = 0
 670              		@ link register save eliminated.
 162:Middlewares/LVGL/GUI/lvgl/src/extra/widgets/msgbox/lv_msgbox.c ****     LV_ASSERT_OBJ(obj, MY_CLASS);
 671              		.loc 1 162 5 view .LVU191
 672              		.loc 1 162 5 view .LVU192
 673              		.loc 1 162 5 view .LVU193
 163:Middlewares/LVGL/GUI/lvgl/src/extra/widgets/msgbox/lv_msgbox.c ****     lv_msgbox_t * mbox = (lv_msgbox_t *)obj;
 674              		.loc 1 163 5 view .LVU194
 164:Middlewares/LVGL/GUI/lvgl/src/extra/widgets/msgbox/lv_msgbox.c ****     return mbox->content;
 675              		.loc 1 164 5 view .LVU195
ARM GAS  C:\Users\ADMINI~1\AppData\Local\Temp\ccxvSaAM.s 			page 35


 165:Middlewares/LVGL/GUI/lvgl/src/extra/widgets/msgbox/lv_msgbox.c **** }
 676              		.loc 1 165 1 is_stmt 0 view .LVU196
 677 0000 406B     		ldr	r0, [r0, #52]
 678              	.LVL77:
 679              		.loc 1 165 1 view .LVU197
 680 0002 7047     		bx	lr
 681              		.cfi_endproc
 682              	.LFE200:
 684              		.section	.text.lv_msgbox_get_btns,"ax",%progbits
 685              		.align	1
 686              		.global	lv_msgbox_get_btns
 687              		.syntax unified
 688              		.thumb
 689              		.thumb_func
 691              	lv_msgbox_get_btns:
 692              	.LVL78:
 693              	.LFB201:
 166:Middlewares/LVGL/GUI/lvgl/src/extra/widgets/msgbox/lv_msgbox.c **** 
 167:Middlewares/LVGL/GUI/lvgl/src/extra/widgets/msgbox/lv_msgbox.c **** lv_obj_t * lv_msgbox_get_btns(lv_obj_t * obj)
 168:Middlewares/LVGL/GUI/lvgl/src/extra/widgets/msgbox/lv_msgbox.c **** {
 694              		.loc 1 168 1 is_stmt 1 view -0
 695              		.cfi_startproc
 696              		@ args = 0, pretend = 0, frame = 0
 697              		@ frame_needed = 0, uses_anonymous_args = 0
 698              		@ link register save eliminated.
 169:Middlewares/LVGL/GUI/lvgl/src/extra/widgets/msgbox/lv_msgbox.c ****     LV_ASSERT_OBJ(obj, MY_CLASS);
 699              		.loc 1 169 5 view .LVU199
 700              		.loc 1 169 5 view .LVU200
 701              		.loc 1 169 5 view .LVU201
 170:Middlewares/LVGL/GUI/lvgl/src/extra/widgets/msgbox/lv_msgbox.c ****     lv_msgbox_t * mbox = (lv_msgbox_t *)obj;
 702              		.loc 1 170 5 view .LVU202
 171:Middlewares/LVGL/GUI/lvgl/src/extra/widgets/msgbox/lv_msgbox.c ****     return mbox->btns;
 703              		.loc 1 171 5 view .LVU203
 172:Middlewares/LVGL/GUI/lvgl/src/extra/widgets/msgbox/lv_msgbox.c **** }
 704              		.loc 1 172 1 is_stmt 0 view .LVU204
 705 0000 C06B     		ldr	r0, [r0, #60]
 706              	.LVL79:
 707              		.loc 1 172 1 view .LVU205
 708 0002 7047     		bx	lr
 709              		.cfi_endproc
 710              	.LFE201:
 712              		.section	.text.lv_msgbox_get_active_btn,"ax",%progbits
 713              		.align	1
 714              		.global	lv_msgbox_get_active_btn
 715              		.syntax unified
 716              		.thumb
 717              		.thumb_func
 719              	lv_msgbox_get_active_btn:
 720              	.LVL80:
 721              	.LFB202:
 173:Middlewares/LVGL/GUI/lvgl/src/extra/widgets/msgbox/lv_msgbox.c **** 
 174:Middlewares/LVGL/GUI/lvgl/src/extra/widgets/msgbox/lv_msgbox.c **** uint16_t lv_msgbox_get_active_btn(lv_obj_t * mbox)
 175:Middlewares/LVGL/GUI/lvgl/src/extra/widgets/msgbox/lv_msgbox.c **** {
 722              		.loc 1 175 1 is_stmt 1 view -0
 723              		.cfi_startproc
 724              		@ args = 0, pretend = 0, frame = 0
 725              		@ frame_needed = 0, uses_anonymous_args = 0
ARM GAS  C:\Users\ADMINI~1\AppData\Local\Temp\ccxvSaAM.s 			page 36


 726              		.loc 1 175 1 is_stmt 0 view .LVU207
 727 0000 08B5     		push	{r3, lr}
 728              	.LCFI1:
 729              		.cfi_def_cfa_offset 8
 730              		.cfi_offset 3, -8
 731              		.cfi_offset 14, -4
 176:Middlewares/LVGL/GUI/lvgl/src/extra/widgets/msgbox/lv_msgbox.c ****     lv_obj_t * btnm = lv_msgbox_get_btns(mbox);
 732              		.loc 1 176 5 is_stmt 1 view .LVU208
 733              		.loc 1 176 23 is_stmt 0 view .LVU209
 734 0002 FFF7FEFF 		bl	lv_msgbox_get_btns
 735              	.LVL81:
 177:Middlewares/LVGL/GUI/lvgl/src/extra/widgets/msgbox/lv_msgbox.c ****     return lv_btnmatrix_get_selected_btn(btnm);
 736              		.loc 1 177 5 is_stmt 1 view .LVU210
 737              		.loc 1 177 12 is_stmt 0 view .LVU211
 738 0006 FFF7FEFF 		bl	lv_btnmatrix_get_selected_btn
 739              	.LVL82:
 178:Middlewares/LVGL/GUI/lvgl/src/extra/widgets/msgbox/lv_msgbox.c **** }
 740              		.loc 1 178 1 view .LVU212
 741 000a 08BD     		pop	{r3, pc}
 742              		.cfi_endproc
 743              	.LFE202:
 745              		.section	.text.lv_msgbox_get_active_btn_text,"ax",%progbits
 746              		.align	1
 747              		.global	lv_msgbox_get_active_btn_text
 748              		.syntax unified
 749              		.thumb
 750              		.thumb_func
 752              	lv_msgbox_get_active_btn_text:
 753              	.LVL83:
 754              	.LFB203:
 179:Middlewares/LVGL/GUI/lvgl/src/extra/widgets/msgbox/lv_msgbox.c **** 
 180:Middlewares/LVGL/GUI/lvgl/src/extra/widgets/msgbox/lv_msgbox.c **** const char * lv_msgbox_get_active_btn_text(lv_obj_t * mbox)
 181:Middlewares/LVGL/GUI/lvgl/src/extra/widgets/msgbox/lv_msgbox.c **** {
 755              		.loc 1 181 1 is_stmt 1 view -0
 756              		.cfi_startproc
 757              		@ args = 0, pretend = 0, frame = 0
 758              		@ frame_needed = 0, uses_anonymous_args = 0
 759              		.loc 1 181 1 is_stmt 0 view .LVU214
 760 0000 10B5     		push	{r4, lr}
 761              	.LCFI2:
 762              		.cfi_def_cfa_offset 8
 763              		.cfi_offset 4, -8
 764              		.cfi_offset 14, -4
 182:Middlewares/LVGL/GUI/lvgl/src/extra/widgets/msgbox/lv_msgbox.c ****     lv_obj_t * btnm = lv_msgbox_get_btns(mbox);
 765              		.loc 1 182 5 is_stmt 1 view .LVU215
 766              		.loc 1 182 23 is_stmt 0 view .LVU216
 767 0002 FFF7FEFF 		bl	lv_msgbox_get_btns
 768              	.LVL84:
 769              		.loc 1 182 23 view .LVU217
 770 0006 0446     		mov	r4, r0
 771              	.LVL85:
 183:Middlewares/LVGL/GUI/lvgl/src/extra/widgets/msgbox/lv_msgbox.c ****     return lv_btnmatrix_get_btn_text(btnm, lv_btnmatrix_get_selected_btn(btnm));
 772              		.loc 1 183 5 is_stmt 1 view .LVU218
 773              		.loc 1 183 12 is_stmt 0 view .LVU219
 774 0008 FFF7FEFF 		bl	lv_btnmatrix_get_selected_btn
 775              	.LVL86:
 776              		.loc 1 183 12 view .LVU220
ARM GAS  C:\Users\ADMINI~1\AppData\Local\Temp\ccxvSaAM.s 			page 37


 777 000c 0146     		mov	r1, r0
 778 000e 2046     		mov	r0, r4
 779 0010 FFF7FEFF 		bl	lv_btnmatrix_get_btn_text
 780              	.LVL87:
 184:Middlewares/LVGL/GUI/lvgl/src/extra/widgets/msgbox/lv_msgbox.c **** }
 781              		.loc 1 184 1 view .LVU221
 782 0014 10BD     		pop	{r4, pc}
 783              		.loc 1 184 1 view .LVU222
 784              		.cfi_endproc
 785              	.LFE203:
 787              		.section	.text.lv_msgbox_close,"ax",%progbits
 788              		.align	1
 789              		.global	lv_msgbox_close
 790              		.syntax unified
 791              		.thumb
 792              		.thumb_func
 794              	lv_msgbox_close:
 795              	.LVL88:
 796              	.LFB204:
 185:Middlewares/LVGL/GUI/lvgl/src/extra/widgets/msgbox/lv_msgbox.c **** 
 186:Middlewares/LVGL/GUI/lvgl/src/extra/widgets/msgbox/lv_msgbox.c **** void lv_msgbox_close(lv_obj_t * mbox)
 187:Middlewares/LVGL/GUI/lvgl/src/extra/widgets/msgbox/lv_msgbox.c **** {
 797              		.loc 1 187 1 is_stmt 1 view -0
 798              		.cfi_startproc
 799              		@ args = 0, pretend = 0, frame = 0
 800              		@ frame_needed = 0, uses_anonymous_args = 0
 801              		.loc 1 187 1 is_stmt 0 view .LVU224
 802 0000 10B5     		push	{r4, lr}
 803              	.LCFI3:
 804              		.cfi_def_cfa_offset 8
 805              		.cfi_offset 4, -8
 806              		.cfi_offset 14, -4
 807 0002 0446     		mov	r4, r0
 188:Middlewares/LVGL/GUI/lvgl/src/extra/widgets/msgbox/lv_msgbox.c ****     if(lv_obj_has_flag(mbox, LV_MSGBOX_FLAG_AUTO_PARENT)) lv_obj_del(lv_obj_get_parent(mbox));
 808              		.loc 1 188 5 is_stmt 1 view .LVU225
 809              		.loc 1 188 8 is_stmt 0 view .LVU226
 810 0004 4FF00071 		mov	r1, #33554432
 811 0008 FFF7FEFF 		bl	lv_obj_has_flag
 812              	.LVL89:
 813              		.loc 1 188 7 view .LVU227
 814 000c 28B1     		cbz	r0, .L49
 815              		.loc 1 188 59 is_stmt 1 discriminator 1 view .LVU228
 816 000e 2046     		mov	r0, r4
 817 0010 FFF7FEFF 		bl	lv_obj_get_parent
 818              	.LVL90:
 819 0014 FFF7FEFF 		bl	lv_obj_del
 820              	.LVL91:
 821              	.L48:
 189:Middlewares/LVGL/GUI/lvgl/src/extra/widgets/msgbox/lv_msgbox.c ****     else lv_obj_del(mbox);
 190:Middlewares/LVGL/GUI/lvgl/src/extra/widgets/msgbox/lv_msgbox.c **** }
 822              		.loc 1 190 1 is_stmt 0 view .LVU229
 823 0018 10BD     		pop	{r4, pc}
 824              	.LVL92:
 825              	.L49:
 189:Middlewares/LVGL/GUI/lvgl/src/extra/widgets/msgbox/lv_msgbox.c ****     else lv_obj_del(mbox);
 826              		.loc 1 189 10 is_stmt 1 view .LVU230
 827 001a 2046     		mov	r0, r4
ARM GAS  C:\Users\ADMINI~1\AppData\Local\Temp\ccxvSaAM.s 			page 38


 828 001c FFF7FEFF 		bl	lv_obj_del
 829              	.LVL93:
 830              		.loc 1 190 1 is_stmt 0 view .LVU231
 831 0020 FAE7     		b	.L48
 832              		.cfi_endproc
 833              	.LFE204:
 835              		.section	.text.msgbox_close_click_event_cb,"ax",%progbits
 836              		.align	1
 837              		.syntax unified
 838              		.thumb
 839              		.thumb_func
 841              	msgbox_close_click_event_cb:
 842              	.LVL94:
 843              	.LFB206:
 191:Middlewares/LVGL/GUI/lvgl/src/extra/widgets/msgbox/lv_msgbox.c **** 
 192:Middlewares/LVGL/GUI/lvgl/src/extra/widgets/msgbox/lv_msgbox.c **** void lv_msgbox_close_async(lv_obj_t * dialog)
 193:Middlewares/LVGL/GUI/lvgl/src/extra/widgets/msgbox/lv_msgbox.c **** {
 194:Middlewares/LVGL/GUI/lvgl/src/extra/widgets/msgbox/lv_msgbox.c ****     if(lv_obj_has_flag(dialog, LV_MSGBOX_FLAG_AUTO_PARENT)) lv_obj_del_async(lv_obj_get_parent(dial
 195:Middlewares/LVGL/GUI/lvgl/src/extra/widgets/msgbox/lv_msgbox.c ****     else lv_obj_del_async(dialog);
 196:Middlewares/LVGL/GUI/lvgl/src/extra/widgets/msgbox/lv_msgbox.c **** }
 197:Middlewares/LVGL/GUI/lvgl/src/extra/widgets/msgbox/lv_msgbox.c **** 
 198:Middlewares/LVGL/GUI/lvgl/src/extra/widgets/msgbox/lv_msgbox.c **** /**********************
 199:Middlewares/LVGL/GUI/lvgl/src/extra/widgets/msgbox/lv_msgbox.c ****  *   STATIC FUNCTIONS
 200:Middlewares/LVGL/GUI/lvgl/src/extra/widgets/msgbox/lv_msgbox.c ****  **********************/
 201:Middlewares/LVGL/GUI/lvgl/src/extra/widgets/msgbox/lv_msgbox.c **** 
 202:Middlewares/LVGL/GUI/lvgl/src/extra/widgets/msgbox/lv_msgbox.c **** static void msgbox_close_click_event_cb(lv_event_t * e)
 203:Middlewares/LVGL/GUI/lvgl/src/extra/widgets/msgbox/lv_msgbox.c **** {
 844              		.loc 1 203 1 is_stmt 1 view -0
 845              		.cfi_startproc
 846              		@ args = 0, pretend = 0, frame = 0
 847              		@ frame_needed = 0, uses_anonymous_args = 0
 848              		.loc 1 203 1 is_stmt 0 view .LVU233
 849 0000 08B5     		push	{r3, lr}
 850              	.LCFI4:
 851              		.cfi_def_cfa_offset 8
 852              		.cfi_offset 3, -8
 853              		.cfi_offset 14, -4
 204:Middlewares/LVGL/GUI/lvgl/src/extra/widgets/msgbox/lv_msgbox.c ****     lv_obj_t * btn = lv_event_get_target(e);
 854              		.loc 1 204 5 is_stmt 1 view .LVU234
 855              		.loc 1 204 22 is_stmt 0 view .LVU235
 856 0002 FFF7FEFF 		bl	lv_event_get_target
 857              	.LVL95:
 205:Middlewares/LVGL/GUI/lvgl/src/extra/widgets/msgbox/lv_msgbox.c ****     lv_obj_t * mbox = lv_obj_get_parent(btn);
 858              		.loc 1 205 5 is_stmt 1 view .LVU236
 859              		.loc 1 205 23 is_stmt 0 view .LVU237
 860 0006 FFF7FEFF 		bl	lv_obj_get_parent
 861              	.LVL96:
 206:Middlewares/LVGL/GUI/lvgl/src/extra/widgets/msgbox/lv_msgbox.c ****     lv_msgbox_close(mbox);
 862              		.loc 1 206 5 is_stmt 1 view .LVU238
 863 000a FFF7FEFF 		bl	lv_msgbox_close
 864              	.LVL97:
 207:Middlewares/LVGL/GUI/lvgl/src/extra/widgets/msgbox/lv_msgbox.c **** }
 865              		.loc 1 207 1 is_stmt 0 view .LVU239
 866 000e 08BD     		pop	{r3, pc}
 867              		.cfi_endproc
 868              	.LFE206:
 870              		.section	.text.lv_msgbox_close_async,"ax",%progbits
ARM GAS  C:\Users\ADMINI~1\AppData\Local\Temp\ccxvSaAM.s 			page 39


 871              		.align	1
 872              		.global	lv_msgbox_close_async
 873              		.syntax unified
 874              		.thumb
 875              		.thumb_func
 877              	lv_msgbox_close_async:
 878              	.LVL98:
 879              	.LFB205:
 193:Middlewares/LVGL/GUI/lvgl/src/extra/widgets/msgbox/lv_msgbox.c ****     if(lv_obj_has_flag(dialog, LV_MSGBOX_FLAG_AUTO_PARENT)) lv_obj_del_async(lv_obj_get_parent(dial
 880              		.loc 1 193 1 is_stmt 1 view -0
 881              		.cfi_startproc
 882              		@ args = 0, pretend = 0, frame = 0
 883              		@ frame_needed = 0, uses_anonymous_args = 0
 193:Middlewares/LVGL/GUI/lvgl/src/extra/widgets/msgbox/lv_msgbox.c ****     if(lv_obj_has_flag(dialog, LV_MSGBOX_FLAG_AUTO_PARENT)) lv_obj_del_async(lv_obj_get_parent(dial
 884              		.loc 1 193 1 is_stmt 0 view .LVU241
 885 0000 10B5     		push	{r4, lr}
 886              	.LCFI5:
 887              		.cfi_def_cfa_offset 8
 888              		.cfi_offset 4, -8
 889              		.cfi_offset 14, -4
 890 0002 0446     		mov	r4, r0
 194:Middlewares/LVGL/GUI/lvgl/src/extra/widgets/msgbox/lv_msgbox.c ****     else lv_obj_del_async(dialog);
 891              		.loc 1 194 5 is_stmt 1 view .LVU242
 194:Middlewares/LVGL/GUI/lvgl/src/extra/widgets/msgbox/lv_msgbox.c ****     else lv_obj_del_async(dialog);
 892              		.loc 1 194 8 is_stmt 0 view .LVU243
 893 0004 4FF00071 		mov	r1, #33554432
 894 0008 FFF7FEFF 		bl	lv_obj_has_flag
 895              	.LVL99:
 194:Middlewares/LVGL/GUI/lvgl/src/extra/widgets/msgbox/lv_msgbox.c ****     else lv_obj_del_async(dialog);
 896              		.loc 1 194 7 view .LVU244
 897 000c 28B1     		cbz	r0, .L55
 194:Middlewares/LVGL/GUI/lvgl/src/extra/widgets/msgbox/lv_msgbox.c ****     else lv_obj_del_async(dialog);
 898              		.loc 1 194 61 is_stmt 1 discriminator 1 view .LVU245
 899 000e 2046     		mov	r0, r4
 900 0010 FFF7FEFF 		bl	lv_obj_get_parent
 901              	.LVL100:
 902 0014 FFF7FEFF 		bl	lv_obj_del_async
 903              	.LVL101:
 904              	.L54:
 196:Middlewares/LVGL/GUI/lvgl/src/extra/widgets/msgbox/lv_msgbox.c **** 
 905              		.loc 1 196 1 is_stmt 0 view .LVU246
 906 0018 10BD     		pop	{r4, pc}
 907              	.LVL102:
 908              	.L55:
 195:Middlewares/LVGL/GUI/lvgl/src/extra/widgets/msgbox/lv_msgbox.c **** }
 909              		.loc 1 195 10 is_stmt 1 view .LVU247
 910 001a 2046     		mov	r0, r4
 911 001c FFF7FEFF 		bl	lv_obj_del_async
 912              	.LVL103:
 196:Middlewares/LVGL/GUI/lvgl/src/extra/widgets/msgbox/lv_msgbox.c **** 
 913              		.loc 1 196 1 is_stmt 0 view .LVU248
 914 0020 FAE7     		b	.L54
 915              		.cfi_endproc
 916              	.LFE205:
 918              		.global	lv_msgbox_backdrop_class
 919              		.global	lv_msgbox_content_class
 920              		.global	lv_msgbox_class
ARM GAS  C:\Users\ADMINI~1\AppData\Local\Temp\ccxvSaAM.s 			page 40


 921              		.section	.rodata.lv_msgbox_backdrop_class,"a"
 922              		.align	2
 923              		.set	.LANCHOR0,. + 0
 926              	lv_msgbox_backdrop_class:
 927 0000 00000000 		.word	lv_obj_class
 928 0004 00000000 		.space	16
 928      00000000 
 928      00000000 
 928      00000000 
 929 0014 64000020 		.word	536871012
 930 0018 64000020 		.word	536871012
 931 001c C0       		.byte	192
 932 001d 02       		.byte	2
 933 001e 00       		.byte	0
 934 001f 00       		.space	1
 935              		.section	.rodata.lv_msgbox_class,"a"
 936              		.align	2
 937              		.set	.LANCHOR1,. + 0
 940              	lv_msgbox_class:
 941 0000 00000000 		.word	lv_obj_class
 942 0004 00000000 		.space	16
 942      00000000 
 942      00000000 
 942      00000000 
 943 0014 04010000 		.word	260
 944 0018 D1070020 		.word	536872913
 945 001c 00       		.byte	0
 946 001d 04       		.byte	4
 947 001e 00       		.byte	0
 948 001f 00       		.space	1
 949              		.section	.rodata.lv_msgbox_content_class,"a"
 950              		.align	2
 951              		.set	.LANCHOR2,. + 0
 954              	lv_msgbox_content_class:
 955 0000 00000000 		.word	lv_obj_class
 956 0004 00000000 		.space	16
 956      00000000 
 956      00000000 
 956      00000000 
 957 0014 64000020 		.word	536871012
 958 0018 D1070020 		.word	536872913
 959 001c C0       		.byte	192
 960 001d 02       		.byte	2
 961 001e 00       		.byte	0
 962 001f 00       		.space	1
 963              		.text
 964              	.Letext0:
 965              		.file 6 "c:\\gnu arm embedded toolchain\\10 2021.10\\arm-none-eabi\\include\\machine\\_default_typ
 966              		.file 7 "c:\\gnu arm embedded toolchain\\10 2021.10\\arm-none-eabi\\include\\sys\\_stdint.h"
 967              		.file 8 "Middlewares/LVGL/GUI/lvgl/src/extra/widgets/msgbox/../../../../src/hal/../draw/../misc/lv
 968              		.file 9 "Middlewares/LVGL/GUI/lvgl/src/extra/widgets/msgbox/../../../../src/hal/../draw/../misc/lv
 969              		.file 10 "Middlewares/LVGL/GUI/lvgl/src/extra/widgets/msgbox/../../../../src/core/lv_obj.h"
 970              		.file 11 "Middlewares/LVGL/GUI/lvgl/src/extra/widgets/msgbox/../../../../src/hal/../misc/lv_ll.h"
 971              		.file 12 "Middlewares/LVGL/GUI/lvgl/src/extra/widgets/msgbox/../../../../src/core/lv_group.h"
 972              		.file 13 "Middlewares/LVGL/GUI/lvgl/src/extra/widgets/msgbox/../../../../src/core/lv_obj_scroll.h"
 973              		.file 14 "Middlewares/LVGL/GUI/lvgl/src/extra/widgets/msgbox/../../../../src/core/lv_obj_style.h"
 974              		.file 15 "Middlewares/LVGL/GUI/lvgl/src/extra/widgets/msgbox/../../../../src/core/lv_obj_class.h"
ARM GAS  C:\Users\ADMINI~1\AppData\Local\Temp\ccxvSaAM.s 			page 41


 975              		.file 16 "Middlewares/LVGL/GUI/lvgl/src/extra/widgets/msgbox/../../../../src/core/lv_event.h"
 976              		.file 17 "Middlewares/LVGL/GUI/lvgl/src/extra/widgets/msgbox/../../../../src/widgets/lv_label.h"
 977              		.file 18 "Middlewares/LVGL/GUI/lvgl/src/extra/widgets/msgbox/../../../../src/widgets/lv_bar.h"
 978              		.file 19 "Middlewares/LVGL/GUI/lvgl/src/extra/widgets/msgbox/../../../../src/widgets/lv_btnmatrix.
 979              		.file 20 "Middlewares/LVGL/GUI/lvgl/src/extra/widgets/msgbox/../../../../src/extra/widgets/list/..
 980              		.file 21 "Middlewares/LVGL/GUI/lvgl/src/extra/widgets/msgbox/../../../../src/extra/widgets/imgbtn/
 981              		.file 22 "Middlewares/LVGL/GUI/lvgl/src/extra/widgets/msgbox/lv_msgbox.h"
 982              		.file 23 "Middlewares/LVGL/GUI/lvgl/src/extra/widgets/msgbox/../../../../src/core/lv_obj_tree.h"
 983              		.file 24 "Middlewares/LVGL/GUI/lvgl/src/extra/widgets/msgbox/../../../../src/widgets/lv_btn.h"
 984              		.file 25 "Middlewares/LVGL/GUI/lvgl/src/extra/widgets/msgbox/../../../../src/hal/lv_hal_disp.h"
 985              		.file 26 "Middlewares/LVGL/GUI/lvgl/src/extra/widgets/msgbox/../../../../src/hal/../draw/sw/../../
ARM GAS  C:\Users\ADMINI~1\AppData\Local\Temp\ccxvSaAM.s 			page 42

