ARM GAS  C:\Users\ADMINI~1\AppData\Local\Temp\ccVbA5cL.s 			page 1


   1              		.cpu cortex-m4
   2              		.arch armv7e-m
   3              		.fpu fpv4-sp-d16
   4              		.eabi_attribute 27, 1
   5              		.eabi_attribute 28, 1
   6              		.eabi_attribute 20, 1
   7              		.eabi_attribute 21, 1
   8              		.eabi_attribute 23, 3
   9              		.eabi_attribute 24, 1
  10              		.eabi_attribute 25, 1
  11              		.eabi_attribute 26, 1
  12              		.eabi_attribute 30, 1
  13              		.eabi_attribute 34, 1
  14              		.eabi_attribute 18, 4
  15              		.file	"lv_meter.c"
  16              		.text
  17              	.Ltext0:
  18              		.cfi_sections	.debug_frame
  19              		.section	.text.draw_arcs,"ax",%progbits
  20              		.align	1
  21              		.syntax unified
  22              		.thumb
  23              		.thumb_func
  25              	draw_arcs:
  26              	.LVL0:
  27              	.LFB211:
  28              		.file 1 "Middlewares/LVGL/GUI/lvgl/src/extra/widgets/meter/lv_meter.c"
   1:Middlewares/LVGL/GUI/lvgl/src/extra/widgets/meter/lv_meter.c **** /**
   2:Middlewares/LVGL/GUI/lvgl/src/extra/widgets/meter/lv_meter.c ****  * @file lv_meter.c
   3:Middlewares/LVGL/GUI/lvgl/src/extra/widgets/meter/lv_meter.c ****  *
   4:Middlewares/LVGL/GUI/lvgl/src/extra/widgets/meter/lv_meter.c ****  */
   5:Middlewares/LVGL/GUI/lvgl/src/extra/widgets/meter/lv_meter.c **** 
   6:Middlewares/LVGL/GUI/lvgl/src/extra/widgets/meter/lv_meter.c **** /*********************
   7:Middlewares/LVGL/GUI/lvgl/src/extra/widgets/meter/lv_meter.c ****  *      INCLUDES
   8:Middlewares/LVGL/GUI/lvgl/src/extra/widgets/meter/lv_meter.c ****  *********************/
   9:Middlewares/LVGL/GUI/lvgl/src/extra/widgets/meter/lv_meter.c **** #include "lv_meter.h"
  10:Middlewares/LVGL/GUI/lvgl/src/extra/widgets/meter/lv_meter.c **** #if LV_USE_METER != 0
  11:Middlewares/LVGL/GUI/lvgl/src/extra/widgets/meter/lv_meter.c **** 
  12:Middlewares/LVGL/GUI/lvgl/src/extra/widgets/meter/lv_meter.c **** #include "../../../misc/lv_assert.h"
  13:Middlewares/LVGL/GUI/lvgl/src/extra/widgets/meter/lv_meter.c **** 
  14:Middlewares/LVGL/GUI/lvgl/src/extra/widgets/meter/lv_meter.c **** /*********************
  15:Middlewares/LVGL/GUI/lvgl/src/extra/widgets/meter/lv_meter.c ****  *      DEFINES
  16:Middlewares/LVGL/GUI/lvgl/src/extra/widgets/meter/lv_meter.c ****  *********************/
  17:Middlewares/LVGL/GUI/lvgl/src/extra/widgets/meter/lv_meter.c **** #define MY_CLASS &lv_meter_class
  18:Middlewares/LVGL/GUI/lvgl/src/extra/widgets/meter/lv_meter.c **** 
  19:Middlewares/LVGL/GUI/lvgl/src/extra/widgets/meter/lv_meter.c **** /**********************
  20:Middlewares/LVGL/GUI/lvgl/src/extra/widgets/meter/lv_meter.c ****  *      TYPEDEFS
  21:Middlewares/LVGL/GUI/lvgl/src/extra/widgets/meter/lv_meter.c ****  **********************/
  22:Middlewares/LVGL/GUI/lvgl/src/extra/widgets/meter/lv_meter.c **** 
  23:Middlewares/LVGL/GUI/lvgl/src/extra/widgets/meter/lv_meter.c **** /**********************
  24:Middlewares/LVGL/GUI/lvgl/src/extra/widgets/meter/lv_meter.c ****  *  STATIC PROTOTYPES
  25:Middlewares/LVGL/GUI/lvgl/src/extra/widgets/meter/lv_meter.c ****  **********************/
  26:Middlewares/LVGL/GUI/lvgl/src/extra/widgets/meter/lv_meter.c **** static void lv_meter_constructor(const lv_obj_class_t * class_p, lv_obj_t * obj);
  27:Middlewares/LVGL/GUI/lvgl/src/extra/widgets/meter/lv_meter.c **** static void lv_meter_destructor(const lv_obj_class_t * class_p, lv_obj_t * obj);
  28:Middlewares/LVGL/GUI/lvgl/src/extra/widgets/meter/lv_meter.c **** static void lv_meter_event(const lv_obj_class_t * class_p, lv_event_t * e);
  29:Middlewares/LVGL/GUI/lvgl/src/extra/widgets/meter/lv_meter.c **** static void draw_arcs(lv_obj_t * obj, lv_draw_ctx_t * draw_ctx, const lv_area_t * scale_area);
  30:Middlewares/LVGL/GUI/lvgl/src/extra/widgets/meter/lv_meter.c **** static void draw_ticks_and_labels(lv_obj_t * obj, lv_draw_ctx_t * draw_ctx, const lv_area_t * scale
ARM GAS  C:\Users\ADMINI~1\AppData\Local\Temp\ccVbA5cL.s 			page 2


  31:Middlewares/LVGL/GUI/lvgl/src/extra/widgets/meter/lv_meter.c **** static void draw_needles(lv_obj_t * obj, lv_draw_ctx_t * draw_ctx, const lv_area_t * scale_area);
  32:Middlewares/LVGL/GUI/lvgl/src/extra/widgets/meter/lv_meter.c **** static void inv_arc(lv_obj_t * obj, lv_meter_indicator_t * indic, int32_t old_value, int32_t new_va
  33:Middlewares/LVGL/GUI/lvgl/src/extra/widgets/meter/lv_meter.c **** static void inv_line(lv_obj_t * obj, lv_meter_indicator_t * indic, int32_t value);
  34:Middlewares/LVGL/GUI/lvgl/src/extra/widgets/meter/lv_meter.c **** 
  35:Middlewares/LVGL/GUI/lvgl/src/extra/widgets/meter/lv_meter.c **** /**********************
  36:Middlewares/LVGL/GUI/lvgl/src/extra/widgets/meter/lv_meter.c ****  *  STATIC VARIABLES
  37:Middlewares/LVGL/GUI/lvgl/src/extra/widgets/meter/lv_meter.c ****  **********************/
  38:Middlewares/LVGL/GUI/lvgl/src/extra/widgets/meter/lv_meter.c **** const lv_obj_class_t lv_meter_class = {
  39:Middlewares/LVGL/GUI/lvgl/src/extra/widgets/meter/lv_meter.c ****     .constructor_cb = lv_meter_constructor,
  40:Middlewares/LVGL/GUI/lvgl/src/extra/widgets/meter/lv_meter.c ****     .destructor_cb = lv_meter_destructor,
  41:Middlewares/LVGL/GUI/lvgl/src/extra/widgets/meter/lv_meter.c ****     .event_cb = lv_meter_event,
  42:Middlewares/LVGL/GUI/lvgl/src/extra/widgets/meter/lv_meter.c ****     .instance_size = sizeof(lv_meter_t),
  43:Middlewares/LVGL/GUI/lvgl/src/extra/widgets/meter/lv_meter.c ****     .base_class = &lv_obj_class
  44:Middlewares/LVGL/GUI/lvgl/src/extra/widgets/meter/lv_meter.c **** };
  45:Middlewares/LVGL/GUI/lvgl/src/extra/widgets/meter/lv_meter.c **** 
  46:Middlewares/LVGL/GUI/lvgl/src/extra/widgets/meter/lv_meter.c **** /**********************
  47:Middlewares/LVGL/GUI/lvgl/src/extra/widgets/meter/lv_meter.c ****  *      MACROS
  48:Middlewares/LVGL/GUI/lvgl/src/extra/widgets/meter/lv_meter.c ****  **********************/
  49:Middlewares/LVGL/GUI/lvgl/src/extra/widgets/meter/lv_meter.c **** 
  50:Middlewares/LVGL/GUI/lvgl/src/extra/widgets/meter/lv_meter.c **** /**********************
  51:Middlewares/LVGL/GUI/lvgl/src/extra/widgets/meter/lv_meter.c ****  *   GLOBAL FUNCTIONS
  52:Middlewares/LVGL/GUI/lvgl/src/extra/widgets/meter/lv_meter.c ****  **********************/
  53:Middlewares/LVGL/GUI/lvgl/src/extra/widgets/meter/lv_meter.c **** 
  54:Middlewares/LVGL/GUI/lvgl/src/extra/widgets/meter/lv_meter.c **** lv_obj_t * lv_meter_create(lv_obj_t * parent)
  55:Middlewares/LVGL/GUI/lvgl/src/extra/widgets/meter/lv_meter.c **** {
  56:Middlewares/LVGL/GUI/lvgl/src/extra/widgets/meter/lv_meter.c ****     LV_LOG_INFO("begin");
  57:Middlewares/LVGL/GUI/lvgl/src/extra/widgets/meter/lv_meter.c ****     lv_obj_t * obj = lv_obj_class_create_obj(MY_CLASS, parent);
  58:Middlewares/LVGL/GUI/lvgl/src/extra/widgets/meter/lv_meter.c ****     lv_obj_class_init_obj(obj);
  59:Middlewares/LVGL/GUI/lvgl/src/extra/widgets/meter/lv_meter.c ****     return obj;
  60:Middlewares/LVGL/GUI/lvgl/src/extra/widgets/meter/lv_meter.c **** }
  61:Middlewares/LVGL/GUI/lvgl/src/extra/widgets/meter/lv_meter.c **** 
  62:Middlewares/LVGL/GUI/lvgl/src/extra/widgets/meter/lv_meter.c **** /*=====================
  63:Middlewares/LVGL/GUI/lvgl/src/extra/widgets/meter/lv_meter.c ****  * Add scale
  64:Middlewares/LVGL/GUI/lvgl/src/extra/widgets/meter/lv_meter.c ****  *====================*/
  65:Middlewares/LVGL/GUI/lvgl/src/extra/widgets/meter/lv_meter.c **** 
  66:Middlewares/LVGL/GUI/lvgl/src/extra/widgets/meter/lv_meter.c **** lv_meter_scale_t * lv_meter_add_scale(lv_obj_t * obj)
  67:Middlewares/LVGL/GUI/lvgl/src/extra/widgets/meter/lv_meter.c **** {
  68:Middlewares/LVGL/GUI/lvgl/src/extra/widgets/meter/lv_meter.c ****     LV_ASSERT_OBJ(obj, MY_CLASS);
  69:Middlewares/LVGL/GUI/lvgl/src/extra/widgets/meter/lv_meter.c ****     lv_meter_t * meter = (lv_meter_t *)obj;
  70:Middlewares/LVGL/GUI/lvgl/src/extra/widgets/meter/lv_meter.c **** 
  71:Middlewares/LVGL/GUI/lvgl/src/extra/widgets/meter/lv_meter.c ****     lv_meter_scale_t * scale = _lv_ll_ins_head(&meter->scale_ll);
  72:Middlewares/LVGL/GUI/lvgl/src/extra/widgets/meter/lv_meter.c ****     LV_ASSERT_MALLOC(scale);
  73:Middlewares/LVGL/GUI/lvgl/src/extra/widgets/meter/lv_meter.c ****     lv_memset_00(scale, sizeof(lv_meter_scale_t));
  74:Middlewares/LVGL/GUI/lvgl/src/extra/widgets/meter/lv_meter.c **** 
  75:Middlewares/LVGL/GUI/lvgl/src/extra/widgets/meter/lv_meter.c ****     scale->angle_range = 270;
  76:Middlewares/LVGL/GUI/lvgl/src/extra/widgets/meter/lv_meter.c ****     scale->rotation = 90 + (360 - scale->angle_range) / 2;
  77:Middlewares/LVGL/GUI/lvgl/src/extra/widgets/meter/lv_meter.c ****     scale->min = 0;
  78:Middlewares/LVGL/GUI/lvgl/src/extra/widgets/meter/lv_meter.c ****     scale->max = 100;
  79:Middlewares/LVGL/GUI/lvgl/src/extra/widgets/meter/lv_meter.c ****     scale->tick_cnt = 6;
  80:Middlewares/LVGL/GUI/lvgl/src/extra/widgets/meter/lv_meter.c ****     scale->tick_length = 8;
  81:Middlewares/LVGL/GUI/lvgl/src/extra/widgets/meter/lv_meter.c ****     scale->tick_width = 2;
  82:Middlewares/LVGL/GUI/lvgl/src/extra/widgets/meter/lv_meter.c ****     scale->label_gap = 2;
  83:Middlewares/LVGL/GUI/lvgl/src/extra/widgets/meter/lv_meter.c **** 
  84:Middlewares/LVGL/GUI/lvgl/src/extra/widgets/meter/lv_meter.c ****     return scale;
  85:Middlewares/LVGL/GUI/lvgl/src/extra/widgets/meter/lv_meter.c **** }
  86:Middlewares/LVGL/GUI/lvgl/src/extra/widgets/meter/lv_meter.c **** 
  87:Middlewares/LVGL/GUI/lvgl/src/extra/widgets/meter/lv_meter.c **** void lv_meter_set_scale_ticks(lv_obj_t * obj, lv_meter_scale_t * scale, uint16_t cnt, uint16_t widt
ARM GAS  C:\Users\ADMINI~1\AppData\Local\Temp\ccVbA5cL.s 			page 3


  88:Middlewares/LVGL/GUI/lvgl/src/extra/widgets/meter/lv_meter.c ****                               lv_color_t color)
  89:Middlewares/LVGL/GUI/lvgl/src/extra/widgets/meter/lv_meter.c **** {
  90:Middlewares/LVGL/GUI/lvgl/src/extra/widgets/meter/lv_meter.c ****     scale->tick_cnt = cnt;
  91:Middlewares/LVGL/GUI/lvgl/src/extra/widgets/meter/lv_meter.c ****     scale->tick_width = width;
  92:Middlewares/LVGL/GUI/lvgl/src/extra/widgets/meter/lv_meter.c ****     scale->tick_length = len;
  93:Middlewares/LVGL/GUI/lvgl/src/extra/widgets/meter/lv_meter.c ****     scale->tick_color = color;
  94:Middlewares/LVGL/GUI/lvgl/src/extra/widgets/meter/lv_meter.c ****     lv_obj_invalidate(obj);
  95:Middlewares/LVGL/GUI/lvgl/src/extra/widgets/meter/lv_meter.c **** }
  96:Middlewares/LVGL/GUI/lvgl/src/extra/widgets/meter/lv_meter.c **** 
  97:Middlewares/LVGL/GUI/lvgl/src/extra/widgets/meter/lv_meter.c **** void lv_meter_set_scale_major_ticks(lv_obj_t * obj, lv_meter_scale_t * scale, uint16_t nth, uint16_
  98:Middlewares/LVGL/GUI/lvgl/src/extra/widgets/meter/lv_meter.c ****                                     uint16_t len, lv_color_t color, int16_t label_gap)
  99:Middlewares/LVGL/GUI/lvgl/src/extra/widgets/meter/lv_meter.c **** {
 100:Middlewares/LVGL/GUI/lvgl/src/extra/widgets/meter/lv_meter.c ****     scale->tick_major_nth = nth;
 101:Middlewares/LVGL/GUI/lvgl/src/extra/widgets/meter/lv_meter.c ****     scale->tick_major_width = width;
 102:Middlewares/LVGL/GUI/lvgl/src/extra/widgets/meter/lv_meter.c ****     scale->tick_major_length = len;
 103:Middlewares/LVGL/GUI/lvgl/src/extra/widgets/meter/lv_meter.c ****     scale->tick_major_color = color;
 104:Middlewares/LVGL/GUI/lvgl/src/extra/widgets/meter/lv_meter.c ****     scale->label_gap = label_gap;
 105:Middlewares/LVGL/GUI/lvgl/src/extra/widgets/meter/lv_meter.c ****     lv_obj_invalidate(obj);
 106:Middlewares/LVGL/GUI/lvgl/src/extra/widgets/meter/lv_meter.c **** }
 107:Middlewares/LVGL/GUI/lvgl/src/extra/widgets/meter/lv_meter.c **** 
 108:Middlewares/LVGL/GUI/lvgl/src/extra/widgets/meter/lv_meter.c **** void lv_meter_set_scale_range(lv_obj_t * obj, lv_meter_scale_t * scale, int32_t min, int32_t max, u
 109:Middlewares/LVGL/GUI/lvgl/src/extra/widgets/meter/lv_meter.c ****                               uint32_t rotation)
 110:Middlewares/LVGL/GUI/lvgl/src/extra/widgets/meter/lv_meter.c **** {
 111:Middlewares/LVGL/GUI/lvgl/src/extra/widgets/meter/lv_meter.c ****     scale->min = min;
 112:Middlewares/LVGL/GUI/lvgl/src/extra/widgets/meter/lv_meter.c ****     scale->max = max;
 113:Middlewares/LVGL/GUI/lvgl/src/extra/widgets/meter/lv_meter.c ****     scale->angle_range = angle_range;
 114:Middlewares/LVGL/GUI/lvgl/src/extra/widgets/meter/lv_meter.c ****     scale->rotation = rotation;
 115:Middlewares/LVGL/GUI/lvgl/src/extra/widgets/meter/lv_meter.c ****     lv_obj_invalidate(obj);
 116:Middlewares/LVGL/GUI/lvgl/src/extra/widgets/meter/lv_meter.c **** }
 117:Middlewares/LVGL/GUI/lvgl/src/extra/widgets/meter/lv_meter.c **** 
 118:Middlewares/LVGL/GUI/lvgl/src/extra/widgets/meter/lv_meter.c **** /*=====================
 119:Middlewares/LVGL/GUI/lvgl/src/extra/widgets/meter/lv_meter.c ****  * Add indicator
 120:Middlewares/LVGL/GUI/lvgl/src/extra/widgets/meter/lv_meter.c ****  *====================*/
 121:Middlewares/LVGL/GUI/lvgl/src/extra/widgets/meter/lv_meter.c **** 
 122:Middlewares/LVGL/GUI/lvgl/src/extra/widgets/meter/lv_meter.c **** lv_meter_indicator_t * lv_meter_add_needle_line(lv_obj_t * obj, lv_meter_scale_t * scale, uint16_t 
 123:Middlewares/LVGL/GUI/lvgl/src/extra/widgets/meter/lv_meter.c ****                                                 lv_color_t color, int16_t r_mod)
 124:Middlewares/LVGL/GUI/lvgl/src/extra/widgets/meter/lv_meter.c **** {
 125:Middlewares/LVGL/GUI/lvgl/src/extra/widgets/meter/lv_meter.c ****     LV_ASSERT_OBJ(obj, MY_CLASS);
 126:Middlewares/LVGL/GUI/lvgl/src/extra/widgets/meter/lv_meter.c ****     lv_meter_t * meter = (lv_meter_t *)obj;
 127:Middlewares/LVGL/GUI/lvgl/src/extra/widgets/meter/lv_meter.c ****     lv_meter_indicator_t * indic = _lv_ll_ins_head(&meter->indicator_ll);
 128:Middlewares/LVGL/GUI/lvgl/src/extra/widgets/meter/lv_meter.c ****     LV_ASSERT_MALLOC(indic);
 129:Middlewares/LVGL/GUI/lvgl/src/extra/widgets/meter/lv_meter.c ****     lv_memset_00(indic, sizeof(lv_meter_indicator_t));
 130:Middlewares/LVGL/GUI/lvgl/src/extra/widgets/meter/lv_meter.c ****     indic->scale = scale;
 131:Middlewares/LVGL/GUI/lvgl/src/extra/widgets/meter/lv_meter.c ****     indic->opa = LV_OPA_COVER;
 132:Middlewares/LVGL/GUI/lvgl/src/extra/widgets/meter/lv_meter.c **** 
 133:Middlewares/LVGL/GUI/lvgl/src/extra/widgets/meter/lv_meter.c ****     indic->type = LV_METER_INDICATOR_TYPE_NEEDLE_LINE;
 134:Middlewares/LVGL/GUI/lvgl/src/extra/widgets/meter/lv_meter.c ****     indic->type_data.needle_line.width = width;
 135:Middlewares/LVGL/GUI/lvgl/src/extra/widgets/meter/lv_meter.c ****     indic->type_data.needle_line.color = color;
 136:Middlewares/LVGL/GUI/lvgl/src/extra/widgets/meter/lv_meter.c ****     indic->type_data.needle_line.r_mod = r_mod;
 137:Middlewares/LVGL/GUI/lvgl/src/extra/widgets/meter/lv_meter.c ****     lv_obj_invalidate(obj);
 138:Middlewares/LVGL/GUI/lvgl/src/extra/widgets/meter/lv_meter.c **** 
 139:Middlewares/LVGL/GUI/lvgl/src/extra/widgets/meter/lv_meter.c ****     return indic;
 140:Middlewares/LVGL/GUI/lvgl/src/extra/widgets/meter/lv_meter.c **** }
 141:Middlewares/LVGL/GUI/lvgl/src/extra/widgets/meter/lv_meter.c **** 
 142:Middlewares/LVGL/GUI/lvgl/src/extra/widgets/meter/lv_meter.c **** lv_meter_indicator_t * lv_meter_add_needle_img(lv_obj_t * obj, lv_meter_scale_t * scale, const void
 143:Middlewares/LVGL/GUI/lvgl/src/extra/widgets/meter/lv_meter.c ****                                                lv_coord_t pivot_x, lv_coord_t pivot_y)
 144:Middlewares/LVGL/GUI/lvgl/src/extra/widgets/meter/lv_meter.c **** {
ARM GAS  C:\Users\ADMINI~1\AppData\Local\Temp\ccVbA5cL.s 			page 4


 145:Middlewares/LVGL/GUI/lvgl/src/extra/widgets/meter/lv_meter.c ****     LV_ASSERT_OBJ(obj, MY_CLASS);
 146:Middlewares/LVGL/GUI/lvgl/src/extra/widgets/meter/lv_meter.c ****     lv_meter_t * meter = (lv_meter_t *)obj;
 147:Middlewares/LVGL/GUI/lvgl/src/extra/widgets/meter/lv_meter.c ****     lv_meter_indicator_t * indic = _lv_ll_ins_head(&meter->indicator_ll);
 148:Middlewares/LVGL/GUI/lvgl/src/extra/widgets/meter/lv_meter.c ****     LV_ASSERT_MALLOC(indic);
 149:Middlewares/LVGL/GUI/lvgl/src/extra/widgets/meter/lv_meter.c ****     lv_memset_00(indic, sizeof(lv_meter_indicator_t));
 150:Middlewares/LVGL/GUI/lvgl/src/extra/widgets/meter/lv_meter.c ****     indic->scale = scale;
 151:Middlewares/LVGL/GUI/lvgl/src/extra/widgets/meter/lv_meter.c ****     indic->opa = LV_OPA_COVER;
 152:Middlewares/LVGL/GUI/lvgl/src/extra/widgets/meter/lv_meter.c **** 
 153:Middlewares/LVGL/GUI/lvgl/src/extra/widgets/meter/lv_meter.c ****     indic->type = LV_METER_INDICATOR_TYPE_NEEDLE_IMG;
 154:Middlewares/LVGL/GUI/lvgl/src/extra/widgets/meter/lv_meter.c ****     indic->type_data.needle_img.src = src;
 155:Middlewares/LVGL/GUI/lvgl/src/extra/widgets/meter/lv_meter.c ****     indic->type_data.needle_img.pivot.x = pivot_x;
 156:Middlewares/LVGL/GUI/lvgl/src/extra/widgets/meter/lv_meter.c ****     indic->type_data.needle_img.pivot.y = pivot_y;
 157:Middlewares/LVGL/GUI/lvgl/src/extra/widgets/meter/lv_meter.c ****     lv_obj_invalidate(obj);
 158:Middlewares/LVGL/GUI/lvgl/src/extra/widgets/meter/lv_meter.c **** 
 159:Middlewares/LVGL/GUI/lvgl/src/extra/widgets/meter/lv_meter.c ****     return indic;
 160:Middlewares/LVGL/GUI/lvgl/src/extra/widgets/meter/lv_meter.c **** }
 161:Middlewares/LVGL/GUI/lvgl/src/extra/widgets/meter/lv_meter.c **** 
 162:Middlewares/LVGL/GUI/lvgl/src/extra/widgets/meter/lv_meter.c **** lv_meter_indicator_t * lv_meter_add_arc(lv_obj_t * obj, lv_meter_scale_t * scale, uint16_t width, l
 163:Middlewares/LVGL/GUI/lvgl/src/extra/widgets/meter/lv_meter.c ****                                         int16_t r_mod)
 164:Middlewares/LVGL/GUI/lvgl/src/extra/widgets/meter/lv_meter.c **** {
 165:Middlewares/LVGL/GUI/lvgl/src/extra/widgets/meter/lv_meter.c ****     LV_ASSERT_OBJ(obj, MY_CLASS);
 166:Middlewares/LVGL/GUI/lvgl/src/extra/widgets/meter/lv_meter.c ****     lv_meter_t * meter = (lv_meter_t *)obj;
 167:Middlewares/LVGL/GUI/lvgl/src/extra/widgets/meter/lv_meter.c ****     lv_meter_indicator_t * indic = _lv_ll_ins_head(&meter->indicator_ll);
 168:Middlewares/LVGL/GUI/lvgl/src/extra/widgets/meter/lv_meter.c ****     LV_ASSERT_MALLOC(indic);
 169:Middlewares/LVGL/GUI/lvgl/src/extra/widgets/meter/lv_meter.c ****     lv_memset_00(indic, sizeof(lv_meter_indicator_t));
 170:Middlewares/LVGL/GUI/lvgl/src/extra/widgets/meter/lv_meter.c ****     indic->scale = scale;
 171:Middlewares/LVGL/GUI/lvgl/src/extra/widgets/meter/lv_meter.c ****     indic->opa = LV_OPA_COVER;
 172:Middlewares/LVGL/GUI/lvgl/src/extra/widgets/meter/lv_meter.c **** 
 173:Middlewares/LVGL/GUI/lvgl/src/extra/widgets/meter/lv_meter.c ****     indic->type = LV_METER_INDICATOR_TYPE_ARC;
 174:Middlewares/LVGL/GUI/lvgl/src/extra/widgets/meter/lv_meter.c ****     indic->type_data.arc.width = width;
 175:Middlewares/LVGL/GUI/lvgl/src/extra/widgets/meter/lv_meter.c ****     indic->type_data.arc.color = color;
 176:Middlewares/LVGL/GUI/lvgl/src/extra/widgets/meter/lv_meter.c ****     indic->type_data.arc.r_mod = r_mod;
 177:Middlewares/LVGL/GUI/lvgl/src/extra/widgets/meter/lv_meter.c **** 
 178:Middlewares/LVGL/GUI/lvgl/src/extra/widgets/meter/lv_meter.c ****     lv_obj_invalidate(obj);
 179:Middlewares/LVGL/GUI/lvgl/src/extra/widgets/meter/lv_meter.c ****     return indic;
 180:Middlewares/LVGL/GUI/lvgl/src/extra/widgets/meter/lv_meter.c **** }
 181:Middlewares/LVGL/GUI/lvgl/src/extra/widgets/meter/lv_meter.c **** 
 182:Middlewares/LVGL/GUI/lvgl/src/extra/widgets/meter/lv_meter.c **** lv_meter_indicator_t * lv_meter_add_scale_lines(lv_obj_t * obj, lv_meter_scale_t * scale, lv_color_
 183:Middlewares/LVGL/GUI/lvgl/src/extra/widgets/meter/lv_meter.c ****                                                 lv_color_t color_end, bool local, int16_t width_mod
 184:Middlewares/LVGL/GUI/lvgl/src/extra/widgets/meter/lv_meter.c **** {
 185:Middlewares/LVGL/GUI/lvgl/src/extra/widgets/meter/lv_meter.c ****     LV_ASSERT_OBJ(obj, MY_CLASS);
 186:Middlewares/LVGL/GUI/lvgl/src/extra/widgets/meter/lv_meter.c ****     lv_meter_t * meter = (lv_meter_t *)obj;
 187:Middlewares/LVGL/GUI/lvgl/src/extra/widgets/meter/lv_meter.c ****     lv_meter_indicator_t * indic = _lv_ll_ins_head(&meter->indicator_ll);
 188:Middlewares/LVGL/GUI/lvgl/src/extra/widgets/meter/lv_meter.c ****     LV_ASSERT_MALLOC(indic);
 189:Middlewares/LVGL/GUI/lvgl/src/extra/widgets/meter/lv_meter.c ****     lv_memset_00(indic, sizeof(lv_meter_indicator_t));
 190:Middlewares/LVGL/GUI/lvgl/src/extra/widgets/meter/lv_meter.c ****     indic->scale = scale;
 191:Middlewares/LVGL/GUI/lvgl/src/extra/widgets/meter/lv_meter.c ****     indic->opa = LV_OPA_COVER;
 192:Middlewares/LVGL/GUI/lvgl/src/extra/widgets/meter/lv_meter.c **** 
 193:Middlewares/LVGL/GUI/lvgl/src/extra/widgets/meter/lv_meter.c ****     indic->type = LV_METER_INDICATOR_TYPE_SCALE_LINES;
 194:Middlewares/LVGL/GUI/lvgl/src/extra/widgets/meter/lv_meter.c ****     indic->type_data.scale_lines.color_start = color_start;
 195:Middlewares/LVGL/GUI/lvgl/src/extra/widgets/meter/lv_meter.c ****     indic->type_data.scale_lines.color_end = color_end;
 196:Middlewares/LVGL/GUI/lvgl/src/extra/widgets/meter/lv_meter.c ****     indic->type_data.scale_lines.local_grad = local;
 197:Middlewares/LVGL/GUI/lvgl/src/extra/widgets/meter/lv_meter.c ****     indic->type_data.scale_lines.width_mod = width_mod;
 198:Middlewares/LVGL/GUI/lvgl/src/extra/widgets/meter/lv_meter.c **** 
 199:Middlewares/LVGL/GUI/lvgl/src/extra/widgets/meter/lv_meter.c ****     lv_obj_invalidate(obj);
 200:Middlewares/LVGL/GUI/lvgl/src/extra/widgets/meter/lv_meter.c ****     return indic;
 201:Middlewares/LVGL/GUI/lvgl/src/extra/widgets/meter/lv_meter.c **** }
ARM GAS  C:\Users\ADMINI~1\AppData\Local\Temp\ccVbA5cL.s 			page 5


 202:Middlewares/LVGL/GUI/lvgl/src/extra/widgets/meter/lv_meter.c **** 
 203:Middlewares/LVGL/GUI/lvgl/src/extra/widgets/meter/lv_meter.c **** /*=====================
 204:Middlewares/LVGL/GUI/lvgl/src/extra/widgets/meter/lv_meter.c ****  * Set indicator value
 205:Middlewares/LVGL/GUI/lvgl/src/extra/widgets/meter/lv_meter.c ****  *====================*/
 206:Middlewares/LVGL/GUI/lvgl/src/extra/widgets/meter/lv_meter.c **** 
 207:Middlewares/LVGL/GUI/lvgl/src/extra/widgets/meter/lv_meter.c **** void lv_meter_set_indicator_value(lv_obj_t * obj, lv_meter_indicator_t * indic, int32_t value)
 208:Middlewares/LVGL/GUI/lvgl/src/extra/widgets/meter/lv_meter.c **** {
 209:Middlewares/LVGL/GUI/lvgl/src/extra/widgets/meter/lv_meter.c ****     int32_t old_start = indic->start_value;
 210:Middlewares/LVGL/GUI/lvgl/src/extra/widgets/meter/lv_meter.c ****     int32_t old_end = indic->end_value;
 211:Middlewares/LVGL/GUI/lvgl/src/extra/widgets/meter/lv_meter.c ****     indic->start_value = value;
 212:Middlewares/LVGL/GUI/lvgl/src/extra/widgets/meter/lv_meter.c ****     indic->end_value = value;
 213:Middlewares/LVGL/GUI/lvgl/src/extra/widgets/meter/lv_meter.c **** 
 214:Middlewares/LVGL/GUI/lvgl/src/extra/widgets/meter/lv_meter.c ****     if(indic->type == LV_METER_INDICATOR_TYPE_ARC) {
 215:Middlewares/LVGL/GUI/lvgl/src/extra/widgets/meter/lv_meter.c ****         inv_arc(obj, indic, old_start, value);
 216:Middlewares/LVGL/GUI/lvgl/src/extra/widgets/meter/lv_meter.c ****         inv_arc(obj, indic, old_end, value);
 217:Middlewares/LVGL/GUI/lvgl/src/extra/widgets/meter/lv_meter.c ****     }
 218:Middlewares/LVGL/GUI/lvgl/src/extra/widgets/meter/lv_meter.c ****     else if(indic->type == LV_METER_INDICATOR_TYPE_NEEDLE_IMG || indic->type == LV_METER_INDICATOR_
 219:Middlewares/LVGL/GUI/lvgl/src/extra/widgets/meter/lv_meter.c ****         inv_line(obj, indic, old_start);
 220:Middlewares/LVGL/GUI/lvgl/src/extra/widgets/meter/lv_meter.c ****         inv_line(obj, indic, old_end);
 221:Middlewares/LVGL/GUI/lvgl/src/extra/widgets/meter/lv_meter.c ****         inv_line(obj, indic, value);
 222:Middlewares/LVGL/GUI/lvgl/src/extra/widgets/meter/lv_meter.c ****     }
 223:Middlewares/LVGL/GUI/lvgl/src/extra/widgets/meter/lv_meter.c ****     else {
 224:Middlewares/LVGL/GUI/lvgl/src/extra/widgets/meter/lv_meter.c ****         lv_obj_invalidate(obj);
 225:Middlewares/LVGL/GUI/lvgl/src/extra/widgets/meter/lv_meter.c ****     }
 226:Middlewares/LVGL/GUI/lvgl/src/extra/widgets/meter/lv_meter.c **** }
 227:Middlewares/LVGL/GUI/lvgl/src/extra/widgets/meter/lv_meter.c **** 
 228:Middlewares/LVGL/GUI/lvgl/src/extra/widgets/meter/lv_meter.c **** void lv_meter_set_indicator_start_value(lv_obj_t * obj, lv_meter_indicator_t * indic, int32_t value
 229:Middlewares/LVGL/GUI/lvgl/src/extra/widgets/meter/lv_meter.c **** {
 230:Middlewares/LVGL/GUI/lvgl/src/extra/widgets/meter/lv_meter.c ****     int32_t old_value = indic->start_value;
 231:Middlewares/LVGL/GUI/lvgl/src/extra/widgets/meter/lv_meter.c ****     indic->start_value = value;
 232:Middlewares/LVGL/GUI/lvgl/src/extra/widgets/meter/lv_meter.c **** 
 233:Middlewares/LVGL/GUI/lvgl/src/extra/widgets/meter/lv_meter.c ****     if(indic->type == LV_METER_INDICATOR_TYPE_ARC) {
 234:Middlewares/LVGL/GUI/lvgl/src/extra/widgets/meter/lv_meter.c ****         inv_arc(obj, indic, old_value, value);
 235:Middlewares/LVGL/GUI/lvgl/src/extra/widgets/meter/lv_meter.c ****     }
 236:Middlewares/LVGL/GUI/lvgl/src/extra/widgets/meter/lv_meter.c ****     else if(indic->type == LV_METER_INDICATOR_TYPE_NEEDLE_IMG || indic->type == LV_METER_INDICATOR_
 237:Middlewares/LVGL/GUI/lvgl/src/extra/widgets/meter/lv_meter.c ****         inv_line(obj, indic, old_value);
 238:Middlewares/LVGL/GUI/lvgl/src/extra/widgets/meter/lv_meter.c ****         inv_line(obj, indic, value);
 239:Middlewares/LVGL/GUI/lvgl/src/extra/widgets/meter/lv_meter.c ****     }
 240:Middlewares/LVGL/GUI/lvgl/src/extra/widgets/meter/lv_meter.c ****     else {
 241:Middlewares/LVGL/GUI/lvgl/src/extra/widgets/meter/lv_meter.c ****         lv_obj_invalidate(obj);
 242:Middlewares/LVGL/GUI/lvgl/src/extra/widgets/meter/lv_meter.c ****     }
 243:Middlewares/LVGL/GUI/lvgl/src/extra/widgets/meter/lv_meter.c **** }
 244:Middlewares/LVGL/GUI/lvgl/src/extra/widgets/meter/lv_meter.c **** 
 245:Middlewares/LVGL/GUI/lvgl/src/extra/widgets/meter/lv_meter.c **** void lv_meter_set_indicator_end_value(lv_obj_t * obj, lv_meter_indicator_t * indic, int32_t value)
 246:Middlewares/LVGL/GUI/lvgl/src/extra/widgets/meter/lv_meter.c **** {
 247:Middlewares/LVGL/GUI/lvgl/src/extra/widgets/meter/lv_meter.c ****     int32_t old_value = indic->end_value;
 248:Middlewares/LVGL/GUI/lvgl/src/extra/widgets/meter/lv_meter.c ****     indic->end_value = value;
 249:Middlewares/LVGL/GUI/lvgl/src/extra/widgets/meter/lv_meter.c **** 
 250:Middlewares/LVGL/GUI/lvgl/src/extra/widgets/meter/lv_meter.c ****     if(indic->type == LV_METER_INDICATOR_TYPE_ARC) {
 251:Middlewares/LVGL/GUI/lvgl/src/extra/widgets/meter/lv_meter.c ****         inv_arc(obj, indic, old_value, value);
 252:Middlewares/LVGL/GUI/lvgl/src/extra/widgets/meter/lv_meter.c ****     }
 253:Middlewares/LVGL/GUI/lvgl/src/extra/widgets/meter/lv_meter.c ****     else if(indic->type == LV_METER_INDICATOR_TYPE_NEEDLE_IMG || indic->type == LV_METER_INDICATOR_
 254:Middlewares/LVGL/GUI/lvgl/src/extra/widgets/meter/lv_meter.c ****         inv_line(obj, indic, old_value);
 255:Middlewares/LVGL/GUI/lvgl/src/extra/widgets/meter/lv_meter.c ****         inv_line(obj, indic, value);
 256:Middlewares/LVGL/GUI/lvgl/src/extra/widgets/meter/lv_meter.c ****     }
 257:Middlewares/LVGL/GUI/lvgl/src/extra/widgets/meter/lv_meter.c ****     else {
 258:Middlewares/LVGL/GUI/lvgl/src/extra/widgets/meter/lv_meter.c ****         lv_obj_invalidate(obj);
ARM GAS  C:\Users\ADMINI~1\AppData\Local\Temp\ccVbA5cL.s 			page 6


 259:Middlewares/LVGL/GUI/lvgl/src/extra/widgets/meter/lv_meter.c ****     }
 260:Middlewares/LVGL/GUI/lvgl/src/extra/widgets/meter/lv_meter.c **** }
 261:Middlewares/LVGL/GUI/lvgl/src/extra/widgets/meter/lv_meter.c **** 
 262:Middlewares/LVGL/GUI/lvgl/src/extra/widgets/meter/lv_meter.c **** /**********************
 263:Middlewares/LVGL/GUI/lvgl/src/extra/widgets/meter/lv_meter.c ****  *   STATIC FUNCTIONS
 264:Middlewares/LVGL/GUI/lvgl/src/extra/widgets/meter/lv_meter.c ****  **********************/
 265:Middlewares/LVGL/GUI/lvgl/src/extra/widgets/meter/lv_meter.c **** 
 266:Middlewares/LVGL/GUI/lvgl/src/extra/widgets/meter/lv_meter.c **** static void lv_meter_constructor(const lv_obj_class_t * class_p, lv_obj_t * obj)
 267:Middlewares/LVGL/GUI/lvgl/src/extra/widgets/meter/lv_meter.c **** {
 268:Middlewares/LVGL/GUI/lvgl/src/extra/widgets/meter/lv_meter.c ****     LV_UNUSED(class_p);
 269:Middlewares/LVGL/GUI/lvgl/src/extra/widgets/meter/lv_meter.c ****     LV_TRACE_OBJ_CREATE("begin");
 270:Middlewares/LVGL/GUI/lvgl/src/extra/widgets/meter/lv_meter.c **** 
 271:Middlewares/LVGL/GUI/lvgl/src/extra/widgets/meter/lv_meter.c ****     lv_meter_t * meter = (lv_meter_t *)obj;
 272:Middlewares/LVGL/GUI/lvgl/src/extra/widgets/meter/lv_meter.c **** 
 273:Middlewares/LVGL/GUI/lvgl/src/extra/widgets/meter/lv_meter.c ****     _lv_ll_init(&meter->scale_ll, sizeof(lv_meter_scale_t));
 274:Middlewares/LVGL/GUI/lvgl/src/extra/widgets/meter/lv_meter.c ****     _lv_ll_init(&meter->indicator_ll, sizeof(lv_meter_indicator_t));
 275:Middlewares/LVGL/GUI/lvgl/src/extra/widgets/meter/lv_meter.c **** 
 276:Middlewares/LVGL/GUI/lvgl/src/extra/widgets/meter/lv_meter.c ****     LV_TRACE_OBJ_CREATE("finished");
 277:Middlewares/LVGL/GUI/lvgl/src/extra/widgets/meter/lv_meter.c **** }
 278:Middlewares/LVGL/GUI/lvgl/src/extra/widgets/meter/lv_meter.c **** 
 279:Middlewares/LVGL/GUI/lvgl/src/extra/widgets/meter/lv_meter.c **** static void lv_meter_destructor(const lv_obj_class_t * class_p, lv_obj_t * obj)
 280:Middlewares/LVGL/GUI/lvgl/src/extra/widgets/meter/lv_meter.c **** {
 281:Middlewares/LVGL/GUI/lvgl/src/extra/widgets/meter/lv_meter.c ****     LV_UNUSED(class_p);
 282:Middlewares/LVGL/GUI/lvgl/src/extra/widgets/meter/lv_meter.c ****     LV_ASSERT_OBJ(obj, MY_CLASS);
 283:Middlewares/LVGL/GUI/lvgl/src/extra/widgets/meter/lv_meter.c ****     lv_meter_t * meter = (lv_meter_t *)obj;
 284:Middlewares/LVGL/GUI/lvgl/src/extra/widgets/meter/lv_meter.c ****     _lv_ll_clear(&meter->indicator_ll);
 285:Middlewares/LVGL/GUI/lvgl/src/extra/widgets/meter/lv_meter.c ****     _lv_ll_clear(&meter->scale_ll);
 286:Middlewares/LVGL/GUI/lvgl/src/extra/widgets/meter/lv_meter.c **** 
 287:Middlewares/LVGL/GUI/lvgl/src/extra/widgets/meter/lv_meter.c **** }
 288:Middlewares/LVGL/GUI/lvgl/src/extra/widgets/meter/lv_meter.c **** 
 289:Middlewares/LVGL/GUI/lvgl/src/extra/widgets/meter/lv_meter.c **** static void lv_meter_event(const lv_obj_class_t * class_p, lv_event_t * e)
 290:Middlewares/LVGL/GUI/lvgl/src/extra/widgets/meter/lv_meter.c **** {
 291:Middlewares/LVGL/GUI/lvgl/src/extra/widgets/meter/lv_meter.c ****     LV_UNUSED(class_p);
 292:Middlewares/LVGL/GUI/lvgl/src/extra/widgets/meter/lv_meter.c **** 
 293:Middlewares/LVGL/GUI/lvgl/src/extra/widgets/meter/lv_meter.c ****     lv_res_t res = lv_obj_event_base(MY_CLASS, e);
 294:Middlewares/LVGL/GUI/lvgl/src/extra/widgets/meter/lv_meter.c ****     if(res != LV_RES_OK) return;
 295:Middlewares/LVGL/GUI/lvgl/src/extra/widgets/meter/lv_meter.c **** 
 296:Middlewares/LVGL/GUI/lvgl/src/extra/widgets/meter/lv_meter.c ****     lv_event_code_t code = lv_event_get_code(e);
 297:Middlewares/LVGL/GUI/lvgl/src/extra/widgets/meter/lv_meter.c ****     lv_obj_t * obj = lv_event_get_target(e);
 298:Middlewares/LVGL/GUI/lvgl/src/extra/widgets/meter/lv_meter.c ****     if(code == LV_EVENT_DRAW_MAIN) {
 299:Middlewares/LVGL/GUI/lvgl/src/extra/widgets/meter/lv_meter.c ****         lv_draw_ctx_t * draw_ctx = lv_event_get_draw_ctx(e);
 300:Middlewares/LVGL/GUI/lvgl/src/extra/widgets/meter/lv_meter.c ****         lv_area_t scale_area;
 301:Middlewares/LVGL/GUI/lvgl/src/extra/widgets/meter/lv_meter.c ****         lv_obj_get_content_coords(obj, &scale_area);
 302:Middlewares/LVGL/GUI/lvgl/src/extra/widgets/meter/lv_meter.c **** 
 303:Middlewares/LVGL/GUI/lvgl/src/extra/widgets/meter/lv_meter.c ****         draw_arcs(obj, draw_ctx, &scale_area);
 304:Middlewares/LVGL/GUI/lvgl/src/extra/widgets/meter/lv_meter.c ****         draw_ticks_and_labels(obj, draw_ctx, &scale_area);
 305:Middlewares/LVGL/GUI/lvgl/src/extra/widgets/meter/lv_meter.c ****         draw_needles(obj, draw_ctx, &scale_area);
 306:Middlewares/LVGL/GUI/lvgl/src/extra/widgets/meter/lv_meter.c **** 
 307:Middlewares/LVGL/GUI/lvgl/src/extra/widgets/meter/lv_meter.c ****         lv_coord_t r_edge = lv_area_get_width(&scale_area) / 2;
 308:Middlewares/LVGL/GUI/lvgl/src/extra/widgets/meter/lv_meter.c ****         lv_point_t scale_center;
 309:Middlewares/LVGL/GUI/lvgl/src/extra/widgets/meter/lv_meter.c ****         scale_center.x = scale_area.x1 + r_edge;
 310:Middlewares/LVGL/GUI/lvgl/src/extra/widgets/meter/lv_meter.c ****         scale_center.y = scale_area.y1 + r_edge;
 311:Middlewares/LVGL/GUI/lvgl/src/extra/widgets/meter/lv_meter.c **** 
 312:Middlewares/LVGL/GUI/lvgl/src/extra/widgets/meter/lv_meter.c ****         lv_draw_rect_dsc_t mid_dsc;
 313:Middlewares/LVGL/GUI/lvgl/src/extra/widgets/meter/lv_meter.c ****         lv_draw_rect_dsc_init(&mid_dsc);
 314:Middlewares/LVGL/GUI/lvgl/src/extra/widgets/meter/lv_meter.c ****         lv_obj_init_draw_rect_dsc(obj, LV_PART_INDICATOR, &mid_dsc);
 315:Middlewares/LVGL/GUI/lvgl/src/extra/widgets/meter/lv_meter.c ****         lv_coord_t w = lv_obj_get_style_width(obj, LV_PART_INDICATOR) / 2;
ARM GAS  C:\Users\ADMINI~1\AppData\Local\Temp\ccVbA5cL.s 			page 7


 316:Middlewares/LVGL/GUI/lvgl/src/extra/widgets/meter/lv_meter.c ****         lv_coord_t h = lv_obj_get_style_height(obj, LV_PART_INDICATOR) / 2;
 317:Middlewares/LVGL/GUI/lvgl/src/extra/widgets/meter/lv_meter.c ****         lv_area_t nm_cord;
 318:Middlewares/LVGL/GUI/lvgl/src/extra/widgets/meter/lv_meter.c ****         nm_cord.x1 = scale_center.x - w;
 319:Middlewares/LVGL/GUI/lvgl/src/extra/widgets/meter/lv_meter.c ****         nm_cord.y1 = scale_center.y - h;
 320:Middlewares/LVGL/GUI/lvgl/src/extra/widgets/meter/lv_meter.c ****         nm_cord.x2 = scale_center.x + w;
 321:Middlewares/LVGL/GUI/lvgl/src/extra/widgets/meter/lv_meter.c ****         nm_cord.y2 = scale_center.y + h;
 322:Middlewares/LVGL/GUI/lvgl/src/extra/widgets/meter/lv_meter.c ****         lv_draw_rect(draw_ctx, &mid_dsc, &nm_cord);
 323:Middlewares/LVGL/GUI/lvgl/src/extra/widgets/meter/lv_meter.c ****     }
 324:Middlewares/LVGL/GUI/lvgl/src/extra/widgets/meter/lv_meter.c **** }
 325:Middlewares/LVGL/GUI/lvgl/src/extra/widgets/meter/lv_meter.c **** 
 326:Middlewares/LVGL/GUI/lvgl/src/extra/widgets/meter/lv_meter.c **** static void draw_arcs(lv_obj_t * obj, lv_draw_ctx_t * draw_ctx, const lv_area_t * scale_area)
 327:Middlewares/LVGL/GUI/lvgl/src/extra/widgets/meter/lv_meter.c **** {
  29              		.loc 1 327 1 view -0
  30              		.cfi_startproc
  31              		@ args = 0, pretend = 0, frame = 112
  32              		@ frame_needed = 0, uses_anonymous_args = 0
  33              		.loc 1 327 1 is_stmt 0 view .LVU1
  34 0000 2DE9F04F 		push	{r4, r5, r6, r7, r8, r9, r10, fp, lr}
  35              	.LCFI0:
  36              		.cfi_def_cfa_offset 36
  37              		.cfi_offset 4, -36
  38              		.cfi_offset 5, -32
  39              		.cfi_offset 6, -28
  40              		.cfi_offset 7, -24
  41              		.cfi_offset 8, -20
  42              		.cfi_offset 9, -16
  43              		.cfi_offset 10, -12
  44              		.cfi_offset 11, -8
  45              		.cfi_offset 14, -4
  46 0004 9FB0     		sub	sp, sp, #124
  47              	.LCFI1:
  48              		.cfi_def_cfa_offset 160
  49 0006 0746     		mov	r7, r0
  50 0008 8A46     		mov	r10, r1
  51 000a 1546     		mov	r5, r2
 328:Middlewares/LVGL/GUI/lvgl/src/extra/widgets/meter/lv_meter.c ****     lv_meter_t * meter = (lv_meter_t *)obj;
  52              		.loc 1 328 5 is_stmt 1 view .LVU2
  53              	.LVL1:
 329:Middlewares/LVGL/GUI/lvgl/src/extra/widgets/meter/lv_meter.c **** 
 330:Middlewares/LVGL/GUI/lvgl/src/extra/widgets/meter/lv_meter.c ****     lv_draw_arc_dsc_t arc_dsc;
  54              		.loc 1 330 5 view .LVU3
 331:Middlewares/LVGL/GUI/lvgl/src/extra/widgets/meter/lv_meter.c ****     lv_draw_arc_dsc_init(&arc_dsc);
  55              		.loc 1 331 5 view .LVU4
  56 000c 19AC     		add	r4, sp, #100
  57 000e 2046     		mov	r0, r4
  58              	.LVL2:
  59              		.loc 1 331 5 is_stmt 0 view .LVU5
  60 0010 FFF7FEFF 		bl	lv_draw_arc_dsc_init
  61              	.LVL3:
 332:Middlewares/LVGL/GUI/lvgl/src/extra/widgets/meter/lv_meter.c ****     arc_dsc.rounded = lv_obj_get_style_arc_rounded(obj, LV_PART_ITEMS);
  62              		.loc 1 332 5 is_stmt 1 view .LVU6
  63              	.LBB51:
  64              	.LBI51:
  65              		.file 2 "Middlewares/LVGL/GUI/lvgl/src/extra/widgets/meter/../../../../src/core/lv_obj_style_gen.h
   1:Middlewares/LVGL/GUI/lvgl/src/extra/widgets/meter/../../../../src/core/lv_obj_style_gen.h **** static inline lv_coord_t lv_obj_get_style_width(const struct _lv_obj_t * obj, uint32_t part)
   2:Middlewares/LVGL/GUI/lvgl/src/extra/widgets/meter/../../../../src/core/lv_obj_style_gen.h **** {
   3:Middlewares/LVGL/GUI/lvgl/src/extra/widgets/meter/../../../../src/core/lv_obj_style_gen.h ****     lv_style_value_t v = lv_obj_get_style_prop(obj, part, LV_STYLE_WIDTH);
ARM GAS  C:\Users\ADMINI~1\AppData\Local\Temp\ccVbA5cL.s 			page 8


   4:Middlewares/LVGL/GUI/lvgl/src/extra/widgets/meter/../../../../src/core/lv_obj_style_gen.h ****     return (lv_coord_t)v.num;
   5:Middlewares/LVGL/GUI/lvgl/src/extra/widgets/meter/../../../../src/core/lv_obj_style_gen.h **** }
   6:Middlewares/LVGL/GUI/lvgl/src/extra/widgets/meter/../../../../src/core/lv_obj_style_gen.h **** 
   7:Middlewares/LVGL/GUI/lvgl/src/extra/widgets/meter/../../../../src/core/lv_obj_style_gen.h **** static inline lv_coord_t lv_obj_get_style_min_width(const struct _lv_obj_t * obj, uint32_t part)
   8:Middlewares/LVGL/GUI/lvgl/src/extra/widgets/meter/../../../../src/core/lv_obj_style_gen.h **** {
   9:Middlewares/LVGL/GUI/lvgl/src/extra/widgets/meter/../../../../src/core/lv_obj_style_gen.h ****     lv_style_value_t v = lv_obj_get_style_prop(obj, part, LV_STYLE_MIN_WIDTH);
  10:Middlewares/LVGL/GUI/lvgl/src/extra/widgets/meter/../../../../src/core/lv_obj_style_gen.h ****     return (lv_coord_t)v.num;
  11:Middlewares/LVGL/GUI/lvgl/src/extra/widgets/meter/../../../../src/core/lv_obj_style_gen.h **** }
  12:Middlewares/LVGL/GUI/lvgl/src/extra/widgets/meter/../../../../src/core/lv_obj_style_gen.h **** 
  13:Middlewares/LVGL/GUI/lvgl/src/extra/widgets/meter/../../../../src/core/lv_obj_style_gen.h **** static inline lv_coord_t lv_obj_get_style_max_width(const struct _lv_obj_t * obj, uint32_t part)
  14:Middlewares/LVGL/GUI/lvgl/src/extra/widgets/meter/../../../../src/core/lv_obj_style_gen.h **** {
  15:Middlewares/LVGL/GUI/lvgl/src/extra/widgets/meter/../../../../src/core/lv_obj_style_gen.h ****     lv_style_value_t v = lv_obj_get_style_prop(obj, part, LV_STYLE_MAX_WIDTH);
  16:Middlewares/LVGL/GUI/lvgl/src/extra/widgets/meter/../../../../src/core/lv_obj_style_gen.h ****     return (lv_coord_t)v.num;
  17:Middlewares/LVGL/GUI/lvgl/src/extra/widgets/meter/../../../../src/core/lv_obj_style_gen.h **** }
  18:Middlewares/LVGL/GUI/lvgl/src/extra/widgets/meter/../../../../src/core/lv_obj_style_gen.h **** 
  19:Middlewares/LVGL/GUI/lvgl/src/extra/widgets/meter/../../../../src/core/lv_obj_style_gen.h **** static inline lv_coord_t lv_obj_get_style_height(const struct _lv_obj_t * obj, uint32_t part)
  20:Middlewares/LVGL/GUI/lvgl/src/extra/widgets/meter/../../../../src/core/lv_obj_style_gen.h **** {
  21:Middlewares/LVGL/GUI/lvgl/src/extra/widgets/meter/../../../../src/core/lv_obj_style_gen.h ****     lv_style_value_t v = lv_obj_get_style_prop(obj, part, LV_STYLE_HEIGHT);
  22:Middlewares/LVGL/GUI/lvgl/src/extra/widgets/meter/../../../../src/core/lv_obj_style_gen.h ****     return (lv_coord_t)v.num;
  23:Middlewares/LVGL/GUI/lvgl/src/extra/widgets/meter/../../../../src/core/lv_obj_style_gen.h **** }
  24:Middlewares/LVGL/GUI/lvgl/src/extra/widgets/meter/../../../../src/core/lv_obj_style_gen.h **** 
  25:Middlewares/LVGL/GUI/lvgl/src/extra/widgets/meter/../../../../src/core/lv_obj_style_gen.h **** static inline lv_coord_t lv_obj_get_style_min_height(const struct _lv_obj_t * obj, uint32_t part)
  26:Middlewares/LVGL/GUI/lvgl/src/extra/widgets/meter/../../../../src/core/lv_obj_style_gen.h **** {
  27:Middlewares/LVGL/GUI/lvgl/src/extra/widgets/meter/../../../../src/core/lv_obj_style_gen.h ****     lv_style_value_t v = lv_obj_get_style_prop(obj, part, LV_STYLE_MIN_HEIGHT);
  28:Middlewares/LVGL/GUI/lvgl/src/extra/widgets/meter/../../../../src/core/lv_obj_style_gen.h ****     return (lv_coord_t)v.num;
  29:Middlewares/LVGL/GUI/lvgl/src/extra/widgets/meter/../../../../src/core/lv_obj_style_gen.h **** }
  30:Middlewares/LVGL/GUI/lvgl/src/extra/widgets/meter/../../../../src/core/lv_obj_style_gen.h **** 
  31:Middlewares/LVGL/GUI/lvgl/src/extra/widgets/meter/../../../../src/core/lv_obj_style_gen.h **** static inline lv_coord_t lv_obj_get_style_max_height(const struct _lv_obj_t * obj, uint32_t part)
  32:Middlewares/LVGL/GUI/lvgl/src/extra/widgets/meter/../../../../src/core/lv_obj_style_gen.h **** {
  33:Middlewares/LVGL/GUI/lvgl/src/extra/widgets/meter/../../../../src/core/lv_obj_style_gen.h ****     lv_style_value_t v = lv_obj_get_style_prop(obj, part, LV_STYLE_MAX_HEIGHT);
  34:Middlewares/LVGL/GUI/lvgl/src/extra/widgets/meter/../../../../src/core/lv_obj_style_gen.h ****     return (lv_coord_t)v.num;
  35:Middlewares/LVGL/GUI/lvgl/src/extra/widgets/meter/../../../../src/core/lv_obj_style_gen.h **** }
  36:Middlewares/LVGL/GUI/lvgl/src/extra/widgets/meter/../../../../src/core/lv_obj_style_gen.h **** 
  37:Middlewares/LVGL/GUI/lvgl/src/extra/widgets/meter/../../../../src/core/lv_obj_style_gen.h **** static inline lv_coord_t lv_obj_get_style_x(const struct _lv_obj_t * obj, uint32_t part)
  38:Middlewares/LVGL/GUI/lvgl/src/extra/widgets/meter/../../../../src/core/lv_obj_style_gen.h **** {
  39:Middlewares/LVGL/GUI/lvgl/src/extra/widgets/meter/../../../../src/core/lv_obj_style_gen.h ****     lv_style_value_t v = lv_obj_get_style_prop(obj, part, LV_STYLE_X);
  40:Middlewares/LVGL/GUI/lvgl/src/extra/widgets/meter/../../../../src/core/lv_obj_style_gen.h ****     return (lv_coord_t)v.num;
  41:Middlewares/LVGL/GUI/lvgl/src/extra/widgets/meter/../../../../src/core/lv_obj_style_gen.h **** }
  42:Middlewares/LVGL/GUI/lvgl/src/extra/widgets/meter/../../../../src/core/lv_obj_style_gen.h **** 
  43:Middlewares/LVGL/GUI/lvgl/src/extra/widgets/meter/../../../../src/core/lv_obj_style_gen.h **** static inline lv_coord_t lv_obj_get_style_y(const struct _lv_obj_t * obj, uint32_t part)
  44:Middlewares/LVGL/GUI/lvgl/src/extra/widgets/meter/../../../../src/core/lv_obj_style_gen.h **** {
  45:Middlewares/LVGL/GUI/lvgl/src/extra/widgets/meter/../../../../src/core/lv_obj_style_gen.h ****     lv_style_value_t v = lv_obj_get_style_prop(obj, part, LV_STYLE_Y);
  46:Middlewares/LVGL/GUI/lvgl/src/extra/widgets/meter/../../../../src/core/lv_obj_style_gen.h ****     return (lv_coord_t)v.num;
  47:Middlewares/LVGL/GUI/lvgl/src/extra/widgets/meter/../../../../src/core/lv_obj_style_gen.h **** }
  48:Middlewares/LVGL/GUI/lvgl/src/extra/widgets/meter/../../../../src/core/lv_obj_style_gen.h **** 
  49:Middlewares/LVGL/GUI/lvgl/src/extra/widgets/meter/../../../../src/core/lv_obj_style_gen.h **** static inline lv_align_t lv_obj_get_style_align(const struct _lv_obj_t * obj, uint32_t part)
  50:Middlewares/LVGL/GUI/lvgl/src/extra/widgets/meter/../../../../src/core/lv_obj_style_gen.h **** {
  51:Middlewares/LVGL/GUI/lvgl/src/extra/widgets/meter/../../../../src/core/lv_obj_style_gen.h ****     lv_style_value_t v = lv_obj_get_style_prop(obj, part, LV_STYLE_ALIGN);
  52:Middlewares/LVGL/GUI/lvgl/src/extra/widgets/meter/../../../../src/core/lv_obj_style_gen.h ****     return (lv_align_t)v.num;
  53:Middlewares/LVGL/GUI/lvgl/src/extra/widgets/meter/../../../../src/core/lv_obj_style_gen.h **** }
  54:Middlewares/LVGL/GUI/lvgl/src/extra/widgets/meter/../../../../src/core/lv_obj_style_gen.h **** 
  55:Middlewares/LVGL/GUI/lvgl/src/extra/widgets/meter/../../../../src/core/lv_obj_style_gen.h **** static inline lv_coord_t lv_obj_get_style_transform_width(const struct _lv_obj_t * obj, uint32_t pa
  56:Middlewares/LVGL/GUI/lvgl/src/extra/widgets/meter/../../../../src/core/lv_obj_style_gen.h **** {
  57:Middlewares/LVGL/GUI/lvgl/src/extra/widgets/meter/../../../../src/core/lv_obj_style_gen.h ****     lv_style_value_t v = lv_obj_get_style_prop(obj, part, LV_STYLE_TRANSFORM_WIDTH);
  58:Middlewares/LVGL/GUI/lvgl/src/extra/widgets/meter/../../../../src/core/lv_obj_style_gen.h ****     return (lv_coord_t)v.num;
  59:Middlewares/LVGL/GUI/lvgl/src/extra/widgets/meter/../../../../src/core/lv_obj_style_gen.h **** }
  60:Middlewares/LVGL/GUI/lvgl/src/extra/widgets/meter/../../../../src/core/lv_obj_style_gen.h **** 
ARM GAS  C:\Users\ADMINI~1\AppData\Local\Temp\ccVbA5cL.s 			page 9


  61:Middlewares/LVGL/GUI/lvgl/src/extra/widgets/meter/../../../../src/core/lv_obj_style_gen.h **** static inline lv_coord_t lv_obj_get_style_transform_height(const struct _lv_obj_t * obj, uint32_t p
  62:Middlewares/LVGL/GUI/lvgl/src/extra/widgets/meter/../../../../src/core/lv_obj_style_gen.h **** {
  63:Middlewares/LVGL/GUI/lvgl/src/extra/widgets/meter/../../../../src/core/lv_obj_style_gen.h ****     lv_style_value_t v = lv_obj_get_style_prop(obj, part, LV_STYLE_TRANSFORM_HEIGHT);
  64:Middlewares/LVGL/GUI/lvgl/src/extra/widgets/meter/../../../../src/core/lv_obj_style_gen.h ****     return (lv_coord_t)v.num;
  65:Middlewares/LVGL/GUI/lvgl/src/extra/widgets/meter/../../../../src/core/lv_obj_style_gen.h **** }
  66:Middlewares/LVGL/GUI/lvgl/src/extra/widgets/meter/../../../../src/core/lv_obj_style_gen.h **** 
  67:Middlewares/LVGL/GUI/lvgl/src/extra/widgets/meter/../../../../src/core/lv_obj_style_gen.h **** static inline lv_coord_t lv_obj_get_style_translate_x(const struct _lv_obj_t * obj, uint32_t part)
  68:Middlewares/LVGL/GUI/lvgl/src/extra/widgets/meter/../../../../src/core/lv_obj_style_gen.h **** {
  69:Middlewares/LVGL/GUI/lvgl/src/extra/widgets/meter/../../../../src/core/lv_obj_style_gen.h ****     lv_style_value_t v = lv_obj_get_style_prop(obj, part, LV_STYLE_TRANSLATE_X);
  70:Middlewares/LVGL/GUI/lvgl/src/extra/widgets/meter/../../../../src/core/lv_obj_style_gen.h ****     return (lv_coord_t)v.num;
  71:Middlewares/LVGL/GUI/lvgl/src/extra/widgets/meter/../../../../src/core/lv_obj_style_gen.h **** }
  72:Middlewares/LVGL/GUI/lvgl/src/extra/widgets/meter/../../../../src/core/lv_obj_style_gen.h **** 
  73:Middlewares/LVGL/GUI/lvgl/src/extra/widgets/meter/../../../../src/core/lv_obj_style_gen.h **** static inline lv_coord_t lv_obj_get_style_translate_y(const struct _lv_obj_t * obj, uint32_t part)
  74:Middlewares/LVGL/GUI/lvgl/src/extra/widgets/meter/../../../../src/core/lv_obj_style_gen.h **** {
  75:Middlewares/LVGL/GUI/lvgl/src/extra/widgets/meter/../../../../src/core/lv_obj_style_gen.h ****     lv_style_value_t v = lv_obj_get_style_prop(obj, part, LV_STYLE_TRANSLATE_Y);
  76:Middlewares/LVGL/GUI/lvgl/src/extra/widgets/meter/../../../../src/core/lv_obj_style_gen.h ****     return (lv_coord_t)v.num;
  77:Middlewares/LVGL/GUI/lvgl/src/extra/widgets/meter/../../../../src/core/lv_obj_style_gen.h **** }
  78:Middlewares/LVGL/GUI/lvgl/src/extra/widgets/meter/../../../../src/core/lv_obj_style_gen.h **** 
  79:Middlewares/LVGL/GUI/lvgl/src/extra/widgets/meter/../../../../src/core/lv_obj_style_gen.h **** static inline lv_coord_t lv_obj_get_style_transform_zoom(const struct _lv_obj_t * obj, uint32_t par
  80:Middlewares/LVGL/GUI/lvgl/src/extra/widgets/meter/../../../../src/core/lv_obj_style_gen.h **** {
  81:Middlewares/LVGL/GUI/lvgl/src/extra/widgets/meter/../../../../src/core/lv_obj_style_gen.h ****     lv_style_value_t v = lv_obj_get_style_prop(obj, part, LV_STYLE_TRANSFORM_ZOOM);
  82:Middlewares/LVGL/GUI/lvgl/src/extra/widgets/meter/../../../../src/core/lv_obj_style_gen.h ****     return (lv_coord_t)v.num;
  83:Middlewares/LVGL/GUI/lvgl/src/extra/widgets/meter/../../../../src/core/lv_obj_style_gen.h **** }
  84:Middlewares/LVGL/GUI/lvgl/src/extra/widgets/meter/../../../../src/core/lv_obj_style_gen.h **** 
  85:Middlewares/LVGL/GUI/lvgl/src/extra/widgets/meter/../../../../src/core/lv_obj_style_gen.h **** static inline lv_coord_t lv_obj_get_style_transform_angle(const struct _lv_obj_t * obj, uint32_t pa
  86:Middlewares/LVGL/GUI/lvgl/src/extra/widgets/meter/../../../../src/core/lv_obj_style_gen.h **** {
  87:Middlewares/LVGL/GUI/lvgl/src/extra/widgets/meter/../../../../src/core/lv_obj_style_gen.h ****     lv_style_value_t v = lv_obj_get_style_prop(obj, part, LV_STYLE_TRANSFORM_ANGLE);
  88:Middlewares/LVGL/GUI/lvgl/src/extra/widgets/meter/../../../../src/core/lv_obj_style_gen.h ****     return (lv_coord_t)v.num;
  89:Middlewares/LVGL/GUI/lvgl/src/extra/widgets/meter/../../../../src/core/lv_obj_style_gen.h **** }
  90:Middlewares/LVGL/GUI/lvgl/src/extra/widgets/meter/../../../../src/core/lv_obj_style_gen.h **** 
  91:Middlewares/LVGL/GUI/lvgl/src/extra/widgets/meter/../../../../src/core/lv_obj_style_gen.h **** static inline lv_coord_t lv_obj_get_style_pad_top(const struct _lv_obj_t * obj, uint32_t part)
  92:Middlewares/LVGL/GUI/lvgl/src/extra/widgets/meter/../../../../src/core/lv_obj_style_gen.h **** {
  93:Middlewares/LVGL/GUI/lvgl/src/extra/widgets/meter/../../../../src/core/lv_obj_style_gen.h ****     lv_style_value_t v = lv_obj_get_style_prop(obj, part, LV_STYLE_PAD_TOP);
  94:Middlewares/LVGL/GUI/lvgl/src/extra/widgets/meter/../../../../src/core/lv_obj_style_gen.h ****     return (lv_coord_t)v.num;
  95:Middlewares/LVGL/GUI/lvgl/src/extra/widgets/meter/../../../../src/core/lv_obj_style_gen.h **** }
  96:Middlewares/LVGL/GUI/lvgl/src/extra/widgets/meter/../../../../src/core/lv_obj_style_gen.h **** 
  97:Middlewares/LVGL/GUI/lvgl/src/extra/widgets/meter/../../../../src/core/lv_obj_style_gen.h **** static inline lv_coord_t lv_obj_get_style_pad_bottom(const struct _lv_obj_t * obj, uint32_t part)
  98:Middlewares/LVGL/GUI/lvgl/src/extra/widgets/meter/../../../../src/core/lv_obj_style_gen.h **** {
  99:Middlewares/LVGL/GUI/lvgl/src/extra/widgets/meter/../../../../src/core/lv_obj_style_gen.h ****     lv_style_value_t v = lv_obj_get_style_prop(obj, part, LV_STYLE_PAD_BOTTOM);
 100:Middlewares/LVGL/GUI/lvgl/src/extra/widgets/meter/../../../../src/core/lv_obj_style_gen.h ****     return (lv_coord_t)v.num;
 101:Middlewares/LVGL/GUI/lvgl/src/extra/widgets/meter/../../../../src/core/lv_obj_style_gen.h **** }
 102:Middlewares/LVGL/GUI/lvgl/src/extra/widgets/meter/../../../../src/core/lv_obj_style_gen.h **** 
 103:Middlewares/LVGL/GUI/lvgl/src/extra/widgets/meter/../../../../src/core/lv_obj_style_gen.h **** static inline lv_coord_t lv_obj_get_style_pad_left(const struct _lv_obj_t * obj, uint32_t part)
 104:Middlewares/LVGL/GUI/lvgl/src/extra/widgets/meter/../../../../src/core/lv_obj_style_gen.h **** {
 105:Middlewares/LVGL/GUI/lvgl/src/extra/widgets/meter/../../../../src/core/lv_obj_style_gen.h ****     lv_style_value_t v = lv_obj_get_style_prop(obj, part, LV_STYLE_PAD_LEFT);
 106:Middlewares/LVGL/GUI/lvgl/src/extra/widgets/meter/../../../../src/core/lv_obj_style_gen.h ****     return (lv_coord_t)v.num;
 107:Middlewares/LVGL/GUI/lvgl/src/extra/widgets/meter/../../../../src/core/lv_obj_style_gen.h **** }
 108:Middlewares/LVGL/GUI/lvgl/src/extra/widgets/meter/../../../../src/core/lv_obj_style_gen.h **** 
 109:Middlewares/LVGL/GUI/lvgl/src/extra/widgets/meter/../../../../src/core/lv_obj_style_gen.h **** static inline lv_coord_t lv_obj_get_style_pad_right(const struct _lv_obj_t * obj, uint32_t part)
 110:Middlewares/LVGL/GUI/lvgl/src/extra/widgets/meter/../../../../src/core/lv_obj_style_gen.h **** {
 111:Middlewares/LVGL/GUI/lvgl/src/extra/widgets/meter/../../../../src/core/lv_obj_style_gen.h ****     lv_style_value_t v = lv_obj_get_style_prop(obj, part, LV_STYLE_PAD_RIGHT);
 112:Middlewares/LVGL/GUI/lvgl/src/extra/widgets/meter/../../../../src/core/lv_obj_style_gen.h ****     return (lv_coord_t)v.num;
 113:Middlewares/LVGL/GUI/lvgl/src/extra/widgets/meter/../../../../src/core/lv_obj_style_gen.h **** }
 114:Middlewares/LVGL/GUI/lvgl/src/extra/widgets/meter/../../../../src/core/lv_obj_style_gen.h **** 
 115:Middlewares/LVGL/GUI/lvgl/src/extra/widgets/meter/../../../../src/core/lv_obj_style_gen.h **** static inline lv_coord_t lv_obj_get_style_pad_row(const struct _lv_obj_t * obj, uint32_t part)
 116:Middlewares/LVGL/GUI/lvgl/src/extra/widgets/meter/../../../../src/core/lv_obj_style_gen.h **** {
 117:Middlewares/LVGL/GUI/lvgl/src/extra/widgets/meter/../../../../src/core/lv_obj_style_gen.h ****     lv_style_value_t v = lv_obj_get_style_prop(obj, part, LV_STYLE_PAD_ROW);
ARM GAS  C:\Users\ADMINI~1\AppData\Local\Temp\ccVbA5cL.s 			page 10


 118:Middlewares/LVGL/GUI/lvgl/src/extra/widgets/meter/../../../../src/core/lv_obj_style_gen.h ****     return (lv_coord_t)v.num;
 119:Middlewares/LVGL/GUI/lvgl/src/extra/widgets/meter/../../../../src/core/lv_obj_style_gen.h **** }
 120:Middlewares/LVGL/GUI/lvgl/src/extra/widgets/meter/../../../../src/core/lv_obj_style_gen.h **** 
 121:Middlewares/LVGL/GUI/lvgl/src/extra/widgets/meter/../../../../src/core/lv_obj_style_gen.h **** static inline lv_coord_t lv_obj_get_style_pad_column(const struct _lv_obj_t * obj, uint32_t part)
 122:Middlewares/LVGL/GUI/lvgl/src/extra/widgets/meter/../../../../src/core/lv_obj_style_gen.h **** {
 123:Middlewares/LVGL/GUI/lvgl/src/extra/widgets/meter/../../../../src/core/lv_obj_style_gen.h ****     lv_style_value_t v = lv_obj_get_style_prop(obj, part, LV_STYLE_PAD_COLUMN);
 124:Middlewares/LVGL/GUI/lvgl/src/extra/widgets/meter/../../../../src/core/lv_obj_style_gen.h ****     return (lv_coord_t)v.num;
 125:Middlewares/LVGL/GUI/lvgl/src/extra/widgets/meter/../../../../src/core/lv_obj_style_gen.h **** }
 126:Middlewares/LVGL/GUI/lvgl/src/extra/widgets/meter/../../../../src/core/lv_obj_style_gen.h **** 
 127:Middlewares/LVGL/GUI/lvgl/src/extra/widgets/meter/../../../../src/core/lv_obj_style_gen.h **** static inline lv_color_t lv_obj_get_style_bg_color(const struct _lv_obj_t * obj, uint32_t part)
 128:Middlewares/LVGL/GUI/lvgl/src/extra/widgets/meter/../../../../src/core/lv_obj_style_gen.h **** {
 129:Middlewares/LVGL/GUI/lvgl/src/extra/widgets/meter/../../../../src/core/lv_obj_style_gen.h ****     lv_style_value_t v = lv_obj_get_style_prop(obj, part, LV_STYLE_BG_COLOR);
 130:Middlewares/LVGL/GUI/lvgl/src/extra/widgets/meter/../../../../src/core/lv_obj_style_gen.h ****     return v.color;
 131:Middlewares/LVGL/GUI/lvgl/src/extra/widgets/meter/../../../../src/core/lv_obj_style_gen.h **** }
 132:Middlewares/LVGL/GUI/lvgl/src/extra/widgets/meter/../../../../src/core/lv_obj_style_gen.h **** 
 133:Middlewares/LVGL/GUI/lvgl/src/extra/widgets/meter/../../../../src/core/lv_obj_style_gen.h **** static inline lv_color_t lv_obj_get_style_bg_color_filtered(const struct _lv_obj_t * obj, uint32_t 
 134:Middlewares/LVGL/GUI/lvgl/src/extra/widgets/meter/../../../../src/core/lv_obj_style_gen.h **** {
 135:Middlewares/LVGL/GUI/lvgl/src/extra/widgets/meter/../../../../src/core/lv_obj_style_gen.h ****     lv_style_value_t v = lv_obj_get_style_prop(obj, part, LV_STYLE_BG_COLOR_FILTERED);
 136:Middlewares/LVGL/GUI/lvgl/src/extra/widgets/meter/../../../../src/core/lv_obj_style_gen.h ****     return v.color;
 137:Middlewares/LVGL/GUI/lvgl/src/extra/widgets/meter/../../../../src/core/lv_obj_style_gen.h **** }
 138:Middlewares/LVGL/GUI/lvgl/src/extra/widgets/meter/../../../../src/core/lv_obj_style_gen.h **** 
 139:Middlewares/LVGL/GUI/lvgl/src/extra/widgets/meter/../../../../src/core/lv_obj_style_gen.h **** static inline lv_opa_t lv_obj_get_style_bg_opa(const struct _lv_obj_t * obj, uint32_t part)
 140:Middlewares/LVGL/GUI/lvgl/src/extra/widgets/meter/../../../../src/core/lv_obj_style_gen.h **** {
 141:Middlewares/LVGL/GUI/lvgl/src/extra/widgets/meter/../../../../src/core/lv_obj_style_gen.h ****     lv_style_value_t v = lv_obj_get_style_prop(obj, part, LV_STYLE_BG_OPA);
 142:Middlewares/LVGL/GUI/lvgl/src/extra/widgets/meter/../../../../src/core/lv_obj_style_gen.h ****     return (lv_opa_t)v.num;
 143:Middlewares/LVGL/GUI/lvgl/src/extra/widgets/meter/../../../../src/core/lv_obj_style_gen.h **** }
 144:Middlewares/LVGL/GUI/lvgl/src/extra/widgets/meter/../../../../src/core/lv_obj_style_gen.h **** 
 145:Middlewares/LVGL/GUI/lvgl/src/extra/widgets/meter/../../../../src/core/lv_obj_style_gen.h **** static inline lv_color_t lv_obj_get_style_bg_grad_color(const struct _lv_obj_t * obj, uint32_t part
 146:Middlewares/LVGL/GUI/lvgl/src/extra/widgets/meter/../../../../src/core/lv_obj_style_gen.h **** {
 147:Middlewares/LVGL/GUI/lvgl/src/extra/widgets/meter/../../../../src/core/lv_obj_style_gen.h ****     lv_style_value_t v = lv_obj_get_style_prop(obj, part, LV_STYLE_BG_GRAD_COLOR);
 148:Middlewares/LVGL/GUI/lvgl/src/extra/widgets/meter/../../../../src/core/lv_obj_style_gen.h ****     return v.color;
 149:Middlewares/LVGL/GUI/lvgl/src/extra/widgets/meter/../../../../src/core/lv_obj_style_gen.h **** }
 150:Middlewares/LVGL/GUI/lvgl/src/extra/widgets/meter/../../../../src/core/lv_obj_style_gen.h **** 
 151:Middlewares/LVGL/GUI/lvgl/src/extra/widgets/meter/../../../../src/core/lv_obj_style_gen.h **** static inline lv_color_t lv_obj_get_style_bg_grad_color_filtered(const struct _lv_obj_t * obj, uint
 152:Middlewares/LVGL/GUI/lvgl/src/extra/widgets/meter/../../../../src/core/lv_obj_style_gen.h **** {
 153:Middlewares/LVGL/GUI/lvgl/src/extra/widgets/meter/../../../../src/core/lv_obj_style_gen.h ****     lv_style_value_t v = lv_obj_get_style_prop(obj, part, LV_STYLE_BG_GRAD_COLOR_FILTERED);
 154:Middlewares/LVGL/GUI/lvgl/src/extra/widgets/meter/../../../../src/core/lv_obj_style_gen.h ****     return v.color;
 155:Middlewares/LVGL/GUI/lvgl/src/extra/widgets/meter/../../../../src/core/lv_obj_style_gen.h **** }
 156:Middlewares/LVGL/GUI/lvgl/src/extra/widgets/meter/../../../../src/core/lv_obj_style_gen.h **** 
 157:Middlewares/LVGL/GUI/lvgl/src/extra/widgets/meter/../../../../src/core/lv_obj_style_gen.h **** static inline lv_grad_dir_t lv_obj_get_style_bg_grad_dir(const struct _lv_obj_t * obj, uint32_t par
 158:Middlewares/LVGL/GUI/lvgl/src/extra/widgets/meter/../../../../src/core/lv_obj_style_gen.h **** {
 159:Middlewares/LVGL/GUI/lvgl/src/extra/widgets/meter/../../../../src/core/lv_obj_style_gen.h ****     lv_style_value_t v = lv_obj_get_style_prop(obj, part, LV_STYLE_BG_GRAD_DIR);
 160:Middlewares/LVGL/GUI/lvgl/src/extra/widgets/meter/../../../../src/core/lv_obj_style_gen.h ****     return (lv_grad_dir_t)v.num;
 161:Middlewares/LVGL/GUI/lvgl/src/extra/widgets/meter/../../../../src/core/lv_obj_style_gen.h **** }
 162:Middlewares/LVGL/GUI/lvgl/src/extra/widgets/meter/../../../../src/core/lv_obj_style_gen.h **** 
 163:Middlewares/LVGL/GUI/lvgl/src/extra/widgets/meter/../../../../src/core/lv_obj_style_gen.h **** static inline lv_coord_t lv_obj_get_style_bg_main_stop(const struct _lv_obj_t * obj, uint32_t part)
 164:Middlewares/LVGL/GUI/lvgl/src/extra/widgets/meter/../../../../src/core/lv_obj_style_gen.h **** {
 165:Middlewares/LVGL/GUI/lvgl/src/extra/widgets/meter/../../../../src/core/lv_obj_style_gen.h ****     lv_style_value_t v = lv_obj_get_style_prop(obj, part, LV_STYLE_BG_MAIN_STOP);
 166:Middlewares/LVGL/GUI/lvgl/src/extra/widgets/meter/../../../../src/core/lv_obj_style_gen.h ****     return (lv_coord_t)v.num;
 167:Middlewares/LVGL/GUI/lvgl/src/extra/widgets/meter/../../../../src/core/lv_obj_style_gen.h **** }
 168:Middlewares/LVGL/GUI/lvgl/src/extra/widgets/meter/../../../../src/core/lv_obj_style_gen.h **** 
 169:Middlewares/LVGL/GUI/lvgl/src/extra/widgets/meter/../../../../src/core/lv_obj_style_gen.h **** static inline lv_coord_t lv_obj_get_style_bg_grad_stop(const struct _lv_obj_t * obj, uint32_t part)
 170:Middlewares/LVGL/GUI/lvgl/src/extra/widgets/meter/../../../../src/core/lv_obj_style_gen.h **** {
 171:Middlewares/LVGL/GUI/lvgl/src/extra/widgets/meter/../../../../src/core/lv_obj_style_gen.h ****     lv_style_value_t v = lv_obj_get_style_prop(obj, part, LV_STYLE_BG_GRAD_STOP);
 172:Middlewares/LVGL/GUI/lvgl/src/extra/widgets/meter/../../../../src/core/lv_obj_style_gen.h ****     return (lv_coord_t)v.num;
 173:Middlewares/LVGL/GUI/lvgl/src/extra/widgets/meter/../../../../src/core/lv_obj_style_gen.h **** }
 174:Middlewares/LVGL/GUI/lvgl/src/extra/widgets/meter/../../../../src/core/lv_obj_style_gen.h **** 
ARM GAS  C:\Users\ADMINI~1\AppData\Local\Temp\ccVbA5cL.s 			page 11


 175:Middlewares/LVGL/GUI/lvgl/src/extra/widgets/meter/../../../../src/core/lv_obj_style_gen.h **** static inline const lv_grad_dsc_t * lv_obj_get_style_bg_grad(const struct _lv_obj_t * obj, uint32_t
 176:Middlewares/LVGL/GUI/lvgl/src/extra/widgets/meter/../../../../src/core/lv_obj_style_gen.h **** {
 177:Middlewares/LVGL/GUI/lvgl/src/extra/widgets/meter/../../../../src/core/lv_obj_style_gen.h ****     lv_style_value_t v = lv_obj_get_style_prop(obj, part, LV_STYLE_BG_GRAD);
 178:Middlewares/LVGL/GUI/lvgl/src/extra/widgets/meter/../../../../src/core/lv_obj_style_gen.h ****     return (const lv_grad_dsc_t *)v.ptr;
 179:Middlewares/LVGL/GUI/lvgl/src/extra/widgets/meter/../../../../src/core/lv_obj_style_gen.h **** }
 180:Middlewares/LVGL/GUI/lvgl/src/extra/widgets/meter/../../../../src/core/lv_obj_style_gen.h **** 
 181:Middlewares/LVGL/GUI/lvgl/src/extra/widgets/meter/../../../../src/core/lv_obj_style_gen.h **** static inline lv_dither_mode_t lv_obj_get_style_bg_dither_mode(const struct _lv_obj_t * obj, uint32
 182:Middlewares/LVGL/GUI/lvgl/src/extra/widgets/meter/../../../../src/core/lv_obj_style_gen.h **** {
 183:Middlewares/LVGL/GUI/lvgl/src/extra/widgets/meter/../../../../src/core/lv_obj_style_gen.h ****     lv_style_value_t v = lv_obj_get_style_prop(obj, part, LV_STYLE_BG_DITHER_MODE);
 184:Middlewares/LVGL/GUI/lvgl/src/extra/widgets/meter/../../../../src/core/lv_obj_style_gen.h ****     return (lv_dither_mode_t)v.num;
 185:Middlewares/LVGL/GUI/lvgl/src/extra/widgets/meter/../../../../src/core/lv_obj_style_gen.h **** }
 186:Middlewares/LVGL/GUI/lvgl/src/extra/widgets/meter/../../../../src/core/lv_obj_style_gen.h **** 
 187:Middlewares/LVGL/GUI/lvgl/src/extra/widgets/meter/../../../../src/core/lv_obj_style_gen.h **** static inline const void * lv_obj_get_style_bg_img_src(const struct _lv_obj_t * obj, uint32_t part)
 188:Middlewares/LVGL/GUI/lvgl/src/extra/widgets/meter/../../../../src/core/lv_obj_style_gen.h **** {
 189:Middlewares/LVGL/GUI/lvgl/src/extra/widgets/meter/../../../../src/core/lv_obj_style_gen.h ****     lv_style_value_t v = lv_obj_get_style_prop(obj, part, LV_STYLE_BG_IMG_SRC);
 190:Middlewares/LVGL/GUI/lvgl/src/extra/widgets/meter/../../../../src/core/lv_obj_style_gen.h ****     return (const void *)v.ptr;
 191:Middlewares/LVGL/GUI/lvgl/src/extra/widgets/meter/../../../../src/core/lv_obj_style_gen.h **** }
 192:Middlewares/LVGL/GUI/lvgl/src/extra/widgets/meter/../../../../src/core/lv_obj_style_gen.h **** 
 193:Middlewares/LVGL/GUI/lvgl/src/extra/widgets/meter/../../../../src/core/lv_obj_style_gen.h **** static inline lv_opa_t lv_obj_get_style_bg_img_opa(const struct _lv_obj_t * obj, uint32_t part)
 194:Middlewares/LVGL/GUI/lvgl/src/extra/widgets/meter/../../../../src/core/lv_obj_style_gen.h **** {
 195:Middlewares/LVGL/GUI/lvgl/src/extra/widgets/meter/../../../../src/core/lv_obj_style_gen.h ****     lv_style_value_t v = lv_obj_get_style_prop(obj, part, LV_STYLE_BG_IMG_OPA);
 196:Middlewares/LVGL/GUI/lvgl/src/extra/widgets/meter/../../../../src/core/lv_obj_style_gen.h ****     return (lv_opa_t)v.num;
 197:Middlewares/LVGL/GUI/lvgl/src/extra/widgets/meter/../../../../src/core/lv_obj_style_gen.h **** }
 198:Middlewares/LVGL/GUI/lvgl/src/extra/widgets/meter/../../../../src/core/lv_obj_style_gen.h **** 
 199:Middlewares/LVGL/GUI/lvgl/src/extra/widgets/meter/../../../../src/core/lv_obj_style_gen.h **** static inline lv_color_t lv_obj_get_style_bg_img_recolor(const struct _lv_obj_t * obj, uint32_t par
 200:Middlewares/LVGL/GUI/lvgl/src/extra/widgets/meter/../../../../src/core/lv_obj_style_gen.h **** {
 201:Middlewares/LVGL/GUI/lvgl/src/extra/widgets/meter/../../../../src/core/lv_obj_style_gen.h ****     lv_style_value_t v = lv_obj_get_style_prop(obj, part, LV_STYLE_BG_IMG_RECOLOR);
 202:Middlewares/LVGL/GUI/lvgl/src/extra/widgets/meter/../../../../src/core/lv_obj_style_gen.h ****     return v.color;
 203:Middlewares/LVGL/GUI/lvgl/src/extra/widgets/meter/../../../../src/core/lv_obj_style_gen.h **** }
 204:Middlewares/LVGL/GUI/lvgl/src/extra/widgets/meter/../../../../src/core/lv_obj_style_gen.h **** 
 205:Middlewares/LVGL/GUI/lvgl/src/extra/widgets/meter/../../../../src/core/lv_obj_style_gen.h **** static inline lv_color_t lv_obj_get_style_bg_img_recolor_filtered(const struct _lv_obj_t * obj, uin
 206:Middlewares/LVGL/GUI/lvgl/src/extra/widgets/meter/../../../../src/core/lv_obj_style_gen.h **** {
 207:Middlewares/LVGL/GUI/lvgl/src/extra/widgets/meter/../../../../src/core/lv_obj_style_gen.h ****     lv_style_value_t v = lv_obj_get_style_prop(obj, part, LV_STYLE_BG_IMG_RECOLOR_FILTERED);
 208:Middlewares/LVGL/GUI/lvgl/src/extra/widgets/meter/../../../../src/core/lv_obj_style_gen.h ****     return v.color;
 209:Middlewares/LVGL/GUI/lvgl/src/extra/widgets/meter/../../../../src/core/lv_obj_style_gen.h **** }
 210:Middlewares/LVGL/GUI/lvgl/src/extra/widgets/meter/../../../../src/core/lv_obj_style_gen.h **** 
 211:Middlewares/LVGL/GUI/lvgl/src/extra/widgets/meter/../../../../src/core/lv_obj_style_gen.h **** static inline lv_opa_t lv_obj_get_style_bg_img_recolor_opa(const struct _lv_obj_t * obj, uint32_t p
 212:Middlewares/LVGL/GUI/lvgl/src/extra/widgets/meter/../../../../src/core/lv_obj_style_gen.h **** {
 213:Middlewares/LVGL/GUI/lvgl/src/extra/widgets/meter/../../../../src/core/lv_obj_style_gen.h ****     lv_style_value_t v = lv_obj_get_style_prop(obj, part, LV_STYLE_BG_IMG_RECOLOR_OPA);
 214:Middlewares/LVGL/GUI/lvgl/src/extra/widgets/meter/../../../../src/core/lv_obj_style_gen.h ****     return (lv_opa_t)v.num;
 215:Middlewares/LVGL/GUI/lvgl/src/extra/widgets/meter/../../../../src/core/lv_obj_style_gen.h **** }
 216:Middlewares/LVGL/GUI/lvgl/src/extra/widgets/meter/../../../../src/core/lv_obj_style_gen.h **** 
 217:Middlewares/LVGL/GUI/lvgl/src/extra/widgets/meter/../../../../src/core/lv_obj_style_gen.h **** static inline bool lv_obj_get_style_bg_img_tiled(const struct _lv_obj_t * obj, uint32_t part)
 218:Middlewares/LVGL/GUI/lvgl/src/extra/widgets/meter/../../../../src/core/lv_obj_style_gen.h **** {
 219:Middlewares/LVGL/GUI/lvgl/src/extra/widgets/meter/../../../../src/core/lv_obj_style_gen.h ****     lv_style_value_t v = lv_obj_get_style_prop(obj, part, LV_STYLE_BG_IMG_TILED);
 220:Middlewares/LVGL/GUI/lvgl/src/extra/widgets/meter/../../../../src/core/lv_obj_style_gen.h ****     return (bool)v.num;
 221:Middlewares/LVGL/GUI/lvgl/src/extra/widgets/meter/../../../../src/core/lv_obj_style_gen.h **** }
 222:Middlewares/LVGL/GUI/lvgl/src/extra/widgets/meter/../../../../src/core/lv_obj_style_gen.h **** 
 223:Middlewares/LVGL/GUI/lvgl/src/extra/widgets/meter/../../../../src/core/lv_obj_style_gen.h **** static inline lv_color_t lv_obj_get_style_border_color(const struct _lv_obj_t * obj, uint32_t part)
 224:Middlewares/LVGL/GUI/lvgl/src/extra/widgets/meter/../../../../src/core/lv_obj_style_gen.h **** {
 225:Middlewares/LVGL/GUI/lvgl/src/extra/widgets/meter/../../../../src/core/lv_obj_style_gen.h ****     lv_style_value_t v = lv_obj_get_style_prop(obj, part, LV_STYLE_BORDER_COLOR);
 226:Middlewares/LVGL/GUI/lvgl/src/extra/widgets/meter/../../../../src/core/lv_obj_style_gen.h ****     return v.color;
 227:Middlewares/LVGL/GUI/lvgl/src/extra/widgets/meter/../../../../src/core/lv_obj_style_gen.h **** }
 228:Middlewares/LVGL/GUI/lvgl/src/extra/widgets/meter/../../../../src/core/lv_obj_style_gen.h **** 
 229:Middlewares/LVGL/GUI/lvgl/src/extra/widgets/meter/../../../../src/core/lv_obj_style_gen.h **** static inline lv_color_t lv_obj_get_style_border_color_filtered(const struct _lv_obj_t * obj, uint3
 230:Middlewares/LVGL/GUI/lvgl/src/extra/widgets/meter/../../../../src/core/lv_obj_style_gen.h **** {
 231:Middlewares/LVGL/GUI/lvgl/src/extra/widgets/meter/../../../../src/core/lv_obj_style_gen.h ****     lv_style_value_t v = lv_obj_get_style_prop(obj, part, LV_STYLE_BORDER_COLOR_FILTERED);
ARM GAS  C:\Users\ADMINI~1\AppData\Local\Temp\ccVbA5cL.s 			page 12


 232:Middlewares/LVGL/GUI/lvgl/src/extra/widgets/meter/../../../../src/core/lv_obj_style_gen.h ****     return v.color;
 233:Middlewares/LVGL/GUI/lvgl/src/extra/widgets/meter/../../../../src/core/lv_obj_style_gen.h **** }
 234:Middlewares/LVGL/GUI/lvgl/src/extra/widgets/meter/../../../../src/core/lv_obj_style_gen.h **** 
 235:Middlewares/LVGL/GUI/lvgl/src/extra/widgets/meter/../../../../src/core/lv_obj_style_gen.h **** static inline lv_opa_t lv_obj_get_style_border_opa(const struct _lv_obj_t * obj, uint32_t part)
 236:Middlewares/LVGL/GUI/lvgl/src/extra/widgets/meter/../../../../src/core/lv_obj_style_gen.h **** {
 237:Middlewares/LVGL/GUI/lvgl/src/extra/widgets/meter/../../../../src/core/lv_obj_style_gen.h ****     lv_style_value_t v = lv_obj_get_style_prop(obj, part, LV_STYLE_BORDER_OPA);
 238:Middlewares/LVGL/GUI/lvgl/src/extra/widgets/meter/../../../../src/core/lv_obj_style_gen.h ****     return (lv_opa_t)v.num;
 239:Middlewares/LVGL/GUI/lvgl/src/extra/widgets/meter/../../../../src/core/lv_obj_style_gen.h **** }
 240:Middlewares/LVGL/GUI/lvgl/src/extra/widgets/meter/../../../../src/core/lv_obj_style_gen.h **** 
 241:Middlewares/LVGL/GUI/lvgl/src/extra/widgets/meter/../../../../src/core/lv_obj_style_gen.h **** static inline lv_coord_t lv_obj_get_style_border_width(const struct _lv_obj_t * obj, uint32_t part)
 242:Middlewares/LVGL/GUI/lvgl/src/extra/widgets/meter/../../../../src/core/lv_obj_style_gen.h **** {
 243:Middlewares/LVGL/GUI/lvgl/src/extra/widgets/meter/../../../../src/core/lv_obj_style_gen.h ****     lv_style_value_t v = lv_obj_get_style_prop(obj, part, LV_STYLE_BORDER_WIDTH);
 244:Middlewares/LVGL/GUI/lvgl/src/extra/widgets/meter/../../../../src/core/lv_obj_style_gen.h ****     return (lv_coord_t)v.num;
 245:Middlewares/LVGL/GUI/lvgl/src/extra/widgets/meter/../../../../src/core/lv_obj_style_gen.h **** }
 246:Middlewares/LVGL/GUI/lvgl/src/extra/widgets/meter/../../../../src/core/lv_obj_style_gen.h **** 
 247:Middlewares/LVGL/GUI/lvgl/src/extra/widgets/meter/../../../../src/core/lv_obj_style_gen.h **** static inline lv_border_side_t lv_obj_get_style_border_side(const struct _lv_obj_t * obj, uint32_t 
 248:Middlewares/LVGL/GUI/lvgl/src/extra/widgets/meter/../../../../src/core/lv_obj_style_gen.h **** {
 249:Middlewares/LVGL/GUI/lvgl/src/extra/widgets/meter/../../../../src/core/lv_obj_style_gen.h ****     lv_style_value_t v = lv_obj_get_style_prop(obj, part, LV_STYLE_BORDER_SIDE);
 250:Middlewares/LVGL/GUI/lvgl/src/extra/widgets/meter/../../../../src/core/lv_obj_style_gen.h ****     return (lv_border_side_t)v.num;
 251:Middlewares/LVGL/GUI/lvgl/src/extra/widgets/meter/../../../../src/core/lv_obj_style_gen.h **** }
 252:Middlewares/LVGL/GUI/lvgl/src/extra/widgets/meter/../../../../src/core/lv_obj_style_gen.h **** 
 253:Middlewares/LVGL/GUI/lvgl/src/extra/widgets/meter/../../../../src/core/lv_obj_style_gen.h **** static inline bool lv_obj_get_style_border_post(const struct _lv_obj_t * obj, uint32_t part)
 254:Middlewares/LVGL/GUI/lvgl/src/extra/widgets/meter/../../../../src/core/lv_obj_style_gen.h **** {
 255:Middlewares/LVGL/GUI/lvgl/src/extra/widgets/meter/../../../../src/core/lv_obj_style_gen.h ****     lv_style_value_t v = lv_obj_get_style_prop(obj, part, LV_STYLE_BORDER_POST);
 256:Middlewares/LVGL/GUI/lvgl/src/extra/widgets/meter/../../../../src/core/lv_obj_style_gen.h ****     return (bool)v.num;
 257:Middlewares/LVGL/GUI/lvgl/src/extra/widgets/meter/../../../../src/core/lv_obj_style_gen.h **** }
 258:Middlewares/LVGL/GUI/lvgl/src/extra/widgets/meter/../../../../src/core/lv_obj_style_gen.h **** 
 259:Middlewares/LVGL/GUI/lvgl/src/extra/widgets/meter/../../../../src/core/lv_obj_style_gen.h **** static inline lv_coord_t lv_obj_get_style_outline_width(const struct _lv_obj_t * obj, uint32_t part
 260:Middlewares/LVGL/GUI/lvgl/src/extra/widgets/meter/../../../../src/core/lv_obj_style_gen.h **** {
 261:Middlewares/LVGL/GUI/lvgl/src/extra/widgets/meter/../../../../src/core/lv_obj_style_gen.h ****     lv_style_value_t v = lv_obj_get_style_prop(obj, part, LV_STYLE_OUTLINE_WIDTH);
 262:Middlewares/LVGL/GUI/lvgl/src/extra/widgets/meter/../../../../src/core/lv_obj_style_gen.h ****     return (lv_coord_t)v.num;
 263:Middlewares/LVGL/GUI/lvgl/src/extra/widgets/meter/../../../../src/core/lv_obj_style_gen.h **** }
 264:Middlewares/LVGL/GUI/lvgl/src/extra/widgets/meter/../../../../src/core/lv_obj_style_gen.h **** 
 265:Middlewares/LVGL/GUI/lvgl/src/extra/widgets/meter/../../../../src/core/lv_obj_style_gen.h **** static inline lv_color_t lv_obj_get_style_outline_color(const struct _lv_obj_t * obj, uint32_t part
 266:Middlewares/LVGL/GUI/lvgl/src/extra/widgets/meter/../../../../src/core/lv_obj_style_gen.h **** {
 267:Middlewares/LVGL/GUI/lvgl/src/extra/widgets/meter/../../../../src/core/lv_obj_style_gen.h ****     lv_style_value_t v = lv_obj_get_style_prop(obj, part, LV_STYLE_OUTLINE_COLOR);
 268:Middlewares/LVGL/GUI/lvgl/src/extra/widgets/meter/../../../../src/core/lv_obj_style_gen.h ****     return v.color;
 269:Middlewares/LVGL/GUI/lvgl/src/extra/widgets/meter/../../../../src/core/lv_obj_style_gen.h **** }
 270:Middlewares/LVGL/GUI/lvgl/src/extra/widgets/meter/../../../../src/core/lv_obj_style_gen.h **** 
 271:Middlewares/LVGL/GUI/lvgl/src/extra/widgets/meter/../../../../src/core/lv_obj_style_gen.h **** static inline lv_color_t lv_obj_get_style_outline_color_filtered(const struct _lv_obj_t * obj, uint
 272:Middlewares/LVGL/GUI/lvgl/src/extra/widgets/meter/../../../../src/core/lv_obj_style_gen.h **** {
 273:Middlewares/LVGL/GUI/lvgl/src/extra/widgets/meter/../../../../src/core/lv_obj_style_gen.h ****     lv_style_value_t v = lv_obj_get_style_prop(obj, part, LV_STYLE_OUTLINE_COLOR_FILTERED);
 274:Middlewares/LVGL/GUI/lvgl/src/extra/widgets/meter/../../../../src/core/lv_obj_style_gen.h ****     return v.color;
 275:Middlewares/LVGL/GUI/lvgl/src/extra/widgets/meter/../../../../src/core/lv_obj_style_gen.h **** }
 276:Middlewares/LVGL/GUI/lvgl/src/extra/widgets/meter/../../../../src/core/lv_obj_style_gen.h **** 
 277:Middlewares/LVGL/GUI/lvgl/src/extra/widgets/meter/../../../../src/core/lv_obj_style_gen.h **** static inline lv_opa_t lv_obj_get_style_outline_opa(const struct _lv_obj_t * obj, uint32_t part)
 278:Middlewares/LVGL/GUI/lvgl/src/extra/widgets/meter/../../../../src/core/lv_obj_style_gen.h **** {
 279:Middlewares/LVGL/GUI/lvgl/src/extra/widgets/meter/../../../../src/core/lv_obj_style_gen.h ****     lv_style_value_t v = lv_obj_get_style_prop(obj, part, LV_STYLE_OUTLINE_OPA);
 280:Middlewares/LVGL/GUI/lvgl/src/extra/widgets/meter/../../../../src/core/lv_obj_style_gen.h ****     return (lv_opa_t)v.num;
 281:Middlewares/LVGL/GUI/lvgl/src/extra/widgets/meter/../../../../src/core/lv_obj_style_gen.h **** }
 282:Middlewares/LVGL/GUI/lvgl/src/extra/widgets/meter/../../../../src/core/lv_obj_style_gen.h **** 
 283:Middlewares/LVGL/GUI/lvgl/src/extra/widgets/meter/../../../../src/core/lv_obj_style_gen.h **** static inline lv_coord_t lv_obj_get_style_outline_pad(const struct _lv_obj_t * obj, uint32_t part)
 284:Middlewares/LVGL/GUI/lvgl/src/extra/widgets/meter/../../../../src/core/lv_obj_style_gen.h **** {
 285:Middlewares/LVGL/GUI/lvgl/src/extra/widgets/meter/../../../../src/core/lv_obj_style_gen.h ****     lv_style_value_t v = lv_obj_get_style_prop(obj, part, LV_STYLE_OUTLINE_PAD);
 286:Middlewares/LVGL/GUI/lvgl/src/extra/widgets/meter/../../../../src/core/lv_obj_style_gen.h ****     return (lv_coord_t)v.num;
 287:Middlewares/LVGL/GUI/lvgl/src/extra/widgets/meter/../../../../src/core/lv_obj_style_gen.h **** }
 288:Middlewares/LVGL/GUI/lvgl/src/extra/widgets/meter/../../../../src/core/lv_obj_style_gen.h **** 
ARM GAS  C:\Users\ADMINI~1\AppData\Local\Temp\ccVbA5cL.s 			page 13


 289:Middlewares/LVGL/GUI/lvgl/src/extra/widgets/meter/../../../../src/core/lv_obj_style_gen.h **** static inline lv_coord_t lv_obj_get_style_shadow_width(const struct _lv_obj_t * obj, uint32_t part)
 290:Middlewares/LVGL/GUI/lvgl/src/extra/widgets/meter/../../../../src/core/lv_obj_style_gen.h **** {
 291:Middlewares/LVGL/GUI/lvgl/src/extra/widgets/meter/../../../../src/core/lv_obj_style_gen.h ****     lv_style_value_t v = lv_obj_get_style_prop(obj, part, LV_STYLE_SHADOW_WIDTH);
 292:Middlewares/LVGL/GUI/lvgl/src/extra/widgets/meter/../../../../src/core/lv_obj_style_gen.h ****     return (lv_coord_t)v.num;
 293:Middlewares/LVGL/GUI/lvgl/src/extra/widgets/meter/../../../../src/core/lv_obj_style_gen.h **** }
 294:Middlewares/LVGL/GUI/lvgl/src/extra/widgets/meter/../../../../src/core/lv_obj_style_gen.h **** 
 295:Middlewares/LVGL/GUI/lvgl/src/extra/widgets/meter/../../../../src/core/lv_obj_style_gen.h **** static inline lv_coord_t lv_obj_get_style_shadow_ofs_x(const struct _lv_obj_t * obj, uint32_t part)
 296:Middlewares/LVGL/GUI/lvgl/src/extra/widgets/meter/../../../../src/core/lv_obj_style_gen.h **** {
 297:Middlewares/LVGL/GUI/lvgl/src/extra/widgets/meter/../../../../src/core/lv_obj_style_gen.h ****     lv_style_value_t v = lv_obj_get_style_prop(obj, part, LV_STYLE_SHADOW_OFS_X);
 298:Middlewares/LVGL/GUI/lvgl/src/extra/widgets/meter/../../../../src/core/lv_obj_style_gen.h ****     return (lv_coord_t)v.num;
 299:Middlewares/LVGL/GUI/lvgl/src/extra/widgets/meter/../../../../src/core/lv_obj_style_gen.h **** }
 300:Middlewares/LVGL/GUI/lvgl/src/extra/widgets/meter/../../../../src/core/lv_obj_style_gen.h **** 
 301:Middlewares/LVGL/GUI/lvgl/src/extra/widgets/meter/../../../../src/core/lv_obj_style_gen.h **** static inline lv_coord_t lv_obj_get_style_shadow_ofs_y(const struct _lv_obj_t * obj, uint32_t part)
 302:Middlewares/LVGL/GUI/lvgl/src/extra/widgets/meter/../../../../src/core/lv_obj_style_gen.h **** {
 303:Middlewares/LVGL/GUI/lvgl/src/extra/widgets/meter/../../../../src/core/lv_obj_style_gen.h ****     lv_style_value_t v = lv_obj_get_style_prop(obj, part, LV_STYLE_SHADOW_OFS_Y);
 304:Middlewares/LVGL/GUI/lvgl/src/extra/widgets/meter/../../../../src/core/lv_obj_style_gen.h ****     return (lv_coord_t)v.num;
 305:Middlewares/LVGL/GUI/lvgl/src/extra/widgets/meter/../../../../src/core/lv_obj_style_gen.h **** }
 306:Middlewares/LVGL/GUI/lvgl/src/extra/widgets/meter/../../../../src/core/lv_obj_style_gen.h **** 
 307:Middlewares/LVGL/GUI/lvgl/src/extra/widgets/meter/../../../../src/core/lv_obj_style_gen.h **** static inline lv_coord_t lv_obj_get_style_shadow_spread(const struct _lv_obj_t * obj, uint32_t part
 308:Middlewares/LVGL/GUI/lvgl/src/extra/widgets/meter/../../../../src/core/lv_obj_style_gen.h **** {
 309:Middlewares/LVGL/GUI/lvgl/src/extra/widgets/meter/../../../../src/core/lv_obj_style_gen.h ****     lv_style_value_t v = lv_obj_get_style_prop(obj, part, LV_STYLE_SHADOW_SPREAD);
 310:Middlewares/LVGL/GUI/lvgl/src/extra/widgets/meter/../../../../src/core/lv_obj_style_gen.h ****     return (lv_coord_t)v.num;
 311:Middlewares/LVGL/GUI/lvgl/src/extra/widgets/meter/../../../../src/core/lv_obj_style_gen.h **** }
 312:Middlewares/LVGL/GUI/lvgl/src/extra/widgets/meter/../../../../src/core/lv_obj_style_gen.h **** 
 313:Middlewares/LVGL/GUI/lvgl/src/extra/widgets/meter/../../../../src/core/lv_obj_style_gen.h **** static inline lv_color_t lv_obj_get_style_shadow_color(const struct _lv_obj_t * obj, uint32_t part)
 314:Middlewares/LVGL/GUI/lvgl/src/extra/widgets/meter/../../../../src/core/lv_obj_style_gen.h **** {
 315:Middlewares/LVGL/GUI/lvgl/src/extra/widgets/meter/../../../../src/core/lv_obj_style_gen.h ****     lv_style_value_t v = lv_obj_get_style_prop(obj, part, LV_STYLE_SHADOW_COLOR);
 316:Middlewares/LVGL/GUI/lvgl/src/extra/widgets/meter/../../../../src/core/lv_obj_style_gen.h ****     return v.color;
 317:Middlewares/LVGL/GUI/lvgl/src/extra/widgets/meter/../../../../src/core/lv_obj_style_gen.h **** }
 318:Middlewares/LVGL/GUI/lvgl/src/extra/widgets/meter/../../../../src/core/lv_obj_style_gen.h **** 
 319:Middlewares/LVGL/GUI/lvgl/src/extra/widgets/meter/../../../../src/core/lv_obj_style_gen.h **** static inline lv_color_t lv_obj_get_style_shadow_color_filtered(const struct _lv_obj_t * obj, uint3
 320:Middlewares/LVGL/GUI/lvgl/src/extra/widgets/meter/../../../../src/core/lv_obj_style_gen.h **** {
 321:Middlewares/LVGL/GUI/lvgl/src/extra/widgets/meter/../../../../src/core/lv_obj_style_gen.h ****     lv_style_value_t v = lv_obj_get_style_prop(obj, part, LV_STYLE_SHADOW_COLOR_FILTERED);
 322:Middlewares/LVGL/GUI/lvgl/src/extra/widgets/meter/../../../../src/core/lv_obj_style_gen.h ****     return v.color;
 323:Middlewares/LVGL/GUI/lvgl/src/extra/widgets/meter/../../../../src/core/lv_obj_style_gen.h **** }
 324:Middlewares/LVGL/GUI/lvgl/src/extra/widgets/meter/../../../../src/core/lv_obj_style_gen.h **** 
 325:Middlewares/LVGL/GUI/lvgl/src/extra/widgets/meter/../../../../src/core/lv_obj_style_gen.h **** static inline lv_opa_t lv_obj_get_style_shadow_opa(const struct _lv_obj_t * obj, uint32_t part)
 326:Middlewares/LVGL/GUI/lvgl/src/extra/widgets/meter/../../../../src/core/lv_obj_style_gen.h **** {
 327:Middlewares/LVGL/GUI/lvgl/src/extra/widgets/meter/../../../../src/core/lv_obj_style_gen.h ****     lv_style_value_t v = lv_obj_get_style_prop(obj, part, LV_STYLE_SHADOW_OPA);
 328:Middlewares/LVGL/GUI/lvgl/src/extra/widgets/meter/../../../../src/core/lv_obj_style_gen.h ****     return (lv_opa_t)v.num;
 329:Middlewares/LVGL/GUI/lvgl/src/extra/widgets/meter/../../../../src/core/lv_obj_style_gen.h **** }
 330:Middlewares/LVGL/GUI/lvgl/src/extra/widgets/meter/../../../../src/core/lv_obj_style_gen.h **** 
 331:Middlewares/LVGL/GUI/lvgl/src/extra/widgets/meter/../../../../src/core/lv_obj_style_gen.h **** static inline lv_opa_t lv_obj_get_style_img_opa(const struct _lv_obj_t * obj, uint32_t part)
 332:Middlewares/LVGL/GUI/lvgl/src/extra/widgets/meter/../../../../src/core/lv_obj_style_gen.h **** {
 333:Middlewares/LVGL/GUI/lvgl/src/extra/widgets/meter/../../../../src/core/lv_obj_style_gen.h ****     lv_style_value_t v = lv_obj_get_style_prop(obj, part, LV_STYLE_IMG_OPA);
 334:Middlewares/LVGL/GUI/lvgl/src/extra/widgets/meter/../../../../src/core/lv_obj_style_gen.h ****     return (lv_opa_t)v.num;
 335:Middlewares/LVGL/GUI/lvgl/src/extra/widgets/meter/../../../../src/core/lv_obj_style_gen.h **** }
 336:Middlewares/LVGL/GUI/lvgl/src/extra/widgets/meter/../../../../src/core/lv_obj_style_gen.h **** 
 337:Middlewares/LVGL/GUI/lvgl/src/extra/widgets/meter/../../../../src/core/lv_obj_style_gen.h **** static inline lv_color_t lv_obj_get_style_img_recolor(const struct _lv_obj_t * obj, uint32_t part)
 338:Middlewares/LVGL/GUI/lvgl/src/extra/widgets/meter/../../../../src/core/lv_obj_style_gen.h **** {
 339:Middlewares/LVGL/GUI/lvgl/src/extra/widgets/meter/../../../../src/core/lv_obj_style_gen.h ****     lv_style_value_t v = lv_obj_get_style_prop(obj, part, LV_STYLE_IMG_RECOLOR);
 340:Middlewares/LVGL/GUI/lvgl/src/extra/widgets/meter/../../../../src/core/lv_obj_style_gen.h ****     return v.color;
 341:Middlewares/LVGL/GUI/lvgl/src/extra/widgets/meter/../../../../src/core/lv_obj_style_gen.h **** }
 342:Middlewares/LVGL/GUI/lvgl/src/extra/widgets/meter/../../../../src/core/lv_obj_style_gen.h **** 
 343:Middlewares/LVGL/GUI/lvgl/src/extra/widgets/meter/../../../../src/core/lv_obj_style_gen.h **** static inline lv_color_t lv_obj_get_style_img_recolor_filtered(const struct _lv_obj_t * obj, uint32
 344:Middlewares/LVGL/GUI/lvgl/src/extra/widgets/meter/../../../../src/core/lv_obj_style_gen.h **** {
 345:Middlewares/LVGL/GUI/lvgl/src/extra/widgets/meter/../../../../src/core/lv_obj_style_gen.h ****     lv_style_value_t v = lv_obj_get_style_prop(obj, part, LV_STYLE_IMG_RECOLOR_FILTERED);
ARM GAS  C:\Users\ADMINI~1\AppData\Local\Temp\ccVbA5cL.s 			page 14


 346:Middlewares/LVGL/GUI/lvgl/src/extra/widgets/meter/../../../../src/core/lv_obj_style_gen.h ****     return v.color;
 347:Middlewares/LVGL/GUI/lvgl/src/extra/widgets/meter/../../../../src/core/lv_obj_style_gen.h **** }
 348:Middlewares/LVGL/GUI/lvgl/src/extra/widgets/meter/../../../../src/core/lv_obj_style_gen.h **** 
 349:Middlewares/LVGL/GUI/lvgl/src/extra/widgets/meter/../../../../src/core/lv_obj_style_gen.h **** static inline lv_opa_t lv_obj_get_style_img_recolor_opa(const struct _lv_obj_t * obj, uint32_t part
 350:Middlewares/LVGL/GUI/lvgl/src/extra/widgets/meter/../../../../src/core/lv_obj_style_gen.h **** {
 351:Middlewares/LVGL/GUI/lvgl/src/extra/widgets/meter/../../../../src/core/lv_obj_style_gen.h ****     lv_style_value_t v = lv_obj_get_style_prop(obj, part, LV_STYLE_IMG_RECOLOR_OPA);
 352:Middlewares/LVGL/GUI/lvgl/src/extra/widgets/meter/../../../../src/core/lv_obj_style_gen.h ****     return (lv_opa_t)v.num;
 353:Middlewares/LVGL/GUI/lvgl/src/extra/widgets/meter/../../../../src/core/lv_obj_style_gen.h **** }
 354:Middlewares/LVGL/GUI/lvgl/src/extra/widgets/meter/../../../../src/core/lv_obj_style_gen.h **** 
 355:Middlewares/LVGL/GUI/lvgl/src/extra/widgets/meter/../../../../src/core/lv_obj_style_gen.h **** static inline lv_coord_t lv_obj_get_style_line_width(const struct _lv_obj_t * obj, uint32_t part)
 356:Middlewares/LVGL/GUI/lvgl/src/extra/widgets/meter/../../../../src/core/lv_obj_style_gen.h **** {
 357:Middlewares/LVGL/GUI/lvgl/src/extra/widgets/meter/../../../../src/core/lv_obj_style_gen.h ****     lv_style_value_t v = lv_obj_get_style_prop(obj, part, LV_STYLE_LINE_WIDTH);
 358:Middlewares/LVGL/GUI/lvgl/src/extra/widgets/meter/../../../../src/core/lv_obj_style_gen.h ****     return (lv_coord_t)v.num;
 359:Middlewares/LVGL/GUI/lvgl/src/extra/widgets/meter/../../../../src/core/lv_obj_style_gen.h **** }
 360:Middlewares/LVGL/GUI/lvgl/src/extra/widgets/meter/../../../../src/core/lv_obj_style_gen.h **** 
 361:Middlewares/LVGL/GUI/lvgl/src/extra/widgets/meter/../../../../src/core/lv_obj_style_gen.h **** static inline lv_coord_t lv_obj_get_style_line_dash_width(const struct _lv_obj_t * obj, uint32_t pa
 362:Middlewares/LVGL/GUI/lvgl/src/extra/widgets/meter/../../../../src/core/lv_obj_style_gen.h **** {
 363:Middlewares/LVGL/GUI/lvgl/src/extra/widgets/meter/../../../../src/core/lv_obj_style_gen.h ****     lv_style_value_t v = lv_obj_get_style_prop(obj, part, LV_STYLE_LINE_DASH_WIDTH);
 364:Middlewares/LVGL/GUI/lvgl/src/extra/widgets/meter/../../../../src/core/lv_obj_style_gen.h ****     return (lv_coord_t)v.num;
 365:Middlewares/LVGL/GUI/lvgl/src/extra/widgets/meter/../../../../src/core/lv_obj_style_gen.h **** }
 366:Middlewares/LVGL/GUI/lvgl/src/extra/widgets/meter/../../../../src/core/lv_obj_style_gen.h **** 
 367:Middlewares/LVGL/GUI/lvgl/src/extra/widgets/meter/../../../../src/core/lv_obj_style_gen.h **** static inline lv_coord_t lv_obj_get_style_line_dash_gap(const struct _lv_obj_t * obj, uint32_t part
 368:Middlewares/LVGL/GUI/lvgl/src/extra/widgets/meter/../../../../src/core/lv_obj_style_gen.h **** {
 369:Middlewares/LVGL/GUI/lvgl/src/extra/widgets/meter/../../../../src/core/lv_obj_style_gen.h ****     lv_style_value_t v = lv_obj_get_style_prop(obj, part, LV_STYLE_LINE_DASH_GAP);
 370:Middlewares/LVGL/GUI/lvgl/src/extra/widgets/meter/../../../../src/core/lv_obj_style_gen.h ****     return (lv_coord_t)v.num;
 371:Middlewares/LVGL/GUI/lvgl/src/extra/widgets/meter/../../../../src/core/lv_obj_style_gen.h **** }
 372:Middlewares/LVGL/GUI/lvgl/src/extra/widgets/meter/../../../../src/core/lv_obj_style_gen.h **** 
 373:Middlewares/LVGL/GUI/lvgl/src/extra/widgets/meter/../../../../src/core/lv_obj_style_gen.h **** static inline bool lv_obj_get_style_line_rounded(const struct _lv_obj_t * obj, uint32_t part)
 374:Middlewares/LVGL/GUI/lvgl/src/extra/widgets/meter/../../../../src/core/lv_obj_style_gen.h **** {
 375:Middlewares/LVGL/GUI/lvgl/src/extra/widgets/meter/../../../../src/core/lv_obj_style_gen.h ****     lv_style_value_t v = lv_obj_get_style_prop(obj, part, LV_STYLE_LINE_ROUNDED);
 376:Middlewares/LVGL/GUI/lvgl/src/extra/widgets/meter/../../../../src/core/lv_obj_style_gen.h ****     return (bool)v.num;
 377:Middlewares/LVGL/GUI/lvgl/src/extra/widgets/meter/../../../../src/core/lv_obj_style_gen.h **** }
 378:Middlewares/LVGL/GUI/lvgl/src/extra/widgets/meter/../../../../src/core/lv_obj_style_gen.h **** 
 379:Middlewares/LVGL/GUI/lvgl/src/extra/widgets/meter/../../../../src/core/lv_obj_style_gen.h **** static inline lv_color_t lv_obj_get_style_line_color(const struct _lv_obj_t * obj, uint32_t part)
 380:Middlewares/LVGL/GUI/lvgl/src/extra/widgets/meter/../../../../src/core/lv_obj_style_gen.h **** {
 381:Middlewares/LVGL/GUI/lvgl/src/extra/widgets/meter/../../../../src/core/lv_obj_style_gen.h ****     lv_style_value_t v = lv_obj_get_style_prop(obj, part, LV_STYLE_LINE_COLOR);
 382:Middlewares/LVGL/GUI/lvgl/src/extra/widgets/meter/../../../../src/core/lv_obj_style_gen.h ****     return v.color;
 383:Middlewares/LVGL/GUI/lvgl/src/extra/widgets/meter/../../../../src/core/lv_obj_style_gen.h **** }
 384:Middlewares/LVGL/GUI/lvgl/src/extra/widgets/meter/../../../../src/core/lv_obj_style_gen.h **** 
 385:Middlewares/LVGL/GUI/lvgl/src/extra/widgets/meter/../../../../src/core/lv_obj_style_gen.h **** static inline lv_color_t lv_obj_get_style_line_color_filtered(const struct _lv_obj_t * obj, uint32_
 386:Middlewares/LVGL/GUI/lvgl/src/extra/widgets/meter/../../../../src/core/lv_obj_style_gen.h **** {
 387:Middlewares/LVGL/GUI/lvgl/src/extra/widgets/meter/../../../../src/core/lv_obj_style_gen.h ****     lv_style_value_t v = lv_obj_get_style_prop(obj, part, LV_STYLE_LINE_COLOR_FILTERED);
 388:Middlewares/LVGL/GUI/lvgl/src/extra/widgets/meter/../../../../src/core/lv_obj_style_gen.h ****     return v.color;
 389:Middlewares/LVGL/GUI/lvgl/src/extra/widgets/meter/../../../../src/core/lv_obj_style_gen.h **** }
 390:Middlewares/LVGL/GUI/lvgl/src/extra/widgets/meter/../../../../src/core/lv_obj_style_gen.h **** 
 391:Middlewares/LVGL/GUI/lvgl/src/extra/widgets/meter/../../../../src/core/lv_obj_style_gen.h **** static inline lv_opa_t lv_obj_get_style_line_opa(const struct _lv_obj_t * obj, uint32_t part)
 392:Middlewares/LVGL/GUI/lvgl/src/extra/widgets/meter/../../../../src/core/lv_obj_style_gen.h **** {
 393:Middlewares/LVGL/GUI/lvgl/src/extra/widgets/meter/../../../../src/core/lv_obj_style_gen.h ****     lv_style_value_t v = lv_obj_get_style_prop(obj, part, LV_STYLE_LINE_OPA);
 394:Middlewares/LVGL/GUI/lvgl/src/extra/widgets/meter/../../../../src/core/lv_obj_style_gen.h ****     return (lv_opa_t)v.num;
 395:Middlewares/LVGL/GUI/lvgl/src/extra/widgets/meter/../../../../src/core/lv_obj_style_gen.h **** }
 396:Middlewares/LVGL/GUI/lvgl/src/extra/widgets/meter/../../../../src/core/lv_obj_style_gen.h **** 
 397:Middlewares/LVGL/GUI/lvgl/src/extra/widgets/meter/../../../../src/core/lv_obj_style_gen.h **** static inline lv_coord_t lv_obj_get_style_arc_width(const struct _lv_obj_t * obj, uint32_t part)
 398:Middlewares/LVGL/GUI/lvgl/src/extra/widgets/meter/../../../../src/core/lv_obj_style_gen.h **** {
 399:Middlewares/LVGL/GUI/lvgl/src/extra/widgets/meter/../../../../src/core/lv_obj_style_gen.h ****     lv_style_value_t v = lv_obj_get_style_prop(obj, part, LV_STYLE_ARC_WIDTH);
 400:Middlewares/LVGL/GUI/lvgl/src/extra/widgets/meter/../../../../src/core/lv_obj_style_gen.h ****     return (lv_coord_t)v.num;
 401:Middlewares/LVGL/GUI/lvgl/src/extra/widgets/meter/../../../../src/core/lv_obj_style_gen.h **** }
 402:Middlewares/LVGL/GUI/lvgl/src/extra/widgets/meter/../../../../src/core/lv_obj_style_gen.h **** 
ARM GAS  C:\Users\ADMINI~1\AppData\Local\Temp\ccVbA5cL.s 			page 15


 403:Middlewares/LVGL/GUI/lvgl/src/extra/widgets/meter/../../../../src/core/lv_obj_style_gen.h **** static inline bool lv_obj_get_style_arc_rounded(const struct _lv_obj_t * obj, uint32_t part)
  66              		.loc 2 403 20 view .LVU7
  67              	.LBB52:
 404:Middlewares/LVGL/GUI/lvgl/src/extra/widgets/meter/../../../../src/core/lv_obj_style_gen.h **** {
 405:Middlewares/LVGL/GUI/lvgl/src/extra/widgets/meter/../../../../src/core/lv_obj_style_gen.h ****     lv_style_value_t v = lv_obj_get_style_prop(obj, part, LV_STYLE_ARC_ROUNDED);
  68              		.loc 2 405 5 view .LVU8
  69              		.loc 2 405 26 is_stmt 0 view .LVU9
  70 0014 5122     		movs	r2, #81
  71 0016 4FF4A021 		mov	r1, #327680
  72 001a 3846     		mov	r0, r7
  73 001c FFF7FEFF 		bl	lv_obj_get_style_prop
  74              	.LVL4:
 406:Middlewares/LVGL/GUI/lvgl/src/extra/widgets/meter/../../../../src/core/lv_obj_style_gen.h ****     return (bool)v.num;
  75              		.loc 2 406 5 is_stmt 1 view .LVU10
  76              		.loc 2 406 12 is_stmt 0 view .LVU11
  77 0020 0038     		subs	r0, r0, #0
  78 0022 18BF     		it	ne
  79 0024 0120     		movne	r0, #1
  80              	.LVL5:
  81              		.loc 2 406 12 view .LVU12
  82              	.LBE52:
  83              	.LBE51:
  84              		.loc 1 332 21 view .LVU13
  85 0026 9DF87530 		ldrb	r3, [sp, #117]	@ zero_extendqisi2
  86 002a 60F38203 		bfi	r3, r0, #2, #1
  87 002e 8DF87530 		strb	r3, [sp, #117]
 333:Middlewares/LVGL/GUI/lvgl/src/extra/widgets/meter/lv_meter.c **** 
 334:Middlewares/LVGL/GUI/lvgl/src/extra/widgets/meter/lv_meter.c ****     lv_coord_t r_out = lv_area_get_width(scale_area) / 2 ;
  88              		.loc 1 334 5 is_stmt 1 view .LVU14
  89              	.LVL6:
  90              	.LBB53:
  91              	.LBI53:
  92              		.file 3 "Middlewares/LVGL/GUI/lvgl/src/extra/widgets/meter/../../../../src/hal/../draw/../misc/../
   1:Middlewares/LVGL/GUI/lvgl/src/extra/widgets/meter/../../../../src/hal/../draw/../misc/../font/../misc/lv_area.h **** /**
   2:Middlewares/LVGL/GUI/lvgl/src/extra/widgets/meter/../../../../src/hal/../draw/../misc/../font/../misc/lv_area.h ****  * @file lv_area.h
   3:Middlewares/LVGL/GUI/lvgl/src/extra/widgets/meter/../../../../src/hal/../draw/../misc/../font/../misc/lv_area.h ****  *
   4:Middlewares/LVGL/GUI/lvgl/src/extra/widgets/meter/../../../../src/hal/../draw/../misc/../font/../misc/lv_area.h ****  */
   5:Middlewares/LVGL/GUI/lvgl/src/extra/widgets/meter/../../../../src/hal/../draw/../misc/../font/../misc/lv_area.h **** 
   6:Middlewares/LVGL/GUI/lvgl/src/extra/widgets/meter/../../../../src/hal/../draw/../misc/../font/../misc/lv_area.h **** #ifndef LV_AREA_H
   7:Middlewares/LVGL/GUI/lvgl/src/extra/widgets/meter/../../../../src/hal/../draw/../misc/../font/../misc/lv_area.h **** #define LV_AREA_H
   8:Middlewares/LVGL/GUI/lvgl/src/extra/widgets/meter/../../../../src/hal/../draw/../misc/../font/../misc/lv_area.h **** 
   9:Middlewares/LVGL/GUI/lvgl/src/extra/widgets/meter/../../../../src/hal/../draw/../misc/../font/../misc/lv_area.h **** #ifdef __cplusplus
  10:Middlewares/LVGL/GUI/lvgl/src/extra/widgets/meter/../../../../src/hal/../draw/../misc/../font/../misc/lv_area.h **** extern "C" {
  11:Middlewares/LVGL/GUI/lvgl/src/extra/widgets/meter/../../../../src/hal/../draw/../misc/../font/../misc/lv_area.h **** #endif
  12:Middlewares/LVGL/GUI/lvgl/src/extra/widgets/meter/../../../../src/hal/../draw/../misc/../font/../misc/lv_area.h **** 
  13:Middlewares/LVGL/GUI/lvgl/src/extra/widgets/meter/../../../../src/hal/../draw/../misc/../font/../misc/lv_area.h **** /*********************
  14:Middlewares/LVGL/GUI/lvgl/src/extra/widgets/meter/../../../../src/hal/../draw/../misc/../font/../misc/lv_area.h ****  *      INCLUDES
  15:Middlewares/LVGL/GUI/lvgl/src/extra/widgets/meter/../../../../src/hal/../draw/../misc/../font/../misc/lv_area.h ****  *********************/
  16:Middlewares/LVGL/GUI/lvgl/src/extra/widgets/meter/../../../../src/hal/../draw/../misc/../font/../misc/lv_area.h **** #include "../lv_conf_internal.h"
  17:Middlewares/LVGL/GUI/lvgl/src/extra/widgets/meter/../../../../src/hal/../draw/../misc/../font/../misc/lv_area.h **** #include <stdbool.h>
  18:Middlewares/LVGL/GUI/lvgl/src/extra/widgets/meter/../../../../src/hal/../draw/../misc/../font/../misc/lv_area.h **** #include <stdint.h>
  19:Middlewares/LVGL/GUI/lvgl/src/extra/widgets/meter/../../../../src/hal/../draw/../misc/../font/../misc/lv_area.h **** 
  20:Middlewares/LVGL/GUI/lvgl/src/extra/widgets/meter/../../../../src/hal/../draw/../misc/../font/../misc/lv_area.h **** /*********************
  21:Middlewares/LVGL/GUI/lvgl/src/extra/widgets/meter/../../../../src/hal/../draw/../misc/../font/../misc/lv_area.h ****  *      DEFINES
  22:Middlewares/LVGL/GUI/lvgl/src/extra/widgets/meter/../../../../src/hal/../draw/../misc/../font/../misc/lv_area.h ****  *********************/
  23:Middlewares/LVGL/GUI/lvgl/src/extra/widgets/meter/../../../../src/hal/../draw/../misc/../font/../misc/lv_area.h **** 
  24:Middlewares/LVGL/GUI/lvgl/src/extra/widgets/meter/../../../../src/hal/../draw/../misc/../font/../misc/lv_area.h **** #if LV_USE_LARGE_COORD
ARM GAS  C:\Users\ADMINI~1\AppData\Local\Temp\ccVbA5cL.s 			page 16


  25:Middlewares/LVGL/GUI/lvgl/src/extra/widgets/meter/../../../../src/hal/../draw/../misc/../font/../misc/lv_area.h **** typedef int32_t lv_coord_t;
  26:Middlewares/LVGL/GUI/lvgl/src/extra/widgets/meter/../../../../src/hal/../draw/../misc/../font/../misc/lv_area.h **** #else
  27:Middlewares/LVGL/GUI/lvgl/src/extra/widgets/meter/../../../../src/hal/../draw/../misc/../font/../misc/lv_area.h **** typedef int16_t lv_coord_t;
  28:Middlewares/LVGL/GUI/lvgl/src/extra/widgets/meter/../../../../src/hal/../draw/../misc/../font/../misc/lv_area.h **** #endif
  29:Middlewares/LVGL/GUI/lvgl/src/extra/widgets/meter/../../../../src/hal/../draw/../misc/../font/../misc/lv_area.h **** 
  30:Middlewares/LVGL/GUI/lvgl/src/extra/widgets/meter/../../../../src/hal/../draw/../misc/../font/../misc/lv_area.h **** /**********************
  31:Middlewares/LVGL/GUI/lvgl/src/extra/widgets/meter/../../../../src/hal/../draw/../misc/../font/../misc/lv_area.h ****  *      TYPEDEFS
  32:Middlewares/LVGL/GUI/lvgl/src/extra/widgets/meter/../../../../src/hal/../draw/../misc/../font/../misc/lv_area.h ****  **********************/
  33:Middlewares/LVGL/GUI/lvgl/src/extra/widgets/meter/../../../../src/hal/../draw/../misc/../font/../misc/lv_area.h **** 
  34:Middlewares/LVGL/GUI/lvgl/src/extra/widgets/meter/../../../../src/hal/../draw/../misc/../font/../misc/lv_area.h **** /**
  35:Middlewares/LVGL/GUI/lvgl/src/extra/widgets/meter/../../../../src/hal/../draw/../misc/../font/../misc/lv_area.h ****  * Represents a point on the screen.
  36:Middlewares/LVGL/GUI/lvgl/src/extra/widgets/meter/../../../../src/hal/../draw/../misc/../font/../misc/lv_area.h ****  */
  37:Middlewares/LVGL/GUI/lvgl/src/extra/widgets/meter/../../../../src/hal/../draw/../misc/../font/../misc/lv_area.h **** typedef struct {
  38:Middlewares/LVGL/GUI/lvgl/src/extra/widgets/meter/../../../../src/hal/../draw/../misc/../font/../misc/lv_area.h ****     lv_coord_t x;
  39:Middlewares/LVGL/GUI/lvgl/src/extra/widgets/meter/../../../../src/hal/../draw/../misc/../font/../misc/lv_area.h ****     lv_coord_t y;
  40:Middlewares/LVGL/GUI/lvgl/src/extra/widgets/meter/../../../../src/hal/../draw/../misc/../font/../misc/lv_area.h **** } lv_point_t;
  41:Middlewares/LVGL/GUI/lvgl/src/extra/widgets/meter/../../../../src/hal/../draw/../misc/../font/../misc/lv_area.h **** 
  42:Middlewares/LVGL/GUI/lvgl/src/extra/widgets/meter/../../../../src/hal/../draw/../misc/../font/../misc/lv_area.h **** /** Represents an area of the screen.*/
  43:Middlewares/LVGL/GUI/lvgl/src/extra/widgets/meter/../../../../src/hal/../draw/../misc/../font/../misc/lv_area.h **** typedef struct {
  44:Middlewares/LVGL/GUI/lvgl/src/extra/widgets/meter/../../../../src/hal/../draw/../misc/../font/../misc/lv_area.h ****     lv_coord_t x1;
  45:Middlewares/LVGL/GUI/lvgl/src/extra/widgets/meter/../../../../src/hal/../draw/../misc/../font/../misc/lv_area.h ****     lv_coord_t y1;
  46:Middlewares/LVGL/GUI/lvgl/src/extra/widgets/meter/../../../../src/hal/../draw/../misc/../font/../misc/lv_area.h ****     lv_coord_t x2;
  47:Middlewares/LVGL/GUI/lvgl/src/extra/widgets/meter/../../../../src/hal/../draw/../misc/../font/../misc/lv_area.h ****     lv_coord_t y2;
  48:Middlewares/LVGL/GUI/lvgl/src/extra/widgets/meter/../../../../src/hal/../draw/../misc/../font/../misc/lv_area.h **** } lv_area_t;
  49:Middlewares/LVGL/GUI/lvgl/src/extra/widgets/meter/../../../../src/hal/../draw/../misc/../font/../misc/lv_area.h **** 
  50:Middlewares/LVGL/GUI/lvgl/src/extra/widgets/meter/../../../../src/hal/../draw/../misc/../font/../misc/lv_area.h **** /** Alignments*/
  51:Middlewares/LVGL/GUI/lvgl/src/extra/widgets/meter/../../../../src/hal/../draw/../misc/../font/../misc/lv_area.h **** enum {
  52:Middlewares/LVGL/GUI/lvgl/src/extra/widgets/meter/../../../../src/hal/../draw/../misc/../font/../misc/lv_area.h ****     LV_ALIGN_DEFAULT = 0,
  53:Middlewares/LVGL/GUI/lvgl/src/extra/widgets/meter/../../../../src/hal/../draw/../misc/../font/../misc/lv_area.h ****     LV_ALIGN_TOP_LEFT,
  54:Middlewares/LVGL/GUI/lvgl/src/extra/widgets/meter/../../../../src/hal/../draw/../misc/../font/../misc/lv_area.h ****     LV_ALIGN_TOP_MID,
  55:Middlewares/LVGL/GUI/lvgl/src/extra/widgets/meter/../../../../src/hal/../draw/../misc/../font/../misc/lv_area.h ****     LV_ALIGN_TOP_RIGHT,
  56:Middlewares/LVGL/GUI/lvgl/src/extra/widgets/meter/../../../../src/hal/../draw/../misc/../font/../misc/lv_area.h ****     LV_ALIGN_BOTTOM_LEFT,
  57:Middlewares/LVGL/GUI/lvgl/src/extra/widgets/meter/../../../../src/hal/../draw/../misc/../font/../misc/lv_area.h ****     LV_ALIGN_BOTTOM_MID,
  58:Middlewares/LVGL/GUI/lvgl/src/extra/widgets/meter/../../../../src/hal/../draw/../misc/../font/../misc/lv_area.h ****     LV_ALIGN_BOTTOM_RIGHT,
  59:Middlewares/LVGL/GUI/lvgl/src/extra/widgets/meter/../../../../src/hal/../draw/../misc/../font/../misc/lv_area.h ****     LV_ALIGN_LEFT_MID,
  60:Middlewares/LVGL/GUI/lvgl/src/extra/widgets/meter/../../../../src/hal/../draw/../misc/../font/../misc/lv_area.h ****     LV_ALIGN_RIGHT_MID,
  61:Middlewares/LVGL/GUI/lvgl/src/extra/widgets/meter/../../../../src/hal/../draw/../misc/../font/../misc/lv_area.h ****     LV_ALIGN_CENTER,
  62:Middlewares/LVGL/GUI/lvgl/src/extra/widgets/meter/../../../../src/hal/../draw/../misc/../font/../misc/lv_area.h **** 
  63:Middlewares/LVGL/GUI/lvgl/src/extra/widgets/meter/../../../../src/hal/../draw/../misc/../font/../misc/lv_area.h ****     LV_ALIGN_OUT_TOP_LEFT,
  64:Middlewares/LVGL/GUI/lvgl/src/extra/widgets/meter/../../../../src/hal/../draw/../misc/../font/../misc/lv_area.h ****     LV_ALIGN_OUT_TOP_MID,
  65:Middlewares/LVGL/GUI/lvgl/src/extra/widgets/meter/../../../../src/hal/../draw/../misc/../font/../misc/lv_area.h ****     LV_ALIGN_OUT_TOP_RIGHT,
  66:Middlewares/LVGL/GUI/lvgl/src/extra/widgets/meter/../../../../src/hal/../draw/../misc/../font/../misc/lv_area.h ****     LV_ALIGN_OUT_BOTTOM_LEFT,
  67:Middlewares/LVGL/GUI/lvgl/src/extra/widgets/meter/../../../../src/hal/../draw/../misc/../font/../misc/lv_area.h ****     LV_ALIGN_OUT_BOTTOM_MID,
  68:Middlewares/LVGL/GUI/lvgl/src/extra/widgets/meter/../../../../src/hal/../draw/../misc/../font/../misc/lv_area.h ****     LV_ALIGN_OUT_BOTTOM_RIGHT,
  69:Middlewares/LVGL/GUI/lvgl/src/extra/widgets/meter/../../../../src/hal/../draw/../misc/../font/../misc/lv_area.h ****     LV_ALIGN_OUT_LEFT_TOP,
  70:Middlewares/LVGL/GUI/lvgl/src/extra/widgets/meter/../../../../src/hal/../draw/../misc/../font/../misc/lv_area.h ****     LV_ALIGN_OUT_LEFT_MID,
  71:Middlewares/LVGL/GUI/lvgl/src/extra/widgets/meter/../../../../src/hal/../draw/../misc/../font/../misc/lv_area.h ****     LV_ALIGN_OUT_LEFT_BOTTOM,
  72:Middlewares/LVGL/GUI/lvgl/src/extra/widgets/meter/../../../../src/hal/../draw/../misc/../font/../misc/lv_area.h ****     LV_ALIGN_OUT_RIGHT_TOP,
  73:Middlewares/LVGL/GUI/lvgl/src/extra/widgets/meter/../../../../src/hal/../draw/../misc/../font/../misc/lv_area.h ****     LV_ALIGN_OUT_RIGHT_MID,
  74:Middlewares/LVGL/GUI/lvgl/src/extra/widgets/meter/../../../../src/hal/../draw/../misc/../font/../misc/lv_area.h ****     LV_ALIGN_OUT_RIGHT_BOTTOM,
  75:Middlewares/LVGL/GUI/lvgl/src/extra/widgets/meter/../../../../src/hal/../draw/../misc/../font/../misc/lv_area.h **** };
  76:Middlewares/LVGL/GUI/lvgl/src/extra/widgets/meter/../../../../src/hal/../draw/../misc/../font/../misc/lv_area.h **** typedef uint8_t lv_align_t;
  77:Middlewares/LVGL/GUI/lvgl/src/extra/widgets/meter/../../../../src/hal/../draw/../misc/../font/../misc/lv_area.h **** 
  78:Middlewares/LVGL/GUI/lvgl/src/extra/widgets/meter/../../../../src/hal/../draw/../misc/../font/../misc/lv_area.h **** enum {
  79:Middlewares/LVGL/GUI/lvgl/src/extra/widgets/meter/../../../../src/hal/../draw/../misc/../font/../misc/lv_area.h ****     LV_DIR_NONE     = 0x00,
  80:Middlewares/LVGL/GUI/lvgl/src/extra/widgets/meter/../../../../src/hal/../draw/../misc/../font/../misc/lv_area.h ****     LV_DIR_LEFT     = (1 << 0),
  81:Middlewares/LVGL/GUI/lvgl/src/extra/widgets/meter/../../../../src/hal/../draw/../misc/../font/../misc/lv_area.h ****     LV_DIR_RIGHT    = (1 << 1),
ARM GAS  C:\Users\ADMINI~1\AppData\Local\Temp\ccVbA5cL.s 			page 17


  82:Middlewares/LVGL/GUI/lvgl/src/extra/widgets/meter/../../../../src/hal/../draw/../misc/../font/../misc/lv_area.h ****     LV_DIR_TOP      = (1 << 2),
  83:Middlewares/LVGL/GUI/lvgl/src/extra/widgets/meter/../../../../src/hal/../draw/../misc/../font/../misc/lv_area.h ****     LV_DIR_BOTTOM   = (1 << 3),
  84:Middlewares/LVGL/GUI/lvgl/src/extra/widgets/meter/../../../../src/hal/../draw/../misc/../font/../misc/lv_area.h ****     LV_DIR_HOR      = LV_DIR_LEFT | LV_DIR_RIGHT,
  85:Middlewares/LVGL/GUI/lvgl/src/extra/widgets/meter/../../../../src/hal/../draw/../misc/../font/../misc/lv_area.h ****     LV_DIR_VER      = LV_DIR_TOP | LV_DIR_BOTTOM,
  86:Middlewares/LVGL/GUI/lvgl/src/extra/widgets/meter/../../../../src/hal/../draw/../misc/../font/../misc/lv_area.h ****     LV_DIR_ALL      = LV_DIR_HOR | LV_DIR_VER,
  87:Middlewares/LVGL/GUI/lvgl/src/extra/widgets/meter/../../../../src/hal/../draw/../misc/../font/../misc/lv_area.h **** };
  88:Middlewares/LVGL/GUI/lvgl/src/extra/widgets/meter/../../../../src/hal/../draw/../misc/../font/../misc/lv_area.h **** 
  89:Middlewares/LVGL/GUI/lvgl/src/extra/widgets/meter/../../../../src/hal/../draw/../misc/../font/../misc/lv_area.h **** typedef uint8_t lv_dir_t;
  90:Middlewares/LVGL/GUI/lvgl/src/extra/widgets/meter/../../../../src/hal/../draw/../misc/../font/../misc/lv_area.h **** 
  91:Middlewares/LVGL/GUI/lvgl/src/extra/widgets/meter/../../../../src/hal/../draw/../misc/../font/../misc/lv_area.h **** /**********************
  92:Middlewares/LVGL/GUI/lvgl/src/extra/widgets/meter/../../../../src/hal/../draw/../misc/../font/../misc/lv_area.h ****  * GLOBAL PROTOTYPES
  93:Middlewares/LVGL/GUI/lvgl/src/extra/widgets/meter/../../../../src/hal/../draw/../misc/../font/../misc/lv_area.h ****  **********************/
  94:Middlewares/LVGL/GUI/lvgl/src/extra/widgets/meter/../../../../src/hal/../draw/../misc/../font/../misc/lv_area.h **** 
  95:Middlewares/LVGL/GUI/lvgl/src/extra/widgets/meter/../../../../src/hal/../draw/../misc/../font/../misc/lv_area.h **** /**
  96:Middlewares/LVGL/GUI/lvgl/src/extra/widgets/meter/../../../../src/hal/../draw/../misc/../font/../misc/lv_area.h ****  * Initialize an area
  97:Middlewares/LVGL/GUI/lvgl/src/extra/widgets/meter/../../../../src/hal/../draw/../misc/../font/../misc/lv_area.h ****  * @param area_p pointer to an area
  98:Middlewares/LVGL/GUI/lvgl/src/extra/widgets/meter/../../../../src/hal/../draw/../misc/../font/../misc/lv_area.h ****  * @param x1 left coordinate of the area
  99:Middlewares/LVGL/GUI/lvgl/src/extra/widgets/meter/../../../../src/hal/../draw/../misc/../font/../misc/lv_area.h ****  * @param y1 top coordinate of the area
 100:Middlewares/LVGL/GUI/lvgl/src/extra/widgets/meter/../../../../src/hal/../draw/../misc/../font/../misc/lv_area.h ****  * @param x2 right coordinate of the area
 101:Middlewares/LVGL/GUI/lvgl/src/extra/widgets/meter/../../../../src/hal/../draw/../misc/../font/../misc/lv_area.h ****  * @param y2 bottom coordinate of the area
 102:Middlewares/LVGL/GUI/lvgl/src/extra/widgets/meter/../../../../src/hal/../draw/../misc/../font/../misc/lv_area.h ****  */
 103:Middlewares/LVGL/GUI/lvgl/src/extra/widgets/meter/../../../../src/hal/../draw/../misc/../font/../misc/lv_area.h **** void lv_area_set(lv_area_t * area_p, lv_coord_t x1, lv_coord_t y1, lv_coord_t x2, lv_coord_t y2);
 104:Middlewares/LVGL/GUI/lvgl/src/extra/widgets/meter/../../../../src/hal/../draw/../misc/../font/../misc/lv_area.h **** 
 105:Middlewares/LVGL/GUI/lvgl/src/extra/widgets/meter/../../../../src/hal/../draw/../misc/../font/../misc/lv_area.h **** /**
 106:Middlewares/LVGL/GUI/lvgl/src/extra/widgets/meter/../../../../src/hal/../draw/../misc/../font/../misc/lv_area.h ****  * Copy an area
 107:Middlewares/LVGL/GUI/lvgl/src/extra/widgets/meter/../../../../src/hal/../draw/../misc/../font/../misc/lv_area.h ****  * @param dest pointer to the destination area
 108:Middlewares/LVGL/GUI/lvgl/src/extra/widgets/meter/../../../../src/hal/../draw/../misc/../font/../misc/lv_area.h ****  * @param src pointer to the source area
 109:Middlewares/LVGL/GUI/lvgl/src/extra/widgets/meter/../../../../src/hal/../draw/../misc/../font/../misc/lv_area.h ****  */
 110:Middlewares/LVGL/GUI/lvgl/src/extra/widgets/meter/../../../../src/hal/../draw/../misc/../font/../misc/lv_area.h **** inline static void lv_area_copy(lv_area_t * dest, const lv_area_t * src)
 111:Middlewares/LVGL/GUI/lvgl/src/extra/widgets/meter/../../../../src/hal/../draw/../misc/../font/../misc/lv_area.h **** {
 112:Middlewares/LVGL/GUI/lvgl/src/extra/widgets/meter/../../../../src/hal/../draw/../misc/../font/../misc/lv_area.h ****     dest->x1 = src->x1;
 113:Middlewares/LVGL/GUI/lvgl/src/extra/widgets/meter/../../../../src/hal/../draw/../misc/../font/../misc/lv_area.h ****     dest->y1 = src->y1;
 114:Middlewares/LVGL/GUI/lvgl/src/extra/widgets/meter/../../../../src/hal/../draw/../misc/../font/../misc/lv_area.h ****     dest->x2 = src->x2;
 115:Middlewares/LVGL/GUI/lvgl/src/extra/widgets/meter/../../../../src/hal/../draw/../misc/../font/../misc/lv_area.h ****     dest->y2 = src->y2;
 116:Middlewares/LVGL/GUI/lvgl/src/extra/widgets/meter/../../../../src/hal/../draw/../misc/../font/../misc/lv_area.h **** }
 117:Middlewares/LVGL/GUI/lvgl/src/extra/widgets/meter/../../../../src/hal/../draw/../misc/../font/../misc/lv_area.h **** 
 118:Middlewares/LVGL/GUI/lvgl/src/extra/widgets/meter/../../../../src/hal/../draw/../misc/../font/../misc/lv_area.h **** /**
 119:Middlewares/LVGL/GUI/lvgl/src/extra/widgets/meter/../../../../src/hal/../draw/../misc/../font/../misc/lv_area.h ****  * Get the width of an area
 120:Middlewares/LVGL/GUI/lvgl/src/extra/widgets/meter/../../../../src/hal/../draw/../misc/../font/../misc/lv_area.h ****  * @param area_p pointer to an area
 121:Middlewares/LVGL/GUI/lvgl/src/extra/widgets/meter/../../../../src/hal/../draw/../misc/../font/../misc/lv_area.h ****  * @return the width of the area (if x1 == x2 -> width = 1)
 122:Middlewares/LVGL/GUI/lvgl/src/extra/widgets/meter/../../../../src/hal/../draw/../misc/../font/../misc/lv_area.h ****  */
 123:Middlewares/LVGL/GUI/lvgl/src/extra/widgets/meter/../../../../src/hal/../draw/../misc/../font/../misc/lv_area.h **** static inline lv_coord_t lv_area_get_width(const lv_area_t * area_p)
  93              		.loc 3 123 26 view .LVU15
  94              	.LBB54:
 124:Middlewares/LVGL/GUI/lvgl/src/extra/widgets/meter/../../../../src/hal/../draw/../misc/../font/../misc/lv_area.h **** {
 125:Middlewares/LVGL/GUI/lvgl/src/extra/widgets/meter/../../../../src/hal/../draw/../misc/../font/../misc/lv_area.h ****     return (lv_coord_t)(area_p->x2 - area_p->x1 + 1);
  95              		.loc 3 125 5 view .LVU16
  96              		.loc 3 125 31 is_stmt 0 view .LVU17
  97 0032 AB68     		ldr	r3, [r5, #8]
  98              		.loc 3 125 44 view .LVU18
  99 0034 2A68     		ldr	r2, [r5]
 100              		.loc 3 125 36 view .LVU19
 101 0036 9B1A     		subs	r3, r3, r2
 102              		.loc 3 125 12 view .LVU20
 103 0038 0133     		adds	r3, r3, #1
 104              	.LVL7:
 105              		.loc 3 125 12 view .LVU21
ARM GAS  C:\Users\ADMINI~1\AppData\Local\Temp\ccVbA5cL.s 			page 18


 106              	.LBE54:
 107              	.LBE53:
 108              		.loc 1 334 16 view .LVU22
 109 003a 03EBD373 		add	r3, r3, r3, lsr #31
 110 003e 4FEA630B 		asr	fp, r3, #1
 111              	.LVL8:
 335:Middlewares/LVGL/GUI/lvgl/src/extra/widgets/meter/lv_meter.c ****     lv_point_t scale_center;
 112              		.loc 1 335 5 is_stmt 1 view .LVU23
 336:Middlewares/LVGL/GUI/lvgl/src/extra/widgets/meter/lv_meter.c ****     scale_center.x = scale_area->x1 + r_out;
 113              		.loc 1 336 5 view .LVU24
 114              		.loc 1 336 37 is_stmt 0 view .LVU25
 115 0042 02EB6302 		add	r2, r2, r3, asr #1
 116              		.loc 1 336 20 view .LVU26
 117 0046 1792     		str	r2, [sp, #92]
 337:Middlewares/LVGL/GUI/lvgl/src/extra/widgets/meter/lv_meter.c ****     scale_center.y = scale_area->y1 + r_out;
 118              		.loc 1 337 5 is_stmt 1 view .LVU27
 119              		.loc 1 337 32 is_stmt 0 view .LVU28
 120 0048 6A68     		ldr	r2, [r5, #4]
 121              		.loc 1 337 37 view .LVU29
 122 004a 02EB6303 		add	r3, r2, r3, asr #1
 123              		.loc 1 337 20 view .LVU30
 124 004e 1893     		str	r3, [sp, #96]
 338:Middlewares/LVGL/GUI/lvgl/src/extra/widgets/meter/lv_meter.c **** 
 339:Middlewares/LVGL/GUI/lvgl/src/extra/widgets/meter/lv_meter.c ****     lv_opa_t opa_main = lv_obj_get_style_opa(obj, LV_PART_MAIN);
 125              		.loc 1 339 5 is_stmt 1 view .LVU31
 126              	.LVL9:
 127              	.LBB55:
 128              	.LBI55:
 407:Middlewares/LVGL/GUI/lvgl/src/extra/widgets/meter/../../../../src/core/lv_obj_style_gen.h **** }
 408:Middlewares/LVGL/GUI/lvgl/src/extra/widgets/meter/../../../../src/core/lv_obj_style_gen.h **** 
 409:Middlewares/LVGL/GUI/lvgl/src/extra/widgets/meter/../../../../src/core/lv_obj_style_gen.h **** static inline lv_color_t lv_obj_get_style_arc_color(const struct _lv_obj_t * obj, uint32_t part)
 410:Middlewares/LVGL/GUI/lvgl/src/extra/widgets/meter/../../../../src/core/lv_obj_style_gen.h **** {
 411:Middlewares/LVGL/GUI/lvgl/src/extra/widgets/meter/../../../../src/core/lv_obj_style_gen.h ****     lv_style_value_t v = lv_obj_get_style_prop(obj, part, LV_STYLE_ARC_COLOR);
 412:Middlewares/LVGL/GUI/lvgl/src/extra/widgets/meter/../../../../src/core/lv_obj_style_gen.h ****     return v.color;
 413:Middlewares/LVGL/GUI/lvgl/src/extra/widgets/meter/../../../../src/core/lv_obj_style_gen.h **** }
 414:Middlewares/LVGL/GUI/lvgl/src/extra/widgets/meter/../../../../src/core/lv_obj_style_gen.h **** 
 415:Middlewares/LVGL/GUI/lvgl/src/extra/widgets/meter/../../../../src/core/lv_obj_style_gen.h **** static inline lv_color_t lv_obj_get_style_arc_color_filtered(const struct _lv_obj_t * obj, uint32_t
 416:Middlewares/LVGL/GUI/lvgl/src/extra/widgets/meter/../../../../src/core/lv_obj_style_gen.h **** {
 417:Middlewares/LVGL/GUI/lvgl/src/extra/widgets/meter/../../../../src/core/lv_obj_style_gen.h ****     lv_style_value_t v = lv_obj_get_style_prop(obj, part, LV_STYLE_ARC_COLOR_FILTERED);
 418:Middlewares/LVGL/GUI/lvgl/src/extra/widgets/meter/../../../../src/core/lv_obj_style_gen.h ****     return v.color;
 419:Middlewares/LVGL/GUI/lvgl/src/extra/widgets/meter/../../../../src/core/lv_obj_style_gen.h **** }
 420:Middlewares/LVGL/GUI/lvgl/src/extra/widgets/meter/../../../../src/core/lv_obj_style_gen.h **** 
 421:Middlewares/LVGL/GUI/lvgl/src/extra/widgets/meter/../../../../src/core/lv_obj_style_gen.h **** static inline lv_opa_t lv_obj_get_style_arc_opa(const struct _lv_obj_t * obj, uint32_t part)
 422:Middlewares/LVGL/GUI/lvgl/src/extra/widgets/meter/../../../../src/core/lv_obj_style_gen.h **** {
 423:Middlewares/LVGL/GUI/lvgl/src/extra/widgets/meter/../../../../src/core/lv_obj_style_gen.h ****     lv_style_value_t v = lv_obj_get_style_prop(obj, part, LV_STYLE_ARC_OPA);
 424:Middlewares/LVGL/GUI/lvgl/src/extra/widgets/meter/../../../../src/core/lv_obj_style_gen.h ****     return (lv_opa_t)v.num;
 425:Middlewares/LVGL/GUI/lvgl/src/extra/widgets/meter/../../../../src/core/lv_obj_style_gen.h **** }
 426:Middlewares/LVGL/GUI/lvgl/src/extra/widgets/meter/../../../../src/core/lv_obj_style_gen.h **** 
 427:Middlewares/LVGL/GUI/lvgl/src/extra/widgets/meter/../../../../src/core/lv_obj_style_gen.h **** static inline const void * lv_obj_get_style_arc_img_src(const struct _lv_obj_t * obj, uint32_t part
 428:Middlewares/LVGL/GUI/lvgl/src/extra/widgets/meter/../../../../src/core/lv_obj_style_gen.h **** {
 429:Middlewares/LVGL/GUI/lvgl/src/extra/widgets/meter/../../../../src/core/lv_obj_style_gen.h ****     lv_style_value_t v = lv_obj_get_style_prop(obj, part, LV_STYLE_ARC_IMG_SRC);
 430:Middlewares/LVGL/GUI/lvgl/src/extra/widgets/meter/../../../../src/core/lv_obj_style_gen.h ****     return (const void *)v.ptr;
 431:Middlewares/LVGL/GUI/lvgl/src/extra/widgets/meter/../../../../src/core/lv_obj_style_gen.h **** }
 432:Middlewares/LVGL/GUI/lvgl/src/extra/widgets/meter/../../../../src/core/lv_obj_style_gen.h **** 
 433:Middlewares/LVGL/GUI/lvgl/src/extra/widgets/meter/../../../../src/core/lv_obj_style_gen.h **** static inline lv_color_t lv_obj_get_style_text_color(const struct _lv_obj_t * obj, uint32_t part)
 434:Middlewares/LVGL/GUI/lvgl/src/extra/widgets/meter/../../../../src/core/lv_obj_style_gen.h **** {
 435:Middlewares/LVGL/GUI/lvgl/src/extra/widgets/meter/../../../../src/core/lv_obj_style_gen.h ****     lv_style_value_t v = lv_obj_get_style_prop(obj, part, LV_STYLE_TEXT_COLOR);
ARM GAS  C:\Users\ADMINI~1\AppData\Local\Temp\ccVbA5cL.s 			page 19


 436:Middlewares/LVGL/GUI/lvgl/src/extra/widgets/meter/../../../../src/core/lv_obj_style_gen.h ****     return v.color;
 437:Middlewares/LVGL/GUI/lvgl/src/extra/widgets/meter/../../../../src/core/lv_obj_style_gen.h **** }
 438:Middlewares/LVGL/GUI/lvgl/src/extra/widgets/meter/../../../../src/core/lv_obj_style_gen.h **** 
 439:Middlewares/LVGL/GUI/lvgl/src/extra/widgets/meter/../../../../src/core/lv_obj_style_gen.h **** static inline lv_color_t lv_obj_get_style_text_color_filtered(const struct _lv_obj_t * obj, uint32_
 440:Middlewares/LVGL/GUI/lvgl/src/extra/widgets/meter/../../../../src/core/lv_obj_style_gen.h **** {
 441:Middlewares/LVGL/GUI/lvgl/src/extra/widgets/meter/../../../../src/core/lv_obj_style_gen.h ****     lv_style_value_t v = lv_obj_get_style_prop(obj, part, LV_STYLE_TEXT_COLOR_FILTERED);
 442:Middlewares/LVGL/GUI/lvgl/src/extra/widgets/meter/../../../../src/core/lv_obj_style_gen.h ****     return v.color;
 443:Middlewares/LVGL/GUI/lvgl/src/extra/widgets/meter/../../../../src/core/lv_obj_style_gen.h **** }
 444:Middlewares/LVGL/GUI/lvgl/src/extra/widgets/meter/../../../../src/core/lv_obj_style_gen.h **** 
 445:Middlewares/LVGL/GUI/lvgl/src/extra/widgets/meter/../../../../src/core/lv_obj_style_gen.h **** static inline lv_opa_t lv_obj_get_style_text_opa(const struct _lv_obj_t * obj, uint32_t part)
 446:Middlewares/LVGL/GUI/lvgl/src/extra/widgets/meter/../../../../src/core/lv_obj_style_gen.h **** {
 447:Middlewares/LVGL/GUI/lvgl/src/extra/widgets/meter/../../../../src/core/lv_obj_style_gen.h ****     lv_style_value_t v = lv_obj_get_style_prop(obj, part, LV_STYLE_TEXT_OPA);
 448:Middlewares/LVGL/GUI/lvgl/src/extra/widgets/meter/../../../../src/core/lv_obj_style_gen.h ****     return (lv_opa_t)v.num;
 449:Middlewares/LVGL/GUI/lvgl/src/extra/widgets/meter/../../../../src/core/lv_obj_style_gen.h **** }
 450:Middlewares/LVGL/GUI/lvgl/src/extra/widgets/meter/../../../../src/core/lv_obj_style_gen.h **** 
 451:Middlewares/LVGL/GUI/lvgl/src/extra/widgets/meter/../../../../src/core/lv_obj_style_gen.h **** static inline const lv_font_t * lv_obj_get_style_text_font(const struct _lv_obj_t * obj, uint32_t p
 452:Middlewares/LVGL/GUI/lvgl/src/extra/widgets/meter/../../../../src/core/lv_obj_style_gen.h **** {
 453:Middlewares/LVGL/GUI/lvgl/src/extra/widgets/meter/../../../../src/core/lv_obj_style_gen.h ****     lv_style_value_t v = lv_obj_get_style_prop(obj, part, LV_STYLE_TEXT_FONT);
 454:Middlewares/LVGL/GUI/lvgl/src/extra/widgets/meter/../../../../src/core/lv_obj_style_gen.h ****     return (const lv_font_t *)v.ptr;
 455:Middlewares/LVGL/GUI/lvgl/src/extra/widgets/meter/../../../../src/core/lv_obj_style_gen.h **** }
 456:Middlewares/LVGL/GUI/lvgl/src/extra/widgets/meter/../../../../src/core/lv_obj_style_gen.h **** 
 457:Middlewares/LVGL/GUI/lvgl/src/extra/widgets/meter/../../../../src/core/lv_obj_style_gen.h **** static inline lv_coord_t lv_obj_get_style_text_letter_space(const struct _lv_obj_t * obj, uint32_t 
 458:Middlewares/LVGL/GUI/lvgl/src/extra/widgets/meter/../../../../src/core/lv_obj_style_gen.h **** {
 459:Middlewares/LVGL/GUI/lvgl/src/extra/widgets/meter/../../../../src/core/lv_obj_style_gen.h ****     lv_style_value_t v = lv_obj_get_style_prop(obj, part, LV_STYLE_TEXT_LETTER_SPACE);
 460:Middlewares/LVGL/GUI/lvgl/src/extra/widgets/meter/../../../../src/core/lv_obj_style_gen.h ****     return (lv_coord_t)v.num;
 461:Middlewares/LVGL/GUI/lvgl/src/extra/widgets/meter/../../../../src/core/lv_obj_style_gen.h **** }
 462:Middlewares/LVGL/GUI/lvgl/src/extra/widgets/meter/../../../../src/core/lv_obj_style_gen.h **** 
 463:Middlewares/LVGL/GUI/lvgl/src/extra/widgets/meter/../../../../src/core/lv_obj_style_gen.h **** static inline lv_coord_t lv_obj_get_style_text_line_space(const struct _lv_obj_t * obj, uint32_t pa
 464:Middlewares/LVGL/GUI/lvgl/src/extra/widgets/meter/../../../../src/core/lv_obj_style_gen.h **** {
 465:Middlewares/LVGL/GUI/lvgl/src/extra/widgets/meter/../../../../src/core/lv_obj_style_gen.h ****     lv_style_value_t v = lv_obj_get_style_prop(obj, part, LV_STYLE_TEXT_LINE_SPACE);
 466:Middlewares/LVGL/GUI/lvgl/src/extra/widgets/meter/../../../../src/core/lv_obj_style_gen.h ****     return (lv_coord_t)v.num;
 467:Middlewares/LVGL/GUI/lvgl/src/extra/widgets/meter/../../../../src/core/lv_obj_style_gen.h **** }
 468:Middlewares/LVGL/GUI/lvgl/src/extra/widgets/meter/../../../../src/core/lv_obj_style_gen.h **** 
 469:Middlewares/LVGL/GUI/lvgl/src/extra/widgets/meter/../../../../src/core/lv_obj_style_gen.h **** static inline lv_text_decor_t lv_obj_get_style_text_decor(const struct _lv_obj_t * obj, uint32_t pa
 470:Middlewares/LVGL/GUI/lvgl/src/extra/widgets/meter/../../../../src/core/lv_obj_style_gen.h **** {
 471:Middlewares/LVGL/GUI/lvgl/src/extra/widgets/meter/../../../../src/core/lv_obj_style_gen.h ****     lv_style_value_t v = lv_obj_get_style_prop(obj, part, LV_STYLE_TEXT_DECOR);
 472:Middlewares/LVGL/GUI/lvgl/src/extra/widgets/meter/../../../../src/core/lv_obj_style_gen.h ****     return (lv_text_decor_t)v.num;
 473:Middlewares/LVGL/GUI/lvgl/src/extra/widgets/meter/../../../../src/core/lv_obj_style_gen.h **** }
 474:Middlewares/LVGL/GUI/lvgl/src/extra/widgets/meter/../../../../src/core/lv_obj_style_gen.h **** 
 475:Middlewares/LVGL/GUI/lvgl/src/extra/widgets/meter/../../../../src/core/lv_obj_style_gen.h **** static inline lv_text_align_t lv_obj_get_style_text_align(const struct _lv_obj_t * obj, uint32_t pa
 476:Middlewares/LVGL/GUI/lvgl/src/extra/widgets/meter/../../../../src/core/lv_obj_style_gen.h **** {
 477:Middlewares/LVGL/GUI/lvgl/src/extra/widgets/meter/../../../../src/core/lv_obj_style_gen.h ****     lv_style_value_t v = lv_obj_get_style_prop(obj, part, LV_STYLE_TEXT_ALIGN);
 478:Middlewares/LVGL/GUI/lvgl/src/extra/widgets/meter/../../../../src/core/lv_obj_style_gen.h ****     return (lv_text_align_t)v.num;
 479:Middlewares/LVGL/GUI/lvgl/src/extra/widgets/meter/../../../../src/core/lv_obj_style_gen.h **** }
 480:Middlewares/LVGL/GUI/lvgl/src/extra/widgets/meter/../../../../src/core/lv_obj_style_gen.h **** 
 481:Middlewares/LVGL/GUI/lvgl/src/extra/widgets/meter/../../../../src/core/lv_obj_style_gen.h **** static inline lv_coord_t lv_obj_get_style_radius(const struct _lv_obj_t * obj, uint32_t part)
 482:Middlewares/LVGL/GUI/lvgl/src/extra/widgets/meter/../../../../src/core/lv_obj_style_gen.h **** {
 483:Middlewares/LVGL/GUI/lvgl/src/extra/widgets/meter/../../../../src/core/lv_obj_style_gen.h ****     lv_style_value_t v = lv_obj_get_style_prop(obj, part, LV_STYLE_RADIUS);
 484:Middlewares/LVGL/GUI/lvgl/src/extra/widgets/meter/../../../../src/core/lv_obj_style_gen.h ****     return (lv_coord_t)v.num;
 485:Middlewares/LVGL/GUI/lvgl/src/extra/widgets/meter/../../../../src/core/lv_obj_style_gen.h **** }
 486:Middlewares/LVGL/GUI/lvgl/src/extra/widgets/meter/../../../../src/core/lv_obj_style_gen.h **** 
 487:Middlewares/LVGL/GUI/lvgl/src/extra/widgets/meter/../../../../src/core/lv_obj_style_gen.h **** static inline bool lv_obj_get_style_clip_corner(const struct _lv_obj_t * obj, uint32_t part)
 488:Middlewares/LVGL/GUI/lvgl/src/extra/widgets/meter/../../../../src/core/lv_obj_style_gen.h **** {
 489:Middlewares/LVGL/GUI/lvgl/src/extra/widgets/meter/../../../../src/core/lv_obj_style_gen.h ****     lv_style_value_t v = lv_obj_get_style_prop(obj, part, LV_STYLE_CLIP_CORNER);
 490:Middlewares/LVGL/GUI/lvgl/src/extra/widgets/meter/../../../../src/core/lv_obj_style_gen.h ****     return (bool)v.num;
 491:Middlewares/LVGL/GUI/lvgl/src/extra/widgets/meter/../../../../src/core/lv_obj_style_gen.h **** }
 492:Middlewares/LVGL/GUI/lvgl/src/extra/widgets/meter/../../../../src/core/lv_obj_style_gen.h **** 
ARM GAS  C:\Users\ADMINI~1\AppData\Local\Temp\ccVbA5cL.s 			page 20


 493:Middlewares/LVGL/GUI/lvgl/src/extra/widgets/meter/../../../../src/core/lv_obj_style_gen.h **** static inline lv_opa_t lv_obj_get_style_opa(const struct _lv_obj_t * obj, uint32_t part)
 129              		.loc 2 493 24 view .LVU32
 130              	.LBB56:
 494:Middlewares/LVGL/GUI/lvgl/src/extra/widgets/meter/../../../../src/core/lv_obj_style_gen.h **** {
 495:Middlewares/LVGL/GUI/lvgl/src/extra/widgets/meter/../../../../src/core/lv_obj_style_gen.h ****     lv_style_value_t v = lv_obj_get_style_prop(obj, part, LV_STYLE_OPA);
 131              		.loc 2 495 5 view .LVU33
 132              		.loc 2 495 26 is_stmt 0 view .LVU34
 133 0050 40F26242 		movw	r2, #1122
 134 0054 0021     		movs	r1, #0
 135 0056 3846     		mov	r0, r7
 136 0058 FFF7FEFF 		bl	lv_obj_get_style_prop
 137              	.LVL10:
 138 005c 0290     		str	r0, [sp, #8]
 496:Middlewares/LVGL/GUI/lvgl/src/extra/widgets/meter/../../../../src/core/lv_obj_style_gen.h ****     return (lv_opa_t)v.num;
 139              		.loc 2 496 5 is_stmt 1 view .LVU35
 140              		.loc 2 496 12 is_stmt 0 view .LVU36
 141 005e C3B2     		uxtb	r3, r0
 142 0060 0393     		str	r3, [sp, #12]
 143              	.LVL11:
 144              		.loc 2 496 12 view .LVU37
 145              	.LBE56:
 146              	.LBE55:
 340:Middlewares/LVGL/GUI/lvgl/src/extra/widgets/meter/lv_meter.c ****     lv_meter_indicator_t * indic;
 147              		.loc 1 340 5 is_stmt 1 view .LVU38
 341:Middlewares/LVGL/GUI/lvgl/src/extra/widgets/meter/lv_meter.c **** 
 342:Middlewares/LVGL/GUI/lvgl/src/extra/widgets/meter/lv_meter.c ****     lv_obj_draw_part_dsc_t part_draw_dsc;
 148              		.loc 1 342 5 view .LVU39
 343:Middlewares/LVGL/GUI/lvgl/src/extra/widgets/meter/lv_meter.c ****     lv_obj_draw_dsc_init(&part_draw_dsc, draw_ctx);
 149              		.loc 1 343 5 view .LVU40
 150 0062 5146     		mov	r1, r10
 151 0064 05A8     		add	r0, sp, #20
 152 0066 FFF7FEFF 		bl	lv_obj_draw_dsc_init
 153              	.LVL12:
 344:Middlewares/LVGL/GUI/lvgl/src/extra/widgets/meter/lv_meter.c ****     part_draw_dsc.arc_dsc = &arc_dsc;
 154              		.loc 1 344 5 view .LVU41
 155              		.loc 1 344 27 is_stmt 0 view .LVU42
 156 006a 0D94     		str	r4, [sp, #52]
 345:Middlewares/LVGL/GUI/lvgl/src/extra/widgets/meter/lv_meter.c ****     part_draw_dsc.part = LV_PART_INDICATOR;
 157              		.loc 1 345 5 is_stmt 1 view .LVU43
 158              		.loc 1 345 24 is_stmt 0 view .LVU44
 159 006c 4FF40033 		mov	r3, #131072
 160 0070 1293     		str	r3, [sp, #72]
 346:Middlewares/LVGL/GUI/lvgl/src/extra/widgets/meter/lv_meter.c ****     part_draw_dsc.class_p = MY_CLASS;
 161              		.loc 1 346 5 is_stmt 1 view .LVU45
 162              		.loc 1 346 27 is_stmt 0 view .LVU46
 163 0072 2F4B     		ldr	r3, .L9
 164 0074 0693     		str	r3, [sp, #24]
 347:Middlewares/LVGL/GUI/lvgl/src/extra/widgets/meter/lv_meter.c ****     part_draw_dsc.type = LV_METER_DRAW_PART_ARC;
 165              		.loc 1 347 5 is_stmt 1 view .LVU47
 166              		.loc 1 347 24 is_stmt 0 view .LVU48
 167 0076 0023     		movs	r3, #0
 168 0078 0793     		str	r3, [sp, #28]
 348:Middlewares/LVGL/GUI/lvgl/src/extra/widgets/meter/lv_meter.c **** 
 349:Middlewares/LVGL/GUI/lvgl/src/extra/widgets/meter/lv_meter.c ****     _LV_LL_READ_BACK(&meter->indicator_ll, indic) {
 169              		.loc 1 349 5 is_stmt 1 view .LVU49
 170 007a 07F13809 		add	r9, r7, #56
 171 007e 4846     		mov	r0, r9
ARM GAS  C:\Users\ADMINI~1\AppData\Local\Temp\ccVbA5cL.s 			page 21


 172 0080 FFF7FEFF 		bl	_lv_ll_get_tail
 173              	.LVL13:
 174 0084 0446     		mov	r4, r0
 175              	.LVL14:
 176              		.loc 1 349 5 is_stmt 0 view .LVU50
 177 0086 3EE0     		b	.L2
 178              	.LVL15:
 179              	.L6:
 180              	.LBB57:
 350:Middlewares/LVGL/GUI/lvgl/src/extra/widgets/meter/lv_meter.c ****         if(indic->type != LV_METER_INDICATOR_TYPE_ARC) continue;
 351:Middlewares/LVGL/GUI/lvgl/src/extra/widgets/meter/lv_meter.c **** 
 352:Middlewares/LVGL/GUI/lvgl/src/extra/widgets/meter/lv_meter.c ****         arc_dsc.color = indic->type_data.arc.color;
 353:Middlewares/LVGL/GUI/lvgl/src/extra/widgets/meter/lv_meter.c ****         arc_dsc.width = indic->type_data.arc.width;
 354:Middlewares/LVGL/GUI/lvgl/src/extra/widgets/meter/lv_meter.c ****         arc_dsc.opa = indic->opa > LV_OPA_MAX ? opa_main : (opa_main * indic->opa) >> 8;
 181              		.loc 1 354 21 view .LVU51
 182 0088 039B     		ldr	r3, [sp, #12]
 183              	.L4:
 184              		.loc 1 354 21 discriminator 4 view .LVU52
 185 008a 8DF87430 		strb	r3, [sp, #116]
 355:Middlewares/LVGL/GUI/lvgl/src/extra/widgets/meter/lv_meter.c **** 
 356:Middlewares/LVGL/GUI/lvgl/src/extra/widgets/meter/lv_meter.c ****         lv_meter_scale_t * scale = indic->scale;
 186              		.loc 1 356 9 is_stmt 1 discriminator 4 view .LVU53
 187              		.loc 1 356 28 is_stmt 0 discriminator 4 view .LVU54
 188 008e 2568     		ldr	r5, [r4]
 189              	.LVL16:
 357:Middlewares/LVGL/GUI/lvgl/src/extra/widgets/meter/lv_meter.c **** 
 358:Middlewares/LVGL/GUI/lvgl/src/extra/widgets/meter/lv_meter.c ****         int32_t start_angle = lv_map(indic->start_value, scale->min, scale->max, scale->rotation,
 190              		.loc 1 358 9 is_stmt 1 discriminator 4 view .LVU55
 191              		.loc 1 358 87 is_stmt 0 discriminator 4 view .LVU56
 192 0090 B5F92030 		ldrsh	r3, [r5, #32]
 359:Middlewares/LVGL/GUI/lvgl/src/extra/widgets/meter/lv_meter.c ****                                      scale->rotation + scale->angle_range);
 193              		.loc 1 359 61 discriminator 4 view .LVU57
 194 0094 EE8B     		ldrh	r6, [r5, #30]
 195              		.loc 1 359 54 discriminator 4 view .LVU58
 196 0096 1E44     		add	r6, r6, r3
 358:Middlewares/LVGL/GUI/lvgl/src/extra/widgets/meter/lv_meter.c ****                                      scale->rotation + scale->angle_range);
 197              		.loc 1 358 31 discriminator 4 view .LVU59
 198 0098 AA69     		ldr	r2, [r5, #24]
 199 009a 6969     		ldr	r1, [r5, #20]
 200 009c A068     		ldr	r0, [r4, #8]
 201              	.LVL17:
 358:Middlewares/LVGL/GUI/lvgl/src/extra/widgets/meter/lv_meter.c ****                                      scale->rotation + scale->angle_range);
 202              		.loc 1 358 31 discriminator 4 view .LVU60
 203 009e 0096     		str	r6, [sp]
 204 00a0 FFF7FEFF 		bl	lv_map
 205              	.LVL18:
 206 00a4 0646     		mov	r6, r0
 207              	.LVL19:
 360:Middlewares/LVGL/GUI/lvgl/src/extra/widgets/meter/lv_meter.c ****         int32_t end_angle = lv_map(indic->end_value, scale->min, scale->max, scale->rotation,
 208              		.loc 1 360 9 is_stmt 1 discriminator 4 view .LVU61
 209              		.loc 1 360 83 is_stmt 0 discriminator 4 view .LVU62
 210 00a6 B5F92030 		ldrsh	r3, [r5, #32]
 361:Middlewares/LVGL/GUI/lvgl/src/extra/widgets/meter/lv_meter.c ****                                    scale->rotation + scale->angle_range);
 211              		.loc 1 361 59 discriminator 4 view .LVU63
 212 00aa B5F81EC0 		ldrh	ip, [r5, #30]
 213              		.loc 1 361 52 discriminator 4 view .LVU64
 214 00ae 9C44     		add	ip, ip, r3
ARM GAS  C:\Users\ADMINI~1\AppData\Local\Temp\ccVbA5cL.s 			page 22


 360:Middlewares/LVGL/GUI/lvgl/src/extra/widgets/meter/lv_meter.c ****         int32_t end_angle = lv_map(indic->end_value, scale->min, scale->max, scale->rotation,
 215              		.loc 1 360 29 discriminator 4 view .LVU65
 216 00b0 AA69     		ldr	r2, [r5, #24]
 217 00b2 6969     		ldr	r1, [r5, #20]
 218 00b4 E068     		ldr	r0, [r4, #12]
 219              	.LVL20:
 360:Middlewares/LVGL/GUI/lvgl/src/extra/widgets/meter/lv_meter.c ****         int32_t end_angle = lv_map(indic->end_value, scale->min, scale->max, scale->rotation,
 220              		.loc 1 360 29 discriminator 4 view .LVU66
 221 00b6 CDF800C0 		str	ip, [sp]
 222 00ba FFF7FEFF 		bl	lv_map
 223              	.LVL21:
 224 00be 0546     		mov	r5, r0
 225              	.LVL22:
 362:Middlewares/LVGL/GUI/lvgl/src/extra/widgets/meter/lv_meter.c **** 
 363:Middlewares/LVGL/GUI/lvgl/src/extra/widgets/meter/lv_meter.c ****         part_draw_dsc.radius = r_out + indic->type_data.arc.r_mod;
 226              		.loc 1 363 9 is_stmt 1 discriminator 4 view .LVU67
 227              		.loc 1 363 60 is_stmt 0 discriminator 4 view .LVU68
 228 00c0 B4F91A30 		ldrsh	r3, [r4, #26]
 229              		.loc 1 363 38 discriminator 4 view .LVU69
 230 00c4 5B44     		add	r3, r3, fp
 231              		.loc 1 363 30 discriminator 4 view .LVU70
 232 00c6 1493     		str	r3, [sp, #80]
 364:Middlewares/LVGL/GUI/lvgl/src/extra/widgets/meter/lv_meter.c ****         part_draw_dsc.sub_part_ptr = indic;
 233              		.loc 1 364 9 is_stmt 1 discriminator 4 view .LVU71
 234              		.loc 1 364 36 is_stmt 0 discriminator 4 view .LVU72
 235 00c8 1694     		str	r4, [sp, #88]
 365:Middlewares/LVGL/GUI/lvgl/src/extra/widgets/meter/lv_meter.c ****         part_draw_dsc.p1 = &scale_center;
 236              		.loc 1 365 9 is_stmt 1 discriminator 4 view .LVU73
 237              		.loc 1 365 26 is_stmt 0 discriminator 4 view .LVU74
 238 00ca 0DF15C08 		add	r8, sp, #92
 239 00ce CDF83880 		str	r8, [sp, #56]
 366:Middlewares/LVGL/GUI/lvgl/src/extra/widgets/meter/lv_meter.c **** 
 367:Middlewares/LVGL/GUI/lvgl/src/extra/widgets/meter/lv_meter.c ****         lv_event_send(obj, LV_EVENT_DRAW_PART_BEGIN, &part_draw_dsc);
 240              		.loc 1 367 9 is_stmt 1 discriminator 4 view .LVU75
 241 00d2 05AA     		add	r2, sp, #20
 242 00d4 1A21     		movs	r1, #26
 243 00d6 3846     		mov	r0, r7
 244              	.LVL23:
 245              		.loc 1 367 9 is_stmt 0 discriminator 4 view .LVU76
 246 00d8 FFF7FEFF 		bl	lv_event_send
 247              	.LVL24:
 368:Middlewares/LVGL/GUI/lvgl/src/extra/widgets/meter/lv_meter.c ****         lv_draw_arc(draw_ctx, &arc_dsc, &scale_center, part_draw_dsc.radius, start_angle, end_angle
 248              		.loc 1 368 9 is_stmt 1 discriminator 4 view .LVU77
 249 00dc ADB2     		uxth	r5, r5
 250              	.LVL25:
 251              		.loc 1 368 9 is_stmt 0 discriminator 4 view .LVU78
 252 00de 0195     		str	r5, [sp, #4]
 253 00e0 B6B2     		uxth	r6, r6
 254              	.LVL26:
 255              		.loc 1 368 9 discriminator 4 view .LVU79
 256 00e2 0096     		str	r6, [sp]
 257 00e4 BDF85030 		ldrh	r3, [sp, #80]
 258 00e8 4246     		mov	r2, r8
 259 00ea 19A9     		add	r1, sp, #100
 260 00ec 5046     		mov	r0, r10
 261 00ee FFF7FEFF 		bl	lv_draw_arc
 262              	.LVL27:
ARM GAS  C:\Users\ADMINI~1\AppData\Local\Temp\ccVbA5cL.s 			page 23


 369:Middlewares/LVGL/GUI/lvgl/src/extra/widgets/meter/lv_meter.c ****         lv_event_send(obj, LV_EVENT_DRAW_PART_END, &part_draw_dsc);
 263              		.loc 1 369 9 is_stmt 1 discriminator 4 view .LVU80
 264 00f2 05AA     		add	r2, sp, #20
 265 00f4 1B21     		movs	r1, #27
 266 00f6 3846     		mov	r0, r7
 267 00f8 FFF7FEFF 		bl	lv_event_send
 268              	.LVL28:
 269              	.L3:
 270              		.loc 1 369 9 is_stmt 0 discriminator 4 view .LVU81
 271              	.LBE57:
 349:Middlewares/LVGL/GUI/lvgl/src/extra/widgets/meter/lv_meter.c ****         if(indic->type != LV_METER_INDICATOR_TYPE_ARC) continue;
 272              		.loc 1 349 5 is_stmt 1 discriminator 2 view .LVU82
 273 00fc 2146     		mov	r1, r4
 274 00fe 4846     		mov	r0, r9
 275 0100 FFF7FEFF 		bl	_lv_ll_get_prev
 276              	.LVL29:
 277 0104 0446     		mov	r4, r0
 278              	.LVL30:
 279              	.L2:
 349:Middlewares/LVGL/GUI/lvgl/src/extra/widgets/meter/lv_meter.c ****         if(indic->type != LV_METER_INDICATOR_TYPE_ARC) continue;
 280              		.loc 1 349 5 discriminator 1 view .LVU83
 281 0106 84B1     		cbz	r4, .L8
 282              	.LBB58:
 350:Middlewares/LVGL/GUI/lvgl/src/extra/widgets/meter/lv_meter.c **** 
 283              		.loc 1 350 9 view .LVU84
 350:Middlewares/LVGL/GUI/lvgl/src/extra/widgets/meter/lv_meter.c **** 
 284              		.loc 1 350 17 is_stmt 0 view .LVU85
 285 0108 2379     		ldrb	r3, [r4, #4]	@ zero_extendqisi2
 350:Middlewares/LVGL/GUI/lvgl/src/extra/widgets/meter/lv_meter.c **** 
 286              		.loc 1 350 11 view .LVU86
 287 010a 032B     		cmp	r3, #3
 288 010c F6D1     		bne	.L3
 352:Middlewares/LVGL/GUI/lvgl/src/extra/widgets/meter/lv_meter.c ****         arc_dsc.width = indic->type_data.arc.width;
 289              		.loc 1 352 9 is_stmt 1 view .LVU87
 352:Middlewares/LVGL/GUI/lvgl/src/extra/widgets/meter/lv_meter.c ****         arc_dsc.width = indic->type_data.arc.width;
 290              		.loc 1 352 23 is_stmt 0 view .LVU88
 291 010e 238B     		ldrh	r3, [r4, #24]
 292 0110 ADF86430 		strh	r3, [sp, #100]	@ movhi
 353:Middlewares/LVGL/GUI/lvgl/src/extra/widgets/meter/lv_meter.c ****         arc_dsc.opa = indic->opa > LV_OPA_MAX ? opa_main : (opa_main * indic->opa) >> 8;
 293              		.loc 1 353 9 is_stmt 1 view .LVU89
 353:Middlewares/LVGL/GUI/lvgl/src/extra/widgets/meter/lv_meter.c ****         arc_dsc.opa = indic->opa > LV_OPA_MAX ? opa_main : (opa_main * indic->opa) >> 8;
 294              		.loc 1 353 45 is_stmt 0 view .LVU90
 295 0114 238A     		ldrh	r3, [r4, #16]
 353:Middlewares/LVGL/GUI/lvgl/src/extra/widgets/meter/lv_meter.c ****         arc_dsc.opa = indic->opa > LV_OPA_MAX ? opa_main : (opa_main * indic->opa) >> 8;
 296              		.loc 1 353 23 view .LVU91
 297 0116 1A93     		str	r3, [sp, #104]
 354:Middlewares/LVGL/GUI/lvgl/src/extra/widgets/meter/lv_meter.c **** 
 298              		.loc 1 354 9 is_stmt 1 view .LVU92
 354:Middlewares/LVGL/GUI/lvgl/src/extra/widgets/meter/lv_meter.c **** 
 299              		.loc 1 354 28 is_stmt 0 view .LVU93
 300 0118 6279     		ldrb	r2, [r4, #5]	@ zero_extendqisi2
 354:Middlewares/LVGL/GUI/lvgl/src/extra/widgets/meter/lv_meter.c **** 
 301              		.loc 1 354 21 view .LVU94
 302 011a FD2A     		cmp	r2, #253
 303 011c B4D8     		bhi	.L6
 354:Middlewares/LVGL/GUI/lvgl/src/extra/widgets/meter/lv_meter.c **** 
 304              		.loc 1 354 70 discriminator 1 view .LVU95
ARM GAS  C:\Users\ADMINI~1\AppData\Local\Temp\ccVbA5cL.s 			page 24


 305 011e 9DF80830 		ldrb	r3, [sp, #8]	@ zero_extendqisi2
 306 0122 02FB03F3 		mul	r3, r2, r3
 354:Middlewares/LVGL/GUI/lvgl/src/extra/widgets/meter/lv_meter.c **** 
 307              		.loc 1 354 21 discriminator 1 view .LVU96
 308 0126 1B0A     		lsrs	r3, r3, #8
 309 0128 AFE7     		b	.L4
 310              	.L8:
 311              	.LBE58:
 370:Middlewares/LVGL/GUI/lvgl/src/extra/widgets/meter/lv_meter.c ****     }
 371:Middlewares/LVGL/GUI/lvgl/src/extra/widgets/meter/lv_meter.c **** }
 312              		.loc 1 371 1 view .LVU97
 313 012a 1FB0     		add	sp, sp, #124
 314              	.LCFI2:
 315              		.cfi_def_cfa_offset 36
 316              		@ sp needed
 317 012c BDE8F08F 		pop	{r4, r5, r6, r7, r8, r9, r10, fp, pc}
 318              	.LVL31:
 319              	.L10:
 320              		.loc 1 371 1 view .LVU98
 321              		.align	2
 322              	.L9:
 323 0130 00000000 		.word	.LANCHOR0
 324              		.cfi_endproc
 325              	.LFE211:
 327              		.section	.rodata.draw_ticks_and_labels.str1.4,"aMS",%progbits,1
 328              		.align	2
 329              	.LC0:
 330 0000 256C6400 		.ascii	"%ld\000"
 331              		.section	.text.draw_ticks_and_labels,"ax",%progbits
 332              		.align	1
 333              		.syntax unified
 334              		.thumb
 335              		.thumb_func
 337              	draw_ticks_and_labels:
 338              	.LVL32:
 339              	.LFB212:
 372:Middlewares/LVGL/GUI/lvgl/src/extra/widgets/meter/lv_meter.c **** 
 373:Middlewares/LVGL/GUI/lvgl/src/extra/widgets/meter/lv_meter.c **** static void draw_ticks_and_labels(lv_obj_t * obj, lv_draw_ctx_t * draw_ctx, const lv_area_t * scale
 374:Middlewares/LVGL/GUI/lvgl/src/extra/widgets/meter/lv_meter.c **** {
 340              		.loc 1 374 1 is_stmt 1 view -0
 341              		.cfi_startproc
 342              		@ args = 0, pretend = 0, frame = 456
 343              		@ frame_needed = 0, uses_anonymous_args = 0
 344              		.loc 1 374 1 is_stmt 0 view .LVU100
 345 0000 2DE9F04F 		push	{r4, r5, r6, r7, r8, r9, r10, fp, lr}
 346              	.LCFI3:
 347              		.cfi_def_cfa_offset 36
 348              		.cfi_offset 4, -36
 349              		.cfi_offset 5, -32
 350              		.cfi_offset 6, -28
 351              		.cfi_offset 7, -24
 352              		.cfi_offset 8, -20
 353              		.cfi_offset 9, -16
 354              		.cfi_offset 10, -12
 355              		.cfi_offset 11, -8
 356              		.cfi_offset 14, -4
 357 0004 F7B0     		sub	sp, sp, #476
ARM GAS  C:\Users\ADMINI~1\AppData\Local\Temp\ccVbA5cL.s 			page 25


 358              	.LCFI4:
 359              		.cfi_def_cfa_offset 512
 360 0006 0790     		str	r0, [sp, #28]
 361 0008 0C91     		str	r1, [sp, #48]
 362 000a 1146     		mov	r1, r2
 363              	.LVL33:
 375:Middlewares/LVGL/GUI/lvgl/src/extra/widgets/meter/lv_meter.c ****     lv_meter_t * meter    = (lv_meter_t *)obj;
 364              		.loc 1 375 5 is_stmt 1 view .LVU101
 376:Middlewares/LVGL/GUI/lvgl/src/extra/widgets/meter/lv_meter.c **** 
 377:Middlewares/LVGL/GUI/lvgl/src/extra/widgets/meter/lv_meter.c ****     lv_point_t p_center;
 365              		.loc 1 377 5 view .LVU102
 378:Middlewares/LVGL/GUI/lvgl/src/extra/widgets/meter/lv_meter.c ****     lv_coord_t r_edge = LV_MIN(lv_area_get_width(scale_area) / 2, lv_area_get_height(scale_area) / 
 366              		.loc 1 378 5 view .LVU103
 367              	.LBB73:
 368              	.LBI73:
 123:Middlewares/LVGL/GUI/lvgl/src/extra/widgets/meter/../../../../src/hal/../draw/../misc/../font/../misc/lv_area.h **** {
 369              		.loc 3 123 26 view .LVU104
 370              	.LBB74:
 371              		.loc 3 125 5 view .LVU105
 372              		.loc 3 125 31 is_stmt 0 view .LVU106
 373 000c 9368     		ldr	r3, [r2, #8]
 374              		.loc 3 125 44 view .LVU107
 375 000e 1068     		ldr	r0, [r2]
 376              	.LVL34:
 377              		.loc 3 125 36 view .LVU108
 378 0010 1B1A     		subs	r3, r3, r0
 379              		.loc 3 125 12 view .LVU109
 380 0012 0133     		adds	r3, r3, #1
 381              	.LVL35:
 382              		.loc 3 125 12 view .LVU110
 383              	.LBE74:
 384              	.LBE73:
 385              		.loc 1 378 25 view .LVU111
 386 0014 03EBD373 		add	r3, r3, r3, lsr #31
 387              	.LVL36:
 388              	.LBB75:
 389              	.LBI75:
 126:Middlewares/LVGL/GUI/lvgl/src/extra/widgets/meter/../../../../src/hal/../draw/../misc/../font/../misc/lv_area.h **** }
 127:Middlewares/LVGL/GUI/lvgl/src/extra/widgets/meter/../../../../src/hal/../draw/../misc/../font/../misc/lv_area.h **** 
 128:Middlewares/LVGL/GUI/lvgl/src/extra/widgets/meter/../../../../src/hal/../draw/../misc/../font/../misc/lv_area.h **** /**
 129:Middlewares/LVGL/GUI/lvgl/src/extra/widgets/meter/../../../../src/hal/../draw/../misc/../font/../misc/lv_area.h ****  * Get the height of an area
 130:Middlewares/LVGL/GUI/lvgl/src/extra/widgets/meter/../../../../src/hal/../draw/../misc/../font/../misc/lv_area.h ****  * @param area_p pointer to an area
 131:Middlewares/LVGL/GUI/lvgl/src/extra/widgets/meter/../../../../src/hal/../draw/../misc/../font/../misc/lv_area.h ****  * @return the height of the area (if y1 == y2 -> height = 1)
 132:Middlewares/LVGL/GUI/lvgl/src/extra/widgets/meter/../../../../src/hal/../draw/../misc/../font/../misc/lv_area.h ****  */
 133:Middlewares/LVGL/GUI/lvgl/src/extra/widgets/meter/../../../../src/hal/../draw/../misc/../font/../misc/lv_area.h **** static inline lv_coord_t lv_area_get_height(const lv_area_t * area_p)
 390              		.loc 3 133 26 is_stmt 1 view .LVU112
 391              	.LBB76:
 134:Middlewares/LVGL/GUI/lvgl/src/extra/widgets/meter/../../../../src/hal/../draw/../misc/../font/../misc/lv_area.h **** {
 135:Middlewares/LVGL/GUI/lvgl/src/extra/widgets/meter/../../../../src/hal/../draw/../misc/../font/../misc/lv_area.h ****     return (lv_coord_t)(area_p->y2 - area_p->y1 + 1);
 392              		.loc 3 135 5 view .LVU113
 393              		.loc 3 135 31 is_stmt 0 view .LVU114
 394 0018 D268     		ldr	r2, [r2, #12]
 395              	.LVL37:
 396              		.loc 3 135 44 view .LVU115
 397 001a 4968     		ldr	r1, [r1, #4]
 398              	.LVL38:
 399              		.loc 3 135 36 view .LVU116
ARM GAS  C:\Users\ADMINI~1\AppData\Local\Temp\ccVbA5cL.s 			page 26


 400 001c 521A     		subs	r2, r2, r1
 401              		.loc 3 135 12 view .LVU117
 402 001e 0132     		adds	r2, r2, #1
 403              	.LVL39:
 404              		.loc 3 135 12 view .LVU118
 405              	.LBE76:
 406              	.LBE75:
 407              		.loc 1 378 25 view .LVU119
 408 0020 02EBD272 		add	r2, r2, r2, lsr #31
 409 0024 5210     		asrs	r2, r2, #1
 410 0026 1092     		str	r2, [sp, #64]
 411 0028 B2EB630F 		cmp	r2, r3, asr #1
 412 002c 01DD     		ble	.L12
 413 002e 5C10     		asrs	r4, r3, #1
 414 0030 1094     		str	r4, [sp, #64]
 415              	.L12:
 416              	.LVL40:
 379:Middlewares/LVGL/GUI/lvgl/src/extra/widgets/meter/lv_meter.c ****     p_center.x = scale_area->x1 + r_edge;
 417              		.loc 1 379 5 is_stmt 1 discriminator 4 view .LVU120
 418              		.loc 1 379 33 is_stmt 0 discriminator 4 view .LVU121
 419 0032 109B     		ldr	r3, [sp, #64]
 420 0034 1844     		add	r0, r0, r3
 421              		.loc 1 379 16 discriminator 4 view .LVU122
 422 0036 7490     		str	r0, [sp, #464]
 380:Middlewares/LVGL/GUI/lvgl/src/extra/widgets/meter/lv_meter.c ****     p_center.y = scale_area->y1 + r_edge;
 423              		.loc 1 380 5 is_stmt 1 discriminator 4 view .LVU123
 424              		.loc 1 380 33 is_stmt 0 discriminator 4 view .LVU124
 425 0038 1944     		add	r1, r1, r3
 426              		.loc 1 380 16 discriminator 4 view .LVU125
 427 003a 7591     		str	r1, [sp, #468]
 381:Middlewares/LVGL/GUI/lvgl/src/extra/widgets/meter/lv_meter.c **** 
 382:Middlewares/LVGL/GUI/lvgl/src/extra/widgets/meter/lv_meter.c ****     uint8_t i;
 428              		.loc 1 382 5 is_stmt 1 discriminator 4 view .LVU126
 383:Middlewares/LVGL/GUI/lvgl/src/extra/widgets/meter/lv_meter.c **** 
 384:Middlewares/LVGL/GUI/lvgl/src/extra/widgets/meter/lv_meter.c ****     lv_draw_line_dsc_t line_dsc;
 429              		.loc 1 384 5 discriminator 4 view .LVU127
 385:Middlewares/LVGL/GUI/lvgl/src/extra/widgets/meter/lv_meter.c ****     lv_draw_line_dsc_init(&line_dsc);
 430              		.loc 1 385 5 discriminator 4 view .LVU128
 431 003c 6FAC     		add	r4, sp, #444
 432 003e 2046     		mov	r0, r4
 433 0040 FFF7FEFF 		bl	lv_draw_line_dsc_init
 434              	.LVL41:
 386:Middlewares/LVGL/GUI/lvgl/src/extra/widgets/meter/lv_meter.c ****     lv_obj_init_draw_line_dsc(obj, LV_PART_TICKS, &line_dsc);
 435              		.loc 1 386 5 discriminator 4 view .LVU129
 436 0044 2246     		mov	r2, r4
 437 0046 4FF4C021 		mov	r1, #393216
 438 004a 079D     		ldr	r5, [sp, #28]
 439 004c 2846     		mov	r0, r5
 440 004e FFF7FEFF 		bl	lv_obj_init_draw_line_dsc
 441              	.LVL42:
 387:Middlewares/LVGL/GUI/lvgl/src/extra/widgets/meter/lv_meter.c ****     line_dsc.raw_end = 1;
 442              		.loc 1 387 5 discriminator 4 view .LVU130
 443              		.loc 1 387 22 is_stmt 0 discriminator 4 view .LVU131
 444 0052 9DF8CD31 		ldrb	r3, [sp, #461]	@ zero_extendqisi2
 445 0056 43F01003 		orr	r3, r3, #16
 446 005a 8DF8CD31 		strb	r3, [sp, #461]
 388:Middlewares/LVGL/GUI/lvgl/src/extra/widgets/meter/lv_meter.c **** 
ARM GAS  C:\Users\ADMINI~1\AppData\Local\Temp\ccVbA5cL.s 			page 27


 389:Middlewares/LVGL/GUI/lvgl/src/extra/widgets/meter/lv_meter.c ****     lv_draw_label_dsc_t label_dsc;
 447              		.loc 1 389 5 is_stmt 1 discriminator 4 view .LVU132
 390:Middlewares/LVGL/GUI/lvgl/src/extra/widgets/meter/lv_meter.c ****     lv_draw_label_dsc_init(&label_dsc);
 448              		.loc 1 390 5 discriminator 4 view .LVU133
 449 005e 64A8     		add	r0, sp, #400
 450 0060 FFF7FEFF 		bl	lv_draw_label_dsc_init
 451              	.LVL43:
 391:Middlewares/LVGL/GUI/lvgl/src/extra/widgets/meter/lv_meter.c ****     lv_obj_init_draw_label_dsc(obj, LV_PART_TICKS, &label_dsc);
 452              		.loc 1 391 5 discriminator 4 view .LVU134
 453 0064 64AA     		add	r2, sp, #400
 454 0066 4FF4C021 		mov	r1, #393216
 455 006a 2846     		mov	r0, r5
 456 006c FFF7FEFF 		bl	lv_obj_init_draw_label_dsc
 457              	.LVL44:
 392:Middlewares/LVGL/GUI/lvgl/src/extra/widgets/meter/lv_meter.c **** 
 393:Middlewares/LVGL/GUI/lvgl/src/extra/widgets/meter/lv_meter.c ****     lv_meter_scale_t * scale;
 458              		.loc 1 393 5 discriminator 4 view .LVU135
 394:Middlewares/LVGL/GUI/lvgl/src/extra/widgets/meter/lv_meter.c **** 
 395:Middlewares/LVGL/GUI/lvgl/src/extra/widgets/meter/lv_meter.c ****     lv_draw_mask_radius_param_t inner_minor_mask;
 459              		.loc 1 395 5 discriminator 4 view .LVU136
 396:Middlewares/LVGL/GUI/lvgl/src/extra/widgets/meter/lv_meter.c ****     lv_draw_mask_radius_param_t inner_major_mask;
 460              		.loc 1 396 5 discriminator 4 view .LVU137
 397:Middlewares/LVGL/GUI/lvgl/src/extra/widgets/meter/lv_meter.c ****     lv_draw_mask_radius_param_t outer_mask;
 461              		.loc 1 397 5 discriminator 4 view .LVU138
 398:Middlewares/LVGL/GUI/lvgl/src/extra/widgets/meter/lv_meter.c **** 
 399:Middlewares/LVGL/GUI/lvgl/src/extra/widgets/meter/lv_meter.c ****     lv_obj_draw_part_dsc_t part_draw_dsc;
 462              		.loc 1 399 5 discriminator 4 view .LVU139
 400:Middlewares/LVGL/GUI/lvgl/src/extra/widgets/meter/lv_meter.c ****     lv_obj_draw_dsc_init(&part_draw_dsc, draw_ctx);
 463              		.loc 1 400 5 discriminator 4 view .LVU140
 464 0070 0C99     		ldr	r1, [sp, #48]
 465 0072 37A8     		add	r0, sp, #220
 466 0074 FFF7FEFF 		bl	lv_obj_draw_dsc_init
 467              	.LVL45:
 401:Middlewares/LVGL/GUI/lvgl/src/extra/widgets/meter/lv_meter.c ****     part_draw_dsc.class_p = MY_CLASS;
 468              		.loc 1 401 5 discriminator 4 view .LVU141
 469              		.loc 1 401 27 is_stmt 0 discriminator 4 view .LVU142
 470 0078 B84B     		ldr	r3, .L40
 471 007a 3893     		str	r3, [sp, #224]
 402:Middlewares/LVGL/GUI/lvgl/src/extra/widgets/meter/lv_meter.c ****     part_draw_dsc.part = LV_PART_TICKS;
 472              		.loc 1 402 5 is_stmt 1 discriminator 4 view .LVU143
 473              		.loc 1 402 24 is_stmt 0 discriminator 4 view .LVU144
 474 007c 4FF4C023 		mov	r3, #393216
 475 0080 4493     		str	r3, [sp, #272]
 403:Middlewares/LVGL/GUI/lvgl/src/extra/widgets/meter/lv_meter.c ****     part_draw_dsc.type = LV_METER_DRAW_PART_TICK;
 476              		.loc 1 403 5 is_stmt 1 discriminator 4 view .LVU145
 477              		.loc 1 403 24 is_stmt 0 discriminator 4 view .LVU146
 478 0082 0323     		movs	r3, #3
 479 0084 3993     		str	r3, [sp, #228]
 404:Middlewares/LVGL/GUI/lvgl/src/extra/widgets/meter/lv_meter.c ****     part_draw_dsc.line_dsc = &line_dsc;
 480              		.loc 1 404 5 is_stmt 1 discriminator 4 view .LVU147
 481              		.loc 1 404 28 is_stmt 0 discriminator 4 view .LVU148
 482 0086 3D94     		str	r4, [sp, #244]
 405:Middlewares/LVGL/GUI/lvgl/src/extra/widgets/meter/lv_meter.c **** 
 406:Middlewares/LVGL/GUI/lvgl/src/extra/widgets/meter/lv_meter.c ****     _LV_LL_READ_BACK(&meter->scale_ll, scale) {
 483              		.loc 1 406 5 is_stmt 1 discriminator 4 view .LVU149
 484 0088 2B46     		mov	r3, r5
 485 008a 2C33     		adds	r3, r3, #44
ARM GAS  C:\Users\ADMINI~1\AppData\Local\Temp\ccVbA5cL.s 			page 28


 486 008c 1193     		str	r3, [sp, #68]
 487 008e 1846     		mov	r0, r3
 488 0090 FFF7FEFF 		bl	_lv_ll_get_tail
 489              	.LVL46:
 490 0094 8346     		mov	fp, r0
 491              	.LVL47:
 492              		.loc 1 406 5 is_stmt 0 discriminator 4 view .LVU150
 493 0096 82E1     		b	.L13
 494              	.LVL48:
 495              	.L33:
 496              	.LBB77:
 497              	.LBB78:
 407:Middlewares/LVGL/GUI/lvgl/src/extra/widgets/meter/lv_meter.c ****         part_draw_dsc.sub_part_ptr = scale;
 408:Middlewares/LVGL/GUI/lvgl/src/extra/widgets/meter/lv_meter.c **** 
 409:Middlewares/LVGL/GUI/lvgl/src/extra/widgets/meter/lv_meter.c ****         lv_coord_t r_out = r_edge + scale->r_mod;
 410:Middlewares/LVGL/GUI/lvgl/src/extra/widgets/meter/lv_meter.c ****         lv_coord_t r_in_minor = r_out - scale->tick_length;
 411:Middlewares/LVGL/GUI/lvgl/src/extra/widgets/meter/lv_meter.c ****         lv_coord_t r_in_major = r_out - scale->tick_major_length;
 412:Middlewares/LVGL/GUI/lvgl/src/extra/widgets/meter/lv_meter.c **** 
 413:Middlewares/LVGL/GUI/lvgl/src/extra/widgets/meter/lv_meter.c ****         lv_area_t area_inner_minor;
 414:Middlewares/LVGL/GUI/lvgl/src/extra/widgets/meter/lv_meter.c ****         area_inner_minor.x1 = p_center.x - r_in_minor;
 415:Middlewares/LVGL/GUI/lvgl/src/extra/widgets/meter/lv_meter.c ****         area_inner_minor.y1 = p_center.y - r_in_minor;
 416:Middlewares/LVGL/GUI/lvgl/src/extra/widgets/meter/lv_meter.c ****         area_inner_minor.x2 = p_center.x + r_in_minor;
 417:Middlewares/LVGL/GUI/lvgl/src/extra/widgets/meter/lv_meter.c ****         area_inner_minor.y2 = p_center.y + r_in_minor;
 418:Middlewares/LVGL/GUI/lvgl/src/extra/widgets/meter/lv_meter.c ****         lv_draw_mask_radius_init(&inner_minor_mask, &area_inner_minor, LV_RADIUS_CIRCLE, true);
 419:Middlewares/LVGL/GUI/lvgl/src/extra/widgets/meter/lv_meter.c **** 
 420:Middlewares/LVGL/GUI/lvgl/src/extra/widgets/meter/lv_meter.c ****         lv_area_t area_inner_major;
 421:Middlewares/LVGL/GUI/lvgl/src/extra/widgets/meter/lv_meter.c ****         area_inner_major.x1 = p_center.x - r_in_major;
 422:Middlewares/LVGL/GUI/lvgl/src/extra/widgets/meter/lv_meter.c ****         area_inner_major.y1 = p_center.y - r_in_major;
 423:Middlewares/LVGL/GUI/lvgl/src/extra/widgets/meter/lv_meter.c ****         area_inner_major.x2 = p_center.x + r_in_major - 1;
 424:Middlewares/LVGL/GUI/lvgl/src/extra/widgets/meter/lv_meter.c ****         area_inner_major.y2 = p_center.y + r_in_major - 1;
 425:Middlewares/LVGL/GUI/lvgl/src/extra/widgets/meter/lv_meter.c ****         lv_draw_mask_radius_init(&inner_major_mask, &area_inner_major, LV_RADIUS_CIRCLE, true);
 426:Middlewares/LVGL/GUI/lvgl/src/extra/widgets/meter/lv_meter.c **** 
 427:Middlewares/LVGL/GUI/lvgl/src/extra/widgets/meter/lv_meter.c ****         lv_area_t area_outer;
 428:Middlewares/LVGL/GUI/lvgl/src/extra/widgets/meter/lv_meter.c ****         area_outer.x1 = p_center.x - r_out;
 429:Middlewares/LVGL/GUI/lvgl/src/extra/widgets/meter/lv_meter.c ****         area_outer.y1 = p_center.y - r_out;
 430:Middlewares/LVGL/GUI/lvgl/src/extra/widgets/meter/lv_meter.c ****         area_outer.x2 = p_center.x + r_out - 1;
 431:Middlewares/LVGL/GUI/lvgl/src/extra/widgets/meter/lv_meter.c ****         area_outer.y2 = p_center.y + r_out - 1;
 432:Middlewares/LVGL/GUI/lvgl/src/extra/widgets/meter/lv_meter.c ****         lv_draw_mask_radius_init(&outer_mask, &area_outer, LV_RADIUS_CIRCLE, false);
 433:Middlewares/LVGL/GUI/lvgl/src/extra/widgets/meter/lv_meter.c ****         int16_t outer_mask_id = lv_draw_mask_add(&outer_mask, NULL);
 434:Middlewares/LVGL/GUI/lvgl/src/extra/widgets/meter/lv_meter.c **** 
 435:Middlewares/LVGL/GUI/lvgl/src/extra/widgets/meter/lv_meter.c ****         int16_t inner_act_mask_id = LV_MASK_ID_INV; /*Will be added later*/
 436:Middlewares/LVGL/GUI/lvgl/src/extra/widgets/meter/lv_meter.c **** 
 437:Middlewares/LVGL/GUI/lvgl/src/extra/widgets/meter/lv_meter.c ****         uint32_t minor_cnt = scale->tick_major_nth ? scale->tick_major_nth - 1 : 0xFFFF;
 438:Middlewares/LVGL/GUI/lvgl/src/extra/widgets/meter/lv_meter.c ****         for(i = 0; i < scale->tick_cnt; i++) {
 439:Middlewares/LVGL/GUI/lvgl/src/extra/widgets/meter/lv_meter.c ****             minor_cnt++;
 440:Middlewares/LVGL/GUI/lvgl/src/extra/widgets/meter/lv_meter.c ****             bool major = false;
 441:Middlewares/LVGL/GUI/lvgl/src/extra/widgets/meter/lv_meter.c ****             if(minor_cnt == scale->tick_major_nth) {
 442:Middlewares/LVGL/GUI/lvgl/src/extra/widgets/meter/lv_meter.c ****                 minor_cnt = 0;
 443:Middlewares/LVGL/GUI/lvgl/src/extra/widgets/meter/lv_meter.c ****                 major = true;
 498              		.loc 1 443 23 view .LVU151
 499 0098 0123     		movs	r3, #1
 500 009a 0693     		str	r3, [sp, #24]
 442:Middlewares/LVGL/GUI/lvgl/src/extra/widgets/meter/lv_meter.c ****                 major = true;
 501              		.loc 1 442 27 view .LVU152
 502 009c 0023     		movs	r3, #0
 503 009e 0993     		str	r3, [sp, #36]
 504 00a0 2CE1     		b	.L15
ARM GAS  C:\Users\ADMINI~1\AppData\Local\Temp\ccVbA5cL.s 			page 29


 505              	.LVL49:
 506              	.L16:
 444:Middlewares/LVGL/GUI/lvgl/src/extra/widgets/meter/lv_meter.c ****             }
 445:Middlewares/LVGL/GUI/lvgl/src/extra/widgets/meter/lv_meter.c **** 
 446:Middlewares/LVGL/GUI/lvgl/src/extra/widgets/meter/lv_meter.c ****             int32_t value_of_line = lv_map(i, 0, scale->tick_cnt - 1, scale->min, scale->max);
 447:Middlewares/LVGL/GUI/lvgl/src/extra/widgets/meter/lv_meter.c ****             part_draw_dsc.value = value_of_line;
 448:Middlewares/LVGL/GUI/lvgl/src/extra/widgets/meter/lv_meter.c **** 
 449:Middlewares/LVGL/GUI/lvgl/src/extra/widgets/meter/lv_meter.c ****             lv_color_t line_color = major ? scale->tick_major_color : scale->tick_color;
 507              		.loc 1 449 24 discriminator 2 view .LVU153
 508 00a2 BBF80050 		ldrh	r5, [fp]
 509              	.LVL50:
 510              		.loc 1 449 24 discriminator 2 view .LVU154
 511 00a6 3CE1     		b	.L17
 512              	.LVL51:
 513              	.L18:
 450:Middlewares/LVGL/GUI/lvgl/src/extra/widgets/meter/lv_meter.c ****             lv_color_t line_color_ori = line_color;
 451:Middlewares/LVGL/GUI/lvgl/src/extra/widgets/meter/lv_meter.c **** 
 452:Middlewares/LVGL/GUI/lvgl/src/extra/widgets/meter/lv_meter.c ****             lv_coord_t line_width_ori = major ? scale->tick_major_width : scale->tick_width;
 514              		.loc 1 452 80 discriminator 2 view .LVU155
 515 00a8 BBF80630 		ldrh	r3, [fp, #6]
 516 00ac 0893     		str	r3, [sp, #32]
 517 00ae 41E1     		b	.L19
 518              	.LVL52:
 519              	.L37:
 453:Middlewares/LVGL/GUI/lvgl/src/extra/widgets/meter/lv_meter.c ****             lv_coord_t line_width = line_width_ori;
 454:Middlewares/LVGL/GUI/lvgl/src/extra/widgets/meter/lv_meter.c **** 
 455:Middlewares/LVGL/GUI/lvgl/src/extra/widgets/meter/lv_meter.c ****             lv_meter_indicator_t * indic;
 456:Middlewares/LVGL/GUI/lvgl/src/extra/widgets/meter/lv_meter.c ****             _LV_LL_READ_BACK(&meter->indicator_ll, indic) {
 457:Middlewares/LVGL/GUI/lvgl/src/extra/widgets/meter/lv_meter.c ****                 if(indic->type != LV_METER_INDICATOR_TYPE_SCALE_LINES) continue;
 458:Middlewares/LVGL/GUI/lvgl/src/extra/widgets/meter/lv_meter.c ****                 if(value_of_line >= indic->start_value && value_of_line <= indic->end_value) {
 459:Middlewares/LVGL/GUI/lvgl/src/extra/widgets/meter/lv_meter.c ****                     line_width += indic->type_data.scale_lines.width_mod;
 460:Middlewares/LVGL/GUI/lvgl/src/extra/widgets/meter/lv_meter.c **** 
 461:Middlewares/LVGL/GUI/lvgl/src/extra/widgets/meter/lv_meter.c ****                     if(indic->type_data.scale_lines.color_start.full == indic->type_data.scale_line
 462:Middlewares/LVGL/GUI/lvgl/src/extra/widgets/meter/lv_meter.c ****                         line_color = indic->type_data.scale_lines.color_start;
 520              		.loc 1 462 25 is_stmt 1 view .LVU156
 521              		.loc 1 462 36 is_stmt 0 view .LVU157
 522 00b0 658A     		ldrh	r5, [r4, #18]
 523              	.LVL53:
 524              		.loc 1 462 36 view .LVU158
 525 00b2 1EE0     		b	.L21
 526              	.LVL54:
 527              	.L23:
 528              	.LBB79:
 463:Middlewares/LVGL/GUI/lvgl/src/extra/widgets/meter/lv_meter.c ****                     }
 464:Middlewares/LVGL/GUI/lvgl/src/extra/widgets/meter/lv_meter.c ****                     else {
 465:Middlewares/LVGL/GUI/lvgl/src/extra/widgets/meter/lv_meter.c ****                         lv_opa_t ratio;
 466:Middlewares/LVGL/GUI/lvgl/src/extra/widgets/meter/lv_meter.c ****                         if(indic->type_data.scale_lines.local_grad) {
 467:Middlewares/LVGL/GUI/lvgl/src/extra/widgets/meter/lv_meter.c ****                             ratio = lv_map(value_of_line, indic->start_value, indic->end_value, LV_
 468:Middlewares/LVGL/GUI/lvgl/src/extra/widgets/meter/lv_meter.c ****                         }
 469:Middlewares/LVGL/GUI/lvgl/src/extra/widgets/meter/lv_meter.c ****                         else {
 470:Middlewares/LVGL/GUI/lvgl/src/extra/widgets/meter/lv_meter.c ****                             ratio = lv_map(value_of_line, scale->min, scale->max, LV_OPA_TRANSP, LV
 529              		.loc 1 470 29 is_stmt 1 view .LVU159
 530              		.loc 1 470 37 is_stmt 0 view .LVU160
 531 00b4 DBF81820 		ldr	r2, [fp, #24]
 532 00b8 DBF81410 		ldr	r1, [fp, #20]
 533 00bc FF23     		movs	r3, #255
 534 00be 0093     		str	r3, [sp]
ARM GAS  C:\Users\ADMINI~1\AppData\Local\Temp\ccVbA5cL.s 			page 30


 535 00c0 0023     		movs	r3, #0
 536 00c2 3846     		mov	r0, r7
 537 00c4 FFF7FEFF 		bl	lv_map
 538              	.LVL55:
 539              		.loc 1 470 35 view .LVU161
 540 00c8 C5B2     		uxtb	r5, r0
 541              	.LVL56:
 542              	.L24:
 471:Middlewares/LVGL/GUI/lvgl/src/extra/widgets/meter/lv_meter.c ****                         }
 472:Middlewares/LVGL/GUI/lvgl/src/extra/widgets/meter/lv_meter.c ****                         line_color = lv_color_mix(indic->type_data.scale_lines.color_end, indic->ty
 543              		.loc 1 472 25 is_stmt 1 view .LVU162
 544              	.LBB80:
 545              	.LBI80:
 546              		.file 4 "Middlewares/LVGL/GUI/lvgl/src/extra/widgets/meter/../../../../src/hal/../draw/../misc/lv_
   1:Middlewares/LVGL/GUI/lvgl/src/extra/widgets/meter/../../../../src/hal/../draw/../misc/lv_color.h **** /**
   2:Middlewares/LVGL/GUI/lvgl/src/extra/widgets/meter/../../../../src/hal/../draw/../misc/lv_color.h ****  * @file lv_color.h
   3:Middlewares/LVGL/GUI/lvgl/src/extra/widgets/meter/../../../../src/hal/../draw/../misc/lv_color.h ****  *
   4:Middlewares/LVGL/GUI/lvgl/src/extra/widgets/meter/../../../../src/hal/../draw/../misc/lv_color.h ****  */
   5:Middlewares/LVGL/GUI/lvgl/src/extra/widgets/meter/../../../../src/hal/../draw/../misc/lv_color.h **** 
   6:Middlewares/LVGL/GUI/lvgl/src/extra/widgets/meter/../../../../src/hal/../draw/../misc/lv_color.h **** #ifndef LV_COLOR_H
   7:Middlewares/LVGL/GUI/lvgl/src/extra/widgets/meter/../../../../src/hal/../draw/../misc/lv_color.h **** #define LV_COLOR_H
   8:Middlewares/LVGL/GUI/lvgl/src/extra/widgets/meter/../../../../src/hal/../draw/../misc/lv_color.h **** 
   9:Middlewares/LVGL/GUI/lvgl/src/extra/widgets/meter/../../../../src/hal/../draw/../misc/lv_color.h **** #ifdef __cplusplus
  10:Middlewares/LVGL/GUI/lvgl/src/extra/widgets/meter/../../../../src/hal/../draw/../misc/lv_color.h **** extern "C" {
  11:Middlewares/LVGL/GUI/lvgl/src/extra/widgets/meter/../../../../src/hal/../draw/../misc/lv_color.h **** #endif
  12:Middlewares/LVGL/GUI/lvgl/src/extra/widgets/meter/../../../../src/hal/../draw/../misc/lv_color.h **** 
  13:Middlewares/LVGL/GUI/lvgl/src/extra/widgets/meter/../../../../src/hal/../draw/../misc/lv_color.h **** /*********************
  14:Middlewares/LVGL/GUI/lvgl/src/extra/widgets/meter/../../../../src/hal/../draw/../misc/lv_color.h ****  *      INCLUDES
  15:Middlewares/LVGL/GUI/lvgl/src/extra/widgets/meter/../../../../src/hal/../draw/../misc/lv_color.h ****  *********************/
  16:Middlewares/LVGL/GUI/lvgl/src/extra/widgets/meter/../../../../src/hal/../draw/../misc/lv_color.h **** #include "../lv_conf_internal.h"
  17:Middlewares/LVGL/GUI/lvgl/src/extra/widgets/meter/../../../../src/hal/../draw/../misc/lv_color.h **** #include "lv_assert.h"
  18:Middlewares/LVGL/GUI/lvgl/src/extra/widgets/meter/../../../../src/hal/../draw/../misc/lv_color.h **** #include "lv_math.h"
  19:Middlewares/LVGL/GUI/lvgl/src/extra/widgets/meter/../../../../src/hal/../draw/../misc/lv_color.h **** #include "lv_types.h"
  20:Middlewares/LVGL/GUI/lvgl/src/extra/widgets/meter/../../../../src/hal/../draw/../misc/lv_color.h **** 
  21:Middlewares/LVGL/GUI/lvgl/src/extra/widgets/meter/../../../../src/hal/../draw/../misc/lv_color.h **** /*Error checking*/
  22:Middlewares/LVGL/GUI/lvgl/src/extra/widgets/meter/../../../../src/hal/../draw/../misc/lv_color.h **** #if LV_COLOR_DEPTH == 24
  23:Middlewares/LVGL/GUI/lvgl/src/extra/widgets/meter/../../../../src/hal/../draw/../misc/lv_color.h **** #error "LV_COLOR_DEPTH 24 is deprecated. Use LV_COLOR_DEPTH 32 instead (lv_conf.h)"
  24:Middlewares/LVGL/GUI/lvgl/src/extra/widgets/meter/../../../../src/hal/../draw/../misc/lv_color.h **** #endif
  25:Middlewares/LVGL/GUI/lvgl/src/extra/widgets/meter/../../../../src/hal/../draw/../misc/lv_color.h **** 
  26:Middlewares/LVGL/GUI/lvgl/src/extra/widgets/meter/../../../../src/hal/../draw/../misc/lv_color.h **** #if LV_COLOR_DEPTH != 32 && LV_COLOR_SCREEN_TRANSP != 0
  27:Middlewares/LVGL/GUI/lvgl/src/extra/widgets/meter/../../../../src/hal/../draw/../misc/lv_color.h **** #error "LV_COLOR_SCREEN_TRANSP requires LV_COLOR_DEPTH == 32. Set it in lv_conf.h"
  28:Middlewares/LVGL/GUI/lvgl/src/extra/widgets/meter/../../../../src/hal/../draw/../misc/lv_color.h **** #endif
  29:Middlewares/LVGL/GUI/lvgl/src/extra/widgets/meter/../../../../src/hal/../draw/../misc/lv_color.h **** 
  30:Middlewares/LVGL/GUI/lvgl/src/extra/widgets/meter/../../../../src/hal/../draw/../misc/lv_color.h **** #if LV_COLOR_DEPTH != 16 && LV_COLOR_16_SWAP != 0
  31:Middlewares/LVGL/GUI/lvgl/src/extra/widgets/meter/../../../../src/hal/../draw/../misc/lv_color.h **** #error "LV_COLOR_16_SWAP requires LV_COLOR_DEPTH == 16. Set it in lv_conf.h"
  32:Middlewares/LVGL/GUI/lvgl/src/extra/widgets/meter/../../../../src/hal/../draw/../misc/lv_color.h **** #endif
  33:Middlewares/LVGL/GUI/lvgl/src/extra/widgets/meter/../../../../src/hal/../draw/../misc/lv_color.h **** 
  34:Middlewares/LVGL/GUI/lvgl/src/extra/widgets/meter/../../../../src/hal/../draw/../misc/lv_color.h **** #include <stdint.h>
  35:Middlewares/LVGL/GUI/lvgl/src/extra/widgets/meter/../../../../src/hal/../draw/../misc/lv_color.h **** 
  36:Middlewares/LVGL/GUI/lvgl/src/extra/widgets/meter/../../../../src/hal/../draw/../misc/lv_color.h **** /*********************
  37:Middlewares/LVGL/GUI/lvgl/src/extra/widgets/meter/../../../../src/hal/../draw/../misc/lv_color.h ****  *      DEFINES
  38:Middlewares/LVGL/GUI/lvgl/src/extra/widgets/meter/../../../../src/hal/../draw/../misc/lv_color.h ****  *********************/
  39:Middlewares/LVGL/GUI/lvgl/src/extra/widgets/meter/../../../../src/hal/../draw/../misc/lv_color.h **** LV_EXPORT_CONST_INT(LV_COLOR_DEPTH);
  40:Middlewares/LVGL/GUI/lvgl/src/extra/widgets/meter/../../../../src/hal/../draw/../misc/lv_color.h **** LV_EXPORT_CONST_INT(LV_COLOR_16_SWAP);
  41:Middlewares/LVGL/GUI/lvgl/src/extra/widgets/meter/../../../../src/hal/../draw/../misc/lv_color.h **** 
  42:Middlewares/LVGL/GUI/lvgl/src/extra/widgets/meter/../../../../src/hal/../draw/../misc/lv_color.h **** /**
  43:Middlewares/LVGL/GUI/lvgl/src/extra/widgets/meter/../../../../src/hal/../draw/../misc/lv_color.h ****  * Opacity percentages.
ARM GAS  C:\Users\ADMINI~1\AppData\Local\Temp\ccVbA5cL.s 			page 31


  44:Middlewares/LVGL/GUI/lvgl/src/extra/widgets/meter/../../../../src/hal/../draw/../misc/lv_color.h ****  */
  45:Middlewares/LVGL/GUI/lvgl/src/extra/widgets/meter/../../../../src/hal/../draw/../misc/lv_color.h **** enum {
  46:Middlewares/LVGL/GUI/lvgl/src/extra/widgets/meter/../../../../src/hal/../draw/../misc/lv_color.h ****     LV_OPA_TRANSP = 0,
  47:Middlewares/LVGL/GUI/lvgl/src/extra/widgets/meter/../../../../src/hal/../draw/../misc/lv_color.h ****     LV_OPA_0      = 0,
  48:Middlewares/LVGL/GUI/lvgl/src/extra/widgets/meter/../../../../src/hal/../draw/../misc/lv_color.h ****     LV_OPA_10     = 25,
  49:Middlewares/LVGL/GUI/lvgl/src/extra/widgets/meter/../../../../src/hal/../draw/../misc/lv_color.h ****     LV_OPA_20     = 51,
  50:Middlewares/LVGL/GUI/lvgl/src/extra/widgets/meter/../../../../src/hal/../draw/../misc/lv_color.h ****     LV_OPA_30     = 76,
  51:Middlewares/LVGL/GUI/lvgl/src/extra/widgets/meter/../../../../src/hal/../draw/../misc/lv_color.h ****     LV_OPA_40     = 102,
  52:Middlewares/LVGL/GUI/lvgl/src/extra/widgets/meter/../../../../src/hal/../draw/../misc/lv_color.h ****     LV_OPA_50     = 127,
  53:Middlewares/LVGL/GUI/lvgl/src/extra/widgets/meter/../../../../src/hal/../draw/../misc/lv_color.h ****     LV_OPA_60     = 153,
  54:Middlewares/LVGL/GUI/lvgl/src/extra/widgets/meter/../../../../src/hal/../draw/../misc/lv_color.h ****     LV_OPA_70     = 178,
  55:Middlewares/LVGL/GUI/lvgl/src/extra/widgets/meter/../../../../src/hal/../draw/../misc/lv_color.h ****     LV_OPA_80     = 204,
  56:Middlewares/LVGL/GUI/lvgl/src/extra/widgets/meter/../../../../src/hal/../draw/../misc/lv_color.h ****     LV_OPA_90     = 229,
  57:Middlewares/LVGL/GUI/lvgl/src/extra/widgets/meter/../../../../src/hal/../draw/../misc/lv_color.h ****     LV_OPA_100    = 255,
  58:Middlewares/LVGL/GUI/lvgl/src/extra/widgets/meter/../../../../src/hal/../draw/../misc/lv_color.h ****     LV_OPA_COVER  = 255,
  59:Middlewares/LVGL/GUI/lvgl/src/extra/widgets/meter/../../../../src/hal/../draw/../misc/lv_color.h **** };
  60:Middlewares/LVGL/GUI/lvgl/src/extra/widgets/meter/../../../../src/hal/../draw/../misc/lv_color.h **** 
  61:Middlewares/LVGL/GUI/lvgl/src/extra/widgets/meter/../../../../src/hal/../draw/../misc/lv_color.h **** #define LV_OPA_MIN 2    /*Opacities below this will be transparent*/
  62:Middlewares/LVGL/GUI/lvgl/src/extra/widgets/meter/../../../../src/hal/../draw/../misc/lv_color.h **** #define LV_OPA_MAX 253  /*Opacities above this will fully cover*/
  63:Middlewares/LVGL/GUI/lvgl/src/extra/widgets/meter/../../../../src/hal/../draw/../misc/lv_color.h **** 
  64:Middlewares/LVGL/GUI/lvgl/src/extra/widgets/meter/../../../../src/hal/../draw/../misc/lv_color.h **** #if LV_COLOR_DEPTH == 1
  65:Middlewares/LVGL/GUI/lvgl/src/extra/widgets/meter/../../../../src/hal/../draw/../misc/lv_color.h **** #define LV_COLOR_SIZE 8
  66:Middlewares/LVGL/GUI/lvgl/src/extra/widgets/meter/../../../../src/hal/../draw/../misc/lv_color.h **** #elif LV_COLOR_DEPTH == 8
  67:Middlewares/LVGL/GUI/lvgl/src/extra/widgets/meter/../../../../src/hal/../draw/../misc/lv_color.h **** #define LV_COLOR_SIZE 8
  68:Middlewares/LVGL/GUI/lvgl/src/extra/widgets/meter/../../../../src/hal/../draw/../misc/lv_color.h **** #elif LV_COLOR_DEPTH == 16
  69:Middlewares/LVGL/GUI/lvgl/src/extra/widgets/meter/../../../../src/hal/../draw/../misc/lv_color.h **** #define LV_COLOR_SIZE 16
  70:Middlewares/LVGL/GUI/lvgl/src/extra/widgets/meter/../../../../src/hal/../draw/../misc/lv_color.h **** #elif LV_COLOR_DEPTH == 32
  71:Middlewares/LVGL/GUI/lvgl/src/extra/widgets/meter/../../../../src/hal/../draw/../misc/lv_color.h **** #define LV_COLOR_SIZE 32
  72:Middlewares/LVGL/GUI/lvgl/src/extra/widgets/meter/../../../../src/hal/../draw/../misc/lv_color.h **** #else
  73:Middlewares/LVGL/GUI/lvgl/src/extra/widgets/meter/../../../../src/hal/../draw/../misc/lv_color.h **** #error "Invalid LV_COLOR_DEPTH in lv_conf.h! Set it to 1, 8, 16 or 32!"
  74:Middlewares/LVGL/GUI/lvgl/src/extra/widgets/meter/../../../../src/hal/../draw/../misc/lv_color.h **** #endif
  75:Middlewares/LVGL/GUI/lvgl/src/extra/widgets/meter/../../../../src/hal/../draw/../misc/lv_color.h **** 
  76:Middlewares/LVGL/GUI/lvgl/src/extra/widgets/meter/../../../../src/hal/../draw/../misc/lv_color.h **** #if defined(__cplusplus) && !defined(_LV_COLOR_HAS_MODERN_CPP)
  77:Middlewares/LVGL/GUI/lvgl/src/extra/widgets/meter/../../../../src/hal/../draw/../misc/lv_color.h **** /**
  78:Middlewares/LVGL/GUI/lvgl/src/extra/widgets/meter/../../../../src/hal/../draw/../misc/lv_color.h **** * MSVC compiler's definition of the __cplusplus indicating 199711L regardless to C++ standard versi
  79:Middlewares/LVGL/GUI/lvgl/src/extra/widgets/meter/../../../../src/hal/../draw/../misc/lv_color.h **** * see https://devblogs.microsoft.com/cppblog/msvc-now-correctly-reports-cplusplus
  80:Middlewares/LVGL/GUI/lvgl/src/extra/widgets/meter/../../../../src/hal/../draw/../misc/lv_color.h **** * so we use _MSC_VER macro instead of __cplusplus
  81:Middlewares/LVGL/GUI/lvgl/src/extra/widgets/meter/../../../../src/hal/../draw/../misc/lv_color.h **** */
  82:Middlewares/LVGL/GUI/lvgl/src/extra/widgets/meter/../../../../src/hal/../draw/../misc/lv_color.h **** #ifdef _MSC_VER
  83:Middlewares/LVGL/GUI/lvgl/src/extra/widgets/meter/../../../../src/hal/../draw/../misc/lv_color.h **** #if _MSC_VER >= 1900 /*Visual Studio 2015*/
  84:Middlewares/LVGL/GUI/lvgl/src/extra/widgets/meter/../../../../src/hal/../draw/../misc/lv_color.h **** #define _LV_COLOR_HAS_MODERN_CPP 1
  85:Middlewares/LVGL/GUI/lvgl/src/extra/widgets/meter/../../../../src/hal/../draw/../misc/lv_color.h **** #endif
  86:Middlewares/LVGL/GUI/lvgl/src/extra/widgets/meter/../../../../src/hal/../draw/../misc/lv_color.h **** #else
  87:Middlewares/LVGL/GUI/lvgl/src/extra/widgets/meter/../../../../src/hal/../draw/../misc/lv_color.h **** #if __cplusplus >= 201103L
  88:Middlewares/LVGL/GUI/lvgl/src/extra/widgets/meter/../../../../src/hal/../draw/../misc/lv_color.h **** #define _LV_COLOR_HAS_MODERN_CPP 1
  89:Middlewares/LVGL/GUI/lvgl/src/extra/widgets/meter/../../../../src/hal/../draw/../misc/lv_color.h **** #endif
  90:Middlewares/LVGL/GUI/lvgl/src/extra/widgets/meter/../../../../src/hal/../draw/../misc/lv_color.h **** #endif
  91:Middlewares/LVGL/GUI/lvgl/src/extra/widgets/meter/../../../../src/hal/../draw/../misc/lv_color.h **** #endif /*__cplusplus*/
  92:Middlewares/LVGL/GUI/lvgl/src/extra/widgets/meter/../../../../src/hal/../draw/../misc/lv_color.h **** 
  93:Middlewares/LVGL/GUI/lvgl/src/extra/widgets/meter/../../../../src/hal/../draw/../misc/lv_color.h **** #ifndef _LV_COLOR_HAS_MODERN_CPP
  94:Middlewares/LVGL/GUI/lvgl/src/extra/widgets/meter/../../../../src/hal/../draw/../misc/lv_color.h **** #define _LV_COLOR_HAS_MODERN_CPP 0
  95:Middlewares/LVGL/GUI/lvgl/src/extra/widgets/meter/../../../../src/hal/../draw/../misc/lv_color.h **** #endif
  96:Middlewares/LVGL/GUI/lvgl/src/extra/widgets/meter/../../../../src/hal/../draw/../misc/lv_color.h **** 
  97:Middlewares/LVGL/GUI/lvgl/src/extra/widgets/meter/../../../../src/hal/../draw/../misc/lv_color.h **** #if _LV_COLOR_HAS_MODERN_CPP
  98:Middlewares/LVGL/GUI/lvgl/src/extra/widgets/meter/../../../../src/hal/../draw/../misc/lv_color.h **** /*Fix msvc compiler error C4576 inside C++ code*/
  99:Middlewares/LVGL/GUI/lvgl/src/extra/widgets/meter/../../../../src/hal/../draw/../misc/lv_color.h **** #define _LV_COLOR_MAKE_TYPE_HELPER lv_color_t
 100:Middlewares/LVGL/GUI/lvgl/src/extra/widgets/meter/../../../../src/hal/../draw/../misc/lv_color.h **** #else
ARM GAS  C:\Users\ADMINI~1\AppData\Local\Temp\ccVbA5cL.s 			page 32


 101:Middlewares/LVGL/GUI/lvgl/src/extra/widgets/meter/../../../../src/hal/../draw/../misc/lv_color.h **** #define _LV_COLOR_MAKE_TYPE_HELPER (lv_color_t)
 102:Middlewares/LVGL/GUI/lvgl/src/extra/widgets/meter/../../../../src/hal/../draw/../misc/lv_color.h **** #endif
 103:Middlewares/LVGL/GUI/lvgl/src/extra/widgets/meter/../../../../src/hal/../draw/../misc/lv_color.h **** 
 104:Middlewares/LVGL/GUI/lvgl/src/extra/widgets/meter/../../../../src/hal/../draw/../misc/lv_color.h **** /*---------------------------------------
 105:Middlewares/LVGL/GUI/lvgl/src/extra/widgets/meter/../../../../src/hal/../draw/../misc/lv_color.h ****  * Macros for all existing color depths
 106:Middlewares/LVGL/GUI/lvgl/src/extra/widgets/meter/../../../../src/hal/../draw/../misc/lv_color.h ****  * to set/get values of the color channels
 107:Middlewares/LVGL/GUI/lvgl/src/extra/widgets/meter/../../../../src/hal/../draw/../misc/lv_color.h ****  *------------------------------------------*/
 108:Middlewares/LVGL/GUI/lvgl/src/extra/widgets/meter/../../../../src/hal/../draw/../misc/lv_color.h **** # define LV_COLOR_SET_R1(c, v) (c).ch.red = (uint8_t)((v) & 0x1)
 109:Middlewares/LVGL/GUI/lvgl/src/extra/widgets/meter/../../../../src/hal/../draw/../misc/lv_color.h **** # define LV_COLOR_SET_G1(c, v) (c).ch.green = (uint8_t)((v) & 0x1)
 110:Middlewares/LVGL/GUI/lvgl/src/extra/widgets/meter/../../../../src/hal/../draw/../misc/lv_color.h **** # define LV_COLOR_SET_B1(c, v) (c).ch.blue = (uint8_t)((v) & 0x1)
 111:Middlewares/LVGL/GUI/lvgl/src/extra/widgets/meter/../../../../src/hal/../draw/../misc/lv_color.h **** # define LV_COLOR_SET_A1(c, v) do {} while(0)
 112:Middlewares/LVGL/GUI/lvgl/src/extra/widgets/meter/../../../../src/hal/../draw/../misc/lv_color.h **** 
 113:Middlewares/LVGL/GUI/lvgl/src/extra/widgets/meter/../../../../src/hal/../draw/../misc/lv_color.h **** # define LV_COLOR_GET_R1(c) (c).ch.red
 114:Middlewares/LVGL/GUI/lvgl/src/extra/widgets/meter/../../../../src/hal/../draw/../misc/lv_color.h **** # define LV_COLOR_GET_G1(c) (c).ch.green
 115:Middlewares/LVGL/GUI/lvgl/src/extra/widgets/meter/../../../../src/hal/../draw/../misc/lv_color.h **** # define LV_COLOR_GET_B1(c) (c).ch.blue
 116:Middlewares/LVGL/GUI/lvgl/src/extra/widgets/meter/../../../../src/hal/../draw/../misc/lv_color.h **** # define LV_COLOR_GET_A1(c) 0xFF
 117:Middlewares/LVGL/GUI/lvgl/src/extra/widgets/meter/../../../../src/hal/../draw/../misc/lv_color.h **** 
 118:Middlewares/LVGL/GUI/lvgl/src/extra/widgets/meter/../../../../src/hal/../draw/../misc/lv_color.h **** # define _LV_COLOR_ZERO_INITIALIZER1 {0x00}
 119:Middlewares/LVGL/GUI/lvgl/src/extra/widgets/meter/../../../../src/hal/../draw/../misc/lv_color.h **** # define LV_COLOR_MAKE1(r8, g8, b8)  {(uint8_t)((b8 >> 7) | (g8 >> 7) | (r8 >> 7))}
 120:Middlewares/LVGL/GUI/lvgl/src/extra/widgets/meter/../../../../src/hal/../draw/../misc/lv_color.h **** 
 121:Middlewares/LVGL/GUI/lvgl/src/extra/widgets/meter/../../../../src/hal/../draw/../misc/lv_color.h **** # define LV_COLOR_SET_R8(c, v) (c).ch.red = (uint8_t)((v) & 0x7U)
 122:Middlewares/LVGL/GUI/lvgl/src/extra/widgets/meter/../../../../src/hal/../draw/../misc/lv_color.h **** # define LV_COLOR_SET_G8(c, v) (c).ch.green = (uint8_t)((v) & 0x7U)
 123:Middlewares/LVGL/GUI/lvgl/src/extra/widgets/meter/../../../../src/hal/../draw/../misc/lv_color.h **** # define LV_COLOR_SET_B8(c, v) (c).ch.blue = (uint8_t)((v) & 0x3U)
 124:Middlewares/LVGL/GUI/lvgl/src/extra/widgets/meter/../../../../src/hal/../draw/../misc/lv_color.h **** # define LV_COLOR_SET_A8(c, v) do {} while(0)
 125:Middlewares/LVGL/GUI/lvgl/src/extra/widgets/meter/../../../../src/hal/../draw/../misc/lv_color.h **** 
 126:Middlewares/LVGL/GUI/lvgl/src/extra/widgets/meter/../../../../src/hal/../draw/../misc/lv_color.h **** # define LV_COLOR_GET_R8(c) (c).ch.red
 127:Middlewares/LVGL/GUI/lvgl/src/extra/widgets/meter/../../../../src/hal/../draw/../misc/lv_color.h **** # define LV_COLOR_GET_G8(c) (c).ch.green
 128:Middlewares/LVGL/GUI/lvgl/src/extra/widgets/meter/../../../../src/hal/../draw/../misc/lv_color.h **** # define LV_COLOR_GET_B8(c) (c).ch.blue
 129:Middlewares/LVGL/GUI/lvgl/src/extra/widgets/meter/../../../../src/hal/../draw/../misc/lv_color.h **** # define LV_COLOR_GET_A8(c) 0xFF
 130:Middlewares/LVGL/GUI/lvgl/src/extra/widgets/meter/../../../../src/hal/../draw/../misc/lv_color.h **** 
 131:Middlewares/LVGL/GUI/lvgl/src/extra/widgets/meter/../../../../src/hal/../draw/../misc/lv_color.h **** # define _LV_COLOR_ZERO_INITIALIZER8 {{0x00, 0x00, 0x00}}
 132:Middlewares/LVGL/GUI/lvgl/src/extra/widgets/meter/../../../../src/hal/../draw/../misc/lv_color.h **** # define LV_COLOR_MAKE8(r8, g8, b8) {{(uint8_t)((b8 >> 6) & 0x3U), (uint8_t)((g8 >> 5) & 0x7U), (ui
 133:Middlewares/LVGL/GUI/lvgl/src/extra/widgets/meter/../../../../src/hal/../draw/../misc/lv_color.h **** 
 134:Middlewares/LVGL/GUI/lvgl/src/extra/widgets/meter/../../../../src/hal/../draw/../misc/lv_color.h **** # define LV_COLOR_SET_R16(c, v) (c).ch.red = (uint8_t)((v) & 0x1FU)
 135:Middlewares/LVGL/GUI/lvgl/src/extra/widgets/meter/../../../../src/hal/../draw/../misc/lv_color.h **** #if LV_COLOR_16_SWAP == 0
 136:Middlewares/LVGL/GUI/lvgl/src/extra/widgets/meter/../../../../src/hal/../draw/../misc/lv_color.h **** # define LV_COLOR_SET_G16(c, v) (c).ch.green = (uint8_t)((v) & 0x3FU)
 137:Middlewares/LVGL/GUI/lvgl/src/extra/widgets/meter/../../../../src/hal/../draw/../misc/lv_color.h **** #else
 138:Middlewares/LVGL/GUI/lvgl/src/extra/widgets/meter/../../../../src/hal/../draw/../misc/lv_color.h **** # define LV_COLOR_SET_G16(c, v) {(c).ch.green_h = (uint8_t)(((v) >> 3) & 0x7); (c).ch.green_l = (ui
 139:Middlewares/LVGL/GUI/lvgl/src/extra/widgets/meter/../../../../src/hal/../draw/../misc/lv_color.h **** #endif
 140:Middlewares/LVGL/GUI/lvgl/src/extra/widgets/meter/../../../../src/hal/../draw/../misc/lv_color.h **** # define LV_COLOR_SET_B16(c, v) (c).ch.blue = (uint8_t)((v) & 0x1FU)
 141:Middlewares/LVGL/GUI/lvgl/src/extra/widgets/meter/../../../../src/hal/../draw/../misc/lv_color.h **** # define LV_COLOR_SET_A16(c, v) do {} while(0)
 142:Middlewares/LVGL/GUI/lvgl/src/extra/widgets/meter/../../../../src/hal/../draw/../misc/lv_color.h **** 
 143:Middlewares/LVGL/GUI/lvgl/src/extra/widgets/meter/../../../../src/hal/../draw/../misc/lv_color.h **** # define LV_COLOR_GET_R16(c) (c).ch.red
 144:Middlewares/LVGL/GUI/lvgl/src/extra/widgets/meter/../../../../src/hal/../draw/../misc/lv_color.h **** #if LV_COLOR_16_SWAP == 0
 145:Middlewares/LVGL/GUI/lvgl/src/extra/widgets/meter/../../../../src/hal/../draw/../misc/lv_color.h **** # define LV_COLOR_GET_G16(c) (c).ch.green
 146:Middlewares/LVGL/GUI/lvgl/src/extra/widgets/meter/../../../../src/hal/../draw/../misc/lv_color.h **** #else
 147:Middlewares/LVGL/GUI/lvgl/src/extra/widgets/meter/../../../../src/hal/../draw/../misc/lv_color.h **** # define LV_COLOR_GET_G16(c) (((c).ch.green_h << 3) + (c).ch.green_l)
 148:Middlewares/LVGL/GUI/lvgl/src/extra/widgets/meter/../../../../src/hal/../draw/../misc/lv_color.h **** #endif
 149:Middlewares/LVGL/GUI/lvgl/src/extra/widgets/meter/../../../../src/hal/../draw/../misc/lv_color.h **** # define LV_COLOR_GET_B16(c) (c).ch.blue
 150:Middlewares/LVGL/GUI/lvgl/src/extra/widgets/meter/../../../../src/hal/../draw/../misc/lv_color.h **** # define LV_COLOR_GET_A16(c) 0xFF
 151:Middlewares/LVGL/GUI/lvgl/src/extra/widgets/meter/../../../../src/hal/../draw/../misc/lv_color.h **** 
 152:Middlewares/LVGL/GUI/lvgl/src/extra/widgets/meter/../../../../src/hal/../draw/../misc/lv_color.h **** #if LV_COLOR_16_SWAP == 0
 153:Middlewares/LVGL/GUI/lvgl/src/extra/widgets/meter/../../../../src/hal/../draw/../misc/lv_color.h **** # define _LV_COLOR_ZERO_INITIALIZER16  {{0x00, 0x00, 0x00}}
 154:Middlewares/LVGL/GUI/lvgl/src/extra/widgets/meter/../../../../src/hal/../draw/../misc/lv_color.h **** # define LV_COLOR_MAKE16(r8, g8, b8) {{(uint8_t)((b8 >> 3) & 0x1FU), (uint8_t)((g8 >> 2) & 0x3FU), 
 155:Middlewares/LVGL/GUI/lvgl/src/extra/widgets/meter/../../../../src/hal/../draw/../misc/lv_color.h **** #else
 156:Middlewares/LVGL/GUI/lvgl/src/extra/widgets/meter/../../../../src/hal/../draw/../misc/lv_color.h **** # define _LV_COLOR_ZERO_INITIALIZER16 {{0x00, 0x00, 0x00, 0x00}}
 157:Middlewares/LVGL/GUI/lvgl/src/extra/widgets/meter/../../../../src/hal/../draw/../misc/lv_color.h **** # define LV_COLOR_MAKE16(r8, g8, b8) {{(uint8_t)((g8 >> 5) & 0x7U), (uint8_t)((r8 >> 3) & 0x1FU), (
ARM GAS  C:\Users\ADMINI~1\AppData\Local\Temp\ccVbA5cL.s 			page 33


 158:Middlewares/LVGL/GUI/lvgl/src/extra/widgets/meter/../../../../src/hal/../draw/../misc/lv_color.h **** #endif
 159:Middlewares/LVGL/GUI/lvgl/src/extra/widgets/meter/../../../../src/hal/../draw/../misc/lv_color.h **** 
 160:Middlewares/LVGL/GUI/lvgl/src/extra/widgets/meter/../../../../src/hal/../draw/../misc/lv_color.h **** # define LV_COLOR_SET_R32(c, v) (c).ch.red = (uint8_t)((v) & 0xFF)
 161:Middlewares/LVGL/GUI/lvgl/src/extra/widgets/meter/../../../../src/hal/../draw/../misc/lv_color.h **** # define LV_COLOR_SET_G32(c, v) (c).ch.green = (uint8_t)((v) & 0xFF)
 162:Middlewares/LVGL/GUI/lvgl/src/extra/widgets/meter/../../../../src/hal/../draw/../misc/lv_color.h **** # define LV_COLOR_SET_B32(c, v) (c).ch.blue = (uint8_t)((v) & 0xFF)
 163:Middlewares/LVGL/GUI/lvgl/src/extra/widgets/meter/../../../../src/hal/../draw/../misc/lv_color.h **** # define LV_COLOR_SET_A32(c, v) (c).ch.alpha = (uint8_t)((v) & 0xFF)
 164:Middlewares/LVGL/GUI/lvgl/src/extra/widgets/meter/../../../../src/hal/../draw/../misc/lv_color.h **** 
 165:Middlewares/LVGL/GUI/lvgl/src/extra/widgets/meter/../../../../src/hal/../draw/../misc/lv_color.h **** # define LV_COLOR_GET_R32(c) (c).ch.red
 166:Middlewares/LVGL/GUI/lvgl/src/extra/widgets/meter/../../../../src/hal/../draw/../misc/lv_color.h **** # define LV_COLOR_GET_G32(c) (c).ch.green
 167:Middlewares/LVGL/GUI/lvgl/src/extra/widgets/meter/../../../../src/hal/../draw/../misc/lv_color.h **** # define LV_COLOR_GET_B32(c) (c).ch.blue
 168:Middlewares/LVGL/GUI/lvgl/src/extra/widgets/meter/../../../../src/hal/../draw/../misc/lv_color.h **** # define LV_COLOR_GET_A32(c) (c).ch.alpha
 169:Middlewares/LVGL/GUI/lvgl/src/extra/widgets/meter/../../../../src/hal/../draw/../misc/lv_color.h **** 
 170:Middlewares/LVGL/GUI/lvgl/src/extra/widgets/meter/../../../../src/hal/../draw/../misc/lv_color.h **** # define _LV_COLOR_ZERO_INITIALIZER32  {{0x00, 0x00, 0x00, 0x00}}
 171:Middlewares/LVGL/GUI/lvgl/src/extra/widgets/meter/../../../../src/hal/../draw/../misc/lv_color.h **** # define LV_COLOR_MAKE32(r8, g8, b8) {{b8, g8, r8, 0xff}} /*Fix 0xff alpha*/
 172:Middlewares/LVGL/GUI/lvgl/src/extra/widgets/meter/../../../../src/hal/../draw/../misc/lv_color.h **** 
 173:Middlewares/LVGL/GUI/lvgl/src/extra/widgets/meter/../../../../src/hal/../draw/../misc/lv_color.h **** /*---------------------------------------
 174:Middlewares/LVGL/GUI/lvgl/src/extra/widgets/meter/../../../../src/hal/../draw/../misc/lv_color.h ****  * Macros for the current color depth
 175:Middlewares/LVGL/GUI/lvgl/src/extra/widgets/meter/../../../../src/hal/../draw/../misc/lv_color.h ****  * to set/get values of the color channels
 176:Middlewares/LVGL/GUI/lvgl/src/extra/widgets/meter/../../../../src/hal/../draw/../misc/lv_color.h ****  *------------------------------------------*/
 177:Middlewares/LVGL/GUI/lvgl/src/extra/widgets/meter/../../../../src/hal/../draw/../misc/lv_color.h **** #define LV_COLOR_SET_R(c, v) LV_CONCAT(LV_COLOR_SET_R, LV_COLOR_DEPTH)(c, v)
 178:Middlewares/LVGL/GUI/lvgl/src/extra/widgets/meter/../../../../src/hal/../draw/../misc/lv_color.h **** #define LV_COLOR_SET_G(c, v) LV_CONCAT(LV_COLOR_SET_G, LV_COLOR_DEPTH)(c, v)
 179:Middlewares/LVGL/GUI/lvgl/src/extra/widgets/meter/../../../../src/hal/../draw/../misc/lv_color.h **** #define LV_COLOR_SET_B(c, v) LV_CONCAT(LV_COLOR_SET_B, LV_COLOR_DEPTH)(c, v)
 180:Middlewares/LVGL/GUI/lvgl/src/extra/widgets/meter/../../../../src/hal/../draw/../misc/lv_color.h **** #define LV_COLOR_SET_A(c, v) LV_CONCAT(LV_COLOR_SET_A, LV_COLOR_DEPTH)(c, v)
 181:Middlewares/LVGL/GUI/lvgl/src/extra/widgets/meter/../../../../src/hal/../draw/../misc/lv_color.h **** 
 182:Middlewares/LVGL/GUI/lvgl/src/extra/widgets/meter/../../../../src/hal/../draw/../misc/lv_color.h **** #define LV_COLOR_GET_R(c) LV_CONCAT(LV_COLOR_GET_R, LV_COLOR_DEPTH)(c)
 183:Middlewares/LVGL/GUI/lvgl/src/extra/widgets/meter/../../../../src/hal/../draw/../misc/lv_color.h **** #define LV_COLOR_GET_G(c) LV_CONCAT(LV_COLOR_GET_G, LV_COLOR_DEPTH)(c)
 184:Middlewares/LVGL/GUI/lvgl/src/extra/widgets/meter/../../../../src/hal/../draw/../misc/lv_color.h **** #define LV_COLOR_GET_B(c) LV_CONCAT(LV_COLOR_GET_B, LV_COLOR_DEPTH)(c)
 185:Middlewares/LVGL/GUI/lvgl/src/extra/widgets/meter/../../../../src/hal/../draw/../misc/lv_color.h **** #define LV_COLOR_GET_A(c) LV_CONCAT(LV_COLOR_GET_A, LV_COLOR_DEPTH)(c)
 186:Middlewares/LVGL/GUI/lvgl/src/extra/widgets/meter/../../../../src/hal/../draw/../misc/lv_color.h **** 
 187:Middlewares/LVGL/GUI/lvgl/src/extra/widgets/meter/../../../../src/hal/../draw/../misc/lv_color.h **** #define _LV_COLOR_ZERO_INITIALIZER LV_CONCAT(_LV_COLOR_ZERO_INITIALIZER, LV_COLOR_DEPTH)
 188:Middlewares/LVGL/GUI/lvgl/src/extra/widgets/meter/../../../../src/hal/../draw/../misc/lv_color.h **** #define LV_COLOR_MAKE(r8, g8, b8) LV_CONCAT(LV_COLOR_MAKE, LV_COLOR_DEPTH)(r8, g8, b8)
 189:Middlewares/LVGL/GUI/lvgl/src/extra/widgets/meter/../../../../src/hal/../draw/../misc/lv_color.h **** 
 190:Middlewares/LVGL/GUI/lvgl/src/extra/widgets/meter/../../../../src/hal/../draw/../misc/lv_color.h **** /**********************
 191:Middlewares/LVGL/GUI/lvgl/src/extra/widgets/meter/../../../../src/hal/../draw/../misc/lv_color.h ****  *      TYPEDEFS
 192:Middlewares/LVGL/GUI/lvgl/src/extra/widgets/meter/../../../../src/hal/../draw/../misc/lv_color.h ****  **********************/
 193:Middlewares/LVGL/GUI/lvgl/src/extra/widgets/meter/../../../../src/hal/../draw/../misc/lv_color.h **** 
 194:Middlewares/LVGL/GUI/lvgl/src/extra/widgets/meter/../../../../src/hal/../draw/../misc/lv_color.h **** typedef union {
 195:Middlewares/LVGL/GUI/lvgl/src/extra/widgets/meter/../../../../src/hal/../draw/../misc/lv_color.h ****     uint8_t full; /*must be declared first to set all bits of byte via initializer list*/
 196:Middlewares/LVGL/GUI/lvgl/src/extra/widgets/meter/../../../../src/hal/../draw/../misc/lv_color.h ****     union {
 197:Middlewares/LVGL/GUI/lvgl/src/extra/widgets/meter/../../../../src/hal/../draw/../misc/lv_color.h ****         uint8_t blue : 1;
 198:Middlewares/LVGL/GUI/lvgl/src/extra/widgets/meter/../../../../src/hal/../draw/../misc/lv_color.h ****         uint8_t green : 1;
 199:Middlewares/LVGL/GUI/lvgl/src/extra/widgets/meter/../../../../src/hal/../draw/../misc/lv_color.h ****         uint8_t red : 1;
 200:Middlewares/LVGL/GUI/lvgl/src/extra/widgets/meter/../../../../src/hal/../draw/../misc/lv_color.h ****     } ch;
 201:Middlewares/LVGL/GUI/lvgl/src/extra/widgets/meter/../../../../src/hal/../draw/../misc/lv_color.h **** } lv_color1_t;
 202:Middlewares/LVGL/GUI/lvgl/src/extra/widgets/meter/../../../../src/hal/../draw/../misc/lv_color.h **** 
 203:Middlewares/LVGL/GUI/lvgl/src/extra/widgets/meter/../../../../src/hal/../draw/../misc/lv_color.h **** typedef union {
 204:Middlewares/LVGL/GUI/lvgl/src/extra/widgets/meter/../../../../src/hal/../draw/../misc/lv_color.h ****     struct {
 205:Middlewares/LVGL/GUI/lvgl/src/extra/widgets/meter/../../../../src/hal/../draw/../misc/lv_color.h ****         uint8_t blue : 2;
 206:Middlewares/LVGL/GUI/lvgl/src/extra/widgets/meter/../../../../src/hal/../draw/../misc/lv_color.h ****         uint8_t green : 3;
 207:Middlewares/LVGL/GUI/lvgl/src/extra/widgets/meter/../../../../src/hal/../draw/../misc/lv_color.h ****         uint8_t red : 3;
 208:Middlewares/LVGL/GUI/lvgl/src/extra/widgets/meter/../../../../src/hal/../draw/../misc/lv_color.h ****     } ch;
 209:Middlewares/LVGL/GUI/lvgl/src/extra/widgets/meter/../../../../src/hal/../draw/../misc/lv_color.h ****     uint8_t full;
 210:Middlewares/LVGL/GUI/lvgl/src/extra/widgets/meter/../../../../src/hal/../draw/../misc/lv_color.h **** } lv_color8_t;
 211:Middlewares/LVGL/GUI/lvgl/src/extra/widgets/meter/../../../../src/hal/../draw/../misc/lv_color.h **** 
 212:Middlewares/LVGL/GUI/lvgl/src/extra/widgets/meter/../../../../src/hal/../draw/../misc/lv_color.h **** typedef union {
 213:Middlewares/LVGL/GUI/lvgl/src/extra/widgets/meter/../../../../src/hal/../draw/../misc/lv_color.h ****     struct {
 214:Middlewares/LVGL/GUI/lvgl/src/extra/widgets/meter/../../../../src/hal/../draw/../misc/lv_color.h **** #if LV_COLOR_16_SWAP == 0
ARM GAS  C:\Users\ADMINI~1\AppData\Local\Temp\ccVbA5cL.s 			page 34


 215:Middlewares/LVGL/GUI/lvgl/src/extra/widgets/meter/../../../../src/hal/../draw/../misc/lv_color.h ****         uint16_t blue : 5;
 216:Middlewares/LVGL/GUI/lvgl/src/extra/widgets/meter/../../../../src/hal/../draw/../misc/lv_color.h ****         uint16_t green : 6;
 217:Middlewares/LVGL/GUI/lvgl/src/extra/widgets/meter/../../../../src/hal/../draw/../misc/lv_color.h ****         uint16_t red : 5;
 218:Middlewares/LVGL/GUI/lvgl/src/extra/widgets/meter/../../../../src/hal/../draw/../misc/lv_color.h **** #else
 219:Middlewares/LVGL/GUI/lvgl/src/extra/widgets/meter/../../../../src/hal/../draw/../misc/lv_color.h ****         uint16_t green_h : 3;
 220:Middlewares/LVGL/GUI/lvgl/src/extra/widgets/meter/../../../../src/hal/../draw/../misc/lv_color.h ****         uint16_t red : 5;
 221:Middlewares/LVGL/GUI/lvgl/src/extra/widgets/meter/../../../../src/hal/../draw/../misc/lv_color.h ****         uint16_t blue : 5;
 222:Middlewares/LVGL/GUI/lvgl/src/extra/widgets/meter/../../../../src/hal/../draw/../misc/lv_color.h ****         uint16_t green_l : 3;
 223:Middlewares/LVGL/GUI/lvgl/src/extra/widgets/meter/../../../../src/hal/../draw/../misc/lv_color.h **** #endif
 224:Middlewares/LVGL/GUI/lvgl/src/extra/widgets/meter/../../../../src/hal/../draw/../misc/lv_color.h ****     } ch;
 225:Middlewares/LVGL/GUI/lvgl/src/extra/widgets/meter/../../../../src/hal/../draw/../misc/lv_color.h ****     uint16_t full;
 226:Middlewares/LVGL/GUI/lvgl/src/extra/widgets/meter/../../../../src/hal/../draw/../misc/lv_color.h **** } lv_color16_t;
 227:Middlewares/LVGL/GUI/lvgl/src/extra/widgets/meter/../../../../src/hal/../draw/../misc/lv_color.h **** 
 228:Middlewares/LVGL/GUI/lvgl/src/extra/widgets/meter/../../../../src/hal/../draw/../misc/lv_color.h **** typedef union {
 229:Middlewares/LVGL/GUI/lvgl/src/extra/widgets/meter/../../../../src/hal/../draw/../misc/lv_color.h ****     struct {
 230:Middlewares/LVGL/GUI/lvgl/src/extra/widgets/meter/../../../../src/hal/../draw/../misc/lv_color.h ****         uint8_t blue;
 231:Middlewares/LVGL/GUI/lvgl/src/extra/widgets/meter/../../../../src/hal/../draw/../misc/lv_color.h ****         uint8_t green;
 232:Middlewares/LVGL/GUI/lvgl/src/extra/widgets/meter/../../../../src/hal/../draw/../misc/lv_color.h ****         uint8_t red;
 233:Middlewares/LVGL/GUI/lvgl/src/extra/widgets/meter/../../../../src/hal/../draw/../misc/lv_color.h ****         uint8_t alpha;
 234:Middlewares/LVGL/GUI/lvgl/src/extra/widgets/meter/../../../../src/hal/../draw/../misc/lv_color.h ****     } ch;
 235:Middlewares/LVGL/GUI/lvgl/src/extra/widgets/meter/../../../../src/hal/../draw/../misc/lv_color.h ****     uint32_t full;
 236:Middlewares/LVGL/GUI/lvgl/src/extra/widgets/meter/../../../../src/hal/../draw/../misc/lv_color.h **** } lv_color32_t;
 237:Middlewares/LVGL/GUI/lvgl/src/extra/widgets/meter/../../../../src/hal/../draw/../misc/lv_color.h **** 
 238:Middlewares/LVGL/GUI/lvgl/src/extra/widgets/meter/../../../../src/hal/../draw/../misc/lv_color.h **** typedef LV_CONCAT3(uint, LV_COLOR_SIZE, _t) lv_color_int_t;
 239:Middlewares/LVGL/GUI/lvgl/src/extra/widgets/meter/../../../../src/hal/../draw/../misc/lv_color.h **** typedef LV_CONCAT3(lv_color, LV_COLOR_DEPTH, _t) lv_color_t;
 240:Middlewares/LVGL/GUI/lvgl/src/extra/widgets/meter/../../../../src/hal/../draw/../misc/lv_color.h **** 
 241:Middlewares/LVGL/GUI/lvgl/src/extra/widgets/meter/../../../../src/hal/../draw/../misc/lv_color.h **** typedef struct {
 242:Middlewares/LVGL/GUI/lvgl/src/extra/widgets/meter/../../../../src/hal/../draw/../misc/lv_color.h ****     uint16_t h;
 243:Middlewares/LVGL/GUI/lvgl/src/extra/widgets/meter/../../../../src/hal/../draw/../misc/lv_color.h ****     uint8_t s;
 244:Middlewares/LVGL/GUI/lvgl/src/extra/widgets/meter/../../../../src/hal/../draw/../misc/lv_color.h ****     uint8_t v;
 245:Middlewares/LVGL/GUI/lvgl/src/extra/widgets/meter/../../../../src/hal/../draw/../misc/lv_color.h **** } lv_color_hsv_t;
 246:Middlewares/LVGL/GUI/lvgl/src/extra/widgets/meter/../../../../src/hal/../draw/../misc/lv_color.h **** 
 247:Middlewares/LVGL/GUI/lvgl/src/extra/widgets/meter/../../../../src/hal/../draw/../misc/lv_color.h **** //! @cond Doxygen_Suppress
 248:Middlewares/LVGL/GUI/lvgl/src/extra/widgets/meter/../../../../src/hal/../draw/../misc/lv_color.h **** /*No idea where the guard is required but else throws warnings in the docs*/
 249:Middlewares/LVGL/GUI/lvgl/src/extra/widgets/meter/../../../../src/hal/../draw/../misc/lv_color.h **** typedef uint8_t lv_opa_t;
 250:Middlewares/LVGL/GUI/lvgl/src/extra/widgets/meter/../../../../src/hal/../draw/../misc/lv_color.h **** //! @endcond
 251:Middlewares/LVGL/GUI/lvgl/src/extra/widgets/meter/../../../../src/hal/../draw/../misc/lv_color.h **** 
 252:Middlewares/LVGL/GUI/lvgl/src/extra/widgets/meter/../../../../src/hal/../draw/../misc/lv_color.h **** struct _lv_color_filter_dsc_t;
 253:Middlewares/LVGL/GUI/lvgl/src/extra/widgets/meter/../../../../src/hal/../draw/../misc/lv_color.h **** 
 254:Middlewares/LVGL/GUI/lvgl/src/extra/widgets/meter/../../../../src/hal/../draw/../misc/lv_color.h **** typedef lv_color_t (*lv_color_filter_cb_t)(const struct _lv_color_filter_dsc_t *, lv_color_t, lv_op
 255:Middlewares/LVGL/GUI/lvgl/src/extra/widgets/meter/../../../../src/hal/../draw/../misc/lv_color.h **** 
 256:Middlewares/LVGL/GUI/lvgl/src/extra/widgets/meter/../../../../src/hal/../draw/../misc/lv_color.h **** typedef struct _lv_color_filter_dsc_t {
 257:Middlewares/LVGL/GUI/lvgl/src/extra/widgets/meter/../../../../src/hal/../draw/../misc/lv_color.h ****     lv_color_filter_cb_t filter_cb;
 258:Middlewares/LVGL/GUI/lvgl/src/extra/widgets/meter/../../../../src/hal/../draw/../misc/lv_color.h ****     void * user_data;
 259:Middlewares/LVGL/GUI/lvgl/src/extra/widgets/meter/../../../../src/hal/../draw/../misc/lv_color.h **** } lv_color_filter_dsc_t;
 260:Middlewares/LVGL/GUI/lvgl/src/extra/widgets/meter/../../../../src/hal/../draw/../misc/lv_color.h **** 
 261:Middlewares/LVGL/GUI/lvgl/src/extra/widgets/meter/../../../../src/hal/../draw/../misc/lv_color.h **** 
 262:Middlewares/LVGL/GUI/lvgl/src/extra/widgets/meter/../../../../src/hal/../draw/../misc/lv_color.h **** typedef enum {
 263:Middlewares/LVGL/GUI/lvgl/src/extra/widgets/meter/../../../../src/hal/../draw/../misc/lv_color.h ****     LV_PALETTE_RED,
 264:Middlewares/LVGL/GUI/lvgl/src/extra/widgets/meter/../../../../src/hal/../draw/../misc/lv_color.h ****     LV_PALETTE_PINK,
 265:Middlewares/LVGL/GUI/lvgl/src/extra/widgets/meter/../../../../src/hal/../draw/../misc/lv_color.h ****     LV_PALETTE_PURPLE,
 266:Middlewares/LVGL/GUI/lvgl/src/extra/widgets/meter/../../../../src/hal/../draw/../misc/lv_color.h ****     LV_PALETTE_DEEP_PURPLE,
 267:Middlewares/LVGL/GUI/lvgl/src/extra/widgets/meter/../../../../src/hal/../draw/../misc/lv_color.h ****     LV_PALETTE_INDIGO,
 268:Middlewares/LVGL/GUI/lvgl/src/extra/widgets/meter/../../../../src/hal/../draw/../misc/lv_color.h ****     LV_PALETTE_BLUE,
 269:Middlewares/LVGL/GUI/lvgl/src/extra/widgets/meter/../../../../src/hal/../draw/../misc/lv_color.h ****     LV_PALETTE_LIGHT_BLUE,
 270:Middlewares/LVGL/GUI/lvgl/src/extra/widgets/meter/../../../../src/hal/../draw/../misc/lv_color.h ****     LV_PALETTE_CYAN,
 271:Middlewares/LVGL/GUI/lvgl/src/extra/widgets/meter/../../../../src/hal/../draw/../misc/lv_color.h ****     LV_PALETTE_TEAL,
ARM GAS  C:\Users\ADMINI~1\AppData\Local\Temp\ccVbA5cL.s 			page 35


 272:Middlewares/LVGL/GUI/lvgl/src/extra/widgets/meter/../../../../src/hal/../draw/../misc/lv_color.h ****     LV_PALETTE_GREEN,
 273:Middlewares/LVGL/GUI/lvgl/src/extra/widgets/meter/../../../../src/hal/../draw/../misc/lv_color.h ****     LV_PALETTE_LIGHT_GREEN,
 274:Middlewares/LVGL/GUI/lvgl/src/extra/widgets/meter/../../../../src/hal/../draw/../misc/lv_color.h ****     LV_PALETTE_LIME,
 275:Middlewares/LVGL/GUI/lvgl/src/extra/widgets/meter/../../../../src/hal/../draw/../misc/lv_color.h ****     LV_PALETTE_YELLOW,
 276:Middlewares/LVGL/GUI/lvgl/src/extra/widgets/meter/../../../../src/hal/../draw/../misc/lv_color.h ****     LV_PALETTE_AMBER,
 277:Middlewares/LVGL/GUI/lvgl/src/extra/widgets/meter/../../../../src/hal/../draw/../misc/lv_color.h ****     LV_PALETTE_ORANGE,
 278:Middlewares/LVGL/GUI/lvgl/src/extra/widgets/meter/../../../../src/hal/../draw/../misc/lv_color.h ****     LV_PALETTE_DEEP_ORANGE,
 279:Middlewares/LVGL/GUI/lvgl/src/extra/widgets/meter/../../../../src/hal/../draw/../misc/lv_color.h ****     LV_PALETTE_BROWN,
 280:Middlewares/LVGL/GUI/lvgl/src/extra/widgets/meter/../../../../src/hal/../draw/../misc/lv_color.h ****     LV_PALETTE_BLUE_GREY,
 281:Middlewares/LVGL/GUI/lvgl/src/extra/widgets/meter/../../../../src/hal/../draw/../misc/lv_color.h ****     LV_PALETTE_GREY,
 282:Middlewares/LVGL/GUI/lvgl/src/extra/widgets/meter/../../../../src/hal/../draw/../misc/lv_color.h ****     _LV_PALETTE_LAST,
 283:Middlewares/LVGL/GUI/lvgl/src/extra/widgets/meter/../../../../src/hal/../draw/../misc/lv_color.h ****     LV_PALETTE_NONE = 0xff,
 284:Middlewares/LVGL/GUI/lvgl/src/extra/widgets/meter/../../../../src/hal/../draw/../misc/lv_color.h **** } lv_palette_t;
 285:Middlewares/LVGL/GUI/lvgl/src/extra/widgets/meter/../../../../src/hal/../draw/../misc/lv_color.h **** 
 286:Middlewares/LVGL/GUI/lvgl/src/extra/widgets/meter/../../../../src/hal/../draw/../misc/lv_color.h **** /**********************
 287:Middlewares/LVGL/GUI/lvgl/src/extra/widgets/meter/../../../../src/hal/../draw/../misc/lv_color.h ****  * GLOBAL PROTOTYPES
 288:Middlewares/LVGL/GUI/lvgl/src/extra/widgets/meter/../../../../src/hal/../draw/../misc/lv_color.h ****  **********************/
 289:Middlewares/LVGL/GUI/lvgl/src/extra/widgets/meter/../../../../src/hal/../draw/../misc/lv_color.h **** 
 290:Middlewares/LVGL/GUI/lvgl/src/extra/widgets/meter/../../../../src/hal/../draw/../misc/lv_color.h **** /*In color conversations:
 291:Middlewares/LVGL/GUI/lvgl/src/extra/widgets/meter/../../../../src/hal/../draw/../misc/lv_color.h ****  * - When converting to bigger color type the LSB weight of 1 LSB is calculated
 292:Middlewares/LVGL/GUI/lvgl/src/extra/widgets/meter/../../../../src/hal/../draw/../misc/lv_color.h ****  *   E.g. 16 bit Red has 5 bits
 293:Middlewares/LVGL/GUI/lvgl/src/extra/widgets/meter/../../../../src/hal/../draw/../misc/lv_color.h ****  *         8 bit Red has 3 bits
 294:Middlewares/LVGL/GUI/lvgl/src/extra/widgets/meter/../../../../src/hal/../draw/../misc/lv_color.h ****  *        ----------------------
 295:Middlewares/LVGL/GUI/lvgl/src/extra/widgets/meter/../../../../src/hal/../draw/../misc/lv_color.h ****  *        8 bit red LSB = (2^5 - 1) / (2^3 - 1) = 31 / 7 = 4
 296:Middlewares/LVGL/GUI/lvgl/src/extra/widgets/meter/../../../../src/hal/../draw/../misc/lv_color.h ****  *
 297:Middlewares/LVGL/GUI/lvgl/src/extra/widgets/meter/../../../../src/hal/../draw/../misc/lv_color.h ****  * - When calculating to smaller color type simply shift out the LSBs
 298:Middlewares/LVGL/GUI/lvgl/src/extra/widgets/meter/../../../../src/hal/../draw/../misc/lv_color.h ****  *   E.g.  8 bit Red has 3 bits
 299:Middlewares/LVGL/GUI/lvgl/src/extra/widgets/meter/../../../../src/hal/../draw/../misc/lv_color.h ****  *        16 bit Red has 5 bits
 300:Middlewares/LVGL/GUI/lvgl/src/extra/widgets/meter/../../../../src/hal/../draw/../misc/lv_color.h ****  *        ----------------------
 301:Middlewares/LVGL/GUI/lvgl/src/extra/widgets/meter/../../../../src/hal/../draw/../misc/lv_color.h ****  *         Shift right with 5 - 3 = 2
 302:Middlewares/LVGL/GUI/lvgl/src/extra/widgets/meter/../../../../src/hal/../draw/../misc/lv_color.h ****  */
 303:Middlewares/LVGL/GUI/lvgl/src/extra/widgets/meter/../../../../src/hal/../draw/../misc/lv_color.h **** static inline uint8_t lv_color_to1(lv_color_t color)
 304:Middlewares/LVGL/GUI/lvgl/src/extra/widgets/meter/../../../../src/hal/../draw/../misc/lv_color.h **** {
 305:Middlewares/LVGL/GUI/lvgl/src/extra/widgets/meter/../../../../src/hal/../draw/../misc/lv_color.h **** #if LV_COLOR_DEPTH == 1
 306:Middlewares/LVGL/GUI/lvgl/src/extra/widgets/meter/../../../../src/hal/../draw/../misc/lv_color.h ****     return color.full;
 307:Middlewares/LVGL/GUI/lvgl/src/extra/widgets/meter/../../../../src/hal/../draw/../misc/lv_color.h **** #elif LV_COLOR_DEPTH == 8
 308:Middlewares/LVGL/GUI/lvgl/src/extra/widgets/meter/../../../../src/hal/../draw/../misc/lv_color.h ****     if((LV_COLOR_GET_R(color) & 0x4) || (LV_COLOR_GET_G(color) & 0x4) || (LV_COLOR_GET_B(color) & 0
 309:Middlewares/LVGL/GUI/lvgl/src/extra/widgets/meter/../../../../src/hal/../draw/../misc/lv_color.h ****         return 1;
 310:Middlewares/LVGL/GUI/lvgl/src/extra/widgets/meter/../../../../src/hal/../draw/../misc/lv_color.h ****     }
 311:Middlewares/LVGL/GUI/lvgl/src/extra/widgets/meter/../../../../src/hal/../draw/../misc/lv_color.h ****     else {
 312:Middlewares/LVGL/GUI/lvgl/src/extra/widgets/meter/../../../../src/hal/../draw/../misc/lv_color.h ****         return 0;
 313:Middlewares/LVGL/GUI/lvgl/src/extra/widgets/meter/../../../../src/hal/../draw/../misc/lv_color.h ****     }
 314:Middlewares/LVGL/GUI/lvgl/src/extra/widgets/meter/../../../../src/hal/../draw/../misc/lv_color.h **** #elif LV_COLOR_DEPTH == 16
 315:Middlewares/LVGL/GUI/lvgl/src/extra/widgets/meter/../../../../src/hal/../draw/../misc/lv_color.h ****     if((LV_COLOR_GET_R(color) & 0x10) || (LV_COLOR_GET_G(color) & 0x20) || (LV_COLOR_GET_B(color) &
 316:Middlewares/LVGL/GUI/lvgl/src/extra/widgets/meter/../../../../src/hal/../draw/../misc/lv_color.h ****         return 1;
 317:Middlewares/LVGL/GUI/lvgl/src/extra/widgets/meter/../../../../src/hal/../draw/../misc/lv_color.h ****     }
 318:Middlewares/LVGL/GUI/lvgl/src/extra/widgets/meter/../../../../src/hal/../draw/../misc/lv_color.h ****     else {
 319:Middlewares/LVGL/GUI/lvgl/src/extra/widgets/meter/../../../../src/hal/../draw/../misc/lv_color.h ****         return 0;
 320:Middlewares/LVGL/GUI/lvgl/src/extra/widgets/meter/../../../../src/hal/../draw/../misc/lv_color.h ****     }
 321:Middlewares/LVGL/GUI/lvgl/src/extra/widgets/meter/../../../../src/hal/../draw/../misc/lv_color.h **** #elif LV_COLOR_DEPTH == 32
 322:Middlewares/LVGL/GUI/lvgl/src/extra/widgets/meter/../../../../src/hal/../draw/../misc/lv_color.h ****     if((LV_COLOR_GET_R(color) & 0x80) || (LV_COLOR_GET_G(color) & 0x80) || (LV_COLOR_GET_B(color) &
 323:Middlewares/LVGL/GUI/lvgl/src/extra/widgets/meter/../../../../src/hal/../draw/../misc/lv_color.h ****         return 1;
 324:Middlewares/LVGL/GUI/lvgl/src/extra/widgets/meter/../../../../src/hal/../draw/../misc/lv_color.h ****     }
 325:Middlewares/LVGL/GUI/lvgl/src/extra/widgets/meter/../../../../src/hal/../draw/../misc/lv_color.h ****     else {
 326:Middlewares/LVGL/GUI/lvgl/src/extra/widgets/meter/../../../../src/hal/../draw/../misc/lv_color.h ****         return 0;
 327:Middlewares/LVGL/GUI/lvgl/src/extra/widgets/meter/../../../../src/hal/../draw/../misc/lv_color.h ****     }
 328:Middlewares/LVGL/GUI/lvgl/src/extra/widgets/meter/../../../../src/hal/../draw/../misc/lv_color.h **** #endif
ARM GAS  C:\Users\ADMINI~1\AppData\Local\Temp\ccVbA5cL.s 			page 36


 329:Middlewares/LVGL/GUI/lvgl/src/extra/widgets/meter/../../../../src/hal/../draw/../misc/lv_color.h **** }
 330:Middlewares/LVGL/GUI/lvgl/src/extra/widgets/meter/../../../../src/hal/../draw/../misc/lv_color.h **** 
 331:Middlewares/LVGL/GUI/lvgl/src/extra/widgets/meter/../../../../src/hal/../draw/../misc/lv_color.h **** static inline uint8_t lv_color_to8(lv_color_t color)
 332:Middlewares/LVGL/GUI/lvgl/src/extra/widgets/meter/../../../../src/hal/../draw/../misc/lv_color.h **** {
 333:Middlewares/LVGL/GUI/lvgl/src/extra/widgets/meter/../../../../src/hal/../draw/../misc/lv_color.h **** #if LV_COLOR_DEPTH == 1
 334:Middlewares/LVGL/GUI/lvgl/src/extra/widgets/meter/../../../../src/hal/../draw/../misc/lv_color.h ****     if(color.full == 0)
 335:Middlewares/LVGL/GUI/lvgl/src/extra/widgets/meter/../../../../src/hal/../draw/../misc/lv_color.h ****         return 0;
 336:Middlewares/LVGL/GUI/lvgl/src/extra/widgets/meter/../../../../src/hal/../draw/../misc/lv_color.h ****     else
 337:Middlewares/LVGL/GUI/lvgl/src/extra/widgets/meter/../../../../src/hal/../draw/../misc/lv_color.h ****         return 0xFF;
 338:Middlewares/LVGL/GUI/lvgl/src/extra/widgets/meter/../../../../src/hal/../draw/../misc/lv_color.h **** #elif LV_COLOR_DEPTH == 8
 339:Middlewares/LVGL/GUI/lvgl/src/extra/widgets/meter/../../../../src/hal/../draw/../misc/lv_color.h ****     return color.full;
 340:Middlewares/LVGL/GUI/lvgl/src/extra/widgets/meter/../../../../src/hal/../draw/../misc/lv_color.h **** #elif LV_COLOR_DEPTH == 16
 341:Middlewares/LVGL/GUI/lvgl/src/extra/widgets/meter/../../../../src/hal/../draw/../misc/lv_color.h ****     lv_color8_t ret;
 342:Middlewares/LVGL/GUI/lvgl/src/extra/widgets/meter/../../../../src/hal/../draw/../misc/lv_color.h ****     LV_COLOR_SET_R8(ret, LV_COLOR_GET_R(color) >> 2); /*5 - 3  = 2*/
 343:Middlewares/LVGL/GUI/lvgl/src/extra/widgets/meter/../../../../src/hal/../draw/../misc/lv_color.h ****     LV_COLOR_SET_G8(ret, LV_COLOR_GET_G(color) >> 3); /*6 - 3  = 3*/
 344:Middlewares/LVGL/GUI/lvgl/src/extra/widgets/meter/../../../../src/hal/../draw/../misc/lv_color.h ****     LV_COLOR_SET_B8(ret, LV_COLOR_GET_B(color) >> 3); /*5 - 2  = 3*/
 345:Middlewares/LVGL/GUI/lvgl/src/extra/widgets/meter/../../../../src/hal/../draw/../misc/lv_color.h ****     return ret.full;
 346:Middlewares/LVGL/GUI/lvgl/src/extra/widgets/meter/../../../../src/hal/../draw/../misc/lv_color.h **** #elif LV_COLOR_DEPTH == 32
 347:Middlewares/LVGL/GUI/lvgl/src/extra/widgets/meter/../../../../src/hal/../draw/../misc/lv_color.h ****     lv_color8_t ret;
 348:Middlewares/LVGL/GUI/lvgl/src/extra/widgets/meter/../../../../src/hal/../draw/../misc/lv_color.h ****     LV_COLOR_SET_R8(ret, LV_COLOR_GET_R(color) >> 5); /*8 - 3  = 5*/
 349:Middlewares/LVGL/GUI/lvgl/src/extra/widgets/meter/../../../../src/hal/../draw/../misc/lv_color.h ****     LV_COLOR_SET_G8(ret, LV_COLOR_GET_G(color) >> 5); /*8 - 3  = 5*/
 350:Middlewares/LVGL/GUI/lvgl/src/extra/widgets/meter/../../../../src/hal/../draw/../misc/lv_color.h ****     LV_COLOR_SET_B8(ret, LV_COLOR_GET_B(color) >> 6); /*8 - 2  = 6*/
 351:Middlewares/LVGL/GUI/lvgl/src/extra/widgets/meter/../../../../src/hal/../draw/../misc/lv_color.h ****     return ret.full;
 352:Middlewares/LVGL/GUI/lvgl/src/extra/widgets/meter/../../../../src/hal/../draw/../misc/lv_color.h **** #endif
 353:Middlewares/LVGL/GUI/lvgl/src/extra/widgets/meter/../../../../src/hal/../draw/../misc/lv_color.h **** }
 354:Middlewares/LVGL/GUI/lvgl/src/extra/widgets/meter/../../../../src/hal/../draw/../misc/lv_color.h **** 
 355:Middlewares/LVGL/GUI/lvgl/src/extra/widgets/meter/../../../../src/hal/../draw/../misc/lv_color.h **** static inline uint16_t lv_color_to16(lv_color_t color)
 356:Middlewares/LVGL/GUI/lvgl/src/extra/widgets/meter/../../../../src/hal/../draw/../misc/lv_color.h **** {
 357:Middlewares/LVGL/GUI/lvgl/src/extra/widgets/meter/../../../../src/hal/../draw/../misc/lv_color.h **** #if LV_COLOR_DEPTH == 1
 358:Middlewares/LVGL/GUI/lvgl/src/extra/widgets/meter/../../../../src/hal/../draw/../misc/lv_color.h ****     if(color.full == 0)
 359:Middlewares/LVGL/GUI/lvgl/src/extra/widgets/meter/../../../../src/hal/../draw/../misc/lv_color.h ****         return 0;
 360:Middlewares/LVGL/GUI/lvgl/src/extra/widgets/meter/../../../../src/hal/../draw/../misc/lv_color.h ****     else
 361:Middlewares/LVGL/GUI/lvgl/src/extra/widgets/meter/../../../../src/hal/../draw/../misc/lv_color.h ****         return 0xFFFF;
 362:Middlewares/LVGL/GUI/lvgl/src/extra/widgets/meter/../../../../src/hal/../draw/../misc/lv_color.h **** #elif LV_COLOR_DEPTH == 8
 363:Middlewares/LVGL/GUI/lvgl/src/extra/widgets/meter/../../../../src/hal/../draw/../misc/lv_color.h ****     lv_color16_t ret;
 364:Middlewares/LVGL/GUI/lvgl/src/extra/widgets/meter/../../../../src/hal/../draw/../misc/lv_color.h ****     LV_COLOR_SET_R16(ret, LV_COLOR_GET_R(color) * 4);  /*(2^5 - 1)/(2^3 - 1) = 31/7 = 4*/
 365:Middlewares/LVGL/GUI/lvgl/src/extra/widgets/meter/../../../../src/hal/../draw/../misc/lv_color.h ****     LV_COLOR_SET_G16(ret, LV_COLOR_GET_G(color) * 9);  /*(2^6 - 1)/(2^3 - 1) = 63/7 = 9*/
 366:Middlewares/LVGL/GUI/lvgl/src/extra/widgets/meter/../../../../src/hal/../draw/../misc/lv_color.h ****     LV_COLOR_SET_B16(ret, LV_COLOR_GET_B(color) * 10); /*(2^5 - 1)/(2^2 - 1) = 31/3 = 10*/
 367:Middlewares/LVGL/GUI/lvgl/src/extra/widgets/meter/../../../../src/hal/../draw/../misc/lv_color.h ****     return ret.full;
 368:Middlewares/LVGL/GUI/lvgl/src/extra/widgets/meter/../../../../src/hal/../draw/../misc/lv_color.h **** #elif LV_COLOR_DEPTH == 16
 369:Middlewares/LVGL/GUI/lvgl/src/extra/widgets/meter/../../../../src/hal/../draw/../misc/lv_color.h ****     return color.full;
 370:Middlewares/LVGL/GUI/lvgl/src/extra/widgets/meter/../../../../src/hal/../draw/../misc/lv_color.h **** #elif LV_COLOR_DEPTH == 32
 371:Middlewares/LVGL/GUI/lvgl/src/extra/widgets/meter/../../../../src/hal/../draw/../misc/lv_color.h ****     lv_color16_t ret;
 372:Middlewares/LVGL/GUI/lvgl/src/extra/widgets/meter/../../../../src/hal/../draw/../misc/lv_color.h ****     LV_COLOR_SET_R16(ret, LV_COLOR_GET_R(color) >> 3); /*8 - 5  = 3*/
 373:Middlewares/LVGL/GUI/lvgl/src/extra/widgets/meter/../../../../src/hal/../draw/../misc/lv_color.h ****     LV_COLOR_SET_G16(ret, LV_COLOR_GET_G(color) >> 2); /*8 - 6  = 2*/
 374:Middlewares/LVGL/GUI/lvgl/src/extra/widgets/meter/../../../../src/hal/../draw/../misc/lv_color.h ****     LV_COLOR_SET_B16(ret, LV_COLOR_GET_B(color) >> 3); /*8 - 5  = 3*/
 375:Middlewares/LVGL/GUI/lvgl/src/extra/widgets/meter/../../../../src/hal/../draw/../misc/lv_color.h ****     return ret.full;
 376:Middlewares/LVGL/GUI/lvgl/src/extra/widgets/meter/../../../../src/hal/../draw/../misc/lv_color.h **** #endif
 377:Middlewares/LVGL/GUI/lvgl/src/extra/widgets/meter/../../../../src/hal/../draw/../misc/lv_color.h **** }
 378:Middlewares/LVGL/GUI/lvgl/src/extra/widgets/meter/../../../../src/hal/../draw/../misc/lv_color.h **** 
 379:Middlewares/LVGL/GUI/lvgl/src/extra/widgets/meter/../../../../src/hal/../draw/../misc/lv_color.h **** static inline uint32_t lv_color_to32(lv_color_t color)
 380:Middlewares/LVGL/GUI/lvgl/src/extra/widgets/meter/../../../../src/hal/../draw/../misc/lv_color.h **** {
 381:Middlewares/LVGL/GUI/lvgl/src/extra/widgets/meter/../../../../src/hal/../draw/../misc/lv_color.h **** #if LV_COLOR_DEPTH == 1
 382:Middlewares/LVGL/GUI/lvgl/src/extra/widgets/meter/../../../../src/hal/../draw/../misc/lv_color.h ****     if(color.full == 0)
 383:Middlewares/LVGL/GUI/lvgl/src/extra/widgets/meter/../../../../src/hal/../draw/../misc/lv_color.h ****         return 0xFF000000;
 384:Middlewares/LVGL/GUI/lvgl/src/extra/widgets/meter/../../../../src/hal/../draw/../misc/lv_color.h ****     else
 385:Middlewares/LVGL/GUI/lvgl/src/extra/widgets/meter/../../../../src/hal/../draw/../misc/lv_color.h ****         return 0xFFFFFFFF;
ARM GAS  C:\Users\ADMINI~1\AppData\Local\Temp\ccVbA5cL.s 			page 37


 386:Middlewares/LVGL/GUI/lvgl/src/extra/widgets/meter/../../../../src/hal/../draw/../misc/lv_color.h **** #elif LV_COLOR_DEPTH == 8
 387:Middlewares/LVGL/GUI/lvgl/src/extra/widgets/meter/../../../../src/hal/../draw/../misc/lv_color.h ****     lv_color32_t ret;
 388:Middlewares/LVGL/GUI/lvgl/src/extra/widgets/meter/../../../../src/hal/../draw/../misc/lv_color.h ****     LV_COLOR_SET_R32(ret, LV_COLOR_GET_R(color) * 36); /*(2^8 - 1)/(2^3 - 1) = 255/7 = 36*/
 389:Middlewares/LVGL/GUI/lvgl/src/extra/widgets/meter/../../../../src/hal/../draw/../misc/lv_color.h ****     LV_COLOR_SET_G32(ret, LV_COLOR_GET_G(color) * 36); /*(2^8 - 1)/(2^3 - 1) = 255/7 = 36*/
 390:Middlewares/LVGL/GUI/lvgl/src/extra/widgets/meter/../../../../src/hal/../draw/../misc/lv_color.h ****     LV_COLOR_SET_B32(ret, LV_COLOR_GET_B(color) * 85); /*(2^8 - 1)/(2^2 - 1) = 255/3 = 85*/
 391:Middlewares/LVGL/GUI/lvgl/src/extra/widgets/meter/../../../../src/hal/../draw/../misc/lv_color.h ****     LV_COLOR_SET_A32(ret, 0xFF);
 392:Middlewares/LVGL/GUI/lvgl/src/extra/widgets/meter/../../../../src/hal/../draw/../misc/lv_color.h ****     return ret.full;
 393:Middlewares/LVGL/GUI/lvgl/src/extra/widgets/meter/../../../../src/hal/../draw/../misc/lv_color.h **** #elif LV_COLOR_DEPTH == 16
 394:Middlewares/LVGL/GUI/lvgl/src/extra/widgets/meter/../../../../src/hal/../draw/../misc/lv_color.h ****     /**
 395:Middlewares/LVGL/GUI/lvgl/src/extra/widgets/meter/../../../../src/hal/../draw/../misc/lv_color.h ****      * The floating point math for conversion is:
 396:Middlewares/LVGL/GUI/lvgl/src/extra/widgets/meter/../../../../src/hal/../draw/../misc/lv_color.h ****      *  valueto = valuefrom * ( (2^bitsto - 1) / (float)(2^bitsfrom - 1) )
 397:Middlewares/LVGL/GUI/lvgl/src/extra/widgets/meter/../../../../src/hal/../draw/../misc/lv_color.h ****      * The faster integer math for conversion is:
 398:Middlewares/LVGL/GUI/lvgl/src/extra/widgets/meter/../../../../src/hal/../draw/../misc/lv_color.h ****      *  valueto = ( valuefrom * multiplier + adder ) >> divisor
 399:Middlewares/LVGL/GUI/lvgl/src/extra/widgets/meter/../../../../src/hal/../draw/../misc/lv_color.h ****      *   multiplier = FLOOR( ( (2^bitsto - 1) << divisor ) / (float)(2^bitsfrom - 1) )
 400:Middlewares/LVGL/GUI/lvgl/src/extra/widgets/meter/../../../../src/hal/../draw/../misc/lv_color.h ****      *
 401:Middlewares/LVGL/GUI/lvgl/src/extra/widgets/meter/../../../../src/hal/../draw/../misc/lv_color.h ****      * Find the first divisor where ( adder >> divisor ) <= 0
 402:Middlewares/LVGL/GUI/lvgl/src/extra/widgets/meter/../../../../src/hal/../draw/../misc/lv_color.h ****      *
 403:Middlewares/LVGL/GUI/lvgl/src/extra/widgets/meter/../../../../src/hal/../draw/../misc/lv_color.h ****      * 5-bit to 8-bit: ( 31 * multiplier + adder ) >> divisor = 255
 404:Middlewares/LVGL/GUI/lvgl/src/extra/widgets/meter/../../../../src/hal/../draw/../misc/lv_color.h ****      * divisor  multiplier  adder  min (0)  max (31)
 405:Middlewares/LVGL/GUI/lvgl/src/extra/widgets/meter/../../../../src/hal/../draw/../misc/lv_color.h ****      *       0           8      7        7       255
 406:Middlewares/LVGL/GUI/lvgl/src/extra/widgets/meter/../../../../src/hal/../draw/../misc/lv_color.h ****      *       1          16     14        7       255
 407:Middlewares/LVGL/GUI/lvgl/src/extra/widgets/meter/../../../../src/hal/../draw/../misc/lv_color.h ****      *       2          32     28        7       255
 408:Middlewares/LVGL/GUI/lvgl/src/extra/widgets/meter/../../../../src/hal/../draw/../misc/lv_color.h ****      *       3          65     25        3       255
 409:Middlewares/LVGL/GUI/lvgl/src/extra/widgets/meter/../../../../src/hal/../draw/../misc/lv_color.h ****      *       4         131     19        1       255
 410:Middlewares/LVGL/GUI/lvgl/src/extra/widgets/meter/../../../../src/hal/../draw/../misc/lv_color.h ****      *       5         263      7        0       255
 411:Middlewares/LVGL/GUI/lvgl/src/extra/widgets/meter/../../../../src/hal/../draw/../misc/lv_color.h ****      *
 412:Middlewares/LVGL/GUI/lvgl/src/extra/widgets/meter/../../../../src/hal/../draw/../misc/lv_color.h ****      * 6-bit to 8-bit: 255 = ( 63 * multiplier + adder ) >> divisor
 413:Middlewares/LVGL/GUI/lvgl/src/extra/widgets/meter/../../../../src/hal/../draw/../misc/lv_color.h ****      * divisor  multiplier  adder  min (0)  max (63)
 414:Middlewares/LVGL/GUI/lvgl/src/extra/widgets/meter/../../../../src/hal/../draw/../misc/lv_color.h ****      *       0           4      3        3       255
 415:Middlewares/LVGL/GUI/lvgl/src/extra/widgets/meter/../../../../src/hal/../draw/../misc/lv_color.h ****      *       1           8      6        3       255
 416:Middlewares/LVGL/GUI/lvgl/src/extra/widgets/meter/../../../../src/hal/../draw/../misc/lv_color.h ****      *       2          16     12        3       255
 417:Middlewares/LVGL/GUI/lvgl/src/extra/widgets/meter/../../../../src/hal/../draw/../misc/lv_color.h ****      *       3          32     24        3       255
 418:Middlewares/LVGL/GUI/lvgl/src/extra/widgets/meter/../../../../src/hal/../draw/../misc/lv_color.h ****      *       4          64     48        3       255
 419:Middlewares/LVGL/GUI/lvgl/src/extra/widgets/meter/../../../../src/hal/../draw/../misc/lv_color.h ****      *       5         129     33        1       255
 420:Middlewares/LVGL/GUI/lvgl/src/extra/widgets/meter/../../../../src/hal/../draw/../misc/lv_color.h ****      *       6         259      3        0       255
 421:Middlewares/LVGL/GUI/lvgl/src/extra/widgets/meter/../../../../src/hal/../draw/../misc/lv_color.h ****      */
 422:Middlewares/LVGL/GUI/lvgl/src/extra/widgets/meter/../../../../src/hal/../draw/../misc/lv_color.h **** 
 423:Middlewares/LVGL/GUI/lvgl/src/extra/widgets/meter/../../../../src/hal/../draw/../misc/lv_color.h ****     lv_color32_t ret;
 424:Middlewares/LVGL/GUI/lvgl/src/extra/widgets/meter/../../../../src/hal/../draw/../misc/lv_color.h ****     LV_COLOR_SET_R32(ret, (LV_COLOR_GET_R(color) * 263 + 7) >> 5);
 425:Middlewares/LVGL/GUI/lvgl/src/extra/widgets/meter/../../../../src/hal/../draw/../misc/lv_color.h ****     LV_COLOR_SET_G32(ret, (LV_COLOR_GET_G(color) * 259 + 3) >> 6);
 426:Middlewares/LVGL/GUI/lvgl/src/extra/widgets/meter/../../../../src/hal/../draw/../misc/lv_color.h ****     LV_COLOR_SET_B32(ret, (LV_COLOR_GET_B(color) * 263 + 7) >> 5);
 427:Middlewares/LVGL/GUI/lvgl/src/extra/widgets/meter/../../../../src/hal/../draw/../misc/lv_color.h ****     LV_COLOR_SET_A32(ret, 0xFF);
 428:Middlewares/LVGL/GUI/lvgl/src/extra/widgets/meter/../../../../src/hal/../draw/../misc/lv_color.h ****     return ret.full;
 429:Middlewares/LVGL/GUI/lvgl/src/extra/widgets/meter/../../../../src/hal/../draw/../misc/lv_color.h **** #elif LV_COLOR_DEPTH == 32
 430:Middlewares/LVGL/GUI/lvgl/src/extra/widgets/meter/../../../../src/hal/../draw/../misc/lv_color.h ****     return color.full;
 431:Middlewares/LVGL/GUI/lvgl/src/extra/widgets/meter/../../../../src/hal/../draw/../misc/lv_color.h **** #endif
 432:Middlewares/LVGL/GUI/lvgl/src/extra/widgets/meter/../../../../src/hal/../draw/../misc/lv_color.h **** }
 433:Middlewares/LVGL/GUI/lvgl/src/extra/widgets/meter/../../../../src/hal/../draw/../misc/lv_color.h **** 
 434:Middlewares/LVGL/GUI/lvgl/src/extra/widgets/meter/../../../../src/hal/../draw/../misc/lv_color.h **** //! @cond Doxygen_Suppress
 435:Middlewares/LVGL/GUI/lvgl/src/extra/widgets/meter/../../../../src/hal/../draw/../misc/lv_color.h **** 
 436:Middlewares/LVGL/GUI/lvgl/src/extra/widgets/meter/../../../../src/hal/../draw/../misc/lv_color.h **** /**
 437:Middlewares/LVGL/GUI/lvgl/src/extra/widgets/meter/../../../../src/hal/../draw/../misc/lv_color.h ****  * Mix two colors with a given ratio.
 438:Middlewares/LVGL/GUI/lvgl/src/extra/widgets/meter/../../../../src/hal/../draw/../misc/lv_color.h ****  * @param c1 the first color to mix (usually the foreground)
 439:Middlewares/LVGL/GUI/lvgl/src/extra/widgets/meter/../../../../src/hal/../draw/../misc/lv_color.h ****  * @param c2 the second color to mix (usually the background)
 440:Middlewares/LVGL/GUI/lvgl/src/extra/widgets/meter/../../../../src/hal/../draw/../misc/lv_color.h ****  * @param mix The ratio of the colors. 0: full `c2`, 255: full `c1`, 127: half `c1` and half`c2`
 441:Middlewares/LVGL/GUI/lvgl/src/extra/widgets/meter/../../../../src/hal/../draw/../misc/lv_color.h ****  * @return the mixed color
 442:Middlewares/LVGL/GUI/lvgl/src/extra/widgets/meter/../../../../src/hal/../draw/../misc/lv_color.h ****  */
ARM GAS  C:\Users\ADMINI~1\AppData\Local\Temp\ccVbA5cL.s 			page 38


 443:Middlewares/LVGL/GUI/lvgl/src/extra/widgets/meter/../../../../src/hal/../draw/../misc/lv_color.h **** LV_ATTRIBUTE_FAST_MEM static inline lv_color_t lv_color_mix(lv_color_t c1, lv_color_t c2, uint8_t m
 547              		.loc 4 443 48 view .LVU163
 548              	.LBB81:
 444:Middlewares/LVGL/GUI/lvgl/src/extra/widgets/meter/../../../../src/hal/../draw/../misc/lv_color.h **** {
 445:Middlewares/LVGL/GUI/lvgl/src/extra/widgets/meter/../../../../src/hal/../draw/../misc/lv_color.h ****     lv_color_t ret;
 549              		.loc 4 445 5 view .LVU164
 446:Middlewares/LVGL/GUI/lvgl/src/extra/widgets/meter/../../../../src/hal/../draw/../misc/lv_color.h **** 
 447:Middlewares/LVGL/GUI/lvgl/src/extra/widgets/meter/../../../../src/hal/../draw/../misc/lv_color.h **** #if LV_COLOR_DEPTH == 16 && LV_COLOR_16_SWAP == 0
 448:Middlewares/LVGL/GUI/lvgl/src/extra/widgets/meter/../../../../src/hal/../draw/../misc/lv_color.h ****     /*Source: https://stackoverflow.com/a/50012418/1999969*/
 449:Middlewares/LVGL/GUI/lvgl/src/extra/widgets/meter/../../../../src/hal/../draw/../misc/lv_color.h ****     mix = (mix + 4) >> 3;
 550              		.loc 4 449 5 view .LVU165
 551              		.loc 4 449 16 is_stmt 0 view .LVU166
 552 00ca 0435     		adds	r5, r5, #4
 553              	.LVL57:
 450:Middlewares/LVGL/GUI/lvgl/src/extra/widgets/meter/../../../../src/hal/../draw/../misc/lv_color.h ****     uint32_t bg = (uint32_t)((uint32_t)c2.full | ((uint32_t)c2.full << 16)) &
 554              		.loc 4 450 5 is_stmt 1 view .LVU167
 555              		.loc 4 450 42 is_stmt 0 view .LVU168
 556 00cc 628A     		ldrh	r2, [r4, #18]
 557              		.loc 4 450 19 view .LVU169
 558 00ce 42EA0242 		orr	r2, r2, r2, lsl #16
 559              		.loc 4 450 14 view .LVU170
 560 00d2 A349     		ldr	r1, .L40+4
 561 00d4 0A40     		ands	r2, r2, r1
 562              	.LVL58:
 451:Middlewares/LVGL/GUI/lvgl/src/extra/widgets/meter/../../../../src/hal/../draw/../misc/lv_color.h ****                   0x7E0F81F; /*0b00000111111000001111100000011111*/
 452:Middlewares/LVGL/GUI/lvgl/src/extra/widgets/meter/../../../../src/hal/../draw/../misc/lv_color.h ****     uint32_t fg = (uint32_t)((uint32_t)c1.full | ((uint32_t)c1.full << 16)) & 0x7E0F81F;
 563              		.loc 4 452 5 is_stmt 1 view .LVU171
 564              		.loc 4 452 42 is_stmt 0 view .LVU172
 565 00d6 A38A     		ldrh	r3, [r4, #20]
 566              		.loc 4 452 19 view .LVU173
 567 00d8 43EA0343 		orr	r3, r3, r3, lsl #16
 568              		.loc 4 452 14 view .LVU174
 569 00dc 0B40     		ands	r3, r3, r1
 570              	.LVL59:
 453:Middlewares/LVGL/GUI/lvgl/src/extra/widgets/meter/../../../../src/hal/../draw/../misc/lv_color.h ****     uint32_t result = ((((fg - bg) * mix) >> 5) + bg) & 0x7E0F81F;
 571              		.loc 4 453 5 is_stmt 1 view .LVU175
 572              		.loc 4 453 30 is_stmt 0 view .LVU176
 573 00de 9B1A     		subs	r3, r3, r2
 574              	.LVL60:
 575              		.loc 4 453 36 view .LVU177
 576 00e0 C5F3C705 		ubfx	r5, r5, #3, #8
 577              	.LVL61:
 578              		.loc 4 453 36 view .LVU178
 579 00e4 03FB05F5 		mul	r5, r3, r5
 580              		.loc 4 453 49 view .LVU179
 581 00e8 02EB5515 		add	r5, r2, r5, lsr #5
 582              		.loc 4 453 14 view .LVU180
 583 00ec 0D40     		ands	r5, r5, r1
 584              	.LVL62:
 454:Middlewares/LVGL/GUI/lvgl/src/extra/widgets/meter/../../../../src/hal/../draw/../misc/lv_color.h ****     ret.full = (uint16_t)((result >> 16) | result);
 585              		.loc 4 454 5 is_stmt 1 view .LVU181
 455:Middlewares/LVGL/GUI/lvgl/src/extra/widgets/meter/../../../../src/hal/../draw/../misc/lv_color.h **** #elif LV_COLOR_DEPTH != 1
 456:Middlewares/LVGL/GUI/lvgl/src/extra/widgets/meter/../../../../src/hal/../draw/../misc/lv_color.h ****     /*LV_COLOR_DEPTH == 8, 16 or 32*/
 457:Middlewares/LVGL/GUI/lvgl/src/extra/widgets/meter/../../../../src/hal/../draw/../misc/lv_color.h ****     LV_COLOR_SET_R(ret, LV_UDIV255((uint16_t)LV_COLOR_GET_R(c1) * mix + LV_COLOR_GET_R(c2) *
 458:Middlewares/LVGL/GUI/lvgl/src/extra/widgets/meter/../../../../src/hal/../draw/../misc/lv_color.h ****                                    (255 - mix) + LV_COLOR_MIX_ROUND_OFS));
 459:Middlewares/LVGL/GUI/lvgl/src/extra/widgets/meter/../../../../src/hal/../draw/../misc/lv_color.h ****     LV_COLOR_SET_G(ret, LV_UDIV255((uint16_t)LV_COLOR_GET_G(c1) * mix + LV_COLOR_GET_G(c2) *
 460:Middlewares/LVGL/GUI/lvgl/src/extra/widgets/meter/../../../../src/hal/../draw/../misc/lv_color.h ****                                    (255 - mix) + LV_COLOR_MIX_ROUND_OFS));
ARM GAS  C:\Users\ADMINI~1\AppData\Local\Temp\ccVbA5cL.s 			page 39


 461:Middlewares/LVGL/GUI/lvgl/src/extra/widgets/meter/../../../../src/hal/../draw/../misc/lv_color.h ****     LV_COLOR_SET_B(ret, LV_UDIV255((uint16_t)LV_COLOR_GET_B(c1) * mix + LV_COLOR_GET_B(c2) *
 462:Middlewares/LVGL/GUI/lvgl/src/extra/widgets/meter/../../../../src/hal/../draw/../misc/lv_color.h ****                                    (255 - mix) + LV_COLOR_MIX_ROUND_OFS));
 463:Middlewares/LVGL/GUI/lvgl/src/extra/widgets/meter/../../../../src/hal/../draw/../misc/lv_color.h ****     LV_COLOR_SET_A(ret, 0xFF);
 464:Middlewares/LVGL/GUI/lvgl/src/extra/widgets/meter/../../../../src/hal/../draw/../misc/lv_color.h **** #else
 465:Middlewares/LVGL/GUI/lvgl/src/extra/widgets/meter/../../../../src/hal/../draw/../misc/lv_color.h ****     /*LV_COLOR_DEPTH == 1*/
 466:Middlewares/LVGL/GUI/lvgl/src/extra/widgets/meter/../../../../src/hal/../draw/../misc/lv_color.h ****     ret.full = mix > LV_OPA_50 ? c1.full : c2.full;
 467:Middlewares/LVGL/GUI/lvgl/src/extra/widgets/meter/../../../../src/hal/../draw/../misc/lv_color.h **** #endif
 468:Middlewares/LVGL/GUI/lvgl/src/extra/widgets/meter/../../../../src/hal/../draw/../misc/lv_color.h **** 
 469:Middlewares/LVGL/GUI/lvgl/src/extra/widgets/meter/../../../../src/hal/../draw/../misc/lv_color.h ****     return ret;
 586              		.loc 4 469 5 view .LVU182
 587 00ee 45EA1545 		orr	r5, r5, r5, lsr #16
 588              	.LVL63:
 589              	.L21:
 590              		.loc 4 469 5 is_stmt 0 view .LVU183
 591              	.LBE81:
 592              	.LBE80:
 593              	.LBE79:
 456:Middlewares/LVGL/GUI/lvgl/src/extra/widgets/meter/lv_meter.c ****                 if(indic->type != LV_METER_INDICATOR_TYPE_SCALE_LINES) continue;
 594              		.loc 1 456 13 is_stmt 1 discriminator 2 view .LVU184
 595 00f2 2146     		mov	r1, r4
 596 00f4 3046     		mov	r0, r6
 597 00f6 FFF7FEFF 		bl	_lv_ll_get_prev
 598              	.LVL64:
 599 00fa 0446     		mov	r4, r0
 600              	.LVL65:
 601              	.L20:
 456:Middlewares/LVGL/GUI/lvgl/src/extra/widgets/meter/lv_meter.c ****                 if(indic->type != LV_METER_INDICATOR_TYPE_SCALE_LINES) continue;
 602              		.loc 1 456 13 discriminator 1 view .LVU185
 603 00fc DCB1     		cbz	r4, .L36
 457:Middlewares/LVGL/GUI/lvgl/src/extra/widgets/meter/lv_meter.c ****                 if(value_of_line >= indic->start_value && value_of_line <= indic->end_value) {
 604              		.loc 1 457 17 view .LVU186
 457:Middlewares/LVGL/GUI/lvgl/src/extra/widgets/meter/lv_meter.c ****                 if(value_of_line >= indic->start_value && value_of_line <= indic->end_value) {
 605              		.loc 1 457 25 is_stmt 0 view .LVU187
 606 00fe 2379     		ldrb	r3, [r4, #4]	@ zero_extendqisi2
 457:Middlewares/LVGL/GUI/lvgl/src/extra/widgets/meter/lv_meter.c ****                 if(value_of_line >= indic->start_value && value_of_line <= indic->end_value) {
 607              		.loc 1 457 19 view .LVU188
 608 0100 022B     		cmp	r3, #2
 609 0102 F6D1     		bne	.L21
 458:Middlewares/LVGL/GUI/lvgl/src/extra/widgets/meter/lv_meter.c ****                     line_width += indic->type_data.scale_lines.width_mod;
 610              		.loc 1 458 17 is_stmt 1 view .LVU189
 458:Middlewares/LVGL/GUI/lvgl/src/extra/widgets/meter/lv_meter.c ****                     line_width += indic->type_data.scale_lines.width_mod;
 611              		.loc 1 458 42 is_stmt 0 view .LVU190
 612 0104 A168     		ldr	r1, [r4, #8]
 458:Middlewares/LVGL/GUI/lvgl/src/extra/widgets/meter/lv_meter.c ****                     line_width += indic->type_data.scale_lines.width_mod;
 613              		.loc 1 458 19 view .LVU191
 614 0106 B942     		cmp	r1, r7
 615 0108 F3DC     		bgt	.L21
 458:Middlewares/LVGL/GUI/lvgl/src/extra/widgets/meter/lv_meter.c ****                     line_width += indic->type_data.scale_lines.width_mod;
 616              		.loc 1 458 81 discriminator 1 view .LVU192
 617 010a E268     		ldr	r2, [r4, #12]
 458:Middlewares/LVGL/GUI/lvgl/src/extra/widgets/meter/lv_meter.c ****                     line_width += indic->type_data.scale_lines.width_mod;
 618              		.loc 1 458 56 discriminator 1 view .LVU193
 619 010c BA42     		cmp	r2, r7
 620 010e F0DB     		blt	.L21
 459:Middlewares/LVGL/GUI/lvgl/src/extra/widgets/meter/lv_meter.c **** 
 621              		.loc 1 459 21 is_stmt 1 view .LVU194
 459:Middlewares/LVGL/GUI/lvgl/src/extra/widgets/meter/lv_meter.c **** 
ARM GAS  C:\Users\ADMINI~1\AppData\Local\Temp\ccVbA5cL.s 			page 40


 622              		.loc 1 459 63 is_stmt 0 view .LVU195
 623 0110 B4F91030 		ldrsh	r3, [r4, #16]
 459:Middlewares/LVGL/GUI/lvgl/src/extra/widgets/meter/lv_meter.c **** 
 624              		.loc 1 459 32 view .LVU196
 625 0114 9A44     		add	r10, r10, r3
 626              	.LVL66:
 461:Middlewares/LVGL/GUI/lvgl/src/extra/widgets/meter/lv_meter.c ****                         line_color = indic->type_data.scale_lines.color_start;
 627              		.loc 1 461 21 is_stmt 1 view .LVU197
 461:Middlewares/LVGL/GUI/lvgl/src/extra/widgets/meter/lv_meter.c ****                         line_color = indic->type_data.scale_lines.color_start;
 628              		.loc 1 461 64 is_stmt 0 view .LVU198
 629 0116 608A     		ldrh	r0, [r4, #18]
 630              	.LVL67:
 461:Middlewares/LVGL/GUI/lvgl/src/extra/widgets/meter/lv_meter.c ****                         line_color = indic->type_data.scale_lines.color_start;
 631              		.loc 1 461 111 view .LVU199
 632 0118 A38A     		ldrh	r3, [r4, #20]
 461:Middlewares/LVGL/GUI/lvgl/src/extra/widgets/meter/lv_meter.c ****                         line_color = indic->type_data.scale_lines.color_start;
 633              		.loc 1 461 23 view .LVU200
 634 011a 9842     		cmp	r0, r3
 635 011c C8D0     		beq	.L37
 636              	.LBB82:
 465:Middlewares/LVGL/GUI/lvgl/src/extra/widgets/meter/lv_meter.c ****                         if(indic->type_data.scale_lines.local_grad) {
 637              		.loc 1 465 25 is_stmt 1 view .LVU201
 466:Middlewares/LVGL/GUI/lvgl/src/extra/widgets/meter/lv_meter.c ****                             ratio = lv_map(value_of_line, indic->start_value, indic->end_value, LV_
 638              		.loc 1 466 25 view .LVU202
 466:Middlewares/LVGL/GUI/lvgl/src/extra/widgets/meter/lv_meter.c ****                             ratio = lv_map(value_of_line, indic->start_value, indic->end_value, LV_
 639              		.loc 1 466 28 is_stmt 0 view .LVU203
 640 011e A37D     		ldrb	r3, [r4, #22]	@ zero_extendqisi2
 466:Middlewares/LVGL/GUI/lvgl/src/extra/widgets/meter/lv_meter.c ****                             ratio = lv_map(value_of_line, indic->start_value, indic->end_value, LV_
 641              		.loc 1 466 27 view .LVU204
 642 0120 13F0010F 		tst	r3, #1
 643 0124 C6D0     		beq	.L23
 467:Middlewares/LVGL/GUI/lvgl/src/extra/widgets/meter/lv_meter.c ****                         }
 644              		.loc 1 467 29 is_stmt 1 view .LVU205
 467:Middlewares/LVGL/GUI/lvgl/src/extra/widgets/meter/lv_meter.c ****                         }
 645              		.loc 1 467 37 is_stmt 0 view .LVU206
 646 0126 FF23     		movs	r3, #255
 647 0128 0093     		str	r3, [sp]
 648 012a 0023     		movs	r3, #0
 649 012c 3846     		mov	r0, r7
 650 012e FFF7FEFF 		bl	lv_map
 651              	.LVL68:
 467:Middlewares/LVGL/GUI/lvgl/src/extra/widgets/meter/lv_meter.c ****                         }
 652              		.loc 1 467 35 view .LVU207
 653 0132 C5B2     		uxtb	r5, r0
 654              	.LVL69:
 467:Middlewares/LVGL/GUI/lvgl/src/extra/widgets/meter/lv_meter.c ****                         }
 655              		.loc 1 467 35 view .LVU208
 656 0134 C9E7     		b	.L24
 657              	.LVL70:
 658              	.L36:
 467:Middlewares/LVGL/GUI/lvgl/src/extra/widgets/meter/lv_meter.c ****                         }
 659              		.loc 1 467 35 view .LVU209
 660              	.LBE82:
 473:Middlewares/LVGL/GUI/lvgl/src/extra/widgets/meter/lv_meter.c ****                     }
 474:Middlewares/LVGL/GUI/lvgl/src/extra/widgets/meter/lv_meter.c ****                 }
 475:Middlewares/LVGL/GUI/lvgl/src/extra/widgets/meter/lv_meter.c ****             }
 476:Middlewares/LVGL/GUI/lvgl/src/extra/widgets/meter/lv_meter.c **** 
ARM GAS  C:\Users\ADMINI~1\AppData\Local\Temp\ccVbA5cL.s 			page 41


 477:Middlewares/LVGL/GUI/lvgl/src/extra/widgets/meter/lv_meter.c ****             /*`* 256` for extra precision*/
 478:Middlewares/LVGL/GUI/lvgl/src/extra/widgets/meter/lv_meter.c ****             int32_t angle_upscale = ((i * scale->angle_range) << 8) / (scale->tick_cnt - 1);
 661              		.loc 1 478 13 is_stmt 1 view .LVU210
 662              		.loc 1 478 48 is_stmt 0 view .LVU211
 663 0136 BBF81E40 		ldrh	r4, [fp, #30]
 664              		.loc 1 478 41 view .LVU212
 665 013a 04FB08F4 		mul	r4, r4, r8
 666              		.loc 1 478 63 view .LVU213
 667 013e 2402     		lsls	r4, r4, #8
 668              		.loc 1 478 77 view .LVU214
 669 0140 BBF80280 		ldrh	r8, [fp, #2]
 670              		.loc 1 478 88 view .LVU215
 671 0144 08F1FF38 		add	r8, r8, #-1
 672              		.loc 1 478 21 view .LVU216
 673 0148 94FBF8F4 		sdiv	r4, r4, r8
 674              	.LVL71:
 479:Middlewares/LVGL/GUI/lvgl/src/extra/widgets/meter/lv_meter.c **** 
 480:Middlewares/LVGL/GUI/lvgl/src/extra/widgets/meter/lv_meter.c ****             int32_t angle_low = (angle_upscale >> 8);
 675              		.loc 1 480 13 is_stmt 1 view .LVU217
 676              		.loc 1 480 21 is_stmt 0 view .LVU218
 677 014c 2612     		asrs	r6, r4, #8
 678              	.LVL72:
 481:Middlewares/LVGL/GUI/lvgl/src/extra/widgets/meter/lv_meter.c ****             int32_t angle_high = angle_low + 1;
 679              		.loc 1 481 13 is_stmt 1 view .LVU219
 680              		.loc 1 481 21 is_stmt 0 view .LVU220
 681 014e 06F10108 		add	r8, r6, #1
 682              	.LVL73:
 482:Middlewares/LVGL/GUI/lvgl/src/extra/widgets/meter/lv_meter.c ****             int32_t angle_rem = angle_upscale & 0xFF;
 683              		.loc 1 482 13 is_stmt 1 view .LVU221
 684              		.loc 1 482 21 is_stmt 0 view .LVU222
 685 0152 E4B2     		uxtb	r4, r4
 686              	.LVL74:
 483:Middlewares/LVGL/GUI/lvgl/src/extra/widgets/meter/lv_meter.c **** 
 484:Middlewares/LVGL/GUI/lvgl/src/extra/widgets/meter/lv_meter.c ****             /*Interpolate sine and cos*/
 485:Middlewares/LVGL/GUI/lvgl/src/extra/widgets/meter/lv_meter.c ****             int32_t sin_low = lv_trigo_sin(angle_low + scale->rotation);
 687              		.loc 1 485 13 is_stmt 1 view .LVU223
 688              		.loc 1 485 61 is_stmt 0 view .LVU224
 689 0154 BBF82000 		ldrh	r0, [fp, #32]
 690              	.LVL75:
 691              		.loc 1 485 54 view .LVU225
 692 0158 B6B2     		uxth	r6, r6
 693              	.LVL76:
 694              		.loc 1 485 54 view .LVU226
 695 015a 3044     		add	r0, r0, r6
 696              		.loc 1 485 31 view .LVU227
 697 015c 00B2     		sxth	r0, r0
 698 015e FFF7FEFF 		bl	lv_trigo_sin
 699              	.LVL77:
 700              		.loc 1 485 31 view .LVU228
 701 0162 8146     		mov	r9, r0
 702              	.LVL78:
 486:Middlewares/LVGL/GUI/lvgl/src/extra/widgets/meter/lv_meter.c ****             int32_t sin_high = lv_trigo_sin(angle_high + scale->rotation);
 703              		.loc 1 486 13 is_stmt 1 view .LVU229
 704              		.loc 1 486 63 is_stmt 0 view .LVU230
 705 0164 BBF82000 		ldrh	r0, [fp, #32]
 706              	.LVL79:
 707              		.loc 1 486 56 view .LVU231
ARM GAS  C:\Users\ADMINI~1\AppData\Local\Temp\ccVbA5cL.s 			page 42


 708 0168 1FFA88F8 		uxth	r8, r8
 709              	.LVL80:
 710              		.loc 1 486 56 view .LVU232
 711 016c 4044     		add	r0, r0, r8
 712              		.loc 1 486 32 view .LVU233
 713 016e 00B2     		sxth	r0, r0
 714 0170 FFF7FEFF 		bl	lv_trigo_sin
 715              	.LVL81:
 487:Middlewares/LVGL/GUI/lvgl/src/extra/widgets/meter/lv_meter.c ****             int32_t sin_mid = (sin_low * (256 - angle_rem) + sin_high * angle_rem) >> 8;
 716              		.loc 1 487 13 is_stmt 1 view .LVU234
 717              		.loc 1 487 47 is_stmt 0 view .LVU235
 718 0174 C4F58073 		rsb	r3, r4, #256
 719              		.loc 1 487 71 view .LVU236
 720 0178 04FB00F0 		mul	r0, r4, r0
 721              	.LVL82:
 722              		.loc 1 487 60 view .LVU237
 723 017c 0A93     		str	r3, [sp, #40]
 724 017e 09FB0309 		mla	r9, r9, r3, r0
 725              	.LVL83:
 726              		.loc 1 487 21 view .LVU238
 727 0182 4FEA2929 		asr	r9, r9, #8
 728              	.LVL84:
 488:Middlewares/LVGL/GUI/lvgl/src/extra/widgets/meter/lv_meter.c **** 
 489:Middlewares/LVGL/GUI/lvgl/src/extra/widgets/meter/lv_meter.c ****             int32_t cos_low = lv_trigo_cos(angle_low + scale->rotation);
 729              		.loc 1 489 13 is_stmt 1 view .LVU239
 730              		.loc 1 489 61 is_stmt 0 view .LVU240
 731 0186 BBF82000 		ldrh	r0, [fp, #32]
 732              		.loc 1 489 54 view .LVU241
 733 018a 3044     		add	r0, r0, r6
 734 018c 80B2     		uxth	r0, r0
 735              	.LVL85:
 736              	.LBB83:
 737              	.LBI83:
 738              		.file 5 "Middlewares/LVGL/GUI/lvgl/src/extra/widgets/meter/../../../../src/misc/lv_math.h"
   1:Middlewares/LVGL/GUI/lvgl/src/extra/widgets/meter/../../../../src/misc/lv_math.h **** /**
   2:Middlewares/LVGL/GUI/lvgl/src/extra/widgets/meter/../../../../src/misc/lv_math.h ****  * @file lv_math.h
   3:Middlewares/LVGL/GUI/lvgl/src/extra/widgets/meter/../../../../src/misc/lv_math.h ****  *
   4:Middlewares/LVGL/GUI/lvgl/src/extra/widgets/meter/../../../../src/misc/lv_math.h ****  */
   5:Middlewares/LVGL/GUI/lvgl/src/extra/widgets/meter/../../../../src/misc/lv_math.h **** 
   6:Middlewares/LVGL/GUI/lvgl/src/extra/widgets/meter/../../../../src/misc/lv_math.h **** #ifndef LV_MATH_H
   7:Middlewares/LVGL/GUI/lvgl/src/extra/widgets/meter/../../../../src/misc/lv_math.h **** #define LV_MATH_H
   8:Middlewares/LVGL/GUI/lvgl/src/extra/widgets/meter/../../../../src/misc/lv_math.h **** 
   9:Middlewares/LVGL/GUI/lvgl/src/extra/widgets/meter/../../../../src/misc/lv_math.h **** #ifdef __cplusplus
  10:Middlewares/LVGL/GUI/lvgl/src/extra/widgets/meter/../../../../src/misc/lv_math.h **** extern "C" {
  11:Middlewares/LVGL/GUI/lvgl/src/extra/widgets/meter/../../../../src/misc/lv_math.h **** #endif
  12:Middlewares/LVGL/GUI/lvgl/src/extra/widgets/meter/../../../../src/misc/lv_math.h **** 
  13:Middlewares/LVGL/GUI/lvgl/src/extra/widgets/meter/../../../../src/misc/lv_math.h **** /*********************
  14:Middlewares/LVGL/GUI/lvgl/src/extra/widgets/meter/../../../../src/misc/lv_math.h ****  *      INCLUDES
  15:Middlewares/LVGL/GUI/lvgl/src/extra/widgets/meter/../../../../src/misc/lv_math.h ****  *********************/
  16:Middlewares/LVGL/GUI/lvgl/src/extra/widgets/meter/../../../../src/misc/lv_math.h **** #include "../lv_conf_internal.h"
  17:Middlewares/LVGL/GUI/lvgl/src/extra/widgets/meter/../../../../src/misc/lv_math.h **** #include <stdint.h>
  18:Middlewares/LVGL/GUI/lvgl/src/extra/widgets/meter/../../../../src/misc/lv_math.h **** 
  19:Middlewares/LVGL/GUI/lvgl/src/extra/widgets/meter/../../../../src/misc/lv_math.h **** /*********************
  20:Middlewares/LVGL/GUI/lvgl/src/extra/widgets/meter/../../../../src/misc/lv_math.h ****  *      DEFINES
  21:Middlewares/LVGL/GUI/lvgl/src/extra/widgets/meter/../../../../src/misc/lv_math.h ****  *********************/
  22:Middlewares/LVGL/GUI/lvgl/src/extra/widgets/meter/../../../../src/misc/lv_math.h **** #define LV_TRIGO_SIN_MAX 32767
  23:Middlewares/LVGL/GUI/lvgl/src/extra/widgets/meter/../../../../src/misc/lv_math.h **** #define LV_TRIGO_SHIFT 15 /**<  >> LV_TRIGO_SHIFT to normalize*/
ARM GAS  C:\Users\ADMINI~1\AppData\Local\Temp\ccVbA5cL.s 			page 43


  24:Middlewares/LVGL/GUI/lvgl/src/extra/widgets/meter/../../../../src/misc/lv_math.h **** 
  25:Middlewares/LVGL/GUI/lvgl/src/extra/widgets/meter/../../../../src/misc/lv_math.h **** #define LV_BEZIER_VAL_MAX 1024 /**< Max time in Bezier functions (not [0..1] to use integers)*/
  26:Middlewares/LVGL/GUI/lvgl/src/extra/widgets/meter/../../../../src/misc/lv_math.h **** #define LV_BEZIER_VAL_SHIFT 10 /**< log2(LV_BEZIER_VAL_MAX): used to normalize up scaled values*/
  27:Middlewares/LVGL/GUI/lvgl/src/extra/widgets/meter/../../../../src/misc/lv_math.h **** 
  28:Middlewares/LVGL/GUI/lvgl/src/extra/widgets/meter/../../../../src/misc/lv_math.h **** /**********************
  29:Middlewares/LVGL/GUI/lvgl/src/extra/widgets/meter/../../../../src/misc/lv_math.h ****  *      TYPEDEFS
  30:Middlewares/LVGL/GUI/lvgl/src/extra/widgets/meter/../../../../src/misc/lv_math.h ****  **********************/
  31:Middlewares/LVGL/GUI/lvgl/src/extra/widgets/meter/../../../../src/misc/lv_math.h **** 
  32:Middlewares/LVGL/GUI/lvgl/src/extra/widgets/meter/../../../../src/misc/lv_math.h **** typedef struct {
  33:Middlewares/LVGL/GUI/lvgl/src/extra/widgets/meter/../../../../src/misc/lv_math.h ****     uint16_t i;
  34:Middlewares/LVGL/GUI/lvgl/src/extra/widgets/meter/../../../../src/misc/lv_math.h ****     uint16_t f;
  35:Middlewares/LVGL/GUI/lvgl/src/extra/widgets/meter/../../../../src/misc/lv_math.h **** } lv_sqrt_res_t;
  36:Middlewares/LVGL/GUI/lvgl/src/extra/widgets/meter/../../../../src/misc/lv_math.h **** 
  37:Middlewares/LVGL/GUI/lvgl/src/extra/widgets/meter/../../../../src/misc/lv_math.h **** /**********************
  38:Middlewares/LVGL/GUI/lvgl/src/extra/widgets/meter/../../../../src/misc/lv_math.h ****  * GLOBAL PROTOTYPES
  39:Middlewares/LVGL/GUI/lvgl/src/extra/widgets/meter/../../../../src/misc/lv_math.h ****  **********************/
  40:Middlewares/LVGL/GUI/lvgl/src/extra/widgets/meter/../../../../src/misc/lv_math.h **** 
  41:Middlewares/LVGL/GUI/lvgl/src/extra/widgets/meter/../../../../src/misc/lv_math.h **** //! @cond Doxygen_Suppress
  42:Middlewares/LVGL/GUI/lvgl/src/extra/widgets/meter/../../../../src/misc/lv_math.h **** /**
  43:Middlewares/LVGL/GUI/lvgl/src/extra/widgets/meter/../../../../src/misc/lv_math.h ****  * Return with sinus of an angle
  44:Middlewares/LVGL/GUI/lvgl/src/extra/widgets/meter/../../../../src/misc/lv_math.h ****  * @param angle
  45:Middlewares/LVGL/GUI/lvgl/src/extra/widgets/meter/../../../../src/misc/lv_math.h ****  * @return sinus of 'angle'. sin(-90) = -32767, sin(90) = 32767
  46:Middlewares/LVGL/GUI/lvgl/src/extra/widgets/meter/../../../../src/misc/lv_math.h ****  */
  47:Middlewares/LVGL/GUI/lvgl/src/extra/widgets/meter/../../../../src/misc/lv_math.h **** LV_ATTRIBUTE_FAST_MEM int16_t lv_trigo_sin(int16_t angle);
  48:Middlewares/LVGL/GUI/lvgl/src/extra/widgets/meter/../../../../src/misc/lv_math.h **** 
  49:Middlewares/LVGL/GUI/lvgl/src/extra/widgets/meter/../../../../src/misc/lv_math.h **** static inline LV_ATTRIBUTE_FAST_MEM int16_t lv_trigo_cos(int16_t angle)
 739              		.loc 5 49 45 is_stmt 1 view .LVU242
 740              	.LBB84:
  50:Middlewares/LVGL/GUI/lvgl/src/extra/widgets/meter/../../../../src/misc/lv_math.h **** {
  51:Middlewares/LVGL/GUI/lvgl/src/extra/widgets/meter/../../../../src/misc/lv_math.h ****     return lv_trigo_sin(angle + 90);
 741              		.loc 5 51 5 view .LVU243
 742              		.loc 5 51 31 is_stmt 0 view .LVU244
 743 018e 5A30     		adds	r0, r0, #90
 744              	.LVL86:
 745              		.loc 5 51 12 view .LVU245
 746 0190 00B2     		sxth	r0, r0
 747              	.LVL87:
 748              		.loc 5 51 12 view .LVU246
 749 0192 FFF7FEFF 		bl	lv_trigo_sin
 750              	.LVL88:
 751              		.loc 5 51 12 view .LVU247
 752 0196 0646     		mov	r6, r0
 753              	.LVL89:
 754              		.loc 5 51 12 view .LVU248
 755              	.LBE84:
 756              	.LBE83:
