ARM GAS  C:\Users\ADMINI~1\AppData\Local\Temp\ccVbA5cL.s 			page 1


   1              		.cpu cortex-m4
   2              		.arch armv7e-m
   3              		.fpu fpv4-sp-d16
   4              		.eabi_attribute 27, 1
   5              		.eabi_attribute 28, 1
   6              		.eabi_attribute 20, 1
   7              		.eabi_attribute 21, 1
   8              		.eabi_attribute 23, 3
   9              		.eabi_attribute 24, 1
  10              		.eabi_attribute 25, 1
  11              		.eabi_attribute 26, 1
  12              		.eabi_attribute 30, 1
  13              		.eabi_attribute 34, 1
  14              		.eabi_attribute 18, 4
  15              		.file	"lv_meter.c"
  16              		.text
  17              	.Ltext0:
  18              		.cfi_sections	.debug_frame
  19              		.section	.text.draw_arcs,"ax",%progbits
  20              		.align	1
  21              		.syntax unified
  22              		.thumb
  23              		.thumb_func
  25              	draw_arcs:
  26              	.LVL0:
  27              	.LFB211:
  28              		.file 1 "Middlewares/LVGL/GUI/lvgl/src/extra/widgets/meter/lv_meter.c"
   1:Middlewares/LVGL/GUI/lvgl/src/extra/widgets/meter/lv_meter.c **** /**
   2:Middlewares/LVGL/GUI/lvgl/src/extra/widgets/meter/lv_meter.c ****  * @file lv_meter.c
   3:Middlewares/LVGL/GUI/lvgl/src/extra/widgets/meter/lv_meter.c ****  *
   4:Middlewares/LVGL/GUI/lvgl/src/extra/widgets/meter/lv_meter.c ****  */
   5:Middlewares/LVGL/GUI/lvgl/src/extra/widgets/meter/lv_meter.c **** 
   6:Middlewares/LVGL/GUI/lvgl/src/extra/widgets/meter/lv_meter.c **** /*********************
   7:Middlewares/LVGL/GUI/lvgl/src/extra/widgets/meter/lv_meter.c ****  *      INCLUDES
   8:Middlewares/LVGL/GUI/lvgl/src/extra/widgets/meter/lv_meter.c ****  *********************/
   9:Middlewares/LVGL/GUI/lvgl/src/extra/widgets/meter/lv_meter.c **** #include "lv_meter.h"
  10:Middlewares/LVGL/GUI/lvgl/src/extra/widgets/meter/lv_meter.c **** #if LV_USE_METER != 0
  11:Middlewares/LVGL/GUI/lvgl/src/extra/widgets/meter/lv_meter.c **** 
  12:Middlewares/LVGL/GUI/lvgl/src/extra/widgets/meter/lv_meter.c **** #include "../../../misc/lv_assert.h"
  13:Middlewares/LVGL/GUI/lvgl/src/extra/widgets/meter/lv_meter.c **** 
  14:Middlewares/LVGL/GUI/lvgl/src/extra/widgets/meter/lv_meter.c **** /*********************
  15:Middlewares/LVGL/GUI/lvgl/src/extra/widgets/meter/lv_meter.c ****  *      DEFINES
  16:Middlewares/LVGL/GUI/lvgl/src/extra/widgets/meter/lv_meter.c ****  *********************/
  17:Middlewares/LVGL/GUI/lvgl/src/extra/widgets/meter/lv_meter.c **** #define MY_CLASS &lv_meter_class
  18:Middlewares/LVGL/GUI/lvgl/src/extra/widgets/meter/lv_meter.c **** 
  19:Middlewares/LVGL/GUI/lvgl/src/extra/widgets/meter/lv_meter.c **** /**********************
  20:Middlewares/LVGL/GUI/lvgl/src/extra/widgets/meter/lv_meter.c ****  *      TYPEDEFS
  21:Middlewares/LVGL/GUI/lvgl/src/extra/widgets/meter/lv_meter.c ****  **********************/
  22:Middlewares/LVGL/GUI/lvgl/src/extra/widgets/meter/lv_meter.c **** 
  23:Middlewares/LVGL/GUI/lvgl/src/extra/widgets/meter/lv_meter.c **** /**********************
  24:Middlewares/LVGL/GUI/lvgl/src/extra/widgets/meter/lv_meter.c ****  *  STATIC PROTOTYPES
  25:Middlewares/LVGL/GUI/lvgl/src/extra/widgets/meter/lv_meter.c ****  **********************/
  26:Middlewares/LVGL/GUI/lvgl/src/extra/widgets/meter/lv_meter.c **** static void lv_meter_constructor(const lv_obj_class_t * class_p, lv_obj_t * obj);
  27:Middlewares/LVGL/GUI/lvgl/src/extra/widgets/meter/lv_meter.c **** static void lv_meter_destructor(const lv_obj_class_t * class_p, lv_obj_t * obj);
  28:Middlewares/LVGL/GUI/lvgl/src/extra/widgets/meter/lv_meter.c **** static void lv_meter_event(const lv_obj_class_t * class_p, lv_event_t * e);
  29:Middlewares/LVGL/GUI/lvgl/src/extra/widgets/meter/lv_meter.c **** static void draw_arcs(lv_obj_t * obj, lv_draw_ctx_t * draw_ctx, const lv_area_t * scale_area);
  30:Middlewares/LVGL/GUI/lvgl/src/extra/widgets/meter/lv_meter.c **** static void draw_ticks_and_labels(lv_obj_t * obj, lv_draw_ctx_t * draw_ctx, const lv_area_t * scale
ARM GAS  C:\Users\ADMINI~1\AppData\Local\Temp\ccVbA5cL.s 			page 2


  31:Middlewares/LVGL/GUI/lvgl/src/extra/widgets/meter/lv_meter.c **** static void draw_needles(lv_obj_t * obj, lv_draw_ctx_t * draw_ctx, const lv_area_t * scale_area);
  32:Middlewares/LVGL/GUI/lvgl/src/extra/widgets/meter/lv_meter.c **** static void inv_arc(lv_obj_t * obj, lv_meter_indicator_t * indic, int32_t old_value, int32_t new_va
  33:Middlewares/LVGL/GUI/lvgl/src/extra/widgets/meter/lv_meter.c **** static void inv_line(lv_obj_t * obj, lv_meter_indicator_t * indic, int32_t value);
  34:Middlewares/LVGL/GUI/lvgl/src/extra/widgets/meter/lv_meter.c **** 
  35:Middlewares/LVGL/GUI/lvgl/src/extra/widgets/meter/lv_meter.c **** /**********************
  36:Middlewares/LVGL/GUI/lvgl/src/extra/widgets/meter/lv_meter.c ****  *  STATIC VARIABLES
  37:Middlewares/LVGL/GUI/lvgl/src/extra/widgets/meter/lv_meter.c ****  **********************/
  38:Middlewares/LVGL/GUI/lvgl/src/extra/widgets/meter/lv_meter.c **** const lv_obj_class_t lv_meter_class = {
  39:Middlewares/LVGL/GUI/lvgl/src/extra/widgets/meter/lv_meter.c ****     .constructor_cb = lv_meter_constructor,
  40:Middlewares/LVGL/GUI/lvgl/src/extra/widgets/meter/lv_meter.c ****     .destructor_cb = lv_meter_destructor,
  41:Middlewares/LVGL/GUI/lvgl/src/extra/widgets/meter/lv_meter.c ****     .event_cb = lv_meter_event,
  42:Middlewares/LVGL/GUI/lvgl/src/extra/widgets/meter/lv_meter.c ****     .instance_size = sizeof(lv_meter_t),
  43:Middlewares/LVGL/GUI/lvgl/src/extra/widgets/meter/lv_meter.c ****     .base_class = &lv_obj_class
  44:Middlewares/LVGL/GUI/lvgl/src/extra/widgets/meter/lv_meter.c **** };
  45:Middlewares/LVGL/GUI/lvgl/src/extra/widgets/meter/lv_meter.c **** 
  46:Middlewares/LVGL/GUI/lvgl/src/extra/widgets/meter/lv_meter.c **** /**********************
  47:Middlewares/LVGL/GUI/lvgl/src/extra/widgets/meter/lv_meter.c ****  *      MACROS
  48:Middlewares/LVGL/GUI/lvgl/src/extra/widgets/meter/lv_meter.c ****  **********************/
  49:Middlewares/LVGL/GUI/lvgl/src/extra/widgets/meter/lv_meter.c **** 
  50:Middlewares/LVGL/GUI/lvgl/src/extra/widgets/meter/lv_meter.c **** /**********************
  51:Middlewares/LVGL/GUI/lvgl/src/extra/widgets/meter/lv_meter.c ****  *   GLOBAL FUNCTIONS
  52:Middlewares/LVGL/GUI/lvgl/src/extra/widgets/meter/lv_meter.c ****  **********************/
  53:Middlewares/LVGL/GUI/lvgl/src/extra/widgets/meter/lv_meter.c **** 
  54:Middlewares/LVGL/GUI/lvgl/src/extra/widgets/meter/lv_meter.c **** lv_obj_t * lv_meter_create(lv_obj_t * parent)
  55:Middlewares/LVGL/GUI/lvgl/src/extra/widgets/meter/lv_meter.c **** {
  56:Middlewares/LVGL/GUI/lvgl/src/extra/widgets/meter/lv_meter.c ****     LV_LOG_INFO("begin");
  57:Middlewares/LVGL/GUI/lvgl/src/extra/widgets/meter/lv_meter.c ****     lv_obj_t * obj = lv_obj_class_create_obj(MY_CLASS, parent);
  58:Middlewares/LVGL/GUI/lvgl/src/extra/widgets/meter/lv_meter.c ****     lv_obj_class_init_obj(obj);
  59:Middlewares/LVGL/GUI/lvgl/src/extra/widgets/meter/lv_meter.c ****     return obj;
  60:Middlewares/LVGL/GUI/lvgl/src/extra/widgets/meter/lv_meter.c **** }
  61:Middlewares/LVGL/GUI/lvgl/src/extra/widgets/meter/lv_meter.c **** 
  62:Middlewares/LVGL/GUI/lvgl/src/extra/widgets/meter/lv_meter.c **** /*=====================
  63:Middlewares/LVGL/GUI/lvgl/src/extra/widgets/meter/lv_meter.c ****  * Add scale
  64:Middlewares/LVGL/GUI/lvgl/src/extra/widgets/meter/lv_meter.c ****  *====================*/
  65:Middlewares/LVGL/GUI/lvgl/src/extra/widgets/meter/lv_meter.c **** 
  66:Middlewares/LVGL/GUI/lvgl/src/extra/widgets/meter/lv_meter.c **** lv_meter_scale_t * lv_meter_add_scale(lv_obj_t * obj)
  67:Middlewares/LVGL/GUI/lvgl/src/extra/widgets/meter/lv_meter.c **** {
  68:Middlewares/LVGL/GUI/lvgl/src/extra/widgets/meter/lv_meter.c ****     LV_ASSERT_OBJ(obj, MY_CLASS);
  69:Middlewares/LVGL/GUI/lvgl/src/extra/widgets/meter/lv_meter.c ****     lv_meter_t * meter = (lv_meter_t *)obj;
  70:Middlewares/LVGL/GUI/lvgl/src/extra/widgets/meter/lv_meter.c **** 
  71:Middlewares/LVGL/GUI/lvgl/src/extra/widgets/meter/lv_meter.c ****     lv_meter_scale_t * scale = _lv_ll_ins_head(&meter->scale_ll);
  72:Middlewares/LVGL/GUI/lvgl/src/extra/widgets/meter/lv_meter.c ****     LV_ASSERT_MALLOC(scale);
  73:Middlewares/LVGL/GUI/lvgl/src/extra/widgets/meter/lv_meter.c ****     lv_memset_00(scale, sizeof(lv_meter_scale_t));
  74:Middlewares/LVGL/GUI/lvgl/src/extra/widgets/meter/lv_meter.c **** 
  75:Middlewares/LVGL/GUI/lvgl/src/extra/widgets/meter/lv_meter.c ****     scale->angle_range = 270;
  76:Middlewares/LVGL/GUI/lvgl/src/extra/widgets/meter/lv_meter.c ****     scale->rotation = 90 + (360 - scale->angle_range) / 2;
  77:Middlewares/LVGL/GUI/lvgl/src/extra/widgets/meter/lv_meter.c ****     scale->min = 0;
  78:Middlewares/LVGL/GUI/lvgl/src/extra/widgets/meter/lv_meter.c ****     scale->max = 100;
  79:Middlewares/LVGL/GUI/lvgl/src/extra/widgets/meter/lv_meter.c ****     scale->tick_cnt = 6;
  80:Middlewares/LVGL/GUI/lvgl/src/extra/widgets/meter/lv_meter.c ****     scale->tick_length = 8;
  81:Middlewares/LVGL/GUI/lvgl/src/extra/widgets/meter/lv_meter.c ****     scale->tick_width = 2;
  82:Middlewares/LVGL/GUI/lvgl/src/extra/widgets/meter/lv_meter.c ****     scale->label_gap = 2;
  83:Middlewares/LVGL/GUI/lvgl/src/extra/widgets/meter/lv_meter.c **** 
  84:Middlewares/LVGL/GUI/lvgl/src/extra/widgets/meter/lv_meter.c ****     return scale;
  85:Middlewares/LVGL/GUI/lvgl/src/extra/widgets/meter/lv_meter.c **** }
  86:Middlewares/LVGL/GUI/lvgl/src/extra/widgets/meter/lv_meter.c **** 
  87:Middlewares/LVGL/GUI/lvgl/src/extra/widgets/meter/lv_meter.c **** void lv_meter_set_scale_ticks(lv_obj_t * obj, lv_meter_scale_t * scale, uint16_t cnt, uint16_t widt
ARM GAS  C:\Users\ADMINI~1\AppData\Local\Temp\ccVbA5cL.s 			page 3


  88:Middlewares/LVGL/GUI/lvgl/src/extra/widgets/meter/lv_meter.c ****                               lv_color_t color)
  89:Middlewares/LVGL/GUI/lvgl/src/extra/widgets/meter/lv_meter.c **** {
  90:Middlewares/LVGL/GUI/lvgl/src/extra/widgets/meter/lv_meter.c ****     scale->tick_cnt = cnt;
  91:Middlewares/LVGL/GUI/lvgl/src/extra/widgets/meter/lv_meter.c ****     scale->tick_width = width;
  92:Middlewares/LVGL/GUI/lvgl/src/extra/widgets/meter/lv_meter.c ****     scale->tick_length = len;
  93:Middlewares/LVGL/GUI/lvgl/src/extra/widgets/meter/lv_meter.c ****     scale->tick_color = color;
  94:Middlewares/LVGL/GUI/lvgl/src/extra/widgets/meter/lv_meter.c ****     lv_obj_invalidate(obj);
  95:Middlewares/LVGL/GUI/lvgl/src/extra/widgets/meter/lv_meter.c **** }
  96:Middlewares/LVGL/GUI/lvgl/src/extra/widgets/meter/lv_meter.c **** 
  97:Middlewares/LVGL/GUI/lvgl/src/extra/widgets/meter/lv_meter.c **** void lv_meter_set_scale_major_ticks(lv_obj_t * obj, lv_meter_scale_t * scale, uint16_t nth, uint16_
  98:Middlewares/LVGL/GUI/lvgl/src/extra/widgets/meter/lv_meter.c ****                                     uint16_t len, lv_color_t color, int16_t label_gap)
  99:Middlewares/LVGL/GUI/lvgl/src/extra/widgets/meter/lv_meter.c **** {
 100:Middlewares/LVGL/GUI/lvgl/src/extra/widgets/meter/lv_meter.c ****     scale->tick_major_nth = nth;
 101:Middlewares/LVGL/GUI/lvgl/src/extra/widgets/meter/lv_meter.c ****     scale->tick_major_width = width;
 102:Middlewares/LVGL/GUI/lvgl/src/extra/widgets/meter/lv_meter.c ****     scale->tick_major_length = len;
 103:Middlewares/LVGL/GUI/lvgl/src/extra/widgets/meter/lv_meter.c ****     scale->tick_major_color = color;
 104:Middlewares/LVGL/GUI/lvgl/src/extra/widgets/meter/lv_meter.c ****     scale->label_gap = label_gap;
 105:Middlewares/LVGL/GUI/lvgl/src/extra/widgets/meter/lv_meter.c ****     lv_obj_invalidate(obj);
 106:Middlewares/LVGL/GUI/lvgl/src/extra/widgets/meter/lv_meter.c **** }
 107:Middlewares/LVGL/GUI/lvgl/src/extra/widgets/meter/lv_meter.c **** 
 108:Middlewares/LVGL/GUI/lvgl/src/extra/widgets/meter/lv_meter.c **** void lv_meter_set_scale_range(lv_obj_t * obj, lv_meter_scale_t * scale, int32_t min, int32_t max, u
 109:Middlewares/LVGL/GUI/lvgl/src/extra/widgets/meter/lv_meter.c ****                               uint32_t rotation)
 110:Middlewares/LVGL/GUI/lvgl/src/extra/widgets/meter/lv_meter.c **** {
 111:Middlewares/LVGL/GUI/lvgl/src/extra/widgets/meter/lv_meter.c ****     scale->min = min;
 112:Middlewares/LVGL/GUI/lvgl/src/extra/widgets/meter/lv_meter.c ****     scale->max = max;
 113:Middlewares/LVGL/GUI/lvgl/src/extra/widgets/meter/lv_meter.c ****     scale->angle_range = angle_range;
 114:Middlewares/LVGL/GUI/lvgl/src/extra/widgets/meter/lv_meter.c ****     scale->rotation = rotation;
 115:Middlewares/LVGL/GUI/lvgl/src/extra/widgets/meter/lv_meter.c ****     lv_obj_invalidate(obj);
 116:Middlewares/LVGL/GUI/lvgl/src/extra/widgets/meter/lv_meter.c **** }
 117:Middlewares/LVGL/GUI/lvgl/src/extra/widgets/meter/lv_meter.c **** 
 118:Middlewares/LVGL/GUI/lvgl/src/extra/widgets/meter/lv_meter.c **** /*=====================
 119:Middlewares/LVGL/GUI/lvgl/src/extra/widgets/meter/lv_meter.c ****  * Add indicator
 120:Middlewares/LVGL/GUI/lvgl/src/extra/widgets/meter/lv_meter.c ****  *====================*/
 121:Middlewares/LVGL/GUI/lvgl/src/extra/widgets/meter/lv_meter.c **** 
 122:Middlewares/LVGL/GUI/lvgl/src/extra/widgets/meter/lv_meter.c **** lv_meter_indicator_t * lv_meter_add_needle_line(lv_obj_t * obj, lv_meter_scale_t * scale, uint16_t 
 123:Middlewares/LVGL/GUI/lvgl/src/extra/widgets/meter/lv_meter.c ****                                                 lv_color_t color, int16_t r_mod)
 124:Middlewares/LVGL/GUI/lvgl/src/extra/widgets/meter/lv_meter.c **** {
 125:Middlewares/LVGL/GUI/lvgl/src/extra/widgets/meter/lv_meter.c ****     LV_ASSERT_OBJ(obj, MY_CLASS);
 126:Middlewares/LVGL/GUI/lvgl/src/extra/widgets/meter/lv_meter.c ****     lv_meter_t * meter = (lv_meter_t *)obj;
 127:Middlewares/LVGL/GUI/lvgl/src/extra/widgets/meter/lv_meter.c ****     lv_meter_indicator_t * indic = _lv_ll_ins_head(&meter->indicator_ll);
 128:Middlewares/LVGL/GUI/lvgl/src/extra/widgets/meter/lv_meter.c ****     LV_ASSERT_MALLOC(indic);
 129:Middlewares/LVGL/GUI/lvgl/src/extra/widgets/meter/lv_meter.c ****     lv_memset_00(indic, sizeof(lv_meter_indicator_t));
 130:Middlewares/LVGL/GUI/lvgl/src/extra/widgets/meter/lv_meter.c ****     indic->scale = scale;
 131:Middlewares/LVGL/GUI/lvgl/src/extra/widgets/meter/lv_meter.c ****     indic->opa = LV_OPA_COVER;
 132:Middlewares/LVGL/GUI/lvgl/src/extra/widgets/meter/lv_meter.c **** 
 133:Middlewares/LVGL/GUI/lvgl/src/extra/widgets/meter/lv_meter.c ****     indic->type = LV_METER_INDICATOR_TYPE_NEEDLE_LINE;
 134:Middlewares/LVGL/GUI/lvgl/src/extra/widgets/meter/lv_meter.c ****     indic->type_data.needle_line.width = width;
 135:Middlewares/LVGL/GUI/lvgl/src/extra/widgets/meter/lv_meter.c ****     indic->type_data.needle_line.color = color;
 136:Middlewares/LVGL/GUI/lvgl/src/extra/widgets/meter/lv_meter.c ****     indic->type_data.needle_line.r_mod = r_mod;
 137:Middlewares/LVGL/GUI/lvgl/src/extra/widgets/meter/lv_meter.c ****     lv_obj_invalidate(obj);
 138:Middlewares/LVGL/GUI/lvgl/src/extra/widgets/meter/lv_meter.c **** 
 139:Middlewares/LVGL/GUI/lvgl/src/extra/widgets/meter/lv_meter.c ****     return indic;
 140:Middlewares/LVGL/GUI/lvgl/src/extra/widgets/meter/lv_meter.c **** }
 141:Middlewares/LVGL/GUI/lvgl/src/extra/widgets/meter/lv_meter.c **** 
 142:Middlewares/LVGL/GUI/lvgl/src/extra/widgets/meter/lv_meter.c **** lv_meter_indicator_t * lv_meter_add_needle_img(lv_obj_t * obj, lv_meter_scale_t * scale, const void
 143:Middlewares/LVGL/GUI/lvgl/src/extra/widgets/meter/lv_meter.c ****                                                lv_coord_t pivot_x, lv_coord_t pivot_y)
 144:Middlewares/LVGL/GUI/lvgl/src/extra/widgets/meter/lv_meter.c **** {
ARM GAS  C:\Users\ADMINI~1\AppData\Local\Temp\ccVbA5cL.s 			page 4


 145:Middlewares/LVGL/GUI/lvgl/src/extra/widgets/meter/lv_meter.c ****     LV_ASSERT_OBJ(obj, MY_CLASS);
 146:Middlewares/LVGL/GUI/lvgl/src/extra/widgets/meter/lv_meter.c ****     lv_meter_t * meter = (lv_meter_t *)obj;
 147:Middlewares/LVGL/GUI/lvgl/src/extra/widgets/meter/lv_meter.c ****     lv_meter_indicator_t * indic = _lv_ll_ins_head(&meter->indicator_ll);
 148:Middlewares/LVGL/GUI/lvgl/src/extra/widgets/meter/lv_meter.c ****     LV_ASSERT_MALLOC(indic);
 149:Middlewares/LVGL/GUI/lvgl/src/extra/widgets/meter/lv_meter.c ****     lv_memset_00(indic, sizeof(lv_meter_indicator_t));
 150:Middlewares/LVGL/GUI/lvgl/src/extra/widgets/meter/lv_meter.c ****     indic->scale = scale;
 151:Middlewares/LVGL/GUI/lvgl/src/extra/widgets/meter/lv_meter.c ****     indic->opa = LV_OPA_COVER;
 152:Middlewares/LVGL/GUI/lvgl/src/extra/widgets/meter/lv_meter.c **** 
 153:Middlewares/LVGL/GUI/lvgl/src/extra/widgets/meter/lv_meter.c ****     indic->type = LV_METER_INDICATOR_TYPE_NEEDLE_IMG;
 154:Middlewares/LVGL/GUI/lvgl/src/extra/widgets/meter/lv_meter.c ****     indic->type_data.needle_img.src = src;
 155:Middlewares/LVGL/GUI/lvgl/src/extra/widgets/meter/lv_meter.c ****     indic->type_data.needle_img.pivot.x = pivot_x;
 156:Middlewares/LVGL/GUI/lvgl/src/extra/widgets/meter/lv_meter.c ****     indic->type_data.needle_img.pivot.y = pivot_y;
 157:Middlewares/LVGL/GUI/lvgl/src/extra/widgets/meter/lv_meter.c ****     lv_obj_invalidate(obj);
 158:Middlewares/LVGL/GUI/lvgl/src/extra/widgets/meter/lv_meter.c **** 
 159:Middlewares/LVGL/GUI/lvgl/src/extra/widgets/meter/lv_meter.c ****     return indic;
 160:Middlewares/LVGL/GUI/lvgl/src/extra/widgets/meter/lv_meter.c **** }
 161:Middlewares/LVGL/GUI/lvgl/src/extra/widgets/meter/lv_meter.c **** 
 162:Middlewares/LVGL/GUI/lvgl/src/extra/widgets/meter/lv_meter.c **** lv_meter_indicator_t * lv_meter_add_arc(lv_obj_t * obj, lv_meter_scale_t * scale, uint16_t width, l
 163:Middlewares/LVGL/GUI/lvgl/src/extra/widgets/meter/lv_meter.c ****                                         int16_t r_mod)
 164:Middlewares/LVGL/GUI/lvgl/src/extra/widgets/meter/lv_meter.c **** {
 165:Middlewares/LVGL/GUI/lvgl/src/extra/widgets/meter/lv_meter.c ****     LV_ASSERT_OBJ(obj, MY_CLASS);
 166:Middlewares/LVGL/GUI/lvgl/src/extra/widgets/meter/lv_meter.c ****     lv_meter_t * meter = (lv_meter_t *)obj;
 167:Middlewares/LVGL/GUI/lvgl/src/extra/widgets/meter/lv_meter.c ****     lv_meter_indicator_t * indic = _lv_ll_ins_head(&meter->indicator_ll);
 168:Middlewares/LVGL/GUI/lvgl/src/extra/widgets/meter/lv_meter.c ****     LV_ASSERT_MALLOC(indic);
 169:Middlewares/LVGL/GUI/lvgl/src/extra/widgets/meter/lv_meter.c ****     lv_memset_00(indic, sizeof(lv_meter_indicator_t));
 170:Middlewares/LVGL/GUI/lvgl/src/extra/widgets/meter/lv_meter.c ****     indic->scale = scale;
 171:Middlewares/LVGL/GUI/lvgl/src/extra/widgets/meter/lv_meter.c ****     indic->opa = LV_OPA_COVER;
 172:Middlewares/LVGL/GUI/lvgl/src/extra/widgets/meter/lv_meter.c **** 
 173:Middlewares/LVGL/GUI/lvgl/src/extra/widgets/meter/lv_meter.c ****     indic->type = LV_METER_INDICATOR_TYPE_ARC;
 174:Middlewares/LVGL/GUI/lvgl/src/extra/widgets/meter/lv_meter.c ****     indic->type_data.arc.width = width;
 175:Middlewares/LVGL/GUI/lvgl/src/extra/widgets/meter/lv_meter.c ****     indic->type_data.arc.color = color;
 176:Middlewares/LVGL/GUI/lvgl/src/extra/widgets/meter/lv_meter.c ****     indic->type_data.arc.r_mod = r_mod;
 177:Middlewares/LVGL/GUI/lvgl/src/extra/widgets/meter/lv_meter.c **** 
 178:Middlewares/LVGL/GUI/lvgl/src/extra/widgets/meter/lv_meter.c ****     lv_obj_invalidate(obj);
 179:Middlewares/LVGL/GUI/lvgl/src/extra/widgets/meter/lv_meter.c ****     return indic;
 180:Middlewares/LVGL/GUI/lvgl/src/extra/widgets/meter/lv_meter.c **** }
 181:Middlewares/LVGL/GUI/lvgl/src/extra/widgets/meter/lv_meter.c **** 
 182:Middlewares/LVGL/GUI/lvgl/src/extra/widgets/meter/lv_meter.c **** lv_meter_indicator_t * lv_meter_add_scale_lines(lv_obj_t * obj, lv_meter_scale_t * scale, lv_color_
 183:Middlewares/LVGL/GUI/lvgl/src/extra/widgets/meter/lv_meter.c ****                                                 lv_color_t color_end, bool local, int16_t width_mod
 184:Middlewares/LVGL/GUI/lvgl/src/extra/widgets/meter/lv_meter.c **** {
 185:Middlewares/LVGL/GUI/lvgl/src/extra/widgets/meter/lv_meter.c ****     LV_ASSERT_OBJ(obj, MY_CLASS);
 186:Middlewares/LVGL/GUI/lvgl/src/extra/widgets/meter/lv_meter.c ****     lv_meter_t * meter = (lv_meter_t *)obj;
 187:Middlewares/LVGL/GUI/lvgl/src/extra/widgets/meter/lv_meter.c ****     lv_meter_indicator_t * indic = _lv_ll_ins_head(&meter->indicator_ll);
 188:Middlewares/LVGL/GUI/lvgl/src/extra/widgets/meter/lv_meter.c ****     LV_ASSERT_MALLOC(indic);
 189:Middlewares/LVGL/GUI/lvgl/src/extra/widgets/meter/lv_meter.c ****     lv_memset_00(indic, sizeof(lv_meter_indicator_t));
 190:Middlewares/LVGL/GUI/lvgl/src/extra/widgets/meter/lv_meter.c ****     indic->scale = scale;
 191:Middlewares/LVGL/GUI/lvgl/src/extra/widgets/meter/lv_meter.c ****     indic->opa = LV_OPA_COVER;
 192:Middlewares/LVGL/GUI/lvgl/src/extra/widgets/meter/lv_meter.c **** 
 193:Middlewares/LVGL/GUI/lvgl/src/extra/widgets/meter/lv_meter.c ****     indic->type = LV_METER_INDICATOR_TYPE_SCALE_LINES;
 194:Middlewares/LVGL/GUI/lvgl/src/extra/widgets/meter/lv_meter.c ****     indic->type_data.scale_lines.color_start = color_start;
 195:Middlewares/LVGL/GUI/lvgl/src/extra/widgets/meter/lv_meter.c ****     indic->type_data.scale_lines.color_end = color_end;
 196:Middlewares/LVGL/GUI/lvgl/src/extra/widgets/meter/lv_meter.c ****     indic->type_data.scale_lines.local_grad = local;
 197:Middlewares/LVGL/GUI/lvgl/src/extra/widgets/meter/lv_meter.c ****     indic->type_data.scale_lines.width_mod = width_mod;
 198:Middlewares/LVGL/GUI/lvgl/src/extra/widgets/meter/lv_meter.c **** 
 199:Middlewares/LVGL/GUI/lvgl/src/extra/widgets/meter/lv_meter.c ****     lv_obj_invalidate(obj);
 200:Middlewares/LVGL/GUI/lvgl/src/extra/widgets/meter/lv_meter.c ****     return indic;
 201:Middlewares/LVGL/GUI/lvgl/src/extra/widgets/meter/lv_meter.c **** }
ARM GAS  C:\Users\ADMINI~1\AppData\Local\Temp\ccVbA5cL.s 			page 5


 202:Middlewares/LVGL/GUI/lvgl/src/extra/widgets/meter/lv_meter.c **** 
 203:Middlewares/LVGL/GUI/lvgl/src/extra/widgets/meter/lv_meter.c **** /*=====================
 204:Middlewares/LVGL/GUI/lvgl/src/extra/widgets/meter/lv_meter.c ****  * Set indicator value
 205:Middlewares/LVGL/GUI/lvgl/src/extra/widgets/meter/lv_meter.c ****  *====================*/
 206:Middlewares/LVGL/GUI/lvgl/src/extra/widgets/meter/lv_meter.c **** 
 207:Middlewares/LVGL/GUI/lvgl/src/extra/widgets/meter/lv_meter.c **** void lv_meter_set_indicator_value(lv_obj_t * obj, lv_meter_indicator_t * indic, int32_t value)
 208:Middlewares/LVGL/GUI/lvgl/src/extra/widgets/meter/lv_meter.c **** {
 209:Middlewares/LVGL/GUI/lvgl/src/extra/widgets/meter/lv_meter.c ****     int32_t old_start = indic->start_value;
 210:Middlewares/LVGL/GUI/lvgl/src/extra/widgets/meter/lv_meter.c ****     int32_t old_end = indic->end_value;
 211:Middlewares/LVGL/GUI/lvgl/src/extra/widgets/meter/lv_meter.c ****     indic->start_value = value;
 212:Middlewares/LVGL/GUI/lvgl/src/extra/widgets/meter/lv_meter.c ****     indic->end_value = value;
 213:Middlewares/LVGL/GUI/lvgl/src/extra/widgets/meter/lv_meter.c **** 
 214:Middlewares/LVGL/GUI/lvgl/src/extra/widgets/meter/lv_meter.c ****     if(indic->type == LV_METER_INDICATOR_TYPE_ARC) {
 215:Middlewares/LVGL/GUI/lvgl/src/extra/widgets/meter/lv_meter.c ****         inv_arc(obj, indic, old_start, value);
 216:Middlewares/LVGL/GUI/lvgl/src/extra/widgets/meter/lv_meter.c ****         inv_arc(obj, indic, old_end, value);
 217:Middlewares/LVGL/GUI/lvgl/src/extra/widgets/meter/lv_meter.c ****     }
 218:Middlewares/LVGL/GUI/lvgl/src/extra/widgets/meter/lv_meter.c ****     else if(indic->type == LV_METER_INDICATOR_TYPE_NEEDLE_IMG || indic->type == LV_METER_INDICATOR_
 219:Middlewares/LVGL/GUI/lvgl/src/extra/widgets/meter/lv_meter.c ****         inv_line(obj, indic, old_start);
 220:Middlewares/LVGL/GUI/lvgl/src/extra/widgets/meter/lv_meter.c ****         inv_line(obj, indic, old_end);
 221:Middlewares/LVGL/GUI/lvgl/src/extra/widgets/meter/lv_meter.c ****         inv_line(obj, indic, value);
 222:Middlewares/LVGL/GUI/lvgl/src/extra/widgets/meter/lv_meter.c ****     }
 223:Middlewares/LVGL/GUI/lvgl/src/extra/widgets/meter/lv_meter.c ****     else {
 224:Middlewares/LVGL/GUI/lvgl/src/extra/widgets/meter/lv_meter.c ****         lv_obj_invalidate(obj);
 225:Middlewares/LVGL/GUI/lvgl/src/extra/widgets/meter/lv_meter.c ****     }
 226:Middlewares/LVGL/GUI/lvgl/src/extra/widgets/meter/lv_meter.c **** }
 227:Middlewares/LVGL/GUI/lvgl/src/extra/widgets/meter/lv_meter.c **** 
 228:Middlewares/LVGL/GUI/lvgl/src/extra/widgets/meter/lv_meter.c **** void lv_meter_set_indicator_start_value(lv_obj_t * obj, lv_meter_indicator_t * indic, int32_t value
 229:Middlewares/LVGL/GUI/lvgl/src/extra/widgets/meter/lv_meter.c **** {
 230:Middlewares/LVGL/GUI/lvgl/src/extra/widgets/meter/lv_meter.c ****     int32_t old_value = indic->start_value;
 231:Middlewares/LVGL/GUI/lvgl/src/extra/widgets/meter/lv_meter.c ****     indic->start_value = value;
 232:Middlewares/LVGL/GUI/lvgl/src/extra/widgets/meter/lv_meter.c **** 
 233:Middlewares/LVGL/GUI/lvgl/src/extra/widgets/meter/lv_meter.c ****     if(indic->type == LV_METER_INDICATOR_TYPE_ARC) {
 234:Middlewares/LVGL/GUI/lvgl/src/extra/widgets/meter/lv_meter.c ****         inv_arc(obj, indic, old_value, value);
 235:Middlewares/LVGL/GUI/lvgl/src/extra/widgets/meter/lv_meter.c ****     }
 236:Middlewares/LVGL/GUI/lvgl/src/extra/widgets/meter/lv_meter.c ****     else if(indic->type == LV_METER_INDICATOR_TYPE_NEEDLE_IMG || indic->type == LV_METER_INDICATOR_
 237:Middlewares/LVGL/GUI/lvgl/src/extra/widgets/meter/lv_meter.c ****         inv_line(obj, indic, old_value);
 238:Middlewares/LVGL/GUI/lvgl/src/extra/widgets/meter/lv_meter.c ****         inv_line(obj, indic, value);
 239:Middlewares/LVGL/GUI/lvgl/src/extra/widgets/meter/lv_meter.c ****     }
 240:Middlewares/LVGL/GUI/lvgl/src/extra/widgets/meter/lv_meter.c ****     else {
 241:Middlewares/LVGL/GUI/lvgl/src/extra/widgets/meter/lv_meter.c ****         lv_obj_invalidate(obj);
 242:Middlewares/LVGL/GUI/lvgl/src/extra/widgets/meter/lv_meter.c ****     }
 243:Middlewares/LVGL/GUI/lvgl/src/extra/widgets/meter/lv_meter.c **** }
 244:Middlewares/LVGL/GUI/lvgl/src/extra/widgets/meter/lv_meter.c **** 
 245:Middlewares/LVGL/GUI/lvgl/src/extra/widgets/meter/lv_meter.c **** void lv_meter_set_indicator_end_value(lv_obj_t * obj, lv_meter_indicator_t * indic, int32_t value)
 246:Middlewares/LVGL/GUI/lvgl/src/extra/widgets/meter/lv_meter.c **** {
 247:Middlewares/LVGL/GUI/lvgl/src/extra/widgets/meter/lv_meter.c ****     int32_t old_value = indic->end_value;
 248:Middlewares/LVGL/GUI/lvgl/src/extra/widgets/meter/lv_meter.c ****     indic->end_value = value;
 249:Middlewares/LVGL/GUI/lvgl/src/extra/widgets/meter/lv_meter.c **** 
 250:Middlewares/LVGL/GUI/lvgl/src/extra/widgets/meter/lv_meter.c ****     if(indic->type == LV_METER_INDICATOR_TYPE_ARC) {
 251:Middlewares/LVGL/GUI/lvgl/src/extra/widgets/meter/lv_meter.c ****         inv_arc(obj, indic, old_value, value);
 252:Middlewares/LVGL/GUI/lvgl/src/extra/widgets/meter/lv_meter.c ****     }
 253:Middlewares/LVGL/GUI/lvgl/src/extra/widgets/meter/lv_meter.c ****     else if(indic->type == LV_METER_INDICATOR_TYPE_NEEDLE_IMG || indic->type == LV_METER_INDICATOR_
 254:Middlewares/LVGL/GUI/lvgl/src/extra/widgets/meter/lv_meter.c ****         inv_line(obj, indic, old_value);
 255:Middlewares/LVGL/GUI/lvgl/src/extra/widgets/meter/lv_meter.c ****         inv_line(obj, indic, value);
 256:Middlewares/LVGL/GUI/lvgl/src/extra/widgets/meter/lv_meter.c ****     }
 257:Middlewares/LVGL/GUI/lvgl/src/extra/widgets/meter/lv_meter.c ****     else {
 258:Middlewares/LVGL/GUI/lvgl/src/extra/widgets/meter/lv_meter.c ****         lv_obj_invalidate(obj);
ARM GAS  C:\Users\ADMINI~1\AppData\Local\Temp\ccVbA5cL.s 			page 6


 259:Middlewares/LVGL/GUI/lvgl/src/extra/widgets/meter/lv_meter.c ****     }
 260:Middlewares/LVGL/GUI/lvgl/src/extra/widgets/meter/lv_meter.c **** }
 261:Middlewares/LVGL/GUI/lvgl/src/extra/widgets/meter/lv_meter.c **** 
 262:Middlewares/LVGL/GUI/lvgl/src/extra/widgets/meter/lv_meter.c **** /**********************
 263:Middlewares/LVGL/GUI/lvgl/src/extra/widgets/meter/lv_meter.c ****  *   STATIC FUNCTIONS
 264:Middlewares/LVGL/GUI/lvgl/src/extra/widgets/meter/lv_meter.c ****  **********************/
 265:Middlewares/LVGL/GUI/lvgl/src/extra/widgets/meter/lv_meter.c **** 
 266:Middlewares/LVGL/GUI/lvgl/src/extra/widgets/meter/lv_meter.c **** static void lv_meter_constructor(const lv_obj_class_t * class_p, lv_obj_t * obj)
 267:Middlewares/LVGL/GUI/lvgl/src/extra/widgets/meter/lv_meter.c **** {
 268:Middlewares/LVGL/GUI/lvgl/src/extra/widgets/meter/lv_meter.c ****     LV_UNUSED(class_p);
 269:Middlewares/LVGL/GUI/lvgl/src/extra/widgets/meter/lv_meter.c ****     LV_TRACE_OBJ_CREATE("begin");
 270:Middlewares/LVGL/GUI/lvgl/src/extra/widgets/meter/lv_meter.c **** 
 271:Middlewares/LVGL/GUI/lvgl/src/extra/widgets/meter/lv_meter.c ****     lv_meter_t * meter = (lv_meter_t *)obj;
 272:Middlewares/LVGL/GUI/lvgl/src/extra/widgets/meter/lv_meter.c **** 
 273:Middlewares/LVGL/GUI/lvgl/src/extra/widgets/meter/lv_meter.c ****     _lv_ll_init(&meter->scale_ll, sizeof(lv_meter_scale_t));
 274:Middlewares/LVGL/GUI/lvgl/src/extra/widgets/meter/lv_meter.c ****     _lv_ll_init(&meter->indicator_ll, sizeof(lv_meter_indicator_t));
 275:Middlewares/LVGL/GUI/lvgl/src/extra/widgets/meter/lv_meter.c **** 
 276:Middlewares/LVGL/GUI/lvgl/src/extra/widgets/meter/lv_meter.c ****     LV_TRACE_OBJ_CREATE("finished");
 277:Middlewares/LVGL/GUI/lvgl/src/extra/widgets/meter/lv_meter.c **** }
 278:Middlewares/LVGL/GUI/lvgl/src/extra/widgets/meter/lv_meter.c **** 
 279:Middlewares/LVGL/GUI/lvgl/src/extra/widgets/meter/lv_meter.c **** static void lv_meter_destructor(const lv_obj_class_t * class_p, lv_obj_t * obj)
 280:Middlewares/LVGL/GUI/lvgl/src/extra/widgets/meter/lv_meter.c **** {
 281:Middlewares/LVGL/GUI/lvgl/src/extra/widgets/meter/lv_meter.c ****     LV_UNUSED(class_p);
 282:Middlewares/LVGL/GUI/lvgl/src/extra/widgets/meter/lv_meter.c ****     LV_ASSERT_OBJ(obj, MY_CLASS);
 283:Middlewares/LVGL/GUI/lvgl/src/extra/widgets/meter/lv_meter.c ****     lv_meter_t * meter = (lv_meter_t *)obj;
 284:Middlewares/LVGL/GUI/lvgl/src/extra/widgets/meter/lv_meter.c ****     _lv_ll_clear(&meter->indicator_ll);
 285:Middlewares/LVGL/GUI/lvgl/src/extra/widgets/meter/lv_meter.c ****     _lv_ll_clear(&meter->scale_ll);
 286:Middlewares/LVGL/GUI/lvgl/src/extra/widgets/meter/lv_meter.c **** 
 287:Middlewares/LVGL/GUI/lvgl/src/extra/widgets/meter/lv_meter.c **** }
 288:Middlewares/LVGL/GUI/lvgl/src/extra/widgets/meter/lv_meter.c **** 
 289:Middlewares/LVGL/GUI/lvgl/src/extra/widgets/meter/lv_meter.c **** static void lv_meter_event(const lv_obj_class_t * class_p, lv_event_t * e)
 290:Middlewares/LVGL/GUI/lvgl/src/extra/widgets/meter/lv_meter.c **** {
 291:Middlewares/LVGL/GUI/lvgl/src/extra/widgets/meter/lv_meter.c ****     LV_UNUSED(class_p);
 292:Middlewares/LVGL/GUI/lvgl/src/extra/widgets/meter/lv_meter.c **** 
 293:Middlewares/LVGL/GUI/lvgl/src/extra/widgets/meter/lv_meter.c ****     lv_res_t res = lv_obj_event_base(MY_CLASS, e);
 294:Middlewares/LVGL/GUI/lvgl/src/extra/widgets/meter/lv_meter.c ****     if(res != LV_RES_OK) return;
 295:Middlewares/LVGL/GUI/lvgl/src/extra/widgets/meter/lv_meter.c **** 
 296:Middlewares/LVGL/GUI/lvgl/src/extra/widgets/meter/lv_meter.c ****     lv_event_code_t code = lv_event_get_code(e);
 297:Middlewares/LVGL/GUI/lvgl/src/extra/widgets/meter/lv_meter.c ****     lv_obj_t * obj = lv_event_get_target(e);
 298:Middlewares/LVGL/GUI/lvgl/src/extra/widgets/meter/lv_meter.c ****     if(code == LV_EVENT_DRAW_MAIN) {
 299:Middlewares/LVGL/GUI/lvgl/src/extra/widgets/meter/lv_meter.c ****         lv_draw_ctx_t * draw_ctx = lv_event_get_draw_ctx(e);
 300:Middlewares/LVGL/GUI/lvgl/src/extra/widgets/meter/lv_meter.c ****         lv_area_t scale_area;
 301:Middlewares/LVGL/GUI/lvgl/src/extra/widgets/meter/lv_meter.c ****         lv_obj_get_content_coords(obj, &scale_area);
 302:Middlewares/LVGL/GUI/lvgl/src/extra/widgets/meter/lv_meter.c **** 
 303:Middlewares/LVGL/GUI/lvgl/src/extra/widgets/meter/lv_meter.c ****         draw_arcs(obj, draw_ctx, &scale_area);
 304:Middlewares/LVGL/GUI/lvgl/src/extra/widgets/meter/lv_meter.c ****         draw_ticks_and_labels(obj, draw_ctx, &scale_area);
 305:Middlewares/LVGL/GUI/lvgl/src/extra/widgets/meter/lv_meter.c ****         draw_needles(obj, draw_ctx, &scale_area);
 306:Middlewares/LVGL/GUI/lvgl/src/extra/widgets/meter/lv_meter.c **** 
 307:Middlewares/LVGL/GUI/lvgl/src/extra/widgets/meter/lv_meter.c ****         lv_coord_t r_edge = lv_area_get_width(&scale_area) / 2;
 308:Middlewares/LVGL/GUI/lvgl/src/extra/widgets/meter/lv_meter.c ****         lv_point_t scale_center;
 309:Middlewares/LVGL/GUI/lvgl/src/extra/widgets/meter/lv_meter.c ****         scale_center.x = scale_area.x1 + r_edge;
 310:Middlewares/LVGL/GUI/lvgl/src/extra/widgets/meter/lv_meter.c ****         scale_center.y = scale_area.y1 + r_edge;
 311:Middlewares/LVGL/GUI/lvgl/src/extra/widgets/meter/lv_meter.c **** 
 312:Middlewares/LVGL/GUI/lvgl/src/extra/widgets/meter/lv_meter.c ****         lv_draw_rect_dsc_t mid_dsc;
 313:Middlewares/LVGL/GUI/lvgl/src/extra/widgets/meter/lv_meter.c ****         lv_draw_rect_dsc_init(&mid_dsc);
 314:Middlewares/LVGL/GUI/lvgl/src/extra/widgets/meter/lv_meter.c ****         lv_obj_init_draw_rect_dsc(obj, LV_PART_INDICATOR, &mid_dsc);
 315:Middlewares/LVGL/GUI/lvgl/src/extra/widgets/meter/lv_meter.c ****         lv_coord_t w = lv_obj_get_style_width(obj, LV_PART_INDICATOR) / 2;
ARM GAS  C:\Users\ADMINI~1\AppData\Local\Temp\ccVbA5cL.s 			page 7


 316:Middlewares/LVGL/GUI/lvgl/src/extra/widgets/meter/lv_meter.c ****         lv_coord_t h = lv_obj_get_style_height(obj, LV_PART_INDICATOR) / 2;
 317:Middlewares/LVGL/GUI/lvgl/src/extra/widgets/meter/lv_meter.c ****         lv_area_t nm_cord;
 318:Middlewares/LVGL/GUI/lvgl/src/extra/widgets/meter/lv_meter.c ****         nm_cord.x1 = scale_center.x - w;
 319:Middlewares/LVGL/GUI/lvgl/src/extra/widgets/meter/lv_meter.c ****         nm_cord.y1 = scale_center.y - h;
 320:Middlewares/LVGL/GUI/lvgl/src/extra/widgets/meter/lv_meter.c ****         nm_cord.x2 = scale_center.x + w;
 321:Middlewares/LVGL/GUI/lvgl/src/extra/widgets/meter/lv_meter.c ****         nm_cord.y2 = scale_center.y + h;
 322:Middlewares/LVGL/GUI/lvgl/src/extra/widgets/meter/lv_meter.c ****         lv_draw_rect(draw_ctx, &mid_dsc, &nm_cord);
 323:Middlewares/LVGL/GUI/lvgl/src/extra/widgets/meter/lv_meter.c ****     }
 324:Middlewares/LVGL/GUI/lvgl/src/extra/widgets/meter/lv_meter.c **** }
 325:Middlewares/LVGL/GUI/lvgl/src/extra/widgets/meter/lv_meter.c **** 
 326:Middlewares/LVGL/GUI/lvgl/src/extra/widgets/meter/lv_meter.c **** static void draw_arcs(lv_obj_t * obj, lv_draw_ctx_t * draw_ctx, const lv_area_t * scale_area)
 327:Middlewares/LVGL/GUI/lvgl/src/extra/widgets/meter/lv_meter.c **** {
  29              		.loc 1 327 1 view -0
  30              		.cfi_startproc
  31              		@ args = 0, pretend = 0, frame = 112
  32              		@ frame_needed = 0, uses_anonymous_args = 0
  33              		.loc 1 327 1 is_stmt 0 view .LVU1
  34 0000 2DE9F04F 		push	{r4, r5, r6, r7, r8, r9, r10, fp, lr}
  35              	.LCFI0:
  36              		.cfi_def_cfa_offset 36
  37              		.cfi_offset 4, -36
  38              		.cfi_offset 5, -32
  39              		.cfi_offset 6, -28
  40              		.cfi_offset 7, -24
  41              		.cfi_offset 8, -20
  42              		.cfi_offset 9, -16
  43              		.cfi_offset 10, -12
  44              		.cfi_offset 11, -8
  45              		.cfi_offset 14, -4
  46 0004 9FB0     		sub	sp, sp, #124
  47              	.LCFI1:
  48              		.cfi_def_cfa_offset 160
  49 0006 0746     		mov	r7, r0
  50 0008 8A46     		mov	r10, r1
  51 000a 1546     		mov	r5, r2
 328:Middlewares/LVGL/GUI/lvgl/src/extra/widgets/meter/lv_meter.c ****     lv_meter_t * meter = (lv_meter_t *)obj;
  52              		.loc 1 328 5 is_stmt 1 view .LVU2
  53              	.LVL1:
 329:Middlewares/LVGL/GUI/lvgl/src/extra/widgets/meter/lv_meter.c **** 
 330:Middlewares/LVGL/GUI/lvgl/src/extra/widgets/meter/lv_meter.c ****     lv_draw_arc_dsc_t arc_dsc;
  54              		.loc 1 330 5 view .LVU3
 331:Middlewares/LVGL/GUI/lvgl/src/extra/widgets/meter/lv_meter.c ****     lv_draw_arc_dsc_init(&arc_dsc);
  55              		.loc 1 331 5 view .LVU4
  56 000c 19AC     		add	r4, sp, #100
  57 000e 2046     		mov	r0, r4
  58              	.LVL2:
  59              		.loc 1 331 5 is_stmt 0 view .LVU5
  60 0010 FFF7FEFF 		bl	lv_draw_arc_dsc_init
  61              	.LVL3:
 332:Middlewares/LVGL/GUI/lvgl/src/extra/widgets/meter/lv_meter.c ****     arc_dsc.rounded = lv_obj_get_style_arc_rounded(obj, LV_PART_ITEMS);
  62              		.loc 1 332 5 is_stmt 1 view .LVU6
  63              	.LBB51:
  64              	.LBI51:
  65              		.file 2 "Middlewares/LVGL/GUI/lvgl/src/extra/widgets/meter/../../../../src/core/lv_obj_style_gen.h
   1:Middlewares/LVGL/GUI/lvgl/src/extra/widgets/meter/../../../../src/core/lv_obj_style_gen.h **** static inline lv_coord_t lv_obj_get_style_width(const struct _lv_obj_t * obj, uint32_t part)
   2:Middlewares/LVGL/GUI/lvgl/src/extra/widgets/meter/../../../../src/core/lv_obj_style_gen.h **** {
   3:Middlewares/LVGL/GUI/lvgl/src/extra/widgets/meter/../../../../src/core/lv_obj_style_gen.h ****     lv_style_value_t v = lv_obj_get_style_prop(obj, part, LV_STYLE_WIDTH);
ARM GAS  C:\Users\ADMINI~1\AppData\Local\Temp\ccVbA5cL.s 			page 8


   4:Middlewares/LVGL/GUI/lvgl/src/extra/widgets/meter/../../../../src/core/lv_obj_style_gen.h ****     return (lv_coord_t)v.num;
   5:Middlewares/LVGL/GUI/lvgl/src/extra/widgets/meter/../../../../src/core/lv_obj_style_gen.h **** }
   6:Middlewares/LVGL/GUI/lvgl/src/extra/widgets/meter/../../../../src/core/lv_obj_style_gen.h **** 
   7:Middlewares/LVGL/GUI/lvgl/src/extra/widgets/meter/../../../../src/core/lv_obj_style_gen.h **** static inline lv_coord_t lv_obj_get_style_min_width(const struct _lv_obj_t * obj, uint32_t part)
   8:Middlewares/LVGL/GUI/lvgl/src/extra/widgets/meter/../../../../src/core/lv_obj_style_gen.h **** {
   9:Middlewares/LVGL/GUI/lvgl/src/extra/widgets/meter/../../../../src/core/lv_obj_style_gen.h ****     lv_style_value_t v = lv_obj_get_style_prop(obj, part, LV_STYLE_MIN_WIDTH);
  10:Middlewares/LVGL/GUI/lvgl/src/extra/widgets/meter/../../../../src/core/lv_obj_style_gen.h ****     return (lv_coord_t)v.num;
  11:Middlewares/LVGL/GUI/lvgl/src/extra/widgets/meter/../../../../src/core/lv_obj_style_gen.h **** }
  12:Middlewares/LVGL/GUI/lvgl/src/extra/widgets/meter/../../../../src/core/lv_obj_style_gen.h **** 
  13:Middlewares/LVGL/GUI/lvgl/src/extra/widgets/meter/../../../../src/core/lv_obj_style_gen.h **** static inline lv_coord_t lv_obj_get_style_max_width(const struct _lv_obj_t * obj, uint32_t part)
  14:Middlewares/LVGL/GUI/lvgl/src/extra/widgets/meter/../../../../src/core/lv_obj_style_gen.h **** {
  15:Middlewares/LVGL/GUI/lvgl/src/extra/widgets/meter/../../../../src/core/lv_obj_style_gen.h ****     lv_style_value_t v = lv_obj_get_style_prop(obj, part, LV_STYLE_MAX_WIDTH);
  16:Middlewares/LVGL/GUI/lvgl/src/extra/widgets/meter/../../../../src/core/lv_obj_style_gen.h ****     return (lv_coord_t)v.num;
  17:Middlewares/LVGL/GUI/lvgl/src/extra/widgets/meter/../../../../src/core/lv_obj_style_gen.h **** }
  18:Middlewares/LVGL/GUI/lvgl/src/extra/widgets/meter/../../../../src/core/lv_obj_style_gen.h **** 
  19:Middlewares/LVGL/GUI/lvgl/src/extra/widgets/meter/../../../../src/core/lv_obj_style_gen.h **** static inline lv_coord_t lv_obj_get_style_height(const struct _lv_obj_t * obj, uint32_t part)
  20:Middlewares/LVGL/GUI/lvgl/src/extra/widgets/meter/../../../../src/core/lv_obj_style_gen.h **** {
  21:Middlewares/LVGL/GUI/lvgl/src/extra/widgets/meter/../../../../src/core/lv_obj_style_gen.h ****     lv_style_value_t v = lv_obj_get_style_prop(obj, part, LV_STYLE_HEIGHT);
  22:Middlewares/LVGL/GUI/lvgl/src/extra/widgets/meter/../../../../src/core/lv_obj_style_gen.h ****     return (lv_coord_t)v.num;
  23:Middlewares/LVGL/GUI/lvgl/src/extra/widgets/meter/../../../../src/core/lv_obj_style_gen.h **** }
  24:Middlewares/LVGL/GUI/lvgl/src/extra/widgets/meter/../../../../src/core/lv_obj_style_gen.h **** 
  25:Middlewares/LVGL/GUI/lvgl/src/extra/widgets/meter/../../../../src/core/lv_obj_style_gen.h **** static inline lv_coord_t lv_obj_get_style_min_height(const struct _lv_obj_t * obj, uint32_t part)
  26:Middlewares/LVGL/GUI/lvgl/src/extra/widgets/meter/../../../../src/core/lv_obj_style_gen.h **** {
  27:Middlewares/LVGL/GUI/lvgl/src/extra/widgets/meter/../../../../src/core/lv_obj_style_gen.h ****     lv_style_value_t v = lv_obj_get_style_prop(obj, part, LV_STYLE_MIN_HEIGHT);
  28:Middlewares/LVGL/GUI/lvgl/src/extra/widgets/meter/../../../../src/core/lv_obj_style_gen.h ****     return (lv_coord_t)v.num;
  29:Middlewares/LVGL/GUI/lvgl/src/extra/widgets/meter/../../../../src/core/lv_obj_style_gen.h **** }
  30:Middlewares/LVGL/GUI/lvgl/src/extra/widgets/meter/../../../../src/core/lv_obj_style_gen.h **** 
  31:Middlewares/LVGL/GUI/lvgl/src/extra/widgets/meter/../../../../src/core/lv_obj_style_gen.h **** static inline lv_coord_t lv_obj_get_style_max_height(const struct _lv_obj_t * obj, uint32_t part)
  32:Middlewares/LVGL/GUI/lvgl/src/extra/widgets/meter/../../../../src/core/lv_obj_style_gen.h **** {
  33:Middlewares/LVGL/GUI/lvgl/src/extra/widgets/meter/../../../../src/core/lv_obj_style_gen.h ****     lv_style_value_t v = lv_obj_get_style_prop(obj, part, LV_STYLE_MAX_HEIGHT);
  34:Middlewares/LVGL/GUI/lvgl/src/extra/widgets/meter/../../../../src/core/lv_obj_style_gen.h ****     return (lv_coord_t)v.num;
  35:Middlewares/LVGL/GUI/lvgl/src/extra/widgets/meter/../../../../src/core/lv_obj_style_gen.h **** }
  36:Middlewares/LVGL/GUI/lvgl/src/extra/widgets/meter/../../../../src/core/lv_obj_style_gen.h **** 
  37:Middlewares/LVGL/GUI/lvgl/src/extra/widgets/meter/../../../../src/core/lv_obj_style_gen.h **** static inline lv_coord_t lv_obj_get_style_x(const struct _lv_obj_t * obj, uint32_t part)
  38:Middlewares/LVGL/GUI/lvgl/src/extra/widgets/meter/../../../../src/core/lv_obj_style_gen.h **** {
  39:Middlewares/LVGL/GUI/lvgl/src/extra/widgets/meter/../../../../src/core/lv_obj_style_gen.h ****     lv_style_value_t v = lv_obj_get_style_prop(obj, part, LV_STYLE_X);
  40:Middlewares/LVGL/GUI/lvgl/src/extra/widgets/meter/../../../../src/core/lv_obj_style_gen.h ****     return (lv_coord_t)v.num;
  41:Middlewares/LVGL/GUI/lvgl/src/extra/widgets/meter/../../../../src/core/lv_obj_style_gen.h **** }
  42:Middlewares/LVGL/GUI/lvgl/src/extra/widgets/meter/../../../../src/core/lv_obj_style_gen.h **** 
  43:Middlewares/LVGL/GUI/lvgl/src/extra/widgets/meter/../../../../src/core/lv_obj_style_gen.h **** static inline lv_coord_t lv_obj_get_style_y(const struct _lv_obj_t * obj, uint32_t part)
  44:Middlewares/LVGL/GUI/lvgl/src/extra/widgets/meter/../../../../src/core/lv_obj_style_gen.h **** {
  45:Middlewares/LVGL/GUI/lvgl/src/extra/widgets/meter/../../../../src/core/lv_obj_style_gen.h ****     lv_style_value_t v = lv_obj_get_style_prop(obj, part, LV_STYLE_Y);
  46:Middlewares/LVGL/GUI/lvgl/src/extra/widgets/meter/../../../../src/core/lv_obj_style_gen.h ****     return (lv_coord_t)v.num;
  47:Middlewares/LVGL/GUI/lvgl/src/extra/widgets/meter/../../../../src/core/lv_obj_style_gen.h **** }
  48:Middlewares/LVGL/GUI/lvgl/src/extra/widgets/meter/../../../../src/core/lv_obj_style_gen.h **** 
  49:Middlewares/LVGL/GUI/lvgl/src/extra/widgets/meter/../../../../src/core/lv_obj_style_gen.h **** static inline lv_align_t lv_obj_get_style_align(const struct _lv_obj_t * obj, uint32_t part)
  50:Middlewares/LVGL/GUI/lvgl/src/extra/widgets/meter/../../../../src/core/lv_obj_style_gen.h **** {
  51:Middlewares/LVGL/GUI/lvgl/src/extra/widgets/meter/../../../../src/core/lv_obj_style_gen.h ****     lv_style_value_t v = lv_obj_get_style_prop(obj, part, LV_STYLE_ALIGN);
  52:Middlewares/LVGL/GUI/lvgl/src/extra/widgets/meter/../../../../src/core/lv_obj_style_gen.h ****     return (lv_align_t)v.num;
  53:Middlewares/LVGL/GUI/lvgl/src/extra/widgets/meter/../../../../src/core/lv_obj_style_gen.h **** }
  54:Middlewares/LVGL/GUI/lvgl/src/extra/widgets/meter/../../../../src/core/lv_obj_style_gen.h **** 
  55:Middlewares/LVGL/GUI/lvgl/src/extra/widgets/meter/../../../../src/core/lv_obj_style_gen.h **** static inline lv_coord_t lv_obj_get_style_transform_width(const struct _lv_obj_t * obj, uint32_t pa
  56:Middlewares/LVGL/GUI/lvgl/src/extra/widgets/meter/../../../../src/core/lv_obj_style_gen.h **** {
  57:Middlewares/LVGL/GUI/lvgl/src/extra/widgets/meter/../../../../src/core/lv_obj_style_gen.h ****     lv_style_value_t v = lv_obj_get_style_prop(obj, part, LV_STYLE_TRANSFORM_WIDTH);
  58:Middlewares/LVGL/GUI/lvgl/src/extra/widgets/meter/../../../../src/core/lv_obj_style_gen.h ****     return (lv_coord_t)v.num;
  59:Middlewares/LVGL/GUI/lvgl/src/extra/widgets/meter/../../../../src/core/lv_obj_style_gen.h **** }
  60:Middlewares/LVGL/GUI/lvgl/src/extra/widgets/meter/../../../../src/core/lv_obj_style_gen.h **** 
ARM GAS  C:\Users\ADMINI~1\AppData\Local\Temp\ccVbA5cL.s 			page 9


  61:Middlewares/LVGL/GUI/lvgl/src/extra/widgets/meter/../../../../src/core/lv_obj_style_gen.h **** static inline lv_coord_t lv_obj_get_style_transform_height(const struct _lv_obj_t * obj, uint32_t p
  62:Middlewares/LVGL/GUI/lvgl/src/extra/widgets/meter/../../../../src/core/lv_obj_style_gen.h **** {
  63:Middlewares/LVGL/GUI/lvgl/src/extra/widgets/meter/../../../../src/core/lv_obj_style_gen.h ****     lv_style_value_t v = lv_obj_get_style_prop(obj, part, LV_STYLE_TRANSFORM_HEIGHT);
  64:Middlewares/LVGL/GUI/lvgl/src/extra/widgets/meter/../../../../src/core/lv_obj_style_gen.h ****     return (lv_coord_t)v.num;
  65:Middlewares/LVGL/GUI/lvgl/src/extra/widgets/meter/../../../../src/core/lv_obj_style_gen.h **** }
  66:Middlewares/LVGL/GUI/lvgl/src/extra/widgets/meter/../../../../src/core/lv_obj_style_gen.h **** 
  67:Middlewares/LVGL/GUI/lvgl/src/extra/widgets/meter/../../../../src/core/lv_obj_style_gen.h **** static inline lv_coord_t lv_obj_get_style_translate_x(const struct _lv_obj_t * obj, uint32_t part)
  68:Middlewares/LVGL/GUI/lvgl/src/extra/widgets/meter/../../../../src/core/lv_obj_style_gen.h **** {
  69:Middlewares/LVGL/GUI/lvgl/src/extra/widgets/meter/../../../../src/core/lv_obj_style_gen.h ****     lv_style_value_t v = lv_obj_get_style_prop(obj, part, LV_STYLE_TRANSLATE_X);
  70:Middlewares/LVGL/GUI/lvgl/src/extra/widgets/meter/../../../../src/core/lv_obj_style_gen.h ****     return (lv_coord_t)v.num;
  71:Middlewares/LVGL/GUI/lvgl/src/extra/widgets/meter/../../../../src/core/lv_obj_style_gen.h **** }
  72:Middlewares/LVGL/GUI/lvgl/src/extra/widgets/meter/../../../../src/core/lv_obj_style_gen.h **** 
  73:Middlewares/LVGL/GUI/lvgl/src/extra/widgets/meter/../../../../src/core/lv_obj_style_gen.h **** static inline lv_coord_t lv_obj_get_style_translate_y(const struct _lv_obj_t * obj, uint32_t part)
  74:Middlewares/LVGL/GUI/lvgl/src/extra/widgets/meter/../../../../src/core/lv_obj_style_gen.h **** {
  75:Middlewares/LVGL/GUI/lvgl/src/extra/widgets/meter/../../../../src/core/lv_obj_style_gen.h ****     lv_style_value_t v = lv_obj_get_style_prop(obj, part, LV_STYLE_TRANSLATE_Y);
  76:Middlewares/LVGL/GUI/lvgl/src/extra/widgets/meter/../../../../src/core/lv_obj_style_gen.h ****     return (lv_coord_t)v.num;
  77:Middlewares/LVGL/GUI/lvgl/src/extra/widgets/meter/../../../../src/core/lv_obj_style_gen.h **** }
  78:Middlewares/LVGL/GUI/lvgl/src/extra/widgets/meter/../../../../src/core/lv_obj_style_gen.h **** 
  79:Middlewares/LVGL/GUI/lvgl/src/extra/widgets/meter/../../../../src/core/lv_obj_style_gen.h **** static inline lv_coord_t lv_obj_get_style_transform_zoom(const struct _lv_obj_t * obj, uint32_t par
  80:Middlewares/LVGL/GUI/lvgl/src/extra/widgets/meter/../../../../src/core/lv_obj_style_gen.h **** {
  81:Middlewares/LVGL/GUI/lvgl/src/extra/widgets/meter/../../../../src/core/lv_obj_style_gen.h ****     lv_style_value_t v = lv_obj_get_style_prop(obj, part, LV_STYLE_TRANSFORM_ZOOM);
  82:Middlewares/LVGL/GUI/lvgl/src/extra/widgets/meter/../../../../src/core/lv_obj_style_gen.h ****     return (lv_coord_t)v.num;
  83:Middlewares/LVGL/GUI/lvgl/src/extra/widgets/meter/../../../../src/core/lv_obj_style_gen.h **** }
  84:Middlewares/LVGL/GUI/lvgl/src/extra/widgets/meter/../../../../src/core/lv_obj_style_gen.h **** 
  85:Middlewares/LVGL/GUI/lvgl/src/extra/widgets/meter/../../../../src/core/lv_obj_style_gen.h **** static inline lv_coord_t lv_obj_get_style_transform_angle(const struct _lv_obj_t * obj, uint32_t pa
  86:Middlewares/LVGL/GUI/lvgl/src/extra/widgets/meter/../../../../src/core/lv_obj_style_gen.h **** {
  87:Middlewares/LVGL/GUI/lvgl/src/extra/widgets/meter/../../../../src/core/lv_obj_style_gen.h ****     lv_style_value_t v = lv_obj_get_style_prop(obj, part, LV_STYLE_TRANSFORM_ANGLE);
  88:Middlewares/LVGL/GUI/lvgl/src/extra/widgets/meter/../../../../src/core/lv_obj_style_gen.h ****     return (lv_coord_t)v.num;
  89:Middlewares/LVGL/GUI/lvgl/src/extra/widgets/meter/../../../../src/core/lv_obj_style_gen.h **** }
  90:Middlewares/LVGL/GUI/lvgl/src/extra/widgets/meter/../../../../src/core/lv_obj_style_gen.h **** 
  91:Middlewares/LVGL/GUI/lvgl/src/extra/widgets/meter/../../../../src/core/lv_obj_style_gen.h **** static inline lv_coord_t lv_obj_get_style_pad_top(const struct _lv_obj_t * obj, uint32_t part)
  92:Middlewares/LVGL/GUI/lvgl/src/extra/widgets/meter/../../../../src/core/lv_obj_style_gen.h **** {
  93:Middlewares/LVGL/GUI/lvgl/src/extra/widgets/meter/../../../../src/core/lv_obj_style_gen.h ****     lv_style_value_t v = lv_obj_get_style_prop(obj, part, LV_STYLE_PAD_TOP);
  94:Middlewares/LVGL/GUI/lvgl/src/extra/widgets/meter/../../../../src/core/lv_obj_style_gen.h ****     return (lv_coord_t)v.num;
  95:Middlewares/LVGL/GUI/lvgl/src/extra/widgets/meter/../../../../src/core/lv_obj_style_gen.h **** }
  96:Middlewares/LVGL/GUI/lvgl/src/extra/widgets/meter/../../../../src/core/lv_obj_style_gen.h **** 
  97:Middlewares/LVGL/GUI/lvgl/src/extra/widgets/meter/../../../../src/core/lv_obj_style_gen.h **** static inline lv_coord_t lv_obj_get_style_pad_bottom(const struct _lv_obj_t * obj, uint32_t part)
  98:Middlewares/LVGL/GUI/lvgl/src/extra/widgets/meter/../../../../src/core/lv_obj_style_gen.h **** {
  99:Middlewares/LVGL/GUI/lvgl/src/extra/widgets/meter/../../../../src/core/lv_obj_style_gen.h ****     lv_style_value_t v = lv_obj_get_style_prop(obj, part, LV_STYLE_PAD_BOTTOM);
 100:Middlewares/LVGL/GUI/lvgl/src/extra/widgets/meter/../../../../src/core/lv_obj_style_gen.h ****     return (lv_coord_t)v.num;
 101:Middlewares/LVGL/GUI/lvgl/src/extra/widgets/meter/../../../../src/core/lv_obj_style_gen.h **** }
 102:Middlewares/LVGL/GUI/lvgl/src/extra/widgets/meter/../../../../src/core/lv_obj_style_gen.h **** 
 103:Middlewares/LVGL/GUI/lvgl/src/extra/widgets/meter/../../../../src/core/lv_obj_style_gen.h **** static inline lv_coord_t lv_obj_get_style_pad_left(const struct _lv_obj_t * obj, uint32_t part)
 104:Middlewares/LVGL/GUI/lvgl/src/extra/widgets/meter/../../../../src/core/lv_obj_style_gen.h **** {
 105:Middlewares/LVGL/GUI/lvgl/src/extra/widgets/meter/../../../../src/core/lv_obj_style_gen.h ****     lv_style_value_t v = lv_obj_get_style_prop(obj, part, LV_STYLE_PAD_LEFT);
 106:Middlewares/LVGL/GUI/lvgl/src/extra/widgets/meter/../../../../src/core/lv_obj_style_gen.h ****     return (lv_coord_t)v.num;
 107:Middlewares/LVGL/GUI/lvgl/src/extra/widgets/meter/../../../../src/core/lv_obj_style_gen.h **** }
 108:Middlewares/LVGL/GUI/lvgl/src/extra/widgets/meter/../../../../src/core/lv_obj_style_gen.h **** 
 109:Middlewares/LVGL/GUI/lvgl/src/extra/widgets/meter/../../../../src/core/lv_obj_style_gen.h **** static inline lv_coord_t lv_obj_get_style_pad_right(const struct _lv_obj_t * obj, uint32_t part)
 110:Middlewares/LVGL/GUI/lvgl/src/extra/widgets/meter/../../../../src/core/lv_obj_style_gen.h **** {
 111:Middlewares/LVGL/GUI/lvgl/src/extra/widgets/meter/../../../../src/core/lv_obj_style_gen.h ****     lv_style_value_t v = lv_obj_get_style_prop(obj, part, LV_STYLE_PAD_RIGHT);
 112:Middlewares/LVGL/GUI/lvgl/src/extra/widgets/meter/../../../../src/core/lv_obj_style_gen.h ****     return (lv_coord_t)v.num;
 113:Middlewares/LVGL/GUI/lvgl/src/extra/widgets/meter/../../../../src/core/lv_obj_style_gen.h **** }
 114:Middlewares/LVGL/GUI/lvgl/src/extra/widgets/meter/../../../../src/core/lv_obj_style_gen.h **** 
 115:Middlewares/LVGL/GUI/lvgl/src/extra/widgets/meter/../../../../src/core/lv_obj_style_gen.h **** static inline lv_coord_t lv_obj_get_style_pad_row(const struct _lv_obj_t * obj, uint32_t part)
 116:Middlewares/LVGL/GUI/lvgl/src/extra/widgets/meter/../../../../src/core/lv_obj_style_gen.h **** {
 117:Middlewares/LVGL/GUI/lvgl/src/extra/widgets/meter/../../../../src/core/lv_obj_style_gen.h ****     lv_style_value_t v = lv_obj_get_style_prop(obj, part, LV_STYLE_PAD_ROW);
ARM GAS  C:\Users\ADMINI~1\AppData\Local\Temp\ccVbA5cL.s 			page 10


 118:Middlewares/LVGL/GUI/lvgl/src/extra/widgets/meter/../../../../src/core/lv_obj_style_gen.h ****     return (lv_coord_t)v.num;
 119:Middlewares/LVGL/GUI/lvgl/src/extra/widgets/meter/../../../../src/core/lv_obj_style_gen.h **** }
 120:Middlewares/LVGL/GUI/lvgl/src/extra/widgets/meter/../../../../src/core/lv_obj_style_gen.h **** 
 121:Middlewares/LVGL/GUI/lvgl/src/extra/widgets/meter/../../../../src/core/lv_obj_style_gen.h **** static inline lv_coord_t lv_obj_get_style_pad_column(const struct _lv_obj_t * obj, uint32_t part)
 122:Middlewares/LVGL/GUI/lvgl/src/extra/widgets/meter/../../../../src/core/lv_obj_style_gen.h **** {
 123:Middlewares/LVGL/GUI/lvgl/src/extra/widgets/meter/../../../../src/core/lv_obj_style_gen.h ****     lv_style_value_t v = lv_obj_get_style_prop(obj, part, LV_STYLE_PAD_COLUMN);
 124:Middlewares/LVGL/GUI/lvgl/src/extra/widgets/meter/../../../../src/core/lv_obj_style_gen.h ****     return (lv_coord_t)v.num;
 125:Middlewares/LVGL/GUI/lvgl/src/extra/widgets/meter/../../../../src/core/lv_obj_style_gen.h **** }
 126:Middlewares/LVGL/GUI/lvgl/src/extra/widgets/meter/../../../../src/core/lv_obj_style_gen.h **** 
 127:Middlewares/LVGL/GUI/lvgl/src/extra/widgets/meter/../../../../src/core/lv_obj_style_gen.h **** static inline lv_color_t lv_obj_get_style_bg_color(const struct _lv_obj_t * obj, uint32_t part)
 128:Middlewares/LVGL/GUI/lvgl/src/extra/widgets/meter/../../../../src/core/lv_obj_style_gen.h **** {
 129:Middlewares/LVGL/GUI/lvgl/src/extra/widgets/meter/../../../../src/core/lv_obj_style_gen.h ****     lv_style_value_t v = lv_obj_get_style_prop(obj, part, LV_STYLE_BG_COLOR);
 130:Middlewares/LVGL/GUI/lvgl/src/extra/widgets/meter/../../../../src/core/lv_obj_style_gen.h ****     return v.color;
 131:Middlewares/LVGL/GUI/lvgl/src/extra/widgets/meter/../../../../src/core/lv_obj_style_gen.h **** }
 132:Middlewares/LVGL/GUI/lvgl/src/extra/widgets/meter/../../../../src/core/lv_obj_style_gen.h **** 
 133:Middlewares/LVGL/GUI/lvgl/src/extra/widgets/meter/../../../../src/core/lv_obj_style_gen.h **** static inline lv_color_t lv_obj_get_style_bg_color_filtered(const struct _lv_obj_t * obj, uint32_t 
 134:Middlewares/LVGL/GUI/lvgl/src/extra/widgets/meter/../../../../src/core/lv_obj_style_gen.h **** {
 135:Middlewares/LVGL/GUI/lvgl/src/extra/widgets/meter/../../../../src/core/lv_obj_style_gen.h ****     lv_style_value_t v = lv_obj_get_style_prop(obj, part, LV_STYLE_BG_COLOR_FILTERED);
 136:Middlewares/LVGL/GUI/lvgl/src/extra/widgets/meter/../../../../src/core/lv_obj_style_gen.h ****     return v.color;
 137:Middlewares/LVGL/GUI/lvgl/src/extra/widgets/meter/../../../../src/core/lv_obj_style_gen.h **** }
 138:Middlewares/LVGL/GUI/lvgl/src/extra/widgets/meter/../../../../src/core/lv_obj_style_gen.h **** 
 139:Middlewares/LVGL/GUI/lvgl/src/extra/widgets/meter/../../../../src/core/lv_obj_style_gen.h **** static inline lv_opa_t lv_obj_get_style_bg_opa(const struct _lv_obj_t * obj, uint32_t part)
 140:Middlewares/LVGL/GUI/lvgl/src/extra/widgets/meter/../../../../src/core/lv_obj_style_gen.h **** {
 141:Middlewares/LVGL/GUI/lvgl/src/extra/widgets/meter/../../../../src/core/lv_obj_style_gen.h ****     lv_style_value_t v = lv_obj_get_style_prop(obj, part, LV_STYLE_BG_OPA);
 142:Middlewares/LVGL/GUI/lvgl/src/extra/widgets/meter/../../../../src/core/lv_obj_style_gen.h ****     return (lv_opa_t)v.num;
 143:Middlewares/LVGL/GUI/lvgl/src/extra/widgets/meter/../../../../src/core/lv_obj_style_gen.h **** }
 144:Middlewares/LVGL/GUI/lvgl/src/extra/widgets/meter/../../../../src/core/lv_obj_style_gen.h **** 
 145:Middlewares/LVGL/GUI/lvgl/src/extra/widgets/meter/../../../../src/core/lv_obj_style_gen.h **** static inline lv_color_t lv_obj_get_style_bg_grad_color(const struct _lv_obj_t * obj, uint32_t part
 146:Middlewares/LVGL/GUI/lvgl/src/extra/widgets/meter/../../../../src/core/lv_obj_style_gen.h **** {
 147:Middlewares/LVGL/GUI/lvgl/src/extra/widgets/meter/../../../../src/core/lv_obj_style_gen.h ****     lv_style_value_t v = lv_obj_get_style_prop(obj, part, LV_STYLE_BG_GRAD_COLOR);
 148:Middlewares/LVGL/GUI/lvgl/src/extra/widgets/meter/../../../../src/core/lv_obj_style_gen.h ****     return v.color;
 149:Middlewares/LVGL/GUI/lvgl/src/extra/widgets/meter/../../../../src/core/lv_obj_style_gen.h **** }
 150:Middlewares/LVGL/GUI/lvgl/src/extra/widgets/meter/../../../../src/core/lv_obj_style_gen.h **** 
 151:Middlewares/LVGL/GUI/lvgl/src/extra/widgets/meter/../../../../src/core/lv_obj_style_gen.h **** static inline lv_color_t lv_obj_get_style_bg_grad_color_filtered(const struct _lv_obj_t * obj, uint
 152:Middlewares/LVGL/GUI/lvgl/src/extra/widgets/meter/../../../../src/core/lv_obj_style_gen.h **** {
 153:Middlewares/LVGL/GUI/lvgl/src/extra/widgets/meter/../../../../src/core/lv_obj_style_gen.h ****     lv_style_value_t v = lv_obj_get_style_prop(obj, part, LV_STYLE_BG_GRAD_COLOR_FILTERED);
 154:Middlewares/LVGL/GUI/lvgl/src/extra/widgets/meter/../../../../src/core/lv_obj_style_gen.h ****     return v.color;
 155:Middlewares/LVGL/GUI/lvgl/src/extra/widgets/meter/../../../../src/core/lv_obj_style_gen.h **** }
 156:Middlewares/LVGL/GUI/lvgl/src/extra/widgets/meter/../../../../src/core/lv_obj_style_gen.h **** 
 157:Middlewares/LVGL/GUI/lvgl/src/extra/widgets/meter/../../../../src/core/lv_obj_style_gen.h **** static inline lv_grad_dir_t lv_obj_get_style_bg_grad_dir(const struct _lv_obj_t * obj, uint32_t par
 158:Middlewares/LVGL/GUI/lvgl/src/extra/widgets/meter/../../../../src/core/lv_obj_style_gen.h **** {
 159:Middlewares/LVGL/GUI/lvgl/src/extra/widgets/meter/../../../../src/core/lv_obj_style_gen.h ****     lv_style_value_t v = lv_obj_get_style_prop(obj, part, LV_STYLE_BG_GRAD_DIR);
 160:Middlewares/LVGL/GUI/lvgl/src/extra/widgets/meter/../../../../src/core/lv_obj_style_gen.h ****     return (lv_grad_dir_t)v.num;
 161:Middlewares/LVGL/GUI/lvgl/src/extra/widgets/meter/../../../../src/core/lv_obj_style_gen.h **** }
 162:Middlewares/LVGL/GUI/lvgl/src/extra/widgets/meter/../../../../src/core/lv_obj_style_gen.h **** 
 163:Middlewares/LVGL/GUI/lvgl/src/extra/widgets/meter/../../../../src/core/lv_obj_style_gen.h **** static inline lv_coord_t lv_obj_get_style_bg_main_stop(const struct _lv_obj_t * obj, uint32_t part)
 164:Middlewares/LVGL/GUI/lvgl/src/extra/widgets/meter/../../../../src/core/lv_obj_style_gen.h **** {
 165:Middlewares/LVGL/GUI/lvgl/src/extra/widgets/meter/../../../../src/core/lv_obj_style_gen.h ****     lv_style_value_t v = lv_obj_get_style_prop(obj, part, LV_STYLE_BG_MAIN_STOP);
 166:Middlewares/LVGL/GUI/lvgl/src/extra/widgets/meter/../../../../src/core/lv_obj_style_gen.h ****     return (lv_coord_t)v.num;
 167:Middlewares/LVGL/GUI/lvgl/src/extra/widgets/meter/../../../../src/core/lv_obj_style_gen.h **** }
 168:Middlewares/LVGL/GUI/lvgl/src/extra/widgets/meter/../../../../src/core/lv_obj_style_gen.h **** 
 169:Middlewares/LVGL/GUI/lvgl/src/extra/widgets/meter/../../../../src/core/lv_obj_style_gen.h **** static inline lv_coord_t lv_obj_get_style_bg_grad_stop(const struct _lv_obj_t * obj, uint32_t part)
 170:Middlewares/LVGL/GUI/lvgl/src/extra/widgets/meter/../../../../src/core/lv_obj_style_gen.h **** {
 171:Middlewares/LVGL/GUI/lvgl/src/extra/widgets/meter/../../../../src/core/lv_obj_style_gen.h ****     lv_style_value_t v = lv_obj_get_style_prop(obj, part, LV_STYLE_BG_GRAD_STOP);
 172:Middlewares/LVGL/GUI/lvgl/src/extra/widgets/meter/../../../../src/core/lv_obj_style_gen.h ****     return (lv_coord_t)v.num;
 173:Middlewares/LVGL/GUI/lvgl/src/extra/widgets/meter/../../../../src/core/lv_obj_style_gen.h **** }
 174:Middlewares/LVGL/GUI/lvgl/src/extra/widgets/meter/../../../../src/core/lv_obj_style_gen.h **** 
ARM GAS  C:\Users\ADMINI~1\AppData\Local\Temp\ccVbA5cL.s 			page 11


 175:Middlewares/LVGL/GUI/lvgl/src/extra/widgets/meter/../../../../src/core/lv_obj_style_gen.h **** static inline const lv_grad_dsc_t * lv_obj_get_style_bg_grad(const struct _lv_obj_t * obj, uint32_t
 176:Middlewares/LVGL/GUI/lvgl/src/extra/widgets/meter/../../../../src/core/lv_obj_style_gen.h **** {
 177:Middlewares/LVGL/GUI/lvgl/src/extra/widgets/meter/../../../../src/core/lv_obj_style_gen.h ****     lv_style_value_t v = lv_obj_get_style_prop(obj, part, LV_STYLE_BG_GRAD);
 178:Middlewares/LVGL/GUI/lvgl/src/extra/widgets/meter/../../../../src/core/lv_obj_style_gen.h ****     return (const lv_grad_dsc_t *)v.ptr;
 179:Middlewares/LVGL/GUI/lvgl/src/extra/widgets/meter/../../../../src/core/lv_obj_style_gen.h **** }
 180:Middlewares/LVGL/GUI/lvgl/src/extra/widgets/meter/../../../../src/core/lv_obj_style_gen.h **** 
 181:Middlewares/LVGL/GUI/lvgl/src/extra/widgets/meter/../../../../src/core/lv_obj_style_gen.h **** static inline lv_dither_mode_t lv_obj_get_style_bg_dither_mode(const struct _lv_obj_t * obj, uint32
 182:Middlewares/LVGL/GUI/lvgl/src/extra/widgets/meter/../../../../src/core/lv_obj_style_gen.h **** {
 183:Middlewares/LVGL/GUI/lvgl/src/extra/widgets/meter/../../../../src/core/lv_obj_style_gen.h ****     lv_style_value_t v = lv_obj_get_style_prop(obj, part, LV_STYLE_BG_DITHER_MODE);
 184:Middlewares/LVGL/GUI/lvgl/src/extra/widgets/meter/../../../../src/core/lv_obj_style_gen.h ****     return (lv_dither_mode_t)v.num;
 185:Middlewares/LVGL/GUI/lvgl/src/extra/widgets/meter/../../../../src/core/lv_obj_style_gen.h **** }
 186:Middlewares/LVGL/GUI/lvgl/src/extra/widgets/meter/../../../../src/core/lv_obj_style_gen.h **** 
 187:Middlewares/LVGL/GUI/lvgl/src/extra/widgets/meter/../../../../src/core/lv_obj_style_gen.h **** static inline const void * lv_obj_get_style_bg_img_src(const struct _lv_obj_t * obj, uint32_t part)
 188:Middlewares/LVGL/GUI/lvgl/src/extra/widgets/meter/../../../../src/core/lv_obj_style_gen.h **** {
 189:Middlewares/LVGL/GUI/lvgl/src/extra/widgets/meter/../../../../src/core/lv_obj_style_gen.h ****     lv_style_value_t v = lv_obj_get_style_prop(obj, part, LV_STYLE_BG_IMG_SRC);
 190:Middlewares/LVGL/GUI/lvgl/src/extra/widgets/meter/../../../../src/core/lv_obj_style_gen.h ****     return (const void *)v.ptr;
 191:Middlewares/LVGL/GUI/lvgl/src/extra/widgets/meter/../../../../src/core/lv_obj_style_gen.h **** }
 192:Middlewares/LVGL/GUI/lvgl/src/extra/widgets/meter/../../../../src/core/lv_obj_style_gen.h **** 
 193:Middlewares/LVGL/GUI/lvgl/src/extra/widgets/meter/../../../../src/core/lv_obj_style_gen.h **** static inline lv_opa_t lv_obj_get_style_bg_img_opa(const struct _lv_obj_t * obj, uint32_t part)
 194:Middlewares/LVGL/GUI/lvgl/src/extra/widgets/meter/../../../../src/core/lv_obj_style_gen.h **** {
 195:Middlewares/LVGL/GUI/lvgl/src/extra/widgets/meter/../../../../src/core/lv_obj_style_gen.h ****     lv_style_value_t v = lv_obj_get_style_prop(obj, part, LV_STYLE_BG_IMG_OPA);
 196:Middlewares/LVGL/GUI/lvgl/src/extra/widgets/meter/../../../../src/core/lv_obj_style_gen.h ****     return (lv_opa_t)v.num;
 197:Middlewares/LVGL/GUI/lvgl/src/extra/widgets/meter/../../../../src/core/lv_obj_style_gen.h **** }
 198:Middlewares/LVGL/GUI/lvgl/src/extra/widgets/meter/../../../../src/core/lv_obj_style_gen.h **** 
 199:Middlewares/LVGL/GUI/lvgl/src/extra/widgets/meter/../../../../src/core/lv_obj_style_gen.h **** static inline lv_color_t lv_obj_get_style_bg_img_recolor(const struct _lv_obj_t * obj, uint32_t par
 200:Middlewares/LVGL/GUI/lvgl/src/extra/widgets/meter/../../../../src/core/lv_obj_style_gen.h **** {
 201:Middlewares/LVGL/GUI/lvgl/src/extra/widgets/meter/../../../../src/core/lv_obj_style_gen.h ****     lv_style_value_t v = lv_obj_get_style_prop(obj, part, LV_STYLE_BG_IMG_RECOLOR);
 202:Middlewares/LVGL/GUI/lvgl/src/extra/widgets/meter/../../../../src/core/lv_obj_style_gen.h ****     return v.color;
 203:Middlewares/LVGL/GUI/lvgl/src/extra/widgets/meter/../../../../src/core/lv_obj_style_gen.h **** }
 204:Middlewares/LVGL/GUI/lvgl/src/extra/widgets/meter/../../../../src/core/lv_obj_style_gen.h **** 
 205:Middlewares/LVGL/GUI/lvgl/src/extra/widgets/meter/../../../../src/core/lv_obj_style_gen.h **** static inline lv_color_t lv_obj_get_style_bg_img_recolor_filtered(const struct _lv_obj_t * obj, uin
 206:Middlewares/LVGL/GUI/lvgl/src/extra/widgets/meter/../../../../src/core/lv_obj_style_gen.h **** {
 207:Middlewares/LVGL/GUI/lvgl/src/extra/widgets/meter/../../../../src/core/lv_obj_style_gen.h ****     lv_style_value_t v = lv_obj_get_style_prop(obj, part, LV_STYLE_BG_IMG_RECOLOR_FILTERED);
 208:Middlewares/LVGL/GUI/lvgl/src/extra/widgets/meter/../../../../src/core/lv_obj_style_gen.h ****     return v.color;
 209:Middlewares/LVGL/GUI/lvgl/src/extra/widgets/meter/../../../../src/core/lv_obj_style_gen.h **** }
 210:Middlewares/LVGL/GUI/lvgl/src/extra/widgets/meter/../../../../src/core/lv_obj_style_gen.h **** 
 211:Middlewares/LVGL/GUI/lvgl/src/extra/widgets/meter/../../../../src/core/lv_obj_style_gen.h **** static inline lv_opa_t lv_obj_get_style_bg_img_recolor_opa(const struct _lv_obj_t * obj, uint32_t p
 212:Middlewares/LVGL/GUI/lvgl/src/extra/widgets/meter/../../../../src/core/lv_obj_style_gen.h **** {
 213:Middlewares/LVGL/GUI/lvgl/src/extra/widgets/meter/../../../../src/core/lv_obj_style_gen.h ****     lv_style_value_t v = lv_obj_get_style_prop(obj, part, LV_STYLE_BG_IMG_RECOLOR_OPA);
 214:Middlewares/LVGL/GUI/lvgl/src/extra/widgets/meter/../../../../src/core/lv_obj_style_gen.h ****     return (lv_opa_t)v.num;
 215:Middlewares/LVGL/GUI/lvgl/src/extra/widgets/meter/../../../../src/core/lv_obj_style_gen.h **** }
 216:Middlewares/LVGL/GUI/lvgl/src/extra/widgets/meter/../../../../src/core/lv_obj_style_gen.h **** 
 217:Middlewares/LVGL/GUI/lvgl/src/extra/widgets/meter/../../../../src/core/lv_obj_style_gen.h **** static inline bool lv_obj_get_style_bg_img_tiled(const struct _lv_obj_t * obj, uint32_t part)
 218:Middlewares/LVGL/GUI/lvgl/src/extra/widgets/meter/../../../../src/core/lv_obj_style_gen.h **** {
 219:Middlewares/LVGL/GUI/lvgl/src/extra/widgets/meter/../../../../src/core/lv_obj_style_gen.h ****     lv_style_value_t v = lv_obj_get_style_prop(obj, part, LV_STYLE_BG_IMG_TILED);
 220:Middlewares/LVGL/GUI/lvgl/src/extra/widgets/meter/../../../../src/core/lv_obj_style_gen.h ****     return (bool)v.num;
 221:Middlewares/LVGL/GUI/lvgl/src/extra/widgets/meter/../../../../src/core/lv_obj_style_gen.h **** }
 222:Middlewares/LVGL/GUI/lvgl/src/extra/widgets/meter/../../../../src/core/lv_obj_style_gen.h **** 
 223:Middlewares/LVGL/GUI/lvgl/src/extra/widgets/meter/../../../../src/core/lv_obj_style_gen.h **** static inline lv_color_t lv_obj_get_style_border_color(const struct _lv_obj_t * obj, uint32_t part)
 224:Middlewares/LVGL/GUI/lvgl/src/extra/widgets/meter/../../../../src/core/lv_obj_style_gen.h **** {
 225:Middlewares/LVGL/GUI/lvgl/src/extra/widgets/meter/../../../../src/core/lv_obj_style_gen.h ****     lv_style_value_t v = lv_obj_get_style_prop(obj, part, LV_STYLE_BORDER_COLOR);
 226:Middlewares/LVGL/GUI/lvgl/src/extra/widgets/meter/../../../../src/core/lv_obj_style_gen.h ****     return v.color;
 227:Middlewares/LVGL/GUI/lvgl/src/extra/widgets/meter/../../../../src/core/lv_obj_style_gen.h **** }
 228:Middlewares/LVGL/GUI/lvgl/src/extra/widgets/meter/../../../../src/core/lv_obj_style_gen.h **** 
 229:Middlewares/LVGL/GUI/lvgl/src/extra/widgets/meter/../../../../src/core/lv_obj_style_gen.h **** static inline lv_color_t lv_obj_get_style_border_color_filtered(const struct _lv_obj_t * obj, uint3
 230:Middlewares/LVGL/GUI/lvgl/src/extra/widgets/meter/../../../../src/core/lv_obj_style_gen.h **** {
 231:Middlewares/LVGL/GUI/lvgl/src/extra/widgets/meter/../../../../src/core/lv_obj_style_gen.h ****     lv_style_value_t v = lv_obj_get_style_prop(obj, part, LV_STYLE_BORDER_COLOR_FILTERED);
ARM GAS  C:\Users\ADMINI~1\AppData\Local\Temp\ccVbA5cL.s 			page 12


 232:Middlewares/LVGL/GUI/lvgl/src/extra/widgets/meter/../../../../src/core/lv_obj_style_gen.h ****     return v.color;
 233:Middlewares/LVGL/GUI/lvgl/src/extra/widgets/meter/../../../../src/core/lv_obj_style_gen.h **** }
 234:Middlewares/LVGL/GUI/lvgl/src/extra/widgets/meter/../../../../src/core/lv_obj_style_gen.h **** 
 235:Middlewares/LVGL/GUI/lvgl/src/extra/widgets/meter/../../../../src/core/lv_obj_style_gen.h **** static inline lv_opa_t lv_obj_get_style_border_opa(const struct _lv_obj_t * obj, uint32_t part)
 236:Middlewares/LVGL/GUI/lvgl/src/extra/widgets/meter/../../../../src/core/lv_obj_style_gen.h **** {
 237:Middlewares/LVGL/GUI/lvgl/src/extra/widgets/meter/../../../../src/core/lv_obj_style_gen.h ****     lv_style_value_t v = lv_obj_get_style_prop(obj, part, LV_STYLE_BORDER_OPA);
 238:Middlewares/LVGL/GUI/lvgl/src/extra/widgets/meter/../../../../src/core/lv_obj_style_gen.h ****     return (lv_opa_t)v.num;
 239:Middlewares/LVGL/GUI/lvgl/src/extra/widgets/meter/../../../../src/core/lv_obj_style_gen.h **** }
 240:Middlewares/LVGL/GUI/lvgl/src/extra/widgets/meter/../../../../src/core/lv_obj_style_gen.h **** 
 241:Middlewares/LVGL/GUI/lvgl/src/extra/widgets/meter/../../../../src/core/lv_obj_style_gen.h **** static inline lv_coord_t lv_obj_get_style_border_width(const struct _lv_obj_t * obj, uint32_t part)
 242:Middlewares/LVGL/GUI/lvgl/src/extra/widgets/meter/../../../../src/core/lv_obj_style_gen.h **** {
 243:Middlewares/LVGL/GUI/lvgl/src/extra/widgets/meter/../../../../src/core/lv_obj_style_gen.h ****     lv_style_value_t v = lv_obj_get_style_prop(obj, part, LV_STYLE_BORDER_WIDTH);
 244:Middlewares/LVGL/GUI/lvgl/src/extra/widgets/meter/../../../../src/core/lv_obj_style_gen.h ****     return (lv_coord_t)v.num;
 245:Middlewares/LVGL/GUI/lvgl/src/extra/widgets/meter/../../../../src/core/lv_obj_style_gen.h **** }
 246:Middlewares/LVGL/GUI/lvgl/src/extra/widgets/meter/../../../../src/core/lv_obj_style_gen.h **** 
 247:Middlewares/LVGL/GUI/lvgl/src/extra/widgets/meter/../../../../src/core/lv_obj_style_gen.h **** static inline lv_border_side_t lv_obj_get_style_border_side(const struct _lv_obj_t * obj, uint32_t 
 248:Middlewares/LVGL/GUI/lvgl/src/extra/widgets/meter/../../../../src/core/lv_obj_style_gen.h **** {
 249:Middlewares/LVGL/GUI/lvgl/src/extra/widgets/meter/../../../../src/core/lv_obj_style_gen.h ****     lv_style_value_t v = lv_obj_get_style_prop(obj, part, LV_STYLE_BORDER_SIDE);
 250:Middlewares/LVGL/GUI/lvgl/src/extra/widgets/meter/../../../../src/core/lv_obj_style_gen.h ****     return (lv_border_side_t)v.num;
 251:Middlewares/LVGL/GUI/lvgl/src/extra/widgets/meter/../../../../src/core/lv_obj_style_gen.h **** }
 252:Middlewares/LVGL/GUI/lvgl/src/extra/widgets/meter/../../../../src/core/lv_obj_style_gen.h **** 
 253:Middlewares/LVGL/GUI/lvgl/src/extra/widgets/meter/../../../../src/core/lv_obj_style_gen.h **** static inline bool lv_obj_get_style_border_post(const struct _lv_obj_t * obj, uint32_t part)
 254:Middlewares/LVGL/GUI/lvgl/src/extra/widgets/meter/../../../../src/core/lv_obj_style_gen.h **** {
 255:Middlewares/LVGL/GUI/lvgl/src/extra/widgets/meter/../../../../src/core/lv_obj_style_gen.h ****     lv_style_value_t v = lv_obj_get_style_prop(obj, part, LV_STYLE_BORDER_POST);
 256:Middlewares/LVGL/GUI/lvgl/src/extra/widgets/meter/../../../../src/core/lv_obj_style_gen.h ****     return (bool)v.num;
 257:Middlewares/LVGL/GUI/lvgl/src/extra/widgets/meter/../../../../src/core/lv_obj_style_gen.h **** }
 258:Middlewares/LVGL/GUI/lvgl/src/extra/widgets/meter/../../../../src/core/lv_obj_style_gen.h **** 
 259:Middlewares/LVGL/GUI/lvgl/src/extra/widgets/meter/../../../../src/core/lv_obj_style_gen.h **** static inline lv_coord_t lv_obj_get_style_outline_width(const struct _lv_obj_t * obj, uint32_t part
 260:Middlewares/LVGL/GUI/lvgl/src/extra/widgets/meter/../../../../src/core/lv_obj_style_gen.h **** {
 261:Middlewares/LVGL/GUI/lvgl/src/extra/widgets/meter/../../../../src/core/lv_obj_style_gen.h ****     lv_style_value_t v = lv_obj_get_style_prop(obj, part, LV_STYLE_OUTLINE_WIDTH);
 262:Middlewares/LVGL/GUI/lvgl/src/extra/widgets/meter/../../../../src/core/lv_obj_style_gen.h ****     return (lv_coord_t)v.num;
 263:Middlewares/LVGL/GUI/lvgl/src/extra/widgets/meter/../../../../src/core/lv_obj_style_gen.h **** }
 264:Middlewares/LVGL/GUI/lvgl/src/extra/widgets/meter/../../../../src/core/lv_obj_style_gen.h **** 
 265:Middlewares/LVGL/GUI/lvgl/src/extra/widgets/meter/../../../../src/core/lv_obj_style_gen.h **** static inline lv_color_t lv_obj_get_style_outline_color(const struct _lv_obj_t * obj, uint32_t part
 266:Middlewares/LVGL/GUI/lvgl/src/extra/widgets/meter/../../../../src/core/lv_obj_style_gen.h **** {
 267:Middlewares/LVGL/GUI/lvgl/src/extra/widgets/meter/../../../../src/core/lv_obj_style_gen.h ****     lv_style_value_t v = lv_obj_get_style_prop(obj, part, LV_STYLE_OUTLINE_COLOR);
 268:Middlewares/LVGL/GUI/lvgl/src/extra/widgets/meter/../../../../src/core/lv_obj_style_gen.h ****     return v.color;
 269:Middlewares/LVGL/GUI/lvgl/src/extra/widgets/meter/../../../../src/core/lv_obj_style_gen.h **** }
 270:Middlewares/LVGL/GUI/lvgl/src/extra/widgets/meter/../../../../src/core/lv_obj_style_gen.h **** 
 271:Middlewares/LVGL/GUI/lvgl/src/extra/widgets/meter/../../../../src/core/lv_obj_style_gen.h **** static inline lv_color_t lv_obj_get_style_outline_color_filtered(const struct _lv_obj_t * obj, uint
 272:Middlewares/LVGL/GUI/lvgl/src/extra/widgets/meter/../../../../src/core/lv_obj_style_gen.h **** {
 273:Middlewares/LVGL/GUI/lvgl/src/extra/widgets/meter/../../../../src/core/lv_obj_style_gen.h ****     lv_style_value_t v = lv_obj_get_style_prop(obj, part, LV_STYLE_OUTLINE_COLOR_FILTERED);
 274:Middlewares/LVGL/GUI/lvgl/src/extra/widgets/meter/../../../../src/core/lv_obj_style_gen.h ****     return v.color;
 275:Middlewares/LVGL/GUI/lvgl/src/extra/widgets/meter/../../../../src/core/lv_obj_style_gen.h **** }
 276:Middlewares/LVGL/GUI/lvgl/src/extra/widgets/meter/../../../../src/core/lv_obj_style_gen.h **** 
 277:Middlewares/LVGL/GUI/lvgl/src/extra/widgets/meter/../../../../src/core/lv_obj_style_gen.h **** static inline lv_opa_t lv_obj_get_style_outline_opa(const struct _lv_obj_t * obj, uint32_t part)
 278:Middlewares/LVGL/GUI/lvgl/src/extra/widgets/meter/../../../../src/core/lv_obj_style_gen.h **** {
 279:Middlewares/LVGL/GUI/lvgl/src/extra/widgets/meter/../../../../src/core/lv_obj_style_gen.h ****     lv_style_value_t v = lv_obj_get_style_prop(obj, part, LV_STYLE_OUTLINE_OPA);
 280:Middlewares/LVGL/GUI/lvgl/src/extra/widgets/meter/../../../../src/core/lv_obj_style_gen.h ****     return (lv_opa_t)v.num;
 281:Middlewares/LVGL/GUI/lvgl/src/extra/widgets/meter/../../../../src/core/lv_obj_style_gen.h **** }
 282:Middlewares/LVGL/GUI/lvgl/src/extra/widgets/meter/../../../../src/core/lv_obj_style_gen.h **** 
 283:Middlewares/LVGL/GUI/lvgl/src/extra/widgets/meter/../../../../src/core/lv_obj_style_gen.h **** static inline lv_coord_t lv_obj_get_style_outline_pad(const struct _lv_obj_t * obj, uint32_t part)
 284:Middlewares/LVGL/GUI/lvgl/src/extra/widgets/meter/../../../../src/core/lv_obj_style_gen.h **** {
 285:Middlewares/LVGL/GUI/lvgl/src/extra/widgets/meter/../../../../src/core/lv_obj_style_gen.h ****     lv_style_value_t v = lv_obj_get_style_prop(obj, part, LV_STYLE_OUTLINE_PAD);
 286:Middlewares/LVGL/GUI/lvgl/src/extra/widgets/meter/../../../../src/core/lv_obj_style_gen.h ****     return (lv_coord_t)v.num;
 287:Middlewares/LVGL/GUI/lvgl/src/extra/widgets/meter/../../../../src/core/lv_obj_style_gen.h **** }
 288:Middlewares/LVGL/GUI/lvgl/src/extra/widgets/meter/../../../../src/core/lv_obj_style_gen.h **** 
ARM GAS  C:\Users\ADMINI~1\AppData\Local\Temp\ccVbA5cL.s 			page 13


 289:Middlewares/LVGL/GUI/lvgl/src/extra/widgets/meter/../../../../src/core/lv_obj_style_gen.h **** static inline lv_coord_t lv_obj_get_style_shadow_width(const struct _lv_obj_t * obj, uint32_t part)
 290:Middlewares/LVGL/GUI/lvgl/src/extra/widgets/meter/../../../../src/core/lv_obj_style_gen.h **** {
 291:Middlewares/LVGL/GUI/lvgl/src/extra/widgets/meter/../../../../src/core/lv_obj_style_gen.h ****     lv_style_value_t v = lv_obj_get_style_prop(obj, part, LV_STYLE_SHADOW_WIDTH);
 292:Middlewares/LVGL/GUI/lvgl/src/extra/widgets/meter/../../../../src/core/lv_obj_style_gen.h ****     return (lv_coord_t)v.num;
 293:Middlewares/LVGL/GUI/lvgl/src/extra/widgets/meter/../../../../src/core/lv_obj_style_gen.h **** }
 294:Middlewares/LVGL/GUI/lvgl/src/extra/widgets/meter/../../../../src/core/lv_obj_style_gen.h **** 
 295:Middlewares/LVGL/GUI/lvgl/src/extra/widgets/meter/../../../../src/core/lv_obj_style_gen.h **** static inline lv_coord_t lv_obj_get_style_shadow_ofs_x(const struct _lv_obj_t * obj, uint32_t part)
 296:Middlewares/LVGL/GUI/lvgl/src/extra/widgets/meter/../../../../src/core/lv_obj_style_gen.h **** {
 297:Middlewares/LVGL/GUI/lvgl/src/extra/widgets/meter/../../../../src/core/lv_obj_style_gen.h ****     lv_style_value_t v = lv_obj_get_style_prop(obj, part, LV_STYLE_SHADOW_OFS_X);
 298:Middlewares/LVGL/GUI/lvgl/src/extra/widgets/meter/../../../../src/core/lv_obj_style_gen.h ****     return (lv_coord_t)v.num;
 299:Middlewares/LVGL/GUI/lvgl/src/extra/widgets/meter/../../../../src/core/lv_obj_style_gen.h **** }
 300:Middlewares/LVGL/GUI/lvgl/src/extra/widgets/meter/../../../../src/core/lv_obj_style_gen.h **** 
 301:Middlewares/LVGL/GUI/lvgl/src/extra/widgets/meter/../../../../src/core/lv_obj_style_gen.h **** static inline lv_coord_t lv_obj_get_style_shadow_ofs_y(const struct _lv_obj_t * obj, uint32_t part)
 302:Middlewares/LVGL/GUI/lvgl/src/extra/widgets/meter/../../../../src/core/lv_obj_style_gen.h **** {
 303:Middlewares/LVGL/GUI/lvgl/src/extra/widgets/meter/../../../../src/core/lv_obj_style_gen.h ****     lv_style_value_t v = lv_obj_get_style_prop(obj, part, LV_STYLE_SHADOW_OFS_Y);
 304:Middlewares/LVGL/GUI/lvgl/src/extra/widgets/meter/../../../../src/core/lv_obj_style_gen.h ****     return (lv_coord_t)v.num;
 305:Middlewares/LVGL/GUI/lvgl/src/extra/widgets/meter/../../../../src/core/lv_obj_style_gen.h **** }
 306:Middlewares/LVGL/GUI/lvgl/src/extra/widgets/meter/../../../../src/core/lv_obj_style_gen.h **** 
 307:Middlewares/LVGL/GUI/lvgl/src/extra/widgets/meter/../../../../src/core/lv_obj_style_gen.h **** static inline lv_coord_t lv_obj_get_style_shadow_spread(const struct _lv_obj_t * obj, uint32_t part
 308:Middlewares/LVGL/GUI/lvgl/src/extra/widgets/meter/../../../../src/core/lv_obj_style_gen.h **** {
 309:Middlewares/LVGL/GUI/lvgl/src/extra/widgets/meter/../../../../src/core/lv_obj_style_gen.h ****     lv_style_value_t v = lv_obj_get_style_prop(obj, part, LV_STYLE_SHADOW_SPREAD);
 310:Middlewares/LVGL/GUI/lvgl/src/extra/widgets/meter/../../../../src/core/lv_obj_style_gen.h ****     return (lv_coord_t)v.num;
 311:Middlewares/LVGL/GUI/lvgl/src/extra/widgets/meter/../../../../src/core/lv_obj_style_gen.h **** }
 312:Middlewares/LVGL/GUI/lvgl/src/extra/widgets/meter/../../../../src/core/lv_obj_style_gen.h **** 
 313:Middlewares/LVGL/GUI/lvgl/src/extra/widgets/meter/../../../../src/core/lv_obj_style_gen.h **** static inline lv_color_t lv_obj_get_style_shadow_color(const struct _lv_obj_t * obj, uint32_t part)
 314:Middlewares/LVGL/GUI/lvgl/src/extra/widgets/meter/../../../../src/core/lv_obj_style_gen.h **** {
 315:Middlewares/LVGL/GUI/lvgl/src/extra/widgets/meter/../../../../src/core/lv_obj_style_gen.h ****     lv_style_value_t v = lv_obj_get_style_prop(obj, part, LV_STYLE_SHADOW_COLOR);
 316:Middlewares/LVGL/GUI/lvgl/src/extra/widgets/meter/../../../../src/core/lv_obj_style_gen.h ****     return v.color;
 317:Middlewares/LVGL/GUI/lvgl/src/extra/widgets/meter/../../../../src/core/lv_obj_style_gen.h **** }
 318:Middlewares/LVGL/GUI/lvgl/src/extra/widgets/meter/../../../../src/core/lv_obj_style_gen.h **** 
 319:Middlewares/LVGL/GUI/lvgl/src/extra/widgets/meter/../../../../src/core/lv_obj_style_gen.h **** static inline lv_color_t lv_obj_get_style_shadow_color_filtered(const struct _lv_obj_t * obj, uint3
 320:Middlewares/LVGL/GUI/lvgl/src/extra/widgets/meter/../../../../src/core/lv_obj_style_gen.h **** {
 321:Middlewares/LVGL/GUI/lvgl/src/extra/widgets/meter/../../../../src/core/lv_obj_style_gen.h ****     lv_style_value_t v = lv_obj_get_style_prop(obj, part, LV_STYLE_SHADOW_COLOR_FILTERED);
 322:Middlewares/LVGL/GUI/lvgl/src/extra/widgets/meter/../../../../src/core/lv_obj_style_gen.h ****     return v.color;
 323:Middlewares/LVGL/GUI/lvgl/src/extra/widgets/meter/../../../../src/core/lv_obj_style_gen.h **** }
 324:Middlewares/LVGL/GUI/lvgl/src/extra/widgets/meter/../../../../src/core/lv_obj_style_gen.h **** 
 325:Middlewares/LVGL/GUI/lvgl/src/extra/widgets/meter/../../../../src/core/lv_obj_style_gen.h **** static inline lv_opa_t lv_obj_get_style_shadow_opa(const struct _lv_obj_t * obj, uint32_t part)
 326:Middlewares/LVGL/GUI/lvgl/src/extra/widgets/meter/../../../../src/core/lv_obj_style_gen.h **** {
 327:Middlewares/LVGL/GUI/lvgl/src/extra/widgets/meter/../../../../src/core/lv_obj_style_gen.h ****     lv_style_value_t v = lv_obj_get_style_prop(obj, part, LV_STYLE_SHADOW_OPA);
 328:Middlewares/LVGL/GUI/lvgl/src/extra/widgets/meter/../../../../src/core/lv_obj_style_gen.h ****     return (lv_opa_t)v.num;
 329:Middlewares/LVGL/GUI/lvgl/src/extra/widgets/meter/../../../../src/core/lv_obj_style_gen.h **** }
 330:Middlewares/LVGL/GUI/lvgl/src/extra/widgets/meter/../../../../src/core/lv_obj_style_gen.h **** 
 331:Middlewares/LVGL/GUI/lvgl/src/extra/widgets/meter/../../../../src/core/lv_obj_style_gen.h **** static inline lv_opa_t lv_obj_get_style_img_opa(const struct _lv_obj_t * obj, uint32_t part)
 332:Middlewares/LVGL/GUI/lvgl/src/extra/widgets/meter/../../../../src/core/lv_obj_style_gen.h **** {
 333:Middlewares/LVGL/GUI/lvgl/src/extra/widgets/meter/../../../../src/core/lv_obj_style_gen.h ****     lv_style_value_t v = lv_obj_get_style_prop(obj, part, LV_STYLE_IMG_OPA);
 334:Middlewares/LVGL/GUI/lvgl/src/extra/widgets/meter/../../../../src/core/lv_obj_style_gen.h ****     return (lv_opa_t)v.num;
 335:Middlewares/LVGL/GUI/lvgl/src/extra/widgets/meter/../../../../src/core/lv_obj_style_gen.h **** }
 336:Middlewares/LVGL/GUI/lvgl/src/extra/widgets/meter/../../../../src/core/lv_obj_style_gen.h **** 
 337:Middlewares/LVGL/GUI/lvgl/src/extra/widgets/meter/../../../../src/core/lv_obj_style_gen.h **** static inline lv_color_t lv_obj_get_style_img_recolor(const struct _lv_obj_t * obj, uint32_t part)
 338:Middlewares/LVGL/GUI/lvgl/src/extra/widgets/meter/../../../../src/core/lv_obj_style_gen.h **** {
 339:Middlewares/LVGL/GUI/lvgl/src/extra/widgets/meter/../../../../src/core/lv_obj_style_gen.h ****     lv_style_value_t v = lv_obj_get_style_prop(obj, part, LV_STYLE_IMG_RECOLOR);
 340:Middlewares/LVGL/GUI/lvgl/src/extra/widgets/meter/../../../../src/core/lv_obj_style_gen.h ****     return v.color;
 341:Middlewares/LVGL/GUI/lvgl/src/extra/widgets/meter/../../../../src/core/lv_obj_style_gen.h **** }
 342:Middlewares/LVGL/GUI/lvgl/src/extra/widgets/meter/../../../../src/core/lv_obj_style_gen.h **** 
 343:Middlewares/LVGL/GUI/lvgl/src/extra/widgets/meter/../../../../src/core/lv_obj_style_gen.h **** static inline lv_color_t lv_obj_get_style_img_recolor_filtered(const struct _lv_obj_t * obj, uint32
 344:Middlewares/LVGL/GUI/lvgl/src/extra/widgets/meter/../../../../src/core/lv_obj_style_gen.h **** {
 345:Middlewares/LVGL/GUI/lvgl/src/extra/widgets/meter/../../../../src/core/lv_obj_style_gen.h ****     lv_style_value_t v = lv_obj_get_style_prop(obj, part, LV_STYLE_IMG_RECOLOR_FILTERED);
ARM GAS  C:\Users\ADMINI~1\AppData\Local\Temp\ccVbA5cL.s 			page 14


 346:Middlewares/LVGL/GUI/lvgl/src/extra/widgets/meter/../../../../src/core/lv_obj_style_gen.h ****     return v.color;
 347:Middlewares/LVGL/GUI/lvgl/src/extra/widgets/meter/../../../../src/core/lv_obj_style_gen.h **** }
 348:Middlewares/LVGL/GUI/lvgl/src/extra/widgets/meter/../../../../src/core/lv_obj_style_gen.h **** 
 349:Middlewares/LVGL/GUI/lvgl/src/extra/widgets/meter/../../../../src/core/lv_obj_style_gen.h **** static inline lv_opa_t lv_obj_get_style_img_recolor_opa(const struct _lv_obj_t * obj, uint32_t part
 350:Middlewares/LVGL/GUI/lvgl/src/extra/widgets/meter/../../../../src/core/lv_obj_style_gen.h **** {
 351:Middlewares/LVGL/GUI/lvgl/src/extra/widgets/meter/../../../../src/core/lv_obj_style_gen.h ****     lv_style_value_t v = lv_obj_get_style_prop(obj, part, LV_STYLE_IMG_RECOLOR_OPA);
 352:Middlewares/LVGL/GUI/lvgl/src/extra/widgets/meter/../../../../src/core/lv_obj_style_gen.h ****     return (lv_opa_t)v.num;
 353:Middlewares/LVGL/GUI/lvgl/src/extra/widgets/meter/../../../../src/core/lv_obj_style_gen.h **** }
 354:Middlewares/LVGL/GUI/lvgl/src/extra/widgets/meter/../../../../src/core/lv_obj_style_gen.h **** 
 355:Middlewares/LVGL/GUI/lvgl/src/extra/widgets/meter/../../../../src/core/lv_obj_style_gen.h **** static inline lv_coord_t lv_obj_get_style_line_width(const struct _lv_obj_t * obj, uint32_t part)
 356:Middlewares/LVGL/GUI/lvgl/src/extra/widgets/meter/../../../../src/core/lv_obj_style_gen.h **** {
 357:Middlewares/LVGL/GUI/lvgl/src/extra/widgets/meter/../../../../src/core/lv_obj_style_gen.h ****     lv_style_value_t v = lv_obj_get_style_prop(obj, part, LV_STYLE_LINE_WIDTH);
 358:Middlewares/LVGL/GUI/lvgl/src/extra/widgets/meter/../../../../src/core/lv_obj_style_gen.h ****     return (lv_coord_t)v.num;
 359:Middlewares/LVGL/GUI/lvgl/src/extra/widgets/meter/../../../../src/core/lv_obj_style_gen.h **** }
 360:Middlewares/LVGL/GUI/lvgl/src/extra/widgets/meter/../../../../src/core/lv_obj_style_gen.h **** 
 361:Middlewares/LVGL/GUI/lvgl/src/extra/widgets/meter/../../../../src/core/lv_obj_style_gen.h **** static inline lv_coord_t lv_obj_get_style_line_dash_width(const struct _lv_obj_t * obj, uint32_t pa
 362:Middlewares/LVGL/GUI/lvgl/src/extra/widgets/meter/../../../../src/core/lv_obj_style_gen.h **** {
 363:Middlewares/LVGL/GUI/lvgl/src/extra/widgets/meter/../../../../src/core/lv_obj_style_gen.h ****     lv_style_value_t v = lv_obj_get_style_prop(obj, part, LV_STYLE_LINE_DASH_WIDTH);
 364:Middlewares/LVGL/GUI/lvgl/src/extra/widgets/meter/../../../../src/core/lv_obj_style_gen.h ****     return (lv_coord_t)v.num;
 365:Middlewares/LVGL/GUI/lvgl/src/extra/widgets/meter/../../../../src/core/lv_obj_style_gen.h **** }
 366:Middlewares/LVGL/GUI/lvgl/src/extra/widgets/meter/../../../../src/core/lv_obj_style_gen.h **** 
 367:Middlewares/LVGL/GUI/lvgl/src/extra/widgets/meter/../../../../src/core/lv_obj_style_gen.h **** static inline lv_coord_t lv_obj_get_style_line_dash_gap(const struct _lv_obj_t * obj, uint32_t part
 368:Middlewares/LVGL/GUI/lvgl/src/extra/widgets/meter/../../../../src/core/lv_obj_style_gen.h **** {
 369:Middlewares/LVGL/GUI/lvgl/src/extra/widgets/meter/../../../../src/core/lv_obj_style_gen.h ****     lv_style_value_t v = lv_obj_get_style_prop(obj, part, LV_STYLE_LINE_DASH_GAP);
 370:Middlewares/LVGL/GUI/lvgl/src/extra/widgets/meter/../../../../src/core/lv_obj_style_gen.h ****     return (lv_coord_t)v.num;
 371:Middlewares/LVGL/GUI/lvgl/src/extra/widgets/meter/../../../../src/core/lv_obj_style_gen.h **** }
 372:Middlewares/LVGL/GUI/lvgl/src/extra/widgets/meter/../../../../src/core/lv_obj_style_gen.h **** 
 373:Middlewares/LVGL/GUI/lvgl/src/extra/widgets/meter/../../../../src/core/lv_obj_style_gen.h **** static inline bool lv_obj_get_style_line_rounded(const struct _lv_obj_t * obj, uint32_t part)
 374:Middlewares/LVGL/GUI/lvgl/src/extra/widgets/meter/../../../../src/core/lv_obj_style_gen.h **** {
 375:Middlewares/LVGL/GUI/lvgl/src/extra/widgets/meter/../../../../src/core/lv_obj_style_gen.h ****     lv_style_value_t v = lv_obj_get_style_prop(obj, part, LV_STYLE_LINE_ROUNDED);
 376:Middlewares/LVGL/GUI/lvgl/src/extra/widgets/meter/../../../../src/core/lv_obj_style_gen.h ****     return (bool)v.num;
 377:Middlewares/LVGL/GUI/lvgl/src/extra/widgets/meter/../../../../src/core/lv_obj_style_gen.h **** }
 378:Middlewares/LVGL/GUI/lvgl/src/extra/widgets/meter/../../../../src/core/lv_obj_style_gen.h **** 
 379:Middlewares/LVGL/GUI/lvgl/src/extra/widgets/meter/../../../../src/core/lv_obj_style_gen.h **** static inline lv_color_t lv_obj_get_style_line_color(const struct _lv_obj_t * obj, uint32_t part)
 380:Middlewares/LVGL/GUI/lvgl/src/extra/widgets/meter/../../../../src/core/lv_obj_style_gen.h **** {
 381:Middlewares/LVGL/GUI/lvgl/src/extra/widgets/meter/../../../../src/core/lv_obj_style_gen.h ****     lv_style_value_t v = lv_obj_get_style_prop(obj, part, LV_STYLE_LINE_COLOR);
 382:Middlewares/LVGL/GUI/lvgl/src/extra/widgets/meter/../../../../src/core/lv_obj_style_gen.h ****     return v.color;
 383:Middlewares/LVGL/GUI/lvgl/src/extra/widgets/meter/../../../../src/core/lv_obj_style_gen.h **** }
 384:Middlewares/LVGL/GUI/lvgl/src/extra/widgets/meter/../../../../src/core/lv_obj_style_gen.h **** 
 385:Middlewares/LVGL/GUI/lvgl/src/extra/widgets/meter/../../../../src/core/lv_obj_style_gen.h **** static inline lv_color_t lv_obj_get_style_line_color_filtered(const struct _lv_obj_t * obj, uint32_
 386:Middlewares/LVGL/GUI/lvgl/src/extra/widgets/meter/../../../../src/core/lv_obj_style_gen.h **** {
 387:Middlewares/LVGL/GUI/lvgl/src/extra/widgets/meter/../../../../src/core/lv_obj_style_gen.h ****     lv_style_value_t v = lv_obj_get_style_prop(obj, part, LV_STYLE_LINE_COLOR_FILTERED);
 388:Middlewares/LVGL/GUI/lvgl/src/extra/widgets/meter/../../../../src/core/lv_obj_style_gen.h ****     return v.color;
 389:Middlewares/LVGL/GUI/lvgl/src/extra/widgets/meter/../../../../src/core/lv_obj_style_gen.h **** }
 390:Middlewares/LVGL/GUI/lvgl/src/extra/widgets/meter/../../../../src/core/lv_obj_style_gen.h **** 
 391:Middlewares/LVGL/GUI/lvgl/src/extra/widgets/meter/../../../../src/core/lv_obj_style_gen.h **** static inline lv_opa_t lv_obj_get_style_line_opa(const struct _lv_obj_t * obj, uint32_t part)
 392:Middlewares/LVGL/GUI/lvgl/src/extra/widgets/meter/../../../../src/core/lv_obj_style_gen.h **** {
 393:Middlewares/LVGL/GUI/lvgl/src/extra/widgets/meter/../../../../src/core/lv_obj_style_gen.h ****     lv_style_value_t v = lv_obj_get_style_prop(obj, part, LV_STYLE_LINE_OPA);
 394:Middlewares/LVGL/GUI/lvgl/src/extra/widgets/meter/../../../../src/core/lv_obj_style_gen.h ****     return (lv_opa_t)v.num;
 395:Middlewares/LVGL/GUI/lvgl/src/extra/widgets/meter/../../../../src/core/lv_obj_style_gen.h **** }
 396:Middlewares/LVGL/GUI/lvgl/src/extra/widgets/meter/../../../../src/core/lv_obj_style_gen.h **** 
 397:Middlewares/LVGL/GUI/lvgl/src/extra/widgets/meter/../../../../src/core/lv_obj_style_gen.h **** static inline lv_coord_t lv_obj_get_style_arc_width(const struct _lv_obj_t * obj, uint32_t part)
 398:Middlewares/LVGL/GUI/lvgl/src/extra/widgets/meter/../../../../src/core/lv_obj_style_gen.h **** {
 399:Middlewares/LVGL/GUI/lvgl/src/extra/widgets/meter/../../../../src/core/lv_obj_style_gen.h ****     lv_style_value_t v = lv_obj_get_style_prop(obj, part, LV_STYLE_ARC_WIDTH);
 400:Middlewares/LVGL/GUI/lvgl/src/extra/widgets/meter/../../../../src/core/lv_obj_style_gen.h ****     return (lv_coord_t)v.num;
 401:Middlewares/LVGL/GUI/lvgl/src/extra/widgets/meter/../../../../src/core/lv_obj_style_gen.h **** }
 402:Middlewares/LVGL/GUI/lvgl/src/extra/widgets/meter/../../../../src/core/lv_obj_style_gen.h **** 
ARM GAS  C:\Users\ADMINI~1\AppData\Local\Temp\ccVbA5cL.s 			page 15


 403:Middlewares/LVGL/GUI/lvgl/src/extra/widgets/meter/../../../../src/core/lv_obj_style_gen.h **** static inline bool lv_obj_get_style_arc_rounded(const struct _lv_obj_t * obj, uint32_t part)
  66              		.loc 2 403 20 view .LVU7
  67              	.LBB52:
 404:Middlewares/LVGL/GUI/lvgl/src/extra/widgets/meter/../../../../src/core/lv_obj_style_gen.h **** {
 405:Middlewares/LVGL/GUI/lvgl/src/extra/widgets/meter/../../../../src/core/lv_obj_style_gen.h ****     lv_style_value_t v = lv_obj_get_style_prop(obj, part, LV_STYLE_ARC_ROUNDED);
  68              		.loc 2 405 5 view .LVU8
  69              		.loc 2 405 26 is_stmt 0 view .LVU9
  70 0014 5122     		movs	r2, #81
  71 0016 4FF4A021 		mov	r1, #327680
  72 001a 3846     		mov	r0, r7
  73 001c FFF7FEFF 		bl	lv_obj_get_style_prop
  74              	.LVL4:
 406:Middlewares/LVGL/GUI/lvgl/src/extra/widgets/meter/../../../../src/core/lv_obj_style_gen.h ****     return (bool)v.num;
  75              		.loc 2 406 5 is_stmt 1 view .LVU10
  76              		.loc 2 406 12 is_stmt 0 view .LVU11
  77 0020 0038     		subs	r0, r0, #0
  78 0022 18BF     		it	ne
  79 0024 0120     		movne	r0, #1
  80              	.LVL5:
  81              		.loc 2 406 12 view .LVU12
  82              	.LBE52:
  83              	.LBE51:
  84              		.loc 1 332 21 view .LVU13
  85 0026 9DF87530 		ldrb	r3, [sp, #117]	@ zero_extendqisi2
  86 002a 60F38203 		bfi	r3, r0, #2, #1
  87 002e 8DF87530 		strb	r3, [sp, #117]
 333:Middlewares/LVGL/GUI/lvgl/src/extra/widgets/meter/lv_meter.c **** 
 334:Middlewares/LVGL/GUI/lvgl/src/extra/widgets/meter/lv_meter.c ****     lv_coord_t r_out = lv_area_get_width(scale_area) / 2 ;
  88              		.loc 1 334 5 is_stmt 1 view .LVU14
  89              	.LVL6:
  90              	.LBB53:
  91              	.LBI53:
  92              		.file 3 "Middlewares/LVGL/GUI/lvgl/src/extra/widgets/meter/../../../../src/hal/../draw/../misc/../
   1:Middlewares/LVGL/GUI/lvgl/src/extra/widgets/meter/../../../../src/hal/../draw/../misc/../font/../misc/lv_area.h **** /**
   2:Middlewares/LVGL/GUI/lvgl/src/extra/widgets/meter/../../../../src/hal/../draw/../misc/../font/../misc/lv_area.h ****  * @file lv_area.h
   3:Middlewares/LVGL/GUI/lvgl/src/extra/widgets/meter/../../../../src/hal/../draw/../misc/../font/../misc/lv_area.h ****  *
   4:Middlewares/LVGL/GUI/lvgl/src/extra/widgets/meter/../../../../src/hal/../draw/../misc/../font/../misc/lv_area.h ****  */
   5:Middlewares/LVGL/GUI/lvgl/src/extra/widgets/meter/../../../../src/hal/../draw/../misc/../font/../misc/lv_area.h **** 
   6:Middlewares/LVGL/GUI/lvgl/src/extra/widgets/meter/../../../../src/hal/../draw/../misc/../font/../misc/lv_area.h **** #ifndef LV_AREA_H
   7:Middlewares/LVGL/GUI/lvgl/src/extra/widgets/meter/../../../../src/hal/../draw/../misc/../font/../misc/lv_area.h **** #define LV_AREA_H
   8:Middlewares/LVGL/GUI/lvgl/src/extra/widgets/meter/../../../../src/hal/../draw/../misc/../font/../misc/lv_area.h **** 
   9:Middlewares/LVGL/GUI/lvgl/src/extra/widgets/meter/../../../../src/hal/../draw/../misc/../font/../misc/lv_area.h **** #ifdef __cplusplus
  10:Middlewares/LVGL/GUI/lvgl/src/extra/widgets/meter/../../../../src/hal/../draw/../misc/../font/../misc/lv_area.h **** extern "C" {
  11:Middlewares/LVGL/GUI/lvgl/src/extra/widgets/meter/../../../../src/hal/../draw/../misc/../font/../misc/lv_area.h **** #endif
  12:Middlewares/LVGL/GUI/lvgl/src/extra/widgets/meter/../../../../src/hal/../draw/../misc/../font/../misc/lv_area.h **** 
  13:Middlewares/LVGL/GUI/lvgl/src/extra/widgets/meter/../../../../src/hal/../draw/../misc/../font/../misc/lv_area.h **** /*********************
  14:Middlewares/LVGL/GUI/lvgl/src/extra/widgets/meter/../../../../src/hal/../draw/../misc/../font/../misc/lv_area.h ****  *      INCLUDES
  15:Middlewares/LVGL/GUI/lvgl/src/extra/widgets/meter/../../../../src/hal/../draw/../misc/../font/../misc/lv_area.h ****  *********************/
  16:Middlewares/LVGL/GUI/lvgl/src/extra/widgets/meter/../../../../src/hal/../draw/../misc/../font/../misc/lv_area.h **** #include "../lv_conf_internal.h"
  17:Middlewares/LVGL/GUI/lvgl/src/extra/widgets/meter/../../../../src/hal/../draw/../misc/../font/../misc/lv_area.h **** #include <stdbool.h>
  18:Middlewares/LVGL/GUI/lvgl/src/extra/widgets/meter/../../../../src/hal/../draw/../misc/../font/../misc/lv_area.h **** #include <stdint.h>
  19:Middlewares/LVGL/GUI/lvgl/src/extra/widgets/meter/../../../../src/hal/../draw/../misc/../font/../misc/lv_area.h **** 
  20:Middlewares/LVGL/GUI/lvgl/src/extra/widgets/meter/../../../../src/hal/../draw/../misc/../font/../misc/lv_area.h **** /*********************
  21:Middlewares/LVGL/GUI/lvgl/src/extra/widgets/meter/../../../../src/hal/../draw/../misc/../font/../misc/lv_area.h ****  *      DEFINES
  22:Middlewares/LVGL/GUI/lvgl/src/extra/widgets/meter/../../../../src/hal/../draw/../misc/../font/../misc/lv_area.h ****  *********************/
  23:Middlewares/LVGL/GUI/lvgl/src/extra/widgets/meter/../../../../src/hal/../draw/../misc/../font/../misc/lv_area.h **** 
  24:Middlewares/LVGL/GUI/lvgl/src/extra/widgets/meter/../../../../src/hal/../draw/../misc/../font/../misc/lv_area.h **** #if LV_USE_LARGE_COORD
ARM GAS  C:\Users\ADMINI~1\AppData\Local\Temp\ccVbA5cL.s 			page 16


  25:Middlewares/LVGL/GUI/lvgl/src/extra/widgets/meter/../../../../src/hal/../draw/../misc/../font/../misc/lv_area.h **** typedef int32_t lv_coord_t;
  26:Middlewares/LVGL/GUI/lvgl/src/extra/widgets/meter/../../../../src/hal/../draw/../misc/../font/../misc/lv_area.h **** #else
  27:Middlewares/LVGL/GUI/lvgl/src/extra/widgets/meter/../../../../src/hal/../draw/../misc/../font/../misc/lv_area.h **** typedef int16_t lv_coord_t;
  28:Middlewares/LVGL/GUI/lvgl/src/extra/widgets/meter/../../../../src/hal/../draw/../misc/../font/../misc/lv_area.h **** #endif
  29:Middlewares/LVGL/GUI/lvgl/src/extra/widgets/meter/../../../../src/hal/../draw/../misc/../font/../misc/lv_area.h **** 
  30:Middlewares/LVGL/GUI/lvgl/src/extra/widgets/meter/../../../../src/hal/../draw/../misc/../font/../misc/lv_area.h **** /**********************
  31:Middlewares/LVGL/GUI/lvgl/src/extra/widgets/meter/../../../../src/hal/../draw/../misc/../font/../misc/lv_area.h ****  *      TYPEDEFS
  32:Middlewares/LVGL/GUI/lvgl/src/extra/widgets/meter/../../../../src/hal/../draw/../misc/../font/../misc/lv_area.h ****  **********************/
  33:Middlewares/LVGL/GUI/lvgl/src/extra/widgets/meter/../../../../src/hal/../draw/../misc/../font/../misc/lv_area.h **** 
  34:Middlewares/LVGL/GUI/lvgl/src/extra/widgets/meter/../../../../src/hal/../draw/../misc/../font/../misc/lv_area.h **** /**
  35:Middlewares/LVGL/GUI/lvgl/src/extra/widgets/meter/../../../../src/hal/../draw/../misc/../font/../misc/lv_area.h ****  * Represents a point on the screen.
  36:Middlewares/LVGL/GUI/lvgl/src/extra/widgets/meter/../../../../src/hal/../draw/../misc/../font/../misc/lv_area.h ****  */
  37:Middlewares/LVGL/GUI/lvgl/src/extra/widgets/meter/../../../../src/hal/../draw/../misc/../font/../misc/lv_area.h **** typedef struct {
  38:Middlewares/LVGL/GUI/lvgl/src/extra/widgets/meter/../../../../src/hal/../draw/../misc/../font/../misc/lv_area.h ****     lv_coord_t x;
  39:Middlewares/LVGL/GUI/lvgl/src/extra/widgets/meter/../../../../src/hal/../draw/../misc/../font/../misc/lv_area.h ****     lv_coord_t y;
  40:Middlewares/LVGL/GUI/lvgl/src/extra/widgets/meter/../../../../src/hal/../draw/../misc/../font/../misc/lv_area.h **** } lv_point_t;
  41:Middlewares/LVGL/GUI/lvgl/src/extra/widgets/meter/../../../../src/hal/../draw/../misc/../font/../misc/lv_area.h **** 
  42:Middlewares/LVGL/GUI/lvgl/src/extra/widgets/meter/../../../../src/hal/../draw/../misc/../font/../misc/lv_area.h **** /** Represents an area of the screen.*/
  43:Middlewares/LVGL/GUI/lvgl/src/extra/widgets/meter/../../../../src/hal/../draw/../misc/../font/../misc/lv_area.h **** typedef struct {
  44:Middlewares/LVGL/GUI/lvgl/src/extra/widgets/meter/../../../../src/hal/../draw/../misc/../font/../misc/lv_area.h ****     lv_coord_t x1;
  45:Middlewares/LVGL/GUI/lvgl/src/extra/widgets/meter/../../../../src/hal/../draw/../misc/../font/../misc/lv_area.h ****     lv_coord_t y1;
  46:Middlewares/LVGL/GUI/lvgl/src/extra/widgets/meter/../../../../src/hal/../draw/../misc/../font/../misc/lv_area.h ****     lv_coord_t x2;
  47:Middlewares/LVGL/GUI/lvgl/src/extra/widgets/meter/../../../../src/hal/../draw/../misc/../font/../misc/lv_area.h ****     lv_coord_t y2;
  48:Middlewares/LVGL/GUI/lvgl/src/extra/widgets/meter/../../../../src/hal/../draw/../misc/../font/../misc/lv_area.h **** } lv_area_t;
  49:Middlewares/LVGL/GUI/lvgl/src/extra/widgets/meter/../../../../src/hal/../draw/../misc/../font/../misc/lv_area.h **** 
  50:Middlewares/LVGL/GUI/lvgl/src/extra/widgets/meter/../../../../src/hal/../draw/../misc/../font/../misc/lv_area.h **** /** Alignments*/
  51:Middlewares/LVGL/GUI/lvgl/src/extra/widgets/meter/../../../../src/hal/../draw/../misc/../font/../misc/lv_area.h **** enum {
  52:Middlewares/LVGL/GUI/lvgl/src/extra/widgets/meter/../../../../src/hal/../draw/../misc/../font/../misc/lv_area.h ****     LV_ALIGN_DEFAULT = 0,
  53:Middlewares/LVGL/GUI/lvgl/src/extra/widgets/meter/../../../../src/hal/../draw/../misc/../font/../misc/lv_area.h ****     LV_ALIGN_TOP_LEFT,
  54:Middlewares/LVGL/GUI/lvgl/src/extra/widgets/meter/../../../../src/hal/../draw/../misc/../font/../misc/lv_area.h ****     LV_ALIGN_TOP_MID,
  55:Middlewares/LVGL/GUI/lvgl/src/extra/widgets/meter/../../../../src/hal/../draw/../misc/../font/../misc/lv_area.h ****     LV_ALIGN_TOP_RIGHT,
  56:Middlewares/LVGL/GUI/lvgl/src/extra/widgets/meter/../../../../src/hal/../draw/../misc/../font/../misc/lv_area.h ****     LV_ALIGN_BOTTOM_LEFT,
  57:Middlewares/LVGL/GUI/lvgl/src/extra/widgets/meter/../../../../src/hal/../draw/../misc/../font/../misc/lv_area.h ****     LV_ALIGN_BOTTOM_MID,
  58:Middlewares/LVGL/GUI/lvgl/src/extra/widgets/meter/../../../../src/hal/../draw/../misc/../font/../misc/lv_area.h ****     LV_ALIGN_BOTTOM_RIGHT,
  59:Middlewares/LVGL/GUI/lvgl/src/extra/widgets/meter/../../../../src/hal/../draw/../misc/../font/../misc/lv_area.h ****     LV_ALIGN_LEFT_MID,
  60:Middlewares/LVGL/GUI/lvgl/src/extra/widgets/meter/../../../../src/hal/../draw/../misc/../font/../misc/lv_area.h ****     LV_ALIGN_RIGHT_MID,
  61:Middlewares/LVGL/GUI/lvgl/src/extra/widgets/meter/../../../../src/hal/../draw/../misc/../font/../misc/lv_area.h ****     LV_ALIGN_CENTER,
  62:Middlewares/LVGL/GUI/lvgl/src/extra/widgets/meter/../../../../src/hal/../draw/../misc/../font/../misc/lv_area.h **** 
  63:Middlewares/LVGL/GUI/lvgl/src/extra/widgets/meter/../../../../src/hal/../draw/../misc/../font/../misc/lv_area.h ****     LV_ALIGN_OUT_TOP_LEFT,
  64:Middlewares/LVGL/GUI/lvgl/src/extra/widgets/meter/../../../../src/hal/../draw/../misc/../font/../misc/lv_area.h ****     LV_ALIGN_OUT_TOP_MID,
  65:Middlewares/LVGL/GUI/lvgl/src/extra/widgets/meter/../../../../src/hal/../draw/../misc/../font/../misc/lv_area.h ****     LV_ALIGN_OUT_TOP_RIGHT,
  66:Middlewares/LVGL/GUI/lvgl/src/extra/widgets/meter/../../../../src/hal/../draw/../misc/../font/../misc/lv_area.h ****     LV_ALIGN_OUT_BOTTOM_LEFT,
  67:Middlewares/LVGL/GUI/lvgl/src/extra/widgets/meter/../../../../src/hal/../draw/../misc/../font/../misc/lv_area.h ****     LV_ALIGN_OUT_BOTTOM_MID,
  68:Middlewares/LVGL/GUI/lvgl/src/extra/widgets/meter/../../../../src/hal/../draw/../misc/../font/../misc/lv_area.h ****     LV_ALIGN_OUT_BOTTOM_RIGHT,
  69:Middlewares/LVGL/GUI/lvgl/src/extra/widgets/meter/../../../../src/hal/../draw/../misc/../font/../misc/lv_area.h ****     LV_ALIGN_OUT_LEFT_TOP,
  70:Middlewares/LVGL/GUI/lvgl/src/extra/widgets/meter/../../../../src/hal/../draw/../misc/../font/../misc/lv_area.h ****     LV_ALIGN_OUT_LEFT_MID,
  71:Middlewares/LVGL/GUI/lvgl/src/extra/widgets/meter/../../../../src/hal/../draw/../misc/../font/../misc/lv_area.h ****     LV_ALIGN_OUT_LEFT_BOTTOM,
  72:Middlewares/LVGL/GUI/lvgl/src/extra/widgets/meter/../../../../src/hal/../draw/../misc/../font/../misc/lv_area.h ****     LV_ALIGN_OUT_RIGHT_TOP,
  73:Middlewares/LVGL/GUI/lvgl/src/extra/widgets/meter/../../../../src/hal/../draw/../misc/../font/../misc/lv_area.h ****     LV_ALIGN_OUT_RIGHT_MID,
  74:Middlewares/LVGL/GUI/lvgl/src/extra/widgets/meter/../../../../src/hal/../draw/../misc/../font/../misc/lv_area.h ****     LV_ALIGN_OUT_RIGHT_BOTTOM,
  75:Middlewares/LVGL/GUI/lvgl/src/extra/widgets/meter/../../../../src/hal/../draw/../misc/../font/../misc/lv_area.h **** };
  76:Middlewares/LVGL/GUI/lvgl/src/extra/widgets/meter/../../../../src/hal/../draw/../misc/../font/../misc/lv_area.h **** typedef uint8_t lv_align_t;
  77:Middlewares/LVGL/GUI/lvgl/src/extra/widgets/meter/../../../../src/hal/../draw/../misc/../font/../misc/lv_area.h **** 
  78:Middlewares/LVGL/GUI/lvgl/src/extra/widgets/meter/../../../../src/hal/../draw/../misc/../font/../misc/lv_area.h **** enum {
  79:Middlewares/LVGL/GUI/lvgl/src/extra/widgets/meter/../../../../src/hal/../draw/../misc/../font/../misc/lv_area.h ****     LV_DIR_NONE     = 0x00,
  80:Middlewares/LVGL/GUI/lvgl/src/extra/widgets/meter/../../../../src/hal/../draw/../misc/../font/../misc/lv_area.h ****     LV_DIR_LEFT     = (1 << 0),
  81:Middlewares/LVGL/GUI/lvgl/src/extra/widgets/meter/../../../../src/hal/../draw/../misc/../font/../misc/lv_area.h ****     LV_DIR_RIGHT    = (1 << 1),
ARM GAS  C:\Users\ADMINI~1\AppData\Local\Temp\ccVbA5cL.s 			page 17


  82:Middlewares/LVGL/GUI/lvgl/src/extra/widgets/meter/../../../../src/hal/../draw/../misc/../font/../misc/lv_area.h ****     LV_DIR_TOP      = (1 << 2),
  83:Middlewares/LVGL/GUI/lvgl/src/extra/widgets/meter/../../../../src/hal/../draw/../misc/../font/../misc/lv_area.h ****     LV_DIR_BOTTOM   = (1 << 3),
  84:Middlewares/LVGL/GUI/lvgl/src/extra/widgets/meter/../../../../src/hal/../draw/../misc/../font/../misc/lv_area.h ****     LV_DIR_HOR      = LV_DIR_LEFT | LV_DIR_RIGHT,
  85:Middlewares/LVGL/GUI/lvgl/src/extra/widgets/meter/../../../../src/hal/../draw/../misc/../font/../misc/lv_area.h ****     LV_DIR_VER      = LV_DIR_TOP | LV_DIR_BOTTOM,
  86:Middlewares/LVGL/GUI/lvgl/src/extra/widgets/meter/../../../../src/hal/../draw/../misc/../font/../misc/lv_area.h ****     LV_DIR_ALL      = LV_DIR_HOR | LV_DIR_VER,
  87:Middlewares/LVGL/GUI/lvgl/src/extra/widgets/meter/../../../../src/hal/../draw/../misc/../font/../misc/lv_area.h **** };
  88:Middlewares/LVGL/GUI/lvgl/src/extra/widgets/meter/../../../../src/hal/../draw/../misc/../font/../misc/lv_area.h **** 
  89:Middlewares/LVGL/GUI/lvgl/src/extra/widgets/meter/../../../../src/hal/../draw/../misc/../font/../misc/lv_area.h **** typedef uint8_t lv_dir_t;
  90:Middlewares/LVGL/GUI/lvgl/src/extra/widgets/meter/../../../../src/hal/../draw/../misc/../font/../misc/lv_area.h **** 
  91:Middlewares/LVGL/GUI/lvgl/src/extra/widgets/meter/../../../../src/hal/../draw/../misc/../font/../misc/lv_area.h **** /**********************
  92:Middlewares/LVGL/GUI/lvgl/src/extra/widgets/meter/../../../../src/hal/../draw/../misc/../font/../misc/lv_area.h ****  * GLOBAL PROTOTYPES
  93:Middlewares/LVGL/GUI/lvgl/src/extra/widgets/meter/../../../../src/hal/../draw/../misc/../font/../misc/lv_area.h ****  **********************/
  94:Middlewares/LVGL/GUI/lvgl/src/extra/widgets/meter/../../../../src/hal/../draw/../misc/../font/../misc/lv_area.h **** 
  95:Middlewares/LVGL/GUI/lvgl/src/extra/widgets/meter/../../../../src/hal/../draw/../misc/../font/../misc/lv_area.h **** /**
  96:Middlewares/LVGL/GUI/lvgl/src/extra/widgets/meter/../../../../src/hal/../draw/../misc/../font/../misc/lv_area.h ****  * Initialize an area
  97:Middlewares/LVGL/GUI/lvgl/src/extra/widgets/meter/../../../../src/hal/../draw/../misc/../font/../misc/lv_area.h ****  * @param area_p pointer to an area
  98:Middlewares/LVGL/GUI/lvgl/src/extra/widgets/meter/../../../../src/hal/../draw/../misc/../font/../misc/lv_area.h ****  * @param x1 left coordinate of the area
  99:Middlewares/LVGL/GUI/lvgl/src/extra/widgets/meter/../../../../src/hal/../draw/../misc/../font/../misc/lv_area.h ****  * @param y1 top coordinate of the area
 100:Middlewares/LVGL/GUI/lvgl/src/extra/widgets/meter/../../../../src/hal/../draw/../misc/../font/../misc/lv_area.h ****  * @param x2 right coordinate of the area
 101:Middlewares/LVGL/GUI/lvgl/src/extra/widgets/meter/../../../../src/hal/../draw/../misc/../font/../misc/lv_area.h ****  * @param y2 bottom coordinate of the area
 102:Middlewares/LVGL/GUI/lvgl/src/extra/widgets/meter/../../../../src/hal/../draw/../misc/../font/../misc/lv_area.h ****  */
 103:Middlewares/LVGL/GUI/lvgl/src/extra/widgets/meter/../../../../src/hal/../draw/../misc/../font/../misc/lv_area.h **** void lv_area_set(lv_area_t * area_p, lv_coord_t x1, lv_coord_t y1, lv_coord_t x2, lv_coord_t y2);
 104:Middlewares/LVGL/GUI/lvgl/src/extra/widgets/meter/../../../../src/hal/../draw/../misc/../font/../misc/lv_area.h **** 
 105:Middlewares/LVGL/GUI/lvgl/src/extra/widgets/meter/../../../../src/hal/../draw/../misc/../font/../misc/lv_area.h **** /**
 106:Middlewares/LVGL/GUI/lvgl/src/extra/widgets/meter/../../../../src/hal/../draw/../misc/../font/../misc/lv_area.h ****  * Copy an area
 107:Middlewares/LVGL/GUI/lvgl/src/extra/widgets/meter/../../../../src/hal/../draw/../misc/../font/../misc/lv_area.h ****  * @param dest pointer to the destination area
 108:Middlewares/LVGL/GUI/lvgl/src/extra/widgets/meter/../../../../src/hal/../draw/../misc/../font/../misc/lv_area.h ****  * @param src pointer to the source area
 109:Middlewares/LVGL/GUI/lvgl/src/extra/widgets/meter/../../../../src/hal/../draw/../misc/../font/../misc/lv_area.h ****  */
 110:Middlewares/LVGL/GUI/lvgl/src/extra/widgets/meter/../../../../src/hal/../draw/../misc/../font/../misc/lv_area.h **** inline static void lv_area_copy(lv_area_t * dest, const lv_area_t * src)
 111:Middlewares/LVGL/GUI/lvgl/src/extra/widgets/meter/../../../../src/hal/../draw/../misc/../font/../misc/lv_area.h **** {
 112:Middlewares/LVGL/GUI/lvgl/src/extra/widgets/meter/../../../../src/hal/../draw/../misc/../font/../misc/lv_area.h ****     dest->x1 = src->x1;
 113:Middlewares/LVGL/GUI/lvgl/src/extra/widgets/meter/../../../../src/hal/../draw/../misc/../font/../misc/lv_area.h ****     dest->y1 = src->y1;
 114:Middlewares/LVGL/GUI/lvgl/src/extra/widgets/meter/../../../../src/hal/../draw/../misc/../font/../misc/lv_area.h ****     dest->x2 = src->x2;
 115:Middlewares/LVGL/GUI/lvgl/src/extra/widgets/meter/../../../../src/hal/../draw/../misc/../font/../misc/lv_area.h ****     dest->y2 = src->y2;
 116:Middlewares/LVGL/GUI/lvgl/src/extra/widgets/meter/../../../../src/hal/../draw/../misc/../font/../misc/lv_area.h **** }
 117:Middlewares/LVGL/GUI/lvgl/src/extra/widgets/meter/../../../../src/hal/../draw/../misc/../font/../misc/lv_area.h **** 
 118:Middlewares/LVGL/GUI/lvgl/src/extra/widgets/meter/../../../../src/hal/../draw/../misc/../font/../misc/lv_area.h **** /**
 119:Middlewares/LVGL/GUI/lvgl/src/extra/widgets/meter/../../../../src/hal/../draw/../misc/../font/../misc/lv_area.h ****  * Get the width of an area
 120:Middlewares/LVGL/GUI/lvgl/src/extra/widgets/meter/../../../../src/hal/../draw/../misc/../font/../misc/lv_area.h ****  * @param area_p pointer to an area
 121:Middlewares/LVGL/GUI/lvgl/src/extra/widgets/meter/../../../../src/hal/../draw/../misc/../font/../misc/lv_area.h ****  * @return the width of the area (if x1 == x2 -> width = 1)
 122:Middlewares/LVGL/GUI/lvgl/src/extra/widgets/meter/../../../../src/hal/../draw/../misc/../font/../misc/lv_area.h ****  */
 123:Middlewares/LVGL/GUI/lvgl/src/extra/widgets/meter/../../../../src/hal/../draw/../misc/../font/../misc/lv_area.h **** static inline lv_coord_t lv_area_get_width(const lv_area_t * area_p)
  93              		.loc 3 123 26 view .LVU15
  94              	.LBB54:
 124:Middlewares/LVGL/GUI/lvgl/src/extra/widgets/meter/../../../../src/hal/../draw/../misc/../font/../misc/lv_area.h **** {
 125:Middlewares/LVGL/GUI/lvgl/src/extra/widgets/meter/../../../../src/hal/../draw/../misc/../font/../misc/lv_area.h ****     return (lv_coord_t)(area_p->x2 - area_p->x1 + 1);
  95              		.loc 3 125 5 view .LVU16
  96              		.loc 3 125 31 is_stmt 0 view .LVU17
  97 0032 AB68     		ldr	r3, [r5, #8]
  98              		.loc 3 125 44 view .LVU18
  99 0034 2A68     		ldr	r2, [r5]
 100              		.loc 3 125 36 view .LVU19
 101 0036 9B1A     		subs	r3, r3, r2
 102              		.loc 3 125 12 view .LVU20
 103 0038 0133     		adds	r3, r3, #1
 104              	.LVL7:
 105              		.loc 3 125 12 view .LVU21
ARM GAS  C:\Users\ADMINI~1\AppData\Local\Temp\ccVbA5cL.s 			page 18


 106              	.LBE54:
 107              	.LBE53:
 108              		.loc 1 334 16 view .LVU22
 109 003a 03EBD373 		add	r3, r3, r3, lsr #31
 110 003e 4FEA630B 		asr	fp, r3, #1
 111              	.LVL8:
 335:Middlewares/LVGL/GUI/lvgl/src/extra/widgets/meter/lv_meter.c ****     lv_point_t scale_center;
 112              		.loc 1 335 5 is_stmt 1 view .LVU23
 336:Middlewares/LVGL/GUI/lvgl/src/extra/widgets/meter/lv_meter.c ****     scale_center.x = scale_area->x1 + r_out;
 113              		.loc 1 336 5 view .LVU24
 114              		.loc 1 336 37 is_stmt 0 view .LVU25
 115 0042 02EB6302 		add	r2, r2, r3, asr #1
 116              		.loc 1 336 20 view .LVU26
 117 0046 1792     		str	r2, [sp, #92]
 337:Middlewares/LVGL/GUI/lvgl/src/extra/widgets/meter/lv_meter.c ****     scale_center.y = scale_area->y1 + r_out;
 118              		.loc 1 337 5 is_stmt 1 view .LVU27
 119              		.loc 1 337 32 is_stmt 0 view .LVU28
 120 0048 6A68     		ldr	r2, [r5, #4]
 121              		.loc 1 337 37 view .LVU29
 122 004a 02EB6303 		add	r3, r2, r3, asr #1
 123              		.loc 1 337 20 view .LVU30
 124 004e 1893     		str	r3, [sp, #96]
 338:Middlewares/LVGL/GUI/lvgl/src/extra/widgets/meter/lv_meter.c **** 
 339:Middlewares/LVGL/GUI/lvgl/src/extra/widgets/meter/lv_meter.c ****     lv_opa_t opa_main = lv_obj_get_style_opa(obj, LV_PART_MAIN);
 125              		.loc 1 339 5 is_stmt 1 view .LVU31
 126              	.LVL9:
 127              	.LBB55:
 128              	.LBI55:
 407:Middlewares/LVGL/GUI/lvgl/src/extra/widgets/meter/../../../../src/core/lv_obj_style_gen.h **** }
 408:Middlewares/LVGL/GUI/lvgl/src/extra/widgets/meter/../../../../src/core/lv_obj_style_gen.h **** 
 409:Middlewares/LVGL/GUI/lvgl/src/extra/widgets/meter/../../../../src/core/lv_obj_style_gen.h **** static inline lv_color_t lv_obj_get_style_arc_color(const struct _lv_obj_t * obj, uint32_t part)
 410:Middlewares/LVGL/GUI/lvgl/src/extra/widgets/meter/../../../../src/core/lv_obj_style_gen.h **** {
 411:Middlewares/LVGL/GUI/lvgl/src/extra/widgets/meter/../../../../src/core/lv_obj_style_gen.h ****     lv_style_value_t v = lv_obj_get_style_prop(obj, part, LV_STYLE_ARC_COLOR);
 412:Middlewares/LVGL/GUI/lvgl/src/extra/widgets/meter/../../../../src/core/lv_obj_style_gen.h ****     return v.color;
 413:Middlewares/LVGL/GUI/lvgl/src/extra/widgets/meter/../../../../src/core/lv_obj_style_gen.h **** }
 414:Middlewares/LVGL/GUI/lvgl/src/extra/widgets/meter/../../../../src/core/lv_obj_style_gen.h **** 
 415:Middlewares/LVGL/GUI/lvgl/src/extra/widgets/meter/../../../../src/core/lv_obj_style_gen.h **** static inline lv_color_t lv_obj_get_style_arc_color_filtered(const struct _lv_obj_t * obj, uint32_t
 416:Middlewares/LVGL/GUI/lvgl/src/extra/widgets/meter/../../../../src/core/lv_obj_style_gen.h **** {
 417:Middlewares/LVGL/GUI/lvgl/src/extra/widgets/meter/../../../../src/core/lv_obj_style_gen.h ****     lv_style_value_t v = lv_obj_get_style_prop(obj, part, LV_STYLE_ARC_COLOR_FILTERED);
 418:Middlewares/LVGL/GUI/lvgl/src/extra/widgets/meter/../../../../src/core/lv_obj_style_gen.h ****     return v.color;
 419:Middlewares/LVGL/GUI/lvgl/src/extra/widgets/meter/../../../../src/core/lv_obj_style_gen.h **** }
 420:Middlewares/LVGL/GUI/lvgl/src/extra/widgets/meter/../../../../src/core/lv_obj_style_gen.h **** 
 421:Middlewares/LVGL/GUI/lvgl/src/extra/widgets/meter/../../../../src/core/lv_obj_style_gen.h **** static inline lv_opa_t lv_obj_get_style_arc_opa(const struct _lv_obj_t * obj, uint32_t part)
 422:Middlewares/LVGL/GUI/lvgl/src/extra/widgets/meter/../../../../src/core/lv_obj_style_gen.h **** {
 423:Middlewares/LVGL/GUI/lvgl/src/extra/widgets/meter/../../../../src/core/lv_obj_style_gen.h ****     lv_style_value_t v = lv_obj_get_style_prop(obj, part, LV_STYLE_ARC_OPA);
 424:Middlewares/LVGL/GUI/lvgl/src/extra/widgets/meter/../../../../src/core/lv_obj_style_gen.h ****     return (lv_opa_t)v.num;
 425:Middlewares/LVGL/GUI/lvgl/src/extra/widgets/meter/../../../../src/core/lv_obj_style_gen.h **** }
 426:Middlewares/LVGL/GUI/lvgl/src/extra/widgets/meter/../../../../src/core/lv_obj_style_gen.h **** 
 427:Middlewares/LVGL/GUI/lvgl/src/extra/widgets/meter/../../../../src/core/lv_obj_style_gen.h **** static inline const void * lv_obj_get_style_arc_img_src(const struct _lv_obj_t * obj, uint32_t part
 428:Middlewares/LVGL/GUI/lvgl/src/extra/widgets/meter/../../../../src/core/lv_obj_style_gen.h **** {
 429:Middlewares/LVGL/GUI/lvgl/src/extra/widgets/meter/../../../../src/core/lv_obj_style_gen.h ****     lv_style_value_t v = lv_obj_get_style_prop(obj, part, LV_STYLE_ARC_IMG_SRC);
 430:Middlewares/LVGL/GUI/lvgl/src/extra/widgets/meter/../../../../src/core/lv_obj_style_gen.h ****     return (const void *)v.ptr;
 431:Middlewares/LVGL/GUI/lvgl/src/extra/widgets/meter/../../../../src/core/lv_obj_style_gen.h **** }
 432:Middlewares/LVGL/GUI/lvgl/src/extra/widgets/meter/../../../../src/core/lv_obj_style_gen.h **** 
 433:Middlewares/LVGL/GUI/lvgl/src/extra/widgets/meter/../../../../src/core/lv_obj_style_gen.h **** static inline lv_color_t lv_obj_get_style_text_color(const struct _lv_obj_t * obj, uint32_t part)
 434:Middlewares/LVGL/GUI/lvgl/src/extra/widgets/meter/../../../../src/core/lv_obj_style_gen.h **** {
 435:Middlewares/LVGL/GUI/lvgl/src/extra/widgets/meter/../../../../src/core/lv_obj_style_gen.h ****     lv_style_value_t v = lv_obj_get_style_prop(obj, part, LV_STYLE_TEXT_COLOR);
ARM GAS  C:\Users\ADMINI~1\AppData\Local\Temp\ccVbA5cL.s 			page 19


 436:Middlewares/LVGL/GUI/lvgl/src/extra/widgets/meter/../../../../src/core/lv_obj_style_gen.h ****     return v.color;
 437:Middlewares/LVGL/GUI/lvgl/src/extra/widgets/meter/../../../../src/core/lv_obj_style_gen.h **** }
 438:Middlewares/LVGL/GUI/lvgl/src/extra/widgets/meter/../../../../src/core/lv_obj_style_gen.h **** 
 439:Middlewares/LVGL/GUI/lvgl/src/extra/widgets/meter/../../../../src/core/lv_obj_style_gen.h **** static inline lv_color_t lv_obj_get_style_text_color_filtered(const struct _lv_obj_t * obj, uint32_
 440:Middlewares/LVGL/GUI/lvgl/src/extra/widgets/meter/../../../../src/core/lv_obj_style_gen.h **** {
 441:Middlewares/LVGL/GUI/lvgl/src/extra/widgets/meter/../../../../src/core/lv_obj_style_gen.h ****     lv_style_value_t v = lv_obj_get_style_prop(obj, part, LV_STYLE_TEXT_COLOR_FILTERED);
 442:Middlewares/LVGL/GUI/lvgl/src/extra/widgets/meter/../../../../src/core/lv_obj_style_gen.h ****     return v.color;
 443:Middlewares/LVGL/GUI/lvgl/src/extra/widgets/meter/../../../../src/core/lv_obj_style_gen.h **** }
 444:Middlewares/LVGL/GUI/lvgl/src/extra/widgets/meter/../../../../src/core/lv_obj_style_gen.h **** 
 445:Middlewares/LVGL/GUI/lvgl/src/extra/widgets/meter/../../../../src/core/lv_obj_style_gen.h **** static inline lv_opa_t lv_obj_get_style_text_opa(const struct _lv_obj_t * obj, uint32_t part)
 446:Middlewares/LVGL/GUI/lvgl/src/extra/widgets/meter/../../../../src/core/lv_obj_style_gen.h **** {
 447:Middlewares/LVGL/GUI/lvgl/src/extra/widgets/meter/../../../../src/core/lv_obj_style_gen.h ****     lv_style_value_t v = lv_obj_get_style_prop(obj, part, LV_STYLE_TEXT_OPA);
 448:Middlewares/LVGL/GUI/lvgl/src/extra/widgets/meter/../../../../src/core/lv_obj_style_gen.h ****     return (lv_opa_t)v.num;
 449:Middlewares/LVGL/GUI/lvgl/src/extra/widgets/meter/../../../../src/core/lv_obj_style_gen.h **** }
 450:Middlewares/LVGL/GUI/lvgl/src/extra/widgets/meter/../../../../src/core/lv_obj_style_gen.h **** 
 451:Middlewares/LVGL/GUI/lvgl/src/extra/widgets/meter/../../../../src/core/lv_obj_style_gen.h **** static inline const lv_font_t * lv_obj_get_style_text_font(const struct _lv_obj_t * obj, uint32_t p
 452:Middlewares/LVGL/GUI/lvgl/src/extra/widgets/meter/../../../../src/core/lv_obj_style_gen.h **** {
 453:Middlewares/LVGL/GUI/lvgl/src/extra/widgets/meter/../../../../src/core/lv_obj_style_gen.h ****     lv_style_value_t v = lv_obj_get_style_prop(obj, part, LV_STYLE_TEXT_FONT);
 454:Middlewares/LVGL/GUI/lvgl/src/extra/widgets/meter/../../../../src/core/lv_obj_style_gen.h ****     return (const lv_font_t *)v.ptr;
 455:Middlewares/LVGL/GUI/lvgl/src/extra/widgets/meter/../../../../src/core/lv_obj_style_gen.h **** }
 456:Middlewares/LVGL/GUI/lvgl/src/extra/widgets/meter/../../../../src/core/lv_obj_style_gen.h **** 
 457:Middlewares/LVGL/GUI/lvgl/src/extra/widgets/meter/../../../../src/core/lv_obj_style_gen.h **** static inline lv_coord_t lv_obj_get_style_text_letter_space(const struct _lv_obj_t * obj, uint32_t 
 458:Middlewares/LVGL/GUI/lvgl/src/extra/widgets/meter/../../../../src/core/lv_obj_style_gen.h **** {
 459:Middlewares/LVGL/GUI/lvgl/src/extra/widgets/meter/../../../../src/core/lv_obj_style_gen.h ****     lv_style_value_t v = lv_obj_get_style_prop(obj, part, LV_STYLE_TEXT_LETTER_SPACE);
 460:Middlewares/LVGL/GUI/lvgl/src/extra/widgets/meter/../../../../src/core/lv_obj_style_gen.h ****     return (lv_coord_t)v.num;
 461:Middlewares/LVGL/GUI/lvgl/src/extra/widgets/meter/../../../../src/core/lv_obj_style_gen.h **** }
 462:Middlewares/LVGL/GUI/lvgl/src/extra/widgets/meter/../../../../src/core/lv_obj_style_gen.h **** 
 463:Middlewares/LVGL/GUI/lvgl/src/extra/widgets/meter/../../../../src/core/lv_obj_style_gen.h **** static inline lv_coord_t lv_obj_get_style_text_line_space(const struct _lv_obj_t * obj, uint32_t pa
 464:Middlewares/LVGL/GUI/lvgl/src/extra/widgets/meter/../../../../src/core/lv_obj_style_gen.h **** {
 465:Middlewares/LVGL/GUI/lvgl/src/extra/widgets/meter/../../../../src/core/lv_obj_style_gen.h ****     lv_style_value_t v = lv_obj_get_style_prop(obj, part, LV_STYLE_TEXT_LINE_SPACE);
 466:Middlewares/LVGL/GUI/lvgl/src/extra/widgets/meter/../../../../src/core/lv_obj_style_gen.h ****     return (lv_coord_t)v.num;
 467:Middlewares/LVGL/GUI/lvgl/src/extra/widgets/meter/../../../../src/core/lv_obj_style_gen.h **** }
 468:Middlewares/LVGL/GUI/lvgl/src/extra/widgets/meter/../../../../src/core/lv_obj_style_gen.h **** 
 469:Middlewares/LVGL/GUI/lvgl/src/extra/widgets/meter/../../../../src/core/lv_obj_style_gen.h **** static inline lv_text_decor_t lv_obj_get_style_text_decor(const struct _lv_obj_t * obj, uint32_t pa
 470:Middlewares/LVGL/GUI/lvgl/src/extra/widgets/meter/../../../../src/core/lv_obj_style_gen.h **** {
 471:Middlewares/LVGL/GUI/lvgl/src/extra/widgets/meter/../../../../src/core/lv_obj_style_gen.h ****     lv_style_value_t v = lv_obj_get_style_prop(obj, part, LV_STYLE_TEXT_DECOR);
 472:Middlewares/LVGL/GUI/lvgl/src/extra/widgets/meter/../../../../src/core/lv_obj_style_gen.h ****     return (lv_text_decor_t)v.num;
 473:Middlewares/LVGL/GUI/lvgl/src/extra/widgets/meter/../../../../src/core/lv_obj_style_gen.h **** }
 474:Middlewares/LVGL/GUI/lvgl/src/extra/widgets/meter/../../../../src/core/lv_obj_style_gen.h **** 
 475:Middlewares/LVGL/GUI/lvgl/src/extra/widgets/meter/../../../../src/core/lv_obj_style_gen.h **** static inline lv_text_align_t lv_obj_get_style_text_align(const struct _lv_obj_t * obj, uint32_t pa
 476:Middlewares/LVGL/GUI/lvgl/src/extra/widgets/meter/../../../../src/core/lv_obj_style_gen.h **** {
 477:Middlewares/LVGL/GUI/lvgl/src/extra/widgets/meter/../../../../src/core/lv_obj_style_gen.h ****     lv_style_value_t v = lv_obj_get_style_prop(obj, part, LV_STYLE_TEXT_ALIGN);
 478:Middlewares/LVGL/GUI/lvgl/src/extra/widgets/meter/../../../../src/core/lv_obj_style_gen.h ****     return (lv_text_align_t)v.num;
 479:Middlewares/LVGL/GUI/lvgl/src/extra/widgets/meter/../../../../src/core/lv_obj_style_gen.h **** }
 480:Middlewares/LVGL/GUI/lvgl/src/extra/widgets/meter/../../../../src/core/lv_obj_style_gen.h **** 
 481:Middlewares/LVGL/GUI/lvgl/src/extra/widgets/meter/../../../../src/core/lv_obj_style_gen.h **** static inline lv_coord_t lv_obj_get_style_radius(const struct _lv_obj_t * obj, uint32_t part)
 482:Middlewares/LVGL/GUI/lvgl/src/extra/widgets/meter/../../../../src/core/lv_obj_style_gen.h **** {
 483:Middlewares/LVGL/GUI/lvgl/src/extra/widgets/meter/../../../../src/core/lv_obj_style_gen.h ****     lv_style_value_t v = lv_obj_get_style_prop(obj, part, LV_STYLE_RADIUS);
 484:Middlewares/LVGL/GUI/lvgl/src/extra/widgets/meter/../../../../src/core/lv_obj_style_gen.h ****     return (lv_coord_t)v.num;
 485:Middlewares/LVGL/GUI/lvgl/src/extra/widgets/meter/../../../../src/core/lv_obj_style_gen.h **** }
 486:Middlewares/LVGL/GUI/lvgl/src/extra/widgets/meter/../../../../src/core/lv_obj_style_gen.h **** 
 487:Middlewares/LVGL/GUI/lvgl/src/extra/widgets/meter/../../../../src/core/lv_obj_style_gen.h **** static inline bool lv_obj_get_style_clip_corner(const struct _lv_obj_t * obj, uint32_t part)
 488:Middlewares/LVGL/GUI/lvgl/src/extra/widgets/meter/../../../../src/core/lv_obj_style_gen.h **** {
 489:Middlewares/LVGL/GUI/lvgl/src/extra/widgets/meter/../../../../src/core/lv_obj_style_gen.h ****     lv_style_value_t v = lv_obj_get_style_prop(obj, part, LV_STYLE_CLIP_CORNER);
 490:Middlewares/LVGL/GUI/lvgl/src/extra/widgets/meter/../../../../src/core/lv_obj_style_gen.h ****     return (bool)v.num;
 491:Middlewares/LVGL/GUI/lvgl/src/extra/widgets/meter/../../../../src/core/lv_obj_style_gen.h **** }
 492:Middlewares/LVGL/GUI/lvgl/src/extra/widgets/meter/../../../../src/core/lv_obj_style_gen.h **** 
ARM GAS  C:\Users\ADMINI~1\AppData\Local\Temp\ccVbA5cL.s 			page 20


 493:Middlewares/LVGL/GUI/lvgl/src/extra/widgets/meter/../../../../src/core/lv_obj_style_gen.h **** static inline lv_opa_t lv_obj_get_style_opa(const struct _lv_obj_t * obj, uint32_t part)
 129              		.loc 2 493 24 view .LVU32
 130              	.LBB56:
 494:Middlewares/LVGL/GUI/lvgl/src/extra/widgets/meter/../../../../src/core/lv_obj_style_gen.h **** {
 495:Middlewares/LVGL/GUI/lvgl/src/extra/widgets/meter/../../../../src/core/lv_obj_style_gen.h ****     lv_style_value_t v = lv_obj_get_style_prop(obj, part, LV_STYLE_OPA);
 131              		.loc 2 495 5 view .LVU33
 132              		.loc 2 495 26 is_stmt 0 view .LVU34
 133 0050 40F26242 		movw	r2, #1122
 134 0054 0021     		movs	r1, #0
 135 0056 3846     		mov	r0, r7
 136 0058 FFF7FEFF 		bl	lv_obj_get_style_prop
 137              	.LVL10:
 138 005c 0290     		str	r0, [sp, #8]
 496:Middlewares/LVGL/GUI/lvgl/src/extra/widgets/meter/../../../../src/core/lv_obj_style_gen.h ****     return (lv_opa_t)v.num;
 139              		.loc 2 496 5 is_stmt 1 view .LVU35
 140              		.loc 2 496 12 is_stmt 0 view .LVU36
 141 005e C3B2     		uxtb	r3, r0
 142 0060 0393     		str	r3, [sp, #12]
 143              	.LVL11:
 144              		.loc 2 496 12 view .LVU37
 145              	.LBE56:
 146              	.LBE55:
 340:Middlewares/LVGL/GUI/lvgl/src/extra/widgets/meter/lv_meter.c ****     lv_meter_indicator_t * indic;
 147              		.loc 1 340 5 is_stmt 1 view .LVU38
 341:Middlewares/LVGL/GUI/lvgl/src/extra/widgets/meter/lv_meter.c **** 
 342:Middlewares/LVGL/GUI/lvgl/src/extra/widgets/meter/lv_meter.c ****     lv_obj_draw_part_dsc_t part_draw_dsc;
 148              		.loc 1 342 5 view .LVU39
 343:Middlewares/LVGL/GUI/lvgl/src/extra/widgets/meter/lv_meter.c ****     lv_obj_draw_dsc_init(&part_draw_dsc, draw_ctx);
 149              		.loc 1 343 5 view .LVU40
 150 0062 5146     		mov	r1, r10
 151 0064 05A8     		add	r0, sp, #20
 152 0066 FFF7FEFF 		bl	lv_obj_draw_dsc_init
 153              	.LVL12:
 344:Middlewares/LVGL/GUI/lvgl/src/extra/widgets/meter/lv_meter.c ****     part_draw_dsc.arc_dsc = &arc_dsc;
 154              		.loc 1 344 5 view .LVU41
 155              		.loc 1 344 27 is_stmt 0 view .LVU42
 156 006a 0D94     		str	r4, [sp, #52]
 345:Middlewares/LVGL/GUI/lvgl/src/extra/widgets/meter/lv_meter.c ****     part_draw_dsc.part = LV_PART_INDICATOR;
 157              		.loc 1 345 5 is_stmt 1 view .LVU43
 158              		.loc 1 345 24 is_stmt 0 view .LVU44
 159 006c 4FF40033 		mov	r3, #131072
 160 0070 1293     		str	r3, [sp, #72]
 346:Middlewares/LVGL/GUI/lvgl/src/extra/widgets/meter/lv_meter.c ****     part_draw_dsc.class_p = MY_CLASS;
 161              		.loc 1 346 5 is_stmt 1 view .LVU45
 162              		.loc 1 346 27 is_stmt 0 view .LVU46
 163 0072 2F4B     		ldr	r3, .L9
 164 0074 0693     		str	r3, [sp, #24]
 347:Middlewares/LVGL/GUI/lvgl/src/extra/widgets/meter/lv_meter.c ****     part_draw_dsc.type = LV_METER_DRAW_PART_ARC;
 165              		.loc 1 347 5 is_stmt 1 view .LVU47
 166              		.loc 1 347 24 is_stmt 0 view .LVU48
 167 0076 0023     		movs	r3, #0
 168 0078 0793     		str	r3, [sp, #28]
 348:Middlewares/LVGL/GUI/lvgl/src/extra/widgets/meter/lv_meter.c **** 
 349:Middlewares/LVGL/GUI/lvgl/src/extra/widgets/meter/lv_meter.c ****     _LV_LL_READ_BACK(&meter->indicator_ll, indic) {
 169              		.loc 1 349 5 is_stmt 1 view .LVU49
 170 007a 07F13809 		add	r9, r7, #56
 171 007e 4846     		mov	r0, r9
ARM GAS  C:\Users\ADMINI~1\AppData\Local\Temp\ccVbA5cL.s 			page 21


 172 0080 FFF7FEFF 		bl	_lv_ll_get_tail
 173              	.LVL13:
 174 0084 0446     		mov	r4, r0
 175              	.LVL14:
 176              		.loc 1 349 5 is_stmt 0 view .LVU50
 177 0086 3EE0     		b	.L2
 178              	.LVL15:
 179              	.L6:
 180              	.LBB57:
 350:Middlewares/LVGL/GUI/lvgl/src/extra/widgets/meter/lv_meter.c ****         if(indic->type != LV_METER_INDICATOR_TYPE_ARC) continue;
 351:Middlewares/LVGL/GUI/lvgl/src/extra/widgets/meter/lv_meter.c **** 
 352:Middlewares/LVGL/GUI/lvgl/src/extra/widgets/meter/lv_meter.c ****         arc_dsc.color = indic->type_data.arc.color;
 353:Middlewares/LVGL/GUI/lvgl/src/extra/widgets/meter/lv_meter.c ****         arc_dsc.width = indic->type_data.arc.width;
 354:Middlewares/LVGL/GUI/lvgl/src/extra/widgets/meter/lv_meter.c ****         arc_dsc.opa = indic->opa > LV_OPA_MAX ? opa_main : (opa_main * indic->opa) >> 8;
 181              		.loc 1 354 21 view .LVU51
 182 0088 039B     		ldr	r3, [sp, #12]
 183              	.L4:
 184              		.loc 1 354 21 discriminator 4 view .LVU52
 185 008a 8DF87430 		strb	r3, [sp, #116]
 355:Middlewares/LVGL/GUI/lvgl/src/extra/widgets/meter/lv_meter.c **** 
 356:Middlewares/LVGL/GUI/lvgl/src/extra/widgets/meter/lv_meter.c ****         lv_meter_scale_t * scale = indic->scale;
 186              		.loc 1 356 9 is_stmt 1 discriminator 4 view .LVU53
 187              		.loc 1 356 28 is_stmt 0 discriminator 4 view .LVU54
 188 008e 2568     		ldr	r5, [r4]
 189              	.LVL16:
 357:Middlewares/LVGL/GUI/lvgl/src/extra/widgets/meter/lv_meter.c **** 
 358:Middlewares/LVGL/GUI/lvgl/src/extra/widgets/meter/lv_meter.c ****         int32_t start_angle = lv_map(indic->start_value, scale->min, scale->max, scale->rotation,
 190              		.loc 1 358 9 is_stmt 1 discriminator 4 view .LVU55
 191              		.loc 1 358 87 is_stmt 0 discriminator 4 view .LVU56
 192 0090 B5F92030 		ldrsh	r3, [r5, #32]
 359:Middlewares/LVGL/GUI/lvgl/src/extra/widgets/meter/lv_meter.c ****                                      scale->rotation + scale->angle_range);
 193              		.loc 1 359 61 discriminator 4 view .LVU57
 194 0094 EE8B     		ldrh	r6, [r5, #30]
 195              		.loc 1 359 54 discriminator 4 view .LVU58
 196 0096 1E44     		add	r6, r6, r3
 358:Middlewares/LVGL/GUI/lvgl/src/extra/widgets/meter/lv_meter.c ****                                      scale->rotation + scale->angle_range);
 197              		.loc 1 358 31 discriminator 4 view .LVU59
 198 0098 AA69     		ldr	r2, [r5, #24]
 199 009a 6969     		ldr	r1, [r5, #20]
 200 009c A068     		ldr	r0, [r4, #8]
 201              	.LVL17:
 358:Middlewares/LVGL/GUI/lvgl/src/extra/widgets/meter/lv_meter.c ****                                      scale->rotation + scale->angle_range);
 202              		.loc 1 358 31 discriminator 4 view .LVU60
 203 009e 0096     		str	r6, [sp]
 204 00a0 FFF7FEFF 		bl	lv_map
 205              	.LVL18:
 206 00a4 0646     		mov	r6, r0
 207              	.LVL19:
 360:Middlewares/LVGL/GUI/lvgl/src/extra/widgets/meter/lv_meter.c ****         int32_t end_angle = lv_map(indic->end_value, scale->min, scale->max, scale->rotation,
 208              		.loc 1 360 9 is_stmt 1 discriminator 4 view .LVU61
 209              		.loc 1 360 83 is_stmt 0 discriminator 4 view .LVU62
 210 00a6 B5F92030 		ldrsh	r3, [r5, #32]
 361:Middlewares/LVGL/GUI/lvgl/src/extra/widgets/meter/lv_meter.c ****                                    scale->rotation + scale->angle_range);
 211              		.loc 1 361 59 discriminator 4 view .LVU63
 212 00aa B5F81EC0 		ldrh	ip, [r5, #30]
 213              		.loc 1 361 52 discriminator 4 view .LVU64
 214 00ae 9C44     		add	ip, ip, r3
ARM GAS  C:\Users\ADMINI~1\AppData\Local\Temp\ccVbA5cL.s 			page 22


 360:Middlewares/LVGL/GUI/lvgl/src/extra/widgets/meter/lv_meter.c ****         int32_t end_angle = lv_map(indic->end_value, scale->min, scale->max, scale->rotation,
 215              		.loc 1 360 29 discriminator 4 view .LVU65
 216 00b0 AA69     		ldr	r2, [r5, #24]
 217 00b2 6969     		ldr	r1, [r5, #20]
 218 00b4 E068     		ldr	r0, [r4, #12]
 219              	.LVL20:
 360:Middlewares/LVGL/GUI/lvgl/src/extra/widgets/meter/lv_meter.c ****         int32_t end_angle = lv_map(indic->end_value, scale->min, scale->max, scale->rotation,
 220              		.loc 1 360 29 discriminator 4 view .LVU66
 221 00b6 CDF800C0 		str	ip, [sp]
 222 00ba FFF7FEFF 		bl	lv_map
 223              	.LVL21:
 224 00be 0546     		mov	r5, r0
 225              	.LVL22:
 362:Middlewares/LVGL/GUI/lvgl/src/extra/widgets/meter/lv_meter.c **** 
 363:Middlewares/LVGL/GUI/lvgl/src/extra/widgets/meter/lv_meter.c ****         part_draw_dsc.radius = r_out + indic->type_data.arc.r_mod;
 226              		.loc 1 363 9 is_stmt 1 discriminator 4 view .LVU67
 227              		.loc 1 363 60 is_stmt 0 discriminator 4 view .LVU68
 228 00c0 B4F91A30 		ldrsh	r3, [r4, #26]
 229              		.loc 1 363 38 discriminator 4 view .LVU69
 230 00c4 5B44     		add	r3, r3, fp
 231              		.loc 1 363 30 discriminator 4 view .LVU70
 232 00c6 1493     		str	r3, [sp, #80]
 364:Middlewares/LVGL/GUI/lvgl/src/extra/widgets/meter/lv_meter.c ****         part_draw_dsc.sub_part_ptr = indic;
 233              		.loc 1 364 9 is_stmt 1 discriminator 4 view .LVU71
 234              		.loc 1 364 36 is_stmt 0 discriminator 4 view .LVU72
 235 00c8 1694     		str	r4, [sp, #88]
 365:Middlewares/LVGL/GUI/lvgl/src/extra/widgets/meter/lv_meter.c ****         part_draw_dsc.p1 = &scale_center;
 236              		.loc 1 365 9 is_stmt 1 discriminator 4 view .LVU73
 237              		.loc 1 365 26 is_stmt 0 discriminator 4 view .LVU74
 238 00ca 0DF15C08 		add	r8, sp, #92
 239 00ce CDF83880 		str	r8, [sp, #56]
 366:Middlewares/LVGL/GUI/lvgl/src/extra/widgets/meter/lv_meter.c **** 
 367:Middlewares/LVGL/GUI/lvgl/src/extra/widgets/meter/lv_meter.c ****         lv_event_send(obj, LV_EVENT_DRAW_PART_BEGIN, &part_draw_dsc);
 240              		.loc 1 367 9 is_stmt 1 discriminator 4 view .LVU75
 241 00d2 05AA     		add	r2, sp, #20
 242 00d4 1A21     		movs	r1, #26
 243 00d6 3846     		mov	r0, r7
 244              	.LVL23:
 245              		.loc 1 367 9 is_stmt 0 discriminator 4 view .LVU76
 246 00d8 FFF7FEFF 		bl	lv_event_send
 247              	.LVL24:
 368:Middlewares/LVGL/GUI/lvgl/src/extra/widgets/meter/lv_meter.c ****         lv_draw_arc(draw_ctx, &arc_dsc, &scale_center, part_draw_dsc.radius, start_angle, end_angle
 248              		.loc 1 368 9 is_stmt 1 discriminator 4 view .LVU77
 249 00dc ADB2     		uxth	r5, r5
 250              	.LVL25:
 251              		.loc 1 368 9 is_stmt 0 discriminator 4 view .LVU78
 252 00de 0195     		str	r5, [sp, #4]
 253 00e0 B6B2     		uxth	r6, r6
 254              	.LVL26:
 255              		.loc 1 368 9 discriminator 4 view .LVU79
 256 00e2 0096     		str	r6, [sp]
 257 00e4 BDF85030 		ldrh	r3, [sp, #80]
 258 00e8 4246     		mov	r2, r8
 259 00ea 19A9     		add	r1, sp, #100
 260 00ec 5046     		mov	r0, r10
 261 00ee FFF7FEFF 		bl	lv_draw_arc
 262              	.LVL27:
ARM GAS  C:\Users\ADMINI~1\AppData\Local\Temp\ccVbA5cL.s 			page 23


 369:Middlewares/LVGL/GUI/lvgl/src/extra/widgets/meter/lv_meter.c ****         lv_event_send(obj, LV_EVENT_DRAW_PART_END, &part_draw_dsc);
 263              		.loc 1 369 9 is_stmt 1 discriminator 4 view .LVU80
 264 00f2 05AA     		add	r2, sp, #20
 265 00f4 1B21     		movs	r1, #27
 266 00f6 3846     		mov	r0, r7
 267 00f8 FFF7FEFF 		bl	lv_event_send
 268              	.LVL28:
 269              	.L3:
 270              		.loc 1 369 9 is_stmt 0 discriminator 4 view .LVU81
 271              	.LBE57:
 349:Middlewares/LVGL/GUI/lvgl/src/extra/widgets/meter/lv_meter.c ****         if(indic->type != LV_METER_INDICATOR_TYPE_ARC) continue;
 272              		.loc 1 349 5 is_stmt 1 discriminator 2 view .LVU82
 273 00fc 2146     		mov	r1, r4
 274 00fe 4846     		mov	r0, r9
 275 0100 FFF7FEFF 		bl	_lv_ll_get_prev
 276              	.LVL29:
 277 0104 0446     		mov	r4, r0
 278              	.LVL30:
 279              	.L2:
 349:Middlewares/LVGL/GUI/lvgl/src/extra/widgets/meter/lv_meter.c ****         if(indic->type != LV_METER_INDICATOR_TYPE_ARC) continue;
 280              		.loc 1 349 5 discriminator 1 view .LVU83
 281 0106 84B1     		cbz	r4, .L8
 282              	.LBB58:
 350:Middlewares/LVGL/GUI/lvgl/src/extra/widgets/meter/lv_meter.c **** 
 283              		.loc 1 350 9 view .LVU84
 350:Middlewares/LVGL/GUI/lvgl/src/extra/widgets/meter/lv_meter.c **** 
 284              		.loc 1 350 17 is_stmt 0 view .LVU85
 285 0108 2379     		ldrb	r3, [r4, #4]	@ zero_extendqisi2
 350:Middlewares/LVGL/GUI/lvgl/src/extra/widgets/meter/lv_meter.c **** 
 286              		.loc 1 350 11 view .LVU86
 287 010a 032B     		cmp	r3, #3
 288 010c F6D1     		bne	.L3
 352:Middlewares/LVGL/GUI/lvgl/src/extra/widgets/meter/lv_meter.c ****         arc_dsc.width = indic->type_data.arc.width;
 289              		.loc 1 352 9 is_stmt 1 view .LVU87
 352:Middlewares/LVGL/GUI/lvgl/src/extra/widgets/meter/lv_meter.c ****         arc_dsc.width = indic->type_data.arc.width;
 290              		.loc 1 352 23 is_stmt 0 view .LVU88
 291 010e 238B     		ldrh	r3, [r4, #24]
 292 0110 ADF86430 		strh	r3, [sp, #100]	@ movhi
 353:Middlewares/LVGL/GUI/lvgl/src/extra/widgets/meter/lv_meter.c ****         arc_dsc.opa = indic->opa > LV_OPA_MAX ? opa_main : (opa_main * indic->opa) >> 8;
 293              		.loc 1 353 9 is_stmt 1 view .LVU89
 353:Middlewares/LVGL/GUI/lvgl/src/extra/widgets/meter/lv_meter.c ****         arc_dsc.opa = indic->opa > LV_OPA_MAX ? opa_main : (opa_main * indic->opa) >> 8;
 294              		.loc 1 353 45 is_stmt 0 view .LVU90
 295 0114 238A     		ldrh	r3, [r4, #16]
 353:Middlewares/LVGL/GUI/lvgl/src/extra/widgets/meter/lv_meter.c ****         arc_dsc.opa = indic->opa > LV_OPA_MAX ? opa_main : (opa_main * indic->opa) >> 8;
 296              		.loc 1 353 23 view .LVU91
 297 0116 1A93     		str	r3, [sp, #104]
 354:Middlewares/LVGL/GUI/lvgl/src/extra/widgets/meter/lv_meter.c **** 
 298              		.loc 1 354 9 is_stmt 1 view .LVU92
 354:Middlewares/LVGL/GUI/lvgl/src/extra/widgets/meter/lv_meter.c **** 
 299              		.loc 1 354 28 is_stmt 0 view .LVU93
 300 0118 6279     		ldrb	r2, [r4, #5]	@ zero_extendqisi2
 354:Middlewares/LVGL/GUI/lvgl/src/extra/widgets/meter/lv_meter.c **** 
 301              		.loc 1 354 21 view .LVU94
 302 011a FD2A     		cmp	r2, #253
 303 011c B4D8     		bhi	.L6
 354:Middlewares/LVGL/GUI/lvgl/src/extra/widgets/meter/lv_meter.c **** 
 304              		.loc 1 354 70 discriminator 1 view .LVU95
ARM GAS  C:\Users\ADMINI~1\AppData\Local\Temp\ccVbA5cL.s 			page 24


 305 011e 9DF80830 		ldrb	r3, [sp, #8]	@ zero_extendqisi2
 306 0122 02FB03F3 		mul	r3, r2, r3
 354:Middlewares/LVGL/GUI/lvgl/src/extra/widgets/meter/lv_meter.c **** 
 307              		.loc 1 354 21 discriminator 1 view .LVU96
 308 0126 1B0A     		lsrs	r3, r3, #8
 309 0128 AFE7     		b	.L4
 310              	.L8:
 311              	.LBE58:
 370:Middlewares/LVGL/GUI/lvgl/src/extra/widgets/meter/lv_meter.c ****     }
 371:Middlewares/LVGL/GUI/lvgl/src/extra/widgets/meter/lv_meter.c **** }
 312              		.loc 1 371 1 view .LVU97
 313 012a 1FB0     		add	sp, sp, #124
 314              	.LCFI2:
 315              		.cfi_def_cfa_offset 36
 316              		@ sp needed
 317 012c BDE8F08F 		pop	{r4, r5, r6, r7, r8, r9, r10, fp, pc}
 318              	.LVL31:
 319              	.L10:
 320              		.loc 1 371 1 view .LVU98
 321              		.align	2
 322              	.L9:
 323 0130 00000000 		.word	.LANCHOR0
 324              		.cfi_endproc
 325              	.LFE211:
 327              		.section	.rodata.draw_ticks_and_labels.str1.4,"aMS",%progbits,1
 328              		.align	2
 329              	.LC0:
 330 0000 256C6400 		.ascii	"%ld\000"
 331              		.section	.text.draw_ticks_and_labels,"ax",%progbits
 332              		.align	1
 333              		.syntax unified
 334              		.thumb
 335              		.thumb_func
 337              	draw_ticks_and_labels:
 338              	.LVL32:
 339              	.LFB212:
 372:Middlewares/LVGL/GUI/lvgl/src/extra/widgets/meter/lv_meter.c **** 
 373:Middlewares/LVGL/GUI/lvgl/src/extra/widgets/meter/lv_meter.c **** static void draw_ticks_and_labels(lv_obj_t * obj, lv_draw_ctx_t * draw_ctx, const lv_area_t * scale
 374:Middlewares/LVGL/GUI/lvgl/src/extra/widgets/meter/lv_meter.c **** {
 340              		.loc 1 374 1 is_stmt 1 view -0
 341              		.cfi_startproc
 342              		@ args = 0, pretend = 0, frame = 456
 343              		@ frame_needed = 0, uses_anonymous_args = 0
 344              		.loc 1 374 1 is_stmt 0 view .LVU100
 345 0000 2DE9F04F 		push	{r4, r5, r6, r7, r8, r9, r10, fp, lr}
 346              	.LCFI3:
 347              		.cfi_def_cfa_offset 36
 348              		.cfi_offset 4, -36
 349              		.cfi_offset 5, -32
 350              		.cfi_offset 6, -28
 351              		.cfi_offset 7, -24
 352              		.cfi_offset 8, -20
 353              		.cfi_offset 9, -16
 354              		.cfi_offset 10, -12
 355              		.cfi_offset 11, -8
 356              		.cfi_offset 14, -4
 357 0004 F7B0     		sub	sp, sp, #476
ARM GAS  C:\Users\ADMINI~1\AppData\Local\Temp\ccVbA5cL.s 			page 25


 358              	.LCFI4:
 359              		.cfi_def_cfa_offset 512
 360 0006 0790     		str	r0, [sp, #28]
 361 0008 0C91     		str	r1, [sp, #48]
 362 000a 1146     		mov	r1, r2
 363              	.LVL33:
 375:Middlewares/LVGL/GUI/lvgl/src/extra/widgets/meter/lv_meter.c ****     lv_meter_t * meter    = (lv_meter_t *)obj;
 364              		.loc 1 375 5 is_stmt 1 view .LVU101
 376:Middlewares/LVGL/GUI/lvgl/src/extra/widgets/meter/lv_meter.c **** 
 377:Middlewares/LVGL/GUI/lvgl/src/extra/widgets/meter/lv_meter.c ****     lv_point_t p_center;
 365              		.loc 1 377 5 view .LVU102
 378:Middlewares/LVGL/GUI/lvgl/src/extra/widgets/meter/lv_meter.c ****     lv_coord_t r_edge = LV_MIN(lv_area_get_width(scale_area) / 2, lv_area_get_height(scale_area) / 
 366              		.loc 1 378 5 view .LVU103
 367              	.LBB73:
 368              	.LBI73:
 123:Middlewares/LVGL/GUI/lvgl/src/extra/widgets/meter/../../../../src/hal/../draw/../misc/../font/../misc/lv_area.h **** {
 369              		.loc 3 123 26 view .LVU104
 370              	.LBB74:
 371              		.loc 3 125 5 view .LVU105
 372              		.loc 3 125 31 is_stmt 0 view .LVU106
 373 000c 9368     		ldr	r3, [r2, #8]
 374              		.loc 3 125 44 view .LVU107
 375 000e 1068     		ldr	r0, [r2]
 376              	.LVL34:
 377              		.loc 3 125 36 view .LVU108
 378 0010 1B1A     		subs	r3, r3, r0
 379              		.loc 3 125 12 view .LVU109
 380 0012 0133     		adds	r3, r3, #1
 381              	.LVL35:
 382              		.loc 3 125 12 view .LVU110
 383              	.LBE74:
 384              	.LBE73:
 385              		.loc 1 378 25 view .LVU111
 386 0014 03EBD373 		add	r3, r3, r3, lsr #31
 387              	.LVL36:
 388              	.LBB75:
 389              	.LBI75:
 126:Middlewares/LVGL/GUI/lvgl/src/extra/widgets/meter/../../../../src/hal/../draw/../misc/../font/../misc/lv_area.h **** }
 127:Middlewares/LVGL/GUI/lvgl/src/extra/widgets/meter/../../../../src/hal/../draw/../misc/../font/../misc/lv_area.h **** 
 128:Middlewares/LVGL/GUI/lvgl/src/extra/widgets/meter/../../../../src/hal/../draw/../misc/../font/../misc/lv_area.h **** /**
 129:Middlewares/LVGL/GUI/lvgl/src/extra/widgets/meter/../../../../src/hal/../draw/../misc/../font/../misc/lv_area.h ****  * Get the height of an area
 130:Middlewares/LVGL/GUI/lvgl/src/extra/widgets/meter/../../../../src/hal/../draw/../misc/../font/../misc/lv_area.h ****  * @param area_p pointer to an area
 131:Middlewares/LVGL/GUI/lvgl/src/extra/widgets/meter/../../../../src/hal/../draw/../misc/../font/../misc/lv_area.h ****  * @return the height of the area (if y1 == y2 -> height = 1)
 132:Middlewares/LVGL/GUI/lvgl/src/extra/widgets/meter/../../../../src/hal/../draw/../misc/../font/../misc/lv_area.h ****  */
 133:Middlewares/LVGL/GUI/lvgl/src/extra/widgets/meter/../../../../src/hal/../draw/../misc/../font/../misc/lv_area.h **** static inline lv_coord_t lv_area_get_height(const lv_area_t * area_p)
 390              		.loc 3 133 26 is_stmt 1 view .LVU112
 391              	.LBB76:
 134:Middlewares/LVGL/GUI/lvgl/src/extra/widgets/meter/../../../../src/hal/../draw/../misc/../font/../misc/lv_area.h **** {
 135:Middlewares/LVGL/GUI/lvgl/src/extra/widgets/meter/../../../../src/hal/../draw/../misc/../font/../misc/lv_area.h ****     return (lv_coord_t)(area_p->y2 - area_p->y1 + 1);
 392              		.loc 3 135 5 view .LVU113
 393              		.loc 3 135 31 is_stmt 0 view .LVU114
 394 0018 D268     		ldr	r2, [r2, #12]
 395              	.LVL37:
 396              		.loc 3 135 44 view .LVU115
 397 001a 4968     		ldr	r1, [r1, #4]
 398              	.LVL38:
 399              		.loc 3 135 36 view .LVU116
ARM GAS  C:\Users\ADMINI~1\AppData\Local\Temp\ccVbA5cL.s 			page 26


 400 001c 521A     		subs	r2, r2, r1
 401              		.loc 3 135 12 view .LVU117
 402 001e 0132     		adds	r2, r2, #1
 403              	.LVL39:
 404              		.loc 3 135 12 view .LVU118
 405              	.LBE76:
 406              	.LBE75:
 407              		.loc 1 378 25 view .LVU119
 408 0020 02EBD272 		add	r2, r2, r2, lsr #31
 409 0024 5210     		asrs	r2, r2, #1
 410 0026 1092     		str	r2, [sp, #64]
 411 0028 B2EB630F 		cmp	r2, r3, asr #1
 412 002c 01DD     		ble	.L12
 413 002e 5C10     		asrs	r4, r3, #1
 414 0030 1094     		str	r4, [sp, #64]
 415              	.L12:
 416              	.LVL40:
 379:Middlewares/LVGL/GUI/lvgl/src/extra/widgets/meter/lv_meter.c ****     p_center.x = scale_area->x1 + r_edge;
 417              		.loc 1 379 5 is_stmt 1 discriminator 4 view .LVU120
 418              		.loc 1 379 33 is_stmt 0 discriminator 4 view .LVU121
 419 0032 109B     		ldr	r3, [sp, #64]
 420 0034 1844     		add	r0, r0, r3
 421              		.loc 1 379 16 discriminator 4 view .LVU122
 422 0036 7490     		str	r0, [sp, #464]
 380:Middlewares/LVGL/GUI/lvgl/src/extra/widgets/meter/lv_meter.c ****     p_center.y = scale_area->y1 + r_edge;
 423              		.loc 1 380 5 is_stmt 1 discriminator 4 view .LVU123
 424              		.loc 1 380 33 is_stmt 0 discriminator 4 view .LVU124
 425 0038 1944     		add	r1, r1, r3
 426              		.loc 1 380 16 discriminator 4 view .LVU125
 427 003a 7591     		str	r1, [sp, #468]
 381:Middlewares/LVGL/GUI/lvgl/src/extra/widgets/meter/lv_meter.c **** 
 382:Middlewares/LVGL/GUI/lvgl/src/extra/widgets/meter/lv_meter.c ****     uint8_t i;
 428              		.loc 1 382 5 is_stmt 1 discriminator 4 view .LVU126
 383:Middlewares/LVGL/GUI/lvgl/src/extra/widgets/meter/lv_meter.c **** 
 384:Middlewares/LVGL/GUI/lvgl/src/extra/widgets/meter/lv_meter.c ****     lv_draw_line_dsc_t line_dsc;
 429              		.loc 1 384 5 discriminator 4 view .LVU127
 385:Middlewares/LVGL/GUI/lvgl/src/extra/widgets/meter/lv_meter.c ****     lv_draw_line_dsc_init(&line_dsc);
 430              		.loc 1 385 5 discriminator 4 view .LVU128
 431 003c 6FAC     		add	r4, sp, #444
 432 003e 2046     		mov	r0, r4
 433 0040 FFF7FEFF 		bl	lv_draw_line_dsc_init
 434              	.LVL41:
 386:Middlewares/LVGL/GUI/lvgl/src/extra/widgets/meter/lv_meter.c ****     lv_obj_init_draw_line_dsc(obj, LV_PART_TICKS, &line_dsc);
 435              		.loc 1 386 5 discriminator 4 view .LVU129
 436 0044 2246     		mov	r2, r4
 437 0046 4FF4C021 		mov	r1, #393216
 438 004a 079D     		ldr	r5, [sp, #28]
 439 004c 2846     		mov	r0, r5
 440 004e FFF7FEFF 		bl	lv_obj_init_draw_line_dsc
 441              	.LVL42:
 387:Middlewares/LVGL/GUI/lvgl/src/extra/widgets/meter/lv_meter.c ****     line_dsc.raw_end = 1;
 442              		.loc 1 387 5 discriminator 4 view .LVU130
 443              		.loc 1 387 22 is_stmt 0 discriminator 4 view .LVU131
 444 0052 9DF8CD31 		ldrb	r3, [sp, #461]	@ zero_extendqisi2
 445 0056 43F01003 		orr	r3, r3, #16
 446 005a 8DF8CD31 		strb	r3, [sp, #461]
 388:Middlewares/LVGL/GUI/lvgl/src/extra/widgets/meter/lv_meter.c **** 
ARM GAS  C:\Users\ADMINI~1\AppData\Local\Temp\ccVbA5cL.s 			page 27


 389:Middlewares/LVGL/GUI/lvgl/src/extra/widgets/meter/lv_meter.c ****     lv_draw_label_dsc_t label_dsc;
 447              		.loc 1 389 5 is_stmt 1 discriminator 4 view .LVU132
 390:Middlewares/LVGL/GUI/lvgl/src/extra/widgets/meter/lv_meter.c ****     lv_draw_label_dsc_init(&label_dsc);
 448              		.loc 1 390 5 discriminator 4 view .LVU133
 449 005e 64A8     		add	r0, sp, #400
 450 0060 FFF7FEFF 		bl	lv_draw_label_dsc_init
 451              	.LVL43:
 391:Middlewares/LVGL/GUI/lvgl/src/extra/widgets/meter/lv_meter.c ****     lv_obj_init_draw_label_dsc(obj, LV_PART_TICKS, &label_dsc);
 452              		.loc 1 391 5 discriminator 4 view .LVU134
 453 0064 64AA     		add	r2, sp, #400
 454 0066 4FF4C021 		mov	r1, #393216
 455 006a 2846     		mov	r0, r5
 456 006c FFF7FEFF 		bl	lv_obj_init_draw_label_dsc
 457              	.LVL44:
 392:Middlewares/LVGL/GUI/lvgl/src/extra/widgets/meter/lv_meter.c **** 
 393:Middlewares/LVGL/GUI/lvgl/src/extra/widgets/meter/lv_meter.c ****     lv_meter_scale_t * scale;
 458              		.loc 1 393 5 discriminator 4 view .LVU135
 394:Middlewares/LVGL/GUI/lvgl/src/extra/widgets/meter/lv_meter.c **** 
 395:Middlewares/LVGL/GUI/lvgl/src/extra/widgets/meter/lv_meter.c ****     lv_draw_mask_radius_param_t inner_minor_mask;
 459              		.loc 1 395 5 discriminator 4 view .LVU136
 396:Middlewares/LVGL/GUI/lvgl/src/extra/widgets/meter/lv_meter.c ****     lv_draw_mask_radius_param_t inner_major_mask;
 460              		.loc 1 396 5 discriminator 4 view .LVU137
 397:Middlewares/LVGL/GUI/lvgl/src/extra/widgets/meter/lv_meter.c ****     lv_draw_mask_radius_param_t outer_mask;
 461              		.loc 1 397 5 discriminator 4 view .LVU138
 398:Middlewares/LVGL/GUI/lvgl/src/extra/widgets/meter/lv_meter.c **** 
 399:Middlewares/LVGL/GUI/lvgl/src/extra/widgets/meter/lv_meter.c ****     lv_obj_draw_part_dsc_t part_draw_dsc;
 462              		.loc 1 399 5 discriminator 4 view .LVU139
 400:Middlewares/LVGL/GUI/lvgl/src/extra/widgets/meter/lv_meter.c ****     lv_obj_draw_dsc_init(&part_draw_dsc, draw_ctx);
 463              		.loc 1 400 5 discriminator 4 view .LVU140
 464 0070 0C99     		ldr	r1, [sp, #48]
 465 0072 37A8     		add	r0, sp, #220
 466 0074 FFF7FEFF 		bl	lv_obj_draw_dsc_init
 467              	.LVL45:
 401:Middlewares/LVGL/GUI/lvgl/src/extra/widgets/meter/lv_meter.c ****     part_draw_dsc.class_p = MY_CLASS;
 468              		.loc 1 401 5 discriminator 4 view .LVU141
 469              		.loc 1 401 27 is_stmt 0 discriminator 4 view .LVU142
 470 0078 B84B     		ldr	r3, .L40
 471 007a 3893     		str	r3, [sp, #224]
 402:Middlewares/LVGL/GUI/lvgl/src/extra/widgets/meter/lv_meter.c ****     part_draw_dsc.part = LV_PART_TICKS;
 472              		.loc 1 402 5 is_stmt 1 discriminator 4 view .LVU143
 473              		.loc 1 402 24 is_stmt 0 discriminator 4 view .LVU144
 474 007c 4FF4C023 		mov	r3, #393216
 475 0080 4493     		str	r3, [sp, #272]
 403:Middlewares/LVGL/GUI/lvgl/src/extra/widgets/meter/lv_meter.c ****     part_draw_dsc.type = LV_METER_DRAW_PART_TICK;
 476              		.loc 1 403 5 is_stmt 1 discriminator 4 view .LVU145
 477              		.loc 1 403 24 is_stmt 0 discriminator 4 view .LVU146
 478 0082 0323     		movs	r3, #3
 479 0084 3993     		str	r3, [sp, #228]
 404:Middlewares/LVGL/GUI/lvgl/src/extra/widgets/meter/lv_meter.c ****     part_draw_dsc.line_dsc = &line_dsc;
 480              		.loc 1 404 5 is_stmt 1 discriminator 4 view .LVU147
 481              		.loc 1 404 28 is_stmt 0 discriminator 4 view .LVU148
 482 0086 3D94     		str	r4, [sp, #244]
 405:Middlewares/LVGL/GUI/lvgl/src/extra/widgets/meter/lv_meter.c **** 
 406:Middlewares/LVGL/GUI/lvgl/src/extra/widgets/meter/lv_meter.c ****     _LV_LL_READ_BACK(&meter->scale_ll, scale) {
 483              		.loc 1 406 5 is_stmt 1 discriminator 4 view .LVU149
 484 0088 2B46     		mov	r3, r5
 485 008a 2C33     		adds	r3, r3, #44
ARM GAS  C:\Users\ADMINI~1\AppData\Local\Temp\ccVbA5cL.s 			page 28


 486 008c 1193     		str	r3, [sp, #68]
 487 008e 1846     		mov	r0, r3
 488 0090 FFF7FEFF 		bl	_lv_ll_get_tail
 489              	.LVL46:
 490 0094 8346     		mov	fp, r0
 491              	.LVL47:
 492              		.loc 1 406 5 is_stmt 0 discriminator 4 view .LVU150
 493 0096 82E1     		b	.L13
 494              	.LVL48:
 495              	.L33:
 496              	.LBB77:
 497              	.LBB78:
 407:Middlewares/LVGL/GUI/lvgl/src/extra/widgets/meter/lv_meter.c ****         part_draw_dsc.sub_part_ptr = scale;
 408:Middlewares/LVGL/GUI/lvgl/src/extra/widgets/meter/lv_meter.c **** 
 409:Middlewares/LVGL/GUI/lvgl/src/extra/widgets/meter/lv_meter.c ****         lv_coord_t r_out = r_edge + scale->r_mod;
 410:Middlewares/LVGL/GUI/lvgl/src/extra/widgets/meter/lv_meter.c ****         lv_coord_t r_in_minor = r_out - scale->tick_length;
 411:Middlewares/LVGL/GUI/lvgl/src/extra/widgets/meter/lv_meter.c ****         lv_coord_t r_in_major = r_out - scale->tick_major_length;
 412:Middlewares/LVGL/GUI/lvgl/src/extra/widgets/meter/lv_meter.c **** 
 413:Middlewares/LVGL/GUI/lvgl/src/extra/widgets/meter/lv_meter.c ****         lv_area_t area_inner_minor;
 414:Middlewares/LVGL/GUI/lvgl/src/extra/widgets/meter/lv_meter.c ****         area_inner_minor.x1 = p_center.x - r_in_minor;
 415:Middlewares/LVGL/GUI/lvgl/src/extra/widgets/meter/lv_meter.c ****         area_inner_minor.y1 = p_center.y - r_in_minor;
 416:Middlewares/LVGL/GUI/lvgl/src/extra/widgets/meter/lv_meter.c ****         area_inner_minor.x2 = p_center.x + r_in_minor;
 417:Middlewares/LVGL/GUI/lvgl/src/extra/widgets/meter/lv_meter.c ****         area_inner_minor.y2 = p_center.y + r_in_minor;
 418:Middlewares/LVGL/GUI/lvgl/src/extra/widgets/meter/lv_meter.c ****         lv_draw_mask_radius_init(&inner_minor_mask, &area_inner_minor, LV_RADIUS_CIRCLE, true);
 419:Middlewares/LVGL/GUI/lvgl/src/extra/widgets/meter/lv_meter.c **** 
 420:Middlewares/LVGL/GUI/lvgl/src/extra/widgets/meter/lv_meter.c ****         lv_area_t area_inner_major;
 421:Middlewares/LVGL/GUI/lvgl/src/extra/widgets/meter/lv_meter.c ****         area_inner_major.x1 = p_center.x - r_in_major;
 422:Middlewares/LVGL/GUI/lvgl/src/extra/widgets/meter/lv_meter.c ****         area_inner_major.y1 = p_center.y - r_in_major;
 423:Middlewares/LVGL/GUI/lvgl/src/extra/widgets/meter/lv_meter.c ****         area_inner_major.x2 = p_center.x + r_in_major - 1;
 424:Middlewares/LVGL/GUI/lvgl/src/extra/widgets/meter/lv_meter.c ****         area_inner_major.y2 = p_center.y + r_in_major - 1;
 425:Middlewares/LVGL/GUI/lvgl/src/extra/widgets/meter/lv_meter.c ****         lv_draw_mask_radius_init(&inner_major_mask, &area_inner_major, LV_RADIUS_CIRCLE, true);
 426:Middlewares/LVGL/GUI/lvgl/src/extra/widgets/meter/lv_meter.c **** 
 427:Middlewares/LVGL/GUI/lvgl/src/extra/widgets/meter/lv_meter.c ****         lv_area_t area_outer;
 428:Middlewares/LVGL/GUI/lvgl/src/extra/widgets/meter/lv_meter.c ****         area_outer.x1 = p_center.x - r_out;
 429:Middlewares/LVGL/GUI/lvgl/src/extra/widgets/meter/lv_meter.c ****         area_outer.y1 = p_center.y - r_out;
 430:Middlewares/LVGL/GUI/lvgl/src/extra/widgets/meter/lv_meter.c ****         area_outer.x2 = p_center.x + r_out - 1;
 431:Middlewares/LVGL/GUI/lvgl/src/extra/widgets/meter/lv_meter.c ****         area_outer.y2 = p_center.y + r_out - 1;
 432:Middlewares/LVGL/GUI/lvgl/src/extra/widgets/meter/lv_meter.c ****         lv_draw_mask_radius_init(&outer_mask, &area_outer, LV_RADIUS_CIRCLE, false);
 433:Middlewares/LVGL/GUI/lvgl/src/extra/widgets/meter/lv_meter.c ****         int16_t outer_mask_id = lv_draw_mask_add(&outer_mask, NULL);
 434:Middlewares/LVGL/GUI/lvgl/src/extra/widgets/meter/lv_meter.c **** 
 435:Middlewares/LVGL/GUI/lvgl/src/extra/widgets/meter/lv_meter.c ****         int16_t inner_act_mask_id = LV_MASK_ID_INV; /*Will be added later*/
 436:Middlewares/LVGL/GUI/lvgl/src/extra/widgets/meter/lv_meter.c **** 
 437:Middlewares/LVGL/GUI/lvgl/src/extra/widgets/meter/lv_meter.c ****         uint32_t minor_cnt = scale->tick_major_nth ? scale->tick_major_nth - 1 : 0xFFFF;
 438:Middlewares/LVGL/GUI/lvgl/src/extra/widgets/meter/lv_meter.c ****         for(i = 0; i < scale->tick_cnt; i++) {
 439:Middlewares/LVGL/GUI/lvgl/src/extra/widgets/meter/lv_meter.c ****             minor_cnt++;
 440:Middlewares/LVGL/GUI/lvgl/src/extra/widgets/meter/lv_meter.c ****             bool major = false;
 441:Middlewares/LVGL/GUI/lvgl/src/extra/widgets/meter/lv_meter.c ****             if(minor_cnt == scale->tick_major_nth) {
 442:Middlewares/LVGL/GUI/lvgl/src/extra/widgets/meter/lv_meter.c ****                 minor_cnt = 0;
 443:Middlewares/LVGL/GUI/lvgl/src/extra/widgets/meter/lv_meter.c ****                 major = true;
 498              		.loc 1 443 23 view .LVU151
 499 0098 0123     		movs	r3, #1
 500 009a 0693     		str	r3, [sp, #24]
 442:Middlewares/LVGL/GUI/lvgl/src/extra/widgets/meter/lv_meter.c ****                 major = true;
 501              		.loc 1 442 27 view .LVU152
 502 009c 0023     		movs	r3, #0
 503 009e 0993     		str	r3, [sp, #36]
 504 00a0 2CE1     		b	.L15
ARM GAS  C:\Users\ADMINI~1\AppData\Local\Temp\ccVbA5cL.s 			page 29


 505              	.LVL49:
 506              	.L16:
 444:Middlewares/LVGL/GUI/lvgl/src/extra/widgets/meter/lv_meter.c ****             }
 445:Middlewares/LVGL/GUI/lvgl/src/extra/widgets/meter/lv_meter.c **** 
 446:Middlewares/LVGL/GUI/lvgl/src/extra/widgets/meter/lv_meter.c ****             int32_t value_of_line = lv_map(i, 0, scale->tick_cnt - 1, scale->min, scale->max);
 447:Middlewares/LVGL/GUI/lvgl/src/extra/widgets/meter/lv_meter.c ****             part_draw_dsc.value = value_of_line;
 448:Middlewares/LVGL/GUI/lvgl/src/extra/widgets/meter/lv_meter.c **** 
 449:Middlewares/LVGL/GUI/lvgl/src/extra/widgets/meter/lv_meter.c ****             lv_color_t line_color = major ? scale->tick_major_color : scale->tick_color;
 507              		.loc 1 449 24 discriminator 2 view .LVU153
 508 00a2 BBF80050 		ldrh	r5, [fp]
 509              	.LVL50:
 510              		.loc 1 449 24 discriminator 2 view .LVU154
 511 00a6 3CE1     		b	.L17
 512              	.LVL51:
 513              	.L18:
 450:Middlewares/LVGL/GUI/lvgl/src/extra/widgets/meter/lv_meter.c ****             lv_color_t line_color_ori = line_color;
 451:Middlewares/LVGL/GUI/lvgl/src/extra/widgets/meter/lv_meter.c **** 
 452:Middlewares/LVGL/GUI/lvgl/src/extra/widgets/meter/lv_meter.c ****             lv_coord_t line_width_ori = major ? scale->tick_major_width : scale->tick_width;
 514              		.loc 1 452 80 discriminator 2 view .LVU155
 515 00a8 BBF80630 		ldrh	r3, [fp, #6]
 516 00ac 0893     		str	r3, [sp, #32]
 517 00ae 41E1     		b	.L19
 518              	.LVL52:
 519              	.L37:
 453:Middlewares/LVGL/GUI/lvgl/src/extra/widgets/meter/lv_meter.c ****             lv_coord_t line_width = line_width_ori;
 454:Middlewares/LVGL/GUI/lvgl/src/extra/widgets/meter/lv_meter.c **** 
 455:Middlewares/LVGL/GUI/lvgl/src/extra/widgets/meter/lv_meter.c ****             lv_meter_indicator_t * indic;
 456:Middlewares/LVGL/GUI/lvgl/src/extra/widgets/meter/lv_meter.c ****             _LV_LL_READ_BACK(&meter->indicator_ll, indic) {
 457:Middlewares/LVGL/GUI/lvgl/src/extra/widgets/meter/lv_meter.c ****                 if(indic->type != LV_METER_INDICATOR_TYPE_SCALE_LINES) continue;
 458:Middlewares/LVGL/GUI/lvgl/src/extra/widgets/meter/lv_meter.c ****                 if(value_of_line >= indic->start_value && value_of_line <= indic->end_value) {
 459:Middlewares/LVGL/GUI/lvgl/src/extra/widgets/meter/lv_meter.c ****                     line_width += indic->type_data.scale_lines.width_mod;
 460:Middlewares/LVGL/GUI/lvgl/src/extra/widgets/meter/lv_meter.c **** 
 461:Middlewares/LVGL/GUI/lvgl/src/extra/widgets/meter/lv_meter.c ****                     if(indic->type_data.scale_lines.color_start.full == indic->type_data.scale_line
 462:Middlewares/LVGL/GUI/lvgl/src/extra/widgets/meter/lv_meter.c ****                         line_color = indic->type_data.scale_lines.color_start;
 520              		.loc 1 462 25 is_stmt 1 view .LVU156
 521              		.loc 1 462 36 is_stmt 0 view .LVU157
 522 00b0 658A     		ldrh	r5, [r4, #18]
 523              	.LVL53:
 524              		.loc 1 462 36 view .LVU158
 525 00b2 1EE0     		b	.L21
 526              	.LVL54:
 527              	.L23:
 528              	.LBB79:
 463:Middlewares/LVGL/GUI/lvgl/src/extra/widgets/meter/lv_meter.c ****                     }
 464:Middlewares/LVGL/GUI/lvgl/src/extra/widgets/meter/lv_meter.c ****                     else {
 465:Middlewares/LVGL/GUI/lvgl/src/extra/widgets/meter/lv_meter.c ****                         lv_opa_t ratio;
 466:Middlewares/LVGL/GUI/lvgl/src/extra/widgets/meter/lv_meter.c ****                         if(indic->type_data.scale_lines.local_grad) {
 467:Middlewares/LVGL/GUI/lvgl/src/extra/widgets/meter/lv_meter.c ****                             ratio = lv_map(value_of_line, indic->start_value, indic->end_value, LV_
 468:Middlewares/LVGL/GUI/lvgl/src/extra/widgets/meter/lv_meter.c ****                         }
 469:Middlewares/LVGL/GUI/lvgl/src/extra/widgets/meter/lv_meter.c ****                         else {
 470:Middlewares/LVGL/GUI/lvgl/src/extra/widgets/meter/lv_meter.c ****                             ratio = lv_map(value_of_line, scale->min, scale->max, LV_OPA_TRANSP, LV
 529              		.loc 1 470 29 is_stmt 1 view .LVU159
 530              		.loc 1 470 37 is_stmt 0 view .LVU160
 531 00b4 DBF81820 		ldr	r2, [fp, #24]
 532 00b8 DBF81410 		ldr	r1, [fp, #20]
 533 00bc FF23     		movs	r3, #255
 534 00be 0093     		str	r3, [sp]
ARM GAS  C:\Users\ADMINI~1\AppData\Local\Temp\ccVbA5cL.s 			page 30


 535 00c0 0023     		movs	r3, #0
 536 00c2 3846     		mov	r0, r7
 537 00c4 FFF7FEFF 		bl	lv_map
 538              	.LVL55:
 539              		.loc 1 470 35 view .LVU161
 540 00c8 C5B2     		uxtb	r5, r0
 541              	.LVL56:
 542              	.L24:
 471:Middlewares/LVGL/GUI/lvgl/src/extra/widgets/meter/lv_meter.c ****                         }
 472:Middlewares/LVGL/GUI/lvgl/src/extra/widgets/meter/lv_meter.c ****                         line_color = lv_color_mix(indic->type_data.scale_lines.color_end, indic->ty
 543              		.loc 1 472 25 is_stmt 1 view .LVU162
 544              	.LBB80:
 545              	.LBI80:
 546              		.file 4 "Middlewares/LVGL/GUI/lvgl/src/extra/widgets/meter/../../../../src/hal/../draw/../misc/lv_
   1:Middlewares/LVGL/GUI/lvgl/src/extra/widgets/meter/../../../../src/hal/../draw/../misc/lv_color.h **** /**
   2:Middlewares/LVGL/GUI/lvgl/src/extra/widgets/meter/../../../../src/hal/../draw/../misc/lv_color.h ****  * @file lv_color.h
   3:Middlewares/LVGL/GUI/lvgl/src/extra/widgets/meter/../../../../src/hal/../draw/../misc/lv_color.h ****  *
   4:Middlewares/LVGL/GUI/lvgl/src/extra/widgets/meter/../../../../src/hal/../draw/../misc/lv_color.h ****  */
   5:Middlewares/LVGL/GUI/lvgl/src/extra/widgets/meter/../../../../src/hal/../draw/../misc/lv_color.h **** 
   6:Middlewares/LVGL/GUI/lvgl/src/extra/widgets/meter/../../../../src/hal/../draw/../misc/lv_color.h **** #ifndef LV_COLOR_H
   7:Middlewares/LVGL/GUI/lvgl/src/extra/widgets/meter/../../../../src/hal/../draw/../misc/lv_color.h **** #define LV_COLOR_H
   8:Middlewares/LVGL/GUI/lvgl/src/extra/widgets/meter/../../../../src/hal/../draw/../misc/lv_color.h **** 
   9:Middlewares/LVGL/GUI/lvgl/src/extra/widgets/meter/../../../../src/hal/../draw/../misc/lv_color.h **** #ifdef __cplusplus
  10:Middlewares/LVGL/GUI/lvgl/src/extra/widgets/meter/../../../../src/hal/../draw/../misc/lv_color.h **** extern "C" {
  11:Middlewares/LVGL/GUI/lvgl/src/extra/widgets/meter/../../../../src/hal/../draw/../misc/lv_color.h **** #endif
  12:Middlewares/LVGL/GUI/lvgl/src/extra/widgets/meter/../../../../src/hal/../draw/../misc/lv_color.h **** 
  13:Middlewares/LVGL/GUI/lvgl/src/extra/widgets/meter/../../../../src/hal/../draw/../misc/lv_color.h **** /*********************
  14:Middlewares/LVGL/GUI/lvgl/src/extra/widgets/meter/../../../../src/hal/../draw/../misc/lv_color.h ****  *      INCLUDES
  15:Middlewares/LVGL/GUI/lvgl/src/extra/widgets/meter/../../../../src/hal/../draw/../misc/lv_color.h ****  *********************/
  16:Middlewares/LVGL/GUI/lvgl/src/extra/widgets/meter/../../../../src/hal/../draw/../misc/lv_color.h **** #include "../lv_conf_internal.h"
  17:Middlewares/LVGL/GUI/lvgl/src/extra/widgets/meter/../../../../src/hal/../draw/../misc/lv_color.h **** #include "lv_assert.h"
  18:Middlewares/LVGL/GUI/lvgl/src/extra/widgets/meter/../../../../src/hal/../draw/../misc/lv_color.h **** #include "lv_math.h"
  19:Middlewares/LVGL/GUI/lvgl/src/extra/widgets/meter/../../../../src/hal/../draw/../misc/lv_color.h **** #include "lv_types.h"
  20:Middlewares/LVGL/GUI/lvgl/src/extra/widgets/meter/../../../../src/hal/../draw/../misc/lv_color.h **** 
  21:Middlewares/LVGL/GUI/lvgl/src/extra/widgets/meter/../../../../src/hal/../draw/../misc/lv_color.h **** /*Error checking*/
  22:Middlewares/LVGL/GUI/lvgl/src/extra/widgets/meter/../../../../src/hal/../draw/../misc/lv_color.h **** #if LV_COLOR_DEPTH == 24
  23:Middlewares/LVGL/GUI/lvgl/src/extra/widgets/meter/../../../../src/hal/../draw/../misc/lv_color.h **** #error "LV_COLOR_DEPTH 24 is deprecated. Use LV_COLOR_DEPTH 32 instead (lv_conf.h)"
  24:Middlewares/LVGL/GUI/lvgl/src/extra/widgets/meter/../../../../src/hal/../draw/../misc/lv_color.h **** #endif
  25:Middlewares/LVGL/GUI/lvgl/src/extra/widgets/meter/../../../../src/hal/../draw/../misc/lv_color.h **** 
  26:Middlewares/LVGL/GUI/lvgl/src/extra/widgets/meter/../../../../src/hal/../draw/../misc/lv_color.h **** #if LV_COLOR_DEPTH != 32 && LV_COLOR_SCREEN_TRANSP != 0
  27:Middlewares/LVGL/GUI/lvgl/src/extra/widgets/meter/../../../../src/hal/../draw/../misc/lv_color.h **** #error "LV_COLOR_SCREEN_TRANSP requires LV_COLOR_DEPTH == 32. Set it in lv_conf.h"
  28:Middlewares/LVGL/GUI/lvgl/src/extra/widgets/meter/../../../../src/hal/../draw/../misc/lv_color.h **** #endif
  29:Middlewares/LVGL/GUI/lvgl/src/extra/widgets/meter/../../../../src/hal/../draw/../misc/lv_color.h **** 
  30:Middlewares/LVGL/GUI/lvgl/src/extra/widgets/meter/../../../../src/hal/../draw/../misc/lv_color.h **** #if LV_COLOR_DEPTH != 16 && LV_COLOR_16_SWAP != 0
  31:Middlewares/LVGL/GUI/lvgl/src/extra/widgets/meter/../../../../src/hal/../draw/../misc/lv_color.h **** #error "LV_COLOR_16_SWAP requires LV_COLOR_DEPTH == 16. Set it in lv_conf.h"
  32:Middlewares/LVGL/GUI/lvgl/src/extra/widgets/meter/../../../../src/hal/../draw/../misc/lv_color.h **** #endif
  33:Middlewares/LVGL/GUI/lvgl/src/extra/widgets/meter/../../../../src/hal/../draw/../misc/lv_color.h **** 
  34:Middlewares/LVGL/GUI/lvgl/src/extra/widgets/meter/../../../../src/hal/../draw/../misc/lv_color.h **** #include <stdint.h>
  35:Middlewares/LVGL/GUI/lvgl/src/extra/widgets/meter/../../../../src/hal/../draw/../misc/lv_color.h **** 
  36:Middlewares/LVGL/GUI/lvgl/src/extra/widgets/meter/../../../../src/hal/../draw/../misc/lv_color.h **** /*********************
  37:Middlewares/LVGL/GUI/lvgl/src/extra/widgets/meter/../../../../src/hal/../draw/../misc/lv_color.h ****  *      DEFINES
  38:Middlewares/LVGL/GUI/lvgl/src/extra/widgets/meter/../../../../src/hal/../draw/../misc/lv_color.h ****  *********************/
  39:Middlewares/LVGL/GUI/lvgl/src/extra/widgets/meter/../../../../src/hal/../draw/../misc/lv_color.h **** LV_EXPORT_CONST_INT(LV_COLOR_DEPTH);
  40:Middlewares/LVGL/GUI/lvgl/src/extra/widgets/meter/../../../../src/hal/../draw/../misc/lv_color.h **** LV_EXPORT_CONST_INT(LV_COLOR_16_SWAP);
  41:Middlewares/LVGL/GUI/lvgl/src/extra/widgets/meter/../../../../src/hal/../draw/../misc/lv_color.h **** 
  42:Middlewares/LVGL/GUI/lvgl/src/extra/widgets/meter/../../../../src/hal/../draw/../misc/lv_color.h **** /**
  43:Middlewares/LVGL/GUI/lvgl/src/extra/widgets/meter/../../../../src/hal/../draw/../misc/lv_color.h ****  * Opacity percentages.
ARM GAS  C:\Users\ADMINI~1\AppData\Local\Temp\ccVbA5cL.s 			page 31


  44:Middlewares/LVGL/GUI/lvgl/src/extra/widgets/meter/../../../../src/hal/../draw/../misc/lv_color.h ****  */
  45:Middlewares/LVGL/GUI/lvgl/src/extra/widgets/meter/../../../../src/hal/../draw/../misc/lv_color.h **** enum {
  46:Middlewares/LVGL/GUI/lvgl/src/extra/widgets/meter/../../../../src/hal/../draw/../misc/lv_color.h ****     LV_OPA_TRANSP = 0,
  47:Middlewares/LVGL/GUI/lvgl/src/extra/widgets/meter/../../../../src/hal/../draw/../misc/lv_color.h ****     LV_OPA_0      = 0,
  48:Middlewares/LVGL/GUI/lvgl/src/extra/widgets/meter/../../../../src/hal/../draw/../misc/lv_color.h ****     LV_OPA_10     = 25,
  49:Middlewares/LVGL/GUI/lvgl/src/extra/widgets/meter/../../../../src/hal/../draw/../misc/lv_color.h ****     LV_OPA_20     = 51,
  50:Middlewares/LVGL/GUI/lvgl/src/extra/widgets/meter/../../../../src/hal/../draw/../misc/lv_color.h ****     LV_OPA_30     = 76,
  51:Middlewares/LVGL/GUI/lvgl/src/extra/widgets/meter/../../../../src/hal/../draw/../misc/lv_color.h ****     LV_OPA_40     = 102,
  52:Middlewares/LVGL/GUI/lvgl/src/extra/widgets/meter/../../../../src/hal/../draw/../misc/lv_color.h ****     LV_OPA_50     = 127,
  53:Middlewares/LVGL/GUI/lvgl/src/extra/widgets/meter/../../../../src/hal/../draw/../misc/lv_color.h ****     LV_OPA_60     = 153,
  54:Middlewares/LVGL/GUI/lvgl/src/extra/widgets/meter/../../../../src/hal/../draw/../misc/lv_color.h ****     LV_OPA_70     = 178,
  55:Middlewares/LVGL/GUI/lvgl/src/extra/widgets/meter/../../../../src/hal/../draw/../misc/lv_color.h ****     LV_OPA_80     = 204,
  56:Middlewares/LVGL/GUI/lvgl/src/extra/widgets/meter/../../../../src/hal/../draw/../misc/lv_color.h ****     LV_OPA_90     = 229,
  57:Middlewares/LVGL/GUI/lvgl/src/extra/widgets/meter/../../../../src/hal/../draw/../misc/lv_color.h ****     LV_OPA_100    = 255,
  58:Middlewares/LVGL/GUI/lvgl/src/extra/widgets/meter/../../../../src/hal/../draw/../misc/lv_color.h ****     LV_OPA_COVER  = 255,
  59:Middlewares/LVGL/GUI/lvgl/src/extra/widgets/meter/../../../../src/hal/../draw/../misc/lv_color.h **** };
  60:Middlewares/LVGL/GUI/lvgl/src/extra/widgets/meter/../../../../src/hal/../draw/../misc/lv_color.h **** 
  61:Middlewares/LVGL/GUI/lvgl/src/extra/widgets/meter/../../../../src/hal/../draw/../misc/lv_color.h **** #define LV_OPA_MIN 2    /*Opacities below this will be transparent*/
  62:Middlewares/LVGL/GUI/lvgl/src/extra/widgets/meter/../../../../src/hal/../draw/../misc/lv_color.h **** #define LV_OPA_MAX 253  /*Opacities above this will fully cover*/
  63:Middlewares/LVGL/GUI/lvgl/src/extra/widgets/meter/../../../../src/hal/../draw/../misc/lv_color.h **** 
  64:Middlewares/LVGL/GUI/lvgl/src/extra/widgets/meter/../../../../src/hal/../draw/../misc/lv_color.h **** #if LV_COLOR_DEPTH == 1
  65:Middlewares/LVGL/GUI/lvgl/src/extra/widgets/meter/../../../../src/hal/../draw/../misc/lv_color.h **** #define LV_COLOR_SIZE 8
  66:Middlewares/LVGL/GUI/lvgl/src/extra/widgets/meter/../../../../src/hal/../draw/../misc/lv_color.h **** #elif LV_COLOR_DEPTH == 8
  67:Middlewares/LVGL/GUI/lvgl/src/extra/widgets/meter/../../../../src/hal/../draw/../misc/lv_color.h **** #define LV_COLOR_SIZE 8
  68:Middlewares/LVGL/GUI/lvgl/src/extra/widgets/meter/../../../../src/hal/../draw/../misc/lv_color.h **** #elif LV_COLOR_DEPTH == 16
  69:Middlewares/LVGL/GUI/lvgl/src/extra/widgets/meter/../../../../src/hal/../draw/../misc/lv_color.h **** #define LV_COLOR_SIZE 16
  70:Middlewares/LVGL/GUI/lvgl/src/extra/widgets/meter/../../../../src/hal/../draw/../misc/lv_color.h **** #elif LV_COLOR_DEPTH == 32
  71:Middlewares/LVGL/GUI/lvgl/src/extra/widgets/meter/../../../../src/hal/../draw/../misc/lv_color.h **** #define LV_COLOR_SIZE 32
  72:Middlewares/LVGL/GUI/lvgl/src/extra/widgets/meter/../../../../src/hal/../draw/../misc/lv_color.h **** #else
  73:Middlewares/LVGL/GUI/lvgl/src/extra/widgets/meter/../../../../src/hal/../draw/../misc/lv_color.h **** #error "Invalid LV_COLOR_DEPTH in lv_conf.h! Set it to 1, 8, 16 or 32!"
  74:Middlewares/LVGL/GUI/lvgl/src/extra/widgets/meter/../../../../src/hal/../draw/../misc/lv_color.h **** #endif
  75:Middlewares/LVGL/GUI/lvgl/src/extra/widgets/meter/../../../../src/hal/../draw/../misc/lv_color.h **** 
  76:Middlewares/LVGL/GUI/lvgl/src/extra/widgets/meter/../../../../src/hal/../draw/../misc/lv_color.h **** #if defined(__cplusplus) && !defined(_LV_COLOR_HAS_MODERN_CPP)
  77:Middlewares/LVGL/GUI/lvgl/src/extra/widgets/meter/../../../../src/hal/../draw/../misc/lv_color.h **** /**
  78:Middlewares/LVGL/GUI/lvgl/src/extra/widgets/meter/../../../../src/hal/../draw/../misc/lv_color.h **** * MSVC compiler's definition of the __cplusplus indicating 199711L regardless to C++ standard versi
  79:Middlewares/LVGL/GUI/lvgl/src/extra/widgets/meter/../../../../src/hal/../draw/../misc/lv_color.h **** * see https://devblogs.microsoft.com/cppblog/msvc-now-correctly-reports-cplusplus
  80:Middlewares/LVGL/GUI/lvgl/src/extra/widgets/meter/../../../../src/hal/../draw/../misc/lv_color.h **** * so we use _MSC_VER macro instead of __cplusplus
  81:Middlewares/LVGL/GUI/lvgl/src/extra/widgets/meter/../../../../src/hal/../draw/../misc/lv_color.h **** */
  82:Middlewares/LVGL/GUI/lvgl/src/extra/widgets/meter/../../../../src/hal/../draw/../misc/lv_color.h **** #ifdef _MSC_VER
  83:Middlewares/LVGL/GUI/lvgl/src/extra/widgets/meter/../../../../src/hal/../draw/../misc/lv_color.h **** #if _MSC_VER >= 1900 /*Visual Studio 2015*/
  84:Middlewares/LVGL/GUI/lvgl/src/extra/widgets/meter/../../../../src/hal/../draw/../misc/lv_color.h **** #define _LV_COLOR_HAS_MODERN_CPP 1
  85:Middlewares/LVGL/GUI/lvgl/src/extra/widgets/meter/../../../../src/hal/../draw/../misc/lv_color.h **** #endif
  86:Middlewares/LVGL/GUI/lvgl/src/extra/widgets/meter/../../../../src/hal/../draw/../misc/lv_color.h **** #else
  87:Middlewares/LVGL/GUI/lvgl/src/extra/widgets/meter/../../../../src/hal/../draw/../misc/lv_color.h **** #if __cplusplus >= 201103L
  88:Middlewares/LVGL/GUI/lvgl/src/extra/widgets/meter/../../../../src/hal/../draw/../misc/lv_color.h **** #define _LV_COLOR_HAS_MODERN_CPP 1
  89:Middlewares/LVGL/GUI/lvgl/src/extra/widgets/meter/../../../../src/hal/../draw/../misc/lv_color.h **** #endif
  90:Middlewares/LVGL/GUI/lvgl/src/extra/widgets/meter/../../../../src/hal/../draw/../misc/lv_color.h **** #endif
  91:Middlewares/LVGL/GUI/lvgl/src/extra/widgets/meter/../../../../src/hal/../draw/../misc/lv_color.h **** #endif /*__cplusplus*/
  92:Middlewares/LVGL/GUI/lvgl/src/extra/widgets/meter/../../../../src/hal/../draw/../misc/lv_color.h **** 
  93:Middlewares/LVGL/GUI/lvgl/src/extra/widgets/meter/../../../../src/hal/../draw/../misc/lv_color.h **** #ifndef _LV_COLOR_HAS_MODERN_CPP
  94:Middlewares/LVGL/GUI/lvgl/src/extra/widgets/meter/../../../../src/hal/../draw/../misc/lv_color.h **** #define _LV_COLOR_HAS_MODERN_CPP 0
  95:Middlewares/LVGL/GUI/lvgl/src/extra/widgets/meter/../../../../src/hal/../draw/../misc/lv_color.h **** #endif
  96:Middlewares/LVGL/GUI/lvgl/src/extra/widgets/meter/../../../../src/hal/../draw/../misc/lv_color.h **** 
  97:Middlewares/LVGL/GUI/lvgl/src/extra/widgets/meter/../../../../src/hal/../draw/../misc/lv_color.h **** #if _LV_COLOR_HAS_MODERN_CPP
  98:Middlewares/LVGL/GUI/lvgl/src/extra/widgets/meter/../../../../src/hal/../draw/../misc/lv_color.h **** /*Fix msvc compiler error C4576 inside C++ code*/
  99:Middlewares/LVGL/GUI/lvgl/src/extra/widgets/meter/../../../../src/hal/../draw/../misc/lv_color.h **** #define _LV_COLOR_MAKE_TYPE_HELPER lv_color_t
 100:Middlewares/LVGL/GUI/lvgl/src/extra/widgets/meter/../../../../src/hal/../draw/../misc/lv_color.h **** #else
ARM GAS  C:\Users\ADMINI~1\AppData\Local\Temp\ccVbA5cL.s 			page 32


 101:Middlewares/LVGL/GUI/lvgl/src/extra/widgets/meter/../../../../src/hal/../draw/../misc/lv_color.h **** #define _LV_COLOR_MAKE_TYPE_HELPER (lv_color_t)
 102:Middlewares/LVGL/GUI/lvgl/src/extra/widgets/meter/../../../../src/hal/../draw/../misc/lv_color.h **** #endif
 103:Middlewares/LVGL/GUI/lvgl/src/extra/widgets/meter/../../../../src/hal/../draw/../misc/lv_color.h **** 
 104:Middlewares/LVGL/GUI/lvgl/src/extra/widgets/meter/../../../../src/hal/../draw/../misc/lv_color.h **** /*---------------------------------------
 105:Middlewares/LVGL/GUI/lvgl/src/extra/widgets/meter/../../../../src/hal/../draw/../misc/lv_color.h ****  * Macros for all existing color depths
 106:Middlewares/LVGL/GUI/lvgl/src/extra/widgets/meter/../../../../src/hal/../draw/../misc/lv_color.h ****  * to set/get values of the color channels
 107:Middlewares/LVGL/GUI/lvgl/src/extra/widgets/meter/../../../../src/hal/../draw/../misc/lv_color.h ****  *------------------------------------------*/
 108:Middlewares/LVGL/GUI/lvgl/src/extra/widgets/meter/../../../../src/hal/../draw/../misc/lv_color.h **** # define LV_COLOR_SET_R1(c, v) (c).ch.red = (uint8_t)((v) & 0x1)
 109:Middlewares/LVGL/GUI/lvgl/src/extra/widgets/meter/../../../../src/hal/../draw/../misc/lv_color.h **** # define LV_COLOR_SET_G1(c, v) (c).ch.green = (uint8_t)((v) & 0x1)
 110:Middlewares/LVGL/GUI/lvgl/src/extra/widgets/meter/../../../../src/hal/../draw/../misc/lv_color.h **** # define LV_COLOR_SET_B1(c, v) (c).ch.blue = (uint8_t)((v) & 0x1)
 111:Middlewares/LVGL/GUI/lvgl/src/extra/widgets/meter/../../../../src/hal/../draw/../misc/lv_color.h **** # define LV_COLOR_SET_A1(c, v) do {} while(0)
 112:Middlewares/LVGL/GUI/lvgl/src/extra/widgets/meter/../../../../src/hal/../draw/../misc/lv_color.h **** 
 113:Middlewares/LVGL/GUI/lvgl/src/extra/widgets/meter/../../../../src/hal/../draw/../misc/lv_color.h **** # define LV_COLOR_GET_R1(c) (c).ch.red
 114:Middlewares/LVGL/GUI/lvgl/src/extra/widgets/meter/../../../../src/hal/../draw/../misc/lv_color.h **** # define LV_COLOR_GET_G1(c) (c).ch.green
 115:Middlewares/LVGL/GUI/lvgl/src/extra/widgets/meter/../../../../src/hal/../draw/../misc/lv_color.h **** # define LV_COLOR_GET_B1(c) (c).ch.blue
 116:Middlewares/LVGL/GUI/lvgl/src/extra/widgets/meter/../../../../src/hal/../draw/../misc/lv_color.h **** # define LV_COLOR_GET_A1(c) 0xFF
 117:Middlewares/LVGL/GUI/lvgl/src/extra/widgets/meter/../../../../src/hal/../draw/../misc/lv_color.h **** 
 118:Middlewares/LVGL/GUI/lvgl/src/extra/widgets/meter/../../../../src/hal/../draw/../misc/lv_color.h **** # define _LV_COLOR_ZERO_INITIALIZER1 {0x00}
 119:Middlewares/LVGL/GUI/lvgl/src/extra/widgets/meter/../../../../src/hal/../draw/../misc/lv_color.h **** # define LV_COLOR_MAKE1(r8, g8, b8)  {(uint8_t)((b8 >> 7) | (g8 >> 7) | (r8 >> 7))}
 120:Middlewares/LVGL/GUI/lvgl/src/extra/widgets/meter/../../../../src/hal/../draw/../misc/lv_color.h **** 
 121:Middlewares/LVGL/GUI/lvgl/src/extra/widgets/meter/../../../../src/hal/../draw/../misc/lv_color.h **** # define LV_COLOR_SET_R8(c, v) (c).ch.red = (uint8_t)((v) & 0x7U)
 122:Middlewares/LVGL/GUI/lvgl/src/extra/widgets/meter/../../../../src/hal/../draw/../misc/lv_color.h **** # define LV_COLOR_SET_G8(c, v) (c).ch.green = (uint8_t)((v) & 0x7U)
 123:Middlewares/LVGL/GUI/lvgl/src/extra/widgets/meter/../../../../src/hal/../draw/../misc/lv_color.h **** # define LV_COLOR_SET_B8(c, v) (c).ch.blue = (uint8_t)((v) & 0x3U)
 124:Middlewares/LVGL/GUI/lvgl/src/extra/widgets/meter/../../../../src/hal/../draw/../misc/lv_color.h **** # define LV_COLOR_SET_A8(c, v) do {} while(0)
 125:Middlewares/LVGL/GUI/lvgl/src/extra/widgets/meter/../../../../src/hal/../draw/../misc/lv_color.h **** 
 126:Middlewares/LVGL/GUI/lvgl/src/extra/widgets/meter/../../../../src/hal/../draw/../misc/lv_color.h **** # define LV_COLOR_GET_R8(c) (c).ch.red
 127:Middlewares/LVGL/GUI/lvgl/src/extra/widgets/meter/../../../../src/hal/../draw/../misc/lv_color.h **** # define LV_COLOR_GET_G8(c) (c).ch.green
 128:Middlewares/LVGL/GUI/lvgl/src/extra/widgets/meter/../../../../src/hal/../draw/../misc/lv_color.h **** # define LV_COLOR_GET_B8(c) (c).ch.blue
 129:Middlewares/LVGL/GUI/lvgl/src/extra/widgets/meter/../../../../src/hal/../draw/../misc/lv_color.h **** # define LV_COLOR_GET_A8(c) 0xFF
 130:Middlewares/LVGL/GUI/lvgl/src/extra/widgets/meter/../../../../src/hal/../draw/../misc/lv_color.h **** 
 131:Middlewares/LVGL/GUI/lvgl/src/extra/widgets/meter/../../../../src/hal/../draw/../misc/lv_color.h **** # define _LV_COLOR_ZERO_INITIALIZER8 {{0x00, 0x00, 0x00}}
 132:Middlewares/LVGL/GUI/lvgl/src/extra/widgets/meter/../../../../src/hal/../draw/../misc/lv_color.h **** # define LV_COLOR_MAKE8(r8, g8, b8) {{(uint8_t)((b8 >> 6) & 0x3U), (uint8_t)((g8 >> 5) & 0x7U), (ui
 133:Middlewares/LVGL/GUI/lvgl/src/extra/widgets/meter/../../../../src/hal/../draw/../misc/lv_color.h **** 
 134:Middlewares/LVGL/GUI/lvgl/src/extra/widgets/meter/../../../../src/hal/../draw/../misc/lv_color.h **** # define LV_COLOR_SET_R16(c, v) (c).ch.red = (uint8_t)((v) & 0x1FU)
 135:Middlewares/LVGL/GUI/lvgl/src/extra/widgets/meter/../../../../src/hal/../draw/../misc/lv_color.h **** #if LV_COLOR_16_SWAP == 0
 136:Middlewares/LVGL/GUI/lvgl/src/extra/widgets/meter/../../../../src/hal/../draw/../misc/lv_color.h **** # define LV_COLOR_SET_G16(c, v) (c).ch.green = (uint8_t)((v) & 0x3FU)
 137:Middlewares/LVGL/GUI/lvgl/src/extra/widgets/meter/../../../../src/hal/../draw/../misc/lv_color.h **** #else
 138:Middlewares/LVGL/GUI/lvgl/src/extra/widgets/meter/../../../../src/hal/../draw/../misc/lv_color.h **** # define LV_COLOR_SET_G16(c, v) {(c).ch.green_h = (uint8_t)(((v) >> 3) & 0x7); (c).ch.green_l = (ui
 139:Middlewares/LVGL/GUI/lvgl/src/extra/widgets/meter/../../../../src/hal/../draw/../misc/lv_color.h **** #endif
 140:Middlewares/LVGL/GUI/lvgl/src/extra/widgets/meter/../../../../src/hal/../draw/../misc/lv_color.h **** # define LV_COLOR_SET_B16(c, v) (c).ch.blue = (uint8_t)((v) & 0x1FU)
 141:Middlewares/LVGL/GUI/lvgl/src/extra/widgets/meter/../../../../src/hal/../draw/../misc/lv_color.h **** # define LV_COLOR_SET_A16(c, v) do {} while(0)
 142:Middlewares/LVGL/GUI/lvgl/src/extra/widgets/meter/../../../../src/hal/../draw/../misc/lv_color.h **** 
 143:Middlewares/LVGL/GUI/lvgl/src/extra/widgets/meter/../../../../src/hal/../draw/../misc/lv_color.h **** # define LV_COLOR_GET_R16(c) (c).ch.red
 144:Middlewares/LVGL/GUI/lvgl/src/extra/widgets/meter/../../../../src/hal/../draw/../misc/lv_color.h **** #if LV_COLOR_16_SWAP == 0
 145:Middlewares/LVGL/GUI/lvgl/src/extra/widgets/meter/../../../../src/hal/../draw/../misc/lv_color.h **** # define LV_COLOR_GET_G16(c) (c).ch.green
 146:Middlewares/LVGL/GUI/lvgl/src/extra/widgets/meter/../../../../src/hal/../draw/../misc/lv_color.h **** #else
 147:Middlewares/LVGL/GUI/lvgl/src/extra/widgets/meter/../../../../src/hal/../draw/../misc/lv_color.h **** # define LV_COLOR_GET_G16(c) (((c).ch.green_h << 3) + (c).ch.green_l)
 148:Middlewares/LVGL/GUI/lvgl/src/extra/widgets/meter/../../../../src/hal/../draw/../misc/lv_color.h **** #endif
 149:Middlewares/LVGL/GUI/lvgl/src/extra/widgets/meter/../../../../src/hal/../draw/../misc/lv_color.h **** # define LV_COLOR_GET_B16(c) (c).ch.blue
 150:Middlewares/LVGL/GUI/lvgl/src/extra/widgets/meter/../../../../src/hal/../draw/../misc/lv_color.h **** # define LV_COLOR_GET_A16(c) 0xFF
 151:Middlewares/LVGL/GUI/lvgl/src/extra/widgets/meter/../../../../src/hal/../draw/../misc/lv_color.h **** 
 152:Middlewares/LVGL/GUI/lvgl/src/extra/widgets/meter/../../../../src/hal/../draw/../misc/lv_color.h **** #if LV_COLOR_16_SWAP == 0
 153:Middlewares/LVGL/GUI/lvgl/src/extra/widgets/meter/../../../../src/hal/../draw/../misc/lv_color.h **** # define _LV_COLOR_ZERO_INITIALIZER16  {{0x00, 0x00, 0x00}}
 154:Middlewares/LVGL/GUI/lvgl/src/extra/widgets/meter/../../../../src/hal/../draw/../misc/lv_color.h **** # define LV_COLOR_MAKE16(r8, g8, b8) {{(uint8_t)((b8 >> 3) & 0x1FU), (uint8_t)((g8 >> 2) & 0x3FU), 
 155:Middlewares/LVGL/GUI/lvgl/src/extra/widgets/meter/../../../../src/hal/../draw/../misc/lv_color.h **** #else
 156:Middlewares/LVGL/GUI/lvgl/src/extra/widgets/meter/../../../../src/hal/../draw/../misc/lv_color.h **** # define _LV_COLOR_ZERO_INITIALIZER16 {{0x00, 0x00, 0x00, 0x00}}
 157:Middlewares/LVGL/GUI/lvgl/src/extra/widgets/meter/../../../../src/hal/../draw/../misc/lv_color.h **** # define LV_COLOR_MAKE16(r8, g8, b8) {{(uint8_t)((g8 >> 5) & 0x7U), (uint8_t)((r8 >> 3) & 0x1FU), (
ARM GAS  C:\Users\ADMINI~1\AppData\Local\Temp\ccVbA5cL.s 			page 33


 158:Middlewares/LVGL/GUI/lvgl/src/extra/widgets/meter/../../../../src/hal/../draw/../misc/lv_color.h **** #endif
 159:Middlewares/LVGL/GUI/lvgl/src/extra/widgets/meter/../../../../src/hal/../draw/../misc/lv_color.h **** 
 160:Middlewares/LVGL/GUI/lvgl/src/extra/widgets/meter/../../../../src/hal/../draw/../misc/lv_color.h **** # define LV_COLOR_SET_R32(c, v) (c).ch.red = (uint8_t)((v) & 0xFF)
 161:Middlewares/LVGL/GUI/lvgl/src/extra/widgets/meter/../../../../src/hal/../draw/../misc/lv_color.h **** # define LV_COLOR_SET_G32(c, v) (c).ch.green = (uint8_t)((v) & 0xFF)
 162:Middlewares/LVGL/GUI/lvgl/src/extra/widgets/meter/../../../../src/hal/../draw/../misc/lv_color.h **** # define LV_COLOR_SET_B32(c, v) (c).ch.blue = (uint8_t)((v) & 0xFF)
 163:Middlewares/LVGL/GUI/lvgl/src/extra/widgets/meter/../../../../src/hal/../draw/../misc/lv_color.h **** # define LV_COLOR_SET_A32(c, v) (c).ch.alpha = (uint8_t)((v) & 0xFF)
 164:Middlewares/LVGL/GUI/lvgl/src/extra/widgets/meter/../../../../src/hal/../draw/../misc/lv_color.h **** 
 165:Middlewares/LVGL/GUI/lvgl/src/extra/widgets/meter/../../../../src/hal/../draw/../misc/lv_color.h **** # define LV_COLOR_GET_R32(c) (c).ch.red
 166:Middlewares/LVGL/GUI/lvgl/src/extra/widgets/meter/../../../../src/hal/../draw/../misc/lv_color.h **** # define LV_COLOR_GET_G32(c) (c).ch.green
 167:Middlewares/LVGL/GUI/lvgl/src/extra/widgets/meter/../../../../src/hal/../draw/../misc/lv_color.h **** # define LV_COLOR_GET_B32(c) (c).ch.blue
 168:Middlewares/LVGL/GUI/lvgl/src/extra/widgets/meter/../../../../src/hal/../draw/../misc/lv_color.h **** # define LV_COLOR_GET_A32(c) (c).ch.alpha
 169:Middlewares/LVGL/GUI/lvgl/src/extra/widgets/meter/../../../../src/hal/../draw/../misc/lv_color.h **** 
 170:Middlewares/LVGL/GUI/lvgl/src/extra/widgets/meter/../../../../src/hal/../draw/../misc/lv_color.h **** # define _LV_COLOR_ZERO_INITIALIZER32  {{0x00, 0x00, 0x00, 0x00}}
 171:Middlewares/LVGL/GUI/lvgl/src/extra/widgets/meter/../../../../src/hal/../draw/../misc/lv_color.h **** # define LV_COLOR_MAKE32(r8, g8, b8) {{b8, g8, r8, 0xff}} /*Fix 0xff alpha*/
 172:Middlewares/LVGL/GUI/lvgl/src/extra/widgets/meter/../../../../src/hal/../draw/../misc/lv_color.h **** 
 173:Middlewares/LVGL/GUI/lvgl/src/extra/widgets/meter/../../../../src/hal/../draw/../misc/lv_color.h **** /*---------------------------------------
 174:Middlewares/LVGL/GUI/lvgl/src/extra/widgets/meter/../../../../src/hal/../draw/../misc/lv_color.h ****  * Macros for the current color depth
 175:Middlewares/LVGL/GUI/lvgl/src/extra/widgets/meter/../../../../src/hal/../draw/../misc/lv_color.h ****  * to set/get values of the color channels
 176:Middlewares/LVGL/GUI/lvgl/src/extra/widgets/meter/../../../../src/hal/../draw/../misc/lv_color.h ****  *------------------------------------------*/
 177:Middlewares/LVGL/GUI/lvgl/src/extra/widgets/meter/../../../../src/hal/../draw/../misc/lv_color.h **** #define LV_COLOR_SET_R(c, v) LV_CONCAT(LV_COLOR_SET_R, LV_COLOR_DEPTH)(c, v)
 178:Middlewares/LVGL/GUI/lvgl/src/extra/widgets/meter/../../../../src/hal/../draw/../misc/lv_color.h **** #define LV_COLOR_SET_G(c, v) LV_CONCAT(LV_COLOR_SET_G, LV_COLOR_DEPTH)(c, v)
 179:Middlewares/LVGL/GUI/lvgl/src/extra/widgets/meter/../../../../src/hal/../draw/../misc/lv_color.h **** #define LV_COLOR_SET_B(c, v) LV_CONCAT(LV_COLOR_SET_B, LV_COLOR_DEPTH)(c, v)
 180:Middlewares/LVGL/GUI/lvgl/src/extra/widgets/meter/../../../../src/hal/../draw/../misc/lv_color.h **** #define LV_COLOR_SET_A(c, v) LV_CONCAT(LV_COLOR_SET_A, LV_COLOR_DEPTH)(c, v)
 181:Middlewares/LVGL/GUI/lvgl/src/extra/widgets/meter/../../../../src/hal/../draw/../misc/lv_color.h **** 
 182:Middlewares/LVGL/GUI/lvgl/src/extra/widgets/meter/../../../../src/hal/../draw/../misc/lv_color.h **** #define LV_COLOR_GET_R(c) LV_CONCAT(LV_COLOR_GET_R, LV_COLOR_DEPTH)(c)
 183:Middlewares/LVGL/GUI/lvgl/src/extra/widgets/meter/../../../../src/hal/../draw/../misc/lv_color.h **** #define LV_COLOR_GET_G(c) LV_CONCAT(LV_COLOR_GET_G, LV_COLOR_DEPTH)(c)
 184:Middlewares/LVGL/GUI/lvgl/src/extra/widgets/meter/../../../../src/hal/../draw/../misc/lv_color.h **** #define LV_COLOR_GET_B(c) LV_CONCAT(LV_COLOR_GET_B, LV_COLOR_DEPTH)(c)
 185:Middlewares/LVGL/GUI/lvgl/src/extra/widgets/meter/../../../../src/hal/../draw/../misc/lv_color.h **** #define LV_COLOR_GET_A(c) LV_CONCAT(LV_COLOR_GET_A, LV_COLOR_DEPTH)(c)
 186:Middlewares/LVGL/GUI/lvgl/src/extra/widgets/meter/../../../../src/hal/../draw/../misc/lv_color.h **** 
 187:Middlewares/LVGL/GUI/lvgl/src/extra/widgets/meter/../../../../src/hal/../draw/../misc/lv_color.h **** #define _LV_COLOR_ZERO_INITIALIZER LV_CONCAT(_LV_COLOR_ZERO_INITIALIZER, LV_COLOR_DEPTH)
 188:Middlewares/LVGL/GUI/lvgl/src/extra/widgets/meter/../../../../src/hal/../draw/../misc/lv_color.h **** #define LV_COLOR_MAKE(r8, g8, b8) LV_CONCAT(LV_COLOR_MAKE, LV_COLOR_DEPTH)(r8, g8, b8)
 189:Middlewares/LVGL/GUI/lvgl/src/extra/widgets/meter/../../../../src/hal/../draw/../misc/lv_color.h **** 
 190:Middlewares/LVGL/GUI/lvgl/src/extra/widgets/meter/../../../../src/hal/../draw/../misc/lv_color.h **** /**********************
 191:Middlewares/LVGL/GUI/lvgl/src/extra/widgets/meter/../../../../src/hal/../draw/../misc/lv_color.h ****  *      TYPEDEFS
 192:Middlewares/LVGL/GUI/lvgl/src/extra/widgets/meter/../../../../src/hal/../draw/../misc/lv_color.h ****  **********************/
 193:Middlewares/LVGL/GUI/lvgl/src/extra/widgets/meter/../../../../src/hal/../draw/../misc/lv_color.h **** 
 194:Middlewares/LVGL/GUI/lvgl/src/extra/widgets/meter/../../../../src/hal/../draw/../misc/lv_color.h **** typedef union {
 195:Middlewares/LVGL/GUI/lvgl/src/extra/widgets/meter/../../../../src/hal/../draw/../misc/lv_color.h ****     uint8_t full; /*must be declared first to set all bits of byte via initializer list*/
 196:Middlewares/LVGL/GUI/lvgl/src/extra/widgets/meter/../../../../src/hal/../draw/../misc/lv_color.h ****     union {
 197:Middlewares/LVGL/GUI/lvgl/src/extra/widgets/meter/../../../../src/hal/../draw/../misc/lv_color.h ****         uint8_t blue : 1;
 198:Middlewares/LVGL/GUI/lvgl/src/extra/widgets/meter/../../../../src/hal/../draw/../misc/lv_color.h ****         uint8_t green : 1;
 199:Middlewares/LVGL/GUI/lvgl/src/extra/widgets/meter/../../../../src/hal/../draw/../misc/lv_color.h ****         uint8_t red : 1;
 200:Middlewares/LVGL/GUI/lvgl/src/extra/widgets/meter/../../../../src/hal/../draw/../misc/lv_color.h ****     } ch;
 201:Middlewares/LVGL/GUI/lvgl/src/extra/widgets/meter/../../../../src/hal/../draw/../misc/lv_color.h **** } lv_color1_t;
 202:Middlewares/LVGL/GUI/lvgl/src/extra/widgets/meter/../../../../src/hal/../draw/../misc/lv_color.h **** 
 203:Middlewares/LVGL/GUI/lvgl/src/extra/widgets/meter/../../../../src/hal/../draw/../misc/lv_color.h **** typedef union {
 204:Middlewares/LVGL/GUI/lvgl/src/extra/widgets/meter/../../../../src/hal/../draw/../misc/lv_color.h ****     struct {
 205:Middlewares/LVGL/GUI/lvgl/src/extra/widgets/meter/../../../../src/hal/../draw/../misc/lv_color.h ****         uint8_t blue : 2;
 206:Middlewares/LVGL/GUI/lvgl/src/extra/widgets/meter/../../../../src/hal/../draw/../misc/lv_color.h ****         uint8_t green : 3;
 207:Middlewares/LVGL/GUI/lvgl/src/extra/widgets/meter/../../../../src/hal/../draw/../misc/lv_color.h ****         uint8_t red : 3;
 208:Middlewares/LVGL/GUI/lvgl/src/extra/widgets/meter/../../../../src/hal/../draw/../misc/lv_color.h ****     } ch;
 209:Middlewares/LVGL/GUI/lvgl/src/extra/widgets/meter/../../../../src/hal/../draw/../misc/lv_color.h ****     uint8_t full;
 210:Middlewares/LVGL/GUI/lvgl/src/extra/widgets/meter/../../../../src/hal/../draw/../misc/lv_color.h **** } lv_color8_t;
 211:Middlewares/LVGL/GUI/lvgl/src/extra/widgets/meter/../../../../src/hal/../draw/../misc/lv_color.h **** 
 212:Middlewares/LVGL/GUI/lvgl/src/extra/widgets/meter/../../../../src/hal/../draw/../misc/lv_color.h **** typedef union {
 213:Middlewares/LVGL/GUI/lvgl/src/extra/widgets/meter/../../../../src/hal/../draw/../misc/lv_color.h ****     struct {
 214:Middlewares/LVGL/GUI/lvgl/src/extra/widgets/meter/../../../../src/hal/../draw/../misc/lv_color.h **** #if LV_COLOR_16_SWAP == 0
ARM GAS  C:\Users\ADMINI~1\AppData\Local\Temp\ccVbA5cL.s 			page 34


 215:Middlewares/LVGL/GUI/lvgl/src/extra/widgets/meter/../../../../src/hal/../draw/../misc/lv_color.h ****         uint16_t blue : 5;
 216:Middlewares/LVGL/GUI/lvgl/src/extra/widgets/meter/../../../../src/hal/../draw/../misc/lv_color.h ****         uint16_t green : 6;
 217:Middlewares/LVGL/GUI/lvgl/src/extra/widgets/meter/../../../../src/hal/../draw/../misc/lv_color.h ****         uint16_t red : 5;
 218:Middlewares/LVGL/GUI/lvgl/src/extra/widgets/meter/../../../../src/hal/../draw/../misc/lv_color.h **** #else
 219:Middlewares/LVGL/GUI/lvgl/src/extra/widgets/meter/../../../../src/hal/../draw/../misc/lv_color.h ****         uint16_t green_h : 3;
 220:Middlewares/LVGL/GUI/lvgl/src/extra/widgets/meter/../../../../src/hal/../draw/../misc/lv_color.h ****         uint16_t red : 5;
 221:Middlewares/LVGL/GUI/lvgl/src/extra/widgets/meter/../../../../src/hal/../draw/../misc/lv_color.h ****         uint16_t blue : 5;
 222:Middlewares/LVGL/GUI/lvgl/src/extra/widgets/meter/../../../../src/hal/../draw/../misc/lv_color.h ****         uint16_t green_l : 3;
 223:Middlewares/LVGL/GUI/lvgl/src/extra/widgets/meter/../../../../src/hal/../draw/../misc/lv_color.h **** #endif
 224:Middlewares/LVGL/GUI/lvgl/src/extra/widgets/meter/../../../../src/hal/../draw/../misc/lv_color.h ****     } ch;
 225:Middlewares/LVGL/GUI/lvgl/src/extra/widgets/meter/../../../../src/hal/../draw/../misc/lv_color.h ****     uint16_t full;
 226:Middlewares/LVGL/GUI/lvgl/src/extra/widgets/meter/../../../../src/hal/../draw/../misc/lv_color.h **** } lv_color16_t;
 227:Middlewares/LVGL/GUI/lvgl/src/extra/widgets/meter/../../../../src/hal/../draw/../misc/lv_color.h **** 
 228:Middlewares/LVGL/GUI/lvgl/src/extra/widgets/meter/../../../../src/hal/../draw/../misc/lv_color.h **** typedef union {
 229:Middlewares/LVGL/GUI/lvgl/src/extra/widgets/meter/../../../../src/hal/../draw/../misc/lv_color.h ****     struct {
 230:Middlewares/LVGL/GUI/lvgl/src/extra/widgets/meter/../../../../src/hal/../draw/../misc/lv_color.h ****         uint8_t blue;
 231:Middlewares/LVGL/GUI/lvgl/src/extra/widgets/meter/../../../../src/hal/../draw/../misc/lv_color.h ****         uint8_t green;
 232:Middlewares/LVGL/GUI/lvgl/src/extra/widgets/meter/../../../../src/hal/../draw/../misc/lv_color.h ****         uint8_t red;
 233:Middlewares/LVGL/GUI/lvgl/src/extra/widgets/meter/../../../../src/hal/../draw/../misc/lv_color.h ****         uint8_t alpha;
 234:Middlewares/LVGL/GUI/lvgl/src/extra/widgets/meter/../../../../src/hal/../draw/../misc/lv_color.h ****     } ch;
 235:Middlewares/LVGL/GUI/lvgl/src/extra/widgets/meter/../../../../src/hal/../draw/../misc/lv_color.h ****     uint32_t full;
 236:Middlewares/LVGL/GUI/lvgl/src/extra/widgets/meter/../../../../src/hal/../draw/../misc/lv_color.h **** } lv_color32_t;
 237:Middlewares/LVGL/GUI/lvgl/src/extra/widgets/meter/../../../../src/hal/../draw/../misc/lv_color.h **** 
 238:Middlewares/LVGL/GUI/lvgl/src/extra/widgets/meter/../../../../src/hal/../draw/../misc/lv_color.h **** typedef LV_CONCAT3(uint, LV_COLOR_SIZE, _t) lv_color_int_t;
 239:Middlewares/LVGL/GUI/lvgl/src/extra/widgets/meter/../../../../src/hal/../draw/../misc/lv_color.h **** typedef LV_CONCAT3(lv_color, LV_COLOR_DEPTH, _t) lv_color_t;
 240:Middlewares/LVGL/GUI/lvgl/src/extra/widgets/meter/../../../../src/hal/../draw/../misc/lv_color.h **** 
 241:Middlewares/LVGL/GUI/lvgl/src/extra/widgets/meter/../../../../src/hal/../draw/../misc/lv_color.h **** typedef struct {
 242:Middlewares/LVGL/GUI/lvgl/src/extra/widgets/meter/../../../../src/hal/../draw/../misc/lv_color.h ****     uint16_t h;
 243:Middlewares/LVGL/GUI/lvgl/src/extra/widgets/meter/../../../../src/hal/../draw/../misc/lv_color.h ****     uint8_t s;
 244:Middlewares/LVGL/GUI/lvgl/src/extra/widgets/meter/../../../../src/hal/../draw/../misc/lv_color.h ****     uint8_t v;
 245:Middlewares/LVGL/GUI/lvgl/src/extra/widgets/meter/../../../../src/hal/../draw/../misc/lv_color.h **** } lv_color_hsv_t;
 246:Middlewares/LVGL/GUI/lvgl/src/extra/widgets/meter/../../../../src/hal/../draw/../misc/lv_color.h **** 
 247:Middlewares/LVGL/GUI/lvgl/src/extra/widgets/meter/../../../../src/hal/../draw/../misc/lv_color.h **** //! @cond Doxygen_Suppress
 248:Middlewares/LVGL/GUI/lvgl/src/extra/widgets/meter/../../../../src/hal/../draw/../misc/lv_color.h **** /*No idea where the guard is required but else throws warnings in the docs*/
 249:Middlewares/LVGL/GUI/lvgl/src/extra/widgets/meter/../../../../src/hal/../draw/../misc/lv_color.h **** typedef uint8_t lv_opa_t;
 250:Middlewares/LVGL/GUI/lvgl/src/extra/widgets/meter/../../../../src/hal/../draw/../misc/lv_color.h **** //! @endcond
 251:Middlewares/LVGL/GUI/lvgl/src/extra/widgets/meter/../../../../src/hal/../draw/../misc/lv_color.h **** 
 252:Middlewares/LVGL/GUI/lvgl/src/extra/widgets/meter/../../../../src/hal/../draw/../misc/lv_color.h **** struct _lv_color_filter_dsc_t;
 253:Middlewares/LVGL/GUI/lvgl/src/extra/widgets/meter/../../../../src/hal/../draw/../misc/lv_color.h **** 
 254:Middlewares/LVGL/GUI/lvgl/src/extra/widgets/meter/../../../../src/hal/../draw/../misc/lv_color.h **** typedef lv_color_t (*lv_color_filter_cb_t)(const struct _lv_color_filter_dsc_t *, lv_color_t, lv_op
 255:Middlewares/LVGL/GUI/lvgl/src/extra/widgets/meter/../../../../src/hal/../draw/../misc/lv_color.h **** 
 256:Middlewares/LVGL/GUI/lvgl/src/extra/widgets/meter/../../../../src/hal/../draw/../misc/lv_color.h **** typedef struct _lv_color_filter_dsc_t {
 257:Middlewares/LVGL/GUI/lvgl/src/extra/widgets/meter/../../../../src/hal/../draw/../misc/lv_color.h ****     lv_color_filter_cb_t filter_cb;
 258:Middlewares/LVGL/GUI/lvgl/src/extra/widgets/meter/../../../../src/hal/../draw/../misc/lv_color.h ****     void * user_data;
 259:Middlewares/LVGL/GUI/lvgl/src/extra/widgets/meter/../../../../src/hal/../draw/../misc/lv_color.h **** } lv_color_filter_dsc_t;
 260:Middlewares/LVGL/GUI/lvgl/src/extra/widgets/meter/../../../../src/hal/../draw/../misc/lv_color.h **** 
 261:Middlewares/LVGL/GUI/lvgl/src/extra/widgets/meter/../../../../src/hal/../draw/../misc/lv_color.h **** 
 262:Middlewares/LVGL/GUI/lvgl/src/extra/widgets/meter/../../../../src/hal/../draw/../misc/lv_color.h **** typedef enum {
 263:Middlewares/LVGL/GUI/lvgl/src/extra/widgets/meter/../../../../src/hal/../draw/../misc/lv_color.h ****     LV_PALETTE_RED,
 264:Middlewares/LVGL/GUI/lvgl/src/extra/widgets/meter/../../../../src/hal/../draw/../misc/lv_color.h ****     LV_PALETTE_PINK,
 265:Middlewares/LVGL/GUI/lvgl/src/extra/widgets/meter/../../../../src/hal/../draw/../misc/lv_color.h ****     LV_PALETTE_PURPLE,
 266:Middlewares/LVGL/GUI/lvgl/src/extra/widgets/meter/../../../../src/hal/../draw/../misc/lv_color.h ****     LV_PALETTE_DEEP_PURPLE,
 267:Middlewares/LVGL/GUI/lvgl/src/extra/widgets/meter/../../../../src/hal/../draw/../misc/lv_color.h ****     LV_PALETTE_INDIGO,
 268:Middlewares/LVGL/GUI/lvgl/src/extra/widgets/meter/../../../../src/hal/../draw/../misc/lv_color.h ****     LV_PALETTE_BLUE,
 269:Middlewares/LVGL/GUI/lvgl/src/extra/widgets/meter/../../../../src/hal/../draw/../misc/lv_color.h ****     LV_PALETTE_LIGHT_BLUE,
 270:Middlewares/LVGL/GUI/lvgl/src/extra/widgets/meter/../../../../src/hal/../draw/../misc/lv_color.h ****     LV_PALETTE_CYAN,
 271:Middlewares/LVGL/GUI/lvgl/src/extra/widgets/meter/../../../../src/hal/../draw/../misc/lv_color.h ****     LV_PALETTE_TEAL,
ARM GAS  C:\Users\ADMINI~1\AppData\Local\Temp\ccVbA5cL.s 			page 35


 272:Middlewares/LVGL/GUI/lvgl/src/extra/widgets/meter/../../../../src/hal/../draw/../misc/lv_color.h ****     LV_PALETTE_GREEN,
 273:Middlewares/LVGL/GUI/lvgl/src/extra/widgets/meter/../../../../src/hal/../draw/../misc/lv_color.h ****     LV_PALETTE_LIGHT_GREEN,
 274:Middlewares/LVGL/GUI/lvgl/src/extra/widgets/meter/../../../../src/hal/../draw/../misc/lv_color.h ****     LV_PALETTE_LIME,
 275:Middlewares/LVGL/GUI/lvgl/src/extra/widgets/meter/../../../../src/hal/../draw/../misc/lv_color.h ****     LV_PALETTE_YELLOW,
 276:Middlewares/LVGL/GUI/lvgl/src/extra/widgets/meter/../../../../src/hal/../draw/../misc/lv_color.h ****     LV_PALETTE_AMBER,
 277:Middlewares/LVGL/GUI/lvgl/src/extra/widgets/meter/../../../../src/hal/../draw/../misc/lv_color.h ****     LV_PALETTE_ORANGE,
 278:Middlewares/LVGL/GUI/lvgl/src/extra/widgets/meter/../../../../src/hal/../draw/../misc/lv_color.h ****     LV_PALETTE_DEEP_ORANGE,
 279:Middlewares/LVGL/GUI/lvgl/src/extra/widgets/meter/../../../../src/hal/../draw/../misc/lv_color.h ****     LV_PALETTE_BROWN,
 280:Middlewares/LVGL/GUI/lvgl/src/extra/widgets/meter/../../../../src/hal/../draw/../misc/lv_color.h ****     LV_PALETTE_BLUE_GREY,
 281:Middlewares/LVGL/GUI/lvgl/src/extra/widgets/meter/../../../../src/hal/../draw/../misc/lv_color.h ****     LV_PALETTE_GREY,
 282:Middlewares/LVGL/GUI/lvgl/src/extra/widgets/meter/../../../../src/hal/../draw/../misc/lv_color.h ****     _LV_PALETTE_LAST,
 283:Middlewares/LVGL/GUI/lvgl/src/extra/widgets/meter/../../../../src/hal/../draw/../misc/lv_color.h ****     LV_PALETTE_NONE = 0xff,
 284:Middlewares/LVGL/GUI/lvgl/src/extra/widgets/meter/../../../../src/hal/../draw/../misc/lv_color.h **** } lv_palette_t;
 285:Middlewares/LVGL/GUI/lvgl/src/extra/widgets/meter/../../../../src/hal/../draw/../misc/lv_color.h **** 
 286:Middlewares/LVGL/GUI/lvgl/src/extra/widgets/meter/../../../../src/hal/../draw/../misc/lv_color.h **** /**********************
 287:Middlewares/LVGL/GUI/lvgl/src/extra/widgets/meter/../../../../src/hal/../draw/../misc/lv_color.h ****  * GLOBAL PROTOTYPES
 288:Middlewares/LVGL/GUI/lvgl/src/extra/widgets/meter/../../../../src/hal/../draw/../misc/lv_color.h ****  **********************/
 289:Middlewares/LVGL/GUI/lvgl/src/extra/widgets/meter/../../../../src/hal/../draw/../misc/lv_color.h **** 
 290:Middlewares/LVGL/GUI/lvgl/src/extra/widgets/meter/../../../../src/hal/../draw/../misc/lv_color.h **** /*In color conversations:
 291:Middlewares/LVGL/GUI/lvgl/src/extra/widgets/meter/../../../../src/hal/../draw/../misc/lv_color.h ****  * - When converting to bigger color type the LSB weight of 1 LSB is calculated
 292:Middlewares/LVGL/GUI/lvgl/src/extra/widgets/meter/../../../../src/hal/../draw/../misc/lv_color.h ****  *   E.g. 16 bit Red has 5 bits
 293:Middlewares/LVGL/GUI/lvgl/src/extra/widgets/meter/../../../../src/hal/../draw/../misc/lv_color.h ****  *         8 bit Red has 3 bits
 294:Middlewares/LVGL/GUI/lvgl/src/extra/widgets/meter/../../../../src/hal/../draw/../misc/lv_color.h ****  *        ----------------------
 295:Middlewares/LVGL/GUI/lvgl/src/extra/widgets/meter/../../../../src/hal/../draw/../misc/lv_color.h ****  *        8 bit red LSB = (2^5 - 1) / (2^3 - 1) = 31 / 7 = 4
 296:Middlewares/LVGL/GUI/lvgl/src/extra/widgets/meter/../../../../src/hal/../draw/../misc/lv_color.h ****  *
 297:Middlewares/LVGL/GUI/lvgl/src/extra/widgets/meter/../../../../src/hal/../draw/../misc/lv_color.h ****  * - When calculating to smaller color type simply shift out the LSBs
 298:Middlewares/LVGL/GUI/lvgl/src/extra/widgets/meter/../../../../src/hal/../draw/../misc/lv_color.h ****  *   E.g.  8 bit Red has 3 bits
 299:Middlewares/LVGL/GUI/lvgl/src/extra/widgets/meter/../../../../src/hal/../draw/../misc/lv_color.h ****  *        16 bit Red has 5 bits
 300:Middlewares/LVGL/GUI/lvgl/src/extra/widgets/meter/../../../../src/hal/../draw/../misc/lv_color.h ****  *        ----------------------
 301:Middlewares/LVGL/GUI/lvgl/src/extra/widgets/meter/../../../../src/hal/../draw/../misc/lv_color.h ****  *         Shift right with 5 - 3 = 2
 302:Middlewares/LVGL/GUI/lvgl/src/extra/widgets/meter/../../../../src/hal/../draw/../misc/lv_color.h ****  */
 303:Middlewares/LVGL/GUI/lvgl/src/extra/widgets/meter/../../../../src/hal/../draw/../misc/lv_color.h **** static inline uint8_t lv_color_to1(lv_color_t color)
 304:Middlewares/LVGL/GUI/lvgl/src/extra/widgets/meter/../../../../src/hal/../draw/../misc/lv_color.h **** {
 305:Middlewares/LVGL/GUI/lvgl/src/extra/widgets/meter/../../../../src/hal/../draw/../misc/lv_color.h **** #if LV_COLOR_DEPTH == 1
 306:Middlewares/LVGL/GUI/lvgl/src/extra/widgets/meter/../../../../src/hal/../draw/../misc/lv_color.h ****     return color.full;
 307:Middlewares/LVGL/GUI/lvgl/src/extra/widgets/meter/../../../../src/hal/../draw/../misc/lv_color.h **** #elif LV_COLOR_DEPTH == 8
 308:Middlewares/LVGL/GUI/lvgl/src/extra/widgets/meter/../../../../src/hal/../draw/../misc/lv_color.h ****     if((LV_COLOR_GET_R(color) & 0x4) || (LV_COLOR_GET_G(color) & 0x4) || (LV_COLOR_GET_B(color) & 0
 309:Middlewares/LVGL/GUI/lvgl/src/extra/widgets/meter/../../../../src/hal/../draw/../misc/lv_color.h ****         return 1;
 310:Middlewares/LVGL/GUI/lvgl/src/extra/widgets/meter/../../../../src/hal/../draw/../misc/lv_color.h ****     }
 311:Middlewares/LVGL/GUI/lvgl/src/extra/widgets/meter/../../../../src/hal/../draw/../misc/lv_color.h ****     else {
 312:Middlewares/LVGL/GUI/lvgl/src/extra/widgets/meter/../../../../src/hal/../draw/../misc/lv_color.h ****         return 0;
 313:Middlewares/LVGL/GUI/lvgl/src/extra/widgets/meter/../../../../src/hal/../draw/../misc/lv_color.h ****     }
 314:Middlewares/LVGL/GUI/lvgl/src/extra/widgets/meter/../../../../src/hal/../draw/../misc/lv_color.h **** #elif LV_COLOR_DEPTH == 16
 315:Middlewares/LVGL/GUI/lvgl/src/extra/widgets/meter/../../../../src/hal/../draw/../misc/lv_color.h ****     if((LV_COLOR_GET_R(color) & 0x10) || (LV_COLOR_GET_G(color) & 0x20) || (LV_COLOR_GET_B(color) &
 316:Middlewares/LVGL/GUI/lvgl/src/extra/widgets/meter/../../../../src/hal/../draw/../misc/lv_color.h ****         return 1;
 317:Middlewares/LVGL/GUI/lvgl/src/extra/widgets/meter/../../../../src/hal/../draw/../misc/lv_color.h ****     }
 318:Middlewares/LVGL/GUI/lvgl/src/extra/widgets/meter/../../../../src/hal/../draw/../misc/lv_color.h ****     else {
 319:Middlewares/LVGL/GUI/lvgl/src/extra/widgets/meter/../../../../src/hal/../draw/../misc/lv_color.h ****         return 0;
 320:Middlewares/LVGL/GUI/lvgl/src/extra/widgets/meter/../../../../src/hal/../draw/../misc/lv_color.h ****     }
 321:Middlewares/LVGL/GUI/lvgl/src/extra/widgets/meter/../../../../src/hal/../draw/../misc/lv_color.h **** #elif LV_COLOR_DEPTH == 32
 322:Middlewares/LVGL/GUI/lvgl/src/extra/widgets/meter/../../../../src/hal/../draw/../misc/lv_color.h ****     if((LV_COLOR_GET_R(color) & 0x80) || (LV_COLOR_GET_G(color) & 0x80) || (LV_COLOR_GET_B(color) &
 323:Middlewares/LVGL/GUI/lvgl/src/extra/widgets/meter/../../../../src/hal/../draw/../misc/lv_color.h ****         return 1;
 324:Middlewares/LVGL/GUI/lvgl/src/extra/widgets/meter/../../../../src/hal/../draw/../misc/lv_color.h ****     }
 325:Middlewares/LVGL/GUI/lvgl/src/extra/widgets/meter/../../../../src/hal/../draw/../misc/lv_color.h ****     else {
 326:Middlewares/LVGL/GUI/lvgl/src/extra/widgets/meter/../../../../src/hal/../draw/../misc/lv_color.h ****         return 0;
 327:Middlewares/LVGL/GUI/lvgl/src/extra/widgets/meter/../../../../src/hal/../draw/../misc/lv_color.h ****     }
 328:Middlewares/LVGL/GUI/lvgl/src/extra/widgets/meter/../../../../src/hal/../draw/../misc/lv_color.h **** #endif
ARM GAS  C:\Users\ADMINI~1\AppData\Local\Temp\ccVbA5cL.s 			page 36


 329:Middlewares/LVGL/GUI/lvgl/src/extra/widgets/meter/../../../../src/hal/../draw/../misc/lv_color.h **** }
 330:Middlewares/LVGL/GUI/lvgl/src/extra/widgets/meter/../../../../src/hal/../draw/../misc/lv_color.h **** 
 331:Middlewares/LVGL/GUI/lvgl/src/extra/widgets/meter/../../../../src/hal/../draw/../misc/lv_color.h **** static inline uint8_t lv_color_to8(lv_color_t color)
 332:Middlewares/LVGL/GUI/lvgl/src/extra/widgets/meter/../../../../src/hal/../draw/../misc/lv_color.h **** {
 333:Middlewares/LVGL/GUI/lvgl/src/extra/widgets/meter/../../../../src/hal/../draw/../misc/lv_color.h **** #if LV_COLOR_DEPTH == 1
 334:Middlewares/LVGL/GUI/lvgl/src/extra/widgets/meter/../../../../src/hal/../draw/../misc/lv_color.h ****     if(color.full == 0)
 335:Middlewares/LVGL/GUI/lvgl/src/extra/widgets/meter/../../../../src/hal/../draw/../misc/lv_color.h ****         return 0;
 336:Middlewares/LVGL/GUI/lvgl/src/extra/widgets/meter/../../../../src/hal/../draw/../misc/lv_color.h ****     else
 337:Middlewares/LVGL/GUI/lvgl/src/extra/widgets/meter/../../../../src/hal/../draw/../misc/lv_color.h ****         return 0xFF;
 338:Middlewares/LVGL/GUI/lvgl/src/extra/widgets/meter/../../../../src/hal/../draw/../misc/lv_color.h **** #elif LV_COLOR_DEPTH == 8
 339:Middlewares/LVGL/GUI/lvgl/src/extra/widgets/meter/../../../../src/hal/../draw/../misc/lv_color.h ****     return color.full;
 340:Middlewares/LVGL/GUI/lvgl/src/extra/widgets/meter/../../../../src/hal/../draw/../misc/lv_color.h **** #elif LV_COLOR_DEPTH == 16
 341:Middlewares/LVGL/GUI/lvgl/src/extra/widgets/meter/../../../../src/hal/../draw/../misc/lv_color.h ****     lv_color8_t ret;
 342:Middlewares/LVGL/GUI/lvgl/src/extra/widgets/meter/../../../../src/hal/../draw/../misc/lv_color.h ****     LV_COLOR_SET_R8(ret, LV_COLOR_GET_R(color) >> 2); /*5 - 3  = 2*/
 343:Middlewares/LVGL/GUI/lvgl/src/extra/widgets/meter/../../../../src/hal/../draw/../misc/lv_color.h ****     LV_COLOR_SET_G8(ret, LV_COLOR_GET_G(color) >> 3); /*6 - 3  = 3*/
 344:Middlewares/LVGL/GUI/lvgl/src/extra/widgets/meter/../../../../src/hal/../draw/../misc/lv_color.h ****     LV_COLOR_SET_B8(ret, LV_COLOR_GET_B(color) >> 3); /*5 - 2  = 3*/
 345:Middlewares/LVGL/GUI/lvgl/src/extra/widgets/meter/../../../../src/hal/../draw/../misc/lv_color.h ****     return ret.full;
 346:Middlewares/LVGL/GUI/lvgl/src/extra/widgets/meter/../../../../src/hal/../draw/../misc/lv_color.h **** #elif LV_COLOR_DEPTH == 32
 347:Middlewares/LVGL/GUI/lvgl/src/extra/widgets/meter/../../../../src/hal/../draw/../misc/lv_color.h ****     lv_color8_t ret;
 348:Middlewares/LVGL/GUI/lvgl/src/extra/widgets/meter/../../../../src/hal/../draw/../misc/lv_color.h ****     LV_COLOR_SET_R8(ret, LV_COLOR_GET_R(color) >> 5); /*8 - 3  = 5*/
 349:Middlewares/LVGL/GUI/lvgl/src/extra/widgets/meter/../../../../src/hal/../draw/../misc/lv_color.h ****     LV_COLOR_SET_G8(ret, LV_COLOR_GET_G(color) >> 5); /*8 - 3  = 5*/
 350:Middlewares/LVGL/GUI/lvgl/src/extra/widgets/meter/../../../../src/hal/../draw/../misc/lv_color.h ****     LV_COLOR_SET_B8(ret, LV_COLOR_GET_B(color) >> 6); /*8 - 2  = 6*/
 351:Middlewares/LVGL/GUI/lvgl/src/extra/widgets/meter/../../../../src/hal/../draw/../misc/lv_color.h ****     return ret.full;
 352:Middlewares/LVGL/GUI/lvgl/src/extra/widgets/meter/../../../../src/hal/../draw/../misc/lv_color.h **** #endif
 353:Middlewares/LVGL/GUI/lvgl/src/extra/widgets/meter/../../../../src/hal/../draw/../misc/lv_color.h **** }
 354:Middlewares/LVGL/GUI/lvgl/src/extra/widgets/meter/../../../../src/hal/../draw/../misc/lv_color.h **** 
 355:Middlewares/LVGL/GUI/lvgl/src/extra/widgets/meter/../../../../src/hal/../draw/../misc/lv_color.h **** static inline uint16_t lv_color_to16(lv_color_t color)
 356:Middlewares/LVGL/GUI/lvgl/src/extra/widgets/meter/../../../../src/hal/../draw/../misc/lv_color.h **** {
 357:Middlewares/LVGL/GUI/lvgl/src/extra/widgets/meter/../../../../src/hal/../draw/../misc/lv_color.h **** #if LV_COLOR_DEPTH == 1
 358:Middlewares/LVGL/GUI/lvgl/src/extra/widgets/meter/../../../../src/hal/../draw/../misc/lv_color.h ****     if(color.full == 0)
 359:Middlewares/LVGL/GUI/lvgl/src/extra/widgets/meter/../../../../src/hal/../draw/../misc/lv_color.h ****         return 0;
 360:Middlewares/LVGL/GUI/lvgl/src/extra/widgets/meter/../../../../src/hal/../draw/../misc/lv_color.h ****     else
 361:Middlewares/LVGL/GUI/lvgl/src/extra/widgets/meter/../../../../src/hal/../draw/../misc/lv_color.h ****         return 0xFFFF;
 362:Middlewares/LVGL/GUI/lvgl/src/extra/widgets/meter/../../../../src/hal/../draw/../misc/lv_color.h **** #elif LV_COLOR_DEPTH == 8
 363:Middlewares/LVGL/GUI/lvgl/src/extra/widgets/meter/../../../../src/hal/../draw/../misc/lv_color.h ****     lv_color16_t ret;
 364:Middlewares/LVGL/GUI/lvgl/src/extra/widgets/meter/../../../../src/hal/../draw/../misc/lv_color.h ****     LV_COLOR_SET_R16(ret, LV_COLOR_GET_R(color) * 4);  /*(2^5 - 1)/(2^3 - 1) = 31/7 = 4*/
 365:Middlewares/LVGL/GUI/lvgl/src/extra/widgets/meter/../../../../src/hal/../draw/../misc/lv_color.h ****     LV_COLOR_SET_G16(ret, LV_COLOR_GET_G(color) * 9);  /*(2^6 - 1)/(2^3 - 1) = 63/7 = 9*/
 366:Middlewares/LVGL/GUI/lvgl/src/extra/widgets/meter/../../../../src/hal/../draw/../misc/lv_color.h ****     LV_COLOR_SET_B16(ret, LV_COLOR_GET_B(color) * 10); /*(2^5 - 1)/(2^2 - 1) = 31/3 = 10*/
 367:Middlewares/LVGL/GUI/lvgl/src/extra/widgets/meter/../../../../src/hal/../draw/../misc/lv_color.h ****     return ret.full;
 368:Middlewares/LVGL/GUI/lvgl/src/extra/widgets/meter/../../../../src/hal/../draw/../misc/lv_color.h **** #elif LV_COLOR_DEPTH == 16
 369:Middlewares/LVGL/GUI/lvgl/src/extra/widgets/meter/../../../../src/hal/../draw/../misc/lv_color.h ****     return color.full;
 370:Middlewares/LVGL/GUI/lvgl/src/extra/widgets/meter/../../../../src/hal/../draw/../misc/lv_color.h **** #elif LV_COLOR_DEPTH == 32
 371:Middlewares/LVGL/GUI/lvgl/src/extra/widgets/meter/../../../../src/hal/../draw/../misc/lv_color.h ****     lv_color16_t ret;
 372:Middlewares/LVGL/GUI/lvgl/src/extra/widgets/meter/../../../../src/hal/../draw/../misc/lv_color.h ****     LV_COLOR_SET_R16(ret, LV_COLOR_GET_R(color) >> 3); /*8 - 5  = 3*/
 373:Middlewares/LVGL/GUI/lvgl/src/extra/widgets/meter/../../../../src/hal/../draw/../misc/lv_color.h ****     LV_COLOR_SET_G16(ret, LV_COLOR_GET_G(color) >> 2); /*8 - 6  = 2*/
 374:Middlewares/LVGL/GUI/lvgl/src/extra/widgets/meter/../../../../src/hal/../draw/../misc/lv_color.h ****     LV_COLOR_SET_B16(ret, LV_COLOR_GET_B(color) >> 3); /*8 - 5  = 3*/
 375:Middlewares/LVGL/GUI/lvgl/src/extra/widgets/meter/../../../../src/hal/../draw/../misc/lv_color.h ****     return ret.full;
 376:Middlewares/LVGL/GUI/lvgl/src/extra/widgets/meter/../../../../src/hal/../draw/../misc/lv_color.h **** #endif
 377:Middlewares/LVGL/GUI/lvgl/src/extra/widgets/meter/../../../../src/hal/../draw/../misc/lv_color.h **** }
 378:Middlewares/LVGL/GUI/lvgl/src/extra/widgets/meter/../../../../src/hal/../draw/../misc/lv_color.h **** 
 379:Middlewares/LVGL/GUI/lvgl/src/extra/widgets/meter/../../../../src/hal/../draw/../misc/lv_color.h **** static inline uint32_t lv_color_to32(lv_color_t color)
 380:Middlewares/LVGL/GUI/lvgl/src/extra/widgets/meter/../../../../src/hal/../draw/../misc/lv_color.h **** {
 381:Middlewares/LVGL/GUI/lvgl/src/extra/widgets/meter/../../../../src/hal/../draw/../misc/lv_color.h **** #if LV_COLOR_DEPTH == 1
 382:Middlewares/LVGL/GUI/lvgl/src/extra/widgets/meter/../../../../src/hal/../draw/../misc/lv_color.h ****     if(color.full == 0)
 383:Middlewares/LVGL/GUI/lvgl/src/extra/widgets/meter/../../../../src/hal/../draw/../misc/lv_color.h ****         return 0xFF000000;
 384:Middlewares/LVGL/GUI/lvgl/src/extra/widgets/meter/../../../../src/hal/../draw/../misc/lv_color.h ****     else
 385:Middlewares/LVGL/GUI/lvgl/src/extra/widgets/meter/../../../../src/hal/../draw/../misc/lv_color.h ****         return 0xFFFFFFFF;
ARM GAS  C:\Users\ADMINI~1\AppData\Local\Temp\ccVbA5cL.s 			page 37


 386:Middlewares/LVGL/GUI/lvgl/src/extra/widgets/meter/../../../../src/hal/../draw/../misc/lv_color.h **** #elif LV_COLOR_DEPTH == 8
 387:Middlewares/LVGL/GUI/lvgl/src/extra/widgets/meter/../../../../src/hal/../draw/../misc/lv_color.h ****     lv_color32_t ret;
 388:Middlewares/LVGL/GUI/lvgl/src/extra/widgets/meter/../../../../src/hal/../draw/../misc/lv_color.h ****     LV_COLOR_SET_R32(ret, LV_COLOR_GET_R(color) * 36); /*(2^8 - 1)/(2^3 - 1) = 255/7 = 36*/
 389:Middlewares/LVGL/GUI/lvgl/src/extra/widgets/meter/../../../../src/hal/../draw/../misc/lv_color.h ****     LV_COLOR_SET_G32(ret, LV_COLOR_GET_G(color) * 36); /*(2^8 - 1)/(2^3 - 1) = 255/7 = 36*/
 390:Middlewares/LVGL/GUI/lvgl/src/extra/widgets/meter/../../../../src/hal/../draw/../misc/lv_color.h ****     LV_COLOR_SET_B32(ret, LV_COLOR_GET_B(color) * 85); /*(2^8 - 1)/(2^2 - 1) = 255/3 = 85*/
 391:Middlewares/LVGL/GUI/lvgl/src/extra/widgets/meter/../../../../src/hal/../draw/../misc/lv_color.h ****     LV_COLOR_SET_A32(ret, 0xFF);
 392:Middlewares/LVGL/GUI/lvgl/src/extra/widgets/meter/../../../../src/hal/../draw/../misc/lv_color.h ****     return ret.full;
 393:Middlewares/LVGL/GUI/lvgl/src/extra/widgets/meter/../../../../src/hal/../draw/../misc/lv_color.h **** #elif LV_COLOR_DEPTH == 16
 394:Middlewares/LVGL/GUI/lvgl/src/extra/widgets/meter/../../../../src/hal/../draw/../misc/lv_color.h ****     /**
 395:Middlewares/LVGL/GUI/lvgl/src/extra/widgets/meter/../../../../src/hal/../draw/../misc/lv_color.h ****      * The floating point math for conversion is:
 396:Middlewares/LVGL/GUI/lvgl/src/extra/widgets/meter/../../../../src/hal/../draw/../misc/lv_color.h ****      *  valueto = valuefrom * ( (2^bitsto - 1) / (float)(2^bitsfrom - 1) )
 397:Middlewares/LVGL/GUI/lvgl/src/extra/widgets/meter/../../../../src/hal/../draw/../misc/lv_color.h ****      * The faster integer math for conversion is:
 398:Middlewares/LVGL/GUI/lvgl/src/extra/widgets/meter/../../../../src/hal/../draw/../misc/lv_color.h ****      *  valueto = ( valuefrom * multiplier + adder ) >> divisor
 399:Middlewares/LVGL/GUI/lvgl/src/extra/widgets/meter/../../../../src/hal/../draw/../misc/lv_color.h ****      *   multiplier = FLOOR( ( (2^bitsto - 1) << divisor ) / (float)(2^bitsfrom - 1) )
 400:Middlewares/LVGL/GUI/lvgl/src/extra/widgets/meter/../../../../src/hal/../draw/../misc/lv_color.h ****      *
 401:Middlewares/LVGL/GUI/lvgl/src/extra/widgets/meter/../../../../src/hal/../draw/../misc/lv_color.h ****      * Find the first divisor where ( adder >> divisor ) <= 0
 402:Middlewares/LVGL/GUI/lvgl/src/extra/widgets/meter/../../../../src/hal/../draw/../misc/lv_color.h ****      *
 403:Middlewares/LVGL/GUI/lvgl/src/extra/widgets/meter/../../../../src/hal/../draw/../misc/lv_color.h ****      * 5-bit to 8-bit: ( 31 * multiplier + adder ) >> divisor = 255
 404:Middlewares/LVGL/GUI/lvgl/src/extra/widgets/meter/../../../../src/hal/../draw/../misc/lv_color.h ****      * divisor  multiplier  adder  min (0)  max (31)
 405:Middlewares/LVGL/GUI/lvgl/src/extra/widgets/meter/../../../../src/hal/../draw/../misc/lv_color.h ****      *       0           8      7        7       255
 406:Middlewares/LVGL/GUI/lvgl/src/extra/widgets/meter/../../../../src/hal/../draw/../misc/lv_color.h ****      *       1          16     14        7       255
 407:Middlewares/LVGL/GUI/lvgl/src/extra/widgets/meter/../../../../src/hal/../draw/../misc/lv_color.h ****      *       2          32     28        7       255
 408:Middlewares/LVGL/GUI/lvgl/src/extra/widgets/meter/../../../../src/hal/../draw/../misc/lv_color.h ****      *       3          65     25        3       255
 409:Middlewares/LVGL/GUI/lvgl/src/extra/widgets/meter/../../../../src/hal/../draw/../misc/lv_color.h ****      *       4         131     19        1       255
 410:Middlewares/LVGL/GUI/lvgl/src/extra/widgets/meter/../../../../src/hal/../draw/../misc/lv_color.h ****      *       5         263      7        0       255
 411:Middlewares/LVGL/GUI/lvgl/src/extra/widgets/meter/../../../../src/hal/../draw/../misc/lv_color.h ****      *
 412:Middlewares/LVGL/GUI/lvgl/src/extra/widgets/meter/../../../../src/hal/../draw/../misc/lv_color.h ****      * 6-bit to 8-bit: 255 = ( 63 * multiplier + adder ) >> divisor
 413:Middlewares/LVGL/GUI/lvgl/src/extra/widgets/meter/../../../../src/hal/../draw/../misc/lv_color.h ****      * divisor  multiplier  adder  min (0)  max (63)
 414:Middlewares/LVGL/GUI/lvgl/src/extra/widgets/meter/../../../../src/hal/../draw/../misc/lv_color.h ****      *       0           4      3        3       255
 415:Middlewares/LVGL/GUI/lvgl/src/extra/widgets/meter/../../../../src/hal/../draw/../misc/lv_color.h ****      *       1           8      6        3       255
 416:Middlewares/LVGL/GUI/lvgl/src/extra/widgets/meter/../../../../src/hal/../draw/../misc/lv_color.h ****      *       2          16     12        3       255
 417:Middlewares/LVGL/GUI/lvgl/src/extra/widgets/meter/../../../../src/hal/../draw/../misc/lv_color.h ****      *       3          32     24        3       255
 418:Middlewares/LVGL/GUI/lvgl/src/extra/widgets/meter/../../../../src/hal/../draw/../misc/lv_color.h ****      *       4          64     48        3       255
 419:Middlewares/LVGL/GUI/lvgl/src/extra/widgets/meter/../../../../src/hal/../draw/../misc/lv_color.h ****      *       5         129     33        1       255
 420:Middlewares/LVGL/GUI/lvgl/src/extra/widgets/meter/../../../../src/hal/../draw/../misc/lv_color.h ****      *       6         259      3        0       255
 421:Middlewares/LVGL/GUI/lvgl/src/extra/widgets/meter/../../../../src/hal/../draw/../misc/lv_color.h ****      */
 422:Middlewares/LVGL/GUI/lvgl/src/extra/widgets/meter/../../../../src/hal/../draw/../misc/lv_color.h **** 
 423:Middlewares/LVGL/GUI/lvgl/src/extra/widgets/meter/../../../../src/hal/../draw/../misc/lv_color.h ****     lv_color32_t ret;
 424:Middlewares/LVGL/GUI/lvgl/src/extra/widgets/meter/../../../../src/hal/../draw/../misc/lv_color.h ****     LV_COLOR_SET_R32(ret, (LV_COLOR_GET_R(color) * 263 + 7) >> 5);
 425:Middlewares/LVGL/GUI/lvgl/src/extra/widgets/meter/../../../../src/hal/../draw/../misc/lv_color.h ****     LV_COLOR_SET_G32(ret, (LV_COLOR_GET_G(color) * 259 + 3) >> 6);
 426:Middlewares/LVGL/GUI/lvgl/src/extra/widgets/meter/../../../../src/hal/../draw/../misc/lv_color.h ****     LV_COLOR_SET_B32(ret, (LV_COLOR_GET_B(color) * 263 + 7) >> 5);
 427:Middlewares/LVGL/GUI/lvgl/src/extra/widgets/meter/../../../../src/hal/../draw/../misc/lv_color.h ****     LV_COLOR_SET_A32(ret, 0xFF);
 428:Middlewares/LVGL/GUI/lvgl/src/extra/widgets/meter/../../../../src/hal/../draw/../misc/lv_color.h ****     return ret.full;
 429:Middlewares/LVGL/GUI/lvgl/src/extra/widgets/meter/../../../../src/hal/../draw/../misc/lv_color.h **** #elif LV_COLOR_DEPTH == 32
 430:Middlewares/LVGL/GUI/lvgl/src/extra/widgets/meter/../../../../src/hal/../draw/../misc/lv_color.h ****     return color.full;
 431:Middlewares/LVGL/GUI/lvgl/src/extra/widgets/meter/../../../../src/hal/../draw/../misc/lv_color.h **** #endif
 432:Middlewares/LVGL/GUI/lvgl/src/extra/widgets/meter/../../../../src/hal/../draw/../misc/lv_color.h **** }
 433:Middlewares/LVGL/GUI/lvgl/src/extra/widgets/meter/../../../../src/hal/../draw/../misc/lv_color.h **** 
 434:Middlewares/LVGL/GUI/lvgl/src/extra/widgets/meter/../../../../src/hal/../draw/../misc/lv_color.h **** //! @cond Doxygen_Suppress
 435:Middlewares/LVGL/GUI/lvgl/src/extra/widgets/meter/../../../../src/hal/../draw/../misc/lv_color.h **** 
 436:Middlewares/LVGL/GUI/lvgl/src/extra/widgets/meter/../../../../src/hal/../draw/../misc/lv_color.h **** /**
 437:Middlewares/LVGL/GUI/lvgl/src/extra/widgets/meter/../../../../src/hal/../draw/../misc/lv_color.h ****  * Mix two colors with a given ratio.
 438:Middlewares/LVGL/GUI/lvgl/src/extra/widgets/meter/../../../../src/hal/../draw/../misc/lv_color.h ****  * @param c1 the first color to mix (usually the foreground)
 439:Middlewares/LVGL/GUI/lvgl/src/extra/widgets/meter/../../../../src/hal/../draw/../misc/lv_color.h ****  * @param c2 the second color to mix (usually the background)
 440:Middlewares/LVGL/GUI/lvgl/src/extra/widgets/meter/../../../../src/hal/../draw/../misc/lv_color.h ****  * @param mix The ratio of the colors. 0: full `c2`, 255: full `c1`, 127: half `c1` and half`c2`
 441:Middlewares/LVGL/GUI/lvgl/src/extra/widgets/meter/../../../../src/hal/../draw/../misc/lv_color.h ****  * @return the mixed color
 442:Middlewares/LVGL/GUI/lvgl/src/extra/widgets/meter/../../../../src/hal/../draw/../misc/lv_color.h ****  */
ARM GAS  C:\Users\ADMINI~1\AppData\Local\Temp\ccVbA5cL.s 			page 38


 443:Middlewares/LVGL/GUI/lvgl/src/extra/widgets/meter/../../../../src/hal/../draw/../misc/lv_color.h **** LV_ATTRIBUTE_FAST_MEM static inline lv_color_t lv_color_mix(lv_color_t c1, lv_color_t c2, uint8_t m
 547              		.loc 4 443 48 view .LVU163
 548              	.LBB81:
 444:Middlewares/LVGL/GUI/lvgl/src/extra/widgets/meter/../../../../src/hal/../draw/../misc/lv_color.h **** {
 445:Middlewares/LVGL/GUI/lvgl/src/extra/widgets/meter/../../../../src/hal/../draw/../misc/lv_color.h ****     lv_color_t ret;
 549              		.loc 4 445 5 view .LVU164
 446:Middlewares/LVGL/GUI/lvgl/src/extra/widgets/meter/../../../../src/hal/../draw/../misc/lv_color.h **** 
 447:Middlewares/LVGL/GUI/lvgl/src/extra/widgets/meter/../../../../src/hal/../draw/../misc/lv_color.h **** #if LV_COLOR_DEPTH == 16 && LV_COLOR_16_SWAP == 0
 448:Middlewares/LVGL/GUI/lvgl/src/extra/widgets/meter/../../../../src/hal/../draw/../misc/lv_color.h ****     /*Source: https://stackoverflow.com/a/50012418/1999969*/
 449:Middlewares/LVGL/GUI/lvgl/src/extra/widgets/meter/../../../../src/hal/../draw/../misc/lv_color.h ****     mix = (mix + 4) >> 3;
 550              		.loc 4 449 5 view .LVU165
 551              		.loc 4 449 16 is_stmt 0 view .LVU166
 552 00ca 0435     		adds	r5, r5, #4
 553              	.LVL57:
 450:Middlewares/LVGL/GUI/lvgl/src/extra/widgets/meter/../../../../src/hal/../draw/../misc/lv_color.h ****     uint32_t bg = (uint32_t)((uint32_t)c2.full | ((uint32_t)c2.full << 16)) &
 554              		.loc 4 450 5 is_stmt 1 view .LVU167
 555              		.loc 4 450 42 is_stmt 0 view .LVU168
 556 00cc 628A     		ldrh	r2, [r4, #18]
 557              		.loc 4 450 19 view .LVU169
 558 00ce 42EA0242 		orr	r2, r2, r2, lsl #16
 559              		.loc 4 450 14 view .LVU170
 560 00d2 A349     		ldr	r1, .L40+4
 561 00d4 0A40     		ands	r2, r2, r1
 562              	.LVL58:
 451:Middlewares/LVGL/GUI/lvgl/src/extra/widgets/meter/../../../../src/hal/../draw/../misc/lv_color.h ****                   0x7E0F81F; /*0b00000111111000001111100000011111*/
 452:Middlewares/LVGL/GUI/lvgl/src/extra/widgets/meter/../../../../src/hal/../draw/../misc/lv_color.h ****     uint32_t fg = (uint32_t)((uint32_t)c1.full | ((uint32_t)c1.full << 16)) & 0x7E0F81F;
 563              		.loc 4 452 5 is_stmt 1 view .LVU171
 564              		.loc 4 452 42 is_stmt 0 view .LVU172
 565 00d6 A38A     		ldrh	r3, [r4, #20]
 566              		.loc 4 452 19 view .LVU173
 567 00d8 43EA0343 		orr	r3, r3, r3, lsl #16
 568              		.loc 4 452 14 view .LVU174
 569 00dc 0B40     		ands	r3, r3, r1
 570              	.LVL59:
 453:Middlewares/LVGL/GUI/lvgl/src/extra/widgets/meter/../../../../src/hal/../draw/../misc/lv_color.h ****     uint32_t result = ((((fg - bg) * mix) >> 5) + bg) & 0x7E0F81F;
 571              		.loc 4 453 5 is_stmt 1 view .LVU175
 572              		.loc 4 453 30 is_stmt 0 view .LVU176
 573 00de 9B1A     		subs	r3, r3, r2
 574              	.LVL60:
 575              		.loc 4 453 36 view .LVU177
 576 00e0 C5F3C705 		ubfx	r5, r5, #3, #8
 577              	.LVL61:
 578              		.loc 4 453 36 view .LVU178
 579 00e4 03FB05F5 		mul	r5, r3, r5
 580              		.loc 4 453 49 view .LVU179
 581 00e8 02EB5515 		add	r5, r2, r5, lsr #5
 582              		.loc 4 453 14 view .LVU180
 583 00ec 0D40     		ands	r5, r5, r1
 584              	.LVL62:
 454:Middlewares/LVGL/GUI/lvgl/src/extra/widgets/meter/../../../../src/hal/../draw/../misc/lv_color.h ****     ret.full = (uint16_t)((result >> 16) | result);
 585              		.loc 4 454 5 is_stmt 1 view .LVU181
 455:Middlewares/LVGL/GUI/lvgl/src/extra/widgets/meter/../../../../src/hal/../draw/../misc/lv_color.h **** #elif LV_COLOR_DEPTH != 1
 456:Middlewares/LVGL/GUI/lvgl/src/extra/widgets/meter/../../../../src/hal/../draw/../misc/lv_color.h ****     /*LV_COLOR_DEPTH == 8, 16 or 32*/
 457:Middlewares/LVGL/GUI/lvgl/src/extra/widgets/meter/../../../../src/hal/../draw/../misc/lv_color.h ****     LV_COLOR_SET_R(ret, LV_UDIV255((uint16_t)LV_COLOR_GET_R(c1) * mix + LV_COLOR_GET_R(c2) *
 458:Middlewares/LVGL/GUI/lvgl/src/extra/widgets/meter/../../../../src/hal/../draw/../misc/lv_color.h ****                                    (255 - mix) + LV_COLOR_MIX_ROUND_OFS));
 459:Middlewares/LVGL/GUI/lvgl/src/extra/widgets/meter/../../../../src/hal/../draw/../misc/lv_color.h ****     LV_COLOR_SET_G(ret, LV_UDIV255((uint16_t)LV_COLOR_GET_G(c1) * mix + LV_COLOR_GET_G(c2) *
 460:Middlewares/LVGL/GUI/lvgl/src/extra/widgets/meter/../../../../src/hal/../draw/../misc/lv_color.h ****                                    (255 - mix) + LV_COLOR_MIX_ROUND_OFS));
ARM GAS  C:\Users\ADMINI~1\AppData\Local\Temp\ccVbA5cL.s 			page 39


 461:Middlewares/LVGL/GUI/lvgl/src/extra/widgets/meter/../../../../src/hal/../draw/../misc/lv_color.h ****     LV_COLOR_SET_B(ret, LV_UDIV255((uint16_t)LV_COLOR_GET_B(c1) * mix + LV_COLOR_GET_B(c2) *
 462:Middlewares/LVGL/GUI/lvgl/src/extra/widgets/meter/../../../../src/hal/../draw/../misc/lv_color.h ****                                    (255 - mix) + LV_COLOR_MIX_ROUND_OFS));
 463:Middlewares/LVGL/GUI/lvgl/src/extra/widgets/meter/../../../../src/hal/../draw/../misc/lv_color.h ****     LV_COLOR_SET_A(ret, 0xFF);
 464:Middlewares/LVGL/GUI/lvgl/src/extra/widgets/meter/../../../../src/hal/../draw/../misc/lv_color.h **** #else
 465:Middlewares/LVGL/GUI/lvgl/src/extra/widgets/meter/../../../../src/hal/../draw/../misc/lv_color.h ****     /*LV_COLOR_DEPTH == 1*/
 466:Middlewares/LVGL/GUI/lvgl/src/extra/widgets/meter/../../../../src/hal/../draw/../misc/lv_color.h ****     ret.full = mix > LV_OPA_50 ? c1.full : c2.full;
 467:Middlewares/LVGL/GUI/lvgl/src/extra/widgets/meter/../../../../src/hal/../draw/../misc/lv_color.h **** #endif
 468:Middlewares/LVGL/GUI/lvgl/src/extra/widgets/meter/../../../../src/hal/../draw/../misc/lv_color.h **** 
 469:Middlewares/LVGL/GUI/lvgl/src/extra/widgets/meter/../../../../src/hal/../draw/../misc/lv_color.h ****     return ret;
 586              		.loc 4 469 5 view .LVU182
 587 00ee 45EA1545 		orr	r5, r5, r5, lsr #16
 588              	.LVL63:
 589              	.L21:
 590              		.loc 4 469 5 is_stmt 0 view .LVU183
 591              	.LBE81:
 592              	.LBE80:
 593              	.LBE79:
 456:Middlewares/LVGL/GUI/lvgl/src/extra/widgets/meter/lv_meter.c ****                 if(indic->type != LV_METER_INDICATOR_TYPE_SCALE_LINES) continue;
 594              		.loc 1 456 13 is_stmt 1 discriminator 2 view .LVU184
 595 00f2 2146     		mov	r1, r4
 596 00f4 3046     		mov	r0, r6
 597 00f6 FFF7FEFF 		bl	_lv_ll_get_prev
 598              	.LVL64:
 599 00fa 0446     		mov	r4, r0
 600              	.LVL65:
 601              	.L20:
 456:Middlewares/LVGL/GUI/lvgl/src/extra/widgets/meter/lv_meter.c ****                 if(indic->type != LV_METER_INDICATOR_TYPE_SCALE_LINES) continue;
 602              		.loc 1 456 13 discriminator 1 view .LVU185
 603 00fc DCB1     		cbz	r4, .L36
 457:Middlewares/LVGL/GUI/lvgl/src/extra/widgets/meter/lv_meter.c ****                 if(value_of_line >= indic->start_value && value_of_line <= indic->end_value) {
 604              		.loc 1 457 17 view .LVU186
 457:Middlewares/LVGL/GUI/lvgl/src/extra/widgets/meter/lv_meter.c ****                 if(value_of_line >= indic->start_value && value_of_line <= indic->end_value) {
 605              		.loc 1 457 25 is_stmt 0 view .LVU187
 606 00fe 2379     		ldrb	r3, [r4, #4]	@ zero_extendqisi2
 457:Middlewares/LVGL/GUI/lvgl/src/extra/widgets/meter/lv_meter.c ****                 if(value_of_line >= indic->start_value && value_of_line <= indic->end_value) {
 607              		.loc 1 457 19 view .LVU188
 608 0100 022B     		cmp	r3, #2
 609 0102 F6D1     		bne	.L21
 458:Middlewares/LVGL/GUI/lvgl/src/extra/widgets/meter/lv_meter.c ****                     line_width += indic->type_data.scale_lines.width_mod;
 610              		.loc 1 458 17 is_stmt 1 view .LVU189
 458:Middlewares/LVGL/GUI/lvgl/src/extra/widgets/meter/lv_meter.c ****                     line_width += indic->type_data.scale_lines.width_mod;
 611              		.loc 1 458 42 is_stmt 0 view .LVU190
 612 0104 A168     		ldr	r1, [r4, #8]
 458:Middlewares/LVGL/GUI/lvgl/src/extra/widgets/meter/lv_meter.c ****                     line_width += indic->type_data.scale_lines.width_mod;
 613              		.loc 1 458 19 view .LVU191
 614 0106 B942     		cmp	r1, r7
 615 0108 F3DC     		bgt	.L21
 458:Middlewares/LVGL/GUI/lvgl/src/extra/widgets/meter/lv_meter.c ****                     line_width += indic->type_data.scale_lines.width_mod;
 616              		.loc 1 458 81 discriminator 1 view .LVU192
 617 010a E268     		ldr	r2, [r4, #12]
 458:Middlewares/LVGL/GUI/lvgl/src/extra/widgets/meter/lv_meter.c ****                     line_width += indic->type_data.scale_lines.width_mod;
 618              		.loc 1 458 56 discriminator 1 view .LVU193
 619 010c BA42     		cmp	r2, r7
 620 010e F0DB     		blt	.L21
 459:Middlewares/LVGL/GUI/lvgl/src/extra/widgets/meter/lv_meter.c **** 
 621              		.loc 1 459 21 is_stmt 1 view .LVU194
 459:Middlewares/LVGL/GUI/lvgl/src/extra/widgets/meter/lv_meter.c **** 
ARM GAS  C:\Users\ADMINI~1\AppData\Local\Temp\ccVbA5cL.s 			page 40


 622              		.loc 1 459 63 is_stmt 0 view .LVU195
 623 0110 B4F91030 		ldrsh	r3, [r4, #16]
 459:Middlewares/LVGL/GUI/lvgl/src/extra/widgets/meter/lv_meter.c **** 
 624              		.loc 1 459 32 view .LVU196
 625 0114 9A44     		add	r10, r10, r3
 626              	.LVL66:
 461:Middlewares/LVGL/GUI/lvgl/src/extra/widgets/meter/lv_meter.c ****                         line_color = indic->type_data.scale_lines.color_start;
 627              		.loc 1 461 21 is_stmt 1 view .LVU197
 461:Middlewares/LVGL/GUI/lvgl/src/extra/widgets/meter/lv_meter.c ****                         line_color = indic->type_data.scale_lines.color_start;
 628              		.loc 1 461 64 is_stmt 0 view .LVU198
 629 0116 608A     		ldrh	r0, [r4, #18]
 630              	.LVL67:
 461:Middlewares/LVGL/GUI/lvgl/src/extra/widgets/meter/lv_meter.c ****                         line_color = indic->type_data.scale_lines.color_start;
 631              		.loc 1 461 111 view .LVU199
 632 0118 A38A     		ldrh	r3, [r4, #20]
 461:Middlewares/LVGL/GUI/lvgl/src/extra/widgets/meter/lv_meter.c ****                         line_color = indic->type_data.scale_lines.color_start;
 633              		.loc 1 461 23 view .LVU200
 634 011a 9842     		cmp	r0, r3
 635 011c C8D0     		beq	.L37
 636              	.LBB82:
 465:Middlewares/LVGL/GUI/lvgl/src/extra/widgets/meter/lv_meter.c ****                         if(indic->type_data.scale_lines.local_grad) {
 637              		.loc 1 465 25 is_stmt 1 view .LVU201
 466:Middlewares/LVGL/GUI/lvgl/src/extra/widgets/meter/lv_meter.c ****                             ratio = lv_map(value_of_line, indic->start_value, indic->end_value, LV_
 638              		.loc 1 466 25 view .LVU202
 466:Middlewares/LVGL/GUI/lvgl/src/extra/widgets/meter/lv_meter.c ****                             ratio = lv_map(value_of_line, indic->start_value, indic->end_value, LV_
 639              		.loc 1 466 28 is_stmt 0 view .LVU203
 640 011e A37D     		ldrb	r3, [r4, #22]	@ zero_extendqisi2
 466:Middlewares/LVGL/GUI/lvgl/src/extra/widgets/meter/lv_meter.c ****                             ratio = lv_map(value_of_line, indic->start_value, indic->end_value, LV_
 641              		.loc 1 466 27 view .LVU204
 642 0120 13F0010F 		tst	r3, #1
 643 0124 C6D0     		beq	.L23
 467:Middlewares/LVGL/GUI/lvgl/src/extra/widgets/meter/lv_meter.c ****                         }
 644              		.loc 1 467 29 is_stmt 1 view .LVU205
 467:Middlewares/LVGL/GUI/lvgl/src/extra/widgets/meter/lv_meter.c ****                         }
 645              		.loc 1 467 37 is_stmt 0 view .LVU206
 646 0126 FF23     		movs	r3, #255
 647 0128 0093     		str	r3, [sp]
 648 012a 0023     		movs	r3, #0
 649 012c 3846     		mov	r0, r7
 650 012e FFF7FEFF 		bl	lv_map
 651              	.LVL68:
 467:Middlewares/LVGL/GUI/lvgl/src/extra/widgets/meter/lv_meter.c ****                         }
 652              		.loc 1 467 35 view .LVU207
 653 0132 C5B2     		uxtb	r5, r0
 654              	.LVL69:
 467:Middlewares/LVGL/GUI/lvgl/src/extra/widgets/meter/lv_meter.c ****                         }
 655              		.loc 1 467 35 view .LVU208
 656 0134 C9E7     		b	.L24
 657              	.LVL70:
 658              	.L36:
 467:Middlewares/LVGL/GUI/lvgl/src/extra/widgets/meter/lv_meter.c ****                         }
 659              		.loc 1 467 35 view .LVU209
 660              	.LBE82:
 473:Middlewares/LVGL/GUI/lvgl/src/extra/widgets/meter/lv_meter.c ****                     }
 474:Middlewares/LVGL/GUI/lvgl/src/extra/widgets/meter/lv_meter.c ****                 }
 475:Middlewares/LVGL/GUI/lvgl/src/extra/widgets/meter/lv_meter.c ****             }
 476:Middlewares/LVGL/GUI/lvgl/src/extra/widgets/meter/lv_meter.c **** 
ARM GAS  C:\Users\ADMINI~1\AppData\Local\Temp\ccVbA5cL.s 			page 41


 477:Middlewares/LVGL/GUI/lvgl/src/extra/widgets/meter/lv_meter.c ****             /*`* 256` for extra precision*/
 478:Middlewares/LVGL/GUI/lvgl/src/extra/widgets/meter/lv_meter.c ****             int32_t angle_upscale = ((i * scale->angle_range) << 8) / (scale->tick_cnt - 1);
 661              		.loc 1 478 13 is_stmt 1 view .LVU210
 662              		.loc 1 478 48 is_stmt 0 view .LVU211
 663 0136 BBF81E40 		ldrh	r4, [fp, #30]
 664              		.loc 1 478 41 view .LVU212
 665 013a 04FB08F4 		mul	r4, r4, r8
 666              		.loc 1 478 63 view .LVU213
 667 013e 2402     		lsls	r4, r4, #8
 668              		.loc 1 478 77 view .LVU214
 669 0140 BBF80280 		ldrh	r8, [fp, #2]
 670              		.loc 1 478 88 view .LVU215
 671 0144 08F1FF38 		add	r8, r8, #-1
 672              		.loc 1 478 21 view .LVU216
 673 0148 94FBF8F4 		sdiv	r4, r4, r8
 674              	.LVL71:
 479:Middlewares/LVGL/GUI/lvgl/src/extra/widgets/meter/lv_meter.c **** 
 480:Middlewares/LVGL/GUI/lvgl/src/extra/widgets/meter/lv_meter.c ****             int32_t angle_low = (angle_upscale >> 8);
 675              		.loc 1 480 13 is_stmt 1 view .LVU217
 676              		.loc 1 480 21 is_stmt 0 view .LVU218
 677 014c 2612     		asrs	r6, r4, #8
 678              	.LVL72:
 481:Middlewares/LVGL/GUI/lvgl/src/extra/widgets/meter/lv_meter.c ****             int32_t angle_high = angle_low + 1;
 679              		.loc 1 481 13 is_stmt 1 view .LVU219
 680              		.loc 1 481 21 is_stmt 0 view .LVU220
 681 014e 06F10108 		add	r8, r6, #1
 682              	.LVL73:
 482:Middlewares/LVGL/GUI/lvgl/src/extra/widgets/meter/lv_meter.c ****             int32_t angle_rem = angle_upscale & 0xFF;
 683              		.loc 1 482 13 is_stmt 1 view .LVU221
 684              		.loc 1 482 21 is_stmt 0 view .LVU222
 685 0152 E4B2     		uxtb	r4, r4
 686              	.LVL74:
 483:Middlewares/LVGL/GUI/lvgl/src/extra/widgets/meter/lv_meter.c **** 
 484:Middlewares/LVGL/GUI/lvgl/src/extra/widgets/meter/lv_meter.c ****             /*Interpolate sine and cos*/
 485:Middlewares/LVGL/GUI/lvgl/src/extra/widgets/meter/lv_meter.c ****             int32_t sin_low = lv_trigo_sin(angle_low + scale->rotation);
 687              		.loc 1 485 13 is_stmt 1 view .LVU223
 688              		.loc 1 485 61 is_stmt 0 view .LVU224
 689 0154 BBF82000 		ldrh	r0, [fp, #32]
 690              	.LVL75:
 691              		.loc 1 485 54 view .LVU225
 692 0158 B6B2     		uxth	r6, r6
 693              	.LVL76:
 694              		.loc 1 485 54 view .LVU226
 695 015a 3044     		add	r0, r0, r6
 696              		.loc 1 485 31 view .LVU227
 697 015c 00B2     		sxth	r0, r0
 698 015e FFF7FEFF 		bl	lv_trigo_sin
 699              	.LVL77:
 700              		.loc 1 485 31 view .LVU228
 701 0162 8146     		mov	r9, r0
 702              	.LVL78:
 486:Middlewares/LVGL/GUI/lvgl/src/extra/widgets/meter/lv_meter.c ****             int32_t sin_high = lv_trigo_sin(angle_high + scale->rotation);
 703              		.loc 1 486 13 is_stmt 1 view .LVU229
 704              		.loc 1 486 63 is_stmt 0 view .LVU230
 705 0164 BBF82000 		ldrh	r0, [fp, #32]
 706              	.LVL79:
 707              		.loc 1 486 56 view .LVU231
ARM GAS  C:\Users\ADMINI~1\AppData\Local\Temp\ccVbA5cL.s 			page 42


 708 0168 1FFA88F8 		uxth	r8, r8
 709              	.LVL80:
 710              		.loc 1 486 56 view .LVU232
 711 016c 4044     		add	r0, r0, r8
 712              		.loc 1 486 32 view .LVU233
 713 016e 00B2     		sxth	r0, r0
 714 0170 FFF7FEFF 		bl	lv_trigo_sin
 715              	.LVL81:
 487:Middlewares/LVGL/GUI/lvgl/src/extra/widgets/meter/lv_meter.c ****             int32_t sin_mid = (sin_low * (256 - angle_rem) + sin_high * angle_rem) >> 8;
 716              		.loc 1 487 13 is_stmt 1 view .LVU234
 717              		.loc 1 487 47 is_stmt 0 view .LVU235
 718 0174 C4F58073 		rsb	r3, r4, #256
 719              		.loc 1 487 71 view .LVU236
 720 0178 04FB00F0 		mul	r0, r4, r0
 721              	.LVL82:
 722              		.loc 1 487 60 view .LVU237
 723 017c 0A93     		str	r3, [sp, #40]
 724 017e 09FB0309 		mla	r9, r9, r3, r0
 725              	.LVL83:
 726              		.loc 1 487 21 view .LVU238
 727 0182 4FEA2929 		asr	r9, r9, #8
 728              	.LVL84:
 488:Middlewares/LVGL/GUI/lvgl/src/extra/widgets/meter/lv_meter.c **** 
 489:Middlewares/LVGL/GUI/lvgl/src/extra/widgets/meter/lv_meter.c ****             int32_t cos_low = lv_trigo_cos(angle_low + scale->rotation);
 729              		.loc 1 489 13 is_stmt 1 view .LVU239
 730              		.loc 1 489 61 is_stmt 0 view .LVU240
 731 0186 BBF82000 		ldrh	r0, [fp, #32]
 732              		.loc 1 489 54 view .LVU241
 733 018a 3044     		add	r0, r0, r6
 734 018c 80B2     		uxth	r0, r0
 735              	.LVL85:
 736              	.LBB83:
 737              	.LBI83:
 738              		.file 5 "Middlewares/LVGL/GUI/lvgl/src/extra/widgets/meter/../../../../src/misc/lv_math.h"
   1:Middlewares/LVGL/GUI/lvgl/src/extra/widgets/meter/../../../../src/misc/lv_math.h **** /**
   2:Middlewares/LVGL/GUI/lvgl/src/extra/widgets/meter/../../../../src/misc/lv_math.h ****  * @file lv_math.h
   3:Middlewares/LVGL/GUI/lvgl/src/extra/widgets/meter/../../../../src/misc/lv_math.h ****  *
   4:Middlewares/LVGL/GUI/lvgl/src/extra/widgets/meter/../../../../src/misc/lv_math.h ****  */
   5:Middlewares/LVGL/GUI/lvgl/src/extra/widgets/meter/../../../../src/misc/lv_math.h **** 
   6:Middlewares/LVGL/GUI/lvgl/src/extra/widgets/meter/../../../../src/misc/lv_math.h **** #ifndef LV_MATH_H
   7:Middlewares/LVGL/GUI/lvgl/src/extra/widgets/meter/../../../../src/misc/lv_math.h **** #define LV_MATH_H
   8:Middlewares/LVGL/GUI/lvgl/src/extra/widgets/meter/../../../../src/misc/lv_math.h **** 
   9:Middlewares/LVGL/GUI/lvgl/src/extra/widgets/meter/../../../../src/misc/lv_math.h **** #ifdef __cplusplus
  10:Middlewares/LVGL/GUI/lvgl/src/extra/widgets/meter/../../../../src/misc/lv_math.h **** extern "C" {
  11:Middlewares/LVGL/GUI/lvgl/src/extra/widgets/meter/../../../../src/misc/lv_math.h **** #endif
  12:Middlewares/LVGL/GUI/lvgl/src/extra/widgets/meter/../../../../src/misc/lv_math.h **** 
  13:Middlewares/LVGL/GUI/lvgl/src/extra/widgets/meter/../../../../src/misc/lv_math.h **** /*********************
  14:Middlewares/LVGL/GUI/lvgl/src/extra/widgets/meter/../../../../src/misc/lv_math.h ****  *      INCLUDES
  15:Middlewares/LVGL/GUI/lvgl/src/extra/widgets/meter/../../../../src/misc/lv_math.h ****  *********************/
  16:Middlewares/LVGL/GUI/lvgl/src/extra/widgets/meter/../../../../src/misc/lv_math.h **** #include "../lv_conf_internal.h"
  17:Middlewares/LVGL/GUI/lvgl/src/extra/widgets/meter/../../../../src/misc/lv_math.h **** #include <stdint.h>
  18:Middlewares/LVGL/GUI/lvgl/src/extra/widgets/meter/../../../../src/misc/lv_math.h **** 
  19:Middlewares/LVGL/GUI/lvgl/src/extra/widgets/meter/../../../../src/misc/lv_math.h **** /*********************
  20:Middlewares/LVGL/GUI/lvgl/src/extra/widgets/meter/../../../../src/misc/lv_math.h ****  *      DEFINES
  21:Middlewares/LVGL/GUI/lvgl/src/extra/widgets/meter/../../../../src/misc/lv_math.h ****  *********************/
  22:Middlewares/LVGL/GUI/lvgl/src/extra/widgets/meter/../../../../src/misc/lv_math.h **** #define LV_TRIGO_SIN_MAX 32767
  23:Middlewares/LVGL/GUI/lvgl/src/extra/widgets/meter/../../../../src/misc/lv_math.h **** #define LV_TRIGO_SHIFT 15 /**<  >> LV_TRIGO_SHIFT to normalize*/
ARM GAS  C:\Users\ADMINI~1\AppData\Local\Temp\ccVbA5cL.s 			page 43


  24:Middlewares/LVGL/GUI/lvgl/src/extra/widgets/meter/../../../../src/misc/lv_math.h **** 
  25:Middlewares/LVGL/GUI/lvgl/src/extra/widgets/meter/../../../../src/misc/lv_math.h **** #define LV_BEZIER_VAL_MAX 1024 /**< Max time in Bezier functions (not [0..1] to use integers)*/
  26:Middlewares/LVGL/GUI/lvgl/src/extra/widgets/meter/../../../../src/misc/lv_math.h **** #define LV_BEZIER_VAL_SHIFT 10 /**< log2(LV_BEZIER_VAL_MAX): used to normalize up scaled values*/
  27:Middlewares/LVGL/GUI/lvgl/src/extra/widgets/meter/../../../../src/misc/lv_math.h **** 
  28:Middlewares/LVGL/GUI/lvgl/src/extra/widgets/meter/../../../../src/misc/lv_math.h **** /**********************
  29:Middlewares/LVGL/GUI/lvgl/src/extra/widgets/meter/../../../../src/misc/lv_math.h ****  *      TYPEDEFS
  30:Middlewares/LVGL/GUI/lvgl/src/extra/widgets/meter/../../../../src/misc/lv_math.h ****  **********************/
  31:Middlewares/LVGL/GUI/lvgl/src/extra/widgets/meter/../../../../src/misc/lv_math.h **** 
  32:Middlewares/LVGL/GUI/lvgl/src/extra/widgets/meter/../../../../src/misc/lv_math.h **** typedef struct {
  33:Middlewares/LVGL/GUI/lvgl/src/extra/widgets/meter/../../../../src/misc/lv_math.h ****     uint16_t i;
  34:Middlewares/LVGL/GUI/lvgl/src/extra/widgets/meter/../../../../src/misc/lv_math.h ****     uint16_t f;
  35:Middlewares/LVGL/GUI/lvgl/src/extra/widgets/meter/../../../../src/misc/lv_math.h **** } lv_sqrt_res_t;
  36:Middlewares/LVGL/GUI/lvgl/src/extra/widgets/meter/../../../../src/misc/lv_math.h **** 
  37:Middlewares/LVGL/GUI/lvgl/src/extra/widgets/meter/../../../../src/misc/lv_math.h **** /**********************
  38:Middlewares/LVGL/GUI/lvgl/src/extra/widgets/meter/../../../../src/misc/lv_math.h ****  * GLOBAL PROTOTYPES
  39:Middlewares/LVGL/GUI/lvgl/src/extra/widgets/meter/../../../../src/misc/lv_math.h ****  **********************/
  40:Middlewares/LVGL/GUI/lvgl/src/extra/widgets/meter/../../../../src/misc/lv_math.h **** 
  41:Middlewares/LVGL/GUI/lvgl/src/extra/widgets/meter/../../../../src/misc/lv_math.h **** //! @cond Doxygen_Suppress
  42:Middlewares/LVGL/GUI/lvgl/src/extra/widgets/meter/../../../../src/misc/lv_math.h **** /**
  43:Middlewares/LVGL/GUI/lvgl/src/extra/widgets/meter/../../../../src/misc/lv_math.h ****  * Return with sinus of an angle
  44:Middlewares/LVGL/GUI/lvgl/src/extra/widgets/meter/../../../../src/misc/lv_math.h ****  * @param angle
  45:Middlewares/LVGL/GUI/lvgl/src/extra/widgets/meter/../../../../src/misc/lv_math.h ****  * @return sinus of 'angle'. sin(-90) = -32767, sin(90) = 32767
  46:Middlewares/LVGL/GUI/lvgl/src/extra/widgets/meter/../../../../src/misc/lv_math.h ****  */
  47:Middlewares/LVGL/GUI/lvgl/src/extra/widgets/meter/../../../../src/misc/lv_math.h **** LV_ATTRIBUTE_FAST_MEM int16_t lv_trigo_sin(int16_t angle);
  48:Middlewares/LVGL/GUI/lvgl/src/extra/widgets/meter/../../../../src/misc/lv_math.h **** 
  49:Middlewares/LVGL/GUI/lvgl/src/extra/widgets/meter/../../../../src/misc/lv_math.h **** static inline LV_ATTRIBUTE_FAST_MEM int16_t lv_trigo_cos(int16_t angle)
 739              		.loc 5 49 45 is_stmt 1 view .LVU242
 740              	.LBB84:
  50:Middlewares/LVGL/GUI/lvgl/src/extra/widgets/meter/../../../../src/misc/lv_math.h **** {
  51:Middlewares/LVGL/GUI/lvgl/src/extra/widgets/meter/../../../../src/misc/lv_math.h ****     return lv_trigo_sin(angle + 90);
 741              		.loc 5 51 5 view .LVU243
 742              		.loc 5 51 31 is_stmt 0 view .LVU244
 743 018e 5A30     		adds	r0, r0, #90
 744              	.LVL86:
 745              		.loc 5 51 12 view .LVU245
 746 0190 00B2     		sxth	r0, r0
 747              	.LVL87:
 748              		.loc 5 51 12 view .LVU246
 749 0192 FFF7FEFF 		bl	lv_trigo_sin
 750              	.LVL88:
 751              		.loc 5 51 12 view .LVU247
 752 0196 0646     		mov	r6, r0
 753              	.LVL89:
 754              		.loc 5 51 12 view .LVU248
 755              	.LBE84:
 756              	.LBE83:
 490:Middlewares/LVGL/GUI/lvgl/src/extra/widgets/meter/lv_meter.c ****             int32_t cos_high = lv_trigo_cos(angle_high + scale->rotation);
 757              		.loc 1 490 13 is_stmt 1 view .LVU249
 758              		.loc 1 490 63 is_stmt 0 view .LVU250
 759 0198 BBF82000 		ldrh	r0, [fp, #32]
 760              	.LVL90:
 761              		.loc 1 490 56 view .LVU251
 762 019c 4044     		add	r0, r0, r8
 763 019e 80B2     		uxth	r0, r0
 764              	.LVL91:
 765              	.LBB85:
 766              	.LBI85:
ARM GAS  C:\Users\ADMINI~1\AppData\Local\Temp\ccVbA5cL.s 			page 44


  49:Middlewares/LVGL/GUI/lvgl/src/extra/widgets/meter/../../../../src/misc/lv_math.h **** {
 767              		.loc 5 49 45 is_stmt 1 view .LVU252
 768              	.LBB86:
 769              		.loc 5 51 5 view .LVU253
 770              		.loc 5 51 31 is_stmt 0 view .LVU254
 771 01a0 5A30     		adds	r0, r0, #90
 772              	.LVL92:
 773              		.loc 5 51 12 view .LVU255
 774 01a2 00B2     		sxth	r0, r0
 775              	.LVL93:
 776              		.loc 5 51 12 view .LVU256
 777 01a4 FFF7FEFF 		bl	lv_trigo_sin
 778              	.LVL94:
 779              		.loc 5 51 12 view .LVU257
 780              	.LBE86:
 781              	.LBE85:
 491:Middlewares/LVGL/GUI/lvgl/src/extra/widgets/meter/lv_meter.c ****             int32_t cos_mid = (cos_low * (256 - angle_rem) + cos_high * angle_rem) >> 8;
 782              		.loc 1 491 13 is_stmt 1 view .LVU258
 783              		.loc 1 491 71 is_stmt 0 view .LVU259
 784 01a8 00FB04F4 		mul	r4, r0, r4
 785              	.LVL95:
 786              		.loc 1 491 60 view .LVU260
 787 01ac 0A9B     		ldr	r3, [sp, #40]
 788 01ae 06FB0346 		mla	r6, r6, r3, r4
 789              	.LVL96:
 790              		.loc 1 491 21 view .LVU261
 791 01b2 3612     		asrs	r6, r6, #8
 792              	.LVL97:
 492:Middlewares/LVGL/GUI/lvgl/src/extra/widgets/meter/lv_meter.c **** 
 493:Middlewares/LVGL/GUI/lvgl/src/extra/widgets/meter/lv_meter.c ****             line_dsc.color = line_color;
 793              		.loc 1 493 13 is_stmt 1 view .LVU262
 794              		.loc 1 493 28 is_stmt 0 view .LVU263
 795 01b4 ADF8BC51 		strh	r5, [sp, #444]	@ movhi
 494:Middlewares/LVGL/GUI/lvgl/src/extra/widgets/meter/lv_meter.c ****             line_dsc.width = line_width;
 796              		.loc 1 494 13 is_stmt 1 view .LVU264
 797              		.loc 1 494 28 is_stmt 0 view .LVU265
 798 01b8 CDF8C0A1 		str	r10, [sp, #448]
 495:Middlewares/LVGL/GUI/lvgl/src/extra/widgets/meter/lv_meter.c ****             /*Use the interpolated angle to get the outer x and y coordinates.
 496:Middlewares/LVGL/GUI/lvgl/src/extra/widgets/meter/lv_meter.c ****              *Draw a little bit longer lines to be sure the mask will clip them correctly*/
 497:Middlewares/LVGL/GUI/lvgl/src/extra/widgets/meter/lv_meter.c ****             lv_point_t p_outer;
 799              		.loc 1 497 13 is_stmt 1 view .LVU266
 498:Middlewares/LVGL/GUI/lvgl/src/extra/widgets/meter/lv_meter.c ****             p_outer.x = (int32_t)(((int32_t)cos_mid * (r_out + line_width) + 127) >> (LV_TRIGO_SHIF
 800              		.loc 1 498 13 view .LVU267
 801              		.loc 1 498 62 is_stmt 0 view .LVU268
 802 01bc 0E9B     		ldr	r3, [sp, #56]
 803 01be 5344     		add	r3, r10, r3
 804              		.loc 1 498 53 view .LVU269
 805 01c0 06FB03F1 		mul	r1, r6, r3
 806              		.loc 1 498 76 view .LVU270
 807 01c4 7F31     		adds	r1, r1, #127
 808              		.loc 1 498 114 view .LVU271
 809 01c6 749A     		ldr	r2, [sp, #464]
 810              		.loc 1 498 104 view .LVU272
 811 01c8 02EBE131 		add	r1, r2, r1, asr #15
 812              		.loc 1 498 23 view .LVU273
 813 01cc 12AA     		add	r2, sp, #72
 814 01ce 1291     		str	r1, [sp, #72]
ARM GAS  C:\Users\ADMINI~1\AppData\Local\Temp\ccVbA5cL.s 			page 45


 499:Middlewares/LVGL/GUI/lvgl/src/extra/widgets/meter/lv_meter.c ****             p_outer.y = (int32_t)(((int32_t)sin_mid * (r_out + line_width) + 127) >> (LV_TRIGO_SHIF
 815              		.loc 1 499 13 is_stmt 1 view .LVU274
 816              		.loc 1 499 53 is_stmt 0 view .LVU275
 817 01d0 09FB03F3 		mul	r3, r9, r3
 818              		.loc 1 499 76 view .LVU276
 819 01d4 7F33     		adds	r3, r3, #127
 820              		.loc 1 499 114 view .LVU277
 821 01d6 7599     		ldr	r1, [sp, #468]
 822              		.loc 1 499 104 view .LVU278
 823 01d8 01EBE333 		add	r3, r1, r3, asr #15
 824              		.loc 1 499 23 view .LVU279
 825 01dc 1393     		str	r3, [sp, #76]
 500:Middlewares/LVGL/GUI/lvgl/src/extra/widgets/meter/lv_meter.c **** 
 501:Middlewares/LVGL/GUI/lvgl/src/extra/widgets/meter/lv_meter.c ****             part_draw_dsc.p1 = &p_outer;
 826              		.loc 1 501 13 is_stmt 1 view .LVU280
 827              		.loc 1 501 30 is_stmt 0 view .LVU281
 828 01de 4092     		str	r2, [sp, #256]
 502:Middlewares/LVGL/GUI/lvgl/src/extra/widgets/meter/lv_meter.c ****             part_draw_dsc.p1 = &p_center;
 829              		.loc 1 502 13 is_stmt 1 view .LVU282
 830              		.loc 1 502 30 is_stmt 0 view .LVU283
 831 01e0 74AB     		add	r3, sp, #464
 832 01e2 4093     		str	r3, [sp, #256]
 503:Middlewares/LVGL/GUI/lvgl/src/extra/widgets/meter/lv_meter.c ****             part_draw_dsc.id = i;
 833              		.loc 1 503 13 is_stmt 1 view .LVU284
 834              		.loc 1 503 30 is_stmt 0 view .LVU285
 835 01e4 059B     		ldr	r3, [sp, #20]
 836 01e6 4593     		str	r3, [sp, #276]
 504:Middlewares/LVGL/GUI/lvgl/src/extra/widgets/meter/lv_meter.c ****             part_draw_dsc.label_dsc = &label_dsc;
 837              		.loc 1 504 13 is_stmt 1 view .LVU286
 838              		.loc 1 504 37 is_stmt 0 view .LVU287
 839 01e8 64AB     		add	r3, sp, #400
 840 01ea 3C93     		str	r3, [sp, #240]
 505:Middlewares/LVGL/GUI/lvgl/src/extra/widgets/meter/lv_meter.c **** 
 506:Middlewares/LVGL/GUI/lvgl/src/extra/widgets/meter/lv_meter.c ****             /*Draw the text*/
 507:Middlewares/LVGL/GUI/lvgl/src/extra/widgets/meter/lv_meter.c ****             if(major) {
 841              		.loc 1 507 13 is_stmt 1 view .LVU288
 842              		.loc 1 507 15 is_stmt 0 view .LVU289
 843 01ec 069B     		ldr	r3, [sp, #24]
 844 01ee 002B     		cmp	r3, #0
 845 01f0 00F0AA80 		beq	.L26
 846              	.LBB87:
 508:Middlewares/LVGL/GUI/lvgl/src/extra/widgets/meter/lv_meter.c ****                 lv_draw_mask_remove_id(outer_mask_id);
 847              		.loc 1 508 17 is_stmt 1 view .LVU290
 848 01f4 0D98     		ldr	r0, [sp, #52]
 849              	.LVL98:
 850              		.loc 1 508 17 is_stmt 0 view .LVU291
 851 01f6 FFF7FEFF 		bl	lv_draw_mask_remove_id
 852              	.LVL99:
 509:Middlewares/LVGL/GUI/lvgl/src/extra/widgets/meter/lv_meter.c ****                 uint32_t r_text = r_in_major - scale->label_gap;
 853              		.loc 1 509 17 is_stmt 1 view .LVU292
 854              		.loc 1 509 53 is_stmt 0 view .LVU293
 855 01fa BBF91040 		ldrsh	r4, [fp, #16]
 856              		.loc 1 509 46 view .LVU294
 857 01fe 0F9B     		ldr	r3, [sp, #60]
 858 0200 1C1B     		subs	r4, r3, r4
 859              	.LVL100:
 510:Middlewares/LVGL/GUI/lvgl/src/extra/widgets/meter/lv_meter.c ****                 lv_point_t p;
ARM GAS  C:\Users\ADMINI~1\AppData\Local\Temp\ccVbA5cL.s 			page 46


 860              		.loc 1 510 17 is_stmt 1 view .LVU295
 511:Middlewares/LVGL/GUI/lvgl/src/extra/widgets/meter/lv_meter.c ****                 p.x = (int32_t)((int32_t)((int32_t)cos_mid * r_text + 127) >> LV_TRIGO_SHIFT) + p_c
 861              		.loc 1 511 17 view .LVU296
 862              		.loc 1 511 60 is_stmt 0 view .LVU297
 863 0202 04FB06F6 		mul	r6, r4, r6
 864              	.LVL101:
 865              		.loc 1 511 69 view .LVU298
 866 0206 7F36     		adds	r6, r6, #127
 867              		.loc 1 511 105 view .LVU299
 868 0208 749D     		ldr	r5, [sp, #464]
 869              	.LVL102:
 870              		.loc 1 511 95 view .LVU300
 871 020a 05EBE635 		add	r5, r5, r6, asr #15
 872              		.loc 1 511 21 view .LVU301
 873 020e 1495     		str	r5, [sp, #80]
 512:Middlewares/LVGL/GUI/lvgl/src/extra/widgets/meter/lv_meter.c ****                 p.y = (int32_t)((int32_t)((int32_t)sin_mid * r_text + 127) >> LV_TRIGO_SHIFT) + p_c
 874              		.loc 1 512 17 is_stmt 1 view .LVU302
 875              		.loc 1 512 60 is_stmt 0 view .LVU303
 876 0210 04FB09F9 		mul	r9, r4, r9
 877              	.LVL103:
 878              		.loc 1 512 69 view .LVU304
 879 0214 09F17F09 		add	r9, r9, #127
 880              		.loc 1 512 105 view .LVU305
 881 0218 759C     		ldr	r4, [sp, #468]
 882              	.LVL104:
 883              		.loc 1 512 95 view .LVU306
 884 021a 04EBE934 		add	r4, r4, r9, asr #15
 885              		.loc 1 512 21 view .LVU307
 886 021e 1594     		str	r4, [sp, #84]
 513:Middlewares/LVGL/GUI/lvgl/src/extra/widgets/meter/lv_meter.c **** 
 514:Middlewares/LVGL/GUI/lvgl/src/extra/widgets/meter/lv_meter.c ****                 lv_draw_label_dsc_t label_dsc_tmp;
 887              		.loc 1 514 17 is_stmt 1 view .LVU308
 515:Middlewares/LVGL/GUI/lvgl/src/extra/widgets/meter/lv_meter.c ****                 lv_memcpy(&label_dsc_tmp, &label_dsc, sizeof(label_dsc_tmp));
 888              		.loc 1 515 17 view .LVU309
 889 0220 2CAE     		add	r6, sp, #176
 890 0222 2C22     		movs	r2, #44
 891 0224 64A9     		add	r1, sp, #400
 892 0226 3046     		mov	r0, r6
 893 0228 FFF7FEFF 		bl	lv_memcpy
 894              	.LVL105:
 516:Middlewares/LVGL/GUI/lvgl/src/extra/widgets/meter/lv_meter.c **** 
 517:Middlewares/LVGL/GUI/lvgl/src/extra/widgets/meter/lv_meter.c ****                 part_draw_dsc.label_dsc = &label_dsc_tmp;
 895              		.loc 1 517 17 view .LVU310
 896              		.loc 1 517 41 is_stmt 0 view .LVU311
 897 022c 3C96     		str	r6, [sp, #240]
 518:Middlewares/LVGL/GUI/lvgl/src/extra/widgets/meter/lv_meter.c ****                 char buf[16];
 898              		.loc 1 518 17 is_stmt 1 view .LVU312
 519:Middlewares/LVGL/GUI/lvgl/src/extra/widgets/meter/lv_meter.c **** 
 520:Middlewares/LVGL/GUI/lvgl/src/extra/widgets/meter/lv_meter.c ****                 lv_snprintf(buf, sizeof(buf), "%" LV_PRId32, value_of_line);
 899              		.loc 1 520 17 view .LVU313
 900 022e 24AE     		add	r6, sp, #144
 901 0230 3B46     		mov	r3, r7
 902 0232 4C4A     		ldr	r2, .L40+8
 903 0234 1021     		movs	r1, #16
 904 0236 3046     		mov	r0, r6
 905 0238 FFF7FEFF 		bl	lv_snprintf
 906              	.LVL106:
ARM GAS  C:\Users\ADMINI~1\AppData\Local\Temp\ccVbA5cL.s 			page 47


 521:Middlewares/LVGL/GUI/lvgl/src/extra/widgets/meter/lv_meter.c ****                 part_draw_dsc.text = buf;
 907              		.loc 1 521 17 view .LVU314
 908              		.loc 1 521 36 is_stmt 0 view .LVU315
 909 023c 4296     		str	r6, [sp, #264]
 522:Middlewares/LVGL/GUI/lvgl/src/extra/widgets/meter/lv_meter.c **** 
 523:Middlewares/LVGL/GUI/lvgl/src/extra/widgets/meter/lv_meter.c ****                 lv_event_send(obj, LV_EVENT_DRAW_PART_BEGIN, &part_draw_dsc);
 910              		.loc 1 523 17 is_stmt 1 view .LVU316
 911 023e 37AA     		add	r2, sp, #220
 912 0240 1A21     		movs	r1, #26
 913 0242 0798     		ldr	r0, [sp, #28]
 914 0244 FFF7FEFF 		bl	lv_event_send
 915              	.LVL107:
 524:Middlewares/LVGL/GUI/lvgl/src/extra/widgets/meter/lv_meter.c **** 
 525:Middlewares/LVGL/GUI/lvgl/src/extra/widgets/meter/lv_meter.c ****                 lv_point_t label_size;
 916              		.loc 1 525 17 view .LVU317
 526:Middlewares/LVGL/GUI/lvgl/src/extra/widgets/meter/lv_meter.c ****                 lv_txt_get_size(&label_size, part_draw_dsc.text, label_dsc.font, label_dsc.letter_s
 917              		.loc 1 526 17 view .LVU318
 918 0248 0026     		movs	r6, #0
 919 024a 0296     		str	r6, [sp, #8]
 920 024c 6FF06043 		mvn	r3, #-536870912
 921 0250 0193     		str	r3, [sp, #4]
 922 0252 699B     		ldr	r3, [sp, #420]
 923 0254 0093     		str	r3, [sp]
 924 0256 6A9B     		ldr	r3, [sp, #424]
 925 0258 649A     		ldr	r2, [sp, #400]
 926 025a 4299     		ldr	r1, [sp, #264]
 927 025c 16A8     		add	r0, sp, #88
 928 025e FFF7FEFF 		bl	lv_txt_get_size
 929              	.LVL108:
 527:Middlewares/LVGL/GUI/lvgl/src/extra/widgets/meter/lv_meter.c ****                                 LV_COORD_MAX, LV_TEXT_FLAG_NONE);
 528:Middlewares/LVGL/GUI/lvgl/src/extra/widgets/meter/lv_meter.c **** 
 529:Middlewares/LVGL/GUI/lvgl/src/extra/widgets/meter/lv_meter.c ****                 lv_area_t label_cord;
 930              		.loc 1 529 17 view .LVU319
 530:Middlewares/LVGL/GUI/lvgl/src/extra/widgets/meter/lv_meter.c ****                 label_cord.x1 = p.x - label_size.x / 2;
 931              		.loc 1 530 17 view .LVU320
 932              		.loc 1 530 49 is_stmt 0 view .LVU321
 933 0262 169A     		ldr	r2, [sp, #88]
 934              		.loc 1 530 52 view .LVU322
 935 0264 02EBD273 		add	r3, r2, r2, lsr #31
 936              		.loc 1 530 37 view .LVU323
 937 0268 A5EB6305 		sub	r5, r5, r3, asr #1
 938              		.loc 1 530 31 view .LVU324
 939 026c 2895     		str	r5, [sp, #160]
 531:Middlewares/LVGL/GUI/lvgl/src/extra/widgets/meter/lv_meter.c ****                 label_cord.y1 = p.y - label_size.y / 2;
 940              		.loc 1 531 17 is_stmt 1 view .LVU325
 941              		.loc 1 531 49 is_stmt 0 view .LVU326
 942 026e 179B     		ldr	r3, [sp, #92]
 943              		.loc 1 531 52 view .LVU327
 944 0270 03EBD371 		add	r1, r3, r3, lsr #31
 945              		.loc 1 531 37 view .LVU328
 946 0274 A4EB6104 		sub	r4, r4, r1, asr #1
 947              		.loc 1 531 31 view .LVU329
 948 0278 2994     		str	r4, [sp, #164]
 532:Middlewares/LVGL/GUI/lvgl/src/extra/widgets/meter/lv_meter.c ****                 label_cord.x2 = label_cord.x1 + label_size.x;
 949              		.loc 1 532 17 is_stmt 1 view .LVU330
 950              		.loc 1 532 47 is_stmt 0 view .LVU331
 951 027a 2A44     		add	r2, r2, r5
ARM GAS  C:\Users\ADMINI~1\AppData\Local\Temp\ccVbA5cL.s 			page 48


 952              		.loc 1 532 31 view .LVU332
 953 027c 2A92     		str	r2, [sp, #168]
 533:Middlewares/LVGL/GUI/lvgl/src/extra/widgets/meter/lv_meter.c ****                 label_cord.y2 = label_cord.y1 + label_size.y;
 954              		.loc 1 533 17 is_stmt 1 view .LVU333
 955              		.loc 1 533 47 is_stmt 0 view .LVU334
 956 027e 2344     		add	r3, r3, r4
 957              		.loc 1 533 31 view .LVU335
 958 0280 2B93     		str	r3, [sp, #172]
 534:Middlewares/LVGL/GUI/lvgl/src/extra/widgets/meter/lv_meter.c **** 
 535:Middlewares/LVGL/GUI/lvgl/src/extra/widgets/meter/lv_meter.c ****                 lv_draw_label(draw_ctx, part_draw_dsc.label_dsc, &label_cord, part_draw_dsc.text, N
 959              		.loc 1 535 17 is_stmt 1 view .LVU336
 960 0282 0096     		str	r6, [sp]
 961 0284 429B     		ldr	r3, [sp, #264]
 962 0286 28AA     		add	r2, sp, #160
 963 0288 3C99     		ldr	r1, [sp, #240]
 964 028a 0C98     		ldr	r0, [sp, #48]
 965 028c FFF7FEFF 		bl	lv_draw_label
 966              	.LVL109:
 536:Middlewares/LVGL/GUI/lvgl/src/extra/widgets/meter/lv_meter.c **** 
 537:Middlewares/LVGL/GUI/lvgl/src/extra/widgets/meter/lv_meter.c ****                 outer_mask_id = lv_draw_mask_add(&outer_mask, NULL);
 967              		.loc 1 537 17 view .LVU337
 968              		.loc 1 537 33 is_stmt 0 view .LVU338
 969 0290 3146     		mov	r1, r6
 970 0292 49A8     		add	r0, sp, #292
 971 0294 FFF7FEFF 		bl	lv_draw_mask_add
 972              	.LVL110:
 973 0298 0D90     		str	r0, [sp, #52]
 974              	.LVL111:
 975              	.L27:
 976              		.loc 1 537 33 view .LVU339
 977              	.LBE87:
 538:Middlewares/LVGL/GUI/lvgl/src/extra/widgets/meter/lv_meter.c ****             }
 539:Middlewares/LVGL/GUI/lvgl/src/extra/widgets/meter/lv_meter.c ****             else {
 540:Middlewares/LVGL/GUI/lvgl/src/extra/widgets/meter/lv_meter.c ****                 part_draw_dsc.label_dsc = NULL;
 541:Middlewares/LVGL/GUI/lvgl/src/extra/widgets/meter/lv_meter.c ****                 part_draw_dsc.text = NULL;
 542:Middlewares/LVGL/GUI/lvgl/src/extra/widgets/meter/lv_meter.c ****                 lv_event_send(obj, LV_EVENT_DRAW_PART_BEGIN, &part_draw_dsc);
 543:Middlewares/LVGL/GUI/lvgl/src/extra/widgets/meter/lv_meter.c ****             }
 544:Middlewares/LVGL/GUI/lvgl/src/extra/widgets/meter/lv_meter.c **** 
 545:Middlewares/LVGL/GUI/lvgl/src/extra/widgets/meter/lv_meter.c ****             inner_act_mask_id = lv_draw_mask_add(major ? &inner_major_mask : &inner_minor_mask, NUL
 978              		.loc 1 545 13 is_stmt 1 view .LVU340
 979              		.loc 1 545 33 is_stmt 0 view .LVU341
 980 029a 069B     		ldr	r3, [sp, #24]
 981 029c 002B     		cmp	r3, #0
 982 029e 63D0     		beq	.L34
 983 02a0 52A8     		add	r0, sp, #328
 984              	.L28:
 985              		.loc 1 545 33 discriminator 4 view .LVU342
 986 02a2 0021     		movs	r1, #0
 987 02a4 FFF7FEFF 		bl	lv_draw_mask_add
 988              	.LVL112:
 989 02a8 0446     		mov	r4, r0
 990              	.LVL113:
 546:Middlewares/LVGL/GUI/lvgl/src/extra/widgets/meter/lv_meter.c ****             lv_draw_line(draw_ctx, &line_dsc, &p_outer, &p_center);
 991              		.loc 1 546 13 is_stmt 1 discriminator 4 view .LVU343
 992 02aa 74AB     		add	r3, sp, #464
 993 02ac 12AA     		add	r2, sp, #72
 994 02ae 6FA9     		add	r1, sp, #444
ARM GAS  C:\Users\ADMINI~1\AppData\Local\Temp\ccVbA5cL.s 			page 49


 995 02b0 0C98     		ldr	r0, [sp, #48]
 996 02b2 FFF7FEFF 		bl	lv_draw_line
 997              	.LVL114:
 547:Middlewares/LVGL/GUI/lvgl/src/extra/widgets/meter/lv_meter.c ****             lv_draw_mask_remove_id(inner_act_mask_id);
 998              		.loc 1 547 13 discriminator 4 view .LVU344
 999 02b6 2046     		mov	r0, r4
 1000 02b8 FFF7FEFF 		bl	lv_draw_mask_remove_id
 1001              	.LVL115:
 548:Middlewares/LVGL/GUI/lvgl/src/extra/widgets/meter/lv_meter.c ****             lv_event_send(obj, LV_EVENT_DRAW_MAIN_END, &part_draw_dsc);
 1002              		.loc 1 548 13 discriminator 4 view .LVU345
 1003 02bc 37AA     		add	r2, sp, #220
 1004 02be 1621     		movs	r1, #22
 1005 02c0 0798     		ldr	r0, [sp, #28]
 1006 02c2 FFF7FEFF 		bl	lv_event_send
 1007              	.LVL116:
 549:Middlewares/LVGL/GUI/lvgl/src/extra/widgets/meter/lv_meter.c **** 
 550:Middlewares/LVGL/GUI/lvgl/src/extra/widgets/meter/lv_meter.c ****             line_dsc.color = line_color_ori;
 1008              		.loc 1 550 13 discriminator 4 view .LVU346
 1009              		.loc 1 550 28 is_stmt 0 discriminator 4 view .LVU347
 1010 02c6 BDF82E30 		ldrh	r3, [sp, #46]
 1011              	.LVL117:
 1012              		.loc 1 550 28 discriminator 4 view .LVU348
 1013 02ca ADF8BC31 		strh	r3, [sp, #444]	@ movhi
 551:Middlewares/LVGL/GUI/lvgl/src/extra/widgets/meter/lv_meter.c ****             line_dsc.width = line_width_ori;
 1014              		.loc 1 551 13 is_stmt 1 discriminator 4 view .LVU349
 1015              		.loc 1 551 28 is_stmt 0 discriminator 4 view .LVU350
 1016 02ce 089B     		ldr	r3, [sp, #32]
 1017              	.LVL118:
 1018              		.loc 1 551 28 discriminator 4 view .LVU351
 1019 02d0 7093     		str	r3, [sp, #448]
 1020              	.LBE78:
 438:Middlewares/LVGL/GUI/lvgl/src/extra/widgets/meter/lv_meter.c ****             minor_cnt++;
 1021              		.loc 1 438 41 is_stmt 1 discriminator 4 view .LVU352
 438:Middlewares/LVGL/GUI/lvgl/src/extra/widgets/meter/lv_meter.c ****             minor_cnt++;
 1022              		.loc 1 438 42 is_stmt 0 discriminator 4 view .LVU353
 1023 02d2 059B     		ldr	r3, [sp, #20]
 1024 02d4 0133     		adds	r3, r3, #1
 1025 02d6 DBB2     		uxtb	r3, r3
 1026 02d8 0593     		str	r3, [sp, #20]
 1027              	.LVL119:
 1028              	.L29:
 438:Middlewares/LVGL/GUI/lvgl/src/extra/widgets/meter/lv_meter.c ****             minor_cnt++;
 1029              		.loc 1 438 20 is_stmt 1 discriminator 2 view .LVU354
 438:Middlewares/LVGL/GUI/lvgl/src/extra/widgets/meter/lv_meter.c ****             minor_cnt++;
 1030              		.loc 1 438 22 is_stmt 0 discriminator 2 view .LVU355
 1031 02da BDF81430 		ldrh	r3, [sp, #20]
 438:Middlewares/LVGL/GUI/lvgl/src/extra/widgets/meter/lv_meter.c ****             minor_cnt++;
 1032              		.loc 1 438 29 discriminator 2 view .LVU356
 1033 02de BBF80220 		ldrh	r2, [fp, #2]
 438:Middlewares/LVGL/GUI/lvgl/src/extra/widgets/meter/lv_meter.c ****             minor_cnt++;
 1034              		.loc 1 438 9 discriminator 2 view .LVU357
 1035 02e2 9342     		cmp	r3, r2
 1036 02e4 4AD2     		bcs	.L38
 1037              	.LBB88:
 439:Middlewares/LVGL/GUI/lvgl/src/extra/widgets/meter/lv_meter.c ****             bool major = false;
 1038              		.loc 1 439 13 is_stmt 1 view .LVU358
 439:Middlewares/LVGL/GUI/lvgl/src/extra/widgets/meter/lv_meter.c ****             bool major = false;
ARM GAS  C:\Users\ADMINI~1\AppData\Local\Temp\ccVbA5cL.s 			page 50


 1039              		.loc 1 439 22 is_stmt 0 view .LVU359
 1040 02e6 099B     		ldr	r3, [sp, #36]
 1041 02e8 0133     		adds	r3, r3, #1
 1042 02ea 1946     		mov	r1, r3
 1043 02ec 0993     		str	r3, [sp, #36]
 1044              	.LVL120:
 440:Middlewares/LVGL/GUI/lvgl/src/extra/widgets/meter/lv_meter.c ****             if(minor_cnt == scale->tick_major_nth) {
 1045              		.loc 1 440 13 is_stmt 1 view .LVU360
 441:Middlewares/LVGL/GUI/lvgl/src/extra/widgets/meter/lv_meter.c ****                 minor_cnt = 0;
 1046              		.loc 1 441 13 view .LVU361
 441:Middlewares/LVGL/GUI/lvgl/src/extra/widgets/meter/lv_meter.c ****                 minor_cnt = 0;
 1047              		.loc 1 441 34 is_stmt 0 view .LVU362
 1048 02ee BBF80A30 		ldrh	r3, [fp, #10]
 441:Middlewares/LVGL/GUI/lvgl/src/extra/widgets/meter/lv_meter.c ****                 minor_cnt = 0;
 1049              		.loc 1 441 15 view .LVU363
 1050 02f2 8B42     		cmp	r3, r1
 1051 02f4 3FF4D0AE 		beq	.L33
 440:Middlewares/LVGL/GUI/lvgl/src/extra/widgets/meter/lv_meter.c ****             if(minor_cnt == scale->tick_major_nth) {
 1052              		.loc 1 440 18 view .LVU364
 1053 02f8 0023     		movs	r3, #0
 1054 02fa 0693     		str	r3, [sp, #24]
 1055              	.L15:
 1056              	.LVL121:
 446:Middlewares/LVGL/GUI/lvgl/src/extra/widgets/meter/lv_meter.c ****             part_draw_dsc.value = value_of_line;
 1057              		.loc 1 446 13 is_stmt 1 view .LVU365
 446:Middlewares/LVGL/GUI/lvgl/src/extra/widgets/meter/lv_meter.c ****             part_draw_dsc.value = value_of_line;
 1058              		.loc 1 446 37 is_stmt 0 view .LVU366
 1059 02fc 0598     		ldr	r0, [sp, #20]
 1060 02fe 8046     		mov	r8, r0
 1061 0300 DBF81430 		ldr	r3, [fp, #20]
 1062 0304 DBF81810 		ldr	r1, [fp, #24]
 1063 0308 0091     		str	r1, [sp]
 1064 030a 013A     		subs	r2, r2, #1
 1065 030c 0021     		movs	r1, #0
 1066 030e FFF7FEFF 		bl	lv_map
 1067              	.LVL122:
 1068 0312 0746     		mov	r7, r0
 1069              	.LVL123:
 447:Middlewares/LVGL/GUI/lvgl/src/extra/widgets/meter/lv_meter.c **** 
 1070              		.loc 1 447 13 is_stmt 1 view .LVU367
 447:Middlewares/LVGL/GUI/lvgl/src/extra/widgets/meter/lv_meter.c **** 
 1071              		.loc 1 447 33 is_stmt 0 view .LVU368
 1072 0314 4790     		str	r0, [sp, #284]
 449:Middlewares/LVGL/GUI/lvgl/src/extra/widgets/meter/lv_meter.c ****             lv_color_t line_color_ori = line_color;
 1073              		.loc 1 449 13 is_stmt 1 view .LVU369
 449:Middlewares/LVGL/GUI/lvgl/src/extra/widgets/meter/lv_meter.c ****             lv_color_t line_color_ori = line_color;
 1074              		.loc 1 449 24 is_stmt 0 view .LVU370
 1075 0316 069B     		ldr	r3, [sp, #24]
 1076 0318 002B     		cmp	r3, #0
 1077 031a 3FF4C2AE 		beq	.L16
 449:Middlewares/LVGL/GUI/lvgl/src/extra/widgets/meter/lv_meter.c ****             lv_color_t line_color_ori = line_color;
 1078              		.loc 1 449 24 discriminator 1 view .LVU371
 1079 031e BBF80850 		ldrh	r5, [fp, #8]
 1080              	.LVL124:
 1081              	.L17:
 450:Middlewares/LVGL/GUI/lvgl/src/extra/widgets/meter/lv_meter.c **** 
 1082              		.loc 1 450 13 is_stmt 1 view .LVU372
ARM GAS  C:\Users\ADMINI~1\AppData\Local\Temp\ccVbA5cL.s 			page 51


 450:Middlewares/LVGL/GUI/lvgl/src/extra/widgets/meter/lv_meter.c **** 
 1083              		.loc 1 450 24 is_stmt 0 view .LVU373
 1084 0322 ADF82E50 		strh	r5, [sp, #46]	@ movhi
 452:Middlewares/LVGL/GUI/lvgl/src/extra/widgets/meter/lv_meter.c ****             lv_coord_t line_width = line_width_ori;
 1085              		.loc 1 452 13 is_stmt 1 view .LVU374
 452:Middlewares/LVGL/GUI/lvgl/src/extra/widgets/meter/lv_meter.c ****             lv_coord_t line_width = line_width_ori;
 1086              		.loc 1 452 73 is_stmt 0 view .LVU375
 1087 0326 069B     		ldr	r3, [sp, #24]
 1088 0328 002B     		cmp	r3, #0
 1089 032a 3FF4BDAE 		beq	.L18
 452:Middlewares/LVGL/GUI/lvgl/src/extra/widgets/meter/lv_meter.c ****             lv_coord_t line_width = line_width_ori;
 1090              		.loc 1 452 54 discriminator 1 view .LVU376
 1091 032e BBF80E30 		ldrh	r3, [fp, #14]
 1092 0332 0893     		str	r3, [sp, #32]
 1093              	.L19:
 1094              	.LVL125:
 453:Middlewares/LVGL/GUI/lvgl/src/extra/widgets/meter/lv_meter.c **** 
 1095              		.loc 1 453 13 is_stmt 1 discriminator 4 view .LVU377
 455:Middlewares/LVGL/GUI/lvgl/src/extra/widgets/meter/lv_meter.c ****             _LV_LL_READ_BACK(&meter->indicator_ll, indic) {
 1096              		.loc 1 455 13 discriminator 4 view .LVU378
 456:Middlewares/LVGL/GUI/lvgl/src/extra/widgets/meter/lv_meter.c ****                 if(indic->type != LV_METER_INDICATOR_TYPE_SCALE_LINES) continue;
 1097              		.loc 1 456 13 discriminator 4 view .LVU379
 1098 0334 079B     		ldr	r3, [sp, #28]
 1099 0336 03F13806 		add	r6, r3, #56
 1100 033a 3046     		mov	r0, r6
 1101              	.LVL126:
 456:Middlewares/LVGL/GUI/lvgl/src/extra/widgets/meter/lv_meter.c ****                 if(indic->type != LV_METER_INDICATOR_TYPE_SCALE_LINES) continue;
 1102              		.loc 1 456 13 is_stmt 0 discriminator 4 view .LVU380
 1103 033c FFF7FEFF 		bl	_lv_ll_get_tail
 1104              	.LVL127:
 1105 0340 0446     		mov	r4, r0
 1106              	.LVL128:
 453:Middlewares/LVGL/GUI/lvgl/src/extra/widgets/meter/lv_meter.c **** 
 1107              		.loc 1 453 24 discriminator 4 view .LVU381
 1108 0342 DDF820A0 		ldr	r10, [sp, #32]
 456:Middlewares/LVGL/GUI/lvgl/src/extra/widgets/meter/lv_meter.c ****                 if(indic->type != LV_METER_INDICATOR_TYPE_SCALE_LINES) continue;
 1109              		.loc 1 456 13 discriminator 4 view .LVU382
 1110 0346 D9E6     		b	.L20
 1111              	.LVL129:
 1112              	.L26:
 540:Middlewares/LVGL/GUI/lvgl/src/extra/widgets/meter/lv_meter.c ****                 part_draw_dsc.text = NULL;
 1113              		.loc 1 540 17 is_stmt 1 view .LVU383
 540:Middlewares/LVGL/GUI/lvgl/src/extra/widgets/meter/lv_meter.c ****                 part_draw_dsc.text = NULL;
 1114              		.loc 1 540 41 is_stmt 0 view .LVU384
 1115 0348 0023     		movs	r3, #0
 1116 034a 3C93     		str	r3, [sp, #240]
 541:Middlewares/LVGL/GUI/lvgl/src/extra/widgets/meter/lv_meter.c ****                 lv_event_send(obj, LV_EVENT_DRAW_PART_BEGIN, &part_draw_dsc);
 1117              		.loc 1 541 17 is_stmt 1 view .LVU385
 541:Middlewares/LVGL/GUI/lvgl/src/extra/widgets/meter/lv_meter.c ****                 lv_event_send(obj, LV_EVENT_DRAW_PART_BEGIN, &part_draw_dsc);
 1118              		.loc 1 541 36 is_stmt 0 view .LVU386
 1119 034c 4293     		str	r3, [sp, #264]
 542:Middlewares/LVGL/GUI/lvgl/src/extra/widgets/meter/lv_meter.c ****             }
 1120              		.loc 1 542 17 is_stmt 1 view .LVU387
 1121 034e 37AA     		add	r2, sp, #220
 1122 0350 1A21     		movs	r1, #26
 1123 0352 0798     		ldr	r0, [sp, #28]
 1124              	.LVL130:
ARM GAS  C:\Users\ADMINI~1\AppData\Local\Temp\ccVbA5cL.s 			page 52


 542:Middlewares/LVGL/GUI/lvgl/src/extra/widgets/meter/lv_meter.c ****             }
 1125              		.loc 1 542 17 is_stmt 0 view .LVU388
 1126 0354 FFF7FEFF 		bl	lv_event_send
 1127              	.LVL131:
 1128 0358 9FE7     		b	.L27
 1129              	.L41:
 1130 035a 00BF     		.align	2
 1131              	.L40:
 1132 035c 00000000 		.word	.LANCHOR0
 1133 0360 1FF8E007 		.word	132184095
 1134 0364 00000000 		.word	.LC0
 1135              	.LVL132:
 1136              	.L34:
 545:Middlewares/LVGL/GUI/lvgl/src/extra/widgets/meter/lv_meter.c ****             lv_draw_line(draw_ctx, &line_dsc, &p_outer, &p_center);
 1137              		.loc 1 545 33 view .LVU389
 1138 0368 5BA8     		add	r0, sp, #364
 1139 036a 9AE7     		b	.L28
 1140              	.LVL133:
 1141              	.L32:
 545:Middlewares/LVGL/GUI/lvgl/src/extra/widgets/meter/lv_meter.c ****             lv_draw_line(draw_ctx, &line_dsc, &p_outer, &p_center);
 1142              		.loc 1 545 33 view .LVU390
 1143              	.LBE88:
 437:Middlewares/LVGL/GUI/lvgl/src/extra/widgets/meter/lv_meter.c ****         for(i = 0; i < scale->tick_cnt; i++) {
 1144              		.loc 1 437 80 view .LVU391
 1145 036c 4FF6FF73 		movw	r3, #65535
 1146 0370 0993     		str	r3, [sp, #36]
 1147              	.L14:
 437:Middlewares/LVGL/GUI/lvgl/src/extra/widgets/meter/lv_meter.c ****         for(i = 0; i < scale->tick_cnt; i++) {
 1148              		.loc 1 437 80 discriminator 2 view .LVU392
 1149 0372 4FF0000A 		mov	r10, #0
 1150 0376 CDF814A0 		str	r10, [sp, #20]
 1151 037a AEE7     		b	.L29
 1152              	.LVL134:
 1153              	.L38:
 552:Middlewares/LVGL/GUI/lvgl/src/extra/widgets/meter/lv_meter.c **** 
 553:Middlewares/LVGL/GUI/lvgl/src/extra/widgets/meter/lv_meter.c ****         }
 554:Middlewares/LVGL/GUI/lvgl/src/extra/widgets/meter/lv_meter.c ****         lv_draw_mask_free_param(&inner_minor_mask);
 1154              		.loc 1 554 9 is_stmt 1 discriminator 2 view .LVU393
 1155 037c 5BA8     		add	r0, sp, #364
 1156 037e FFF7FEFF 		bl	lv_draw_mask_free_param
 1157              	.LVL135:
 555:Middlewares/LVGL/GUI/lvgl/src/extra/widgets/meter/lv_meter.c ****         lv_draw_mask_free_param(&inner_major_mask);
 1158              		.loc 1 555 9 discriminator 2 view .LVU394
 1159 0382 52A8     		add	r0, sp, #328
 1160 0384 FFF7FEFF 		bl	lv_draw_mask_free_param
 1161              	.LVL136:
 556:Middlewares/LVGL/GUI/lvgl/src/extra/widgets/meter/lv_meter.c ****         lv_draw_mask_free_param(&outer_mask);
 1162              		.loc 1 556 9 discriminator 2 view .LVU395
 1163 0388 49A8     		add	r0, sp, #292
 1164 038a FFF7FEFF 		bl	lv_draw_mask_free_param
 1165              	.LVL137:
 557:Middlewares/LVGL/GUI/lvgl/src/extra/widgets/meter/lv_meter.c ****         lv_draw_mask_remove_id(outer_mask_id);
 1166              		.loc 1 557 9 discriminator 2 view .LVU396
 1167 038e 0D98     		ldr	r0, [sp, #52]
 1168 0390 FFF7FEFF 		bl	lv_draw_mask_remove_id
 1169              	.LVL138:
 1170              	.LBE77:
ARM GAS  C:\Users\ADMINI~1\AppData\Local\Temp\ccVbA5cL.s 			page 53


 406:Middlewares/LVGL/GUI/lvgl/src/extra/widgets/meter/lv_meter.c ****         part_draw_dsc.sub_part_ptr = scale;
 1171              		.loc 1 406 5 discriminator 2 view .LVU397
 1172 0394 5946     		mov	r1, fp
 1173 0396 1198     		ldr	r0, [sp, #68]
 1174 0398 FFF7FEFF 		bl	_lv_ll_get_prev
 1175              	.LVL139:
 1176 039c 8346     		mov	fp, r0
 1177              	.LVL140:
 1178              	.L13:
 406:Middlewares/LVGL/GUI/lvgl/src/extra/widgets/meter/lv_meter.c ****         part_draw_dsc.sub_part_ptr = scale;
 1179              		.loc 1 406 5 discriminator 1 view .LVU398
 1180 039e BBF1000F 		cmp	fp, #0
 1181 03a2 50D0     		beq	.L39
 1182              	.LBB89:
 407:Middlewares/LVGL/GUI/lvgl/src/extra/widgets/meter/lv_meter.c **** 
 1183              		.loc 1 407 9 view .LVU399
 407:Middlewares/LVGL/GUI/lvgl/src/extra/widgets/meter/lv_meter.c **** 
 1184              		.loc 1 407 36 is_stmt 0 view .LVU400
 1185 03a4 CDF820B1 		str	fp, [sp, #288]
 409:Middlewares/LVGL/GUI/lvgl/src/extra/widgets/meter/lv_meter.c ****         lv_coord_t r_in_minor = r_out - scale->tick_length;
 1186              		.loc 1 409 9 is_stmt 1 view .LVU401
 409:Middlewares/LVGL/GUI/lvgl/src/extra/widgets/meter/lv_meter.c ****         lv_coord_t r_in_minor = r_out - scale->tick_length;
 1187              		.loc 1 409 42 is_stmt 0 view .LVU402
 1188 03a8 BBF91C30 		ldrsh	r3, [fp, #28]
 409:Middlewares/LVGL/GUI/lvgl/src/extra/widgets/meter/lv_meter.c ****         lv_coord_t r_in_minor = r_out - scale->tick_length;
 1189              		.loc 1 409 20 view .LVU403
 1190 03ac 109A     		ldr	r2, [sp, #64]
 1191 03ae 9C18     		adds	r4, r3, r2
 1192 03b0 0E94     		str	r4, [sp, #56]
 1193              	.LVL141:
 410:Middlewares/LVGL/GUI/lvgl/src/extra/widgets/meter/lv_meter.c ****         lv_coord_t r_in_major = r_out - scale->tick_major_length;
 1194              		.loc 1 410 9 is_stmt 1 view .LVU404
 410:Middlewares/LVGL/GUI/lvgl/src/extra/widgets/meter/lv_meter.c ****         lv_coord_t r_in_major = r_out - scale->tick_major_length;
 1195              		.loc 1 410 46 is_stmt 0 view .LVU405
 1196 03b2 BBF80430 		ldrh	r3, [fp, #4]
 410:Middlewares/LVGL/GUI/lvgl/src/extra/widgets/meter/lv_meter.c ****         lv_coord_t r_in_major = r_out - scale->tick_major_length;
 1197              		.loc 1 410 20 view .LVU406
 1198 03b6 E31A     		subs	r3, r4, r3
 1199              	.LVL142:
 411:Middlewares/LVGL/GUI/lvgl/src/extra/widgets/meter/lv_meter.c **** 
 1200              		.loc 1 411 9 is_stmt 1 view .LVU407
 411:Middlewares/LVGL/GUI/lvgl/src/extra/widgets/meter/lv_meter.c **** 
 1201              		.loc 1 411 46 is_stmt 0 view .LVU408
 1202 03b8 BBF80C20 		ldrh	r2, [fp, #12]
 411:Middlewares/LVGL/GUI/lvgl/src/extra/widgets/meter/lv_meter.c **** 
 1203              		.loc 1 411 20 view .LVU409
 1204 03bc A51A     		subs	r5, r4, r2
 1205              	.LVL143:
 411:Middlewares/LVGL/GUI/lvgl/src/extra/widgets/meter/lv_meter.c **** 
 1206              		.loc 1 411 20 view .LVU410
 1207 03be 0F95     		str	r5, [sp, #60]
 1208              	.LVL144:
 413:Middlewares/LVGL/GUI/lvgl/src/extra/widgets/meter/lv_meter.c ****         area_inner_minor.x1 = p_center.x - r_in_minor;
 1209              		.loc 1 413 9 is_stmt 1 view .LVU411
 414:Middlewares/LVGL/GUI/lvgl/src/extra/widgets/meter/lv_meter.c ****         area_inner_minor.y1 = p_center.y - r_in_minor;
 1210              		.loc 1 414 9 view .LVU412
 414:Middlewares/LVGL/GUI/lvgl/src/extra/widgets/meter/lv_meter.c ****         area_inner_minor.y1 = p_center.y - r_in_minor;
ARM GAS  C:\Users\ADMINI~1\AppData\Local\Temp\ccVbA5cL.s 			page 54


 1211              		.loc 1 414 39 is_stmt 0 view .LVU413
 1212 03c0 7499     		ldr	r1, [sp, #464]
 414:Middlewares/LVGL/GUI/lvgl/src/extra/widgets/meter/lv_meter.c ****         area_inner_minor.y1 = p_center.y - r_in_minor;
 1213              		.loc 1 414 42 view .LVU414
 1214 03c2 CA1A     		subs	r2, r1, r3
 414:Middlewares/LVGL/GUI/lvgl/src/extra/widgets/meter/lv_meter.c ****         area_inner_minor.y1 = p_center.y - r_in_minor;
 1215              		.loc 1 414 29 view .LVU415
 1216 03c4 1892     		str	r2, [sp, #96]
 415:Middlewares/LVGL/GUI/lvgl/src/extra/widgets/meter/lv_meter.c ****         area_inner_minor.x2 = p_center.x + r_in_minor;
 1217              		.loc 1 415 9 is_stmt 1 view .LVU416
 415:Middlewares/LVGL/GUI/lvgl/src/extra/widgets/meter/lv_meter.c ****         area_inner_minor.x2 = p_center.x + r_in_minor;
 1218              		.loc 1 415 39 is_stmt 0 view .LVU417
 1219 03c6 759A     		ldr	r2, [sp, #468]
 415:Middlewares/LVGL/GUI/lvgl/src/extra/widgets/meter/lv_meter.c ****         area_inner_minor.x2 = p_center.x + r_in_minor;
 1220              		.loc 1 415 42 view .LVU418
 1221 03c8 D01A     		subs	r0, r2, r3
 1222              	.LVL145:
 415:Middlewares/LVGL/GUI/lvgl/src/extra/widgets/meter/lv_meter.c ****         area_inner_minor.x2 = p_center.x + r_in_minor;
 1223              		.loc 1 415 29 view .LVU419
 1224 03ca 1990     		str	r0, [sp, #100]
 416:Middlewares/LVGL/GUI/lvgl/src/extra/widgets/meter/lv_meter.c ****         area_inner_minor.y2 = p_center.y + r_in_minor;
 1225              		.loc 1 416 9 is_stmt 1 view .LVU420
 416:Middlewares/LVGL/GUI/lvgl/src/extra/widgets/meter/lv_meter.c ****         area_inner_minor.y2 = p_center.y + r_in_minor;
 1226              		.loc 1 416 42 is_stmt 0 view .LVU421
 1227 03cc 1944     		add	r1, r1, r3
 416:Middlewares/LVGL/GUI/lvgl/src/extra/widgets/meter/lv_meter.c ****         area_inner_minor.y2 = p_center.y + r_in_minor;
 1228              		.loc 1 416 29 view .LVU422
 1229 03ce 1A91     		str	r1, [sp, #104]
 417:Middlewares/LVGL/GUI/lvgl/src/extra/widgets/meter/lv_meter.c ****         lv_draw_mask_radius_init(&inner_minor_mask, &area_inner_minor, LV_RADIUS_CIRCLE, true);
 1230              		.loc 1 417 9 is_stmt 1 view .LVU423
 417:Middlewares/LVGL/GUI/lvgl/src/extra/widgets/meter/lv_meter.c ****         lv_draw_mask_radius_init(&inner_minor_mask, &area_inner_minor, LV_RADIUS_CIRCLE, true);
 1231              		.loc 1 417 42 is_stmt 0 view .LVU424
 1232 03d0 1344     		add	r3, r3, r2
 1233              	.LVL146:
 417:Middlewares/LVGL/GUI/lvgl/src/extra/widgets/meter/lv_meter.c ****         lv_draw_mask_radius_init(&inner_minor_mask, &area_inner_minor, LV_RADIUS_CIRCLE, true);
 1234              		.loc 1 417 29 view .LVU425
 1235 03d2 1B93     		str	r3, [sp, #108]
 418:Middlewares/LVGL/GUI/lvgl/src/extra/widgets/meter/lv_meter.c **** 
 1236              		.loc 1 418 9 is_stmt 1 view .LVU426
 1237 03d4 0123     		movs	r3, #1
 1238 03d6 47F6FF72 		movw	r2, #32767
 1239 03da 18A9     		add	r1, sp, #96
 1240 03dc 5BA8     		add	r0, sp, #364
 1241 03de FFF7FEFF 		bl	lv_draw_mask_radius_init
 1242              	.LVL147:
 420:Middlewares/LVGL/GUI/lvgl/src/extra/widgets/meter/lv_meter.c ****         area_inner_major.x1 = p_center.x - r_in_major;
 1243              		.loc 1 420 9 view .LVU427
 421:Middlewares/LVGL/GUI/lvgl/src/extra/widgets/meter/lv_meter.c ****         area_inner_major.y1 = p_center.y - r_in_major;
 1244              		.loc 1 421 9 view .LVU428
 421:Middlewares/LVGL/GUI/lvgl/src/extra/widgets/meter/lv_meter.c ****         area_inner_major.y1 = p_center.y - r_in_major;
 1245              		.loc 1 421 39 is_stmt 0 view .LVU429
 1246 03e2 749A     		ldr	r2, [sp, #464]
 421:Middlewares/LVGL/GUI/lvgl/src/extra/widgets/meter/lv_meter.c ****         area_inner_major.y1 = p_center.y - r_in_major;
 1247              		.loc 1 421 42 view .LVU430
 1248 03e4 531B     		subs	r3, r2, r5
 421:Middlewares/LVGL/GUI/lvgl/src/extra/widgets/meter/lv_meter.c ****         area_inner_major.y1 = p_center.y - r_in_major;
 1249              		.loc 1 421 29 view .LVU431
ARM GAS  C:\Users\ADMINI~1\AppData\Local\Temp\ccVbA5cL.s 			page 55


 1250 03e6 1C93     		str	r3, [sp, #112]
 422:Middlewares/LVGL/GUI/lvgl/src/extra/widgets/meter/lv_meter.c ****         area_inner_major.x2 = p_center.x + r_in_major - 1;
 1251              		.loc 1 422 9 is_stmt 1 view .LVU432
 422:Middlewares/LVGL/GUI/lvgl/src/extra/widgets/meter/lv_meter.c ****         area_inner_major.x2 = p_center.x + r_in_major - 1;
 1252              		.loc 1 422 39 is_stmt 0 view .LVU433
 1253 03e8 759B     		ldr	r3, [sp, #468]
 422:Middlewares/LVGL/GUI/lvgl/src/extra/widgets/meter/lv_meter.c ****         area_inner_major.x2 = p_center.x + r_in_major - 1;
 1254              		.loc 1 422 42 view .LVU434
 1255 03ea 591B     		subs	r1, r3, r5
 422:Middlewares/LVGL/GUI/lvgl/src/extra/widgets/meter/lv_meter.c ****         area_inner_major.x2 = p_center.x + r_in_major - 1;
 1256              		.loc 1 422 29 view .LVU435
 1257 03ec 1D91     		str	r1, [sp, #116]
 423:Middlewares/LVGL/GUI/lvgl/src/extra/widgets/meter/lv_meter.c ****         area_inner_major.y2 = p_center.y + r_in_major - 1;
 1258              		.loc 1 423 9 is_stmt 1 view .LVU436
 423:Middlewares/LVGL/GUI/lvgl/src/extra/widgets/meter/lv_meter.c ****         area_inner_major.y2 = p_center.y + r_in_major - 1;
 1259              		.loc 1 423 42 is_stmt 0 view .LVU437
 1260 03ee 2A44     		add	r2, r2, r5
 423:Middlewares/LVGL/GUI/lvgl/src/extra/widgets/meter/lv_meter.c ****         area_inner_major.y2 = p_center.y + r_in_major - 1;
 1261              		.loc 1 423 55 view .LVU438
 1262 03f0 013A     		subs	r2, r2, #1
 423:Middlewares/LVGL/GUI/lvgl/src/extra/widgets/meter/lv_meter.c ****         area_inner_major.y2 = p_center.y + r_in_major - 1;
 1263              		.loc 1 423 29 view .LVU439
 1264 03f2 1E92     		str	r2, [sp, #120]
 424:Middlewares/LVGL/GUI/lvgl/src/extra/widgets/meter/lv_meter.c ****         lv_draw_mask_radius_init(&inner_major_mask, &area_inner_major, LV_RADIUS_CIRCLE, true);
 1265              		.loc 1 424 9 is_stmt 1 view .LVU440
 424:Middlewares/LVGL/GUI/lvgl/src/extra/widgets/meter/lv_meter.c ****         lv_draw_mask_radius_init(&inner_major_mask, &area_inner_major, LV_RADIUS_CIRCLE, true);
 1266              		.loc 1 424 42 is_stmt 0 view .LVU441
 1267 03f4 2B44     		add	r3, r3, r5
 424:Middlewares/LVGL/GUI/lvgl/src/extra/widgets/meter/lv_meter.c ****         lv_draw_mask_radius_init(&inner_major_mask, &area_inner_major, LV_RADIUS_CIRCLE, true);
 1268              		.loc 1 424 55 view .LVU442
 1269 03f6 013B     		subs	r3, r3, #1
 424:Middlewares/LVGL/GUI/lvgl/src/extra/widgets/meter/lv_meter.c ****         lv_draw_mask_radius_init(&inner_major_mask, &area_inner_major, LV_RADIUS_CIRCLE, true);
 1270              		.loc 1 424 29 view .LVU443
 1271 03f8 1F93     		str	r3, [sp, #124]
 425:Middlewares/LVGL/GUI/lvgl/src/extra/widgets/meter/lv_meter.c **** 
 1272              		.loc 1 425 9 is_stmt 1 view .LVU444
 1273 03fa 0123     		movs	r3, #1
 1274 03fc 47F6FF72 		movw	r2, #32767
 1275 0400 1CA9     		add	r1, sp, #112
 1276 0402 52A8     		add	r0, sp, #328
 1277 0404 FFF7FEFF 		bl	lv_draw_mask_radius_init
 1278              	.LVL148:
 427:Middlewares/LVGL/GUI/lvgl/src/extra/widgets/meter/lv_meter.c ****         area_outer.x1 = p_center.x - r_out;
 1279              		.loc 1 427 9 view .LVU445
 428:Middlewares/LVGL/GUI/lvgl/src/extra/widgets/meter/lv_meter.c ****         area_outer.y1 = p_center.y - r_out;
 1280              		.loc 1 428 9 view .LVU446
 428:Middlewares/LVGL/GUI/lvgl/src/extra/widgets/meter/lv_meter.c ****         area_outer.y1 = p_center.y - r_out;
 1281              		.loc 1 428 33 is_stmt 0 view .LVU447
 1282 0408 749A     		ldr	r2, [sp, #464]
 428:Middlewares/LVGL/GUI/lvgl/src/extra/widgets/meter/lv_meter.c ****         area_outer.y1 = p_center.y - r_out;
 1283              		.loc 1 428 36 view .LVU448
 1284 040a 131B     		subs	r3, r2, r4
 428:Middlewares/LVGL/GUI/lvgl/src/extra/widgets/meter/lv_meter.c ****         area_outer.y1 = p_center.y - r_out;
 1285              		.loc 1 428 23 view .LVU449
 1286 040c 2093     		str	r3, [sp, #128]
 429:Middlewares/LVGL/GUI/lvgl/src/extra/widgets/meter/lv_meter.c ****         area_outer.x2 = p_center.x + r_out - 1;
 1287              		.loc 1 429 9 is_stmt 1 view .LVU450
ARM GAS  C:\Users\ADMINI~1\AppData\Local\Temp\ccVbA5cL.s 			page 56


 429:Middlewares/LVGL/GUI/lvgl/src/extra/widgets/meter/lv_meter.c ****         area_outer.x2 = p_center.x + r_out - 1;
 1288              		.loc 1 429 33 is_stmt 0 view .LVU451
 1289 040e 759B     		ldr	r3, [sp, #468]
 429:Middlewares/LVGL/GUI/lvgl/src/extra/widgets/meter/lv_meter.c ****         area_outer.x2 = p_center.x + r_out - 1;
 1290              		.loc 1 429 36 view .LVU452
 1291 0410 191B     		subs	r1, r3, r4
 429:Middlewares/LVGL/GUI/lvgl/src/extra/widgets/meter/lv_meter.c ****         area_outer.x2 = p_center.x + r_out - 1;
 1292              		.loc 1 429 23 view .LVU453
 1293 0412 2191     		str	r1, [sp, #132]
 430:Middlewares/LVGL/GUI/lvgl/src/extra/widgets/meter/lv_meter.c ****         area_outer.y2 = p_center.y + r_out - 1;
 1294              		.loc 1 430 9 is_stmt 1 view .LVU454
 430:Middlewares/LVGL/GUI/lvgl/src/extra/widgets/meter/lv_meter.c ****         area_outer.y2 = p_center.y + r_out - 1;
 1295              		.loc 1 430 36 is_stmt 0 view .LVU455
 1296 0414 2244     		add	r2, r2, r4
 430:Middlewares/LVGL/GUI/lvgl/src/extra/widgets/meter/lv_meter.c ****         area_outer.y2 = p_center.y + r_out - 1;
 1297              		.loc 1 430 44 view .LVU456
 1298 0416 013A     		subs	r2, r2, #1
 430:Middlewares/LVGL/GUI/lvgl/src/extra/widgets/meter/lv_meter.c ****         area_outer.y2 = p_center.y + r_out - 1;
 1299              		.loc 1 430 23 view .LVU457
 1300 0418 2292     		str	r2, [sp, #136]
 431:Middlewares/LVGL/GUI/lvgl/src/extra/widgets/meter/lv_meter.c ****         lv_draw_mask_radius_init(&outer_mask, &area_outer, LV_RADIUS_CIRCLE, false);
 1301              		.loc 1 431 9 is_stmt 1 view .LVU458
 431:Middlewares/LVGL/GUI/lvgl/src/extra/widgets/meter/lv_meter.c ****         lv_draw_mask_radius_init(&outer_mask, &area_outer, LV_RADIUS_CIRCLE, false);
 1302              		.loc 1 431 36 is_stmt 0 view .LVU459
 1303 041a 2344     		add	r3, r3, r4
 431:Middlewares/LVGL/GUI/lvgl/src/extra/widgets/meter/lv_meter.c ****         lv_draw_mask_radius_init(&outer_mask, &area_outer, LV_RADIUS_CIRCLE, false);
 1304              		.loc 1 431 44 view .LVU460
 1305 041c 013B     		subs	r3, r3, #1
 431:Middlewares/LVGL/GUI/lvgl/src/extra/widgets/meter/lv_meter.c ****         lv_draw_mask_radius_init(&outer_mask, &area_outer, LV_RADIUS_CIRCLE, false);
 1306              		.loc 1 431 23 view .LVU461
 1307 041e 2393     		str	r3, [sp, #140]
 432:Middlewares/LVGL/GUI/lvgl/src/extra/widgets/meter/lv_meter.c ****         int16_t outer_mask_id = lv_draw_mask_add(&outer_mask, NULL);
 1308              		.loc 1 432 9 is_stmt 1 view .LVU462
 1309 0420 0023     		movs	r3, #0
 1310 0422 47F6FF72 		movw	r2, #32767
 1311 0426 20A9     		add	r1, sp, #128
 1312 0428 49A8     		add	r0, sp, #292
 1313 042a FFF7FEFF 		bl	lv_draw_mask_radius_init
 1314              	.LVL149:
 433:Middlewares/LVGL/GUI/lvgl/src/extra/widgets/meter/lv_meter.c **** 
 1315              		.loc 1 433 9 view .LVU463
 433:Middlewares/LVGL/GUI/lvgl/src/extra/widgets/meter/lv_meter.c **** 
 1316              		.loc 1 433 33 is_stmt 0 view .LVU464
 1317 042e 0021     		movs	r1, #0
 1318 0430 49A8     		add	r0, sp, #292
 1319 0432 FFF7FEFF 		bl	lv_draw_mask_add
 1320              	.LVL150:
 1321 0436 0D90     		str	r0, [sp, #52]
 1322              	.LVL151:
 435:Middlewares/LVGL/GUI/lvgl/src/extra/widgets/meter/lv_meter.c **** 
 1323              		.loc 1 435 9 is_stmt 1 view .LVU465
 437:Middlewares/LVGL/GUI/lvgl/src/extra/widgets/meter/lv_meter.c ****         for(i = 0; i < scale->tick_cnt; i++) {
 1324              		.loc 1 437 9 view .LVU466
 437:Middlewares/LVGL/GUI/lvgl/src/extra/widgets/meter/lv_meter.c ****         for(i = 0; i < scale->tick_cnt; i++) {
 1325              		.loc 1 437 35 is_stmt 0 view .LVU467
 1326 0438 BBF80A30 		ldrh	r3, [fp, #10]
 437:Middlewares/LVGL/GUI/lvgl/src/extra/widgets/meter/lv_meter.c ****         for(i = 0; i < scale->tick_cnt; i++) {
ARM GAS  C:\Users\ADMINI~1\AppData\Local\Temp\ccVbA5cL.s 			page 57


 1327              		.loc 1 437 80 view .LVU468
 1328 043c 002B     		cmp	r3, #0
 1329 043e 95D0     		beq	.L32
 437:Middlewares/LVGL/GUI/lvgl/src/extra/widgets/meter/lv_meter.c ****         for(i = 0; i < scale->tick_cnt; i++) {
 1330              		.loc 1 437 76 discriminator 1 view .LVU469
 1331 0440 013B     		subs	r3, r3, #1
 1332 0442 0993     		str	r3, [sp, #36]
 1333 0444 95E7     		b	.L14
 1334              	.LVL152:
 1335              	.L39:
 437:Middlewares/LVGL/GUI/lvgl/src/extra/widgets/meter/lv_meter.c ****         for(i = 0; i < scale->tick_cnt; i++) {
 1336              		.loc 1 437 76 discriminator 1 view .LVU470
 1337              	.LBE89:
 558:Middlewares/LVGL/GUI/lvgl/src/extra/widgets/meter/lv_meter.c ****     }
 559:Middlewares/LVGL/GUI/lvgl/src/extra/widgets/meter/lv_meter.c **** }
 1338              		.loc 1 559 1 view .LVU471
 1339 0446 77B0     		add	sp, sp, #476
 1340              	.LCFI5:
 1341              		.cfi_def_cfa_offset 36
 1342              		@ sp needed
 1343 0448 BDE8F08F 		pop	{r4, r5, r6, r7, r8, r9, r10, fp, pc}
 1344              		.loc 1 559 1 view .LVU472
 1345              		.cfi_endproc
 1346              	.LFE212:
 1348              		.section	.text.draw_needles,"ax",%progbits
 1349              		.align	1
 1350              		.syntax unified
 1351              		.thumb
 1352              		.thumb_func
 1354              	draw_needles:
 1355              	.LVL153:
 1356              	.LFB213:
 560:Middlewares/LVGL/GUI/lvgl/src/extra/widgets/meter/lv_meter.c **** 
 561:Middlewares/LVGL/GUI/lvgl/src/extra/widgets/meter/lv_meter.c **** 
 562:Middlewares/LVGL/GUI/lvgl/src/extra/widgets/meter/lv_meter.c **** static void draw_needles(lv_obj_t * obj, lv_draw_ctx_t * draw_ctx, const lv_area_t * scale_area)
 563:Middlewares/LVGL/GUI/lvgl/src/extra/widgets/meter/lv_meter.c **** {
 1357              		.loc 1 563 1 is_stmt 1 view -0
 1358              		.cfi_startproc
 1359              		@ args = 0, pretend = 0, frame = 160
 1360              		@ frame_needed = 0, uses_anonymous_args = 0
 1361              		.loc 1 563 1 is_stmt 0 view .LVU474
 1362 0000 2DE9F04F 		push	{r4, r5, r6, r7, r8, r9, r10, fp, lr}
 1363              	.LCFI6:
 1364              		.cfi_def_cfa_offset 36
 1365              		.cfi_offset 4, -36
 1366              		.cfi_offset 5, -32
 1367              		.cfi_offset 6, -28
 1368              		.cfi_offset 7, -24
 1369              		.cfi_offset 8, -20
 1370              		.cfi_offset 9, -16
 1371              		.cfi_offset 10, -12
 1372              		.cfi_offset 11, -8
 1373              		.cfi_offset 14, -4
 1374 0004 ABB0     		sub	sp, sp, #172
 1375              	.LCFI7:
 1376              		.cfi_def_cfa_offset 208
 1377 0006 0546     		mov	r5, r0
ARM GAS  C:\Users\ADMINI~1\AppData\Local\Temp\ccVbA5cL.s 			page 58


 1378 0008 8A46     		mov	r10, r1
 564:Middlewares/LVGL/GUI/lvgl/src/extra/widgets/meter/lv_meter.c ****     lv_meter_t * meter = (lv_meter_t *)obj;
 1379              		.loc 1 564 5 is_stmt 1 view .LVU475
 1380              	.LVL154:
 565:Middlewares/LVGL/GUI/lvgl/src/extra/widgets/meter/lv_meter.c **** 
 566:Middlewares/LVGL/GUI/lvgl/src/extra/widgets/meter/lv_meter.c ****     lv_coord_t r_edge = lv_area_get_width(scale_area) / 2;
 1381              		.loc 1 566 5 view .LVU476
 1382              	.LBB90:
 1383              	.LBI90:
 123:Middlewares/LVGL/GUI/lvgl/src/extra/widgets/meter/../../../../src/hal/../draw/../misc/../font/../misc/lv_area.h **** {
 1384              		.loc 3 123 26 view .LVU477
 1385              	.LBB91:
 125:Middlewares/LVGL/GUI/lvgl/src/extra/widgets/meter/../../../../src/hal/../draw/../misc/../font/../misc/lv_area.h **** }
 1386              		.loc 3 125 5 view .LVU478
 125:Middlewares/LVGL/GUI/lvgl/src/extra/widgets/meter/../../../../src/hal/../draw/../misc/../font/../misc/lv_area.h **** }
 1387              		.loc 3 125 31 is_stmt 0 view .LVU479
 1388 000a 9368     		ldr	r3, [r2, #8]
 125:Middlewares/LVGL/GUI/lvgl/src/extra/widgets/meter/../../../../src/hal/../draw/../misc/../font/../misc/lv_area.h **** }
 1389              		.loc 3 125 44 view .LVU480
 1390 000c 1168     		ldr	r1, [r2]
 1391              	.LVL155:
 125:Middlewares/LVGL/GUI/lvgl/src/extra/widgets/meter/../../../../src/hal/../draw/../misc/../font/../misc/lv_area.h **** }
 1392              		.loc 3 125 36 view .LVU481
 1393 000e 5B1A     		subs	r3, r3, r1
 125:Middlewares/LVGL/GUI/lvgl/src/extra/widgets/meter/../../../../src/hal/../draw/../misc/../font/../misc/lv_area.h **** }
 1394              		.loc 3 125 12 view .LVU482
 1395 0010 0133     		adds	r3, r3, #1
 1396              	.LVL156:
 125:Middlewares/LVGL/GUI/lvgl/src/extra/widgets/meter/../../../../src/hal/../draw/../misc/../font/../misc/lv_area.h **** }
 1397              		.loc 3 125 12 view .LVU483
 1398              	.LBE91:
 1399              	.LBE90:
 1400              		.loc 1 566 16 view .LVU484
 1401 0012 03EBD373 		add	r3, r3, r3, lsr #31
 1402 0016 4FEA630B 		asr	fp, r3, #1
 1403              	.LVL157:
 567:Middlewares/LVGL/GUI/lvgl/src/extra/widgets/meter/lv_meter.c ****     lv_point_t scale_center;
 1404              		.loc 1 567 5 is_stmt 1 view .LVU485
 568:Middlewares/LVGL/GUI/lvgl/src/extra/widgets/meter/lv_meter.c ****     scale_center.x = scale_area->x1 + r_edge;
 1405              		.loc 1 568 5 view .LVU486
 1406              		.loc 1 568 37 is_stmt 0 view .LVU487
 1407 001a 01EB6301 		add	r1, r1, r3, asr #1
 1408              		.loc 1 568 20 view .LVU488
 1409 001e 2891     		str	r1, [sp, #160]
 569:Middlewares/LVGL/GUI/lvgl/src/extra/widgets/meter/lv_meter.c ****     scale_center.y = scale_area->y1 + r_edge;
 1410              		.loc 1 569 5 is_stmt 1 view .LVU489
 1411              		.loc 1 569 32 is_stmt 0 view .LVU490
 1412 0020 5268     		ldr	r2, [r2, #4]
 1413              	.LVL158:
 1414              		.loc 1 569 37 view .LVU491
 1415 0022 02EB6303 		add	r3, r2, r3, asr #1
 1416              		.loc 1 569 20 view .LVU492
 1417 0026 2993     		str	r3, [sp, #164]
 570:Middlewares/LVGL/GUI/lvgl/src/extra/widgets/meter/lv_meter.c **** 
 571:Middlewares/LVGL/GUI/lvgl/src/extra/widgets/meter/lv_meter.c ****     lv_draw_line_dsc_t line_dsc;
 1418              		.loc 1 571 5 is_stmt 1 view .LVU493
 572:Middlewares/LVGL/GUI/lvgl/src/extra/widgets/meter/lv_meter.c ****     lv_draw_line_dsc_init(&line_dsc);
ARM GAS  C:\Users\ADMINI~1\AppData\Local\Temp\ccVbA5cL.s 			page 59


 1419              		.loc 1 572 5 view .LVU494
 1420 0028 23A8     		add	r0, sp, #140
 1421              	.LVL159:
 1422              		.loc 1 572 5 is_stmt 0 view .LVU495
 1423 002a FFF7FEFF 		bl	lv_draw_line_dsc_init
 1424              	.LVL160:
 573:Middlewares/LVGL/GUI/lvgl/src/extra/widgets/meter/lv_meter.c ****     lv_obj_init_draw_line_dsc(obj, LV_PART_ITEMS, &line_dsc);
 1425              		.loc 1 573 5 is_stmt 1 view .LVU496
 1426 002e 23AA     		add	r2, sp, #140
 1427 0030 4FF4A021 		mov	r1, #327680
 1428 0034 2846     		mov	r0, r5
 1429 0036 FFF7FEFF 		bl	lv_obj_init_draw_line_dsc
 1430              	.LVL161:
 574:Middlewares/LVGL/GUI/lvgl/src/extra/widgets/meter/lv_meter.c **** 
 575:Middlewares/LVGL/GUI/lvgl/src/extra/widgets/meter/lv_meter.c ****     lv_draw_img_dsc_t img_dsc;
 1431              		.loc 1 575 5 view .LVU497
 576:Middlewares/LVGL/GUI/lvgl/src/extra/widgets/meter/lv_meter.c ****     lv_draw_img_dsc_init(&img_dsc);
 1432              		.loc 1 576 5 view .LVU498
 1433 003a 1CA8     		add	r0, sp, #112
 1434 003c FFF7FEFF 		bl	lv_draw_img_dsc_init
 1435              	.LVL162:
 577:Middlewares/LVGL/GUI/lvgl/src/extra/widgets/meter/lv_meter.c ****     lv_obj_init_draw_img_dsc(obj, LV_PART_ITEMS, &img_dsc);
 1436              		.loc 1 577 5 view .LVU499
 1437 0040 1CAA     		add	r2, sp, #112
 1438 0042 4FF4A021 		mov	r1, #327680
 1439 0046 2846     		mov	r0, r5
 1440 0048 FFF7FEFF 		bl	lv_obj_init_draw_img_dsc
 1441              	.LVL163:
 578:Middlewares/LVGL/GUI/lvgl/src/extra/widgets/meter/lv_meter.c ****     lv_opa_t opa_main = lv_obj_get_style_opa(obj, LV_PART_MAIN);
 1442              		.loc 1 578 5 view .LVU500
 1443              	.LBB92:
 1444              	.LBI92:
 493:Middlewares/LVGL/GUI/lvgl/src/extra/widgets/meter/../../../../src/core/lv_obj_style_gen.h **** {
 1445              		.loc 2 493 24 view .LVU501
 1446              	.LBB93:
 495:Middlewares/LVGL/GUI/lvgl/src/extra/widgets/meter/../../../../src/core/lv_obj_style_gen.h ****     return (lv_opa_t)v.num;
 1447              		.loc 2 495 5 view .LVU502
 495:Middlewares/LVGL/GUI/lvgl/src/extra/widgets/meter/../../../../src/core/lv_obj_style_gen.h ****     return (lv_opa_t)v.num;
 1448              		.loc 2 495 26 is_stmt 0 view .LVU503
 1449 004c 40F26242 		movw	r2, #1122
 1450 0050 0021     		movs	r1, #0
 1451 0052 2846     		mov	r0, r5
 1452 0054 FFF7FEFF 		bl	lv_obj_get_style_prop
 1453              	.LVL164:
 1454 0058 0290     		str	r0, [sp, #8]
 1455              		.loc 2 496 5 is_stmt 1 view .LVU504
 1456              		.loc 2 496 12 is_stmt 0 view .LVU505
 1457 005a C3B2     		uxtb	r3, r0
 1458 005c 0393     		str	r3, [sp, #12]
 1459              	.LVL165:
 1460              		.loc 2 496 12 view .LVU506
 1461              	.LBE93:
 1462              	.LBE92:
 579:Middlewares/LVGL/GUI/lvgl/src/extra/widgets/meter/lv_meter.c **** 
 580:Middlewares/LVGL/GUI/lvgl/src/extra/widgets/meter/lv_meter.c ****     lv_obj_draw_part_dsc_t part_draw_dsc;
 1463              		.loc 1 580 5 is_stmt 1 view .LVU507
 581:Middlewares/LVGL/GUI/lvgl/src/extra/widgets/meter/lv_meter.c ****     lv_obj_draw_dsc_init(&part_draw_dsc, draw_ctx);
ARM GAS  C:\Users\ADMINI~1\AppData\Local\Temp\ccVbA5cL.s 			page 60


 1464              		.loc 1 581 5 view .LVU508
 1465 005e 5146     		mov	r1, r10
 1466 0060 0AA8     		add	r0, sp, #40
 1467 0062 FFF7FEFF 		bl	lv_obj_draw_dsc_init
 1468              	.LVL166:
 582:Middlewares/LVGL/GUI/lvgl/src/extra/widgets/meter/lv_meter.c ****     part_draw_dsc.class_p = MY_CLASS;
 1469              		.loc 1 582 5 view .LVU509
 1470              		.loc 1 582 27 is_stmt 0 view .LVU510
 1471 0066 634B     		ldr	r3, .L56
 1472 0068 0B93     		str	r3, [sp, #44]
 583:Middlewares/LVGL/GUI/lvgl/src/extra/widgets/meter/lv_meter.c ****     part_draw_dsc.p1 = &scale_center;
 1473              		.loc 1 583 5 is_stmt 1 view .LVU511
 1474              		.loc 1 583 22 is_stmt 0 view .LVU512
 1475 006a 28AB     		add	r3, sp, #160
 1476 006c 1393     		str	r3, [sp, #76]
 584:Middlewares/LVGL/GUI/lvgl/src/extra/widgets/meter/lv_meter.c **** 
 585:Middlewares/LVGL/GUI/lvgl/src/extra/widgets/meter/lv_meter.c ****     lv_meter_indicator_t * indic;
 1477              		.loc 1 585 5 is_stmt 1 view .LVU513
 586:Middlewares/LVGL/GUI/lvgl/src/extra/widgets/meter/lv_meter.c ****     _LV_LL_READ_BACK(&meter->indicator_ll, indic) {
 1478              		.loc 1 586 5 view .LVU514
 1479 006e 05F13809 		add	r9, r5, #56
 1480 0072 4846     		mov	r0, r9
 1481 0074 FFF7FEFF 		bl	_lv_ll_get_tail
 1482              	.LVL167:
 1483 0078 0446     		mov	r4, r0
 1484              	.LVL168:
 1485              		.loc 1 586 5 is_stmt 0 view .LVU515
 1486 007a 72E0     		b	.L43
 1487              	.LVL169:
 1488              	.L55:
 1489              	.LBB94:
 1490              	.LBB95:
 587:Middlewares/LVGL/GUI/lvgl/src/extra/widgets/meter/lv_meter.c ****         lv_meter_scale_t * scale = indic->scale;
 588:Middlewares/LVGL/GUI/lvgl/src/extra/widgets/meter/lv_meter.c ****         part_draw_dsc.sub_part_ptr = indic;
 589:Middlewares/LVGL/GUI/lvgl/src/extra/widgets/meter/lv_meter.c **** 
 590:Middlewares/LVGL/GUI/lvgl/src/extra/widgets/meter/lv_meter.c ****         if(indic->type == LV_METER_INDICATOR_TYPE_NEEDLE_LINE) {
 591:Middlewares/LVGL/GUI/lvgl/src/extra/widgets/meter/lv_meter.c ****             int32_t angle = lv_map(indic->end_value, scale->min, scale->max, scale->rotation, scale
 1491              		.loc 1 591 13 is_stmt 1 view .LVU516
 1492              		.loc 1 591 83 is_stmt 0 view .LVU517
 1493 007c B6F92030 		ldrsh	r3, [r6, #32]
 1494              		.loc 1 591 118 view .LVU518
 1495 0080 F78B     		ldrh	r7, [r6, #30]
 1496              		.loc 1 591 111 view .LVU519
 1497 0082 1F44     		add	r7, r7, r3
 1498              		.loc 1 591 29 view .LVU520
 1499 0084 B269     		ldr	r2, [r6, #24]
 1500 0086 7169     		ldr	r1, [r6, #20]
 1501 0088 E068     		ldr	r0, [r4, #12]
 1502              	.LVL170:
 1503              		.loc 1 591 29 view .LVU521
 1504 008a 0097     		str	r7, [sp]
 1505 008c FFF7FEFF 		bl	lv_map
 1506              	.LVL171:
 1507 0090 8046     		mov	r8, r0
 1508              	.LVL172:
 592:Middlewares/LVGL/GUI/lvgl/src/extra/widgets/meter/lv_meter.c ****             lv_coord_t r_out = r_edge + scale->r_mod + indic->type_data.needle_line.r_mod;
 1509              		.loc 1 592 13 is_stmt 1 view .LVU522
ARM GAS  C:\Users\ADMINI~1\AppData\Local\Temp\ccVbA5cL.s 			page 61


 1510              		.loc 1 592 46 is_stmt 0 view .LVU523
 1511 0092 B6F91C70 		ldrsh	r7, [r6, #28]
 1512              		.loc 1 592 39 view .LVU524
 1513 0096 5F44     		add	r7, r7, fp
 1514              		.loc 1 592 84 view .LVU525
 1515 0098 B4F91230 		ldrsh	r3, [r4, #18]
 1516              		.loc 1 592 24 view .LVU526
 1517 009c 1F44     		add	r7, r7, r3
 1518              	.LVL173:
 593:Middlewares/LVGL/GUI/lvgl/src/extra/widgets/meter/lv_meter.c ****             lv_point_t p_end;
 1519              		.loc 1 593 13 is_stmt 1 view .LVU527
 594:Middlewares/LVGL/GUI/lvgl/src/extra/widgets/meter/lv_meter.c ****             p_end.y = (lv_trigo_sin(angle) * (r_out)) / LV_TRIGO_SIN_MAX + scale_center.y;
 1520              		.loc 1 594 13 view .LVU528
 1521              		.loc 1 594 24 is_stmt 0 view .LVU529
 1522 009e 00B2     		sxth	r0, r0
 1523              	.LVL174:
 1524              		.loc 1 594 24 view .LVU530
 1525 00a0 FFF7FEFF 		bl	lv_trigo_sin
 1526              	.LVL175:
 1527              		.loc 1 594 44 view .LVU531
 1528 00a4 07FB00F0 		mul	r0, r7, r0
 1529              		.loc 1 594 55 view .LVU532
 1530 00a8 534E     		ldr	r6, .L56+4
 1531              	.LVL176:
 1532              		.loc 1 594 55 view .LVU533
 1533 00aa 86FB0023 		smull	r2, r3, r6, r0
 1534 00ae 0344     		add	r3, r3, r0
 1535 00b0 C017     		asrs	r0, r0, #31
 1536 00b2 C0EBA330 		rsb	r0, r0, r3, asr #14
 1537              		.loc 1 594 88 view .LVU534
 1538 00b6 299B     		ldr	r3, [sp, #164]
 1539              		.loc 1 594 74 view .LVU535
 1540 00b8 1844     		add	r0, r0, r3
 1541              		.loc 1 594 21 view .LVU536
 1542 00ba 0790     		str	r0, [sp, #28]
 595:Middlewares/LVGL/GUI/lvgl/src/extra/widgets/meter/lv_meter.c ****             p_end.x = (lv_trigo_cos(angle) * (r_out)) / LV_TRIGO_SIN_MAX + scale_center.x;
 1543              		.loc 1 595 13 is_stmt 1 view .LVU537
 1544              	.LVL177:
 1545              	.LBB96:
 1546              	.LBI96:
  49:Middlewares/LVGL/GUI/lvgl/src/extra/widgets/meter/../../../../src/misc/lv_math.h **** {
 1547              		.loc 5 49 45 view .LVU538
 1548              	.LBB97:
 1549              		.loc 5 51 5 view .LVU539
 1550              		.loc 5 51 31 is_stmt 0 view .LVU540
 1551 00bc 08F15A00 		add	r0, r8, #90
 1552              		.loc 5 51 12 view .LVU541
 1553 00c0 00B2     		sxth	r0, r0
 1554 00c2 FFF7FEFF 		bl	lv_trigo_sin
 1555              	.LVL178:
 1556              		.loc 5 51 12 view .LVU542
 1557              	.LBE97:
 1558              	.LBE96:
 1559              		.loc 1 595 44 view .LVU543
 1560 00c6 00FB07F7 		mul	r7, r0, r7
 1561              	.LVL179:
 1562              		.loc 1 595 55 view .LVU544
ARM GAS  C:\Users\ADMINI~1\AppData\Local\Temp\ccVbA5cL.s 			page 62


 1563 00ca 86FB0736 		smull	r3, r6, r6, r7
 1564 00ce 3E44     		add	r6, r6, r7
 1565 00d0 FF17     		asrs	r7, r7, #31
 1566 00d2 C7EBA637 		rsb	r7, r7, r6, asr #14
 1567              		.loc 1 595 88 view .LVU545
 1568 00d6 289B     		ldr	r3, [sp, #160]
 1569              		.loc 1 595 74 view .LVU546
 1570 00d8 1F44     		add	r7, r7, r3
 1571              		.loc 1 595 21 view .LVU547
 1572 00da 0697     		str	r7, [sp, #24]
 596:Middlewares/LVGL/GUI/lvgl/src/extra/widgets/meter/lv_meter.c ****             line_dsc.color = indic->type_data.needle_line.color;
 1573              		.loc 1 596 13 is_stmt 1 view .LVU548
 1574              		.loc 1 596 28 is_stmt 0 view .LVU549
 1575 00dc A38A     		ldrh	r3, [r4, #20]
 1576 00de ADF88C30 		strh	r3, [sp, #140]	@ movhi
 597:Middlewares/LVGL/GUI/lvgl/src/extra/widgets/meter/lv_meter.c ****             line_dsc.width = indic->type_data.needle_line.width;
 1577              		.loc 1 597 13 is_stmt 1 view .LVU550
 1578              		.loc 1 597 58 is_stmt 0 view .LVU551
 1579 00e2 238A     		ldrh	r3, [r4, #16]
 1580              		.loc 1 597 28 view .LVU552
 1581 00e4 2493     		str	r3, [sp, #144]
 598:Middlewares/LVGL/GUI/lvgl/src/extra/widgets/meter/lv_meter.c ****             line_dsc.opa = indic->opa > LV_OPA_MAX ? opa_main : (opa_main * indic->opa) >> 8;
 1582              		.loc 1 598 13 is_stmt 1 view .LVU553
 1583              		.loc 1 598 33 is_stmt 0 view .LVU554
 1584 00e6 6279     		ldrb	r2, [r4, #5]	@ zero_extendqisi2
 1585              		.loc 1 598 26 view .LVU555
 1586 00e8 FD2A     		cmp	r2, #253
 1587 00ea 1DD8     		bhi	.L51
 1588              		.loc 1 598 75 discriminator 1 view .LVU556
 1589 00ec 9DF80830 		ldrb	r3, [sp, #8]	@ zero_extendqisi2
 1590 00f0 02FB03F3 		mul	r3, r2, r3
 1591              		.loc 1 598 26 discriminator 1 view .LVU557
 1592 00f4 1B0A     		lsrs	r3, r3, #8
 1593              	.L45:
 1594              		.loc 1 598 26 discriminator 4 view .LVU558
 1595 00f6 8DF89C30 		strb	r3, [sp, #156]
 599:Middlewares/LVGL/GUI/lvgl/src/extra/widgets/meter/lv_meter.c **** 
 600:Middlewares/LVGL/GUI/lvgl/src/extra/widgets/meter/lv_meter.c ****             part_draw_dsc.id = LV_METER_DRAW_PART_NEEDLE_LINE;
 1596              		.loc 1 600 13 is_stmt 1 discriminator 4 view .LVU559
 1597              		.loc 1 600 30 is_stmt 0 discriminator 4 view .LVU560
 1598 00fa 0123     		movs	r3, #1
 1599 00fc 1893     		str	r3, [sp, #96]
 601:Middlewares/LVGL/GUI/lvgl/src/extra/widgets/meter/lv_meter.c ****             part_draw_dsc.line_dsc = &line_dsc;
 1600              		.loc 1 601 13 is_stmt 1 discriminator 4 view .LVU561
 1601              		.loc 1 601 36 is_stmt 0 discriminator 4 view .LVU562
 1602 00fe 23AE     		add	r6, sp, #140
 1603 0100 1096     		str	r6, [sp, #64]
 602:Middlewares/LVGL/GUI/lvgl/src/extra/widgets/meter/lv_meter.c ****             part_draw_dsc.p2 = &p_end;
 1604              		.loc 1 602 13 is_stmt 1 discriminator 4 view .LVU563
 1605              		.loc 1 602 30 is_stmt 0 discriminator 4 view .LVU564
 1606 0102 06AF     		add	r7, sp, #24
 1607 0104 1497     		str	r7, [sp, #80]
 603:Middlewares/LVGL/GUI/lvgl/src/extra/widgets/meter/lv_meter.c **** 
 604:Middlewares/LVGL/GUI/lvgl/src/extra/widgets/meter/lv_meter.c ****             lv_event_send(obj, LV_EVENT_DRAW_PART_BEGIN, &part_draw_dsc);
 1608              		.loc 1 604 13 is_stmt 1 discriminator 4 view .LVU565
 1609 0106 0AAA     		add	r2, sp, #40
 1610 0108 1A21     		movs	r1, #26
ARM GAS  C:\Users\ADMINI~1\AppData\Local\Temp\ccVbA5cL.s 			page 63


 1611 010a 2846     		mov	r0, r5
 1612 010c FFF7FEFF 		bl	lv_event_send
 1613              	.LVL180:
 605:Middlewares/LVGL/GUI/lvgl/src/extra/widgets/meter/lv_meter.c ****             lv_draw_line(draw_ctx, &line_dsc, &scale_center, &p_end);
 1614              		.loc 1 605 13 discriminator 4 view .LVU566
 1615 0110 3B46     		mov	r3, r7
 1616 0112 28AA     		add	r2, sp, #160
 1617 0114 3146     		mov	r1, r6
 1618 0116 5046     		mov	r0, r10
 1619 0118 FFF7FEFF 		bl	lv_draw_line
 1620              	.LVL181:
 606:Middlewares/LVGL/GUI/lvgl/src/extra/widgets/meter/lv_meter.c ****             lv_event_send(obj, LV_EVENT_DRAW_PART_END, &part_draw_dsc);
 1621              		.loc 1 606 13 discriminator 4 view .LVU567
 1622 011c 0AAA     		add	r2, sp, #40
 1623 011e 1B21     		movs	r1, #27
 1624 0120 2846     		mov	r0, r5
 1625 0122 FFF7FEFF 		bl	lv_event_send
 1626              	.LVL182:
 1627              	.LBE95:
 1628 0126 17E0     		b	.L46
 1629              	.L51:
 1630              	.LBB98:
 598:Middlewares/LVGL/GUI/lvgl/src/extra/widgets/meter/lv_meter.c **** 
 1631              		.loc 1 598 26 is_stmt 0 view .LVU568
 1632 0128 039B     		ldr	r3, [sp, #12]
 1633 012a E4E7     		b	.L45
 1634              	.LVL183:
 1635              	.L52:
 598:Middlewares/LVGL/GUI/lvgl/src/extra/widgets/meter/lv_meter.c **** 
 1636              		.loc 1 598 26 view .LVU569
 1637              	.LBE98:
 1638              	.LBB99:
 607:Middlewares/LVGL/GUI/lvgl/src/extra/widgets/meter/lv_meter.c ****         }
 608:Middlewares/LVGL/GUI/lvgl/src/extra/widgets/meter/lv_meter.c ****         else if(indic->type == LV_METER_INDICATOR_TYPE_NEEDLE_IMG) {
 609:Middlewares/LVGL/GUI/lvgl/src/extra/widgets/meter/lv_meter.c ****             if(indic->type_data.needle_img.src == NULL) continue;
 610:Middlewares/LVGL/GUI/lvgl/src/extra/widgets/meter/lv_meter.c **** 
 611:Middlewares/LVGL/GUI/lvgl/src/extra/widgets/meter/lv_meter.c ****             int32_t angle = lv_map(indic->end_value, scale->min, scale->max, scale->rotation, scale
 612:Middlewares/LVGL/GUI/lvgl/src/extra/widgets/meter/lv_meter.c ****             lv_img_header_t info;
 613:Middlewares/LVGL/GUI/lvgl/src/extra/widgets/meter/lv_meter.c ****             lv_img_decoder_get_info(indic->type_data.needle_img.src, &info);
 614:Middlewares/LVGL/GUI/lvgl/src/extra/widgets/meter/lv_meter.c ****             lv_area_t a;
 615:Middlewares/LVGL/GUI/lvgl/src/extra/widgets/meter/lv_meter.c ****             a.x1 = scale_center.x - indic->type_data.needle_img.pivot.x;
 616:Middlewares/LVGL/GUI/lvgl/src/extra/widgets/meter/lv_meter.c ****             a.y1 = scale_center.y - indic->type_data.needle_img.pivot.y;
 617:Middlewares/LVGL/GUI/lvgl/src/extra/widgets/meter/lv_meter.c ****             a.x2 = a.x1 + info.w - 1;
 618:Middlewares/LVGL/GUI/lvgl/src/extra/widgets/meter/lv_meter.c ****             a.y2 = a.y1 + info.h - 1;
 619:Middlewares/LVGL/GUI/lvgl/src/extra/widgets/meter/lv_meter.c **** 
 620:Middlewares/LVGL/GUI/lvgl/src/extra/widgets/meter/lv_meter.c ****             img_dsc.opa = indic->opa > LV_OPA_MAX ? opa_main : (opa_main * indic->opa) >> 8;
 1639              		.loc 1 620 25 view .LVU570
 1640 012c 039B     		ldr	r3, [sp, #12]
 1641 012e 50E0     		b	.L48
 1642              	.LVL184:
 1643              	.L49:
 621:Middlewares/LVGL/GUI/lvgl/src/extra/widgets/meter/lv_meter.c ****             img_dsc.pivot.x = indic->type_data.needle_img.pivot.x;
 622:Middlewares/LVGL/GUI/lvgl/src/extra/widgets/meter/lv_meter.c ****             img_dsc.pivot.y = indic->type_data.needle_img.pivot.y;
 623:Middlewares/LVGL/GUI/lvgl/src/extra/widgets/meter/lv_meter.c ****             angle = angle * 10;
 624:Middlewares/LVGL/GUI/lvgl/src/extra/widgets/meter/lv_meter.c ****             if(angle > 3600) angle -= 3600;
 625:Middlewares/LVGL/GUI/lvgl/src/extra/widgets/meter/lv_meter.c ****             img_dsc.angle = angle;
 1644              		.loc 1 625 13 is_stmt 1 view .LVU571
ARM GAS  C:\Users\ADMINI~1\AppData\Local\Temp\ccVbA5cL.s 			page 64


 1645              		.loc 1 625 27 is_stmt 0 view .LVU572
 1646 0130 ADF87030 		strh	r3, [sp, #112]	@ movhi
 626:Middlewares/LVGL/GUI/lvgl/src/extra/widgets/meter/lv_meter.c **** 
 627:Middlewares/LVGL/GUI/lvgl/src/extra/widgets/meter/lv_meter.c ****             part_draw_dsc.img_dsc = &img_dsc;
 1647              		.loc 1 627 13 is_stmt 1 view .LVU573
 1648              		.loc 1 627 35 is_stmt 0 view .LVU574
 1649 0134 1CAE     		add	r6, sp, #112
 1650 0136 1196     		str	r6, [sp, #68]
 628:Middlewares/LVGL/GUI/lvgl/src/extra/widgets/meter/lv_meter.c **** 
 629:Middlewares/LVGL/GUI/lvgl/src/extra/widgets/meter/lv_meter.c ****             lv_event_send(obj, LV_EVENT_DRAW_PART_BEGIN, &part_draw_dsc);
 1651              		.loc 1 629 13 is_stmt 1 view .LVU575
 1652 0138 0AAA     		add	r2, sp, #40
 1653 013a 1A21     		movs	r1, #26
 1654 013c 2846     		mov	r0, r5
 1655 013e FFF7FEFF 		bl	lv_event_send
 1656              	.LVL185:
 630:Middlewares/LVGL/GUI/lvgl/src/extra/widgets/meter/lv_meter.c ****             lv_draw_img(draw_ctx, &img_dsc, &a, indic->type_data.needle_img.src);
 1657              		.loc 1 630 13 view .LVU576
 1658 0142 2369     		ldr	r3, [r4, #16]
 1659 0144 06AA     		add	r2, sp, #24
 1660 0146 3146     		mov	r1, r6
 1661 0148 5046     		mov	r0, r10
 1662 014a FFF7FEFF 		bl	lv_draw_img
 1663              	.LVL186:
 631:Middlewares/LVGL/GUI/lvgl/src/extra/widgets/meter/lv_meter.c ****             lv_event_send(obj, LV_EVENT_DRAW_PART_END, &part_draw_dsc);
 1664              		.loc 1 631 13 view .LVU577
 1665 014e 0AAA     		add	r2, sp, #40
 1666 0150 1B21     		movs	r1, #27
 1667 0152 2846     		mov	r0, r5
 1668 0154 FFF7FEFF 		bl	lv_event_send
 1669              	.LVL187:
 1670              	.L46:
 1671              		.loc 1 631 13 is_stmt 0 view .LVU578
 1672              	.LBE99:
 1673              	.LBE94:
 586:Middlewares/LVGL/GUI/lvgl/src/extra/widgets/meter/lv_meter.c ****         lv_meter_scale_t * scale = indic->scale;
 1674              		.loc 1 586 5 is_stmt 1 discriminator 2 view .LVU579
 1675 0158 2146     		mov	r1, r4
 1676 015a 4846     		mov	r0, r9
 1677 015c FFF7FEFF 		bl	_lv_ll_get_prev
 1678              	.LVL188:
 1679 0160 0446     		mov	r4, r0
 1680              	.LVL189:
 1681              	.L43:
 586:Middlewares/LVGL/GUI/lvgl/src/extra/widgets/meter/lv_meter.c ****         lv_meter_scale_t * scale = indic->scale;
 1682              		.loc 1 586 5 discriminator 1 view .LVU580
 1683 0162 002C     		cmp	r4, #0
 1684 0164 43D0     		beq	.L54
 1685              	.LBB101:
 587:Middlewares/LVGL/GUI/lvgl/src/extra/widgets/meter/lv_meter.c ****         part_draw_dsc.sub_part_ptr = indic;
 1686              		.loc 1 587 9 view .LVU581
 587:Middlewares/LVGL/GUI/lvgl/src/extra/widgets/meter/lv_meter.c ****         part_draw_dsc.sub_part_ptr = indic;
 1687              		.loc 1 587 28 is_stmt 0 view .LVU582
 1688 0166 2668     		ldr	r6, [r4]
 1689              	.LVL190:
 588:Middlewares/LVGL/GUI/lvgl/src/extra/widgets/meter/lv_meter.c **** 
 1690              		.loc 1 588 9 is_stmt 1 view .LVU583
ARM GAS  C:\Users\ADMINI~1\AppData\Local\Temp\ccVbA5cL.s 			page 65


 588:Middlewares/LVGL/GUI/lvgl/src/extra/widgets/meter/lv_meter.c **** 
 1691              		.loc 1 588 36 is_stmt 0 view .LVU584
 1692 0168 1B94     		str	r4, [sp, #108]
 590:Middlewares/LVGL/GUI/lvgl/src/extra/widgets/meter/lv_meter.c ****             int32_t angle = lv_map(indic->end_value, scale->min, scale->max, scale->rotation, scale
 1693              		.loc 1 590 9 is_stmt 1 view .LVU585
 590:Middlewares/LVGL/GUI/lvgl/src/extra/widgets/meter/lv_meter.c ****             int32_t angle = lv_map(indic->end_value, scale->min, scale->max, scale->rotation, scale
 1694              		.loc 1 590 17 is_stmt 0 view .LVU586
 1695 016a 2379     		ldrb	r3, [r4, #4]	@ zero_extendqisi2
 590:Middlewares/LVGL/GUI/lvgl/src/extra/widgets/meter/lv_meter.c ****             int32_t angle = lv_map(indic->end_value, scale->min, scale->max, scale->rotation, scale
 1696              		.loc 1 590 11 view .LVU587
 1697 016c 012B     		cmp	r3, #1
 1698 016e 85D0     		beq	.L55
 608:Middlewares/LVGL/GUI/lvgl/src/extra/widgets/meter/lv_meter.c ****             if(indic->type_data.needle_img.src == NULL) continue;
 1699              		.loc 1 608 14 is_stmt 1 view .LVU588
 608:Middlewares/LVGL/GUI/lvgl/src/extra/widgets/meter/lv_meter.c ****             if(indic->type_data.needle_img.src == NULL) continue;
 1700              		.loc 1 608 16 is_stmt 0 view .LVU589
 1701 0170 002B     		cmp	r3, #0
 1702 0172 F1D1     		bne	.L46
 1703              	.LBB100:
 609:Middlewares/LVGL/GUI/lvgl/src/extra/widgets/meter/lv_meter.c **** 
 1704              		.loc 1 609 13 is_stmt 1 view .LVU590
 609:Middlewares/LVGL/GUI/lvgl/src/extra/widgets/meter/lv_meter.c **** 
 1705              		.loc 1 609 43 is_stmt 0 view .LVU591
 1706 0174 2369     		ldr	r3, [r4, #16]
 609:Middlewares/LVGL/GUI/lvgl/src/extra/widgets/meter/lv_meter.c **** 
 1707              		.loc 1 609 15 view .LVU592
 1708 0176 002B     		cmp	r3, #0
 1709 0178 EED0     		beq	.L46
 611:Middlewares/LVGL/GUI/lvgl/src/extra/widgets/meter/lv_meter.c ****             lv_img_header_t info;
 1710              		.loc 1 611 13 is_stmt 1 view .LVU593
 611:Middlewares/LVGL/GUI/lvgl/src/extra/widgets/meter/lv_meter.c ****             lv_img_header_t info;
 1711              		.loc 1 611 83 is_stmt 0 view .LVU594
 1712 017a B6F92030 		ldrsh	r3, [r6, #32]
 611:Middlewares/LVGL/GUI/lvgl/src/extra/widgets/meter/lv_meter.c ****             lv_img_header_t info;
 1713              		.loc 1 611 118 view .LVU595
 1714 017e F78B     		ldrh	r7, [r6, #30]
 611:Middlewares/LVGL/GUI/lvgl/src/extra/widgets/meter/lv_meter.c ****             lv_img_header_t info;
 1715              		.loc 1 611 111 view .LVU596
 1716 0180 1F44     		add	r7, r7, r3
 611:Middlewares/LVGL/GUI/lvgl/src/extra/widgets/meter/lv_meter.c ****             lv_img_header_t info;
 1717              		.loc 1 611 29 view .LVU597
 1718 0182 B269     		ldr	r2, [r6, #24]
 1719 0184 7169     		ldr	r1, [r6, #20]
 1720 0186 E068     		ldr	r0, [r4, #12]
 1721              	.LVL191:
 611:Middlewares/LVGL/GUI/lvgl/src/extra/widgets/meter/lv_meter.c ****             lv_img_header_t info;
 1722              		.loc 1 611 29 view .LVU598
 1723 0188 0097     		str	r7, [sp]
 1724 018a FFF7FEFF 		bl	lv_map
 1725              	.LVL192:
 1726 018e 0646     		mov	r6, r0
 1727              	.LVL193:
 612:Middlewares/LVGL/GUI/lvgl/src/extra/widgets/meter/lv_meter.c ****             lv_img_decoder_get_info(indic->type_data.needle_img.src, &info);
 1728              		.loc 1 612 13 is_stmt 1 view .LVU599
 613:Middlewares/LVGL/GUI/lvgl/src/extra/widgets/meter/lv_meter.c ****             lv_area_t a;
 1729              		.loc 1 613 13 view .LVU600
 1730 0190 05A9     		add	r1, sp, #20
ARM GAS  C:\Users\ADMINI~1\AppData\Local\Temp\ccVbA5cL.s 			page 66


 1731 0192 2069     		ldr	r0, [r4, #16]
 1732              	.LVL194:
 613:Middlewares/LVGL/GUI/lvgl/src/extra/widgets/meter/lv_meter.c ****             lv_area_t a;
 1733              		.loc 1 613 13 is_stmt 0 view .LVU601
 1734 0194 FFF7FEFF 		bl	lv_img_decoder_get_info
 1735              	.LVL195:
 614:Middlewares/LVGL/GUI/lvgl/src/extra/widgets/meter/lv_meter.c ****             a.x1 = scale_center.x - indic->type_data.needle_img.pivot.x;
 1736              		.loc 1 614 13 is_stmt 1 view .LVU602
 615:Middlewares/LVGL/GUI/lvgl/src/extra/widgets/meter/lv_meter.c ****             a.y1 = scale_center.y - indic->type_data.needle_img.pivot.y;
 1737              		.loc 1 615 13 view .LVU603
 615:Middlewares/LVGL/GUI/lvgl/src/extra/widgets/meter/lv_meter.c ****             a.y1 = scale_center.y - indic->type_data.needle_img.pivot.y;
 1738              		.loc 1 615 70 is_stmt 0 view .LVU604
 1739 0198 6769     		ldr	r7, [r4, #20]
 615:Middlewares/LVGL/GUI/lvgl/src/extra/widgets/meter/lv_meter.c ****             a.y1 = scale_center.y - indic->type_data.needle_img.pivot.y;
 1740              		.loc 1 615 35 view .LVU605
 1741 019a 289A     		ldr	r2, [sp, #160]
 1742 019c D21B     		subs	r2, r2, r7
 615:Middlewares/LVGL/GUI/lvgl/src/extra/widgets/meter/lv_meter.c ****             a.y1 = scale_center.y - indic->type_data.needle_img.pivot.y;
 1743              		.loc 1 615 18 view .LVU606
 1744 019e 0692     		str	r2, [sp, #24]
 616:Middlewares/LVGL/GUI/lvgl/src/extra/widgets/meter/lv_meter.c ****             a.x2 = a.x1 + info.w - 1;
 1745              		.loc 1 616 13 is_stmt 1 view .LVU607
 616:Middlewares/LVGL/GUI/lvgl/src/extra/widgets/meter/lv_meter.c ****             a.x2 = a.x1 + info.w - 1;
 1746              		.loc 1 616 70 is_stmt 0 view .LVU608
 1747 01a0 A069     		ldr	r0, [r4, #24]
 616:Middlewares/LVGL/GUI/lvgl/src/extra/widgets/meter/lv_meter.c ****             a.x2 = a.x1 + info.w - 1;
 1748              		.loc 1 616 35 view .LVU609
 1749 01a2 299B     		ldr	r3, [sp, #164]
 1750 01a4 1B1A     		subs	r3, r3, r0
 616:Middlewares/LVGL/GUI/lvgl/src/extra/widgets/meter/lv_meter.c ****             a.x2 = a.x1 + info.w - 1;
 1751              		.loc 1 616 18 view .LVU610
 1752 01a6 0793     		str	r3, [sp, #28]
 617:Middlewares/LVGL/GUI/lvgl/src/extra/widgets/meter/lv_meter.c ****             a.y2 = a.y1 + info.h - 1;
 1753              		.loc 1 617 13 is_stmt 1 view .LVU611
 617:Middlewares/LVGL/GUI/lvgl/src/extra/widgets/meter/lv_meter.c ****             a.y2 = a.y1 + info.h - 1;
 1754              		.loc 1 617 31 is_stmt 0 view .LVU612
 1755 01a8 0599     		ldr	r1, [sp, #20]
 1756 01aa C1F38A21 		ubfx	r1, r1, #10, #11
 617:Middlewares/LVGL/GUI/lvgl/src/extra/widgets/meter/lv_meter.c ****             a.y2 = a.y1 + info.h - 1;
 1757              		.loc 1 617 25 view .LVU613
 1758 01ae 0A44     		add	r2, r2, r1
 617:Middlewares/LVGL/GUI/lvgl/src/extra/widgets/meter/lv_meter.c ****             a.y2 = a.y1 + info.h - 1;
 1759              		.loc 1 617 34 view .LVU614
 1760 01b0 013A     		subs	r2, r2, #1
 617:Middlewares/LVGL/GUI/lvgl/src/extra/widgets/meter/lv_meter.c ****             a.y2 = a.y1 + info.h - 1;
 1761              		.loc 1 617 18 view .LVU615
 1762 01b2 0892     		str	r2, [sp, #32]
 618:Middlewares/LVGL/GUI/lvgl/src/extra/widgets/meter/lv_meter.c **** 
 1763              		.loc 1 618 13 is_stmt 1 view .LVU616
 618:Middlewares/LVGL/GUI/lvgl/src/extra/widgets/meter/lv_meter.c **** 
 1764              		.loc 1 618 31 is_stmt 0 view .LVU617
 1765 01b4 BDF81620 		ldrh	r2, [sp, #22]
 1766 01b8 C2F34A12 		ubfx	r2, r2, #5, #11
 618:Middlewares/LVGL/GUI/lvgl/src/extra/widgets/meter/lv_meter.c **** 
 1767              		.loc 1 618 25 view .LVU618
 1768 01bc 1344     		add	r3, r3, r2
 618:Middlewares/LVGL/GUI/lvgl/src/extra/widgets/meter/lv_meter.c **** 
ARM GAS  C:\Users\ADMINI~1\AppData\Local\Temp\ccVbA5cL.s 			page 67


 1769              		.loc 1 618 34 view .LVU619
 1770 01be 013B     		subs	r3, r3, #1
 618:Middlewares/LVGL/GUI/lvgl/src/extra/widgets/meter/lv_meter.c **** 
 1771              		.loc 1 618 18 view .LVU620
 1772 01c0 0993     		str	r3, [sp, #36]
 620:Middlewares/LVGL/GUI/lvgl/src/extra/widgets/meter/lv_meter.c ****             img_dsc.pivot.x = indic->type_data.needle_img.pivot.x;
 1773              		.loc 1 620 13 is_stmt 1 view .LVU621
 620:Middlewares/LVGL/GUI/lvgl/src/extra/widgets/meter/lv_meter.c ****             img_dsc.pivot.x = indic->type_data.needle_img.pivot.x;
 1774              		.loc 1 620 32 is_stmt 0 view .LVU622
 1775 01c2 6279     		ldrb	r2, [r4, #5]	@ zero_extendqisi2
 620:Middlewares/LVGL/GUI/lvgl/src/extra/widgets/meter/lv_meter.c ****             img_dsc.pivot.x = indic->type_data.needle_img.pivot.x;
 1776              		.loc 1 620 25 view .LVU623
 1777 01c4 FD2A     		cmp	r2, #253
 1778 01c6 B1D8     		bhi	.L52
 620:Middlewares/LVGL/GUI/lvgl/src/extra/widgets/meter/lv_meter.c ****             img_dsc.pivot.x = indic->type_data.needle_img.pivot.x;
 1779              		.loc 1 620 74 discriminator 1 view .LVU624
 1780 01c8 9DF80830 		ldrb	r3, [sp, #8]	@ zero_extendqisi2
 1781 01cc 02FB03F3 		mul	r3, r2, r3
 620:Middlewares/LVGL/GUI/lvgl/src/extra/widgets/meter/lv_meter.c ****             img_dsc.pivot.x = indic->type_data.needle_img.pivot.x;
 1782              		.loc 1 620 25 discriminator 1 view .LVU625
 1783 01d0 1B0A     		lsrs	r3, r3, #8
 1784              	.L48:
 620:Middlewares/LVGL/GUI/lvgl/src/extra/widgets/meter/lv_meter.c ****             img_dsc.pivot.x = indic->type_data.needle_img.pivot.x;
 1785              		.loc 1 620 25 discriminator 4 view .LVU626
 1786 01d2 8DF87F30 		strb	r3, [sp, #127]
 621:Middlewares/LVGL/GUI/lvgl/src/extra/widgets/meter/lv_meter.c ****             img_dsc.pivot.y = indic->type_data.needle_img.pivot.y;
 1787              		.loc 1 621 13 is_stmt 1 discriminator 4 view .LVU627
 621:Middlewares/LVGL/GUI/lvgl/src/extra/widgets/meter/lv_meter.c ****             img_dsc.pivot.y = indic->type_data.needle_img.pivot.y;
 1788              		.loc 1 621 29 is_stmt 0 discriminator 4 view .LVU628
 1789 01d6 1D97     		str	r7, [sp, #116]
 622:Middlewares/LVGL/GUI/lvgl/src/extra/widgets/meter/lv_meter.c ****             angle = angle * 10;
 1790              		.loc 1 622 13 is_stmt 1 discriminator 4 view .LVU629
 622:Middlewares/LVGL/GUI/lvgl/src/extra/widgets/meter/lv_meter.c ****             angle = angle * 10;
 1791              		.loc 1 622 29 is_stmt 0 discriminator 4 view .LVU630
 1792 01d8 1E90     		str	r0, [sp, #120]
 623:Middlewares/LVGL/GUI/lvgl/src/extra/widgets/meter/lv_meter.c ****             if(angle > 3600) angle -= 3600;
 1793              		.loc 1 623 13 is_stmt 1 discriminator 4 view .LVU631
 623:Middlewares/LVGL/GUI/lvgl/src/extra/widgets/meter/lv_meter.c ****             if(angle > 3600) angle -= 3600;
 1794              		.loc 1 623 19 is_stmt 0 discriminator 4 view .LVU632
 1795 01da 06EB8606 		add	r6, r6, r6, lsl #2
 1796              	.LVL196:
 623:Middlewares/LVGL/GUI/lvgl/src/extra/widgets/meter/lv_meter.c ****             if(angle > 3600) angle -= 3600;
 1797              		.loc 1 623 19 discriminator 4 view .LVU633
 1798 01de 7600     		lsls	r6, r6, #1
 1799 01e0 3346     		mov	r3, r6
 1800              	.LVL197:
 624:Middlewares/LVGL/GUI/lvgl/src/extra/widgets/meter/lv_meter.c ****             img_dsc.angle = angle;
 1801              		.loc 1 624 13 is_stmt 1 discriminator 4 view .LVU634
 624:Middlewares/LVGL/GUI/lvgl/src/extra/widgets/meter/lv_meter.c ****             img_dsc.angle = angle;
 1802              		.loc 1 624 15 is_stmt 0 discriminator 4 view .LVU635
 1803 01e2 B6F5616F 		cmp	r6, #3600
 1804 01e6 A3DD     		ble	.L49
 624:Middlewares/LVGL/GUI/lvgl/src/extra/widgets/meter/lv_meter.c ****             img_dsc.angle = angle;
 1805              		.loc 1 624 30 is_stmt 1 discriminator 1 view .LVU636
 624:Middlewares/LVGL/GUI/lvgl/src/extra/widgets/meter/lv_meter.c ****             img_dsc.angle = angle;
 1806              		.loc 1 624 36 is_stmt 0 discriminator 1 view .LVU637
 1807 01e8 A6F56163 		sub	r3, r6, #3600
ARM GAS  C:\Users\ADMINI~1\AppData\Local\Temp\ccVbA5cL.s 			page 68


 1808              	.LVL198:
 624:Middlewares/LVGL/GUI/lvgl/src/extra/widgets/meter/lv_meter.c ****             img_dsc.angle = angle;
 1809              		.loc 1 624 36 discriminator 1 view .LVU638
 1810 01ec A0E7     		b	.L49
 1811              	.LVL199:
 1812              	.L54:
 624:Middlewares/LVGL/GUI/lvgl/src/extra/widgets/meter/lv_meter.c ****             img_dsc.angle = angle;
 1813              		.loc 1 624 36 discriminator 1 view .LVU639
 1814              	.LBE100:
 1815              	.LBE101:
 632:Middlewares/LVGL/GUI/lvgl/src/extra/widgets/meter/lv_meter.c ****         }
 633:Middlewares/LVGL/GUI/lvgl/src/extra/widgets/meter/lv_meter.c ****     }
 634:Middlewares/LVGL/GUI/lvgl/src/extra/widgets/meter/lv_meter.c **** }
 1816              		.loc 1 634 1 view .LVU640
 1817 01ee 2BB0     		add	sp, sp, #172
 1818              	.LCFI8:
 1819              		.cfi_def_cfa_offset 36
 1820              		@ sp needed
 1821 01f0 BDE8F08F 		pop	{r4, r5, r6, r7, r8, r9, r10, fp, pc}
 1822              	.LVL200:
 1823              	.L57:
 1824              		.loc 1 634 1 view .LVU641
 1825              		.align	2
 1826              	.L56:
 1827 01f4 00000000 		.word	.LANCHOR0
 1828 01f8 03000180 		.word	-2147418109
 1829              		.cfi_endproc
 1830              	.LFE213:
 1832              		.section	.text.lv_meter_event,"ax",%progbits
 1833              		.align	1
 1834              		.syntax unified
 1835              		.thumb
 1836              		.thumb_func
 1838              	lv_meter_event:
 1839              	.LVL201:
 1840              	.LFB210:
 290:Middlewares/LVGL/GUI/lvgl/src/extra/widgets/meter/lv_meter.c ****     LV_UNUSED(class_p);
 1841              		.loc 1 290 1 is_stmt 1 view -0
 1842              		.cfi_startproc
 1843              		@ args = 0, pretend = 0, frame = 112
 1844              		@ frame_needed = 0, uses_anonymous_args = 0
 290:Middlewares/LVGL/GUI/lvgl/src/extra/widgets/meter/lv_meter.c ****     LV_UNUSED(class_p);
 1845              		.loc 1 290 1 is_stmt 0 view .LVU643
 1846 0000 2DE9F041 		push	{r4, r5, r6, r7, r8, lr}
 1847              	.LCFI9:
 1848              		.cfi_def_cfa_offset 24
 1849              		.cfi_offset 4, -24
 1850              		.cfi_offset 5, -20
 1851              		.cfi_offset 6, -16
 1852              		.cfi_offset 7, -12
 1853              		.cfi_offset 8, -8
 1854              		.cfi_offset 14, -4
 1855 0004 9CB0     		sub	sp, sp, #112
 1856              	.LCFI10:
 1857              		.cfi_def_cfa_offset 136
 1858 0006 0C46     		mov	r4, r1
 291:Middlewares/LVGL/GUI/lvgl/src/extra/widgets/meter/lv_meter.c **** 
ARM GAS  C:\Users\ADMINI~1\AppData\Local\Temp\ccVbA5cL.s 			page 69


 1859              		.loc 1 291 5 is_stmt 1 view .LVU644
 293:Middlewares/LVGL/GUI/lvgl/src/extra/widgets/meter/lv_meter.c ****     if(res != LV_RES_OK) return;
 1860              		.loc 1 293 5 view .LVU645
 293:Middlewares/LVGL/GUI/lvgl/src/extra/widgets/meter/lv_meter.c ****     if(res != LV_RES_OK) return;
 1861              		.loc 1 293 20 is_stmt 0 view .LVU646
 1862 0008 3148     		ldr	r0, .L62
 1863              	.LVL202:
 293:Middlewares/LVGL/GUI/lvgl/src/extra/widgets/meter/lv_meter.c ****     if(res != LV_RES_OK) return;
 1864              		.loc 1 293 20 view .LVU647
 1865 000a FFF7FEFF 		bl	lv_obj_event_base
 1866              	.LVL203:
 294:Middlewares/LVGL/GUI/lvgl/src/extra/widgets/meter/lv_meter.c **** 
 1867              		.loc 1 294 5 is_stmt 1 view .LVU648
 294:Middlewares/LVGL/GUI/lvgl/src/extra/widgets/meter/lv_meter.c **** 
 1868              		.loc 1 294 7 is_stmt 0 view .LVU649
 1869 000e 0128     		cmp	r0, #1
 1870 0010 02D0     		beq	.L61
 1871              	.LVL204:
 1872              	.L58:
 324:Middlewares/LVGL/GUI/lvgl/src/extra/widgets/meter/lv_meter.c **** 
 1873              		.loc 1 324 1 view .LVU650
 1874 0012 1CB0     		add	sp, sp, #112
 1875              	.LCFI11:
 1876              		.cfi_remember_state
 1877              		.cfi_def_cfa_offset 24
 1878              		@ sp needed
 1879 0014 BDE8F081 		pop	{r4, r5, r6, r7, r8, pc}
 1880              	.LVL205:
 1881              	.L61:
 1882              	.LCFI12:
 1883              		.cfi_restore_state
 296:Middlewares/LVGL/GUI/lvgl/src/extra/widgets/meter/lv_meter.c ****     lv_obj_t * obj = lv_event_get_target(e);
 1884              		.loc 1 296 5 is_stmt 1 view .LVU651
 296:Middlewares/LVGL/GUI/lvgl/src/extra/widgets/meter/lv_meter.c ****     lv_obj_t * obj = lv_event_get_target(e);
 1885              		.loc 1 296 28 is_stmt 0 view .LVU652
 1886 0018 2046     		mov	r0, r4
 1887              	.LVL206:
 296:Middlewares/LVGL/GUI/lvgl/src/extra/widgets/meter/lv_meter.c ****     lv_obj_t * obj = lv_event_get_target(e);
 1888              		.loc 1 296 28 view .LVU653
 1889 001a FFF7FEFF 		bl	lv_event_get_code
 1890              	.LVL207:
 1891 001e 0646     		mov	r6, r0
 1892              	.LVL208:
 297:Middlewares/LVGL/GUI/lvgl/src/extra/widgets/meter/lv_meter.c ****     if(code == LV_EVENT_DRAW_MAIN) {
 1893              		.loc 1 297 5 is_stmt 1 view .LVU654
 297:Middlewares/LVGL/GUI/lvgl/src/extra/widgets/meter/lv_meter.c ****     if(code == LV_EVENT_DRAW_MAIN) {
 1894              		.loc 1 297 22 is_stmt 0 view .LVU655
 1895 0020 2046     		mov	r0, r4
 1896 0022 FFF7FEFF 		bl	lv_event_get_target
 1897              	.LVL209:
 1898 0026 0546     		mov	r5, r0
 1899              	.LVL210:
 298:Middlewares/LVGL/GUI/lvgl/src/extra/widgets/meter/lv_meter.c ****         lv_draw_ctx_t * draw_ctx = lv_event_get_draw_ctx(e);
 1900              		.loc 1 298 5 is_stmt 1 view .LVU656
 298:Middlewares/LVGL/GUI/lvgl/src/extra/widgets/meter/lv_meter.c ****         lv_draw_ctx_t * draw_ctx = lv_event_get_draw_ctx(e);
 1901              		.loc 1 298 7 is_stmt 0 view .LVU657
 1902 0028 152E     		cmp	r6, #21
ARM GAS  C:\Users\ADMINI~1\AppData\Local\Temp\ccVbA5cL.s 			page 70


 1903 002a F2D1     		bne	.L58
 1904              	.LBB102:
 299:Middlewares/LVGL/GUI/lvgl/src/extra/widgets/meter/lv_meter.c ****         lv_area_t scale_area;
 1905              		.loc 1 299 9 is_stmt 1 view .LVU658
 299:Middlewares/LVGL/GUI/lvgl/src/extra/widgets/meter/lv_meter.c ****         lv_area_t scale_area;
 1906              		.loc 1 299 36 is_stmt 0 view .LVU659
 1907 002c 2046     		mov	r0, r4
 1908              	.LVL211:
 299:Middlewares/LVGL/GUI/lvgl/src/extra/widgets/meter/lv_meter.c ****         lv_area_t scale_area;
 1909              		.loc 1 299 36 view .LVU660
 1910 002e FFF7FEFF 		bl	lv_event_get_draw_ctx
 1911              	.LVL212:
 1912 0032 0746     		mov	r7, r0
 1913              	.LVL213:
 300:Middlewares/LVGL/GUI/lvgl/src/extra/widgets/meter/lv_meter.c ****         lv_obj_get_content_coords(obj, &scale_area);
 1914              		.loc 1 300 9 is_stmt 1 view .LVU661
 301:Middlewares/LVGL/GUI/lvgl/src/extra/widgets/meter/lv_meter.c **** 
 1915              		.loc 1 301 9 view .LVU662
 1916 0034 02A9     		add	r1, sp, #8
 1917 0036 2846     		mov	r0, r5
 1918              	.LVL214:
 301:Middlewares/LVGL/GUI/lvgl/src/extra/widgets/meter/lv_meter.c **** 
 1919              		.loc 1 301 9 is_stmt 0 view .LVU663
 1920 0038 FFF7FEFF 		bl	lv_obj_get_content_coords
 1921              	.LVL215:
 303:Middlewares/LVGL/GUI/lvgl/src/extra/widgets/meter/lv_meter.c ****         draw_ticks_and_labels(obj, draw_ctx, &scale_area);
 1922              		.loc 1 303 9 is_stmt 1 view .LVU664
 1923 003c 02AA     		add	r2, sp, #8
 1924 003e 3946     		mov	r1, r7
 1925 0040 2846     		mov	r0, r5
 1926 0042 FFF7FEFF 		bl	draw_arcs
 1927              	.LVL216:
 304:Middlewares/LVGL/GUI/lvgl/src/extra/widgets/meter/lv_meter.c ****         draw_needles(obj, draw_ctx, &scale_area);
 1928              		.loc 1 304 9 view .LVU665
 1929 0046 02AA     		add	r2, sp, #8
 1930 0048 3946     		mov	r1, r7
 1931 004a 2846     		mov	r0, r5
 1932 004c FFF7FEFF 		bl	draw_ticks_and_labels
 1933              	.LVL217:
 305:Middlewares/LVGL/GUI/lvgl/src/extra/widgets/meter/lv_meter.c **** 
 1934              		.loc 1 305 9 view .LVU666
 1935 0050 02AA     		add	r2, sp, #8
 1936 0052 3946     		mov	r1, r7
 1937 0054 2846     		mov	r0, r5
 1938 0056 FFF7FEFF 		bl	draw_needles
 1939              	.LVL218:
 307:Middlewares/LVGL/GUI/lvgl/src/extra/widgets/meter/lv_meter.c ****         lv_point_t scale_center;
 1940              		.loc 1 307 9 view .LVU667
 1941              	.LBB103:
 1942              	.LBI103:
 123:Middlewares/LVGL/GUI/lvgl/src/extra/widgets/meter/../../../../src/hal/../draw/../misc/../font/../misc/lv_area.h **** {
 1943              		.loc 3 123 26 view .LVU668
 1944              	.LBB104:
 125:Middlewares/LVGL/GUI/lvgl/src/extra/widgets/meter/../../../../src/hal/../draw/../misc/../font/../misc/lv_area.h **** }
 1945              		.loc 3 125 5 view .LVU669
 125:Middlewares/LVGL/GUI/lvgl/src/extra/widgets/meter/../../../../src/hal/../draw/../misc/../font/../misc/lv_area.h **** }
 1946              		.loc 3 125 44 is_stmt 0 view .LVU670
ARM GAS  C:\Users\ADMINI~1\AppData\Local\Temp\ccVbA5cL.s 			page 71


 1947 005a 029C     		ldr	r4, [sp, #8]
 1948              	.LVL219:
 125:Middlewares/LVGL/GUI/lvgl/src/extra/widgets/meter/../../../../src/hal/../draw/../misc/../font/../misc/lv_area.h **** }
 1949              		.loc 3 125 36 view .LVU671
 1950 005c 049B     		ldr	r3, [sp, #16]
 1951 005e 1B1B     		subs	r3, r3, r4
 125:Middlewares/LVGL/GUI/lvgl/src/extra/widgets/meter/../../../../src/hal/../draw/../misc/../font/../misc/lv_area.h **** }
 1952              		.loc 3 125 12 view .LVU672
 1953 0060 0133     		adds	r3, r3, #1
 1954              	.LVL220:
 125:Middlewares/LVGL/GUI/lvgl/src/extra/widgets/meter/../../../../src/hal/../draw/../misc/../font/../misc/lv_area.h **** }
 1955              		.loc 3 125 12 view .LVU673
 1956              	.LBE104:
 1957              	.LBE103:
 307:Middlewares/LVGL/GUI/lvgl/src/extra/widgets/meter/lv_meter.c ****         lv_point_t scale_center;
 1958              		.loc 1 307 20 view .LVU674
 1959 0062 03EBD373 		add	r3, r3, r3, lsr #31
 1960              	.LVL221:
 308:Middlewares/LVGL/GUI/lvgl/src/extra/widgets/meter/lv_meter.c ****         scale_center.x = scale_area.x1 + r_edge;
 1961              		.loc 1 308 9 is_stmt 1 view .LVU675
 309:Middlewares/LVGL/GUI/lvgl/src/extra/widgets/meter/lv_meter.c ****         scale_center.y = scale_area.y1 + r_edge;
 1962              		.loc 1 309 9 view .LVU676
 309:Middlewares/LVGL/GUI/lvgl/src/extra/widgets/meter/lv_meter.c ****         scale_center.y = scale_area.y1 + r_edge;
 1963              		.loc 1 309 40 is_stmt 0 view .LVU677
 1964 0066 04EB6304 		add	r4, r4, r3, asr #1
 309:Middlewares/LVGL/GUI/lvgl/src/extra/widgets/meter/lv_meter.c ****         scale_center.y = scale_area.y1 + r_edge;
 1965              		.loc 1 309 24 view .LVU678
 1966 006a 0094     		str	r4, [sp]
 310:Middlewares/LVGL/GUI/lvgl/src/extra/widgets/meter/lv_meter.c **** 
 1967              		.loc 1 310 9 is_stmt 1 view .LVU679
 310:Middlewares/LVGL/GUI/lvgl/src/extra/widgets/meter/lv_meter.c **** 
 1968              		.loc 1 310 36 is_stmt 0 view .LVU680
 1969 006c 039E     		ldr	r6, [sp, #12]
 1970              	.LVL222:
 310:Middlewares/LVGL/GUI/lvgl/src/extra/widgets/meter/lv_meter.c **** 
 1971              		.loc 1 310 40 view .LVU681
 1972 006e 06EB6306 		add	r6, r6, r3, asr #1
 310:Middlewares/LVGL/GUI/lvgl/src/extra/widgets/meter/lv_meter.c **** 
 1973              		.loc 1 310 24 view .LVU682
 1974 0072 0196     		str	r6, [sp, #4]
 312:Middlewares/LVGL/GUI/lvgl/src/extra/widgets/meter/lv_meter.c ****         lv_draw_rect_dsc_init(&mid_dsc);
 1975              		.loc 1 312 9 is_stmt 1 view .LVU683
 313:Middlewares/LVGL/GUI/lvgl/src/extra/widgets/meter/lv_meter.c ****         lv_obj_init_draw_rect_dsc(obj, LV_PART_INDICATOR, &mid_dsc);
 1976              		.loc 1 313 9 view .LVU684
 1977 0074 0AA8     		add	r0, sp, #40
 1978 0076 FFF7FEFF 		bl	lv_draw_rect_dsc_init
 1979              	.LVL223:
 314:Middlewares/LVGL/GUI/lvgl/src/extra/widgets/meter/lv_meter.c ****         lv_coord_t w = lv_obj_get_style_width(obj, LV_PART_INDICATOR) / 2;
 1980              		.loc 1 314 9 view .LVU685
 1981 007a 0AAA     		add	r2, sp, #40
 1982 007c 4FF40031 		mov	r1, #131072
 1983 0080 2846     		mov	r0, r5
 1984 0082 FFF7FEFF 		bl	lv_obj_init_draw_rect_dsc
 1985              	.LVL224:
 315:Middlewares/LVGL/GUI/lvgl/src/extra/widgets/meter/lv_meter.c ****         lv_coord_t h = lv_obj_get_style_height(obj, LV_PART_INDICATOR) / 2;
 1986              		.loc 1 315 9 view .LVU686
 1987              	.LBB105:
ARM GAS  C:\Users\ADMINI~1\AppData\Local\Temp\ccVbA5cL.s 			page 72


 1988              	.LBI105:
   1:Middlewares/LVGL/GUI/lvgl/src/extra/widgets/meter/../../../../src/core/lv_obj_style_gen.h **** {
 1989              		.loc 2 1 26 view .LVU687
 1990              	.LBB106:
   3:Middlewares/LVGL/GUI/lvgl/src/extra/widgets/meter/../../../../src/core/lv_obj_style_gen.h ****     return (lv_coord_t)v.num;
 1991              		.loc 2 3 5 view .LVU688
   3:Middlewares/LVGL/GUI/lvgl/src/extra/widgets/meter/../../../../src/core/lv_obj_style_gen.h ****     return (lv_coord_t)v.num;
 1992              		.loc 2 3 26 is_stmt 0 view .LVU689
 1993 0086 41F20102 		movw	r2, #4097
 1994 008a 4FF40031 		mov	r1, #131072
 1995 008e 2846     		mov	r0, r5
 1996 0090 FFF7FEFF 		bl	lv_obj_get_style_prop
 1997              	.LVL225:
   4:Middlewares/LVGL/GUI/lvgl/src/extra/widgets/meter/../../../../src/core/lv_obj_style_gen.h **** }
 1998              		.loc 2 4 5 is_stmt 1 view .LVU690
   4:Middlewares/LVGL/GUI/lvgl/src/extra/widgets/meter/../../../../src/core/lv_obj_style_gen.h **** }
 1999              		.loc 2 4 5 is_stmt 0 view .LVU691
 2000              	.LBE106:
 2001              	.LBE105:
 315:Middlewares/LVGL/GUI/lvgl/src/extra/widgets/meter/lv_meter.c ****         lv_coord_t h = lv_obj_get_style_height(obj, LV_PART_INDICATOR) / 2;
 2002              		.loc 1 315 20 view .LVU692
 2003 0094 00EBD070 		add	r0, r0, r0, lsr #31
 2004 0098 4FEA6008 		asr	r8, r0, #1
 2005              	.LVL226:
 316:Middlewares/LVGL/GUI/lvgl/src/extra/widgets/meter/lv_meter.c ****         lv_area_t nm_cord;
 2006              		.loc 1 316 9 is_stmt 1 view .LVU693
 2007              	.LBB107:
 2008              	.LBI107:
  19:Middlewares/LVGL/GUI/lvgl/src/extra/widgets/meter/../../../../src/core/lv_obj_style_gen.h **** {
 2009              		.loc 2 19 26 view .LVU694
 2010              	.LBB108:
  21:Middlewares/LVGL/GUI/lvgl/src/extra/widgets/meter/../../../../src/core/lv_obj_style_gen.h ****     return (lv_coord_t)v.num;
 2011              		.loc 2 21 5 view .LVU695
  21:Middlewares/LVGL/GUI/lvgl/src/extra/widgets/meter/../../../../src/core/lv_obj_style_gen.h ****     return (lv_coord_t)v.num;
 2012              		.loc 2 21 26 is_stmt 0 view .LVU696
 2013 009c 41F20402 		movw	r2, #4100
 2014 00a0 4FF40031 		mov	r1, #131072
 2015 00a4 2846     		mov	r0, r5
 2016 00a6 FFF7FEFF 		bl	lv_obj_get_style_prop
 2017              	.LVL227:
  22:Middlewares/LVGL/GUI/lvgl/src/extra/widgets/meter/../../../../src/core/lv_obj_style_gen.h **** }
 2018              		.loc 2 22 5 is_stmt 1 view .LVU697
  22:Middlewares/LVGL/GUI/lvgl/src/extra/widgets/meter/../../../../src/core/lv_obj_style_gen.h **** }
 2019              		.loc 2 22 5 is_stmt 0 view .LVU698
 2020              	.LBE108:
 2021              	.LBE107:
 316:Middlewares/LVGL/GUI/lvgl/src/extra/widgets/meter/lv_meter.c ****         lv_area_t nm_cord;
 2022              		.loc 1 316 20 view .LVU699
 2023 00aa 00EBD073 		add	r3, r0, r0, lsr #31
 2024              	.LVL228:
 317:Middlewares/LVGL/GUI/lvgl/src/extra/widgets/meter/lv_meter.c ****         nm_cord.x1 = scale_center.x - w;
 2025              		.loc 1 317 9 is_stmt 1 view .LVU700
 318:Middlewares/LVGL/GUI/lvgl/src/extra/widgets/meter/lv_meter.c ****         nm_cord.y1 = scale_center.y - h;
 2026              		.loc 1 318 9 view .LVU701
 318:Middlewares/LVGL/GUI/lvgl/src/extra/widgets/meter/lv_meter.c ****         nm_cord.y1 = scale_center.y - h;
 2027              		.loc 1 318 37 is_stmt 0 view .LVU702
 2028 00ae A4EB0802 		sub	r2, r4, r8
ARM GAS  C:\Users\ADMINI~1\AppData\Local\Temp\ccVbA5cL.s 			page 73


 318:Middlewares/LVGL/GUI/lvgl/src/extra/widgets/meter/lv_meter.c ****         nm_cord.y1 = scale_center.y - h;
 2029              		.loc 1 318 20 view .LVU703
 2030 00b2 0692     		str	r2, [sp, #24]
 319:Middlewares/LVGL/GUI/lvgl/src/extra/widgets/meter/lv_meter.c ****         nm_cord.x2 = scale_center.x + w;
 2031              		.loc 1 319 9 is_stmt 1 view .LVU704
 319:Middlewares/LVGL/GUI/lvgl/src/extra/widgets/meter/lv_meter.c ****         nm_cord.x2 = scale_center.x + w;
 2032              		.loc 1 319 37 is_stmt 0 view .LVU705
 2033 00b4 A6EB6302 		sub	r2, r6, r3, asr #1
 319:Middlewares/LVGL/GUI/lvgl/src/extra/widgets/meter/lv_meter.c ****         nm_cord.x2 = scale_center.x + w;
 2034              		.loc 1 319 20 view .LVU706
 2035 00b8 0792     		str	r2, [sp, #28]
 320:Middlewares/LVGL/GUI/lvgl/src/extra/widgets/meter/lv_meter.c ****         nm_cord.y2 = scale_center.y + h;
 2036              		.loc 1 320 9 is_stmt 1 view .LVU707
 320:Middlewares/LVGL/GUI/lvgl/src/extra/widgets/meter/lv_meter.c ****         nm_cord.y2 = scale_center.y + h;
 2037              		.loc 1 320 37 is_stmt 0 view .LVU708
 2038 00ba 4444     		add	r4, r4, r8
 320:Middlewares/LVGL/GUI/lvgl/src/extra/widgets/meter/lv_meter.c ****         nm_cord.y2 = scale_center.y + h;
 2039              		.loc 1 320 20 view .LVU709
 2040 00bc 0894     		str	r4, [sp, #32]
 321:Middlewares/LVGL/GUI/lvgl/src/extra/widgets/meter/lv_meter.c ****         lv_draw_rect(draw_ctx, &mid_dsc, &nm_cord);
 2041              		.loc 1 321 9 is_stmt 1 view .LVU710
 321:Middlewares/LVGL/GUI/lvgl/src/extra/widgets/meter/lv_meter.c ****         lv_draw_rect(draw_ctx, &mid_dsc, &nm_cord);
 2042              		.loc 1 321 37 is_stmt 0 view .LVU711
 2043 00be 06EB6303 		add	r3, r6, r3, asr #1
 2044              	.LVL229:
 321:Middlewares/LVGL/GUI/lvgl/src/extra/widgets/meter/lv_meter.c ****         lv_draw_rect(draw_ctx, &mid_dsc, &nm_cord);
 2045              		.loc 1 321 20 view .LVU712
 2046 00c2 0993     		str	r3, [sp, #36]
 322:Middlewares/LVGL/GUI/lvgl/src/extra/widgets/meter/lv_meter.c ****     }
 2047              		.loc 1 322 9 is_stmt 1 view .LVU713
 2048 00c4 06AA     		add	r2, sp, #24
 2049 00c6 0AA9     		add	r1, sp, #40
 2050 00c8 3846     		mov	r0, r7
 2051              	.LVL230:
 322:Middlewares/LVGL/GUI/lvgl/src/extra/widgets/meter/lv_meter.c ****     }
 2052              		.loc 1 322 9 is_stmt 0 view .LVU714
 2053 00ca FFF7FEFF 		bl	lv_draw_rect
 2054              	.LVL231:
 2055 00ce A0E7     		b	.L58
 2056              	.L63:
 2057              		.align	2
 2058              	.L62:
 2059 00d0 00000000 		.word	.LANCHOR0
 2060              	.LBE102:
 2061              		.cfi_endproc
 2062              	.LFE210:
 2064              		.section	.text.lv_meter_destructor,"ax",%progbits
 2065              		.align	1
 2066              		.syntax unified
 2067              		.thumb
 2068              		.thumb_func
 2070              	lv_meter_destructor:
 2071              	.LVL232:
 2072              	.LFB209:
 280:Middlewares/LVGL/GUI/lvgl/src/extra/widgets/meter/lv_meter.c ****     LV_UNUSED(class_p);
 2073              		.loc 1 280 1 is_stmt 1 view -0
 2074              		.cfi_startproc
ARM GAS  C:\Users\ADMINI~1\AppData\Local\Temp\ccVbA5cL.s 			page 74


 2075              		@ args = 0, pretend = 0, frame = 0
 2076              		@ frame_needed = 0, uses_anonymous_args = 0
 280:Middlewares/LVGL/GUI/lvgl/src/extra/widgets/meter/lv_meter.c ****     LV_UNUSED(class_p);
 2077              		.loc 1 280 1 is_stmt 0 view .LVU716
 2078 0000 10B5     		push	{r4, lr}
 2079              	.LCFI13:
 2080              		.cfi_def_cfa_offset 8
 2081              		.cfi_offset 4, -8
 2082              		.cfi_offset 14, -4
 2083 0002 0C46     		mov	r4, r1
 281:Middlewares/LVGL/GUI/lvgl/src/extra/widgets/meter/lv_meter.c ****     LV_ASSERT_OBJ(obj, MY_CLASS);
 2084              		.loc 1 281 5 is_stmt 1 view .LVU717
 282:Middlewares/LVGL/GUI/lvgl/src/extra/widgets/meter/lv_meter.c ****     lv_meter_t * meter = (lv_meter_t *)obj;
 2085              		.loc 1 282 5 view .LVU718
 282:Middlewares/LVGL/GUI/lvgl/src/extra/widgets/meter/lv_meter.c ****     lv_meter_t * meter = (lv_meter_t *)obj;
 2086              		.loc 1 282 5 view .LVU719
 282:Middlewares/LVGL/GUI/lvgl/src/extra/widgets/meter/lv_meter.c ****     lv_meter_t * meter = (lv_meter_t *)obj;
 2087              		.loc 1 282 5 view .LVU720
 283:Middlewares/LVGL/GUI/lvgl/src/extra/widgets/meter/lv_meter.c ****     _lv_ll_clear(&meter->indicator_ll);
 2088              		.loc 1 283 5 view .LVU721
 2089              	.LVL233:
 284:Middlewares/LVGL/GUI/lvgl/src/extra/widgets/meter/lv_meter.c ****     _lv_ll_clear(&meter->scale_ll);
 2090              		.loc 1 284 5 view .LVU722
 2091 0004 01F13800 		add	r0, r1, #56
 2092              	.LVL234:
 284:Middlewares/LVGL/GUI/lvgl/src/extra/widgets/meter/lv_meter.c ****     _lv_ll_clear(&meter->scale_ll);
 2093              		.loc 1 284 5 is_stmt 0 view .LVU723
 2094 0008 FFF7FEFF 		bl	_lv_ll_clear
 2095              	.LVL235:
 285:Middlewares/LVGL/GUI/lvgl/src/extra/widgets/meter/lv_meter.c **** 
 2096              		.loc 1 285 5 is_stmt 1 view .LVU724
 2097 000c 04F12C00 		add	r0, r4, #44
 2098 0010 FFF7FEFF 		bl	_lv_ll_clear
 2099              	.LVL236:
 287:Middlewares/LVGL/GUI/lvgl/src/extra/widgets/meter/lv_meter.c **** 
 2100              		.loc 1 287 1 is_stmt 0 view .LVU725
 2101 0014 10BD     		pop	{r4, pc}
 287:Middlewares/LVGL/GUI/lvgl/src/extra/widgets/meter/lv_meter.c **** 
 2102              		.loc 1 287 1 view .LVU726
 2103              		.cfi_endproc
 2104              	.LFE209:
 2106              		.section	.text.lv_meter_constructor,"ax",%progbits
 2107              		.align	1
 2108              		.syntax unified
 2109              		.thumb
 2110              		.thumb_func
 2112              	lv_meter_constructor:
 2113              	.LVL237:
 2114              	.LFB208:
 267:Middlewares/LVGL/GUI/lvgl/src/extra/widgets/meter/lv_meter.c ****     LV_UNUSED(class_p);
 2115              		.loc 1 267 1 is_stmt 1 view -0
 2116              		.cfi_startproc
 2117              		@ args = 0, pretend = 0, frame = 0
 2118              		@ frame_needed = 0, uses_anonymous_args = 0
 267:Middlewares/LVGL/GUI/lvgl/src/extra/widgets/meter/lv_meter.c ****     LV_UNUSED(class_p);
 2119              		.loc 1 267 1 is_stmt 0 view .LVU728
 2120 0000 10B5     		push	{r4, lr}
ARM GAS  C:\Users\ADMINI~1\AppData\Local\Temp\ccVbA5cL.s 			page 75


 2121              	.LCFI14:
 2122              		.cfi_def_cfa_offset 8
 2123              		.cfi_offset 4, -8
 2124              		.cfi_offset 14, -4
 2125 0002 0C46     		mov	r4, r1
 268:Middlewares/LVGL/GUI/lvgl/src/extra/widgets/meter/lv_meter.c ****     LV_TRACE_OBJ_CREATE("begin");
 2126              		.loc 1 268 5 is_stmt 1 view .LVU729
 269:Middlewares/LVGL/GUI/lvgl/src/extra/widgets/meter/lv_meter.c **** 
 2127              		.loc 1 269 33 view .LVU730
 271:Middlewares/LVGL/GUI/lvgl/src/extra/widgets/meter/lv_meter.c **** 
 2128              		.loc 1 271 5 view .LVU731
 2129              	.LVL238:
 273:Middlewares/LVGL/GUI/lvgl/src/extra/widgets/meter/lv_meter.c ****     _lv_ll_init(&meter->indicator_ll, sizeof(lv_meter_indicator_t));
 2130              		.loc 1 273 5 view .LVU732
 2131 0004 2421     		movs	r1, #36
 2132              	.LVL239:
 273:Middlewares/LVGL/GUI/lvgl/src/extra/widgets/meter/lv_meter.c ****     _lv_ll_init(&meter->indicator_ll, sizeof(lv_meter_indicator_t));
 2133              		.loc 1 273 5 is_stmt 0 view .LVU733
 2134 0006 04F12C00 		add	r0, r4, #44
 2135              	.LVL240:
 273:Middlewares/LVGL/GUI/lvgl/src/extra/widgets/meter/lv_meter.c ****     _lv_ll_init(&meter->indicator_ll, sizeof(lv_meter_indicator_t));
 2136              		.loc 1 273 5 view .LVU734
 2137 000a FFF7FEFF 		bl	_lv_ll_init
 2138              	.LVL241:
 274:Middlewares/LVGL/GUI/lvgl/src/extra/widgets/meter/lv_meter.c **** 
 2139              		.loc 1 274 5 is_stmt 1 view .LVU735
 2140 000e 1C21     		movs	r1, #28
 2141 0010 04F13800 		add	r0, r4, #56
 2142 0014 FFF7FEFF 		bl	_lv_ll_init
 2143              	.LVL242:
 276:Middlewares/LVGL/GUI/lvgl/src/extra/widgets/meter/lv_meter.c **** }
 2144              		.loc 1 276 36 view .LVU736
 277:Middlewares/LVGL/GUI/lvgl/src/extra/widgets/meter/lv_meter.c **** 
 2145              		.loc 1 277 1 is_stmt 0 view .LVU737
 2146 0018 10BD     		pop	{r4, pc}
 277:Middlewares/LVGL/GUI/lvgl/src/extra/widgets/meter/lv_meter.c **** 
 2147              		.loc 1 277 1 view .LVU738
 2148              		.cfi_endproc
 2149              	.LFE208:
 2151              		.section	.text.inv_arc,"ax",%progbits
 2152              		.align	1
 2153              		.syntax unified
 2154              		.thumb
 2155              		.thumb_func
 2157              	inv_arc:
 2158              	.LVL243:
 2159              	.LFB214:
 635:Middlewares/LVGL/GUI/lvgl/src/extra/widgets/meter/lv_meter.c **** 
 636:Middlewares/LVGL/GUI/lvgl/src/extra/widgets/meter/lv_meter.c **** static void inv_arc(lv_obj_t * obj, lv_meter_indicator_t * indic, int32_t old_value, int32_t new_va
 637:Middlewares/LVGL/GUI/lvgl/src/extra/widgets/meter/lv_meter.c **** {
 2160              		.loc 1 637 1 is_stmt 1 view -0
 2161              		.cfi_startproc
 2162              		@ args = 0, pretend = 0, frame = 48
 2163              		@ frame_needed = 0, uses_anonymous_args = 0
 2164              		.loc 1 637 1 is_stmt 0 view .LVU740
 2165 0000 2DE9F04F 		push	{r4, r5, r6, r7, r8, r9, r10, fp, lr}
 2166              	.LCFI15:
ARM GAS  C:\Users\ADMINI~1\AppData\Local\Temp\ccVbA5cL.s 			page 76


 2167              		.cfi_def_cfa_offset 36
 2168              		.cfi_offset 4, -36
 2169              		.cfi_offset 5, -32
 2170              		.cfi_offset 6, -28
 2171              		.cfi_offset 7, -24
 2172              		.cfi_offset 8, -20
 2173              		.cfi_offset 9, -16
 2174              		.cfi_offset 10, -12
 2175              		.cfi_offset 11, -8
 2176              		.cfi_offset 14, -4
 2177 0004 91B0     		sub	sp, sp, #68
 2178              	.LCFI16:
 2179              		.cfi_def_cfa_offset 104
 2180 0006 8046     		mov	r8, r0
 2181 0008 0F46     		mov	r7, r1
 2182 000a 1446     		mov	r4, r2
 2183 000c 0593     		str	r3, [sp, #20]
 638:Middlewares/LVGL/GUI/lvgl/src/extra/widgets/meter/lv_meter.c ****     bool rounded = lv_obj_get_style_arc_rounded(obj, LV_PART_ITEMS);
 2184              		.loc 1 638 5 is_stmt 1 view .LVU741
 2185              	.LVL244:
 2186              	.LBB109:
 2187              	.LBI109:
 403:Middlewares/LVGL/GUI/lvgl/src/extra/widgets/meter/../../../../src/core/lv_obj_style_gen.h **** {
 2188              		.loc 2 403 20 view .LVU742
 2189              	.LBB110:
 405:Middlewares/LVGL/GUI/lvgl/src/extra/widgets/meter/../../../../src/core/lv_obj_style_gen.h ****     return (bool)v.num;
 2190              		.loc 2 405 5 view .LVU743
 405:Middlewares/LVGL/GUI/lvgl/src/extra/widgets/meter/../../../../src/core/lv_obj_style_gen.h ****     return (bool)v.num;
 2191              		.loc 2 405 26 is_stmt 0 view .LVU744
 2192 000e 5122     		movs	r2, #81
 2193              	.LVL245:
 405:Middlewares/LVGL/GUI/lvgl/src/extra/widgets/meter/../../../../src/core/lv_obj_style_gen.h ****     return (bool)v.num;
 2194              		.loc 2 405 26 view .LVU745
 2195 0010 4FF4A021 		mov	r1, #327680
 2196              	.LVL246:
 405:Middlewares/LVGL/GUI/lvgl/src/extra/widgets/meter/../../../../src/core/lv_obj_style_gen.h ****     return (bool)v.num;
 2197              		.loc 2 405 26 view .LVU746
 2198 0014 FFF7FEFF 		bl	lv_obj_get_style_prop
 2199              	.LVL247:
 406:Middlewares/LVGL/GUI/lvgl/src/extra/widgets/meter/../../../../src/core/lv_obj_style_gen.h **** }
 2200              		.loc 2 406 5 is_stmt 1 view .LVU747
 406:Middlewares/LVGL/GUI/lvgl/src/extra/widgets/meter/../../../../src/core/lv_obj_style_gen.h **** }
 2201              		.loc 2 406 12 is_stmt 0 view .LVU748
 2202 0018 B0F1000A 		subs	r10, r0, #0
 2203 001c 18BF     		it	ne
 2204 001e 4FF0010A 		movne	r10, #1
 2205              	.LVL248:
 406:Middlewares/LVGL/GUI/lvgl/src/extra/widgets/meter/../../../../src/core/lv_obj_style_gen.h **** }
 2206              		.loc 2 406 12 view .LVU749
 2207              	.LBE110:
 2208              	.LBE109:
 639:Middlewares/LVGL/GUI/lvgl/src/extra/widgets/meter/lv_meter.c **** 
 640:Middlewares/LVGL/GUI/lvgl/src/extra/widgets/meter/lv_meter.c ****     lv_area_t scale_area;
 2209              		.loc 1 640 5 is_stmt 1 view .LVU750
 641:Middlewares/LVGL/GUI/lvgl/src/extra/widgets/meter/lv_meter.c ****     lv_obj_get_content_coords(obj, &scale_area);
 2210              		.loc 1 641 5 view .LVU751
 2211 0022 0CA9     		add	r1, sp, #48
ARM GAS  C:\Users\ADMINI~1\AppData\Local\Temp\ccVbA5cL.s 			page 77


 2212 0024 4046     		mov	r0, r8
 2213 0026 FFF7FEFF 		bl	lv_obj_get_content_coords
 2214              	.LVL249:
 642:Middlewares/LVGL/GUI/lvgl/src/extra/widgets/meter/lv_meter.c **** 
 643:Middlewares/LVGL/GUI/lvgl/src/extra/widgets/meter/lv_meter.c ****     lv_coord_t r_out = lv_area_get_width(&scale_area) / 2;
 2215              		.loc 1 643 5 view .LVU752
 2216              	.LBB111:
 2217              	.LBI111:
 123:Middlewares/LVGL/GUI/lvgl/src/extra/widgets/meter/../../../../src/hal/../draw/../misc/../font/../misc/lv_area.h **** {
 2218              		.loc 3 123 26 view .LVU753
 2219              	.LBB112:
 125:Middlewares/LVGL/GUI/lvgl/src/extra/widgets/meter/../../../../src/hal/../draw/../misc/../font/../misc/lv_area.h **** }
 2220              		.loc 3 125 5 view .LVU754
 125:Middlewares/LVGL/GUI/lvgl/src/extra/widgets/meter/../../../../src/hal/../draw/../misc/../font/../misc/lv_area.h **** }
 2221              		.loc 3 125 44 is_stmt 0 view .LVU755
 2222 002a 0C9E     		ldr	r6, [sp, #48]
 125:Middlewares/LVGL/GUI/lvgl/src/extra/widgets/meter/../../../../src/hal/../draw/../misc/../font/../misc/lv_area.h **** }
 2223              		.loc 3 125 36 view .LVU756
 2224 002c 0E9B     		ldr	r3, [sp, #56]
 2225 002e 9B1B     		subs	r3, r3, r6
 125:Middlewares/LVGL/GUI/lvgl/src/extra/widgets/meter/../../../../src/hal/../draw/../misc/../font/../misc/lv_area.h **** }
 2226              		.loc 3 125 12 view .LVU757
 2227 0030 0133     		adds	r3, r3, #1
 2228              	.LVL250:
 125:Middlewares/LVGL/GUI/lvgl/src/extra/widgets/meter/../../../../src/hal/../draw/../misc/../font/../misc/lv_area.h **** }
 2229              		.loc 3 125 12 view .LVU758
 2230              	.LBE112:
 2231              	.LBE111:
 2232              		.loc 1 643 16 view .LVU759
 2233 0032 03EBD373 		add	r3, r3, r3, lsr #31
 2234              	.LVL251:
 644:Middlewares/LVGL/GUI/lvgl/src/extra/widgets/meter/lv_meter.c ****     lv_point_t scale_center;
 2235              		.loc 1 644 5 is_stmt 1 view .LVU760
 645:Middlewares/LVGL/GUI/lvgl/src/extra/widgets/meter/lv_meter.c ****     scale_center.x = scale_area.x1 + r_out;
 2236              		.loc 1 645 5 view .LVU761
 2237              		.loc 1 645 36 is_stmt 0 view .LVU762
 2238 0036 06EB6306 		add	r6, r6, r3, asr #1
 2239              		.loc 1 645 20 view .LVU763
 2240 003a 0A96     		str	r6, [sp, #40]
 646:Middlewares/LVGL/GUI/lvgl/src/extra/widgets/meter/lv_meter.c ****     scale_center.y = scale_area.y1 + r_out;
 2241              		.loc 1 646 5 is_stmt 1 view .LVU764
 2242              		.loc 1 646 32 is_stmt 0 view .LVU765
 2243 003c 0D9A     		ldr	r2, [sp, #52]
 2244              		.loc 1 646 36 view .LVU766
 2245 003e 02EB6309 		add	r9, r2, r3, asr #1
 2246              		.loc 1 646 20 view .LVU767
 2247 0042 CDF82C90 		str	r9, [sp, #44]
 647:Middlewares/LVGL/GUI/lvgl/src/extra/widgets/meter/lv_meter.c **** 
 648:Middlewares/LVGL/GUI/lvgl/src/extra/widgets/meter/lv_meter.c ****     r_out += indic->type_data.arc.r_mod;
 2248              		.loc 1 648 5 is_stmt 1 view .LVU768
 2249              		.loc 1 648 34 is_stmt 0 view .LVU769
 2250 0046 B7F91A20 		ldrsh	r2, [r7, #26]
 2251              		.loc 1 648 11 view .LVU770
 2252 004a 02EB630B 		add	fp, r2, r3, asr #1
 2253              	.LVL252:
 649:Middlewares/LVGL/GUI/lvgl/src/extra/widgets/meter/lv_meter.c **** 
 650:Middlewares/LVGL/GUI/lvgl/src/extra/widgets/meter/lv_meter.c ****     lv_meter_scale_t * scale = indic->scale;
ARM GAS  C:\Users\ADMINI~1\AppData\Local\Temp\ccVbA5cL.s 			page 78


 2254              		.loc 1 650 5 is_stmt 1 view .LVU771
 2255              		.loc 1 650 24 is_stmt 0 view .LVU772
 2256 004e 3D68     		ldr	r5, [r7]
 2257              	.LVL253:
 651:Middlewares/LVGL/GUI/lvgl/src/extra/widgets/meter/lv_meter.c **** 
 652:Middlewares/LVGL/GUI/lvgl/src/extra/widgets/meter/lv_meter.c ****     int32_t start_angle = lv_map(old_value, scale->min, scale->max, scale->rotation, scale->angle_r
 2258              		.loc 1 652 5 is_stmt 1 view .LVU773
 2259              		.loc 1 652 74 is_stmt 0 view .LVU774
 2260 0050 B5F92030 		ldrsh	r3, [r5, #32]
 2261              		.loc 1 652 91 view .LVU775
 2262 0054 E88B     		ldrh	r0, [r5, #30]
 2263              		.loc 1 652 105 view .LVU776
 2264 0056 1844     		add	r0, r0, r3
 2265              		.loc 1 652 27 view .LVU777
 2266 0058 AA69     		ldr	r2, [r5, #24]
 2267 005a 6969     		ldr	r1, [r5, #20]
 2268 005c 0090     		str	r0, [sp]
 2269 005e 2046     		mov	r0, r4
 2270 0060 FFF7FEFF 		bl	lv_map
 2271              	.LVL254:
 2272 0064 0446     		mov	r4, r0
 2273              	.LVL255:
 653:Middlewares/LVGL/GUI/lvgl/src/extra/widgets/meter/lv_meter.c ****     int32_t end_angle = lv_map(new_value, scale->min, scale->max, scale->rotation, scale->angle_ran
 2274              		.loc 1 653 5 is_stmt 1 view .LVU778
 2275              		.loc 1 653 72 is_stmt 0 view .LVU779
 2276 0066 B5F92030 		ldrsh	r3, [r5, #32]
 2277              		.loc 1 653 89 view .LVU780
 2278 006a E88B     		ldrh	r0, [r5, #30]
 2279              	.LVL256:
 2280              		.loc 1 653 103 view .LVU781
 2281 006c 1844     		add	r0, r0, r3
 2282              		.loc 1 653 25 view .LVU782
 2283 006e AA69     		ldr	r2, [r5, #24]
 2284 0070 6969     		ldr	r1, [r5, #20]
 2285 0072 0090     		str	r0, [sp]
 2286 0074 0598     		ldr	r0, [sp, #20]
 2287 0076 FFF7FEFF 		bl	lv_map
 2288              	.LVL257:
 654:Middlewares/LVGL/GUI/lvgl/src/extra/widgets/meter/lv_meter.c **** 
 655:Middlewares/LVGL/GUI/lvgl/src/extra/widgets/meter/lv_meter.c ****     lv_area_t a;
 2289              		.loc 1 655 5 is_stmt 1 view .LVU783
 656:Middlewares/LVGL/GUI/lvgl/src/extra/widgets/meter/lv_meter.c ****     lv_draw_arc_get_area(scale_center.x, scale_center.y, r_out, LV_MIN(start_angle, end_angle), LV_
 2290              		.loc 1 656 5 view .LVU784
 2291              		.loc 1 656 65 is_stmt 0 view .LVU785
 2292 007a 2346     		mov	r3, r4
 2293 007c 8442     		cmp	r4, r0
 2294 007e A8BF     		it	ge
 2295 0080 0346     		movge	r3, r0
 2296              		.loc 1 656 97 view .LVU786
 2297 0082 8442     		cmp	r4, r0
 2298 0084 B8BF     		it	lt
 2299 0086 0446     		movlt	r4, r0
 2300              	.LVL258:
 657:Middlewares/LVGL/GUI/lvgl/src/extra/widgets/meter/lv_meter.c ****                                                                                                    
 2301              		.loc 1 657 136 view .LVU787
 2302 0088 3A8A     		ldrh	r2, [r7, #16]
 656:Middlewares/LVGL/GUI/lvgl/src/extra/widgets/meter/lv_meter.c ****     lv_draw_arc_get_area(scale_center.x, scale_center.y, r_out, LV_MIN(start_angle, end_angle), LV_
ARM GAS  C:\Users\ADMINI~1\AppData\Local\Temp\ccVbA5cL.s 			page 79


 2303              		.loc 1 656 5 view .LVU788
 2304 008a 06AD     		add	r5, sp, #24
 2305              	.LVL259:
 656:Middlewares/LVGL/GUI/lvgl/src/extra/widgets/meter/lv_meter.c ****     lv_draw_arc_get_area(scale_center.x, scale_center.y, r_out, LV_MIN(start_angle, end_angle), LV_
 2306              		.loc 1 656 5 view .LVU789
 2307 008c 0395     		str	r5, [sp, #12]
 2308 008e CDF808A0 		str	r10, [sp, #8]
 2309 0092 0192     		str	r2, [sp, #4]
 2310 0094 A4B2     		uxth	r4, r4
 2311 0096 0094     		str	r4, [sp]
 2312 0098 9BB2     		uxth	r3, r3
 2313 009a 1FFA8BF2 		uxth	r2, fp
 2314 009e 4946     		mov	r1, r9
 2315 00a0 3046     		mov	r0, r6
 2316              	.LVL260:
 656:Middlewares/LVGL/GUI/lvgl/src/extra/widgets/meter/lv_meter.c ****     lv_draw_arc_get_area(scale_center.x, scale_center.y, r_out, LV_MIN(start_angle, end_angle), LV_
 2317              		.loc 1 656 5 view .LVU790
 2318 00a2 FFF7FEFF 		bl	lv_draw_arc_get_area
 2319              	.LVL261:
 658:Middlewares/LVGL/GUI/lvgl/src/extra/widgets/meter/lv_meter.c ****     lv_obj_invalidate_area(obj, &a);
 2320              		.loc 1 658 5 is_stmt 1 view .LVU791
 2321 00a6 2946     		mov	r1, r5
 2322 00a8 4046     		mov	r0, r8
 2323 00aa FFF7FEFF 		bl	lv_obj_invalidate_area
 2324              	.LVL262:
 659:Middlewares/LVGL/GUI/lvgl/src/extra/widgets/meter/lv_meter.c **** }
 2325              		.loc 1 659 1 is_stmt 0 view .LVU792
 2326 00ae 11B0     		add	sp, sp, #68
 2327              	.LCFI17:
 2328              		.cfi_def_cfa_offset 36
 2329              		@ sp needed
 2330 00b0 BDE8F08F 		pop	{r4, r5, r6, r7, r8, r9, r10, fp, pc}
 2331              		.loc 1 659 1 view .LVU793
 2332              		.cfi_endproc
 2333              	.LFE214:
 2335              		.section	.text.inv_line,"ax",%progbits
 2336              		.align	1
 2337              		.syntax unified
 2338              		.thumb
 2339              		.thumb_func
 2341              	inv_line:
 2342              	.LVL263:
 2343              	.LFB215:
 660:Middlewares/LVGL/GUI/lvgl/src/extra/widgets/meter/lv_meter.c **** 
 661:Middlewares/LVGL/GUI/lvgl/src/extra/widgets/meter/lv_meter.c **** 
 662:Middlewares/LVGL/GUI/lvgl/src/extra/widgets/meter/lv_meter.c **** static void inv_line(lv_obj_t * obj, lv_meter_indicator_t * indic, int32_t value)
 663:Middlewares/LVGL/GUI/lvgl/src/extra/widgets/meter/lv_meter.c **** {
 2344              		.loc 1 663 1 is_stmt 1 view -0
 2345              		.cfi_startproc
 2346              		@ args = 0, pretend = 0, frame = 48
 2347              		@ frame_needed = 0, uses_anonymous_args = 0
 2348              		.loc 1 663 1 is_stmt 0 view .LVU795
 2349 0000 2DE9F04F 		push	{r4, r5, r6, r7, r8, r9, r10, fp, lr}
 2350              	.LCFI18:
 2351              		.cfi_def_cfa_offset 36
 2352              		.cfi_offset 4, -36
 2353              		.cfi_offset 5, -32
ARM GAS  C:\Users\ADMINI~1\AppData\Local\Temp\ccVbA5cL.s 			page 80


 2354              		.cfi_offset 6, -28
 2355              		.cfi_offset 7, -24
 2356              		.cfi_offset 8, -20
 2357              		.cfi_offset 9, -16
 2358              		.cfi_offset 10, -12
 2359              		.cfi_offset 11, -8
 2360              		.cfi_offset 14, -4
 2361 0004 8FB0     		sub	sp, sp, #60
 2362              	.LCFI19:
 2363              		.cfi_def_cfa_offset 96
 2364 0006 0646     		mov	r6, r0
 2365 0008 0C46     		mov	r4, r1
 2366 000a 1746     		mov	r7, r2
 664:Middlewares/LVGL/GUI/lvgl/src/extra/widgets/meter/lv_meter.c ****     lv_area_t scale_area;
 2367              		.loc 1 664 5 is_stmt 1 view .LVU796
 665:Middlewares/LVGL/GUI/lvgl/src/extra/widgets/meter/lv_meter.c ****     lv_obj_get_content_coords(obj, &scale_area);
 2368              		.loc 1 665 5 view .LVU797
 2369 000c 0AA9     		add	r1, sp, #40
 2370              	.LVL264:
 2371              		.loc 1 665 5 is_stmt 0 view .LVU798
 2372 000e FFF7FEFF 		bl	lv_obj_get_content_coords
 2373              	.LVL265:
 666:Middlewares/LVGL/GUI/lvgl/src/extra/widgets/meter/lv_meter.c **** 
 667:Middlewares/LVGL/GUI/lvgl/src/extra/widgets/meter/lv_meter.c ****     lv_coord_t r_out = lv_area_get_width(&scale_area) / 2;
 2374              		.loc 1 667 5 is_stmt 1 view .LVU799
 2375              	.LBB113:
 2376              	.LBI113:
 123:Middlewares/LVGL/GUI/lvgl/src/extra/widgets/meter/../../../../src/hal/../draw/../misc/../font/../misc/lv_area.h **** {
 2377              		.loc 3 123 26 view .LVU800
 2378              	.LBB114:
 125:Middlewares/LVGL/GUI/lvgl/src/extra/widgets/meter/../../../../src/hal/../draw/../misc/../font/../misc/lv_area.h **** }
 2379              		.loc 3 125 5 view .LVU801
 125:Middlewares/LVGL/GUI/lvgl/src/extra/widgets/meter/../../../../src/hal/../draw/../misc/../font/../misc/lv_area.h **** }
 2380              		.loc 3 125 44 is_stmt 0 view .LVU802
 2381 0012 0A9A     		ldr	r2, [sp, #40]
 125:Middlewares/LVGL/GUI/lvgl/src/extra/widgets/meter/../../../../src/hal/../draw/../misc/../font/../misc/lv_area.h **** }
 2382              		.loc 3 125 36 view .LVU803
 2383 0014 0C9B     		ldr	r3, [sp, #48]
 2384 0016 9B1A     		subs	r3, r3, r2
 125:Middlewares/LVGL/GUI/lvgl/src/extra/widgets/meter/../../../../src/hal/../draw/../misc/../font/../misc/lv_area.h **** }
 2385              		.loc 3 125 12 view .LVU804
 2386 0018 0133     		adds	r3, r3, #1
 2387              	.LVL266:
 125:Middlewares/LVGL/GUI/lvgl/src/extra/widgets/meter/../../../../src/hal/../draw/../misc/../font/../misc/lv_area.h **** }
 2388              		.loc 3 125 12 view .LVU805
 2389              	.LBE114:
 2390              	.LBE113:
 2391              		.loc 1 667 16 view .LVU806
 2392 001a 03EBD373 		add	r3, r3, r3, lsr #31
 2393 001e 4FEA6309 		asr	r9, r3, #1
 2394              	.LVL267:
 668:Middlewares/LVGL/GUI/lvgl/src/extra/widgets/meter/lv_meter.c ****     lv_point_t scale_center;
 2395              		.loc 1 668 5 is_stmt 1 view .LVU807
 669:Middlewares/LVGL/GUI/lvgl/src/extra/widgets/meter/lv_meter.c ****     scale_center.x = scale_area.x1 + r_out;
 2396              		.loc 1 669 5 view .LVU808
 2397              		.loc 1 669 36 is_stmt 0 view .LVU809
 2398 0022 02EB630A 		add	r10, r2, r3, asr #1
ARM GAS  C:\Users\ADMINI~1\AppData\Local\Temp\ccVbA5cL.s 			page 81


 2399              		.loc 1 669 20 view .LVU810
 2400 0026 CDF820A0 		str	r10, [sp, #32]
 670:Middlewares/LVGL/GUI/lvgl/src/extra/widgets/meter/lv_meter.c ****     scale_center.y = scale_area.y1 + r_out;
 2401              		.loc 1 670 5 is_stmt 1 view .LVU811
 2402              		.loc 1 670 32 is_stmt 0 view .LVU812
 2403 002a 0B9D     		ldr	r5, [sp, #44]
 2404              		.loc 1 670 36 view .LVU813
 2405 002c 05EB6305 		add	r5, r5, r3, asr #1
 2406              		.loc 1 670 20 view .LVU814
 2407 0030 0995     		str	r5, [sp, #36]
 671:Middlewares/LVGL/GUI/lvgl/src/extra/widgets/meter/lv_meter.c **** 
 672:Middlewares/LVGL/GUI/lvgl/src/extra/widgets/meter/lv_meter.c ****     lv_meter_scale_t * scale = indic->scale;
 2408              		.loc 1 672 5 is_stmt 1 view .LVU815
 2409              		.loc 1 672 24 is_stmt 0 view .LVU816
 2410 0032 D4F80080 		ldr	r8, [r4]
 2411              	.LVL268:
 673:Middlewares/LVGL/GUI/lvgl/src/extra/widgets/meter/lv_meter.c **** 
 674:Middlewares/LVGL/GUI/lvgl/src/extra/widgets/meter/lv_meter.c ****     if(indic->type == LV_METER_INDICATOR_TYPE_NEEDLE_LINE) {
 2412              		.loc 1 674 5 is_stmt 1 view .LVU817
 2413              		.loc 1 674 13 is_stmt 0 view .LVU818
 2414 0036 2379     		ldrb	r3, [r4, #4]	@ zero_extendqisi2
 2415              		.loc 1 674 7 view .LVU819
 2416 0038 012B     		cmp	r3, #1
 2417 003a 04D0     		beq	.L75
 675:Middlewares/LVGL/GUI/lvgl/src/extra/widgets/meter/lv_meter.c ****         int32_t angle = lv_map(value, scale->min, scale->max, scale->rotation, scale->rotation + sc
 676:Middlewares/LVGL/GUI/lvgl/src/extra/widgets/meter/lv_meter.c ****         r_out += scale->r_mod + indic->type_data.needle_line.r_mod;
 677:Middlewares/LVGL/GUI/lvgl/src/extra/widgets/meter/lv_meter.c ****         lv_point_t p_end;
 678:Middlewares/LVGL/GUI/lvgl/src/extra/widgets/meter/lv_meter.c ****         p_end.y = (lv_trigo_sin(angle) * (r_out)) / LV_TRIGO_SIN_MAX + scale_center.y;
 679:Middlewares/LVGL/GUI/lvgl/src/extra/widgets/meter/lv_meter.c ****         p_end.x = (lv_trigo_cos(angle) * (r_out)) / LV_TRIGO_SIN_MAX + scale_center.x;
 680:Middlewares/LVGL/GUI/lvgl/src/extra/widgets/meter/lv_meter.c **** 
 681:Middlewares/LVGL/GUI/lvgl/src/extra/widgets/meter/lv_meter.c ****         lv_area_t a;
 682:Middlewares/LVGL/GUI/lvgl/src/extra/widgets/meter/lv_meter.c ****         a.x1 = LV_MIN(scale_center.x, p_end.x) - indic->type_data.needle_line.width - 2;
 683:Middlewares/LVGL/GUI/lvgl/src/extra/widgets/meter/lv_meter.c ****         a.y1 = LV_MIN(scale_center.y, p_end.y) - indic->type_data.needle_line.width - 2;
 684:Middlewares/LVGL/GUI/lvgl/src/extra/widgets/meter/lv_meter.c ****         a.x2 = LV_MAX(scale_center.x, p_end.x) + indic->type_data.needle_line.width + 2;
 685:Middlewares/LVGL/GUI/lvgl/src/extra/widgets/meter/lv_meter.c ****         a.y2 = LV_MAX(scale_center.y, p_end.y) + indic->type_data.needle_line.width + 2;
 686:Middlewares/LVGL/GUI/lvgl/src/extra/widgets/meter/lv_meter.c **** 
 687:Middlewares/LVGL/GUI/lvgl/src/extra/widgets/meter/lv_meter.c ****         lv_obj_invalidate_area(obj, &a);
 688:Middlewares/LVGL/GUI/lvgl/src/extra/widgets/meter/lv_meter.c ****     }
 689:Middlewares/LVGL/GUI/lvgl/src/extra/widgets/meter/lv_meter.c ****     else if(indic->type == LV_METER_INDICATOR_TYPE_NEEDLE_IMG) {
 2418              		.loc 1 689 10 is_stmt 1 view .LVU820
 2419              		.loc 1 689 12 is_stmt 0 view .LVU821
 2420 003c 002B     		cmp	r3, #0
 2421 003e 58D0     		beq	.L76
 2422              	.LVL269:
 2423              	.L70:
 690:Middlewares/LVGL/GUI/lvgl/src/extra/widgets/meter/lv_meter.c ****         int32_t angle = lv_map(value, scale->min, scale->max, scale->rotation, scale->rotation + sc
 691:Middlewares/LVGL/GUI/lvgl/src/extra/widgets/meter/lv_meter.c ****         lv_img_header_t info;
 692:Middlewares/LVGL/GUI/lvgl/src/extra/widgets/meter/lv_meter.c ****         lv_img_decoder_get_info(indic->type_data.needle_img.src, &info);
 693:Middlewares/LVGL/GUI/lvgl/src/extra/widgets/meter/lv_meter.c **** 
 694:Middlewares/LVGL/GUI/lvgl/src/extra/widgets/meter/lv_meter.c ****         angle = angle * 10;
 695:Middlewares/LVGL/GUI/lvgl/src/extra/widgets/meter/lv_meter.c ****         if(angle > 3600) angle -= 3600;
 696:Middlewares/LVGL/GUI/lvgl/src/extra/widgets/meter/lv_meter.c **** 
 697:Middlewares/LVGL/GUI/lvgl/src/extra/widgets/meter/lv_meter.c ****         scale_center.x -= indic->type_data.needle_img.pivot.x;
 698:Middlewares/LVGL/GUI/lvgl/src/extra/widgets/meter/lv_meter.c ****         scale_center.y -= indic->type_data.needle_img.pivot.y;
 699:Middlewares/LVGL/GUI/lvgl/src/extra/widgets/meter/lv_meter.c ****         lv_area_t a;
 700:Middlewares/LVGL/GUI/lvgl/src/extra/widgets/meter/lv_meter.c ****         _lv_img_buf_get_transformed_area(&a, info.w, info.h, angle, LV_IMG_ZOOM_NONE, &indic->type_
 701:Middlewares/LVGL/GUI/lvgl/src/extra/widgets/meter/lv_meter.c ****         a.x1 += scale_center.x - 2;
ARM GAS  C:\Users\ADMINI~1\AppData\Local\Temp\ccVbA5cL.s 			page 82


 702:Middlewares/LVGL/GUI/lvgl/src/extra/widgets/meter/lv_meter.c ****         a.y1 += scale_center.y - 2;
 703:Middlewares/LVGL/GUI/lvgl/src/extra/widgets/meter/lv_meter.c ****         a.x2 += scale_center.x + 2;
 704:Middlewares/LVGL/GUI/lvgl/src/extra/widgets/meter/lv_meter.c ****         a.y2 += scale_center.y + 2;
 705:Middlewares/LVGL/GUI/lvgl/src/extra/widgets/meter/lv_meter.c **** 
 706:Middlewares/LVGL/GUI/lvgl/src/extra/widgets/meter/lv_meter.c ****         lv_obj_invalidate_area(obj, &a);
 707:Middlewares/LVGL/GUI/lvgl/src/extra/widgets/meter/lv_meter.c ****     }
 708:Middlewares/LVGL/GUI/lvgl/src/extra/widgets/meter/lv_meter.c **** }
 2424              		.loc 1 708 1 view .LVU822
 2425 0040 0FB0     		add	sp, sp, #60
 2426              	.LCFI20:
 2427              		.cfi_remember_state
 2428              		.cfi_def_cfa_offset 36
 2429              		@ sp needed
 2430 0042 BDE8F08F 		pop	{r4, r5, r6, r7, r8, r9, r10, fp, pc}
 2431              	.LVL270:
 2432              	.L75:
 2433              	.LCFI21:
 2434              		.cfi_restore_state
 2435              	.LBB115:
 675:Middlewares/LVGL/GUI/lvgl/src/extra/widgets/meter/lv_meter.c ****         int32_t angle = lv_map(value, scale->min, scale->max, scale->rotation, scale->rotation + sc
 2436              		.loc 1 675 9 is_stmt 1 view .LVU823
 675:Middlewares/LVGL/GUI/lvgl/src/extra/widgets/meter/lv_meter.c ****         int32_t angle = lv_map(value, scale->min, scale->max, scale->rotation, scale->rotation + sc
 2437              		.loc 1 675 68 is_stmt 0 view .LVU824
 2438 0046 B8F92030 		ldrsh	r3, [r8, #32]
 675:Middlewares/LVGL/GUI/lvgl/src/extra/widgets/meter/lv_meter.c ****         int32_t angle = lv_map(value, scale->min, scale->max, scale->rotation, scale->rotation + sc
 2439              		.loc 1 675 103 view .LVU825
 2440 004a B8F81E00 		ldrh	r0, [r8, #30]
 675:Middlewares/LVGL/GUI/lvgl/src/extra/widgets/meter/lv_meter.c ****         int32_t angle = lv_map(value, scale->min, scale->max, scale->rotation, scale->rotation + sc
 2441              		.loc 1 675 96 view .LVU826
 2442 004e 1844     		add	r0, r0, r3
 675:Middlewares/LVGL/GUI/lvgl/src/extra/widgets/meter/lv_meter.c ****         int32_t angle = lv_map(value, scale->min, scale->max, scale->rotation, scale->rotation + sc
 2443              		.loc 1 675 25 view .LVU827
 2444 0050 D8F81820 		ldr	r2, [r8, #24]
 2445 0054 D8F81410 		ldr	r1, [r8, #20]
 2446 0058 0090     		str	r0, [sp]
 2447 005a 3846     		mov	r0, r7
 2448 005c FFF7FEFF 		bl	lv_map
 2449              	.LVL271:
 2450 0060 8346     		mov	fp, r0
 2451              	.LVL272:
 676:Middlewares/LVGL/GUI/lvgl/src/extra/widgets/meter/lv_meter.c ****         lv_point_t p_end;
 2452              		.loc 1 676 9 is_stmt 1 view .LVU828
 676:Middlewares/LVGL/GUI/lvgl/src/extra/widgets/meter/lv_meter.c ****         lv_point_t p_end;
 2453              		.loc 1 676 23 is_stmt 0 view .LVU829
 2454 0062 B8F91C00 		ldrsh	r0, [r8, #28]
 2455              	.LVL273:
 676:Middlewares/LVGL/GUI/lvgl/src/extra/widgets/meter/lv_meter.c ****         lv_point_t p_end;
 2456              		.loc 1 676 61 view .LVU830
 2457 0066 B4F91230 		ldrsh	r3, [r4, #18]
 676:Middlewares/LVGL/GUI/lvgl/src/extra/widgets/meter/lv_meter.c ****         lv_point_t p_end;
 2458              		.loc 1 676 31 view .LVU831
 2459 006a 1844     		add	r0, r0, r3
 676:Middlewares/LVGL/GUI/lvgl/src/extra/widgets/meter/lv_meter.c ****         lv_point_t p_end;
 2460              		.loc 1 676 15 view .LVU832
 2461 006c 8144     		add	r9, r9, r0
 2462              	.LVL274:
 677:Middlewares/LVGL/GUI/lvgl/src/extra/widgets/meter/lv_meter.c ****         p_end.y = (lv_trigo_sin(angle) * (r_out)) / LV_TRIGO_SIN_MAX + scale_center.y;
ARM GAS  C:\Users\ADMINI~1\AppData\Local\Temp\ccVbA5cL.s 			page 83


 2463              		.loc 1 677 9 is_stmt 1 view .LVU833
 678:Middlewares/LVGL/GUI/lvgl/src/extra/widgets/meter/lv_meter.c ****         p_end.x = (lv_trigo_cos(angle) * (r_out)) / LV_TRIGO_SIN_MAX + scale_center.x;
 2464              		.loc 1 678 9 view .LVU834
 678:Middlewares/LVGL/GUI/lvgl/src/extra/widgets/meter/lv_meter.c ****         p_end.x = (lv_trigo_cos(angle) * (r_out)) / LV_TRIGO_SIN_MAX + scale_center.x;
 2465              		.loc 1 678 20 is_stmt 0 view .LVU835
 2466 006e 0FFA8BF0 		sxth	r0, fp
 2467 0072 FFF7FEFF 		bl	lv_trigo_sin
 2468              	.LVL275:
 678:Middlewares/LVGL/GUI/lvgl/src/extra/widgets/meter/lv_meter.c ****         p_end.x = (lv_trigo_cos(angle) * (r_out)) / LV_TRIGO_SIN_MAX + scale_center.x;
 2469              		.loc 1 678 40 view .LVU836
 2470 0076 09FB00F0 		mul	r0, r9, r0
 678:Middlewares/LVGL/GUI/lvgl/src/extra/widgets/meter/lv_meter.c ****         p_end.x = (lv_trigo_cos(angle) * (r_out)) / LV_TRIGO_SIN_MAX + scale_center.x;
 2471              		.loc 1 678 51 view .LVU837
 2472 007a DFF80881 		ldr	r8, .L77
 2473              	.LVL276:
 678:Middlewares/LVGL/GUI/lvgl/src/extra/widgets/meter/lv_meter.c ****         p_end.x = (lv_trigo_cos(angle) * (r_out)) / LV_TRIGO_SIN_MAX + scale_center.x;
 2474              		.loc 1 678 51 view .LVU838
 2475 007e 88FB0037 		smull	r3, r7, r8, r0
 2476              	.LVL277:
 678:Middlewares/LVGL/GUI/lvgl/src/extra/widgets/meter/lv_meter.c ****         p_end.x = (lv_trigo_cos(angle) * (r_out)) / LV_TRIGO_SIN_MAX + scale_center.x;
 2477              		.loc 1 678 51 view .LVU839
 2478 0082 3B18     		adds	r3, r7, r0
 2479 0084 C717     		asrs	r7, r0, #31
 2480 0086 C7EBA337 		rsb	r7, r7, r3, asr #14
 678:Middlewares/LVGL/GUI/lvgl/src/extra/widgets/meter/lv_meter.c ****         p_end.x = (lv_trigo_cos(angle) * (r_out)) / LV_TRIGO_SIN_MAX + scale_center.x;
 2481              		.loc 1 678 70 view .LVU840
 2482 008a 2F44     		add	r7, r7, r5
 678:Middlewares/LVGL/GUI/lvgl/src/extra/widgets/meter/lv_meter.c ****         p_end.x = (lv_trigo_cos(angle) * (r_out)) / LV_TRIGO_SIN_MAX + scale_center.x;
 2483              		.loc 1 678 17 view .LVU841
 2484 008c 0397     		str	r7, [sp, #12]
 679:Middlewares/LVGL/GUI/lvgl/src/extra/widgets/meter/lv_meter.c **** 
 2485              		.loc 1 679 9 is_stmt 1 view .LVU842
 2486              	.LVL278:
 2487              	.LBB116:
 2488              	.LBI116:
  49:Middlewares/LVGL/GUI/lvgl/src/extra/widgets/meter/../../../../src/misc/lv_math.h **** {
 2489              		.loc 5 49 45 view .LVU843
 2490              	.LBB117:
 2491              		.loc 5 51 5 view .LVU844
 2492              		.loc 5 51 31 is_stmt 0 view .LVU845
 2493 008e 0BF15A00 		add	r0, fp, #90
 2494              		.loc 5 51 12 view .LVU846
 2495 0092 00B2     		sxth	r0, r0
 2496 0094 FFF7FEFF 		bl	lv_trigo_sin
 2497              	.LVL279:
 2498              		.loc 5 51 12 view .LVU847
 2499              	.LBE117:
 2500              	.LBE116:
 679:Middlewares/LVGL/GUI/lvgl/src/extra/widgets/meter/lv_meter.c **** 
 2501              		.loc 1 679 40 view .LVU848
 2502 0098 09FB00F0 		mul	r0, r9, r0
 679:Middlewares/LVGL/GUI/lvgl/src/extra/widgets/meter/lv_meter.c **** 
 2503              		.loc 1 679 51 view .LVU849
 2504 009c 88FB0038 		smull	r3, r8, r8, r0
 2505 00a0 8044     		add	r8, r8, r0
 2506 00a2 C317     		asrs	r3, r0, #31
 2507 00a4 C3EBA833 		rsb	r3, r3, r8, asr #14
ARM GAS  C:\Users\ADMINI~1\AppData\Local\Temp\ccVbA5cL.s 			page 84


 679:Middlewares/LVGL/GUI/lvgl/src/extra/widgets/meter/lv_meter.c **** 
 2508              		.loc 1 679 70 view .LVU850
 2509 00a8 5344     		add	r3, r3, r10
 679:Middlewares/LVGL/GUI/lvgl/src/extra/widgets/meter/lv_meter.c **** 
 2510              		.loc 1 679 17 view .LVU851
 2511 00aa 0293     		str	r3, [sp, #8]
 681:Middlewares/LVGL/GUI/lvgl/src/extra/widgets/meter/lv_meter.c ****         a.x1 = LV_MIN(scale_center.x, p_end.x) - indic->type_data.needle_line.width - 2;
 2512              		.loc 1 681 9 is_stmt 1 view .LVU852
 682:Middlewares/LVGL/GUI/lvgl/src/extra/widgets/meter/lv_meter.c ****         a.y1 = LV_MIN(scale_center.y, p_end.y) - indic->type_data.needle_line.width - 2;
 2513              		.loc 1 682 9 view .LVU853
 682:Middlewares/LVGL/GUI/lvgl/src/extra/widgets/meter/lv_meter.c ****         a.y1 = LV_MIN(scale_center.y, p_end.y) - indic->type_data.needle_line.width - 2;
 2514              		.loc 1 682 78 is_stmt 0 view .LVU854
 2515 00ac 228A     		ldrh	r2, [r4, #16]
 682:Middlewares/LVGL/GUI/lvgl/src/extra/widgets/meter/lv_meter.c ****         a.y1 = LV_MIN(scale_center.y, p_end.y) - indic->type_data.needle_line.width - 2;
 2516              		.loc 1 682 48 view .LVU855
 2517 00ae 9A45     		cmp	r10, r3
 2518 00b0 D4BF     		ite	le
 2519 00b2 C2EB0A01 		rsble	r1, r2, r10
 2520 00b6 C2EB0301 		rsbgt	r1, r2, r3
 682:Middlewares/LVGL/GUI/lvgl/src/extra/widgets/meter/lv_meter.c ****         a.y1 = LV_MIN(scale_center.y, p_end.y) - indic->type_data.needle_line.width - 2;
 2521              		.loc 1 682 85 view .LVU856
 2522 00ba 0239     		subs	r1, r1, #2
 682:Middlewares/LVGL/GUI/lvgl/src/extra/widgets/meter/lv_meter.c ****         a.y1 = LV_MIN(scale_center.y, p_end.y) - indic->type_data.needle_line.width - 2;
 2523              		.loc 1 682 14 view .LVU857
 2524 00bc 0491     		str	r1, [sp, #16]
 683:Middlewares/LVGL/GUI/lvgl/src/extra/widgets/meter/lv_meter.c ****         a.x2 = LV_MAX(scale_center.x, p_end.x) + indic->type_data.needle_line.width + 2;
 2525              		.loc 1 683 9 is_stmt 1 view .LVU858
 683:Middlewares/LVGL/GUI/lvgl/src/extra/widgets/meter/lv_meter.c ****         a.x2 = LV_MAX(scale_center.x, p_end.x) + indic->type_data.needle_line.width + 2;
 2526              		.loc 1 683 48 is_stmt 0 view .LVU859
 2527 00be BD42     		cmp	r5, r7
 2528 00c0 D4BF     		ite	le
 2529 00c2 C2EB0501 		rsble	r1, r2, r5
 2530 00c6 C2EB0701 		rsbgt	r1, r2, r7
 683:Middlewares/LVGL/GUI/lvgl/src/extra/widgets/meter/lv_meter.c ****         a.x2 = LV_MAX(scale_center.x, p_end.x) + indic->type_data.needle_line.width + 2;
 2531              		.loc 1 683 85 view .LVU860
 2532 00ca 0239     		subs	r1, r1, #2
 683:Middlewares/LVGL/GUI/lvgl/src/extra/widgets/meter/lv_meter.c ****         a.x2 = LV_MAX(scale_center.x, p_end.x) + indic->type_data.needle_line.width + 2;
 2533              		.loc 1 683 14 view .LVU861
 2534 00cc 0591     		str	r1, [sp, #20]
 684:Middlewares/LVGL/GUI/lvgl/src/extra/widgets/meter/lv_meter.c ****         a.y2 = LV_MAX(scale_center.y, p_end.y) + indic->type_data.needle_line.width + 2;
 2535              		.loc 1 684 9 is_stmt 1 view .LVU862
 684:Middlewares/LVGL/GUI/lvgl/src/extra/widgets/meter/lv_meter.c ****         a.y2 = LV_MAX(scale_center.y, p_end.y) + indic->type_data.needle_line.width + 2;
 2536              		.loc 1 684 48 is_stmt 0 view .LVU863
 2537 00ce 9A45     		cmp	r10, r3
 2538 00d0 ACBF     		ite	ge
 2539 00d2 02EB0A01 		addge	r1, r2, r10
 2540 00d6 D118     		addlt	r1, r2, r3
 684:Middlewares/LVGL/GUI/lvgl/src/extra/widgets/meter/lv_meter.c ****         a.y2 = LV_MAX(scale_center.y, p_end.y) + indic->type_data.needle_line.width + 2;
 2541              		.loc 1 684 85 view .LVU864
 2542 00d8 0231     		adds	r1, r1, #2
 684:Middlewares/LVGL/GUI/lvgl/src/extra/widgets/meter/lv_meter.c ****         a.y2 = LV_MAX(scale_center.y, p_end.y) + indic->type_data.needle_line.width + 2;
 2543              		.loc 1 684 14 view .LVU865
 2544 00da 0691     		str	r1, [sp, #24]
 685:Middlewares/LVGL/GUI/lvgl/src/extra/widgets/meter/lv_meter.c **** 
 2545              		.loc 1 685 9 is_stmt 1 view .LVU866
 685:Middlewares/LVGL/GUI/lvgl/src/extra/widgets/meter/lv_meter.c **** 
 2546              		.loc 1 685 48 is_stmt 0 view .LVU867
ARM GAS  C:\Users\ADMINI~1\AppData\Local\Temp\ccVbA5cL.s 			page 85


 2547 00dc BD42     		cmp	r5, r7
 2548 00de ACBF     		ite	ge
 2549 00e0 5219     		addge	r2, r2, r5
 2550 00e2 D219     		addlt	r2, r2, r7
 685:Middlewares/LVGL/GUI/lvgl/src/extra/widgets/meter/lv_meter.c **** 
 2551              		.loc 1 685 85 view .LVU868
 2552 00e4 0232     		adds	r2, r2, #2
 685:Middlewares/LVGL/GUI/lvgl/src/extra/widgets/meter/lv_meter.c **** 
 2553              		.loc 1 685 14 view .LVU869
 2554 00e6 0792     		str	r2, [sp, #28]
 687:Middlewares/LVGL/GUI/lvgl/src/extra/widgets/meter/lv_meter.c ****     }
 2555              		.loc 1 687 9 is_stmt 1 view .LVU870
 2556 00e8 04A9     		add	r1, sp, #16
 2557 00ea 3046     		mov	r0, r6
 2558 00ec FFF7FEFF 		bl	lv_obj_invalidate_area
 2559              	.LVL280:
 2560              	.LBE115:
 2561 00f0 A6E7     		b	.L70
 2562              	.LVL281:
 2563              	.L76:
 2564              	.LBB118:
 690:Middlewares/LVGL/GUI/lvgl/src/extra/widgets/meter/lv_meter.c ****         lv_img_header_t info;
 2565              		.loc 1 690 9 view .LVU871
 690:Middlewares/LVGL/GUI/lvgl/src/extra/widgets/meter/lv_meter.c ****         lv_img_header_t info;
 2566              		.loc 1 690 68 is_stmt 0 view .LVU872
 2567 00f2 B8F92030 		ldrsh	r3, [r8, #32]
 690:Middlewares/LVGL/GUI/lvgl/src/extra/widgets/meter/lv_meter.c ****         lv_img_header_t info;
 2568              		.loc 1 690 103 view .LVU873
 2569 00f6 B8F81E00 		ldrh	r0, [r8, #30]
 690:Middlewares/LVGL/GUI/lvgl/src/extra/widgets/meter/lv_meter.c ****         lv_img_header_t info;
 2570              		.loc 1 690 96 view .LVU874
 2571 00fa 1844     		add	r0, r0, r3
 690:Middlewares/LVGL/GUI/lvgl/src/extra/widgets/meter/lv_meter.c ****         lv_img_header_t info;
 2572              		.loc 1 690 25 view .LVU875
 2573 00fc D8F81820 		ldr	r2, [r8, #24]
 2574 0100 D8F81410 		ldr	r1, [r8, #20]
 2575 0104 0090     		str	r0, [sp]
 2576 0106 3846     		mov	r0, r7
 2577 0108 FFF7FEFF 		bl	lv_map
 2578              	.LVL282:
 2579 010c 0746     		mov	r7, r0
 2580              	.LVL283:
 691:Middlewares/LVGL/GUI/lvgl/src/extra/widgets/meter/lv_meter.c ****         lv_img_decoder_get_info(indic->type_data.needle_img.src, &info);
 2581              		.loc 1 691 9 is_stmt 1 view .LVU876
 692:Middlewares/LVGL/GUI/lvgl/src/extra/widgets/meter/lv_meter.c **** 
 2582              		.loc 1 692 9 view .LVU877
 2583 010e 02A9     		add	r1, sp, #8
 2584 0110 2069     		ldr	r0, [r4, #16]
 2585              	.LVL284:
 692:Middlewares/LVGL/GUI/lvgl/src/extra/widgets/meter/lv_meter.c **** 
 2586              		.loc 1 692 9 is_stmt 0 view .LVU878
 2587 0112 FFF7FEFF 		bl	lv_img_decoder_get_info
 2588              	.LVL285:
 694:Middlewares/LVGL/GUI/lvgl/src/extra/widgets/meter/lv_meter.c ****         if(angle > 3600) angle -= 3600;
 2589              		.loc 1 694 9 is_stmt 1 view .LVU879
 694:Middlewares/LVGL/GUI/lvgl/src/extra/widgets/meter/lv_meter.c ****         if(angle > 3600) angle -= 3600;
 2590              		.loc 1 694 15 is_stmt 0 view .LVU880
ARM GAS  C:\Users\ADMINI~1\AppData\Local\Temp\ccVbA5cL.s 			page 86


 2591 0116 07EB8700 		add	r0, r7, r7, lsl #2
 2592 011a 4000     		lsls	r0, r0, #1
 2593 011c 0346     		mov	r3, r0
 2594              	.LVL286:
 695:Middlewares/LVGL/GUI/lvgl/src/extra/widgets/meter/lv_meter.c **** 
 2595              		.loc 1 695 9 is_stmt 1 view .LVU881
 695:Middlewares/LVGL/GUI/lvgl/src/extra/widgets/meter/lv_meter.c **** 
 2596              		.loc 1 695 11 is_stmt 0 view .LVU882
 2597 011e B0F5616F 		cmp	r0, #3600
 2598 0122 01DD     		ble	.L73
 695:Middlewares/LVGL/GUI/lvgl/src/extra/widgets/meter/lv_meter.c **** 
 2599              		.loc 1 695 26 is_stmt 1 discriminator 1 view .LVU883
 695:Middlewares/LVGL/GUI/lvgl/src/extra/widgets/meter/lv_meter.c **** 
 2600              		.loc 1 695 32 is_stmt 0 discriminator 1 view .LVU884
 2601 0124 A0F56163 		sub	r3, r0, #3600
 2602              	.LVL287:
 2603              	.L73:
 697:Middlewares/LVGL/GUI/lvgl/src/extra/widgets/meter/lv_meter.c ****         scale_center.y -= indic->type_data.needle_img.pivot.y;
 2604              		.loc 1 697 9 is_stmt 1 discriminator 2 view .LVU885
 697:Middlewares/LVGL/GUI/lvgl/src/extra/widgets/meter/lv_meter.c ****         scale_center.y -= indic->type_data.needle_img.pivot.y;
 2605              		.loc 1 697 60 is_stmt 0 discriminator 2 view .LVU886
 2606 0128 6769     		ldr	r7, [r4, #20]
 697:Middlewares/LVGL/GUI/lvgl/src/extra/widgets/meter/lv_meter.c ****         scale_center.y -= indic->type_data.needle_img.pivot.y;
 2607              		.loc 1 697 24 discriminator 2 view .LVU887
 2608 012a AAEB0707 		sub	r7, r10, r7
 2609 012e 0897     		str	r7, [sp, #32]
 698:Middlewares/LVGL/GUI/lvgl/src/extra/widgets/meter/lv_meter.c ****         lv_area_t a;
 2610              		.loc 1 698 9 is_stmt 1 discriminator 2 view .LVU888
 698:Middlewares/LVGL/GUI/lvgl/src/extra/widgets/meter/lv_meter.c ****         lv_area_t a;
 2611              		.loc 1 698 60 is_stmt 0 discriminator 2 view .LVU889
 2612 0130 A269     		ldr	r2, [r4, #24]
 698:Middlewares/LVGL/GUI/lvgl/src/extra/widgets/meter/lv_meter.c ****         lv_area_t a;
 2613              		.loc 1 698 24 discriminator 2 view .LVU890
 2614 0132 AD1A     		subs	r5, r5, r2
 2615 0134 0995     		str	r5, [sp, #36]
 699:Middlewares/LVGL/GUI/lvgl/src/extra/widgets/meter/lv_meter.c ****         _lv_img_buf_get_transformed_area(&a, info.w, info.h, angle, LV_IMG_ZOOM_NONE, &indic->type_
 2616              		.loc 1 699 9 is_stmt 1 discriminator 2 view .LVU891
 700:Middlewares/LVGL/GUI/lvgl/src/extra/widgets/meter/lv_meter.c ****         a.x1 += scale_center.x - 2;
 2617              		.loc 1 700 9 discriminator 2 view .LVU892
 700:Middlewares/LVGL/GUI/lvgl/src/extra/widgets/meter/lv_meter.c ****         a.x1 += scale_center.x - 2;
 2618              		.loc 1 700 58 is_stmt 0 discriminator 2 view .LVU893
 2619 0136 BDF80A20 		ldrh	r2, [sp, #10]
 700:Middlewares/LVGL/GUI/lvgl/src/extra/widgets/meter/lv_meter.c ****         a.x1 += scale_center.x - 2;
 2620              		.loc 1 700 87 discriminator 2 view .LVU894
 2621 013a 1434     		adds	r4, r4, #20
 2622              	.LVL288:
 700:Middlewares/LVGL/GUI/lvgl/src/extra/widgets/meter/lv_meter.c ****         a.x1 += scale_center.x - 2;
 2623              		.loc 1 700 9 discriminator 2 view .LVU895
 2624 013c 0194     		str	r4, [sp, #4]
 2625 013e 4FF48071 		mov	r1, #256
 2626 0142 0091     		str	r1, [sp]
 2627 0144 1BB2     		sxth	r3, r3
 2628              	.LVL289:
 700:Middlewares/LVGL/GUI/lvgl/src/extra/widgets/meter/lv_meter.c ****         a.x1 += scale_center.x - 2;
 2629              		.loc 1 700 9 discriminator 2 view .LVU896
 2630 0146 C2F34A12 		ubfx	r2, r2, #5, #11
 2631 014a 0299     		ldr	r1, [sp, #8]
ARM GAS  C:\Users\ADMINI~1\AppData\Local\Temp\ccVbA5cL.s 			page 87


 2632 014c C1F38A21 		ubfx	r1, r1, #10, #11
 2633 0150 04A8     		add	r0, sp, #16
 2634 0152 FFF7FEFF 		bl	_lv_img_buf_get_transformed_area
 2635              	.LVL290:
 701:Middlewares/LVGL/GUI/lvgl/src/extra/widgets/meter/lv_meter.c ****         a.y1 += scale_center.y - 2;
 2636              		.loc 1 701 9 is_stmt 1 discriminator 2 view .LVU897
 701:Middlewares/LVGL/GUI/lvgl/src/extra/widgets/meter/lv_meter.c ****         a.y1 += scale_center.y - 2;
 2637              		.loc 1 701 32 is_stmt 0 discriminator 2 view .LVU898
 2638 0156 BA1E     		subs	r2, r7, #2
 701:Middlewares/LVGL/GUI/lvgl/src/extra/widgets/meter/lv_meter.c ****         a.y1 += scale_center.y - 2;
 2639              		.loc 1 701 14 discriminator 2 view .LVU899
 2640 0158 049B     		ldr	r3, [sp, #16]
 2641 015a 1344     		add	r3, r3, r2
 2642 015c 0493     		str	r3, [sp, #16]
 702:Middlewares/LVGL/GUI/lvgl/src/extra/widgets/meter/lv_meter.c ****         a.x2 += scale_center.x + 2;
 2643              		.loc 1 702 9 is_stmt 1 discriminator 2 view .LVU900
 702:Middlewares/LVGL/GUI/lvgl/src/extra/widgets/meter/lv_meter.c ****         a.x2 += scale_center.x + 2;
 2644              		.loc 1 702 32 is_stmt 0 discriminator 2 view .LVU901
 2645 015e AA1E     		subs	r2, r5, #2
 702:Middlewares/LVGL/GUI/lvgl/src/extra/widgets/meter/lv_meter.c ****         a.x2 += scale_center.x + 2;
 2646              		.loc 1 702 14 discriminator 2 view .LVU902
 2647 0160 059B     		ldr	r3, [sp, #20]
 2648 0162 1344     		add	r3, r3, r2
 2649 0164 0593     		str	r3, [sp, #20]
 703:Middlewares/LVGL/GUI/lvgl/src/extra/widgets/meter/lv_meter.c ****         a.y2 += scale_center.y + 2;
 2650              		.loc 1 703 9 is_stmt 1 discriminator 2 view .LVU903
 703:Middlewares/LVGL/GUI/lvgl/src/extra/widgets/meter/lv_meter.c ****         a.y2 += scale_center.y + 2;
 2651              		.loc 1 703 32 is_stmt 0 discriminator 2 view .LVU904
 2652 0166 07F1020A 		add	r10, r7, #2
 703:Middlewares/LVGL/GUI/lvgl/src/extra/widgets/meter/lv_meter.c ****         a.y2 += scale_center.y + 2;
 2653              		.loc 1 703 14 discriminator 2 view .LVU905
 2654 016a 069F     		ldr	r7, [sp, #24]
 2655 016c 5744     		add	r7, r7, r10
 2656 016e 0697     		str	r7, [sp, #24]
 704:Middlewares/LVGL/GUI/lvgl/src/extra/widgets/meter/lv_meter.c **** 
 2657              		.loc 1 704 9 is_stmt 1 discriminator 2 view .LVU906
 704:Middlewares/LVGL/GUI/lvgl/src/extra/widgets/meter/lv_meter.c **** 
 2658              		.loc 1 704 32 is_stmt 0 discriminator 2 view .LVU907
 2659 0170 0235     		adds	r5, r5, #2
 704:Middlewares/LVGL/GUI/lvgl/src/extra/widgets/meter/lv_meter.c **** 
 2660              		.loc 1 704 14 discriminator 2 view .LVU908
 2661 0172 079B     		ldr	r3, [sp, #28]
 2662 0174 1D44     		add	r5, r5, r3
 2663 0176 0795     		str	r5, [sp, #28]
 706:Middlewares/LVGL/GUI/lvgl/src/extra/widgets/meter/lv_meter.c ****     }
 2664              		.loc 1 706 9 is_stmt 1 discriminator 2 view .LVU909
 2665 0178 04A9     		add	r1, sp, #16
 2666 017a 3046     		mov	r0, r6
 2667 017c FFF7FEFF 		bl	lv_obj_invalidate_area
 2668              	.LVL291:
 2669              	.LBE118:
 2670              		.loc 1 708 1 is_stmt 0 discriminator 2 view .LVU910
 2671 0180 5EE7     		b	.L70
 2672              	.L78:
 2673 0182 00BF     		.align	2
 2674              	.L77:
 2675 0184 03000180 		.word	-2147418109
ARM GAS  C:\Users\ADMINI~1\AppData\Local\Temp\ccVbA5cL.s 			page 88


 2676              		.cfi_endproc
 2677              	.LFE215:
 2679              		.section	.text.lv_meter_create,"ax",%progbits
 2680              		.align	1
 2681              		.global	lv_meter_create
 2682              		.syntax unified
 2683              		.thumb
 2684              		.thumb_func
 2686              	lv_meter_create:
 2687              	.LVL292:
 2688              	.LFB196:
  55:Middlewares/LVGL/GUI/lvgl/src/extra/widgets/meter/lv_meter.c ****     LV_LOG_INFO("begin");
 2689              		.loc 1 55 1 is_stmt 1 view -0
 2690              		.cfi_startproc
 2691              		@ args = 0, pretend = 0, frame = 0
 2692              		@ frame_needed = 0, uses_anonymous_args = 0
  55:Middlewares/LVGL/GUI/lvgl/src/extra/widgets/meter/lv_meter.c ****     LV_LOG_INFO("begin");
 2693              		.loc 1 55 1 is_stmt 0 view .LVU912
 2694 0000 10B5     		push	{r4, lr}
 2695              	.LCFI22:
 2696              		.cfi_def_cfa_offset 8
 2697              		.cfi_offset 4, -8
 2698              		.cfi_offset 14, -4
 2699 0002 0146     		mov	r1, r0
  56:Middlewares/LVGL/GUI/lvgl/src/extra/widgets/meter/lv_meter.c ****     lv_obj_t * obj = lv_obj_class_create_obj(MY_CLASS, parent);
 2700              		.loc 1 56 5 is_stmt 1 view .LVU913
  56:Middlewares/LVGL/GUI/lvgl/src/extra/widgets/meter/lv_meter.c ****     lv_obj_t * obj = lv_obj_class_create_obj(MY_CLASS, parent);
 2701              		.loc 1 56 5 view .LVU914
  56:Middlewares/LVGL/GUI/lvgl/src/extra/widgets/meter/lv_meter.c ****     lv_obj_t * obj = lv_obj_class_create_obj(MY_CLASS, parent);
 2702              		.loc 1 56 5 view .LVU915
  57:Middlewares/LVGL/GUI/lvgl/src/extra/widgets/meter/lv_meter.c ****     lv_obj_class_init_obj(obj);
 2703              		.loc 1 57 5 view .LVU916
  57:Middlewares/LVGL/GUI/lvgl/src/extra/widgets/meter/lv_meter.c ****     lv_obj_class_init_obj(obj);
 2704              		.loc 1 57 22 is_stmt 0 view .LVU917
 2705 0004 0348     		ldr	r0, .L81
 2706              	.LVL293:
  57:Middlewares/LVGL/GUI/lvgl/src/extra/widgets/meter/lv_meter.c ****     lv_obj_class_init_obj(obj);
 2707              		.loc 1 57 22 view .LVU918
 2708 0006 FFF7FEFF 		bl	lv_obj_class_create_obj
 2709              	.LVL294:
  57:Middlewares/LVGL/GUI/lvgl/src/extra/widgets/meter/lv_meter.c ****     lv_obj_class_init_obj(obj);
 2710              		.loc 1 57 22 view .LVU919
 2711 000a 0446     		mov	r4, r0
 2712              	.LVL295:
  58:Middlewares/LVGL/GUI/lvgl/src/extra/widgets/meter/lv_meter.c ****     return obj;
 2713              		.loc 1 58 5 is_stmt 1 view .LVU920
 2714 000c FFF7FEFF 		bl	lv_obj_class_init_obj
 2715              	.LVL296:
  59:Middlewares/LVGL/GUI/lvgl/src/extra/widgets/meter/lv_meter.c **** }
 2716              		.loc 1 59 5 view .LVU921
  60:Middlewares/LVGL/GUI/lvgl/src/extra/widgets/meter/lv_meter.c **** 
 2717              		.loc 1 60 1 is_stmt 0 view .LVU922
 2718 0010 2046     		mov	r0, r4
 2719 0012 10BD     		pop	{r4, pc}
 2720              	.LVL297:
 2721              	.L82:
  60:Middlewares/LVGL/GUI/lvgl/src/extra/widgets/meter/lv_meter.c **** 
ARM GAS  C:\Users\ADMINI~1\AppData\Local\Temp\ccVbA5cL.s 			page 89


 2722              		.loc 1 60 1 view .LVU923
 2723              		.align	2
 2724              	.L81:
 2725 0014 00000000 		.word	.LANCHOR0
 2726              		.cfi_endproc
 2727              	.LFE196:
 2729              		.section	.text.lv_meter_add_scale,"ax",%progbits
 2730              		.align	1
 2731              		.global	lv_meter_add_scale
 2732              		.syntax unified
 2733              		.thumb
 2734              		.thumb_func
 2736              	lv_meter_add_scale:
 2737              	.LVL298:
 2738              	.LFB197:
  67:Middlewares/LVGL/GUI/lvgl/src/extra/widgets/meter/lv_meter.c ****     LV_ASSERT_OBJ(obj, MY_CLASS);
 2739              		.loc 1 67 1 is_stmt 1 view -0
 2740              		.cfi_startproc
 2741              		@ args = 0, pretend = 0, frame = 0
 2742              		@ frame_needed = 0, uses_anonymous_args = 0
  67:Middlewares/LVGL/GUI/lvgl/src/extra/widgets/meter/lv_meter.c ****     LV_ASSERT_OBJ(obj, MY_CLASS);
 2743              		.loc 1 67 1 is_stmt 0 view .LVU925
 2744 0000 10B5     		push	{r4, lr}
 2745              	.LCFI23:
 2746              		.cfi_def_cfa_offset 8
 2747              		.cfi_offset 4, -8
 2748              		.cfi_offset 14, -4
  68:Middlewares/LVGL/GUI/lvgl/src/extra/widgets/meter/lv_meter.c ****     lv_meter_t * meter = (lv_meter_t *)obj;
 2749              		.loc 1 68 5 is_stmt 1 view .LVU926
  68:Middlewares/LVGL/GUI/lvgl/src/extra/widgets/meter/lv_meter.c ****     lv_meter_t * meter = (lv_meter_t *)obj;
 2750              		.loc 1 68 5 view .LVU927
  68:Middlewares/LVGL/GUI/lvgl/src/extra/widgets/meter/lv_meter.c ****     lv_meter_t * meter = (lv_meter_t *)obj;
 2751              		.loc 1 68 5 view .LVU928
  69:Middlewares/LVGL/GUI/lvgl/src/extra/widgets/meter/lv_meter.c **** 
 2752              		.loc 1 69 5 view .LVU929
 2753              	.LVL299:
  71:Middlewares/LVGL/GUI/lvgl/src/extra/widgets/meter/lv_meter.c ****     LV_ASSERT_MALLOC(scale);
 2754              		.loc 1 71 5 view .LVU930
  71:Middlewares/LVGL/GUI/lvgl/src/extra/widgets/meter/lv_meter.c ****     LV_ASSERT_MALLOC(scale);
 2755              		.loc 1 71 32 is_stmt 0 view .LVU931
 2756 0002 2C30     		adds	r0, r0, #44
 2757              	.LVL300:
  71:Middlewares/LVGL/GUI/lvgl/src/extra/widgets/meter/lv_meter.c ****     LV_ASSERT_MALLOC(scale);
 2758              		.loc 1 71 32 view .LVU932
 2759 0004 FFF7FEFF 		bl	_lv_ll_ins_head
 2760              	.LVL301:
  72:Middlewares/LVGL/GUI/lvgl/src/extra/widgets/meter/lv_meter.c ****     lv_memset_00(scale, sizeof(lv_meter_scale_t));
 2761              		.loc 1 72 5 is_stmt 1 view .LVU933
  72:Middlewares/LVGL/GUI/lvgl/src/extra/widgets/meter/lv_meter.c ****     lv_memset_00(scale, sizeof(lv_meter_scale_t));
 2762              		.loc 1 72 5 view .LVU934
 2763 0008 A8B1     		cbz	r0, .L85
 2764 000a 0446     		mov	r4, r0
  72:Middlewares/LVGL/GUI/lvgl/src/extra/widgets/meter/lv_meter.c ****     lv_memset_00(scale, sizeof(lv_meter_scale_t));
 2765              		.loc 1 72 5 discriminator 2 view .LVU935
  72:Middlewares/LVGL/GUI/lvgl/src/extra/widgets/meter/lv_meter.c ****     lv_memset_00(scale, sizeof(lv_meter_scale_t));
 2766              		.loc 1 72 28 discriminator 2 view .LVU936
  73:Middlewares/LVGL/GUI/lvgl/src/extra/widgets/meter/lv_meter.c **** 
ARM GAS  C:\Users\ADMINI~1\AppData\Local\Temp\ccVbA5cL.s 			page 90


 2767              		.loc 1 73 5 discriminator 2 view .LVU937
 2768 000c 2421     		movs	r1, #36
 2769 000e FFF7FEFF 		bl	lv_memset_00
 2770              	.LVL302:
  75:Middlewares/LVGL/GUI/lvgl/src/extra/widgets/meter/lv_meter.c ****     scale->rotation = 90 + (360 - scale->angle_range) / 2;
 2771              		.loc 1 75 5 discriminator 2 view .LVU938
  75:Middlewares/LVGL/GUI/lvgl/src/extra/widgets/meter/lv_meter.c ****     scale->rotation = 90 + (360 - scale->angle_range) / 2;
 2772              		.loc 1 75 24 is_stmt 0 discriminator 2 view .LVU939
 2773 0012 4FF48773 		mov	r3, #270
 2774 0016 E383     		strh	r3, [r4, #30]	@ movhi
  76:Middlewares/LVGL/GUI/lvgl/src/extra/widgets/meter/lv_meter.c ****     scale->min = 0;
 2775              		.loc 1 76 5 is_stmt 1 discriminator 2 view .LVU940
  76:Middlewares/LVGL/GUI/lvgl/src/extra/widgets/meter/lv_meter.c ****     scale->min = 0;
 2776              		.loc 1 76 21 is_stmt 0 discriminator 2 view .LVU941
 2777 0018 8723     		movs	r3, #135
 2778 001a 2384     		strh	r3, [r4, #32]	@ movhi
  77:Middlewares/LVGL/GUI/lvgl/src/extra/widgets/meter/lv_meter.c ****     scale->max = 100;
 2779              		.loc 1 77 5 is_stmt 1 discriminator 2 view .LVU942
  77:Middlewares/LVGL/GUI/lvgl/src/extra/widgets/meter/lv_meter.c ****     scale->max = 100;
 2780              		.loc 1 77 16 is_stmt 0 discriminator 2 view .LVU943
 2781 001c 0023     		movs	r3, #0
 2782 001e 6361     		str	r3, [r4, #20]
  78:Middlewares/LVGL/GUI/lvgl/src/extra/widgets/meter/lv_meter.c ****     scale->tick_cnt = 6;
 2783              		.loc 1 78 5 is_stmt 1 discriminator 2 view .LVU944
  78:Middlewares/LVGL/GUI/lvgl/src/extra/widgets/meter/lv_meter.c ****     scale->tick_cnt = 6;
 2784              		.loc 1 78 16 is_stmt 0 discriminator 2 view .LVU945
 2785 0020 6423     		movs	r3, #100
 2786 0022 A361     		str	r3, [r4, #24]
  79:Middlewares/LVGL/GUI/lvgl/src/extra/widgets/meter/lv_meter.c ****     scale->tick_length = 8;
 2787              		.loc 1 79 5 is_stmt 1 discriminator 2 view .LVU946
  79:Middlewares/LVGL/GUI/lvgl/src/extra/widgets/meter/lv_meter.c ****     scale->tick_length = 8;
 2788              		.loc 1 79 21 is_stmt 0 discriminator 2 view .LVU947
 2789 0024 0623     		movs	r3, #6
 2790 0026 6380     		strh	r3, [r4, #2]	@ movhi
  80:Middlewares/LVGL/GUI/lvgl/src/extra/widgets/meter/lv_meter.c ****     scale->tick_width = 2;
 2791              		.loc 1 80 5 is_stmt 1 discriminator 2 view .LVU948
  80:Middlewares/LVGL/GUI/lvgl/src/extra/widgets/meter/lv_meter.c ****     scale->tick_width = 2;
 2792              		.loc 1 80 24 is_stmt 0 discriminator 2 view .LVU949
 2793 0028 0823     		movs	r3, #8
 2794 002a A380     		strh	r3, [r4, #4]	@ movhi
  81:Middlewares/LVGL/GUI/lvgl/src/extra/widgets/meter/lv_meter.c ****     scale->label_gap = 2;
 2795              		.loc 1 81 5 is_stmt 1 discriminator 2 view .LVU950
  81:Middlewares/LVGL/GUI/lvgl/src/extra/widgets/meter/lv_meter.c ****     scale->label_gap = 2;
 2796              		.loc 1 81 23 is_stmt 0 discriminator 2 view .LVU951
 2797 002c 0223     		movs	r3, #2
 2798 002e E380     		strh	r3, [r4, #6]	@ movhi
  82:Middlewares/LVGL/GUI/lvgl/src/extra/widgets/meter/lv_meter.c **** 
 2799              		.loc 1 82 5 is_stmt 1 discriminator 2 view .LVU952
  82:Middlewares/LVGL/GUI/lvgl/src/extra/widgets/meter/lv_meter.c **** 
 2800              		.loc 1 82 22 is_stmt 0 discriminator 2 view .LVU953
 2801 0030 2382     		strh	r3, [r4, #16]	@ movhi
  84:Middlewares/LVGL/GUI/lvgl/src/extra/widgets/meter/lv_meter.c **** }
 2802              		.loc 1 84 5 is_stmt 1 discriminator 2 view .LVU954
  85:Middlewares/LVGL/GUI/lvgl/src/extra/widgets/meter/lv_meter.c **** 
 2803              		.loc 1 85 1 is_stmt 0 discriminator 2 view .LVU955
 2804 0032 2046     		mov	r0, r4
 2805 0034 10BD     		pop	{r4, pc}
ARM GAS  C:\Users\ADMINI~1\AppData\Local\Temp\ccVbA5cL.s 			page 91


 2806              	.LVL303:
 2807              	.L85:
  72:Middlewares/LVGL/GUI/lvgl/src/extra/widgets/meter/lv_meter.c ****     lv_memset_00(scale, sizeof(lv_meter_scale_t));
 2808              		.loc 1 72 5 is_stmt 1 discriminator 1 view .LVU956
  72:Middlewares/LVGL/GUI/lvgl/src/extra/widgets/meter/lv_meter.c ****     lv_memset_00(scale, sizeof(lv_meter_scale_t));
 2809              		.loc 1 72 5 discriminator 1 view .LVU957
  72:Middlewares/LVGL/GUI/lvgl/src/extra/widgets/meter/lv_meter.c ****     lv_memset_00(scale, sizeof(lv_meter_scale_t));
 2810              		.loc 1 72 5 discriminator 1 view .LVU958
  72:Middlewares/LVGL/GUI/lvgl/src/extra/widgets/meter/lv_meter.c ****     lv_memset_00(scale, sizeof(lv_meter_scale_t));
 2811              		.loc 1 72 5 discriminator 1 view .LVU959
  72:Middlewares/LVGL/GUI/lvgl/src/extra/widgets/meter/lv_meter.c ****     lv_memset_00(scale, sizeof(lv_meter_scale_t));
 2812              		.loc 1 72 5 discriminator 1 view .LVU960
  72:Middlewares/LVGL/GUI/lvgl/src/extra/widgets/meter/lv_meter.c ****     lv_memset_00(scale, sizeof(lv_meter_scale_t));
 2813              		.loc 1 72 5 discriminator 1 view .LVU961
 2814 0036 FEE7     		b	.L85
 2815              		.cfi_endproc
 2816              	.LFE197:
 2818              		.section	.text.lv_meter_set_scale_ticks,"ax",%progbits
 2819              		.align	1
 2820              		.global	lv_meter_set_scale_ticks
 2821              		.syntax unified
 2822              		.thumb
 2823              		.thumb_func
 2825              	lv_meter_set_scale_ticks:
 2826              	.LVL304:
 2827              	.LFB198:
  89:Middlewares/LVGL/GUI/lvgl/src/extra/widgets/meter/lv_meter.c ****     scale->tick_cnt = cnt;
 2828              		.loc 1 89 1 view -0
 2829              		.cfi_startproc
 2830              		@ args = 8, pretend = 0, frame = 0
 2831              		@ frame_needed = 0, uses_anonymous_args = 0
  89:Middlewares/LVGL/GUI/lvgl/src/extra/widgets/meter/lv_meter.c ****     scale->tick_cnt = cnt;
 2832              		.loc 1 89 1 is_stmt 0 view .LVU963
 2833 0000 08B5     		push	{r3, lr}
 2834              	.LCFI24:
 2835              		.cfi_def_cfa_offset 8
 2836              		.cfi_offset 3, -8
 2837              		.cfi_offset 14, -4
  90:Middlewares/LVGL/GUI/lvgl/src/extra/widgets/meter/lv_meter.c ****     scale->tick_width = width;
 2838              		.loc 1 90 5 is_stmt 1 view .LVU964
  90:Middlewares/LVGL/GUI/lvgl/src/extra/widgets/meter/lv_meter.c ****     scale->tick_width = width;
 2839              		.loc 1 90 21 is_stmt 0 view .LVU965
 2840 0002 4A80     		strh	r2, [r1, #2]	@ movhi
  91:Middlewares/LVGL/GUI/lvgl/src/extra/widgets/meter/lv_meter.c ****     scale->tick_length = len;
 2841              		.loc 1 91 5 is_stmt 1 view .LVU966
  91:Middlewares/LVGL/GUI/lvgl/src/extra/widgets/meter/lv_meter.c ****     scale->tick_length = len;
 2842              		.loc 1 91 23 is_stmt 0 view .LVU967
 2843 0004 CB80     		strh	r3, [r1, #6]	@ movhi
  92:Middlewares/LVGL/GUI/lvgl/src/extra/widgets/meter/lv_meter.c ****     scale->tick_color = color;
 2844              		.loc 1 92 5 is_stmt 1 view .LVU968
  92:Middlewares/LVGL/GUI/lvgl/src/extra/widgets/meter/lv_meter.c ****     scale->tick_color = color;
 2845              		.loc 1 92 24 is_stmt 0 view .LVU969
 2846 0006 BDF80830 		ldrh	r3, [sp, #8]
 2847              	.LVL305:
  92:Middlewares/LVGL/GUI/lvgl/src/extra/widgets/meter/lv_meter.c ****     scale->tick_color = color;
 2848              		.loc 1 92 24 view .LVU970
 2849 000a 8B80     		strh	r3, [r1, #4]	@ movhi
ARM GAS  C:\Users\ADMINI~1\AppData\Local\Temp\ccVbA5cL.s 			page 92


  93:Middlewares/LVGL/GUI/lvgl/src/extra/widgets/meter/lv_meter.c ****     lv_obj_invalidate(obj);
 2850              		.loc 1 93 5 is_stmt 1 view .LVU971
  93:Middlewares/LVGL/GUI/lvgl/src/extra/widgets/meter/lv_meter.c ****     lv_obj_invalidate(obj);
 2851              		.loc 1 93 23 is_stmt 0 view .LVU972
 2852 000c BDF80C30 		ldrh	r3, [sp, #12]
 2853 0010 0B80     		strh	r3, [r1]	@ movhi
  94:Middlewares/LVGL/GUI/lvgl/src/extra/widgets/meter/lv_meter.c **** }
 2854              		.loc 1 94 5 is_stmt 1 view .LVU973
 2855 0012 FFF7FEFF 		bl	lv_obj_invalidate
 2856              	.LVL306:
  95:Middlewares/LVGL/GUI/lvgl/src/extra/widgets/meter/lv_meter.c **** 
 2857              		.loc 1 95 1 is_stmt 0 view .LVU974
 2858 0016 08BD     		pop	{r3, pc}
  95:Middlewares/LVGL/GUI/lvgl/src/extra/widgets/meter/lv_meter.c **** 
 2859              		.loc 1 95 1 view .LVU975
 2860              		.cfi_endproc
 2861              	.LFE198:
 2863              		.section	.text.lv_meter_set_scale_major_ticks,"ax",%progbits
 2864              		.align	1
 2865              		.global	lv_meter_set_scale_major_ticks
 2866              		.syntax unified
 2867              		.thumb
 2868              		.thumb_func
 2870              	lv_meter_set_scale_major_ticks:
 2871              	.LVL307:
 2872              	.LFB199:
  99:Middlewares/LVGL/GUI/lvgl/src/extra/widgets/meter/lv_meter.c ****     scale->tick_major_nth = nth;
 2873              		.loc 1 99 1 is_stmt 1 view -0
 2874              		.cfi_startproc
 2875              		@ args = 12, pretend = 0, frame = 0
 2876              		@ frame_needed = 0, uses_anonymous_args = 0
  99:Middlewares/LVGL/GUI/lvgl/src/extra/widgets/meter/lv_meter.c ****     scale->tick_major_nth = nth;
 2877              		.loc 1 99 1 is_stmt 0 view .LVU977
 2878 0000 08B5     		push	{r3, lr}
 2879              	.LCFI25:
 2880              		.cfi_def_cfa_offset 8
 2881              		.cfi_offset 3, -8
 2882              		.cfi_offset 14, -4
 100:Middlewares/LVGL/GUI/lvgl/src/extra/widgets/meter/lv_meter.c ****     scale->tick_major_width = width;
 2883              		.loc 1 100 5 is_stmt 1 view .LVU978
 100:Middlewares/LVGL/GUI/lvgl/src/extra/widgets/meter/lv_meter.c ****     scale->tick_major_width = width;
 2884              		.loc 1 100 27 is_stmt 0 view .LVU979
 2885 0002 4A81     		strh	r2, [r1, #10]	@ movhi
 101:Middlewares/LVGL/GUI/lvgl/src/extra/widgets/meter/lv_meter.c ****     scale->tick_major_length = len;
 2886              		.loc 1 101 5 is_stmt 1 view .LVU980
 101:Middlewares/LVGL/GUI/lvgl/src/extra/widgets/meter/lv_meter.c ****     scale->tick_major_length = len;
 2887              		.loc 1 101 29 is_stmt 0 view .LVU981
 2888 0004 CB81     		strh	r3, [r1, #14]	@ movhi
 102:Middlewares/LVGL/GUI/lvgl/src/extra/widgets/meter/lv_meter.c ****     scale->tick_major_color = color;
 2889              		.loc 1 102 5 is_stmt 1 view .LVU982
 102:Middlewares/LVGL/GUI/lvgl/src/extra/widgets/meter/lv_meter.c ****     scale->tick_major_color = color;
 2890              		.loc 1 102 30 is_stmt 0 view .LVU983
 2891 0006 BDF80830 		ldrh	r3, [sp, #8]
 2892              	.LVL308:
 102:Middlewares/LVGL/GUI/lvgl/src/extra/widgets/meter/lv_meter.c ****     scale->tick_major_color = color;
 2893              		.loc 1 102 30 view .LVU984
 2894 000a 8B81     		strh	r3, [r1, #12]	@ movhi
ARM GAS  C:\Users\ADMINI~1\AppData\Local\Temp\ccVbA5cL.s 			page 93


 103:Middlewares/LVGL/GUI/lvgl/src/extra/widgets/meter/lv_meter.c ****     scale->label_gap = label_gap;
 2895              		.loc 1 103 5 is_stmt 1 view .LVU985
 103:Middlewares/LVGL/GUI/lvgl/src/extra/widgets/meter/lv_meter.c ****     scale->label_gap = label_gap;
 2896              		.loc 1 103 29 is_stmt 0 view .LVU986
 2897 000c BDF80C30 		ldrh	r3, [sp, #12]
 2898 0010 0B81     		strh	r3, [r1, #8]	@ movhi
 104:Middlewares/LVGL/GUI/lvgl/src/extra/widgets/meter/lv_meter.c ****     lv_obj_invalidate(obj);
 2899              		.loc 1 104 5 is_stmt 1 view .LVU987
 104:Middlewares/LVGL/GUI/lvgl/src/extra/widgets/meter/lv_meter.c ****     lv_obj_invalidate(obj);
 2900              		.loc 1 104 22 is_stmt 0 view .LVU988
 2901 0012 BDF91030 		ldrsh	r3, [sp, #16]
 2902 0016 0B82     		strh	r3, [r1, #16]	@ movhi
 105:Middlewares/LVGL/GUI/lvgl/src/extra/widgets/meter/lv_meter.c **** }
 2903              		.loc 1 105 5 is_stmt 1 view .LVU989
 2904 0018 FFF7FEFF 		bl	lv_obj_invalidate
 2905              	.LVL309:
 106:Middlewares/LVGL/GUI/lvgl/src/extra/widgets/meter/lv_meter.c **** 
 2906              		.loc 1 106 1 is_stmt 0 view .LVU990
 2907 001c 08BD     		pop	{r3, pc}
 106:Middlewares/LVGL/GUI/lvgl/src/extra/widgets/meter/lv_meter.c **** 
 2908              		.loc 1 106 1 view .LVU991
 2909              		.cfi_endproc
 2910              	.LFE199:
 2912              		.section	.text.lv_meter_set_scale_range,"ax",%progbits
 2913              		.align	1
 2914              		.global	lv_meter_set_scale_range
 2915              		.syntax unified
 2916              		.thumb
 2917              		.thumb_func
 2919              	lv_meter_set_scale_range:
 2920              	.LVL310:
 2921              	.LFB200:
 110:Middlewares/LVGL/GUI/lvgl/src/extra/widgets/meter/lv_meter.c ****     scale->min = min;
 2922              		.loc 1 110 1 is_stmt 1 view -0
 2923              		.cfi_startproc
 2924              		@ args = 8, pretend = 0, frame = 0
 2925              		@ frame_needed = 0, uses_anonymous_args = 0
 110:Middlewares/LVGL/GUI/lvgl/src/extra/widgets/meter/lv_meter.c ****     scale->min = min;
 2926              		.loc 1 110 1 is_stmt 0 view .LVU993
 2927 0000 08B5     		push	{r3, lr}
 2928              	.LCFI26:
 2929              		.cfi_def_cfa_offset 8
 2930              		.cfi_offset 3, -8
 2931              		.cfi_offset 14, -4
 111:Middlewares/LVGL/GUI/lvgl/src/extra/widgets/meter/lv_meter.c ****     scale->max = max;
 2932              		.loc 1 111 5 is_stmt 1 view .LVU994
 111:Middlewares/LVGL/GUI/lvgl/src/extra/widgets/meter/lv_meter.c ****     scale->max = max;
 2933              		.loc 1 111 16 is_stmt 0 view .LVU995
 2934 0002 4A61     		str	r2, [r1, #20]
 112:Middlewares/LVGL/GUI/lvgl/src/extra/widgets/meter/lv_meter.c ****     scale->angle_range = angle_range;
 2935              		.loc 1 112 5 is_stmt 1 view .LVU996
 112:Middlewares/LVGL/GUI/lvgl/src/extra/widgets/meter/lv_meter.c ****     scale->angle_range = angle_range;
 2936              		.loc 1 112 16 is_stmt 0 view .LVU997
 2937 0004 8B61     		str	r3, [r1, #24]
 113:Middlewares/LVGL/GUI/lvgl/src/extra/widgets/meter/lv_meter.c ****     scale->rotation = rotation;
 2938              		.loc 1 113 5 is_stmt 1 view .LVU998
 113:Middlewares/LVGL/GUI/lvgl/src/extra/widgets/meter/lv_meter.c ****     scale->rotation = rotation;
ARM GAS  C:\Users\ADMINI~1\AppData\Local\Temp\ccVbA5cL.s 			page 94


 2939              		.loc 1 113 24 is_stmt 0 view .LVU999
 2940 0006 029B     		ldr	r3, [sp, #8]
 2941              	.LVL311:
 113:Middlewares/LVGL/GUI/lvgl/src/extra/widgets/meter/lv_meter.c ****     scale->rotation = rotation;
 2942              		.loc 1 113 24 view .LVU1000
 2943 0008 CB83     		strh	r3, [r1, #30]	@ movhi
 114:Middlewares/LVGL/GUI/lvgl/src/extra/widgets/meter/lv_meter.c ****     lv_obj_invalidate(obj);
 2944              		.loc 1 114 5 is_stmt 1 view .LVU1001
 114:Middlewares/LVGL/GUI/lvgl/src/extra/widgets/meter/lv_meter.c ****     lv_obj_invalidate(obj);
 2945              		.loc 1 114 21 is_stmt 0 view .LVU1002
 2946 000a 039B     		ldr	r3, [sp, #12]
 2947 000c 0B84     		strh	r3, [r1, #32]	@ movhi
 115:Middlewares/LVGL/GUI/lvgl/src/extra/widgets/meter/lv_meter.c **** }
 2948              		.loc 1 115 5 is_stmt 1 view .LVU1003
 2949 000e FFF7FEFF 		bl	lv_obj_invalidate
 2950              	.LVL312:
 116:Middlewares/LVGL/GUI/lvgl/src/extra/widgets/meter/lv_meter.c **** 
 2951              		.loc 1 116 1 is_stmt 0 view .LVU1004
 2952 0012 08BD     		pop	{r3, pc}
 116:Middlewares/LVGL/GUI/lvgl/src/extra/widgets/meter/lv_meter.c **** 
 2953              		.loc 1 116 1 view .LVU1005
 2954              		.cfi_endproc
 2955              	.LFE200:
 2957              		.section	.text.lv_meter_add_needle_line,"ax",%progbits
 2958              		.align	1
 2959              		.global	lv_meter_add_needle_line
 2960              		.syntax unified
 2961              		.thumb
 2962              		.thumb_func
 2964              	lv_meter_add_needle_line:
 2965              	.LVL313:
 2966              	.LFB201:
 124:Middlewares/LVGL/GUI/lvgl/src/extra/widgets/meter/lv_meter.c ****     LV_ASSERT_OBJ(obj, MY_CLASS);
 2967              		.loc 1 124 1 is_stmt 1 view -0
 2968              		.cfi_startproc
 2969              		@ args = 4, pretend = 0, frame = 0
 2970              		@ frame_needed = 0, uses_anonymous_args = 0
 124:Middlewares/LVGL/GUI/lvgl/src/extra/widgets/meter/lv_meter.c ****     LV_ASSERT_OBJ(obj, MY_CLASS);
 2971              		.loc 1 124 1 is_stmt 0 view .LVU1007
 2972 0000 2DE9F041 		push	{r4, r5, r6, r7, r8, lr}
 2973              	.LCFI27:
 2974              		.cfi_def_cfa_offset 24
 2975              		.cfi_offset 4, -24
 2976              		.cfi_offset 5, -20
 2977              		.cfi_offset 6, -16
 2978              		.cfi_offset 7, -12
 2979              		.cfi_offset 8, -8
 2980              		.cfi_offset 14, -4
 2981 0004 0546     		mov	r5, r0
 2982 0006 0F46     		mov	r7, r1
 2983 0008 9046     		mov	r8, r2
 2984 000a 1E46     		mov	r6, r3	@ movhi
 2985              	.LVL314:
 125:Middlewares/LVGL/GUI/lvgl/src/extra/widgets/meter/lv_meter.c ****     lv_meter_t * meter = (lv_meter_t *)obj;
 2986              		.loc 1 125 5 is_stmt 1 view .LVU1008
 125:Middlewares/LVGL/GUI/lvgl/src/extra/widgets/meter/lv_meter.c ****     lv_meter_t * meter = (lv_meter_t *)obj;
 2987              		.loc 1 125 5 view .LVU1009
ARM GAS  C:\Users\ADMINI~1\AppData\Local\Temp\ccVbA5cL.s 			page 95


 125:Middlewares/LVGL/GUI/lvgl/src/extra/widgets/meter/lv_meter.c ****     lv_meter_t * meter = (lv_meter_t *)obj;
 2988              		.loc 1 125 5 view .LVU1010
 126:Middlewares/LVGL/GUI/lvgl/src/extra/widgets/meter/lv_meter.c ****     lv_meter_indicator_t * indic = _lv_ll_ins_head(&meter->indicator_ll);
 2989              		.loc 1 126 5 view .LVU1011
 127:Middlewares/LVGL/GUI/lvgl/src/extra/widgets/meter/lv_meter.c ****     LV_ASSERT_MALLOC(indic);
 2990              		.loc 1 127 5 view .LVU1012
 127:Middlewares/LVGL/GUI/lvgl/src/extra/widgets/meter/lv_meter.c ****     LV_ASSERT_MALLOC(indic);
 2991              		.loc 1 127 36 is_stmt 0 view .LVU1013
 2992 000c 3830     		adds	r0, r0, #56
 2993              	.LVL315:
 127:Middlewares/LVGL/GUI/lvgl/src/extra/widgets/meter/lv_meter.c ****     LV_ASSERT_MALLOC(indic);
 2994              		.loc 1 127 36 view .LVU1014
 2995 000e FFF7FEFF 		bl	_lv_ll_ins_head
 2996              	.LVL316:
 128:Middlewares/LVGL/GUI/lvgl/src/extra/widgets/meter/lv_meter.c ****     lv_memset_00(indic, sizeof(lv_meter_indicator_t));
 2997              		.loc 1 128 5 is_stmt 1 view .LVU1015
 128:Middlewares/LVGL/GUI/lvgl/src/extra/widgets/meter/lv_meter.c ****     lv_memset_00(indic, sizeof(lv_meter_indicator_t));
 2998              		.loc 1 128 5 view .LVU1016
 2999 0012 A0B1     		cbz	r0, .L95
 3000 0014 0446     		mov	r4, r0
 128:Middlewares/LVGL/GUI/lvgl/src/extra/widgets/meter/lv_meter.c ****     lv_memset_00(indic, sizeof(lv_meter_indicator_t));
 3001              		.loc 1 128 5 discriminator 2 view .LVU1017
 128:Middlewares/LVGL/GUI/lvgl/src/extra/widgets/meter/lv_meter.c ****     lv_memset_00(indic, sizeof(lv_meter_indicator_t));
 3002              		.loc 1 128 28 discriminator 2 view .LVU1018
 129:Middlewares/LVGL/GUI/lvgl/src/extra/widgets/meter/lv_meter.c ****     indic->scale = scale;
 3003              		.loc 1 129 5 discriminator 2 view .LVU1019
 3004 0016 1C21     		movs	r1, #28
 3005 0018 FFF7FEFF 		bl	lv_memset_00
 3006              	.LVL317:
 130:Middlewares/LVGL/GUI/lvgl/src/extra/widgets/meter/lv_meter.c ****     indic->opa = LV_OPA_COVER;
 3007              		.loc 1 130 5 discriminator 2 view .LVU1020
 130:Middlewares/LVGL/GUI/lvgl/src/extra/widgets/meter/lv_meter.c ****     indic->opa = LV_OPA_COVER;
 3008              		.loc 1 130 18 is_stmt 0 discriminator 2 view .LVU1021
 3009 001c 2760     		str	r7, [r4]
 131:Middlewares/LVGL/GUI/lvgl/src/extra/widgets/meter/lv_meter.c **** 
 3010              		.loc 1 131 5 is_stmt 1 discriminator 2 view .LVU1022
 131:Middlewares/LVGL/GUI/lvgl/src/extra/widgets/meter/lv_meter.c **** 
 3011              		.loc 1 131 16 is_stmt 0 discriminator 2 view .LVU1023
 3012 001e FF23     		movs	r3, #255
 3013 0020 6371     		strb	r3, [r4, #5]
 133:Middlewares/LVGL/GUI/lvgl/src/extra/widgets/meter/lv_meter.c ****     indic->type_data.needle_line.width = width;
 3014              		.loc 1 133 5 is_stmt 1 discriminator 2 view .LVU1024
 133:Middlewares/LVGL/GUI/lvgl/src/extra/widgets/meter/lv_meter.c ****     indic->type_data.needle_line.width = width;
 3015              		.loc 1 133 17 is_stmt 0 discriminator 2 view .LVU1025
 3016 0022 0123     		movs	r3, #1
 3017 0024 2371     		strb	r3, [r4, #4]
 134:Middlewares/LVGL/GUI/lvgl/src/extra/widgets/meter/lv_meter.c ****     indic->type_data.needle_line.color = color;
 3018              		.loc 1 134 5 is_stmt 1 discriminator 2 view .LVU1026
 134:Middlewares/LVGL/GUI/lvgl/src/extra/widgets/meter/lv_meter.c ****     indic->type_data.needle_line.color = color;
 3019              		.loc 1 134 40 is_stmt 0 discriminator 2 view .LVU1027
 3020 0026 A4F81080 		strh	r8, [r4, #16]	@ movhi
 135:Middlewares/LVGL/GUI/lvgl/src/extra/widgets/meter/lv_meter.c ****     indic->type_data.needle_line.r_mod = r_mod;
 3021              		.loc 1 135 5 is_stmt 1 discriminator 2 view .LVU1028
 3022              	.LVL318:
 135:Middlewares/LVGL/GUI/lvgl/src/extra/widgets/meter/lv_meter.c ****     indic->type_data.needle_line.r_mod = r_mod;
 3023              		.loc 1 135 40 is_stmt 0 discriminator 2 view .LVU1029
 3024 002a A682     		strh	r6, [r4, #20]	@ movhi
ARM GAS  C:\Users\ADMINI~1\AppData\Local\Temp\ccVbA5cL.s 			page 96


 136:Middlewares/LVGL/GUI/lvgl/src/extra/widgets/meter/lv_meter.c ****     lv_obj_invalidate(obj);
 3025              		.loc 1 136 5 is_stmt 1 discriminator 2 view .LVU1030
 136:Middlewares/LVGL/GUI/lvgl/src/extra/widgets/meter/lv_meter.c ****     lv_obj_invalidate(obj);
 3026              		.loc 1 136 40 is_stmt 0 discriminator 2 view .LVU1031
 3027 002c BDF91830 		ldrsh	r3, [sp, #24]
 3028 0030 6382     		strh	r3, [r4, #18]	@ movhi
 137:Middlewares/LVGL/GUI/lvgl/src/extra/widgets/meter/lv_meter.c **** 
 3029              		.loc 1 137 5 is_stmt 1 discriminator 2 view .LVU1032
 3030 0032 2846     		mov	r0, r5
 3031 0034 FFF7FEFF 		bl	lv_obj_invalidate
 3032              	.LVL319:
 139:Middlewares/LVGL/GUI/lvgl/src/extra/widgets/meter/lv_meter.c **** }
 3033              		.loc 1 139 5 discriminator 2 view .LVU1033
 140:Middlewares/LVGL/GUI/lvgl/src/extra/widgets/meter/lv_meter.c **** 
 3034              		.loc 1 140 1 is_stmt 0 discriminator 2 view .LVU1034
 3035 0038 2046     		mov	r0, r4
 3036 003a BDE8F081 		pop	{r4, r5, r6, r7, r8, pc}
 3037              	.LVL320:
 3038              	.L95:
 128:Middlewares/LVGL/GUI/lvgl/src/extra/widgets/meter/lv_meter.c ****     lv_memset_00(indic, sizeof(lv_meter_indicator_t));
 3039              		.loc 1 128 5 is_stmt 1 discriminator 1 view .LVU1035
 128:Middlewares/LVGL/GUI/lvgl/src/extra/widgets/meter/lv_meter.c ****     lv_memset_00(indic, sizeof(lv_meter_indicator_t));
 3040              		.loc 1 128 5 discriminator 1 view .LVU1036
 128:Middlewares/LVGL/GUI/lvgl/src/extra/widgets/meter/lv_meter.c ****     lv_memset_00(indic, sizeof(lv_meter_indicator_t));
 3041              		.loc 1 128 5 discriminator 1 view .LVU1037
 128:Middlewares/LVGL/GUI/lvgl/src/extra/widgets/meter/lv_meter.c ****     lv_memset_00(indic, sizeof(lv_meter_indicator_t));
 3042              		.loc 1 128 5 discriminator 1 view .LVU1038
 128:Middlewares/LVGL/GUI/lvgl/src/extra/widgets/meter/lv_meter.c ****     lv_memset_00(indic, sizeof(lv_meter_indicator_t));
 3043              		.loc 1 128 5 discriminator 1 view .LVU1039
 128:Middlewares/LVGL/GUI/lvgl/src/extra/widgets/meter/lv_meter.c ****     lv_memset_00(indic, sizeof(lv_meter_indicator_t));
 3044              		.loc 1 128 5 discriminator 1 view .LVU1040
 3045 003e FEE7     		b	.L95
 3046              		.cfi_endproc
 3047              	.LFE201:
 3049              		.section	.text.lv_meter_add_needle_img,"ax",%progbits
 3050              		.align	1
 3051              		.global	lv_meter_add_needle_img
 3052              		.syntax unified
 3053              		.thumb
 3054              		.thumb_func
 3056              	lv_meter_add_needle_img:
 3057              	.LVL321:
 3058              	.LFB202:
 144:Middlewares/LVGL/GUI/lvgl/src/extra/widgets/meter/lv_meter.c ****     LV_ASSERT_OBJ(obj, MY_CLASS);
 3059              		.loc 1 144 1 view -0
 3060              		.cfi_startproc
 3061              		@ args = 4, pretend = 0, frame = 0
 3062              		@ frame_needed = 0, uses_anonymous_args = 0
 144:Middlewares/LVGL/GUI/lvgl/src/extra/widgets/meter/lv_meter.c ****     LV_ASSERT_OBJ(obj, MY_CLASS);
 3063              		.loc 1 144 1 is_stmt 0 view .LVU1042
 3064 0000 2DE9F041 		push	{r4, r5, r6, r7, r8, lr}
 3065              	.LCFI28:
 3066              		.cfi_def_cfa_offset 24
 3067              		.cfi_offset 4, -24
 3068              		.cfi_offset 5, -20
 3069              		.cfi_offset 6, -16
 3070              		.cfi_offset 7, -12
ARM GAS  C:\Users\ADMINI~1\AppData\Local\Temp\ccVbA5cL.s 			page 97


 3071              		.cfi_offset 8, -8
 3072              		.cfi_offset 14, -4
 3073 0004 0546     		mov	r5, r0
 3074 0006 0F46     		mov	r7, r1
 3075 0008 9046     		mov	r8, r2
 3076 000a 1E46     		mov	r6, r3
 145:Middlewares/LVGL/GUI/lvgl/src/extra/widgets/meter/lv_meter.c ****     lv_meter_t * meter = (lv_meter_t *)obj;
 3077              		.loc 1 145 5 is_stmt 1 view .LVU1043
 145:Middlewares/LVGL/GUI/lvgl/src/extra/widgets/meter/lv_meter.c ****     lv_meter_t * meter = (lv_meter_t *)obj;
 3078              		.loc 1 145 5 view .LVU1044
 145:Middlewares/LVGL/GUI/lvgl/src/extra/widgets/meter/lv_meter.c ****     lv_meter_t * meter = (lv_meter_t *)obj;
 3079              		.loc 1 145 5 view .LVU1045
 146:Middlewares/LVGL/GUI/lvgl/src/extra/widgets/meter/lv_meter.c ****     lv_meter_indicator_t * indic = _lv_ll_ins_head(&meter->indicator_ll);
 3080              		.loc 1 146 5 view .LVU1046
 3081              	.LVL322:
 147:Middlewares/LVGL/GUI/lvgl/src/extra/widgets/meter/lv_meter.c ****     LV_ASSERT_MALLOC(indic);
 3082              		.loc 1 147 5 view .LVU1047
 147:Middlewares/LVGL/GUI/lvgl/src/extra/widgets/meter/lv_meter.c ****     LV_ASSERT_MALLOC(indic);
 3083              		.loc 1 147 36 is_stmt 0 view .LVU1048
 3084 000c 3830     		adds	r0, r0, #56
 3085              	.LVL323:
 147:Middlewares/LVGL/GUI/lvgl/src/extra/widgets/meter/lv_meter.c ****     LV_ASSERT_MALLOC(indic);
 3086              		.loc 1 147 36 view .LVU1049
 3087 000e FFF7FEFF 		bl	_lv_ll_ins_head
 3088              	.LVL324:
 148:Middlewares/LVGL/GUI/lvgl/src/extra/widgets/meter/lv_meter.c ****     lv_memset_00(indic, sizeof(lv_meter_indicator_t));
 3089              		.loc 1 148 5 is_stmt 1 view .LVU1050
 148:Middlewares/LVGL/GUI/lvgl/src/extra/widgets/meter/lv_meter.c ****     lv_memset_00(indic, sizeof(lv_meter_indicator_t));
 3090              		.loc 1 148 5 view .LVU1051
 3091 0012 98B1     		cbz	r0, .L99
 3092 0014 0446     		mov	r4, r0
 148:Middlewares/LVGL/GUI/lvgl/src/extra/widgets/meter/lv_meter.c ****     lv_memset_00(indic, sizeof(lv_meter_indicator_t));
 3093              		.loc 1 148 5 discriminator 2 view .LVU1052
 148:Middlewares/LVGL/GUI/lvgl/src/extra/widgets/meter/lv_meter.c ****     lv_memset_00(indic, sizeof(lv_meter_indicator_t));
 3094              		.loc 1 148 28 discriminator 2 view .LVU1053
 149:Middlewares/LVGL/GUI/lvgl/src/extra/widgets/meter/lv_meter.c ****     indic->scale = scale;
 3095              		.loc 1 149 5 discriminator 2 view .LVU1054
 3096 0016 1C21     		movs	r1, #28
 3097 0018 FFF7FEFF 		bl	lv_memset_00
 3098              	.LVL325:
 150:Middlewares/LVGL/GUI/lvgl/src/extra/widgets/meter/lv_meter.c ****     indic->opa = LV_OPA_COVER;
 3099              		.loc 1 150 5 discriminator 2 view .LVU1055
 150:Middlewares/LVGL/GUI/lvgl/src/extra/widgets/meter/lv_meter.c ****     indic->opa = LV_OPA_COVER;
 3100              		.loc 1 150 18 is_stmt 0 discriminator 2 view .LVU1056
 3101 001c 2760     		str	r7, [r4]
 151:Middlewares/LVGL/GUI/lvgl/src/extra/widgets/meter/lv_meter.c **** 
 3102              		.loc 1 151 5 is_stmt 1 discriminator 2 view .LVU1057
 151:Middlewares/LVGL/GUI/lvgl/src/extra/widgets/meter/lv_meter.c **** 
 3103              		.loc 1 151 16 is_stmt 0 discriminator 2 view .LVU1058
 3104 001e FF23     		movs	r3, #255
 3105 0020 6371     		strb	r3, [r4, #5]
 153:Middlewares/LVGL/GUI/lvgl/src/extra/widgets/meter/lv_meter.c ****     indic->type_data.needle_img.src = src;
 3106              		.loc 1 153 5 is_stmt 1 discriminator 2 view .LVU1059
 153:Middlewares/LVGL/GUI/lvgl/src/extra/widgets/meter/lv_meter.c ****     indic->type_data.needle_img.src = src;
 3107              		.loc 1 153 17 is_stmt 0 discriminator 2 view .LVU1060
 3108 0022 0023     		movs	r3, #0
 3109 0024 2371     		strb	r3, [r4, #4]
ARM GAS  C:\Users\ADMINI~1\AppData\Local\Temp\ccVbA5cL.s 			page 98


 154:Middlewares/LVGL/GUI/lvgl/src/extra/widgets/meter/lv_meter.c ****     indic->type_data.needle_img.pivot.x = pivot_x;
 3110              		.loc 1 154 5 is_stmt 1 discriminator 2 view .LVU1061
 154:Middlewares/LVGL/GUI/lvgl/src/extra/widgets/meter/lv_meter.c ****     indic->type_data.needle_img.pivot.x = pivot_x;
 3111              		.loc 1 154 37 is_stmt 0 discriminator 2 view .LVU1062
 3112 0026 C4F81080 		str	r8, [r4, #16]
 155:Middlewares/LVGL/GUI/lvgl/src/extra/widgets/meter/lv_meter.c ****     indic->type_data.needle_img.pivot.y = pivot_y;
 3113              		.loc 1 155 5 is_stmt 1 discriminator 2 view .LVU1063
 155:Middlewares/LVGL/GUI/lvgl/src/extra/widgets/meter/lv_meter.c ****     indic->type_data.needle_img.pivot.y = pivot_y;
 3114              		.loc 1 155 41 is_stmt 0 discriminator 2 view .LVU1064
 3115 002a 6661     		str	r6, [r4, #20]
 156:Middlewares/LVGL/GUI/lvgl/src/extra/widgets/meter/lv_meter.c ****     lv_obj_invalidate(obj);
 3116              		.loc 1 156 5 is_stmt 1 discriminator 2 view .LVU1065
 156:Middlewares/LVGL/GUI/lvgl/src/extra/widgets/meter/lv_meter.c ****     lv_obj_invalidate(obj);
 3117              		.loc 1 156 41 is_stmt 0 discriminator 2 view .LVU1066
 3118 002c 069B     		ldr	r3, [sp, #24]
 3119 002e A361     		str	r3, [r4, #24]
 157:Middlewares/LVGL/GUI/lvgl/src/extra/widgets/meter/lv_meter.c **** 
 3120              		.loc 1 157 5 is_stmt 1 discriminator 2 view .LVU1067
 3121 0030 2846     		mov	r0, r5
 3122 0032 FFF7FEFF 		bl	lv_obj_invalidate
 3123              	.LVL326:
 159:Middlewares/LVGL/GUI/lvgl/src/extra/widgets/meter/lv_meter.c **** }
 3124              		.loc 1 159 5 discriminator 2 view .LVU1068
 160:Middlewares/LVGL/GUI/lvgl/src/extra/widgets/meter/lv_meter.c **** 
 3125              		.loc 1 160 1 is_stmt 0 discriminator 2 view .LVU1069
 3126 0036 2046     		mov	r0, r4
 3127 0038 BDE8F081 		pop	{r4, r5, r6, r7, r8, pc}
 3128              	.LVL327:
 3129              	.L99:
 148:Middlewares/LVGL/GUI/lvgl/src/extra/widgets/meter/lv_meter.c ****     lv_memset_00(indic, sizeof(lv_meter_indicator_t));
 3130              		.loc 1 148 5 is_stmt 1 discriminator 1 view .LVU1070
 148:Middlewares/LVGL/GUI/lvgl/src/extra/widgets/meter/lv_meter.c ****     lv_memset_00(indic, sizeof(lv_meter_indicator_t));
 3131              		.loc 1 148 5 discriminator 1 view .LVU1071
 148:Middlewares/LVGL/GUI/lvgl/src/extra/widgets/meter/lv_meter.c ****     lv_memset_00(indic, sizeof(lv_meter_indicator_t));
 3132              		.loc 1 148 5 discriminator 1 view .LVU1072
 148:Middlewares/LVGL/GUI/lvgl/src/extra/widgets/meter/lv_meter.c ****     lv_memset_00(indic, sizeof(lv_meter_indicator_t));
 3133              		.loc 1 148 5 discriminator 1 view .LVU1073
 148:Middlewares/LVGL/GUI/lvgl/src/extra/widgets/meter/lv_meter.c ****     lv_memset_00(indic, sizeof(lv_meter_indicator_t));
 3134              		.loc 1 148 5 discriminator 1 view .LVU1074
 148:Middlewares/LVGL/GUI/lvgl/src/extra/widgets/meter/lv_meter.c ****     lv_memset_00(indic, sizeof(lv_meter_indicator_t));
 3135              		.loc 1 148 5 discriminator 1 view .LVU1075
 3136 003c FEE7     		b	.L99
 3137              		.cfi_endproc
 3138              	.LFE202:
 3140              		.section	.text.lv_meter_add_arc,"ax",%progbits
 3141              		.align	1
 3142              		.global	lv_meter_add_arc
 3143              		.syntax unified
 3144              		.thumb
 3145              		.thumb_func
 3147              	lv_meter_add_arc:
 3148              	.LVL328:
 3149              	.LFB203:
 164:Middlewares/LVGL/GUI/lvgl/src/extra/widgets/meter/lv_meter.c ****     LV_ASSERT_OBJ(obj, MY_CLASS);
 3150              		.loc 1 164 1 view -0
 3151              		.cfi_startproc
 3152              		@ args = 4, pretend = 0, frame = 0
ARM GAS  C:\Users\ADMINI~1\AppData\Local\Temp\ccVbA5cL.s 			page 99


 3153              		@ frame_needed = 0, uses_anonymous_args = 0
 164:Middlewares/LVGL/GUI/lvgl/src/extra/widgets/meter/lv_meter.c ****     LV_ASSERT_OBJ(obj, MY_CLASS);
 3154              		.loc 1 164 1 is_stmt 0 view .LVU1077
 3155 0000 2DE9F041 		push	{r4, r5, r6, r7, r8, lr}
 3156              	.LCFI29:
 3157              		.cfi_def_cfa_offset 24
 3158              		.cfi_offset 4, -24
 3159              		.cfi_offset 5, -20
 3160              		.cfi_offset 6, -16
 3161              		.cfi_offset 7, -12
 3162              		.cfi_offset 8, -8
 3163              		.cfi_offset 14, -4
 3164 0004 0546     		mov	r5, r0
 3165 0006 0F46     		mov	r7, r1
 3166 0008 9046     		mov	r8, r2
 3167 000a 1E46     		mov	r6, r3	@ movhi
 3168              	.LVL329:
 165:Middlewares/LVGL/GUI/lvgl/src/extra/widgets/meter/lv_meter.c ****     lv_meter_t * meter = (lv_meter_t *)obj;
 3169              		.loc 1 165 5 is_stmt 1 view .LVU1078
 165:Middlewares/LVGL/GUI/lvgl/src/extra/widgets/meter/lv_meter.c ****     lv_meter_t * meter = (lv_meter_t *)obj;
 3170              		.loc 1 165 5 view .LVU1079
 165:Middlewares/LVGL/GUI/lvgl/src/extra/widgets/meter/lv_meter.c ****     lv_meter_t * meter = (lv_meter_t *)obj;
 3171              		.loc 1 165 5 view .LVU1080
 166:Middlewares/LVGL/GUI/lvgl/src/extra/widgets/meter/lv_meter.c ****     lv_meter_indicator_t * indic = _lv_ll_ins_head(&meter->indicator_ll);
 3172              		.loc 1 166 5 view .LVU1081
 167:Middlewares/LVGL/GUI/lvgl/src/extra/widgets/meter/lv_meter.c ****     LV_ASSERT_MALLOC(indic);
 3173              		.loc 1 167 5 view .LVU1082
 167:Middlewares/LVGL/GUI/lvgl/src/extra/widgets/meter/lv_meter.c ****     LV_ASSERT_MALLOC(indic);
 3174              		.loc 1 167 36 is_stmt 0 view .LVU1083
 3175 000c 3830     		adds	r0, r0, #56
 3176              	.LVL330:
 167:Middlewares/LVGL/GUI/lvgl/src/extra/widgets/meter/lv_meter.c ****     LV_ASSERT_MALLOC(indic);
 3177              		.loc 1 167 36 view .LVU1084
 3178 000e FFF7FEFF 		bl	_lv_ll_ins_head
 3179              	.LVL331:
 168:Middlewares/LVGL/GUI/lvgl/src/extra/widgets/meter/lv_meter.c ****     lv_memset_00(indic, sizeof(lv_meter_indicator_t));
 3180              		.loc 1 168 5 is_stmt 1 view .LVU1085
 168:Middlewares/LVGL/GUI/lvgl/src/extra/widgets/meter/lv_meter.c ****     lv_memset_00(indic, sizeof(lv_meter_indicator_t));
 3181              		.loc 1 168 5 view .LVU1086
 3182 0012 A0B1     		cbz	r0, .L103
 3183 0014 0446     		mov	r4, r0
 168:Middlewares/LVGL/GUI/lvgl/src/extra/widgets/meter/lv_meter.c ****     lv_memset_00(indic, sizeof(lv_meter_indicator_t));
 3184              		.loc 1 168 5 discriminator 2 view .LVU1087
 168:Middlewares/LVGL/GUI/lvgl/src/extra/widgets/meter/lv_meter.c ****     lv_memset_00(indic, sizeof(lv_meter_indicator_t));
 3185              		.loc 1 168 28 discriminator 2 view .LVU1088
 169:Middlewares/LVGL/GUI/lvgl/src/extra/widgets/meter/lv_meter.c ****     indic->scale = scale;
 3186              		.loc 1 169 5 discriminator 2 view .LVU1089
 3187 0016 1C21     		movs	r1, #28
 3188 0018 FFF7FEFF 		bl	lv_memset_00
 3189              	.LVL332:
 170:Middlewares/LVGL/GUI/lvgl/src/extra/widgets/meter/lv_meter.c ****     indic->opa = LV_OPA_COVER;
 3190              		.loc 1 170 5 discriminator 2 view .LVU1090
 170:Middlewares/LVGL/GUI/lvgl/src/extra/widgets/meter/lv_meter.c ****     indic->opa = LV_OPA_COVER;
 3191              		.loc 1 170 18 is_stmt 0 discriminator 2 view .LVU1091
 3192 001c 2760     		str	r7, [r4]
 171:Middlewares/LVGL/GUI/lvgl/src/extra/widgets/meter/lv_meter.c **** 
 3193              		.loc 1 171 5 is_stmt 1 discriminator 2 view .LVU1092
ARM GAS  C:\Users\ADMINI~1\AppData\Local\Temp\ccVbA5cL.s 			page 100


 171:Middlewares/LVGL/GUI/lvgl/src/extra/widgets/meter/lv_meter.c **** 
 3194              		.loc 1 171 16 is_stmt 0 discriminator 2 view .LVU1093
 3195 001e FF23     		movs	r3, #255
 3196 0020 6371     		strb	r3, [r4, #5]
 173:Middlewares/LVGL/GUI/lvgl/src/extra/widgets/meter/lv_meter.c ****     indic->type_data.arc.width = width;
 3197              		.loc 1 173 5 is_stmt 1 discriminator 2 view .LVU1094
 173:Middlewares/LVGL/GUI/lvgl/src/extra/widgets/meter/lv_meter.c ****     indic->type_data.arc.width = width;
 3198              		.loc 1 173 17 is_stmt 0 discriminator 2 view .LVU1095
 3199 0022 0323     		movs	r3, #3
 3200 0024 2371     		strb	r3, [r4, #4]
 174:Middlewares/LVGL/GUI/lvgl/src/extra/widgets/meter/lv_meter.c ****     indic->type_data.arc.color = color;
 3201              		.loc 1 174 5 is_stmt 1 discriminator 2 view .LVU1096
 174:Middlewares/LVGL/GUI/lvgl/src/extra/widgets/meter/lv_meter.c ****     indic->type_data.arc.color = color;
 3202              		.loc 1 174 32 is_stmt 0 discriminator 2 view .LVU1097
 3203 0026 A4F81080 		strh	r8, [r4, #16]	@ movhi
 175:Middlewares/LVGL/GUI/lvgl/src/extra/widgets/meter/lv_meter.c ****     indic->type_data.arc.r_mod = r_mod;
 3204              		.loc 1 175 5 is_stmt 1 discriminator 2 view .LVU1098
 3205              	.LVL333:
 175:Middlewares/LVGL/GUI/lvgl/src/extra/widgets/meter/lv_meter.c ****     indic->type_data.arc.r_mod = r_mod;
 3206              		.loc 1 175 32 is_stmt 0 discriminator 2 view .LVU1099
 3207 002a 2683     		strh	r6, [r4, #24]	@ movhi
 176:Middlewares/LVGL/GUI/lvgl/src/extra/widgets/meter/lv_meter.c **** 
 3208              		.loc 1 176 5 is_stmt 1 discriminator 2 view .LVU1100
 176:Middlewares/LVGL/GUI/lvgl/src/extra/widgets/meter/lv_meter.c **** 
 3209              		.loc 1 176 32 is_stmt 0 discriminator 2 view .LVU1101
 3210 002c BDF91830 		ldrsh	r3, [sp, #24]
 3211 0030 6383     		strh	r3, [r4, #26]	@ movhi
 178:Middlewares/LVGL/GUI/lvgl/src/extra/widgets/meter/lv_meter.c ****     return indic;
 3212              		.loc 1 178 5 is_stmt 1 discriminator 2 view .LVU1102
 3213 0032 2846     		mov	r0, r5
 3214 0034 FFF7FEFF 		bl	lv_obj_invalidate
 3215              	.LVL334:
 179:Middlewares/LVGL/GUI/lvgl/src/extra/widgets/meter/lv_meter.c **** }
 3216              		.loc 1 179 5 discriminator 2 view .LVU1103
 180:Middlewares/LVGL/GUI/lvgl/src/extra/widgets/meter/lv_meter.c **** 
 3217              		.loc 1 180 1 is_stmt 0 discriminator 2 view .LVU1104
 3218 0038 2046     		mov	r0, r4
 3219 003a BDE8F081 		pop	{r4, r5, r6, r7, r8, pc}
 3220              	.LVL335:
 3221              	.L103:
 168:Middlewares/LVGL/GUI/lvgl/src/extra/widgets/meter/lv_meter.c ****     lv_memset_00(indic, sizeof(lv_meter_indicator_t));
 3222              		.loc 1 168 5 is_stmt 1 discriminator 1 view .LVU1105
 168:Middlewares/LVGL/GUI/lvgl/src/extra/widgets/meter/lv_meter.c ****     lv_memset_00(indic, sizeof(lv_meter_indicator_t));
 3223              		.loc 1 168 5 discriminator 1 view .LVU1106
 168:Middlewares/LVGL/GUI/lvgl/src/extra/widgets/meter/lv_meter.c ****     lv_memset_00(indic, sizeof(lv_meter_indicator_t));
 3224              		.loc 1 168 5 discriminator 1 view .LVU1107
 168:Middlewares/LVGL/GUI/lvgl/src/extra/widgets/meter/lv_meter.c ****     lv_memset_00(indic, sizeof(lv_meter_indicator_t));
 3225              		.loc 1 168 5 discriminator 1 view .LVU1108
 168:Middlewares/LVGL/GUI/lvgl/src/extra/widgets/meter/lv_meter.c ****     lv_memset_00(indic, sizeof(lv_meter_indicator_t));
 3226              		.loc 1 168 5 discriminator 1 view .LVU1109
 168:Middlewares/LVGL/GUI/lvgl/src/extra/widgets/meter/lv_meter.c ****     lv_memset_00(indic, sizeof(lv_meter_indicator_t));
 3227              		.loc 1 168 5 discriminator 1 view .LVU1110
 3228 003e FEE7     		b	.L103
 3229              		.cfi_endproc
 3230              	.LFE203:
 3232              		.section	.text.lv_meter_add_scale_lines,"ax",%progbits
 3233              		.align	1
ARM GAS  C:\Users\ADMINI~1\AppData\Local\Temp\ccVbA5cL.s 			page 101


 3234              		.global	lv_meter_add_scale_lines
 3235              		.syntax unified
 3236              		.thumb
 3237              		.thumb_func
 3239              	lv_meter_add_scale_lines:
 3240              	.LVL336:
 3241              	.LFB204:
 184:Middlewares/LVGL/GUI/lvgl/src/extra/widgets/meter/lv_meter.c ****     LV_ASSERT_OBJ(obj, MY_CLASS);
 3242              		.loc 1 184 1 view -0
 3243              		.cfi_startproc
 3244              		@ args = 8, pretend = 0, frame = 0
 3245              		@ frame_needed = 0, uses_anonymous_args = 0
 184:Middlewares/LVGL/GUI/lvgl/src/extra/widgets/meter/lv_meter.c ****     LV_ASSERT_OBJ(obj, MY_CLASS);
 3246              		.loc 1 184 1 is_stmt 0 view .LVU1112
 3247 0000 2DE9F041 		push	{r4, r5, r6, r7, r8, lr}
 3248              	.LCFI30:
 3249              		.cfi_def_cfa_offset 24
 3250              		.cfi_offset 4, -24
 3251              		.cfi_offset 5, -20
 3252              		.cfi_offset 6, -16
 3253              		.cfi_offset 7, -12
 3254              		.cfi_offset 8, -8
 3255              		.cfi_offset 14, -4
 3256 0004 0546     		mov	r5, r0
 3257 0006 0F46     		mov	r7, r1
 3258 0008 9046     		mov	r8, r2	@ movhi
 3259              	.LVL337:
 184:Middlewares/LVGL/GUI/lvgl/src/extra/widgets/meter/lv_meter.c ****     LV_ASSERT_OBJ(obj, MY_CLASS);
 3260              		.loc 1 184 1 view .LVU1113
 3261 000a 1E46     		mov	r6, r3	@ movhi
 3262              	.LVL338:
 185:Middlewares/LVGL/GUI/lvgl/src/extra/widgets/meter/lv_meter.c ****     lv_meter_t * meter = (lv_meter_t *)obj;
 3263              		.loc 1 185 5 is_stmt 1 view .LVU1114
 185:Middlewares/LVGL/GUI/lvgl/src/extra/widgets/meter/lv_meter.c ****     lv_meter_t * meter = (lv_meter_t *)obj;
 3264              		.loc 1 185 5 view .LVU1115
 185:Middlewares/LVGL/GUI/lvgl/src/extra/widgets/meter/lv_meter.c ****     lv_meter_t * meter = (lv_meter_t *)obj;
 3265              		.loc 1 185 5 view .LVU1116
 186:Middlewares/LVGL/GUI/lvgl/src/extra/widgets/meter/lv_meter.c ****     lv_meter_indicator_t * indic = _lv_ll_ins_head(&meter->indicator_ll);
 3266              		.loc 1 186 5 view .LVU1117
 187:Middlewares/LVGL/GUI/lvgl/src/extra/widgets/meter/lv_meter.c ****     LV_ASSERT_MALLOC(indic);
 3267              		.loc 1 187 5 view .LVU1118
 187:Middlewares/LVGL/GUI/lvgl/src/extra/widgets/meter/lv_meter.c ****     LV_ASSERT_MALLOC(indic);
 3268              		.loc 1 187 36 is_stmt 0 view .LVU1119
 3269 000c 3830     		adds	r0, r0, #56
 3270              	.LVL339:
 187:Middlewares/LVGL/GUI/lvgl/src/extra/widgets/meter/lv_meter.c ****     LV_ASSERT_MALLOC(indic);
 3271              		.loc 1 187 36 view .LVU1120
 3272 000e FFF7FEFF 		bl	_lv_ll_ins_head
 3273              	.LVL340:
 188:Middlewares/LVGL/GUI/lvgl/src/extra/widgets/meter/lv_meter.c ****     lv_memset_00(indic, sizeof(lv_meter_indicator_t));
 3274              		.loc 1 188 5 is_stmt 1 view .LVU1121
 188:Middlewares/LVGL/GUI/lvgl/src/extra/widgets/meter/lv_meter.c ****     lv_memset_00(indic, sizeof(lv_meter_indicator_t));
 3275              		.loc 1 188 5 view .LVU1122
 3276 0012 D0B1     		cbz	r0, .L107
 3277 0014 0446     		mov	r4, r0
 188:Middlewares/LVGL/GUI/lvgl/src/extra/widgets/meter/lv_meter.c ****     lv_memset_00(indic, sizeof(lv_meter_indicator_t));
 3278              		.loc 1 188 5 discriminator 2 view .LVU1123
ARM GAS  C:\Users\ADMINI~1\AppData\Local\Temp\ccVbA5cL.s 			page 102


 188:Middlewares/LVGL/GUI/lvgl/src/extra/widgets/meter/lv_meter.c ****     lv_memset_00(indic, sizeof(lv_meter_indicator_t));
 3279              		.loc 1 188 28 discriminator 2 view .LVU1124
 189:Middlewares/LVGL/GUI/lvgl/src/extra/widgets/meter/lv_meter.c ****     indic->scale = scale;
 3280              		.loc 1 189 5 discriminator 2 view .LVU1125
 3281 0016 1C21     		movs	r1, #28
 3282 0018 FFF7FEFF 		bl	lv_memset_00
 3283              	.LVL341:
 190:Middlewares/LVGL/GUI/lvgl/src/extra/widgets/meter/lv_meter.c ****     indic->opa = LV_OPA_COVER;
 3284              		.loc 1 190 5 discriminator 2 view .LVU1126
 190:Middlewares/LVGL/GUI/lvgl/src/extra/widgets/meter/lv_meter.c ****     indic->opa = LV_OPA_COVER;
 3285              		.loc 1 190 18 is_stmt 0 discriminator 2 view .LVU1127
 3286 001c 2760     		str	r7, [r4]
 191:Middlewares/LVGL/GUI/lvgl/src/extra/widgets/meter/lv_meter.c **** 
 3287              		.loc 1 191 5 is_stmt 1 discriminator 2 view .LVU1128
 191:Middlewares/LVGL/GUI/lvgl/src/extra/widgets/meter/lv_meter.c **** 
 3288              		.loc 1 191 16 is_stmt 0 discriminator 2 view .LVU1129
 3289 001e FF23     		movs	r3, #255
 3290 0020 6371     		strb	r3, [r4, #5]
 193:Middlewares/LVGL/GUI/lvgl/src/extra/widgets/meter/lv_meter.c ****     indic->type_data.scale_lines.color_start = color_start;
 3291              		.loc 1 193 5 is_stmt 1 discriminator 2 view .LVU1130
 193:Middlewares/LVGL/GUI/lvgl/src/extra/widgets/meter/lv_meter.c ****     indic->type_data.scale_lines.color_start = color_start;
 3292              		.loc 1 193 17 is_stmt 0 discriminator 2 view .LVU1131
 3293 0022 0223     		movs	r3, #2
 3294 0024 2371     		strb	r3, [r4, #4]
 194:Middlewares/LVGL/GUI/lvgl/src/extra/widgets/meter/lv_meter.c ****     indic->type_data.scale_lines.color_end = color_end;
 3295              		.loc 1 194 5 is_stmt 1 discriminator 2 view .LVU1132
 3296              	.LVL342:
 194:Middlewares/LVGL/GUI/lvgl/src/extra/widgets/meter/lv_meter.c ****     indic->type_data.scale_lines.color_end = color_end;
 3297              		.loc 1 194 46 is_stmt 0 discriminator 2 view .LVU1133
 3298 0026 A4F81280 		strh	r8, [r4, #18]	@ movhi
 195:Middlewares/LVGL/GUI/lvgl/src/extra/widgets/meter/lv_meter.c ****     indic->type_data.scale_lines.local_grad = local;
 3299              		.loc 1 195 5 is_stmt 1 discriminator 2 view .LVU1134
 3300              	.LVL343:
 195:Middlewares/LVGL/GUI/lvgl/src/extra/widgets/meter/lv_meter.c ****     indic->type_data.scale_lines.local_grad = local;
 3301              		.loc 1 195 44 is_stmt 0 discriminator 2 view .LVU1135
 3302 002a A682     		strh	r6, [r4, #20]	@ movhi
 196:Middlewares/LVGL/GUI/lvgl/src/extra/widgets/meter/lv_meter.c ****     indic->type_data.scale_lines.width_mod = width_mod;
 3303              		.loc 1 196 5 is_stmt 1 discriminator 2 view .LVU1136
 196:Middlewares/LVGL/GUI/lvgl/src/extra/widgets/meter/lv_meter.c ****     indic->type_data.scale_lines.width_mod = width_mod;
 3304              		.loc 1 196 45 is_stmt 0 discriminator 2 view .LVU1137
 3305 002c A37D     		ldrb	r3, [r4, #22]	@ zero_extendqisi2
 3306 002e 9DF81820 		ldrb	r2, [sp, #24]	@ zero_extendqisi2
 3307 0032 62F30003 		bfi	r3, r2, #0, #1
 3308 0036 A375     		strb	r3, [r4, #22]
 197:Middlewares/LVGL/GUI/lvgl/src/extra/widgets/meter/lv_meter.c **** 
 3309              		.loc 1 197 5 is_stmt 1 discriminator 2 view .LVU1138
 197:Middlewares/LVGL/GUI/lvgl/src/extra/widgets/meter/lv_meter.c **** 
 3310              		.loc 1 197 44 is_stmt 0 discriminator 2 view .LVU1139
 3311 0038 BDF91C30 		ldrsh	r3, [sp, #28]
 3312 003c 2382     		strh	r3, [r4, #16]	@ movhi
 199:Middlewares/LVGL/GUI/lvgl/src/extra/widgets/meter/lv_meter.c ****     return indic;
 3313              		.loc 1 199 5 is_stmt 1 discriminator 2 view .LVU1140
 3314 003e 2846     		mov	r0, r5
 3315 0040 FFF7FEFF 		bl	lv_obj_invalidate
 3316              	.LVL344:
 200:Middlewares/LVGL/GUI/lvgl/src/extra/widgets/meter/lv_meter.c **** }
 3317              		.loc 1 200 5 discriminator 2 view .LVU1141
ARM GAS  C:\Users\ADMINI~1\AppData\Local\Temp\ccVbA5cL.s 			page 103


 201:Middlewares/LVGL/GUI/lvgl/src/extra/widgets/meter/lv_meter.c **** 
 3318              		.loc 1 201 1 is_stmt 0 discriminator 2 view .LVU1142
 3319 0044 2046     		mov	r0, r4
 3320 0046 BDE8F081 		pop	{r4, r5, r6, r7, r8, pc}
 3321              	.LVL345:
 3322              	.L107:
 188:Middlewares/LVGL/GUI/lvgl/src/extra/widgets/meter/lv_meter.c ****     lv_memset_00(indic, sizeof(lv_meter_indicator_t));
 3323              		.loc 1 188 5 is_stmt 1 discriminator 1 view .LVU1143
 188:Middlewares/LVGL/GUI/lvgl/src/extra/widgets/meter/lv_meter.c ****     lv_memset_00(indic, sizeof(lv_meter_indicator_t));
 3324              		.loc 1 188 5 discriminator 1 view .LVU1144
 188:Middlewares/LVGL/GUI/lvgl/src/extra/widgets/meter/lv_meter.c ****     lv_memset_00(indic, sizeof(lv_meter_indicator_t));
 3325              		.loc 1 188 5 discriminator 1 view .LVU1145
 188:Middlewares/LVGL/GUI/lvgl/src/extra/widgets/meter/lv_meter.c ****     lv_memset_00(indic, sizeof(lv_meter_indicator_t));
 3326              		.loc 1 188 5 discriminator 1 view .LVU1146
 188:Middlewares/LVGL/GUI/lvgl/src/extra/widgets/meter/lv_meter.c ****     lv_memset_00(indic, sizeof(lv_meter_indicator_t));
 3327              		.loc 1 188 5 discriminator 1 view .LVU1147
 188:Middlewares/LVGL/GUI/lvgl/src/extra/widgets/meter/lv_meter.c ****     lv_memset_00(indic, sizeof(lv_meter_indicator_t));
 3328              		.loc 1 188 5 discriminator 1 view .LVU1148
 3329 004a FEE7     		b	.L107
 3330              		.cfi_endproc
 3331              	.LFE204:
 3333              		.section	.text.lv_meter_set_indicator_value,"ax",%progbits
 3334              		.align	1
 3335              		.global	lv_meter_set_indicator_value
 3336              		.syntax unified
 3337              		.thumb
 3338              		.thumb_func
 3340              	lv_meter_set_indicator_value:
 3341              	.LVL346:
 3342              	.LFB205:
 208:Middlewares/LVGL/GUI/lvgl/src/extra/widgets/meter/lv_meter.c ****     int32_t old_start = indic->start_value;
 3343              		.loc 1 208 1 view -0
 3344              		.cfi_startproc
 3345              		@ args = 0, pretend = 0, frame = 0
 3346              		@ frame_needed = 0, uses_anonymous_args = 0
 208:Middlewares/LVGL/GUI/lvgl/src/extra/widgets/meter/lv_meter.c ****     int32_t old_start = indic->start_value;
 3347              		.loc 1 208 1 is_stmt 0 view .LVU1150
 3348 0000 F8B5     		push	{r3, r4, r5, r6, r7, lr}
 3349              	.LCFI31:
 3350              		.cfi_def_cfa_offset 24
 3351              		.cfi_offset 3, -24
 3352              		.cfi_offset 4, -20
 3353              		.cfi_offset 5, -16
 3354              		.cfi_offset 6, -12
 3355              		.cfi_offset 7, -8
 3356              		.cfi_offset 14, -4
 3357 0002 0646     		mov	r6, r0
 3358 0004 0C46     		mov	r4, r1
 3359 0006 1546     		mov	r5, r2
 209:Middlewares/LVGL/GUI/lvgl/src/extra/widgets/meter/lv_meter.c ****     int32_t old_end = indic->end_value;
 3360              		.loc 1 209 5 is_stmt 1 view .LVU1151
 209:Middlewares/LVGL/GUI/lvgl/src/extra/widgets/meter/lv_meter.c ****     int32_t old_end = indic->end_value;
 3361              		.loc 1 209 13 is_stmt 0 view .LVU1152
 3362 0008 8A68     		ldr	r2, [r1, #8]
 3363              	.LVL347:
 210:Middlewares/LVGL/GUI/lvgl/src/extra/widgets/meter/lv_meter.c ****     indic->start_value = value;
 3364              		.loc 1 210 5 is_stmt 1 view .LVU1153
ARM GAS  C:\Users\ADMINI~1\AppData\Local\Temp\ccVbA5cL.s 			page 104


 210:Middlewares/LVGL/GUI/lvgl/src/extra/widgets/meter/lv_meter.c ****     indic->start_value = value;
 3365              		.loc 1 210 13 is_stmt 0 view .LVU1154
 3366 000a CF68     		ldr	r7, [r1, #12]
 3367              	.LVL348:
 211:Middlewares/LVGL/GUI/lvgl/src/extra/widgets/meter/lv_meter.c ****     indic->end_value = value;
 3368              		.loc 1 211 5 is_stmt 1 view .LVU1155
 211:Middlewares/LVGL/GUI/lvgl/src/extra/widgets/meter/lv_meter.c ****     indic->end_value = value;
 3369              		.loc 1 211 24 is_stmt 0 view .LVU1156
 3370 000c 8D60     		str	r5, [r1, #8]
 212:Middlewares/LVGL/GUI/lvgl/src/extra/widgets/meter/lv_meter.c **** 
 3371              		.loc 1 212 5 is_stmt 1 view .LVU1157
 212:Middlewares/LVGL/GUI/lvgl/src/extra/widgets/meter/lv_meter.c **** 
 3372              		.loc 1 212 22 is_stmt 0 view .LVU1158
 3373 000e CD60     		str	r5, [r1, #12]
 214:Middlewares/LVGL/GUI/lvgl/src/extra/widgets/meter/lv_meter.c ****         inv_arc(obj, indic, old_start, value);
 3374              		.loc 1 214 5 is_stmt 1 view .LVU1159
 214:Middlewares/LVGL/GUI/lvgl/src/extra/widgets/meter/lv_meter.c ****         inv_arc(obj, indic, old_start, value);
 3375              		.loc 1 214 13 is_stmt 0 view .LVU1160
 3376 0010 0B79     		ldrb	r3, [r1, #4]	@ zero_extendqisi2
 214:Middlewares/LVGL/GUI/lvgl/src/extra/widgets/meter/lv_meter.c ****         inv_arc(obj, indic, old_start, value);
 3377              		.loc 1 214 7 view .LVU1161
 3378 0012 032B     		cmp	r3, #3
 3379 0014 04D0     		beq	.L114
 218:Middlewares/LVGL/GUI/lvgl/src/extra/widgets/meter/lv_meter.c ****         inv_line(obj, indic, old_start);
 3380              		.loc 1 218 10 is_stmt 1 view .LVU1162
 218:Middlewares/LVGL/GUI/lvgl/src/extra/widgets/meter/lv_meter.c ****         inv_line(obj, indic, old_start);
 3381              		.loc 1 218 12 is_stmt 0 view .LVU1163
 3382 0016 012B     		cmp	r3, #1
 3383 0018 0CD9     		bls	.L115
 224:Middlewares/LVGL/GUI/lvgl/src/extra/widgets/meter/lv_meter.c ****     }
 3384              		.loc 1 224 9 is_stmt 1 view .LVU1164
 3385 001a FFF7FEFF 		bl	lv_obj_invalidate
 3386              	.LVL349:
 3387              	.L109:
 226:Middlewares/LVGL/GUI/lvgl/src/extra/widgets/meter/lv_meter.c **** 
 3388              		.loc 1 226 1 is_stmt 0 view .LVU1165
 3389 001e F8BD     		pop	{r3, r4, r5, r6, r7, pc}
 3390              	.LVL350:
 3391              	.L114:
 215:Middlewares/LVGL/GUI/lvgl/src/extra/widgets/meter/lv_meter.c ****         inv_arc(obj, indic, old_end, value);
 3392              		.loc 1 215 9 is_stmt 1 view .LVU1166
 3393 0020 2B46     		mov	r3, r5
 3394 0022 FFF7FEFF 		bl	inv_arc
 3395              	.LVL351:
 216:Middlewares/LVGL/GUI/lvgl/src/extra/widgets/meter/lv_meter.c ****     }
 3396              		.loc 1 216 9 view .LVU1167
 3397 0026 2B46     		mov	r3, r5
 3398 0028 3A46     		mov	r2, r7
 3399 002a 2146     		mov	r1, r4
 3400 002c 3046     		mov	r0, r6
 3401 002e FFF7FEFF 		bl	inv_arc
 3402              	.LVL352:
 3403 0032 F4E7     		b	.L109
 3404              	.LVL353:
 3405              	.L115:
 219:Middlewares/LVGL/GUI/lvgl/src/extra/widgets/meter/lv_meter.c ****         inv_line(obj, indic, old_end);
 3406              		.loc 1 219 9 view .LVU1168
ARM GAS  C:\Users\ADMINI~1\AppData\Local\Temp\ccVbA5cL.s 			page 105


 3407 0034 FFF7FEFF 		bl	inv_line
 3408              	.LVL354:
 220:Middlewares/LVGL/GUI/lvgl/src/extra/widgets/meter/lv_meter.c ****         inv_line(obj, indic, value);
 3409              		.loc 1 220 9 view .LVU1169
 3410 0038 3A46     		mov	r2, r7
 3411 003a 2146     		mov	r1, r4
 3412 003c 3046     		mov	r0, r6
 3413 003e FFF7FEFF 		bl	inv_line
 3414              	.LVL355:
 221:Middlewares/LVGL/GUI/lvgl/src/extra/widgets/meter/lv_meter.c ****     }
 3415              		.loc 1 221 9 view .LVU1170
 3416 0042 2A46     		mov	r2, r5
 3417 0044 2146     		mov	r1, r4
 3418 0046 3046     		mov	r0, r6
 3419 0048 FFF7FEFF 		bl	inv_line
 3420              	.LVL356:
 3421 004c E7E7     		b	.L109
 3422              		.cfi_endproc
 3423              	.LFE205:
 3425              		.section	.text.lv_meter_set_indicator_start_value,"ax",%progbits
 3426              		.align	1
 3427              		.global	lv_meter_set_indicator_start_value
 3428              		.syntax unified
 3429              		.thumb
 3430              		.thumb_func
 3432              	lv_meter_set_indicator_start_value:
 3433              	.LVL357:
 3434              	.LFB206:
 229:Middlewares/LVGL/GUI/lvgl/src/extra/widgets/meter/lv_meter.c ****     int32_t old_value = indic->start_value;
 3435              		.loc 1 229 1 view -0
 3436              		.cfi_startproc
 3437              		@ args = 0, pretend = 0, frame = 0
 3438              		@ frame_needed = 0, uses_anonymous_args = 0
 229:Middlewares/LVGL/GUI/lvgl/src/extra/widgets/meter/lv_meter.c ****     int32_t old_value = indic->start_value;
 3439              		.loc 1 229 1 is_stmt 0 view .LVU1172
 3440 0000 70B5     		push	{r4, r5, r6, lr}
 3441              	.LCFI32:
 3442              		.cfi_def_cfa_offset 16
 3443              		.cfi_offset 4, -16
 3444              		.cfi_offset 5, -12
 3445              		.cfi_offset 6, -8
 3446              		.cfi_offset 14, -4
 3447 0002 0646     		mov	r6, r0
 3448 0004 0C46     		mov	r4, r1
 3449 0006 1546     		mov	r5, r2
 230:Middlewares/LVGL/GUI/lvgl/src/extra/widgets/meter/lv_meter.c ****     indic->start_value = value;
 3450              		.loc 1 230 5 is_stmt 1 view .LVU1173
 230:Middlewares/LVGL/GUI/lvgl/src/extra/widgets/meter/lv_meter.c ****     indic->start_value = value;
 3451              		.loc 1 230 13 is_stmt 0 view .LVU1174
 3452 0008 8A68     		ldr	r2, [r1, #8]
 3453              	.LVL358:
 231:Middlewares/LVGL/GUI/lvgl/src/extra/widgets/meter/lv_meter.c **** 
 3454              		.loc 1 231 5 is_stmt 1 view .LVU1175
 231:Middlewares/LVGL/GUI/lvgl/src/extra/widgets/meter/lv_meter.c **** 
 3455              		.loc 1 231 24 is_stmt 0 view .LVU1176
 3456 000a 8D60     		str	r5, [r1, #8]
 233:Middlewares/LVGL/GUI/lvgl/src/extra/widgets/meter/lv_meter.c ****         inv_arc(obj, indic, old_value, value);
ARM GAS  C:\Users\ADMINI~1\AppData\Local\Temp\ccVbA5cL.s 			page 106


 3457              		.loc 1 233 5 is_stmt 1 view .LVU1177
 233:Middlewares/LVGL/GUI/lvgl/src/extra/widgets/meter/lv_meter.c ****         inv_arc(obj, indic, old_value, value);
 3458              		.loc 1 233 13 is_stmt 0 view .LVU1178
 3459 000c 0B79     		ldrb	r3, [r1, #4]	@ zero_extendqisi2
 233:Middlewares/LVGL/GUI/lvgl/src/extra/widgets/meter/lv_meter.c ****         inv_arc(obj, indic, old_value, value);
 3460              		.loc 1 233 7 view .LVU1179
 3461 000e 032B     		cmp	r3, #3
 3462 0010 04D0     		beq	.L121
 236:Middlewares/LVGL/GUI/lvgl/src/extra/widgets/meter/lv_meter.c ****         inv_line(obj, indic, old_value);
 3463              		.loc 1 236 10 is_stmt 1 view .LVU1180
 236:Middlewares/LVGL/GUI/lvgl/src/extra/widgets/meter/lv_meter.c ****         inv_line(obj, indic, old_value);
 3464              		.loc 1 236 12 is_stmt 0 view .LVU1181
 3465 0012 012B     		cmp	r3, #1
 3466 0014 06D9     		bls	.L122
 241:Middlewares/LVGL/GUI/lvgl/src/extra/widgets/meter/lv_meter.c ****     }
 3467              		.loc 1 241 9 is_stmt 1 view .LVU1182
 3468 0016 FFF7FEFF 		bl	lv_obj_invalidate
 3469              	.LVL359:
 3470              	.L116:
 243:Middlewares/LVGL/GUI/lvgl/src/extra/widgets/meter/lv_meter.c **** 
 3471              		.loc 1 243 1 is_stmt 0 view .LVU1183
 3472 001a 70BD     		pop	{r4, r5, r6, pc}
 3473              	.LVL360:
 3474              	.L121:
 234:Middlewares/LVGL/GUI/lvgl/src/extra/widgets/meter/lv_meter.c ****     }
 3475              		.loc 1 234 9 is_stmt 1 view .LVU1184
 3476 001c 2B46     		mov	r3, r5
 3477 001e FFF7FEFF 		bl	inv_arc
 3478              	.LVL361:
 234:Middlewares/LVGL/GUI/lvgl/src/extra/widgets/meter/lv_meter.c ****     }
 3479              		.loc 1 234 9 is_stmt 0 view .LVU1185
 3480 0022 FAE7     		b	.L116
 3481              	.LVL362:
 3482              	.L122:
 237:Middlewares/LVGL/GUI/lvgl/src/extra/widgets/meter/lv_meter.c ****         inv_line(obj, indic, value);
 3483              		.loc 1 237 9 is_stmt 1 view .LVU1186
 3484 0024 FFF7FEFF 		bl	inv_line
 3485              	.LVL363:
 238:Middlewares/LVGL/GUI/lvgl/src/extra/widgets/meter/lv_meter.c ****     }
 3486              		.loc 1 238 9 view .LVU1187
 3487 0028 2A46     		mov	r2, r5
 3488 002a 2146     		mov	r1, r4
 3489 002c 3046     		mov	r0, r6
 3490 002e FFF7FEFF 		bl	inv_line
 3491              	.LVL364:
 3492 0032 F2E7     		b	.L116
 3493              		.cfi_endproc
 3494              	.LFE206:
 3496              		.section	.text.lv_meter_set_indicator_end_value,"ax",%progbits
 3497              		.align	1
 3498              		.global	lv_meter_set_indicator_end_value
 3499              		.syntax unified
 3500              		.thumb
 3501              		.thumb_func
 3503              	lv_meter_set_indicator_end_value:
 3504              	.LVL365:
 3505              	.LFB207:
ARM GAS  C:\Users\ADMINI~1\AppData\Local\Temp\ccVbA5cL.s 			page 107


 246:Middlewares/LVGL/GUI/lvgl/src/extra/widgets/meter/lv_meter.c ****     int32_t old_value = indic->end_value;
 3506              		.loc 1 246 1 view -0
 3507              		.cfi_startproc
 3508              		@ args = 0, pretend = 0, frame = 0
 3509              		@ frame_needed = 0, uses_anonymous_args = 0
 246:Middlewares/LVGL/GUI/lvgl/src/extra/widgets/meter/lv_meter.c ****     int32_t old_value = indic->end_value;
 3510              		.loc 1 246 1 is_stmt 0 view .LVU1189
 3511 0000 70B5     		push	{r4, r5, r6, lr}
 3512              	.LCFI33:
 3513              		.cfi_def_cfa_offset 16
 3514              		.cfi_offset 4, -16
 3515              		.cfi_offset 5, -12
 3516              		.cfi_offset 6, -8
 3517              		.cfi_offset 14, -4
 3518 0002 0646     		mov	r6, r0
 3519 0004 0C46     		mov	r4, r1
 3520 0006 1546     		mov	r5, r2
 247:Middlewares/LVGL/GUI/lvgl/src/extra/widgets/meter/lv_meter.c ****     indic->end_value = value;
 3521              		.loc 1 247 5 is_stmt 1 view .LVU1190
 247:Middlewares/LVGL/GUI/lvgl/src/extra/widgets/meter/lv_meter.c ****     indic->end_value = value;
 3522              		.loc 1 247 13 is_stmt 0 view .LVU1191
 3523 0008 CA68     		ldr	r2, [r1, #12]
 3524              	.LVL366:
 248:Middlewares/LVGL/GUI/lvgl/src/extra/widgets/meter/lv_meter.c **** 
 3525              		.loc 1 248 5 is_stmt 1 view .LVU1192
 248:Middlewares/LVGL/GUI/lvgl/src/extra/widgets/meter/lv_meter.c **** 
 3526              		.loc 1 248 22 is_stmt 0 view .LVU1193
 3527 000a CD60     		str	r5, [r1, #12]
 250:Middlewares/LVGL/GUI/lvgl/src/extra/widgets/meter/lv_meter.c ****         inv_arc(obj, indic, old_value, value);
 3528              		.loc 1 250 5 is_stmt 1 view .LVU1194
 250:Middlewares/LVGL/GUI/lvgl/src/extra/widgets/meter/lv_meter.c ****         inv_arc(obj, indic, old_value, value);
 3529              		.loc 1 250 13 is_stmt 0 view .LVU1195
 3530 000c 0B79     		ldrb	r3, [r1, #4]	@ zero_extendqisi2
 250:Middlewares/LVGL/GUI/lvgl/src/extra/widgets/meter/lv_meter.c ****         inv_arc(obj, indic, old_value, value);
 3531              		.loc 1 250 7 view .LVU1196
 3532 000e 032B     		cmp	r3, #3
 3533 0010 04D0     		beq	.L128
 253:Middlewares/LVGL/GUI/lvgl/src/extra/widgets/meter/lv_meter.c ****         inv_line(obj, indic, old_value);
 3534              		.loc 1 253 10 is_stmt 1 view .LVU1197
 253:Middlewares/LVGL/GUI/lvgl/src/extra/widgets/meter/lv_meter.c ****         inv_line(obj, indic, old_value);
 3535              		.loc 1 253 12 is_stmt 0 view .LVU1198
 3536 0012 012B     		cmp	r3, #1
 3537 0014 06D9     		bls	.L129
 258:Middlewares/LVGL/GUI/lvgl/src/extra/widgets/meter/lv_meter.c ****     }
 3538              		.loc 1 258 9 is_stmt 1 view .LVU1199
 3539 0016 FFF7FEFF 		bl	lv_obj_invalidate
 3540              	.LVL367:
 3541              	.L123:
 260:Middlewares/LVGL/GUI/lvgl/src/extra/widgets/meter/lv_meter.c **** 
 3542              		.loc 1 260 1 is_stmt 0 view .LVU1200
 3543 001a 70BD     		pop	{r4, r5, r6, pc}
 3544              	.LVL368:
 3545              	.L128:
 251:Middlewares/LVGL/GUI/lvgl/src/extra/widgets/meter/lv_meter.c ****     }
 3546              		.loc 1 251 9 is_stmt 1 view .LVU1201
 3547 001c 2B46     		mov	r3, r5
 3548 001e FFF7FEFF 		bl	inv_arc
ARM GAS  C:\Users\ADMINI~1\AppData\Local\Temp\ccVbA5cL.s 			page 108


 3549              	.LVL369:
 251:Middlewares/LVGL/GUI/lvgl/src/extra/widgets/meter/lv_meter.c ****     }
 3550              		.loc 1 251 9 is_stmt 0 view .LVU1202
 3551 0022 FAE7     		b	.L123
 3552              	.LVL370:
 3553              	.L129:
 254:Middlewares/LVGL/GUI/lvgl/src/extra/widgets/meter/lv_meter.c ****         inv_line(obj, indic, value);
 3554              		.loc 1 254 9 is_stmt 1 view .LVU1203
 3555 0024 FFF7FEFF 		bl	inv_line
 3556              	.LVL371:
 255:Middlewares/LVGL/GUI/lvgl/src/extra/widgets/meter/lv_meter.c ****     }
 3557              		.loc 1 255 9 view .LVU1204
 3558 0028 2A46     		mov	r2, r5
 3559 002a 2146     		mov	r1, r4
 3560 002c 3046     		mov	r0, r6
 3561 002e FFF7FEFF 		bl	inv_line
 3562              	.LVL372:
 3563 0032 F2E7     		b	.L123
 3564              		.cfi_endproc
 3565              	.LFE207:
 3567              		.global	lv_meter_class
 3568              		.section	.rodata.lv_meter_class,"a"
 3569              		.align	2
 3570              		.set	.LANCHOR0,. + 0
 3573              	lv_meter_class:
 3574 0000 00000000 		.word	lv_obj_class
 3575 0004 00000000 		.word	lv_meter_constructor
 3576 0008 00000000 		.word	lv_meter_destructor
 3577 000c 00000000 		.space	4
 3578 0010 00000000 		.word	lv_meter_event
 3579 0014 00000000 		.space	8
 3579      00000000 
 3580 001c 40       		.byte	64
 3581 001d 04       		.byte	4
 3582 001e 00       		.byte	0
 3583 001f 00       		.space	1
 3584              		.text
 3585              	.Letext0:
 3586              		.file 6 "c:\\gnu arm embedded toolchain\\10 2021.10\\arm-none-eabi\\include\\machine\\_default_typ
 3587              		.file 7 "c:\\gnu arm embedded toolchain\\10 2021.10\\arm-none-eabi\\include\\sys\\_stdint.h"
 3588              		.file 8 "Middlewares/LVGL/GUI/lvgl/src/extra/widgets/meter/../../../../src/misc/lv_types.h"
 3589              		.file 9 "Middlewares/LVGL/GUI/lvgl/src/extra/widgets/meter/../../../../src/hal/../draw/../misc/../
 3590              		.file 10 "Middlewares/LVGL/GUI/lvgl/src/extra/widgets/meter/../../../../src/hal/../draw/../misc/lv
 3591              		.file 11 "Middlewares/LVGL/GUI/lvgl/src/extra/widgets/meter/../../../../src/hal/../draw/../misc/lv
 3592              		.file 12 "Middlewares/LVGL/GUI/lvgl/src/extra/widgets/meter/../../../../src/hal/../draw/../misc/lv
 3593              		.file 13 "Middlewares/LVGL/GUI/lvgl/src/extra/widgets/meter/../../../../src/hal/../draw/lv_img_buf
 3594              		.file 14 "Middlewares/LVGL/GUI/lvgl/src/extra/widgets/meter/../../../../src/core/lv_obj.h"
 3595              		.file 15 "Middlewares/LVGL/GUI/lvgl/src/extra/widgets/meter/../../../../src/hal/../draw/lv_draw_re
 3596              		.file 16 "Middlewares/LVGL/GUI/lvgl/src/extra/widgets/meter/../../../../src/hal/../draw/lv_draw_la
 3597              		.file 17 "Middlewares/LVGL/GUI/lvgl/src/extra/widgets/meter/../../../../src/hal/../draw/lv_draw_im
 3598              		.file 18 "Middlewares/LVGL/GUI/lvgl/src/extra/widgets/meter/../../../../src/hal/../draw/lv_draw_li
 3599              		.file 19 "Middlewares/LVGL/GUI/lvgl/src/extra/widgets/meter/../../../../src/hal/../draw/lv_draw_ar
 3600              		.file 20 "Middlewares/LVGL/GUI/lvgl/src/extra/widgets/meter/../../../../src/hal/../draw/lv_draw_ma
 3601              		.file 21 "Middlewares/LVGL/GUI/lvgl/src/extra/widgets/meter/../../../../src/hal/../draw/lv_draw.h"
 3602              		.file 22 "Middlewares/LVGL/GUI/lvgl/src/extra/widgets/meter/../../../../src/hal/../misc/lv_ll.h"
 3603              		.file 23 "Middlewares/LVGL/GUI/lvgl/src/extra/widgets/meter/../../../../src/core/lv_group.h"
 3604              		.file 24 "Middlewares/LVGL/GUI/lvgl/src/extra/widgets/meter/../../../../src/core/lv_obj_scroll.h"
ARM GAS  C:\Users\ADMINI~1\AppData\Local\Temp\ccVbA5cL.s 			page 109


 3605              		.file 25 "Middlewares/LVGL/GUI/lvgl/src/extra/widgets/meter/../../../../src/core/lv_obj_style.h"
 3606              		.file 26 "Middlewares/LVGL/GUI/lvgl/src/extra/widgets/meter/../../../../src/core/lv_obj_draw.h"
 3607              		.file 27 "Middlewares/LVGL/GUI/lvgl/src/extra/widgets/meter/../../../../src/core/lv_obj_class.h"
 3608              		.file 28 "Middlewares/LVGL/GUI/lvgl/src/extra/widgets/meter/../../../../src/core/lv_event.h"
 3609              		.file 29 "Middlewares/LVGL/GUI/lvgl/src/extra/widgets/meter/../../../../src/widgets/lv_bar.h"
 3610              		.file 30 "Middlewares/LVGL/GUI/lvgl/src/extra/widgets/meter/../../../../src/extra/widgets/imgbtn/l
 3611              		.file 31 "Middlewares/LVGL/GUI/lvgl/src/extra/widgets/meter/lv_meter.h"
 3612              		.file 32 "Middlewares/LVGL/GUI/lvgl/src/extra/widgets/meter/../../../../src/hal/../draw/sw/../../c
 3613              		.file 33 "Middlewares/LVGL/GUI/lvgl/src/extra/widgets/meter/../../../../src/hal/../draw/lv_img_dec
 3614              		.file 34 "Middlewares/LVGL/GUI/lvgl/src/extra/widgets/meter/../../../../src/misc/lv_mem.h"
 3615              		.file 35 "Middlewares/LVGL/GUI/lvgl/src/extra/widgets/meter/../../../../src/misc/lv_printf.h"
ARM GAS  C:\Users\ADMINI~1\AppData\Local\Temp\ccVbA5cL.s 			page 110


DEFINED SYMBOLS
                            *ABS*:00000000 lv_meter.c
C:\Users\ADMINI~1\AppData\Local\Temp\ccVbA5cL.s:20     .text.draw_arcs:00000000 $t
C:\Users\ADMINI~1\AppData\Local\Temp\ccVbA5cL.s:25     .text.draw_arcs:00000000 draw_arcs
C:\Users\ADMINI~1\AppData\Local\Temp\ccVbA5cL.s:323    .text.draw_arcs:00000130 $d
C:\Users\ADMINI~1\AppData\Local\Temp\ccVbA5cL.s:328    .rodata.draw_ticks_and_labels.str1.4:00000000 $d
C:\Users\ADMINI~1\AppData\Local\Temp\ccVbA5cL.s:332    .text.draw_ticks_and_labels:00000000 $t
C:\Users\ADMINI~1\AppData\Local\Temp\ccVbA5cL.s:337    .text.draw_ticks_and_labels:00000000 draw_ticks_and_labels
C:\Users\ADMINI~1\AppData\Local\Temp\ccVbA5cL.s:1132   .text.draw_ticks_and_labels:0000035c $d
C:\Users\ADMINI~1\AppData\Local\Temp\ccVbA5cL.s:1138   .text.draw_ticks_and_labels:00000368 $t
C:\Users\ADMINI~1\AppData\Local\Temp\ccVbA5cL.s:1349   .text.draw_needles:00000000 $t
C:\Users\ADMINI~1\AppData\Local\Temp\ccVbA5cL.s:1354   .text.draw_needles:00000000 draw_needles
C:\Users\ADMINI~1\AppData\Local\Temp\ccVbA5cL.s:1827   .text.draw_needles:000001f4 $d
C:\Users\ADMINI~1\AppData\Local\Temp\ccVbA5cL.s:1833   .text.lv_meter_event:00000000 $t
C:\Users\ADMINI~1\AppData\Local\Temp\ccVbA5cL.s:1838   .text.lv_meter_event:00000000 lv_meter_event
C:\Users\ADMINI~1\AppData\Local\Temp\ccVbA5cL.s:2059   .text.lv_meter_event:000000d0 $d
C:\Users\ADMINI~1\AppData\Local\Temp\ccVbA5cL.s:2065   .text.lv_meter_destructor:00000000 $t
C:\Users\ADMINI~1\AppData\Local\Temp\ccVbA5cL.s:2070   .text.lv_meter_destructor:00000000 lv_meter_destructor
C:\Users\ADMINI~1\AppData\Local\Temp\ccVbA5cL.s:2107   .text.lv_meter_constructor:00000000 $t
C:\Users\ADMINI~1\AppData\Local\Temp\ccVbA5cL.s:2112   .text.lv_meter_constructor:00000000 lv_meter_constructor
C:\Users\ADMINI~1\AppData\Local\Temp\ccVbA5cL.s:2152   .text.inv_arc:00000000 $t
C:\Users\ADMINI~1\AppData\Local\Temp\ccVbA5cL.s:2157   .text.inv_arc:00000000 inv_arc
C:\Users\ADMINI~1\AppData\Local\Temp\ccVbA5cL.s:2336   .text.inv_line:00000000 $t
C:\Users\ADMINI~1\AppData\Local\Temp\ccVbA5cL.s:2341   .text.inv_line:00000000 inv_line
C:\Users\ADMINI~1\AppData\Local\Temp\ccVbA5cL.s:2675   .text.inv_line:00000184 $d
C:\Users\ADMINI~1\AppData\Local\Temp\ccVbA5cL.s:2680   .text.lv_meter_create:00000000 $t
C:\Users\ADMINI~1\AppData\Local\Temp\ccVbA5cL.s:2686   .text.lv_meter_create:00000000 lv_meter_create
C:\Users\ADMINI~1\AppData\Local\Temp\ccVbA5cL.s:2725   .text.lv_meter_create:00000014 $d
C:\Users\ADMINI~1\AppData\Local\Temp\ccVbA5cL.s:2730   .text.lv_meter_add_scale:00000000 $t
C:\Users\ADMINI~1\AppData\Local\Temp\ccVbA5cL.s:2736   .text.lv_meter_add_scale:00000000 lv_meter_add_scale
C:\Users\ADMINI~1\AppData\Local\Temp\ccVbA5cL.s:2819   .text.lv_meter_set_scale_ticks:00000000 $t
C:\Users\ADMINI~1\AppData\Local\Temp\ccVbA5cL.s:2825   .text.lv_meter_set_scale_ticks:00000000 lv_meter_set_scale_ticks
C:\Users\ADMINI~1\AppData\Local\Temp\ccVbA5cL.s:2864   .text.lv_meter_set_scale_major_ticks:00000000 $t
C:\Users\ADMINI~1\AppData\Local\Temp\ccVbA5cL.s:2870   .text.lv_meter_set_scale_major_ticks:00000000 lv_meter_set_scale_major_ticks
C:\Users\ADMINI~1\AppData\Local\Temp\ccVbA5cL.s:2913   .text.lv_meter_set_scale_range:00000000 $t
C:\Users\ADMINI~1\AppData\Local\Temp\ccVbA5cL.s:2919   .text.lv_meter_set_scale_range:00000000 lv_meter_set_scale_range
C:\Users\ADMINI~1\AppData\Local\Temp\ccVbA5cL.s:2958   .text.lv_meter_add_needle_line:00000000 $t
C:\Users\ADMINI~1\AppData\Local\Temp\ccVbA5cL.s:2964   .text.lv_meter_add_needle_line:00000000 lv_meter_add_needle_line
C:\Users\ADMINI~1\AppData\Local\Temp\ccVbA5cL.s:3050   .text.lv_meter_add_needle_img:00000000 $t
C:\Users\ADMINI~1\AppData\Local\Temp\ccVbA5cL.s:3056   .text.lv_meter_add_needle_img:00000000 lv_meter_add_needle_img
C:\Users\ADMINI~1\AppData\Local\Temp\ccVbA5cL.s:3141   .text.lv_meter_add_arc:00000000 $t
C:\Users\ADMINI~1\AppData\Local\Temp\ccVbA5cL.s:3147   .text.lv_meter_add_arc:00000000 lv_meter_add_arc
C:\Users\ADMINI~1\AppData\Local\Temp\ccVbA5cL.s:3233   .text.lv_meter_add_scale_lines:00000000 $t
C:\Users\ADMINI~1\AppData\Local\Temp\ccVbA5cL.s:3239   .text.lv_meter_add_scale_lines:00000000 lv_meter_add_scale_lines
C:\Users\ADMINI~1\AppData\Local\Temp\ccVbA5cL.s:3334   .text.lv_meter_set_indicator_value:00000000 $t
C:\Users\ADMINI~1\AppData\Local\Temp\ccVbA5cL.s:3340   .text.lv_meter_set_indicator_value:00000000 lv_meter_set_indicator_value
C:\Users\ADMINI~1\AppData\Local\Temp\ccVbA5cL.s:3426   .text.lv_meter_set_indicator_start_value:00000000 $t
C:\Users\ADMINI~1\AppData\Local\Temp\ccVbA5cL.s:3432   .text.lv_meter_set_indicator_start_value:00000000 lv_meter_set_indicator_start_value
C:\Users\ADMINI~1\AppData\Local\Temp\ccVbA5cL.s:3497   .text.lv_meter_set_indicator_end_value:00000000 $t
C:\Users\ADMINI~1\AppData\Local\Temp\ccVbA5cL.s:3503   .text.lv_meter_set_indicator_end_value:00000000 lv_meter_set_indicator_end_value
C:\Users\ADMINI~1\AppData\Local\Temp\ccVbA5cL.s:3573   .rodata.lv_meter_class:00000000 lv_meter_class
C:\Users\ADMINI~1\AppData\Local\Temp\ccVbA5cL.s:3569   .rodata.lv_meter_class:00000000 $d

UNDEFINED SYMBOLS
lv_draw_arc_dsc_init
lv_obj_get_style_prop
lv_obj_draw_dsc_init
ARM GAS  C:\Users\ADMINI~1\AppData\Local\Temp\ccVbA5cL.s 			page 111


_lv_ll_get_tail
lv_map
lv_event_send
lv_draw_arc
_lv_ll_get_prev
lv_draw_line_dsc_init
lv_obj_init_draw_line_dsc
lv_draw_label_dsc_init
lv_obj_init_draw_label_dsc
lv_trigo_sin
lv_draw_mask_remove_id
lv_memcpy
lv_snprintf
lv_txt_get_size
lv_draw_label
lv_draw_mask_add
lv_draw_line
lv_draw_mask_free_param
lv_draw_mask_radius_init
lv_draw_img_dsc_init
lv_obj_init_draw_img_dsc
lv_draw_img
lv_img_decoder_get_info
lv_obj_event_base
lv_event_get_code
lv_event_get_target
lv_event_get_draw_ctx
lv_obj_get_content_coords
lv_draw_rect_dsc_init
lv_obj_init_draw_rect_dsc
lv_draw_rect
_lv_ll_clear
_lv_ll_init
lv_draw_arc_get_area
lv_obj_invalidate_area
_lv_img_buf_get_transformed_area
lv_obj_class_create_obj
lv_obj_class_init_obj
_lv_ll_ins_head
lv_memset_00
lv_obj_invalidate
lv_obj_class
