ARM GAS  C:\Users\ADMINI~1\AppData\Local\Temp\cchMZgMB.s 			page 1


   1              		.cpu cortex-m4
   2              		.arch armv7e-m
   3              		.fpu fpv4-sp-d16
   4              		.eabi_attribute 27, 1
   5              		.eabi_attribute 28, 1
   6              		.eabi_attribute 20, 1
   7              		.eabi_attribute 21, 1
   8              		.eabi_attribute 23, 3
   9              		.eabi_attribute 24, 1
  10              		.eabi_attribute 25, 1
  11              		.eabi_attribute 26, 1
  12              		.eabi_attribute 30, 1
  13              		.eabi_attribute 34, 1
  14              		.eabi_attribute 18, 4
  15              		.file	"lv_obj_scroll.c"
  16              		.text
  17              	.Ltext0:
  18              		.cfi_sections	.debug_frame
  19              		.section	.text.scroll_by_raw,"ax",%progbits
  20              		.align	1
  21              		.syntax unified
  22              		.thumb
  23              		.thumb_func
  25              	scroll_by_raw:
  26              	.LVL0:
  27              	.LFB186:
  28              		.file 1 "Middlewares/LVGL/GUI/lvgl/src/core/lv_obj_scroll.c"
   1:Middlewares/LVGL/GUI/lvgl/src/core/lv_obj_scroll.c **** /**
   2:Middlewares/LVGL/GUI/lvgl/src/core/lv_obj_scroll.c ****  * @file lv_obj_scroll.c
   3:Middlewares/LVGL/GUI/lvgl/src/core/lv_obj_scroll.c ****  *
   4:Middlewares/LVGL/GUI/lvgl/src/core/lv_obj_scroll.c ****  */
   5:Middlewares/LVGL/GUI/lvgl/src/core/lv_obj_scroll.c **** 
   6:Middlewares/LVGL/GUI/lvgl/src/core/lv_obj_scroll.c **** /*********************
   7:Middlewares/LVGL/GUI/lvgl/src/core/lv_obj_scroll.c ****  *      INCLUDES
   8:Middlewares/LVGL/GUI/lvgl/src/core/lv_obj_scroll.c ****  *********************/
   9:Middlewares/LVGL/GUI/lvgl/src/core/lv_obj_scroll.c **** #include "lv_obj_scroll.h"
  10:Middlewares/LVGL/GUI/lvgl/src/core/lv_obj_scroll.c **** #include "lv_obj.h"
  11:Middlewares/LVGL/GUI/lvgl/src/core/lv_obj_scroll.c **** #include "lv_indev.h"
  12:Middlewares/LVGL/GUI/lvgl/src/core/lv_obj_scroll.c **** #include "lv_disp.h"
  13:Middlewares/LVGL/GUI/lvgl/src/core/lv_obj_scroll.c **** #include "lv_indev_scroll.h"
  14:Middlewares/LVGL/GUI/lvgl/src/core/lv_obj_scroll.c **** 
  15:Middlewares/LVGL/GUI/lvgl/src/core/lv_obj_scroll.c **** /*********************
  16:Middlewares/LVGL/GUI/lvgl/src/core/lv_obj_scroll.c ****  *      DEFINES
  17:Middlewares/LVGL/GUI/lvgl/src/core/lv_obj_scroll.c ****  *********************/
  18:Middlewares/LVGL/GUI/lvgl/src/core/lv_obj_scroll.c **** #define MY_CLASS &lv_obj_class
  19:Middlewares/LVGL/GUI/lvgl/src/core/lv_obj_scroll.c **** #define SCROLL_ANIM_TIME_MIN    200    /*ms*/
  20:Middlewares/LVGL/GUI/lvgl/src/core/lv_obj_scroll.c **** #define SCROLL_ANIM_TIME_MAX    400    /*ms*/
  21:Middlewares/LVGL/GUI/lvgl/src/core/lv_obj_scroll.c **** #define SCROLLBAR_MIN_SIZE      (LV_DPX(10))
  22:Middlewares/LVGL/GUI/lvgl/src/core/lv_obj_scroll.c **** 
  23:Middlewares/LVGL/GUI/lvgl/src/core/lv_obj_scroll.c **** /**********************
  24:Middlewares/LVGL/GUI/lvgl/src/core/lv_obj_scroll.c ****  *      TYPEDEFS
  25:Middlewares/LVGL/GUI/lvgl/src/core/lv_obj_scroll.c ****  **********************/
  26:Middlewares/LVGL/GUI/lvgl/src/core/lv_obj_scroll.c **** 
  27:Middlewares/LVGL/GUI/lvgl/src/core/lv_obj_scroll.c **** /**********************
  28:Middlewares/LVGL/GUI/lvgl/src/core/lv_obj_scroll.c ****  *  GLOBAL PROTOTYPES
  29:Middlewares/LVGL/GUI/lvgl/src/core/lv_obj_scroll.c ****  **********************/
  30:Middlewares/LVGL/GUI/lvgl/src/core/lv_obj_scroll.c **** 
ARM GAS  C:\Users\ADMINI~1\AppData\Local\Temp\cchMZgMB.s 			page 2


  31:Middlewares/LVGL/GUI/lvgl/src/core/lv_obj_scroll.c **** /**********************
  32:Middlewares/LVGL/GUI/lvgl/src/core/lv_obj_scroll.c ****  *  STATIC PROTOTYPES
  33:Middlewares/LVGL/GUI/lvgl/src/core/lv_obj_scroll.c ****  **********************/
  34:Middlewares/LVGL/GUI/lvgl/src/core/lv_obj_scroll.c **** static void scroll_by_raw(lv_obj_t * obj, lv_coord_t x, lv_coord_t y);
  35:Middlewares/LVGL/GUI/lvgl/src/core/lv_obj_scroll.c **** static void scroll_x_anim(void * obj, int32_t v);
  36:Middlewares/LVGL/GUI/lvgl/src/core/lv_obj_scroll.c **** static void scroll_y_anim(void * obj, int32_t v);
  37:Middlewares/LVGL/GUI/lvgl/src/core/lv_obj_scroll.c **** static void scroll_anim_ready_cb(lv_anim_t * a);
  38:Middlewares/LVGL/GUI/lvgl/src/core/lv_obj_scroll.c **** static void scroll_area_into_view(const lv_area_t * area, lv_obj_t * child, lv_point_t * scroll_val
  39:Middlewares/LVGL/GUI/lvgl/src/core/lv_obj_scroll.c ****                                   lv_anim_enable_t anim_en);
  40:Middlewares/LVGL/GUI/lvgl/src/core/lv_obj_scroll.c **** 
  41:Middlewares/LVGL/GUI/lvgl/src/core/lv_obj_scroll.c **** /**********************
  42:Middlewares/LVGL/GUI/lvgl/src/core/lv_obj_scroll.c ****  *  STATIC VARIABLES
  43:Middlewares/LVGL/GUI/lvgl/src/core/lv_obj_scroll.c ****  **********************/
  44:Middlewares/LVGL/GUI/lvgl/src/core/lv_obj_scroll.c **** 
  45:Middlewares/LVGL/GUI/lvgl/src/core/lv_obj_scroll.c **** /**********************
  46:Middlewares/LVGL/GUI/lvgl/src/core/lv_obj_scroll.c ****  *      MACROS
  47:Middlewares/LVGL/GUI/lvgl/src/core/lv_obj_scroll.c ****  **********************/
  48:Middlewares/LVGL/GUI/lvgl/src/core/lv_obj_scroll.c **** 
  49:Middlewares/LVGL/GUI/lvgl/src/core/lv_obj_scroll.c **** /**********************
  50:Middlewares/LVGL/GUI/lvgl/src/core/lv_obj_scroll.c ****  *   GLOBAL FUNCTIONS
  51:Middlewares/LVGL/GUI/lvgl/src/core/lv_obj_scroll.c ****  **********************/
  52:Middlewares/LVGL/GUI/lvgl/src/core/lv_obj_scroll.c **** 
  53:Middlewares/LVGL/GUI/lvgl/src/core/lv_obj_scroll.c **** /*=====================
  54:Middlewares/LVGL/GUI/lvgl/src/core/lv_obj_scroll.c ****  * Setter functions
  55:Middlewares/LVGL/GUI/lvgl/src/core/lv_obj_scroll.c ****  *====================*/
  56:Middlewares/LVGL/GUI/lvgl/src/core/lv_obj_scroll.c **** 
  57:Middlewares/LVGL/GUI/lvgl/src/core/lv_obj_scroll.c **** void lv_obj_set_scrollbar_mode(lv_obj_t * obj, lv_scrollbar_mode_t mode)
  58:Middlewares/LVGL/GUI/lvgl/src/core/lv_obj_scroll.c **** {
  59:Middlewares/LVGL/GUI/lvgl/src/core/lv_obj_scroll.c ****     LV_ASSERT_OBJ(obj, MY_CLASS);
  60:Middlewares/LVGL/GUI/lvgl/src/core/lv_obj_scroll.c **** 
  61:Middlewares/LVGL/GUI/lvgl/src/core/lv_obj_scroll.c ****     lv_obj_allocate_spec_attr(obj);
  62:Middlewares/LVGL/GUI/lvgl/src/core/lv_obj_scroll.c **** 
  63:Middlewares/LVGL/GUI/lvgl/src/core/lv_obj_scroll.c ****     if(obj->spec_attr->scrollbar_mode == mode) return;
  64:Middlewares/LVGL/GUI/lvgl/src/core/lv_obj_scroll.c ****     obj->spec_attr->scrollbar_mode = mode;
  65:Middlewares/LVGL/GUI/lvgl/src/core/lv_obj_scroll.c ****     lv_obj_invalidate(obj);
  66:Middlewares/LVGL/GUI/lvgl/src/core/lv_obj_scroll.c **** }
  67:Middlewares/LVGL/GUI/lvgl/src/core/lv_obj_scroll.c **** 
  68:Middlewares/LVGL/GUI/lvgl/src/core/lv_obj_scroll.c **** void lv_obj_set_scroll_dir(lv_obj_t * obj, lv_dir_t dir)
  69:Middlewares/LVGL/GUI/lvgl/src/core/lv_obj_scroll.c **** {
  70:Middlewares/LVGL/GUI/lvgl/src/core/lv_obj_scroll.c ****     lv_obj_allocate_spec_attr(obj);
  71:Middlewares/LVGL/GUI/lvgl/src/core/lv_obj_scroll.c **** 
  72:Middlewares/LVGL/GUI/lvgl/src/core/lv_obj_scroll.c ****     if(dir != obj->spec_attr->scroll_dir) {
  73:Middlewares/LVGL/GUI/lvgl/src/core/lv_obj_scroll.c ****         obj->spec_attr->scroll_dir = dir;
  74:Middlewares/LVGL/GUI/lvgl/src/core/lv_obj_scroll.c ****     }
  75:Middlewares/LVGL/GUI/lvgl/src/core/lv_obj_scroll.c **** }
  76:Middlewares/LVGL/GUI/lvgl/src/core/lv_obj_scroll.c **** 
  77:Middlewares/LVGL/GUI/lvgl/src/core/lv_obj_scroll.c **** void lv_obj_set_scroll_snap_x(lv_obj_t * obj, lv_scroll_snap_t align)
  78:Middlewares/LVGL/GUI/lvgl/src/core/lv_obj_scroll.c **** {
  79:Middlewares/LVGL/GUI/lvgl/src/core/lv_obj_scroll.c ****     lv_obj_allocate_spec_attr(obj);
  80:Middlewares/LVGL/GUI/lvgl/src/core/lv_obj_scroll.c ****     obj->spec_attr->scroll_snap_x = align;
  81:Middlewares/LVGL/GUI/lvgl/src/core/lv_obj_scroll.c **** }
  82:Middlewares/LVGL/GUI/lvgl/src/core/lv_obj_scroll.c **** 
  83:Middlewares/LVGL/GUI/lvgl/src/core/lv_obj_scroll.c **** void lv_obj_set_scroll_snap_y(lv_obj_t * obj, lv_scroll_snap_t align)
  84:Middlewares/LVGL/GUI/lvgl/src/core/lv_obj_scroll.c **** {
  85:Middlewares/LVGL/GUI/lvgl/src/core/lv_obj_scroll.c ****     lv_obj_allocate_spec_attr(obj);
  86:Middlewares/LVGL/GUI/lvgl/src/core/lv_obj_scroll.c ****     obj->spec_attr->scroll_snap_y = align;
  87:Middlewares/LVGL/GUI/lvgl/src/core/lv_obj_scroll.c **** }
ARM GAS  C:\Users\ADMINI~1\AppData\Local\Temp\cchMZgMB.s 			page 3


  88:Middlewares/LVGL/GUI/lvgl/src/core/lv_obj_scroll.c **** 
  89:Middlewares/LVGL/GUI/lvgl/src/core/lv_obj_scroll.c **** /*=====================
  90:Middlewares/LVGL/GUI/lvgl/src/core/lv_obj_scroll.c ****  * Getter functions
  91:Middlewares/LVGL/GUI/lvgl/src/core/lv_obj_scroll.c ****  *====================*/
  92:Middlewares/LVGL/GUI/lvgl/src/core/lv_obj_scroll.c **** 
  93:Middlewares/LVGL/GUI/lvgl/src/core/lv_obj_scroll.c **** lv_scrollbar_mode_t lv_obj_get_scrollbar_mode(const lv_obj_t * obj)
  94:Middlewares/LVGL/GUI/lvgl/src/core/lv_obj_scroll.c **** {
  95:Middlewares/LVGL/GUI/lvgl/src/core/lv_obj_scroll.c ****     if(obj->spec_attr) return obj->spec_attr->scrollbar_mode;
  96:Middlewares/LVGL/GUI/lvgl/src/core/lv_obj_scroll.c ****     else return LV_SCROLLBAR_MODE_AUTO;
  97:Middlewares/LVGL/GUI/lvgl/src/core/lv_obj_scroll.c **** }
  98:Middlewares/LVGL/GUI/lvgl/src/core/lv_obj_scroll.c **** 
  99:Middlewares/LVGL/GUI/lvgl/src/core/lv_obj_scroll.c **** lv_dir_t lv_obj_get_scroll_dir(const lv_obj_t * obj)
 100:Middlewares/LVGL/GUI/lvgl/src/core/lv_obj_scroll.c **** {
 101:Middlewares/LVGL/GUI/lvgl/src/core/lv_obj_scroll.c ****     if(obj->spec_attr) return obj->spec_attr->scroll_dir;
 102:Middlewares/LVGL/GUI/lvgl/src/core/lv_obj_scroll.c ****     else return LV_DIR_ALL;
 103:Middlewares/LVGL/GUI/lvgl/src/core/lv_obj_scroll.c **** }
 104:Middlewares/LVGL/GUI/lvgl/src/core/lv_obj_scroll.c **** 
 105:Middlewares/LVGL/GUI/lvgl/src/core/lv_obj_scroll.c **** lv_scroll_snap_t lv_obj_get_scroll_snap_x(const lv_obj_t * obj)
 106:Middlewares/LVGL/GUI/lvgl/src/core/lv_obj_scroll.c **** {
 107:Middlewares/LVGL/GUI/lvgl/src/core/lv_obj_scroll.c ****     if(obj->spec_attr) return obj->spec_attr->scroll_snap_x;
 108:Middlewares/LVGL/GUI/lvgl/src/core/lv_obj_scroll.c ****     else return LV_SCROLL_SNAP_NONE;
 109:Middlewares/LVGL/GUI/lvgl/src/core/lv_obj_scroll.c **** }
 110:Middlewares/LVGL/GUI/lvgl/src/core/lv_obj_scroll.c **** 
 111:Middlewares/LVGL/GUI/lvgl/src/core/lv_obj_scroll.c **** lv_scroll_snap_t lv_obj_get_scroll_snap_y(const lv_obj_t * obj)
 112:Middlewares/LVGL/GUI/lvgl/src/core/lv_obj_scroll.c **** {
 113:Middlewares/LVGL/GUI/lvgl/src/core/lv_obj_scroll.c ****     if(obj->spec_attr) return obj->spec_attr->scroll_snap_y;
 114:Middlewares/LVGL/GUI/lvgl/src/core/lv_obj_scroll.c ****     else return LV_SCROLL_SNAP_NONE;
 115:Middlewares/LVGL/GUI/lvgl/src/core/lv_obj_scroll.c **** }
 116:Middlewares/LVGL/GUI/lvgl/src/core/lv_obj_scroll.c **** 
 117:Middlewares/LVGL/GUI/lvgl/src/core/lv_obj_scroll.c **** lv_coord_t lv_obj_get_scroll_x(const lv_obj_t * obj)
 118:Middlewares/LVGL/GUI/lvgl/src/core/lv_obj_scroll.c **** {
 119:Middlewares/LVGL/GUI/lvgl/src/core/lv_obj_scroll.c ****     if(obj->spec_attr == NULL) return 0;
 120:Middlewares/LVGL/GUI/lvgl/src/core/lv_obj_scroll.c ****     return -obj->spec_attr->scroll.x;
 121:Middlewares/LVGL/GUI/lvgl/src/core/lv_obj_scroll.c **** }
 122:Middlewares/LVGL/GUI/lvgl/src/core/lv_obj_scroll.c **** 
 123:Middlewares/LVGL/GUI/lvgl/src/core/lv_obj_scroll.c **** lv_coord_t lv_obj_get_scroll_y(const lv_obj_t * obj)
 124:Middlewares/LVGL/GUI/lvgl/src/core/lv_obj_scroll.c **** {
 125:Middlewares/LVGL/GUI/lvgl/src/core/lv_obj_scroll.c ****     if(obj->spec_attr == NULL) return 0;
 126:Middlewares/LVGL/GUI/lvgl/src/core/lv_obj_scroll.c ****     return -obj->spec_attr->scroll.y;
 127:Middlewares/LVGL/GUI/lvgl/src/core/lv_obj_scroll.c **** }
 128:Middlewares/LVGL/GUI/lvgl/src/core/lv_obj_scroll.c **** 
 129:Middlewares/LVGL/GUI/lvgl/src/core/lv_obj_scroll.c **** lv_coord_t lv_obj_get_scroll_top(lv_obj_t * obj)
 130:Middlewares/LVGL/GUI/lvgl/src/core/lv_obj_scroll.c **** {
 131:Middlewares/LVGL/GUI/lvgl/src/core/lv_obj_scroll.c ****     if(obj->spec_attr == NULL) return 0;
 132:Middlewares/LVGL/GUI/lvgl/src/core/lv_obj_scroll.c ****     return -obj->spec_attr->scroll.y;
 133:Middlewares/LVGL/GUI/lvgl/src/core/lv_obj_scroll.c **** }
 134:Middlewares/LVGL/GUI/lvgl/src/core/lv_obj_scroll.c **** 
 135:Middlewares/LVGL/GUI/lvgl/src/core/lv_obj_scroll.c **** lv_coord_t lv_obj_get_scroll_bottom(lv_obj_t * obj)
 136:Middlewares/LVGL/GUI/lvgl/src/core/lv_obj_scroll.c **** {
 137:Middlewares/LVGL/GUI/lvgl/src/core/lv_obj_scroll.c ****     LV_ASSERT_OBJ(obj, MY_CLASS);
 138:Middlewares/LVGL/GUI/lvgl/src/core/lv_obj_scroll.c **** 
 139:Middlewares/LVGL/GUI/lvgl/src/core/lv_obj_scroll.c ****     lv_coord_t child_res = LV_COORD_MIN;
 140:Middlewares/LVGL/GUI/lvgl/src/core/lv_obj_scroll.c ****     uint32_t i;
 141:Middlewares/LVGL/GUI/lvgl/src/core/lv_obj_scroll.c ****     uint32_t child_cnt = lv_obj_get_child_cnt(obj);
 142:Middlewares/LVGL/GUI/lvgl/src/core/lv_obj_scroll.c ****     for(i = 0; i < child_cnt; i++) {
 143:Middlewares/LVGL/GUI/lvgl/src/core/lv_obj_scroll.c ****         lv_obj_t * child = obj->spec_attr->children[i];
 144:Middlewares/LVGL/GUI/lvgl/src/core/lv_obj_scroll.c ****         if(lv_obj_has_flag_any(child,  LV_OBJ_FLAG_HIDDEN | LV_OBJ_FLAG_FLOATING)) continue;
ARM GAS  C:\Users\ADMINI~1\AppData\Local\Temp\cchMZgMB.s 			page 4


 145:Middlewares/LVGL/GUI/lvgl/src/core/lv_obj_scroll.c ****         child_res = LV_MAX(child_res, child->coords.y2);
 146:Middlewares/LVGL/GUI/lvgl/src/core/lv_obj_scroll.c ****     }
 147:Middlewares/LVGL/GUI/lvgl/src/core/lv_obj_scroll.c **** 
 148:Middlewares/LVGL/GUI/lvgl/src/core/lv_obj_scroll.c ****     lv_coord_t pad_top = lv_obj_get_style_pad_top(obj, LV_PART_MAIN);
 149:Middlewares/LVGL/GUI/lvgl/src/core/lv_obj_scroll.c ****     lv_coord_t pad_bottom = lv_obj_get_style_pad_bottom(obj, LV_PART_MAIN);
 150:Middlewares/LVGL/GUI/lvgl/src/core/lv_obj_scroll.c ****     lv_coord_t border_width = lv_obj_get_style_border_width(obj, LV_PART_MAIN);
 151:Middlewares/LVGL/GUI/lvgl/src/core/lv_obj_scroll.c **** 
 152:Middlewares/LVGL/GUI/lvgl/src/core/lv_obj_scroll.c ****     if(child_res != LV_COORD_MIN) {
 153:Middlewares/LVGL/GUI/lvgl/src/core/lv_obj_scroll.c ****         child_res -= (obj->coords.y2 - pad_bottom - border_width);
 154:Middlewares/LVGL/GUI/lvgl/src/core/lv_obj_scroll.c ****     }
 155:Middlewares/LVGL/GUI/lvgl/src/core/lv_obj_scroll.c **** 
 156:Middlewares/LVGL/GUI/lvgl/src/core/lv_obj_scroll.c ****     lv_coord_t self_h = lv_obj_get_self_height(obj);
 157:Middlewares/LVGL/GUI/lvgl/src/core/lv_obj_scroll.c ****     self_h = self_h - (lv_obj_get_height(obj) - pad_top - pad_bottom - 2 * border_width);
 158:Middlewares/LVGL/GUI/lvgl/src/core/lv_obj_scroll.c ****     self_h -= lv_obj_get_scroll_y(obj);
 159:Middlewares/LVGL/GUI/lvgl/src/core/lv_obj_scroll.c ****     return LV_MAX(child_res, self_h);
 160:Middlewares/LVGL/GUI/lvgl/src/core/lv_obj_scroll.c **** }
 161:Middlewares/LVGL/GUI/lvgl/src/core/lv_obj_scroll.c **** 
 162:Middlewares/LVGL/GUI/lvgl/src/core/lv_obj_scroll.c **** lv_coord_t lv_obj_get_scroll_left(lv_obj_t * obj)
 163:Middlewares/LVGL/GUI/lvgl/src/core/lv_obj_scroll.c **** {
 164:Middlewares/LVGL/GUI/lvgl/src/core/lv_obj_scroll.c ****     LV_ASSERT_OBJ(obj, MY_CLASS);
 165:Middlewares/LVGL/GUI/lvgl/src/core/lv_obj_scroll.c **** 
 166:Middlewares/LVGL/GUI/lvgl/src/core/lv_obj_scroll.c ****     /*Normally can't scroll the object out on the left.
 167:Middlewares/LVGL/GUI/lvgl/src/core/lv_obj_scroll.c ****      *So simply use the current scroll position as "left size"*/
 168:Middlewares/LVGL/GUI/lvgl/src/core/lv_obj_scroll.c ****     if(lv_obj_get_style_base_dir(obj, LV_PART_MAIN) != LV_BASE_DIR_RTL) {
 169:Middlewares/LVGL/GUI/lvgl/src/core/lv_obj_scroll.c ****         if(obj->spec_attr == NULL) return 0;
 170:Middlewares/LVGL/GUI/lvgl/src/core/lv_obj_scroll.c ****         return -obj->spec_attr->scroll.x;
 171:Middlewares/LVGL/GUI/lvgl/src/core/lv_obj_scroll.c ****     }
 172:Middlewares/LVGL/GUI/lvgl/src/core/lv_obj_scroll.c **** 
 173:Middlewares/LVGL/GUI/lvgl/src/core/lv_obj_scroll.c ****     /*With RTL base direction scrolling the left is normal so find the left most coordinate*/
 174:Middlewares/LVGL/GUI/lvgl/src/core/lv_obj_scroll.c ****     lv_coord_t pad_right = lv_obj_get_style_pad_right(obj, LV_PART_MAIN);
 175:Middlewares/LVGL/GUI/lvgl/src/core/lv_obj_scroll.c ****     lv_coord_t pad_left = lv_obj_get_style_pad_left(obj, LV_PART_MAIN);
 176:Middlewares/LVGL/GUI/lvgl/src/core/lv_obj_scroll.c ****     lv_coord_t border_width = lv_obj_get_style_border_width(obj, LV_PART_MAIN);
 177:Middlewares/LVGL/GUI/lvgl/src/core/lv_obj_scroll.c **** 
 178:Middlewares/LVGL/GUI/lvgl/src/core/lv_obj_scroll.c ****     lv_coord_t child_res = 0;
 179:Middlewares/LVGL/GUI/lvgl/src/core/lv_obj_scroll.c **** 
 180:Middlewares/LVGL/GUI/lvgl/src/core/lv_obj_scroll.c ****     uint32_t i;
 181:Middlewares/LVGL/GUI/lvgl/src/core/lv_obj_scroll.c ****     lv_coord_t x1 = LV_COORD_MAX;
 182:Middlewares/LVGL/GUI/lvgl/src/core/lv_obj_scroll.c ****     uint32_t child_cnt = lv_obj_get_child_cnt(obj);
 183:Middlewares/LVGL/GUI/lvgl/src/core/lv_obj_scroll.c ****     for(i = 0; i < child_cnt; i++) {
 184:Middlewares/LVGL/GUI/lvgl/src/core/lv_obj_scroll.c ****         lv_obj_t * child = obj->spec_attr->children[i];
 185:Middlewares/LVGL/GUI/lvgl/src/core/lv_obj_scroll.c ****         if(lv_obj_has_flag_any(child,  LV_OBJ_FLAG_HIDDEN | LV_OBJ_FLAG_FLOATING)) continue;
 186:Middlewares/LVGL/GUI/lvgl/src/core/lv_obj_scroll.c ****         x1 = LV_MIN(x1, child->coords.x1);
 187:Middlewares/LVGL/GUI/lvgl/src/core/lv_obj_scroll.c **** 
 188:Middlewares/LVGL/GUI/lvgl/src/core/lv_obj_scroll.c ****     }
 189:Middlewares/LVGL/GUI/lvgl/src/core/lv_obj_scroll.c **** 
 190:Middlewares/LVGL/GUI/lvgl/src/core/lv_obj_scroll.c ****     if(x1 != LV_COORD_MAX) {
 191:Middlewares/LVGL/GUI/lvgl/src/core/lv_obj_scroll.c ****         child_res = x1;
 192:Middlewares/LVGL/GUI/lvgl/src/core/lv_obj_scroll.c ****         child_res = (obj->coords.x1 + pad_left + border_width) - child_res;
 193:Middlewares/LVGL/GUI/lvgl/src/core/lv_obj_scroll.c ****     }
 194:Middlewares/LVGL/GUI/lvgl/src/core/lv_obj_scroll.c ****     else {
 195:Middlewares/LVGL/GUI/lvgl/src/core/lv_obj_scroll.c ****         child_res = LV_COORD_MIN;
 196:Middlewares/LVGL/GUI/lvgl/src/core/lv_obj_scroll.c ****     }
 197:Middlewares/LVGL/GUI/lvgl/src/core/lv_obj_scroll.c **** 
 198:Middlewares/LVGL/GUI/lvgl/src/core/lv_obj_scroll.c ****     lv_coord_t self_w = lv_obj_get_self_width(obj);
 199:Middlewares/LVGL/GUI/lvgl/src/core/lv_obj_scroll.c ****     self_w = self_w - (lv_obj_get_width(obj) - pad_right - pad_left - 2 * border_width);
 200:Middlewares/LVGL/GUI/lvgl/src/core/lv_obj_scroll.c ****     self_w += lv_obj_get_scroll_x(obj);
 201:Middlewares/LVGL/GUI/lvgl/src/core/lv_obj_scroll.c **** 
ARM GAS  C:\Users\ADMINI~1\AppData\Local\Temp\cchMZgMB.s 			page 5


 202:Middlewares/LVGL/GUI/lvgl/src/core/lv_obj_scroll.c ****     return LV_MAX(child_res, self_w);
 203:Middlewares/LVGL/GUI/lvgl/src/core/lv_obj_scroll.c **** }
 204:Middlewares/LVGL/GUI/lvgl/src/core/lv_obj_scroll.c **** 
 205:Middlewares/LVGL/GUI/lvgl/src/core/lv_obj_scroll.c **** lv_coord_t lv_obj_get_scroll_right(lv_obj_t * obj)
 206:Middlewares/LVGL/GUI/lvgl/src/core/lv_obj_scroll.c **** {
 207:Middlewares/LVGL/GUI/lvgl/src/core/lv_obj_scroll.c ****     LV_ASSERT_OBJ(obj, MY_CLASS);
 208:Middlewares/LVGL/GUI/lvgl/src/core/lv_obj_scroll.c **** 
 209:Middlewares/LVGL/GUI/lvgl/src/core/lv_obj_scroll.c ****     /*With RTL base dir can't scroll to the object out on the right.
 210:Middlewares/LVGL/GUI/lvgl/src/core/lv_obj_scroll.c ****      *So simply use the current scroll position as "right size"*/
 211:Middlewares/LVGL/GUI/lvgl/src/core/lv_obj_scroll.c ****     if(lv_obj_get_style_base_dir(obj, LV_PART_MAIN) == LV_BASE_DIR_RTL) {
 212:Middlewares/LVGL/GUI/lvgl/src/core/lv_obj_scroll.c ****         if(obj->spec_attr == NULL) return 0;
 213:Middlewares/LVGL/GUI/lvgl/src/core/lv_obj_scroll.c ****         return obj->spec_attr->scroll.x;
 214:Middlewares/LVGL/GUI/lvgl/src/core/lv_obj_scroll.c ****     }
 215:Middlewares/LVGL/GUI/lvgl/src/core/lv_obj_scroll.c **** 
 216:Middlewares/LVGL/GUI/lvgl/src/core/lv_obj_scroll.c ****     /*With other base direction (LTR) scrolling to the right is normal so find the right most coord
 217:Middlewares/LVGL/GUI/lvgl/src/core/lv_obj_scroll.c ****     lv_coord_t child_res = LV_COORD_MIN;
 218:Middlewares/LVGL/GUI/lvgl/src/core/lv_obj_scroll.c ****     uint32_t i;
 219:Middlewares/LVGL/GUI/lvgl/src/core/lv_obj_scroll.c ****     uint32_t child_cnt = lv_obj_get_child_cnt(obj);
 220:Middlewares/LVGL/GUI/lvgl/src/core/lv_obj_scroll.c ****     for(i = 0; i < child_cnt; i++) {
 221:Middlewares/LVGL/GUI/lvgl/src/core/lv_obj_scroll.c ****         lv_obj_t * child = obj->spec_attr->children[i];
 222:Middlewares/LVGL/GUI/lvgl/src/core/lv_obj_scroll.c ****         if(lv_obj_has_flag_any(child,  LV_OBJ_FLAG_HIDDEN | LV_OBJ_FLAG_FLOATING)) continue;
 223:Middlewares/LVGL/GUI/lvgl/src/core/lv_obj_scroll.c ****         child_res = LV_MAX(child_res, child->coords.x2);
 224:Middlewares/LVGL/GUI/lvgl/src/core/lv_obj_scroll.c ****     }
 225:Middlewares/LVGL/GUI/lvgl/src/core/lv_obj_scroll.c **** 
 226:Middlewares/LVGL/GUI/lvgl/src/core/lv_obj_scroll.c ****     lv_coord_t pad_right = lv_obj_get_style_pad_right(obj, LV_PART_MAIN);
 227:Middlewares/LVGL/GUI/lvgl/src/core/lv_obj_scroll.c ****     lv_coord_t pad_left = lv_obj_get_style_pad_left(obj, LV_PART_MAIN);
 228:Middlewares/LVGL/GUI/lvgl/src/core/lv_obj_scroll.c ****     lv_coord_t border_width = lv_obj_get_style_border_width(obj, LV_PART_MAIN);
 229:Middlewares/LVGL/GUI/lvgl/src/core/lv_obj_scroll.c **** 
 230:Middlewares/LVGL/GUI/lvgl/src/core/lv_obj_scroll.c ****     if(child_res != LV_COORD_MIN) {
 231:Middlewares/LVGL/GUI/lvgl/src/core/lv_obj_scroll.c ****         child_res -= (obj->coords.x2 - pad_right - border_width);
 232:Middlewares/LVGL/GUI/lvgl/src/core/lv_obj_scroll.c ****     }
 233:Middlewares/LVGL/GUI/lvgl/src/core/lv_obj_scroll.c **** 
 234:Middlewares/LVGL/GUI/lvgl/src/core/lv_obj_scroll.c ****     lv_coord_t self_w;
 235:Middlewares/LVGL/GUI/lvgl/src/core/lv_obj_scroll.c ****     self_w = lv_obj_get_self_width(obj);
 236:Middlewares/LVGL/GUI/lvgl/src/core/lv_obj_scroll.c ****     self_w = self_w - (lv_obj_get_width(obj) - pad_right - pad_left - 2 * border_width);
 237:Middlewares/LVGL/GUI/lvgl/src/core/lv_obj_scroll.c ****     self_w -= lv_obj_get_scroll_x(obj);
 238:Middlewares/LVGL/GUI/lvgl/src/core/lv_obj_scroll.c ****     return LV_MAX(child_res, self_w);
 239:Middlewares/LVGL/GUI/lvgl/src/core/lv_obj_scroll.c **** }
 240:Middlewares/LVGL/GUI/lvgl/src/core/lv_obj_scroll.c **** 
 241:Middlewares/LVGL/GUI/lvgl/src/core/lv_obj_scroll.c **** void lv_obj_get_scroll_end(struct _lv_obj_t  * obj, lv_point_t * end)
 242:Middlewares/LVGL/GUI/lvgl/src/core/lv_obj_scroll.c **** {
 243:Middlewares/LVGL/GUI/lvgl/src/core/lv_obj_scroll.c ****     lv_anim_t * a;
 244:Middlewares/LVGL/GUI/lvgl/src/core/lv_obj_scroll.c ****     a = lv_anim_get(obj, scroll_x_anim);
 245:Middlewares/LVGL/GUI/lvgl/src/core/lv_obj_scroll.c ****     end->x = a ? -a->end_value : lv_obj_get_scroll_x(obj);
 246:Middlewares/LVGL/GUI/lvgl/src/core/lv_obj_scroll.c **** 
 247:Middlewares/LVGL/GUI/lvgl/src/core/lv_obj_scroll.c ****     a = lv_anim_get(obj, scroll_y_anim);
 248:Middlewares/LVGL/GUI/lvgl/src/core/lv_obj_scroll.c ****     end->y = a ? -a->end_value : lv_obj_get_scroll_y(obj);
 249:Middlewares/LVGL/GUI/lvgl/src/core/lv_obj_scroll.c **** }
 250:Middlewares/LVGL/GUI/lvgl/src/core/lv_obj_scroll.c **** 
 251:Middlewares/LVGL/GUI/lvgl/src/core/lv_obj_scroll.c **** /*=====================
 252:Middlewares/LVGL/GUI/lvgl/src/core/lv_obj_scroll.c ****  * Other functions
 253:Middlewares/LVGL/GUI/lvgl/src/core/lv_obj_scroll.c ****  *====================*/
 254:Middlewares/LVGL/GUI/lvgl/src/core/lv_obj_scroll.c **** 
 255:Middlewares/LVGL/GUI/lvgl/src/core/lv_obj_scroll.c **** void lv_obj_scroll_by_bounded(lv_obj_t * obj, lv_coord_t dx, lv_coord_t dy, lv_anim_enable_t anim_e
 256:Middlewares/LVGL/GUI/lvgl/src/core/lv_obj_scroll.c **** {
 257:Middlewares/LVGL/GUI/lvgl/src/core/lv_obj_scroll.c ****     if(dx == 0 && dy == 0) return;
 258:Middlewares/LVGL/GUI/lvgl/src/core/lv_obj_scroll.c **** 
ARM GAS  C:\Users\ADMINI~1\AppData\Local\Temp\cchMZgMB.s 			page 6


 259:Middlewares/LVGL/GUI/lvgl/src/core/lv_obj_scroll.c ****     /*We need to know the final sizes for bound check*/
 260:Middlewares/LVGL/GUI/lvgl/src/core/lv_obj_scroll.c ****     lv_obj_update_layout(obj);
 261:Middlewares/LVGL/GUI/lvgl/src/core/lv_obj_scroll.c **** 
 262:Middlewares/LVGL/GUI/lvgl/src/core/lv_obj_scroll.c ****     /*Don't let scroll more then naturally possible by the size of the content*/
 263:Middlewares/LVGL/GUI/lvgl/src/core/lv_obj_scroll.c ****     lv_coord_t x_current = -lv_obj_get_scroll_x(obj);
 264:Middlewares/LVGL/GUI/lvgl/src/core/lv_obj_scroll.c ****     lv_coord_t x_bounded = x_current + dx;
 265:Middlewares/LVGL/GUI/lvgl/src/core/lv_obj_scroll.c **** 
 266:Middlewares/LVGL/GUI/lvgl/src/core/lv_obj_scroll.c ****     if(lv_obj_get_style_base_dir(obj, LV_PART_MAIN) != LV_BASE_DIR_RTL) {
 267:Middlewares/LVGL/GUI/lvgl/src/core/lv_obj_scroll.c ****         if(x_bounded > 0) x_bounded = 0;
 268:Middlewares/LVGL/GUI/lvgl/src/core/lv_obj_scroll.c ****         if(x_bounded < 0) {
 269:Middlewares/LVGL/GUI/lvgl/src/core/lv_obj_scroll.c ****             lv_coord_t  scroll_max = lv_obj_get_scroll_left(obj) + lv_obj_get_scroll_right(obj);
 270:Middlewares/LVGL/GUI/lvgl/src/core/lv_obj_scroll.c ****             if(scroll_max < 0) scroll_max = 0;
 271:Middlewares/LVGL/GUI/lvgl/src/core/lv_obj_scroll.c **** 
 272:Middlewares/LVGL/GUI/lvgl/src/core/lv_obj_scroll.c ****             if(x_bounded < -scroll_max) x_bounded = -scroll_max;
 273:Middlewares/LVGL/GUI/lvgl/src/core/lv_obj_scroll.c ****         }
 274:Middlewares/LVGL/GUI/lvgl/src/core/lv_obj_scroll.c ****     }
 275:Middlewares/LVGL/GUI/lvgl/src/core/lv_obj_scroll.c ****     else {
 276:Middlewares/LVGL/GUI/lvgl/src/core/lv_obj_scroll.c ****         if(x_bounded < 0) x_bounded = 0;
 277:Middlewares/LVGL/GUI/lvgl/src/core/lv_obj_scroll.c ****         if(x_bounded > 0) {
 278:Middlewares/LVGL/GUI/lvgl/src/core/lv_obj_scroll.c ****             lv_coord_t  scroll_max = lv_obj_get_scroll_left(obj) + lv_obj_get_scroll_right(obj);
 279:Middlewares/LVGL/GUI/lvgl/src/core/lv_obj_scroll.c ****             if(scroll_max < 0) scroll_max = 0;
 280:Middlewares/LVGL/GUI/lvgl/src/core/lv_obj_scroll.c **** 
 281:Middlewares/LVGL/GUI/lvgl/src/core/lv_obj_scroll.c ****             if(x_bounded > scroll_max) x_bounded = scroll_max;
 282:Middlewares/LVGL/GUI/lvgl/src/core/lv_obj_scroll.c ****         }
 283:Middlewares/LVGL/GUI/lvgl/src/core/lv_obj_scroll.c ****     }
 284:Middlewares/LVGL/GUI/lvgl/src/core/lv_obj_scroll.c **** 
 285:Middlewares/LVGL/GUI/lvgl/src/core/lv_obj_scroll.c ****     /*Don't let scroll more then naturally possible by the size of the content*/
 286:Middlewares/LVGL/GUI/lvgl/src/core/lv_obj_scroll.c ****     lv_coord_t y_current = -lv_obj_get_scroll_y(obj);
 287:Middlewares/LVGL/GUI/lvgl/src/core/lv_obj_scroll.c ****     lv_coord_t y_bounded = y_current + dy;
 288:Middlewares/LVGL/GUI/lvgl/src/core/lv_obj_scroll.c **** 
 289:Middlewares/LVGL/GUI/lvgl/src/core/lv_obj_scroll.c ****     if(y_bounded > 0) y_bounded = 0;
 290:Middlewares/LVGL/GUI/lvgl/src/core/lv_obj_scroll.c ****     if(y_bounded < 0) {
 291:Middlewares/LVGL/GUI/lvgl/src/core/lv_obj_scroll.c ****         lv_coord_t  scroll_max = lv_obj_get_scroll_top(obj) + lv_obj_get_scroll_bottom(obj);
 292:Middlewares/LVGL/GUI/lvgl/src/core/lv_obj_scroll.c ****         if(scroll_max < 0) scroll_max = 0;
 293:Middlewares/LVGL/GUI/lvgl/src/core/lv_obj_scroll.c ****         if(y_bounded < -scroll_max) y_bounded = -scroll_max;
 294:Middlewares/LVGL/GUI/lvgl/src/core/lv_obj_scroll.c ****     }
 295:Middlewares/LVGL/GUI/lvgl/src/core/lv_obj_scroll.c **** 
 296:Middlewares/LVGL/GUI/lvgl/src/core/lv_obj_scroll.c ****     dx = x_bounded - x_current;
 297:Middlewares/LVGL/GUI/lvgl/src/core/lv_obj_scroll.c ****     dy = y_bounded - y_current;
 298:Middlewares/LVGL/GUI/lvgl/src/core/lv_obj_scroll.c ****     if(dx || dy) {
 299:Middlewares/LVGL/GUI/lvgl/src/core/lv_obj_scroll.c ****         lv_obj_scroll_by(obj, dx, dy, anim_en);
 300:Middlewares/LVGL/GUI/lvgl/src/core/lv_obj_scroll.c ****     }
 301:Middlewares/LVGL/GUI/lvgl/src/core/lv_obj_scroll.c **** }
 302:Middlewares/LVGL/GUI/lvgl/src/core/lv_obj_scroll.c **** 
 303:Middlewares/LVGL/GUI/lvgl/src/core/lv_obj_scroll.c **** 
 304:Middlewares/LVGL/GUI/lvgl/src/core/lv_obj_scroll.c **** void lv_obj_scroll_by(lv_obj_t * obj, lv_coord_t dx, lv_coord_t dy, lv_anim_enable_t anim_en)
 305:Middlewares/LVGL/GUI/lvgl/src/core/lv_obj_scroll.c **** {
 306:Middlewares/LVGL/GUI/lvgl/src/core/lv_obj_scroll.c ****     if(dx == 0 && dy == 0) return;
 307:Middlewares/LVGL/GUI/lvgl/src/core/lv_obj_scroll.c ****     if(anim_en == LV_ANIM_ON) {
 308:Middlewares/LVGL/GUI/lvgl/src/core/lv_obj_scroll.c ****         lv_disp_t * d = lv_obj_get_disp(obj);
 309:Middlewares/LVGL/GUI/lvgl/src/core/lv_obj_scroll.c ****         lv_anim_t a;
 310:Middlewares/LVGL/GUI/lvgl/src/core/lv_obj_scroll.c ****         lv_anim_init(&a);
 311:Middlewares/LVGL/GUI/lvgl/src/core/lv_obj_scroll.c ****         lv_anim_set_var(&a, obj);
 312:Middlewares/LVGL/GUI/lvgl/src/core/lv_obj_scroll.c ****         lv_anim_set_ready_cb(&a, scroll_anim_ready_cb);
 313:Middlewares/LVGL/GUI/lvgl/src/core/lv_obj_scroll.c **** 
 314:Middlewares/LVGL/GUI/lvgl/src/core/lv_obj_scroll.c ****         if(dx) {
 315:Middlewares/LVGL/GUI/lvgl/src/core/lv_obj_scroll.c ****             uint32_t t = lv_anim_speed_to_time((lv_disp_get_hor_res(d) * 2) >> 2, 0, dx);
ARM GAS  C:\Users\ADMINI~1\AppData\Local\Temp\cchMZgMB.s 			page 7


 316:Middlewares/LVGL/GUI/lvgl/src/core/lv_obj_scroll.c ****             if(t < SCROLL_ANIM_TIME_MIN) t = SCROLL_ANIM_TIME_MIN;
 317:Middlewares/LVGL/GUI/lvgl/src/core/lv_obj_scroll.c ****             if(t > SCROLL_ANIM_TIME_MAX) t = SCROLL_ANIM_TIME_MAX;
 318:Middlewares/LVGL/GUI/lvgl/src/core/lv_obj_scroll.c ****             lv_anim_set_time(&a, t);
 319:Middlewares/LVGL/GUI/lvgl/src/core/lv_obj_scroll.c ****             lv_coord_t sx = lv_obj_get_scroll_x(obj);
 320:Middlewares/LVGL/GUI/lvgl/src/core/lv_obj_scroll.c ****             lv_anim_set_values(&a, -sx, -sx + dx);
 321:Middlewares/LVGL/GUI/lvgl/src/core/lv_obj_scroll.c ****             lv_anim_set_exec_cb(&a, scroll_x_anim);
 322:Middlewares/LVGL/GUI/lvgl/src/core/lv_obj_scroll.c ****             lv_anim_set_path_cb(&a, lv_anim_path_ease_out);
 323:Middlewares/LVGL/GUI/lvgl/src/core/lv_obj_scroll.c **** 
 324:Middlewares/LVGL/GUI/lvgl/src/core/lv_obj_scroll.c ****             lv_res_t res;
 325:Middlewares/LVGL/GUI/lvgl/src/core/lv_obj_scroll.c ****             res = lv_event_send(obj, LV_EVENT_SCROLL_BEGIN, &a);
 326:Middlewares/LVGL/GUI/lvgl/src/core/lv_obj_scroll.c ****             if(res != LV_RES_OK) return;
 327:Middlewares/LVGL/GUI/lvgl/src/core/lv_obj_scroll.c ****             lv_anim_start(&a);
 328:Middlewares/LVGL/GUI/lvgl/src/core/lv_obj_scroll.c ****         }
 329:Middlewares/LVGL/GUI/lvgl/src/core/lv_obj_scroll.c **** 
 330:Middlewares/LVGL/GUI/lvgl/src/core/lv_obj_scroll.c ****         if(dy) {
 331:Middlewares/LVGL/GUI/lvgl/src/core/lv_obj_scroll.c ****             uint32_t t = lv_anim_speed_to_time((lv_disp_get_ver_res(d) * 2) >> 2, 0, dy);
 332:Middlewares/LVGL/GUI/lvgl/src/core/lv_obj_scroll.c ****             if(t < SCROLL_ANIM_TIME_MIN) t = SCROLL_ANIM_TIME_MIN;
 333:Middlewares/LVGL/GUI/lvgl/src/core/lv_obj_scroll.c ****             if(t > SCROLL_ANIM_TIME_MAX) t = SCROLL_ANIM_TIME_MAX;
 334:Middlewares/LVGL/GUI/lvgl/src/core/lv_obj_scroll.c ****             lv_anim_set_time(&a, t);
 335:Middlewares/LVGL/GUI/lvgl/src/core/lv_obj_scroll.c ****             lv_coord_t sy = lv_obj_get_scroll_y(obj);
 336:Middlewares/LVGL/GUI/lvgl/src/core/lv_obj_scroll.c ****             lv_anim_set_values(&a, -sy, -sy + dy);
 337:Middlewares/LVGL/GUI/lvgl/src/core/lv_obj_scroll.c ****             lv_anim_set_exec_cb(&a,  scroll_y_anim);
 338:Middlewares/LVGL/GUI/lvgl/src/core/lv_obj_scroll.c ****             lv_anim_set_path_cb(&a, lv_anim_path_ease_out);
 339:Middlewares/LVGL/GUI/lvgl/src/core/lv_obj_scroll.c **** 
 340:Middlewares/LVGL/GUI/lvgl/src/core/lv_obj_scroll.c ****             lv_res_t res;
 341:Middlewares/LVGL/GUI/lvgl/src/core/lv_obj_scroll.c ****             res = lv_event_send(obj, LV_EVENT_SCROLL_BEGIN, &a);
 342:Middlewares/LVGL/GUI/lvgl/src/core/lv_obj_scroll.c ****             if(res != LV_RES_OK) return;
 343:Middlewares/LVGL/GUI/lvgl/src/core/lv_obj_scroll.c ****             lv_anim_start(&a);
 344:Middlewares/LVGL/GUI/lvgl/src/core/lv_obj_scroll.c ****         }
 345:Middlewares/LVGL/GUI/lvgl/src/core/lv_obj_scroll.c ****     }
 346:Middlewares/LVGL/GUI/lvgl/src/core/lv_obj_scroll.c ****     else {
 347:Middlewares/LVGL/GUI/lvgl/src/core/lv_obj_scroll.c ****         /*Remove pending animations*/
 348:Middlewares/LVGL/GUI/lvgl/src/core/lv_obj_scroll.c ****         bool y_del = lv_anim_del(obj, scroll_y_anim);
 349:Middlewares/LVGL/GUI/lvgl/src/core/lv_obj_scroll.c ****         bool x_del = lv_anim_del(obj, scroll_x_anim);
 350:Middlewares/LVGL/GUI/lvgl/src/core/lv_obj_scroll.c ****         scroll_by_raw(obj, dx, dy);
 351:Middlewares/LVGL/GUI/lvgl/src/core/lv_obj_scroll.c ****         if(y_del || x_del) {
 352:Middlewares/LVGL/GUI/lvgl/src/core/lv_obj_scroll.c ****             lv_res_t res;
 353:Middlewares/LVGL/GUI/lvgl/src/core/lv_obj_scroll.c ****             res = lv_event_send(obj, LV_EVENT_SCROLL_END, NULL);
 354:Middlewares/LVGL/GUI/lvgl/src/core/lv_obj_scroll.c ****             if(res != LV_RES_OK) return;
 355:Middlewares/LVGL/GUI/lvgl/src/core/lv_obj_scroll.c ****         }
 356:Middlewares/LVGL/GUI/lvgl/src/core/lv_obj_scroll.c ****     }
 357:Middlewares/LVGL/GUI/lvgl/src/core/lv_obj_scroll.c **** }
 358:Middlewares/LVGL/GUI/lvgl/src/core/lv_obj_scroll.c **** 
 359:Middlewares/LVGL/GUI/lvgl/src/core/lv_obj_scroll.c **** void lv_obj_scroll_to(lv_obj_t * obj, lv_coord_t x, lv_coord_t y, lv_anim_enable_t anim_en)
 360:Middlewares/LVGL/GUI/lvgl/src/core/lv_obj_scroll.c **** {
 361:Middlewares/LVGL/GUI/lvgl/src/core/lv_obj_scroll.c ****     lv_obj_scroll_to_x(obj, x, anim_en);
 362:Middlewares/LVGL/GUI/lvgl/src/core/lv_obj_scroll.c ****     lv_obj_scroll_to_y(obj, y, anim_en);
 363:Middlewares/LVGL/GUI/lvgl/src/core/lv_obj_scroll.c **** }
 364:Middlewares/LVGL/GUI/lvgl/src/core/lv_obj_scroll.c **** 
 365:Middlewares/LVGL/GUI/lvgl/src/core/lv_obj_scroll.c **** void lv_obj_scroll_to_x(lv_obj_t * obj, lv_coord_t x, lv_anim_enable_t anim_en)
 366:Middlewares/LVGL/GUI/lvgl/src/core/lv_obj_scroll.c **** {
 367:Middlewares/LVGL/GUI/lvgl/src/core/lv_obj_scroll.c ****     lv_anim_del(obj, scroll_x_anim);
 368:Middlewares/LVGL/GUI/lvgl/src/core/lv_obj_scroll.c **** 
 369:Middlewares/LVGL/GUI/lvgl/src/core/lv_obj_scroll.c ****     lv_coord_t scroll_x = lv_obj_get_scroll_x(obj);
 370:Middlewares/LVGL/GUI/lvgl/src/core/lv_obj_scroll.c ****     lv_coord_t diff = -x + scroll_x;
 371:Middlewares/LVGL/GUI/lvgl/src/core/lv_obj_scroll.c **** 
 372:Middlewares/LVGL/GUI/lvgl/src/core/lv_obj_scroll.c ****     lv_obj_scroll_by_bounded(obj, diff, 0, anim_en);
ARM GAS  C:\Users\ADMINI~1\AppData\Local\Temp\cchMZgMB.s 			page 8


 373:Middlewares/LVGL/GUI/lvgl/src/core/lv_obj_scroll.c **** }
 374:Middlewares/LVGL/GUI/lvgl/src/core/lv_obj_scroll.c **** 
 375:Middlewares/LVGL/GUI/lvgl/src/core/lv_obj_scroll.c **** void lv_obj_scroll_to_y(lv_obj_t * obj, lv_coord_t y, lv_anim_enable_t anim_en)
 376:Middlewares/LVGL/GUI/lvgl/src/core/lv_obj_scroll.c **** {
 377:Middlewares/LVGL/GUI/lvgl/src/core/lv_obj_scroll.c ****     lv_anim_del(obj, scroll_y_anim);
 378:Middlewares/LVGL/GUI/lvgl/src/core/lv_obj_scroll.c **** 
 379:Middlewares/LVGL/GUI/lvgl/src/core/lv_obj_scroll.c ****     lv_coord_t scroll_y = lv_obj_get_scroll_y(obj);
 380:Middlewares/LVGL/GUI/lvgl/src/core/lv_obj_scroll.c ****     lv_coord_t diff = -y + scroll_y;
 381:Middlewares/LVGL/GUI/lvgl/src/core/lv_obj_scroll.c **** 
 382:Middlewares/LVGL/GUI/lvgl/src/core/lv_obj_scroll.c ****     lv_obj_scroll_by_bounded(obj, 0, diff, anim_en);
 383:Middlewares/LVGL/GUI/lvgl/src/core/lv_obj_scroll.c **** }
 384:Middlewares/LVGL/GUI/lvgl/src/core/lv_obj_scroll.c **** 
 385:Middlewares/LVGL/GUI/lvgl/src/core/lv_obj_scroll.c **** void lv_obj_scroll_to_view(lv_obj_t * obj, lv_anim_enable_t anim_en)
 386:Middlewares/LVGL/GUI/lvgl/src/core/lv_obj_scroll.c **** {
 387:Middlewares/LVGL/GUI/lvgl/src/core/lv_obj_scroll.c ****     /*Be sure the screens layout is correct*/
 388:Middlewares/LVGL/GUI/lvgl/src/core/lv_obj_scroll.c ****     lv_obj_update_layout(obj);
 389:Middlewares/LVGL/GUI/lvgl/src/core/lv_obj_scroll.c **** 
 390:Middlewares/LVGL/GUI/lvgl/src/core/lv_obj_scroll.c ****     lv_point_t p = {0, 0};
 391:Middlewares/LVGL/GUI/lvgl/src/core/lv_obj_scroll.c ****     scroll_area_into_view(&obj->coords, obj, &p, anim_en);
 392:Middlewares/LVGL/GUI/lvgl/src/core/lv_obj_scroll.c **** }
 393:Middlewares/LVGL/GUI/lvgl/src/core/lv_obj_scroll.c **** 
 394:Middlewares/LVGL/GUI/lvgl/src/core/lv_obj_scroll.c **** void lv_obj_scroll_to_view_recursive(lv_obj_t * obj, lv_anim_enable_t anim_en)
 395:Middlewares/LVGL/GUI/lvgl/src/core/lv_obj_scroll.c **** {
 396:Middlewares/LVGL/GUI/lvgl/src/core/lv_obj_scroll.c ****     /*Be sure the screens layout is correct*/
 397:Middlewares/LVGL/GUI/lvgl/src/core/lv_obj_scroll.c ****     lv_obj_update_layout(obj);
 398:Middlewares/LVGL/GUI/lvgl/src/core/lv_obj_scroll.c **** 
 399:Middlewares/LVGL/GUI/lvgl/src/core/lv_obj_scroll.c ****     lv_point_t p = {0, 0};
 400:Middlewares/LVGL/GUI/lvgl/src/core/lv_obj_scroll.c ****     lv_obj_t * child = obj;
 401:Middlewares/LVGL/GUI/lvgl/src/core/lv_obj_scroll.c ****     lv_obj_t * parent = lv_obj_get_parent(child);
 402:Middlewares/LVGL/GUI/lvgl/src/core/lv_obj_scroll.c ****     while(parent) {
 403:Middlewares/LVGL/GUI/lvgl/src/core/lv_obj_scroll.c ****         scroll_area_into_view(&obj->coords, child, &p, anim_en);
 404:Middlewares/LVGL/GUI/lvgl/src/core/lv_obj_scroll.c ****         child = parent;
 405:Middlewares/LVGL/GUI/lvgl/src/core/lv_obj_scroll.c ****         parent = lv_obj_get_parent(parent);
 406:Middlewares/LVGL/GUI/lvgl/src/core/lv_obj_scroll.c ****     }
 407:Middlewares/LVGL/GUI/lvgl/src/core/lv_obj_scroll.c **** }
 408:Middlewares/LVGL/GUI/lvgl/src/core/lv_obj_scroll.c **** 
 409:Middlewares/LVGL/GUI/lvgl/src/core/lv_obj_scroll.c **** bool lv_obj_is_scrolling(const lv_obj_t * obj)
 410:Middlewares/LVGL/GUI/lvgl/src/core/lv_obj_scroll.c **** {
 411:Middlewares/LVGL/GUI/lvgl/src/core/lv_obj_scroll.c ****     lv_indev_t * indev = lv_indev_get_next(NULL);
 412:Middlewares/LVGL/GUI/lvgl/src/core/lv_obj_scroll.c ****     while(indev) {
 413:Middlewares/LVGL/GUI/lvgl/src/core/lv_obj_scroll.c ****         if(lv_indev_get_scroll_obj(indev) == obj) return true;
 414:Middlewares/LVGL/GUI/lvgl/src/core/lv_obj_scroll.c ****         indev = lv_indev_get_next(indev);
 415:Middlewares/LVGL/GUI/lvgl/src/core/lv_obj_scroll.c ****     }
 416:Middlewares/LVGL/GUI/lvgl/src/core/lv_obj_scroll.c **** 
 417:Middlewares/LVGL/GUI/lvgl/src/core/lv_obj_scroll.c ****     return false;
 418:Middlewares/LVGL/GUI/lvgl/src/core/lv_obj_scroll.c **** }
 419:Middlewares/LVGL/GUI/lvgl/src/core/lv_obj_scroll.c **** 
 420:Middlewares/LVGL/GUI/lvgl/src/core/lv_obj_scroll.c **** void lv_obj_update_snap(lv_obj_t * obj, lv_anim_enable_t anim_en)
 421:Middlewares/LVGL/GUI/lvgl/src/core/lv_obj_scroll.c **** {
 422:Middlewares/LVGL/GUI/lvgl/src/core/lv_obj_scroll.c ****     lv_obj_update_layout(obj);
 423:Middlewares/LVGL/GUI/lvgl/src/core/lv_obj_scroll.c ****     lv_point_t p;
 424:Middlewares/LVGL/GUI/lvgl/src/core/lv_obj_scroll.c ****     lv_indev_scroll_get_snap_dist(obj, &p);
 425:Middlewares/LVGL/GUI/lvgl/src/core/lv_obj_scroll.c ****     lv_obj_scroll_by(obj, p.x, p.y, anim_en);
 426:Middlewares/LVGL/GUI/lvgl/src/core/lv_obj_scroll.c **** }
 427:Middlewares/LVGL/GUI/lvgl/src/core/lv_obj_scroll.c **** 
 428:Middlewares/LVGL/GUI/lvgl/src/core/lv_obj_scroll.c **** void lv_obj_get_scrollbar_area(lv_obj_t * obj, lv_area_t * hor_area, lv_area_t * ver_area)
 429:Middlewares/LVGL/GUI/lvgl/src/core/lv_obj_scroll.c **** {
ARM GAS  C:\Users\ADMINI~1\AppData\Local\Temp\cchMZgMB.s 			page 9


 430:Middlewares/LVGL/GUI/lvgl/src/core/lv_obj_scroll.c ****     lv_area_set(hor_area, 0, 0, -1, -1);
 431:Middlewares/LVGL/GUI/lvgl/src/core/lv_obj_scroll.c ****     lv_area_set(ver_area, 0, 0, -1, -1);
 432:Middlewares/LVGL/GUI/lvgl/src/core/lv_obj_scroll.c **** 
 433:Middlewares/LVGL/GUI/lvgl/src/core/lv_obj_scroll.c ****     if(lv_obj_has_flag(obj, LV_OBJ_FLAG_SCROLLABLE) == false) return;
 434:Middlewares/LVGL/GUI/lvgl/src/core/lv_obj_scroll.c **** 
 435:Middlewares/LVGL/GUI/lvgl/src/core/lv_obj_scroll.c ****     lv_dir_t sm = lv_obj_get_scrollbar_mode(obj);
 436:Middlewares/LVGL/GUI/lvgl/src/core/lv_obj_scroll.c ****     if(sm == LV_SCROLLBAR_MODE_OFF)  return;
 437:Middlewares/LVGL/GUI/lvgl/src/core/lv_obj_scroll.c **** 
 438:Middlewares/LVGL/GUI/lvgl/src/core/lv_obj_scroll.c ****     /*If there is no indev scrolling this object but `mode==active` return*/
 439:Middlewares/LVGL/GUI/lvgl/src/core/lv_obj_scroll.c ****     lv_indev_t * indev = lv_indev_get_next(NULL);
 440:Middlewares/LVGL/GUI/lvgl/src/core/lv_obj_scroll.c ****     if(sm == LV_SCROLLBAR_MODE_ACTIVE) {
 441:Middlewares/LVGL/GUI/lvgl/src/core/lv_obj_scroll.c ****         while(indev) {
 442:Middlewares/LVGL/GUI/lvgl/src/core/lv_obj_scroll.c ****             if(lv_indev_get_scroll_obj(indev) == obj) break;
 443:Middlewares/LVGL/GUI/lvgl/src/core/lv_obj_scroll.c ****             indev = lv_indev_get_next(indev);
 444:Middlewares/LVGL/GUI/lvgl/src/core/lv_obj_scroll.c ****         }
 445:Middlewares/LVGL/GUI/lvgl/src/core/lv_obj_scroll.c ****         if(indev == NULL)  return;
 446:Middlewares/LVGL/GUI/lvgl/src/core/lv_obj_scroll.c ****     }
 447:Middlewares/LVGL/GUI/lvgl/src/core/lv_obj_scroll.c **** 
 448:Middlewares/LVGL/GUI/lvgl/src/core/lv_obj_scroll.c ****     lv_coord_t st = lv_obj_get_scroll_top(obj);
 449:Middlewares/LVGL/GUI/lvgl/src/core/lv_obj_scroll.c ****     lv_coord_t sb = lv_obj_get_scroll_bottom(obj);
 450:Middlewares/LVGL/GUI/lvgl/src/core/lv_obj_scroll.c ****     lv_coord_t sl = lv_obj_get_scroll_left(obj);
 451:Middlewares/LVGL/GUI/lvgl/src/core/lv_obj_scroll.c ****     lv_coord_t sr = lv_obj_get_scroll_right(obj);
 452:Middlewares/LVGL/GUI/lvgl/src/core/lv_obj_scroll.c **** 
 453:Middlewares/LVGL/GUI/lvgl/src/core/lv_obj_scroll.c ****     lv_dir_t dir = lv_obj_get_scroll_dir(obj);
 454:Middlewares/LVGL/GUI/lvgl/src/core/lv_obj_scroll.c **** 
 455:Middlewares/LVGL/GUI/lvgl/src/core/lv_obj_scroll.c ****     bool ver_draw = false;
 456:Middlewares/LVGL/GUI/lvgl/src/core/lv_obj_scroll.c ****     if((dir & LV_DIR_VER) &&
 457:Middlewares/LVGL/GUI/lvgl/src/core/lv_obj_scroll.c ****        ((sm == LV_SCROLLBAR_MODE_ON) ||
 458:Middlewares/LVGL/GUI/lvgl/src/core/lv_obj_scroll.c ****         (sm == LV_SCROLLBAR_MODE_AUTO && (st > 0 || sb > 0)) ||
 459:Middlewares/LVGL/GUI/lvgl/src/core/lv_obj_scroll.c ****         (sm == LV_SCROLLBAR_MODE_ACTIVE && lv_indev_get_scroll_dir(indev) == LV_DIR_VER))) {
 460:Middlewares/LVGL/GUI/lvgl/src/core/lv_obj_scroll.c ****         ver_draw = true;
 461:Middlewares/LVGL/GUI/lvgl/src/core/lv_obj_scroll.c ****     }
 462:Middlewares/LVGL/GUI/lvgl/src/core/lv_obj_scroll.c **** 
 463:Middlewares/LVGL/GUI/lvgl/src/core/lv_obj_scroll.c **** 
 464:Middlewares/LVGL/GUI/lvgl/src/core/lv_obj_scroll.c ****     bool hor_draw = false;
 465:Middlewares/LVGL/GUI/lvgl/src/core/lv_obj_scroll.c ****     if((dir & LV_DIR_HOR) &&
 466:Middlewares/LVGL/GUI/lvgl/src/core/lv_obj_scroll.c ****        ((sm == LV_SCROLLBAR_MODE_ON) ||
 467:Middlewares/LVGL/GUI/lvgl/src/core/lv_obj_scroll.c ****         (sm == LV_SCROLLBAR_MODE_AUTO && (sl > 0 || sr > 0)) ||
 468:Middlewares/LVGL/GUI/lvgl/src/core/lv_obj_scroll.c ****         (sm == LV_SCROLLBAR_MODE_ACTIVE && lv_indev_get_scroll_dir(indev) == LV_DIR_HOR))) {
 469:Middlewares/LVGL/GUI/lvgl/src/core/lv_obj_scroll.c ****         hor_draw = true;
 470:Middlewares/LVGL/GUI/lvgl/src/core/lv_obj_scroll.c ****     }
 471:Middlewares/LVGL/GUI/lvgl/src/core/lv_obj_scroll.c **** 
 472:Middlewares/LVGL/GUI/lvgl/src/core/lv_obj_scroll.c ****     if(!hor_draw && !ver_draw) return;
 473:Middlewares/LVGL/GUI/lvgl/src/core/lv_obj_scroll.c **** 
 474:Middlewares/LVGL/GUI/lvgl/src/core/lv_obj_scroll.c ****     bool rtl = lv_obj_get_style_base_dir(obj, LV_PART_SCROLLBAR) == LV_BASE_DIR_RTL ? true : false;
 475:Middlewares/LVGL/GUI/lvgl/src/core/lv_obj_scroll.c **** 
 476:Middlewares/LVGL/GUI/lvgl/src/core/lv_obj_scroll.c ****     lv_coord_t top_space = lv_obj_get_style_pad_top(obj, LV_PART_SCROLLBAR);
 477:Middlewares/LVGL/GUI/lvgl/src/core/lv_obj_scroll.c ****     lv_coord_t bottom_space = lv_obj_get_style_pad_bottom(obj, LV_PART_SCROLLBAR);
 478:Middlewares/LVGL/GUI/lvgl/src/core/lv_obj_scroll.c ****     lv_coord_t left_space = lv_obj_get_style_pad_left(obj, LV_PART_SCROLLBAR);
 479:Middlewares/LVGL/GUI/lvgl/src/core/lv_obj_scroll.c ****     lv_coord_t right_space = lv_obj_get_style_pad_right(obj, LV_PART_SCROLLBAR);
 480:Middlewares/LVGL/GUI/lvgl/src/core/lv_obj_scroll.c ****     lv_coord_t tickness = lv_obj_get_style_width(obj, LV_PART_SCROLLBAR);
 481:Middlewares/LVGL/GUI/lvgl/src/core/lv_obj_scroll.c **** 
 482:Middlewares/LVGL/GUI/lvgl/src/core/lv_obj_scroll.c ****     lv_coord_t obj_h = lv_obj_get_height(obj);
 483:Middlewares/LVGL/GUI/lvgl/src/core/lv_obj_scroll.c ****     lv_coord_t obj_w = lv_obj_get_width(obj);
 484:Middlewares/LVGL/GUI/lvgl/src/core/lv_obj_scroll.c **** 
 485:Middlewares/LVGL/GUI/lvgl/src/core/lv_obj_scroll.c ****     /*Space required for the vertical and horizontal scrollbars*/
 486:Middlewares/LVGL/GUI/lvgl/src/core/lv_obj_scroll.c ****     lv_coord_t ver_reg_space = ver_draw ? tickness : 0;
ARM GAS  C:\Users\ADMINI~1\AppData\Local\Temp\cchMZgMB.s 			page 10


 487:Middlewares/LVGL/GUI/lvgl/src/core/lv_obj_scroll.c ****     lv_coord_t hor_req_space = hor_draw ? tickness : 0;
 488:Middlewares/LVGL/GUI/lvgl/src/core/lv_obj_scroll.c ****     lv_coord_t rem;
 489:Middlewares/LVGL/GUI/lvgl/src/core/lv_obj_scroll.c **** 
 490:Middlewares/LVGL/GUI/lvgl/src/core/lv_obj_scroll.c ****     if(lv_obj_get_style_bg_opa(obj, LV_PART_SCROLLBAR) < LV_OPA_MIN &&
 491:Middlewares/LVGL/GUI/lvgl/src/core/lv_obj_scroll.c ****        lv_obj_get_style_border_opa(obj, LV_PART_SCROLLBAR) < LV_OPA_MIN) {
 492:Middlewares/LVGL/GUI/lvgl/src/core/lv_obj_scroll.c ****         return;
 493:Middlewares/LVGL/GUI/lvgl/src/core/lv_obj_scroll.c ****     }
 494:Middlewares/LVGL/GUI/lvgl/src/core/lv_obj_scroll.c **** 
 495:Middlewares/LVGL/GUI/lvgl/src/core/lv_obj_scroll.c ****     /*Draw vertical scrollbar if the mode is ON or can be scrolled in this direction*/
 496:Middlewares/LVGL/GUI/lvgl/src/core/lv_obj_scroll.c ****     lv_coord_t content_h = obj_h + st + sb;
 497:Middlewares/LVGL/GUI/lvgl/src/core/lv_obj_scroll.c ****     if(ver_draw && content_h) {
 498:Middlewares/LVGL/GUI/lvgl/src/core/lv_obj_scroll.c ****         ver_area->y1 = obj->coords.y1;
 499:Middlewares/LVGL/GUI/lvgl/src/core/lv_obj_scroll.c ****         ver_area->y2 = obj->coords.y2;
 500:Middlewares/LVGL/GUI/lvgl/src/core/lv_obj_scroll.c ****         if(rtl) {
 501:Middlewares/LVGL/GUI/lvgl/src/core/lv_obj_scroll.c ****             ver_area->x1 = obj->coords.x1 + left_space;
 502:Middlewares/LVGL/GUI/lvgl/src/core/lv_obj_scroll.c ****             ver_area->x2 = ver_area->x1 + tickness - 1;
 503:Middlewares/LVGL/GUI/lvgl/src/core/lv_obj_scroll.c ****         }
 504:Middlewares/LVGL/GUI/lvgl/src/core/lv_obj_scroll.c ****         else {
 505:Middlewares/LVGL/GUI/lvgl/src/core/lv_obj_scroll.c ****             ver_area->x2 = obj->coords.x2 - right_space;
 506:Middlewares/LVGL/GUI/lvgl/src/core/lv_obj_scroll.c ****             ver_area->x1 = ver_area->x2 - tickness + 1;
 507:Middlewares/LVGL/GUI/lvgl/src/core/lv_obj_scroll.c ****         }
 508:Middlewares/LVGL/GUI/lvgl/src/core/lv_obj_scroll.c **** 
 509:Middlewares/LVGL/GUI/lvgl/src/core/lv_obj_scroll.c ****         lv_coord_t sb_h = ((obj_h - top_space - bottom_space - hor_req_space) * obj_h) / content_h;
 510:Middlewares/LVGL/GUI/lvgl/src/core/lv_obj_scroll.c ****         sb_h = LV_MAX(sb_h, SCROLLBAR_MIN_SIZE);
 511:Middlewares/LVGL/GUI/lvgl/src/core/lv_obj_scroll.c ****         rem = (obj_h - top_space - bottom_space - hor_req_space) -
 512:Middlewares/LVGL/GUI/lvgl/src/core/lv_obj_scroll.c ****               sb_h;  /*Remaining size from the scrollbar track that is not the scrollbar itself*/
 513:Middlewares/LVGL/GUI/lvgl/src/core/lv_obj_scroll.c ****         lv_coord_t scroll_h = content_h - obj_h; /*The size of the content which can be really scro
 514:Middlewares/LVGL/GUI/lvgl/src/core/lv_obj_scroll.c ****         if(scroll_h <= 0) {
 515:Middlewares/LVGL/GUI/lvgl/src/core/lv_obj_scroll.c ****             ver_area->y1 = obj->coords.y1 + top_space;
 516:Middlewares/LVGL/GUI/lvgl/src/core/lv_obj_scroll.c ****             ver_area->y2 = obj->coords.y2 - bottom_space - hor_req_space - 1;
 517:Middlewares/LVGL/GUI/lvgl/src/core/lv_obj_scroll.c ****         }
 518:Middlewares/LVGL/GUI/lvgl/src/core/lv_obj_scroll.c ****         else {
 519:Middlewares/LVGL/GUI/lvgl/src/core/lv_obj_scroll.c ****             lv_coord_t sb_y = (rem * sb) / scroll_h;
 520:Middlewares/LVGL/GUI/lvgl/src/core/lv_obj_scroll.c ****             sb_y = rem - sb_y;
 521:Middlewares/LVGL/GUI/lvgl/src/core/lv_obj_scroll.c **** 
 522:Middlewares/LVGL/GUI/lvgl/src/core/lv_obj_scroll.c ****             ver_area->y1 = obj->coords.y1 + sb_y + top_space;
 523:Middlewares/LVGL/GUI/lvgl/src/core/lv_obj_scroll.c ****             ver_area->y2 = ver_area->y1 + sb_h - 1;
 524:Middlewares/LVGL/GUI/lvgl/src/core/lv_obj_scroll.c ****             if(ver_area->y1 < obj->coords.y1 + top_space) {
 525:Middlewares/LVGL/GUI/lvgl/src/core/lv_obj_scroll.c ****                 ver_area->y1 = obj->coords.y1 + top_space;
 526:Middlewares/LVGL/GUI/lvgl/src/core/lv_obj_scroll.c ****                 if(ver_area->y1 + SCROLLBAR_MIN_SIZE > ver_area->y2) {
 527:Middlewares/LVGL/GUI/lvgl/src/core/lv_obj_scroll.c ****                     ver_area->y2 = ver_area->y1 + SCROLLBAR_MIN_SIZE;
 528:Middlewares/LVGL/GUI/lvgl/src/core/lv_obj_scroll.c ****                 }
 529:Middlewares/LVGL/GUI/lvgl/src/core/lv_obj_scroll.c ****             }
 530:Middlewares/LVGL/GUI/lvgl/src/core/lv_obj_scroll.c ****             if(ver_area->y2 > obj->coords.y2 - hor_req_space - bottom_space) {
 531:Middlewares/LVGL/GUI/lvgl/src/core/lv_obj_scroll.c ****                 ver_area->y2 = obj->coords.y2 - hor_req_space - bottom_space;
 532:Middlewares/LVGL/GUI/lvgl/src/core/lv_obj_scroll.c ****                 if(ver_area->y2 - SCROLLBAR_MIN_SIZE < ver_area->y1) {
 533:Middlewares/LVGL/GUI/lvgl/src/core/lv_obj_scroll.c ****                     ver_area->y1 = ver_area->y2 - SCROLLBAR_MIN_SIZE;
 534:Middlewares/LVGL/GUI/lvgl/src/core/lv_obj_scroll.c ****                 }
 535:Middlewares/LVGL/GUI/lvgl/src/core/lv_obj_scroll.c ****             }
 536:Middlewares/LVGL/GUI/lvgl/src/core/lv_obj_scroll.c ****         }
 537:Middlewares/LVGL/GUI/lvgl/src/core/lv_obj_scroll.c ****     }
 538:Middlewares/LVGL/GUI/lvgl/src/core/lv_obj_scroll.c **** 
 539:Middlewares/LVGL/GUI/lvgl/src/core/lv_obj_scroll.c ****     /*Draw horizontal scrollbar if the mode is ON or can be scrolled in this direction*/
 540:Middlewares/LVGL/GUI/lvgl/src/core/lv_obj_scroll.c ****     lv_coord_t content_w = obj_w + sl + sr;
 541:Middlewares/LVGL/GUI/lvgl/src/core/lv_obj_scroll.c ****     if(hor_draw && content_w) {
 542:Middlewares/LVGL/GUI/lvgl/src/core/lv_obj_scroll.c ****         hor_area->y2 = obj->coords.y2 - bottom_space;
 543:Middlewares/LVGL/GUI/lvgl/src/core/lv_obj_scroll.c ****         hor_area->y1 = hor_area->y2 - tickness + 1;
ARM GAS  C:\Users\ADMINI~1\AppData\Local\Temp\cchMZgMB.s 			page 11


 544:Middlewares/LVGL/GUI/lvgl/src/core/lv_obj_scroll.c ****         hor_area->x1 = obj->coords.x1;
 545:Middlewares/LVGL/GUI/lvgl/src/core/lv_obj_scroll.c ****         hor_area->x2 = obj->coords.x2;
 546:Middlewares/LVGL/GUI/lvgl/src/core/lv_obj_scroll.c **** 
 547:Middlewares/LVGL/GUI/lvgl/src/core/lv_obj_scroll.c ****         lv_coord_t sb_w = ((obj_w - left_space - right_space - ver_reg_space) * obj_w) / content_w;
 548:Middlewares/LVGL/GUI/lvgl/src/core/lv_obj_scroll.c ****         sb_w = LV_MAX(sb_w, SCROLLBAR_MIN_SIZE);
 549:Middlewares/LVGL/GUI/lvgl/src/core/lv_obj_scroll.c ****         rem = (obj_w - left_space - right_space - ver_reg_space) -
 550:Middlewares/LVGL/GUI/lvgl/src/core/lv_obj_scroll.c ****               sb_w;  /*Remaining size from the scrollbar track that is not the scrollbar itself*/
 551:Middlewares/LVGL/GUI/lvgl/src/core/lv_obj_scroll.c ****         lv_coord_t scroll_w = content_w - obj_w; /*The size of the content which can be really scro
 552:Middlewares/LVGL/GUI/lvgl/src/core/lv_obj_scroll.c ****         if(scroll_w <= 0) {
 553:Middlewares/LVGL/GUI/lvgl/src/core/lv_obj_scroll.c ****             if(rtl) {
 554:Middlewares/LVGL/GUI/lvgl/src/core/lv_obj_scroll.c ****                 hor_area->x1 = obj->coords.x1 + left_space + ver_reg_space - 1;
 555:Middlewares/LVGL/GUI/lvgl/src/core/lv_obj_scroll.c ****                 hor_area->x2 = obj->coords.x2 - right_space;
 556:Middlewares/LVGL/GUI/lvgl/src/core/lv_obj_scroll.c ****             }
 557:Middlewares/LVGL/GUI/lvgl/src/core/lv_obj_scroll.c ****             else {
 558:Middlewares/LVGL/GUI/lvgl/src/core/lv_obj_scroll.c ****                 hor_area->x1 = obj->coords.x1 + left_space;
 559:Middlewares/LVGL/GUI/lvgl/src/core/lv_obj_scroll.c ****                 hor_area->x2 = obj->coords.x2 - right_space - ver_reg_space - 1;
 560:Middlewares/LVGL/GUI/lvgl/src/core/lv_obj_scroll.c ****             }
 561:Middlewares/LVGL/GUI/lvgl/src/core/lv_obj_scroll.c ****         }
 562:Middlewares/LVGL/GUI/lvgl/src/core/lv_obj_scroll.c ****         else {
 563:Middlewares/LVGL/GUI/lvgl/src/core/lv_obj_scroll.c ****             lv_coord_t sb_x = (rem * sr) / scroll_w;
 564:Middlewares/LVGL/GUI/lvgl/src/core/lv_obj_scroll.c ****             sb_x = rem - sb_x;
 565:Middlewares/LVGL/GUI/lvgl/src/core/lv_obj_scroll.c **** 
 566:Middlewares/LVGL/GUI/lvgl/src/core/lv_obj_scroll.c ****             if(rtl) {
 567:Middlewares/LVGL/GUI/lvgl/src/core/lv_obj_scroll.c ****                 hor_area->x1 = obj->coords.x1 + sb_x + left_space + ver_reg_space;
 568:Middlewares/LVGL/GUI/lvgl/src/core/lv_obj_scroll.c ****                 hor_area->x2 = hor_area->x1 + sb_w - 1;
 569:Middlewares/LVGL/GUI/lvgl/src/core/lv_obj_scroll.c ****                 if(hor_area->x1 < obj->coords.x1 + left_space + ver_reg_space) {
 570:Middlewares/LVGL/GUI/lvgl/src/core/lv_obj_scroll.c ****                     hor_area->x1 = obj->coords.x1 + left_space + ver_reg_space;
 571:Middlewares/LVGL/GUI/lvgl/src/core/lv_obj_scroll.c ****                     if(hor_area->x1 + SCROLLBAR_MIN_SIZE > hor_area->x2) {
 572:Middlewares/LVGL/GUI/lvgl/src/core/lv_obj_scroll.c ****                         hor_area->x2 = hor_area->x1 + SCROLLBAR_MIN_SIZE;
 573:Middlewares/LVGL/GUI/lvgl/src/core/lv_obj_scroll.c ****                     }
 574:Middlewares/LVGL/GUI/lvgl/src/core/lv_obj_scroll.c ****                 }
 575:Middlewares/LVGL/GUI/lvgl/src/core/lv_obj_scroll.c ****                 if(hor_area->x2 > obj->coords.x2 - right_space) {
 576:Middlewares/LVGL/GUI/lvgl/src/core/lv_obj_scroll.c ****                     hor_area->x2 = obj->coords.x2 - right_space;
 577:Middlewares/LVGL/GUI/lvgl/src/core/lv_obj_scroll.c ****                     if(hor_area->x2 - SCROLLBAR_MIN_SIZE < hor_area->x1) {
 578:Middlewares/LVGL/GUI/lvgl/src/core/lv_obj_scroll.c ****                         hor_area->x1 = hor_area->x2 - SCROLLBAR_MIN_SIZE;
 579:Middlewares/LVGL/GUI/lvgl/src/core/lv_obj_scroll.c ****                     }
 580:Middlewares/LVGL/GUI/lvgl/src/core/lv_obj_scroll.c ****                 }
 581:Middlewares/LVGL/GUI/lvgl/src/core/lv_obj_scroll.c ****             }
 582:Middlewares/LVGL/GUI/lvgl/src/core/lv_obj_scroll.c ****             else {
 583:Middlewares/LVGL/GUI/lvgl/src/core/lv_obj_scroll.c ****                 hor_area->x1 = obj->coords.x1 + sb_x + left_space;
 584:Middlewares/LVGL/GUI/lvgl/src/core/lv_obj_scroll.c ****                 hor_area->x2 = hor_area->x1 + sb_w - 1;
 585:Middlewares/LVGL/GUI/lvgl/src/core/lv_obj_scroll.c ****                 if(hor_area->x1 < obj->coords.x1 + left_space) {
 586:Middlewares/LVGL/GUI/lvgl/src/core/lv_obj_scroll.c ****                     hor_area->x1 = obj->coords.x1 + left_space;
 587:Middlewares/LVGL/GUI/lvgl/src/core/lv_obj_scroll.c ****                     if(hor_area->x1 + SCROLLBAR_MIN_SIZE > hor_area->x2) {
 588:Middlewares/LVGL/GUI/lvgl/src/core/lv_obj_scroll.c ****                         hor_area->x2 = hor_area->x1 + SCROLLBAR_MIN_SIZE;
 589:Middlewares/LVGL/GUI/lvgl/src/core/lv_obj_scroll.c ****                     }
 590:Middlewares/LVGL/GUI/lvgl/src/core/lv_obj_scroll.c ****                 }
 591:Middlewares/LVGL/GUI/lvgl/src/core/lv_obj_scroll.c ****                 if(hor_area->x2 > obj->coords.x2 - ver_reg_space - right_space) {
 592:Middlewares/LVGL/GUI/lvgl/src/core/lv_obj_scroll.c ****                     hor_area->x2 = obj->coords.x2 - ver_reg_space - right_space;
 593:Middlewares/LVGL/GUI/lvgl/src/core/lv_obj_scroll.c ****                     if(hor_area->x2 - SCROLLBAR_MIN_SIZE < hor_area->x1) {
 594:Middlewares/LVGL/GUI/lvgl/src/core/lv_obj_scroll.c ****                         hor_area->x1 = hor_area->x2 - SCROLLBAR_MIN_SIZE;
 595:Middlewares/LVGL/GUI/lvgl/src/core/lv_obj_scroll.c ****                     }
 596:Middlewares/LVGL/GUI/lvgl/src/core/lv_obj_scroll.c ****                 }
 597:Middlewares/LVGL/GUI/lvgl/src/core/lv_obj_scroll.c ****             }
 598:Middlewares/LVGL/GUI/lvgl/src/core/lv_obj_scroll.c ****         }
 599:Middlewares/LVGL/GUI/lvgl/src/core/lv_obj_scroll.c ****     }
 600:Middlewares/LVGL/GUI/lvgl/src/core/lv_obj_scroll.c **** }
ARM GAS  C:\Users\ADMINI~1\AppData\Local\Temp\cchMZgMB.s 			page 12


 601:Middlewares/LVGL/GUI/lvgl/src/core/lv_obj_scroll.c **** 
 602:Middlewares/LVGL/GUI/lvgl/src/core/lv_obj_scroll.c **** void lv_obj_scrollbar_invalidate(lv_obj_t * obj)
 603:Middlewares/LVGL/GUI/lvgl/src/core/lv_obj_scroll.c **** {
 604:Middlewares/LVGL/GUI/lvgl/src/core/lv_obj_scroll.c ****     lv_area_t hor_area;
 605:Middlewares/LVGL/GUI/lvgl/src/core/lv_obj_scroll.c ****     lv_area_t ver_area;
 606:Middlewares/LVGL/GUI/lvgl/src/core/lv_obj_scroll.c ****     lv_obj_get_scrollbar_area(obj, &hor_area, &ver_area);
 607:Middlewares/LVGL/GUI/lvgl/src/core/lv_obj_scroll.c **** 
 608:Middlewares/LVGL/GUI/lvgl/src/core/lv_obj_scroll.c ****     if(lv_area_get_size(&hor_area) <= 0 && lv_area_get_size(&ver_area) <= 0) return;
 609:Middlewares/LVGL/GUI/lvgl/src/core/lv_obj_scroll.c **** 
 610:Middlewares/LVGL/GUI/lvgl/src/core/lv_obj_scroll.c ****     if(lv_area_get_size(&hor_area) > 0) lv_obj_invalidate_area(obj, &hor_area);
 611:Middlewares/LVGL/GUI/lvgl/src/core/lv_obj_scroll.c ****     if(lv_area_get_size(&ver_area) > 0) lv_obj_invalidate_area(obj, &ver_area);
 612:Middlewares/LVGL/GUI/lvgl/src/core/lv_obj_scroll.c **** }
 613:Middlewares/LVGL/GUI/lvgl/src/core/lv_obj_scroll.c **** 
 614:Middlewares/LVGL/GUI/lvgl/src/core/lv_obj_scroll.c **** void lv_obj_readjust_scroll(lv_obj_t * obj, lv_anim_enable_t anim_en)
 615:Middlewares/LVGL/GUI/lvgl/src/core/lv_obj_scroll.c **** {
 616:Middlewares/LVGL/GUI/lvgl/src/core/lv_obj_scroll.c ****     /*Be sure the bottom side is not remains scrolled in*/
 617:Middlewares/LVGL/GUI/lvgl/src/core/lv_obj_scroll.c ****     /*With snapping the content can't be scrolled in*/
 618:Middlewares/LVGL/GUI/lvgl/src/core/lv_obj_scroll.c ****     if(lv_obj_get_scroll_snap_y(obj) == LV_SCROLL_SNAP_NONE) {
 619:Middlewares/LVGL/GUI/lvgl/src/core/lv_obj_scroll.c ****         lv_coord_t st = lv_obj_get_scroll_top(obj);
 620:Middlewares/LVGL/GUI/lvgl/src/core/lv_obj_scroll.c ****         lv_coord_t sb = lv_obj_get_scroll_bottom(obj);
 621:Middlewares/LVGL/GUI/lvgl/src/core/lv_obj_scroll.c ****         if(sb < 0 && st > 0) {
 622:Middlewares/LVGL/GUI/lvgl/src/core/lv_obj_scroll.c ****             sb = LV_MIN(st, -sb);
 623:Middlewares/LVGL/GUI/lvgl/src/core/lv_obj_scroll.c ****             lv_obj_scroll_by(obj, 0, sb, anim_en);
 624:Middlewares/LVGL/GUI/lvgl/src/core/lv_obj_scroll.c ****         }
 625:Middlewares/LVGL/GUI/lvgl/src/core/lv_obj_scroll.c ****     }
 626:Middlewares/LVGL/GUI/lvgl/src/core/lv_obj_scroll.c **** 
 627:Middlewares/LVGL/GUI/lvgl/src/core/lv_obj_scroll.c ****     if(lv_obj_get_scroll_snap_x(obj) == LV_SCROLL_SNAP_NONE) {
 628:Middlewares/LVGL/GUI/lvgl/src/core/lv_obj_scroll.c ****         lv_coord_t sl = lv_obj_get_scroll_left(obj);
 629:Middlewares/LVGL/GUI/lvgl/src/core/lv_obj_scroll.c ****         lv_coord_t sr = lv_obj_get_scroll_right(obj);
 630:Middlewares/LVGL/GUI/lvgl/src/core/lv_obj_scroll.c ****         if(lv_obj_get_style_base_dir(obj, LV_PART_MAIN) != LV_BASE_DIR_RTL) {
 631:Middlewares/LVGL/GUI/lvgl/src/core/lv_obj_scroll.c ****             /*Be sure the left side is not remains scrolled in*/
 632:Middlewares/LVGL/GUI/lvgl/src/core/lv_obj_scroll.c ****             if(sr < 0 && sl > 0) {
 633:Middlewares/LVGL/GUI/lvgl/src/core/lv_obj_scroll.c ****                 sr = LV_MIN(sl, -sr);
 634:Middlewares/LVGL/GUI/lvgl/src/core/lv_obj_scroll.c ****                 lv_obj_scroll_by(obj, sr, 0, anim_en);
 635:Middlewares/LVGL/GUI/lvgl/src/core/lv_obj_scroll.c ****             }
 636:Middlewares/LVGL/GUI/lvgl/src/core/lv_obj_scroll.c ****         }
 637:Middlewares/LVGL/GUI/lvgl/src/core/lv_obj_scroll.c ****         else {
 638:Middlewares/LVGL/GUI/lvgl/src/core/lv_obj_scroll.c ****             /*Be sure the right side is not remains scrolled in*/
 639:Middlewares/LVGL/GUI/lvgl/src/core/lv_obj_scroll.c ****             if(sl < 0 && sr > 0) {
 640:Middlewares/LVGL/GUI/lvgl/src/core/lv_obj_scroll.c ****                 sr = LV_MIN(sr, -sl);
 641:Middlewares/LVGL/GUI/lvgl/src/core/lv_obj_scroll.c ****                 lv_obj_scroll_by(obj, sl, 0, anim_en);
 642:Middlewares/LVGL/GUI/lvgl/src/core/lv_obj_scroll.c ****             }
 643:Middlewares/LVGL/GUI/lvgl/src/core/lv_obj_scroll.c ****         }
 644:Middlewares/LVGL/GUI/lvgl/src/core/lv_obj_scroll.c ****     }
 645:Middlewares/LVGL/GUI/lvgl/src/core/lv_obj_scroll.c **** }
 646:Middlewares/LVGL/GUI/lvgl/src/core/lv_obj_scroll.c **** 
 647:Middlewares/LVGL/GUI/lvgl/src/core/lv_obj_scroll.c **** /**********************
 648:Middlewares/LVGL/GUI/lvgl/src/core/lv_obj_scroll.c ****  *   STATIC FUNCTIONS
 649:Middlewares/LVGL/GUI/lvgl/src/core/lv_obj_scroll.c ****  **********************/
 650:Middlewares/LVGL/GUI/lvgl/src/core/lv_obj_scroll.c **** 
 651:Middlewares/LVGL/GUI/lvgl/src/core/lv_obj_scroll.c **** static void scroll_by_raw(lv_obj_t * obj, lv_coord_t x, lv_coord_t y)
 652:Middlewares/LVGL/GUI/lvgl/src/core/lv_obj_scroll.c **** {
  29              		.loc 1 652 1 view -0
  30              		.cfi_startproc
  31              		@ args = 0, pretend = 0, frame = 0
  32              		@ frame_needed = 0, uses_anonymous_args = 0
  33              		.loc 1 652 1 is_stmt 0 view .LVU1
ARM GAS  C:\Users\ADMINI~1\AppData\Local\Temp\cchMZgMB.s 			page 13


  34 0000 70B5     		push	{r4, r5, r6, lr}
  35              	.LCFI0:
  36              		.cfi_def_cfa_offset 16
  37              		.cfi_offset 4, -16
  38              		.cfi_offset 5, -12
  39              		.cfi_offset 6, -8
  40              		.cfi_offset 14, -4
  41 0002 0446     		mov	r4, r0
  42 0004 1546     		mov	r5, r2
 653:Middlewares/LVGL/GUI/lvgl/src/core/lv_obj_scroll.c ****     if(x == 0 && y == 0) return;
  43              		.loc 1 653 5 is_stmt 1 view .LVU2
  44              		.loc 1 653 7 is_stmt 0 view .LVU3
  45 0006 0E46     		mov	r6, r1
  46 0008 01B9     		cbnz	r1, .L2
  47              		.loc 1 653 15 discriminator 1 view .LVU4
  48 000a BAB1     		cbz	r2, .L1
  49              	.L2:
 654:Middlewares/LVGL/GUI/lvgl/src/core/lv_obj_scroll.c **** 
 655:Middlewares/LVGL/GUI/lvgl/src/core/lv_obj_scroll.c ****     lv_obj_allocate_spec_attr(obj);
  50              		.loc 1 655 5 is_stmt 1 view .LVU5
  51 000c 2046     		mov	r0, r4
  52              	.LVL1:
  53              		.loc 1 655 5 is_stmt 0 view .LVU6
  54 000e FFF7FEFF 		bl	lv_obj_allocate_spec_attr
  55              	.LVL2:
 656:Middlewares/LVGL/GUI/lvgl/src/core/lv_obj_scroll.c **** 
 657:Middlewares/LVGL/GUI/lvgl/src/core/lv_obj_scroll.c ****     obj->spec_attr->scroll.x += x;
  56              		.loc 1 657 5 is_stmt 1 view .LVU7
  57              		.loc 1 657 8 is_stmt 0 view .LVU8
  58 0012 A268     		ldr	r2, [r4, #8]
  59              		.loc 1 657 30 view .LVU9
  60 0014 1369     		ldr	r3, [r2, #16]
  61 0016 3344     		add	r3, r3, r6
  62 0018 1361     		str	r3, [r2, #16]
 658:Middlewares/LVGL/GUI/lvgl/src/core/lv_obj_scroll.c ****     obj->spec_attr->scroll.y += y;
  63              		.loc 1 658 5 is_stmt 1 view .LVU10
  64              		.loc 1 658 8 is_stmt 0 view .LVU11
  65 001a A268     		ldr	r2, [r4, #8]
  66              		.loc 1 658 30 view .LVU12
  67 001c 5369     		ldr	r3, [r2, #20]
  68 001e 2B44     		add	r3, r3, r5
  69 0020 5361     		str	r3, [r2, #20]
 659:Middlewares/LVGL/GUI/lvgl/src/core/lv_obj_scroll.c **** 
 660:Middlewares/LVGL/GUI/lvgl/src/core/lv_obj_scroll.c ****     lv_obj_move_children_by(obj, x, y, true);
  70              		.loc 1 660 5 is_stmt 1 view .LVU13
  71 0022 0123     		movs	r3, #1
  72 0024 2A46     		mov	r2, r5
  73 0026 3146     		mov	r1, r6
  74 0028 2046     		mov	r0, r4
  75 002a FFF7FEFF 		bl	lv_obj_move_children_by
  76              	.LVL3:
 661:Middlewares/LVGL/GUI/lvgl/src/core/lv_obj_scroll.c ****     lv_res_t res = lv_event_send(obj, LV_EVENT_SCROLL, NULL);
  77              		.loc 1 661 5 view .LVU14
  78              		.loc 1 661 20 is_stmt 0 view .LVU15
  79 002e 0022     		movs	r2, #0
  80 0030 0B21     		movs	r1, #11
  81 0032 2046     		mov	r0, r4
ARM GAS  C:\Users\ADMINI~1\AppData\Local\Temp\cchMZgMB.s 			page 14


  82 0034 FFF7FEFF 		bl	lv_event_send
  83              	.LVL4:
 662:Middlewares/LVGL/GUI/lvgl/src/core/lv_obj_scroll.c ****     if(res != LV_RES_OK) return;
  84              		.loc 1 662 5 is_stmt 1 view .LVU16
  85              		.loc 1 662 7 is_stmt 0 view .LVU17
  86 0038 0128     		cmp	r0, #1
  87 003a 00D0     		beq	.L5
  88              	.LVL5:
  89              	.L1:
 663:Middlewares/LVGL/GUI/lvgl/src/core/lv_obj_scroll.c ****     lv_obj_invalidate(obj);
 664:Middlewares/LVGL/GUI/lvgl/src/core/lv_obj_scroll.c **** }
  90              		.loc 1 664 1 view .LVU18
  91 003c 70BD     		pop	{r4, r5, r6, pc}
  92              	.LVL6:
  93              	.L5:
 663:Middlewares/LVGL/GUI/lvgl/src/core/lv_obj_scroll.c ****     lv_obj_invalidate(obj);
  94              		.loc 1 663 5 is_stmt 1 view .LVU19
  95 003e 2046     		mov	r0, r4
  96              	.LVL7:
 663:Middlewares/LVGL/GUI/lvgl/src/core/lv_obj_scroll.c ****     lv_obj_invalidate(obj);
  97              		.loc 1 663 5 is_stmt 0 view .LVU20
  98 0040 FFF7FEFF 		bl	lv_obj_invalidate
  99              	.LVL8:
 100 0044 FAE7     		b	.L1
 101              		.cfi_endproc
 102              	.LFE186:
 104              		.section	.text.scroll_anim_ready_cb,"ax",%progbits
 105              		.align	1
 106              		.syntax unified
 107              		.thumb
 108              		.thumb_func
 110              	scroll_anim_ready_cb:
 111              	.LVL9:
 112              	.LFB189:
 665:Middlewares/LVGL/GUI/lvgl/src/core/lv_obj_scroll.c **** 
 666:Middlewares/LVGL/GUI/lvgl/src/core/lv_obj_scroll.c **** static void scroll_x_anim(void * obj, int32_t v)
 667:Middlewares/LVGL/GUI/lvgl/src/core/lv_obj_scroll.c **** {
 668:Middlewares/LVGL/GUI/lvgl/src/core/lv_obj_scroll.c ****     scroll_by_raw(obj, v + lv_obj_get_scroll_x(obj), 0);
 669:Middlewares/LVGL/GUI/lvgl/src/core/lv_obj_scroll.c **** }
 670:Middlewares/LVGL/GUI/lvgl/src/core/lv_obj_scroll.c **** 
 671:Middlewares/LVGL/GUI/lvgl/src/core/lv_obj_scroll.c **** static void scroll_y_anim(void * obj, int32_t v)
 672:Middlewares/LVGL/GUI/lvgl/src/core/lv_obj_scroll.c **** {
 673:Middlewares/LVGL/GUI/lvgl/src/core/lv_obj_scroll.c ****     scroll_by_raw(obj, 0, v + lv_obj_get_scroll_y(obj));
 674:Middlewares/LVGL/GUI/lvgl/src/core/lv_obj_scroll.c **** }
 675:Middlewares/LVGL/GUI/lvgl/src/core/lv_obj_scroll.c **** 
 676:Middlewares/LVGL/GUI/lvgl/src/core/lv_obj_scroll.c **** static void scroll_anim_ready_cb(lv_anim_t * a)
 677:Middlewares/LVGL/GUI/lvgl/src/core/lv_obj_scroll.c **** {
 113              		.loc 1 677 1 is_stmt 1 view -0
 114              		.cfi_startproc
 115              		@ args = 0, pretend = 0, frame = 0
 116              		@ frame_needed = 0, uses_anonymous_args = 0
 117              		.loc 1 677 1 is_stmt 0 view .LVU22
 118 0000 08B5     		push	{r3, lr}
 119              	.LCFI1:
 120              		.cfi_def_cfa_offset 8
 121              		.cfi_offset 3, -8
 122              		.cfi_offset 14, -4
ARM GAS  C:\Users\ADMINI~1\AppData\Local\Temp\cchMZgMB.s 			page 15


 678:Middlewares/LVGL/GUI/lvgl/src/core/lv_obj_scroll.c ****     lv_event_send(a->var, LV_EVENT_SCROLL_END, NULL);
 123              		.loc 1 678 5 is_stmt 1 view .LVU23
 124 0002 0022     		movs	r2, #0
 125 0004 0A21     		movs	r1, #10
 126 0006 0068     		ldr	r0, [r0]
 127              	.LVL10:
 128              		.loc 1 678 5 is_stmt 0 view .LVU24
 129 0008 FFF7FEFF 		bl	lv_event_send
 130              	.LVL11:
 679:Middlewares/LVGL/GUI/lvgl/src/core/lv_obj_scroll.c **** }
 131              		.loc 1 679 1 view .LVU25
 132 000c 08BD     		pop	{r3, pc}
 133              		.cfi_endproc
 134              	.LFE189:
 136              		.section	.text.lv_obj_set_scrollbar_mode,"ax",%progbits
 137              		.align	1
 138              		.global	lv_obj_set_scrollbar_mode
 139              		.syntax unified
 140              		.thumb
 141              		.thumb_func
 143              	lv_obj_set_scrollbar_mode:
 144              	.LVL12:
 145              	.LFB159:
  58:Middlewares/LVGL/GUI/lvgl/src/core/lv_obj_scroll.c ****     LV_ASSERT_OBJ(obj, MY_CLASS);
 146              		.loc 1 58 1 is_stmt 1 view -0
 147              		.cfi_startproc
 148              		@ args = 0, pretend = 0, frame = 0
 149              		@ frame_needed = 0, uses_anonymous_args = 0
  58:Middlewares/LVGL/GUI/lvgl/src/core/lv_obj_scroll.c ****     LV_ASSERT_OBJ(obj, MY_CLASS);
 150              		.loc 1 58 1 is_stmt 0 view .LVU27
 151 0000 38B5     		push	{r3, r4, r5, lr}
 152              	.LCFI2:
 153              		.cfi_def_cfa_offset 16
 154              		.cfi_offset 3, -16
 155              		.cfi_offset 4, -12
 156              		.cfi_offset 5, -8
 157              		.cfi_offset 14, -4
 158 0002 0446     		mov	r4, r0
 159 0004 0D46     		mov	r5, r1
  59:Middlewares/LVGL/GUI/lvgl/src/core/lv_obj_scroll.c **** 
 160              		.loc 1 59 5 is_stmt 1 view .LVU28
  59:Middlewares/LVGL/GUI/lvgl/src/core/lv_obj_scroll.c **** 
 161              		.loc 1 59 5 view .LVU29
  59:Middlewares/LVGL/GUI/lvgl/src/core/lv_obj_scroll.c **** 
 162              		.loc 1 59 5 view .LVU30
  61:Middlewares/LVGL/GUI/lvgl/src/core/lv_obj_scroll.c **** 
 163              		.loc 1 61 5 view .LVU31
 164 0006 FFF7FEFF 		bl	lv_obj_allocate_spec_attr
 165              	.LVL13:
  63:Middlewares/LVGL/GUI/lvgl/src/core/lv_obj_scroll.c ****     obj->spec_attr->scrollbar_mode = mode;
 166              		.loc 1 63 5 view .LVU32
  63:Middlewares/LVGL/GUI/lvgl/src/core/lv_obj_scroll.c ****     obj->spec_attr->scrollbar_mode = mode;
 167              		.loc 1 63 11 is_stmt 0 view .LVU33
 168 000a A268     		ldr	r2, [r4, #8]
  63:Middlewares/LVGL/GUI/lvgl/src/core/lv_obj_scroll.c ****     obj->spec_attr->scrollbar_mode = mode;
 169              		.loc 1 63 22 view .LVU34
 170 000c 92F82030 		ldrb	r3, [r2, #32]	@ zero_extendqisi2
ARM GAS  C:\Users\ADMINI~1\AppData\Local\Temp\cchMZgMB.s 			page 16


 171 0010 03F00303 		and	r3, r3, #3
  63:Middlewares/LVGL/GUI/lvgl/src/core/lv_obj_scroll.c ****     obj->spec_attr->scrollbar_mode = mode;
 172              		.loc 1 63 7 view .LVU35
 173 0014 AB42     		cmp	r3, r5
 174 0016 08D0     		beq	.L8
  64:Middlewares/LVGL/GUI/lvgl/src/core/lv_obj_scroll.c ****     lv_obj_invalidate(obj);
 175              		.loc 1 64 5 is_stmt 1 view .LVU36
  64:Middlewares/LVGL/GUI/lvgl/src/core/lv_obj_scroll.c ****     lv_obj_invalidate(obj);
 176              		.loc 1 64 36 is_stmt 0 view .LVU37
 177 0018 92F82030 		ldrb	r3, [r2, #32]	@ zero_extendqisi2
 178 001c 65F30103 		bfi	r3, r5, #0, #2
 179 0020 82F82030 		strb	r3, [r2, #32]
  65:Middlewares/LVGL/GUI/lvgl/src/core/lv_obj_scroll.c **** }
 180              		.loc 1 65 5 is_stmt 1 view .LVU38
 181 0024 2046     		mov	r0, r4
 182 0026 FFF7FEFF 		bl	lv_obj_invalidate
 183              	.LVL14:
 184              	.L8:
  66:Middlewares/LVGL/GUI/lvgl/src/core/lv_obj_scroll.c **** 
 185              		.loc 1 66 1 is_stmt 0 view .LVU39
 186 002a 38BD     		pop	{r3, r4, r5, pc}
  66:Middlewares/LVGL/GUI/lvgl/src/core/lv_obj_scroll.c **** 
 187              		.loc 1 66 1 view .LVU40
 188              		.cfi_endproc
 189              	.LFE159:
 191              		.section	.text.lv_obj_set_scroll_dir,"ax",%progbits
 192              		.align	1
 193              		.global	lv_obj_set_scroll_dir
 194              		.syntax unified
 195              		.thumb
 196              		.thumb_func
 198              	lv_obj_set_scroll_dir:
 199              	.LVL15:
 200              	.LFB160:
  69:Middlewares/LVGL/GUI/lvgl/src/core/lv_obj_scroll.c ****     lv_obj_allocate_spec_attr(obj);
 201              		.loc 1 69 1 is_stmt 1 view -0
 202              		.cfi_startproc
 203              		@ args = 0, pretend = 0, frame = 0
 204              		@ frame_needed = 0, uses_anonymous_args = 0
  69:Middlewares/LVGL/GUI/lvgl/src/core/lv_obj_scroll.c ****     lv_obj_allocate_spec_attr(obj);
 205              		.loc 1 69 1 is_stmt 0 view .LVU42
 206 0000 38B5     		push	{r3, r4, r5, lr}
 207              	.LCFI3:
 208              		.cfi_def_cfa_offset 16
 209              		.cfi_offset 3, -16
 210              		.cfi_offset 4, -12
 211              		.cfi_offset 5, -8
 212              		.cfi_offset 14, -4
 213 0002 0546     		mov	r5, r0
 214 0004 0C46     		mov	r4, r1
  70:Middlewares/LVGL/GUI/lvgl/src/core/lv_obj_scroll.c **** 
 215              		.loc 1 70 5 is_stmt 1 view .LVU43
 216 0006 FFF7FEFF 		bl	lv_obj_allocate_spec_attr
 217              	.LVL16:
  72:Middlewares/LVGL/GUI/lvgl/src/core/lv_obj_scroll.c ****         obj->spec_attr->scroll_dir = dir;
 218              		.loc 1 72 5 view .LVU44
  72:Middlewares/LVGL/GUI/lvgl/src/core/lv_obj_scroll.c ****         obj->spec_attr->scroll_dir = dir;
ARM GAS  C:\Users\ADMINI~1\AppData\Local\Temp\cchMZgMB.s 			page 17


 219              		.loc 1 72 18 is_stmt 0 view .LVU45
 220 000a AA68     		ldr	r2, [r5, #8]
  72:Middlewares/LVGL/GUI/lvgl/src/core/lv_obj_scroll.c ****         obj->spec_attr->scroll_dir = dir;
 221              		.loc 1 72 29 view .LVU46
 222 000c 92F82130 		ldrb	r3, [r2, #33]	@ zero_extendqisi2
 223 0010 03F00F03 		and	r3, r3, #15
  72:Middlewares/LVGL/GUI/lvgl/src/core/lv_obj_scroll.c ****         obj->spec_attr->scroll_dir = dir;
 224              		.loc 1 72 7 view .LVU47
 225 0014 A342     		cmp	r3, r4
 226 0016 05D0     		beq	.L11
  73:Middlewares/LVGL/GUI/lvgl/src/core/lv_obj_scroll.c ****     }
 227              		.loc 1 73 9 is_stmt 1 view .LVU48
  73:Middlewares/LVGL/GUI/lvgl/src/core/lv_obj_scroll.c ****     }
 228              		.loc 1 73 36 is_stmt 0 view .LVU49
 229 0018 92F82130 		ldrb	r3, [r2, #33]	@ zero_extendqisi2
 230 001c 64F30303 		bfi	r3, r4, #0, #4
 231              	.LVL17:
  73:Middlewares/LVGL/GUI/lvgl/src/core/lv_obj_scroll.c ****     }
 232              		.loc 1 73 36 view .LVU50
 233 0020 82F82130 		strb	r3, [r2, #33]
 234              	.L11:
  75:Middlewares/LVGL/GUI/lvgl/src/core/lv_obj_scroll.c **** 
 235              		.loc 1 75 1 view .LVU51
 236 0024 38BD     		pop	{r3, r4, r5, pc}
  75:Middlewares/LVGL/GUI/lvgl/src/core/lv_obj_scroll.c **** 
 237              		.loc 1 75 1 view .LVU52
 238              		.cfi_endproc
 239              	.LFE160:
 241              		.section	.text.lv_obj_set_scroll_snap_x,"ax",%progbits
 242              		.align	1
 243              		.global	lv_obj_set_scroll_snap_x
 244              		.syntax unified
 245              		.thumb
 246              		.thumb_func
 248              	lv_obj_set_scroll_snap_x:
 249              	.LVL18:
 250              	.LFB161:
  78:Middlewares/LVGL/GUI/lvgl/src/core/lv_obj_scroll.c ****     lv_obj_allocate_spec_attr(obj);
 251              		.loc 1 78 1 is_stmt 1 view -0
 252              		.cfi_startproc
 253              		@ args = 0, pretend = 0, frame = 0
 254              		@ frame_needed = 0, uses_anonymous_args = 0
  78:Middlewares/LVGL/GUI/lvgl/src/core/lv_obj_scroll.c ****     lv_obj_allocate_spec_attr(obj);
 255              		.loc 1 78 1 is_stmt 0 view .LVU54
 256 0000 38B5     		push	{r3, r4, r5, lr}
 257              	.LCFI4:
 258              		.cfi_def_cfa_offset 16
 259              		.cfi_offset 3, -16
 260              		.cfi_offset 4, -12
 261              		.cfi_offset 5, -8
 262              		.cfi_offset 14, -4
 263 0002 0546     		mov	r5, r0
 264 0004 0C46     		mov	r4, r1
  79:Middlewares/LVGL/GUI/lvgl/src/core/lv_obj_scroll.c ****     obj->spec_attr->scroll_snap_x = align;
 265              		.loc 1 79 5 is_stmt 1 view .LVU55
 266 0006 FFF7FEFF 		bl	lv_obj_allocate_spec_attr
 267              	.LVL19:
ARM GAS  C:\Users\ADMINI~1\AppData\Local\Temp\cchMZgMB.s 			page 18


  80:Middlewares/LVGL/GUI/lvgl/src/core/lv_obj_scroll.c **** }
 268              		.loc 1 80 5 view .LVU56
  80:Middlewares/LVGL/GUI/lvgl/src/core/lv_obj_scroll.c **** }
 269              		.loc 1 80 8 is_stmt 0 view .LVU57
 270 000a AB68     		ldr	r3, [r5, #8]
  80:Middlewares/LVGL/GUI/lvgl/src/core/lv_obj_scroll.c **** }
 271              		.loc 1 80 35 view .LVU58
 272 000c 93F82020 		ldrb	r2, [r3, #32]	@ zero_extendqisi2
 273 0010 64F38302 		bfi	r2, r4, #2, #2
 274 0014 83F82020 		strb	r2, [r3, #32]
  81:Middlewares/LVGL/GUI/lvgl/src/core/lv_obj_scroll.c **** 
 275              		.loc 1 81 1 view .LVU59
 276 0018 38BD     		pop	{r3, r4, r5, pc}
  81:Middlewares/LVGL/GUI/lvgl/src/core/lv_obj_scroll.c **** 
 277              		.loc 1 81 1 view .LVU60
 278              		.cfi_endproc
 279              	.LFE161:
 281              		.section	.text.lv_obj_set_scroll_snap_y,"ax",%progbits
 282              		.align	1
 283              		.global	lv_obj_set_scroll_snap_y
 284              		.syntax unified
 285              		.thumb
 286              		.thumb_func
 288              	lv_obj_set_scroll_snap_y:
 289              	.LVL20:
 290              	.LFB162:
  84:Middlewares/LVGL/GUI/lvgl/src/core/lv_obj_scroll.c ****     lv_obj_allocate_spec_attr(obj);
 291              		.loc 1 84 1 is_stmt 1 view -0
 292              		.cfi_startproc
 293              		@ args = 0, pretend = 0, frame = 0
 294              		@ frame_needed = 0, uses_anonymous_args = 0
  84:Middlewares/LVGL/GUI/lvgl/src/core/lv_obj_scroll.c ****     lv_obj_allocate_spec_attr(obj);
 295              		.loc 1 84 1 is_stmt 0 view .LVU62
 296 0000 38B5     		push	{r3, r4, r5, lr}
 297              	.LCFI5:
 298              		.cfi_def_cfa_offset 16
 299              		.cfi_offset 3, -16
 300              		.cfi_offset 4, -12
 301              		.cfi_offset 5, -8
 302              		.cfi_offset 14, -4
 303 0002 0546     		mov	r5, r0
 304 0004 0C46     		mov	r4, r1
  85:Middlewares/LVGL/GUI/lvgl/src/core/lv_obj_scroll.c ****     obj->spec_attr->scroll_snap_y = align;
 305              		.loc 1 85 5 is_stmt 1 view .LVU63
 306 0006 FFF7FEFF 		bl	lv_obj_allocate_spec_attr
 307              	.LVL21:
  86:Middlewares/LVGL/GUI/lvgl/src/core/lv_obj_scroll.c **** }
 308              		.loc 1 86 5 view .LVU64
  86:Middlewares/LVGL/GUI/lvgl/src/core/lv_obj_scroll.c **** }
 309              		.loc 1 86 8 is_stmt 0 view .LVU65
 310 000a AB68     		ldr	r3, [r5, #8]
  86:Middlewares/LVGL/GUI/lvgl/src/core/lv_obj_scroll.c **** }
 311              		.loc 1 86 35 view .LVU66
 312 000c 93F82020 		ldrb	r2, [r3, #32]	@ zero_extendqisi2
 313 0010 64F30512 		bfi	r2, r4, #4, #2
 314 0014 83F82020 		strb	r2, [r3, #32]
  87:Middlewares/LVGL/GUI/lvgl/src/core/lv_obj_scroll.c **** 
ARM GAS  C:\Users\ADMINI~1\AppData\Local\Temp\cchMZgMB.s 			page 19


 315              		.loc 1 87 1 view .LVU67
 316 0018 38BD     		pop	{r3, r4, r5, pc}
  87:Middlewares/LVGL/GUI/lvgl/src/core/lv_obj_scroll.c **** 
 317              		.loc 1 87 1 view .LVU68
 318              		.cfi_endproc
 319              	.LFE162:
 321              		.section	.text.lv_obj_get_scrollbar_mode,"ax",%progbits
 322              		.align	1
 323              		.global	lv_obj_get_scrollbar_mode
 324              		.syntax unified
 325              		.thumb
 326              		.thumb_func
 328              	lv_obj_get_scrollbar_mode:
 329              	.LVL22:
 330              	.LFB163:
  94:Middlewares/LVGL/GUI/lvgl/src/core/lv_obj_scroll.c ****     if(obj->spec_attr) return obj->spec_attr->scrollbar_mode;
 331              		.loc 1 94 1 is_stmt 1 view -0
 332              		.cfi_startproc
 333              		@ args = 0, pretend = 0, frame = 0
 334              		@ frame_needed = 0, uses_anonymous_args = 0
 335              		@ link register save eliminated.
  95:Middlewares/LVGL/GUI/lvgl/src/core/lv_obj_scroll.c ****     else return LV_SCROLLBAR_MODE_AUTO;
 336              		.loc 1 95 5 view .LVU70
  95:Middlewares/LVGL/GUI/lvgl/src/core/lv_obj_scroll.c ****     else return LV_SCROLLBAR_MODE_AUTO;
 337              		.loc 1 95 11 is_stmt 0 view .LVU71
 338 0000 8368     		ldr	r3, [r0, #8]
  95:Middlewares/LVGL/GUI/lvgl/src/core/lv_obj_scroll.c ****     else return LV_SCROLLBAR_MODE_AUTO;
 339              		.loc 1 95 7 view .LVU72
 340 0002 23B1     		cbz	r3, .L20
  95:Middlewares/LVGL/GUI/lvgl/src/core/lv_obj_scroll.c ****     else return LV_SCROLLBAR_MODE_AUTO;
 341              		.loc 1 95 24 is_stmt 1 discriminator 1 view .LVU73
  95:Middlewares/LVGL/GUI/lvgl/src/core/lv_obj_scroll.c ****     else return LV_SCROLLBAR_MODE_AUTO;
 342              		.loc 1 95 45 is_stmt 0 discriminator 1 view .LVU74
 343 0004 93F82000 		ldrb	r0, [r3, #32]	@ zero_extendqisi2
 344              	.LVL23:
  95:Middlewares/LVGL/GUI/lvgl/src/core/lv_obj_scroll.c ****     else return LV_SCROLLBAR_MODE_AUTO;
 345              		.loc 1 95 45 discriminator 1 view .LVU75
 346 0008 00F00300 		and	r0, r0, #3
 347 000c 7047     		bx	lr
 348              	.LVL24:
 349              	.L20:
  96:Middlewares/LVGL/GUI/lvgl/src/core/lv_obj_scroll.c **** }
 350              		.loc 1 96 17 view .LVU76
 351 000e 0320     		movs	r0, #3
 352              	.LVL25:
  97:Middlewares/LVGL/GUI/lvgl/src/core/lv_obj_scroll.c **** 
 353              		.loc 1 97 1 view .LVU77
 354 0010 7047     		bx	lr
 355              		.cfi_endproc
 356              	.LFE163:
 358              		.section	.text.lv_obj_get_scroll_dir,"ax",%progbits
 359              		.align	1
 360              		.global	lv_obj_get_scroll_dir
 361              		.syntax unified
 362              		.thumb
 363              		.thumb_func
 365              	lv_obj_get_scroll_dir:
ARM GAS  C:\Users\ADMINI~1\AppData\Local\Temp\cchMZgMB.s 			page 20


 366              	.LVL26:
 367              	.LFB164:
 100:Middlewares/LVGL/GUI/lvgl/src/core/lv_obj_scroll.c ****     if(obj->spec_attr) return obj->spec_attr->scroll_dir;
 368              		.loc 1 100 1 is_stmt 1 view -0
 369              		.cfi_startproc
 370              		@ args = 0, pretend = 0, frame = 0
 371              		@ frame_needed = 0, uses_anonymous_args = 0
 372              		@ link register save eliminated.
 101:Middlewares/LVGL/GUI/lvgl/src/core/lv_obj_scroll.c ****     else return LV_DIR_ALL;
 373              		.loc 1 101 5 view .LVU79
 101:Middlewares/LVGL/GUI/lvgl/src/core/lv_obj_scroll.c ****     else return LV_DIR_ALL;
 374              		.loc 1 101 11 is_stmt 0 view .LVU80
 375 0000 8368     		ldr	r3, [r0, #8]
 101:Middlewares/LVGL/GUI/lvgl/src/core/lv_obj_scroll.c ****     else return LV_DIR_ALL;
 376              		.loc 1 101 7 view .LVU81
 377 0002 23B1     		cbz	r3, .L23
 101:Middlewares/LVGL/GUI/lvgl/src/core/lv_obj_scroll.c ****     else return LV_DIR_ALL;
 378              		.loc 1 101 24 is_stmt 1 discriminator 1 view .LVU82
 101:Middlewares/LVGL/GUI/lvgl/src/core/lv_obj_scroll.c ****     else return LV_DIR_ALL;
 379              		.loc 1 101 45 is_stmt 0 discriminator 1 view .LVU83
 380 0004 93F82100 		ldrb	r0, [r3, #33]	@ zero_extendqisi2
 381              	.LVL27:
 101:Middlewares/LVGL/GUI/lvgl/src/core/lv_obj_scroll.c ****     else return LV_DIR_ALL;
 382              		.loc 1 101 45 discriminator 1 view .LVU84
 383 0008 00F00F00 		and	r0, r0, #15
 384 000c 7047     		bx	lr
 385              	.LVL28:
 386              	.L23:
 102:Middlewares/LVGL/GUI/lvgl/src/core/lv_obj_scroll.c **** }
 387              		.loc 1 102 17 view .LVU85
 388 000e 0F20     		movs	r0, #15
 389              	.LVL29:
 103:Middlewares/LVGL/GUI/lvgl/src/core/lv_obj_scroll.c **** 
 390              		.loc 1 103 1 view .LVU86
 391 0010 7047     		bx	lr
 392              		.cfi_endproc
 393              	.LFE164:
 395              		.section	.text.lv_obj_get_scroll_snap_x,"ax",%progbits
 396              		.align	1
 397              		.global	lv_obj_get_scroll_snap_x
 398              		.syntax unified
 399              		.thumb
 400              		.thumb_func
 402              	lv_obj_get_scroll_snap_x:
 403              	.LVL30:
 404              	.LFB165:
 106:Middlewares/LVGL/GUI/lvgl/src/core/lv_obj_scroll.c ****     if(obj->spec_attr) return obj->spec_attr->scroll_snap_x;
 405              		.loc 1 106 1 is_stmt 1 view -0
 406              		.cfi_startproc
 407              		@ args = 0, pretend = 0, frame = 0
 408              		@ frame_needed = 0, uses_anonymous_args = 0
 409              		@ link register save eliminated.
 107:Middlewares/LVGL/GUI/lvgl/src/core/lv_obj_scroll.c ****     else return LV_SCROLL_SNAP_NONE;
 410              		.loc 1 107 5 view .LVU88
 107:Middlewares/LVGL/GUI/lvgl/src/core/lv_obj_scroll.c ****     else return LV_SCROLL_SNAP_NONE;
 411              		.loc 1 107 11 is_stmt 0 view .LVU89
 412 0000 8368     		ldr	r3, [r0, #8]
ARM GAS  C:\Users\ADMINI~1\AppData\Local\Temp\cchMZgMB.s 			page 21


 107:Middlewares/LVGL/GUI/lvgl/src/core/lv_obj_scroll.c ****     else return LV_SCROLL_SNAP_NONE;
 413              		.loc 1 107 7 view .LVU90
 414 0002 23B1     		cbz	r3, .L26
 107:Middlewares/LVGL/GUI/lvgl/src/core/lv_obj_scroll.c ****     else return LV_SCROLL_SNAP_NONE;
 415              		.loc 1 107 24 is_stmt 1 discriminator 1 view .LVU91
 107:Middlewares/LVGL/GUI/lvgl/src/core/lv_obj_scroll.c ****     else return LV_SCROLL_SNAP_NONE;
 416              		.loc 1 107 45 is_stmt 0 discriminator 1 view .LVU92
 417 0004 93F82000 		ldrb	r0, [r3, #32]	@ zero_extendqisi2
 418              	.LVL31:
 107:Middlewares/LVGL/GUI/lvgl/src/core/lv_obj_scroll.c ****     else return LV_SCROLL_SNAP_NONE;
 419              		.loc 1 107 45 discriminator 1 view .LVU93
 420 0008 C0F38100 		ubfx	r0, r0, #2, #2
 421 000c 7047     		bx	lr
 422              	.LVL32:
 423              	.L26:
 108:Middlewares/LVGL/GUI/lvgl/src/core/lv_obj_scroll.c **** }
 424              		.loc 1 108 17 view .LVU94
 425 000e 0020     		movs	r0, #0
 426              	.LVL33:
 109:Middlewares/LVGL/GUI/lvgl/src/core/lv_obj_scroll.c **** 
 427              		.loc 1 109 1 view .LVU95
 428 0010 7047     		bx	lr
 429              		.cfi_endproc
 430              	.LFE165:
 432              		.section	.text.lv_obj_get_scroll_snap_y,"ax",%progbits
 433              		.align	1
 434              		.global	lv_obj_get_scroll_snap_y
 435              		.syntax unified
 436              		.thumb
 437              		.thumb_func
 439              	lv_obj_get_scroll_snap_y:
 440              	.LVL34:
 441              	.LFB166:
 112:Middlewares/LVGL/GUI/lvgl/src/core/lv_obj_scroll.c ****     if(obj->spec_attr) return obj->spec_attr->scroll_snap_y;
 442              		.loc 1 112 1 is_stmt 1 view -0
 443              		.cfi_startproc
 444              		@ args = 0, pretend = 0, frame = 0
 445              		@ frame_needed = 0, uses_anonymous_args = 0
 446              		@ link register save eliminated.
 113:Middlewares/LVGL/GUI/lvgl/src/core/lv_obj_scroll.c ****     else return LV_SCROLL_SNAP_NONE;
 447              		.loc 1 113 5 view .LVU97
 113:Middlewares/LVGL/GUI/lvgl/src/core/lv_obj_scroll.c ****     else return LV_SCROLL_SNAP_NONE;
 448              		.loc 1 113 11 is_stmt 0 view .LVU98
 449 0000 8368     		ldr	r3, [r0, #8]
 113:Middlewares/LVGL/GUI/lvgl/src/core/lv_obj_scroll.c ****     else return LV_SCROLL_SNAP_NONE;
 450              		.loc 1 113 7 view .LVU99
 451 0002 23B1     		cbz	r3, .L29
 113:Middlewares/LVGL/GUI/lvgl/src/core/lv_obj_scroll.c ****     else return LV_SCROLL_SNAP_NONE;
 452              		.loc 1 113 24 is_stmt 1 discriminator 1 view .LVU100
 113:Middlewares/LVGL/GUI/lvgl/src/core/lv_obj_scroll.c ****     else return LV_SCROLL_SNAP_NONE;
 453              		.loc 1 113 45 is_stmt 0 discriminator 1 view .LVU101
 454 0004 93F82000 		ldrb	r0, [r3, #32]	@ zero_extendqisi2
 455              	.LVL35:
 113:Middlewares/LVGL/GUI/lvgl/src/core/lv_obj_scroll.c ****     else return LV_SCROLL_SNAP_NONE;
 456              		.loc 1 113 45 discriminator 1 view .LVU102
 457 0008 C0F30110 		ubfx	r0, r0, #4, #2
 458 000c 7047     		bx	lr
ARM GAS  C:\Users\ADMINI~1\AppData\Local\Temp\cchMZgMB.s 			page 22


 459              	.LVL36:
 460              	.L29:
 114:Middlewares/LVGL/GUI/lvgl/src/core/lv_obj_scroll.c **** }
 461              		.loc 1 114 17 view .LVU103
 462 000e 0020     		movs	r0, #0
 463              	.LVL37:
 115:Middlewares/LVGL/GUI/lvgl/src/core/lv_obj_scroll.c **** 
 464              		.loc 1 115 1 view .LVU104
 465 0010 7047     		bx	lr
 466              		.cfi_endproc
 467              	.LFE166:
 469              		.section	.text.lv_obj_get_scroll_x,"ax",%progbits
 470              		.align	1
 471              		.global	lv_obj_get_scroll_x
 472              		.syntax unified
 473              		.thumb
 474              		.thumb_func
 476              	lv_obj_get_scroll_x:
 477              	.LVL38:
 478              	.LFB167:
 118:Middlewares/LVGL/GUI/lvgl/src/core/lv_obj_scroll.c ****     if(obj->spec_attr == NULL) return 0;
 479              		.loc 1 118 1 is_stmt 1 view -0
 480              		.cfi_startproc
 481              		@ args = 0, pretend = 0, frame = 0
 482              		@ frame_needed = 0, uses_anonymous_args = 0
 483              		@ link register save eliminated.
 119:Middlewares/LVGL/GUI/lvgl/src/core/lv_obj_scroll.c ****     return -obj->spec_attr->scroll.x;
 484              		.loc 1 119 5 view .LVU106
 119:Middlewares/LVGL/GUI/lvgl/src/core/lv_obj_scroll.c ****     return -obj->spec_attr->scroll.x;
 485              		.loc 1 119 11 is_stmt 0 view .LVU107
 486 0000 8368     		ldr	r3, [r0, #8]
 119:Middlewares/LVGL/GUI/lvgl/src/core/lv_obj_scroll.c ****     return -obj->spec_attr->scroll.x;
 487              		.loc 1 119 7 view .LVU108
 488 0002 13B1     		cbz	r3, .L32
 120:Middlewares/LVGL/GUI/lvgl/src/core/lv_obj_scroll.c **** }
 489              		.loc 1 120 5 is_stmt 1 view .LVU109
 120:Middlewares/LVGL/GUI/lvgl/src/core/lv_obj_scroll.c **** }
 490              		.loc 1 120 35 is_stmt 0 view .LVU110
 491 0004 1869     		ldr	r0, [r3, #16]
 492              	.LVL39:
 120:Middlewares/LVGL/GUI/lvgl/src/core/lv_obj_scroll.c **** }
 493              		.loc 1 120 12 view .LVU111
 494 0006 4042     		rsbs	r0, r0, #0
 495 0008 7047     		bx	lr
 496              	.LVL40:
 497              	.L32:
 119:Middlewares/LVGL/GUI/lvgl/src/core/lv_obj_scroll.c ****     return -obj->spec_attr->scroll.x;
 498              		.loc 1 119 39 view .LVU112
 499 000a 0020     		movs	r0, #0
 500              	.LVL41:
 121:Middlewares/LVGL/GUI/lvgl/src/core/lv_obj_scroll.c **** 
 501              		.loc 1 121 1 view .LVU113
 502 000c 7047     		bx	lr
 503              		.cfi_endproc
 504              	.LFE167:
 506              		.section	.text.scroll_x_anim,"ax",%progbits
 507              		.align	1
ARM GAS  C:\Users\ADMINI~1\AppData\Local\Temp\cchMZgMB.s 			page 23


 508              		.syntax unified
 509              		.thumb
 510              		.thumb_func
 512              	scroll_x_anim:
 513              	.LVL42:
 514              	.LFB187:
 667:Middlewares/LVGL/GUI/lvgl/src/core/lv_obj_scroll.c ****     scroll_by_raw(obj, v + lv_obj_get_scroll_x(obj), 0);
 515              		.loc 1 667 1 is_stmt 1 view -0
 516              		.cfi_startproc
 517              		@ args = 0, pretend = 0, frame = 0
 518              		@ frame_needed = 0, uses_anonymous_args = 0
 667:Middlewares/LVGL/GUI/lvgl/src/core/lv_obj_scroll.c ****     scroll_by_raw(obj, v + lv_obj_get_scroll_x(obj), 0);
 519              		.loc 1 667 1 is_stmt 0 view .LVU115
 520 0000 38B5     		push	{r3, r4, r5, lr}
 521              	.LCFI6:
 522              		.cfi_def_cfa_offset 16
 523              		.cfi_offset 3, -16
 524              		.cfi_offset 4, -12
 525              		.cfi_offset 5, -8
 526              		.cfi_offset 14, -4
 527 0002 0446     		mov	r4, r0
 528 0004 0D46     		mov	r5, r1
 668:Middlewares/LVGL/GUI/lvgl/src/core/lv_obj_scroll.c **** }
 529              		.loc 1 668 5 is_stmt 1 view .LVU116
 668:Middlewares/LVGL/GUI/lvgl/src/core/lv_obj_scroll.c **** }
 530              		.loc 1 668 28 is_stmt 0 view .LVU117
 531 0006 FFF7FEFF 		bl	lv_obj_get_scroll_x
 532              	.LVL43:
 668:Middlewares/LVGL/GUI/lvgl/src/core/lv_obj_scroll.c **** }
 533              		.loc 1 668 5 view .LVU118
 534 000a 0022     		movs	r2, #0
 535 000c 4119     		adds	r1, r0, r5
 536 000e 2046     		mov	r0, r4
 537 0010 FFF7FEFF 		bl	scroll_by_raw
 538              	.LVL44:
 669:Middlewares/LVGL/GUI/lvgl/src/core/lv_obj_scroll.c **** 
 539              		.loc 1 669 1 view .LVU119
 540 0014 38BD     		pop	{r3, r4, r5, pc}
 669:Middlewares/LVGL/GUI/lvgl/src/core/lv_obj_scroll.c **** 
 541              		.loc 1 669 1 view .LVU120
 542              		.cfi_endproc
 543              	.LFE187:
 545              		.section	.text.lv_obj_get_scroll_y,"ax",%progbits
 546              		.align	1
 547              		.global	lv_obj_get_scroll_y
 548              		.syntax unified
 549              		.thumb
 550              		.thumb_func
 552              	lv_obj_get_scroll_y:
 553              	.LVL45:
 554              	.LFB168:
 124:Middlewares/LVGL/GUI/lvgl/src/core/lv_obj_scroll.c ****     if(obj->spec_attr == NULL) return 0;
 555              		.loc 1 124 1 is_stmt 1 view -0
 556              		.cfi_startproc
 557              		@ args = 0, pretend = 0, frame = 0
 558              		@ frame_needed = 0, uses_anonymous_args = 0
 559              		@ link register save eliminated.
ARM GAS  C:\Users\ADMINI~1\AppData\Local\Temp\cchMZgMB.s 			page 24


 125:Middlewares/LVGL/GUI/lvgl/src/core/lv_obj_scroll.c ****     return -obj->spec_attr->scroll.y;
 560              		.loc 1 125 5 view .LVU122
 125:Middlewares/LVGL/GUI/lvgl/src/core/lv_obj_scroll.c ****     return -obj->spec_attr->scroll.y;
 561              		.loc 1 125 11 is_stmt 0 view .LVU123
 562 0000 8368     		ldr	r3, [r0, #8]
 125:Middlewares/LVGL/GUI/lvgl/src/core/lv_obj_scroll.c ****     return -obj->spec_attr->scroll.y;
 563              		.loc 1 125 7 view .LVU124
 564 0002 13B1     		cbz	r3, .L37
 126:Middlewares/LVGL/GUI/lvgl/src/core/lv_obj_scroll.c **** }
 565              		.loc 1 126 5 is_stmt 1 view .LVU125
 126:Middlewares/LVGL/GUI/lvgl/src/core/lv_obj_scroll.c **** }
 566              		.loc 1 126 35 is_stmt 0 view .LVU126
 567 0004 5869     		ldr	r0, [r3, #20]
 568              	.LVL46:
 126:Middlewares/LVGL/GUI/lvgl/src/core/lv_obj_scroll.c **** }
 569              		.loc 1 126 12 view .LVU127
 570 0006 4042     		rsbs	r0, r0, #0
 571 0008 7047     		bx	lr
 572              	.LVL47:
 573              	.L37:
 125:Middlewares/LVGL/GUI/lvgl/src/core/lv_obj_scroll.c ****     return -obj->spec_attr->scroll.y;
 574              		.loc 1 125 39 view .LVU128
 575 000a 0020     		movs	r0, #0
 576              	.LVL48:
 127:Middlewares/LVGL/GUI/lvgl/src/core/lv_obj_scroll.c **** 
 577              		.loc 1 127 1 view .LVU129
 578 000c 7047     		bx	lr
 579              		.cfi_endproc
 580              	.LFE168:
 582              		.section	.text.scroll_y_anim,"ax",%progbits
 583              		.align	1
 584              		.syntax unified
 585              		.thumb
 586              		.thumb_func
 588              	scroll_y_anim:
 589              	.LVL49:
 590              	.LFB188:
 672:Middlewares/LVGL/GUI/lvgl/src/core/lv_obj_scroll.c ****     scroll_by_raw(obj, 0, v + lv_obj_get_scroll_y(obj));
 591              		.loc 1 672 1 is_stmt 1 view -0
 592              		.cfi_startproc
 593              		@ args = 0, pretend = 0, frame = 0
 594              		@ frame_needed = 0, uses_anonymous_args = 0
 672:Middlewares/LVGL/GUI/lvgl/src/core/lv_obj_scroll.c ****     scroll_by_raw(obj, 0, v + lv_obj_get_scroll_y(obj));
 595              		.loc 1 672 1 is_stmt 0 view .LVU131
 596 0000 38B5     		push	{r3, r4, r5, lr}
 597              	.LCFI7:
 598              		.cfi_def_cfa_offset 16
 599              		.cfi_offset 3, -16
 600              		.cfi_offset 4, -12
 601              		.cfi_offset 5, -8
 602              		.cfi_offset 14, -4
 603 0002 0446     		mov	r4, r0
 604 0004 0D46     		mov	r5, r1
 673:Middlewares/LVGL/GUI/lvgl/src/core/lv_obj_scroll.c **** }
 605              		.loc 1 673 5 is_stmt 1 view .LVU132
 673:Middlewares/LVGL/GUI/lvgl/src/core/lv_obj_scroll.c **** }
 606              		.loc 1 673 31 is_stmt 0 view .LVU133
ARM GAS  C:\Users\ADMINI~1\AppData\Local\Temp\cchMZgMB.s 			page 25


 607 0006 FFF7FEFF 		bl	lv_obj_get_scroll_y
 608              	.LVL50:
 673:Middlewares/LVGL/GUI/lvgl/src/core/lv_obj_scroll.c **** }
 609              		.loc 1 673 5 view .LVU134
 610 000a 4219     		adds	r2, r0, r5
 611 000c 0021     		movs	r1, #0
 612 000e 2046     		mov	r0, r4
 613 0010 FFF7FEFF 		bl	scroll_by_raw
 614              	.LVL51:
 674:Middlewares/LVGL/GUI/lvgl/src/core/lv_obj_scroll.c **** 
 615              		.loc 1 674 1 view .LVU135
 616 0014 38BD     		pop	{r3, r4, r5, pc}
 674:Middlewares/LVGL/GUI/lvgl/src/core/lv_obj_scroll.c **** 
 617              		.loc 1 674 1 view .LVU136
 618              		.cfi_endproc
 619              	.LFE188:
 621              		.section	.text.lv_obj_get_scroll_top,"ax",%progbits
 622              		.align	1
 623              		.global	lv_obj_get_scroll_top
 624              		.syntax unified
 625              		.thumb
 626              		.thumb_func
 628              	lv_obj_get_scroll_top:
 629              	.LVL52:
 630              	.LFB169:
 130:Middlewares/LVGL/GUI/lvgl/src/core/lv_obj_scroll.c ****     if(obj->spec_attr == NULL) return 0;
 631              		.loc 1 130 1 is_stmt 1 view -0
 632              		.cfi_startproc
 633              		@ args = 0, pretend = 0, frame = 0
 634              		@ frame_needed = 0, uses_anonymous_args = 0
 635              		@ link register save eliminated.
 131:Middlewares/LVGL/GUI/lvgl/src/core/lv_obj_scroll.c ****     return -obj->spec_attr->scroll.y;
 636              		.loc 1 131 5 view .LVU138
 131:Middlewares/LVGL/GUI/lvgl/src/core/lv_obj_scroll.c ****     return -obj->spec_attr->scroll.y;
 637              		.loc 1 131 11 is_stmt 0 view .LVU139
 638 0000 8368     		ldr	r3, [r0, #8]
 131:Middlewares/LVGL/GUI/lvgl/src/core/lv_obj_scroll.c ****     return -obj->spec_attr->scroll.y;
 639              		.loc 1 131 7 view .LVU140
 640 0002 13B1     		cbz	r3, .L42
 132:Middlewares/LVGL/GUI/lvgl/src/core/lv_obj_scroll.c **** }
 641              		.loc 1 132 5 is_stmt 1 view .LVU141
 132:Middlewares/LVGL/GUI/lvgl/src/core/lv_obj_scroll.c **** }
 642              		.loc 1 132 35 is_stmt 0 view .LVU142
 643 0004 5869     		ldr	r0, [r3, #20]
 644              	.LVL53:
 132:Middlewares/LVGL/GUI/lvgl/src/core/lv_obj_scroll.c **** }
 645              		.loc 1 132 12 view .LVU143
 646 0006 4042     		rsbs	r0, r0, #0
 647 0008 7047     		bx	lr
 648              	.LVL54:
 649              	.L42:
 131:Middlewares/LVGL/GUI/lvgl/src/core/lv_obj_scroll.c ****     return -obj->spec_attr->scroll.y;
 650              		.loc 1 131 39 view .LVU144
 651 000a 0020     		movs	r0, #0
 652              	.LVL55:
 133:Middlewares/LVGL/GUI/lvgl/src/core/lv_obj_scroll.c **** 
 653              		.loc 1 133 1 view .LVU145
ARM GAS  C:\Users\ADMINI~1\AppData\Local\Temp\cchMZgMB.s 			page 26


 654 000c 7047     		bx	lr
 655              		.cfi_endproc
 656              	.LFE169:
 658              		.section	.text.lv_obj_get_scroll_bottom,"ax",%progbits
 659              		.align	1
 660              		.global	lv_obj_get_scroll_bottom
 661              		.syntax unified
 662              		.thumb
 663              		.thumb_func
 665              	lv_obj_get_scroll_bottom:
 666              	.LVL56:
 667              	.LFB170:
 136:Middlewares/LVGL/GUI/lvgl/src/core/lv_obj_scroll.c ****     LV_ASSERT_OBJ(obj, MY_CLASS);
 668              		.loc 1 136 1 is_stmt 1 view -0
 669              		.cfi_startproc
 670              		@ args = 0, pretend = 0, frame = 0
 671              		@ frame_needed = 0, uses_anonymous_args = 0
 136:Middlewares/LVGL/GUI/lvgl/src/core/lv_obj_scroll.c ****     LV_ASSERT_OBJ(obj, MY_CLASS);
 672              		.loc 1 136 1 is_stmt 0 view .LVU147
 673 0000 2DE9F843 		push	{r3, r4, r5, r6, r7, r8, r9, lr}
 674              	.LCFI8:
 675              		.cfi_def_cfa_offset 32
 676              		.cfi_offset 3, -32
 677              		.cfi_offset 4, -28
 678              		.cfi_offset 5, -24
 679              		.cfi_offset 6, -20
 680              		.cfi_offset 7, -16
 681              		.cfi_offset 8, -12
 682              		.cfi_offset 9, -8
 683              		.cfi_offset 14, -4
 684 0004 0646     		mov	r6, r0
 137:Middlewares/LVGL/GUI/lvgl/src/core/lv_obj_scroll.c **** 
 685              		.loc 1 137 5 is_stmt 1 view .LVU148
 137:Middlewares/LVGL/GUI/lvgl/src/core/lv_obj_scroll.c **** 
 686              		.loc 1 137 5 view .LVU149
 137:Middlewares/LVGL/GUI/lvgl/src/core/lv_obj_scroll.c **** 
 687              		.loc 1 137 5 view .LVU150
 139:Middlewares/LVGL/GUI/lvgl/src/core/lv_obj_scroll.c ****     uint32_t i;
 688              		.loc 1 139 5 view .LVU151
 689              	.LVL57:
 140:Middlewares/LVGL/GUI/lvgl/src/core/lv_obj_scroll.c ****     uint32_t child_cnt = lv_obj_get_child_cnt(obj);
 690              		.loc 1 140 5 view .LVU152
 141:Middlewares/LVGL/GUI/lvgl/src/core/lv_obj_scroll.c ****     for(i = 0; i < child_cnt; i++) {
 691              		.loc 1 141 5 view .LVU153
 141:Middlewares/LVGL/GUI/lvgl/src/core/lv_obj_scroll.c ****     for(i = 0; i < child_cnt; i++) {
 692              		.loc 1 141 26 is_stmt 0 view .LVU154
 693 0006 FFF7FEFF 		bl	lv_obj_get_child_cnt
 694              	.LVL58:
 141:Middlewares/LVGL/GUI/lvgl/src/core/lv_obj_scroll.c ****     for(i = 0; i < child_cnt; i++) {
 695              		.loc 1 141 26 view .LVU155
 696 000a 8046     		mov	r8, r0
 697              	.LVL59:
 142:Middlewares/LVGL/GUI/lvgl/src/core/lv_obj_scroll.c ****         lv_obj_t * child = obj->spec_attr->children[i];
 698              		.loc 1 142 5 is_stmt 1 view .LVU156
 142:Middlewares/LVGL/GUI/lvgl/src/core/lv_obj_scroll.c ****         lv_obj_t * child = obj->spec_attr->children[i];
 699              		.loc 1 142 11 is_stmt 0 view .LVU157
 700 000c 0024     		movs	r4, #0
ARM GAS  C:\Users\ADMINI~1\AppData\Local\Temp\cchMZgMB.s 			page 27


 139:Middlewares/LVGL/GUI/lvgl/src/core/lv_obj_scroll.c ****     uint32_t i;
 701              		.loc 1 139 16 view .LVU158
 702 000e 244F     		ldr	r7, .L51
 142:Middlewares/LVGL/GUI/lvgl/src/core/lv_obj_scroll.c ****         lv_obj_t * child = obj->spec_attr->children[i];
 703              		.loc 1 142 5 view .LVU159
 704 0010 04E0     		b	.L44
 705              	.LVL60:
 706              	.L50:
 707              	.LBB100:
 145:Middlewares/LVGL/GUI/lvgl/src/core/lv_obj_scroll.c ****     }
 708              		.loc 1 145 9 is_stmt 1 view .LVU160
 145:Middlewares/LVGL/GUI/lvgl/src/core/lv_obj_scroll.c ****     }
 709              		.loc 1 145 21 is_stmt 0 view .LVU161
 710 0012 2B6A     		ldr	r3, [r5, #32]
 145:Middlewares/LVGL/GUI/lvgl/src/core/lv_obj_scroll.c ****     }
 711              		.loc 1 145 19 view .LVU162
 712 0014 9F42     		cmp	r7, r3
 713 0016 B8BF     		it	lt
 714 0018 1F46     		movlt	r7, r3
 715              	.LVL61:
 716              	.L45:
 145:Middlewares/LVGL/GUI/lvgl/src/core/lv_obj_scroll.c ****     }
 717              		.loc 1 145 19 view .LVU163
 718              	.LBE100:
 142:Middlewares/LVGL/GUI/lvgl/src/core/lv_obj_scroll.c ****         lv_obj_t * child = obj->spec_attr->children[i];
 719              		.loc 1 142 31 is_stmt 1 discriminator 2 view .LVU164
 142:Middlewares/LVGL/GUI/lvgl/src/core/lv_obj_scroll.c ****         lv_obj_t * child = obj->spec_attr->children[i];
 720              		.loc 1 142 32 is_stmt 0 discriminator 2 view .LVU165
 721 001a 0134     		adds	r4, r4, #1
 722              	.LVL62:
 723              	.L44:
 142:Middlewares/LVGL/GUI/lvgl/src/core/lv_obj_scroll.c ****         lv_obj_t * child = obj->spec_attr->children[i];
 724              		.loc 1 142 16 is_stmt 1 discriminator 1 view .LVU166
 142:Middlewares/LVGL/GUI/lvgl/src/core/lv_obj_scroll.c ****         lv_obj_t * child = obj->spec_attr->children[i];
 725              		.loc 1 142 5 is_stmt 0 discriminator 1 view .LVU167
 726 001c 4445     		cmp	r4, r8
 727 001e 0AD2     		bcs	.L49
 728              	.LBB101:
 143:Middlewares/LVGL/GUI/lvgl/src/core/lv_obj_scroll.c ****         if(lv_obj_has_flag_any(child,  LV_OBJ_FLAG_HIDDEN | LV_OBJ_FLAG_FLOATING)) continue;
 729              		.loc 1 143 9 is_stmt 1 view .LVU168
 143:Middlewares/LVGL/GUI/lvgl/src/core/lv_obj_scroll.c ****         if(lv_obj_has_flag_any(child,  LV_OBJ_FLAG_HIDDEN | LV_OBJ_FLAG_FLOATING)) continue;
 730              		.loc 1 143 31 is_stmt 0 view .LVU169
 731 0020 B368     		ldr	r3, [r6, #8]
 143:Middlewares/LVGL/GUI/lvgl/src/core/lv_obj_scroll.c ****         if(lv_obj_has_flag_any(child,  LV_OBJ_FLAG_HIDDEN | LV_OBJ_FLAG_FLOATING)) continue;
 732              		.loc 1 143 42 view .LVU170
 733 0022 1B68     		ldr	r3, [r3]
 143:Middlewares/LVGL/GUI/lvgl/src/core/lv_obj_scroll.c ****         if(lv_obj_has_flag_any(child,  LV_OBJ_FLAG_HIDDEN | LV_OBJ_FLAG_FLOATING)) continue;
 734              		.loc 1 143 20 view .LVU171
 735 0024 53F82450 		ldr	r5, [r3, r4, lsl #2]
 736              	.LVL63:
 144:Middlewares/LVGL/GUI/lvgl/src/core/lv_obj_scroll.c ****         child_res = LV_MAX(child_res, child->coords.y2);
 737              		.loc 1 144 9 is_stmt 1 view .LVU172
 144:Middlewares/LVGL/GUI/lvgl/src/core/lv_obj_scroll.c ****         child_res = LV_MAX(child_res, child->coords.y2);
 738              		.loc 1 144 12 is_stmt 0 view .LVU173
 739 0028 1E49     		ldr	r1, .L51+4
 740 002a 2846     		mov	r0, r5
 741 002c FFF7FEFF 		bl	lv_obj_has_flag_any
ARM GAS  C:\Users\ADMINI~1\AppData\Local\Temp\cchMZgMB.s 			page 28


 742              	.LVL64:
 144:Middlewares/LVGL/GUI/lvgl/src/core/lv_obj_scroll.c ****         child_res = LV_MAX(child_res, child->coords.y2);
 743              		.loc 1 144 11 view .LVU174
 744 0030 0028     		cmp	r0, #0
 745 0032 EED0     		beq	.L50
 746 0034 F1E7     		b	.L45
 747              	.LVL65:
 748              	.L49:
 144:Middlewares/LVGL/GUI/lvgl/src/core/lv_obj_scroll.c ****         child_res = LV_MAX(child_res, child->coords.y2);
 749              		.loc 1 144 11 view .LVU175
 750              	.LBE101:
 148:Middlewares/LVGL/GUI/lvgl/src/core/lv_obj_scroll.c ****     lv_coord_t pad_bottom = lv_obj_get_style_pad_bottom(obj, LV_PART_MAIN);
 751              		.loc 1 148 5 is_stmt 1 view .LVU176
 752              	.LBB102:
 753              	.LBI102:
 754              		.file 2 "Middlewares/LVGL/GUI/lvgl/src/core/lv_obj_style_gen.h"
   1:Middlewares/LVGL/GUI/lvgl/src/core/lv_obj_style_gen.h **** static inline lv_coord_t lv_obj_get_style_width(const struct _lv_obj_t * obj, uint32_t part)
   2:Middlewares/LVGL/GUI/lvgl/src/core/lv_obj_style_gen.h **** {
   3:Middlewares/LVGL/GUI/lvgl/src/core/lv_obj_style_gen.h ****     lv_style_value_t v = lv_obj_get_style_prop(obj, part, LV_STYLE_WIDTH);
   4:Middlewares/LVGL/GUI/lvgl/src/core/lv_obj_style_gen.h ****     return (lv_coord_t)v.num;
   5:Middlewares/LVGL/GUI/lvgl/src/core/lv_obj_style_gen.h **** }
   6:Middlewares/LVGL/GUI/lvgl/src/core/lv_obj_style_gen.h **** 
   7:Middlewares/LVGL/GUI/lvgl/src/core/lv_obj_style_gen.h **** static inline lv_coord_t lv_obj_get_style_min_width(const struct _lv_obj_t * obj, uint32_t part)
   8:Middlewares/LVGL/GUI/lvgl/src/core/lv_obj_style_gen.h **** {
   9:Middlewares/LVGL/GUI/lvgl/src/core/lv_obj_style_gen.h ****     lv_style_value_t v = lv_obj_get_style_prop(obj, part, LV_STYLE_MIN_WIDTH);
  10:Middlewares/LVGL/GUI/lvgl/src/core/lv_obj_style_gen.h ****     return (lv_coord_t)v.num;
  11:Middlewares/LVGL/GUI/lvgl/src/core/lv_obj_style_gen.h **** }
  12:Middlewares/LVGL/GUI/lvgl/src/core/lv_obj_style_gen.h **** 
  13:Middlewares/LVGL/GUI/lvgl/src/core/lv_obj_style_gen.h **** static inline lv_coord_t lv_obj_get_style_max_width(const struct _lv_obj_t * obj, uint32_t part)
  14:Middlewares/LVGL/GUI/lvgl/src/core/lv_obj_style_gen.h **** {
  15:Middlewares/LVGL/GUI/lvgl/src/core/lv_obj_style_gen.h ****     lv_style_value_t v = lv_obj_get_style_prop(obj, part, LV_STYLE_MAX_WIDTH);
  16:Middlewares/LVGL/GUI/lvgl/src/core/lv_obj_style_gen.h ****     return (lv_coord_t)v.num;
  17:Middlewares/LVGL/GUI/lvgl/src/core/lv_obj_style_gen.h **** }
  18:Middlewares/LVGL/GUI/lvgl/src/core/lv_obj_style_gen.h **** 
  19:Middlewares/LVGL/GUI/lvgl/src/core/lv_obj_style_gen.h **** static inline lv_coord_t lv_obj_get_style_height(const struct _lv_obj_t * obj, uint32_t part)
  20:Middlewares/LVGL/GUI/lvgl/src/core/lv_obj_style_gen.h **** {
  21:Middlewares/LVGL/GUI/lvgl/src/core/lv_obj_style_gen.h ****     lv_style_value_t v = lv_obj_get_style_prop(obj, part, LV_STYLE_HEIGHT);
  22:Middlewares/LVGL/GUI/lvgl/src/core/lv_obj_style_gen.h ****     return (lv_coord_t)v.num;
  23:Middlewares/LVGL/GUI/lvgl/src/core/lv_obj_style_gen.h **** }
  24:Middlewares/LVGL/GUI/lvgl/src/core/lv_obj_style_gen.h **** 
  25:Middlewares/LVGL/GUI/lvgl/src/core/lv_obj_style_gen.h **** static inline lv_coord_t lv_obj_get_style_min_height(const struct _lv_obj_t * obj, uint32_t part)
  26:Middlewares/LVGL/GUI/lvgl/src/core/lv_obj_style_gen.h **** {
  27:Middlewares/LVGL/GUI/lvgl/src/core/lv_obj_style_gen.h ****     lv_style_value_t v = lv_obj_get_style_prop(obj, part, LV_STYLE_MIN_HEIGHT);
  28:Middlewares/LVGL/GUI/lvgl/src/core/lv_obj_style_gen.h ****     return (lv_coord_t)v.num;
  29:Middlewares/LVGL/GUI/lvgl/src/core/lv_obj_style_gen.h **** }
  30:Middlewares/LVGL/GUI/lvgl/src/core/lv_obj_style_gen.h **** 
  31:Middlewares/LVGL/GUI/lvgl/src/core/lv_obj_style_gen.h **** static inline lv_coord_t lv_obj_get_style_max_height(const struct _lv_obj_t * obj, uint32_t part)
  32:Middlewares/LVGL/GUI/lvgl/src/core/lv_obj_style_gen.h **** {
  33:Middlewares/LVGL/GUI/lvgl/src/core/lv_obj_style_gen.h ****     lv_style_value_t v = lv_obj_get_style_prop(obj, part, LV_STYLE_MAX_HEIGHT);
  34:Middlewares/LVGL/GUI/lvgl/src/core/lv_obj_style_gen.h ****     return (lv_coord_t)v.num;
  35:Middlewares/LVGL/GUI/lvgl/src/core/lv_obj_style_gen.h **** }
  36:Middlewares/LVGL/GUI/lvgl/src/core/lv_obj_style_gen.h **** 
  37:Middlewares/LVGL/GUI/lvgl/src/core/lv_obj_style_gen.h **** static inline lv_coord_t lv_obj_get_style_x(const struct _lv_obj_t * obj, uint32_t part)
  38:Middlewares/LVGL/GUI/lvgl/src/core/lv_obj_style_gen.h **** {
  39:Middlewares/LVGL/GUI/lvgl/src/core/lv_obj_style_gen.h ****     lv_style_value_t v = lv_obj_get_style_prop(obj, part, LV_STYLE_X);
  40:Middlewares/LVGL/GUI/lvgl/src/core/lv_obj_style_gen.h ****     return (lv_coord_t)v.num;
  41:Middlewares/LVGL/GUI/lvgl/src/core/lv_obj_style_gen.h **** }
ARM GAS  C:\Users\ADMINI~1\AppData\Local\Temp\cchMZgMB.s 			page 29


  42:Middlewares/LVGL/GUI/lvgl/src/core/lv_obj_style_gen.h **** 
  43:Middlewares/LVGL/GUI/lvgl/src/core/lv_obj_style_gen.h **** static inline lv_coord_t lv_obj_get_style_y(const struct _lv_obj_t * obj, uint32_t part)
  44:Middlewares/LVGL/GUI/lvgl/src/core/lv_obj_style_gen.h **** {
  45:Middlewares/LVGL/GUI/lvgl/src/core/lv_obj_style_gen.h ****     lv_style_value_t v = lv_obj_get_style_prop(obj, part, LV_STYLE_Y);
  46:Middlewares/LVGL/GUI/lvgl/src/core/lv_obj_style_gen.h ****     return (lv_coord_t)v.num;
  47:Middlewares/LVGL/GUI/lvgl/src/core/lv_obj_style_gen.h **** }
  48:Middlewares/LVGL/GUI/lvgl/src/core/lv_obj_style_gen.h **** 
  49:Middlewares/LVGL/GUI/lvgl/src/core/lv_obj_style_gen.h **** static inline lv_align_t lv_obj_get_style_align(const struct _lv_obj_t * obj, uint32_t part)
  50:Middlewares/LVGL/GUI/lvgl/src/core/lv_obj_style_gen.h **** {
  51:Middlewares/LVGL/GUI/lvgl/src/core/lv_obj_style_gen.h ****     lv_style_value_t v = lv_obj_get_style_prop(obj, part, LV_STYLE_ALIGN);
  52:Middlewares/LVGL/GUI/lvgl/src/core/lv_obj_style_gen.h ****     return (lv_align_t)v.num;
  53:Middlewares/LVGL/GUI/lvgl/src/core/lv_obj_style_gen.h **** }
  54:Middlewares/LVGL/GUI/lvgl/src/core/lv_obj_style_gen.h **** 
  55:Middlewares/LVGL/GUI/lvgl/src/core/lv_obj_style_gen.h **** static inline lv_coord_t lv_obj_get_style_transform_width(const struct _lv_obj_t * obj, uint32_t pa
  56:Middlewares/LVGL/GUI/lvgl/src/core/lv_obj_style_gen.h **** {
  57:Middlewares/LVGL/GUI/lvgl/src/core/lv_obj_style_gen.h ****     lv_style_value_t v = lv_obj_get_style_prop(obj, part, LV_STYLE_TRANSFORM_WIDTH);
  58:Middlewares/LVGL/GUI/lvgl/src/core/lv_obj_style_gen.h ****     return (lv_coord_t)v.num;
  59:Middlewares/LVGL/GUI/lvgl/src/core/lv_obj_style_gen.h **** }
  60:Middlewares/LVGL/GUI/lvgl/src/core/lv_obj_style_gen.h **** 
  61:Middlewares/LVGL/GUI/lvgl/src/core/lv_obj_style_gen.h **** static inline lv_coord_t lv_obj_get_style_transform_height(const struct _lv_obj_t * obj, uint32_t p
  62:Middlewares/LVGL/GUI/lvgl/src/core/lv_obj_style_gen.h **** {
  63:Middlewares/LVGL/GUI/lvgl/src/core/lv_obj_style_gen.h ****     lv_style_value_t v = lv_obj_get_style_prop(obj, part, LV_STYLE_TRANSFORM_HEIGHT);
  64:Middlewares/LVGL/GUI/lvgl/src/core/lv_obj_style_gen.h ****     return (lv_coord_t)v.num;
  65:Middlewares/LVGL/GUI/lvgl/src/core/lv_obj_style_gen.h **** }
  66:Middlewares/LVGL/GUI/lvgl/src/core/lv_obj_style_gen.h **** 
  67:Middlewares/LVGL/GUI/lvgl/src/core/lv_obj_style_gen.h **** static inline lv_coord_t lv_obj_get_style_translate_x(const struct _lv_obj_t * obj, uint32_t part)
  68:Middlewares/LVGL/GUI/lvgl/src/core/lv_obj_style_gen.h **** {
  69:Middlewares/LVGL/GUI/lvgl/src/core/lv_obj_style_gen.h ****     lv_style_value_t v = lv_obj_get_style_prop(obj, part, LV_STYLE_TRANSLATE_X);
  70:Middlewares/LVGL/GUI/lvgl/src/core/lv_obj_style_gen.h ****     return (lv_coord_t)v.num;
  71:Middlewares/LVGL/GUI/lvgl/src/core/lv_obj_style_gen.h **** }
  72:Middlewares/LVGL/GUI/lvgl/src/core/lv_obj_style_gen.h **** 
  73:Middlewares/LVGL/GUI/lvgl/src/core/lv_obj_style_gen.h **** static inline lv_coord_t lv_obj_get_style_translate_y(const struct _lv_obj_t * obj, uint32_t part)
  74:Middlewares/LVGL/GUI/lvgl/src/core/lv_obj_style_gen.h **** {
  75:Middlewares/LVGL/GUI/lvgl/src/core/lv_obj_style_gen.h ****     lv_style_value_t v = lv_obj_get_style_prop(obj, part, LV_STYLE_TRANSLATE_Y);
  76:Middlewares/LVGL/GUI/lvgl/src/core/lv_obj_style_gen.h ****     return (lv_coord_t)v.num;
  77:Middlewares/LVGL/GUI/lvgl/src/core/lv_obj_style_gen.h **** }
  78:Middlewares/LVGL/GUI/lvgl/src/core/lv_obj_style_gen.h **** 
  79:Middlewares/LVGL/GUI/lvgl/src/core/lv_obj_style_gen.h **** static inline lv_coord_t lv_obj_get_style_transform_zoom(const struct _lv_obj_t * obj, uint32_t par
  80:Middlewares/LVGL/GUI/lvgl/src/core/lv_obj_style_gen.h **** {
  81:Middlewares/LVGL/GUI/lvgl/src/core/lv_obj_style_gen.h ****     lv_style_value_t v = lv_obj_get_style_prop(obj, part, LV_STYLE_TRANSFORM_ZOOM);
  82:Middlewares/LVGL/GUI/lvgl/src/core/lv_obj_style_gen.h ****     return (lv_coord_t)v.num;
  83:Middlewares/LVGL/GUI/lvgl/src/core/lv_obj_style_gen.h **** }
  84:Middlewares/LVGL/GUI/lvgl/src/core/lv_obj_style_gen.h **** 
  85:Middlewares/LVGL/GUI/lvgl/src/core/lv_obj_style_gen.h **** static inline lv_coord_t lv_obj_get_style_transform_angle(const struct _lv_obj_t * obj, uint32_t pa
  86:Middlewares/LVGL/GUI/lvgl/src/core/lv_obj_style_gen.h **** {
  87:Middlewares/LVGL/GUI/lvgl/src/core/lv_obj_style_gen.h ****     lv_style_value_t v = lv_obj_get_style_prop(obj, part, LV_STYLE_TRANSFORM_ANGLE);
  88:Middlewares/LVGL/GUI/lvgl/src/core/lv_obj_style_gen.h ****     return (lv_coord_t)v.num;
  89:Middlewares/LVGL/GUI/lvgl/src/core/lv_obj_style_gen.h **** }
  90:Middlewares/LVGL/GUI/lvgl/src/core/lv_obj_style_gen.h **** 
  91:Middlewares/LVGL/GUI/lvgl/src/core/lv_obj_style_gen.h **** static inline lv_coord_t lv_obj_get_style_pad_top(const struct _lv_obj_t * obj, uint32_t part)
 755              		.loc 2 91 26 view .LVU177
 756              	.LBB103:
  92:Middlewares/LVGL/GUI/lvgl/src/core/lv_obj_style_gen.h **** {
  93:Middlewares/LVGL/GUI/lvgl/src/core/lv_obj_style_gen.h ****     lv_style_value_t v = lv_obj_get_style_prop(obj, part, LV_STYLE_PAD_TOP);
 757              		.loc 2 93 5 view .LVU178
 758              		.loc 2 93 26 is_stmt 0 view .LVU179
 759 0036 41F61002 		movw	r2, #6160
ARM GAS  C:\Users\ADMINI~1\AppData\Local\Temp\cchMZgMB.s 			page 30


 760 003a 0021     		movs	r1, #0
 761 003c 3046     		mov	r0, r6
 762 003e FFF7FEFF 		bl	lv_obj_get_style_prop
 763              	.LVL66:
 764 0042 8146     		mov	r9, r0
  94:Middlewares/LVGL/GUI/lvgl/src/core/lv_obj_style_gen.h ****     return (lv_coord_t)v.num;
 765              		.loc 2 94 5 is_stmt 1 view .LVU180
 766              	.LVL67:
 767              		.loc 2 94 5 is_stmt 0 view .LVU181
 768              	.LBE103:
 769              	.LBE102:
 149:Middlewares/LVGL/GUI/lvgl/src/core/lv_obj_scroll.c ****     lv_coord_t border_width = lv_obj_get_style_border_width(obj, LV_PART_MAIN);
 770              		.loc 1 149 5 is_stmt 1 view .LVU182
 771              	.LBB104:
 772              	.LBI104:
  95:Middlewares/LVGL/GUI/lvgl/src/core/lv_obj_style_gen.h **** }
  96:Middlewares/LVGL/GUI/lvgl/src/core/lv_obj_style_gen.h **** 
  97:Middlewares/LVGL/GUI/lvgl/src/core/lv_obj_style_gen.h **** static inline lv_coord_t lv_obj_get_style_pad_bottom(const struct _lv_obj_t * obj, uint32_t part)
 773              		.loc 2 97 26 view .LVU183
 774              	.LBB105:
  98:Middlewares/LVGL/GUI/lvgl/src/core/lv_obj_style_gen.h **** {
  99:Middlewares/LVGL/GUI/lvgl/src/core/lv_obj_style_gen.h ****     lv_style_value_t v = lv_obj_get_style_prop(obj, part, LV_STYLE_PAD_BOTTOM);
 775              		.loc 2 99 5 view .LVU184
 776              		.loc 2 99 26 is_stmt 0 view .LVU185
 777 0044 41F61102 		movw	r2, #6161
 778 0048 0021     		movs	r1, #0
 779 004a 3046     		mov	r0, r6
 780              	.LVL68:
 781              		.loc 2 99 26 view .LVU186
 782 004c FFF7FEFF 		bl	lv_obj_get_style_prop
 783              	.LVL69:
 784 0050 8046     		mov	r8, r0
 785              	.LVL70:
 100:Middlewares/LVGL/GUI/lvgl/src/core/lv_obj_style_gen.h ****     return (lv_coord_t)v.num;
 786              		.loc 2 100 5 is_stmt 1 view .LVU187
 787              		.loc 2 100 5 is_stmt 0 view .LVU188
 788              	.LBE105:
 789              	.LBE104:
 150:Middlewares/LVGL/GUI/lvgl/src/core/lv_obj_scroll.c **** 
 790              		.loc 1 150 5 is_stmt 1 view .LVU189
 791              	.LBB106:
 792              	.LBI106:
 101:Middlewares/LVGL/GUI/lvgl/src/core/lv_obj_style_gen.h **** }
 102:Middlewares/LVGL/GUI/lvgl/src/core/lv_obj_style_gen.h **** 
 103:Middlewares/LVGL/GUI/lvgl/src/core/lv_obj_style_gen.h **** static inline lv_coord_t lv_obj_get_style_pad_left(const struct _lv_obj_t * obj, uint32_t part)
 104:Middlewares/LVGL/GUI/lvgl/src/core/lv_obj_style_gen.h **** {
 105:Middlewares/LVGL/GUI/lvgl/src/core/lv_obj_style_gen.h ****     lv_style_value_t v = lv_obj_get_style_prop(obj, part, LV_STYLE_PAD_LEFT);
 106:Middlewares/LVGL/GUI/lvgl/src/core/lv_obj_style_gen.h ****     return (lv_coord_t)v.num;
 107:Middlewares/LVGL/GUI/lvgl/src/core/lv_obj_style_gen.h **** }
 108:Middlewares/LVGL/GUI/lvgl/src/core/lv_obj_style_gen.h **** 
 109:Middlewares/LVGL/GUI/lvgl/src/core/lv_obj_style_gen.h **** static inline lv_coord_t lv_obj_get_style_pad_right(const struct _lv_obj_t * obj, uint32_t part)
 110:Middlewares/LVGL/GUI/lvgl/src/core/lv_obj_style_gen.h **** {
 111:Middlewares/LVGL/GUI/lvgl/src/core/lv_obj_style_gen.h ****     lv_style_value_t v = lv_obj_get_style_prop(obj, part, LV_STYLE_PAD_RIGHT);
 112:Middlewares/LVGL/GUI/lvgl/src/core/lv_obj_style_gen.h ****     return (lv_coord_t)v.num;
 113:Middlewares/LVGL/GUI/lvgl/src/core/lv_obj_style_gen.h **** }
 114:Middlewares/LVGL/GUI/lvgl/src/core/lv_obj_style_gen.h **** 
 115:Middlewares/LVGL/GUI/lvgl/src/core/lv_obj_style_gen.h **** static inline lv_coord_t lv_obj_get_style_pad_row(const struct _lv_obj_t * obj, uint32_t part)
ARM GAS  C:\Users\ADMINI~1\AppData\Local\Temp\cchMZgMB.s 			page 31


 116:Middlewares/LVGL/GUI/lvgl/src/core/lv_obj_style_gen.h **** {
 117:Middlewares/LVGL/GUI/lvgl/src/core/lv_obj_style_gen.h ****     lv_style_value_t v = lv_obj_get_style_prop(obj, part, LV_STYLE_PAD_ROW);
 118:Middlewares/LVGL/GUI/lvgl/src/core/lv_obj_style_gen.h ****     return (lv_coord_t)v.num;
 119:Middlewares/LVGL/GUI/lvgl/src/core/lv_obj_style_gen.h **** }
 120:Middlewares/LVGL/GUI/lvgl/src/core/lv_obj_style_gen.h **** 
 121:Middlewares/LVGL/GUI/lvgl/src/core/lv_obj_style_gen.h **** static inline lv_coord_t lv_obj_get_style_pad_column(const struct _lv_obj_t * obj, uint32_t part)
 122:Middlewares/LVGL/GUI/lvgl/src/core/lv_obj_style_gen.h **** {
 123:Middlewares/LVGL/GUI/lvgl/src/core/lv_obj_style_gen.h ****     lv_style_value_t v = lv_obj_get_style_prop(obj, part, LV_STYLE_PAD_COLUMN);
 124:Middlewares/LVGL/GUI/lvgl/src/core/lv_obj_style_gen.h ****     return (lv_coord_t)v.num;
 125:Middlewares/LVGL/GUI/lvgl/src/core/lv_obj_style_gen.h **** }
 126:Middlewares/LVGL/GUI/lvgl/src/core/lv_obj_style_gen.h **** 
 127:Middlewares/LVGL/GUI/lvgl/src/core/lv_obj_style_gen.h **** static inline lv_color_t lv_obj_get_style_bg_color(const struct _lv_obj_t * obj, uint32_t part)
 128:Middlewares/LVGL/GUI/lvgl/src/core/lv_obj_style_gen.h **** {
 129:Middlewares/LVGL/GUI/lvgl/src/core/lv_obj_style_gen.h ****     lv_style_value_t v = lv_obj_get_style_prop(obj, part, LV_STYLE_BG_COLOR);
 130:Middlewares/LVGL/GUI/lvgl/src/core/lv_obj_style_gen.h ****     return v.color;
 131:Middlewares/LVGL/GUI/lvgl/src/core/lv_obj_style_gen.h **** }
 132:Middlewares/LVGL/GUI/lvgl/src/core/lv_obj_style_gen.h **** 
 133:Middlewares/LVGL/GUI/lvgl/src/core/lv_obj_style_gen.h **** static inline lv_color_t lv_obj_get_style_bg_color_filtered(const struct _lv_obj_t * obj, uint32_t 
 134:Middlewares/LVGL/GUI/lvgl/src/core/lv_obj_style_gen.h **** {
 135:Middlewares/LVGL/GUI/lvgl/src/core/lv_obj_style_gen.h ****     lv_style_value_t v = lv_obj_get_style_prop(obj, part, LV_STYLE_BG_COLOR_FILTERED);
 136:Middlewares/LVGL/GUI/lvgl/src/core/lv_obj_style_gen.h ****     return v.color;
 137:Middlewares/LVGL/GUI/lvgl/src/core/lv_obj_style_gen.h **** }
 138:Middlewares/LVGL/GUI/lvgl/src/core/lv_obj_style_gen.h **** 
 139:Middlewares/LVGL/GUI/lvgl/src/core/lv_obj_style_gen.h **** static inline lv_opa_t lv_obj_get_style_bg_opa(const struct _lv_obj_t * obj, uint32_t part)
 140:Middlewares/LVGL/GUI/lvgl/src/core/lv_obj_style_gen.h **** {
 141:Middlewares/LVGL/GUI/lvgl/src/core/lv_obj_style_gen.h ****     lv_style_value_t v = lv_obj_get_style_prop(obj, part, LV_STYLE_BG_OPA);
 142:Middlewares/LVGL/GUI/lvgl/src/core/lv_obj_style_gen.h ****     return (lv_opa_t)v.num;
 143:Middlewares/LVGL/GUI/lvgl/src/core/lv_obj_style_gen.h **** }
 144:Middlewares/LVGL/GUI/lvgl/src/core/lv_obj_style_gen.h **** 
 145:Middlewares/LVGL/GUI/lvgl/src/core/lv_obj_style_gen.h **** static inline lv_color_t lv_obj_get_style_bg_grad_color(const struct _lv_obj_t * obj, uint32_t part
 146:Middlewares/LVGL/GUI/lvgl/src/core/lv_obj_style_gen.h **** {
 147:Middlewares/LVGL/GUI/lvgl/src/core/lv_obj_style_gen.h ****     lv_style_value_t v = lv_obj_get_style_prop(obj, part, LV_STYLE_BG_GRAD_COLOR);
 148:Middlewares/LVGL/GUI/lvgl/src/core/lv_obj_style_gen.h ****     return v.color;
 149:Middlewares/LVGL/GUI/lvgl/src/core/lv_obj_style_gen.h **** }
 150:Middlewares/LVGL/GUI/lvgl/src/core/lv_obj_style_gen.h **** 
 151:Middlewares/LVGL/GUI/lvgl/src/core/lv_obj_style_gen.h **** static inline lv_color_t lv_obj_get_style_bg_grad_color_filtered(const struct _lv_obj_t * obj, uint
 152:Middlewares/LVGL/GUI/lvgl/src/core/lv_obj_style_gen.h **** {
 153:Middlewares/LVGL/GUI/lvgl/src/core/lv_obj_style_gen.h ****     lv_style_value_t v = lv_obj_get_style_prop(obj, part, LV_STYLE_BG_GRAD_COLOR_FILTERED);
 154:Middlewares/LVGL/GUI/lvgl/src/core/lv_obj_style_gen.h ****     return v.color;
 155:Middlewares/LVGL/GUI/lvgl/src/core/lv_obj_style_gen.h **** }
 156:Middlewares/LVGL/GUI/lvgl/src/core/lv_obj_style_gen.h **** 
 157:Middlewares/LVGL/GUI/lvgl/src/core/lv_obj_style_gen.h **** static inline lv_grad_dir_t lv_obj_get_style_bg_grad_dir(const struct _lv_obj_t * obj, uint32_t par
 158:Middlewares/LVGL/GUI/lvgl/src/core/lv_obj_style_gen.h **** {
 159:Middlewares/LVGL/GUI/lvgl/src/core/lv_obj_style_gen.h ****     lv_style_value_t v = lv_obj_get_style_prop(obj, part, LV_STYLE_BG_GRAD_DIR);
 160:Middlewares/LVGL/GUI/lvgl/src/core/lv_obj_style_gen.h ****     return (lv_grad_dir_t)v.num;
 161:Middlewares/LVGL/GUI/lvgl/src/core/lv_obj_style_gen.h **** }
 162:Middlewares/LVGL/GUI/lvgl/src/core/lv_obj_style_gen.h **** 
 163:Middlewares/LVGL/GUI/lvgl/src/core/lv_obj_style_gen.h **** static inline lv_coord_t lv_obj_get_style_bg_main_stop(const struct _lv_obj_t * obj, uint32_t part)
 164:Middlewares/LVGL/GUI/lvgl/src/core/lv_obj_style_gen.h **** {
 165:Middlewares/LVGL/GUI/lvgl/src/core/lv_obj_style_gen.h ****     lv_style_value_t v = lv_obj_get_style_prop(obj, part, LV_STYLE_BG_MAIN_STOP);
 166:Middlewares/LVGL/GUI/lvgl/src/core/lv_obj_style_gen.h ****     return (lv_coord_t)v.num;
 167:Middlewares/LVGL/GUI/lvgl/src/core/lv_obj_style_gen.h **** }
 168:Middlewares/LVGL/GUI/lvgl/src/core/lv_obj_style_gen.h **** 
 169:Middlewares/LVGL/GUI/lvgl/src/core/lv_obj_style_gen.h **** static inline lv_coord_t lv_obj_get_style_bg_grad_stop(const struct _lv_obj_t * obj, uint32_t part)
 170:Middlewares/LVGL/GUI/lvgl/src/core/lv_obj_style_gen.h **** {
 171:Middlewares/LVGL/GUI/lvgl/src/core/lv_obj_style_gen.h ****     lv_style_value_t v = lv_obj_get_style_prop(obj, part, LV_STYLE_BG_GRAD_STOP);
 172:Middlewares/LVGL/GUI/lvgl/src/core/lv_obj_style_gen.h ****     return (lv_coord_t)v.num;
ARM GAS  C:\Users\ADMINI~1\AppData\Local\Temp\cchMZgMB.s 			page 32


 173:Middlewares/LVGL/GUI/lvgl/src/core/lv_obj_style_gen.h **** }
 174:Middlewares/LVGL/GUI/lvgl/src/core/lv_obj_style_gen.h **** 
 175:Middlewares/LVGL/GUI/lvgl/src/core/lv_obj_style_gen.h **** static inline const lv_grad_dsc_t * lv_obj_get_style_bg_grad(const struct _lv_obj_t * obj, uint32_t
 176:Middlewares/LVGL/GUI/lvgl/src/core/lv_obj_style_gen.h **** {
 177:Middlewares/LVGL/GUI/lvgl/src/core/lv_obj_style_gen.h ****     lv_style_value_t v = lv_obj_get_style_prop(obj, part, LV_STYLE_BG_GRAD);
 178:Middlewares/LVGL/GUI/lvgl/src/core/lv_obj_style_gen.h ****     return (const lv_grad_dsc_t *)v.ptr;
 179:Middlewares/LVGL/GUI/lvgl/src/core/lv_obj_style_gen.h **** }
 180:Middlewares/LVGL/GUI/lvgl/src/core/lv_obj_style_gen.h **** 
 181:Middlewares/LVGL/GUI/lvgl/src/core/lv_obj_style_gen.h **** static inline lv_dither_mode_t lv_obj_get_style_bg_dither_mode(const struct _lv_obj_t * obj, uint32
 182:Middlewares/LVGL/GUI/lvgl/src/core/lv_obj_style_gen.h **** {
 183:Middlewares/LVGL/GUI/lvgl/src/core/lv_obj_style_gen.h ****     lv_style_value_t v = lv_obj_get_style_prop(obj, part, LV_STYLE_BG_DITHER_MODE);
 184:Middlewares/LVGL/GUI/lvgl/src/core/lv_obj_style_gen.h ****     return (lv_dither_mode_t)v.num;
 185:Middlewares/LVGL/GUI/lvgl/src/core/lv_obj_style_gen.h **** }
 186:Middlewares/LVGL/GUI/lvgl/src/core/lv_obj_style_gen.h **** 
 187:Middlewares/LVGL/GUI/lvgl/src/core/lv_obj_style_gen.h **** static inline const void * lv_obj_get_style_bg_img_src(const struct _lv_obj_t * obj, uint32_t part)
 188:Middlewares/LVGL/GUI/lvgl/src/core/lv_obj_style_gen.h **** {
 189:Middlewares/LVGL/GUI/lvgl/src/core/lv_obj_style_gen.h ****     lv_style_value_t v = lv_obj_get_style_prop(obj, part, LV_STYLE_BG_IMG_SRC);
 190:Middlewares/LVGL/GUI/lvgl/src/core/lv_obj_style_gen.h ****     return (const void *)v.ptr;
 191:Middlewares/LVGL/GUI/lvgl/src/core/lv_obj_style_gen.h **** }
 192:Middlewares/LVGL/GUI/lvgl/src/core/lv_obj_style_gen.h **** 
 193:Middlewares/LVGL/GUI/lvgl/src/core/lv_obj_style_gen.h **** static inline lv_opa_t lv_obj_get_style_bg_img_opa(const struct _lv_obj_t * obj, uint32_t part)
 194:Middlewares/LVGL/GUI/lvgl/src/core/lv_obj_style_gen.h **** {
 195:Middlewares/LVGL/GUI/lvgl/src/core/lv_obj_style_gen.h ****     lv_style_value_t v = lv_obj_get_style_prop(obj, part, LV_STYLE_BG_IMG_OPA);
 196:Middlewares/LVGL/GUI/lvgl/src/core/lv_obj_style_gen.h ****     return (lv_opa_t)v.num;
 197:Middlewares/LVGL/GUI/lvgl/src/core/lv_obj_style_gen.h **** }
 198:Middlewares/LVGL/GUI/lvgl/src/core/lv_obj_style_gen.h **** 
 199:Middlewares/LVGL/GUI/lvgl/src/core/lv_obj_style_gen.h **** static inline lv_color_t lv_obj_get_style_bg_img_recolor(const struct _lv_obj_t * obj, uint32_t par
 200:Middlewares/LVGL/GUI/lvgl/src/core/lv_obj_style_gen.h **** {
 201:Middlewares/LVGL/GUI/lvgl/src/core/lv_obj_style_gen.h ****     lv_style_value_t v = lv_obj_get_style_prop(obj, part, LV_STYLE_BG_IMG_RECOLOR);
 202:Middlewares/LVGL/GUI/lvgl/src/core/lv_obj_style_gen.h ****     return v.color;
 203:Middlewares/LVGL/GUI/lvgl/src/core/lv_obj_style_gen.h **** }
 204:Middlewares/LVGL/GUI/lvgl/src/core/lv_obj_style_gen.h **** 
 205:Middlewares/LVGL/GUI/lvgl/src/core/lv_obj_style_gen.h **** static inline lv_color_t lv_obj_get_style_bg_img_recolor_filtered(const struct _lv_obj_t * obj, uin
 206:Middlewares/LVGL/GUI/lvgl/src/core/lv_obj_style_gen.h **** {
 207:Middlewares/LVGL/GUI/lvgl/src/core/lv_obj_style_gen.h ****     lv_style_value_t v = lv_obj_get_style_prop(obj, part, LV_STYLE_BG_IMG_RECOLOR_FILTERED);
 208:Middlewares/LVGL/GUI/lvgl/src/core/lv_obj_style_gen.h ****     return v.color;
 209:Middlewares/LVGL/GUI/lvgl/src/core/lv_obj_style_gen.h **** }
 210:Middlewares/LVGL/GUI/lvgl/src/core/lv_obj_style_gen.h **** 
 211:Middlewares/LVGL/GUI/lvgl/src/core/lv_obj_style_gen.h **** static inline lv_opa_t lv_obj_get_style_bg_img_recolor_opa(const struct _lv_obj_t * obj, uint32_t p
 212:Middlewares/LVGL/GUI/lvgl/src/core/lv_obj_style_gen.h **** {
 213:Middlewares/LVGL/GUI/lvgl/src/core/lv_obj_style_gen.h ****     lv_style_value_t v = lv_obj_get_style_prop(obj, part, LV_STYLE_BG_IMG_RECOLOR_OPA);
 214:Middlewares/LVGL/GUI/lvgl/src/core/lv_obj_style_gen.h ****     return (lv_opa_t)v.num;
 215:Middlewares/LVGL/GUI/lvgl/src/core/lv_obj_style_gen.h **** }
 216:Middlewares/LVGL/GUI/lvgl/src/core/lv_obj_style_gen.h **** 
 217:Middlewares/LVGL/GUI/lvgl/src/core/lv_obj_style_gen.h **** static inline bool lv_obj_get_style_bg_img_tiled(const struct _lv_obj_t * obj, uint32_t part)
 218:Middlewares/LVGL/GUI/lvgl/src/core/lv_obj_style_gen.h **** {
 219:Middlewares/LVGL/GUI/lvgl/src/core/lv_obj_style_gen.h ****     lv_style_value_t v = lv_obj_get_style_prop(obj, part, LV_STYLE_BG_IMG_TILED);
 220:Middlewares/LVGL/GUI/lvgl/src/core/lv_obj_style_gen.h ****     return (bool)v.num;
 221:Middlewares/LVGL/GUI/lvgl/src/core/lv_obj_style_gen.h **** }
 222:Middlewares/LVGL/GUI/lvgl/src/core/lv_obj_style_gen.h **** 
 223:Middlewares/LVGL/GUI/lvgl/src/core/lv_obj_style_gen.h **** static inline lv_color_t lv_obj_get_style_border_color(const struct _lv_obj_t * obj, uint32_t part)
 224:Middlewares/LVGL/GUI/lvgl/src/core/lv_obj_style_gen.h **** {
 225:Middlewares/LVGL/GUI/lvgl/src/core/lv_obj_style_gen.h ****     lv_style_value_t v = lv_obj_get_style_prop(obj, part, LV_STYLE_BORDER_COLOR);
 226:Middlewares/LVGL/GUI/lvgl/src/core/lv_obj_style_gen.h ****     return v.color;
 227:Middlewares/LVGL/GUI/lvgl/src/core/lv_obj_style_gen.h **** }
 228:Middlewares/LVGL/GUI/lvgl/src/core/lv_obj_style_gen.h **** 
 229:Middlewares/LVGL/GUI/lvgl/src/core/lv_obj_style_gen.h **** static inline lv_color_t lv_obj_get_style_border_color_filtered(const struct _lv_obj_t * obj, uint3
ARM GAS  C:\Users\ADMINI~1\AppData\Local\Temp\cchMZgMB.s 			page 33


 230:Middlewares/LVGL/GUI/lvgl/src/core/lv_obj_style_gen.h **** {
 231:Middlewares/LVGL/GUI/lvgl/src/core/lv_obj_style_gen.h ****     lv_style_value_t v = lv_obj_get_style_prop(obj, part, LV_STYLE_BORDER_COLOR_FILTERED);
 232:Middlewares/LVGL/GUI/lvgl/src/core/lv_obj_style_gen.h ****     return v.color;
 233:Middlewares/LVGL/GUI/lvgl/src/core/lv_obj_style_gen.h **** }
 234:Middlewares/LVGL/GUI/lvgl/src/core/lv_obj_style_gen.h **** 
 235:Middlewares/LVGL/GUI/lvgl/src/core/lv_obj_style_gen.h **** static inline lv_opa_t lv_obj_get_style_border_opa(const struct _lv_obj_t * obj, uint32_t part)
 236:Middlewares/LVGL/GUI/lvgl/src/core/lv_obj_style_gen.h **** {
 237:Middlewares/LVGL/GUI/lvgl/src/core/lv_obj_style_gen.h ****     lv_style_value_t v = lv_obj_get_style_prop(obj, part, LV_STYLE_BORDER_OPA);
 238:Middlewares/LVGL/GUI/lvgl/src/core/lv_obj_style_gen.h ****     return (lv_opa_t)v.num;
 239:Middlewares/LVGL/GUI/lvgl/src/core/lv_obj_style_gen.h **** }
 240:Middlewares/LVGL/GUI/lvgl/src/core/lv_obj_style_gen.h **** 
 241:Middlewares/LVGL/GUI/lvgl/src/core/lv_obj_style_gen.h **** static inline lv_coord_t lv_obj_get_style_border_width(const struct _lv_obj_t * obj, uint32_t part)
 793              		.loc 2 241 26 view .LVU190
 794              	.LBB107:
 242:Middlewares/LVGL/GUI/lvgl/src/core/lv_obj_style_gen.h **** {
 243:Middlewares/LVGL/GUI/lvgl/src/core/lv_obj_style_gen.h ****     lv_style_value_t v = lv_obj_get_style_prop(obj, part, LV_STYLE_BORDER_WIDTH);
 795              		.loc 2 243 5 view .LVU191
 796              		.loc 2 243 26 is_stmt 0 view .LVU192
 797 0052 41F23202 		movw	r2, #4146
 798 0056 0021     		movs	r1, #0
 799 0058 3046     		mov	r0, r6
 800              	.LVL71:
 801              		.loc 2 243 26 view .LVU193
 802 005a FFF7FEFF 		bl	lv_obj_get_style_prop
 803              	.LVL72:
 804 005e 0546     		mov	r5, r0
 244:Middlewares/LVGL/GUI/lvgl/src/core/lv_obj_style_gen.h ****     return (lv_coord_t)v.num;
 805              		.loc 2 244 5 is_stmt 1 view .LVU194
 806              	.LVL73:
 807              		.loc 2 244 5 is_stmt 0 view .LVU195
 808              	.LBE107:
 809              	.LBE106:
 152:Middlewares/LVGL/GUI/lvgl/src/core/lv_obj_scroll.c ****         child_res -= (obj->coords.y2 - pad_bottom - border_width);
 810              		.loc 1 152 5 is_stmt 1 view .LVU196
 152:Middlewares/LVGL/GUI/lvgl/src/core/lv_obj_scroll.c ****         child_res -= (obj->coords.y2 - pad_bottom - border_width);
 811              		.loc 1 152 7 is_stmt 0 view .LVU197
 812 0060 0F4B     		ldr	r3, .L51
 813 0062 9F42     		cmp	r7, r3
 814 0064 04D0     		beq	.L47
 153:Middlewares/LVGL/GUI/lvgl/src/core/lv_obj_scroll.c ****     }
 815              		.loc 1 153 9 is_stmt 1 view .LVU198
 153:Middlewares/LVGL/GUI/lvgl/src/core/lv_obj_scroll.c ****     }
 816              		.loc 1 153 34 is_stmt 0 view .LVU199
 817 0066 336A     		ldr	r3, [r6, #32]
 153:Middlewares/LVGL/GUI/lvgl/src/core/lv_obj_scroll.c ****     }
 818              		.loc 1 153 38 view .LVU200
 819 0068 A3EB0803 		sub	r3, r3, r8
 153:Middlewares/LVGL/GUI/lvgl/src/core/lv_obj_scroll.c ****     }
 820              		.loc 1 153 51 view .LVU201
 821 006c 1B1A     		subs	r3, r3, r0
 153:Middlewares/LVGL/GUI/lvgl/src/core/lv_obj_scroll.c ****     }
 822              		.loc 1 153 19 view .LVU202
 823 006e FF1A     		subs	r7, r7, r3
 824              	.LVL74:
 825              	.L47:
 156:Middlewares/LVGL/GUI/lvgl/src/core/lv_obj_scroll.c ****     self_h = self_h - (lv_obj_get_height(obj) - pad_top - pad_bottom - 2 * border_width);
 826              		.loc 1 156 5 is_stmt 1 view .LVU203
ARM GAS  C:\Users\ADMINI~1\AppData\Local\Temp\cchMZgMB.s 			page 34


 156:Middlewares/LVGL/GUI/lvgl/src/core/lv_obj_scroll.c ****     self_h = self_h - (lv_obj_get_height(obj) - pad_top - pad_bottom - 2 * border_width);
 827              		.loc 1 156 25 is_stmt 0 view .LVU204
 828 0070 3046     		mov	r0, r6
 829              	.LVL75:
 156:Middlewares/LVGL/GUI/lvgl/src/core/lv_obj_scroll.c ****     self_h = self_h - (lv_obj_get_height(obj) - pad_top - pad_bottom - 2 * border_width);
 830              		.loc 1 156 25 view .LVU205
 831 0072 FFF7FEFF 		bl	lv_obj_get_self_height
 832              	.LVL76:
 833 0076 0446     		mov	r4, r0
 834              	.LVL77:
 157:Middlewares/LVGL/GUI/lvgl/src/core/lv_obj_scroll.c ****     self_h -= lv_obj_get_scroll_y(obj);
 835              		.loc 1 157 5 is_stmt 1 view .LVU206
 157:Middlewares/LVGL/GUI/lvgl/src/core/lv_obj_scroll.c ****     self_h -= lv_obj_get_scroll_y(obj);
 836              		.loc 1 157 24 is_stmt 0 view .LVU207
 837 0078 3046     		mov	r0, r6
 838              	.LVL78:
 157:Middlewares/LVGL/GUI/lvgl/src/core/lv_obj_scroll.c ****     self_h -= lv_obj_get_scroll_y(obj);
 839              		.loc 1 157 24 view .LVU208
 840 007a FFF7FEFF 		bl	lv_obj_get_height
 841              	.LVL79:
 157:Middlewares/LVGL/GUI/lvgl/src/core/lv_obj_scroll.c ****     self_h -= lv_obj_get_scroll_y(obj);
 842              		.loc 1 157 47 view .LVU209
 843 007e A0EB0903 		sub	r3, r0, r9
 157:Middlewares/LVGL/GUI/lvgl/src/core/lv_obj_scroll.c ****     self_h -= lv_obj_get_scroll_y(obj);
 844              		.loc 1 157 57 view .LVU210
 845 0082 A3EB0803 		sub	r3, r3, r8
 157:Middlewares/LVGL/GUI/lvgl/src/core/lv_obj_scroll.c ****     self_h -= lv_obj_get_scroll_y(obj);
 846              		.loc 1 157 70 view .LVU211
 847 0086 A3EB4500 		sub	r0, r3, r5, lsl #1
 157:Middlewares/LVGL/GUI/lvgl/src/core/lv_obj_scroll.c ****     self_h -= lv_obj_get_scroll_y(obj);
 848              		.loc 1 157 12 view .LVU212
 849 008a 241A     		subs	r4, r4, r0
 850              	.LVL80:
 158:Middlewares/LVGL/GUI/lvgl/src/core/lv_obj_scroll.c ****     return LV_MAX(child_res, self_h);
 851              		.loc 1 158 5 is_stmt 1 view .LVU213
 158:Middlewares/LVGL/GUI/lvgl/src/core/lv_obj_scroll.c ****     return LV_MAX(child_res, self_h);
 852              		.loc 1 158 15 is_stmt 0 view .LVU214
 853 008c 3046     		mov	r0, r6
 854 008e FFF7FEFF 		bl	lv_obj_get_scroll_y
 855              	.LVL81:
 158:Middlewares/LVGL/GUI/lvgl/src/core/lv_obj_scroll.c ****     return LV_MAX(child_res, self_h);
 856              		.loc 1 158 12 view .LVU215
 857 0092 201A     		subs	r0, r4, r0
 858              	.LVL82:
 159:Middlewares/LVGL/GUI/lvgl/src/core/lv_obj_scroll.c **** }
 859              		.loc 1 159 5 is_stmt 1 view .LVU216
 160:Middlewares/LVGL/GUI/lvgl/src/core/lv_obj_scroll.c **** 
 860              		.loc 1 160 1 is_stmt 0 view .LVU217
 861 0094 B842     		cmp	r0, r7
 862 0096 B8BF     		it	lt
 863 0098 3846     		movlt	r0, r7
 864              	.LVL83:
 160:Middlewares/LVGL/GUI/lvgl/src/core/lv_obj_scroll.c **** 
 865              		.loc 1 160 1 view .LVU218
 866 009a BDE8F883 		pop	{r3, r4, r5, r6, r7, r8, r9, pc}
 867              	.LVL84:
 868              	.L52:
ARM GAS  C:\Users\ADMINI~1\AppData\Local\Temp\cchMZgMB.s 			page 35


 160:Middlewares/LVGL/GUI/lvgl/src/core/lv_obj_scroll.c **** 
 869              		.loc 1 160 1 view .LVU219
 870 009e 00BF     		.align	2
 871              	.L51:
 872 00a0 010000E0 		.word	-536870911
 873 00a4 01000400 		.word	262145
 874              		.cfi_endproc
 875              	.LFE170:
 877              		.section	.text.lv_obj_get_scroll_left,"ax",%progbits
 878              		.align	1
 879              		.global	lv_obj_get_scroll_left
 880              		.syntax unified
 881              		.thumb
 882              		.thumb_func
 884              	lv_obj_get_scroll_left:
 885              	.LVL85:
 886              	.LFB171:
 163:Middlewares/LVGL/GUI/lvgl/src/core/lv_obj_scroll.c ****     LV_ASSERT_OBJ(obj, MY_CLASS);
 887              		.loc 1 163 1 is_stmt 1 view -0
 888              		.cfi_startproc
 889              		@ args = 0, pretend = 0, frame = 0
 890              		@ frame_needed = 0, uses_anonymous_args = 0
 163:Middlewares/LVGL/GUI/lvgl/src/core/lv_obj_scroll.c ****     LV_ASSERT_OBJ(obj, MY_CLASS);
 891              		.loc 1 163 1 is_stmt 0 view .LVU221
 892 0000 2DE9F84F 		push	{r3, r4, r5, r6, r7, r8, r9, r10, fp, lr}
 893              	.LCFI9:
 894              		.cfi_def_cfa_offset 40
 895              		.cfi_offset 3, -40
 896              		.cfi_offset 4, -36
 897              		.cfi_offset 5, -32
 898              		.cfi_offset 6, -28
 899              		.cfi_offset 7, -24
 900              		.cfi_offset 8, -20
 901              		.cfi_offset 9, -16
 902              		.cfi_offset 10, -12
 903              		.cfi_offset 11, -8
 904              		.cfi_offset 14, -4
 905 0004 0446     		mov	r4, r0
 164:Middlewares/LVGL/GUI/lvgl/src/core/lv_obj_scroll.c **** 
 906              		.loc 1 164 5 is_stmt 1 view .LVU222
 164:Middlewares/LVGL/GUI/lvgl/src/core/lv_obj_scroll.c **** 
 907              		.loc 1 164 5 view .LVU223
 164:Middlewares/LVGL/GUI/lvgl/src/core/lv_obj_scroll.c **** 
 908              		.loc 1 164 5 view .LVU224
 168:Middlewares/LVGL/GUI/lvgl/src/core/lv_obj_scroll.c ****         if(obj->spec_attr == NULL) return 0;
 909              		.loc 1 168 5 view .LVU225
 910              	.LVL86:
 911              	.LBB108:
 912              	.LBI108:
 245:Middlewares/LVGL/GUI/lvgl/src/core/lv_obj_style_gen.h **** }
 246:Middlewares/LVGL/GUI/lvgl/src/core/lv_obj_style_gen.h **** 
 247:Middlewares/LVGL/GUI/lvgl/src/core/lv_obj_style_gen.h **** static inline lv_border_side_t lv_obj_get_style_border_side(const struct _lv_obj_t * obj, uint32_t 
 248:Middlewares/LVGL/GUI/lvgl/src/core/lv_obj_style_gen.h **** {
 249:Middlewares/LVGL/GUI/lvgl/src/core/lv_obj_style_gen.h ****     lv_style_value_t v = lv_obj_get_style_prop(obj, part, LV_STYLE_BORDER_SIDE);
 250:Middlewares/LVGL/GUI/lvgl/src/core/lv_obj_style_gen.h ****     return (lv_border_side_t)v.num;
 251:Middlewares/LVGL/GUI/lvgl/src/core/lv_obj_style_gen.h **** }
 252:Middlewares/LVGL/GUI/lvgl/src/core/lv_obj_style_gen.h **** 
ARM GAS  C:\Users\ADMINI~1\AppData\Local\Temp\cchMZgMB.s 			page 36


 253:Middlewares/LVGL/GUI/lvgl/src/core/lv_obj_style_gen.h **** static inline bool lv_obj_get_style_border_post(const struct _lv_obj_t * obj, uint32_t part)
 254:Middlewares/LVGL/GUI/lvgl/src/core/lv_obj_style_gen.h **** {
 255:Middlewares/LVGL/GUI/lvgl/src/core/lv_obj_style_gen.h ****     lv_style_value_t v = lv_obj_get_style_prop(obj, part, LV_STYLE_BORDER_POST);
 256:Middlewares/LVGL/GUI/lvgl/src/core/lv_obj_style_gen.h ****     return (bool)v.num;
 257:Middlewares/LVGL/GUI/lvgl/src/core/lv_obj_style_gen.h **** }
 258:Middlewares/LVGL/GUI/lvgl/src/core/lv_obj_style_gen.h **** 
 259:Middlewares/LVGL/GUI/lvgl/src/core/lv_obj_style_gen.h **** static inline lv_coord_t lv_obj_get_style_outline_width(const struct _lv_obj_t * obj, uint32_t part
 260:Middlewares/LVGL/GUI/lvgl/src/core/lv_obj_style_gen.h **** {
 261:Middlewares/LVGL/GUI/lvgl/src/core/lv_obj_style_gen.h ****     lv_style_value_t v = lv_obj_get_style_prop(obj, part, LV_STYLE_OUTLINE_WIDTH);
 262:Middlewares/LVGL/GUI/lvgl/src/core/lv_obj_style_gen.h ****     return (lv_coord_t)v.num;
 263:Middlewares/LVGL/GUI/lvgl/src/core/lv_obj_style_gen.h **** }
 264:Middlewares/LVGL/GUI/lvgl/src/core/lv_obj_style_gen.h **** 
 265:Middlewares/LVGL/GUI/lvgl/src/core/lv_obj_style_gen.h **** static inline lv_color_t lv_obj_get_style_outline_color(const struct _lv_obj_t * obj, uint32_t part
 266:Middlewares/LVGL/GUI/lvgl/src/core/lv_obj_style_gen.h **** {
 267:Middlewares/LVGL/GUI/lvgl/src/core/lv_obj_style_gen.h ****     lv_style_value_t v = lv_obj_get_style_prop(obj, part, LV_STYLE_OUTLINE_COLOR);
 268:Middlewares/LVGL/GUI/lvgl/src/core/lv_obj_style_gen.h ****     return v.color;
 269:Middlewares/LVGL/GUI/lvgl/src/core/lv_obj_style_gen.h **** }
 270:Middlewares/LVGL/GUI/lvgl/src/core/lv_obj_style_gen.h **** 
 271:Middlewares/LVGL/GUI/lvgl/src/core/lv_obj_style_gen.h **** static inline lv_color_t lv_obj_get_style_outline_color_filtered(const struct _lv_obj_t * obj, uint
 272:Middlewares/LVGL/GUI/lvgl/src/core/lv_obj_style_gen.h **** {
 273:Middlewares/LVGL/GUI/lvgl/src/core/lv_obj_style_gen.h ****     lv_style_value_t v = lv_obj_get_style_prop(obj, part, LV_STYLE_OUTLINE_COLOR_FILTERED);
 274:Middlewares/LVGL/GUI/lvgl/src/core/lv_obj_style_gen.h ****     return v.color;
 275:Middlewares/LVGL/GUI/lvgl/src/core/lv_obj_style_gen.h **** }
 276:Middlewares/LVGL/GUI/lvgl/src/core/lv_obj_style_gen.h **** 
 277:Middlewares/LVGL/GUI/lvgl/src/core/lv_obj_style_gen.h **** static inline lv_opa_t lv_obj_get_style_outline_opa(const struct _lv_obj_t * obj, uint32_t part)
 278:Middlewares/LVGL/GUI/lvgl/src/core/lv_obj_style_gen.h **** {
 279:Middlewares/LVGL/GUI/lvgl/src/core/lv_obj_style_gen.h ****     lv_style_value_t v = lv_obj_get_style_prop(obj, part, LV_STYLE_OUTLINE_OPA);
 280:Middlewares/LVGL/GUI/lvgl/src/core/lv_obj_style_gen.h ****     return (lv_opa_t)v.num;
 281:Middlewares/LVGL/GUI/lvgl/src/core/lv_obj_style_gen.h **** }
 282:Middlewares/LVGL/GUI/lvgl/src/core/lv_obj_style_gen.h **** 
 283:Middlewares/LVGL/GUI/lvgl/src/core/lv_obj_style_gen.h **** static inline lv_coord_t lv_obj_get_style_outline_pad(const struct _lv_obj_t * obj, uint32_t part)
 284:Middlewares/LVGL/GUI/lvgl/src/core/lv_obj_style_gen.h **** {
 285:Middlewares/LVGL/GUI/lvgl/src/core/lv_obj_style_gen.h ****     lv_style_value_t v = lv_obj_get_style_prop(obj, part, LV_STYLE_OUTLINE_PAD);
 286:Middlewares/LVGL/GUI/lvgl/src/core/lv_obj_style_gen.h ****     return (lv_coord_t)v.num;
 287:Middlewares/LVGL/GUI/lvgl/src/core/lv_obj_style_gen.h **** }
 288:Middlewares/LVGL/GUI/lvgl/src/core/lv_obj_style_gen.h **** 
 289:Middlewares/LVGL/GUI/lvgl/src/core/lv_obj_style_gen.h **** static inline lv_coord_t lv_obj_get_style_shadow_width(const struct _lv_obj_t * obj, uint32_t part)
 290:Middlewares/LVGL/GUI/lvgl/src/core/lv_obj_style_gen.h **** {
 291:Middlewares/LVGL/GUI/lvgl/src/core/lv_obj_style_gen.h ****     lv_style_value_t v = lv_obj_get_style_prop(obj, part, LV_STYLE_SHADOW_WIDTH);
 292:Middlewares/LVGL/GUI/lvgl/src/core/lv_obj_style_gen.h ****     return (lv_coord_t)v.num;
 293:Middlewares/LVGL/GUI/lvgl/src/core/lv_obj_style_gen.h **** }
 294:Middlewares/LVGL/GUI/lvgl/src/core/lv_obj_style_gen.h **** 
 295:Middlewares/LVGL/GUI/lvgl/src/core/lv_obj_style_gen.h **** static inline lv_coord_t lv_obj_get_style_shadow_ofs_x(const struct _lv_obj_t * obj, uint32_t part)
 296:Middlewares/LVGL/GUI/lvgl/src/core/lv_obj_style_gen.h **** {
 297:Middlewares/LVGL/GUI/lvgl/src/core/lv_obj_style_gen.h ****     lv_style_value_t v = lv_obj_get_style_prop(obj, part, LV_STYLE_SHADOW_OFS_X);
 298:Middlewares/LVGL/GUI/lvgl/src/core/lv_obj_style_gen.h ****     return (lv_coord_t)v.num;
 299:Middlewares/LVGL/GUI/lvgl/src/core/lv_obj_style_gen.h **** }
 300:Middlewares/LVGL/GUI/lvgl/src/core/lv_obj_style_gen.h **** 
 301:Middlewares/LVGL/GUI/lvgl/src/core/lv_obj_style_gen.h **** static inline lv_coord_t lv_obj_get_style_shadow_ofs_y(const struct _lv_obj_t * obj, uint32_t part)
 302:Middlewares/LVGL/GUI/lvgl/src/core/lv_obj_style_gen.h **** {
 303:Middlewares/LVGL/GUI/lvgl/src/core/lv_obj_style_gen.h ****     lv_style_value_t v = lv_obj_get_style_prop(obj, part, LV_STYLE_SHADOW_OFS_Y);
 304:Middlewares/LVGL/GUI/lvgl/src/core/lv_obj_style_gen.h ****     return (lv_coord_t)v.num;
 305:Middlewares/LVGL/GUI/lvgl/src/core/lv_obj_style_gen.h **** }
 306:Middlewares/LVGL/GUI/lvgl/src/core/lv_obj_style_gen.h **** 
 307:Middlewares/LVGL/GUI/lvgl/src/core/lv_obj_style_gen.h **** static inline lv_coord_t lv_obj_get_style_shadow_spread(const struct _lv_obj_t * obj, uint32_t part
 308:Middlewares/LVGL/GUI/lvgl/src/core/lv_obj_style_gen.h **** {
 309:Middlewares/LVGL/GUI/lvgl/src/core/lv_obj_style_gen.h ****     lv_style_value_t v = lv_obj_get_style_prop(obj, part, LV_STYLE_SHADOW_SPREAD);
ARM GAS  C:\Users\ADMINI~1\AppData\Local\Temp\cchMZgMB.s 			page 37


 310:Middlewares/LVGL/GUI/lvgl/src/core/lv_obj_style_gen.h ****     return (lv_coord_t)v.num;
 311:Middlewares/LVGL/GUI/lvgl/src/core/lv_obj_style_gen.h **** }
 312:Middlewares/LVGL/GUI/lvgl/src/core/lv_obj_style_gen.h **** 
 313:Middlewares/LVGL/GUI/lvgl/src/core/lv_obj_style_gen.h **** static inline lv_color_t lv_obj_get_style_shadow_color(const struct _lv_obj_t * obj, uint32_t part)
 314:Middlewares/LVGL/GUI/lvgl/src/core/lv_obj_style_gen.h **** {
 315:Middlewares/LVGL/GUI/lvgl/src/core/lv_obj_style_gen.h ****     lv_style_value_t v = lv_obj_get_style_prop(obj, part, LV_STYLE_SHADOW_COLOR);
 316:Middlewares/LVGL/GUI/lvgl/src/core/lv_obj_style_gen.h ****     return v.color;
 317:Middlewares/LVGL/GUI/lvgl/src/core/lv_obj_style_gen.h **** }
 318:Middlewares/LVGL/GUI/lvgl/src/core/lv_obj_style_gen.h **** 
 319:Middlewares/LVGL/GUI/lvgl/src/core/lv_obj_style_gen.h **** static inline lv_color_t lv_obj_get_style_shadow_color_filtered(const struct _lv_obj_t * obj, uint3
 320:Middlewares/LVGL/GUI/lvgl/src/core/lv_obj_style_gen.h **** {
 321:Middlewares/LVGL/GUI/lvgl/src/core/lv_obj_style_gen.h ****     lv_style_value_t v = lv_obj_get_style_prop(obj, part, LV_STYLE_SHADOW_COLOR_FILTERED);
 322:Middlewares/LVGL/GUI/lvgl/src/core/lv_obj_style_gen.h ****     return v.color;
 323:Middlewares/LVGL/GUI/lvgl/src/core/lv_obj_style_gen.h **** }
 324:Middlewares/LVGL/GUI/lvgl/src/core/lv_obj_style_gen.h **** 
 325:Middlewares/LVGL/GUI/lvgl/src/core/lv_obj_style_gen.h **** static inline lv_opa_t lv_obj_get_style_shadow_opa(const struct _lv_obj_t * obj, uint32_t part)
 326:Middlewares/LVGL/GUI/lvgl/src/core/lv_obj_style_gen.h **** {
 327:Middlewares/LVGL/GUI/lvgl/src/core/lv_obj_style_gen.h ****     lv_style_value_t v = lv_obj_get_style_prop(obj, part, LV_STYLE_SHADOW_OPA);
 328:Middlewares/LVGL/GUI/lvgl/src/core/lv_obj_style_gen.h ****     return (lv_opa_t)v.num;
 329:Middlewares/LVGL/GUI/lvgl/src/core/lv_obj_style_gen.h **** }
 330:Middlewares/LVGL/GUI/lvgl/src/core/lv_obj_style_gen.h **** 
 331:Middlewares/LVGL/GUI/lvgl/src/core/lv_obj_style_gen.h **** static inline lv_opa_t lv_obj_get_style_img_opa(const struct _lv_obj_t * obj, uint32_t part)
 332:Middlewares/LVGL/GUI/lvgl/src/core/lv_obj_style_gen.h **** {
 333:Middlewares/LVGL/GUI/lvgl/src/core/lv_obj_style_gen.h ****     lv_style_value_t v = lv_obj_get_style_prop(obj, part, LV_STYLE_IMG_OPA);
 334:Middlewares/LVGL/GUI/lvgl/src/core/lv_obj_style_gen.h ****     return (lv_opa_t)v.num;
 335:Middlewares/LVGL/GUI/lvgl/src/core/lv_obj_style_gen.h **** }
 336:Middlewares/LVGL/GUI/lvgl/src/core/lv_obj_style_gen.h **** 
 337:Middlewares/LVGL/GUI/lvgl/src/core/lv_obj_style_gen.h **** static inline lv_color_t lv_obj_get_style_img_recolor(const struct _lv_obj_t * obj, uint32_t part)
 338:Middlewares/LVGL/GUI/lvgl/src/core/lv_obj_style_gen.h **** {
 339:Middlewares/LVGL/GUI/lvgl/src/core/lv_obj_style_gen.h ****     lv_style_value_t v = lv_obj_get_style_prop(obj, part, LV_STYLE_IMG_RECOLOR);
 340:Middlewares/LVGL/GUI/lvgl/src/core/lv_obj_style_gen.h ****     return v.color;
 341:Middlewares/LVGL/GUI/lvgl/src/core/lv_obj_style_gen.h **** }
 342:Middlewares/LVGL/GUI/lvgl/src/core/lv_obj_style_gen.h **** 
 343:Middlewares/LVGL/GUI/lvgl/src/core/lv_obj_style_gen.h **** static inline lv_color_t lv_obj_get_style_img_recolor_filtered(const struct _lv_obj_t * obj, uint32
 344:Middlewares/LVGL/GUI/lvgl/src/core/lv_obj_style_gen.h **** {
 345:Middlewares/LVGL/GUI/lvgl/src/core/lv_obj_style_gen.h ****     lv_style_value_t v = lv_obj_get_style_prop(obj, part, LV_STYLE_IMG_RECOLOR_FILTERED);
 346:Middlewares/LVGL/GUI/lvgl/src/core/lv_obj_style_gen.h ****     return v.color;
 347:Middlewares/LVGL/GUI/lvgl/src/core/lv_obj_style_gen.h **** }
 348:Middlewares/LVGL/GUI/lvgl/src/core/lv_obj_style_gen.h **** 
 349:Middlewares/LVGL/GUI/lvgl/src/core/lv_obj_style_gen.h **** static inline lv_opa_t lv_obj_get_style_img_recolor_opa(const struct _lv_obj_t * obj, uint32_t part
 350:Middlewares/LVGL/GUI/lvgl/src/core/lv_obj_style_gen.h **** {
 351:Middlewares/LVGL/GUI/lvgl/src/core/lv_obj_style_gen.h ****     lv_style_value_t v = lv_obj_get_style_prop(obj, part, LV_STYLE_IMG_RECOLOR_OPA);
 352:Middlewares/LVGL/GUI/lvgl/src/core/lv_obj_style_gen.h ****     return (lv_opa_t)v.num;
 353:Middlewares/LVGL/GUI/lvgl/src/core/lv_obj_style_gen.h **** }
 354:Middlewares/LVGL/GUI/lvgl/src/core/lv_obj_style_gen.h **** 
 355:Middlewares/LVGL/GUI/lvgl/src/core/lv_obj_style_gen.h **** static inline lv_coord_t lv_obj_get_style_line_width(const struct _lv_obj_t * obj, uint32_t part)
 356:Middlewares/LVGL/GUI/lvgl/src/core/lv_obj_style_gen.h **** {
 357:Middlewares/LVGL/GUI/lvgl/src/core/lv_obj_style_gen.h ****     lv_style_value_t v = lv_obj_get_style_prop(obj, part, LV_STYLE_LINE_WIDTH);
 358:Middlewares/LVGL/GUI/lvgl/src/core/lv_obj_style_gen.h ****     return (lv_coord_t)v.num;
 359:Middlewares/LVGL/GUI/lvgl/src/core/lv_obj_style_gen.h **** }
 360:Middlewares/LVGL/GUI/lvgl/src/core/lv_obj_style_gen.h **** 
 361:Middlewares/LVGL/GUI/lvgl/src/core/lv_obj_style_gen.h **** static inline lv_coord_t lv_obj_get_style_line_dash_width(const struct _lv_obj_t * obj, uint32_t pa
 362:Middlewares/LVGL/GUI/lvgl/src/core/lv_obj_style_gen.h **** {
 363:Middlewares/LVGL/GUI/lvgl/src/core/lv_obj_style_gen.h ****     lv_style_value_t v = lv_obj_get_style_prop(obj, part, LV_STYLE_LINE_DASH_WIDTH);
 364:Middlewares/LVGL/GUI/lvgl/src/core/lv_obj_style_gen.h ****     return (lv_coord_t)v.num;
 365:Middlewares/LVGL/GUI/lvgl/src/core/lv_obj_style_gen.h **** }
 366:Middlewares/LVGL/GUI/lvgl/src/core/lv_obj_style_gen.h **** 
ARM GAS  C:\Users\ADMINI~1\AppData\Local\Temp\cchMZgMB.s 			page 38


 367:Middlewares/LVGL/GUI/lvgl/src/core/lv_obj_style_gen.h **** static inline lv_coord_t lv_obj_get_style_line_dash_gap(const struct _lv_obj_t * obj, uint32_t part
 368:Middlewares/LVGL/GUI/lvgl/src/core/lv_obj_style_gen.h **** {
 369:Middlewares/LVGL/GUI/lvgl/src/core/lv_obj_style_gen.h ****     lv_style_value_t v = lv_obj_get_style_prop(obj, part, LV_STYLE_LINE_DASH_GAP);
 370:Middlewares/LVGL/GUI/lvgl/src/core/lv_obj_style_gen.h ****     return (lv_coord_t)v.num;
 371:Middlewares/LVGL/GUI/lvgl/src/core/lv_obj_style_gen.h **** }
 372:Middlewares/LVGL/GUI/lvgl/src/core/lv_obj_style_gen.h **** 
 373:Middlewares/LVGL/GUI/lvgl/src/core/lv_obj_style_gen.h **** static inline bool lv_obj_get_style_line_rounded(const struct _lv_obj_t * obj, uint32_t part)
 374:Middlewares/LVGL/GUI/lvgl/src/core/lv_obj_style_gen.h **** {
 375:Middlewares/LVGL/GUI/lvgl/src/core/lv_obj_style_gen.h ****     lv_style_value_t v = lv_obj_get_style_prop(obj, part, LV_STYLE_LINE_ROUNDED);
 376:Middlewares/LVGL/GUI/lvgl/src/core/lv_obj_style_gen.h ****     return (bool)v.num;
 377:Middlewares/LVGL/GUI/lvgl/src/core/lv_obj_style_gen.h **** }
 378:Middlewares/LVGL/GUI/lvgl/src/core/lv_obj_style_gen.h **** 
 379:Middlewares/LVGL/GUI/lvgl/src/core/lv_obj_style_gen.h **** static inline lv_color_t lv_obj_get_style_line_color(const struct _lv_obj_t * obj, uint32_t part)
 380:Middlewares/LVGL/GUI/lvgl/src/core/lv_obj_style_gen.h **** {
 381:Middlewares/LVGL/GUI/lvgl/src/core/lv_obj_style_gen.h ****     lv_style_value_t v = lv_obj_get_style_prop(obj, part, LV_STYLE_LINE_COLOR);
 382:Middlewares/LVGL/GUI/lvgl/src/core/lv_obj_style_gen.h ****     return v.color;
 383:Middlewares/LVGL/GUI/lvgl/src/core/lv_obj_style_gen.h **** }
 384:Middlewares/LVGL/GUI/lvgl/src/core/lv_obj_style_gen.h **** 
 385:Middlewares/LVGL/GUI/lvgl/src/core/lv_obj_style_gen.h **** static inline lv_color_t lv_obj_get_style_line_color_filtered(const struct _lv_obj_t * obj, uint32_
 386:Middlewares/LVGL/GUI/lvgl/src/core/lv_obj_style_gen.h **** {
 387:Middlewares/LVGL/GUI/lvgl/src/core/lv_obj_style_gen.h ****     lv_style_value_t v = lv_obj_get_style_prop(obj, part, LV_STYLE_LINE_COLOR_FILTERED);
 388:Middlewares/LVGL/GUI/lvgl/src/core/lv_obj_style_gen.h ****     return v.color;
 389:Middlewares/LVGL/GUI/lvgl/src/core/lv_obj_style_gen.h **** }
 390:Middlewares/LVGL/GUI/lvgl/src/core/lv_obj_style_gen.h **** 
 391:Middlewares/LVGL/GUI/lvgl/src/core/lv_obj_style_gen.h **** static inline lv_opa_t lv_obj_get_style_line_opa(const struct _lv_obj_t * obj, uint32_t part)
 392:Middlewares/LVGL/GUI/lvgl/src/core/lv_obj_style_gen.h **** {
 393:Middlewares/LVGL/GUI/lvgl/src/core/lv_obj_style_gen.h ****     lv_style_value_t v = lv_obj_get_style_prop(obj, part, LV_STYLE_LINE_OPA);
 394:Middlewares/LVGL/GUI/lvgl/src/core/lv_obj_style_gen.h ****     return (lv_opa_t)v.num;
 395:Middlewares/LVGL/GUI/lvgl/src/core/lv_obj_style_gen.h **** }
 396:Middlewares/LVGL/GUI/lvgl/src/core/lv_obj_style_gen.h **** 
 397:Middlewares/LVGL/GUI/lvgl/src/core/lv_obj_style_gen.h **** static inline lv_coord_t lv_obj_get_style_arc_width(const struct _lv_obj_t * obj, uint32_t part)
 398:Middlewares/LVGL/GUI/lvgl/src/core/lv_obj_style_gen.h **** {
 399:Middlewares/LVGL/GUI/lvgl/src/core/lv_obj_style_gen.h ****     lv_style_value_t v = lv_obj_get_style_prop(obj, part, LV_STYLE_ARC_WIDTH);
 400:Middlewares/LVGL/GUI/lvgl/src/core/lv_obj_style_gen.h ****     return (lv_coord_t)v.num;
 401:Middlewares/LVGL/GUI/lvgl/src/core/lv_obj_style_gen.h **** }
 402:Middlewares/LVGL/GUI/lvgl/src/core/lv_obj_style_gen.h **** 
 403:Middlewares/LVGL/GUI/lvgl/src/core/lv_obj_style_gen.h **** static inline bool lv_obj_get_style_arc_rounded(const struct _lv_obj_t * obj, uint32_t part)
 404:Middlewares/LVGL/GUI/lvgl/src/core/lv_obj_style_gen.h **** {
 405:Middlewares/LVGL/GUI/lvgl/src/core/lv_obj_style_gen.h ****     lv_style_value_t v = lv_obj_get_style_prop(obj, part, LV_STYLE_ARC_ROUNDED);
 406:Middlewares/LVGL/GUI/lvgl/src/core/lv_obj_style_gen.h ****     return (bool)v.num;
 407:Middlewares/LVGL/GUI/lvgl/src/core/lv_obj_style_gen.h **** }
 408:Middlewares/LVGL/GUI/lvgl/src/core/lv_obj_style_gen.h **** 
 409:Middlewares/LVGL/GUI/lvgl/src/core/lv_obj_style_gen.h **** static inline lv_color_t lv_obj_get_style_arc_color(const struct _lv_obj_t * obj, uint32_t part)
 410:Middlewares/LVGL/GUI/lvgl/src/core/lv_obj_style_gen.h **** {
 411:Middlewares/LVGL/GUI/lvgl/src/core/lv_obj_style_gen.h ****     lv_style_value_t v = lv_obj_get_style_prop(obj, part, LV_STYLE_ARC_COLOR);
 412:Middlewares/LVGL/GUI/lvgl/src/core/lv_obj_style_gen.h ****     return v.color;
 413:Middlewares/LVGL/GUI/lvgl/src/core/lv_obj_style_gen.h **** }
 414:Middlewares/LVGL/GUI/lvgl/src/core/lv_obj_style_gen.h **** 
 415:Middlewares/LVGL/GUI/lvgl/src/core/lv_obj_style_gen.h **** static inline lv_color_t lv_obj_get_style_arc_color_filtered(const struct _lv_obj_t * obj, uint32_t
 416:Middlewares/LVGL/GUI/lvgl/src/core/lv_obj_style_gen.h **** {
 417:Middlewares/LVGL/GUI/lvgl/src/core/lv_obj_style_gen.h ****     lv_style_value_t v = lv_obj_get_style_prop(obj, part, LV_STYLE_ARC_COLOR_FILTERED);
 418:Middlewares/LVGL/GUI/lvgl/src/core/lv_obj_style_gen.h ****     return v.color;
 419:Middlewares/LVGL/GUI/lvgl/src/core/lv_obj_style_gen.h **** }
 420:Middlewares/LVGL/GUI/lvgl/src/core/lv_obj_style_gen.h **** 
 421:Middlewares/LVGL/GUI/lvgl/src/core/lv_obj_style_gen.h **** static inline lv_opa_t lv_obj_get_style_arc_opa(const struct _lv_obj_t * obj, uint32_t part)
 422:Middlewares/LVGL/GUI/lvgl/src/core/lv_obj_style_gen.h **** {
 423:Middlewares/LVGL/GUI/lvgl/src/core/lv_obj_style_gen.h ****     lv_style_value_t v = lv_obj_get_style_prop(obj, part, LV_STYLE_ARC_OPA);
ARM GAS  C:\Users\ADMINI~1\AppData\Local\Temp\cchMZgMB.s 			page 39


 424:Middlewares/LVGL/GUI/lvgl/src/core/lv_obj_style_gen.h ****     return (lv_opa_t)v.num;
 425:Middlewares/LVGL/GUI/lvgl/src/core/lv_obj_style_gen.h **** }
 426:Middlewares/LVGL/GUI/lvgl/src/core/lv_obj_style_gen.h **** 
 427:Middlewares/LVGL/GUI/lvgl/src/core/lv_obj_style_gen.h **** static inline const void * lv_obj_get_style_arc_img_src(const struct _lv_obj_t * obj, uint32_t part
 428:Middlewares/LVGL/GUI/lvgl/src/core/lv_obj_style_gen.h **** {
 429:Middlewares/LVGL/GUI/lvgl/src/core/lv_obj_style_gen.h ****     lv_style_value_t v = lv_obj_get_style_prop(obj, part, LV_STYLE_ARC_IMG_SRC);
 430:Middlewares/LVGL/GUI/lvgl/src/core/lv_obj_style_gen.h ****     return (const void *)v.ptr;
 431:Middlewares/LVGL/GUI/lvgl/src/core/lv_obj_style_gen.h **** }
 432:Middlewares/LVGL/GUI/lvgl/src/core/lv_obj_style_gen.h **** 
 433:Middlewares/LVGL/GUI/lvgl/src/core/lv_obj_style_gen.h **** static inline lv_color_t lv_obj_get_style_text_color(const struct _lv_obj_t * obj, uint32_t part)
 434:Middlewares/LVGL/GUI/lvgl/src/core/lv_obj_style_gen.h **** {
 435:Middlewares/LVGL/GUI/lvgl/src/core/lv_obj_style_gen.h ****     lv_style_value_t v = lv_obj_get_style_prop(obj, part, LV_STYLE_TEXT_COLOR);
 436:Middlewares/LVGL/GUI/lvgl/src/core/lv_obj_style_gen.h ****     return v.color;
 437:Middlewares/LVGL/GUI/lvgl/src/core/lv_obj_style_gen.h **** }
 438:Middlewares/LVGL/GUI/lvgl/src/core/lv_obj_style_gen.h **** 
 439:Middlewares/LVGL/GUI/lvgl/src/core/lv_obj_style_gen.h **** static inline lv_color_t lv_obj_get_style_text_color_filtered(const struct _lv_obj_t * obj, uint32_
 440:Middlewares/LVGL/GUI/lvgl/src/core/lv_obj_style_gen.h **** {
 441:Middlewares/LVGL/GUI/lvgl/src/core/lv_obj_style_gen.h ****     lv_style_value_t v = lv_obj_get_style_prop(obj, part, LV_STYLE_TEXT_COLOR_FILTERED);
 442:Middlewares/LVGL/GUI/lvgl/src/core/lv_obj_style_gen.h ****     return v.color;
 443:Middlewares/LVGL/GUI/lvgl/src/core/lv_obj_style_gen.h **** }
 444:Middlewares/LVGL/GUI/lvgl/src/core/lv_obj_style_gen.h **** 
 445:Middlewares/LVGL/GUI/lvgl/src/core/lv_obj_style_gen.h **** static inline lv_opa_t lv_obj_get_style_text_opa(const struct _lv_obj_t * obj, uint32_t part)
 446:Middlewares/LVGL/GUI/lvgl/src/core/lv_obj_style_gen.h **** {
 447:Middlewares/LVGL/GUI/lvgl/src/core/lv_obj_style_gen.h ****     lv_style_value_t v = lv_obj_get_style_prop(obj, part, LV_STYLE_TEXT_OPA);
 448:Middlewares/LVGL/GUI/lvgl/src/core/lv_obj_style_gen.h ****     return (lv_opa_t)v.num;
 449:Middlewares/LVGL/GUI/lvgl/src/core/lv_obj_style_gen.h **** }
 450:Middlewares/LVGL/GUI/lvgl/src/core/lv_obj_style_gen.h **** 
 451:Middlewares/LVGL/GUI/lvgl/src/core/lv_obj_style_gen.h **** static inline const lv_font_t * lv_obj_get_style_text_font(const struct _lv_obj_t * obj, uint32_t p
 452:Middlewares/LVGL/GUI/lvgl/src/core/lv_obj_style_gen.h **** {
 453:Middlewares/LVGL/GUI/lvgl/src/core/lv_obj_style_gen.h ****     lv_style_value_t v = lv_obj_get_style_prop(obj, part, LV_STYLE_TEXT_FONT);
 454:Middlewares/LVGL/GUI/lvgl/src/core/lv_obj_style_gen.h ****     return (const lv_font_t *)v.ptr;
 455:Middlewares/LVGL/GUI/lvgl/src/core/lv_obj_style_gen.h **** }
 456:Middlewares/LVGL/GUI/lvgl/src/core/lv_obj_style_gen.h **** 
 457:Middlewares/LVGL/GUI/lvgl/src/core/lv_obj_style_gen.h **** static inline lv_coord_t lv_obj_get_style_text_letter_space(const struct _lv_obj_t * obj, uint32_t 
 458:Middlewares/LVGL/GUI/lvgl/src/core/lv_obj_style_gen.h **** {
 459:Middlewares/LVGL/GUI/lvgl/src/core/lv_obj_style_gen.h ****     lv_style_value_t v = lv_obj_get_style_prop(obj, part, LV_STYLE_TEXT_LETTER_SPACE);
 460:Middlewares/LVGL/GUI/lvgl/src/core/lv_obj_style_gen.h ****     return (lv_coord_t)v.num;
 461:Middlewares/LVGL/GUI/lvgl/src/core/lv_obj_style_gen.h **** }
 462:Middlewares/LVGL/GUI/lvgl/src/core/lv_obj_style_gen.h **** 
 463:Middlewares/LVGL/GUI/lvgl/src/core/lv_obj_style_gen.h **** static inline lv_coord_t lv_obj_get_style_text_line_space(const struct _lv_obj_t * obj, uint32_t pa
 464:Middlewares/LVGL/GUI/lvgl/src/core/lv_obj_style_gen.h **** {
 465:Middlewares/LVGL/GUI/lvgl/src/core/lv_obj_style_gen.h ****     lv_style_value_t v = lv_obj_get_style_prop(obj, part, LV_STYLE_TEXT_LINE_SPACE);
 466:Middlewares/LVGL/GUI/lvgl/src/core/lv_obj_style_gen.h ****     return (lv_coord_t)v.num;
 467:Middlewares/LVGL/GUI/lvgl/src/core/lv_obj_style_gen.h **** }
 468:Middlewares/LVGL/GUI/lvgl/src/core/lv_obj_style_gen.h **** 
 469:Middlewares/LVGL/GUI/lvgl/src/core/lv_obj_style_gen.h **** static inline lv_text_decor_t lv_obj_get_style_text_decor(const struct _lv_obj_t * obj, uint32_t pa
 470:Middlewares/LVGL/GUI/lvgl/src/core/lv_obj_style_gen.h **** {
 471:Middlewares/LVGL/GUI/lvgl/src/core/lv_obj_style_gen.h ****     lv_style_value_t v = lv_obj_get_style_prop(obj, part, LV_STYLE_TEXT_DECOR);
 472:Middlewares/LVGL/GUI/lvgl/src/core/lv_obj_style_gen.h ****     return (lv_text_decor_t)v.num;
 473:Middlewares/LVGL/GUI/lvgl/src/core/lv_obj_style_gen.h **** }
 474:Middlewares/LVGL/GUI/lvgl/src/core/lv_obj_style_gen.h **** 
 475:Middlewares/LVGL/GUI/lvgl/src/core/lv_obj_style_gen.h **** static inline lv_text_align_t lv_obj_get_style_text_align(const struct _lv_obj_t * obj, uint32_t pa
 476:Middlewares/LVGL/GUI/lvgl/src/core/lv_obj_style_gen.h **** {
 477:Middlewares/LVGL/GUI/lvgl/src/core/lv_obj_style_gen.h ****     lv_style_value_t v = lv_obj_get_style_prop(obj, part, LV_STYLE_TEXT_ALIGN);
 478:Middlewares/LVGL/GUI/lvgl/src/core/lv_obj_style_gen.h ****     return (lv_text_align_t)v.num;
 479:Middlewares/LVGL/GUI/lvgl/src/core/lv_obj_style_gen.h **** }
 480:Middlewares/LVGL/GUI/lvgl/src/core/lv_obj_style_gen.h **** 
ARM GAS  C:\Users\ADMINI~1\AppData\Local\Temp\cchMZgMB.s 			page 40


 481:Middlewares/LVGL/GUI/lvgl/src/core/lv_obj_style_gen.h **** static inline lv_coord_t lv_obj_get_style_radius(const struct _lv_obj_t * obj, uint32_t part)
 482:Middlewares/LVGL/GUI/lvgl/src/core/lv_obj_style_gen.h **** {
 483:Middlewares/LVGL/GUI/lvgl/src/core/lv_obj_style_gen.h ****     lv_style_value_t v = lv_obj_get_style_prop(obj, part, LV_STYLE_RADIUS);
 484:Middlewares/LVGL/GUI/lvgl/src/core/lv_obj_style_gen.h ****     return (lv_coord_t)v.num;
 485:Middlewares/LVGL/GUI/lvgl/src/core/lv_obj_style_gen.h **** }
 486:Middlewares/LVGL/GUI/lvgl/src/core/lv_obj_style_gen.h **** 
 487:Middlewares/LVGL/GUI/lvgl/src/core/lv_obj_style_gen.h **** static inline bool lv_obj_get_style_clip_corner(const struct _lv_obj_t * obj, uint32_t part)
 488:Middlewares/LVGL/GUI/lvgl/src/core/lv_obj_style_gen.h **** {
 489:Middlewares/LVGL/GUI/lvgl/src/core/lv_obj_style_gen.h ****     lv_style_value_t v = lv_obj_get_style_prop(obj, part, LV_STYLE_CLIP_CORNER);
 490:Middlewares/LVGL/GUI/lvgl/src/core/lv_obj_style_gen.h ****     return (bool)v.num;
 491:Middlewares/LVGL/GUI/lvgl/src/core/lv_obj_style_gen.h **** }
 492:Middlewares/LVGL/GUI/lvgl/src/core/lv_obj_style_gen.h **** 
 493:Middlewares/LVGL/GUI/lvgl/src/core/lv_obj_style_gen.h **** static inline lv_opa_t lv_obj_get_style_opa(const struct _lv_obj_t * obj, uint32_t part)
 494:Middlewares/LVGL/GUI/lvgl/src/core/lv_obj_style_gen.h **** {
 495:Middlewares/LVGL/GUI/lvgl/src/core/lv_obj_style_gen.h ****     lv_style_value_t v = lv_obj_get_style_prop(obj, part, LV_STYLE_OPA);
 496:Middlewares/LVGL/GUI/lvgl/src/core/lv_obj_style_gen.h ****     return (lv_opa_t)v.num;
 497:Middlewares/LVGL/GUI/lvgl/src/core/lv_obj_style_gen.h **** }
 498:Middlewares/LVGL/GUI/lvgl/src/core/lv_obj_style_gen.h **** 
 499:Middlewares/LVGL/GUI/lvgl/src/core/lv_obj_style_gen.h **** static inline const lv_color_filter_dsc_t * lv_obj_get_style_color_filter_dsc(const struct _lv_obj_
 500:Middlewares/LVGL/GUI/lvgl/src/core/lv_obj_style_gen.h ****                                                                               uint32_t part)
 501:Middlewares/LVGL/GUI/lvgl/src/core/lv_obj_style_gen.h **** {
 502:Middlewares/LVGL/GUI/lvgl/src/core/lv_obj_style_gen.h ****     lv_style_value_t v = lv_obj_get_style_prop(obj, part, LV_STYLE_COLOR_FILTER_DSC);
 503:Middlewares/LVGL/GUI/lvgl/src/core/lv_obj_style_gen.h ****     return (const lv_color_filter_dsc_t *)v.ptr;
 504:Middlewares/LVGL/GUI/lvgl/src/core/lv_obj_style_gen.h **** }
 505:Middlewares/LVGL/GUI/lvgl/src/core/lv_obj_style_gen.h **** 
 506:Middlewares/LVGL/GUI/lvgl/src/core/lv_obj_style_gen.h **** static inline lv_opa_t lv_obj_get_style_color_filter_opa(const struct _lv_obj_t * obj, uint32_t par
 507:Middlewares/LVGL/GUI/lvgl/src/core/lv_obj_style_gen.h **** {
 508:Middlewares/LVGL/GUI/lvgl/src/core/lv_obj_style_gen.h ****     lv_style_value_t v = lv_obj_get_style_prop(obj, part, LV_STYLE_COLOR_FILTER_OPA);
 509:Middlewares/LVGL/GUI/lvgl/src/core/lv_obj_style_gen.h ****     return (lv_opa_t)v.num;
 510:Middlewares/LVGL/GUI/lvgl/src/core/lv_obj_style_gen.h **** }
 511:Middlewares/LVGL/GUI/lvgl/src/core/lv_obj_style_gen.h **** 
 512:Middlewares/LVGL/GUI/lvgl/src/core/lv_obj_style_gen.h **** static inline uint32_t lv_obj_get_style_anim_time(const struct _lv_obj_t * obj, uint32_t part)
 513:Middlewares/LVGL/GUI/lvgl/src/core/lv_obj_style_gen.h **** {
 514:Middlewares/LVGL/GUI/lvgl/src/core/lv_obj_style_gen.h ****     lv_style_value_t v = lv_obj_get_style_prop(obj, part, LV_STYLE_ANIM_TIME);
 515:Middlewares/LVGL/GUI/lvgl/src/core/lv_obj_style_gen.h ****     return (uint32_t)v.num;
 516:Middlewares/LVGL/GUI/lvgl/src/core/lv_obj_style_gen.h **** }
 517:Middlewares/LVGL/GUI/lvgl/src/core/lv_obj_style_gen.h **** 
 518:Middlewares/LVGL/GUI/lvgl/src/core/lv_obj_style_gen.h **** static inline uint32_t lv_obj_get_style_anim_speed(const struct _lv_obj_t * obj, uint32_t part)
 519:Middlewares/LVGL/GUI/lvgl/src/core/lv_obj_style_gen.h **** {
 520:Middlewares/LVGL/GUI/lvgl/src/core/lv_obj_style_gen.h ****     lv_style_value_t v = lv_obj_get_style_prop(obj, part, LV_STYLE_ANIM_SPEED);
 521:Middlewares/LVGL/GUI/lvgl/src/core/lv_obj_style_gen.h ****     return (uint32_t)v.num;
 522:Middlewares/LVGL/GUI/lvgl/src/core/lv_obj_style_gen.h **** }
 523:Middlewares/LVGL/GUI/lvgl/src/core/lv_obj_style_gen.h **** 
 524:Middlewares/LVGL/GUI/lvgl/src/core/lv_obj_style_gen.h **** static inline const lv_style_transition_dsc_t * lv_obj_get_style_transition(const struct _lv_obj_t 
 525:Middlewares/LVGL/GUI/lvgl/src/core/lv_obj_style_gen.h **** {
 526:Middlewares/LVGL/GUI/lvgl/src/core/lv_obj_style_gen.h ****     lv_style_value_t v = lv_obj_get_style_prop(obj, part, LV_STYLE_TRANSITION);
 527:Middlewares/LVGL/GUI/lvgl/src/core/lv_obj_style_gen.h ****     return (const lv_style_transition_dsc_t *)v.ptr;
 528:Middlewares/LVGL/GUI/lvgl/src/core/lv_obj_style_gen.h **** }
 529:Middlewares/LVGL/GUI/lvgl/src/core/lv_obj_style_gen.h **** 
 530:Middlewares/LVGL/GUI/lvgl/src/core/lv_obj_style_gen.h **** static inline lv_blend_mode_t lv_obj_get_style_blend_mode(const struct _lv_obj_t * obj, uint32_t pa
 531:Middlewares/LVGL/GUI/lvgl/src/core/lv_obj_style_gen.h **** {
 532:Middlewares/LVGL/GUI/lvgl/src/core/lv_obj_style_gen.h ****     lv_style_value_t v = lv_obj_get_style_prop(obj, part, LV_STYLE_BLEND_MODE);
 533:Middlewares/LVGL/GUI/lvgl/src/core/lv_obj_style_gen.h ****     return (lv_blend_mode_t)v.num;
 534:Middlewares/LVGL/GUI/lvgl/src/core/lv_obj_style_gen.h **** }
 535:Middlewares/LVGL/GUI/lvgl/src/core/lv_obj_style_gen.h **** 
 536:Middlewares/LVGL/GUI/lvgl/src/core/lv_obj_style_gen.h **** static inline uint16_t lv_obj_get_style_layout(const struct _lv_obj_t * obj, uint32_t part)
 537:Middlewares/LVGL/GUI/lvgl/src/core/lv_obj_style_gen.h **** {
ARM GAS  C:\Users\ADMINI~1\AppData\Local\Temp\cchMZgMB.s 			page 41


 538:Middlewares/LVGL/GUI/lvgl/src/core/lv_obj_style_gen.h ****     lv_style_value_t v = lv_obj_get_style_prop(obj, part, LV_STYLE_LAYOUT);
 539:Middlewares/LVGL/GUI/lvgl/src/core/lv_obj_style_gen.h ****     return (uint16_t)v.num;
 540:Middlewares/LVGL/GUI/lvgl/src/core/lv_obj_style_gen.h **** }
 541:Middlewares/LVGL/GUI/lvgl/src/core/lv_obj_style_gen.h **** 
 542:Middlewares/LVGL/GUI/lvgl/src/core/lv_obj_style_gen.h **** static inline lv_base_dir_t lv_obj_get_style_base_dir(const struct _lv_obj_t * obj, uint32_t part)
 913              		.loc 2 542 29 view .LVU226
 914              	.LBB109:
 543:Middlewares/LVGL/GUI/lvgl/src/core/lv_obj_style_gen.h **** {
 544:Middlewares/LVGL/GUI/lvgl/src/core/lv_obj_style_gen.h ****     lv_style_value_t v = lv_obj_get_style_prop(obj, part, LV_STYLE_BASE_DIR);
 915              		.loc 2 544 5 view .LVU227
 916              		.loc 2 544 26 is_stmt 0 view .LVU228
 917 0006 41F26A42 		movw	r2, #5226
 918 000a 0021     		movs	r1, #0
 919 000c FFF7FEFF 		bl	lv_obj_get_style_prop
 920              	.LVL87:
 545:Middlewares/LVGL/GUI/lvgl/src/core/lv_obj_style_gen.h ****     return (lv_base_dir_t)v.num;
 921              		.loc 2 545 5 is_stmt 1 view .LVU229
 922              		.loc 2 545 12 is_stmt 0 view .LVU230
 923 0010 C0B2     		uxtb	r0, r0
 924              	.LVL88:
 925              		.loc 2 545 12 view .LVU231
 926              	.LBE109:
 927              	.LBE108:
 168:Middlewares/LVGL/GUI/lvgl/src/core/lv_obj_scroll.c ****         if(obj->spec_attr == NULL) return 0;
 928              		.loc 1 168 7 view .LVU232
 929 0012 0128     		cmp	r0, #1
 930 0014 06D0     		beq	.L54
 169:Middlewares/LVGL/GUI/lvgl/src/core/lv_obj_scroll.c ****         return -obj->spec_attr->scroll.x;
 931              		.loc 1 169 9 is_stmt 1 view .LVU233
 169:Middlewares/LVGL/GUI/lvgl/src/core/lv_obj_scroll.c ****         return -obj->spec_attr->scroll.x;
 932              		.loc 1 169 15 is_stmt 0 view .LVU234
 933 0016 A368     		ldr	r3, [r4, #8]
 169:Middlewares/LVGL/GUI/lvgl/src/core/lv_obj_scroll.c ****         return -obj->spec_attr->scroll.x;
 934              		.loc 1 169 11 view .LVU235
 935 0018 002B     		cmp	r3, #0
 936 001a 53D0     		beq	.L60
 170:Middlewares/LVGL/GUI/lvgl/src/core/lv_obj_scroll.c ****     }
 937              		.loc 1 170 9 is_stmt 1 view .LVU236
 170:Middlewares/LVGL/GUI/lvgl/src/core/lv_obj_scroll.c ****     }
 938              		.loc 1 170 39 is_stmt 0 view .LVU237
 939 001c 1869     		ldr	r0, [r3, #16]
 170:Middlewares/LVGL/GUI/lvgl/src/core/lv_obj_scroll.c ****     }
 940              		.loc 1 170 16 view .LVU238
 941 001e 4042     		rsbs	r0, r0, #0
 942              	.L53:
 203:Middlewares/LVGL/GUI/lvgl/src/core/lv_obj_scroll.c **** 
 943              		.loc 1 203 1 view .LVU239
 944 0020 BDE8F88F 		pop	{r3, r4, r5, r6, r7, r8, r9, r10, fp, pc}
 945              	.LVL89:
 946              	.L54:
 174:Middlewares/LVGL/GUI/lvgl/src/core/lv_obj_scroll.c ****     lv_coord_t pad_left = lv_obj_get_style_pad_left(obj, LV_PART_MAIN);
 947              		.loc 1 174 5 is_stmt 1 view .LVU240
 948              	.LBB110:
 949              	.LBI110:
 109:Middlewares/LVGL/GUI/lvgl/src/core/lv_obj_style_gen.h **** {
 950              		.loc 2 109 26 view .LVU241
 951              	.LBB111:
ARM GAS  C:\Users\ADMINI~1\AppData\Local\Temp\cchMZgMB.s 			page 42


 111:Middlewares/LVGL/GUI/lvgl/src/core/lv_obj_style_gen.h ****     return (lv_coord_t)v.num;
 952              		.loc 2 111 5 view .LVU242
 111:Middlewares/LVGL/GUI/lvgl/src/core/lv_obj_style_gen.h ****     return (lv_coord_t)v.num;
 953              		.loc 2 111 26 is_stmt 0 view .LVU243
 954 0024 41F61302 		movw	r2, #6163
 955 0028 0021     		movs	r1, #0
 956 002a 2046     		mov	r0, r4
 957 002c FFF7FEFF 		bl	lv_obj_get_style_prop
 958              	.LVL90:
 959 0030 8246     		mov	r10, r0
 112:Middlewares/LVGL/GUI/lvgl/src/core/lv_obj_style_gen.h **** }
 960              		.loc 2 112 5 is_stmt 1 view .LVU244
 961              	.LVL91:
 112:Middlewares/LVGL/GUI/lvgl/src/core/lv_obj_style_gen.h **** }
 962              		.loc 2 112 5 is_stmt 0 view .LVU245
 963              	.LBE111:
 964              	.LBE110:
 175:Middlewares/LVGL/GUI/lvgl/src/core/lv_obj_scroll.c ****     lv_coord_t border_width = lv_obj_get_style_border_width(obj, LV_PART_MAIN);
 965              		.loc 1 175 5 is_stmt 1 view .LVU246
 966              	.LBB112:
 967              	.LBI112:
 103:Middlewares/LVGL/GUI/lvgl/src/core/lv_obj_style_gen.h **** {
 968              		.loc 2 103 26 view .LVU247
 969              	.LBB113:
 105:Middlewares/LVGL/GUI/lvgl/src/core/lv_obj_style_gen.h ****     return (lv_coord_t)v.num;
 970              		.loc 2 105 5 view .LVU248
 105:Middlewares/LVGL/GUI/lvgl/src/core/lv_obj_style_gen.h ****     return (lv_coord_t)v.num;
 971              		.loc 2 105 26 is_stmt 0 view .LVU249
 972 0032 41F61202 		movw	r2, #6162
 973 0036 0021     		movs	r1, #0
 974 0038 2046     		mov	r0, r4
 975              	.LVL92:
 105:Middlewares/LVGL/GUI/lvgl/src/core/lv_obj_style_gen.h ****     return (lv_coord_t)v.num;
 976              		.loc 2 105 26 view .LVU250
 977 003a FFF7FEFF 		bl	lv_obj_get_style_prop
 978              	.LVL93:
 979 003e 8146     		mov	r9, r0
 106:Middlewares/LVGL/GUI/lvgl/src/core/lv_obj_style_gen.h **** }
 980              		.loc 2 106 5 is_stmt 1 view .LVU251
 981              	.LVL94:
 106:Middlewares/LVGL/GUI/lvgl/src/core/lv_obj_style_gen.h **** }
 982              		.loc 2 106 5 is_stmt 0 view .LVU252
 983              	.LBE113:
 984              	.LBE112:
 176:Middlewares/LVGL/GUI/lvgl/src/core/lv_obj_scroll.c **** 
 985              		.loc 1 176 5 is_stmt 1 view .LVU253
 986              	.LBB114:
 987              	.LBI114:
 241:Middlewares/LVGL/GUI/lvgl/src/core/lv_obj_style_gen.h **** {
 988              		.loc 2 241 26 view .LVU254
 989              	.LBB115:
 243:Middlewares/LVGL/GUI/lvgl/src/core/lv_obj_style_gen.h ****     return (lv_coord_t)v.num;
 990              		.loc 2 243 5 view .LVU255
 243:Middlewares/LVGL/GUI/lvgl/src/core/lv_obj_style_gen.h ****     return (lv_coord_t)v.num;
 991              		.loc 2 243 26 is_stmt 0 view .LVU256
 992 0040 41F23202 		movw	r2, #4146
 993 0044 0021     		movs	r1, #0
ARM GAS  C:\Users\ADMINI~1\AppData\Local\Temp\cchMZgMB.s 			page 43


 994 0046 2046     		mov	r0, r4
 995              	.LVL95:
 243:Middlewares/LVGL/GUI/lvgl/src/core/lv_obj_style_gen.h ****     return (lv_coord_t)v.num;
 996              		.loc 2 243 26 view .LVU257
 997 0048 FFF7FEFF 		bl	lv_obj_get_style_prop
 998              	.LVL96:
 999 004c 8046     		mov	r8, r0
 244:Middlewares/LVGL/GUI/lvgl/src/core/lv_obj_style_gen.h **** }
 1000              		.loc 2 244 5 is_stmt 1 view .LVU258
 1001              	.LVL97:
 244:Middlewares/LVGL/GUI/lvgl/src/core/lv_obj_style_gen.h **** }
 1002              		.loc 2 244 5 is_stmt 0 view .LVU259
 1003              	.LBE115:
 1004              	.LBE114:
 178:Middlewares/LVGL/GUI/lvgl/src/core/lv_obj_scroll.c **** 
 1005              		.loc 1 178 5 is_stmt 1 view .LVU260
 180:Middlewares/LVGL/GUI/lvgl/src/core/lv_obj_scroll.c ****     lv_coord_t x1 = LV_COORD_MAX;
 1006              		.loc 1 180 5 view .LVU261
 181:Middlewares/LVGL/GUI/lvgl/src/core/lv_obj_scroll.c ****     uint32_t child_cnt = lv_obj_get_child_cnt(obj);
 1007              		.loc 1 181 5 view .LVU262
 182:Middlewares/LVGL/GUI/lvgl/src/core/lv_obj_scroll.c ****     for(i = 0; i < child_cnt; i++) {
 1008              		.loc 1 182 5 view .LVU263
 182:Middlewares/LVGL/GUI/lvgl/src/core/lv_obj_scroll.c ****     for(i = 0; i < child_cnt; i++) {
 1009              		.loc 1 182 26 is_stmt 0 view .LVU264
 1010 004e 2046     		mov	r0, r4
 1011              	.LVL98:
 182:Middlewares/LVGL/GUI/lvgl/src/core/lv_obj_scroll.c ****     for(i = 0; i < child_cnt; i++) {
 1012              		.loc 1 182 26 view .LVU265
 1013 0050 FFF7FEFF 		bl	lv_obj_get_child_cnt
 1014              	.LVL99:
 1015 0054 8346     		mov	fp, r0
 1016              	.LVL100:
 183:Middlewares/LVGL/GUI/lvgl/src/core/lv_obj_scroll.c ****         lv_obj_t * child = obj->spec_attr->children[i];
 1017              		.loc 1 183 5 is_stmt 1 view .LVU266
 181:Middlewares/LVGL/GUI/lvgl/src/core/lv_obj_scroll.c ****     uint32_t child_cnt = lv_obj_get_child_cnt(obj);
 1018              		.loc 1 181 16 is_stmt 0 view .LVU267
 1019 0056 6FF06047 		mvn	r7, #-536870912
 183:Middlewares/LVGL/GUI/lvgl/src/core/lv_obj_scroll.c ****         lv_obj_t * child = obj->spec_attr->children[i];
 1020              		.loc 1 183 11 view .LVU268
 1021 005a 0025     		movs	r5, #0
 183:Middlewares/LVGL/GUI/lvgl/src/core/lv_obj_scroll.c ****         lv_obj_t * child = obj->spec_attr->children[i];
 1022              		.loc 1 183 5 view .LVU269
 1023 005c 04E0     		b	.L56
 1024              	.LVL101:
 1025              	.L64:
 1026              	.LBB116:
 186:Middlewares/LVGL/GUI/lvgl/src/core/lv_obj_scroll.c **** 
 1027              		.loc 1 186 9 is_stmt 1 view .LVU270
 186:Middlewares/LVGL/GUI/lvgl/src/core/lv_obj_scroll.c **** 
 1028              		.loc 1 186 14 is_stmt 0 view .LVU271
 1029 005e 7369     		ldr	r3, [r6, #20]
 186:Middlewares/LVGL/GUI/lvgl/src/core/lv_obj_scroll.c **** 
 1030              		.loc 1 186 12 view .LVU272
 1031 0060 9F42     		cmp	r7, r3
 1032 0062 A8BF     		it	ge
 1033 0064 1F46     		movge	r7, r3
 1034              	.LVL102:
ARM GAS  C:\Users\ADMINI~1\AppData\Local\Temp\cchMZgMB.s 			page 44


 1035              	.L57:
 186:Middlewares/LVGL/GUI/lvgl/src/core/lv_obj_scroll.c **** 
 1036              		.loc 1 186 12 view .LVU273
 1037              	.LBE116:
 183:Middlewares/LVGL/GUI/lvgl/src/core/lv_obj_scroll.c ****         lv_obj_t * child = obj->spec_attr->children[i];
 1038              		.loc 1 183 31 is_stmt 1 discriminator 2 view .LVU274
 183:Middlewares/LVGL/GUI/lvgl/src/core/lv_obj_scroll.c ****         lv_obj_t * child = obj->spec_attr->children[i];
 1039              		.loc 1 183 32 is_stmt 0 discriminator 2 view .LVU275
 1040 0066 0135     		adds	r5, r5, #1
 1041              	.LVL103:
 1042              	.L56:
 183:Middlewares/LVGL/GUI/lvgl/src/core/lv_obj_scroll.c ****         lv_obj_t * child = obj->spec_attr->children[i];
 1043              		.loc 1 183 16 is_stmt 1 discriminator 1 view .LVU276
 183:Middlewares/LVGL/GUI/lvgl/src/core/lv_obj_scroll.c ****         lv_obj_t * child = obj->spec_attr->children[i];
 1044              		.loc 1 183 5 is_stmt 0 discriminator 1 view .LVU277
 1045 0068 5D45     		cmp	r5, fp
 1046 006a 0AD2     		bcs	.L63
 1047              	.LBB117:
 184:Middlewares/LVGL/GUI/lvgl/src/core/lv_obj_scroll.c ****         if(lv_obj_has_flag_any(child,  LV_OBJ_FLAG_HIDDEN | LV_OBJ_FLAG_FLOATING)) continue;
 1048              		.loc 1 184 9 is_stmt 1 view .LVU278
 184:Middlewares/LVGL/GUI/lvgl/src/core/lv_obj_scroll.c ****         if(lv_obj_has_flag_any(child,  LV_OBJ_FLAG_HIDDEN | LV_OBJ_FLAG_FLOATING)) continue;
 1049              		.loc 1 184 31 is_stmt 0 view .LVU279
 1050 006c A368     		ldr	r3, [r4, #8]
 184:Middlewares/LVGL/GUI/lvgl/src/core/lv_obj_scroll.c ****         if(lv_obj_has_flag_any(child,  LV_OBJ_FLAG_HIDDEN | LV_OBJ_FLAG_FLOATING)) continue;
 1051              		.loc 1 184 42 view .LVU280
 1052 006e 1B68     		ldr	r3, [r3]
 184:Middlewares/LVGL/GUI/lvgl/src/core/lv_obj_scroll.c ****         if(lv_obj_has_flag_any(child,  LV_OBJ_FLAG_HIDDEN | LV_OBJ_FLAG_FLOATING)) continue;
 1053              		.loc 1 184 20 view .LVU281
 1054 0070 53F82560 		ldr	r6, [r3, r5, lsl #2]
 1055              	.LVL104:
 185:Middlewares/LVGL/GUI/lvgl/src/core/lv_obj_scroll.c ****         x1 = LV_MIN(x1, child->coords.x1);
 1056              		.loc 1 185 9 is_stmt 1 view .LVU282
 185:Middlewares/LVGL/GUI/lvgl/src/core/lv_obj_scroll.c ****         x1 = LV_MIN(x1, child->coords.x1);
 1057              		.loc 1 185 12 is_stmt 0 view .LVU283
 1058 0074 1449     		ldr	r1, .L65
 1059 0076 3046     		mov	r0, r6
 1060 0078 FFF7FEFF 		bl	lv_obj_has_flag_any
 1061              	.LVL105:
 185:Middlewares/LVGL/GUI/lvgl/src/core/lv_obj_scroll.c ****         x1 = LV_MIN(x1, child->coords.x1);
 1062              		.loc 1 185 11 view .LVU284
 1063 007c 0028     		cmp	r0, #0
 1064 007e EED0     		beq	.L64
 1065 0080 F1E7     		b	.L57
 1066              	.LVL106:
 1067              	.L63:
 185:Middlewares/LVGL/GUI/lvgl/src/core/lv_obj_scroll.c ****         x1 = LV_MIN(x1, child->coords.x1);
 1068              		.loc 1 185 11 view .LVU285
 1069              	.LBE117:
 190:Middlewares/LVGL/GUI/lvgl/src/core/lv_obj_scroll.c ****         child_res = x1;
 1070              		.loc 1 190 5 is_stmt 1 view .LVU286
 190:Middlewares/LVGL/GUI/lvgl/src/core/lv_obj_scroll.c ****         child_res = x1;
 1071              		.loc 1 190 7 is_stmt 0 view .LVU287
 1072 0082 6FF06043 		mvn	r3, #-536870912
 1073 0086 9F42     		cmp	r7, r3
 1074 0088 1AD0     		beq	.L61
 191:Middlewares/LVGL/GUI/lvgl/src/core/lv_obj_scroll.c ****         child_res = (obj->coords.x1 + pad_left + border_width) - child_res;
 1075              		.loc 1 191 9 is_stmt 1 view .LVU288
ARM GAS  C:\Users\ADMINI~1\AppData\Local\Temp\cchMZgMB.s 			page 45


 1076              	.LVL107:
 192:Middlewares/LVGL/GUI/lvgl/src/core/lv_obj_scroll.c ****     }
 1077              		.loc 1 192 9 view .LVU289
 192:Middlewares/LVGL/GUI/lvgl/src/core/lv_obj_scroll.c ****     }
 1078              		.loc 1 192 33 is_stmt 0 view .LVU290
 1079 008a 6069     		ldr	r0, [r4, #20]
 192:Middlewares/LVGL/GUI/lvgl/src/core/lv_obj_scroll.c ****     }
 1080              		.loc 1 192 37 view .LVU291
 1081 008c 4844     		add	r0, r0, r9
 192:Middlewares/LVGL/GUI/lvgl/src/core/lv_obj_scroll.c ****     }
 1082              		.loc 1 192 48 view .LVU292
 1083 008e 4044     		add	r0, r0, r8
 192:Middlewares/LVGL/GUI/lvgl/src/core/lv_obj_scroll.c ****     }
 1084              		.loc 1 192 19 view .LVU293
 1085 0090 C71B     		subs	r7, r0, r7
 1086              	.LVL108:
 1087              	.L59:
 198:Middlewares/LVGL/GUI/lvgl/src/core/lv_obj_scroll.c ****     self_w = self_w - (lv_obj_get_width(obj) - pad_right - pad_left - 2 * border_width);
 1088              		.loc 1 198 5 is_stmt 1 view .LVU294
 198:Middlewares/LVGL/GUI/lvgl/src/core/lv_obj_scroll.c ****     self_w = self_w - (lv_obj_get_width(obj) - pad_right - pad_left - 2 * border_width);
 1089              		.loc 1 198 25 is_stmt 0 view .LVU295
 1090 0092 2046     		mov	r0, r4
 1091 0094 FFF7FEFF 		bl	lv_obj_get_self_width
 1092              	.LVL109:
 1093 0098 0646     		mov	r6, r0
 1094              	.LVL110:
 199:Middlewares/LVGL/GUI/lvgl/src/core/lv_obj_scroll.c ****     self_w += lv_obj_get_scroll_x(obj);
 1095              		.loc 1 199 5 is_stmt 1 view .LVU296
 199:Middlewares/LVGL/GUI/lvgl/src/core/lv_obj_scroll.c ****     self_w += lv_obj_get_scroll_x(obj);
 1096              		.loc 1 199 24 is_stmt 0 view .LVU297
 1097 009a 2046     		mov	r0, r4
 1098              	.LVL111:
 199:Middlewares/LVGL/GUI/lvgl/src/core/lv_obj_scroll.c ****     self_w += lv_obj_get_scroll_x(obj);
 1099              		.loc 1 199 24 view .LVU298
 1100 009c FFF7FEFF 		bl	lv_obj_get_width
 1101              	.LVL112:
 199:Middlewares/LVGL/GUI/lvgl/src/core/lv_obj_scroll.c ****     self_w += lv_obj_get_scroll_x(obj);
 1102              		.loc 1 199 46 view .LVU299
 1103 00a0 A0EB0A0A 		sub	r10, r0, r10
 1104              	.LVL113:
 199:Middlewares/LVGL/GUI/lvgl/src/core/lv_obj_scroll.c ****     self_w += lv_obj_get_scroll_x(obj);
 1105              		.loc 1 199 58 view .LVU300
 1106 00a4 AAEB0909 		sub	r9, r10, r9
 1107              	.LVL114:
 199:Middlewares/LVGL/GUI/lvgl/src/core/lv_obj_scroll.c ****     self_w += lv_obj_get_scroll_x(obj);
 1108              		.loc 1 199 69 view .LVU301
 1109 00a8 A9EB4808 		sub	r8, r9, r8, lsl #1
 1110              	.LVL115:
 199:Middlewares/LVGL/GUI/lvgl/src/core/lv_obj_scroll.c ****     self_w += lv_obj_get_scroll_x(obj);
 1111              		.loc 1 199 12 view .LVU302
 1112 00ac A6EB0808 		sub	r8, r6, r8
 1113              	.LVL116:
 200:Middlewares/LVGL/GUI/lvgl/src/core/lv_obj_scroll.c **** 
 1114              		.loc 1 200 5 is_stmt 1 view .LVU303
 200:Middlewares/LVGL/GUI/lvgl/src/core/lv_obj_scroll.c **** 
 1115              		.loc 1 200 15 is_stmt 0 view .LVU304
 1116 00b0 2046     		mov	r0, r4
ARM GAS  C:\Users\ADMINI~1\AppData\Local\Temp\cchMZgMB.s 			page 46


 1117 00b2 FFF7FEFF 		bl	lv_obj_get_scroll_x
 1118              	.LVL117:
 200:Middlewares/LVGL/GUI/lvgl/src/core/lv_obj_scroll.c **** 
 1119              		.loc 1 200 12 view .LVU305
 1120 00b6 4044     		add	r0, r0, r8
 1121              	.LVL118:
 202:Middlewares/LVGL/GUI/lvgl/src/core/lv_obj_scroll.c **** }
 1122              		.loc 1 202 5 is_stmt 1 view .LVU306
 202:Middlewares/LVGL/GUI/lvgl/src/core/lv_obj_scroll.c **** }
 1123              		.loc 1 202 12 is_stmt 0 view .LVU307
 1124 00b8 B842     		cmp	r0, r7
 1125 00ba B8BF     		it	lt
 1126 00bc 3846     		movlt	r0, r7
 1127              	.LVL119:
 202:Middlewares/LVGL/GUI/lvgl/src/core/lv_obj_scroll.c **** }
 1128              		.loc 1 202 12 view .LVU308
 1129 00be AFE7     		b	.L53
 1130              	.LVL120:
 1131              	.L61:
 195:Middlewares/LVGL/GUI/lvgl/src/core/lv_obj_scroll.c ****     }
 1132              		.loc 1 195 19 view .LVU309
 1133 00c0 024F     		ldr	r7, .L65+4
 1134              	.LVL121:
 195:Middlewares/LVGL/GUI/lvgl/src/core/lv_obj_scroll.c ****     }
 1135              		.loc 1 195 19 view .LVU310
 1136 00c2 E6E7     		b	.L59
 1137              	.LVL122:
 1138              	.L60:
 169:Middlewares/LVGL/GUI/lvgl/src/core/lv_obj_scroll.c ****         return -obj->spec_attr->scroll.x;
 1139              		.loc 1 169 43 view .LVU311
 1140 00c4 0020     		movs	r0, #0
 1141 00c6 ABE7     		b	.L53
 1142              	.L66:
 1143              		.align	2
 1144              	.L65:
 1145 00c8 01000400 		.word	262145
 1146 00cc 010000E0 		.word	-536870911
 1147              		.cfi_endproc
 1148              	.LFE171:
 1150              		.section	.text.lv_obj_get_scroll_right,"ax",%progbits
 1151              		.align	1
 1152              		.global	lv_obj_get_scroll_right
 1153              		.syntax unified
 1154              		.thumb
 1155              		.thumb_func
 1157              	lv_obj_get_scroll_right:
 1158              	.LVL123:
 1159              	.LFB172:
 206:Middlewares/LVGL/GUI/lvgl/src/core/lv_obj_scroll.c ****     LV_ASSERT_OBJ(obj, MY_CLASS);
 1160              		.loc 1 206 1 is_stmt 1 view -0
 1161              		.cfi_startproc
 1162              		@ args = 0, pretend = 0, frame = 0
 1163              		@ frame_needed = 0, uses_anonymous_args = 0
 206:Middlewares/LVGL/GUI/lvgl/src/core/lv_obj_scroll.c ****     LV_ASSERT_OBJ(obj, MY_CLASS);
 1164              		.loc 1 206 1 is_stmt 0 view .LVU313
 1165 0000 2DE9F843 		push	{r3, r4, r5, r6, r7, r8, r9, lr}
 1166              	.LCFI10:
ARM GAS  C:\Users\ADMINI~1\AppData\Local\Temp\cchMZgMB.s 			page 47


 1167              		.cfi_def_cfa_offset 32
 1168              		.cfi_offset 3, -32
 1169              		.cfi_offset 4, -28
 1170              		.cfi_offset 5, -24
 1171              		.cfi_offset 6, -20
 1172              		.cfi_offset 7, -16
 1173              		.cfi_offset 8, -12
 1174              		.cfi_offset 9, -8
 1175              		.cfi_offset 14, -4
 1176 0004 0546     		mov	r5, r0
 207:Middlewares/LVGL/GUI/lvgl/src/core/lv_obj_scroll.c **** 
 1177              		.loc 1 207 5 is_stmt 1 view .LVU314
 207:Middlewares/LVGL/GUI/lvgl/src/core/lv_obj_scroll.c **** 
 1178              		.loc 1 207 5 view .LVU315
 207:Middlewares/LVGL/GUI/lvgl/src/core/lv_obj_scroll.c **** 
 1179              		.loc 1 207 5 view .LVU316
 211:Middlewares/LVGL/GUI/lvgl/src/core/lv_obj_scroll.c ****         if(obj->spec_attr == NULL) return 0;
 1180              		.loc 1 211 5 view .LVU317
 1181              	.LVL124:
 1182              	.LBB118:
 1183              	.LBI118:
 542:Middlewares/LVGL/GUI/lvgl/src/core/lv_obj_style_gen.h **** {
 1184              		.loc 2 542 29 view .LVU318
 1185              	.LBB119:
 544:Middlewares/LVGL/GUI/lvgl/src/core/lv_obj_style_gen.h ****     return (lv_base_dir_t)v.num;
 1186              		.loc 2 544 5 view .LVU319
 544:Middlewares/LVGL/GUI/lvgl/src/core/lv_obj_style_gen.h ****     return (lv_base_dir_t)v.num;
 1187              		.loc 2 544 26 is_stmt 0 view .LVU320
 1188 0006 41F26A42 		movw	r2, #5226
 1189 000a 0021     		movs	r1, #0
 1190 000c FFF7FEFF 		bl	lv_obj_get_style_prop
 1191              	.LVL125:
 1192              		.loc 2 545 5 is_stmt 1 view .LVU321
 1193              		.loc 2 545 12 is_stmt 0 view .LVU322
 1194 0010 C0B2     		uxtb	r0, r0
 1195              	.LVL126:
 1196              		.loc 2 545 12 view .LVU323
 1197              	.LBE119:
 1198              	.LBE118:
 211:Middlewares/LVGL/GUI/lvgl/src/core/lv_obj_scroll.c ****         if(obj->spec_attr == NULL) return 0;
 1199              		.loc 1 211 7 view .LVU324
 1200 0012 0128     		cmp	r0, #1
 1201 0014 04D1     		bne	.L68
 212:Middlewares/LVGL/GUI/lvgl/src/core/lv_obj_scroll.c ****         return obj->spec_attr->scroll.x;
 1202              		.loc 1 212 9 is_stmt 1 view .LVU325
 212:Middlewares/LVGL/GUI/lvgl/src/core/lv_obj_scroll.c ****         return obj->spec_attr->scroll.x;
 1203              		.loc 1 212 15 is_stmt 0 view .LVU326
 1204 0016 AB68     		ldr	r3, [r5, #8]
 212:Middlewares/LVGL/GUI/lvgl/src/core/lv_obj_scroll.c ****         return obj->spec_attr->scroll.x;
 1205              		.loc 1 212 11 view .LVU327
 1206 0018 002B     		cmp	r3, #0
 1207 001a 4ED0     		beq	.L74
 213:Middlewares/LVGL/GUI/lvgl/src/core/lv_obj_scroll.c ****     }
 1208              		.loc 1 213 9 is_stmt 1 view .LVU328
 213:Middlewares/LVGL/GUI/lvgl/src/core/lv_obj_scroll.c ****     }
 1209              		.loc 1 213 38 is_stmt 0 view .LVU329
 1210 001c 1869     		ldr	r0, [r3, #16]
ARM GAS  C:\Users\ADMINI~1\AppData\Local\Temp\cchMZgMB.s 			page 48


 1211 001e 4AE0     		b	.L67
 1212              	.L68:
 217:Middlewares/LVGL/GUI/lvgl/src/core/lv_obj_scroll.c ****     uint32_t i;
 1213              		.loc 1 217 5 is_stmt 1 view .LVU330
 1214              	.LVL127:
 218:Middlewares/LVGL/GUI/lvgl/src/core/lv_obj_scroll.c ****     uint32_t child_cnt = lv_obj_get_child_cnt(obj);
 1215              		.loc 1 218 5 view .LVU331
 219:Middlewares/LVGL/GUI/lvgl/src/core/lv_obj_scroll.c ****     for(i = 0; i < child_cnt; i++) {
 1216              		.loc 1 219 5 view .LVU332
 219:Middlewares/LVGL/GUI/lvgl/src/core/lv_obj_scroll.c ****     for(i = 0; i < child_cnt; i++) {
 1217              		.loc 1 219 26 is_stmt 0 view .LVU333
 1218 0020 2846     		mov	r0, r5
 1219 0022 FFF7FEFF 		bl	lv_obj_get_child_cnt
 1220              	.LVL128:
 1221 0026 8046     		mov	r8, r0
 1222              	.LVL129:
 220:Middlewares/LVGL/GUI/lvgl/src/core/lv_obj_scroll.c ****         lv_obj_t * child = obj->spec_attr->children[i];
 1223              		.loc 1 220 5 is_stmt 1 view .LVU334
 220:Middlewares/LVGL/GUI/lvgl/src/core/lv_obj_scroll.c ****         lv_obj_t * child = obj->spec_attr->children[i];
 1224              		.loc 1 220 11 is_stmt 0 view .LVU335
 1225 0028 0024     		movs	r4, #0
 217:Middlewares/LVGL/GUI/lvgl/src/core/lv_obj_scroll.c ****     uint32_t i;
 1226              		.loc 1 217 16 view .LVU336
 1227 002a 254F     		ldr	r7, .L78
 220:Middlewares/LVGL/GUI/lvgl/src/core/lv_obj_scroll.c ****         lv_obj_t * child = obj->spec_attr->children[i];
 1228              		.loc 1 220 5 view .LVU337
 1229 002c 04E0     		b	.L70
 1230              	.LVL130:
 1231              	.L77:
 1232              	.LBB120:
 223:Middlewares/LVGL/GUI/lvgl/src/core/lv_obj_scroll.c ****     }
 1233              		.loc 1 223 9 is_stmt 1 view .LVU338
 223:Middlewares/LVGL/GUI/lvgl/src/core/lv_obj_scroll.c ****     }
 1234              		.loc 1 223 21 is_stmt 0 view .LVU339
 1235 002e F369     		ldr	r3, [r6, #28]
 223:Middlewares/LVGL/GUI/lvgl/src/core/lv_obj_scroll.c ****     }
 1236              		.loc 1 223 19 view .LVU340
 1237 0030 9F42     		cmp	r7, r3
 1238 0032 B8BF     		it	lt
 1239 0034 1F46     		movlt	r7, r3
 1240              	.LVL131:
 1241              	.L71:
 223:Middlewares/LVGL/GUI/lvgl/src/core/lv_obj_scroll.c ****     }
 1242              		.loc 1 223 19 view .LVU341
 1243              	.LBE120:
 220:Middlewares/LVGL/GUI/lvgl/src/core/lv_obj_scroll.c ****         lv_obj_t * child = obj->spec_attr->children[i];
 1244              		.loc 1 220 31 is_stmt 1 discriminator 2 view .LVU342
 220:Middlewares/LVGL/GUI/lvgl/src/core/lv_obj_scroll.c ****         lv_obj_t * child = obj->spec_attr->children[i];
 1245              		.loc 1 220 32 is_stmt 0 discriminator 2 view .LVU343
 1246 0036 0134     		adds	r4, r4, #1
 1247              	.LVL132:
 1248              	.L70:
 220:Middlewares/LVGL/GUI/lvgl/src/core/lv_obj_scroll.c ****         lv_obj_t * child = obj->spec_attr->children[i];
 1249              		.loc 1 220 16 is_stmt 1 discriminator 1 view .LVU344
 220:Middlewares/LVGL/GUI/lvgl/src/core/lv_obj_scroll.c ****         lv_obj_t * child = obj->spec_attr->children[i];
 1250              		.loc 1 220 5 is_stmt 0 discriminator 1 view .LVU345
 1251 0038 4445     		cmp	r4, r8
ARM GAS  C:\Users\ADMINI~1\AppData\Local\Temp\cchMZgMB.s 			page 49


 1252 003a 0AD2     		bcs	.L76
 1253              	.LBB121:
 221:Middlewares/LVGL/GUI/lvgl/src/core/lv_obj_scroll.c ****         if(lv_obj_has_flag_any(child,  LV_OBJ_FLAG_HIDDEN | LV_OBJ_FLAG_FLOATING)) continue;
 1254              		.loc 1 221 9 is_stmt 1 view .LVU346
 221:Middlewares/LVGL/GUI/lvgl/src/core/lv_obj_scroll.c ****         if(lv_obj_has_flag_any(child,  LV_OBJ_FLAG_HIDDEN | LV_OBJ_FLAG_FLOATING)) continue;
 1255              		.loc 1 221 31 is_stmt 0 view .LVU347
 1256 003c AB68     		ldr	r3, [r5, #8]
 221:Middlewares/LVGL/GUI/lvgl/src/core/lv_obj_scroll.c ****         if(lv_obj_has_flag_any(child,  LV_OBJ_FLAG_HIDDEN | LV_OBJ_FLAG_FLOATING)) continue;
 1257              		.loc 1 221 42 view .LVU348
 1258 003e 1B68     		ldr	r3, [r3]
 221:Middlewares/LVGL/GUI/lvgl/src/core/lv_obj_scroll.c ****         if(lv_obj_has_flag_any(child,  LV_OBJ_FLAG_HIDDEN | LV_OBJ_FLAG_FLOATING)) continue;
 1259              		.loc 1 221 20 view .LVU349
 1260 0040 53F82460 		ldr	r6, [r3, r4, lsl #2]
 1261              	.LVL133:
 222:Middlewares/LVGL/GUI/lvgl/src/core/lv_obj_scroll.c ****         child_res = LV_MAX(child_res, child->coords.x2);
 1262              		.loc 1 222 9 is_stmt 1 view .LVU350
 222:Middlewares/LVGL/GUI/lvgl/src/core/lv_obj_scroll.c ****         child_res = LV_MAX(child_res, child->coords.x2);
 1263              		.loc 1 222 12 is_stmt 0 view .LVU351
 1264 0044 1F49     		ldr	r1, .L78+4
 1265 0046 3046     		mov	r0, r6
 1266 0048 FFF7FEFF 		bl	lv_obj_has_flag_any
 1267              	.LVL134:
 222:Middlewares/LVGL/GUI/lvgl/src/core/lv_obj_scroll.c ****         child_res = LV_MAX(child_res, child->coords.x2);
 1268              		.loc 1 222 11 view .LVU352
 1269 004c 0028     		cmp	r0, #0
 1270 004e EED0     		beq	.L77
 1271 0050 F1E7     		b	.L71
 1272              	.LVL135:
 1273              	.L76:
 222:Middlewares/LVGL/GUI/lvgl/src/core/lv_obj_scroll.c ****         child_res = LV_MAX(child_res, child->coords.x2);
 1274              		.loc 1 222 11 view .LVU353
 1275              	.LBE121:
 226:Middlewares/LVGL/GUI/lvgl/src/core/lv_obj_scroll.c ****     lv_coord_t pad_left = lv_obj_get_style_pad_left(obj, LV_PART_MAIN);
 1276              		.loc 1 226 5 is_stmt 1 view .LVU354
 1277              	.LBB122:
 1278              	.LBI122:
 109:Middlewares/LVGL/GUI/lvgl/src/core/lv_obj_style_gen.h **** {
 1279              		.loc 2 109 26 view .LVU355
 1280              	.LBB123:
 111:Middlewares/LVGL/GUI/lvgl/src/core/lv_obj_style_gen.h ****     return (lv_coord_t)v.num;
 1281              		.loc 2 111 5 view .LVU356
 111:Middlewares/LVGL/GUI/lvgl/src/core/lv_obj_style_gen.h ****     return (lv_coord_t)v.num;
 1282              		.loc 2 111 26 is_stmt 0 view .LVU357
 1283 0052 41F61302 		movw	r2, #6163
 1284 0056 0021     		movs	r1, #0
 1285 0058 2846     		mov	r0, r5
 1286 005a FFF7FEFF 		bl	lv_obj_get_style_prop
 1287              	.LVL136:
 1288 005e 8046     		mov	r8, r0
 1289              	.LVL137:
 112:Middlewares/LVGL/GUI/lvgl/src/core/lv_obj_style_gen.h **** }
 1290              		.loc 2 112 5 is_stmt 1 view .LVU358
 112:Middlewares/LVGL/GUI/lvgl/src/core/lv_obj_style_gen.h **** }
 1291              		.loc 2 112 5 is_stmt 0 view .LVU359
 1292              	.LBE123:
 1293              	.LBE122:
 227:Middlewares/LVGL/GUI/lvgl/src/core/lv_obj_scroll.c ****     lv_coord_t border_width = lv_obj_get_style_border_width(obj, LV_PART_MAIN);
ARM GAS  C:\Users\ADMINI~1\AppData\Local\Temp\cchMZgMB.s 			page 50


 1294              		.loc 1 227 5 is_stmt 1 view .LVU360
 1295              	.LBB124:
 1296              	.LBI124:
 103:Middlewares/LVGL/GUI/lvgl/src/core/lv_obj_style_gen.h **** {
 1297              		.loc 2 103 26 view .LVU361
 1298              	.LBB125:
 105:Middlewares/LVGL/GUI/lvgl/src/core/lv_obj_style_gen.h ****     return (lv_coord_t)v.num;
 1299              		.loc 2 105 5 view .LVU362
 105:Middlewares/LVGL/GUI/lvgl/src/core/lv_obj_style_gen.h ****     return (lv_coord_t)v.num;
 1300              		.loc 2 105 26 is_stmt 0 view .LVU363
 1301 0060 41F61202 		movw	r2, #6162
 1302 0064 0021     		movs	r1, #0
 1303 0066 2846     		mov	r0, r5
 1304              	.LVL138:
 105:Middlewares/LVGL/GUI/lvgl/src/core/lv_obj_style_gen.h ****     return (lv_coord_t)v.num;
 1305              		.loc 2 105 26 view .LVU364
 1306 0068 FFF7FEFF 		bl	lv_obj_get_style_prop
 1307              	.LVL139:
 1308 006c 8146     		mov	r9, r0
 106:Middlewares/LVGL/GUI/lvgl/src/core/lv_obj_style_gen.h **** }
 1309              		.loc 2 106 5 is_stmt 1 view .LVU365
 1310              	.LVL140:
 106:Middlewares/LVGL/GUI/lvgl/src/core/lv_obj_style_gen.h **** }
 1311              		.loc 2 106 5 is_stmt 0 view .LVU366
 1312              	.LBE125:
 1313              	.LBE124:
 228:Middlewares/LVGL/GUI/lvgl/src/core/lv_obj_scroll.c **** 
 1314              		.loc 1 228 5 is_stmt 1 view .LVU367
 1315              	.LBB126:
 1316              	.LBI126:
 241:Middlewares/LVGL/GUI/lvgl/src/core/lv_obj_style_gen.h **** {
 1317              		.loc 2 241 26 view .LVU368
 1318              	.LBB127:
 243:Middlewares/LVGL/GUI/lvgl/src/core/lv_obj_style_gen.h ****     return (lv_coord_t)v.num;
 1319              		.loc 2 243 5 view .LVU369
 243:Middlewares/LVGL/GUI/lvgl/src/core/lv_obj_style_gen.h ****     return (lv_coord_t)v.num;
 1320              		.loc 2 243 26 is_stmt 0 view .LVU370
 1321 006e 41F23202 		movw	r2, #4146
 1322 0072 0021     		movs	r1, #0
 1323 0074 2846     		mov	r0, r5
 1324              	.LVL141:
 243:Middlewares/LVGL/GUI/lvgl/src/core/lv_obj_style_gen.h ****     return (lv_coord_t)v.num;
 1325              		.loc 2 243 26 view .LVU371
 1326 0076 FFF7FEFF 		bl	lv_obj_get_style_prop
 1327              	.LVL142:
 1328 007a 0646     		mov	r6, r0
 244:Middlewares/LVGL/GUI/lvgl/src/core/lv_obj_style_gen.h **** }
 1329              		.loc 2 244 5 is_stmt 1 view .LVU372
 1330              	.LVL143:
 244:Middlewares/LVGL/GUI/lvgl/src/core/lv_obj_style_gen.h **** }
 1331              		.loc 2 244 5 is_stmt 0 view .LVU373
 1332              	.LBE127:
 1333              	.LBE126:
 230:Middlewares/LVGL/GUI/lvgl/src/core/lv_obj_scroll.c ****         child_res -= (obj->coords.x2 - pad_right - border_width);
 1334              		.loc 1 230 5 is_stmt 1 view .LVU374
 230:Middlewares/LVGL/GUI/lvgl/src/core/lv_obj_scroll.c ****         child_res -= (obj->coords.x2 - pad_right - border_width);
 1335              		.loc 1 230 7 is_stmt 0 view .LVU375
ARM GAS  C:\Users\ADMINI~1\AppData\Local\Temp\cchMZgMB.s 			page 51


 1336 007c 104B     		ldr	r3, .L78
 1337 007e 9F42     		cmp	r7, r3
 1338 0080 04D0     		beq	.L73
 231:Middlewares/LVGL/GUI/lvgl/src/core/lv_obj_scroll.c ****     }
 1339              		.loc 1 231 9 is_stmt 1 view .LVU376
 231:Middlewares/LVGL/GUI/lvgl/src/core/lv_obj_scroll.c ****     }
 1340              		.loc 1 231 34 is_stmt 0 view .LVU377
 1341 0082 EB69     		ldr	r3, [r5, #28]
 231:Middlewares/LVGL/GUI/lvgl/src/core/lv_obj_scroll.c ****     }
 1342              		.loc 1 231 38 view .LVU378
 1343 0084 A3EB0803 		sub	r3, r3, r8
 231:Middlewares/LVGL/GUI/lvgl/src/core/lv_obj_scroll.c ****     }
 1344              		.loc 1 231 50 view .LVU379
 1345 0088 1B1A     		subs	r3, r3, r0
 231:Middlewares/LVGL/GUI/lvgl/src/core/lv_obj_scroll.c ****     }
 1346              		.loc 1 231 19 view .LVU380
 1347 008a FF1A     		subs	r7, r7, r3
 1348              	.LVL144:
 1349              	.L73:
 234:Middlewares/LVGL/GUI/lvgl/src/core/lv_obj_scroll.c ****     self_w = lv_obj_get_self_width(obj);
 1350              		.loc 1 234 5 is_stmt 1 view .LVU381
 235:Middlewares/LVGL/GUI/lvgl/src/core/lv_obj_scroll.c ****     self_w = self_w - (lv_obj_get_width(obj) - pad_right - pad_left - 2 * border_width);
 1351              		.loc 1 235 5 view .LVU382
 235:Middlewares/LVGL/GUI/lvgl/src/core/lv_obj_scroll.c ****     self_w = self_w - (lv_obj_get_width(obj) - pad_right - pad_left - 2 * border_width);
 1352              		.loc 1 235 14 is_stmt 0 view .LVU383
 1353 008c 2846     		mov	r0, r5
 1354              	.LVL145:
 235:Middlewares/LVGL/GUI/lvgl/src/core/lv_obj_scroll.c ****     self_w = self_w - (lv_obj_get_width(obj) - pad_right - pad_left - 2 * border_width);
 1355              		.loc 1 235 14 view .LVU384
 1356 008e FFF7FEFF 		bl	lv_obj_get_self_width
 1357              	.LVL146:
 1358 0092 0446     		mov	r4, r0
 1359              	.LVL147:
 236:Middlewares/LVGL/GUI/lvgl/src/core/lv_obj_scroll.c ****     self_w -= lv_obj_get_scroll_x(obj);
 1360              		.loc 1 236 5 is_stmt 1 view .LVU385
 236:Middlewares/LVGL/GUI/lvgl/src/core/lv_obj_scroll.c ****     self_w -= lv_obj_get_scroll_x(obj);
 1361              		.loc 1 236 24 is_stmt 0 view .LVU386
 1362 0094 2846     		mov	r0, r5
 1363              	.LVL148:
 236:Middlewares/LVGL/GUI/lvgl/src/core/lv_obj_scroll.c ****     self_w -= lv_obj_get_scroll_x(obj);
 1364              		.loc 1 236 24 view .LVU387
 1365 0096 FFF7FEFF 		bl	lv_obj_get_width
 1366              	.LVL149:
 236:Middlewares/LVGL/GUI/lvgl/src/core/lv_obj_scroll.c ****     self_w -= lv_obj_get_scroll_x(obj);
 1367              		.loc 1 236 46 view .LVU388
 1368 009a A0EB0803 		sub	r3, r0, r8
 236:Middlewares/LVGL/GUI/lvgl/src/core/lv_obj_scroll.c ****     self_w -= lv_obj_get_scroll_x(obj);
 1369              		.loc 1 236 58 view .LVU389
 1370 009e A3EB0903 		sub	r3, r3, r9
 236:Middlewares/LVGL/GUI/lvgl/src/core/lv_obj_scroll.c ****     self_w -= lv_obj_get_scroll_x(obj);
 1371              		.loc 1 236 69 view .LVU390
 1372 00a2 A3EB4600 		sub	r0, r3, r6, lsl #1
 236:Middlewares/LVGL/GUI/lvgl/src/core/lv_obj_scroll.c ****     self_w -= lv_obj_get_scroll_x(obj);
 1373              		.loc 1 236 12 view .LVU391
 1374 00a6 241A     		subs	r4, r4, r0
 1375              	.LVL150:
 237:Middlewares/LVGL/GUI/lvgl/src/core/lv_obj_scroll.c ****     return LV_MAX(child_res, self_w);
ARM GAS  C:\Users\ADMINI~1\AppData\Local\Temp\cchMZgMB.s 			page 52


 1376              		.loc 1 237 5 is_stmt 1 view .LVU392
 237:Middlewares/LVGL/GUI/lvgl/src/core/lv_obj_scroll.c ****     return LV_MAX(child_res, self_w);
 1377              		.loc 1 237 15 is_stmt 0 view .LVU393
 1378 00a8 2846     		mov	r0, r5
 1379 00aa FFF7FEFF 		bl	lv_obj_get_scroll_x
 1380              	.LVL151:
 237:Middlewares/LVGL/GUI/lvgl/src/core/lv_obj_scroll.c ****     return LV_MAX(child_res, self_w);
 1381              		.loc 1 237 12 view .LVU394
 1382 00ae 201A     		subs	r0, r4, r0
 1383              	.LVL152:
 238:Middlewares/LVGL/GUI/lvgl/src/core/lv_obj_scroll.c **** }
 1384              		.loc 1 238 5 is_stmt 1 view .LVU395
 238:Middlewares/LVGL/GUI/lvgl/src/core/lv_obj_scroll.c **** }
 1385              		.loc 1 238 12 is_stmt 0 view .LVU396
 1386 00b0 B842     		cmp	r0, r7
 1387 00b2 B8BF     		it	lt
 1388 00b4 3846     		movlt	r0, r7
 1389              	.LVL153:
 1390              	.L67:
 239:Middlewares/LVGL/GUI/lvgl/src/core/lv_obj_scroll.c **** 
 1391              		.loc 1 239 1 view .LVU397
 1392 00b6 BDE8F883 		pop	{r3, r4, r5, r6, r7, r8, r9, pc}
 1393              	.LVL154:
 1394              	.L74:
 212:Middlewares/LVGL/GUI/lvgl/src/core/lv_obj_scroll.c ****         return obj->spec_attr->scroll.x;
 1395              		.loc 1 212 43 view .LVU398
 1396 00ba 0020     		movs	r0, #0
 1397 00bc FBE7     		b	.L67
 1398              	.L79:
 1399 00be 00BF     		.align	2
 1400              	.L78:
 1401 00c0 010000E0 		.word	-536870911
 1402 00c4 01000400 		.word	262145
 1403              		.cfi_endproc
 1404              	.LFE172:
 1406              		.section	.text.lv_obj_get_scroll_end,"ax",%progbits
 1407              		.align	1
 1408              		.global	lv_obj_get_scroll_end
 1409              		.syntax unified
 1410              		.thumb
 1411              		.thumb_func
 1413              	lv_obj_get_scroll_end:
 1414              	.LVL155:
 1415              	.LFB173:
 242:Middlewares/LVGL/GUI/lvgl/src/core/lv_obj_scroll.c ****     lv_anim_t * a;
 1416              		.loc 1 242 1 is_stmt 1 view -0
 1417              		.cfi_startproc
 1418              		@ args = 0, pretend = 0, frame = 0
 1419              		@ frame_needed = 0, uses_anonymous_args = 0
 242:Middlewares/LVGL/GUI/lvgl/src/core/lv_obj_scroll.c ****     lv_anim_t * a;
 1420              		.loc 1 242 1 is_stmt 0 view .LVU400
 1421 0000 38B5     		push	{r3, r4, r5, lr}
 1422              	.LCFI11:
 1423              		.cfi_def_cfa_offset 16
 1424              		.cfi_offset 3, -16
 1425              		.cfi_offset 4, -12
 1426              		.cfi_offset 5, -8
ARM GAS  C:\Users\ADMINI~1\AppData\Local\Temp\cchMZgMB.s 			page 53


 1427              		.cfi_offset 14, -4
 1428 0002 0546     		mov	r5, r0
 1429 0004 0C46     		mov	r4, r1
 243:Middlewares/LVGL/GUI/lvgl/src/core/lv_obj_scroll.c ****     a = lv_anim_get(obj, scroll_x_anim);
 1430              		.loc 1 243 5 is_stmt 1 view .LVU401
 244:Middlewares/LVGL/GUI/lvgl/src/core/lv_obj_scroll.c ****     end->x = a ? -a->end_value : lv_obj_get_scroll_x(obj);
 1431              		.loc 1 244 5 view .LVU402
 244:Middlewares/LVGL/GUI/lvgl/src/core/lv_obj_scroll.c ****     end->x = a ? -a->end_value : lv_obj_get_scroll_x(obj);
 1432              		.loc 1 244 9 is_stmt 0 view .LVU403
 1433 0006 0C49     		ldr	r1, .L86
 1434              	.LVL156:
 244:Middlewares/LVGL/GUI/lvgl/src/core/lv_obj_scroll.c ****     end->x = a ? -a->end_value : lv_obj_get_scroll_x(obj);
 1435              		.loc 1 244 9 view .LVU404
 1436 0008 FFF7FEFF 		bl	lv_anim_get
 1437              	.LVL157:
 245:Middlewares/LVGL/GUI/lvgl/src/core/lv_obj_scroll.c **** 
 1438              		.loc 1 245 5 is_stmt 1 view .LVU405
 245:Middlewares/LVGL/GUI/lvgl/src/core/lv_obj_scroll.c **** 
 1439              		.loc 1 245 32 is_stmt 0 view .LVU406
 1440 000c 58B1     		cbz	r0, .L81
 245:Middlewares/LVGL/GUI/lvgl/src/core/lv_obj_scroll.c **** 
 1441              		.loc 1 245 20 discriminator 1 view .LVU407
 1442 000e 406A     		ldr	r0, [r0, #36]
 1443              	.LVL158:
 245:Middlewares/LVGL/GUI/lvgl/src/core/lv_obj_scroll.c **** 
 1444              		.loc 1 245 32 discriminator 1 view .LVU408
 1445 0010 4042     		rsbs	r0, r0, #0
 1446              	.L82:
 245:Middlewares/LVGL/GUI/lvgl/src/core/lv_obj_scroll.c **** 
 1447              		.loc 1 245 12 discriminator 4 view .LVU409
 1448 0012 2060     		str	r0, [r4]
 247:Middlewares/LVGL/GUI/lvgl/src/core/lv_obj_scroll.c ****     end->y = a ? -a->end_value : lv_obj_get_scroll_y(obj);
 1449              		.loc 1 247 5 is_stmt 1 discriminator 4 view .LVU410
 247:Middlewares/LVGL/GUI/lvgl/src/core/lv_obj_scroll.c ****     end->y = a ? -a->end_value : lv_obj_get_scroll_y(obj);
 1450              		.loc 1 247 9 is_stmt 0 discriminator 4 view .LVU411
 1451 0014 0949     		ldr	r1, .L86+4
 1452 0016 2846     		mov	r0, r5
 1453 0018 FFF7FEFF 		bl	lv_anim_get
 1454              	.LVL159:
 248:Middlewares/LVGL/GUI/lvgl/src/core/lv_obj_scroll.c **** }
 1455              		.loc 1 248 5 is_stmt 1 discriminator 4 view .LVU412
 248:Middlewares/LVGL/GUI/lvgl/src/core/lv_obj_scroll.c **** }
 1456              		.loc 1 248 32 is_stmt 0 discriminator 4 view .LVU413
 1457 001c 38B1     		cbz	r0, .L83
 248:Middlewares/LVGL/GUI/lvgl/src/core/lv_obj_scroll.c **** }
 1458              		.loc 1 248 20 discriminator 1 view .LVU414
 1459 001e 406A     		ldr	r0, [r0, #36]
 1460              	.LVL160:
 248:Middlewares/LVGL/GUI/lvgl/src/core/lv_obj_scroll.c **** }
 1461              		.loc 1 248 32 discriminator 1 view .LVU415
 1462 0020 4042     		rsbs	r0, r0, #0
 1463              	.L84:
 248:Middlewares/LVGL/GUI/lvgl/src/core/lv_obj_scroll.c **** }
 1464              		.loc 1 248 12 discriminator 4 view .LVU416
 1465 0022 6060     		str	r0, [r4, #4]
 249:Middlewares/LVGL/GUI/lvgl/src/core/lv_obj_scroll.c **** 
 1466              		.loc 1 249 1 discriminator 4 view .LVU417
ARM GAS  C:\Users\ADMINI~1\AppData\Local\Temp\cchMZgMB.s 			page 54


 1467 0024 38BD     		pop	{r3, r4, r5, pc}
 1468              	.LVL161:
 1469              	.L81:
 245:Middlewares/LVGL/GUI/lvgl/src/core/lv_obj_scroll.c **** 
 1470              		.loc 1 245 34 discriminator 2 view .LVU418
 1471 0026 2846     		mov	r0, r5
 1472              	.LVL162:
 245:Middlewares/LVGL/GUI/lvgl/src/core/lv_obj_scroll.c **** 
 1473              		.loc 1 245 34 discriminator 2 view .LVU419
 1474 0028 FFF7FEFF 		bl	lv_obj_get_scroll_x
 1475              	.LVL163:
 1476 002c F1E7     		b	.L82
 1477              	.LVL164:
 1478              	.L83:
 248:Middlewares/LVGL/GUI/lvgl/src/core/lv_obj_scroll.c **** }
 1479              		.loc 1 248 34 discriminator 2 view .LVU420
 1480 002e 2846     		mov	r0, r5
 1481              	.LVL165:
 248:Middlewares/LVGL/GUI/lvgl/src/core/lv_obj_scroll.c **** }
 1482              		.loc 1 248 34 discriminator 2 view .LVU421
 1483 0030 FFF7FEFF 		bl	lv_obj_get_scroll_y
 1484              	.LVL166:
 1485 0034 F5E7     		b	.L84
 1486              	.L87:
 1487 0036 00BF     		.align	2
 1488              	.L86:
 1489 0038 00000000 		.word	scroll_x_anim
 1490 003c 00000000 		.word	scroll_y_anim
 1491              		.cfi_endproc
 1492              	.LFE173:
 1494              		.section	.text.lv_obj_scroll_by,"ax",%progbits
 1495              		.align	1
 1496              		.global	lv_obj_scroll_by
 1497              		.syntax unified
 1498              		.thumb
 1499              		.thumb_func
 1501              	lv_obj_scroll_by:
 1502              	.LVL167:
 1503              	.LFB175:
 305:Middlewares/LVGL/GUI/lvgl/src/core/lv_obj_scroll.c ****     if(dx == 0 && dy == 0) return;
 1504              		.loc 1 305 1 is_stmt 1 view -0
 1505              		.cfi_startproc
 1506              		@ args = 0, pretend = 0, frame = 64
 1507              		@ frame_needed = 0, uses_anonymous_args = 0
 305:Middlewares/LVGL/GUI/lvgl/src/core/lv_obj_scroll.c ****     if(dx == 0 && dy == 0) return;
 1508              		.loc 1 305 1 is_stmt 0 view .LVU423
 1509 0000 2DE9F041 		push	{r4, r5, r6, r7, r8, lr}
 1510              	.LCFI12:
 1511              		.cfi_def_cfa_offset 24
 1512              		.cfi_offset 4, -24
 1513              		.cfi_offset 5, -20
 1514              		.cfi_offset 6, -16
 1515              		.cfi_offset 7, -12
 1516              		.cfi_offset 8, -8
 1517              		.cfi_offset 14, -4
 1518 0004 90B0     		sub	sp, sp, #64
 1519              	.LCFI13:
ARM GAS  C:\Users\ADMINI~1\AppData\Local\Temp\cchMZgMB.s 			page 55


 1520              		.cfi_def_cfa_offset 88
 1521 0006 0446     		mov	r4, r0
 1522 0008 1546     		mov	r5, r2
 306:Middlewares/LVGL/GUI/lvgl/src/core/lv_obj_scroll.c ****     if(anim_en == LV_ANIM_ON) {
 1523              		.loc 1 306 5 is_stmt 1 view .LVU424
 306:Middlewares/LVGL/GUI/lvgl/src/core/lv_obj_scroll.c ****     if(anim_en == LV_ANIM_ON) {
 1524              		.loc 1 306 7 is_stmt 0 view .LVU425
 1525 000a 0F46     		mov	r7, r1
 1526 000c 01B9     		cbnz	r1, .L89
 306:Middlewares/LVGL/GUI/lvgl/src/core/lv_obj_scroll.c ****     if(anim_en == LV_ANIM_ON) {
 1527              		.loc 1 306 16 discriminator 1 view .LVU426
 1528 000e CAB1     		cbz	r2, .L88
 1529              	.L89:
 307:Middlewares/LVGL/GUI/lvgl/src/core/lv_obj_scroll.c ****         lv_disp_t * d = lv_obj_get_disp(obj);
 1530              		.loc 1 307 5 is_stmt 1 view .LVU427
 307:Middlewares/LVGL/GUI/lvgl/src/core/lv_obj_scroll.c ****         lv_disp_t * d = lv_obj_get_disp(obj);
 1531              		.loc 1 307 7 is_stmt 0 view .LVU428
 1532 0010 012B     		cmp	r3, #1
 1533 0012 1AD0     		beq	.L103
 1534              	.LBB128:
 348:Middlewares/LVGL/GUI/lvgl/src/core/lv_obj_scroll.c ****         bool x_del = lv_anim_del(obj, scroll_x_anim);
 1535              		.loc 1 348 9 is_stmt 1 view .LVU429
 348:Middlewares/LVGL/GUI/lvgl/src/core/lv_obj_scroll.c ****         bool x_del = lv_anim_del(obj, scroll_x_anim);
 1536              		.loc 1 348 22 is_stmt 0 view .LVU430
 1537 0014 3D49     		ldr	r1, .L105
 1538              	.LVL168:
 348:Middlewares/LVGL/GUI/lvgl/src/core/lv_obj_scroll.c ****         bool x_del = lv_anim_del(obj, scroll_x_anim);
 1539              		.loc 1 348 22 view .LVU431
 1540 0016 2046     		mov	r0, r4
 1541              	.LVL169:
 348:Middlewares/LVGL/GUI/lvgl/src/core/lv_obj_scroll.c ****         bool x_del = lv_anim_del(obj, scroll_x_anim);
 1542              		.loc 1 348 22 view .LVU432
 1543 0018 FFF7FEFF 		bl	lv_anim_del
 1544              	.LVL170:
 348:Middlewares/LVGL/GUI/lvgl/src/core/lv_obj_scroll.c ****         bool x_del = lv_anim_del(obj, scroll_x_anim);
 1545              		.loc 1 348 22 view .LVU433
 1546 001c 0646     		mov	r6, r0
 1547              	.LVL171:
 349:Middlewares/LVGL/GUI/lvgl/src/core/lv_obj_scroll.c ****         scroll_by_raw(obj, dx, dy);
 1548              		.loc 1 349 9 is_stmt 1 view .LVU434
 349:Middlewares/LVGL/GUI/lvgl/src/core/lv_obj_scroll.c ****         scroll_by_raw(obj, dx, dy);
 1549              		.loc 1 349 22 is_stmt 0 view .LVU435
 1550 001e 3C49     		ldr	r1, .L105+4
 1551 0020 2046     		mov	r0, r4
 1552 0022 FFF7FEFF 		bl	lv_anim_del
 1553              	.LVL172:
 1554 0026 8046     		mov	r8, r0
 1555              	.LVL173:
 350:Middlewares/LVGL/GUI/lvgl/src/core/lv_obj_scroll.c ****         if(y_del || x_del) {
 1556              		.loc 1 350 9 is_stmt 1 view .LVU436
 1557 0028 2A46     		mov	r2, r5
 1558 002a 3946     		mov	r1, r7
 1559 002c 2046     		mov	r0, r4
 1560 002e FFF7FEFF 		bl	scroll_by_raw
 1561              	.LVL174:
 351:Middlewares/LVGL/GUI/lvgl/src/core/lv_obj_scroll.c ****             lv_res_t res;
 1562              		.loc 1 351 9 view .LVU437
ARM GAS  C:\Users\ADMINI~1\AppData\Local\Temp\cchMZgMB.s 			page 56


 351:Middlewares/LVGL/GUI/lvgl/src/core/lv_obj_scroll.c ****             lv_res_t res;
 1563              		.loc 1 351 11 is_stmt 0 view .LVU438
 1564 0032 16B9     		cbnz	r6, .L97
 351:Middlewares/LVGL/GUI/lvgl/src/core/lv_obj_scroll.c ****             lv_res_t res;
 1565              		.loc 1 351 18 discriminator 1 view .LVU439
 1566 0034 B8F1000F 		cmp	r8, #0
 1567 0038 04D0     		beq	.L88
 1568              	.L97:
 1569              	.LBB129:
 352:Middlewares/LVGL/GUI/lvgl/src/core/lv_obj_scroll.c ****             res = lv_event_send(obj, LV_EVENT_SCROLL_END, NULL);
 1570              		.loc 1 352 13 is_stmt 1 view .LVU440
 353:Middlewares/LVGL/GUI/lvgl/src/core/lv_obj_scroll.c ****             if(res != LV_RES_OK) return;
 1571              		.loc 1 353 13 view .LVU441
 353:Middlewares/LVGL/GUI/lvgl/src/core/lv_obj_scroll.c ****             if(res != LV_RES_OK) return;
 1572              		.loc 1 353 19 is_stmt 0 view .LVU442
 1573 003a 0022     		movs	r2, #0
 1574 003c 0A21     		movs	r1, #10
 1575 003e 2046     		mov	r0, r4
 1576 0040 FFF7FEFF 		bl	lv_event_send
 1577              	.LVL175:
 354:Middlewares/LVGL/GUI/lvgl/src/core/lv_obj_scroll.c ****         }
 1578              		.loc 1 354 13 is_stmt 1 view .LVU443
 1579              	.L88:
 354:Middlewares/LVGL/GUI/lvgl/src/core/lv_obj_scroll.c ****         }
 1580              		.loc 1 354 13 is_stmt 0 view .LVU444
 1581              	.LBE129:
 1582              	.LBE128:
 357:Middlewares/LVGL/GUI/lvgl/src/core/lv_obj_scroll.c **** 
 1583              		.loc 1 357 1 view .LVU445
 1584 0044 10B0     		add	sp, sp, #64
 1585              	.LCFI14:
 1586              		.cfi_remember_state
 1587              		.cfi_def_cfa_offset 24
 1588              		@ sp needed
 1589 0046 BDE8F081 		pop	{r4, r5, r6, r7, r8, pc}
 1590              	.LVL176:
 1591              	.L103:
 1592              	.LCFI15:
 1593              		.cfi_restore_state
 1594              	.LBB130:
 308:Middlewares/LVGL/GUI/lvgl/src/core/lv_obj_scroll.c ****         lv_anim_t a;
 1595              		.loc 1 308 9 is_stmt 1 view .LVU446
 308:Middlewares/LVGL/GUI/lvgl/src/core/lv_obj_scroll.c ****         lv_anim_t a;
 1596              		.loc 1 308 25 is_stmt 0 view .LVU447
 1597 004a 2046     		mov	r0, r4
 1598              	.LVL177:
 308:Middlewares/LVGL/GUI/lvgl/src/core/lv_obj_scroll.c ****         lv_anim_t a;
 1599              		.loc 1 308 25 view .LVU448
 1600 004c FFF7FEFF 		bl	lv_obj_get_disp
 1601              	.LVL178:
 308:Middlewares/LVGL/GUI/lvgl/src/core/lv_obj_scroll.c ****         lv_anim_t a;
 1602              		.loc 1 308 25 view .LVU449
 1603 0050 0646     		mov	r6, r0
 1604              	.LVL179:
 309:Middlewares/LVGL/GUI/lvgl/src/core/lv_obj_scroll.c ****         lv_anim_init(&a);
 1605              		.loc 1 309 9 is_stmt 1 view .LVU450
 310:Middlewares/LVGL/GUI/lvgl/src/core/lv_obj_scroll.c ****         lv_anim_set_var(&a, obj);
ARM GAS  C:\Users\ADMINI~1\AppData\Local\Temp\cchMZgMB.s 			page 57


 1606              		.loc 1 310 9 view .LVU451
 1607 0052 6846     		mov	r0, sp
 1608              	.LVL180:
 310:Middlewares/LVGL/GUI/lvgl/src/core/lv_obj_scroll.c ****         lv_anim_set_var(&a, obj);
 1609              		.loc 1 310 9 is_stmt 0 view .LVU452
 1610 0054 FFF7FEFF 		bl	lv_anim_init
 1611              	.LVL181:
 311:Middlewares/LVGL/GUI/lvgl/src/core/lv_obj_scroll.c ****         lv_anim_set_ready_cb(&a, scroll_anim_ready_cb);
 1612              		.loc 1 311 9 is_stmt 1 view .LVU453
 1613              	.LBB131:
 1614              	.LBI131:
 1615              		.file 3 "Middlewares/LVGL/GUI/lvgl/src/core/../misc/lv_anim.h"
   1:Middlewares/LVGL/GUI/lvgl/src/core/../misc/lv_anim.h **** /**
   2:Middlewares/LVGL/GUI/lvgl/src/core/../misc/lv_anim.h ****  * @file lv_anim.h
   3:Middlewares/LVGL/GUI/lvgl/src/core/../misc/lv_anim.h ****  *
   4:Middlewares/LVGL/GUI/lvgl/src/core/../misc/lv_anim.h ****  */
   5:Middlewares/LVGL/GUI/lvgl/src/core/../misc/lv_anim.h **** 
   6:Middlewares/LVGL/GUI/lvgl/src/core/../misc/lv_anim.h **** #ifndef LV_ANIM_H
   7:Middlewares/LVGL/GUI/lvgl/src/core/../misc/lv_anim.h **** #define LV_ANIM_H
   8:Middlewares/LVGL/GUI/lvgl/src/core/../misc/lv_anim.h **** 
   9:Middlewares/LVGL/GUI/lvgl/src/core/../misc/lv_anim.h **** #ifdef __cplusplus
  10:Middlewares/LVGL/GUI/lvgl/src/core/../misc/lv_anim.h **** extern "C" {
  11:Middlewares/LVGL/GUI/lvgl/src/core/../misc/lv_anim.h **** #endif
  12:Middlewares/LVGL/GUI/lvgl/src/core/../misc/lv_anim.h **** 
  13:Middlewares/LVGL/GUI/lvgl/src/core/../misc/lv_anim.h **** /*********************
  14:Middlewares/LVGL/GUI/lvgl/src/core/../misc/lv_anim.h ****  *      INCLUDES
  15:Middlewares/LVGL/GUI/lvgl/src/core/../misc/lv_anim.h ****  *********************/
  16:Middlewares/LVGL/GUI/lvgl/src/core/../misc/lv_anim.h **** #include "../lv_conf_internal.h"
  17:Middlewares/LVGL/GUI/lvgl/src/core/../misc/lv_anim.h **** 
  18:Middlewares/LVGL/GUI/lvgl/src/core/../misc/lv_anim.h **** #include <stdint.h>
  19:Middlewares/LVGL/GUI/lvgl/src/core/../misc/lv_anim.h **** #include <stdbool.h>
  20:Middlewares/LVGL/GUI/lvgl/src/core/../misc/lv_anim.h **** #include <stddef.h>
  21:Middlewares/LVGL/GUI/lvgl/src/core/../misc/lv_anim.h **** 
  22:Middlewares/LVGL/GUI/lvgl/src/core/../misc/lv_anim.h **** /*********************
  23:Middlewares/LVGL/GUI/lvgl/src/core/../misc/lv_anim.h ****  *      DEFINES
  24:Middlewares/LVGL/GUI/lvgl/src/core/../misc/lv_anim.h ****  *********************/
  25:Middlewares/LVGL/GUI/lvgl/src/core/../misc/lv_anim.h **** 
  26:Middlewares/LVGL/GUI/lvgl/src/core/../misc/lv_anim.h **** #define LV_ANIM_REPEAT_INFINITE      0xFFFF
  27:Middlewares/LVGL/GUI/lvgl/src/core/../misc/lv_anim.h **** #define LV_ANIM_PLAYTIME_INFINITE    0xFFFFFFFF
  28:Middlewares/LVGL/GUI/lvgl/src/core/../misc/lv_anim.h **** 
  29:Middlewares/LVGL/GUI/lvgl/src/core/../misc/lv_anim.h **** LV_EXPORT_CONST_INT(LV_ANIM_REPEAT_INFINITE);
  30:Middlewares/LVGL/GUI/lvgl/src/core/../misc/lv_anim.h **** LV_EXPORT_CONST_INT(LV_ANIM_PLAYTIME_INFINITE);
  31:Middlewares/LVGL/GUI/lvgl/src/core/../misc/lv_anim.h **** 
  32:Middlewares/LVGL/GUI/lvgl/src/core/../misc/lv_anim.h **** /**********************
  33:Middlewares/LVGL/GUI/lvgl/src/core/../misc/lv_anim.h ****  *      TYPEDEFS
  34:Middlewares/LVGL/GUI/lvgl/src/core/../misc/lv_anim.h ****  **********************/
  35:Middlewares/LVGL/GUI/lvgl/src/core/../misc/lv_anim.h **** 
  36:Middlewares/LVGL/GUI/lvgl/src/core/../misc/lv_anim.h **** /** Can be used to indicate if animations are enabled or disabled in a case*/
  37:Middlewares/LVGL/GUI/lvgl/src/core/../misc/lv_anim.h **** typedef enum {
  38:Middlewares/LVGL/GUI/lvgl/src/core/../misc/lv_anim.h ****     LV_ANIM_OFF,
  39:Middlewares/LVGL/GUI/lvgl/src/core/../misc/lv_anim.h ****     LV_ANIM_ON,
  40:Middlewares/LVGL/GUI/lvgl/src/core/../misc/lv_anim.h **** } lv_anim_enable_t;
  41:Middlewares/LVGL/GUI/lvgl/src/core/../misc/lv_anim.h **** 
  42:Middlewares/LVGL/GUI/lvgl/src/core/../misc/lv_anim.h **** struct _lv_anim_t;
  43:Middlewares/LVGL/GUI/lvgl/src/core/../misc/lv_anim.h **** 
  44:Middlewares/LVGL/GUI/lvgl/src/core/../misc/lv_anim.h **** /** Get the current value during an animation*/
  45:Middlewares/LVGL/GUI/lvgl/src/core/../misc/lv_anim.h **** typedef int32_t (*lv_anim_path_cb_t)(const struct _lv_anim_t *);
ARM GAS  C:\Users\ADMINI~1\AppData\Local\Temp\cchMZgMB.s 			page 58


  46:Middlewares/LVGL/GUI/lvgl/src/core/../misc/lv_anim.h **** 
  47:Middlewares/LVGL/GUI/lvgl/src/core/../misc/lv_anim.h **** /** Generic prototype of "animator" functions.
  48:Middlewares/LVGL/GUI/lvgl/src/core/../misc/lv_anim.h ****  * First parameter is the variable to animate.
  49:Middlewares/LVGL/GUI/lvgl/src/core/../misc/lv_anim.h ****  * Second parameter is the value to set.
  50:Middlewares/LVGL/GUI/lvgl/src/core/../misc/lv_anim.h ****  * Compatible with `lv_xxx_set_yyy(obj, value)` functions
  51:Middlewares/LVGL/GUI/lvgl/src/core/../misc/lv_anim.h ****  * The `x` in `_xcb_t` means it's not a fully generic prototype because
  52:Middlewares/LVGL/GUI/lvgl/src/core/../misc/lv_anim.h ****  * it doesn't receive `lv_anim_t *` as its first argument*/
  53:Middlewares/LVGL/GUI/lvgl/src/core/../misc/lv_anim.h **** typedef void (*lv_anim_exec_xcb_t)(void *, int32_t);
  54:Middlewares/LVGL/GUI/lvgl/src/core/../misc/lv_anim.h **** 
  55:Middlewares/LVGL/GUI/lvgl/src/core/../misc/lv_anim.h **** /** Same as `lv_anim_exec_xcb_t` but receives `lv_anim_t *` as the first parameter.
  56:Middlewares/LVGL/GUI/lvgl/src/core/../misc/lv_anim.h ****  * It's more consistent but less convenient. Might be used by binding generator functions.*/
  57:Middlewares/LVGL/GUI/lvgl/src/core/../misc/lv_anim.h **** typedef void (*lv_anim_custom_exec_cb_t)(struct _lv_anim_t *, int32_t);
  58:Middlewares/LVGL/GUI/lvgl/src/core/../misc/lv_anim.h **** 
  59:Middlewares/LVGL/GUI/lvgl/src/core/../misc/lv_anim.h **** /** Callback to call when the animation is ready*/
  60:Middlewares/LVGL/GUI/lvgl/src/core/../misc/lv_anim.h **** typedef void (*lv_anim_ready_cb_t)(struct _lv_anim_t *);
  61:Middlewares/LVGL/GUI/lvgl/src/core/../misc/lv_anim.h **** 
  62:Middlewares/LVGL/GUI/lvgl/src/core/../misc/lv_anim.h **** /** Callback to call when the animation really stars (considering `delay`)*/
  63:Middlewares/LVGL/GUI/lvgl/src/core/../misc/lv_anim.h **** typedef void (*lv_anim_start_cb_t)(struct _lv_anim_t *);
  64:Middlewares/LVGL/GUI/lvgl/src/core/../misc/lv_anim.h **** 
  65:Middlewares/LVGL/GUI/lvgl/src/core/../misc/lv_anim.h **** /** Callback used when the animation values are relative to get the current value*/
  66:Middlewares/LVGL/GUI/lvgl/src/core/../misc/lv_anim.h **** typedef int32_t (*lv_anim_get_value_cb_t)(struct _lv_anim_t *);
  67:Middlewares/LVGL/GUI/lvgl/src/core/../misc/lv_anim.h **** 
  68:Middlewares/LVGL/GUI/lvgl/src/core/../misc/lv_anim.h **** /** Describes an animation*/
  69:Middlewares/LVGL/GUI/lvgl/src/core/../misc/lv_anim.h **** typedef struct _lv_anim_t {
  70:Middlewares/LVGL/GUI/lvgl/src/core/../misc/lv_anim.h ****     void * var;                          /**<Variable to animate*/
  71:Middlewares/LVGL/GUI/lvgl/src/core/../misc/lv_anim.h ****     lv_anim_exec_xcb_t exec_cb;          /**< Function to execute to animate*/
  72:Middlewares/LVGL/GUI/lvgl/src/core/../misc/lv_anim.h ****     lv_anim_start_cb_t start_cb;         /**< Call it when the animation is starts (considering `de
  73:Middlewares/LVGL/GUI/lvgl/src/core/../misc/lv_anim.h ****     lv_anim_ready_cb_t ready_cb;         /**< Call it when the animation is ready*/
  74:Middlewares/LVGL/GUI/lvgl/src/core/../misc/lv_anim.h ****     lv_anim_get_value_cb_t get_value_cb; /**< Get the current value in relative mode*/
  75:Middlewares/LVGL/GUI/lvgl/src/core/../misc/lv_anim.h **** #if LV_USE_USER_DATA
  76:Middlewares/LVGL/GUI/lvgl/src/core/../misc/lv_anim.h ****     void * user_data; /**< Custom user data*/
  77:Middlewares/LVGL/GUI/lvgl/src/core/../misc/lv_anim.h **** #endif
  78:Middlewares/LVGL/GUI/lvgl/src/core/../misc/lv_anim.h ****     lv_anim_path_cb_t path_cb;         /**< Describe the path (curve) of animations*/
  79:Middlewares/LVGL/GUI/lvgl/src/core/../misc/lv_anim.h ****     int32_t start_value;               /**< Start value*/
  80:Middlewares/LVGL/GUI/lvgl/src/core/../misc/lv_anim.h ****     int32_t current_value;             /**< Current value*/
  81:Middlewares/LVGL/GUI/lvgl/src/core/../misc/lv_anim.h ****     int32_t end_value;                 /**< End value*/
  82:Middlewares/LVGL/GUI/lvgl/src/core/../misc/lv_anim.h ****     int32_t time;                /**< Animation time in ms*/
  83:Middlewares/LVGL/GUI/lvgl/src/core/../misc/lv_anim.h ****     int32_t act_time;            /**< Current time in animation. Set to negative to make delay.*/
  84:Middlewares/LVGL/GUI/lvgl/src/core/../misc/lv_anim.h ****     uint32_t playback_delay;     /**< Wait before play back*/
  85:Middlewares/LVGL/GUI/lvgl/src/core/../misc/lv_anim.h ****     uint32_t playback_time;      /**< Duration of playback animation*/
  86:Middlewares/LVGL/GUI/lvgl/src/core/../misc/lv_anim.h ****     uint32_t repeat_delay;       /**< Wait before repeat*/
  87:Middlewares/LVGL/GUI/lvgl/src/core/../misc/lv_anim.h ****     uint16_t repeat_cnt;         /**< Repeat count for the animation*/
  88:Middlewares/LVGL/GUI/lvgl/src/core/../misc/lv_anim.h ****     uint8_t early_apply  : 1;    /**< 1: Apply start value immediately even is there is `delay`*/
  89:Middlewares/LVGL/GUI/lvgl/src/core/../misc/lv_anim.h **** 
  90:Middlewares/LVGL/GUI/lvgl/src/core/../misc/lv_anim.h ****     /*Animation system use these - user shouldn't set*/
  91:Middlewares/LVGL/GUI/lvgl/src/core/../misc/lv_anim.h ****     uint8_t playback_now : 1; /**< Play back is in progress*/
  92:Middlewares/LVGL/GUI/lvgl/src/core/../misc/lv_anim.h ****     uint8_t run_round : 1;    /**< Indicates the animation has run in this round*/
  93:Middlewares/LVGL/GUI/lvgl/src/core/../misc/lv_anim.h ****     uint8_t start_cb_called : 1;    /**< Indicates that the `start_cb` was already called*/
  94:Middlewares/LVGL/GUI/lvgl/src/core/../misc/lv_anim.h **** } lv_anim_t;
  95:Middlewares/LVGL/GUI/lvgl/src/core/../misc/lv_anim.h **** 
  96:Middlewares/LVGL/GUI/lvgl/src/core/../misc/lv_anim.h **** /**********************
  97:Middlewares/LVGL/GUI/lvgl/src/core/../misc/lv_anim.h ****  * GLOBAL PROTOTYPES
  98:Middlewares/LVGL/GUI/lvgl/src/core/../misc/lv_anim.h ****  **********************/
  99:Middlewares/LVGL/GUI/lvgl/src/core/../misc/lv_anim.h **** 
 100:Middlewares/LVGL/GUI/lvgl/src/core/../misc/lv_anim.h **** /**
 101:Middlewares/LVGL/GUI/lvgl/src/core/../misc/lv_anim.h ****  * Init. the animation module
 102:Middlewares/LVGL/GUI/lvgl/src/core/../misc/lv_anim.h ****  */
ARM GAS  C:\Users\ADMINI~1\AppData\Local\Temp\cchMZgMB.s 			page 59


 103:Middlewares/LVGL/GUI/lvgl/src/core/../misc/lv_anim.h **** void _lv_anim_core_init(void);
 104:Middlewares/LVGL/GUI/lvgl/src/core/../misc/lv_anim.h **** 
 105:Middlewares/LVGL/GUI/lvgl/src/core/../misc/lv_anim.h **** /**
 106:Middlewares/LVGL/GUI/lvgl/src/core/../misc/lv_anim.h ****  * Initialize an animation variable.
 107:Middlewares/LVGL/GUI/lvgl/src/core/../misc/lv_anim.h ****  * E.g.:
 108:Middlewares/LVGL/GUI/lvgl/src/core/../misc/lv_anim.h ****  * lv_anim_t a;
 109:Middlewares/LVGL/GUI/lvgl/src/core/../misc/lv_anim.h ****  * lv_anim_init(&a);
 110:Middlewares/LVGL/GUI/lvgl/src/core/../misc/lv_anim.h ****  * lv_anim_set_...(&a);
 111:Middlewares/LVGL/GUI/lvgl/src/core/../misc/lv_anim.h ****  * lv_anim_start(&a);
 112:Middlewares/LVGL/GUI/lvgl/src/core/../misc/lv_anim.h ****  * @param a     pointer to an `lv_anim_t` variable to initialize
 113:Middlewares/LVGL/GUI/lvgl/src/core/../misc/lv_anim.h ****  */
 114:Middlewares/LVGL/GUI/lvgl/src/core/../misc/lv_anim.h **** void lv_anim_init(lv_anim_t * a);
 115:Middlewares/LVGL/GUI/lvgl/src/core/../misc/lv_anim.h **** 
 116:Middlewares/LVGL/GUI/lvgl/src/core/../misc/lv_anim.h **** /**
 117:Middlewares/LVGL/GUI/lvgl/src/core/../misc/lv_anim.h ****  * Set a variable to animate
 118:Middlewares/LVGL/GUI/lvgl/src/core/../misc/lv_anim.h ****  * @param a     pointer to an initialized `lv_anim_t` variable
 119:Middlewares/LVGL/GUI/lvgl/src/core/../misc/lv_anim.h ****  * @param var   pointer to a variable to animate
 120:Middlewares/LVGL/GUI/lvgl/src/core/../misc/lv_anim.h ****  */
 121:Middlewares/LVGL/GUI/lvgl/src/core/../misc/lv_anim.h **** static inline void lv_anim_set_var(lv_anim_t * a, void * var)
 1616              		.loc 3 121 20 view .LVU454
 1617              	.LBB132:
 122:Middlewares/LVGL/GUI/lvgl/src/core/../misc/lv_anim.h **** {
 123:Middlewares/LVGL/GUI/lvgl/src/core/../misc/lv_anim.h ****     a->var = var;
 1618              		.loc 3 123 5 view .LVU455
 1619              		.loc 3 123 12 is_stmt 0 view .LVU456
 1620 0058 0094     		str	r4, [sp]
 1621              	.LVL182:
 1622              		.loc 3 123 12 view .LVU457
 1623              	.LBE132:
 1624              	.LBE131:
 312:Middlewares/LVGL/GUI/lvgl/src/core/lv_obj_scroll.c **** 
 1625              		.loc 1 312 9 is_stmt 1 view .LVU458
 1626              	.LBB133:
 1627              	.LBI133:
 124:Middlewares/LVGL/GUI/lvgl/src/core/../misc/lv_anim.h **** }
 125:Middlewares/LVGL/GUI/lvgl/src/core/../misc/lv_anim.h **** 
 126:Middlewares/LVGL/GUI/lvgl/src/core/../misc/lv_anim.h **** /**
 127:Middlewares/LVGL/GUI/lvgl/src/core/../misc/lv_anim.h ****  * Set a function to animate `var`
 128:Middlewares/LVGL/GUI/lvgl/src/core/../misc/lv_anim.h ****  * @param a         pointer to an initialized `lv_anim_t` variable
 129:Middlewares/LVGL/GUI/lvgl/src/core/../misc/lv_anim.h ****  * @param exec_cb   a function to execute during animation
 130:Middlewares/LVGL/GUI/lvgl/src/core/../misc/lv_anim.h ****  *                  LVGL's built-in functions can be used.
 131:Middlewares/LVGL/GUI/lvgl/src/core/../misc/lv_anim.h ****  *                  E.g. lv_obj_set_x
 132:Middlewares/LVGL/GUI/lvgl/src/core/../misc/lv_anim.h ****  */
 133:Middlewares/LVGL/GUI/lvgl/src/core/../misc/lv_anim.h **** static inline void lv_anim_set_exec_cb(lv_anim_t * a, lv_anim_exec_xcb_t exec_cb)
 134:Middlewares/LVGL/GUI/lvgl/src/core/../misc/lv_anim.h **** {
 135:Middlewares/LVGL/GUI/lvgl/src/core/../misc/lv_anim.h ****     a->exec_cb = exec_cb;
 136:Middlewares/LVGL/GUI/lvgl/src/core/../misc/lv_anim.h **** }
 137:Middlewares/LVGL/GUI/lvgl/src/core/../misc/lv_anim.h **** 
 138:Middlewares/LVGL/GUI/lvgl/src/core/../misc/lv_anim.h **** /**
 139:Middlewares/LVGL/GUI/lvgl/src/core/../misc/lv_anim.h ****  * Set the duration of an animation
 140:Middlewares/LVGL/GUI/lvgl/src/core/../misc/lv_anim.h ****  * @param a         pointer to an initialized `lv_anim_t` variable
 141:Middlewares/LVGL/GUI/lvgl/src/core/../misc/lv_anim.h ****  * @param duration  duration of the animation in milliseconds
 142:Middlewares/LVGL/GUI/lvgl/src/core/../misc/lv_anim.h ****  */
 143:Middlewares/LVGL/GUI/lvgl/src/core/../misc/lv_anim.h **** static inline void lv_anim_set_time(lv_anim_t * a, uint32_t duration)
 144:Middlewares/LVGL/GUI/lvgl/src/core/../misc/lv_anim.h **** {
 145:Middlewares/LVGL/GUI/lvgl/src/core/../misc/lv_anim.h ****     a->time = duration;
 146:Middlewares/LVGL/GUI/lvgl/src/core/../misc/lv_anim.h **** }
ARM GAS  C:\Users\ADMINI~1\AppData\Local\Temp\cchMZgMB.s 			page 60


 147:Middlewares/LVGL/GUI/lvgl/src/core/../misc/lv_anim.h **** 
 148:Middlewares/LVGL/GUI/lvgl/src/core/../misc/lv_anim.h **** /**
 149:Middlewares/LVGL/GUI/lvgl/src/core/../misc/lv_anim.h ****  * Set a delay before starting the animation
 150:Middlewares/LVGL/GUI/lvgl/src/core/../misc/lv_anim.h ****  * @param a         pointer to an initialized `lv_anim_t` variable
 151:Middlewares/LVGL/GUI/lvgl/src/core/../misc/lv_anim.h ****  * @param delay     delay before the animation in milliseconds
 152:Middlewares/LVGL/GUI/lvgl/src/core/../misc/lv_anim.h ****  */
 153:Middlewares/LVGL/GUI/lvgl/src/core/../misc/lv_anim.h **** static inline void lv_anim_set_delay(lv_anim_t * a, uint32_t delay)
 154:Middlewares/LVGL/GUI/lvgl/src/core/../misc/lv_anim.h **** {
 155:Middlewares/LVGL/GUI/lvgl/src/core/../misc/lv_anim.h ****     a->act_time = -(int32_t)(delay);
 156:Middlewares/LVGL/GUI/lvgl/src/core/../misc/lv_anim.h **** }
 157:Middlewares/LVGL/GUI/lvgl/src/core/../misc/lv_anim.h **** 
 158:Middlewares/LVGL/GUI/lvgl/src/core/../misc/lv_anim.h **** /**
 159:Middlewares/LVGL/GUI/lvgl/src/core/../misc/lv_anim.h ****  * Set the start and end values of an animation
 160:Middlewares/LVGL/GUI/lvgl/src/core/../misc/lv_anim.h ****  * @param a         pointer to an initialized `lv_anim_t` variable
 161:Middlewares/LVGL/GUI/lvgl/src/core/../misc/lv_anim.h ****  * @param start     the start value
 162:Middlewares/LVGL/GUI/lvgl/src/core/../misc/lv_anim.h ****  * @param end       the end value
 163:Middlewares/LVGL/GUI/lvgl/src/core/../misc/lv_anim.h ****  */
 164:Middlewares/LVGL/GUI/lvgl/src/core/../misc/lv_anim.h **** static inline void lv_anim_set_values(lv_anim_t * a, int32_t start, int32_t end)
 165:Middlewares/LVGL/GUI/lvgl/src/core/../misc/lv_anim.h **** {
 166:Middlewares/LVGL/GUI/lvgl/src/core/../misc/lv_anim.h ****     a->start_value = start;
 167:Middlewares/LVGL/GUI/lvgl/src/core/../misc/lv_anim.h ****     a->current_value = start;
 168:Middlewares/LVGL/GUI/lvgl/src/core/../misc/lv_anim.h ****     a->end_value = end;
 169:Middlewares/LVGL/GUI/lvgl/src/core/../misc/lv_anim.h **** }
 170:Middlewares/LVGL/GUI/lvgl/src/core/../misc/lv_anim.h **** 
 171:Middlewares/LVGL/GUI/lvgl/src/core/../misc/lv_anim.h **** /**
 172:Middlewares/LVGL/GUI/lvgl/src/core/../misc/lv_anim.h ****  * Similar to `lv_anim_set_exec_cb` but `lv_anim_custom_exec_cb_t` receives
 173:Middlewares/LVGL/GUI/lvgl/src/core/../misc/lv_anim.h ****  * `lv_anim_t * ` as its first parameter instead of `void *`.
 174:Middlewares/LVGL/GUI/lvgl/src/core/../misc/lv_anim.h ****  * This function might be used when LVGL is bound to other languages because
 175:Middlewares/LVGL/GUI/lvgl/src/core/../misc/lv_anim.h ****  * it's more consistent to have `lv_anim_t *` as first parameter.
 176:Middlewares/LVGL/GUI/lvgl/src/core/../misc/lv_anim.h ****  * The variable to animate can be stored in the animation's `user_data`
 177:Middlewares/LVGL/GUI/lvgl/src/core/../misc/lv_anim.h ****  * @param a         pointer to an initialized `lv_anim_t` variable
 178:Middlewares/LVGL/GUI/lvgl/src/core/../misc/lv_anim.h ****  * @param exec_cb   a function to execute.
 179:Middlewares/LVGL/GUI/lvgl/src/core/../misc/lv_anim.h ****  */
 180:Middlewares/LVGL/GUI/lvgl/src/core/../misc/lv_anim.h **** static inline void lv_anim_set_custom_exec_cb(lv_anim_t * a, lv_anim_custom_exec_cb_t exec_cb)
 181:Middlewares/LVGL/GUI/lvgl/src/core/../misc/lv_anim.h **** {
 182:Middlewares/LVGL/GUI/lvgl/src/core/../misc/lv_anim.h ****     a->var     = a;
 183:Middlewares/LVGL/GUI/lvgl/src/core/../misc/lv_anim.h ****     a->exec_cb = (lv_anim_exec_xcb_t)exec_cb;
 184:Middlewares/LVGL/GUI/lvgl/src/core/../misc/lv_anim.h **** }
 185:Middlewares/LVGL/GUI/lvgl/src/core/../misc/lv_anim.h **** 
 186:Middlewares/LVGL/GUI/lvgl/src/core/../misc/lv_anim.h **** /**
 187:Middlewares/LVGL/GUI/lvgl/src/core/../misc/lv_anim.h ****  * Set the path (curve) of the animation.
 188:Middlewares/LVGL/GUI/lvgl/src/core/../misc/lv_anim.h ****  * @param a         pointer to an initialized `lv_anim_t` variable
 189:Middlewares/LVGL/GUI/lvgl/src/core/../misc/lv_anim.h ****  * @param path_cb a function to set the current value of the animation.
 190:Middlewares/LVGL/GUI/lvgl/src/core/../misc/lv_anim.h ****  */
 191:Middlewares/LVGL/GUI/lvgl/src/core/../misc/lv_anim.h **** static inline void lv_anim_set_path_cb(lv_anim_t * a, lv_anim_path_cb_t path_cb)
 192:Middlewares/LVGL/GUI/lvgl/src/core/../misc/lv_anim.h **** {
 193:Middlewares/LVGL/GUI/lvgl/src/core/../misc/lv_anim.h ****     a->path_cb = path_cb;
 194:Middlewares/LVGL/GUI/lvgl/src/core/../misc/lv_anim.h **** }
 195:Middlewares/LVGL/GUI/lvgl/src/core/../misc/lv_anim.h **** 
 196:Middlewares/LVGL/GUI/lvgl/src/core/../misc/lv_anim.h **** /**
 197:Middlewares/LVGL/GUI/lvgl/src/core/../misc/lv_anim.h ****  * Set a function call when the animation really starts (considering `delay`)
 198:Middlewares/LVGL/GUI/lvgl/src/core/../misc/lv_anim.h ****  * @param a         pointer to an initialized `lv_anim_t` variable
 199:Middlewares/LVGL/GUI/lvgl/src/core/../misc/lv_anim.h ****  * @param start_cb  a function call when the animation starts
 200:Middlewares/LVGL/GUI/lvgl/src/core/../misc/lv_anim.h ****  */
 201:Middlewares/LVGL/GUI/lvgl/src/core/../misc/lv_anim.h **** static inline void lv_anim_set_start_cb(lv_anim_t * a, lv_anim_start_cb_t start_cb)
 202:Middlewares/LVGL/GUI/lvgl/src/core/../misc/lv_anim.h **** {
 203:Middlewares/LVGL/GUI/lvgl/src/core/../misc/lv_anim.h ****     a->start_cb = start_cb;
ARM GAS  C:\Users\ADMINI~1\AppData\Local\Temp\cchMZgMB.s 			page 61


 204:Middlewares/LVGL/GUI/lvgl/src/core/../misc/lv_anim.h **** }
 205:Middlewares/LVGL/GUI/lvgl/src/core/../misc/lv_anim.h **** 
 206:Middlewares/LVGL/GUI/lvgl/src/core/../misc/lv_anim.h **** /**
 207:Middlewares/LVGL/GUI/lvgl/src/core/../misc/lv_anim.h ****  * Set a function to use the current value of the variable and make start and end value
 208:Middlewares/LVGL/GUI/lvgl/src/core/../misc/lv_anim.h ****  * relative to the returned current value.
 209:Middlewares/LVGL/GUI/lvgl/src/core/../misc/lv_anim.h ****  * @param a             pointer to an initialized `lv_anim_t` variable
 210:Middlewares/LVGL/GUI/lvgl/src/core/../misc/lv_anim.h ****  * @param get_value_cb  a function call when the animation starts
 211:Middlewares/LVGL/GUI/lvgl/src/core/../misc/lv_anim.h ****  */
 212:Middlewares/LVGL/GUI/lvgl/src/core/../misc/lv_anim.h **** static inline void lv_anim_set_get_value_cb(lv_anim_t * a, lv_anim_get_value_cb_t get_value_cb)
 213:Middlewares/LVGL/GUI/lvgl/src/core/../misc/lv_anim.h **** {
 214:Middlewares/LVGL/GUI/lvgl/src/core/../misc/lv_anim.h ****     a->get_value_cb = get_value_cb;
 215:Middlewares/LVGL/GUI/lvgl/src/core/../misc/lv_anim.h **** }
 216:Middlewares/LVGL/GUI/lvgl/src/core/../misc/lv_anim.h **** 
 217:Middlewares/LVGL/GUI/lvgl/src/core/../misc/lv_anim.h **** /**
 218:Middlewares/LVGL/GUI/lvgl/src/core/../misc/lv_anim.h ****  * Set a function call when the animation is ready
 219:Middlewares/LVGL/GUI/lvgl/src/core/../misc/lv_anim.h ****  * @param a         pointer to an initialized `lv_anim_t` variable
 220:Middlewares/LVGL/GUI/lvgl/src/core/../misc/lv_anim.h ****  * @param ready_cb  a function call when the animation is ready
 221:Middlewares/LVGL/GUI/lvgl/src/core/../misc/lv_anim.h ****  */
 222:Middlewares/LVGL/GUI/lvgl/src/core/../misc/lv_anim.h **** static inline void lv_anim_set_ready_cb(lv_anim_t * a, lv_anim_ready_cb_t ready_cb)
 1628              		.loc 3 222 20 view .LVU459
 1629              	.LBB134:
 223:Middlewares/LVGL/GUI/lvgl/src/core/../misc/lv_anim.h **** {
 224:Middlewares/LVGL/GUI/lvgl/src/core/../misc/lv_anim.h ****     a->ready_cb = ready_cb;
 1630              		.loc 3 224 5 view .LVU460
 1631              		.loc 3 224 17 is_stmt 0 view .LVU461
 1632 005a 2E4B     		ldr	r3, .L105+8
 1633 005c 0393     		str	r3, [sp, #12]
 1634              	.LVL183:
 1635              		.loc 3 224 17 view .LVU462
 1636              	.LBE134:
 1637              	.LBE133:
 314:Middlewares/LVGL/GUI/lvgl/src/core/lv_obj_scroll.c ****             uint32_t t = lv_anim_speed_to_time((lv_disp_get_hor_res(d) * 2) >> 2, 0, dx);
 1638              		.loc 1 314 9 is_stmt 1 view .LVU463
 314:Middlewares/LVGL/GUI/lvgl/src/core/lv_obj_scroll.c ****             uint32_t t = lv_anim_speed_to_time((lv_disp_get_hor_res(d) * 2) >> 2, 0, dx);
 1639              		.loc 1 314 11 is_stmt 0 view .LVU464
 1640 005e 97B9     		cbnz	r7, .L104
 1641              	.L92:
 330:Middlewares/LVGL/GUI/lvgl/src/core/lv_obj_scroll.c ****             uint32_t t = lv_anim_speed_to_time((lv_disp_get_ver_res(d) * 2) >> 2, 0, dy);
 1642              		.loc 1 330 9 is_stmt 1 view .LVU465
 330:Middlewares/LVGL/GUI/lvgl/src/core/lv_obj_scroll.c ****             uint32_t t = lv_anim_speed_to_time((lv_disp_get_ver_res(d) * 2) >> 2, 0, dy);
 1643              		.loc 1 330 11 is_stmt 0 view .LVU466
 1644 0060 002D     		cmp	r5, #0
 1645 0062 EFD0     		beq	.L88
 1646              	.LBB135:
 331:Middlewares/LVGL/GUI/lvgl/src/core/lv_obj_scroll.c ****             if(t < SCROLL_ANIM_TIME_MIN) t = SCROLL_ANIM_TIME_MIN;
 1647              		.loc 1 331 13 is_stmt 1 view .LVU467
 331:Middlewares/LVGL/GUI/lvgl/src/core/lv_obj_scroll.c ****             if(t < SCROLL_ANIM_TIME_MIN) t = SCROLL_ANIM_TIME_MIN;
 1648              		.loc 1 331 49 is_stmt 0 view .LVU468
 1649 0064 3046     		mov	r0, r6
 1650 0066 FFF7FEFF 		bl	lv_disp_get_ver_res
 1651              	.LVL184:
 331:Middlewares/LVGL/GUI/lvgl/src/core/lv_obj_scroll.c ****             if(t < SCROLL_ANIM_TIME_MIN) t = SCROLL_ANIM_TIME_MIN;
 1652              		.loc 1 331 26 view .LVU469
 1653 006a 2A46     		mov	r2, r5
 1654 006c 0021     		movs	r1, #0
 1655 006e 40F35D00 		sbfx	r0, r0, #1, #30
 1656 0072 FFF7FEFF 		bl	lv_anim_speed_to_time
ARM GAS  C:\Users\ADMINI~1\AppData\Local\Temp\cchMZgMB.s 			page 62


 1657              	.LVL185:
 332:Middlewares/LVGL/GUI/lvgl/src/core/lv_obj_scroll.c ****             if(t > SCROLL_ANIM_TIME_MAX) t = SCROLL_ANIM_TIME_MAX;
 1658              		.loc 1 332 13 is_stmt 1 view .LVU470
 332:Middlewares/LVGL/GUI/lvgl/src/core/lv_obj_scroll.c ****             if(t > SCROLL_ANIM_TIME_MAX) t = SCROLL_ANIM_TIME_MAX;
 1659              		.loc 1 332 15 is_stmt 0 view .LVU471
 1660 0076 C728     		cmp	r0, #199
 1661 0078 2FD9     		bls	.L100
 333:Middlewares/LVGL/GUI/lvgl/src/core/lv_obj_scroll.c ****             lv_anim_set_time(&a, t);
 1662              		.loc 1 333 13 is_stmt 1 view .LVU472
 333:Middlewares/LVGL/GUI/lvgl/src/core/lv_obj_scroll.c ****             lv_anim_set_time(&a, t);
 1663              		.loc 1 333 15 is_stmt 0 view .LVU473
 1664 007a B0F5C87F 		cmp	r0, #400
 1665 007e 2DD9     		bls	.L96
 333:Middlewares/LVGL/GUI/lvgl/src/core/lv_obj_scroll.c ****             lv_anim_set_time(&a, t);
 1666              		.loc 1 333 44 view .LVU474
 1667 0080 4FF4C870 		mov	r0, #400
 1668              	.LVL186:
 333:Middlewares/LVGL/GUI/lvgl/src/core/lv_obj_scroll.c ****             lv_anim_set_time(&a, t);
 1669              		.loc 1 333 44 view .LVU475
 1670 0084 2AE0     		b	.L96
 1671              	.L104:
 333:Middlewares/LVGL/GUI/lvgl/src/core/lv_obj_scroll.c ****             lv_anim_set_time(&a, t);
 1672              		.loc 1 333 44 view .LVU476
 1673              	.LBE135:
 1674              	.LBB144:
 315:Middlewares/LVGL/GUI/lvgl/src/core/lv_obj_scroll.c ****             if(t < SCROLL_ANIM_TIME_MIN) t = SCROLL_ANIM_TIME_MIN;
 1675              		.loc 1 315 13 is_stmt 1 view .LVU477
 315:Middlewares/LVGL/GUI/lvgl/src/core/lv_obj_scroll.c ****             if(t < SCROLL_ANIM_TIME_MIN) t = SCROLL_ANIM_TIME_MIN;
 1676              		.loc 1 315 49 is_stmt 0 view .LVU478
 1677 0086 3046     		mov	r0, r6
 1678 0088 FFF7FEFF 		bl	lv_disp_get_hor_res
 1679              	.LVL187:
 315:Middlewares/LVGL/GUI/lvgl/src/core/lv_obj_scroll.c ****             if(t < SCROLL_ANIM_TIME_MIN) t = SCROLL_ANIM_TIME_MIN;
 1680              		.loc 1 315 26 view .LVU479
 1681 008c 3A46     		mov	r2, r7
 1682 008e 0021     		movs	r1, #0
 1683 0090 40F35D00 		sbfx	r0, r0, #1, #30
 1684 0094 FFF7FEFF 		bl	lv_anim_speed_to_time
 1685              	.LVL188:
 316:Middlewares/LVGL/GUI/lvgl/src/core/lv_obj_scroll.c ****             if(t > SCROLL_ANIM_TIME_MAX) t = SCROLL_ANIM_TIME_MAX;
 1686              		.loc 1 316 13 is_stmt 1 view .LVU480
 316:Middlewares/LVGL/GUI/lvgl/src/core/lv_obj_scroll.c ****             if(t > SCROLL_ANIM_TIME_MAX) t = SCROLL_ANIM_TIME_MAX;
 1687              		.loc 1 316 15 is_stmt 0 view .LVU481
 1688 0098 C728     		cmp	r0, #199
 1689 009a 05D9     		bls	.L98
 317:Middlewares/LVGL/GUI/lvgl/src/core/lv_obj_scroll.c ****             lv_anim_set_time(&a, t);
 1690              		.loc 1 317 13 is_stmt 1 view .LVU482
 317:Middlewares/LVGL/GUI/lvgl/src/core/lv_obj_scroll.c ****             lv_anim_set_time(&a, t);
 1691              		.loc 1 317 15 is_stmt 0 view .LVU483
 1692 009c B0F5C87F 		cmp	r0, #400
 1693 00a0 03D9     		bls	.L93
 317:Middlewares/LVGL/GUI/lvgl/src/core/lv_obj_scroll.c ****             lv_anim_set_time(&a, t);
 1694              		.loc 1 317 44 view .LVU484
 1695 00a2 4FF4C870 		mov	r0, #400
 1696              	.LVL189:
 317:Middlewares/LVGL/GUI/lvgl/src/core/lv_obj_scroll.c ****             lv_anim_set_time(&a, t);
 1697              		.loc 1 317 44 view .LVU485
ARM GAS  C:\Users\ADMINI~1\AppData\Local\Temp\cchMZgMB.s 			page 63


 1698 00a6 00E0     		b	.L93
 1699              	.LVL190:
 1700              	.L98:
 316:Middlewares/LVGL/GUI/lvgl/src/core/lv_obj_scroll.c ****             if(t > SCROLL_ANIM_TIME_MAX) t = SCROLL_ANIM_TIME_MAX;
 1701              		.loc 1 316 44 view .LVU486
 1702 00a8 C820     		movs	r0, #200
 1703              	.LVL191:
 1704              	.L93:
 318:Middlewares/LVGL/GUI/lvgl/src/core/lv_obj_scroll.c ****             lv_coord_t sx = lv_obj_get_scroll_x(obj);
 1705              		.loc 1 318 13 is_stmt 1 view .LVU487
 1706              	.LBB145:
 1707              	.LBI145:
 143:Middlewares/LVGL/GUI/lvgl/src/core/../misc/lv_anim.h **** {
 1708              		.loc 3 143 20 view .LVU488
 1709              	.LBB146:
 145:Middlewares/LVGL/GUI/lvgl/src/core/../misc/lv_anim.h **** }
 1710              		.loc 3 145 5 view .LVU489
 145:Middlewares/LVGL/GUI/lvgl/src/core/../misc/lv_anim.h **** }
 1711              		.loc 3 145 13 is_stmt 0 view .LVU490
 1712 00aa 0A90     		str	r0, [sp, #40]
 1713              	.LVL192:
 145:Middlewares/LVGL/GUI/lvgl/src/core/../misc/lv_anim.h **** }
 1714              		.loc 3 145 13 view .LVU491
 1715              	.LBE146:
 1716              	.LBE145:
 319:Middlewares/LVGL/GUI/lvgl/src/core/lv_obj_scroll.c ****             lv_anim_set_values(&a, -sx, -sx + dx);
 1717              		.loc 1 319 13 is_stmt 1 view .LVU492
 319:Middlewares/LVGL/GUI/lvgl/src/core/lv_obj_scroll.c ****             lv_anim_set_values(&a, -sx, -sx + dx);
 1718              		.loc 1 319 29 is_stmt 0 view .LVU493
 1719 00ac 2046     		mov	r0, r4
 1720              	.LVL193:
 319:Middlewares/LVGL/GUI/lvgl/src/core/lv_obj_scroll.c ****             lv_anim_set_values(&a, -sx, -sx + dx);
 1721              		.loc 1 319 29 view .LVU494
 1722 00ae FFF7FEFF 		bl	lv_obj_get_scroll_x
 1723              	.LVL194:
 320:Middlewares/LVGL/GUI/lvgl/src/core/lv_obj_scroll.c ****             lv_anim_set_exec_cb(&a, scroll_x_anim);
 1724              		.loc 1 320 13 is_stmt 1 view .LVU495
 1725 00b2 4342     		rsbs	r3, r0, #0
 1726 00b4 381A     		subs	r0, r7, r0
 1727              	.LVL195:
 1728              	.LBB147:
 1729              	.LBI147:
 164:Middlewares/LVGL/GUI/lvgl/src/core/../misc/lv_anim.h **** {
 1730              		.loc 3 164 20 view .LVU496
 1731              	.LBB148:
 166:Middlewares/LVGL/GUI/lvgl/src/core/../misc/lv_anim.h ****     a->current_value = start;
 1732              		.loc 3 166 5 view .LVU497
 166:Middlewares/LVGL/GUI/lvgl/src/core/../misc/lv_anim.h ****     a->current_value = start;
 1733              		.loc 3 166 20 is_stmt 0 view .LVU498
 1734 00b6 0793     		str	r3, [sp, #28]
 167:Middlewares/LVGL/GUI/lvgl/src/core/../misc/lv_anim.h ****     a->end_value = end;
 1735              		.loc 3 167 5 is_stmt 1 view .LVU499
 167:Middlewares/LVGL/GUI/lvgl/src/core/../misc/lv_anim.h ****     a->end_value = end;
 1736              		.loc 3 167 22 is_stmt 0 view .LVU500
 1737 00b8 0893     		str	r3, [sp, #32]
 168:Middlewares/LVGL/GUI/lvgl/src/core/../misc/lv_anim.h **** }
 1738              		.loc 3 168 5 is_stmt 1 view .LVU501
ARM GAS  C:\Users\ADMINI~1\AppData\Local\Temp\cchMZgMB.s 			page 64


 168:Middlewares/LVGL/GUI/lvgl/src/core/../misc/lv_anim.h **** }
 1739              		.loc 3 168 18 is_stmt 0 view .LVU502
 1740 00ba 0990     		str	r0, [sp, #36]
 1741              	.LVL196:
 168:Middlewares/LVGL/GUI/lvgl/src/core/../misc/lv_anim.h **** }
 1742              		.loc 3 168 18 view .LVU503
 1743              	.LBE148:
 1744              	.LBE147:
 321:Middlewares/LVGL/GUI/lvgl/src/core/lv_obj_scroll.c ****             lv_anim_set_path_cb(&a, lv_anim_path_ease_out);
 1745              		.loc 1 321 13 is_stmt 1 view .LVU504
 1746              	.LBB149:
 1747              	.LBI149:
 133:Middlewares/LVGL/GUI/lvgl/src/core/../misc/lv_anim.h **** {
 1748              		.loc 3 133 20 view .LVU505
 1749              	.LBB150:
 135:Middlewares/LVGL/GUI/lvgl/src/core/../misc/lv_anim.h **** }
 1750              		.loc 3 135 5 view .LVU506
 135:Middlewares/LVGL/GUI/lvgl/src/core/../misc/lv_anim.h **** }
 1751              		.loc 3 135 16 is_stmt 0 view .LVU507
 1752 00bc 144B     		ldr	r3, .L105+4
 1753              	.LVL197:
 135:Middlewares/LVGL/GUI/lvgl/src/core/../misc/lv_anim.h **** }
 1754              		.loc 3 135 16 view .LVU508
 1755 00be 0193     		str	r3, [sp, #4]
 1756              	.LVL198:
 135:Middlewares/LVGL/GUI/lvgl/src/core/../misc/lv_anim.h **** }
 1757              		.loc 3 135 16 view .LVU509
 1758              	.LBE150:
 1759              	.LBE149:
 322:Middlewares/LVGL/GUI/lvgl/src/core/lv_obj_scroll.c **** 
 1760              		.loc 1 322 13 is_stmt 1 view .LVU510
 1761              	.LBB151:
 1762              	.LBI151:
 191:Middlewares/LVGL/GUI/lvgl/src/core/../misc/lv_anim.h **** {
 1763              		.loc 3 191 20 view .LVU511
 1764              	.LBB152:
 193:Middlewares/LVGL/GUI/lvgl/src/core/../misc/lv_anim.h **** }
 1765              		.loc 3 193 5 view .LVU512
 193:Middlewares/LVGL/GUI/lvgl/src/core/../misc/lv_anim.h **** }
 1766              		.loc 3 193 16 is_stmt 0 view .LVU513
 1767 00c0 154B     		ldr	r3, .L105+12
 1768 00c2 0693     		str	r3, [sp, #24]
 1769              	.LVL199:
 193:Middlewares/LVGL/GUI/lvgl/src/core/../misc/lv_anim.h **** }
 1770              		.loc 3 193 16 view .LVU514
 1771              	.LBE152:
 1772              	.LBE151:
 324:Middlewares/LVGL/GUI/lvgl/src/core/lv_obj_scroll.c ****             res = lv_event_send(obj, LV_EVENT_SCROLL_BEGIN, &a);
 1773              		.loc 1 324 13 is_stmt 1 view .LVU515
 325:Middlewares/LVGL/GUI/lvgl/src/core/lv_obj_scroll.c ****             if(res != LV_RES_OK) return;
 1774              		.loc 1 325 13 view .LVU516
 325:Middlewares/LVGL/GUI/lvgl/src/core/lv_obj_scroll.c ****             if(res != LV_RES_OK) return;
 1775              		.loc 1 325 19 is_stmt 0 view .LVU517
 1776 00c4 6A46     		mov	r2, sp
 1777 00c6 0921     		movs	r1, #9
 1778 00c8 2046     		mov	r0, r4
 1779 00ca FFF7FEFF 		bl	lv_event_send
ARM GAS  C:\Users\ADMINI~1\AppData\Local\Temp\cchMZgMB.s 			page 65


 1780              	.LVL200:
 326:Middlewares/LVGL/GUI/lvgl/src/core/lv_obj_scroll.c ****             lv_anim_start(&a);
 1781              		.loc 1 326 13 is_stmt 1 view .LVU518
 326:Middlewares/LVGL/GUI/lvgl/src/core/lv_obj_scroll.c ****             lv_anim_start(&a);
 1782              		.loc 1 326 15 is_stmt 0 view .LVU519
 1783 00ce 0128     		cmp	r0, #1
 1784 00d0 B8D1     		bne	.L88
 327:Middlewares/LVGL/GUI/lvgl/src/core/lv_obj_scroll.c ****         }
 1785              		.loc 1 327 13 is_stmt 1 view .LVU520
 1786 00d2 6846     		mov	r0, sp
 1787              	.LVL201:
 327:Middlewares/LVGL/GUI/lvgl/src/core/lv_obj_scroll.c ****         }
 1788              		.loc 1 327 13 is_stmt 0 view .LVU521
 1789 00d4 FFF7FEFF 		bl	lv_anim_start
 1790              	.LVL202:
 1791 00d8 C2E7     		b	.L92
 1792              	.LVL203:
 1793              	.L100:
 327:Middlewares/LVGL/GUI/lvgl/src/core/lv_obj_scroll.c ****         }
 1794              		.loc 1 327 13 view .LVU522
 1795              	.LBE144:
 1796              	.LBB153:
 332:Middlewares/LVGL/GUI/lvgl/src/core/lv_obj_scroll.c ****             if(t > SCROLL_ANIM_TIME_MAX) t = SCROLL_ANIM_TIME_MAX;
 1797              		.loc 1 332 44 view .LVU523
 1798 00da C820     		movs	r0, #200
 1799              	.LVL204:
 1800              	.L96:
 334:Middlewares/LVGL/GUI/lvgl/src/core/lv_obj_scroll.c ****             lv_coord_t sy = lv_obj_get_scroll_y(obj);
 1801              		.loc 1 334 13 is_stmt 1 view .LVU524
 1802              	.LBB136:
 1803              	.LBI136:
 143:Middlewares/LVGL/GUI/lvgl/src/core/../misc/lv_anim.h **** {
 1804              		.loc 3 143 20 view .LVU525
 1805              	.LBB137:
 145:Middlewares/LVGL/GUI/lvgl/src/core/../misc/lv_anim.h **** }
 1806              		.loc 3 145 5 view .LVU526
 145:Middlewares/LVGL/GUI/lvgl/src/core/../misc/lv_anim.h **** }
 1807              		.loc 3 145 13 is_stmt 0 view .LVU527
 1808 00dc 0A90     		str	r0, [sp, #40]
 1809              	.LVL205:
 145:Middlewares/LVGL/GUI/lvgl/src/core/../misc/lv_anim.h **** }
 1810              		.loc 3 145 13 view .LVU528
 1811              	.LBE137:
 1812              	.LBE136:
 335:Middlewares/LVGL/GUI/lvgl/src/core/lv_obj_scroll.c ****             lv_anim_set_values(&a, -sy, -sy + dy);
 1813              		.loc 1 335 13 is_stmt 1 view .LVU529
 335:Middlewares/LVGL/GUI/lvgl/src/core/lv_obj_scroll.c ****             lv_anim_set_values(&a, -sy, -sy + dy);
 1814              		.loc 1 335 29 is_stmt 0 view .LVU530
 1815 00de 2046     		mov	r0, r4
 1816              	.LVL206:
 335:Middlewares/LVGL/GUI/lvgl/src/core/lv_obj_scroll.c ****             lv_anim_set_values(&a, -sy, -sy + dy);
 1817              		.loc 1 335 29 view .LVU531
 1818 00e0 FFF7FEFF 		bl	lv_obj_get_scroll_y
 1819              	.LVL207:
 336:Middlewares/LVGL/GUI/lvgl/src/core/lv_obj_scroll.c ****             lv_anim_set_exec_cb(&a,  scroll_y_anim);
 1820              		.loc 1 336 13 is_stmt 1 view .LVU532
 1821 00e4 4342     		rsbs	r3, r0, #0
ARM GAS  C:\Users\ADMINI~1\AppData\Local\Temp\cchMZgMB.s 			page 66


 1822 00e6 281A     		subs	r0, r5, r0
 1823              	.LVL208:
 1824              	.LBB138:
 1825              	.LBI138:
 164:Middlewares/LVGL/GUI/lvgl/src/core/../misc/lv_anim.h **** {
 1826              		.loc 3 164 20 view .LVU533
 1827              	.LBB139:
 166:Middlewares/LVGL/GUI/lvgl/src/core/../misc/lv_anim.h ****     a->current_value = start;
 1828              		.loc 3 166 5 view .LVU534
 166:Middlewares/LVGL/GUI/lvgl/src/core/../misc/lv_anim.h ****     a->current_value = start;
 1829              		.loc 3 166 20 is_stmt 0 view .LVU535
 1830 00e8 0793     		str	r3, [sp, #28]
 167:Middlewares/LVGL/GUI/lvgl/src/core/../misc/lv_anim.h ****     a->end_value = end;
 1831              		.loc 3 167 5 is_stmt 1 view .LVU536
 167:Middlewares/LVGL/GUI/lvgl/src/core/../misc/lv_anim.h ****     a->end_value = end;
 1832              		.loc 3 167 22 is_stmt 0 view .LVU537
 1833 00ea 0893     		str	r3, [sp, #32]
 168:Middlewares/LVGL/GUI/lvgl/src/core/../misc/lv_anim.h **** }
 1834              		.loc 3 168 5 is_stmt 1 view .LVU538
 168:Middlewares/LVGL/GUI/lvgl/src/core/../misc/lv_anim.h **** }
 1835              		.loc 3 168 18 is_stmt 0 view .LVU539
 1836 00ec 0990     		str	r0, [sp, #36]
 1837              	.LVL209:
 168:Middlewares/LVGL/GUI/lvgl/src/core/../misc/lv_anim.h **** }
 1838              		.loc 3 168 18 view .LVU540
 1839              	.LBE139:
 1840              	.LBE138:
 337:Middlewares/LVGL/GUI/lvgl/src/core/lv_obj_scroll.c ****             lv_anim_set_path_cb(&a, lv_anim_path_ease_out);
 1841              		.loc 1 337 13 is_stmt 1 view .LVU541
 1842              	.LBB140:
 1843              	.LBI140:
 133:Middlewares/LVGL/GUI/lvgl/src/core/../misc/lv_anim.h **** {
 1844              		.loc 3 133 20 view .LVU542
 1845              	.LBB141:
 135:Middlewares/LVGL/GUI/lvgl/src/core/../misc/lv_anim.h **** }
 1846              		.loc 3 135 5 view .LVU543
 135:Middlewares/LVGL/GUI/lvgl/src/core/../misc/lv_anim.h **** }
 1847              		.loc 3 135 16 is_stmt 0 view .LVU544
 1848 00ee 074B     		ldr	r3, .L105
 1849              	.LVL210:
 135:Middlewares/LVGL/GUI/lvgl/src/core/../misc/lv_anim.h **** }
 1850              		.loc 3 135 16 view .LVU545
 1851 00f0 0193     		str	r3, [sp, #4]
 1852              	.LVL211:
 135:Middlewares/LVGL/GUI/lvgl/src/core/../misc/lv_anim.h **** }
 1853              		.loc 3 135 16 view .LVU546
 1854              	.LBE141:
 1855              	.LBE140:
 338:Middlewares/LVGL/GUI/lvgl/src/core/lv_obj_scroll.c **** 
 1856              		.loc 1 338 13 is_stmt 1 view .LVU547
 1857              	.LBB142:
 1858              	.LBI142:
 191:Middlewares/LVGL/GUI/lvgl/src/core/../misc/lv_anim.h **** {
 1859              		.loc 3 191 20 view .LVU548
 1860              	.LBB143:
 193:Middlewares/LVGL/GUI/lvgl/src/core/../misc/lv_anim.h **** }
 1861              		.loc 3 193 5 view .LVU549
ARM GAS  C:\Users\ADMINI~1\AppData\Local\Temp\cchMZgMB.s 			page 67


 193:Middlewares/LVGL/GUI/lvgl/src/core/../misc/lv_anim.h **** }
 1862              		.loc 3 193 16 is_stmt 0 view .LVU550
 1863 00f2 094B     		ldr	r3, .L105+12
 1864 00f4 0693     		str	r3, [sp, #24]
 1865              	.LVL212:
 193:Middlewares/LVGL/GUI/lvgl/src/core/../misc/lv_anim.h **** }
 1866              		.loc 3 193 16 view .LVU551
 1867              	.LBE143:
 1868              	.LBE142:
 340:Middlewares/LVGL/GUI/lvgl/src/core/lv_obj_scroll.c ****             res = lv_event_send(obj, LV_EVENT_SCROLL_BEGIN, &a);
 1869              		.loc 1 340 13 is_stmt 1 view .LVU552
 341:Middlewares/LVGL/GUI/lvgl/src/core/lv_obj_scroll.c ****             if(res != LV_RES_OK) return;
 1870              		.loc 1 341 13 view .LVU553
 341:Middlewares/LVGL/GUI/lvgl/src/core/lv_obj_scroll.c ****             if(res != LV_RES_OK) return;
 1871              		.loc 1 341 19 is_stmt 0 view .LVU554
 1872 00f6 6A46     		mov	r2, sp
 1873 00f8 0921     		movs	r1, #9
 1874 00fa 2046     		mov	r0, r4
 1875 00fc FFF7FEFF 		bl	lv_event_send
 1876              	.LVL213:
 342:Middlewares/LVGL/GUI/lvgl/src/core/lv_obj_scroll.c ****             lv_anim_start(&a);
 1877              		.loc 1 342 13 is_stmt 1 view .LVU555
 342:Middlewares/LVGL/GUI/lvgl/src/core/lv_obj_scroll.c ****             lv_anim_start(&a);
 1878              		.loc 1 342 15 is_stmt 0 view .LVU556
 1879 0100 0128     		cmp	r0, #1
 1880 0102 9FD1     		bne	.L88
 343:Middlewares/LVGL/GUI/lvgl/src/core/lv_obj_scroll.c ****         }
 1881              		.loc 1 343 13 is_stmt 1 view .LVU557
 1882 0104 6846     		mov	r0, sp
 1883              	.LVL214:
 343:Middlewares/LVGL/GUI/lvgl/src/core/lv_obj_scroll.c ****         }
 1884              		.loc 1 343 13 is_stmt 0 view .LVU558
 1885 0106 FFF7FEFF 		bl	lv_anim_start
 1886              	.LVL215:
 1887 010a 9BE7     		b	.L88
 1888              	.L106:
 1889              		.align	2
 1890              	.L105:
 1891 010c 00000000 		.word	scroll_y_anim
 1892 0110 00000000 		.word	scroll_x_anim
 1893 0114 00000000 		.word	scroll_anim_ready_cb
 1894 0118 00000000 		.word	lv_anim_path_ease_out
 1895              	.LBE153:
 1896              	.LBE130:
 1897              		.cfi_endproc
 1898              	.LFE175:
 1900              		.section	.text.lv_obj_scroll_by_bounded,"ax",%progbits
 1901              		.align	1
 1902              		.global	lv_obj_scroll_by_bounded
 1903              		.syntax unified
 1904              		.thumb
 1905              		.thumb_func
 1907              	lv_obj_scroll_by_bounded:
 1908              	.LVL216:
 1909              	.LFB174:
 256:Middlewares/LVGL/GUI/lvgl/src/core/lv_obj_scroll.c ****     if(dx == 0 && dy == 0) return;
 1910              		.loc 1 256 1 is_stmt 1 view -0
ARM GAS  C:\Users\ADMINI~1\AppData\Local\Temp\cchMZgMB.s 			page 68


 1911              		.cfi_startproc
 1912              		@ args = 0, pretend = 0, frame = 0
 1913              		@ frame_needed = 0, uses_anonymous_args = 0
 256:Middlewares/LVGL/GUI/lvgl/src/core/lv_obj_scroll.c ****     if(dx == 0 && dy == 0) return;
 1914              		.loc 1 256 1 is_stmt 0 view .LVU560
 1915 0000 2DE9F047 		push	{r4, r5, r6, r7, r8, r9, r10, lr}
 1916              	.LCFI16:
 1917              		.cfi_def_cfa_offset 32
 1918              		.cfi_offset 4, -32
 1919              		.cfi_offset 5, -28
 1920              		.cfi_offset 6, -24
 1921              		.cfi_offset 7, -20
 1922              		.cfi_offset 8, -16
 1923              		.cfi_offset 9, -12
 1924              		.cfi_offset 10, -8
 1925              		.cfi_offset 14, -4
 1926 0004 0646     		mov	r6, r0
 1927 0006 1546     		mov	r5, r2
 1928 0008 9846     		mov	r8, r3
 257:Middlewares/LVGL/GUI/lvgl/src/core/lv_obj_scroll.c **** 
 1929              		.loc 1 257 5 is_stmt 1 view .LVU561
 257:Middlewares/LVGL/GUI/lvgl/src/core/lv_obj_scroll.c **** 
 1930              		.loc 1 257 7 is_stmt 0 view .LVU562
 1931 000a 8946     		mov	r9, r1
 1932 000c 01B9     		cbnz	r1, .L108
 257:Middlewares/LVGL/GUI/lvgl/src/core/lv_obj_scroll.c **** 
 1933              		.loc 1 257 16 discriminator 1 view .LVU563
 1934 000e 3AB3     		cbz	r2, .L107
 1935              	.L108:
 260:Middlewares/LVGL/GUI/lvgl/src/core/lv_obj_scroll.c **** 
 1936              		.loc 1 260 5 is_stmt 1 view .LVU564
 1937 0010 3046     		mov	r0, r6
 1938              	.LVL217:
 260:Middlewares/LVGL/GUI/lvgl/src/core/lv_obj_scroll.c **** 
 1939              		.loc 1 260 5 is_stmt 0 view .LVU565
 1940 0012 FFF7FEFF 		bl	lv_obj_update_layout
 1941              	.LVL218:
 263:Middlewares/LVGL/GUI/lvgl/src/core/lv_obj_scroll.c ****     lv_coord_t x_bounded = x_current + dx;
 1942              		.loc 1 263 5 is_stmt 1 view .LVU566
 263:Middlewares/LVGL/GUI/lvgl/src/core/lv_obj_scroll.c ****     lv_coord_t x_bounded = x_current + dx;
 1943              		.loc 1 263 29 is_stmt 0 view .LVU567
 1944 0016 3046     		mov	r0, r6
 1945 0018 FFF7FEFF 		bl	lv_obj_get_scroll_x
 1946              	.LVL219:
 1947 001c 0746     		mov	r7, r0
 1948              	.LVL220:
 264:Middlewares/LVGL/GUI/lvgl/src/core/lv_obj_scroll.c **** 
 1949              		.loc 1 264 5 is_stmt 1 view .LVU568
 1950 001e A9EB0009 		sub	r9, r9, r0
 1951              	.LVL221:
 266:Middlewares/LVGL/GUI/lvgl/src/core/lv_obj_scroll.c ****         if(x_bounded > 0) x_bounded = 0;
 1952              		.loc 1 266 5 view .LVU569
 1953              	.LBB154:
 1954              	.LBI154:
 542:Middlewares/LVGL/GUI/lvgl/src/core/lv_obj_style_gen.h **** {
 1955              		.loc 2 542 29 view .LVU570
 1956              	.LBB155:
ARM GAS  C:\Users\ADMINI~1\AppData\Local\Temp\cchMZgMB.s 			page 69


 544:Middlewares/LVGL/GUI/lvgl/src/core/lv_obj_style_gen.h ****     return (lv_base_dir_t)v.num;
 1957              		.loc 2 544 5 view .LVU571
 544:Middlewares/LVGL/GUI/lvgl/src/core/lv_obj_style_gen.h ****     return (lv_base_dir_t)v.num;
 1958              		.loc 2 544 26 is_stmt 0 view .LVU572
 1959 0022 41F26A42 		movw	r2, #5226
 1960 0026 0021     		movs	r1, #0
 1961 0028 3046     		mov	r0, r6
 1962              	.LVL222:
 544:Middlewares/LVGL/GUI/lvgl/src/core/lv_obj_style_gen.h ****     return (lv_base_dir_t)v.num;
 1963              		.loc 2 544 26 view .LVU573
 1964 002a FFF7FEFF 		bl	lv_obj_get_style_prop
 1965              	.LVL223:
 1966              		.loc 2 545 5 is_stmt 1 view .LVU574
 1967              		.loc 2 545 12 is_stmt 0 view .LVU575
 1968 002e C0B2     		uxtb	r0, r0
 1969              	.LVL224:
 1970              		.loc 2 545 12 view .LVU576
 1971              	.LBE155:
 1972              	.LBE154:
 266:Middlewares/LVGL/GUI/lvgl/src/core/lv_obj_scroll.c ****         if(x_bounded > 0) x_bounded = 0;
 1973              		.loc 1 266 7 view .LVU577
 1974 0030 0128     		cmp	r0, #1
 1975 0032 28D0     		beq	.L110
 267:Middlewares/LVGL/GUI/lvgl/src/core/lv_obj_scroll.c ****         if(x_bounded < 0) {
 1976              		.loc 1 267 9 is_stmt 1 view .LVU578
 267:Middlewares/LVGL/GUI/lvgl/src/core/lv_obj_scroll.c ****         if(x_bounded < 0) {
 1977              		.loc 1 267 11 is_stmt 0 view .LVU579
 1978 0034 B9F1000F 		cmp	r9, #0
 1979 0038 14DD     		ble	.L127
 267:Middlewares/LVGL/GUI/lvgl/src/core/lv_obj_scroll.c ****         if(x_bounded < 0) {
 1980              		.loc 1 267 37 view .LVU580
 1981 003a 4FF00009 		mov	r9, #0
 1982              	.LVL225:
 1983              	.L111:
 286:Middlewares/LVGL/GUI/lvgl/src/core/lv_obj_scroll.c ****     lv_coord_t y_bounded = y_current + dy;
 1984              		.loc 1 286 5 is_stmt 1 view .LVU581
 286:Middlewares/LVGL/GUI/lvgl/src/core/lv_obj_scroll.c ****     lv_coord_t y_bounded = y_current + dy;
 1985              		.loc 1 286 29 is_stmt 0 view .LVU582
 1986 003e 3046     		mov	r0, r6
 1987 0040 FFF7FEFF 		bl	lv_obj_get_scroll_y
 1988              	.LVL226:
 1989 0044 0446     		mov	r4, r0
 1990              	.LVL227:
 287:Middlewares/LVGL/GUI/lvgl/src/core/lv_obj_scroll.c **** 
 1991              		.loc 1 287 5 is_stmt 1 view .LVU583
 1992 0046 2D1A     		subs	r5, r5, r0
 1993              	.LVL228:
 289:Middlewares/LVGL/GUI/lvgl/src/core/lv_obj_scroll.c ****     if(y_bounded < 0) {
 1994              		.loc 1 289 5 view .LVU584
 289:Middlewares/LVGL/GUI/lvgl/src/core/lv_obj_scroll.c ****     if(y_bounded < 0) {
 1995              		.loc 1 289 7 is_stmt 0 view .LVU585
 1996 0048 002D     		cmp	r5, #0
 1997 004a 32DD     		ble	.L128
 289:Middlewares/LVGL/GUI/lvgl/src/core/lv_obj_scroll.c ****     if(y_bounded < 0) {
 1998              		.loc 1 289 33 view .LVU586
 1999 004c 0025     		movs	r5, #0
 2000              	.LVL229:
ARM GAS  C:\Users\ADMINI~1\AppData\Local\Temp\cchMZgMB.s 			page 70


 2001              	.L114:
 296:Middlewares/LVGL/GUI/lvgl/src/core/lv_obj_scroll.c ****     dy = y_bounded - y_current;
 2002              		.loc 1 296 5 is_stmt 1 view .LVU587
 297:Middlewares/LVGL/GUI/lvgl/src/core/lv_obj_scroll.c ****     if(dx || dy) {
 2003              		.loc 1 297 5 view .LVU588
 297:Middlewares/LVGL/GUI/lvgl/src/core/lv_obj_scroll.c ****     if(dx || dy) {
 2004              		.loc 1 297 8 is_stmt 0 view .LVU589
 2005 004e 6219     		adds	r2, r4, r5
 2006              	.LVL230:
 298:Middlewares/LVGL/GUI/lvgl/src/core/lv_obj_scroll.c ****         lv_obj_scroll_by(obj, dx, dy, anim_en);
 2007              		.loc 1 298 5 is_stmt 1 view .LVU590
 298:Middlewares/LVGL/GUI/lvgl/src/core/lv_obj_scroll.c ****         lv_obj_scroll_by(obj, dx, dy, anim_en);
 2008              		.loc 1 298 7 is_stmt 0 view .LVU591
 2009 0050 17EB0901 		adds	r1, r7, r9
 2010              	.LVL231:
 298:Middlewares/LVGL/GUI/lvgl/src/core/lv_obj_scroll.c ****         lv_obj_scroll_by(obj, dx, dy, anim_en);
 2011              		.loc 1 298 7 view .LVU592
 2012 0054 00D1     		bne	.L116
 298:Middlewares/LVGL/GUI/lvgl/src/core/lv_obj_scroll.c ****         lv_obj_scroll_by(obj, dx, dy, anim_en);
 2013              		.loc 1 298 11 discriminator 1 view .LVU593
 2014 0056 1AB1     		cbz	r2, .L107
 2015              	.L116:
 299:Middlewares/LVGL/GUI/lvgl/src/core/lv_obj_scroll.c ****     }
 2016              		.loc 1 299 9 is_stmt 1 view .LVU594
 2017 0058 4346     		mov	r3, r8
 2018 005a 3046     		mov	r0, r6
 2019 005c FFF7FEFF 		bl	lv_obj_scroll_by
 2020              	.LVL232:
 2021              	.L107:
 301:Middlewares/LVGL/GUI/lvgl/src/core/lv_obj_scroll.c **** 
 2022              		.loc 1 301 1 is_stmt 0 view .LVU595
 2023 0060 BDE8F087 		pop	{r4, r5, r6, r7, r8, r9, r10, pc}
 2024              	.LVL233:
 2025              	.L127:
 268:Middlewares/LVGL/GUI/lvgl/src/core/lv_obj_scroll.c ****             lv_coord_t  scroll_max = lv_obj_get_scroll_left(obj) + lv_obj_get_scroll_right(obj);
 2026              		.loc 1 268 9 is_stmt 1 view .LVU596
 268:Middlewares/LVGL/GUI/lvgl/src/core/lv_obj_scroll.c ****             lv_coord_t  scroll_max = lv_obj_get_scroll_left(obj) + lv_obj_get_scroll_right(obj);
 2027              		.loc 1 268 11 is_stmt 0 view .LVU597
 2028 0064 EBDA     		bge	.L111
 2029              	.LBB156:
 269:Middlewares/LVGL/GUI/lvgl/src/core/lv_obj_scroll.c ****             if(scroll_max < 0) scroll_max = 0;
 2030              		.loc 1 269 13 is_stmt 1 view .LVU598
 269:Middlewares/LVGL/GUI/lvgl/src/core/lv_obj_scroll.c ****             if(scroll_max < 0) scroll_max = 0;
 2031              		.loc 1 269 38 is_stmt 0 view .LVU599
 2032 0066 3046     		mov	r0, r6
 2033 0068 FFF7FEFF 		bl	lv_obj_get_scroll_left
 2034              	.LVL234:
 2035 006c 0446     		mov	r4, r0
 269:Middlewares/LVGL/GUI/lvgl/src/core/lv_obj_scroll.c ****             if(scroll_max < 0) scroll_max = 0;
 2036              		.loc 1 269 68 view .LVU600
 2037 006e 3046     		mov	r0, r6
 2038 0070 FFF7FEFF 		bl	lv_obj_get_scroll_right
 2039              	.LVL235:
 270:Middlewares/LVGL/GUI/lvgl/src/core/lv_obj_scroll.c **** 
 2040              		.loc 1 270 13 is_stmt 1 view .LVU601
 270:Middlewares/LVGL/GUI/lvgl/src/core/lv_obj_scroll.c **** 
 2041              		.loc 1 270 15 is_stmt 0 view .LVU602
ARM GAS  C:\Users\ADMINI~1\AppData\Local\Temp\cchMZgMB.s 			page 71


 2042 0074 2418     		adds	r4, r4, r0
 2043              	.LVL236:
 270:Middlewares/LVGL/GUI/lvgl/src/core/lv_obj_scroll.c **** 
 2044              		.loc 1 270 15 view .LVU603
 2045 0076 04D4     		bmi	.L129
 2046              	.LVL237:
 2047              	.L112:
 272:Middlewares/LVGL/GUI/lvgl/src/core/lv_obj_scroll.c ****         }
 2048              		.loc 1 272 13 is_stmt 1 view .LVU604
 272:Middlewares/LVGL/GUI/lvgl/src/core/lv_obj_scroll.c ****         }
 2049              		.loc 1 272 28 is_stmt 0 view .LVU605
 2050 0078 6442     		rsbs	r4, r4, #0
 2051              	.LVL238:
 272:Middlewares/LVGL/GUI/lvgl/src/core/lv_obj_scroll.c ****         }
 2052              		.loc 1 272 15 view .LVU606
 2053 007a 4C45     		cmp	r4, r9
 2054 007c DFDD     		ble	.L111
 272:Middlewares/LVGL/GUI/lvgl/src/core/lv_obj_scroll.c ****         }
 2055              		.loc 1 272 51 view .LVU607
 2056 007e A146     		mov	r9, r4
 2057              	.LVL239:
 272:Middlewares/LVGL/GUI/lvgl/src/core/lv_obj_scroll.c ****         }
 2058              		.loc 1 272 51 view .LVU608
 2059 0080 DDE7     		b	.L111
 2060              	.LVL240:
 2061              	.L129:
 270:Middlewares/LVGL/GUI/lvgl/src/core/lv_obj_scroll.c **** 
 2062              		.loc 1 270 43 view .LVU609
 2063 0082 0024     		movs	r4, #0
 2064              	.LVL241:
 270:Middlewares/LVGL/GUI/lvgl/src/core/lv_obj_scroll.c **** 
 2065              		.loc 1 270 43 view .LVU610
 2066 0084 F8E7     		b	.L112
 2067              	.L110:
 270:Middlewares/LVGL/GUI/lvgl/src/core/lv_obj_scroll.c **** 
 2068              		.loc 1 270 43 view .LVU611
 2069              	.LBE156:
 276:Middlewares/LVGL/GUI/lvgl/src/core/lv_obj_scroll.c ****         if(x_bounded > 0) {
 2070              		.loc 1 276 9 is_stmt 1 view .LVU612
 276:Middlewares/LVGL/GUI/lvgl/src/core/lv_obj_scroll.c ****         if(x_bounded > 0) {
 2071              		.loc 1 276 11 is_stmt 0 view .LVU613
 2072 0086 B9F1000F 		cmp	r9, #0
 2073 008a 0FDB     		blt	.L120
 277:Middlewares/LVGL/GUI/lvgl/src/core/lv_obj_scroll.c ****             lv_coord_t  scroll_max = lv_obj_get_scroll_left(obj) + lv_obj_get_scroll_right(obj);
 2074              		.loc 1 277 9 is_stmt 1 view .LVU614
 277:Middlewares/LVGL/GUI/lvgl/src/core/lv_obj_scroll.c ****             lv_coord_t  scroll_max = lv_obj_get_scroll_left(obj) + lv_obj_get_scroll_right(obj);
 2075              		.loc 1 277 11 is_stmt 0 view .LVU615
 2076 008c D7DD     		ble	.L111
 2077              	.LBB157:
 278:Middlewares/LVGL/GUI/lvgl/src/core/lv_obj_scroll.c ****             if(scroll_max < 0) scroll_max = 0;
 2078              		.loc 1 278 13 is_stmt 1 view .LVU616
 278:Middlewares/LVGL/GUI/lvgl/src/core/lv_obj_scroll.c ****             if(scroll_max < 0) scroll_max = 0;
 2079              		.loc 1 278 38 is_stmt 0 view .LVU617
 2080 008e 3046     		mov	r0, r6
 2081 0090 FFF7FEFF 		bl	lv_obj_get_scroll_left
 2082              	.LVL242:
 2083 0094 0446     		mov	r4, r0
ARM GAS  C:\Users\ADMINI~1\AppData\Local\Temp\cchMZgMB.s 			page 72


 278:Middlewares/LVGL/GUI/lvgl/src/core/lv_obj_scroll.c ****             if(scroll_max < 0) scroll_max = 0;
 2084              		.loc 1 278 68 view .LVU618
 2085 0096 3046     		mov	r0, r6
 2086 0098 FFF7FEFF 		bl	lv_obj_get_scroll_right
 2087              	.LVL243:
 279:Middlewares/LVGL/GUI/lvgl/src/core/lv_obj_scroll.c **** 
 2088              		.loc 1 279 13 is_stmt 1 view .LVU619
 279:Middlewares/LVGL/GUI/lvgl/src/core/lv_obj_scroll.c **** 
 2089              		.loc 1 279 15 is_stmt 0 view .LVU620
 2090 009c 2418     		adds	r4, r4, r0
 2091              	.LVL244:
 279:Middlewares/LVGL/GUI/lvgl/src/core/lv_obj_scroll.c **** 
 2092              		.loc 1 279 15 view .LVU621
 2093 009e 03D4     		bmi	.L130
 2094              	.LVL245:
 2095              	.L113:
 281:Middlewares/LVGL/GUI/lvgl/src/core/lv_obj_scroll.c ****         }
 2096              		.loc 1 281 13 is_stmt 1 view .LVU622
 281:Middlewares/LVGL/GUI/lvgl/src/core/lv_obj_scroll.c ****         }
 2097              		.loc 1 281 15 is_stmt 0 view .LVU623
 2098 00a0 4C45     		cmp	r4, r9
 2099 00a2 CCDA     		bge	.L111
 281:Middlewares/LVGL/GUI/lvgl/src/core/lv_obj_scroll.c ****         }
 2100              		.loc 1 281 50 view .LVU624
 2101 00a4 A146     		mov	r9, r4
 2102              	.LVL246:
 281:Middlewares/LVGL/GUI/lvgl/src/core/lv_obj_scroll.c ****         }
 2103              		.loc 1 281 50 view .LVU625
 2104 00a6 CAE7     		b	.L111
 2105              	.LVL247:
 2106              	.L130:
 279:Middlewares/LVGL/GUI/lvgl/src/core/lv_obj_scroll.c **** 
 2107              		.loc 1 279 43 view .LVU626
 2108 00a8 0024     		movs	r4, #0
 2109              	.LVL248:
 279:Middlewares/LVGL/GUI/lvgl/src/core/lv_obj_scroll.c **** 
 2110              		.loc 1 279 43 view .LVU627
 2111 00aa F9E7     		b	.L113
 2112              	.L120:
 279:Middlewares/LVGL/GUI/lvgl/src/core/lv_obj_scroll.c **** 
 2113              		.loc 1 279 43 view .LVU628
 2114              	.LBE157:
 276:Middlewares/LVGL/GUI/lvgl/src/core/lv_obj_scroll.c ****         if(x_bounded > 0) {
 2115              		.loc 1 276 37 view .LVU629
 2116 00ac 4FF00009 		mov	r9, #0
 2117              	.LVL249:
 276:Middlewares/LVGL/GUI/lvgl/src/core/lv_obj_scroll.c ****         if(x_bounded > 0) {
 2118              		.loc 1 276 37 view .LVU630
 2119 00b0 C5E7     		b	.L111
 2120              	.LVL250:
 2121              	.L128:
 290:Middlewares/LVGL/GUI/lvgl/src/core/lv_obj_scroll.c ****         lv_coord_t  scroll_max = lv_obj_get_scroll_top(obj) + lv_obj_get_scroll_bottom(obj);
 2122              		.loc 1 290 5 is_stmt 1 view .LVU631
 290:Middlewares/LVGL/GUI/lvgl/src/core/lv_obj_scroll.c ****         lv_coord_t  scroll_max = lv_obj_get_scroll_top(obj) + lv_obj_get_scroll_bottom(obj);
 2123              		.loc 1 290 7 is_stmt 0 view .LVU632
 2124 00b2 CCDA     		bge	.L114
 2125              	.LBB158:
ARM GAS  C:\Users\ADMINI~1\AppData\Local\Temp\cchMZgMB.s 			page 73


 291:Middlewares/LVGL/GUI/lvgl/src/core/lv_obj_scroll.c ****         if(scroll_max < 0) scroll_max = 0;
 2126              		.loc 1 291 9 is_stmt 1 view .LVU633
 291:Middlewares/LVGL/GUI/lvgl/src/core/lv_obj_scroll.c ****         if(scroll_max < 0) scroll_max = 0;
 2127              		.loc 1 291 34 is_stmt 0 view .LVU634
 2128 00b4 3046     		mov	r0, r6
 2129              	.LVL251:
 291:Middlewares/LVGL/GUI/lvgl/src/core/lv_obj_scroll.c ****         if(scroll_max < 0) scroll_max = 0;
 2130              		.loc 1 291 34 view .LVU635
 2131 00b6 FFF7FEFF 		bl	lv_obj_get_scroll_top
 2132              	.LVL252:
 2133 00ba 8246     		mov	r10, r0
 291:Middlewares/LVGL/GUI/lvgl/src/core/lv_obj_scroll.c ****         if(scroll_max < 0) scroll_max = 0;
 2134              		.loc 1 291 63 view .LVU636
 2135 00bc 3046     		mov	r0, r6
 2136 00be FFF7FEFF 		bl	lv_obj_get_scroll_bottom
 2137              	.LVL253:
 292:Middlewares/LVGL/GUI/lvgl/src/core/lv_obj_scroll.c ****         if(y_bounded < -scroll_max) y_bounded = -scroll_max;
 2138              		.loc 1 292 9 is_stmt 1 view .LVU637
 292:Middlewares/LVGL/GUI/lvgl/src/core/lv_obj_scroll.c ****         if(y_bounded < -scroll_max) y_bounded = -scroll_max;
 2139              		.loc 1 292 11 is_stmt 0 view .LVU638
 2140 00c2 1AEB000A 		adds	r10, r10, r0
 2141              	.LVL254:
 292:Middlewares/LVGL/GUI/lvgl/src/core/lv_obj_scroll.c ****         if(y_bounded < -scroll_max) y_bounded = -scroll_max;
 2142              		.loc 1 292 11 view .LVU639
 2143 00c6 05D4     		bmi	.L131
 2144              	.LVL255:
 2145              	.L115:
 293:Middlewares/LVGL/GUI/lvgl/src/core/lv_obj_scroll.c ****     }
 2146              		.loc 1 293 9 is_stmt 1 view .LVU640
 293:Middlewares/LVGL/GUI/lvgl/src/core/lv_obj_scroll.c ****     }
 2147              		.loc 1 293 24 is_stmt 0 view .LVU641
 2148 00c8 CAF1000A 		rsb	r10, r10, #0
 2149              	.LVL256:
 293:Middlewares/LVGL/GUI/lvgl/src/core/lv_obj_scroll.c ****     }
 2150              		.loc 1 293 11 view .LVU642
 2151 00cc 5545     		cmp	r5, r10
 2152 00ce BEDA     		bge	.L114
 293:Middlewares/LVGL/GUI/lvgl/src/core/lv_obj_scroll.c ****     }
 2153              		.loc 1 293 47 view .LVU643
 2154 00d0 5546     		mov	r5, r10
 2155              	.LVL257:
 293:Middlewares/LVGL/GUI/lvgl/src/core/lv_obj_scroll.c ****     }
 2156              		.loc 1 293 47 view .LVU644
 2157 00d2 BCE7     		b	.L114
 2158              	.LVL258:
 2159              	.L131:
 292:Middlewares/LVGL/GUI/lvgl/src/core/lv_obj_scroll.c ****         if(y_bounded < -scroll_max) y_bounded = -scroll_max;
 2160              		.loc 1 292 39 view .LVU645
 2161 00d4 4FF0000A 		mov	r10, #0
 2162              	.LVL259:
 292:Middlewares/LVGL/GUI/lvgl/src/core/lv_obj_scroll.c ****         if(y_bounded < -scroll_max) y_bounded = -scroll_max;
 2163              		.loc 1 292 39 view .LVU646
 2164 00d8 F6E7     		b	.L115
 2165              	.LBE158:
 2166              		.cfi_endproc
 2167              	.LFE174:
 2169              		.section	.text.scroll_area_into_view,"ax",%progbits
ARM GAS  C:\Users\ADMINI~1\AppData\Local\Temp\cchMZgMB.s 			page 74


 2170              		.align	1
 2171              		.syntax unified
 2172              		.thumb
 2173              		.thumb_func
 2175              	scroll_area_into_view:
 2176              	.LVL260:
 2177              	.LFB190:
 680:Middlewares/LVGL/GUI/lvgl/src/core/lv_obj_scroll.c **** 
 681:Middlewares/LVGL/GUI/lvgl/src/core/lv_obj_scroll.c **** static void scroll_area_into_view(const lv_area_t * area, lv_obj_t * child, lv_point_t * scroll_val
 682:Middlewares/LVGL/GUI/lvgl/src/core/lv_obj_scroll.c ****                                   lv_anim_enable_t anim_en)
 683:Middlewares/LVGL/GUI/lvgl/src/core/lv_obj_scroll.c **** {
 2178              		.loc 1 683 1 is_stmt 1 view -0
 2179              		.cfi_startproc
 2180              		@ args = 0, pretend = 0, frame = 32
 2181              		@ frame_needed = 0, uses_anonymous_args = 0
 2182              		.loc 1 683 1 is_stmt 0 view .LVU648
 2183 0000 2DE9F04F 		push	{r4, r5, r6, r7, r8, r9, r10, fp, lr}
 2184              	.LCFI17:
 2185              		.cfi_def_cfa_offset 36
 2186              		.cfi_offset 4, -36
 2187              		.cfi_offset 5, -32
 2188              		.cfi_offset 6, -28
 2189              		.cfi_offset 7, -24
 2190              		.cfi_offset 8, -20
 2191              		.cfi_offset 9, -16
 2192              		.cfi_offset 10, -12
 2193              		.cfi_offset 11, -8
 2194              		.cfi_offset 14, -4
 2195 0004 89B0     		sub	sp, sp, #36
 2196              	.LCFI18:
 2197              		.cfi_def_cfa_offset 72
 2198 0006 0746     		mov	r7, r0
 2199 0008 0D46     		mov	r5, r1
 2200 000a 0291     		str	r1, [sp, #8]
 2201 000c 1646     		mov	r6, r2
 2202 000e 0193     		str	r3, [sp, #4]
 684:Middlewares/LVGL/GUI/lvgl/src/core/lv_obj_scroll.c ****     lv_obj_t * parent = lv_obj_get_parent(child);
 2203              		.loc 1 684 5 is_stmt 1 view .LVU649
 2204              		.loc 1 684 25 is_stmt 0 view .LVU650
 2205 0010 0846     		mov	r0, r1
 2206              	.LVL261:
 2207              		.loc 1 684 25 view .LVU651
 2208 0012 FFF7FEFF 		bl	lv_obj_get_parent
 2209              	.LVL262:
 2210              		.loc 1 684 25 view .LVU652
 2211 0016 0446     		mov	r4, r0
 2212              	.LVL263:
 685:Middlewares/LVGL/GUI/lvgl/src/core/lv_obj_scroll.c ****     if(!lv_obj_has_flag(parent, LV_OBJ_FLAG_SCROLLABLE)) return;
 2213              		.loc 1 685 5 is_stmt 1 view .LVU653
 2214              		.loc 1 685 9 is_stmt 0 view .LVU654
 2215 0018 1021     		movs	r1, #16
 2216 001a FFF7FEFF 		bl	lv_obj_has_flag
 2217              	.LVL264:
 2218              		.loc 1 685 7 view .LVU655
 2219 001e 0028     		cmp	r0, #0
 2220 0020 00F0D580 		beq	.L132
 686:Middlewares/LVGL/GUI/lvgl/src/core/lv_obj_scroll.c **** 
ARM GAS  C:\Users\ADMINI~1\AppData\Local\Temp\cchMZgMB.s 			page 75


 687:Middlewares/LVGL/GUI/lvgl/src/core/lv_obj_scroll.c ****     lv_dir_t scroll_dir = lv_obj_get_scroll_dir(parent);
 2221              		.loc 1 687 5 is_stmt 1 view .LVU656
 2222              		.loc 1 687 27 is_stmt 0 view .LVU657
 2223 0024 2046     		mov	r0, r4
 2224 0026 FFF7FEFF 		bl	lv_obj_get_scroll_dir
 2225              	.LVL265:
 2226 002a 0090     		str	r0, [sp]
 2227              	.LVL266:
 688:Middlewares/LVGL/GUI/lvgl/src/core/lv_obj_scroll.c ****     lv_coord_t snap_goal = 0;
 2228              		.loc 1 688 5 is_stmt 1 view .LVU658
 689:Middlewares/LVGL/GUI/lvgl/src/core/lv_obj_scroll.c ****     lv_coord_t act = 0;
 2229              		.loc 1 689 5 view .LVU659
 690:Middlewares/LVGL/GUI/lvgl/src/core/lv_obj_scroll.c ****     const lv_area_t * area_tmp;
 2230              		.loc 1 690 5 view .LVU660
 691:Middlewares/LVGL/GUI/lvgl/src/core/lv_obj_scroll.c **** 
 692:Middlewares/LVGL/GUI/lvgl/src/core/lv_obj_scroll.c ****     lv_coord_t y_scroll = 0;
 2231              		.loc 1 692 5 view .LVU661
 693:Middlewares/LVGL/GUI/lvgl/src/core/lv_obj_scroll.c ****     lv_scroll_snap_t snap_y = lv_obj_get_scroll_snap_y(parent);
 2232              		.loc 1 693 5 view .LVU662
 2233              		.loc 1 693 31 is_stmt 0 view .LVU663
 2234 002c 2046     		mov	r0, r4
 2235 002e FFF7FEFF 		bl	lv_obj_get_scroll_snap_y
 2236              	.LVL267:
 694:Middlewares/LVGL/GUI/lvgl/src/core/lv_obj_scroll.c ****     if(snap_y != LV_SCROLL_SNAP_NONE) area_tmp = &child->coords;
 2237              		.loc 1 694 5 is_stmt 1 view .LVU664
 2238              		.loc 1 694 7 is_stmt 0 view .LVU665
 2239 0032 0390     		str	r0, [sp, #12]
 2240 0034 10B1     		cbz	r0, .L156
 2241              		.loc 1 694 39 is_stmt 1 discriminator 1 view .LVU666
 2242              		.loc 1 694 48 is_stmt 0 discriminator 1 view .LVU667
 2243 0036 05F1140A 		add	r10, r5, #20
 2244              	.LVL268:
 2245              		.loc 1 694 48 discriminator 1 view .LVU668
 2246 003a 00E0     		b	.L134
 2247              	.LVL269:
 2248              	.L156:
 695:Middlewares/LVGL/GUI/lvgl/src/core/lv_obj_scroll.c ****     else area_tmp = area;
 2249              		.loc 1 695 19 view .LVU669
 2250 003c BA46     		mov	r10, r7
 2251              	.L134:
 2252              	.LVL270:
 696:Middlewares/LVGL/GUI/lvgl/src/core/lv_obj_scroll.c **** 
 697:Middlewares/LVGL/GUI/lvgl/src/core/lv_obj_scroll.c ****     lv_coord_t border_width = lv_obj_get_style_border_width(parent, LV_PART_MAIN);
 2253              		.loc 1 697 5 is_stmt 1 view .LVU670
 2254              	.LBB159:
 2255              	.LBI159:
 241:Middlewares/LVGL/GUI/lvgl/src/core/lv_obj_style_gen.h **** {
 2256              		.loc 2 241 26 view .LVU671
 2257              	.LBB160:
 243:Middlewares/LVGL/GUI/lvgl/src/core/lv_obj_style_gen.h ****     return (lv_coord_t)v.num;
 2258              		.loc 2 243 5 view .LVU672
 243:Middlewares/LVGL/GUI/lvgl/src/core/lv_obj_style_gen.h ****     return (lv_coord_t)v.num;
 2259              		.loc 2 243 26 is_stmt 0 view .LVU673
 2260 003e 41F23202 		movw	r2, #4146
 2261 0042 0021     		movs	r1, #0
 2262 0044 2046     		mov	r0, r4
 2263              	.LVL271:
ARM GAS  C:\Users\ADMINI~1\AppData\Local\Temp\cchMZgMB.s 			page 76


 243:Middlewares/LVGL/GUI/lvgl/src/core/lv_obj_style_gen.h ****     return (lv_coord_t)v.num;
 2264              		.loc 2 243 26 view .LVU674
 2265 0046 FFF7FEFF 		bl	lv_obj_get_style_prop
 2266              	.LVL272:
 2267 004a 8046     		mov	r8, r0
 244:Middlewares/LVGL/GUI/lvgl/src/core/lv_obj_style_gen.h **** }
 2268              		.loc 2 244 5 is_stmt 1 view .LVU675
 2269              	.LVL273:
 244:Middlewares/LVGL/GUI/lvgl/src/core/lv_obj_style_gen.h **** }
 2270              		.loc 2 244 5 is_stmt 0 view .LVU676
 2271              	.LBE160:
 2272              	.LBE159:
 698:Middlewares/LVGL/GUI/lvgl/src/core/lv_obj_scroll.c ****     lv_coord_t ptop = lv_obj_get_style_pad_top(parent, LV_PART_MAIN) + border_width;
 2273              		.loc 1 698 5 is_stmt 1 view .LVU677
 2274              	.LBB161:
 2275              	.LBI161:
  91:Middlewares/LVGL/GUI/lvgl/src/core/lv_obj_style_gen.h **** {
 2276              		.loc 2 91 26 view .LVU678
 2277              	.LBB162:
  93:Middlewares/LVGL/GUI/lvgl/src/core/lv_obj_style_gen.h ****     return (lv_coord_t)v.num;
 2278              		.loc 2 93 5 view .LVU679
  93:Middlewares/LVGL/GUI/lvgl/src/core/lv_obj_style_gen.h ****     return (lv_coord_t)v.num;
 2279              		.loc 2 93 26 is_stmt 0 view .LVU680
 2280 004c 41F61002 		movw	r2, #6160
 2281 0050 0021     		movs	r1, #0
 2282 0052 2046     		mov	r0, r4
 2283              	.LVL274:
  93:Middlewares/LVGL/GUI/lvgl/src/core/lv_obj_style_gen.h ****     return (lv_coord_t)v.num;
 2284              		.loc 2 93 26 view .LVU681
 2285 0054 FFF7FEFF 		bl	lv_obj_get_style_prop
 2286              	.LVL275:
  94:Middlewares/LVGL/GUI/lvgl/src/core/lv_obj_style_gen.h **** }
 2287              		.loc 2 94 5 is_stmt 1 view .LVU682
  94:Middlewares/LVGL/GUI/lvgl/src/core/lv_obj_style_gen.h **** }
 2288              		.loc 2 94 5 is_stmt 0 view .LVU683
 2289              	.LBE162:
 2290              	.LBE161:
 2291              		.loc 1 698 16 view .LVU684
 2292 0058 08EB0009 		add	r9, r8, r0
 2293              	.LVL276:
 699:Middlewares/LVGL/GUI/lvgl/src/core/lv_obj_scroll.c ****     lv_coord_t pbottom = lv_obj_get_style_pad_bottom(parent, LV_PART_MAIN) + border_width;
 2294              		.loc 1 699 5 is_stmt 1 view .LVU685
 2295              	.LBB163:
 2296              	.LBI163:
  97:Middlewares/LVGL/GUI/lvgl/src/core/lv_obj_style_gen.h **** {
 2297              		.loc 2 97 26 view .LVU686
 2298              	.LBB164:
  99:Middlewares/LVGL/GUI/lvgl/src/core/lv_obj_style_gen.h ****     return (lv_coord_t)v.num;
 2299              		.loc 2 99 5 view .LVU687
  99:Middlewares/LVGL/GUI/lvgl/src/core/lv_obj_style_gen.h ****     return (lv_coord_t)v.num;
 2300              		.loc 2 99 26 is_stmt 0 view .LVU688
 2301 005c 41F61102 		movw	r2, #6161
 2302 0060 0021     		movs	r1, #0
 2303 0062 2046     		mov	r0, r4
 2304 0064 FFF7FEFF 		bl	lv_obj_get_style_prop
 2305              	.LVL277:
 100:Middlewares/LVGL/GUI/lvgl/src/core/lv_obj_style_gen.h **** }
ARM GAS  C:\Users\ADMINI~1\AppData\Local\Temp\cchMZgMB.s 			page 77


 2306              		.loc 2 100 5 is_stmt 1 view .LVU689
 100:Middlewares/LVGL/GUI/lvgl/src/core/lv_obj_style_gen.h **** }
 2307              		.loc 2 100 5 is_stmt 0 view .LVU690
 2308              	.LBE164:
 2309              	.LBE163:
 2310              		.loc 1 699 16 view .LVU691
 2311 0068 08EB000B 		add	fp, r8, r0
 2312              	.LVL278:
 700:Middlewares/LVGL/GUI/lvgl/src/core/lv_obj_scroll.c ****     lv_coord_t top_diff = parent->coords.y1 + ptop - area_tmp->y1 - scroll_value->y;
 2313              		.loc 1 700 5 is_stmt 1 view .LVU692
 2314              		.loc 1 700 41 is_stmt 0 view .LVU693
 2315 006c A569     		ldr	r5, [r4, #24]
 2316              	.LVL279:
 2317              		.loc 1 700 45 view .LVU694
 2318 006e 4D44     		add	r5, r5, r9
 2319              		.loc 1 700 62 view .LVU695
 2320 0070 DAF80430 		ldr	r3, [r10, #4]
 2321              		.loc 1 700 52 view .LVU696
 2322 0074 ED1A     		subs	r5, r5, r3
 2323              		.loc 1 700 81 view .LVU697
 2324 0076 7168     		ldr	r1, [r6, #4]
 2325 0078 0691     		str	r1, [sp, #24]
 2326              		.loc 1 700 16 view .LVU698
 2327 007a 6D1A     		subs	r5, r5, r1
 2328              	.LVL280:
 701:Middlewares/LVGL/GUI/lvgl/src/core/lv_obj_scroll.c ****     lv_coord_t bottom_diff = -(parent->coords.y2 - pbottom - area_tmp->y2 - scroll_value->y);
 2329              		.loc 1 701 5 is_stmt 1 view .LVU699
 2330              		.loc 1 701 46 is_stmt 0 view .LVU700
 2331 007c 236A     		ldr	r3, [r4, #32]
 2332              		.loc 1 701 50 view .LVU701
 2333 007e A3EB0B03 		sub	r3, r3, fp
 2334              		.loc 1 701 70 view .LVU702
 2335 0082 DAF80C20 		ldr	r2, [r10, #12]
 2336              		.loc 1 701 60 view .LVU703
 2337 0086 9B1A     		subs	r3, r3, r2
 2338 0088 0793     		str	r3, [sp, #28]
 2339              		.loc 1 701 16 view .LVU704
 2340 008a CB1A     		subs	r3, r1, r3
 2341 008c 0493     		str	r3, [sp, #16]
 2342              	.LVL281:
 702:Middlewares/LVGL/GUI/lvgl/src/core/lv_obj_scroll.c ****     lv_coord_t parent_h = lv_obj_get_height(parent) - ptop - pbottom;
 2343              		.loc 1 702 5 is_stmt 1 view .LVU705
 2344              		.loc 1 702 27 is_stmt 0 view .LVU706
 2345 008e 2046     		mov	r0, r4
 2346 0090 FFF7FEFF 		bl	lv_obj_get_height
 2347              	.LVL282:
 2348              		.loc 1 702 53 view .LVU707
 2349 0094 A0EB0900 		sub	r0, r0, r9
 2350              		.loc 1 702 16 view .LVU708
 2351 0098 A0EB0B02 		sub	r2, r0, fp
 2352 009c 0592     		str	r2, [sp, #20]
 2353              	.LVL283:
 703:Middlewares/LVGL/GUI/lvgl/src/core/lv_obj_scroll.c ****     if((top_diff >= 0 && bottom_diff >= 0)) y_scroll = 0;
 2354              		.loc 1 703 5 is_stmt 1 view .LVU709
 2355              		.loc 1 703 7 is_stmt 0 view .LVU710
 2356 009e 002D     		cmp	r5, #0
 2357 00a0 C0F29880 		blt	.L135
ARM GAS  C:\Users\ADMINI~1\AppData\Local\Temp\cchMZgMB.s 			page 78


 2358              		.loc 1 703 23 discriminator 1 view .LVU711
 2359 00a4 049B     		ldr	r3, [sp, #16]
 2360 00a6 002B     		cmp	r3, #0
 2361 00a8 C0F29480 		blt	.L135
 2362              		.loc 1 703 54 view .LVU712
 2363 00ac 0025     		movs	r5, #0
 2364              	.LVL284:
 2365              	.L136:
 704:Middlewares/LVGL/GUI/lvgl/src/core/lv_obj_scroll.c ****     else if(top_diff > 0) {
 705:Middlewares/LVGL/GUI/lvgl/src/core/lv_obj_scroll.c ****         y_scroll = top_diff;
 706:Middlewares/LVGL/GUI/lvgl/src/core/lv_obj_scroll.c ****         /*Do not let scrolling in*/
 707:Middlewares/LVGL/GUI/lvgl/src/core/lv_obj_scroll.c ****         lv_coord_t st = lv_obj_get_scroll_top(parent);
 708:Middlewares/LVGL/GUI/lvgl/src/core/lv_obj_scroll.c ****         if(st - y_scroll < 0) y_scroll = 0;
 709:Middlewares/LVGL/GUI/lvgl/src/core/lv_obj_scroll.c ****     }
 710:Middlewares/LVGL/GUI/lvgl/src/core/lv_obj_scroll.c ****     else if(bottom_diff > 0) {
 711:Middlewares/LVGL/GUI/lvgl/src/core/lv_obj_scroll.c ****         y_scroll = -bottom_diff;
 712:Middlewares/LVGL/GUI/lvgl/src/core/lv_obj_scroll.c ****         /*Do not let scrolling in*/
 713:Middlewares/LVGL/GUI/lvgl/src/core/lv_obj_scroll.c ****         lv_coord_t sb = lv_obj_get_scroll_bottom(parent);
 714:Middlewares/LVGL/GUI/lvgl/src/core/lv_obj_scroll.c ****         if(sb + y_scroll < 0) y_scroll = 0;
 715:Middlewares/LVGL/GUI/lvgl/src/core/lv_obj_scroll.c ****     }
 716:Middlewares/LVGL/GUI/lvgl/src/core/lv_obj_scroll.c **** 
 717:Middlewares/LVGL/GUI/lvgl/src/core/lv_obj_scroll.c ****     switch(snap_y) {
 2366              		.loc 1 717 5 is_stmt 1 view .LVU713
 2367 00ae 039B     		ldr	r3, [sp, #12]
 2368 00b0 022B     		cmp	r3, #2
 2369 00b2 00F0B480 		beq	.L138
 2370 00b6 032B     		cmp	r3, #3
 2371 00b8 00F0BA80 		beq	.L139
 2372 00bc 012B     		cmp	r3, #1
 2373 00be 00F0A480 		beq	.L172
 2374              	.LVL285:
 2375              	.L140:
 718:Middlewares/LVGL/GUI/lvgl/src/core/lv_obj_scroll.c ****         case LV_SCROLL_SNAP_START:
 719:Middlewares/LVGL/GUI/lvgl/src/core/lv_obj_scroll.c ****             snap_goal = parent->coords.y1 + ptop;
 720:Middlewares/LVGL/GUI/lvgl/src/core/lv_obj_scroll.c ****             act = area_tmp->y1 + y_scroll;
 721:Middlewares/LVGL/GUI/lvgl/src/core/lv_obj_scroll.c ****             y_scroll += snap_goal - act;
 722:Middlewares/LVGL/GUI/lvgl/src/core/lv_obj_scroll.c ****             break;
 723:Middlewares/LVGL/GUI/lvgl/src/core/lv_obj_scroll.c ****         case LV_SCROLL_SNAP_END:
 724:Middlewares/LVGL/GUI/lvgl/src/core/lv_obj_scroll.c ****             snap_goal = parent->coords.y2 - pbottom;
 725:Middlewares/LVGL/GUI/lvgl/src/core/lv_obj_scroll.c ****             act = area_tmp->y2 + y_scroll;
 726:Middlewares/LVGL/GUI/lvgl/src/core/lv_obj_scroll.c ****             y_scroll += snap_goal - act;
 727:Middlewares/LVGL/GUI/lvgl/src/core/lv_obj_scroll.c ****             break;
 728:Middlewares/LVGL/GUI/lvgl/src/core/lv_obj_scroll.c ****         case LV_SCROLL_SNAP_CENTER:
 729:Middlewares/LVGL/GUI/lvgl/src/core/lv_obj_scroll.c ****             snap_goal = parent->coords.y1 + ptop + parent_h / 2;
 730:Middlewares/LVGL/GUI/lvgl/src/core/lv_obj_scroll.c ****             act = lv_area_get_height(area_tmp) / 2 + area_tmp->y1 + y_scroll;
 731:Middlewares/LVGL/GUI/lvgl/src/core/lv_obj_scroll.c ****             y_scroll += snap_goal - act;
 732:Middlewares/LVGL/GUI/lvgl/src/core/lv_obj_scroll.c ****             break;
 733:Middlewares/LVGL/GUI/lvgl/src/core/lv_obj_scroll.c ****     }
 734:Middlewares/LVGL/GUI/lvgl/src/core/lv_obj_scroll.c **** 
 735:Middlewares/LVGL/GUI/lvgl/src/core/lv_obj_scroll.c ****     lv_coord_t x_scroll = 0;
 2376              		.loc 1 735 5 view .LVU714
 736:Middlewares/LVGL/GUI/lvgl/src/core/lv_obj_scroll.c ****     lv_scroll_snap_t snap_x = lv_obj_get_scroll_snap_x(parent);
 2377              		.loc 1 736 5 view .LVU715
 2378              		.loc 1 736 31 is_stmt 0 view .LVU716
 2379 00c2 2046     		mov	r0, r4
 2380 00c4 FFF7FEFF 		bl	lv_obj_get_scroll_snap_x
 2381              	.LVL286:
ARM GAS  C:\Users\ADMINI~1\AppData\Local\Temp\cchMZgMB.s 			page 79


 737:Middlewares/LVGL/GUI/lvgl/src/core/lv_obj_scroll.c ****     if(snap_x != LV_SCROLL_SNAP_NONE) area_tmp = &child->coords;
 2382              		.loc 1 737 5 is_stmt 1 view .LVU717
 2383              		.loc 1 737 7 is_stmt 0 view .LVU718
 2384 00c8 8346     		mov	fp, r0
 2385              	.LVL287:
 2386              		.loc 1 737 7 view .LVU719
 2387 00ca 08B1     		cbz	r0, .L141
 2388              		.loc 1 737 39 is_stmt 1 discriminator 1 view .LVU720
 2389              		.loc 1 737 48 is_stmt 0 discriminator 1 view .LVU721
 2390 00cc 029F     		ldr	r7, [sp, #8]
 2391              	.LVL288:
 2392              		.loc 1 737 48 discriminator 1 view .LVU722
 2393 00ce 1437     		adds	r7, r7, #20
 2394              	.LVL289:
 2395              	.L141:
 738:Middlewares/LVGL/GUI/lvgl/src/core/lv_obj_scroll.c ****     else area_tmp = area;
 739:Middlewares/LVGL/GUI/lvgl/src/core/lv_obj_scroll.c **** 
 740:Middlewares/LVGL/GUI/lvgl/src/core/lv_obj_scroll.c ****     lv_coord_t pleft = lv_obj_get_style_pad_left(parent, LV_PART_MAIN) + border_width;
 2396              		.loc 1 740 5 is_stmt 1 view .LVU723
 2397              	.LBB165:
 2398              	.LBI165:
 103:Middlewares/LVGL/GUI/lvgl/src/core/lv_obj_style_gen.h **** {
 2399              		.loc 2 103 26 view .LVU724
 2400              	.LBB166:
 105:Middlewares/LVGL/GUI/lvgl/src/core/lv_obj_style_gen.h ****     return (lv_coord_t)v.num;
 2401              		.loc 2 105 5 view .LVU725
 105:Middlewares/LVGL/GUI/lvgl/src/core/lv_obj_style_gen.h ****     return (lv_coord_t)v.num;
 2402              		.loc 2 105 26 is_stmt 0 view .LVU726
 2403 00d0 41F61202 		movw	r2, #6162
 2404 00d4 0021     		movs	r1, #0
 2405 00d6 2046     		mov	r0, r4
 2406              	.LVL290:
 105:Middlewares/LVGL/GUI/lvgl/src/core/lv_obj_style_gen.h ****     return (lv_coord_t)v.num;
 2407              		.loc 2 105 26 view .LVU727
 2408 00d8 FFF7FEFF 		bl	lv_obj_get_style_prop
 2409              	.LVL291:
 106:Middlewares/LVGL/GUI/lvgl/src/core/lv_obj_style_gen.h **** }
 2410              		.loc 2 106 5 is_stmt 1 view .LVU728
 106:Middlewares/LVGL/GUI/lvgl/src/core/lv_obj_style_gen.h **** }
 2411              		.loc 2 106 5 is_stmt 0 view .LVU729
 2412              	.LBE166:
 2413              	.LBE165:
 2414              		.loc 1 740 16 view .LVU730
 2415 00dc 08EB000A 		add	r10, r8, r0
 2416              	.LVL292:
 741:Middlewares/LVGL/GUI/lvgl/src/core/lv_obj_scroll.c ****     lv_coord_t pright = lv_obj_get_style_pad_right(parent, LV_PART_MAIN) + border_width;
 2417              		.loc 1 741 5 is_stmt 1 view .LVU731
 2418              	.LBB167:
 2419              	.LBI167:
 109:Middlewares/LVGL/GUI/lvgl/src/core/lv_obj_style_gen.h **** {
 2420              		.loc 2 109 26 view .LVU732
 2421              	.LBB168:
 111:Middlewares/LVGL/GUI/lvgl/src/core/lv_obj_style_gen.h ****     return (lv_coord_t)v.num;
 2422              		.loc 2 111 5 view .LVU733
 111:Middlewares/LVGL/GUI/lvgl/src/core/lv_obj_style_gen.h ****     return (lv_coord_t)v.num;
 2423              		.loc 2 111 26 is_stmt 0 view .LVU734
 2424 00e0 41F61302 		movw	r2, #6163
ARM GAS  C:\Users\ADMINI~1\AppData\Local\Temp\cchMZgMB.s 			page 80


 2425 00e4 0021     		movs	r1, #0
 2426 00e6 2046     		mov	r0, r4
 2427 00e8 FFF7FEFF 		bl	lv_obj_get_style_prop
 2428              	.LVL293:
 112:Middlewares/LVGL/GUI/lvgl/src/core/lv_obj_style_gen.h **** }
 2429              		.loc 2 112 5 is_stmt 1 view .LVU735
 112:Middlewares/LVGL/GUI/lvgl/src/core/lv_obj_style_gen.h **** }
 2430              		.loc 2 112 5 is_stmt 0 view .LVU736
 2431              	.LBE168:
 2432              	.LBE167:
 2433              		.loc 1 741 16 view .LVU737
 2434 00ec 8044     		add	r8, r8, r0
 2435              	.LVL294:
 742:Middlewares/LVGL/GUI/lvgl/src/core/lv_obj_scroll.c ****     lv_coord_t left_diff = parent->coords.x1 + pleft - area_tmp->x1 - scroll_value->x;
 2436              		.loc 1 742 5 is_stmt 1 view .LVU738
 2437              		.loc 1 742 42 is_stmt 0 view .LVU739
 2438 00ee 6369     		ldr	r3, [r4, #20]
 2439              		.loc 1 742 46 view .LVU740
 2440 00f0 03EB0A09 		add	r9, r3, r10
 2441              		.loc 1 742 64 view .LVU741
 2442 00f4 3B68     		ldr	r3, [r7]
 2443              		.loc 1 742 54 view .LVU742
 2444 00f6 A9EB0309 		sub	r9, r9, r3
 2445              		.loc 1 742 83 view .LVU743
 2446 00fa 3268     		ldr	r2, [r6]
 2447              	.LVL295:
 743:Middlewares/LVGL/GUI/lvgl/src/core/lv_obj_scroll.c ****     lv_coord_t right_diff = -(parent->coords.x2 - pright - area_tmp->x2 - scroll_value->x);
 2448              		.loc 1 743 5 is_stmt 1 view .LVU744
 2449              		.loc 1 743 45 is_stmt 0 view .LVU745
 2450 00fc E369     		ldr	r3, [r4, #28]
 2451              		.loc 1 743 49 view .LVU746
 2452 00fe A3EB0803 		sub	r3, r3, r8
 2453              		.loc 1 743 68 view .LVU747
 2454 0102 B968     		ldr	r1, [r7, #8]
 2455              		.loc 1 743 58 view .LVU748
 2456 0104 5B1A     		subs	r3, r3, r1
 2457              		.loc 1 743 16 view .LVU749
 2458 0106 D11A     		subs	r1, r2, r3
 2459              	.LVL296:
 744:Middlewares/LVGL/GUI/lvgl/src/core/lv_obj_scroll.c ****     if((left_diff >= 0 && right_diff >= 0)) x_scroll = 0;
 2460              		.loc 1 744 5 is_stmt 1 view .LVU750
 2461              		.loc 1 744 7 is_stmt 0 view .LVU751
 2462 0108 B9EB0209 		subs	r9, r9, r2
 2463              	.LVL297:
 2464              		.loc 1 744 7 view .LVU752
 2465 010c 00F1A680 		bmi	.L142
 2466              		.loc 1 744 24 discriminator 1 view .LVU753
 2467 0110 0029     		cmp	r1, #0
 2468 0112 C0F2A380 		blt	.L142
 2469              		.loc 1 744 54 view .LVU754
 2470 0116 4FF00009 		mov	r9, #0
 2471              	.LVL298:
 2472              	.L143:
 745:Middlewares/LVGL/GUI/lvgl/src/core/lv_obj_scroll.c ****     else if(left_diff > 0) {
 746:Middlewares/LVGL/GUI/lvgl/src/core/lv_obj_scroll.c ****         x_scroll = left_diff;
 747:Middlewares/LVGL/GUI/lvgl/src/core/lv_obj_scroll.c ****         /*Do not let scrolling in*/
 748:Middlewares/LVGL/GUI/lvgl/src/core/lv_obj_scroll.c ****         lv_coord_t sl = lv_obj_get_scroll_left(parent);
ARM GAS  C:\Users\ADMINI~1\AppData\Local\Temp\cchMZgMB.s 			page 81


 749:Middlewares/LVGL/GUI/lvgl/src/core/lv_obj_scroll.c ****         if(sl + x_scroll > 0) x_scroll = 0;
 750:Middlewares/LVGL/GUI/lvgl/src/core/lv_obj_scroll.c ****     }
 751:Middlewares/LVGL/GUI/lvgl/src/core/lv_obj_scroll.c ****     else if(right_diff > 0) {
 752:Middlewares/LVGL/GUI/lvgl/src/core/lv_obj_scroll.c ****         x_scroll = -right_diff;
 753:Middlewares/LVGL/GUI/lvgl/src/core/lv_obj_scroll.c ****         /*Do not let scrolling in*/
 754:Middlewares/LVGL/GUI/lvgl/src/core/lv_obj_scroll.c ****         lv_coord_t sr = lv_obj_get_scroll_right(parent);
 755:Middlewares/LVGL/GUI/lvgl/src/core/lv_obj_scroll.c ****         if(sr + x_scroll < 0) x_scroll = 0;
 756:Middlewares/LVGL/GUI/lvgl/src/core/lv_obj_scroll.c ****     }
 757:Middlewares/LVGL/GUI/lvgl/src/core/lv_obj_scroll.c **** 
 758:Middlewares/LVGL/GUI/lvgl/src/core/lv_obj_scroll.c ****     lv_coord_t parent_w = lv_obj_get_width(parent) - pleft - pright;
 2473              		.loc 1 758 5 is_stmt 1 view .LVU755
 2474              		.loc 1 758 27 is_stmt 0 view .LVU756
 2475 011a 2046     		mov	r0, r4
 2476 011c FFF7FEFF 		bl	lv_obj_get_width
 2477              	.LVL299:
 2478              		.loc 1 758 52 view .LVU757
 2479 0120 A0EB0A00 		sub	r0, r0, r10
 2480              		.loc 1 758 16 view .LVU758
 2481 0124 A0EB0800 		sub	r0, r0, r8
 2482              	.LVL300:
 759:Middlewares/LVGL/GUI/lvgl/src/core/lv_obj_scroll.c ****     switch(snap_x) {
 2483              		.loc 1 759 5 is_stmt 1 view .LVU759
 2484 0128 BBF1020F 		cmp	fp, #2
 2485 012c 00F0BD80 		beq	.L145
 2486 0130 BBF1030F 		cmp	fp, #3
 2487 0134 00F0C280 		beq	.L146
 2488 0138 BBF1010F 		cmp	fp, #1
 2489 013c 00F0AC80 		beq	.L173
 2490              	.LVL301:
 2491              	.L147:
 760:Middlewares/LVGL/GUI/lvgl/src/core/lv_obj_scroll.c ****         case LV_SCROLL_SNAP_START:
 761:Middlewares/LVGL/GUI/lvgl/src/core/lv_obj_scroll.c ****             snap_goal = parent->coords.x1 + pleft;
 762:Middlewares/LVGL/GUI/lvgl/src/core/lv_obj_scroll.c ****             act = area_tmp->x1 + x_scroll;
 763:Middlewares/LVGL/GUI/lvgl/src/core/lv_obj_scroll.c ****             x_scroll += snap_goal - act;
 764:Middlewares/LVGL/GUI/lvgl/src/core/lv_obj_scroll.c ****             break;
 765:Middlewares/LVGL/GUI/lvgl/src/core/lv_obj_scroll.c ****         case LV_SCROLL_SNAP_END:
 766:Middlewares/LVGL/GUI/lvgl/src/core/lv_obj_scroll.c ****             snap_goal = parent->coords.x2 - pright;
 767:Middlewares/LVGL/GUI/lvgl/src/core/lv_obj_scroll.c ****             act = area_tmp->x2 + x_scroll;
 768:Middlewares/LVGL/GUI/lvgl/src/core/lv_obj_scroll.c ****             x_scroll += snap_goal - act;
 769:Middlewares/LVGL/GUI/lvgl/src/core/lv_obj_scroll.c ****             break;
 770:Middlewares/LVGL/GUI/lvgl/src/core/lv_obj_scroll.c ****         case LV_SCROLL_SNAP_CENTER:
 771:Middlewares/LVGL/GUI/lvgl/src/core/lv_obj_scroll.c ****             snap_goal = parent->coords.x1 + pleft + parent_w / 2;
 772:Middlewares/LVGL/GUI/lvgl/src/core/lv_obj_scroll.c ****             act = lv_area_get_width(area_tmp) / 2 + area_tmp->x1 + x_scroll;
 773:Middlewares/LVGL/GUI/lvgl/src/core/lv_obj_scroll.c ****             x_scroll += snap_goal - act;
 774:Middlewares/LVGL/GUI/lvgl/src/core/lv_obj_scroll.c ****             break;
 775:Middlewares/LVGL/GUI/lvgl/src/core/lv_obj_scroll.c ****     }
 776:Middlewares/LVGL/GUI/lvgl/src/core/lv_obj_scroll.c **** 
 777:Middlewares/LVGL/GUI/lvgl/src/core/lv_obj_scroll.c ****     /*Remove any pending scroll animations.*/
 778:Middlewares/LVGL/GUI/lvgl/src/core/lv_obj_scroll.c ****     bool y_del = lv_anim_del(parent, scroll_y_anim);
 2492              		.loc 1 778 5 view .LVU760
 2493              		.loc 1 778 18 is_stmt 0 view .LVU761
 2494 0140 6C49     		ldr	r1, .L179
 2495 0142 2046     		mov	r0, r4
 2496 0144 FFF7FEFF 		bl	lv_anim_del
 2497              	.LVL302:
 2498 0148 0746     		mov	r7, r0
 2499              	.LVL303:
ARM GAS  C:\Users\ADMINI~1\AppData\Local\Temp\cchMZgMB.s 			page 82


 779:Middlewares/LVGL/GUI/lvgl/src/core/lv_obj_scroll.c ****     bool x_del = lv_anim_del(parent, scroll_x_anim);
 2500              		.loc 1 779 5 is_stmt 1 view .LVU762
 2501              		.loc 1 779 18 is_stmt 0 view .LVU763
 2502 014a 6B49     		ldr	r1, .L179+4
 2503 014c 2046     		mov	r0, r4
 2504 014e FFF7FEFF 		bl	lv_anim_del
 2505              	.LVL304:
 780:Middlewares/LVGL/GUI/lvgl/src/core/lv_obj_scroll.c ****     if(y_del || x_del) {
 2506              		.loc 1 780 5 is_stmt 1 view .LVU764
 2507              		.loc 1 780 7 is_stmt 0 view .LVU765
 2508 0152 07B9     		cbnz	r7, .L148
 2509              		.loc 1 780 14 discriminator 1 view .LVU766
 2510 0154 30B1     		cbz	r0, .L149
 2511              	.L148:
 2512              	.LBB169:
 781:Middlewares/LVGL/GUI/lvgl/src/core/lv_obj_scroll.c ****         lv_res_t res;
 2513              		.loc 1 781 9 is_stmt 1 view .LVU767
 782:Middlewares/LVGL/GUI/lvgl/src/core/lv_obj_scroll.c ****         res = lv_event_send(parent, LV_EVENT_SCROLL_END, NULL);
 2514              		.loc 1 782 9 view .LVU768
 2515              		.loc 1 782 15 is_stmt 0 view .LVU769
 2516 0156 0022     		movs	r2, #0
 2517 0158 0A21     		movs	r1, #10
 2518 015a 2046     		mov	r0, r4
 2519              	.LVL305:
 2520              		.loc 1 782 15 view .LVU770
 2521 015c FFF7FEFF 		bl	lv_event_send
 2522              	.LVL306:
 783:Middlewares/LVGL/GUI/lvgl/src/core/lv_obj_scroll.c ****         if(res != LV_RES_OK) return;
 2523              		.loc 1 783 9 is_stmt 1 view .LVU771
 2524              		.loc 1 783 11 is_stmt 0 view .LVU772
 2525 0160 0128     		cmp	r0, #1
 2526 0162 34D1     		bne	.L132
 2527              	.LVL307:
 2528              	.L149:
 2529              		.loc 1 783 11 view .LVU773
 2530              	.LBE169:
 784:Middlewares/LVGL/GUI/lvgl/src/core/lv_obj_scroll.c ****     }
 785:Middlewares/LVGL/GUI/lvgl/src/core/lv_obj_scroll.c **** 
 786:Middlewares/LVGL/GUI/lvgl/src/core/lv_obj_scroll.c ****     if((scroll_dir & LV_DIR_LEFT) == 0 && x_scroll < 0) x_scroll = 0;
 2531              		.loc 1 786 5 is_stmt 1 view .LVU774
 2532              		.loc 1 786 7 is_stmt 0 view .LVU775
 2533 0164 009B     		ldr	r3, [sp]
 2534 0166 13F0010F 		tst	r3, #1
 2535 016a 03D1     		bne	.L150
 2536              		.loc 1 786 40 discriminator 1 view .LVU776
 2537 016c B9F1000F 		cmp	r9, #0
 2538 0170 C0F2B680 		blt	.L174
 2539              	.LVL308:
 2540              	.L150:
 787:Middlewares/LVGL/GUI/lvgl/src/core/lv_obj_scroll.c ****     if((scroll_dir & LV_DIR_RIGHT) == 0 && x_scroll > 0) x_scroll = 0;
 2541              		.loc 1 787 5 is_stmt 1 view .LVU777
 2542              		.loc 1 787 7 is_stmt 0 view .LVU778
 2543 0174 009B     		ldr	r3, [sp]
 2544 0176 13F0020F 		tst	r3, #2
 2545 017a 04D1     		bne	.L151
 2546              		.loc 1 787 41 discriminator 1 view .LVU779
 2547 017c B9F1000F 		cmp	r9, #0
ARM GAS  C:\Users\ADMINI~1\AppData\Local\Temp\cchMZgMB.s 			page 83


 2548 0180 01DD     		ble	.L151
 2549              		.loc 1 787 67 view .LVU780
 2550 0182 4FF00009 		mov	r9, #0
 2551              	.LVL309:
 2552              	.L151:
 788:Middlewares/LVGL/GUI/lvgl/src/core/lv_obj_scroll.c ****     if((scroll_dir & LV_DIR_TOP) == 0 && y_scroll < 0) y_scroll = 0;
 2553              		.loc 1 788 5 is_stmt 1 view .LVU781
 2554              		.loc 1 788 7 is_stmt 0 view .LVU782
 2555 0186 009B     		ldr	r3, [sp]
 2556 0188 13F0040F 		tst	r3, #4
 2557 018c 02D1     		bne	.L152
 2558              		.loc 1 788 39 discriminator 1 view .LVU783
 2559 018e 002D     		cmp	r5, #0
 2560 0190 C0F2A980 		blt	.L175
 2561              	.LVL310:
 2562              	.L152:
 789:Middlewares/LVGL/GUI/lvgl/src/core/lv_obj_scroll.c ****     if((scroll_dir & LV_DIR_BOTTOM) == 0 && y_scroll > 0) y_scroll = 0;
 2563              		.loc 1 789 5 is_stmt 1 view .LVU784
 2564              		.loc 1 789 7 is_stmt 0 view .LVU785
 2565 0194 009B     		ldr	r3, [sp]
 2566 0196 13F0080F 		tst	r3, #8
 2567 019a 02D1     		bne	.L153
 2568              		.loc 1 789 42 discriminator 1 view .LVU786
 2569 019c 002D     		cmp	r5, #0
 2570 019e 00DD     		ble	.L153
 2571              		.loc 1 789 68 view .LVU787
 2572 01a0 0025     		movs	r5, #0
 2573              	.LVL311:
 2574              	.L153:
 790:Middlewares/LVGL/GUI/lvgl/src/core/lv_obj_scroll.c **** 
 791:Middlewares/LVGL/GUI/lvgl/src/core/lv_obj_scroll.c ****     scroll_value->x += anim_en == LV_ANIM_OFF ? 0 : x_scroll;
 2575              		.loc 1 791 5 is_stmt 1 view .LVU788
 2576              		.loc 1 791 21 is_stmt 0 view .LVU789
 2577 01a2 3368     		ldr	r3, [r6]
 2578              		.loc 1 791 51 view .LVU790
 2579 01a4 019A     		ldr	r2, [sp, #4]
 2580 01a6 002A     		cmp	r2, #0
 2581 01a8 00F09F80 		beq	.L169
 2582 01ac 4A46     		mov	r2, r9
 2583              	.L154:
 2584              		.loc 1 791 21 discriminator 4 view .LVU791
 2585 01ae 1344     		add	r3, r3, r2
 2586 01b0 3360     		str	r3, [r6]
 792:Middlewares/LVGL/GUI/lvgl/src/core/lv_obj_scroll.c ****     scroll_value->y += anim_en == LV_ANIM_OFF ? 0 : y_scroll;
 2587              		.loc 1 792 5 is_stmt 1 discriminator 4 view .LVU792
 2588              		.loc 1 792 21 is_stmt 0 discriminator 4 view .LVU793
 2589 01b2 7368     		ldr	r3, [r6, #4]
 2590              		.loc 1 792 51 discriminator 4 view .LVU794
 2591 01b4 019A     		ldr	r2, [sp, #4]
 2592 01b6 002A     		cmp	r2, #0
 2593 01b8 00F09980 		beq	.L170
 2594              		.loc 1 792 51 view .LVU795
 2595 01bc 2A46     		mov	r2, r5
 2596              	.L155:
 2597              		.loc 1 792 21 discriminator 4 view .LVU796
 2598 01be 1344     		add	r3, r3, r2
 2599 01c0 7360     		str	r3, [r6, #4]
ARM GAS  C:\Users\ADMINI~1\AppData\Local\Temp\cchMZgMB.s 			page 84


 793:Middlewares/LVGL/GUI/lvgl/src/core/lv_obj_scroll.c ****     lv_obj_scroll_by(parent, x_scroll, y_scroll, anim_en);
 2600              		.loc 1 793 5 is_stmt 1 discriminator 4 view .LVU797
 2601 01c2 019B     		ldr	r3, [sp, #4]
 2602 01c4 2A46     		mov	r2, r5
 2603 01c6 4946     		mov	r1, r9
 2604 01c8 2046     		mov	r0, r4
 2605 01ca FFF7FEFF 		bl	lv_obj_scroll_by
 2606              	.LVL312:
 2607              	.L132:
 794:Middlewares/LVGL/GUI/lvgl/src/core/lv_obj_scroll.c **** }
 2608              		.loc 1 794 1 is_stmt 0 view .LVU798
 2609 01ce 09B0     		add	sp, sp, #36
 2610              	.LCFI19:
 2611              		.cfi_remember_state
 2612              		.cfi_def_cfa_offset 36
 2613              		@ sp needed
 2614 01d0 BDE8F08F 		pop	{r4, r5, r6, r7, r8, r9, r10, fp, pc}
 2615              	.LVL313:
 2616              	.L135:
 2617              	.LCFI20:
 2618              		.cfi_restore_state
 704:Middlewares/LVGL/GUI/lvgl/src/core/lv_obj_scroll.c ****         y_scroll = top_diff;
 2619              		.loc 1 704 10 is_stmt 1 view .LVU799
 704:Middlewares/LVGL/GUI/lvgl/src/core/lv_obj_scroll.c ****         y_scroll = top_diff;
 2620              		.loc 1 704 12 is_stmt 0 view .LVU800
 2621 01d4 002D     		cmp	r5, #0
 2622 01d6 08DD     		ble	.L137
 2623              	.LBB170:
 705:Middlewares/LVGL/GUI/lvgl/src/core/lv_obj_scroll.c ****         /*Do not let scrolling in*/
 2624              		.loc 1 705 9 is_stmt 1 view .LVU801
 2625              	.LVL314:
 707:Middlewares/LVGL/GUI/lvgl/src/core/lv_obj_scroll.c ****         if(st - y_scroll < 0) y_scroll = 0;
 2626              		.loc 1 707 9 view .LVU802
 707:Middlewares/LVGL/GUI/lvgl/src/core/lv_obj_scroll.c ****         if(st - y_scroll < 0) y_scroll = 0;
 2627              		.loc 1 707 25 is_stmt 0 view .LVU803
 2628 01d8 2046     		mov	r0, r4
 2629 01da FFF7FEFF 		bl	lv_obj_get_scroll_top
 2630              	.LVL315:
 708:Middlewares/LVGL/GUI/lvgl/src/core/lv_obj_scroll.c ****     }
 2631              		.loc 1 708 9 is_stmt 1 view .LVU804
 708:Middlewares/LVGL/GUI/lvgl/src/core/lv_obj_scroll.c ****     }
 2632              		.loc 1 708 15 is_stmt 0 view .LVU805
 2633 01de 401B     		subs	r0, r0, r5
 2634              	.LVL316:
 708:Middlewares/LVGL/GUI/lvgl/src/core/lv_obj_scroll.c ****     }
 2635              		.loc 1 708 11 view .LVU806
 2636 01e0 0028     		cmp	r0, #0
 2637 01e2 BFF664AF 		bge	.L136
 708:Middlewares/LVGL/GUI/lvgl/src/core/lv_obj_scroll.c ****     }
 2638              		.loc 1 708 40 view .LVU807
 2639 01e6 0025     		movs	r5, #0
 2640              	.LVL317:
 708:Middlewares/LVGL/GUI/lvgl/src/core/lv_obj_scroll.c ****     }
 2641              		.loc 1 708 40 view .LVU808
 2642 01e8 61E7     		b	.L136
 2643              	.LVL318:
 2644              	.L137:
ARM GAS  C:\Users\ADMINI~1\AppData\Local\Temp\cchMZgMB.s 			page 85


 708:Middlewares/LVGL/GUI/lvgl/src/core/lv_obj_scroll.c ****     }
 2645              		.loc 1 708 40 view .LVU809
 2646              	.LBE170:
 710:Middlewares/LVGL/GUI/lvgl/src/core/lv_obj_scroll.c ****         y_scroll = -bottom_diff;
 2647              		.loc 1 710 10 is_stmt 1 view .LVU810
 710:Middlewares/LVGL/GUI/lvgl/src/core/lv_obj_scroll.c ****         y_scroll = -bottom_diff;
 2648              		.loc 1 710 12 is_stmt 0 view .LVU811
 2649 01ea 049B     		ldr	r3, [sp, #16]
 2650 01ec 002B     		cmp	r3, #0
 2651 01ee 01DC     		bgt	.L176
 692:Middlewares/LVGL/GUI/lvgl/src/core/lv_obj_scroll.c ****     lv_scroll_snap_t snap_y = lv_obj_get_scroll_snap_y(parent);
 2652              		.loc 1 692 16 view .LVU812
 2653 01f0 0025     		movs	r5, #0
 2654              	.LVL319:
 692:Middlewares/LVGL/GUI/lvgl/src/core/lv_obj_scroll.c ****     lv_scroll_snap_t snap_y = lv_obj_get_scroll_snap_y(parent);
 2655              		.loc 1 692 16 view .LVU813
 2656 01f2 5CE7     		b	.L136
 2657              	.LVL320:
 2658              	.L176:
 2659              	.LBB171:
 711:Middlewares/LVGL/GUI/lvgl/src/core/lv_obj_scroll.c ****         /*Do not let scrolling in*/
 2660              		.loc 1 711 9 is_stmt 1 view .LVU814
 711:Middlewares/LVGL/GUI/lvgl/src/core/lv_obj_scroll.c ****         /*Do not let scrolling in*/
 2661              		.loc 1 711 18 is_stmt 0 view .LVU815
 2662 01f4 079B     		ldr	r3, [sp, #28]
 2663 01f6 069A     		ldr	r2, [sp, #24]
 2664              	.LVL321:
 711:Middlewares/LVGL/GUI/lvgl/src/core/lv_obj_scroll.c ****         /*Do not let scrolling in*/
 2665              		.loc 1 711 18 view .LVU816
 2666 01f8 9D1A     		subs	r5, r3, r2
 2667              	.LVL322:
 713:Middlewares/LVGL/GUI/lvgl/src/core/lv_obj_scroll.c ****         if(sb + y_scroll < 0) y_scroll = 0;
 2668              		.loc 1 713 9 is_stmt 1 view .LVU817
 713:Middlewares/LVGL/GUI/lvgl/src/core/lv_obj_scroll.c ****         if(sb + y_scroll < 0) y_scroll = 0;
 2669              		.loc 1 713 25 is_stmt 0 view .LVU818
 2670 01fa 2046     		mov	r0, r4
 2671 01fc FFF7FEFF 		bl	lv_obj_get_scroll_bottom
 2672              	.LVL323:
 714:Middlewares/LVGL/GUI/lvgl/src/core/lv_obj_scroll.c ****     }
 2673              		.loc 1 714 9 is_stmt 1 view .LVU819
 714:Middlewares/LVGL/GUI/lvgl/src/core/lv_obj_scroll.c ****     }
 2674              		.loc 1 714 11 is_stmt 0 view .LVU820
 2675 0200 C542     		cmn	r5, r0
 2676 0202 7FF554AF 		bpl	.L136
 714:Middlewares/LVGL/GUI/lvgl/src/core/lv_obj_scroll.c ****     }
 2677              		.loc 1 714 40 view .LVU821
 2678 0206 0025     		movs	r5, #0
 2679              	.LVL324:
 714:Middlewares/LVGL/GUI/lvgl/src/core/lv_obj_scroll.c ****     }
 2680              		.loc 1 714 40 view .LVU822
 2681 0208 51E7     		b	.L136
 2682              	.LVL325:
 2683              	.L172:
 714:Middlewares/LVGL/GUI/lvgl/src/core/lv_obj_scroll.c ****     }
 2684              		.loc 1 714 40 view .LVU823
 2685              	.LBE171:
 719:Middlewares/LVGL/GUI/lvgl/src/core/lv_obj_scroll.c ****             act = area_tmp->y1 + y_scroll;
ARM GAS  C:\Users\ADMINI~1\AppData\Local\Temp\cchMZgMB.s 			page 86


 2686              		.loc 1 719 13 is_stmt 1 view .LVU824
 719:Middlewares/LVGL/GUI/lvgl/src/core/lv_obj_scroll.c ****             act = area_tmp->y1 + y_scroll;
 2687              		.loc 1 719 39 is_stmt 0 view .LVU825
 2688 020a A369     		ldr	r3, [r4, #24]
 719:Middlewares/LVGL/GUI/lvgl/src/core/lv_obj_scroll.c ****             act = area_tmp->y1 + y_scroll;
 2689              		.loc 1 719 23 view .LVU826
 2690 020c 4B44     		add	r3, r3, r9
 2691              	.LVL326:
 720:Middlewares/LVGL/GUI/lvgl/src/core/lv_obj_scroll.c ****             y_scroll += snap_goal - act;
 2692              		.loc 1 720 13 is_stmt 1 view .LVU827
 720:Middlewares/LVGL/GUI/lvgl/src/core/lv_obj_scroll.c ****             y_scroll += snap_goal - act;
 2693              		.loc 1 720 27 is_stmt 0 view .LVU828
 2694 020e DAF80420 		ldr	r2, [r10, #4]
 720:Middlewares/LVGL/GUI/lvgl/src/core/lv_obj_scroll.c ****             y_scroll += snap_goal - act;
 2695              		.loc 1 720 17 view .LVU829
 2696 0212 02EB0509 		add	r9, r2, r5
 2697              	.LVL327:
 721:Middlewares/LVGL/GUI/lvgl/src/core/lv_obj_scroll.c ****             break;
 2698              		.loc 1 721 13 is_stmt 1 view .LVU830
 721:Middlewares/LVGL/GUI/lvgl/src/core/lv_obj_scroll.c ****             break;
 2699              		.loc 1 721 35 is_stmt 0 view .LVU831
 2700 0216 A3EB0903 		sub	r3, r3, r9
 2701              	.LVL328:
 721:Middlewares/LVGL/GUI/lvgl/src/core/lv_obj_scroll.c ****             break;
 2702              		.loc 1 721 22 view .LVU832
 2703 021a 1D44     		add	r5, r5, r3
 2704              	.LVL329:
 722:Middlewares/LVGL/GUI/lvgl/src/core/lv_obj_scroll.c ****         case LV_SCROLL_SNAP_END:
 2705              		.loc 1 722 13 is_stmt 1 view .LVU833
 2706 021c 51E7     		b	.L140
 2707              	.LVL330:
 2708              	.L138:
 724:Middlewares/LVGL/GUI/lvgl/src/core/lv_obj_scroll.c ****             act = area_tmp->y2 + y_scroll;
 2709              		.loc 1 724 13 view .LVU834
 724:Middlewares/LVGL/GUI/lvgl/src/core/lv_obj_scroll.c ****             act = area_tmp->y2 + y_scroll;
 2710              		.loc 1 724 39 is_stmt 0 view .LVU835
 2711 021e 236A     		ldr	r3, [r4, #32]
 724:Middlewares/LVGL/GUI/lvgl/src/core/lv_obj_scroll.c ****             act = area_tmp->y2 + y_scroll;
 2712              		.loc 1 724 23 view .LVU836
 2713 0220 A3EB0B03 		sub	r3, r3, fp
 2714              	.LVL331:
 725:Middlewares/LVGL/GUI/lvgl/src/core/lv_obj_scroll.c ****             y_scroll += snap_goal - act;
 2715              		.loc 1 725 13 is_stmt 1 view .LVU837
 725:Middlewares/LVGL/GUI/lvgl/src/core/lv_obj_scroll.c ****             y_scroll += snap_goal - act;
 2716              		.loc 1 725 27 is_stmt 0 view .LVU838
 2717 0224 DAF80C20 		ldr	r2, [r10, #12]
 725:Middlewares/LVGL/GUI/lvgl/src/core/lv_obj_scroll.c ****             y_scroll += snap_goal - act;
 2718              		.loc 1 725 17 view .LVU839
 2719 0228 2A44     		add	r2, r2, r5
 2720              	.LVL332:
 726:Middlewares/LVGL/GUI/lvgl/src/core/lv_obj_scroll.c ****             break;
 2721              		.loc 1 726 13 is_stmt 1 view .LVU840
 726:Middlewares/LVGL/GUI/lvgl/src/core/lv_obj_scroll.c ****             break;
 2722              		.loc 1 726 35 is_stmt 0 view .LVU841
 2723 022a 9B1A     		subs	r3, r3, r2
 2724              	.LVL333:
 726:Middlewares/LVGL/GUI/lvgl/src/core/lv_obj_scroll.c ****             break;
ARM GAS  C:\Users\ADMINI~1\AppData\Local\Temp\cchMZgMB.s 			page 87


 2725              		.loc 1 726 22 view .LVU842
 2726 022c 1D44     		add	r5, r5, r3
 2727              	.LVL334:
 727:Middlewares/LVGL/GUI/lvgl/src/core/lv_obj_scroll.c ****         case LV_SCROLL_SNAP_CENTER:
 2728              		.loc 1 727 13 is_stmt 1 view .LVU843
 2729 022e 48E7     		b	.L140
 2730              	.LVL335:
 2731              	.L139:
 729:Middlewares/LVGL/GUI/lvgl/src/core/lv_obj_scroll.c ****             act = lv_area_get_height(area_tmp) / 2 + area_tmp->y1 + y_scroll;
 2732              		.loc 1 729 13 view .LVU844
 729:Middlewares/LVGL/GUI/lvgl/src/core/lv_obj_scroll.c ****             act = lv_area_get_height(area_tmp) / 2 + area_tmp->y1 + y_scroll;
 2733              		.loc 1 729 39 is_stmt 0 view .LVU845
 2734 0230 A369     		ldr	r3, [r4, #24]
 729:Middlewares/LVGL/GUI/lvgl/src/core/lv_obj_scroll.c ****             act = lv_area_get_height(area_tmp) / 2 + area_tmp->y1 + y_scroll;
 2735              		.loc 1 729 43 view .LVU846
 2736 0232 9944     		add	r9, r9, r3
 2737              	.LVL336:
 729:Middlewares/LVGL/GUI/lvgl/src/core/lv_obj_scroll.c ****             act = lv_area_get_height(area_tmp) / 2 + area_tmp->y1 + y_scroll;
 2738              		.loc 1 729 61 view .LVU847
 2739 0234 059B     		ldr	r3, [sp, #20]
 2740 0236 03EBD370 		add	r0, r3, r3, lsr #31
 729:Middlewares/LVGL/GUI/lvgl/src/core/lv_obj_scroll.c ****             act = lv_area_get_height(area_tmp) / 2 + area_tmp->y1 + y_scroll;
 2741              		.loc 1 729 23 view .LVU848
 2742 023a 09EB6009 		add	r9, r9, r0, asr #1
 2743              	.LVL337:
 730:Middlewares/LVGL/GUI/lvgl/src/core/lv_obj_scroll.c ****             y_scroll += snap_goal - act;
 2744              		.loc 1 730 13 is_stmt 1 view .LVU849
 2745              	.LBB172:
 2746              	.LBI172:
 2747              		.file 4 "Middlewares/LVGL/GUI/lvgl/src/core/../misc/lv_area.h"
   1:Middlewares/LVGL/GUI/lvgl/src/core/../misc/lv_area.h **** /**
   2:Middlewares/LVGL/GUI/lvgl/src/core/../misc/lv_area.h ****  * @file lv_area.h
   3:Middlewares/LVGL/GUI/lvgl/src/core/../misc/lv_area.h ****  *
   4:Middlewares/LVGL/GUI/lvgl/src/core/../misc/lv_area.h ****  */
   5:Middlewares/LVGL/GUI/lvgl/src/core/../misc/lv_area.h **** 
   6:Middlewares/LVGL/GUI/lvgl/src/core/../misc/lv_area.h **** #ifndef LV_AREA_H
   7:Middlewares/LVGL/GUI/lvgl/src/core/../misc/lv_area.h **** #define LV_AREA_H
   8:Middlewares/LVGL/GUI/lvgl/src/core/../misc/lv_area.h **** 
   9:Middlewares/LVGL/GUI/lvgl/src/core/../misc/lv_area.h **** #ifdef __cplusplus
  10:Middlewares/LVGL/GUI/lvgl/src/core/../misc/lv_area.h **** extern "C" {
  11:Middlewares/LVGL/GUI/lvgl/src/core/../misc/lv_area.h **** #endif
  12:Middlewares/LVGL/GUI/lvgl/src/core/../misc/lv_area.h **** 
  13:Middlewares/LVGL/GUI/lvgl/src/core/../misc/lv_area.h **** /*********************
  14:Middlewares/LVGL/GUI/lvgl/src/core/../misc/lv_area.h ****  *      INCLUDES
  15:Middlewares/LVGL/GUI/lvgl/src/core/../misc/lv_area.h ****  *********************/
  16:Middlewares/LVGL/GUI/lvgl/src/core/../misc/lv_area.h **** #include "../lv_conf_internal.h"
  17:Middlewares/LVGL/GUI/lvgl/src/core/../misc/lv_area.h **** #include <stdbool.h>
  18:Middlewares/LVGL/GUI/lvgl/src/core/../misc/lv_area.h **** #include <stdint.h>
  19:Middlewares/LVGL/GUI/lvgl/src/core/../misc/lv_area.h **** 
  20:Middlewares/LVGL/GUI/lvgl/src/core/../misc/lv_area.h **** /*********************
  21:Middlewares/LVGL/GUI/lvgl/src/core/../misc/lv_area.h ****  *      DEFINES
  22:Middlewares/LVGL/GUI/lvgl/src/core/../misc/lv_area.h ****  *********************/
  23:Middlewares/LVGL/GUI/lvgl/src/core/../misc/lv_area.h **** 
  24:Middlewares/LVGL/GUI/lvgl/src/core/../misc/lv_area.h **** #if LV_USE_LARGE_COORD
  25:Middlewares/LVGL/GUI/lvgl/src/core/../misc/lv_area.h **** typedef int32_t lv_coord_t;
  26:Middlewares/LVGL/GUI/lvgl/src/core/../misc/lv_area.h **** #else
  27:Middlewares/LVGL/GUI/lvgl/src/core/../misc/lv_area.h **** typedef int16_t lv_coord_t;
ARM GAS  C:\Users\ADMINI~1\AppData\Local\Temp\cchMZgMB.s 			page 88


  28:Middlewares/LVGL/GUI/lvgl/src/core/../misc/lv_area.h **** #endif
  29:Middlewares/LVGL/GUI/lvgl/src/core/../misc/lv_area.h **** 
  30:Middlewares/LVGL/GUI/lvgl/src/core/../misc/lv_area.h **** /**********************
  31:Middlewares/LVGL/GUI/lvgl/src/core/../misc/lv_area.h ****  *      TYPEDEFS
  32:Middlewares/LVGL/GUI/lvgl/src/core/../misc/lv_area.h ****  **********************/
  33:Middlewares/LVGL/GUI/lvgl/src/core/../misc/lv_area.h **** 
  34:Middlewares/LVGL/GUI/lvgl/src/core/../misc/lv_area.h **** /**
  35:Middlewares/LVGL/GUI/lvgl/src/core/../misc/lv_area.h ****  * Represents a point on the screen.
  36:Middlewares/LVGL/GUI/lvgl/src/core/../misc/lv_area.h ****  */
  37:Middlewares/LVGL/GUI/lvgl/src/core/../misc/lv_area.h **** typedef struct {
  38:Middlewares/LVGL/GUI/lvgl/src/core/../misc/lv_area.h ****     lv_coord_t x;
  39:Middlewares/LVGL/GUI/lvgl/src/core/../misc/lv_area.h ****     lv_coord_t y;
  40:Middlewares/LVGL/GUI/lvgl/src/core/../misc/lv_area.h **** } lv_point_t;
  41:Middlewares/LVGL/GUI/lvgl/src/core/../misc/lv_area.h **** 
  42:Middlewares/LVGL/GUI/lvgl/src/core/../misc/lv_area.h **** /** Represents an area of the screen.*/
  43:Middlewares/LVGL/GUI/lvgl/src/core/../misc/lv_area.h **** typedef struct {
  44:Middlewares/LVGL/GUI/lvgl/src/core/../misc/lv_area.h ****     lv_coord_t x1;
  45:Middlewares/LVGL/GUI/lvgl/src/core/../misc/lv_area.h ****     lv_coord_t y1;
  46:Middlewares/LVGL/GUI/lvgl/src/core/../misc/lv_area.h ****     lv_coord_t x2;
  47:Middlewares/LVGL/GUI/lvgl/src/core/../misc/lv_area.h ****     lv_coord_t y2;
  48:Middlewares/LVGL/GUI/lvgl/src/core/../misc/lv_area.h **** } lv_area_t;
  49:Middlewares/LVGL/GUI/lvgl/src/core/../misc/lv_area.h **** 
  50:Middlewares/LVGL/GUI/lvgl/src/core/../misc/lv_area.h **** /** Alignments*/
  51:Middlewares/LVGL/GUI/lvgl/src/core/../misc/lv_area.h **** enum {
  52:Middlewares/LVGL/GUI/lvgl/src/core/../misc/lv_area.h ****     LV_ALIGN_DEFAULT = 0,
  53:Middlewares/LVGL/GUI/lvgl/src/core/../misc/lv_area.h ****     LV_ALIGN_TOP_LEFT,
  54:Middlewares/LVGL/GUI/lvgl/src/core/../misc/lv_area.h ****     LV_ALIGN_TOP_MID,
  55:Middlewares/LVGL/GUI/lvgl/src/core/../misc/lv_area.h ****     LV_ALIGN_TOP_RIGHT,
  56:Middlewares/LVGL/GUI/lvgl/src/core/../misc/lv_area.h ****     LV_ALIGN_BOTTOM_LEFT,
  57:Middlewares/LVGL/GUI/lvgl/src/core/../misc/lv_area.h ****     LV_ALIGN_BOTTOM_MID,
  58:Middlewares/LVGL/GUI/lvgl/src/core/../misc/lv_area.h ****     LV_ALIGN_BOTTOM_RIGHT,
  59:Middlewares/LVGL/GUI/lvgl/src/core/../misc/lv_area.h ****     LV_ALIGN_LEFT_MID,
  60:Middlewares/LVGL/GUI/lvgl/src/core/../misc/lv_area.h ****     LV_ALIGN_RIGHT_MID,
  61:Middlewares/LVGL/GUI/lvgl/src/core/../misc/lv_area.h ****     LV_ALIGN_CENTER,
  62:Middlewares/LVGL/GUI/lvgl/src/core/../misc/lv_area.h **** 
  63:Middlewares/LVGL/GUI/lvgl/src/core/../misc/lv_area.h ****     LV_ALIGN_OUT_TOP_LEFT,
  64:Middlewares/LVGL/GUI/lvgl/src/core/../misc/lv_area.h ****     LV_ALIGN_OUT_TOP_MID,
  65:Middlewares/LVGL/GUI/lvgl/src/core/../misc/lv_area.h ****     LV_ALIGN_OUT_TOP_RIGHT,
  66:Middlewares/LVGL/GUI/lvgl/src/core/../misc/lv_area.h ****     LV_ALIGN_OUT_BOTTOM_LEFT,
  67:Middlewares/LVGL/GUI/lvgl/src/core/../misc/lv_area.h ****     LV_ALIGN_OUT_BOTTOM_MID,
  68:Middlewares/LVGL/GUI/lvgl/src/core/../misc/lv_area.h ****     LV_ALIGN_OUT_BOTTOM_RIGHT,
  69:Middlewares/LVGL/GUI/lvgl/src/core/../misc/lv_area.h ****     LV_ALIGN_OUT_LEFT_TOP,
  70:Middlewares/LVGL/GUI/lvgl/src/core/../misc/lv_area.h ****     LV_ALIGN_OUT_LEFT_MID,
  71:Middlewares/LVGL/GUI/lvgl/src/core/../misc/lv_area.h ****     LV_ALIGN_OUT_LEFT_BOTTOM,
  72:Middlewares/LVGL/GUI/lvgl/src/core/../misc/lv_area.h ****     LV_ALIGN_OUT_RIGHT_TOP,
  73:Middlewares/LVGL/GUI/lvgl/src/core/../misc/lv_area.h ****     LV_ALIGN_OUT_RIGHT_MID,
  74:Middlewares/LVGL/GUI/lvgl/src/core/../misc/lv_area.h ****     LV_ALIGN_OUT_RIGHT_BOTTOM,
  75:Middlewares/LVGL/GUI/lvgl/src/core/../misc/lv_area.h **** };
  76:Middlewares/LVGL/GUI/lvgl/src/core/../misc/lv_area.h **** typedef uint8_t lv_align_t;
  77:Middlewares/LVGL/GUI/lvgl/src/core/../misc/lv_area.h **** 
  78:Middlewares/LVGL/GUI/lvgl/src/core/../misc/lv_area.h **** enum {
  79:Middlewares/LVGL/GUI/lvgl/src/core/../misc/lv_area.h ****     LV_DIR_NONE     = 0x00,
  80:Middlewares/LVGL/GUI/lvgl/src/core/../misc/lv_area.h ****     LV_DIR_LEFT     = (1 << 0),
  81:Middlewares/LVGL/GUI/lvgl/src/core/../misc/lv_area.h ****     LV_DIR_RIGHT    = (1 << 1),
  82:Middlewares/LVGL/GUI/lvgl/src/core/../misc/lv_area.h ****     LV_DIR_TOP      = (1 << 2),
  83:Middlewares/LVGL/GUI/lvgl/src/core/../misc/lv_area.h ****     LV_DIR_BOTTOM   = (1 << 3),
  84:Middlewares/LVGL/GUI/lvgl/src/core/../misc/lv_area.h ****     LV_DIR_HOR      = LV_DIR_LEFT | LV_DIR_RIGHT,
ARM GAS  C:\Users\ADMINI~1\AppData\Local\Temp\cchMZgMB.s 			page 89


  85:Middlewares/LVGL/GUI/lvgl/src/core/../misc/lv_area.h ****     LV_DIR_VER      = LV_DIR_TOP | LV_DIR_BOTTOM,
  86:Middlewares/LVGL/GUI/lvgl/src/core/../misc/lv_area.h ****     LV_DIR_ALL      = LV_DIR_HOR | LV_DIR_VER,
  87:Middlewares/LVGL/GUI/lvgl/src/core/../misc/lv_area.h **** };
  88:Middlewares/LVGL/GUI/lvgl/src/core/../misc/lv_area.h **** 
  89:Middlewares/LVGL/GUI/lvgl/src/core/../misc/lv_area.h **** typedef uint8_t lv_dir_t;
  90:Middlewares/LVGL/GUI/lvgl/src/core/../misc/lv_area.h **** 
  91:Middlewares/LVGL/GUI/lvgl/src/core/../misc/lv_area.h **** /**********************
  92:Middlewares/LVGL/GUI/lvgl/src/core/../misc/lv_area.h ****  * GLOBAL PROTOTYPES
  93:Middlewares/LVGL/GUI/lvgl/src/core/../misc/lv_area.h ****  **********************/
  94:Middlewares/LVGL/GUI/lvgl/src/core/../misc/lv_area.h **** 
  95:Middlewares/LVGL/GUI/lvgl/src/core/../misc/lv_area.h **** /**
  96:Middlewares/LVGL/GUI/lvgl/src/core/../misc/lv_area.h ****  * Initialize an area
  97:Middlewares/LVGL/GUI/lvgl/src/core/../misc/lv_area.h ****  * @param area_p pointer to an area
  98:Middlewares/LVGL/GUI/lvgl/src/core/../misc/lv_area.h ****  * @param x1 left coordinate of the area
  99:Middlewares/LVGL/GUI/lvgl/src/core/../misc/lv_area.h ****  * @param y1 top coordinate of the area
 100:Middlewares/LVGL/GUI/lvgl/src/core/../misc/lv_area.h ****  * @param x2 right coordinate of the area
 101:Middlewares/LVGL/GUI/lvgl/src/core/../misc/lv_area.h ****  * @param y2 bottom coordinate of the area
 102:Middlewares/LVGL/GUI/lvgl/src/core/../misc/lv_area.h ****  */
 103:Middlewares/LVGL/GUI/lvgl/src/core/../misc/lv_area.h **** void lv_area_set(lv_area_t * area_p, lv_coord_t x1, lv_coord_t y1, lv_coord_t x2, lv_coord_t y2);
 104:Middlewares/LVGL/GUI/lvgl/src/core/../misc/lv_area.h **** 
 105:Middlewares/LVGL/GUI/lvgl/src/core/../misc/lv_area.h **** /**
 106:Middlewares/LVGL/GUI/lvgl/src/core/../misc/lv_area.h ****  * Copy an area
 107:Middlewares/LVGL/GUI/lvgl/src/core/../misc/lv_area.h ****  * @param dest pointer to the destination area
 108:Middlewares/LVGL/GUI/lvgl/src/core/../misc/lv_area.h ****  * @param src pointer to the source area
 109:Middlewares/LVGL/GUI/lvgl/src/core/../misc/lv_area.h ****  */
 110:Middlewares/LVGL/GUI/lvgl/src/core/../misc/lv_area.h **** inline static void lv_area_copy(lv_area_t * dest, const lv_area_t * src)
 111:Middlewares/LVGL/GUI/lvgl/src/core/../misc/lv_area.h **** {
 112:Middlewares/LVGL/GUI/lvgl/src/core/../misc/lv_area.h ****     dest->x1 = src->x1;
 113:Middlewares/LVGL/GUI/lvgl/src/core/../misc/lv_area.h ****     dest->y1 = src->y1;
 114:Middlewares/LVGL/GUI/lvgl/src/core/../misc/lv_area.h ****     dest->x2 = src->x2;
 115:Middlewares/LVGL/GUI/lvgl/src/core/../misc/lv_area.h ****     dest->y2 = src->y2;
 116:Middlewares/LVGL/GUI/lvgl/src/core/../misc/lv_area.h **** }
 117:Middlewares/LVGL/GUI/lvgl/src/core/../misc/lv_area.h **** 
 118:Middlewares/LVGL/GUI/lvgl/src/core/../misc/lv_area.h **** /**
 119:Middlewares/LVGL/GUI/lvgl/src/core/../misc/lv_area.h ****  * Get the width of an area
 120:Middlewares/LVGL/GUI/lvgl/src/core/../misc/lv_area.h ****  * @param area_p pointer to an area
 121:Middlewares/LVGL/GUI/lvgl/src/core/../misc/lv_area.h ****  * @return the width of the area (if x1 == x2 -> width = 1)
 122:Middlewares/LVGL/GUI/lvgl/src/core/../misc/lv_area.h ****  */
 123:Middlewares/LVGL/GUI/lvgl/src/core/../misc/lv_area.h **** static inline lv_coord_t lv_area_get_width(const lv_area_t * area_p)
 124:Middlewares/LVGL/GUI/lvgl/src/core/../misc/lv_area.h **** {
 125:Middlewares/LVGL/GUI/lvgl/src/core/../misc/lv_area.h ****     return (lv_coord_t)(area_p->x2 - area_p->x1 + 1);
 126:Middlewares/LVGL/GUI/lvgl/src/core/../misc/lv_area.h **** }
 127:Middlewares/LVGL/GUI/lvgl/src/core/../misc/lv_area.h **** 
 128:Middlewares/LVGL/GUI/lvgl/src/core/../misc/lv_area.h **** /**
 129:Middlewares/LVGL/GUI/lvgl/src/core/../misc/lv_area.h ****  * Get the height of an area
 130:Middlewares/LVGL/GUI/lvgl/src/core/../misc/lv_area.h ****  * @param area_p pointer to an area
 131:Middlewares/LVGL/GUI/lvgl/src/core/../misc/lv_area.h ****  * @return the height of the area (if y1 == y2 -> height = 1)
 132:Middlewares/LVGL/GUI/lvgl/src/core/../misc/lv_area.h ****  */
 133:Middlewares/LVGL/GUI/lvgl/src/core/../misc/lv_area.h **** static inline lv_coord_t lv_area_get_height(const lv_area_t * area_p)
 2748              		.loc 4 133 26 view .LVU850
 2749              	.LBB173:
 134:Middlewares/LVGL/GUI/lvgl/src/core/../misc/lv_area.h **** {
 135:Middlewares/LVGL/GUI/lvgl/src/core/../misc/lv_area.h ****     return (lv_coord_t)(area_p->y2 - area_p->y1 + 1);
 2750              		.loc 4 135 5 view .LVU851
 2751              		.loc 4 135 31 is_stmt 0 view .LVU852
 2752 023e DAF80C30 		ldr	r3, [r10, #12]
 2753              		.loc 4 135 44 view .LVU853
ARM GAS  C:\Users\ADMINI~1\AppData\Local\Temp\cchMZgMB.s 			page 90


 2754 0242 DAF80420 		ldr	r2, [r10, #4]
 2755              		.loc 4 135 36 view .LVU854
 2756 0246 9B1A     		subs	r3, r3, r2
 2757              		.loc 4 135 12 view .LVU855
 2758 0248 0133     		adds	r3, r3, #1
 2759              	.LVL338:
 2760              		.loc 4 135 12 view .LVU856
 2761              	.LBE173:
 2762              	.LBE172:
 730:Middlewares/LVGL/GUI/lvgl/src/core/lv_obj_scroll.c ****             y_scroll += snap_goal - act;
 2763              		.loc 1 730 48 view .LVU857
 2764 024a 03EBD373 		add	r3, r3, r3, lsr #31
 730:Middlewares/LVGL/GUI/lvgl/src/core/lv_obj_scroll.c ****             y_scroll += snap_goal - act;
 2765              		.loc 1 730 52 view .LVU858
 2766 024e 02EB6303 		add	r3, r2, r3, asr #1
 730:Middlewares/LVGL/GUI/lvgl/src/core/lv_obj_scroll.c ****             y_scroll += snap_goal - act;
 2767              		.loc 1 730 17 view .LVU859
 2768 0252 2B44     		add	r3, r3, r5
 2769              	.LVL339:
 731:Middlewares/LVGL/GUI/lvgl/src/core/lv_obj_scroll.c ****             break;
 2770              		.loc 1 731 13 is_stmt 1 view .LVU860
 731:Middlewares/LVGL/GUI/lvgl/src/core/lv_obj_scroll.c ****             break;
 2771              		.loc 1 731 35 is_stmt 0 view .LVU861
 2772 0254 A9EB0303 		sub	r3, r9, r3
 2773              	.LVL340:
 731:Middlewares/LVGL/GUI/lvgl/src/core/lv_obj_scroll.c ****             break;
 2774              		.loc 1 731 22 view .LVU862
 2775 0258 1D44     		add	r5, r5, r3
 2776              	.LVL341:
 732:Middlewares/LVGL/GUI/lvgl/src/core/lv_obj_scroll.c ****     }
 2777              		.loc 1 732 13 is_stmt 1 view .LVU863
 2778 025a 32E7     		b	.L140
 2779              	.LVL342:
 2780              	.L142:
 745:Middlewares/LVGL/GUI/lvgl/src/core/lv_obj_scroll.c ****         x_scroll = left_diff;
 2781              		.loc 1 745 10 view .LVU864
 745:Middlewares/LVGL/GUI/lvgl/src/core/lv_obj_scroll.c ****         x_scroll = left_diff;
 2782              		.loc 1 745 12 is_stmt 0 view .LVU865
 2783 025c B9F1000F 		cmp	r9, #0
 2784 0260 04DC     		bgt	.L177
 751:Middlewares/LVGL/GUI/lvgl/src/core/lv_obj_scroll.c ****         x_scroll = -right_diff;
 2785              		.loc 1 751 10 is_stmt 1 view .LVU866
 751:Middlewares/LVGL/GUI/lvgl/src/core/lv_obj_scroll.c ****         x_scroll = -right_diff;
 2786              		.loc 1 751 12 is_stmt 0 view .LVU867
 2787 0262 0029     		cmp	r1, #0
 2788 0264 0CDC     		bgt	.L178
 735:Middlewares/LVGL/GUI/lvgl/src/core/lv_obj_scroll.c ****     lv_scroll_snap_t snap_x = lv_obj_get_scroll_snap_x(parent);
 2789              		.loc 1 735 16 view .LVU868
 2790 0266 4FF00009 		mov	r9, #0
 2791              	.LVL343:
 735:Middlewares/LVGL/GUI/lvgl/src/core/lv_obj_scroll.c ****     lv_scroll_snap_t snap_x = lv_obj_get_scroll_snap_x(parent);
 2792              		.loc 1 735 16 view .LVU869
 2793 026a 56E7     		b	.L143
 2794              	.LVL344:
 2795              	.L177:
 2796              	.LBB174:
 746:Middlewares/LVGL/GUI/lvgl/src/core/lv_obj_scroll.c ****         /*Do not let scrolling in*/
ARM GAS  C:\Users\ADMINI~1\AppData\Local\Temp\cchMZgMB.s 			page 91


 2797              		.loc 1 746 9 is_stmt 1 view .LVU870
 748:Middlewares/LVGL/GUI/lvgl/src/core/lv_obj_scroll.c ****         if(sl + x_scroll > 0) x_scroll = 0;
 2798              		.loc 1 748 9 view .LVU871
 748:Middlewares/LVGL/GUI/lvgl/src/core/lv_obj_scroll.c ****         if(sl + x_scroll > 0) x_scroll = 0;
 2799              		.loc 1 748 25 is_stmt 0 view .LVU872
 2800 026c 2046     		mov	r0, r4
 2801 026e FFF7FEFF 		bl	lv_obj_get_scroll_left
 2802              	.LVL345:
 749:Middlewares/LVGL/GUI/lvgl/src/core/lv_obj_scroll.c ****     }
 2803              		.loc 1 749 9 is_stmt 1 view .LVU873
 749:Middlewares/LVGL/GUI/lvgl/src/core/lv_obj_scroll.c ****     }
 2804              		.loc 1 749 15 is_stmt 0 view .LVU874
 2805 0272 4844     		add	r0, r0, r9
 2806              	.LVL346:
 749:Middlewares/LVGL/GUI/lvgl/src/core/lv_obj_scroll.c ****     }
 2807              		.loc 1 749 11 view .LVU875
 2808 0274 0028     		cmp	r0, #0
 2809 0276 7FF750AF 		ble	.L143
 749:Middlewares/LVGL/GUI/lvgl/src/core/lv_obj_scroll.c ****     }
 2810              		.loc 1 749 40 view .LVU876
 2811 027a 4FF00009 		mov	r9, #0
 2812              	.LVL347:
 749:Middlewares/LVGL/GUI/lvgl/src/core/lv_obj_scroll.c ****     }
 2813              		.loc 1 749 40 view .LVU877
 2814 027e 4CE7     		b	.L143
 2815              	.LVL348:
 2816              	.L178:
 749:Middlewares/LVGL/GUI/lvgl/src/core/lv_obj_scroll.c ****     }
 2817              		.loc 1 749 40 view .LVU878
 2818              	.LBE174:
 2819              	.LBB175:
 752:Middlewares/LVGL/GUI/lvgl/src/core/lv_obj_scroll.c ****         /*Do not let scrolling in*/
 2820              		.loc 1 752 9 is_stmt 1 view .LVU879
 752:Middlewares/LVGL/GUI/lvgl/src/core/lv_obj_scroll.c ****         /*Do not let scrolling in*/
 2821              		.loc 1 752 18 is_stmt 0 view .LVU880
 2822 0280 A3EB0209 		sub	r9, r3, r2
 2823              	.LVL349:
 754:Middlewares/LVGL/GUI/lvgl/src/core/lv_obj_scroll.c ****         if(sr + x_scroll < 0) x_scroll = 0;
 2824              		.loc 1 754 9 is_stmt 1 view .LVU881
 754:Middlewares/LVGL/GUI/lvgl/src/core/lv_obj_scroll.c ****         if(sr + x_scroll < 0) x_scroll = 0;
 2825              		.loc 1 754 25 is_stmt 0 view .LVU882
 2826 0284 2046     		mov	r0, r4
 2827 0286 FFF7FEFF 		bl	lv_obj_get_scroll_right
 2828              	.LVL350:
 755:Middlewares/LVGL/GUI/lvgl/src/core/lv_obj_scroll.c ****     }
 2829              		.loc 1 755 9 is_stmt 1 view .LVU883
 755:Middlewares/LVGL/GUI/lvgl/src/core/lv_obj_scroll.c ****     }
 2830              		.loc 1 755 11 is_stmt 0 view .LVU884
 2831 028a 19EB000F 		cmn	r9, r0
 2832 028e 7FF544AF 		bpl	.L143
 755:Middlewares/LVGL/GUI/lvgl/src/core/lv_obj_scroll.c ****     }
 2833              		.loc 1 755 40 view .LVU885
 2834 0292 4FF00009 		mov	r9, #0
 2835              	.LVL351:
 755:Middlewares/LVGL/GUI/lvgl/src/core/lv_obj_scroll.c ****     }
 2836              		.loc 1 755 40 view .LVU886
 2837 0296 40E7     		b	.L143
ARM GAS  C:\Users\ADMINI~1\AppData\Local\Temp\cchMZgMB.s 			page 92


 2838              	.LVL352:
 2839              	.L173:
 755:Middlewares/LVGL/GUI/lvgl/src/core/lv_obj_scroll.c ****     }
 2840              		.loc 1 755 40 view .LVU887
 2841              	.LBE175:
 761:Middlewares/LVGL/GUI/lvgl/src/core/lv_obj_scroll.c ****             act = area_tmp->x1 + x_scroll;
 2842              		.loc 1 761 13 is_stmt 1 view .LVU888
 761:Middlewares/LVGL/GUI/lvgl/src/core/lv_obj_scroll.c ****             act = area_tmp->x1 + x_scroll;
 2843              		.loc 1 761 39 is_stmt 0 view .LVU889
 2844 0298 6369     		ldr	r3, [r4, #20]
 761:Middlewares/LVGL/GUI/lvgl/src/core/lv_obj_scroll.c ****             act = area_tmp->x1 + x_scroll;
 2845              		.loc 1 761 23 view .LVU890
 2846 029a 5344     		add	r3, r3, r10
 2847              	.LVL353:
 762:Middlewares/LVGL/GUI/lvgl/src/core/lv_obj_scroll.c ****             x_scroll += snap_goal - act;
 2848              		.loc 1 762 13 is_stmt 1 view .LVU891
 762:Middlewares/LVGL/GUI/lvgl/src/core/lv_obj_scroll.c ****             x_scroll += snap_goal - act;
 2849              		.loc 1 762 27 is_stmt 0 view .LVU892
 2850 029c 3A68     		ldr	r2, [r7]
 762:Middlewares/LVGL/GUI/lvgl/src/core/lv_obj_scroll.c ****             x_scroll += snap_goal - act;
 2851              		.loc 1 762 17 view .LVU893
 2852 029e 02EB090A 		add	r10, r2, r9
 2853              	.LVL354:
 763:Middlewares/LVGL/GUI/lvgl/src/core/lv_obj_scroll.c ****             break;
 2854              		.loc 1 763 13 is_stmt 1 view .LVU894
 763:Middlewares/LVGL/GUI/lvgl/src/core/lv_obj_scroll.c ****             break;
 2855              		.loc 1 763 35 is_stmt 0 view .LVU895
 2856 02a2 A3EB0A03 		sub	r3, r3, r10
 2857              	.LVL355:
 763:Middlewares/LVGL/GUI/lvgl/src/core/lv_obj_scroll.c ****             break;
 2858              		.loc 1 763 22 view .LVU896
 2859 02a6 9944     		add	r9, r9, r3
 2860              	.LVL356:
 764:Middlewares/LVGL/GUI/lvgl/src/core/lv_obj_scroll.c ****         case LV_SCROLL_SNAP_END:
 2861              		.loc 1 764 13 is_stmt 1 view .LVU897
 2862 02a8 4AE7     		b	.L147
 2863              	.LVL357:
 2864              	.L145:
 766:Middlewares/LVGL/GUI/lvgl/src/core/lv_obj_scroll.c ****             act = area_tmp->x2 + x_scroll;
 2865              		.loc 1 766 13 view .LVU898
 766:Middlewares/LVGL/GUI/lvgl/src/core/lv_obj_scroll.c ****             act = area_tmp->x2 + x_scroll;
 2866              		.loc 1 766 39 is_stmt 0 view .LVU899
 2867 02aa E369     		ldr	r3, [r4, #28]
 766:Middlewares/LVGL/GUI/lvgl/src/core/lv_obj_scroll.c ****             act = area_tmp->x2 + x_scroll;
 2868              		.loc 1 766 23 view .LVU900
 2869 02ac A3EB0808 		sub	r8, r3, r8
 2870              	.LVL358:
 767:Middlewares/LVGL/GUI/lvgl/src/core/lv_obj_scroll.c ****             x_scroll += snap_goal - act;
 2871              		.loc 1 767 13 is_stmt 1 view .LVU901
 767:Middlewares/LVGL/GUI/lvgl/src/core/lv_obj_scroll.c ****             x_scroll += snap_goal - act;
 2872              		.loc 1 767 27 is_stmt 0 view .LVU902
 2873 02b0 BB68     		ldr	r3, [r7, #8]
 767:Middlewares/LVGL/GUI/lvgl/src/core/lv_obj_scroll.c ****             x_scroll += snap_goal - act;
 2874              		.loc 1 767 17 view .LVU903
 2875 02b2 4B44     		add	r3, r3, r9
 2876              	.LVL359:
 768:Middlewares/LVGL/GUI/lvgl/src/core/lv_obj_scroll.c ****             break;
ARM GAS  C:\Users\ADMINI~1\AppData\Local\Temp\cchMZgMB.s 			page 93


 2877              		.loc 1 768 13 is_stmt 1 view .LVU904
 768:Middlewares/LVGL/GUI/lvgl/src/core/lv_obj_scroll.c ****             break;
 2878              		.loc 1 768 35 is_stmt 0 view .LVU905
 2879 02b4 A8EB0308 		sub	r8, r8, r3
 2880              	.LVL360:
 768:Middlewares/LVGL/GUI/lvgl/src/core/lv_obj_scroll.c ****             break;
 2881              		.loc 1 768 22 view .LVU906
 2882 02b8 C144     		add	r9, r9, r8
 2883              	.LVL361:
 769:Middlewares/LVGL/GUI/lvgl/src/core/lv_obj_scroll.c ****         case LV_SCROLL_SNAP_CENTER:
 2884              		.loc 1 769 13 is_stmt 1 view .LVU907
 2885 02ba 41E7     		b	.L147
 2886              	.LVL362:
 2887              	.L146:
 771:Middlewares/LVGL/GUI/lvgl/src/core/lv_obj_scroll.c ****             act = lv_area_get_width(area_tmp) / 2 + area_tmp->x1 + x_scroll;
 2888              		.loc 1 771 13 view .LVU908
 771:Middlewares/LVGL/GUI/lvgl/src/core/lv_obj_scroll.c ****             act = lv_area_get_width(area_tmp) / 2 + area_tmp->x1 + x_scroll;
 2889              		.loc 1 771 39 is_stmt 0 view .LVU909
 2890 02bc 6369     		ldr	r3, [r4, #20]
 771:Middlewares/LVGL/GUI/lvgl/src/core/lv_obj_scroll.c ****             act = lv_area_get_width(area_tmp) / 2 + area_tmp->x1 + x_scroll;
 2891              		.loc 1 771 43 view .LVU910
 2892 02be 9A44     		add	r10, r10, r3
 2893              	.LVL363:
 771:Middlewares/LVGL/GUI/lvgl/src/core/lv_obj_scroll.c ****             act = lv_area_get_width(area_tmp) / 2 + area_tmp->x1 + x_scroll;
 2894              		.loc 1 771 62 view .LVU911
 2895 02c0 00EBD070 		add	r0, r0, r0, lsr #31
 2896              	.LVL364:
 771:Middlewares/LVGL/GUI/lvgl/src/core/lv_obj_scroll.c ****             act = lv_area_get_width(area_tmp) / 2 + area_tmp->x1 + x_scroll;
 2897              		.loc 1 771 23 view .LVU912
 2898 02c4 0AEB6000 		add	r0, r10, r0, asr #1
 2899              	.LVL365:
 772:Middlewares/LVGL/GUI/lvgl/src/core/lv_obj_scroll.c ****             x_scroll += snap_goal - act;
 2900              		.loc 1 772 13 is_stmt 1 view .LVU913
 2901              	.LBB176:
 2902              	.LBI176:
 123:Middlewares/LVGL/GUI/lvgl/src/core/../misc/lv_area.h **** {
 2903              		.loc 4 123 26 view .LVU914
 2904              	.LBB177:
 125:Middlewares/LVGL/GUI/lvgl/src/core/../misc/lv_area.h **** }
 2905              		.loc 4 125 5 view .LVU915
 125:Middlewares/LVGL/GUI/lvgl/src/core/../misc/lv_area.h **** }
 2906              		.loc 4 125 31 is_stmt 0 view .LVU916
 2907 02c8 BB68     		ldr	r3, [r7, #8]
 125:Middlewares/LVGL/GUI/lvgl/src/core/../misc/lv_area.h **** }
 2908              		.loc 4 125 44 view .LVU917
 2909 02ca 3A68     		ldr	r2, [r7]
 125:Middlewares/LVGL/GUI/lvgl/src/core/../misc/lv_area.h **** }
 2910              		.loc 4 125 36 view .LVU918
 2911 02cc 9B1A     		subs	r3, r3, r2
 125:Middlewares/LVGL/GUI/lvgl/src/core/../misc/lv_area.h **** }
 2912              		.loc 4 125 12 view .LVU919
 2913 02ce 0133     		adds	r3, r3, #1
 2914              	.LVL366:
 125:Middlewares/LVGL/GUI/lvgl/src/core/../misc/lv_area.h **** }
 2915              		.loc 4 125 12 view .LVU920
 2916              	.LBE177:
 2917              	.LBE176:
ARM GAS  C:\Users\ADMINI~1\AppData\Local\Temp\cchMZgMB.s 			page 94


 772:Middlewares/LVGL/GUI/lvgl/src/core/lv_obj_scroll.c ****             x_scroll += snap_goal - act;
 2918              		.loc 1 772 47 view .LVU921
 2919 02d0 03EBD373 		add	r3, r3, r3, lsr #31
 772:Middlewares/LVGL/GUI/lvgl/src/core/lv_obj_scroll.c ****             x_scroll += snap_goal - act;
 2920              		.loc 1 772 51 view .LVU922
 2921 02d4 02EB6303 		add	r3, r2, r3, asr #1
 772:Middlewares/LVGL/GUI/lvgl/src/core/lv_obj_scroll.c ****             x_scroll += snap_goal - act;
 2922              		.loc 1 772 17 view .LVU923
 2923 02d8 4B44     		add	r3, r3, r9
 2924              	.LVL367:
 773:Middlewares/LVGL/GUI/lvgl/src/core/lv_obj_scroll.c ****             break;
 2925              		.loc 1 773 13 is_stmt 1 view .LVU924
 773:Middlewares/LVGL/GUI/lvgl/src/core/lv_obj_scroll.c ****             break;
 2926              		.loc 1 773 35 is_stmt 0 view .LVU925
 2927 02da C01A     		subs	r0, r0, r3
 2928              	.LVL368:
 773:Middlewares/LVGL/GUI/lvgl/src/core/lv_obj_scroll.c ****             break;
 2929              		.loc 1 773 22 view .LVU926
 2930 02dc 8144     		add	r9, r9, r0
 2931              	.LVL369:
 774:Middlewares/LVGL/GUI/lvgl/src/core/lv_obj_scroll.c ****     }
 2932              		.loc 1 774 13 is_stmt 1 view .LVU927
 2933 02de 2FE7     		b	.L147
 2934              	.LVL370:
 2935              	.L174:
 786:Middlewares/LVGL/GUI/lvgl/src/core/lv_obj_scroll.c ****     if((scroll_dir & LV_DIR_RIGHT) == 0 && x_scroll > 0) x_scroll = 0;
 2936              		.loc 1 786 66 is_stmt 0 view .LVU928
 2937 02e0 4FF00009 		mov	r9, #0
 2938              	.LVL371:
 786:Middlewares/LVGL/GUI/lvgl/src/core/lv_obj_scroll.c ****     if((scroll_dir & LV_DIR_RIGHT) == 0 && x_scroll > 0) x_scroll = 0;
 2939              		.loc 1 786 66 view .LVU929
 2940 02e4 46E7     		b	.L150
 2941              	.LVL372:
 2942              	.L175:
 788:Middlewares/LVGL/GUI/lvgl/src/core/lv_obj_scroll.c ****     if((scroll_dir & LV_DIR_BOTTOM) == 0 && y_scroll > 0) y_scroll = 0;
 2943              		.loc 1 788 65 view .LVU930
 2944 02e6 0025     		movs	r5, #0
 2945              	.LVL373:
 788:Middlewares/LVGL/GUI/lvgl/src/core/lv_obj_scroll.c ****     if((scroll_dir & LV_DIR_BOTTOM) == 0 && y_scroll > 0) y_scroll = 0;
 2946              		.loc 1 788 65 view .LVU931
 2947 02e8 54E7     		b	.L152
 2948              	.LVL374:
 2949              	.L169:
 791:Middlewares/LVGL/GUI/lvgl/src/core/lv_obj_scroll.c ****     scroll_value->y += anim_en == LV_ANIM_OFF ? 0 : y_scroll;
 2950              		.loc 1 791 51 view .LVU932
 2951 02ea 0022     		movs	r2, #0
 2952 02ec 5FE7     		b	.L154
 2953              	.L170:
 792:Middlewares/LVGL/GUI/lvgl/src/core/lv_obj_scroll.c ****     lv_obj_scroll_by(parent, x_scroll, y_scroll, anim_en);
 2954              		.loc 1 792 51 view .LVU933
 2955 02ee 0022     		movs	r2, #0
 2956 02f0 65E7     		b	.L155
 2957              	.L180:
 2958 02f2 00BF     		.align	2
 2959              	.L179:
 2960 02f4 00000000 		.word	scroll_y_anim
 2961 02f8 00000000 		.word	scroll_x_anim
ARM GAS  C:\Users\ADMINI~1\AppData\Local\Temp\cchMZgMB.s 			page 95


 2962              		.cfi_endproc
 2963              	.LFE190:
 2965              		.section	.text.lv_obj_scroll_to_x,"ax",%progbits
 2966              		.align	1
 2967              		.global	lv_obj_scroll_to_x
 2968              		.syntax unified
 2969              		.thumb
 2970              		.thumb_func
 2972              	lv_obj_scroll_to_x:
 2973              	.LVL375:
 2974              	.LFB177:
 366:Middlewares/LVGL/GUI/lvgl/src/core/lv_obj_scroll.c ****     lv_anim_del(obj, scroll_x_anim);
 2975              		.loc 1 366 1 is_stmt 1 view -0
 2976              		.cfi_startproc
 2977              		@ args = 0, pretend = 0, frame = 0
 2978              		@ frame_needed = 0, uses_anonymous_args = 0
 366:Middlewares/LVGL/GUI/lvgl/src/core/lv_obj_scroll.c ****     lv_anim_del(obj, scroll_x_anim);
 2979              		.loc 1 366 1 is_stmt 0 view .LVU935
 2980 0000 70B5     		push	{r4, r5, r6, lr}
 2981              	.LCFI21:
 2982              		.cfi_def_cfa_offset 16
 2983              		.cfi_offset 4, -16
 2984              		.cfi_offset 5, -12
 2985              		.cfi_offset 6, -8
 2986              		.cfi_offset 14, -4
 2987 0002 0446     		mov	r4, r0
 2988 0004 0D46     		mov	r5, r1
 2989 0006 1646     		mov	r6, r2
 367:Middlewares/LVGL/GUI/lvgl/src/core/lv_obj_scroll.c **** 
 2990              		.loc 1 367 5 is_stmt 1 view .LVU936
 2991 0008 0649     		ldr	r1, .L183
 2992              	.LVL376:
 367:Middlewares/LVGL/GUI/lvgl/src/core/lv_obj_scroll.c **** 
 2993              		.loc 1 367 5 is_stmt 0 view .LVU937
 2994 000a FFF7FEFF 		bl	lv_anim_del
 2995              	.LVL377:
 369:Middlewares/LVGL/GUI/lvgl/src/core/lv_obj_scroll.c ****     lv_coord_t diff = -x + scroll_x;
 2996              		.loc 1 369 5 is_stmt 1 view .LVU938
 369:Middlewares/LVGL/GUI/lvgl/src/core/lv_obj_scroll.c ****     lv_coord_t diff = -x + scroll_x;
 2997              		.loc 1 369 27 is_stmt 0 view .LVU939
 2998 000e 2046     		mov	r0, r4
 2999 0010 FFF7FEFF 		bl	lv_obj_get_scroll_x
 3000              	.LVL378:
 370:Middlewares/LVGL/GUI/lvgl/src/core/lv_obj_scroll.c **** 
 3001              		.loc 1 370 5 is_stmt 1 view .LVU940
 372:Middlewares/LVGL/GUI/lvgl/src/core/lv_obj_scroll.c **** }
 3002              		.loc 1 372 5 view .LVU941
 3003 0014 3346     		mov	r3, r6
 3004 0016 0022     		movs	r2, #0
 3005 0018 411B     		subs	r1, r0, r5
 3006              	.LVL379:
 372:Middlewares/LVGL/GUI/lvgl/src/core/lv_obj_scroll.c **** }
 3007              		.loc 1 372 5 is_stmt 0 view .LVU942
 3008 001a 2046     		mov	r0, r4
 3009              	.LVL380:
 372:Middlewares/LVGL/GUI/lvgl/src/core/lv_obj_scroll.c **** }
 3010              		.loc 1 372 5 view .LVU943
ARM GAS  C:\Users\ADMINI~1\AppData\Local\Temp\cchMZgMB.s 			page 96


 3011 001c FFF7FEFF 		bl	lv_obj_scroll_by_bounded
 3012              	.LVL381:
 373:Middlewares/LVGL/GUI/lvgl/src/core/lv_obj_scroll.c **** 
 3013              		.loc 1 373 1 view .LVU944
 3014 0020 70BD     		pop	{r4, r5, r6, pc}
 3015              	.LVL382:
 3016              	.L184:
 373:Middlewares/LVGL/GUI/lvgl/src/core/lv_obj_scroll.c **** 
 3017              		.loc 1 373 1 view .LVU945
 3018 0022 00BF     		.align	2
 3019              	.L183:
 3020 0024 00000000 		.word	scroll_x_anim
 3021              		.cfi_endproc
 3022              	.LFE177:
 3024              		.section	.text.lv_obj_scroll_to_y,"ax",%progbits
 3025              		.align	1
 3026              		.global	lv_obj_scroll_to_y
 3027              		.syntax unified
 3028              		.thumb
 3029              		.thumb_func
 3031              	lv_obj_scroll_to_y:
 3032              	.LVL383:
 3033              	.LFB178:
 376:Middlewares/LVGL/GUI/lvgl/src/core/lv_obj_scroll.c ****     lv_anim_del(obj, scroll_y_anim);
 3034              		.loc 1 376 1 is_stmt 1 view -0
 3035              		.cfi_startproc
 3036              		@ args = 0, pretend = 0, frame = 0
 3037              		@ frame_needed = 0, uses_anonymous_args = 0
 376:Middlewares/LVGL/GUI/lvgl/src/core/lv_obj_scroll.c ****     lv_anim_del(obj, scroll_y_anim);
 3038              		.loc 1 376 1 is_stmt 0 view .LVU947
 3039 0000 70B5     		push	{r4, r5, r6, lr}
 3040              	.LCFI22:
 3041              		.cfi_def_cfa_offset 16
 3042              		.cfi_offset 4, -16
 3043              		.cfi_offset 5, -12
 3044              		.cfi_offset 6, -8
 3045              		.cfi_offset 14, -4
 3046 0002 0446     		mov	r4, r0
 3047 0004 0D46     		mov	r5, r1
 3048 0006 1646     		mov	r6, r2
 377:Middlewares/LVGL/GUI/lvgl/src/core/lv_obj_scroll.c **** 
 3049              		.loc 1 377 5 is_stmt 1 view .LVU948
 3050 0008 0649     		ldr	r1, .L187
 3051              	.LVL384:
 377:Middlewares/LVGL/GUI/lvgl/src/core/lv_obj_scroll.c **** 
 3052              		.loc 1 377 5 is_stmt 0 view .LVU949
 3053 000a FFF7FEFF 		bl	lv_anim_del
 3054              	.LVL385:
 379:Middlewares/LVGL/GUI/lvgl/src/core/lv_obj_scroll.c ****     lv_coord_t diff = -y + scroll_y;
 3055              		.loc 1 379 5 is_stmt 1 view .LVU950
 379:Middlewares/LVGL/GUI/lvgl/src/core/lv_obj_scroll.c ****     lv_coord_t diff = -y + scroll_y;
 3056              		.loc 1 379 27 is_stmt 0 view .LVU951
 3057 000e 2046     		mov	r0, r4
 3058 0010 FFF7FEFF 		bl	lv_obj_get_scroll_y
 3059              	.LVL386:
 380:Middlewares/LVGL/GUI/lvgl/src/core/lv_obj_scroll.c **** 
 3060              		.loc 1 380 5 is_stmt 1 view .LVU952
ARM GAS  C:\Users\ADMINI~1\AppData\Local\Temp\cchMZgMB.s 			page 97


 382:Middlewares/LVGL/GUI/lvgl/src/core/lv_obj_scroll.c **** }
 3061              		.loc 1 382 5 view .LVU953
 3062 0014 3346     		mov	r3, r6
 3063 0016 421B     		subs	r2, r0, r5
 3064              	.LVL387:
 382:Middlewares/LVGL/GUI/lvgl/src/core/lv_obj_scroll.c **** }
 3065              		.loc 1 382 5 is_stmt 0 view .LVU954
 3066 0018 0021     		movs	r1, #0
 3067 001a 2046     		mov	r0, r4
 3068              	.LVL388:
 382:Middlewares/LVGL/GUI/lvgl/src/core/lv_obj_scroll.c **** }
 3069              		.loc 1 382 5 view .LVU955
 3070 001c FFF7FEFF 		bl	lv_obj_scroll_by_bounded
 3071              	.LVL389:
 383:Middlewares/LVGL/GUI/lvgl/src/core/lv_obj_scroll.c **** 
 3072              		.loc 1 383 1 view .LVU956
 3073 0020 70BD     		pop	{r4, r5, r6, pc}
 3074              	.LVL390:
 3075              	.L188:
 383:Middlewares/LVGL/GUI/lvgl/src/core/lv_obj_scroll.c **** 
 3076              		.loc 1 383 1 view .LVU957
 3077 0022 00BF     		.align	2
 3078              	.L187:
 3079 0024 00000000 		.word	scroll_y_anim
 3080              		.cfi_endproc
 3081              	.LFE178:
 3083              		.section	.text.lv_obj_scroll_to,"ax",%progbits
 3084              		.align	1
 3085              		.global	lv_obj_scroll_to
 3086              		.syntax unified
 3087              		.thumb
 3088              		.thumb_func
 3090              	lv_obj_scroll_to:
 3091              	.LVL391:
 3092              	.LFB176:
 360:Middlewares/LVGL/GUI/lvgl/src/core/lv_obj_scroll.c ****     lv_obj_scroll_to_x(obj, x, anim_en);
 3093              		.loc 1 360 1 is_stmt 1 view -0
 3094              		.cfi_startproc
 3095              		@ args = 0, pretend = 0, frame = 0
 3096              		@ frame_needed = 0, uses_anonymous_args = 0
 360:Middlewares/LVGL/GUI/lvgl/src/core/lv_obj_scroll.c ****     lv_obj_scroll_to_x(obj, x, anim_en);
 3097              		.loc 1 360 1 is_stmt 0 view .LVU959
 3098 0000 70B5     		push	{r4, r5, r6, lr}
 3099              	.LCFI23:
 3100              		.cfi_def_cfa_offset 16
 3101              		.cfi_offset 4, -16
 3102              		.cfi_offset 5, -12
 3103              		.cfi_offset 6, -8
 3104              		.cfi_offset 14, -4
 3105 0002 0546     		mov	r5, r0
 3106 0004 1646     		mov	r6, r2
 3107 0006 1C46     		mov	r4, r3
 361:Middlewares/LVGL/GUI/lvgl/src/core/lv_obj_scroll.c ****     lv_obj_scroll_to_y(obj, y, anim_en);
 3108              		.loc 1 361 5 is_stmt 1 view .LVU960
 3109 0008 1A46     		mov	r2, r3
 3110              	.LVL392:
 361:Middlewares/LVGL/GUI/lvgl/src/core/lv_obj_scroll.c ****     lv_obj_scroll_to_y(obj, y, anim_en);
ARM GAS  C:\Users\ADMINI~1\AppData\Local\Temp\cchMZgMB.s 			page 98


 3111              		.loc 1 361 5 is_stmt 0 view .LVU961
 3112 000a FFF7FEFF 		bl	lv_obj_scroll_to_x
 3113              	.LVL393:
 362:Middlewares/LVGL/GUI/lvgl/src/core/lv_obj_scroll.c **** }
 3114              		.loc 1 362 5 is_stmt 1 view .LVU962
 3115 000e 2246     		mov	r2, r4
 3116 0010 3146     		mov	r1, r6
 3117 0012 2846     		mov	r0, r5
 3118 0014 FFF7FEFF 		bl	lv_obj_scroll_to_y
 3119              	.LVL394:
 363:Middlewares/LVGL/GUI/lvgl/src/core/lv_obj_scroll.c **** 
 3120              		.loc 1 363 1 is_stmt 0 view .LVU963
 3121 0018 70BD     		pop	{r4, r5, r6, pc}
 363:Middlewares/LVGL/GUI/lvgl/src/core/lv_obj_scroll.c **** 
 3122              		.loc 1 363 1 view .LVU964
 3123              		.cfi_endproc
 3124              	.LFE176:
 3126              		.section	.text.lv_obj_scroll_to_view,"ax",%progbits
 3127              		.align	1
 3128              		.global	lv_obj_scroll_to_view
 3129              		.syntax unified
 3130              		.thumb
 3131              		.thumb_func
 3133              	lv_obj_scroll_to_view:
 3134              	.LVL395:
 3135              	.LFB179:
 386:Middlewares/LVGL/GUI/lvgl/src/core/lv_obj_scroll.c ****     /*Be sure the screens layout is correct*/
 3136              		.loc 1 386 1 is_stmt 1 view -0
 3137              		.cfi_startproc
 3138              		@ args = 0, pretend = 0, frame = 8
 3139              		@ frame_needed = 0, uses_anonymous_args = 0
 386:Middlewares/LVGL/GUI/lvgl/src/core/lv_obj_scroll.c ****     /*Be sure the screens layout is correct*/
 3140              		.loc 1 386 1 is_stmt 0 view .LVU966
 3141 0000 30B5     		push	{r4, r5, lr}
 3142              	.LCFI24:
 3143              		.cfi_def_cfa_offset 12
 3144              		.cfi_offset 4, -12
 3145              		.cfi_offset 5, -8
 3146              		.cfi_offset 14, -4
 3147 0002 83B0     		sub	sp, sp, #12
 3148              	.LCFI25:
 3149              		.cfi_def_cfa_offset 24
 3150 0004 0446     		mov	r4, r0
 3151 0006 0D46     		mov	r5, r1
 388:Middlewares/LVGL/GUI/lvgl/src/core/lv_obj_scroll.c **** 
 3152              		.loc 1 388 5 is_stmt 1 view .LVU967
 3153 0008 FFF7FEFF 		bl	lv_obj_update_layout
 3154              	.LVL396:
 390:Middlewares/LVGL/GUI/lvgl/src/core/lv_obj_scroll.c ****     scroll_area_into_view(&obj->coords, obj, &p, anim_en);
 3155              		.loc 1 390 5 view .LVU968
 390:Middlewares/LVGL/GUI/lvgl/src/core/lv_obj_scroll.c ****     scroll_area_into_view(&obj->coords, obj, &p, anim_en);
 3156              		.loc 1 390 16 is_stmt 0 view .LVU969
 3157 000c 0023     		movs	r3, #0
 3158 000e 0093     		str	r3, [sp]
 3159 0010 0193     		str	r3, [sp, #4]
 391:Middlewares/LVGL/GUI/lvgl/src/core/lv_obj_scroll.c **** }
 3160              		.loc 1 391 5 is_stmt 1 view .LVU970
ARM GAS  C:\Users\ADMINI~1\AppData\Local\Temp\cchMZgMB.s 			page 99


 3161 0012 2B46     		mov	r3, r5
 3162 0014 6A46     		mov	r2, sp
 3163 0016 2146     		mov	r1, r4
 3164 0018 04F11400 		add	r0, r4, #20
 3165 001c FFF7FEFF 		bl	scroll_area_into_view
 3166              	.LVL397:
 392:Middlewares/LVGL/GUI/lvgl/src/core/lv_obj_scroll.c **** 
 3167              		.loc 1 392 1 is_stmt 0 view .LVU971
 3168 0020 03B0     		add	sp, sp, #12
 3169              	.LCFI26:
 3170              		.cfi_def_cfa_offset 12
 3171              		@ sp needed
 3172 0022 30BD     		pop	{r4, r5, pc}
 392:Middlewares/LVGL/GUI/lvgl/src/core/lv_obj_scroll.c **** 
 3173              		.loc 1 392 1 view .LVU972
 3174              		.cfi_endproc
 3175              	.LFE179:
 3177              		.section	.text.lv_obj_scroll_to_view_recursive,"ax",%progbits
 3178              		.align	1
 3179              		.global	lv_obj_scroll_to_view_recursive
 3180              		.syntax unified
 3181              		.thumb
 3182              		.thumb_func
 3184              	lv_obj_scroll_to_view_recursive:
 3185              	.LVL398:
 3186              	.LFB180:
 395:Middlewares/LVGL/GUI/lvgl/src/core/lv_obj_scroll.c ****     /*Be sure the screens layout is correct*/
 3187              		.loc 1 395 1 is_stmt 1 view -0
 3188              		.cfi_startproc
 3189              		@ args = 0, pretend = 0, frame = 8
 3190              		@ frame_needed = 0, uses_anonymous_args = 0
 395:Middlewares/LVGL/GUI/lvgl/src/core/lv_obj_scroll.c ****     /*Be sure the screens layout is correct*/
 3191              		.loc 1 395 1 is_stmt 0 view .LVU974
 3192 0000 70B5     		push	{r4, r5, r6, lr}
 3193              	.LCFI27:
 3194              		.cfi_def_cfa_offset 16
 3195              		.cfi_offset 4, -16
 3196              		.cfi_offset 5, -12
 3197              		.cfi_offset 6, -8
 3198              		.cfi_offset 14, -4
 3199 0002 82B0     		sub	sp, sp, #8
 3200              	.LCFI28:
 3201              		.cfi_def_cfa_offset 24
 3202 0004 0546     		mov	r5, r0
 3203 0006 0E46     		mov	r6, r1
 397:Middlewares/LVGL/GUI/lvgl/src/core/lv_obj_scroll.c **** 
 3204              		.loc 1 397 5 is_stmt 1 view .LVU975
 3205 0008 FFF7FEFF 		bl	lv_obj_update_layout
 3206              	.LVL399:
 399:Middlewares/LVGL/GUI/lvgl/src/core/lv_obj_scroll.c ****     lv_obj_t * child = obj;
 3207              		.loc 1 399 5 view .LVU976
 399:Middlewares/LVGL/GUI/lvgl/src/core/lv_obj_scroll.c ****     lv_obj_t * child = obj;
 3208              		.loc 1 399 16 is_stmt 0 view .LVU977
 3209 000c 0023     		movs	r3, #0
 3210 000e 0093     		str	r3, [sp]
 3211 0010 0193     		str	r3, [sp, #4]
 400:Middlewares/LVGL/GUI/lvgl/src/core/lv_obj_scroll.c ****     lv_obj_t * parent = lv_obj_get_parent(child);
ARM GAS  C:\Users\ADMINI~1\AppData\Local\Temp\cchMZgMB.s 			page 100


 3212              		.loc 1 400 5 is_stmt 1 view .LVU978
 3213              	.LVL400:
 401:Middlewares/LVGL/GUI/lvgl/src/core/lv_obj_scroll.c ****     while(parent) {
 3214              		.loc 1 401 5 view .LVU979
 401:Middlewares/LVGL/GUI/lvgl/src/core/lv_obj_scroll.c ****     while(parent) {
 3215              		.loc 1 401 25 is_stmt 0 view .LVU980
 3216 0012 2846     		mov	r0, r5
 3217 0014 FFF7FEFF 		bl	lv_obj_get_parent
 3218              	.LVL401:
 3219 0018 0446     		mov	r4, r0
 3220              	.LVL402:
 402:Middlewares/LVGL/GUI/lvgl/src/core/lv_obj_scroll.c ****         scroll_area_into_view(&obj->coords, child, &p, anim_en);
 3221              		.loc 1 402 5 is_stmt 1 view .LVU981
 400:Middlewares/LVGL/GUI/lvgl/src/core/lv_obj_scroll.c ****     lv_obj_t * parent = lv_obj_get_parent(child);
 3222              		.loc 1 400 16 is_stmt 0 view .LVU982
 3223 001a 2946     		mov	r1, r5
 402:Middlewares/LVGL/GUI/lvgl/src/core/lv_obj_scroll.c ****         scroll_area_into_view(&obj->coords, child, &p, anim_en);
 3224              		.loc 1 402 10 view .LVU983
 3225 001c 0AE0     		b	.L194
 3226              	.LVL403:
 3227              	.L195:
 403:Middlewares/LVGL/GUI/lvgl/src/core/lv_obj_scroll.c ****         child = parent;
 3228              		.loc 1 403 9 is_stmt 1 view .LVU984
 3229 001e 3346     		mov	r3, r6
 3230 0020 6A46     		mov	r2, sp
 3231 0022 05F11400 		add	r0, r5, #20
 3232              	.LVL404:
 403:Middlewares/LVGL/GUI/lvgl/src/core/lv_obj_scroll.c ****         child = parent;
 3233              		.loc 1 403 9 is_stmt 0 view .LVU985
 3234 0026 FFF7FEFF 		bl	scroll_area_into_view
 3235              	.LVL405:
 404:Middlewares/LVGL/GUI/lvgl/src/core/lv_obj_scroll.c ****         parent = lv_obj_get_parent(parent);
 3236              		.loc 1 404 9 is_stmt 1 view .LVU986
 405:Middlewares/LVGL/GUI/lvgl/src/core/lv_obj_scroll.c ****     }
 3237              		.loc 1 405 9 view .LVU987
 405:Middlewares/LVGL/GUI/lvgl/src/core/lv_obj_scroll.c ****     }
 3238              		.loc 1 405 18 is_stmt 0 view .LVU988
 3239 002a 2046     		mov	r0, r4
 3240 002c FFF7FEFF 		bl	lv_obj_get_parent
 3241              	.LVL406:
 404:Middlewares/LVGL/GUI/lvgl/src/core/lv_obj_scroll.c ****         parent = lv_obj_get_parent(parent);
 3242              		.loc 1 404 15 view .LVU989
 3243 0030 2146     		mov	r1, r4
 405:Middlewares/LVGL/GUI/lvgl/src/core/lv_obj_scroll.c ****     }
 3244              		.loc 1 405 18 view .LVU990
 3245 0032 0446     		mov	r4, r0
 3246              	.LVL407:
 3247              	.L194:
 402:Middlewares/LVGL/GUI/lvgl/src/core/lv_obj_scroll.c ****         scroll_area_into_view(&obj->coords, child, &p, anim_en);
 3248              		.loc 1 402 10 is_stmt 1 view .LVU991
 3249 0034 002C     		cmp	r4, #0
 3250 0036 F2D1     		bne	.L195
 407:Middlewares/LVGL/GUI/lvgl/src/core/lv_obj_scroll.c **** 
 3251              		.loc 1 407 1 is_stmt 0 view .LVU992
 3252 0038 02B0     		add	sp, sp, #8
 3253              	.LCFI29:
 3254              		.cfi_def_cfa_offset 16
ARM GAS  C:\Users\ADMINI~1\AppData\Local\Temp\cchMZgMB.s 			page 101


 3255              		@ sp needed
 3256 003a 70BD     		pop	{r4, r5, r6, pc}
 407:Middlewares/LVGL/GUI/lvgl/src/core/lv_obj_scroll.c **** 
 3257              		.loc 1 407 1 view .LVU993
 3258              		.cfi_endproc
 3259              	.LFE180:
 3261              		.section	.text.lv_obj_is_scrolling,"ax",%progbits
 3262              		.align	1
 3263              		.global	lv_obj_is_scrolling
 3264              		.syntax unified
 3265              		.thumb
 3266              		.thumb_func
 3268              	lv_obj_is_scrolling:
 3269              	.LVL408:
 3270              	.LFB181:
 410:Middlewares/LVGL/GUI/lvgl/src/core/lv_obj_scroll.c ****     lv_indev_t * indev = lv_indev_get_next(NULL);
 3271              		.loc 1 410 1 is_stmt 1 view -0
 3272              		.cfi_startproc
 3273              		@ args = 0, pretend = 0, frame = 0
 3274              		@ frame_needed = 0, uses_anonymous_args = 0
 410:Middlewares/LVGL/GUI/lvgl/src/core/lv_obj_scroll.c ****     lv_indev_t * indev = lv_indev_get_next(NULL);
 3275              		.loc 1 410 1 is_stmt 0 view .LVU995
 3276 0000 38B5     		push	{r3, r4, r5, lr}
 3277              	.LCFI30:
 3278              		.cfi_def_cfa_offset 16
 3279              		.cfi_offset 3, -16
 3280              		.cfi_offset 4, -12
 3281              		.cfi_offset 5, -8
 3282              		.cfi_offset 14, -4
 3283 0002 0546     		mov	r5, r0
 411:Middlewares/LVGL/GUI/lvgl/src/core/lv_obj_scroll.c ****     while(indev) {
 3284              		.loc 1 411 5 is_stmt 1 view .LVU996
 411:Middlewares/LVGL/GUI/lvgl/src/core/lv_obj_scroll.c ****     while(indev) {
 3285              		.loc 1 411 26 is_stmt 0 view .LVU997
 3286 0004 0020     		movs	r0, #0
 3287              	.LVL409:
 411:Middlewares/LVGL/GUI/lvgl/src/core/lv_obj_scroll.c ****     while(indev) {
 3288              		.loc 1 411 26 view .LVU998
 3289 0006 FFF7FEFF 		bl	lv_indev_get_next
 3290              	.LVL410:
 3291 000a 0446     		mov	r4, r0
 3292              	.LVL411:
 412:Middlewares/LVGL/GUI/lvgl/src/core/lv_obj_scroll.c ****         if(lv_indev_get_scroll_obj(indev) == obj) return true;
 3293              		.loc 1 412 5 is_stmt 1 view .LVU999
 412:Middlewares/LVGL/GUI/lvgl/src/core/lv_obj_scroll.c ****         if(lv_indev_get_scroll_obj(indev) == obj) return true;
 3294              		.loc 1 412 10 is_stmt 0 view .LVU1000
 3295 000c 03E0     		b	.L198
 3296              	.LVL412:
 3297              	.L204:
 414:Middlewares/LVGL/GUI/lvgl/src/core/lv_obj_scroll.c ****     }
 3298              		.loc 1 414 9 is_stmt 1 view .LVU1001
 414:Middlewares/LVGL/GUI/lvgl/src/core/lv_obj_scroll.c ****     }
 3299              		.loc 1 414 17 is_stmt 0 view .LVU1002
 3300 000e 2046     		mov	r0, r4
 3301 0010 FFF7FEFF 		bl	lv_indev_get_next
 3302              	.LVL413:
 3303 0014 0446     		mov	r4, r0
ARM GAS  C:\Users\ADMINI~1\AppData\Local\Temp\cchMZgMB.s 			page 102


 3304              	.LVL414:
 3305              	.L198:
 412:Middlewares/LVGL/GUI/lvgl/src/core/lv_obj_scroll.c ****         if(lv_indev_get_scroll_obj(indev) == obj) return true;
 3306              		.loc 1 412 10 is_stmt 1 view .LVU1003
 3307 0016 34B1     		cbz	r4, .L203
 413:Middlewares/LVGL/GUI/lvgl/src/core/lv_obj_scroll.c ****         indev = lv_indev_get_next(indev);
 3308              		.loc 1 413 9 view .LVU1004
 413:Middlewares/LVGL/GUI/lvgl/src/core/lv_obj_scroll.c ****         indev = lv_indev_get_next(indev);
 3309              		.loc 1 413 12 is_stmt 0 view .LVU1005
 3310 0018 2046     		mov	r0, r4
 413:Middlewares/LVGL/GUI/lvgl/src/core/lv_obj_scroll.c ****         indev = lv_indev_get_next(indev);
 3311              		.loc 1 413 12 view .LVU1006
 3312 001a FFF7FEFF 		bl	lv_indev_get_scroll_obj
 3313              	.LVL415:
 413:Middlewares/LVGL/GUI/lvgl/src/core/lv_obj_scroll.c ****         indev = lv_indev_get_next(indev);
 3314              		.loc 1 413 11 view .LVU1007
 3315 001e 8542     		cmp	r5, r0
 3316 0020 F5D1     		bne	.L204
 413:Middlewares/LVGL/GUI/lvgl/src/core/lv_obj_scroll.c ****         indev = lv_indev_get_next(indev);
 3317              		.loc 1 413 58 view .LVU1008
 3318 0022 0120     		movs	r0, #1
 3319 0024 00E0     		b	.L199
 3320              	.LVL416:
 3321              	.L203:
 417:Middlewares/LVGL/GUI/lvgl/src/core/lv_obj_scroll.c **** }
 3322              		.loc 1 417 12 view .LVU1009
 3323 0026 0020     		movs	r0, #0
 3324              	.LVL417:
 3325              	.L199:
 418:Middlewares/LVGL/GUI/lvgl/src/core/lv_obj_scroll.c **** 
 3326              		.loc 1 418 1 view .LVU1010
 3327 0028 38BD     		pop	{r3, r4, r5, pc}
 418:Middlewares/LVGL/GUI/lvgl/src/core/lv_obj_scroll.c **** 
 3328              		.loc 1 418 1 view .LVU1011
 3329              		.cfi_endproc
 3330              	.LFE181:
 3332              		.section	.text.lv_obj_update_snap,"ax",%progbits
 3333              		.align	1
 3334              		.global	lv_obj_update_snap
 3335              		.syntax unified
 3336              		.thumb
 3337              		.thumb_func
 3339              	lv_obj_update_snap:
 3340              	.LVL418:
 3341              	.LFB182:
 421:Middlewares/LVGL/GUI/lvgl/src/core/lv_obj_scroll.c ****     lv_obj_update_layout(obj);
 3342              		.loc 1 421 1 is_stmt 1 view -0
 3343              		.cfi_startproc
 3344              		@ args = 0, pretend = 0, frame = 8
 3345              		@ frame_needed = 0, uses_anonymous_args = 0
 421:Middlewares/LVGL/GUI/lvgl/src/core/lv_obj_scroll.c ****     lv_obj_update_layout(obj);
 3346              		.loc 1 421 1 is_stmt 0 view .LVU1013
 3347 0000 30B5     		push	{r4, r5, lr}
 3348              	.LCFI31:
 3349              		.cfi_def_cfa_offset 12
 3350              		.cfi_offset 4, -12
 3351              		.cfi_offset 5, -8
ARM GAS  C:\Users\ADMINI~1\AppData\Local\Temp\cchMZgMB.s 			page 103


 3352              		.cfi_offset 14, -4
 3353 0002 83B0     		sub	sp, sp, #12
 3354              	.LCFI32:
 3355              		.cfi_def_cfa_offset 24
 3356 0004 0446     		mov	r4, r0
 3357 0006 0D46     		mov	r5, r1
 422:Middlewares/LVGL/GUI/lvgl/src/core/lv_obj_scroll.c ****     lv_point_t p;
 3358              		.loc 1 422 5 is_stmt 1 view .LVU1014
 3359 0008 FFF7FEFF 		bl	lv_obj_update_layout
 3360              	.LVL419:
 423:Middlewares/LVGL/GUI/lvgl/src/core/lv_obj_scroll.c ****     lv_indev_scroll_get_snap_dist(obj, &p);
 3361              		.loc 1 423 5 view .LVU1015
 424:Middlewares/LVGL/GUI/lvgl/src/core/lv_obj_scroll.c ****     lv_obj_scroll_by(obj, p.x, p.y, anim_en);
 3362              		.loc 1 424 5 view .LVU1016
 3363 000c 6946     		mov	r1, sp
 3364 000e 2046     		mov	r0, r4
 3365 0010 FFF7FEFF 		bl	lv_indev_scroll_get_snap_dist
 3366              	.LVL420:
 425:Middlewares/LVGL/GUI/lvgl/src/core/lv_obj_scroll.c **** }
 3367              		.loc 1 425 5 view .LVU1017
 3368 0014 2B46     		mov	r3, r5
 3369 0016 019A     		ldr	r2, [sp, #4]
 3370 0018 0099     		ldr	r1, [sp]
 3371 001a 2046     		mov	r0, r4
 3372 001c FFF7FEFF 		bl	lv_obj_scroll_by
 3373              	.LVL421:
 426:Middlewares/LVGL/GUI/lvgl/src/core/lv_obj_scroll.c **** 
 3374              		.loc 1 426 1 is_stmt 0 view .LVU1018
 3375 0020 03B0     		add	sp, sp, #12
 3376              	.LCFI33:
 3377              		.cfi_def_cfa_offset 12
 3378              		@ sp needed
 3379 0022 30BD     		pop	{r4, r5, pc}
 426:Middlewares/LVGL/GUI/lvgl/src/core/lv_obj_scroll.c **** 
 3380              		.loc 1 426 1 view .LVU1019
 3381              		.cfi_endproc
 3382              	.LFE182:
 3384              		.section	.text.lv_obj_get_scrollbar_area,"ax",%progbits
 3385              		.align	1
 3386              		.global	lv_obj_get_scrollbar_area
 3387              		.syntax unified
 3388              		.thumb
 3389              		.thumb_func
 3391              	lv_obj_get_scrollbar_area:
 3392              	.LVL422:
 3393              	.LFB183:
 429:Middlewares/LVGL/GUI/lvgl/src/core/lv_obj_scroll.c ****     lv_area_set(hor_area, 0, 0, -1, -1);
 3394              		.loc 1 429 1 is_stmt 1 view -0
 3395              		.cfi_startproc
 3396              		@ args = 0, pretend = 0, frame = 56
 3397              		@ frame_needed = 0, uses_anonymous_args = 0
 429:Middlewares/LVGL/GUI/lvgl/src/core/lv_obj_scroll.c ****     lv_area_set(hor_area, 0, 0, -1, -1);
 3398              		.loc 1 429 1 is_stmt 0 view .LVU1021
 3399 0000 2DE9F04F 		push	{r4, r5, r6, r7, r8, r9, r10, fp, lr}
 3400              	.LCFI34:
 3401              		.cfi_def_cfa_offset 36
 3402              		.cfi_offset 4, -36
ARM GAS  C:\Users\ADMINI~1\AppData\Local\Temp\cchMZgMB.s 			page 104


 3403              		.cfi_offset 5, -32
 3404              		.cfi_offset 6, -28
 3405              		.cfi_offset 7, -24
 3406              		.cfi_offset 8, -20
 3407              		.cfi_offset 9, -16
 3408              		.cfi_offset 10, -12
 3409              		.cfi_offset 11, -8
 3410              		.cfi_offset 14, -4
 3411 0004 91B0     		sub	sp, sp, #68
 3412              	.LCFI35:
 3413              		.cfi_def_cfa_offset 104
 3414 0006 0446     		mov	r4, r0
 3415 0008 0F46     		mov	r7, r1
 3416 000a 1646     		mov	r6, r2
 430:Middlewares/LVGL/GUI/lvgl/src/core/lv_obj_scroll.c ****     lv_area_set(ver_area, 0, 0, -1, -1);
 3417              		.loc 1 430 5 is_stmt 1 view .LVU1022
 3418 000c 4FF0FF35 		mov	r5, #-1
 3419 0010 0095     		str	r5, [sp]
 3420 0012 2B46     		mov	r3, r5
 3421 0014 0022     		movs	r2, #0
 3422              	.LVL423:
 430:Middlewares/LVGL/GUI/lvgl/src/core/lv_obj_scroll.c ****     lv_area_set(ver_area, 0, 0, -1, -1);
 3423              		.loc 1 430 5 is_stmt 0 view .LVU1023
 3424 0016 1146     		mov	r1, r2
 3425              	.LVL424:
 430:Middlewares/LVGL/GUI/lvgl/src/core/lv_obj_scroll.c ****     lv_area_set(ver_area, 0, 0, -1, -1);
 3426              		.loc 1 430 5 view .LVU1024
 3427 0018 3846     		mov	r0, r7
 3428              	.LVL425:
 430:Middlewares/LVGL/GUI/lvgl/src/core/lv_obj_scroll.c ****     lv_area_set(ver_area, 0, 0, -1, -1);
 3429              		.loc 1 430 5 view .LVU1025
 3430 001a FFF7FEFF 		bl	lv_area_set
 3431              	.LVL426:
 431:Middlewares/LVGL/GUI/lvgl/src/core/lv_obj_scroll.c **** 
 3432              		.loc 1 431 5 is_stmt 1 view .LVU1026
 3433 001e 0095     		str	r5, [sp]
 3434 0020 2B46     		mov	r3, r5
 3435 0022 0022     		movs	r2, #0
 3436 0024 1146     		mov	r1, r2
 3437 0026 3046     		mov	r0, r6
 3438 0028 FFF7FEFF 		bl	lv_area_set
 3439              	.LVL427:
 433:Middlewares/LVGL/GUI/lvgl/src/core/lv_obj_scroll.c **** 
 3440              		.loc 1 433 5 view .LVU1027
 433:Middlewares/LVGL/GUI/lvgl/src/core/lv_obj_scroll.c **** 
 3441              		.loc 1 433 8 is_stmt 0 view .LVU1028
 3442 002c 1021     		movs	r1, #16
 3443 002e 2046     		mov	r0, r4
 3444 0030 FFF7FEFF 		bl	lv_obj_has_flag
 3445              	.LVL428:
 433:Middlewares/LVGL/GUI/lvgl/src/core/lv_obj_scroll.c **** 
 3446              		.loc 1 433 7 view .LVU1029
 3447 0034 0390     		str	r0, [sp, #12]
 3448 0036 20B1     		cbz	r0, .L207
 435:Middlewares/LVGL/GUI/lvgl/src/core/lv_obj_scroll.c ****     if(sm == LV_SCROLLBAR_MODE_OFF)  return;
 3449              		.loc 1 435 5 is_stmt 1 view .LVU1030
 435:Middlewares/LVGL/GUI/lvgl/src/core/lv_obj_scroll.c ****     if(sm == LV_SCROLLBAR_MODE_OFF)  return;
ARM GAS  C:\Users\ADMINI~1\AppData\Local\Temp\cchMZgMB.s 			page 105


 3450              		.loc 1 435 19 is_stmt 0 view .LVU1031
 3451 0038 2046     		mov	r0, r4
 3452 003a FFF7FEFF 		bl	lv_obj_get_scrollbar_mode
 3453              	.LVL429:
 436:Middlewares/LVGL/GUI/lvgl/src/core/lv_obj_scroll.c **** 
 3454              		.loc 1 436 5 is_stmt 1 view .LVU1032
 436:Middlewares/LVGL/GUI/lvgl/src/core/lv_obj_scroll.c **** 
 3455              		.loc 1 436 7 is_stmt 0 view .LVU1033
 3456 003e 8146     		mov	r9, r0
 3457 0040 10B9     		cbnz	r0, .L273
 3458              	.LVL430:
 3459              	.L207:
 600:Middlewares/LVGL/GUI/lvgl/src/core/lv_obj_scroll.c **** 
 3460              		.loc 1 600 1 view .LVU1034
 3461 0042 11B0     		add	sp, sp, #68
 3462              	.LCFI36:
 3463              		.cfi_remember_state
 3464              		.cfi_def_cfa_offset 36
 3465              		@ sp needed
 3466 0044 BDE8F08F 		pop	{r4, r5, r6, r7, r8, r9, r10, fp, pc}
 3467              	.LVL431:
 3468              	.L273:
 3469              	.LCFI37:
 3470              		.cfi_restore_state
 439:Middlewares/LVGL/GUI/lvgl/src/core/lv_obj_scroll.c ****     if(sm == LV_SCROLLBAR_MODE_ACTIVE) {
 3471              		.loc 1 439 5 is_stmt 1 view .LVU1035
 439:Middlewares/LVGL/GUI/lvgl/src/core/lv_obj_scroll.c ****     if(sm == LV_SCROLLBAR_MODE_ACTIVE) {
 3472              		.loc 1 439 26 is_stmt 0 view .LVU1036
 3473 0048 0020     		movs	r0, #0
 3474              	.LVL432:
 439:Middlewares/LVGL/GUI/lvgl/src/core/lv_obj_scroll.c ****     if(sm == LV_SCROLLBAR_MODE_ACTIVE) {
 3475              		.loc 1 439 26 view .LVU1037
 3476 004a FFF7FEFF 		bl	lv_indev_get_next
 3477              	.LVL433:
 3478 004e 0546     		mov	r5, r0
 3479              	.LVL434:
 440:Middlewares/LVGL/GUI/lvgl/src/core/lv_obj_scroll.c ****         while(indev) {
 3480              		.loc 1 440 5 is_stmt 1 view .LVU1038
 440:Middlewares/LVGL/GUI/lvgl/src/core/lv_obj_scroll.c ****         while(indev) {
 3481              		.loc 1 440 7 is_stmt 0 view .LVU1039
 3482 0050 B9F1020F 		cmp	r9, #2
 3483 0054 0CD1     		bne	.L210
 3484              	.L209:
 441:Middlewares/LVGL/GUI/lvgl/src/core/lv_obj_scroll.c ****             if(lv_indev_get_scroll_obj(indev) == obj) break;
 3485              		.loc 1 441 14 is_stmt 1 view .LVU1040
 3486 0056 4DB1     		cbz	r5, .L211
 442:Middlewares/LVGL/GUI/lvgl/src/core/lv_obj_scroll.c ****             indev = lv_indev_get_next(indev);
 3487              		.loc 1 442 13 view .LVU1041
 442:Middlewares/LVGL/GUI/lvgl/src/core/lv_obj_scroll.c ****             indev = lv_indev_get_next(indev);
 3488              		.loc 1 442 16 is_stmt 0 view .LVU1042
 3489 0058 2846     		mov	r0, r5
 442:Middlewares/LVGL/GUI/lvgl/src/core/lv_obj_scroll.c ****             indev = lv_indev_get_next(indev);
 3490              		.loc 1 442 16 view .LVU1043
 3491 005a FFF7FEFF 		bl	lv_indev_get_scroll_obj
 3492              	.LVL435:
 442:Middlewares/LVGL/GUI/lvgl/src/core/lv_obj_scroll.c ****             indev = lv_indev_get_next(indev);
 3493              		.loc 1 442 15 view .LVU1044
ARM GAS  C:\Users\ADMINI~1\AppData\Local\Temp\cchMZgMB.s 			page 106


 3494 005e 8442     		cmp	r4, r0
 3495 0060 04D0     		beq	.L211
 443:Middlewares/LVGL/GUI/lvgl/src/core/lv_obj_scroll.c ****         }
 3496              		.loc 1 443 13 is_stmt 1 view .LVU1045
 443:Middlewares/LVGL/GUI/lvgl/src/core/lv_obj_scroll.c ****         }
 3497              		.loc 1 443 21 is_stmt 0 view .LVU1046
 3498 0062 2846     		mov	r0, r5
 3499 0064 FFF7FEFF 		bl	lv_indev_get_next
 3500              	.LVL436:
 3501 0068 0546     		mov	r5, r0
 3502              	.LVL437:
 443:Middlewares/LVGL/GUI/lvgl/src/core/lv_obj_scroll.c ****         }
 3503              		.loc 1 443 21 view .LVU1047
 3504 006a F4E7     		b	.L209
 3505              	.LVL438:
 3506              	.L211:
 445:Middlewares/LVGL/GUI/lvgl/src/core/lv_obj_scroll.c ****     }
 3507              		.loc 1 445 9 is_stmt 1 view .LVU1048
 445:Middlewares/LVGL/GUI/lvgl/src/core/lv_obj_scroll.c ****     }
 3508              		.loc 1 445 11 is_stmt 0 view .LVU1049
 3509 006c 002D     		cmp	r5, #0
 3510 006e E8D0     		beq	.L207
 3511              	.L210:
 448:Middlewares/LVGL/GUI/lvgl/src/core/lv_obj_scroll.c ****     lv_coord_t sb = lv_obj_get_scroll_bottom(obj);
 3512              		.loc 1 448 5 is_stmt 1 view .LVU1050
 448:Middlewares/LVGL/GUI/lvgl/src/core/lv_obj_scroll.c ****     lv_coord_t sb = lv_obj_get_scroll_bottom(obj);
 3513              		.loc 1 448 21 is_stmt 0 view .LVU1051
 3514 0070 2046     		mov	r0, r4
 3515 0072 FFF7FEFF 		bl	lv_obj_get_scroll_top
 3516              	.LVL439:
 3517 0076 8046     		mov	r8, r0
 3518              	.LVL440:
 449:Middlewares/LVGL/GUI/lvgl/src/core/lv_obj_scroll.c ****     lv_coord_t sl = lv_obj_get_scroll_left(obj);
 3519              		.loc 1 449 5 is_stmt 1 view .LVU1052
 449:Middlewares/LVGL/GUI/lvgl/src/core/lv_obj_scroll.c ****     lv_coord_t sl = lv_obj_get_scroll_left(obj);
 3520              		.loc 1 449 21 is_stmt 0 view .LVU1053
 3521 0078 2046     		mov	r0, r4
 3522              	.LVL441:
 449:Middlewares/LVGL/GUI/lvgl/src/core/lv_obj_scroll.c ****     lv_coord_t sl = lv_obj_get_scroll_left(obj);
 3523              		.loc 1 449 21 view .LVU1054
 3524 007a FFF7FEFF 		bl	lv_obj_get_scroll_bottom
 3525              	.LVL442:
 3526 007e 0490     		str	r0, [sp, #16]
 3527              	.LVL443:
 450:Middlewares/LVGL/GUI/lvgl/src/core/lv_obj_scroll.c ****     lv_coord_t sr = lv_obj_get_scroll_right(obj);
 3528              		.loc 1 450 5 is_stmt 1 view .LVU1055
 450:Middlewares/LVGL/GUI/lvgl/src/core/lv_obj_scroll.c ****     lv_coord_t sr = lv_obj_get_scroll_right(obj);
 3529              		.loc 1 450 21 is_stmt 0 view .LVU1056
 3530 0080 2046     		mov	r0, r4
 3531              	.LVL444:
 450:Middlewares/LVGL/GUI/lvgl/src/core/lv_obj_scroll.c ****     lv_coord_t sr = lv_obj_get_scroll_right(obj);
 3532              		.loc 1 450 21 view .LVU1057
 3533 0082 FFF7FEFF 		bl	lv_obj_get_scroll_left
 3534              	.LVL445:
 3535 0086 0590     		str	r0, [sp, #20]
 3536              	.LVL446:
 451:Middlewares/LVGL/GUI/lvgl/src/core/lv_obj_scroll.c **** 
ARM GAS  C:\Users\ADMINI~1\AppData\Local\Temp\cchMZgMB.s 			page 107


 3537              		.loc 1 451 5 is_stmt 1 view .LVU1058
 451:Middlewares/LVGL/GUI/lvgl/src/core/lv_obj_scroll.c **** 
 3538              		.loc 1 451 21 is_stmt 0 view .LVU1059
 3539 0088 2046     		mov	r0, r4
 3540              	.LVL447:
 451:Middlewares/LVGL/GUI/lvgl/src/core/lv_obj_scroll.c **** 
 3541              		.loc 1 451 21 view .LVU1060
 3542 008a FFF7FEFF 		bl	lv_obj_get_scroll_right
 3543              	.LVL448:
 3544 008e 0690     		str	r0, [sp, #24]
 3545              	.LVL449:
 453:Middlewares/LVGL/GUI/lvgl/src/core/lv_obj_scroll.c **** 
 3546              		.loc 1 453 5 is_stmt 1 view .LVU1061
 453:Middlewares/LVGL/GUI/lvgl/src/core/lv_obj_scroll.c **** 
 3547              		.loc 1 453 20 is_stmt 0 view .LVU1062
 3548 0090 2046     		mov	r0, r4
 3549              	.LVL450:
 453:Middlewares/LVGL/GUI/lvgl/src/core/lv_obj_scroll.c **** 
 3550              		.loc 1 453 20 view .LVU1063
 3551 0092 FFF7FEFF 		bl	lv_obj_get_scroll_dir
 3552              	.LVL451:
 3553 0096 8246     		mov	r10, r0
 3554              	.LVL452:
 455:Middlewares/LVGL/GUI/lvgl/src/core/lv_obj_scroll.c ****     if((dir & LV_DIR_VER) &&
 3555              		.loc 1 455 5 is_stmt 1 view .LVU1064
 456:Middlewares/LVGL/GUI/lvgl/src/core/lv_obj_scroll.c ****        ((sm == LV_SCROLLBAR_MODE_ON) ||
 3556              		.loc 1 456 5 view .LVU1065
 456:Middlewares/LVGL/GUI/lvgl/src/core/lv_obj_scroll.c ****        ((sm == LV_SCROLLBAR_MODE_ON) ||
 3557              		.loc 1 456 7 is_stmt 0 view .LVU1066
 3558 0098 10F00C0F 		tst	r0, #12
 3559 009c 21D0     		beq	.L247
 456:Middlewares/LVGL/GUI/lvgl/src/core/lv_obj_scroll.c ****        ((sm == LV_SCROLLBAR_MODE_ON) ||
 3560              		.loc 1 456 27 discriminator 1 view .LVU1067
 3561 009e B9F1010F 		cmp	r9, #1
 3562 00a2 00F0F780 		beq	.L248
 457:Middlewares/LVGL/GUI/lvgl/src/core/lv_obj_scroll.c ****         (sm == LV_SCROLLBAR_MODE_AUTO && (st > 0 || sb > 0)) ||
 3563              		.loc 1 457 38 view .LVU1068
 3564 00a6 B9F1030F 		cmp	r9, #3
 3565 00aa 05D0     		beq	.L274
 3566              	.L214:
 458:Middlewares/LVGL/GUI/lvgl/src/core/lv_obj_scroll.c ****         (sm == LV_SCROLLBAR_MODE_ACTIVE && lv_indev_get_scroll_dir(indev) == LV_DIR_VER))) {
 3567              		.loc 1 458 62 discriminator 2 view .LVU1069
 3568 00ac B9F1020F 		cmp	r9, #2
 3569 00b0 0ED0     		beq	.L275
 455:Middlewares/LVGL/GUI/lvgl/src/core/lv_obj_scroll.c ****     if((dir & LV_DIR_VER) &&
 3570              		.loc 1 455 10 view .LVU1070
 3571 00b2 4FF0000B 		mov	fp, #0
 3572 00b6 16E0     		b	.L213
 3573              	.L274:
 458:Middlewares/LVGL/GUI/lvgl/src/core/lv_obj_scroll.c ****         (sm == LV_SCROLLBAR_MODE_ACTIVE && lv_indev_get_scroll_dir(indev) == LV_DIR_VER))) {
 3574              		.loc 1 458 39 view .LVU1071
 3575 00b8 B8F1000F 		cmp	r8, #0
 3576 00bc 02DD     		ble	.L276
 460:Middlewares/LVGL/GUI/lvgl/src/core/lv_obj_scroll.c ****     }
 3577              		.loc 1 460 18 view .LVU1072
 3578 00be DDF80CB0 		ldr	fp, [sp, #12]
 3579 00c2 10E0     		b	.L213
ARM GAS  C:\Users\ADMINI~1\AppData\Local\Temp\cchMZgMB.s 			page 108


 3580              	.L276:
 458:Middlewares/LVGL/GUI/lvgl/src/core/lv_obj_scroll.c ****         (sm == LV_SCROLLBAR_MODE_ACTIVE && lv_indev_get_scroll_dir(indev) == LV_DIR_VER))) {
 3581              		.loc 1 458 50 discriminator 1 view .LVU1073
 3582 00c4 049B     		ldr	r3, [sp, #16]
 3583 00c6 002B     		cmp	r3, #0
 3584 00c8 F0DD     		ble	.L214
 460:Middlewares/LVGL/GUI/lvgl/src/core/lv_obj_scroll.c ****     }
 3585              		.loc 1 460 18 view .LVU1074
 3586 00ca DDF80CB0 		ldr	fp, [sp, #12]
 3587 00ce 0AE0     		b	.L213
 3588              	.L275:
 459:Middlewares/LVGL/GUI/lvgl/src/core/lv_obj_scroll.c ****         ver_draw = true;
 3589              		.loc 1 459 44 view .LVU1075
 3590 00d0 2846     		mov	r0, r5
 3591              	.LVL453:
 459:Middlewares/LVGL/GUI/lvgl/src/core/lv_obj_scroll.c ****         ver_draw = true;
 3592              		.loc 1 459 44 view .LVU1076
 3593 00d2 FFF7FEFF 		bl	lv_indev_get_scroll_dir
 3594              	.LVL454:
 459:Middlewares/LVGL/GUI/lvgl/src/core/lv_obj_scroll.c ****         ver_draw = true;
 3595              		.loc 1 459 41 view .LVU1077
 3596 00d6 0C28     		cmp	r0, #12
 3597 00d8 00F0DF80 		beq	.L252
 455:Middlewares/LVGL/GUI/lvgl/src/core/lv_obj_scroll.c ****     if((dir & LV_DIR_VER) &&
 3598              		.loc 1 455 10 view .LVU1078
 3599 00dc 4FF0000B 		mov	fp, #0
 3600 00e0 01E0     		b	.L213
 3601              	.LVL455:
 3602              	.L247:
 455:Middlewares/LVGL/GUI/lvgl/src/core/lv_obj_scroll.c ****     if((dir & LV_DIR_VER) &&
 3603              		.loc 1 455 10 view .LVU1079
 3604 00e2 4FF0000B 		mov	fp, #0
 3605              	.LVL456:
 3606              	.L213:
 464:Middlewares/LVGL/GUI/lvgl/src/core/lv_obj_scroll.c ****     if((dir & LV_DIR_HOR) &&
 3607              		.loc 1 464 5 is_stmt 1 view .LVU1080
 465:Middlewares/LVGL/GUI/lvgl/src/core/lv_obj_scroll.c ****        ((sm == LV_SCROLLBAR_MODE_ON) ||
 3608              		.loc 1 465 5 view .LVU1081
 465:Middlewares/LVGL/GUI/lvgl/src/core/lv_obj_scroll.c ****        ((sm == LV_SCROLLBAR_MODE_ON) ||
 3609              		.loc 1 465 7 is_stmt 0 view .LVU1082
 3610 00e6 1AF0030F 		tst	r10, #3
 3611 00ea 0AD0     		beq	.L215
 465:Middlewares/LVGL/GUI/lvgl/src/core/lv_obj_scroll.c ****        ((sm == LV_SCROLLBAR_MODE_ON) ||
 3612              		.loc 1 465 27 discriminator 1 view .LVU1083
 3613 00ec B9F1010F 		cmp	r9, #1
 3614 00f0 0CD0     		beq	.L216
 466:Middlewares/LVGL/GUI/lvgl/src/core/lv_obj_scroll.c ****         (sm == LV_SCROLLBAR_MODE_AUTO && (sl > 0 || sr > 0)) ||
 3615              		.loc 1 466 38 view .LVU1084
 3616 00f2 B9F1030F 		cmp	r9, #3
 3617 00f6 00F0D380 		beq	.L277
 3618              	.L217:
 467:Middlewares/LVGL/GUI/lvgl/src/core/lv_obj_scroll.c ****         (sm == LV_SCROLLBAR_MODE_ACTIVE && lv_indev_get_scroll_dir(indev) == LV_DIR_HOR))) {
 3619              		.loc 1 467 62 discriminator 2 view .LVU1085
 3620 00fa B9F1020F 		cmp	r9, #2
 3621 00fe 00F0D880 		beq	.L278
 3622              	.L215:
 3623              	.LVL457:
ARM GAS  C:\Users\ADMINI~1\AppData\Local\Temp\cchMZgMB.s 			page 109


 472:Middlewares/LVGL/GUI/lvgl/src/core/lv_obj_scroll.c **** 
 3624              		.loc 1 472 18 discriminator 1 view .LVU1086
 3625 0102 BBF1000F 		cmp	fp, #0
 3626 0106 9CD0     		beq	.L207
 3627 0108 0023     		movs	r3, #0
 3628 010a 0393     		str	r3, [sp, #12]
 3629              	.L216:
 474:Middlewares/LVGL/GUI/lvgl/src/core/lv_obj_scroll.c **** 
 3630              		.loc 1 474 5 is_stmt 1 view .LVU1087
 3631              	.LVL458:
 3632              	.LBB178:
 3633              	.LBI178:
 542:Middlewares/LVGL/GUI/lvgl/src/core/lv_obj_style_gen.h **** {
 3634              		.loc 2 542 29 view .LVU1088
 3635              	.LBB179:
 544:Middlewares/LVGL/GUI/lvgl/src/core/lv_obj_style_gen.h ****     return (lv_base_dir_t)v.num;
 3636              		.loc 2 544 5 view .LVU1089
 544:Middlewares/LVGL/GUI/lvgl/src/core/lv_obj_style_gen.h ****     return (lv_base_dir_t)v.num;
 3637              		.loc 2 544 26 is_stmt 0 view .LVU1090
 3638 010c 41F26A42 		movw	r2, #5226
 3639 0110 4FF48031 		mov	r1, #65536
 3640 0114 2046     		mov	r0, r4
 3641 0116 FFF7FEFF 		bl	lv_obj_get_style_prop
 3642              	.LVL459:
 3643              		.loc 2 545 5 is_stmt 1 view .LVU1091
 3644              		.loc 2 545 12 is_stmt 0 view .LVU1092
 3645 011a C3B2     		uxtb	r3, r0
 3646 011c 0D93     		str	r3, [sp, #52]
 3647              	.LVL460:
 3648              		.loc 2 545 12 view .LVU1093
 3649              	.LBE179:
 3650              	.LBE178:
 476:Middlewares/LVGL/GUI/lvgl/src/core/lv_obj_scroll.c ****     lv_coord_t bottom_space = lv_obj_get_style_pad_bottom(obj, LV_PART_SCROLLBAR);
 3651              		.loc 1 476 5 is_stmt 1 view .LVU1094
 3652              	.LBB180:
 3653              	.LBI180:
  91:Middlewares/LVGL/GUI/lvgl/src/core/lv_obj_style_gen.h **** {
 3654              		.loc 2 91 26 view .LVU1095
 3655              	.LBB181:
  93:Middlewares/LVGL/GUI/lvgl/src/core/lv_obj_style_gen.h ****     return (lv_coord_t)v.num;
 3656              		.loc 2 93 5 view .LVU1096
  93:Middlewares/LVGL/GUI/lvgl/src/core/lv_obj_style_gen.h ****     return (lv_coord_t)v.num;
 3657              		.loc 2 93 26 is_stmt 0 view .LVU1097
 3658 011e 41F61002 		movw	r2, #6160
 3659 0122 4FF48031 		mov	r1, #65536
 3660 0126 2046     		mov	r0, r4
 3661 0128 FFF7FEFF 		bl	lv_obj_get_style_prop
 3662              	.LVL461:
 3663 012c 0B90     		str	r0, [sp, #44]
  94:Middlewares/LVGL/GUI/lvgl/src/core/lv_obj_style_gen.h **** }
 3664              		.loc 2 94 5 is_stmt 1 view .LVU1098
 3665              	.LVL462:
  94:Middlewares/LVGL/GUI/lvgl/src/core/lv_obj_style_gen.h **** }
 3666              		.loc 2 94 5 is_stmt 0 view .LVU1099
 3667              	.LBE181:
 3668              	.LBE180:
 477:Middlewares/LVGL/GUI/lvgl/src/core/lv_obj_scroll.c ****     lv_coord_t left_space = lv_obj_get_style_pad_left(obj, LV_PART_SCROLLBAR);
ARM GAS  C:\Users\ADMINI~1\AppData\Local\Temp\cchMZgMB.s 			page 110


 3669              		.loc 1 477 5 is_stmt 1 view .LVU1100
 3670              	.LBB182:
 3671              	.LBI182:
  97:Middlewares/LVGL/GUI/lvgl/src/core/lv_obj_style_gen.h **** {
 3672              		.loc 2 97 26 view .LVU1101
 3673              	.LBB183:
  99:Middlewares/LVGL/GUI/lvgl/src/core/lv_obj_style_gen.h ****     return (lv_coord_t)v.num;
 3674              		.loc 2 99 5 view .LVU1102
  99:Middlewares/LVGL/GUI/lvgl/src/core/lv_obj_style_gen.h ****     return (lv_coord_t)v.num;
 3675              		.loc 2 99 26 is_stmt 0 view .LVU1103
 3676 012e 41F61102 		movw	r2, #6161
 3677 0132 4FF48031 		mov	r1, #65536
 3678 0136 2046     		mov	r0, r4
 3679              	.LVL463:
  99:Middlewares/LVGL/GUI/lvgl/src/core/lv_obj_style_gen.h ****     return (lv_coord_t)v.num;
 3680              		.loc 2 99 26 view .LVU1104
 3681 0138 FFF7FEFF 		bl	lv_obj_get_style_prop
 3682              	.LVL464:
 3683 013c 0990     		str	r0, [sp, #36]
 100:Middlewares/LVGL/GUI/lvgl/src/core/lv_obj_style_gen.h **** }
 3684              		.loc 2 100 5 is_stmt 1 view .LVU1105
 3685              	.LVL465:
 100:Middlewares/LVGL/GUI/lvgl/src/core/lv_obj_style_gen.h **** }
 3686              		.loc 2 100 5 is_stmt 0 view .LVU1106
 3687              	.LBE183:
 3688              	.LBE182:
 478:Middlewares/LVGL/GUI/lvgl/src/core/lv_obj_scroll.c ****     lv_coord_t right_space = lv_obj_get_style_pad_right(obj, LV_PART_SCROLLBAR);
 3689              		.loc 1 478 5 is_stmt 1 view .LVU1107
 3690              	.LBB184:
 3691              	.LBI184:
 103:Middlewares/LVGL/GUI/lvgl/src/core/lv_obj_style_gen.h **** {
 3692              		.loc 2 103 26 view .LVU1108
 3693              	.LBB185:
 105:Middlewares/LVGL/GUI/lvgl/src/core/lv_obj_style_gen.h ****     return (lv_coord_t)v.num;
 3694              		.loc 2 105 5 view .LVU1109
 105:Middlewares/LVGL/GUI/lvgl/src/core/lv_obj_style_gen.h ****     return (lv_coord_t)v.num;
 3695              		.loc 2 105 26 is_stmt 0 view .LVU1110
 3696 013e 41F61202 		movw	r2, #6162
 3697 0142 4FF48031 		mov	r1, #65536
 3698 0146 2046     		mov	r0, r4
 3699              	.LVL466:
 105:Middlewares/LVGL/GUI/lvgl/src/core/lv_obj_style_gen.h ****     return (lv_coord_t)v.num;
 3700              		.loc 2 105 26 view .LVU1111
 3701 0148 FFF7FEFF 		bl	lv_obj_get_style_prop
 3702              	.LVL467:
 3703 014c 0E90     		str	r0, [sp, #56]
 106:Middlewares/LVGL/GUI/lvgl/src/core/lv_obj_style_gen.h **** }
 3704              		.loc 2 106 5 is_stmt 1 view .LVU1112
 3705              	.LVL468:
 106:Middlewares/LVGL/GUI/lvgl/src/core/lv_obj_style_gen.h **** }
 3706              		.loc 2 106 5 is_stmt 0 view .LVU1113
 3707              	.LBE185:
 3708              	.LBE184:
 479:Middlewares/LVGL/GUI/lvgl/src/core/lv_obj_scroll.c ****     lv_coord_t tickness = lv_obj_get_style_width(obj, LV_PART_SCROLLBAR);
 3709              		.loc 1 479 5 is_stmt 1 view .LVU1114
 3710              	.LBB186:
 3711              	.LBI186:
ARM GAS  C:\Users\ADMINI~1\AppData\Local\Temp\cchMZgMB.s 			page 111


 109:Middlewares/LVGL/GUI/lvgl/src/core/lv_obj_style_gen.h **** {
 3712              		.loc 2 109 26 view .LVU1115
 3713              	.LBB187:
 111:Middlewares/LVGL/GUI/lvgl/src/core/lv_obj_style_gen.h ****     return (lv_coord_t)v.num;
 3714              		.loc 2 111 5 view .LVU1116
 111:Middlewares/LVGL/GUI/lvgl/src/core/lv_obj_style_gen.h ****     return (lv_coord_t)v.num;
 3715              		.loc 2 111 26 is_stmt 0 view .LVU1117
 3716 014e 41F61302 		movw	r2, #6163
 3717 0152 4FF48031 		mov	r1, #65536
 3718 0156 2046     		mov	r0, r4
 3719              	.LVL469:
 111:Middlewares/LVGL/GUI/lvgl/src/core/lv_obj_style_gen.h ****     return (lv_coord_t)v.num;
 3720              		.loc 2 111 26 view .LVU1118
 3721 0158 FFF7FEFF 		bl	lv_obj_get_style_prop
 3722              	.LVL470:
 3723 015c 0A90     		str	r0, [sp, #40]
 112:Middlewares/LVGL/GUI/lvgl/src/core/lv_obj_style_gen.h **** }
 3724              		.loc 2 112 5 is_stmt 1 view .LVU1119
 3725              	.LVL471:
 112:Middlewares/LVGL/GUI/lvgl/src/core/lv_obj_style_gen.h **** }
 3726              		.loc 2 112 5 is_stmt 0 view .LVU1120
 3727              	.LBE187:
 3728              	.LBE186:
 480:Middlewares/LVGL/GUI/lvgl/src/core/lv_obj_scroll.c **** 
 3729              		.loc 1 480 5 is_stmt 1 view .LVU1121
 3730              	.LBB188:
 3731              	.LBI188:
   1:Middlewares/LVGL/GUI/lvgl/src/core/lv_obj_style_gen.h **** {
 3732              		.loc 2 1 26 view .LVU1122
 3733              	.LBB189:
   3:Middlewares/LVGL/GUI/lvgl/src/core/lv_obj_style_gen.h ****     return (lv_coord_t)v.num;
 3734              		.loc 2 3 5 view .LVU1123
   3:Middlewares/LVGL/GUI/lvgl/src/core/lv_obj_style_gen.h ****     return (lv_coord_t)v.num;
 3735              		.loc 2 3 26 is_stmt 0 view .LVU1124
 3736 015e 41F20102 		movw	r2, #4097
 3737 0162 4FF48031 		mov	r1, #65536
 3738 0166 2046     		mov	r0, r4
 3739              	.LVL472:
   3:Middlewares/LVGL/GUI/lvgl/src/core/lv_obj_style_gen.h ****     return (lv_coord_t)v.num;
 3740              		.loc 2 3 26 view .LVU1125
 3741 0168 FFF7FEFF 		bl	lv_obj_get_style_prop
 3742              	.LVL473:
 3743 016c 0546     		mov	r5, r0
 3744              	.LVL474:
   3:Middlewares/LVGL/GUI/lvgl/src/core/lv_obj_style_gen.h ****     return (lv_coord_t)v.num;
 3745              		.loc 2 3 26 view .LVU1126
 3746 016e 0890     		str	r0, [sp, #32]
   4:Middlewares/LVGL/GUI/lvgl/src/core/lv_obj_style_gen.h **** }
 3747              		.loc 2 4 5 is_stmt 1 view .LVU1127
 3748              	.LVL475:
   4:Middlewares/LVGL/GUI/lvgl/src/core/lv_obj_style_gen.h **** }
 3749              		.loc 2 4 5 is_stmt 0 view .LVU1128
 3750              	.LBE189:
 3751              	.LBE188:
 482:Middlewares/LVGL/GUI/lvgl/src/core/lv_obj_scroll.c ****     lv_coord_t obj_w = lv_obj_get_width(obj);
 3752              		.loc 1 482 5 is_stmt 1 view .LVU1129
 482:Middlewares/LVGL/GUI/lvgl/src/core/lv_obj_scroll.c ****     lv_coord_t obj_w = lv_obj_get_width(obj);
ARM GAS  C:\Users\ADMINI~1\AppData\Local\Temp\cchMZgMB.s 			page 112


 3753              		.loc 1 482 24 is_stmt 0 view .LVU1130
 3754 0170 2046     		mov	r0, r4
 3755              	.LVL476:
 482:Middlewares/LVGL/GUI/lvgl/src/core/lv_obj_scroll.c ****     lv_coord_t obj_w = lv_obj_get_width(obj);
 3756              		.loc 1 482 24 view .LVU1131
 3757 0172 FFF7FEFF 		bl	lv_obj_get_height
 3758              	.LVL477:
 3759 0176 8146     		mov	r9, r0
 3760              	.LVL478:
 483:Middlewares/LVGL/GUI/lvgl/src/core/lv_obj_scroll.c **** 
 3761              		.loc 1 483 5 is_stmt 1 view .LVU1132
 483:Middlewares/LVGL/GUI/lvgl/src/core/lv_obj_scroll.c **** 
 3762              		.loc 1 483 24 is_stmt 0 view .LVU1133
 3763 0178 2046     		mov	r0, r4
 3764              	.LVL479:
 483:Middlewares/LVGL/GUI/lvgl/src/core/lv_obj_scroll.c **** 
 3765              		.loc 1 483 24 view .LVU1134
 3766 017a FFF7FEFF 		bl	lv_obj_get_width
 3767              	.LVL480:
 3768 017e 0790     		str	r0, [sp, #28]
 3769              	.LVL481:
 486:Middlewares/LVGL/GUI/lvgl/src/core/lv_obj_scroll.c ****     lv_coord_t hor_req_space = hor_draw ? tickness : 0;
 3770              		.loc 1 486 5 is_stmt 1 view .LVU1135
 486:Middlewares/LVGL/GUI/lvgl/src/core/lv_obj_scroll.c ****     lv_coord_t hor_req_space = hor_draw ? tickness : 0;
 3771              		.loc 1 486 52 is_stmt 0 view .LVU1136
 3772 0180 BBF1000F 		cmp	fp, #0
 3773 0184 00F09C80 		beq	.L253
 3774 0188 0F95     		str	r5, [sp, #60]
 3775              	.L218:
 3776              	.LVL482:
 487:Middlewares/LVGL/GUI/lvgl/src/core/lv_obj_scroll.c ****     lv_coord_t rem;
 3777              		.loc 1 487 5 is_stmt 1 discriminator 4 view .LVU1137
 487:Middlewares/LVGL/GUI/lvgl/src/core/lv_obj_scroll.c ****     lv_coord_t rem;
 3778              		.loc 1 487 52 is_stmt 0 discriminator 4 view .LVU1138
 3779 018a 039B     		ldr	r3, [sp, #12]
 3780 018c 002B     		cmp	r3, #0
 3781 018e 00F09A80 		beq	.L254
 487:Middlewares/LVGL/GUI/lvgl/src/core/lv_obj_scroll.c ****     lv_coord_t rem;
 3782              		.loc 1 487 52 view .LVU1139
 3783 0192 089B     		ldr	r3, [sp, #32]
 3784 0194 0C93     		str	r3, [sp, #48]
 3785              	.L219:
 3786              	.LVL483:
 488:Middlewares/LVGL/GUI/lvgl/src/core/lv_obj_scroll.c **** 
 3787              		.loc 1 488 5 is_stmt 1 discriminator 4 view .LVU1140
 490:Middlewares/LVGL/GUI/lvgl/src/core/lv_obj_scroll.c ****        lv_obj_get_style_border_opa(obj, LV_PART_SCROLLBAR) < LV_OPA_MIN) {
 3788              		.loc 1 490 5 discriminator 4 view .LVU1141
 3789              	.LBB190:
 3790              	.LBI190:
 139:Middlewares/LVGL/GUI/lvgl/src/core/lv_obj_style_gen.h **** {
 3791              		.loc 2 139 24 discriminator 4 view .LVU1142
 3792              	.LBB191:
 141:Middlewares/LVGL/GUI/lvgl/src/core/lv_obj_style_gen.h ****     return (lv_opa_t)v.num;
 3793              		.loc 2 141 5 discriminator 4 view .LVU1143
 141:Middlewares/LVGL/GUI/lvgl/src/core/lv_obj_style_gen.h ****     return (lv_opa_t)v.num;
 3794              		.loc 2 141 26 is_stmt 0 discriminator 4 view .LVU1144
 3795 0196 2122     		movs	r2, #33
ARM GAS  C:\Users\ADMINI~1\AppData\Local\Temp\cchMZgMB.s 			page 113


 3796 0198 4FF48031 		mov	r1, #65536
 3797 019c 2046     		mov	r0, r4
 3798              	.LVL484:
 141:Middlewares/LVGL/GUI/lvgl/src/core/lv_obj_style_gen.h ****     return (lv_opa_t)v.num;
 3799              		.loc 2 141 26 discriminator 4 view .LVU1145
 3800 019e FFF7FEFF 		bl	lv_obj_get_style_prop
 3801              	.LVL485:
 142:Middlewares/LVGL/GUI/lvgl/src/core/lv_obj_style_gen.h **** }
 3802              		.loc 2 142 5 is_stmt 1 discriminator 4 view .LVU1146
 142:Middlewares/LVGL/GUI/lvgl/src/core/lv_obj_style_gen.h **** }
 3803              		.loc 2 142 12 is_stmt 0 discriminator 4 view .LVU1147
 3804 01a2 C0B2     		uxtb	r0, r0
 3805              	.LVL486:
 142:Middlewares/LVGL/GUI/lvgl/src/core/lv_obj_style_gen.h **** }
 3806              		.loc 2 142 12 discriminator 4 view .LVU1148
 3807              	.LBE191:
 3808              	.LBE190:
 490:Middlewares/LVGL/GUI/lvgl/src/core/lv_obj_scroll.c ****        lv_obj_get_style_border_opa(obj, LV_PART_SCROLLBAR) < LV_OPA_MIN) {
 3809              		.loc 1 490 7 discriminator 4 view .LVU1149
 3810 01a4 0128     		cmp	r0, #1
 3811 01a6 40F29180 		bls	.L279
 3812              	.L220:
 496:Middlewares/LVGL/GUI/lvgl/src/core/lv_obj_scroll.c ****     if(ver_draw && content_h) {
 3813              		.loc 1 496 5 is_stmt 1 view .LVU1150
 496:Middlewares/LVGL/GUI/lvgl/src/core/lv_obj_scroll.c ****     if(ver_draw && content_h) {
 3814              		.loc 1 496 34 is_stmt 0 view .LVU1151
 3815 01aa C844     		add	r8, r8, r9
 3816              	.LVL487:
 496:Middlewares/LVGL/GUI/lvgl/src/core/lv_obj_scroll.c ****     if(ver_draw && content_h) {
 3817              		.loc 1 496 16 view .LVU1152
 3818 01ac 049B     		ldr	r3, [sp, #16]
 3819 01ae 08EB0305 		add	r5, r8, r3
 3820              	.LVL488:
 497:Middlewares/LVGL/GUI/lvgl/src/core/lv_obj_scroll.c ****         ver_area->y1 = obj->coords.y1;
 3821              		.loc 1 497 5 is_stmt 1 view .LVU1153
 497:Middlewares/LVGL/GUI/lvgl/src/core/lv_obj_scroll.c ****         ver_area->y1 = obj->coords.y1;
 3822              		.loc 1 497 7 is_stmt 0 view .LVU1154
 3823 01b2 BBF1000F 		cmp	fp, #0
 3824 01b6 00F0CF80 		beq	.L221
 497:Middlewares/LVGL/GUI/lvgl/src/core/lv_obj_scroll.c ****         ver_area->y1 = obj->coords.y1;
 3825              		.loc 1 497 17 discriminator 1 view .LVU1155
 3826 01ba 002D     		cmp	r5, #0
 3827 01bc 00F0CC80 		beq	.L221
 3828              	.LBB192:
 498:Middlewares/LVGL/GUI/lvgl/src/core/lv_obj_scroll.c ****         ver_area->y2 = obj->coords.y2;
 3829              		.loc 1 498 9 is_stmt 1 view .LVU1156
 498:Middlewares/LVGL/GUI/lvgl/src/core/lv_obj_scroll.c ****         ver_area->y2 = obj->coords.y2;
 3830              		.loc 1 498 35 is_stmt 0 view .LVU1157
 3831 01c0 A369     		ldr	r3, [r4, #24]
 498:Middlewares/LVGL/GUI/lvgl/src/core/lv_obj_scroll.c ****         ver_area->y2 = obj->coords.y2;
 3832              		.loc 1 498 22 view .LVU1158
 3833 01c2 7360     		str	r3, [r6, #4]
 499:Middlewares/LVGL/GUI/lvgl/src/core/lv_obj_scroll.c ****         if(rtl) {
 3834              		.loc 1 499 9 is_stmt 1 view .LVU1159
 499:Middlewares/LVGL/GUI/lvgl/src/core/lv_obj_scroll.c ****         if(rtl) {
 3835              		.loc 1 499 35 is_stmt 0 view .LVU1160
 3836 01c4 236A     		ldr	r3, [r4, #32]
ARM GAS  C:\Users\ADMINI~1\AppData\Local\Temp\cchMZgMB.s 			page 114


 499:Middlewares/LVGL/GUI/lvgl/src/core/lv_obj_scroll.c ****         if(rtl) {
 3837              		.loc 1 499 22 view .LVU1161
 3838 01c6 F360     		str	r3, [r6, #12]
 500:Middlewares/LVGL/GUI/lvgl/src/core/lv_obj_scroll.c ****             ver_area->x1 = obj->coords.x1 + left_space;
 3839              		.loc 1 500 9 is_stmt 1 view .LVU1162
 500:Middlewares/LVGL/GUI/lvgl/src/core/lv_obj_scroll.c ****             ver_area->x1 = obj->coords.x1 + left_space;
 3840              		.loc 1 500 11 is_stmt 0 view .LVU1163
 3841 01c8 0D9B     		ldr	r3, [sp, #52]
 3842 01ca 012B     		cmp	r3, #1
 3843 01cc 00F08980 		beq	.L280
 505:Middlewares/LVGL/GUI/lvgl/src/core/lv_obj_scroll.c ****             ver_area->x1 = ver_area->x2 - tickness + 1;
 3844              		.loc 1 505 13 is_stmt 1 view .LVU1164
 505:Middlewares/LVGL/GUI/lvgl/src/core/lv_obj_scroll.c ****             ver_area->x1 = ver_area->x2 - tickness + 1;
 3845              		.loc 1 505 39 is_stmt 0 view .LVU1165
 3846 01d0 E369     		ldr	r3, [r4, #28]
 505:Middlewares/LVGL/GUI/lvgl/src/core/lv_obj_scroll.c ****             ver_area->x1 = ver_area->x2 - tickness + 1;
 3847              		.loc 1 505 43 view .LVU1166
 3848 01d2 0A9A     		ldr	r2, [sp, #40]
 3849 01d4 9B1A     		subs	r3, r3, r2
 505:Middlewares/LVGL/GUI/lvgl/src/core/lv_obj_scroll.c ****             ver_area->x1 = ver_area->x2 - tickness + 1;
 3850              		.loc 1 505 26 view .LVU1167
 3851 01d6 B360     		str	r3, [r6, #8]
 506:Middlewares/LVGL/GUI/lvgl/src/core/lv_obj_scroll.c ****         }
 3852              		.loc 1 506 13 is_stmt 1 view .LVU1168
 506:Middlewares/LVGL/GUI/lvgl/src/core/lv_obj_scroll.c ****         }
 3853              		.loc 1 506 41 is_stmt 0 view .LVU1169
 3854 01d8 089A     		ldr	r2, [sp, #32]
 3855 01da 9B1A     		subs	r3, r3, r2
 506:Middlewares/LVGL/GUI/lvgl/src/core/lv_obj_scroll.c ****         }
 3856              		.loc 1 506 52 view .LVU1170
 3857 01dc 0133     		adds	r3, r3, #1
 506:Middlewares/LVGL/GUI/lvgl/src/core/lv_obj_scroll.c ****         }
 3858              		.loc 1 506 26 view .LVU1171
 3859 01de 3360     		str	r3, [r6]
 3860              	.L223:
 509:Middlewares/LVGL/GUI/lvgl/src/core/lv_obj_scroll.c ****         sb_h = LV_MAX(sb_h, SCROLLBAR_MIN_SIZE);
 3861              		.loc 1 509 9 is_stmt 1 view .LVU1172
 509:Middlewares/LVGL/GUI/lvgl/src/core/lv_obj_scroll.c ****         sb_h = LV_MAX(sb_h, SCROLLBAR_MIN_SIZE);
 3862              		.loc 1 509 35 is_stmt 0 view .LVU1173
 3863 01e0 0B9B     		ldr	r3, [sp, #44]
 3864 01e2 A9EB0308 		sub	r8, r9, r3
 509:Middlewares/LVGL/GUI/lvgl/src/core/lv_obj_scroll.c ****         sb_h = LV_MAX(sb_h, SCROLLBAR_MIN_SIZE);
 3865              		.loc 1 509 47 view .LVU1174
 3866 01e6 099B     		ldr	r3, [sp, #36]
 3867 01e8 A8EB0308 		sub	r8, r8, r3
 509:Middlewares/LVGL/GUI/lvgl/src/core/lv_obj_scroll.c ****         sb_h = LV_MAX(sb_h, SCROLLBAR_MIN_SIZE);
 3868              		.loc 1 509 62 view .LVU1175
 3869 01ec 0C9B     		ldr	r3, [sp, #48]
 3870 01ee A8EB0308 		sub	r8, r8, r3
 509:Middlewares/LVGL/GUI/lvgl/src/core/lv_obj_scroll.c ****         sb_h = LV_MAX(sb_h, SCROLLBAR_MIN_SIZE);
 3871              		.loc 1 509 79 view .LVU1176
 3872 01f2 09FB08FA 		mul	r10, r9, r8
 509:Middlewares/LVGL/GUI/lvgl/src/core/lv_obj_scroll.c ****         sb_h = LV_MAX(sb_h, SCROLLBAR_MIN_SIZE);
 3873              		.loc 1 509 20 view .LVU1177
 3874 01f6 9AFBF5FA 		sdiv	r10, r10, r5
 3875              	.LVL489:
 510:Middlewares/LVGL/GUI/lvgl/src/core/lv_obj_scroll.c ****         rem = (obj_h - top_space - bottom_space - hor_req_space) -
ARM GAS  C:\Users\ADMINI~1\AppData\Local\Temp\cchMZgMB.s 			page 115


 3876              		.loc 1 510 9 is_stmt 1 view .LVU1178
 510:Middlewares/LVGL/GUI/lvgl/src/core/lv_obj_scroll.c ****         rem = (obj_h - top_space - bottom_space - hor_req_space) -
 3877              		.loc 1 510 16 is_stmt 0 view .LVU1179
 3878 01fa 0020     		movs	r0, #0
 3879 01fc FFF7FEFF 		bl	lv_disp_get_dpi
 3880              	.LVL490:
 3881 0200 00EB8000 		add	r0, r0, r0, lsl #2
 3882 0204 4000     		lsls	r0, r0, #1
 3883 0206 EF28     		cmp	r0, #239
 3884 0208 74DC     		bgt	.L281
 3885 020a 0123     		movs	r3, #1
 3886              	.L224:
 510:Middlewares/LVGL/GUI/lvgl/src/core/lv_obj_scroll.c ****         rem = (obj_h - top_space - bottom_space - hor_req_space) -
 3887              		.loc 1 510 16 discriminator 4 view .LVU1180
 3888 020c 5345     		cmp	r3, r10
 3889 020e 7FDA     		bge	.L282
 3890              	.LVL491:
 3891              	.L225:
 511:Middlewares/LVGL/GUI/lvgl/src/core/lv_obj_scroll.c ****               sb_h;  /*Remaining size from the scrollbar track that is not the scrollbar itself*/
 3892              		.loc 1 511 9 is_stmt 1 discriminator 12 view .LVU1181
 511:Middlewares/LVGL/GUI/lvgl/src/core/lv_obj_scroll.c ****               sb_h;  /*Remaining size from the scrollbar track that is not the scrollbar itself*/
 3893              		.loc 1 511 13 is_stmt 0 discriminator 12 view .LVU1182
 3894 0210 A8EB0A08 		sub	r8, r8, r10
 3895              	.LVL492:
 513:Middlewares/LVGL/GUI/lvgl/src/core/lv_obj_scroll.c ****         if(scroll_h <= 0) {
 3896              		.loc 1 513 9 is_stmt 1 discriminator 12 view .LVU1183
 513:Middlewares/LVGL/GUI/lvgl/src/core/lv_obj_scroll.c ****         if(scroll_h <= 0) {
 3897              		.loc 1 513 20 is_stmt 0 discriminator 12 view .LVU1184
 3898 0214 A5EB0905 		sub	r5, r5, r9
 3899              	.LVL493:
 514:Middlewares/LVGL/GUI/lvgl/src/core/lv_obj_scroll.c ****             ver_area->y1 = obj->coords.y1 + top_space;
 3900              		.loc 1 514 9 is_stmt 1 discriminator 12 view .LVU1185
 514:Middlewares/LVGL/GUI/lvgl/src/core/lv_obj_scroll.c ****             ver_area->y1 = obj->coords.y1 + top_space;
 3901              		.loc 1 514 11 is_stmt 0 discriminator 12 view .LVU1186
 3902 0218 002D     		cmp	r5, #0
 3903 021a 40F39280 		ble	.L283
 3904              	.LBB193:
 519:Middlewares/LVGL/GUI/lvgl/src/core/lv_obj_scroll.c ****             sb_y = rem - sb_y;
 3905              		.loc 1 519 13 is_stmt 1 view .LVU1187
 519:Middlewares/LVGL/GUI/lvgl/src/core/lv_obj_scroll.c ****             sb_y = rem - sb_y;
 3906              		.loc 1 519 36 is_stmt 0 view .LVU1188
 3907 021e 049B     		ldr	r3, [sp, #16]
 3908 0220 08FB03F0 		mul	r0, r8, r3
 519:Middlewares/LVGL/GUI/lvgl/src/core/lv_obj_scroll.c ****             sb_y = rem - sb_y;
 3909              		.loc 1 519 24 view .LVU1189
 3910 0224 90FBF5F5 		sdiv	r5, r0, r5
 3911              	.LVL494:
 520:Middlewares/LVGL/GUI/lvgl/src/core/lv_obj_scroll.c **** 
 3912              		.loc 1 520 13 is_stmt 1 view .LVU1190
 520:Middlewares/LVGL/GUI/lvgl/src/core/lv_obj_scroll.c **** 
 3913              		.loc 1 520 18 is_stmt 0 view .LVU1191
 3914 0228 A8EB0508 		sub	r8, r8, r5
 3915              	.LVL495:
 522:Middlewares/LVGL/GUI/lvgl/src/core/lv_obj_scroll.c ****             ver_area->y2 = ver_area->y1 + sb_h - 1;
 3916              		.loc 1 522 13 is_stmt 1 view .LVU1192
 522:Middlewares/LVGL/GUI/lvgl/src/core/lv_obj_scroll.c ****             ver_area->y2 = ver_area->y1 + sb_h - 1;
 3917              		.loc 1 522 39 is_stmt 0 view .LVU1193
ARM GAS  C:\Users\ADMINI~1\AppData\Local\Temp\cchMZgMB.s 			page 116


 3918 022c A269     		ldr	r2, [r4, #24]
 522:Middlewares/LVGL/GUI/lvgl/src/core/lv_obj_scroll.c ****             ver_area->y2 = ver_area->y1 + sb_h - 1;
 3919              		.loc 1 522 43 view .LVU1194
 3920 022e 9044     		add	r8, r8, r2
 3921              	.LVL496:
 522:Middlewares/LVGL/GUI/lvgl/src/core/lv_obj_scroll.c ****             ver_area->y2 = ver_area->y1 + sb_h - 1;
 3922              		.loc 1 522 50 view .LVU1195
 3923 0230 0B99     		ldr	r1, [sp, #44]
 3924 0232 08EB0102 		add	r2, r8, r1
 522:Middlewares/LVGL/GUI/lvgl/src/core/lv_obj_scroll.c ****             ver_area->y2 = ver_area->y1 + sb_h - 1;
 3925              		.loc 1 522 26 view .LVU1196
 3926 0236 7260     		str	r2, [r6, #4]
 523:Middlewares/LVGL/GUI/lvgl/src/core/lv_obj_scroll.c ****             if(ver_area->y1 < obj->coords.y1 + top_space) {
 3927              		.loc 1 523 13 is_stmt 1 view .LVU1197
 523:Middlewares/LVGL/GUI/lvgl/src/core/lv_obj_scroll.c ****             if(ver_area->y1 < obj->coords.y1 + top_space) {
 3928              		.loc 1 523 41 is_stmt 0 view .LVU1198
 3929 0238 9244     		add	r10, r10, r2
 3930              	.LVL497:
 523:Middlewares/LVGL/GUI/lvgl/src/core/lv_obj_scroll.c ****             if(ver_area->y1 < obj->coords.y1 + top_space) {
 3931              		.loc 1 523 48 view .LVU1199
 3932 023a 0AF1FF33 		add	r3, r10, #-1
 523:Middlewares/LVGL/GUI/lvgl/src/core/lv_obj_scroll.c ****             if(ver_area->y1 < obj->coords.y1 + top_space) {
 3933              		.loc 1 523 26 view .LVU1200
 3934 023e F360     		str	r3, [r6, #12]
 524:Middlewares/LVGL/GUI/lvgl/src/core/lv_obj_scroll.c ****                 ver_area->y1 = obj->coords.y1 + top_space;
 3935              		.loc 1 524 13 is_stmt 1 view .LVU1201
 524:Middlewares/LVGL/GUI/lvgl/src/core/lv_obj_scroll.c ****                 ver_area->y1 = obj->coords.y1 + top_space;
 3936              		.loc 1 524 42 is_stmt 0 view .LVU1202
 3937 0240 A569     		ldr	r5, [r4, #24]
 524:Middlewares/LVGL/GUI/lvgl/src/core/lv_obj_scroll.c ****                 ver_area->y1 = obj->coords.y1 + top_space;
 3938              		.loc 1 524 46 view .LVU1203
 3939 0242 0D44     		add	r5, r5, r1
 524:Middlewares/LVGL/GUI/lvgl/src/core/lv_obj_scroll.c ****                 ver_area->y1 = obj->coords.y1 + top_space;
 3940              		.loc 1 524 15 view .LVU1204
 3941 0244 AA42     		cmp	r2, r5
 3942 0246 C0F2FD80 		blt	.L284
 3943              	.L227:
 530:Middlewares/LVGL/GUI/lvgl/src/core/lv_obj_scroll.c ****                 ver_area->y2 = obj->coords.y2 - hor_req_space - bottom_space;
 3944              		.loc 1 530 13 is_stmt 1 view .LVU1205
 530:Middlewares/LVGL/GUI/lvgl/src/core/lv_obj_scroll.c ****                 ver_area->y2 = obj->coords.y2 - hor_req_space - bottom_space;
 3945              		.loc 1 530 24 is_stmt 0 view .LVU1206
 3946 024a F368     		ldr	r3, [r6, #12]
 530:Middlewares/LVGL/GUI/lvgl/src/core/lv_obj_scroll.c ****                 ver_area->y2 = obj->coords.y2 - hor_req_space - bottom_space;
 3947              		.loc 1 530 42 view .LVU1207
 3948 024c 256A     		ldr	r5, [r4, #32]
 530:Middlewares/LVGL/GUI/lvgl/src/core/lv_obj_scroll.c ****                 ver_area->y2 = obj->coords.y2 - hor_req_space - bottom_space;
 3949              		.loc 1 530 46 view .LVU1208
 3950 024e 0C9A     		ldr	r2, [sp, #48]
 3951 0250 AD1A     		subs	r5, r5, r2
 530:Middlewares/LVGL/GUI/lvgl/src/core/lv_obj_scroll.c ****                 ver_area->y2 = obj->coords.y2 - hor_req_space - bottom_space;
 3952              		.loc 1 530 62 view .LVU1209
 3953 0252 099A     		ldr	r2, [sp, #36]
 3954 0254 AD1A     		subs	r5, r5, r2
 530:Middlewares/LVGL/GUI/lvgl/src/core/lv_obj_scroll.c ****                 ver_area->y2 = obj->coords.y2 - hor_req_space - bottom_space;
 3955              		.loc 1 530 15 view .LVU1210
 3956 0256 AB42     		cmp	r3, r5
 3957 0258 7EDD     		ble	.L221
ARM GAS  C:\Users\ADMINI~1\AppData\Local\Temp\cchMZgMB.s 			page 117


 531:Middlewares/LVGL/GUI/lvgl/src/core/lv_obj_scroll.c ****                 if(ver_area->y2 - SCROLLBAR_MIN_SIZE < ver_area->y1) {
 3958              		.loc 1 531 17 is_stmt 1 view .LVU1211
 531:Middlewares/LVGL/GUI/lvgl/src/core/lv_obj_scroll.c ****                 if(ver_area->y2 - SCROLLBAR_MIN_SIZE < ver_area->y1) {
 3959              		.loc 1 531 30 is_stmt 0 view .LVU1212
 3960 025a F560     		str	r5, [r6, #12]
 532:Middlewares/LVGL/GUI/lvgl/src/core/lv_obj_scroll.c ****                     ver_area->y1 = ver_area->y2 - SCROLLBAR_MIN_SIZE;
 3961              		.loc 1 532 17 is_stmt 1 view .LVU1213
 532:Middlewares/LVGL/GUI/lvgl/src/core/lv_obj_scroll.c ****                     ver_area->y1 = ver_area->y2 - SCROLLBAR_MIN_SIZE;
 3962              		.loc 1 532 35 is_stmt 0 view .LVU1214
 3963 025c 0020     		movs	r0, #0
 3964 025e FFF7FEFF 		bl	lv_disp_get_dpi
 3965              	.LVL498:
 3966 0262 00EB8000 		add	r0, r0, r0, lsl #2
 3967 0266 4300     		lsls	r3, r0, #1
 3968 0268 EF2B     		cmp	r3, #239
 3969 026a 00F32381 		bgt	.L285
 3970 026e 0123     		movs	r3, #1
 3971              	.L230:
 532:Middlewares/LVGL/GUI/lvgl/src/core/lv_obj_scroll.c ****                     ver_area->y1 = ver_area->y2 - SCROLLBAR_MIN_SIZE;
 3972              		.loc 1 532 33 discriminator 4 view .LVU1215
 3973 0270 ED1A     		subs	r5, r5, r3
 532:Middlewares/LVGL/GUI/lvgl/src/core/lv_obj_scroll.c ****                     ver_area->y1 = ver_area->y2 - SCROLLBAR_MIN_SIZE;
 3974              		.loc 1 532 64 discriminator 4 view .LVU1216
 3975 0272 7368     		ldr	r3, [r6, #4]
 532:Middlewares/LVGL/GUI/lvgl/src/core/lv_obj_scroll.c ****                     ver_area->y1 = ver_area->y2 - SCROLLBAR_MIN_SIZE;
 3976              		.loc 1 532 19 discriminator 4 view .LVU1217
 3977 0274 9D42     		cmp	r5, r3
 3978 0276 6FDA     		bge	.L221
 533:Middlewares/LVGL/GUI/lvgl/src/core/lv_obj_scroll.c ****                 }
 3979              		.loc 1 533 21 is_stmt 1 view .LVU1218
 533:Middlewares/LVGL/GUI/lvgl/src/core/lv_obj_scroll.c ****                 }
 3980              		.loc 1 533 44 is_stmt 0 view .LVU1219
 3981 0278 F568     		ldr	r5, [r6, #12]
 533:Middlewares/LVGL/GUI/lvgl/src/core/lv_obj_scroll.c ****                 }
 3982              		.loc 1 533 51 view .LVU1220
 3983 027a 0020     		movs	r0, #0
 3984 027c FFF7FEFF 		bl	lv_disp_get_dpi
 3985              	.LVL499:
 3986 0280 00EB8000 		add	r0, r0, r0, lsl #2
 3987 0284 4300     		lsls	r3, r0, #1
 3988 0286 EF2B     		cmp	r3, #239
 3989 0288 00F32281 		bgt	.L286
 3990 028c 0123     		movs	r3, #1
 3991              	.L231:
 533:Middlewares/LVGL/GUI/lvgl/src/core/lv_obj_scroll.c ****                 }
 3992              		.loc 1 533 49 discriminator 4 view .LVU1221
 3993 028e EB1A     		subs	r3, r5, r3
 533:Middlewares/LVGL/GUI/lvgl/src/core/lv_obj_scroll.c ****                 }
 3994              		.loc 1 533 34 discriminator 4 view .LVU1222
 3995 0290 7360     		str	r3, [r6, #4]
 3996 0292 61E0     		b	.L221
 3997              	.LVL500:
 3998              	.L248:
 533:Middlewares/LVGL/GUI/lvgl/src/core/lv_obj_scroll.c ****                 }
 3999              		.loc 1 533 34 discriminator 4 view .LVU1223
 4000              	.LBE193:
 4001              	.LBE192:
ARM GAS  C:\Users\ADMINI~1\AppData\Local\Temp\cchMZgMB.s 			page 118


 460:Middlewares/LVGL/GUI/lvgl/src/core/lv_obj_scroll.c ****     }
 4002              		.loc 1 460 18 view .LVU1224
 4003 0294 DDF80CB0 		ldr	fp, [sp, #12]
 4004 0298 25E7     		b	.L213
 4005              	.LVL501:
 4006              	.L252:
 460:Middlewares/LVGL/GUI/lvgl/src/core/lv_obj_scroll.c ****     }
 4007              		.loc 1 460 18 view .LVU1225
 4008 029a DDF80CB0 		ldr	fp, [sp, #12]
 4009 029e 22E7     		b	.L213
 4010              	.LVL502:
 4011              	.L277:
 467:Middlewares/LVGL/GUI/lvgl/src/core/lv_obj_scroll.c ****         (sm == LV_SCROLLBAR_MODE_ACTIVE && lv_indev_get_scroll_dir(indev) == LV_DIR_HOR))) {
 4012              		.loc 1 467 39 view .LVU1226
 4013 02a0 059B     		ldr	r3, [sp, #20]
 4014 02a2 002B     		cmp	r3, #0
 4015 02a4 3FF732AF 		bgt	.L216
 467:Middlewares/LVGL/GUI/lvgl/src/core/lv_obj_scroll.c ****         (sm == LV_SCROLLBAR_MODE_ACTIVE && lv_indev_get_scroll_dir(indev) == LV_DIR_HOR))) {
 4016              		.loc 1 467 50 discriminator 1 view .LVU1227
 4017 02a8 069B     		ldr	r3, [sp, #24]
 4018 02aa 002B     		cmp	r3, #0
 4019 02ac 3FF72EAF 		bgt	.L216
 4020 02b0 23E7     		b	.L217
 4021              	.L278:
 468:Middlewares/LVGL/GUI/lvgl/src/core/lv_obj_scroll.c ****         hor_draw = true;
 4022              		.loc 1 468 44 view .LVU1228
 4023 02b2 2846     		mov	r0, r5
 4024 02b4 FFF7FEFF 		bl	lv_indev_get_scroll_dir
 4025              	.LVL503:
 468:Middlewares/LVGL/GUI/lvgl/src/core/lv_obj_scroll.c ****         hor_draw = true;
 4026              		.loc 1 468 41 view .LVU1229
 4027 02b8 0328     		cmp	r0, #3
 4028 02ba 7FF422AF 		bne	.L215
 4029 02be 25E7     		b	.L216
 4030              	.LVL504:
 4031              	.L253:
 486:Middlewares/LVGL/GUI/lvgl/src/core/lv_obj_scroll.c ****     lv_coord_t hor_req_space = hor_draw ? tickness : 0;
 4032              		.loc 1 486 52 view .LVU1230
 4033 02c0 0023     		movs	r3, #0
 4034 02c2 0F93     		str	r3, [sp, #60]
 4035 02c4 61E7     		b	.L218
 4036              	.LVL505:
 4037              	.L254:
 487:Middlewares/LVGL/GUI/lvgl/src/core/lv_obj_scroll.c ****     lv_coord_t rem;
 4038              		.loc 1 487 52 view .LVU1231
 4039 02c6 0023     		movs	r3, #0
 4040 02c8 0C93     		str	r3, [sp, #48]
 4041 02ca 64E7     		b	.L219
 4042              	.LVL506:
 4043              	.L279:
 4044              	.LBB195:
 4045              	.LBI195:
 235:Middlewares/LVGL/GUI/lvgl/src/core/lv_obj_style_gen.h **** {
 4046              		.loc 2 235 24 is_stmt 1 view .LVU1232
 4047              	.LBB196:
 237:Middlewares/LVGL/GUI/lvgl/src/core/lv_obj_style_gen.h ****     return (lv_opa_t)v.num;
 4048              		.loc 2 237 5 view .LVU1233
ARM GAS  C:\Users\ADMINI~1\AppData\Local\Temp\cchMZgMB.s 			page 119


 237:Middlewares/LVGL/GUI/lvgl/src/core/lv_obj_style_gen.h ****     return (lv_opa_t)v.num;
 4049              		.loc 2 237 26 is_stmt 0 view .LVU1234
 4050 02cc 3122     		movs	r2, #49
 4051 02ce 4FF48031 		mov	r1, #65536
 4052 02d2 2046     		mov	r0, r4
 4053 02d4 FFF7FEFF 		bl	lv_obj_get_style_prop
 4054              	.LVL507:
 238:Middlewares/LVGL/GUI/lvgl/src/core/lv_obj_style_gen.h **** }
 4055              		.loc 2 238 5 is_stmt 1 view .LVU1235
 238:Middlewares/LVGL/GUI/lvgl/src/core/lv_obj_style_gen.h **** }
 4056              		.loc 2 238 12 is_stmt 0 view .LVU1236
 4057 02d8 C0B2     		uxtb	r0, r0
 4058              	.LVL508:
 238:Middlewares/LVGL/GUI/lvgl/src/core/lv_obj_style_gen.h **** }
 4059              		.loc 2 238 12 view .LVU1237
 4060              	.LBE196:
 4061              	.LBE195:
 490:Middlewares/LVGL/GUI/lvgl/src/core/lv_obj_scroll.c ****        lv_obj_get_style_border_opa(obj, LV_PART_SCROLLBAR) < LV_OPA_MIN) {
 4062              		.loc 1 490 69 view .LVU1238
 4063 02da 0128     		cmp	r0, #1
 4064 02dc 3FF665AF 		bhi	.L220
 4065 02e0 AFE6     		b	.L207
 4066              	.LVL509:
 4067              	.L280:
 4068              	.LBB197:
 501:Middlewares/LVGL/GUI/lvgl/src/core/lv_obj_scroll.c ****             ver_area->x2 = ver_area->x1 + tickness - 1;
 4069              		.loc 1 501 13 is_stmt 1 view .LVU1239
 501:Middlewares/LVGL/GUI/lvgl/src/core/lv_obj_scroll.c ****             ver_area->x2 = ver_area->x1 + tickness - 1;
 4070              		.loc 1 501 39 is_stmt 0 view .LVU1240
 4071 02e2 6369     		ldr	r3, [r4, #20]
 501:Middlewares/LVGL/GUI/lvgl/src/core/lv_obj_scroll.c ****             ver_area->x2 = ver_area->x1 + tickness - 1;
 4072              		.loc 1 501 43 view .LVU1241
 4073 02e4 0E9A     		ldr	r2, [sp, #56]
 4074 02e6 1344     		add	r3, r3, r2
 501:Middlewares/LVGL/GUI/lvgl/src/core/lv_obj_scroll.c ****             ver_area->x2 = ver_area->x1 + tickness - 1;
 4075              		.loc 1 501 26 view .LVU1242
 4076 02e8 3360     		str	r3, [r6]
 502:Middlewares/LVGL/GUI/lvgl/src/core/lv_obj_scroll.c ****         }
 4077              		.loc 1 502 13 is_stmt 1 view .LVU1243
 502:Middlewares/LVGL/GUI/lvgl/src/core/lv_obj_scroll.c ****         }
 4078              		.loc 1 502 41 is_stmt 0 view .LVU1244
 4079 02ea 089A     		ldr	r2, [sp, #32]
 4080 02ec 1344     		add	r3, r3, r2
 502:Middlewares/LVGL/GUI/lvgl/src/core/lv_obj_scroll.c ****         }
 4081              		.loc 1 502 52 view .LVU1245
 4082 02ee 013B     		subs	r3, r3, #1
 502:Middlewares/LVGL/GUI/lvgl/src/core/lv_obj_scroll.c ****         }
 4083              		.loc 1 502 26 view .LVU1246
 4084 02f0 B360     		str	r3, [r6, #8]
 4085 02f2 75E7     		b	.L223
 4086              	.LVL510:
 4087              	.L281:
 510:Middlewares/LVGL/GUI/lvgl/src/core/lv_obj_scroll.c ****         rem = (obj_h - top_space - bottom_space - hor_req_space) -
 4088              		.loc 1 510 16 discriminator 1 view .LVU1247
 4089 02f4 0020     		movs	r0, #0
 4090 02f6 FFF7FEFF 		bl	lv_disp_get_dpi
 4091              	.LVL511:
ARM GAS  C:\Users\ADMINI~1\AppData\Local\Temp\cchMZgMB.s 			page 120


 4092 02fa 00EB8000 		add	r0, r0, r0, lsl #2
 4093 02fe 4300     		lsls	r3, r0, #1
 4094 0300 5033     		adds	r3, r3, #80
 4095 0302 B54A     		ldr	r2, .L306
 4096 0304 82FB0312 		smull	r1, r2, r2, r3
 4097 0308 DB17     		asrs	r3, r3, #31
 4098 030a C3EBA213 		rsb	r3, r3, r2, asr #6
 4099 030e 7DE7     		b	.L224
 4100              	.L282:
 510:Middlewares/LVGL/GUI/lvgl/src/core/lv_obj_scroll.c ****         rem = (obj_h - top_space - bottom_space - hor_req_space) -
 4101              		.loc 1 510 16 discriminator 5 view .LVU1248
 4102 0310 0020     		movs	r0, #0
 4103 0312 FFF7FEFF 		bl	lv_disp_get_dpi
 4104              	.LVL512:
 4105 0316 00EB8000 		add	r0, r0, r0, lsl #2
 4106 031a 4300     		lsls	r3, r0, #1
 4107 031c EF2B     		cmp	r3, #239
 4108 031e 02DC     		bgt	.L287
 510:Middlewares/LVGL/GUI/lvgl/src/core/lv_obj_scroll.c ****         rem = (obj_h - top_space - bottom_space - hor_req_space) -
 4109              		.loc 1 510 16 view .LVU1249
 4110 0320 4FF0010A 		mov	r10, #1
 4111              	.LVL513:
 510:Middlewares/LVGL/GUI/lvgl/src/core/lv_obj_scroll.c ****         rem = (obj_h - top_space - bottom_space - hor_req_space) -
 4112              		.loc 1 510 16 view .LVU1250
 4113 0324 74E7     		b	.L225
 4114              	.LVL514:
 4115              	.L287:
 510:Middlewares/LVGL/GUI/lvgl/src/core/lv_obj_scroll.c ****         rem = (obj_h - top_space - bottom_space - hor_req_space) -
 4116              		.loc 1 510 16 discriminator 7 view .LVU1251
 4117 0326 0020     		movs	r0, #0
 4118 0328 FFF7FEFF 		bl	lv_disp_get_dpi
 4119              	.LVL515:
 4120 032c 00EB8000 		add	r0, r0, r0, lsl #2
 4121 0330 4300     		lsls	r3, r0, #1
 4122 0332 5033     		adds	r3, r3, #80
 4123 0334 A84A     		ldr	r2, .L306
 4124 0336 82FB032A 		smull	r2, r10, r2, r3
 4125              	.LVL516:
 510:Middlewares/LVGL/GUI/lvgl/src/core/lv_obj_scroll.c ****         rem = (obj_h - top_space - bottom_space - hor_req_space) -
 4126              		.loc 1 510 16 discriminator 7 view .LVU1252
 4127 033a DB17     		asrs	r3, r3, #31
 4128 033c C3EBAA1A 		rsb	r10, r3, r10, asr #6
 4129 0340 66E7     		b	.L225
 4130              	.LVL517:
 4131              	.L283:
 515:Middlewares/LVGL/GUI/lvgl/src/core/lv_obj_scroll.c ****             ver_area->y2 = obj->coords.y2 - bottom_space - hor_req_space - 1;
 4132              		.loc 1 515 13 is_stmt 1 view .LVU1253
 515:Middlewares/LVGL/GUI/lvgl/src/core/lv_obj_scroll.c ****             ver_area->y2 = obj->coords.y2 - bottom_space - hor_req_space - 1;
 4133              		.loc 1 515 39 is_stmt 0 view .LVU1254
 4134 0342 A369     		ldr	r3, [r4, #24]
 515:Middlewares/LVGL/GUI/lvgl/src/core/lv_obj_scroll.c ****             ver_area->y2 = obj->coords.y2 - bottom_space - hor_req_space - 1;
 4135              		.loc 1 515 43 view .LVU1255
 4136 0344 0B9A     		ldr	r2, [sp, #44]
 4137 0346 1344     		add	r3, r3, r2
 515:Middlewares/LVGL/GUI/lvgl/src/core/lv_obj_scroll.c ****             ver_area->y2 = obj->coords.y2 - bottom_space - hor_req_space - 1;
 4138              		.loc 1 515 26 view .LVU1256
 4139 0348 7360     		str	r3, [r6, #4]
ARM GAS  C:\Users\ADMINI~1\AppData\Local\Temp\cchMZgMB.s 			page 121


 516:Middlewares/LVGL/GUI/lvgl/src/core/lv_obj_scroll.c ****         }
 4140              		.loc 1 516 13 is_stmt 1 view .LVU1257
 516:Middlewares/LVGL/GUI/lvgl/src/core/lv_obj_scroll.c ****         }
 4141              		.loc 1 516 39 is_stmt 0 view .LVU1258
 4142 034a 236A     		ldr	r3, [r4, #32]
 516:Middlewares/LVGL/GUI/lvgl/src/core/lv_obj_scroll.c ****         }
 4143              		.loc 1 516 43 view .LVU1259
 4144 034c 099A     		ldr	r2, [sp, #36]
 4145 034e 9B1A     		subs	r3, r3, r2
 516:Middlewares/LVGL/GUI/lvgl/src/core/lv_obj_scroll.c ****         }
 4146              		.loc 1 516 58 view .LVU1260
 4147 0350 0C9A     		ldr	r2, [sp, #48]
 4148 0352 9B1A     		subs	r3, r3, r2
 516:Middlewares/LVGL/GUI/lvgl/src/core/lv_obj_scroll.c ****         }
 4149              		.loc 1 516 74 view .LVU1261
 4150 0354 013B     		subs	r3, r3, #1
 516:Middlewares/LVGL/GUI/lvgl/src/core/lv_obj_scroll.c ****         }
 4151              		.loc 1 516 26 view .LVU1262
 4152 0356 F360     		str	r3, [r6, #12]
 4153              	.LVL518:
 4154              	.L221:
 516:Middlewares/LVGL/GUI/lvgl/src/core/lv_obj_scroll.c ****         }
 4155              		.loc 1 516 26 view .LVU1263
 4156              	.LBE197:
 540:Middlewares/LVGL/GUI/lvgl/src/core/lv_obj_scroll.c ****     if(hor_draw && content_w) {
 4157              		.loc 1 540 5 is_stmt 1 view .LVU1264
 540:Middlewares/LVGL/GUI/lvgl/src/core/lv_obj_scroll.c ****     if(hor_draw && content_w) {
 4158              		.loc 1 540 34 is_stmt 0 view .LVU1265
 4159 0358 059D     		ldr	r5, [sp, #20]
 4160 035a 079B     		ldr	r3, [sp, #28]
 4161 035c 1D44     		add	r5, r5, r3
 540:Middlewares/LVGL/GUI/lvgl/src/core/lv_obj_scroll.c ****     if(hor_draw && content_w) {
 4162              		.loc 1 540 16 view .LVU1266
 4163 035e 069B     		ldr	r3, [sp, #24]
 4164 0360 1D44     		add	r5, r5, r3
 4165              	.LVL519:
 541:Middlewares/LVGL/GUI/lvgl/src/core/lv_obj_scroll.c ****         hor_area->y2 = obj->coords.y2 - bottom_space;
 4166              		.loc 1 541 5 is_stmt 1 view .LVU1267
 541:Middlewares/LVGL/GUI/lvgl/src/core/lv_obj_scroll.c ****         hor_area->y2 = obj->coords.y2 - bottom_space;
 4167              		.loc 1 541 7 is_stmt 0 view .LVU1268
 4168 0362 039B     		ldr	r3, [sp, #12]
 4169 0364 002B     		cmp	r3, #0
 4170 0366 3FF46CAE 		beq	.L207
 541:Middlewares/LVGL/GUI/lvgl/src/core/lv_obj_scroll.c ****         hor_area->y2 = obj->coords.y2 - bottom_space;
 4171              		.loc 1 541 17 discriminator 1 view .LVU1269
 4172 036a 002D     		cmp	r5, #0
 4173 036c 3FF469AE 		beq	.L207
 4174              	.LBB198:
 542:Middlewares/LVGL/GUI/lvgl/src/core/lv_obj_scroll.c ****         hor_area->y1 = hor_area->y2 - tickness + 1;
 4175              		.loc 1 542 9 is_stmt 1 view .LVU1270
 542:Middlewares/LVGL/GUI/lvgl/src/core/lv_obj_scroll.c ****         hor_area->y1 = hor_area->y2 - tickness + 1;
 4176              		.loc 1 542 35 is_stmt 0 view .LVU1271
 4177 0370 206A     		ldr	r0, [r4, #32]
 542:Middlewares/LVGL/GUI/lvgl/src/core/lv_obj_scroll.c ****         hor_area->y1 = hor_area->y2 - tickness + 1;
 4178              		.loc 1 542 39 view .LVU1272
 4179 0372 099B     		ldr	r3, [sp, #36]
 4180 0374 C01A     		subs	r0, r0, r3
ARM GAS  C:\Users\ADMINI~1\AppData\Local\Temp\cchMZgMB.s 			page 122


 542:Middlewares/LVGL/GUI/lvgl/src/core/lv_obj_scroll.c ****         hor_area->y1 = hor_area->y2 - tickness + 1;
 4181              		.loc 1 542 22 view .LVU1273
 4182 0376 F860     		str	r0, [r7, #12]
 543:Middlewares/LVGL/GUI/lvgl/src/core/lv_obj_scroll.c ****         hor_area->x1 = obj->coords.x1;
 4183              		.loc 1 543 9 is_stmt 1 view .LVU1274
 543:Middlewares/LVGL/GUI/lvgl/src/core/lv_obj_scroll.c ****         hor_area->x1 = obj->coords.x1;
 4184              		.loc 1 543 37 is_stmt 0 view .LVU1275
 4185 0378 089B     		ldr	r3, [sp, #32]
 4186 037a C01A     		subs	r0, r0, r3
 543:Middlewares/LVGL/GUI/lvgl/src/core/lv_obj_scroll.c ****         hor_area->x1 = obj->coords.x1;
 4187              		.loc 1 543 48 view .LVU1276
 4188 037c 0130     		adds	r0, r0, #1
 543:Middlewares/LVGL/GUI/lvgl/src/core/lv_obj_scroll.c ****         hor_area->x1 = obj->coords.x1;
 4189              		.loc 1 543 22 view .LVU1277
 4190 037e 7860     		str	r0, [r7, #4]
 544:Middlewares/LVGL/GUI/lvgl/src/core/lv_obj_scroll.c ****         hor_area->x2 = obj->coords.x2;
 4191              		.loc 1 544 9 is_stmt 1 view .LVU1278
 544:Middlewares/LVGL/GUI/lvgl/src/core/lv_obj_scroll.c ****         hor_area->x2 = obj->coords.x2;
 4192              		.loc 1 544 35 is_stmt 0 view .LVU1279
 4193 0380 6369     		ldr	r3, [r4, #20]
 544:Middlewares/LVGL/GUI/lvgl/src/core/lv_obj_scroll.c ****         hor_area->x2 = obj->coords.x2;
 4194              		.loc 1 544 22 view .LVU1280
 4195 0382 3B60     		str	r3, [r7]
 545:Middlewares/LVGL/GUI/lvgl/src/core/lv_obj_scroll.c **** 
 4196              		.loc 1 545 9 is_stmt 1 view .LVU1281
 545:Middlewares/LVGL/GUI/lvgl/src/core/lv_obj_scroll.c **** 
 4197              		.loc 1 545 35 is_stmt 0 view .LVU1282
 4198 0384 E369     		ldr	r3, [r4, #28]
 545:Middlewares/LVGL/GUI/lvgl/src/core/lv_obj_scroll.c **** 
 4199              		.loc 1 545 22 view .LVU1283
 4200 0386 BB60     		str	r3, [r7, #8]
 547:Middlewares/LVGL/GUI/lvgl/src/core/lv_obj_scroll.c ****         sb_w = LV_MAX(sb_w, SCROLLBAR_MIN_SIZE);
 4201              		.loc 1 547 9 is_stmt 1 view .LVU1284
 547:Middlewares/LVGL/GUI/lvgl/src/core/lv_obj_scroll.c ****         sb_w = LV_MAX(sb_w, SCROLLBAR_MIN_SIZE);
 4202              		.loc 1 547 35 is_stmt 0 view .LVU1285
 4203 0388 079B     		ldr	r3, [sp, #28]
 4204 038a 0E9A     		ldr	r2, [sp, #56]
 4205 038c 9E1A     		subs	r6, r3, r2
 4206              	.LVL520:
 547:Middlewares/LVGL/GUI/lvgl/src/core/lv_obj_scroll.c ****         sb_w = LV_MAX(sb_w, SCROLLBAR_MIN_SIZE);
 4207              		.loc 1 547 48 view .LVU1286
 4208 038e 0A9A     		ldr	r2, [sp, #40]
 4209 0390 B61A     		subs	r6, r6, r2
 547:Middlewares/LVGL/GUI/lvgl/src/core/lv_obj_scroll.c ****         sb_w = LV_MAX(sb_w, SCROLLBAR_MIN_SIZE);
 4210              		.loc 1 547 62 view .LVU1287
 4211 0392 0F9A     		ldr	r2, [sp, #60]
 4212 0394 B61A     		subs	r6, r6, r2
 547:Middlewares/LVGL/GUI/lvgl/src/core/lv_obj_scroll.c ****         sb_w = LV_MAX(sb_w, SCROLLBAR_MIN_SIZE);
 4213              		.loc 1 547 79 view .LVU1288
 4214 0396 03FB06F8 		mul	r8, r3, r6
 547:Middlewares/LVGL/GUI/lvgl/src/core/lv_obj_scroll.c ****         sb_w = LV_MAX(sb_w, SCROLLBAR_MIN_SIZE);
 4215              		.loc 1 547 20 view .LVU1289
 4216 039a 98FBF5F8 		sdiv	r8, r8, r5
 4217              	.LVL521:
 548:Middlewares/LVGL/GUI/lvgl/src/core/lv_obj_scroll.c ****         rem = (obj_w - left_space - right_space - ver_reg_space) -
 4218              		.loc 1 548 9 is_stmt 1 view .LVU1290
 548:Middlewares/LVGL/GUI/lvgl/src/core/lv_obj_scroll.c ****         rem = (obj_w - left_space - right_space - ver_reg_space) -
ARM GAS  C:\Users\ADMINI~1\AppData\Local\Temp\cchMZgMB.s 			page 123


 4219              		.loc 1 548 16 is_stmt 0 view .LVU1291
 4220 039e 0020     		movs	r0, #0
 4221 03a0 FFF7FEFF 		bl	lv_disp_get_dpi
 4222              	.LVL522:
 4223 03a4 00EB8000 		add	r0, r0, r0, lsl #2
 4224 03a8 4000     		lsls	r0, r0, #1
 4225 03aa EF28     		cmp	r0, #239
 4226 03ac 00F39E80 		bgt	.L288
 4227 03b0 0123     		movs	r3, #1
 4228              	.L232:
 548:Middlewares/LVGL/GUI/lvgl/src/core/lv_obj_scroll.c ****         rem = (obj_w - left_space - right_space - ver_reg_space) -
 4229              		.loc 1 548 16 discriminator 4 view .LVU1292
 4230 03b2 4345     		cmp	r3, r8
 4231 03b4 80F2A880 		bge	.L289
 4232              	.LVL523:
 4233              	.L233:
 549:Middlewares/LVGL/GUI/lvgl/src/core/lv_obj_scroll.c ****               sb_w;  /*Remaining size from the scrollbar track that is not the scrollbar itself*/
 4234              		.loc 1 549 9 is_stmt 1 discriminator 12 view .LVU1293
 549:Middlewares/LVGL/GUI/lvgl/src/core/lv_obj_scroll.c ****               sb_w;  /*Remaining size from the scrollbar track that is not the scrollbar itself*/
 4235              		.loc 1 549 13 is_stmt 0 discriminator 12 view .LVU1294
 4236 03b8 A6EB0806 		sub	r6, r6, r8
 4237              	.LVL524:
 551:Middlewares/LVGL/GUI/lvgl/src/core/lv_obj_scroll.c ****         if(scroll_w <= 0) {
 4238              		.loc 1 551 9 is_stmt 1 discriminator 12 view .LVU1295
 551:Middlewares/LVGL/GUI/lvgl/src/core/lv_obj_scroll.c ****         if(scroll_w <= 0) {
 4239              		.loc 1 551 20 is_stmt 0 discriminator 12 view .LVU1296
 4240 03bc 079B     		ldr	r3, [sp, #28]
 4241 03be ED1A     		subs	r5, r5, r3
 4242              	.LVL525:
 552:Middlewares/LVGL/GUI/lvgl/src/core/lv_obj_scroll.c ****             if(rtl) {
 4243              		.loc 1 552 9 is_stmt 1 discriminator 12 view .LVU1297
 552:Middlewares/LVGL/GUI/lvgl/src/core/lv_obj_scroll.c ****             if(rtl) {
 4244              		.loc 1 552 11 is_stmt 0 discriminator 12 view .LVU1298
 4245 03c0 002D     		cmp	r5, #0
 4246 03c2 40F3BA80 		ble	.L290
 4247              	.LBB199:
 563:Middlewares/LVGL/GUI/lvgl/src/core/lv_obj_scroll.c ****             sb_x = rem - sb_x;
 4248              		.loc 1 563 13 is_stmt 1 view .LVU1299
 563:Middlewares/LVGL/GUI/lvgl/src/core/lv_obj_scroll.c ****             sb_x = rem - sb_x;
 4249              		.loc 1 563 36 is_stmt 0 view .LVU1300
 4250 03c6 069B     		ldr	r3, [sp, #24]
 4251 03c8 06FB03F3 		mul	r3, r6, r3
 563:Middlewares/LVGL/GUI/lvgl/src/core/lv_obj_scroll.c ****             sb_x = rem - sb_x;
 4252              		.loc 1 563 24 view .LVU1301
 4253 03cc 93FBF5F3 		sdiv	r3, r3, r5
 4254              	.LVL526:
 564:Middlewares/LVGL/GUI/lvgl/src/core/lv_obj_scroll.c **** 
 4255              		.loc 1 564 13 is_stmt 1 view .LVU1302
 564:Middlewares/LVGL/GUI/lvgl/src/core/lv_obj_scroll.c **** 
 4256              		.loc 1 564 18 is_stmt 0 view .LVU1303
 4257 03d0 F61A     		subs	r6, r6, r3
 4258              	.LVL527:
 566:Middlewares/LVGL/GUI/lvgl/src/core/lv_obj_scroll.c ****                 hor_area->x1 = obj->coords.x1 + sb_x + left_space + ver_reg_space;
 4259              		.loc 1 566 13 is_stmt 1 view .LVU1304
 566:Middlewares/LVGL/GUI/lvgl/src/core/lv_obj_scroll.c ****                 hor_area->x1 = obj->coords.x1 + sb_x + left_space + ver_reg_space;
 4260              		.loc 1 566 15 is_stmt 0 view .LVU1305
 4261 03d2 0D9B     		ldr	r3, [sp, #52]
ARM GAS  C:\Users\ADMINI~1\AppData\Local\Temp\cchMZgMB.s 			page 124


 4262 03d4 012B     		cmp	r3, #1
 4263 03d6 00F0CB80 		beq	.L291
 583:Middlewares/LVGL/GUI/lvgl/src/core/lv_obj_scroll.c ****                 hor_area->x2 = hor_area->x1 + sb_w - 1;
 4264              		.loc 1 583 17 is_stmt 1 view .LVU1306
 583:Middlewares/LVGL/GUI/lvgl/src/core/lv_obj_scroll.c ****                 hor_area->x2 = hor_area->x1 + sb_w - 1;
 4265              		.loc 1 583 43 is_stmt 0 view .LVU1307
 4266 03da 6369     		ldr	r3, [r4, #20]
 583:Middlewares/LVGL/GUI/lvgl/src/core/lv_obj_scroll.c ****                 hor_area->x2 = hor_area->x1 + sb_w - 1;
 4267              		.loc 1 583 47 view .LVU1308
 4268 03dc 3344     		add	r3, r3, r6
 583:Middlewares/LVGL/GUI/lvgl/src/core/lv_obj_scroll.c ****                 hor_area->x2 = hor_area->x1 + sb_w - 1;
 4269              		.loc 1 583 54 view .LVU1309
 4270 03de 0E99     		ldr	r1, [sp, #56]
 4271 03e0 5A18     		adds	r2, r3, r1
 583:Middlewares/LVGL/GUI/lvgl/src/core/lv_obj_scroll.c ****                 hor_area->x2 = hor_area->x1 + sb_w - 1;
 4272              		.loc 1 583 30 view .LVU1310
 4273 03e2 3A60     		str	r2, [r7]
 584:Middlewares/LVGL/GUI/lvgl/src/core/lv_obj_scroll.c ****                 if(hor_area->x1 < obj->coords.x1 + left_space) {
 4274              		.loc 1 584 17 is_stmt 1 view .LVU1311
 584:Middlewares/LVGL/GUI/lvgl/src/core/lv_obj_scroll.c ****                 if(hor_area->x1 < obj->coords.x1 + left_space) {
 4275              		.loc 1 584 45 is_stmt 0 view .LVU1312
 4276 03e4 02EB0803 		add	r3, r2, r8
 584:Middlewares/LVGL/GUI/lvgl/src/core/lv_obj_scroll.c ****                 if(hor_area->x1 < obj->coords.x1 + left_space) {
 4277              		.loc 1 584 52 view .LVU1313
 4278 03e8 013B     		subs	r3, r3, #1
 584:Middlewares/LVGL/GUI/lvgl/src/core/lv_obj_scroll.c ****                 if(hor_area->x1 < obj->coords.x1 + left_space) {
 4279              		.loc 1 584 30 view .LVU1314
 4280 03ea BB60     		str	r3, [r7, #8]
 585:Middlewares/LVGL/GUI/lvgl/src/core/lv_obj_scroll.c ****                     hor_area->x1 = obj->coords.x1 + left_space;
 4281              		.loc 1 585 17 is_stmt 1 view .LVU1315
 585:Middlewares/LVGL/GUI/lvgl/src/core/lv_obj_scroll.c ****                     hor_area->x1 = obj->coords.x1 + left_space;
 4282              		.loc 1 585 46 is_stmt 0 view .LVU1316
 4283 03ec 6569     		ldr	r5, [r4, #20]
 4284              	.LVL528:
 585:Middlewares/LVGL/GUI/lvgl/src/core/lv_obj_scroll.c ****                     hor_area->x1 = obj->coords.x1 + left_space;
 4285              		.loc 1 585 50 view .LVU1317
 4286 03ee 0D44     		add	r5, r5, r1
 585:Middlewares/LVGL/GUI/lvgl/src/core/lv_obj_scroll.c ****                     hor_area->x1 = obj->coords.x1 + left_space;
 4287              		.loc 1 585 19 view .LVU1318
 4288 03f0 AA42     		cmp	r2, r5
 4289 03f2 C0F23A81 		blt	.L292
 4290              	.L242:
 591:Middlewares/LVGL/GUI/lvgl/src/core/lv_obj_scroll.c ****                     hor_area->x2 = obj->coords.x2 - ver_reg_space - right_space;
 4291              		.loc 1 591 17 is_stmt 1 view .LVU1319
 591:Middlewares/LVGL/GUI/lvgl/src/core/lv_obj_scroll.c ****                     hor_area->x2 = obj->coords.x2 - ver_reg_space - right_space;
 4292              		.loc 1 591 28 is_stmt 0 view .LVU1320
 4293 03f6 BB68     		ldr	r3, [r7, #8]
 591:Middlewares/LVGL/GUI/lvgl/src/core/lv_obj_scroll.c ****                     hor_area->x2 = obj->coords.x2 - ver_reg_space - right_space;
 4294              		.loc 1 591 46 view .LVU1321
 4295 03f8 E469     		ldr	r4, [r4, #28]
 4296              	.LVL529:
 591:Middlewares/LVGL/GUI/lvgl/src/core/lv_obj_scroll.c ****                     hor_area->x2 = obj->coords.x2 - ver_reg_space - right_space;
 4297              		.loc 1 591 50 view .LVU1322
 4298 03fa 0F9A     		ldr	r2, [sp, #60]
 4299 03fc A41A     		subs	r4, r4, r2
 591:Middlewares/LVGL/GUI/lvgl/src/core/lv_obj_scroll.c ****                     hor_area->x2 = obj->coords.x2 - ver_reg_space - right_space;
 4300              		.loc 1 591 66 view .LVU1323
ARM GAS  C:\Users\ADMINI~1\AppData\Local\Temp\cchMZgMB.s 			page 125


 4301 03fe 0A9A     		ldr	r2, [sp, #40]
 4302 0400 A41A     		subs	r4, r4, r2
 591:Middlewares/LVGL/GUI/lvgl/src/core/lv_obj_scroll.c ****                     hor_area->x2 = obj->coords.x2 - ver_reg_space - right_space;
 4303              		.loc 1 591 19 view .LVU1324
 4304 0402 A342     		cmp	r3, r4
 4305 0404 7FF71DAE 		ble	.L207
 592:Middlewares/LVGL/GUI/lvgl/src/core/lv_obj_scroll.c ****                     if(hor_area->x2 - SCROLLBAR_MIN_SIZE < hor_area->x1) {
 4306              		.loc 1 592 21 is_stmt 1 view .LVU1325
 592:Middlewares/LVGL/GUI/lvgl/src/core/lv_obj_scroll.c ****                     if(hor_area->x2 - SCROLLBAR_MIN_SIZE < hor_area->x1) {
 4307              		.loc 1 592 34 is_stmt 0 view .LVU1326
 4308 0408 BC60     		str	r4, [r7, #8]
 593:Middlewares/LVGL/GUI/lvgl/src/core/lv_obj_scroll.c ****                         hor_area->x1 = hor_area->x2 - SCROLLBAR_MIN_SIZE;
 4309              		.loc 1 593 21 is_stmt 1 view .LVU1327
 593:Middlewares/LVGL/GUI/lvgl/src/core/lv_obj_scroll.c ****                         hor_area->x1 = hor_area->x2 - SCROLLBAR_MIN_SIZE;
 4310              		.loc 1 593 39 is_stmt 0 view .LVU1328
 4311 040a 0020     		movs	r0, #0
 4312 040c FFF7FEFF 		bl	lv_disp_get_dpi
 4313              	.LVL530:
 4314 0410 00EB8000 		add	r0, r0, r0, lsl #2
 4315 0414 4300     		lsls	r3, r0, #1
 4316 0416 EF2B     		cmp	r3, #239
 4317 0418 00F35C81 		bgt	.L293
 4318 041c 0123     		movs	r3, #1
 4319              	.L245:
 593:Middlewares/LVGL/GUI/lvgl/src/core/lv_obj_scroll.c ****                         hor_area->x1 = hor_area->x2 - SCROLLBAR_MIN_SIZE;
 4320              		.loc 1 593 37 discriminator 4 view .LVU1329
 4321 041e E41A     		subs	r4, r4, r3
 593:Middlewares/LVGL/GUI/lvgl/src/core/lv_obj_scroll.c ****                         hor_area->x1 = hor_area->x2 - SCROLLBAR_MIN_SIZE;
 4322              		.loc 1 593 68 discriminator 4 view .LVU1330
 4323 0420 3B68     		ldr	r3, [r7]
 593:Middlewares/LVGL/GUI/lvgl/src/core/lv_obj_scroll.c ****                         hor_area->x1 = hor_area->x2 - SCROLLBAR_MIN_SIZE;
 4324              		.loc 1 593 23 discriminator 4 view .LVU1331
 4325 0422 9C42     		cmp	r4, r3
 4326 0424 BFF60DAE 		bge	.L207
 594:Middlewares/LVGL/GUI/lvgl/src/core/lv_obj_scroll.c ****                     }
 4327              		.loc 1 594 25 is_stmt 1 view .LVU1332
 594:Middlewares/LVGL/GUI/lvgl/src/core/lv_obj_scroll.c ****                     }
 4328              		.loc 1 594 48 is_stmt 0 view .LVU1333
 4329 0428 BC68     		ldr	r4, [r7, #8]
 594:Middlewares/LVGL/GUI/lvgl/src/core/lv_obj_scroll.c ****                     }
 4330              		.loc 1 594 55 view .LVU1334
 4331 042a 0020     		movs	r0, #0
 4332 042c FFF7FEFF 		bl	lv_disp_get_dpi
 4333              	.LVL531:
 4334 0430 00EB8000 		add	r0, r0, r0, lsl #2
 4335 0434 4300     		lsls	r3, r0, #1
 4336 0436 EF2B     		cmp	r3, #239
 4337 0438 00F35A81 		bgt	.L294
 4338 043c 0123     		movs	r3, #1
 4339              	.L246:
 594:Middlewares/LVGL/GUI/lvgl/src/core/lv_obj_scroll.c ****                     }
 4340              		.loc 1 594 53 discriminator 4 view .LVU1335
 4341 043e E31A     		subs	r3, r4, r3
 594:Middlewares/LVGL/GUI/lvgl/src/core/lv_obj_scroll.c ****                     }
 4342              		.loc 1 594 38 discriminator 4 view .LVU1336
 4343 0440 3B60     		str	r3, [r7]
 4344 0442 FEE5     		b	.L207
ARM GAS  C:\Users\ADMINI~1\AppData\Local\Temp\cchMZgMB.s 			page 126


 4345              	.LVL532:
 4346              	.L284:
 594:Middlewares/LVGL/GUI/lvgl/src/core/lv_obj_scroll.c ****                     }
 4347              		.loc 1 594 38 discriminator 4 view .LVU1337
 4348              	.LBE199:
 4349              	.LBE198:
 4350              	.LBB201:
 4351              	.LBB194:
 525:Middlewares/LVGL/GUI/lvgl/src/core/lv_obj_scroll.c ****                 if(ver_area->y1 + SCROLLBAR_MIN_SIZE > ver_area->y2) {
 4352              		.loc 1 525 17 is_stmt 1 view .LVU1338
 525:Middlewares/LVGL/GUI/lvgl/src/core/lv_obj_scroll.c ****                 if(ver_area->y1 + SCROLLBAR_MIN_SIZE > ver_area->y2) {
 4353              		.loc 1 525 30 is_stmt 0 view .LVU1339
 4354 0444 7560     		str	r5, [r6, #4]
 526:Middlewares/LVGL/GUI/lvgl/src/core/lv_obj_scroll.c ****                     ver_area->y2 = ver_area->y1 + SCROLLBAR_MIN_SIZE;
 4355              		.loc 1 526 17 is_stmt 1 view .LVU1340
 526:Middlewares/LVGL/GUI/lvgl/src/core/lv_obj_scroll.c ****                     ver_area->y2 = ver_area->y1 + SCROLLBAR_MIN_SIZE;
 4356              		.loc 1 526 35 is_stmt 0 view .LVU1341
 4357 0446 0020     		movs	r0, #0
 4358 0448 FFF7FEFF 		bl	lv_disp_get_dpi
 4359              	.LVL533:
 4360 044c 00EB8000 		add	r0, r0, r0, lsl #2
 4361 0450 4300     		lsls	r3, r0, #1
 4362 0452 EF2B     		cmp	r3, #239
 4363 0454 12DC     		bgt	.L295
 4364 0456 0123     		movs	r3, #1
 4365              	.L228:
 526:Middlewares/LVGL/GUI/lvgl/src/core/lv_obj_scroll.c ****                     ver_area->y2 = ver_area->y1 + SCROLLBAR_MIN_SIZE;
 4366              		.loc 1 526 33 discriminator 4 view .LVU1342
 4367 0458 1D44     		add	r5, r5, r3
 526:Middlewares/LVGL/GUI/lvgl/src/core/lv_obj_scroll.c ****                     ver_area->y2 = ver_area->y1 + SCROLLBAR_MIN_SIZE;
 4368              		.loc 1 526 64 discriminator 4 view .LVU1343
 4369 045a F368     		ldr	r3, [r6, #12]
 526:Middlewares/LVGL/GUI/lvgl/src/core/lv_obj_scroll.c ****                     ver_area->y2 = ver_area->y1 + SCROLLBAR_MIN_SIZE;
 4370              		.loc 1 526 19 discriminator 4 view .LVU1344
 4371 045c 9D42     		cmp	r5, r3
 4372 045e 7FF7F4AE 		ble	.L227
 527:Middlewares/LVGL/GUI/lvgl/src/core/lv_obj_scroll.c ****                 }
 4373              		.loc 1 527 21 is_stmt 1 view .LVU1345
 527:Middlewares/LVGL/GUI/lvgl/src/core/lv_obj_scroll.c ****                 }
 4374              		.loc 1 527 44 is_stmt 0 view .LVU1346
 4375 0462 7568     		ldr	r5, [r6, #4]
 527:Middlewares/LVGL/GUI/lvgl/src/core/lv_obj_scroll.c ****                 }
 4376              		.loc 1 527 51 view .LVU1347
 4377 0464 0020     		movs	r0, #0
 4378 0466 FFF7FEFF 		bl	lv_disp_get_dpi
 4379              	.LVL534:
 4380 046a 00EB8000 		add	r0, r0, r0, lsl #2
 4381 046e 4300     		lsls	r3, r0, #1
 4382 0470 EF2B     		cmp	r3, #239
 4383 0472 11DC     		bgt	.L296
 4384 0474 0123     		movs	r3, #1
 4385              	.L229:
 527:Middlewares/LVGL/GUI/lvgl/src/core/lv_obj_scroll.c ****                 }
 4386              		.loc 1 527 49 discriminator 4 view .LVU1348
 4387 0476 2B44     		add	r3, r3, r5
 527:Middlewares/LVGL/GUI/lvgl/src/core/lv_obj_scroll.c ****                 }
 4388              		.loc 1 527 34 discriminator 4 view .LVU1349
ARM GAS  C:\Users\ADMINI~1\AppData\Local\Temp\cchMZgMB.s 			page 127


 4389 0478 F360     		str	r3, [r6, #12]
 4390 047a E6E6     		b	.L227
 4391              	.L295:
 526:Middlewares/LVGL/GUI/lvgl/src/core/lv_obj_scroll.c ****                     ver_area->y2 = ver_area->y1 + SCROLLBAR_MIN_SIZE;
 4392              		.loc 1 526 35 discriminator 1 view .LVU1350
 4393 047c 0020     		movs	r0, #0
 4394 047e FFF7FEFF 		bl	lv_disp_get_dpi
 4395              	.LVL535:
 4396 0482 00EB8000 		add	r0, r0, r0, lsl #2
 4397 0486 4300     		lsls	r3, r0, #1
 4398 0488 5033     		adds	r3, r3, #80
 4399 048a 534A     		ldr	r2, .L306
 4400 048c 82FB0312 		smull	r1, r2, r2, r3
 4401 0490 DB17     		asrs	r3, r3, #31
 4402 0492 C3EBA213 		rsb	r3, r3, r2, asr #6
 4403 0496 DFE7     		b	.L228
 4404              	.L296:
 527:Middlewares/LVGL/GUI/lvgl/src/core/lv_obj_scroll.c ****                 }
 4405              		.loc 1 527 51 discriminator 1 view .LVU1351
 4406 0498 0020     		movs	r0, #0
 4407 049a FFF7FEFF 		bl	lv_disp_get_dpi
 4408              	.LVL536:
 4409 049e 00EB8000 		add	r0, r0, r0, lsl #2
 4410 04a2 4300     		lsls	r3, r0, #1
 4411 04a4 5033     		adds	r3, r3, #80
 4412 04a6 4C4A     		ldr	r2, .L306
 4413 04a8 82FB0312 		smull	r1, r2, r2, r3
 4414 04ac DB17     		asrs	r3, r3, #31
 4415 04ae C3EBA213 		rsb	r3, r3, r2, asr #6
 4416 04b2 E0E7     		b	.L229
 4417              	.L285:
 532:Middlewares/LVGL/GUI/lvgl/src/core/lv_obj_scroll.c ****                     ver_area->y1 = ver_area->y2 - SCROLLBAR_MIN_SIZE;
 4418              		.loc 1 532 35 discriminator 1 view .LVU1352
 4419 04b4 0020     		movs	r0, #0
 4420 04b6 FFF7FEFF 		bl	lv_disp_get_dpi
 4421              	.LVL537:
 4422 04ba 00EB8000 		add	r0, r0, r0, lsl #2
 4423 04be 4300     		lsls	r3, r0, #1
 4424 04c0 5033     		adds	r3, r3, #80
 4425 04c2 454A     		ldr	r2, .L306
 4426 04c4 82FB0312 		smull	r1, r2, r2, r3
 4427 04c8 DB17     		asrs	r3, r3, #31
 4428 04ca C3EBA213 		rsb	r3, r3, r2, asr #6
 4429 04ce CFE6     		b	.L230
 4430              	.L286:
 533:Middlewares/LVGL/GUI/lvgl/src/core/lv_obj_scroll.c ****                 }
 4431              		.loc 1 533 51 discriminator 1 view .LVU1353
 4432 04d0 0020     		movs	r0, #0
 4433 04d2 FFF7FEFF 		bl	lv_disp_get_dpi
 4434              	.LVL538:
 4435 04d6 00EB8000 		add	r0, r0, r0, lsl #2
 4436 04da 4300     		lsls	r3, r0, #1
 4437 04dc 5033     		adds	r3, r3, #80
 4438 04de 3E4A     		ldr	r2, .L306
 4439 04e0 82FB0312 		smull	r1, r2, r2, r3
 4440 04e4 DB17     		asrs	r3, r3, #31
 4441 04e6 C3EBA213 		rsb	r3, r3, r2, asr #6
ARM GAS  C:\Users\ADMINI~1\AppData\Local\Temp\cchMZgMB.s 			page 128


 4442 04ea D0E6     		b	.L231
 4443              	.LVL539:
 4444              	.L288:
 533:Middlewares/LVGL/GUI/lvgl/src/core/lv_obj_scroll.c ****                 }
 4445              		.loc 1 533 51 discriminator 1 view .LVU1354
 4446              	.LBE194:
 4447              	.LBE201:
 4448              	.LBB202:
 548:Middlewares/LVGL/GUI/lvgl/src/core/lv_obj_scroll.c ****         rem = (obj_w - left_space - right_space - ver_reg_space) -
 4449              		.loc 1 548 16 discriminator 1 view .LVU1355
 4450 04ec 0020     		movs	r0, #0
 4451 04ee FFF7FEFF 		bl	lv_disp_get_dpi
 4452              	.LVL540:
 4453 04f2 00EB8000 		add	r0, r0, r0, lsl #2
 4454 04f6 4300     		lsls	r3, r0, #1
 4455 04f8 5033     		adds	r3, r3, #80
 4456 04fa 374A     		ldr	r2, .L306
 4457 04fc 82FB0312 		smull	r1, r2, r2, r3
 4458 0500 DB17     		asrs	r3, r3, #31
 4459 0502 C3EBA213 		rsb	r3, r3, r2, asr #6
 4460 0506 54E7     		b	.L232
 4461              	.L289:
 548:Middlewares/LVGL/GUI/lvgl/src/core/lv_obj_scroll.c ****         rem = (obj_w - left_space - right_space - ver_reg_space) -
 4462              		.loc 1 548 16 discriminator 5 view .LVU1356
 4463 0508 0020     		movs	r0, #0
 4464 050a FFF7FEFF 		bl	lv_disp_get_dpi
 4465              	.LVL541:
 4466 050e 00EB8000 		add	r0, r0, r0, lsl #2
 4467 0512 4300     		lsls	r3, r0, #1
 4468 0514 EF2B     		cmp	r3, #239
 4469 0516 02DC     		bgt	.L297
 548:Middlewares/LVGL/GUI/lvgl/src/core/lv_obj_scroll.c ****         rem = (obj_w - left_space - right_space - ver_reg_space) -
 4470              		.loc 1 548 16 view .LVU1357
 4471 0518 4FF00108 		mov	r8, #1
 4472              	.LVL542:
 548:Middlewares/LVGL/GUI/lvgl/src/core/lv_obj_scroll.c ****         rem = (obj_w - left_space - right_space - ver_reg_space) -
 4473              		.loc 1 548 16 view .LVU1358
 4474 051c 4CE7     		b	.L233
 4475              	.LVL543:
 4476              	.L297:
 548:Middlewares/LVGL/GUI/lvgl/src/core/lv_obj_scroll.c ****         rem = (obj_w - left_space - right_space - ver_reg_space) -
 4477              		.loc 1 548 16 discriminator 7 view .LVU1359
 4478 051e 0020     		movs	r0, #0
 4479 0520 FFF7FEFF 		bl	lv_disp_get_dpi
 4480              	.LVL544:
 4481 0524 00EB8000 		add	r0, r0, r0, lsl #2
 4482 0528 4300     		lsls	r3, r0, #1
 4483 052a 5033     		adds	r3, r3, #80
 4484 052c 2A4A     		ldr	r2, .L306
 4485 052e 82FB0328 		smull	r2, r8, r2, r3
 4486              	.LVL545:
 548:Middlewares/LVGL/GUI/lvgl/src/core/lv_obj_scroll.c ****         rem = (obj_w - left_space - right_space - ver_reg_space) -
 4487              		.loc 1 548 16 discriminator 7 view .LVU1360
 4488 0532 DB17     		asrs	r3, r3, #31
 4489 0534 C3EBA818 		rsb	r8, r3, r8, asr #6
 4490 0538 3EE7     		b	.L233
 4491              	.LVL546:
ARM GAS  C:\Users\ADMINI~1\AppData\Local\Temp\cchMZgMB.s 			page 129


 4492              	.L290:
 553:Middlewares/LVGL/GUI/lvgl/src/core/lv_obj_scroll.c ****                 hor_area->x1 = obj->coords.x1 + left_space + ver_reg_space - 1;
 4493              		.loc 1 553 13 is_stmt 1 view .LVU1361
 553:Middlewares/LVGL/GUI/lvgl/src/core/lv_obj_scroll.c ****                 hor_area->x1 = obj->coords.x1 + left_space + ver_reg_space - 1;
 4494              		.loc 1 553 15 is_stmt 0 view .LVU1362
 4495 053a 0D9B     		ldr	r3, [sp, #52]
 4496 053c 012B     		cmp	r3, #1
 4497 053e 0BD0     		beq	.L298
 558:Middlewares/LVGL/GUI/lvgl/src/core/lv_obj_scroll.c ****                 hor_area->x2 = obj->coords.x2 - right_space - ver_reg_space - 1;
 4498              		.loc 1 558 17 is_stmt 1 view .LVU1363
 558:Middlewares/LVGL/GUI/lvgl/src/core/lv_obj_scroll.c ****                 hor_area->x2 = obj->coords.x2 - right_space - ver_reg_space - 1;
 4499              		.loc 1 558 43 is_stmt 0 view .LVU1364
 4500 0540 6369     		ldr	r3, [r4, #20]
 558:Middlewares/LVGL/GUI/lvgl/src/core/lv_obj_scroll.c ****                 hor_area->x2 = obj->coords.x2 - right_space - ver_reg_space - 1;
 4501              		.loc 1 558 47 view .LVU1365
 4502 0542 0E9A     		ldr	r2, [sp, #56]
 4503 0544 1344     		add	r3, r3, r2
 558:Middlewares/LVGL/GUI/lvgl/src/core/lv_obj_scroll.c ****                 hor_area->x2 = obj->coords.x2 - right_space - ver_reg_space - 1;
 4504              		.loc 1 558 30 view .LVU1366
 4505 0546 3B60     		str	r3, [r7]
 559:Middlewares/LVGL/GUI/lvgl/src/core/lv_obj_scroll.c ****             }
 4506              		.loc 1 559 17 is_stmt 1 view .LVU1367
 559:Middlewares/LVGL/GUI/lvgl/src/core/lv_obj_scroll.c ****             }
 4507              		.loc 1 559 43 is_stmt 0 view .LVU1368
 4508 0548 E369     		ldr	r3, [r4, #28]
 559:Middlewares/LVGL/GUI/lvgl/src/core/lv_obj_scroll.c ****             }
 4509              		.loc 1 559 47 view .LVU1369
 4510 054a 0A9A     		ldr	r2, [sp, #40]
 4511 054c 9B1A     		subs	r3, r3, r2
 559:Middlewares/LVGL/GUI/lvgl/src/core/lv_obj_scroll.c ****             }
 4512              		.loc 1 559 61 view .LVU1370
 4513 054e 0F9A     		ldr	r2, [sp, #60]
 4514 0550 9B1A     		subs	r3, r3, r2
 559:Middlewares/LVGL/GUI/lvgl/src/core/lv_obj_scroll.c ****             }
 4515              		.loc 1 559 77 view .LVU1371
 4516 0552 013B     		subs	r3, r3, #1
 559:Middlewares/LVGL/GUI/lvgl/src/core/lv_obj_scroll.c ****             }
 4517              		.loc 1 559 30 view .LVU1372
 4518 0554 BB60     		str	r3, [r7, #8]
 4519 0556 74E5     		b	.L207
 4520              	.L298:
 554:Middlewares/LVGL/GUI/lvgl/src/core/lv_obj_scroll.c ****                 hor_area->x2 = obj->coords.x2 - right_space;
 4521              		.loc 1 554 17 is_stmt 1 view .LVU1373
 554:Middlewares/LVGL/GUI/lvgl/src/core/lv_obj_scroll.c ****                 hor_area->x2 = obj->coords.x2 - right_space;
 4522              		.loc 1 554 43 is_stmt 0 view .LVU1374
 4523 0558 6369     		ldr	r3, [r4, #20]
 554:Middlewares/LVGL/GUI/lvgl/src/core/lv_obj_scroll.c ****                 hor_area->x2 = obj->coords.x2 - right_space;
 4524              		.loc 1 554 47 view .LVU1375
 4525 055a 0E9A     		ldr	r2, [sp, #56]
 4526 055c 1344     		add	r3, r3, r2
 554:Middlewares/LVGL/GUI/lvgl/src/core/lv_obj_scroll.c ****                 hor_area->x2 = obj->coords.x2 - right_space;
 4527              		.loc 1 554 60 view .LVU1376
 4528 055e 0F9A     		ldr	r2, [sp, #60]
 4529 0560 1344     		add	r3, r3, r2
 554:Middlewares/LVGL/GUI/lvgl/src/core/lv_obj_scroll.c ****                 hor_area->x2 = obj->coords.x2 - right_space;
 4530              		.loc 1 554 76 view .LVU1377
 4531 0562 013B     		subs	r3, r3, #1
ARM GAS  C:\Users\ADMINI~1\AppData\Local\Temp\cchMZgMB.s 			page 130


 554:Middlewares/LVGL/GUI/lvgl/src/core/lv_obj_scroll.c ****                 hor_area->x2 = obj->coords.x2 - right_space;
 4532              		.loc 1 554 30 view .LVU1378
 4533 0564 3B60     		str	r3, [r7]
 555:Middlewares/LVGL/GUI/lvgl/src/core/lv_obj_scroll.c ****             }
 4534              		.loc 1 555 17 is_stmt 1 view .LVU1379
 555:Middlewares/LVGL/GUI/lvgl/src/core/lv_obj_scroll.c ****             }
 4535              		.loc 1 555 43 is_stmt 0 view .LVU1380
 4536 0566 E369     		ldr	r3, [r4, #28]
 555:Middlewares/LVGL/GUI/lvgl/src/core/lv_obj_scroll.c ****             }
 4537              		.loc 1 555 47 view .LVU1381
 4538 0568 0A9A     		ldr	r2, [sp, #40]
 4539 056a 9B1A     		subs	r3, r3, r2
 555:Middlewares/LVGL/GUI/lvgl/src/core/lv_obj_scroll.c ****             }
 4540              		.loc 1 555 30 view .LVU1382
 4541 056c BB60     		str	r3, [r7, #8]
 4542 056e 68E5     		b	.L207
 4543              	.LVL547:
 4544              	.L291:
 4545              	.LBB200:
 567:Middlewares/LVGL/GUI/lvgl/src/core/lv_obj_scroll.c ****                 hor_area->x2 = hor_area->x1 + sb_w - 1;
 4546              		.loc 1 567 17 is_stmt 1 view .LVU1383
 567:Middlewares/LVGL/GUI/lvgl/src/core/lv_obj_scroll.c ****                 hor_area->x2 = hor_area->x1 + sb_w - 1;
 4547              		.loc 1 567 43 is_stmt 0 view .LVU1384
 4548 0570 6369     		ldr	r3, [r4, #20]
 567:Middlewares/LVGL/GUI/lvgl/src/core/lv_obj_scroll.c ****                 hor_area->x2 = hor_area->x1 + sb_w - 1;
 4549              		.loc 1 567 47 view .LVU1385
 4550 0572 3344     		add	r3, r3, r6
 567:Middlewares/LVGL/GUI/lvgl/src/core/lv_obj_scroll.c ****                 hor_area->x2 = hor_area->x1 + sb_w - 1;
 4551              		.loc 1 567 54 view .LVU1386
 4552 0574 0E99     		ldr	r1, [sp, #56]
 4553 0576 0B44     		add	r3, r3, r1
 567:Middlewares/LVGL/GUI/lvgl/src/core/lv_obj_scroll.c ****                 hor_area->x2 = hor_area->x1 + sb_w - 1;
 4554              		.loc 1 567 67 view .LVU1387
 4555 0578 0F98     		ldr	r0, [sp, #60]
 4556 057a 0344     		add	r3, r3, r0
 567:Middlewares/LVGL/GUI/lvgl/src/core/lv_obj_scroll.c ****                 hor_area->x2 = hor_area->x1 + sb_w - 1;
 4557              		.loc 1 567 30 view .LVU1388
 4558 057c 3B60     		str	r3, [r7]
 568:Middlewares/LVGL/GUI/lvgl/src/core/lv_obj_scroll.c ****                 if(hor_area->x1 < obj->coords.x1 + left_space + ver_reg_space) {
 4559              		.loc 1 568 17 is_stmt 1 view .LVU1389
 568:Middlewares/LVGL/GUI/lvgl/src/core/lv_obj_scroll.c ****                 if(hor_area->x1 < obj->coords.x1 + left_space + ver_reg_space) {
 4560              		.loc 1 568 45 is_stmt 0 view .LVU1390
 4561 057e 03EB0802 		add	r2, r3, r8
 568:Middlewares/LVGL/GUI/lvgl/src/core/lv_obj_scroll.c ****                 if(hor_area->x1 < obj->coords.x1 + left_space + ver_reg_space) {
 4562              		.loc 1 568 52 view .LVU1391
 4563 0582 013A     		subs	r2, r2, #1
 568:Middlewares/LVGL/GUI/lvgl/src/core/lv_obj_scroll.c ****                 if(hor_area->x1 < obj->coords.x1 + left_space + ver_reg_space) {
 4564              		.loc 1 568 30 view .LVU1392
 4565 0584 BA60     		str	r2, [r7, #8]
 569:Middlewares/LVGL/GUI/lvgl/src/core/lv_obj_scroll.c ****                     hor_area->x1 = obj->coords.x1 + left_space + ver_reg_space;
 4566              		.loc 1 569 17 is_stmt 1 view .LVU1393
 569:Middlewares/LVGL/GUI/lvgl/src/core/lv_obj_scroll.c ****                     hor_area->x1 = obj->coords.x1 + left_space + ver_reg_space;
 4567              		.loc 1 569 46 is_stmt 0 view .LVU1394
 4568 0586 6269     		ldr	r2, [r4, #20]
 569:Middlewares/LVGL/GUI/lvgl/src/core/lv_obj_scroll.c ****                     hor_area->x1 = obj->coords.x1 + left_space + ver_reg_space;
 4569              		.loc 1 569 50 view .LVU1395
 4570 0588 0A44     		add	r2, r2, r1
ARM GAS  C:\Users\ADMINI~1\AppData\Local\Temp\cchMZgMB.s 			page 131


 569:Middlewares/LVGL/GUI/lvgl/src/core/lv_obj_scroll.c ****                     hor_area->x1 = obj->coords.x1 + left_space + ver_reg_space;
 4571              		.loc 1 569 63 view .LVU1396
 4572 058a 1518     		adds	r5, r2, r0
 4573              	.LVL548:
 569:Middlewares/LVGL/GUI/lvgl/src/core/lv_obj_scroll.c ****                     hor_area->x1 = obj->coords.x1 + left_space + ver_reg_space;
 4574              		.loc 1 569 19 view .LVU1397
 4575 058c AB42     		cmp	r3, r5
 4576 058e 25DB     		blt	.L299
 4577              	.L237:
 575:Middlewares/LVGL/GUI/lvgl/src/core/lv_obj_scroll.c ****                     hor_area->x2 = obj->coords.x2 - right_space;
 4578              		.loc 1 575 17 is_stmt 1 view .LVU1398
 575:Middlewares/LVGL/GUI/lvgl/src/core/lv_obj_scroll.c ****                     hor_area->x2 = obj->coords.x2 - right_space;
 4579              		.loc 1 575 28 is_stmt 0 view .LVU1399
 4580 0590 BB68     		ldr	r3, [r7, #8]
 575:Middlewares/LVGL/GUI/lvgl/src/core/lv_obj_scroll.c ****                     hor_area->x2 = obj->coords.x2 - right_space;
 4581              		.loc 1 575 46 view .LVU1400
 4582 0592 E469     		ldr	r4, [r4, #28]
 4583              	.LVL549:
 575:Middlewares/LVGL/GUI/lvgl/src/core/lv_obj_scroll.c ****                     hor_area->x2 = obj->coords.x2 - right_space;
 4584              		.loc 1 575 50 view .LVU1401
 4585 0594 0A9A     		ldr	r2, [sp, #40]
 4586 0596 A41A     		subs	r4, r4, r2
 575:Middlewares/LVGL/GUI/lvgl/src/core/lv_obj_scroll.c ****                     hor_area->x2 = obj->coords.x2 - right_space;
 4587              		.loc 1 575 19 view .LVU1402
 4588 0598 A342     		cmp	r3, r4
 4589 059a 7FF752AD 		ble	.L207
 576:Middlewares/LVGL/GUI/lvgl/src/core/lv_obj_scroll.c ****                     if(hor_area->x2 - SCROLLBAR_MIN_SIZE < hor_area->x1) {
 4590              		.loc 1 576 21 is_stmt 1 view .LVU1403
 576:Middlewares/LVGL/GUI/lvgl/src/core/lv_obj_scroll.c ****                     if(hor_area->x2 - SCROLLBAR_MIN_SIZE < hor_area->x1) {
 4591              		.loc 1 576 34 is_stmt 0 view .LVU1404
 4592 059e BC60     		str	r4, [r7, #8]
 577:Middlewares/LVGL/GUI/lvgl/src/core/lv_obj_scroll.c ****                         hor_area->x1 = hor_area->x2 - SCROLLBAR_MIN_SIZE;
 4593              		.loc 1 577 21 is_stmt 1 view .LVU1405
 577:Middlewares/LVGL/GUI/lvgl/src/core/lv_obj_scroll.c ****                         hor_area->x1 = hor_area->x2 - SCROLLBAR_MIN_SIZE;
 4594              		.loc 1 577 39 is_stmt 0 view .LVU1406
 4595 05a0 0020     		movs	r0, #0
 4596 05a2 FFF7FEFF 		bl	lv_disp_get_dpi
 4597              	.LVL550:
 4598 05a6 00EB8000 		add	r0, r0, r0, lsl #2
 4599 05aa 4300     		lsls	r3, r0, #1
 4600 05ac EF2B     		cmp	r3, #239
 4601 05ae 46DC     		bgt	.L300
 4602 05b0 0123     		movs	r3, #1
 4603              	.L240:
 577:Middlewares/LVGL/GUI/lvgl/src/core/lv_obj_scroll.c ****                         hor_area->x1 = hor_area->x2 - SCROLLBAR_MIN_SIZE;
 4604              		.loc 1 577 37 discriminator 4 view .LVU1407
 4605 05b2 E41A     		subs	r4, r4, r3
 577:Middlewares/LVGL/GUI/lvgl/src/core/lv_obj_scroll.c ****                         hor_area->x1 = hor_area->x2 - SCROLLBAR_MIN_SIZE;
 4606              		.loc 1 577 68 discriminator 4 view .LVU1408
 4607 05b4 3B68     		ldr	r3, [r7]
 577:Middlewares/LVGL/GUI/lvgl/src/core/lv_obj_scroll.c ****                         hor_area->x1 = hor_area->x2 - SCROLLBAR_MIN_SIZE;
 4608              		.loc 1 577 23 discriminator 4 view .LVU1409
 4609 05b6 9C42     		cmp	r4, r3
 4610 05b8 BFF643AD 		bge	.L207
 578:Middlewares/LVGL/GUI/lvgl/src/core/lv_obj_scroll.c ****                     }
 4611              		.loc 1 578 25 is_stmt 1 view .LVU1410
 578:Middlewares/LVGL/GUI/lvgl/src/core/lv_obj_scroll.c ****                     }
ARM GAS  C:\Users\ADMINI~1\AppData\Local\Temp\cchMZgMB.s 			page 132


 4612              		.loc 1 578 48 is_stmt 0 view .LVU1411
 4613 05bc BC68     		ldr	r4, [r7, #8]
 578:Middlewares/LVGL/GUI/lvgl/src/core/lv_obj_scroll.c ****                     }
 4614              		.loc 1 578 55 view .LVU1412
 4615 05be 0020     		movs	r0, #0
 4616 05c0 FFF7FEFF 		bl	lv_disp_get_dpi
 4617              	.LVL551:
 4618 05c4 0A23     		movs	r3, #10
 4619 05c6 00FB03F3 		mul	r3, r0, r3
 4620 05ca EF2B     		cmp	r3, #239
 4621 05cc 42DC     		bgt	.L301
 4622 05ce 0123     		movs	r3, #1
 4623              	.L241:
 578:Middlewares/LVGL/GUI/lvgl/src/core/lv_obj_scroll.c ****                     }
 4624              		.loc 1 578 53 discriminator 4 view .LVU1413
 4625 05d0 E31A     		subs	r3, r4, r3
 578:Middlewares/LVGL/GUI/lvgl/src/core/lv_obj_scroll.c ****                     }
 4626              		.loc 1 578 38 discriminator 4 view .LVU1414
 4627 05d2 3B60     		str	r3, [r7]
 4628 05d4 35E5     		b	.L207
 4629              	.L307:
 4630 05d6 00BF     		.align	2
 4631              	.L306:
 4632 05d8 67666666 		.word	1717986919
 4633              	.LVL552:
 4634              	.L299:
 570:Middlewares/LVGL/GUI/lvgl/src/core/lv_obj_scroll.c ****                     if(hor_area->x1 + SCROLLBAR_MIN_SIZE > hor_area->x2) {
 4635              		.loc 1 570 21 is_stmt 1 view .LVU1415
 570:Middlewares/LVGL/GUI/lvgl/src/core/lv_obj_scroll.c ****                     if(hor_area->x1 + SCROLLBAR_MIN_SIZE > hor_area->x2) {
 4636              		.loc 1 570 34 is_stmt 0 view .LVU1416
 4637 05dc 3D60     		str	r5, [r7]
 571:Middlewares/LVGL/GUI/lvgl/src/core/lv_obj_scroll.c ****                         hor_area->x2 = hor_area->x1 + SCROLLBAR_MIN_SIZE;
 4638              		.loc 1 571 21 is_stmt 1 view .LVU1417
 571:Middlewares/LVGL/GUI/lvgl/src/core/lv_obj_scroll.c ****                         hor_area->x2 = hor_area->x1 + SCROLLBAR_MIN_SIZE;
 4639              		.loc 1 571 39 is_stmt 0 view .LVU1418
 4640 05de 0020     		movs	r0, #0
 4641 05e0 FFF7FEFF 		bl	lv_disp_get_dpi
 4642              	.LVL553:
 4643 05e4 00EB8000 		add	r0, r0, r0, lsl #2
 4644 05e8 4300     		lsls	r3, r0, #1
 4645 05ea EF2B     		cmp	r3, #239
 4646 05ec 11DC     		bgt	.L302
 4647 05ee 0123     		movs	r3, #1
 4648              	.L238:
 571:Middlewares/LVGL/GUI/lvgl/src/core/lv_obj_scroll.c ****                         hor_area->x2 = hor_area->x1 + SCROLLBAR_MIN_SIZE;
 4649              		.loc 1 571 37 discriminator 4 view .LVU1419
 4650 05f0 1D44     		add	r5, r5, r3
 571:Middlewares/LVGL/GUI/lvgl/src/core/lv_obj_scroll.c ****                         hor_area->x2 = hor_area->x1 + SCROLLBAR_MIN_SIZE;
 4651              		.loc 1 571 68 discriminator 4 view .LVU1420
 4652 05f2 BB68     		ldr	r3, [r7, #8]
 571:Middlewares/LVGL/GUI/lvgl/src/core/lv_obj_scroll.c ****                         hor_area->x2 = hor_area->x1 + SCROLLBAR_MIN_SIZE;
 4653              		.loc 1 571 23 discriminator 4 view .LVU1421
 4654 05f4 9D42     		cmp	r5, r3
 4655 05f6 CBDD     		ble	.L237
 572:Middlewares/LVGL/GUI/lvgl/src/core/lv_obj_scroll.c ****                     }
 4656              		.loc 1 572 25 is_stmt 1 view .LVU1422
 572:Middlewares/LVGL/GUI/lvgl/src/core/lv_obj_scroll.c ****                     }
ARM GAS  C:\Users\ADMINI~1\AppData\Local\Temp\cchMZgMB.s 			page 133


 4657              		.loc 1 572 48 is_stmt 0 view .LVU1423
 4658 05f8 3D68     		ldr	r5, [r7]
 572:Middlewares/LVGL/GUI/lvgl/src/core/lv_obj_scroll.c ****                     }
 4659              		.loc 1 572 55 view .LVU1424
 4660 05fa 0020     		movs	r0, #0
 4661 05fc FFF7FEFF 		bl	lv_disp_get_dpi
 4662              	.LVL554:
 4663 0600 0A23     		movs	r3, #10
 4664 0602 00FB03F3 		mul	r3, r0, r3
 4665 0606 EF2B     		cmp	r3, #239
 4666 0608 0EDC     		bgt	.L303
 4667 060a 0123     		movs	r3, #1
 4668              	.L239:
 572:Middlewares/LVGL/GUI/lvgl/src/core/lv_obj_scroll.c ****                     }
 4669              		.loc 1 572 53 discriminator 4 view .LVU1425
 4670 060c 2B44     		add	r3, r3, r5
 572:Middlewares/LVGL/GUI/lvgl/src/core/lv_obj_scroll.c ****                     }
 4671              		.loc 1 572 38 discriminator 4 view .LVU1426
 4672 060e BB60     		str	r3, [r7, #8]
 4673 0610 BEE7     		b	.L237
 4674              	.L302:
 571:Middlewares/LVGL/GUI/lvgl/src/core/lv_obj_scroll.c ****                         hor_area->x2 = hor_area->x1 + SCROLLBAR_MIN_SIZE;
 4675              		.loc 1 571 39 discriminator 1 view .LVU1427
 4676 0612 0020     		movs	r0, #0
 4677 0614 FFF7FEFF 		bl	lv_disp_get_dpi
 4678              	.LVL555:
 4679 0618 0A22     		movs	r2, #10
 4680 061a 02FB00F3 		mul	r3, r2, r0
 4681 061e 5033     		adds	r3, r3, #80
 4682 0620 A022     		movs	r2, #160
 4683 0622 93FBF2F3 		sdiv	r3, r3, r2
 4684 0626 E3E7     		b	.L238
 4685              	.L303:
 572:Middlewares/LVGL/GUI/lvgl/src/core/lv_obj_scroll.c ****                     }
 4686              		.loc 1 572 55 discriminator 1 view .LVU1428
 4687 0628 0020     		movs	r0, #0
 4688 062a FFF7FEFF 		bl	lv_disp_get_dpi
 4689              	.LVL556:
 4690 062e 0A22     		movs	r2, #10
 4691 0630 02FB00F3 		mul	r3, r2, r0
 4692 0634 5033     		adds	r3, r3, #80
 4693 0636 A022     		movs	r2, #160
 4694 0638 93FBF2F3 		sdiv	r3, r3, r2
 4695 063c E6E7     		b	.L239
 4696              	.LVL557:
 4697              	.L300:
 577:Middlewares/LVGL/GUI/lvgl/src/core/lv_obj_scroll.c ****                         hor_area->x1 = hor_area->x2 - SCROLLBAR_MIN_SIZE;
 4698              		.loc 1 577 39 discriminator 1 view .LVU1429
 4699 063e 0020     		movs	r0, #0
 4700 0640 FFF7FEFF 		bl	lv_disp_get_dpi
 4701              	.LVL558:
 4702 0644 0A22     		movs	r2, #10
 4703 0646 02FB00F3 		mul	r3, r2, r0
 4704 064a 5033     		adds	r3, r3, #80
 4705 064c A022     		movs	r2, #160
 4706 064e 93FBF2F3 		sdiv	r3, r3, r2
 4707 0652 AEE7     		b	.L240
ARM GAS  C:\Users\ADMINI~1\AppData\Local\Temp\cchMZgMB.s 			page 134


 4708              	.L301:
 578:Middlewares/LVGL/GUI/lvgl/src/core/lv_obj_scroll.c ****                     }
 4709              		.loc 1 578 55 discriminator 1 view .LVU1430
 4710 0654 0020     		movs	r0, #0
 4711 0656 FFF7FEFF 		bl	lv_disp_get_dpi
 4712              	.LVL559:
 4713 065a 0A22     		movs	r2, #10
 4714 065c 02FB00F3 		mul	r3, r2, r0
 4715 0660 5033     		adds	r3, r3, #80
 4716 0662 A022     		movs	r2, #160
 4717 0664 93FBF2F3 		sdiv	r3, r3, r2
 4718 0668 B2E7     		b	.L241
 4719              	.LVL560:
 4720              	.L292:
 586:Middlewares/LVGL/GUI/lvgl/src/core/lv_obj_scroll.c ****                     if(hor_area->x1 + SCROLLBAR_MIN_SIZE > hor_area->x2) {
 4721              		.loc 1 586 21 is_stmt 1 view .LVU1431
 586:Middlewares/LVGL/GUI/lvgl/src/core/lv_obj_scroll.c ****                     if(hor_area->x1 + SCROLLBAR_MIN_SIZE > hor_area->x2) {
 4722              		.loc 1 586 34 is_stmt 0 view .LVU1432
 4723 066a 3D60     		str	r5, [r7]
 587:Middlewares/LVGL/GUI/lvgl/src/core/lv_obj_scroll.c ****                         hor_area->x2 = hor_area->x1 + SCROLLBAR_MIN_SIZE;
 4724              		.loc 1 587 21 is_stmt 1 view .LVU1433
 587:Middlewares/LVGL/GUI/lvgl/src/core/lv_obj_scroll.c ****                         hor_area->x2 = hor_area->x1 + SCROLLBAR_MIN_SIZE;
 4725              		.loc 1 587 39 is_stmt 0 view .LVU1434
 4726 066c 0020     		movs	r0, #0
 4727 066e FFF7FEFF 		bl	lv_disp_get_dpi
 4728              	.LVL561:
 4729 0672 00EB8000 		add	r0, r0, r0, lsl #2
 4730 0676 4300     		lsls	r3, r0, #1
 4731 0678 EF2B     		cmp	r3, #239
 4732 067a 12DC     		bgt	.L304
 4733 067c 0123     		movs	r3, #1
 4734              	.L243:
 587:Middlewares/LVGL/GUI/lvgl/src/core/lv_obj_scroll.c ****                         hor_area->x2 = hor_area->x1 + SCROLLBAR_MIN_SIZE;
 4735              		.loc 1 587 37 discriminator 4 view .LVU1435
 4736 067e 1D44     		add	r5, r5, r3
 587:Middlewares/LVGL/GUI/lvgl/src/core/lv_obj_scroll.c ****                         hor_area->x2 = hor_area->x1 + SCROLLBAR_MIN_SIZE;
 4737              		.loc 1 587 68 discriminator 4 view .LVU1436
 4738 0680 BB68     		ldr	r3, [r7, #8]
 587:Middlewares/LVGL/GUI/lvgl/src/core/lv_obj_scroll.c ****                         hor_area->x2 = hor_area->x1 + SCROLLBAR_MIN_SIZE;
 4739              		.loc 1 587 23 discriminator 4 view .LVU1437
 4740 0682 9D42     		cmp	r5, r3
 4741 0684 7FF7B7AE 		ble	.L242
 588:Middlewares/LVGL/GUI/lvgl/src/core/lv_obj_scroll.c ****                     }
 4742              		.loc 1 588 25 is_stmt 1 view .LVU1438
 588:Middlewares/LVGL/GUI/lvgl/src/core/lv_obj_scroll.c ****                     }
 4743              		.loc 1 588 48 is_stmt 0 view .LVU1439
 4744 0688 3D68     		ldr	r5, [r7]
 588:Middlewares/LVGL/GUI/lvgl/src/core/lv_obj_scroll.c ****                     }
 4745              		.loc 1 588 55 view .LVU1440
 4746 068a 0020     		movs	r0, #0
 4747 068c FFF7FEFF 		bl	lv_disp_get_dpi
 4748              	.LVL562:
 4749 0690 00EB8000 		add	r0, r0, r0, lsl #2
 4750 0694 4300     		lsls	r3, r0, #1
 4751 0696 EF2B     		cmp	r3, #239
 4752 0698 11DC     		bgt	.L305
 4753 069a 0123     		movs	r3, #1
ARM GAS  C:\Users\ADMINI~1\AppData\Local\Temp\cchMZgMB.s 			page 135


 4754              	.L244:
 588:Middlewares/LVGL/GUI/lvgl/src/core/lv_obj_scroll.c ****                     }
 4755              		.loc 1 588 53 discriminator 4 view .LVU1441
 4756 069c 2B44     		add	r3, r3, r5
 588:Middlewares/LVGL/GUI/lvgl/src/core/lv_obj_scroll.c ****                     }
 4757              		.loc 1 588 38 discriminator 4 view .LVU1442
 4758 069e BB60     		str	r3, [r7, #8]
 4759 06a0 A9E6     		b	.L242
 4760              	.L304:
 587:Middlewares/LVGL/GUI/lvgl/src/core/lv_obj_scroll.c ****                         hor_area->x2 = hor_area->x1 + SCROLLBAR_MIN_SIZE;
 4761              		.loc 1 587 39 discriminator 1 view .LVU1443
 4762 06a2 0020     		movs	r0, #0
 4763 06a4 FFF7FEFF 		bl	lv_disp_get_dpi
 4764              	.LVL563:
 4765 06a8 00EB8000 		add	r0, r0, r0, lsl #2
 4766 06ac 4300     		lsls	r3, r0, #1
 4767 06ae 5033     		adds	r3, r3, #80
 4768 06b0 154A     		ldr	r2, .L308
 4769 06b2 82FB0312 		smull	r1, r2, r2, r3
 4770 06b6 DB17     		asrs	r3, r3, #31
 4771 06b8 C3EBA213 		rsb	r3, r3, r2, asr #6
 4772 06bc DFE7     		b	.L243
 4773              	.L305:
 588:Middlewares/LVGL/GUI/lvgl/src/core/lv_obj_scroll.c ****                     }
 4774              		.loc 1 588 55 discriminator 1 view .LVU1444
 4775 06be 0020     		movs	r0, #0
 4776 06c0 FFF7FEFF 		bl	lv_disp_get_dpi
 4777              	.LVL564:
 4778 06c4 0A22     		movs	r2, #10
 4779 06c6 02FB00F3 		mul	r3, r2, r0
 4780 06ca 5033     		adds	r3, r3, #80
 4781 06cc A022     		movs	r2, #160
 4782 06ce 93FBF2F3 		sdiv	r3, r3, r2
 4783 06d2 E3E7     		b	.L244
 4784              	.LVL565:
 4785              	.L293:
 593:Middlewares/LVGL/GUI/lvgl/src/core/lv_obj_scroll.c ****                         hor_area->x1 = hor_area->x2 - SCROLLBAR_MIN_SIZE;
 4786              		.loc 1 593 39 discriminator 1 view .LVU1445
 4787 06d4 0020     		movs	r0, #0
 4788 06d6 FFF7FEFF 		bl	lv_disp_get_dpi
 4789              	.LVL566:
 4790 06da 00EB8000 		add	r0, r0, r0, lsl #2
 4791 06de 4300     		lsls	r3, r0, #1
 4792 06e0 5033     		adds	r3, r3, #80
 4793 06e2 094A     		ldr	r2, .L308
 4794 06e4 82FB0312 		smull	r1, r2, r2, r3
 4795 06e8 DB17     		asrs	r3, r3, #31
 4796 06ea C3EBA213 		rsb	r3, r3, r2, asr #6
 4797 06ee 96E6     		b	.L245
 4798              	.L294:
 594:Middlewares/LVGL/GUI/lvgl/src/core/lv_obj_scroll.c ****                     }
 4799              		.loc 1 594 55 discriminator 1 view .LVU1446
 4800 06f0 0020     		movs	r0, #0
 4801 06f2 FFF7FEFF 		bl	lv_disp_get_dpi
 4802              	.LVL567:
 4803 06f6 0A22     		movs	r2, #10
 4804 06f8 02FB00F3 		mul	r3, r2, r0
ARM GAS  C:\Users\ADMINI~1\AppData\Local\Temp\cchMZgMB.s 			page 136


 4805 06fc 5033     		adds	r3, r3, #80
 4806 06fe A022     		movs	r2, #160
 4807 0700 93FBF2F3 		sdiv	r3, r3, r2
 4808 0704 9BE6     		b	.L246
 4809              	.L309:
 4810 0706 00BF     		.align	2
 4811              	.L308:
 4812 0708 67666666 		.word	1717986919
 4813              	.LBE200:
 4814              	.LBE202:
 4815              		.cfi_endproc
 4816              	.LFE183:
 4818              		.section	.text.lv_obj_scrollbar_invalidate,"ax",%progbits
 4819              		.align	1
 4820              		.global	lv_obj_scrollbar_invalidate
 4821              		.syntax unified
 4822              		.thumb
 4823              		.thumb_func
 4825              	lv_obj_scrollbar_invalidate:
 4826              	.LVL568:
 4827              	.LFB184:
 603:Middlewares/LVGL/GUI/lvgl/src/core/lv_obj_scroll.c ****     lv_area_t hor_area;
 4828              		.loc 1 603 1 is_stmt 1 view -0
 4829              		.cfi_startproc
 4830              		@ args = 0, pretend = 0, frame = 32
 4831              		@ frame_needed = 0, uses_anonymous_args = 0
 603:Middlewares/LVGL/GUI/lvgl/src/core/lv_obj_scroll.c ****     lv_area_t hor_area;
 4832              		.loc 1 603 1 is_stmt 0 view .LVU1448
 4833 0000 10B5     		push	{r4, lr}
 4834              	.LCFI38:
 4835              		.cfi_def_cfa_offset 8
 4836              		.cfi_offset 4, -8
 4837              		.cfi_offset 14, -4
 4838 0002 88B0     		sub	sp, sp, #32
 4839              	.LCFI39:
 4840              		.cfi_def_cfa_offset 40
 4841 0004 0446     		mov	r4, r0
 604:Middlewares/LVGL/GUI/lvgl/src/core/lv_obj_scroll.c ****     lv_area_t ver_area;
 4842              		.loc 1 604 5 is_stmt 1 view .LVU1449
 605:Middlewares/LVGL/GUI/lvgl/src/core/lv_obj_scroll.c ****     lv_obj_get_scrollbar_area(obj, &hor_area, &ver_area);
 4843              		.loc 1 605 5 view .LVU1450
 606:Middlewares/LVGL/GUI/lvgl/src/core/lv_obj_scroll.c **** 
 4844              		.loc 1 606 5 view .LVU1451
 4845 0006 6A46     		mov	r2, sp
 4846 0008 04A9     		add	r1, sp, #16
 4847 000a FFF7FEFF 		bl	lv_obj_get_scrollbar_area
 4848              	.LVL569:
 608:Middlewares/LVGL/GUI/lvgl/src/core/lv_obj_scroll.c **** 
 4849              		.loc 1 608 5 view .LVU1452
 608:Middlewares/LVGL/GUI/lvgl/src/core/lv_obj_scroll.c **** 
 4850              		.loc 1 608 8 is_stmt 0 view .LVU1453
 4851 000e 04A8     		add	r0, sp, #16
 4852 0010 FFF7FEFF 		bl	lv_area_get_size
 4853              	.LVL570:
 608:Middlewares/LVGL/GUI/lvgl/src/core/lv_obj_scroll.c **** 
 4854              		.loc 1 608 7 view .LVU1454
 4855 0014 18B9     		cbnz	r0, .L311
ARM GAS  C:\Users\ADMINI~1\AppData\Local\Temp\cchMZgMB.s 			page 137


 608:Middlewares/LVGL/GUI/lvgl/src/core/lv_obj_scroll.c **** 
 4856              		.loc 1 608 44 discriminator 1 view .LVU1455
 4857 0016 6846     		mov	r0, sp
 4858 0018 FFF7FEFF 		bl	lv_area_get_size
 4859              	.LVL571:
 608:Middlewares/LVGL/GUI/lvgl/src/core/lv_obj_scroll.c **** 
 4860              		.loc 1 608 41 discriminator 1 view .LVU1456
 4861 001c 38B1     		cbz	r0, .L310
 4862              	.L311:
 610:Middlewares/LVGL/GUI/lvgl/src/core/lv_obj_scroll.c ****     if(lv_area_get_size(&ver_area) > 0) lv_obj_invalidate_area(obj, &ver_area);
 4863              		.loc 1 610 5 is_stmt 1 view .LVU1457
 610:Middlewares/LVGL/GUI/lvgl/src/core/lv_obj_scroll.c ****     if(lv_area_get_size(&ver_area) > 0) lv_obj_invalidate_area(obj, &ver_area);
 4864              		.loc 1 610 8 is_stmt 0 view .LVU1458
 4865 001e 04A8     		add	r0, sp, #16
 4866 0020 FFF7FEFF 		bl	lv_area_get_size
 4867              	.LVL572:
 610:Middlewares/LVGL/GUI/lvgl/src/core/lv_obj_scroll.c ****     if(lv_area_get_size(&ver_area) > 0) lv_obj_invalidate_area(obj, &ver_area);
 4868              		.loc 1 610 7 view .LVU1459
 4869 0024 28B9     		cbnz	r0, .L316
 4870              	.L313:
 611:Middlewares/LVGL/GUI/lvgl/src/core/lv_obj_scroll.c **** }
 4871              		.loc 1 611 5 is_stmt 1 view .LVU1460
 611:Middlewares/LVGL/GUI/lvgl/src/core/lv_obj_scroll.c **** }
 4872              		.loc 1 611 8 is_stmt 0 view .LVU1461
 4873 0026 6846     		mov	r0, sp
 4874 0028 FFF7FEFF 		bl	lv_area_get_size
 4875              	.LVL573:
 611:Middlewares/LVGL/GUI/lvgl/src/core/lv_obj_scroll.c **** }
 4876              		.loc 1 611 7 view .LVU1462
 4877 002c 30B9     		cbnz	r0, .L317
 4878              	.L310:
 612:Middlewares/LVGL/GUI/lvgl/src/core/lv_obj_scroll.c **** 
 4879              		.loc 1 612 1 view .LVU1463
 4880 002e 08B0     		add	sp, sp, #32
 4881              	.LCFI40:
 4882              		.cfi_remember_state
 4883              		.cfi_def_cfa_offset 8
 4884              		@ sp needed
 4885 0030 10BD     		pop	{r4, pc}
 4886              	.LVL574:
 4887              	.L316:
 4888              	.LCFI41:
 4889              		.cfi_restore_state
 610:Middlewares/LVGL/GUI/lvgl/src/core/lv_obj_scroll.c ****     if(lv_area_get_size(&ver_area) > 0) lv_obj_invalidate_area(obj, &ver_area);
 4890              		.loc 1 610 41 is_stmt 1 discriminator 1 view .LVU1464
 4891 0032 04A9     		add	r1, sp, #16
 4892 0034 2046     		mov	r0, r4
 4893 0036 FFF7FEFF 		bl	lv_obj_invalidate_area
 4894              	.LVL575:
 4895 003a F4E7     		b	.L313
 4896              	.L317:
 611:Middlewares/LVGL/GUI/lvgl/src/core/lv_obj_scroll.c **** }
 4897              		.loc 1 611 41 discriminator 1 view .LVU1465
 4898 003c 6946     		mov	r1, sp
 4899 003e 2046     		mov	r0, r4
 4900 0040 FFF7FEFF 		bl	lv_obj_invalidate_area
 4901              	.LVL576:
ARM GAS  C:\Users\ADMINI~1\AppData\Local\Temp\cchMZgMB.s 			page 138


 4902 0044 F3E7     		b	.L310
 4903              		.cfi_endproc
 4904              	.LFE184:
 4906              		.section	.text.lv_obj_readjust_scroll,"ax",%progbits
 4907              		.align	1
 4908              		.global	lv_obj_readjust_scroll
 4909              		.syntax unified
 4910              		.thumb
 4911              		.thumb_func
 4913              	lv_obj_readjust_scroll:
 4914              	.LVL577:
 4915              	.LFB185:
 615:Middlewares/LVGL/GUI/lvgl/src/core/lv_obj_scroll.c ****     /*Be sure the bottom side is not remains scrolled in*/
 4916              		.loc 1 615 1 view -0
 4917              		.cfi_startproc
 4918              		@ args = 0, pretend = 0, frame = 0
 4919              		@ frame_needed = 0, uses_anonymous_args = 0
 615:Middlewares/LVGL/GUI/lvgl/src/core/lv_obj_scroll.c ****     /*Be sure the bottom side is not remains scrolled in*/
 4920              		.loc 1 615 1 is_stmt 0 view .LVU1467
 4921 0000 F8B5     		push	{r3, r4, r5, r6, r7, lr}
 4922              	.LCFI42:
 4923              		.cfi_def_cfa_offset 24
 4924              		.cfi_offset 3, -24
 4925              		.cfi_offset 4, -20
 4926              		.cfi_offset 5, -16
 4927              		.cfi_offset 6, -12
 4928              		.cfi_offset 7, -8
 4929              		.cfi_offset 14, -4
 4930 0002 0446     		mov	r4, r0
 4931 0004 0D46     		mov	r5, r1
 618:Middlewares/LVGL/GUI/lvgl/src/core/lv_obj_scroll.c ****         lv_coord_t st = lv_obj_get_scroll_top(obj);
 4932              		.loc 1 618 5 is_stmt 1 view .LVU1468
 618:Middlewares/LVGL/GUI/lvgl/src/core/lv_obj_scroll.c ****         lv_coord_t st = lv_obj_get_scroll_top(obj);
 4933              		.loc 1 618 8 is_stmt 0 view .LVU1469
 4934 0006 FFF7FEFF 		bl	lv_obj_get_scroll_snap_y
 4935              	.LVL578:
 618:Middlewares/LVGL/GUI/lvgl/src/core/lv_obj_scroll.c ****         lv_coord_t st = lv_obj_get_scroll_top(obj);
 4936              		.loc 1 618 7 view .LVU1470
 4937 000a 20B1     		cbz	r0, .L323
 4938              	.L319:
 627:Middlewares/LVGL/GUI/lvgl/src/core/lv_obj_scroll.c ****         lv_coord_t sl = lv_obj_get_scroll_left(obj);
 4939              		.loc 1 627 5 is_stmt 1 view .LVU1471
 627:Middlewares/LVGL/GUI/lvgl/src/core/lv_obj_scroll.c ****         lv_coord_t sl = lv_obj_get_scroll_left(obj);
 4940              		.loc 1 627 8 is_stmt 0 view .LVU1472
 4941 000c 2046     		mov	r0, r4
 4942 000e FFF7FEFF 		bl	lv_obj_get_scroll_snap_x
 4943              	.LVL579:
 627:Middlewares/LVGL/GUI/lvgl/src/core/lv_obj_scroll.c ****         lv_coord_t sl = lv_obj_get_scroll_left(obj);
 4944              		.loc 1 627 7 view .LVU1473
 4945 0012 A8B1     		cbz	r0, .L324
 4946              	.L318:
 645:Middlewares/LVGL/GUI/lvgl/src/core/lv_obj_scroll.c **** 
 4947              		.loc 1 645 1 view .LVU1474
 4948 0014 F8BD     		pop	{r3, r4, r5, r6, r7, pc}
 4949              	.LVL580:
 4950              	.L323:
 4951              	.LBB203:
ARM GAS  C:\Users\ADMINI~1\AppData\Local\Temp\cchMZgMB.s 			page 139


 619:Middlewares/LVGL/GUI/lvgl/src/core/lv_obj_scroll.c ****         lv_coord_t sb = lv_obj_get_scroll_bottom(obj);
 4952              		.loc 1 619 9 is_stmt 1 view .LVU1475
 619:Middlewares/LVGL/GUI/lvgl/src/core/lv_obj_scroll.c ****         lv_coord_t sb = lv_obj_get_scroll_bottom(obj);
 4953              		.loc 1 619 25 is_stmt 0 view .LVU1476
 4954 0016 2046     		mov	r0, r4
 4955 0018 FFF7FEFF 		bl	lv_obj_get_scroll_top
 4956              	.LVL581:
 4957 001c 0646     		mov	r6, r0
 4958              	.LVL582:
 620:Middlewares/LVGL/GUI/lvgl/src/core/lv_obj_scroll.c ****         if(sb < 0 && st > 0) {
 4959              		.loc 1 620 9 is_stmt 1 view .LVU1477
 620:Middlewares/LVGL/GUI/lvgl/src/core/lv_obj_scroll.c ****         if(sb < 0 && st > 0) {
 4960              		.loc 1 620 25 is_stmt 0 view .LVU1478
 4961 001e 2046     		mov	r0, r4
 4962              	.LVL583:
 620:Middlewares/LVGL/GUI/lvgl/src/core/lv_obj_scroll.c ****         if(sb < 0 && st > 0) {
 4963              		.loc 1 620 25 view .LVU1479
 4964 0020 FFF7FEFF 		bl	lv_obj_get_scroll_bottom
 4965              	.LVL584:
 621:Middlewares/LVGL/GUI/lvgl/src/core/lv_obj_scroll.c ****             sb = LV_MIN(st, -sb);
 4966              		.loc 1 621 9 is_stmt 1 view .LVU1480
 621:Middlewares/LVGL/GUI/lvgl/src/core/lv_obj_scroll.c ****             sb = LV_MIN(st, -sb);
 4967              		.loc 1 621 11 is_stmt 0 view .LVU1481
 4968 0024 021E     		subs	r2, r0, #0
 4969 0026 F1DA     		bge	.L319
 621:Middlewares/LVGL/GUI/lvgl/src/core/lv_obj_scroll.c ****             sb = LV_MIN(st, -sb);
 4970              		.loc 1 621 19 discriminator 1 view .LVU1482
 4971 0028 002E     		cmp	r6, #0
 4972 002a EFDD     		ble	.L319
 622:Middlewares/LVGL/GUI/lvgl/src/core/lv_obj_scroll.c ****             lv_obj_scroll_by(obj, 0, sb, anim_en);
 4973              		.loc 1 622 13 is_stmt 1 view .LVU1483
 622:Middlewares/LVGL/GUI/lvgl/src/core/lv_obj_scroll.c ****             lv_obj_scroll_by(obj, 0, sb, anim_en);
 4974              		.loc 1 622 18 is_stmt 0 view .LVU1484
 4975 002c 5242     		rsbs	r2, r2, #0
 4976              	.LVL585:
 623:Middlewares/LVGL/GUI/lvgl/src/core/lv_obj_scroll.c ****         }
 4977              		.loc 1 623 13 is_stmt 1 view .LVU1485
 4978 002e 2B46     		mov	r3, r5
 4979 0030 B242     		cmp	r2, r6
 4980 0032 A8BF     		it	ge
 4981 0034 3246     		movge	r2, r6
 4982              	.LVL586:
 623:Middlewares/LVGL/GUI/lvgl/src/core/lv_obj_scroll.c ****         }
 4983              		.loc 1 623 13 is_stmt 0 view .LVU1486
 4984 0036 0021     		movs	r1, #0
 4985 0038 2046     		mov	r0, r4
 4986              	.LVL587:
 623:Middlewares/LVGL/GUI/lvgl/src/core/lv_obj_scroll.c ****         }
 4987              		.loc 1 623 13 view .LVU1487
 4988 003a FFF7FEFF 		bl	lv_obj_scroll_by
 4989              	.LVL588:
 4990 003e E5E7     		b	.L319
 4991              	.LVL589:
 4992              	.L324:
 623:Middlewares/LVGL/GUI/lvgl/src/core/lv_obj_scroll.c ****         }
 4993              		.loc 1 623 13 view .LVU1488
 4994              	.LBE203:
ARM GAS  C:\Users\ADMINI~1\AppData\Local\Temp\cchMZgMB.s 			page 140


 4995              	.LBB204:
 628:Middlewares/LVGL/GUI/lvgl/src/core/lv_obj_scroll.c ****         lv_coord_t sr = lv_obj_get_scroll_right(obj);
 4996              		.loc 1 628 9 is_stmt 1 view .LVU1489
 628:Middlewares/LVGL/GUI/lvgl/src/core/lv_obj_scroll.c ****         lv_coord_t sr = lv_obj_get_scroll_right(obj);
 4997              		.loc 1 628 25 is_stmt 0 view .LVU1490
 4998 0040 2046     		mov	r0, r4
 4999 0042 FFF7FEFF 		bl	lv_obj_get_scroll_left
 5000              	.LVL590:
 5001 0046 0746     		mov	r7, r0
 5002              	.LVL591:
 629:Middlewares/LVGL/GUI/lvgl/src/core/lv_obj_scroll.c ****         if(lv_obj_get_style_base_dir(obj, LV_PART_MAIN) != LV_BASE_DIR_RTL) {
 5003              		.loc 1 629 9 is_stmt 1 view .LVU1491
 629:Middlewares/LVGL/GUI/lvgl/src/core/lv_obj_scroll.c ****         if(lv_obj_get_style_base_dir(obj, LV_PART_MAIN) != LV_BASE_DIR_RTL) {
 5004              		.loc 1 629 25 is_stmt 0 view .LVU1492
 5005 0048 2046     		mov	r0, r4
 5006              	.LVL592:
 629:Middlewares/LVGL/GUI/lvgl/src/core/lv_obj_scroll.c ****         if(lv_obj_get_style_base_dir(obj, LV_PART_MAIN) != LV_BASE_DIR_RTL) {
 5007              		.loc 1 629 25 view .LVU1493
 5008 004a FFF7FEFF 		bl	lv_obj_get_scroll_right
 5009              	.LVL593:
 5010 004e 0646     		mov	r6, r0
 5011              	.LVL594:
 630:Middlewares/LVGL/GUI/lvgl/src/core/lv_obj_scroll.c ****             /*Be sure the left side is not remains scrolled in*/
 5012              		.loc 1 630 9 is_stmt 1 view .LVU1494
 5013              	.LBB205:
 5014              	.LBI205:
 542:Middlewares/LVGL/GUI/lvgl/src/core/lv_obj_style_gen.h **** {
 5015              		.loc 2 542 29 view .LVU1495
 5016              	.LBB206:
 544:Middlewares/LVGL/GUI/lvgl/src/core/lv_obj_style_gen.h ****     return (lv_base_dir_t)v.num;
 5017              		.loc 2 544 5 view .LVU1496
 544:Middlewares/LVGL/GUI/lvgl/src/core/lv_obj_style_gen.h ****     return (lv_base_dir_t)v.num;
 5018              		.loc 2 544 26 is_stmt 0 view .LVU1497
 5019 0050 41F26A42 		movw	r2, #5226
 5020 0054 0021     		movs	r1, #0
 5021 0056 2046     		mov	r0, r4
 5022              	.LVL595:
 544:Middlewares/LVGL/GUI/lvgl/src/core/lv_obj_style_gen.h ****     return (lv_base_dir_t)v.num;
 5023              		.loc 2 544 26 view .LVU1498
 5024 0058 FFF7FEFF 		bl	lv_obj_get_style_prop
 5025              	.LVL596:
 5026              		.loc 2 545 5 is_stmt 1 view .LVU1499
 5027              		.loc 2 545 12 is_stmt 0 view .LVU1500
 5028 005c C3B2     		uxtb	r3, r0
 5029              	.LVL597:
 5030              		.loc 2 545 12 view .LVU1501
 5031              	.LBE206:
 5032              	.LBE205:
 630:Middlewares/LVGL/GUI/lvgl/src/core/lv_obj_scroll.c ****             /*Be sure the left side is not remains scrolled in*/
 5033              		.loc 1 630 11 view .LVU1502
 5034 005e 012B     		cmp	r3, #1
 5035 0060 0DD0     		beq	.L321
 632:Middlewares/LVGL/GUI/lvgl/src/core/lv_obj_scroll.c ****                 sr = LV_MIN(sl, -sr);
 5036              		.loc 1 632 13 is_stmt 1 view .LVU1503
 632:Middlewares/LVGL/GUI/lvgl/src/core/lv_obj_scroll.c ****                 sr = LV_MIN(sl, -sr);
 5037              		.loc 1 632 15 is_stmt 0 view .LVU1504
 5038 0062 002E     		cmp	r6, #0
ARM GAS  C:\Users\ADMINI~1\AppData\Local\Temp\cchMZgMB.s 			page 141


 5039 0064 D6DA     		bge	.L318
 632:Middlewares/LVGL/GUI/lvgl/src/core/lv_obj_scroll.c ****                 sr = LV_MIN(sl, -sr);
 5040              		.loc 1 632 23 discriminator 1 view .LVU1505
 5041 0066 002F     		cmp	r7, #0
 5042 0068 D4DD     		ble	.L318
 633:Middlewares/LVGL/GUI/lvgl/src/core/lv_obj_scroll.c ****                 lv_obj_scroll_by(obj, sr, 0, anim_en);
 5043              		.loc 1 633 17 is_stmt 1 view .LVU1506
 633:Middlewares/LVGL/GUI/lvgl/src/core/lv_obj_scroll.c ****                 lv_obj_scroll_by(obj, sr, 0, anim_en);
 5044              		.loc 1 633 22 is_stmt 0 view .LVU1507
 5045 006a 7142     		rsbs	r1, r6, #0
 5046              	.LVL598:
 634:Middlewares/LVGL/GUI/lvgl/src/core/lv_obj_scroll.c ****             }
 5047              		.loc 1 634 17 is_stmt 1 view .LVU1508
 5048 006c 2B46     		mov	r3, r5
 5049 006e 0022     		movs	r2, #0
 5050 0070 B942     		cmp	r1, r7
 5051 0072 A8BF     		it	ge
 5052 0074 3946     		movge	r1, r7
 5053              	.LVL599:
 634:Middlewares/LVGL/GUI/lvgl/src/core/lv_obj_scroll.c ****             }
 5054              		.loc 1 634 17 is_stmt 0 view .LVU1509
 5055 0076 2046     		mov	r0, r4
 5056 0078 FFF7FEFF 		bl	lv_obj_scroll_by
 5057              	.LVL600:
 5058 007c CAE7     		b	.L318
 5059              	.LVL601:
 5060              	.L321:
 639:Middlewares/LVGL/GUI/lvgl/src/core/lv_obj_scroll.c ****                 sr = LV_MIN(sr, -sl);
 5061              		.loc 1 639 13 is_stmt 1 view .LVU1510
 639:Middlewares/LVGL/GUI/lvgl/src/core/lv_obj_scroll.c ****                 sr = LV_MIN(sr, -sl);
 5062              		.loc 1 639 15 is_stmt 0 view .LVU1511
 5063 007e 002F     		cmp	r7, #0
 5064 0080 C8DA     		bge	.L318
 639:Middlewares/LVGL/GUI/lvgl/src/core/lv_obj_scroll.c ****                 sr = LV_MIN(sr, -sl);
 5065              		.loc 1 639 23 discriminator 1 view .LVU1512
 5066 0082 002E     		cmp	r6, #0
 5067 0084 C6DD     		ble	.L318
 640:Middlewares/LVGL/GUI/lvgl/src/core/lv_obj_scroll.c ****                 lv_obj_scroll_by(obj, sl, 0, anim_en);
 5068              		.loc 1 640 17 is_stmt 1 view .LVU1513
 5069              	.LVL602:
 641:Middlewares/LVGL/GUI/lvgl/src/core/lv_obj_scroll.c ****             }
 5070              		.loc 1 641 17 view .LVU1514
 5071 0086 2B46     		mov	r3, r5
 5072 0088 0022     		movs	r2, #0
 5073 008a 3946     		mov	r1, r7
 5074 008c 2046     		mov	r0, r4
 5075 008e FFF7FEFF 		bl	lv_obj_scroll_by
 5076              	.LVL603:
 5077              	.LBE204:
 645:Middlewares/LVGL/GUI/lvgl/src/core/lv_obj_scroll.c **** 
 5078              		.loc 1 645 1 is_stmt 0 view .LVU1515
 5079 0092 BFE7     		b	.L318
 5080              		.cfi_endproc
 5081              	.LFE185:
 5083              		.text
 5084              	.Letext0:
 5085              		.file 5 "c:\\gnu arm embedded toolchain\\10 2021.10\\arm-none-eabi\\include\\machine\\_default_typ
ARM GAS  C:\Users\ADMINI~1\AppData\Local\Temp\cchMZgMB.s 			page 142


 5086              		.file 6 "c:\\gnu arm embedded toolchain\\10 2021.10\\arm-none-eabi\\include\\sys\\_stdint.h"
 5087              		.file 7 "c:\\gnu arm embedded toolchain\\10 2021.10\\lib\\gcc\\arm-none-eabi\\10.3.1\\include\\std
 5088              		.file 8 "Middlewares/LVGL/GUI/lvgl/src/core/lv_obj_scroll.h"
 5089              		.file 9 "Middlewares/LVGL/GUI/lvgl/src/core/../misc/../font/lv_font.h"
 5090              		.file 10 "Middlewares/LVGL/GUI/lvgl/src/core/../misc/lv_types.h"
 5091              		.file 11 "Middlewares/LVGL/GUI/lvgl/src/core/../misc/lv_color.h"
 5092              		.file 12 "Middlewares/LVGL/GUI/lvgl/src/core/../misc/lv_txt.h"
 5093              		.file 13 "Middlewares/LVGL/GUI/lvgl/src/core/../misc/lv_bidi.h"
 5094              		.file 14 "Middlewares/LVGL/GUI/lvgl/src/core/../misc/lv_style.h"
 5095              		.file 15 "Middlewares/LVGL/GUI/lvgl/src/core/../hal/../draw/lv_img_buf.h"
 5096              		.file 16 "Middlewares/LVGL/GUI/lvgl/src/core/lv_obj.h"
 5097              		.file 17 "Middlewares/LVGL/GUI/lvgl/src/core/../hal/../draw/lv_draw_rect.h"
 5098              		.file 18 "Middlewares/LVGL/GUI/lvgl/src/core/../hal/../draw/lv_draw_label.h"
 5099              		.file 19 "Middlewares/LVGL/GUI/lvgl/src/core/../hal/../draw/lv_draw_img.h"
 5100              		.file 20 "Middlewares/LVGL/GUI/lvgl/src/core/../hal/../draw/lv_draw_line.h"
 5101              		.file 21 "Middlewares/LVGL/GUI/lvgl/src/core/../hal/../draw/lv_draw_arc.h"
 5102              		.file 22 "Middlewares/LVGL/GUI/lvgl/src/core/../hal/../draw/lv_draw.h"
 5103              		.file 23 "Middlewares/LVGL/GUI/lvgl/src/core/../hal/../misc/lv_ll.h"
 5104              		.file 24 "Middlewares/LVGL/GUI/lvgl/src/core/../hal/../misc/lv_timer.h"
 5105              		.file 25 "Middlewares/LVGL/GUI/lvgl/src/core/../hal/lv_hal_disp.h"
 5106              		.file 26 "Middlewares/LVGL/GUI/lvgl/src/core/lv_theme.h"
 5107              		.file 27 "Middlewares/LVGL/GUI/lvgl/src/core/../hal/lv_hal_indev.h"
 5108              		.file 28 "Middlewares/LVGL/GUI/lvgl/src/core/lv_group.h"
 5109              		.file 29 "Middlewares/LVGL/GUI/lvgl/src/core/lv_obj_style.h"
 5110              		.file 30 "Middlewares/LVGL/GUI/lvgl/src/core/lv_obj_class.h"
 5111              		.file 31 "Middlewares/LVGL/GUI/lvgl/src/core/lv_event.h"
 5112              		.file 32 "Middlewares/LVGL/GUI/lvgl/src/core/lv_obj_tree.h"
 5113              		.file 33 "Middlewares/LVGL/GUI/lvgl/src/core/../hal/../draw/sw/../../core/lv_obj_pos.h"
 5114              		.file 34 "Middlewares/LVGL/GUI/lvgl/src/core/lv_indev.h"
 5115              		.file 35 "Middlewares/LVGL/GUI/lvgl/src/core/lv_indev_scroll.h"
ARM GAS  C:\Users\ADMINI~1\AppData\Local\Temp\cchMZgMB.s 			page 143


DEFINED SYMBOLS
                            *ABS*:00000000 lv_obj_scroll.c
C:\Users\ADMINI~1\AppData\Local\Temp\cchMZgMB.s:20     .text.scroll_by_raw:00000000 $t
C:\Users\ADMINI~1\AppData\Local\Temp\cchMZgMB.s:25     .text.scroll_by_raw:00000000 scroll_by_raw
C:\Users\ADMINI~1\AppData\Local\Temp\cchMZgMB.s:105    .text.scroll_anim_ready_cb:00000000 $t
C:\Users\ADMINI~1\AppData\Local\Temp\cchMZgMB.s:110    .text.scroll_anim_ready_cb:00000000 scroll_anim_ready_cb
C:\Users\ADMINI~1\AppData\Local\Temp\cchMZgMB.s:137    .text.lv_obj_set_scrollbar_mode:00000000 $t
C:\Users\ADMINI~1\AppData\Local\Temp\cchMZgMB.s:143    .text.lv_obj_set_scrollbar_mode:00000000 lv_obj_set_scrollbar_mode
C:\Users\ADMINI~1\AppData\Local\Temp\cchMZgMB.s:192    .text.lv_obj_set_scroll_dir:00000000 $t
C:\Users\ADMINI~1\AppData\Local\Temp\cchMZgMB.s:198    .text.lv_obj_set_scroll_dir:00000000 lv_obj_set_scroll_dir
C:\Users\ADMINI~1\AppData\Local\Temp\cchMZgMB.s:242    .text.lv_obj_set_scroll_snap_x:00000000 $t
C:\Users\ADMINI~1\AppData\Local\Temp\cchMZgMB.s:248    .text.lv_obj_set_scroll_snap_x:00000000 lv_obj_set_scroll_snap_x
C:\Users\ADMINI~1\AppData\Local\Temp\cchMZgMB.s:282    .text.lv_obj_set_scroll_snap_y:00000000 $t
C:\Users\ADMINI~1\AppData\Local\Temp\cchMZgMB.s:288    .text.lv_obj_set_scroll_snap_y:00000000 lv_obj_set_scroll_snap_y
C:\Users\ADMINI~1\AppData\Local\Temp\cchMZgMB.s:322    .text.lv_obj_get_scrollbar_mode:00000000 $t
C:\Users\ADMINI~1\AppData\Local\Temp\cchMZgMB.s:328    .text.lv_obj_get_scrollbar_mode:00000000 lv_obj_get_scrollbar_mode
C:\Users\ADMINI~1\AppData\Local\Temp\cchMZgMB.s:359    .text.lv_obj_get_scroll_dir:00000000 $t
C:\Users\ADMINI~1\AppData\Local\Temp\cchMZgMB.s:365    .text.lv_obj_get_scroll_dir:00000000 lv_obj_get_scroll_dir
C:\Users\ADMINI~1\AppData\Local\Temp\cchMZgMB.s:396    .text.lv_obj_get_scroll_snap_x:00000000 $t
C:\Users\ADMINI~1\AppData\Local\Temp\cchMZgMB.s:402    .text.lv_obj_get_scroll_snap_x:00000000 lv_obj_get_scroll_snap_x
C:\Users\ADMINI~1\AppData\Local\Temp\cchMZgMB.s:433    .text.lv_obj_get_scroll_snap_y:00000000 $t
C:\Users\ADMINI~1\AppData\Local\Temp\cchMZgMB.s:439    .text.lv_obj_get_scroll_snap_y:00000000 lv_obj_get_scroll_snap_y
C:\Users\ADMINI~1\AppData\Local\Temp\cchMZgMB.s:470    .text.lv_obj_get_scroll_x:00000000 $t
C:\Users\ADMINI~1\AppData\Local\Temp\cchMZgMB.s:476    .text.lv_obj_get_scroll_x:00000000 lv_obj_get_scroll_x
C:\Users\ADMINI~1\AppData\Local\Temp\cchMZgMB.s:507    .text.scroll_x_anim:00000000 $t
C:\Users\ADMINI~1\AppData\Local\Temp\cchMZgMB.s:512    .text.scroll_x_anim:00000000 scroll_x_anim
C:\Users\ADMINI~1\AppData\Local\Temp\cchMZgMB.s:546    .text.lv_obj_get_scroll_y:00000000 $t
C:\Users\ADMINI~1\AppData\Local\Temp\cchMZgMB.s:552    .text.lv_obj_get_scroll_y:00000000 lv_obj_get_scroll_y
C:\Users\ADMINI~1\AppData\Local\Temp\cchMZgMB.s:583    .text.scroll_y_anim:00000000 $t
C:\Users\ADMINI~1\AppData\Local\Temp\cchMZgMB.s:588    .text.scroll_y_anim:00000000 scroll_y_anim
C:\Users\ADMINI~1\AppData\Local\Temp\cchMZgMB.s:622    .text.lv_obj_get_scroll_top:00000000 $t
C:\Users\ADMINI~1\AppData\Local\Temp\cchMZgMB.s:628    .text.lv_obj_get_scroll_top:00000000 lv_obj_get_scroll_top
C:\Users\ADMINI~1\AppData\Local\Temp\cchMZgMB.s:659    .text.lv_obj_get_scroll_bottom:00000000 $t
C:\Users\ADMINI~1\AppData\Local\Temp\cchMZgMB.s:665    .text.lv_obj_get_scroll_bottom:00000000 lv_obj_get_scroll_bottom
C:\Users\ADMINI~1\AppData\Local\Temp\cchMZgMB.s:872    .text.lv_obj_get_scroll_bottom:000000a0 $d
C:\Users\ADMINI~1\AppData\Local\Temp\cchMZgMB.s:878    .text.lv_obj_get_scroll_left:00000000 $t
C:\Users\ADMINI~1\AppData\Local\Temp\cchMZgMB.s:884    .text.lv_obj_get_scroll_left:00000000 lv_obj_get_scroll_left
C:\Users\ADMINI~1\AppData\Local\Temp\cchMZgMB.s:1145   .text.lv_obj_get_scroll_left:000000c8 $d
C:\Users\ADMINI~1\AppData\Local\Temp\cchMZgMB.s:1151   .text.lv_obj_get_scroll_right:00000000 $t
C:\Users\ADMINI~1\AppData\Local\Temp\cchMZgMB.s:1157   .text.lv_obj_get_scroll_right:00000000 lv_obj_get_scroll_right
C:\Users\ADMINI~1\AppData\Local\Temp\cchMZgMB.s:1401   .text.lv_obj_get_scroll_right:000000c0 $d
C:\Users\ADMINI~1\AppData\Local\Temp\cchMZgMB.s:1407   .text.lv_obj_get_scroll_end:00000000 $t
C:\Users\ADMINI~1\AppData\Local\Temp\cchMZgMB.s:1413   .text.lv_obj_get_scroll_end:00000000 lv_obj_get_scroll_end
C:\Users\ADMINI~1\AppData\Local\Temp\cchMZgMB.s:1489   .text.lv_obj_get_scroll_end:00000038 $d
C:\Users\ADMINI~1\AppData\Local\Temp\cchMZgMB.s:1495   .text.lv_obj_scroll_by:00000000 $t
C:\Users\ADMINI~1\AppData\Local\Temp\cchMZgMB.s:1501   .text.lv_obj_scroll_by:00000000 lv_obj_scroll_by
C:\Users\ADMINI~1\AppData\Local\Temp\cchMZgMB.s:1891   .text.lv_obj_scroll_by:0000010c $d
C:\Users\ADMINI~1\AppData\Local\Temp\cchMZgMB.s:1901   .text.lv_obj_scroll_by_bounded:00000000 $t
C:\Users\ADMINI~1\AppData\Local\Temp\cchMZgMB.s:1907   .text.lv_obj_scroll_by_bounded:00000000 lv_obj_scroll_by_bounded
C:\Users\ADMINI~1\AppData\Local\Temp\cchMZgMB.s:2170   .text.scroll_area_into_view:00000000 $t
C:\Users\ADMINI~1\AppData\Local\Temp\cchMZgMB.s:2175   .text.scroll_area_into_view:00000000 scroll_area_into_view
C:\Users\ADMINI~1\AppData\Local\Temp\cchMZgMB.s:2960   .text.scroll_area_into_view:000002f4 $d
C:\Users\ADMINI~1\AppData\Local\Temp\cchMZgMB.s:2966   .text.lv_obj_scroll_to_x:00000000 $t
C:\Users\ADMINI~1\AppData\Local\Temp\cchMZgMB.s:2972   .text.lv_obj_scroll_to_x:00000000 lv_obj_scroll_to_x
C:\Users\ADMINI~1\AppData\Local\Temp\cchMZgMB.s:3020   .text.lv_obj_scroll_to_x:00000024 $d
C:\Users\ADMINI~1\AppData\Local\Temp\cchMZgMB.s:3025   .text.lv_obj_scroll_to_y:00000000 $t
C:\Users\ADMINI~1\AppData\Local\Temp\cchMZgMB.s:3031   .text.lv_obj_scroll_to_y:00000000 lv_obj_scroll_to_y
ARM GAS  C:\Users\ADMINI~1\AppData\Local\Temp\cchMZgMB.s 			page 144


C:\Users\ADMINI~1\AppData\Local\Temp\cchMZgMB.s:3079   .text.lv_obj_scroll_to_y:00000024 $d
C:\Users\ADMINI~1\AppData\Local\Temp\cchMZgMB.s:3084   .text.lv_obj_scroll_to:00000000 $t
C:\Users\ADMINI~1\AppData\Local\Temp\cchMZgMB.s:3090   .text.lv_obj_scroll_to:00000000 lv_obj_scroll_to
C:\Users\ADMINI~1\AppData\Local\Temp\cchMZgMB.s:3127   .text.lv_obj_scroll_to_view:00000000 $t
C:\Users\ADMINI~1\AppData\Local\Temp\cchMZgMB.s:3133   .text.lv_obj_scroll_to_view:00000000 lv_obj_scroll_to_view
C:\Users\ADMINI~1\AppData\Local\Temp\cchMZgMB.s:3178   .text.lv_obj_scroll_to_view_recursive:00000000 $t
C:\Users\ADMINI~1\AppData\Local\Temp\cchMZgMB.s:3184   .text.lv_obj_scroll_to_view_recursive:00000000 lv_obj_scroll_to_view_recursive
C:\Users\ADMINI~1\AppData\Local\Temp\cchMZgMB.s:3262   .text.lv_obj_is_scrolling:00000000 $t
C:\Users\ADMINI~1\AppData\Local\Temp\cchMZgMB.s:3268   .text.lv_obj_is_scrolling:00000000 lv_obj_is_scrolling
C:\Users\ADMINI~1\AppData\Local\Temp\cchMZgMB.s:3333   .text.lv_obj_update_snap:00000000 $t
C:\Users\ADMINI~1\AppData\Local\Temp\cchMZgMB.s:3339   .text.lv_obj_update_snap:00000000 lv_obj_update_snap
C:\Users\ADMINI~1\AppData\Local\Temp\cchMZgMB.s:3385   .text.lv_obj_get_scrollbar_area:00000000 $t
C:\Users\ADMINI~1\AppData\Local\Temp\cchMZgMB.s:3391   .text.lv_obj_get_scrollbar_area:00000000 lv_obj_get_scrollbar_area
C:\Users\ADMINI~1\AppData\Local\Temp\cchMZgMB.s:4632   .text.lv_obj_get_scrollbar_area:000005d8 $d
C:\Users\ADMINI~1\AppData\Local\Temp\cchMZgMB.s:4637   .text.lv_obj_get_scrollbar_area:000005dc $t
C:\Users\ADMINI~1\AppData\Local\Temp\cchMZgMB.s:4812   .text.lv_obj_get_scrollbar_area:00000708 $d
C:\Users\ADMINI~1\AppData\Local\Temp\cchMZgMB.s:4819   .text.lv_obj_scrollbar_invalidate:00000000 $t
C:\Users\ADMINI~1\AppData\Local\Temp\cchMZgMB.s:4825   .text.lv_obj_scrollbar_invalidate:00000000 lv_obj_scrollbar_invalidate
C:\Users\ADMINI~1\AppData\Local\Temp\cchMZgMB.s:4907   .text.lv_obj_readjust_scroll:00000000 $t
C:\Users\ADMINI~1\AppData\Local\Temp\cchMZgMB.s:4913   .text.lv_obj_readjust_scroll:00000000 lv_obj_readjust_scroll

UNDEFINED SYMBOLS
lv_obj_allocate_spec_attr
lv_obj_move_children_by
lv_event_send
lv_obj_invalidate
lv_obj_get_child_cnt
lv_obj_has_flag_any
lv_obj_get_style_prop
lv_obj_get_self_height
lv_obj_get_height
lv_obj_get_self_width
lv_obj_get_width
lv_anim_get
lv_anim_del
lv_obj_get_disp
lv_anim_init
lv_disp_get_ver_res
lv_anim_speed_to_time
lv_disp_get_hor_res
lv_anim_start
lv_anim_path_ease_out
lv_obj_update_layout
lv_obj_get_parent
lv_obj_has_flag
lv_indev_get_next
lv_indev_get_scroll_obj
lv_indev_scroll_get_snap_dist
lv_area_set
lv_indev_get_scroll_dir
lv_disp_get_dpi
lv_area_get_size
lv_obj_invalidate_area
