ARM GAS  C:\Users\ADMINI~1\AppData\Local\Temp\ccVA75Tx.s 			page 1


   1              		.cpu cortex-m4
   2              		.arch armv7e-m
   3              		.fpu fpv4-sp-d16
   4              		.eabi_attribute 27, 1
   5              		.eabi_attribute 28, 1
   6              		.eabi_attribute 20, 1
   7              		.eabi_attribute 21, 1
   8              		.eabi_attribute 23, 3
   9              		.eabi_attribute 24, 1
  10              		.eabi_attribute 25, 1
  11              		.eabi_attribute 26, 1
  12              		.eabi_attribute 30, 1
  13              		.eabi_attribute 34, 1
  14              		.eabi_attribute 18, 4
  15              		.file	"lv_obj_pos.c"
  16              		.text
  17              	.Ltext0:
  18              		.cfi_sections	.debug_frame
  19              		.section	.text.lv_obj_set_x,"ax",%progbits
  20              		.align	1
  21              		.global	lv_obj_set_x
  22              		.syntax unified
  23              		.thumb
  24              		.thumb_func
  26              	lv_obj_set_x:
  27              	.LVL0:
  28              	.LFB160:
  29              		.file 1 "Middlewares/LVGL/GUI/lvgl/src/core/lv_obj_pos.c"
   1:Middlewares/LVGL/GUI/lvgl/src/core/lv_obj_pos.c **** /**
   2:Middlewares/LVGL/GUI/lvgl/src/core/lv_obj_pos.c ****  * @file lv_obj_pos.c
   3:Middlewares/LVGL/GUI/lvgl/src/core/lv_obj_pos.c ****  *
   4:Middlewares/LVGL/GUI/lvgl/src/core/lv_obj_pos.c ****  */
   5:Middlewares/LVGL/GUI/lvgl/src/core/lv_obj_pos.c **** 
   6:Middlewares/LVGL/GUI/lvgl/src/core/lv_obj_pos.c **** /*********************
   7:Middlewares/LVGL/GUI/lvgl/src/core/lv_obj_pos.c ****  *      INCLUDES
   8:Middlewares/LVGL/GUI/lvgl/src/core/lv_obj_pos.c ****  *********************/
   9:Middlewares/LVGL/GUI/lvgl/src/core/lv_obj_pos.c **** #include "lv_obj.h"
  10:Middlewares/LVGL/GUI/lvgl/src/core/lv_obj_pos.c **** #include "lv_disp.h"
  11:Middlewares/LVGL/GUI/lvgl/src/core/lv_obj_pos.c **** #include "lv_refr.h"
  12:Middlewares/LVGL/GUI/lvgl/src/core/lv_obj_pos.c **** #include "../misc/lv_gc.h"
  13:Middlewares/LVGL/GUI/lvgl/src/core/lv_obj_pos.c **** 
  14:Middlewares/LVGL/GUI/lvgl/src/core/lv_obj_pos.c **** /*********************
  15:Middlewares/LVGL/GUI/lvgl/src/core/lv_obj_pos.c ****  *      DEFINES
  16:Middlewares/LVGL/GUI/lvgl/src/core/lv_obj_pos.c ****  *********************/
  17:Middlewares/LVGL/GUI/lvgl/src/core/lv_obj_pos.c **** #define MY_CLASS &lv_obj_class
  18:Middlewares/LVGL/GUI/lvgl/src/core/lv_obj_pos.c **** 
  19:Middlewares/LVGL/GUI/lvgl/src/core/lv_obj_pos.c **** /**********************
  20:Middlewares/LVGL/GUI/lvgl/src/core/lv_obj_pos.c ****  *      TYPEDEFS
  21:Middlewares/LVGL/GUI/lvgl/src/core/lv_obj_pos.c ****  **********************/
  22:Middlewares/LVGL/GUI/lvgl/src/core/lv_obj_pos.c **** 
  23:Middlewares/LVGL/GUI/lvgl/src/core/lv_obj_pos.c **** /**********************
  24:Middlewares/LVGL/GUI/lvgl/src/core/lv_obj_pos.c ****  *  STATIC PROTOTYPES
  25:Middlewares/LVGL/GUI/lvgl/src/core/lv_obj_pos.c ****  **********************/
  26:Middlewares/LVGL/GUI/lvgl/src/core/lv_obj_pos.c **** static lv_coord_t calc_content_width(lv_obj_t * obj);
  27:Middlewares/LVGL/GUI/lvgl/src/core/lv_obj_pos.c **** static lv_coord_t calc_content_height(lv_obj_t * obj);
  28:Middlewares/LVGL/GUI/lvgl/src/core/lv_obj_pos.c **** static void layout_update_core(lv_obj_t * obj);
  29:Middlewares/LVGL/GUI/lvgl/src/core/lv_obj_pos.c **** 
ARM GAS  C:\Users\ADMINI~1\AppData\Local\Temp\ccVA75Tx.s 			page 2


  30:Middlewares/LVGL/GUI/lvgl/src/core/lv_obj_pos.c **** /**********************
  31:Middlewares/LVGL/GUI/lvgl/src/core/lv_obj_pos.c ****  *  STATIC VARIABLES
  32:Middlewares/LVGL/GUI/lvgl/src/core/lv_obj_pos.c ****  **********************/
  33:Middlewares/LVGL/GUI/lvgl/src/core/lv_obj_pos.c **** static uint32_t layout_cnt;
  34:Middlewares/LVGL/GUI/lvgl/src/core/lv_obj_pos.c **** 
  35:Middlewares/LVGL/GUI/lvgl/src/core/lv_obj_pos.c **** /**********************
  36:Middlewares/LVGL/GUI/lvgl/src/core/lv_obj_pos.c ****  *      MACROS
  37:Middlewares/LVGL/GUI/lvgl/src/core/lv_obj_pos.c ****  **********************/
  38:Middlewares/LVGL/GUI/lvgl/src/core/lv_obj_pos.c **** 
  39:Middlewares/LVGL/GUI/lvgl/src/core/lv_obj_pos.c **** /**********************
  40:Middlewares/LVGL/GUI/lvgl/src/core/lv_obj_pos.c ****  *   GLOBAL FUNCTIONS
  41:Middlewares/LVGL/GUI/lvgl/src/core/lv_obj_pos.c ****  **********************/
  42:Middlewares/LVGL/GUI/lvgl/src/core/lv_obj_pos.c **** 
  43:Middlewares/LVGL/GUI/lvgl/src/core/lv_obj_pos.c **** void lv_obj_set_pos(lv_obj_t * obj, lv_coord_t x, lv_coord_t y)
  44:Middlewares/LVGL/GUI/lvgl/src/core/lv_obj_pos.c **** {
  45:Middlewares/LVGL/GUI/lvgl/src/core/lv_obj_pos.c ****     LV_ASSERT_OBJ(obj, MY_CLASS);
  46:Middlewares/LVGL/GUI/lvgl/src/core/lv_obj_pos.c **** 
  47:Middlewares/LVGL/GUI/lvgl/src/core/lv_obj_pos.c ****     lv_obj_set_x(obj, x);
  48:Middlewares/LVGL/GUI/lvgl/src/core/lv_obj_pos.c ****     lv_obj_set_y(obj, y);
  49:Middlewares/LVGL/GUI/lvgl/src/core/lv_obj_pos.c **** }
  50:Middlewares/LVGL/GUI/lvgl/src/core/lv_obj_pos.c **** 
  51:Middlewares/LVGL/GUI/lvgl/src/core/lv_obj_pos.c **** void lv_obj_set_x(lv_obj_t * obj, lv_coord_t x)
  52:Middlewares/LVGL/GUI/lvgl/src/core/lv_obj_pos.c **** {
  30              		.loc 1 52 1 view -0
  31              		.cfi_startproc
  32              		@ args = 0, pretend = 0, frame = 8
  33              		@ frame_needed = 0, uses_anonymous_args = 0
  34              		.loc 1 52 1 is_stmt 0 view .LVU1
  35 0000 30B5     		push	{r4, r5, lr}
  36              	.LCFI0:
  37              		.cfi_def_cfa_offset 12
  38              		.cfi_offset 4, -12
  39              		.cfi_offset 5, -8
  40              		.cfi_offset 14, -4
  41 0002 83B0     		sub	sp, sp, #12
  42              	.LCFI1:
  43              		.cfi_def_cfa_offset 24
  44 0004 0546     		mov	r5, r0
  45 0006 0C46     		mov	r4, r1
  53:Middlewares/LVGL/GUI/lvgl/src/core/lv_obj_pos.c ****     LV_ASSERT_OBJ(obj, MY_CLASS);
  46              		.loc 1 53 5 is_stmt 1 view .LVU2
  47              		.loc 1 53 5 view .LVU3
  48              		.loc 1 53 5 view .LVU4
  54:Middlewares/LVGL/GUI/lvgl/src/core/lv_obj_pos.c **** 
  55:Middlewares/LVGL/GUI/lvgl/src/core/lv_obj_pos.c ****     lv_res_t res_x;
  49              		.loc 1 55 5 view .LVU5
  56:Middlewares/LVGL/GUI/lvgl/src/core/lv_obj_pos.c ****     lv_style_value_t v_x;
  50              		.loc 1 56 5 view .LVU6
  57:Middlewares/LVGL/GUI/lvgl/src/core/lv_obj_pos.c **** 
  58:Middlewares/LVGL/GUI/lvgl/src/core/lv_obj_pos.c ****     res_x = lv_obj_get_local_style_prop(obj, LV_STYLE_X, &v_x, 0);
  51              		.loc 1 58 5 view .LVU7
  52              		.loc 1 58 13 is_stmt 0 view .LVU8
  53 0008 0023     		movs	r3, #0
  54 000a 01AA     		add	r2, sp, #4
  55 000c 41F20701 		movw	r1, #4103
  56              	.LVL1:
  57              		.loc 1 58 13 view .LVU9
ARM GAS  C:\Users\ADMINI~1\AppData\Local\Temp\ccVA75Tx.s 			page 3


  58 0010 FFF7FEFF 		bl	lv_obj_get_local_style_prop
  59              	.LVL2:
  59:Middlewares/LVGL/GUI/lvgl/src/core/lv_obj_pos.c **** 
  60:Middlewares/LVGL/GUI/lvgl/src/core/lv_obj_pos.c ****     if((res_x == LV_RES_OK && v_x.num != x) || res_x == LV_RES_INV) {
  60              		.loc 1 60 5 is_stmt 1 view .LVU10
  61              		.loc 1 60 7 is_stmt 0 view .LVU11
  62 0014 0128     		cmp	r0, #1
  63 0016 07D0     		beq	.L6
  64              	.L2:
  65              		.loc 1 60 45 discriminator 3 view .LVU12
  66 0018 20B9     		cbnz	r0, .L1
  67              	.L3:
  61:Middlewares/LVGL/GUI/lvgl/src/core/lv_obj_pos.c ****         lv_obj_set_style_x(obj, x, 0);
  68              		.loc 1 61 9 is_stmt 1 view .LVU13
  69 001a 0022     		movs	r2, #0
  70 001c 2146     		mov	r1, r4
  71 001e 2846     		mov	r0, r5
  72              	.LVL3:
  73              		.loc 1 61 9 is_stmt 0 view .LVU14
  74 0020 FFF7FEFF 		bl	lv_obj_set_style_x
  75              	.LVL4:
  76              	.L1:
  62:Middlewares/LVGL/GUI/lvgl/src/core/lv_obj_pos.c ****     }
  63:Middlewares/LVGL/GUI/lvgl/src/core/lv_obj_pos.c **** }
  77              		.loc 1 63 1 view .LVU15
  78 0024 03B0     		add	sp, sp, #12
  79              	.LCFI2:
  80              		.cfi_remember_state
  81              		.cfi_def_cfa_offset 12
  82              		@ sp needed
  83 0026 30BD     		pop	{r4, r5, pc}
  84              	.LVL5:
  85              	.L6:
  86              	.LCFI3:
  87              		.cfi_restore_state
  60:Middlewares/LVGL/GUI/lvgl/src/core/lv_obj_pos.c ****         lv_obj_set_style_x(obj, x, 0);
  88              		.loc 1 60 34 discriminator 1 view .LVU16
  89 0028 019B     		ldr	r3, [sp, #4]
  60:Middlewares/LVGL/GUI/lvgl/src/core/lv_obj_pos.c ****         lv_obj_set_style_x(obj, x, 0);
  90              		.loc 1 60 28 discriminator 1 view .LVU17
  91 002a A342     		cmp	r3, r4
  92 002c F5D1     		bne	.L3
  93 002e F3E7     		b	.L2
  94              		.cfi_endproc
  95              	.LFE160:
  97              		.section	.text.lv_obj_set_y,"ax",%progbits
  98              		.align	1
  99              		.global	lv_obj_set_y
 100              		.syntax unified
 101              		.thumb
 102              		.thumb_func
 104              	lv_obj_set_y:
 105              	.LVL6:
 106              	.LFB161:
  64:Middlewares/LVGL/GUI/lvgl/src/core/lv_obj_pos.c **** 
  65:Middlewares/LVGL/GUI/lvgl/src/core/lv_obj_pos.c **** void lv_obj_set_y(lv_obj_t * obj, lv_coord_t y)
  66:Middlewares/LVGL/GUI/lvgl/src/core/lv_obj_pos.c **** {
ARM GAS  C:\Users\ADMINI~1\AppData\Local\Temp\ccVA75Tx.s 			page 4


 107              		.loc 1 66 1 is_stmt 1 view -0
 108              		.cfi_startproc
 109              		@ args = 0, pretend = 0, frame = 8
 110              		@ frame_needed = 0, uses_anonymous_args = 0
 111              		.loc 1 66 1 is_stmt 0 view .LVU19
 112 0000 30B5     		push	{r4, r5, lr}
 113              	.LCFI4:
 114              		.cfi_def_cfa_offset 12
 115              		.cfi_offset 4, -12
 116              		.cfi_offset 5, -8
 117              		.cfi_offset 14, -4
 118 0002 83B0     		sub	sp, sp, #12
 119              	.LCFI5:
 120              		.cfi_def_cfa_offset 24
 121 0004 0546     		mov	r5, r0
 122 0006 0C46     		mov	r4, r1
  67:Middlewares/LVGL/GUI/lvgl/src/core/lv_obj_pos.c ****     LV_ASSERT_OBJ(obj, MY_CLASS);
 123              		.loc 1 67 5 is_stmt 1 view .LVU20
 124              		.loc 1 67 5 view .LVU21
 125              		.loc 1 67 5 view .LVU22
  68:Middlewares/LVGL/GUI/lvgl/src/core/lv_obj_pos.c **** 
  69:Middlewares/LVGL/GUI/lvgl/src/core/lv_obj_pos.c ****     lv_res_t res_y;
 126              		.loc 1 69 5 view .LVU23
  70:Middlewares/LVGL/GUI/lvgl/src/core/lv_obj_pos.c ****     lv_style_value_t v_y;
 127              		.loc 1 70 5 view .LVU24
  71:Middlewares/LVGL/GUI/lvgl/src/core/lv_obj_pos.c **** 
  72:Middlewares/LVGL/GUI/lvgl/src/core/lv_obj_pos.c ****     res_y = lv_obj_get_local_style_prop(obj, LV_STYLE_Y, &v_y, 0);
 128              		.loc 1 72 5 view .LVU25
 129              		.loc 1 72 13 is_stmt 0 view .LVU26
 130 0008 0023     		movs	r3, #0
 131 000a 01AA     		add	r2, sp, #4
 132 000c 41F20801 		movw	r1, #4104
 133              	.LVL7:
 134              		.loc 1 72 13 view .LVU27
 135 0010 FFF7FEFF 		bl	lv_obj_get_local_style_prop
 136              	.LVL8:
  73:Middlewares/LVGL/GUI/lvgl/src/core/lv_obj_pos.c **** 
  74:Middlewares/LVGL/GUI/lvgl/src/core/lv_obj_pos.c ****     if((res_y == LV_RES_OK && v_y.num != y) || res_y == LV_RES_INV) {
 137              		.loc 1 74 5 is_stmt 1 view .LVU28
 138              		.loc 1 74 7 is_stmt 0 view .LVU29
 139 0014 0128     		cmp	r0, #1
 140 0016 07D0     		beq	.L12
 141              	.L8:
 142              		.loc 1 74 45 discriminator 3 view .LVU30
 143 0018 20B9     		cbnz	r0, .L7
 144              	.L9:
  75:Middlewares/LVGL/GUI/lvgl/src/core/lv_obj_pos.c ****         lv_obj_set_style_y(obj, y, 0);
 145              		.loc 1 75 9 is_stmt 1 view .LVU31
 146 001a 0022     		movs	r2, #0
 147 001c 2146     		mov	r1, r4
 148 001e 2846     		mov	r0, r5
 149              	.LVL9:
 150              		.loc 1 75 9 is_stmt 0 view .LVU32
 151 0020 FFF7FEFF 		bl	lv_obj_set_style_y
 152              	.LVL10:
 153              	.L7:
  76:Middlewares/LVGL/GUI/lvgl/src/core/lv_obj_pos.c ****     }
ARM GAS  C:\Users\ADMINI~1\AppData\Local\Temp\ccVA75Tx.s 			page 5


  77:Middlewares/LVGL/GUI/lvgl/src/core/lv_obj_pos.c **** }
 154              		.loc 1 77 1 view .LVU33
 155 0024 03B0     		add	sp, sp, #12
 156              	.LCFI6:
 157              		.cfi_remember_state
 158              		.cfi_def_cfa_offset 12
 159              		@ sp needed
 160 0026 30BD     		pop	{r4, r5, pc}
 161              	.LVL11:
 162              	.L12:
 163              	.LCFI7:
 164              		.cfi_restore_state
  74:Middlewares/LVGL/GUI/lvgl/src/core/lv_obj_pos.c ****         lv_obj_set_style_y(obj, y, 0);
 165              		.loc 1 74 34 discriminator 1 view .LVU34
 166 0028 019B     		ldr	r3, [sp, #4]
  74:Middlewares/LVGL/GUI/lvgl/src/core/lv_obj_pos.c ****         lv_obj_set_style_y(obj, y, 0);
 167              		.loc 1 74 28 discriminator 1 view .LVU35
 168 002a A342     		cmp	r3, r4
 169 002c F5D1     		bne	.L9
 170 002e F3E7     		b	.L8
 171              		.cfi_endproc
 172              	.LFE161:
 174              		.section	.text.lv_obj_set_pos,"ax",%progbits
 175              		.align	1
 176              		.global	lv_obj_set_pos
 177              		.syntax unified
 178              		.thumb
 179              		.thumb_func
 181              	lv_obj_set_pos:
 182              	.LVL12:
 183              	.LFB159:
  44:Middlewares/LVGL/GUI/lvgl/src/core/lv_obj_pos.c ****     LV_ASSERT_OBJ(obj, MY_CLASS);
 184              		.loc 1 44 1 is_stmt 1 view -0
 185              		.cfi_startproc
 186              		@ args = 0, pretend = 0, frame = 0
 187              		@ frame_needed = 0, uses_anonymous_args = 0
  44:Middlewares/LVGL/GUI/lvgl/src/core/lv_obj_pos.c ****     LV_ASSERT_OBJ(obj, MY_CLASS);
 188              		.loc 1 44 1 is_stmt 0 view .LVU37
 189 0000 38B5     		push	{r3, r4, r5, lr}
 190              	.LCFI8:
 191              		.cfi_def_cfa_offset 16
 192              		.cfi_offset 3, -16
 193              		.cfi_offset 4, -12
 194              		.cfi_offset 5, -8
 195              		.cfi_offset 14, -4
 196 0002 0446     		mov	r4, r0
 197 0004 1546     		mov	r5, r2
  45:Middlewares/LVGL/GUI/lvgl/src/core/lv_obj_pos.c **** 
 198              		.loc 1 45 5 is_stmt 1 view .LVU38
  45:Middlewares/LVGL/GUI/lvgl/src/core/lv_obj_pos.c **** 
 199              		.loc 1 45 5 view .LVU39
  45:Middlewares/LVGL/GUI/lvgl/src/core/lv_obj_pos.c **** 
 200              		.loc 1 45 5 view .LVU40
  47:Middlewares/LVGL/GUI/lvgl/src/core/lv_obj_pos.c ****     lv_obj_set_y(obj, y);
 201              		.loc 1 47 5 view .LVU41
 202 0006 FFF7FEFF 		bl	lv_obj_set_x
 203              	.LVL13:
ARM GAS  C:\Users\ADMINI~1\AppData\Local\Temp\ccVA75Tx.s 			page 6


  48:Middlewares/LVGL/GUI/lvgl/src/core/lv_obj_pos.c **** }
 204              		.loc 1 48 5 view .LVU42
 205 000a 2946     		mov	r1, r5
 206 000c 2046     		mov	r0, r4
 207 000e FFF7FEFF 		bl	lv_obj_set_y
 208              	.LVL14:
  49:Middlewares/LVGL/GUI/lvgl/src/core/lv_obj_pos.c **** 
 209              		.loc 1 49 1 is_stmt 0 view .LVU43
 210 0012 38BD     		pop	{r3, r4, r5, pc}
  49:Middlewares/LVGL/GUI/lvgl/src/core/lv_obj_pos.c **** 
 211              		.loc 1 49 1 view .LVU44
 212              		.cfi_endproc
 213              	.LFE159:
 215              		.section	.text.lv_obj_set_width,"ax",%progbits
 216              		.align	1
 217              		.global	lv_obj_set_width
 218              		.syntax unified
 219              		.thumb
 220              		.thumb_func
 222              	lv_obj_set_width:
 223              	.LVL15:
 224              	.LFB164:
  78:Middlewares/LVGL/GUI/lvgl/src/core/lv_obj_pos.c **** 
  79:Middlewares/LVGL/GUI/lvgl/src/core/lv_obj_pos.c **** bool lv_obj_refr_size(lv_obj_t * obj)
  80:Middlewares/LVGL/GUI/lvgl/src/core/lv_obj_pos.c **** {
  81:Middlewares/LVGL/GUI/lvgl/src/core/lv_obj_pos.c ****     LV_ASSERT_OBJ(obj, MY_CLASS);
  82:Middlewares/LVGL/GUI/lvgl/src/core/lv_obj_pos.c **** 
  83:Middlewares/LVGL/GUI/lvgl/src/core/lv_obj_pos.c ****     /*If the width or height is set by a layout do not modify them*/
  84:Middlewares/LVGL/GUI/lvgl/src/core/lv_obj_pos.c ****     if(obj->w_layout && obj->h_layout) return false;
  85:Middlewares/LVGL/GUI/lvgl/src/core/lv_obj_pos.c **** 
  86:Middlewares/LVGL/GUI/lvgl/src/core/lv_obj_pos.c ****     lv_obj_t * parent = lv_obj_get_parent(obj);
  87:Middlewares/LVGL/GUI/lvgl/src/core/lv_obj_pos.c ****     if(parent == NULL) return false;
  88:Middlewares/LVGL/GUI/lvgl/src/core/lv_obj_pos.c **** 
  89:Middlewares/LVGL/GUI/lvgl/src/core/lv_obj_pos.c ****     lv_coord_t sl_ori = lv_obj_get_scroll_left(obj);
  90:Middlewares/LVGL/GUI/lvgl/src/core/lv_obj_pos.c ****     bool w_is_content = false;
  91:Middlewares/LVGL/GUI/lvgl/src/core/lv_obj_pos.c ****     bool w_is_pct = false;
  92:Middlewares/LVGL/GUI/lvgl/src/core/lv_obj_pos.c **** 
  93:Middlewares/LVGL/GUI/lvgl/src/core/lv_obj_pos.c ****     lv_coord_t w;
  94:Middlewares/LVGL/GUI/lvgl/src/core/lv_obj_pos.c ****     if(obj->w_layout) {
  95:Middlewares/LVGL/GUI/lvgl/src/core/lv_obj_pos.c ****         w = lv_obj_get_width(obj);
  96:Middlewares/LVGL/GUI/lvgl/src/core/lv_obj_pos.c ****     }
  97:Middlewares/LVGL/GUI/lvgl/src/core/lv_obj_pos.c ****     else {
  98:Middlewares/LVGL/GUI/lvgl/src/core/lv_obj_pos.c ****         w = lv_obj_get_style_width(obj, LV_PART_MAIN);
  99:Middlewares/LVGL/GUI/lvgl/src/core/lv_obj_pos.c ****         w_is_content = w == LV_SIZE_CONTENT ? true : false;
 100:Middlewares/LVGL/GUI/lvgl/src/core/lv_obj_pos.c ****         w_is_pct = LV_COORD_IS_PCT(w) ? true : false;
 101:Middlewares/LVGL/GUI/lvgl/src/core/lv_obj_pos.c ****         lv_coord_t parent_w = lv_obj_get_content_width(parent);
 102:Middlewares/LVGL/GUI/lvgl/src/core/lv_obj_pos.c **** 
 103:Middlewares/LVGL/GUI/lvgl/src/core/lv_obj_pos.c ****         if(w_is_content) {
 104:Middlewares/LVGL/GUI/lvgl/src/core/lv_obj_pos.c ****             w = calc_content_width(obj);
 105:Middlewares/LVGL/GUI/lvgl/src/core/lv_obj_pos.c ****         }
 106:Middlewares/LVGL/GUI/lvgl/src/core/lv_obj_pos.c ****         else if(w_is_pct) {
 107:Middlewares/LVGL/GUI/lvgl/src/core/lv_obj_pos.c ****             /*If parent has content size and the child has pct size
 108:Middlewares/LVGL/GUI/lvgl/src/core/lv_obj_pos.c ****              *a circular dependency will occur. To solve it keep child size at zero */
 109:Middlewares/LVGL/GUI/lvgl/src/core/lv_obj_pos.c ****             if(parent->w_layout == 0 && lv_obj_get_style_width(parent, 0) == LV_SIZE_CONTENT) {
 110:Middlewares/LVGL/GUI/lvgl/src/core/lv_obj_pos.c ****                 lv_coord_t border_w = lv_obj_get_style_border_width(obj, 0);
 111:Middlewares/LVGL/GUI/lvgl/src/core/lv_obj_pos.c ****                 w = lv_obj_get_style_pad_left(obj, 0) + border_w;
 112:Middlewares/LVGL/GUI/lvgl/src/core/lv_obj_pos.c ****                 w += lv_obj_get_style_pad_right(obj, 0) + border_w;
ARM GAS  C:\Users\ADMINI~1\AppData\Local\Temp\ccVA75Tx.s 			page 7


 113:Middlewares/LVGL/GUI/lvgl/src/core/lv_obj_pos.c ****             }
 114:Middlewares/LVGL/GUI/lvgl/src/core/lv_obj_pos.c ****             else {
 115:Middlewares/LVGL/GUI/lvgl/src/core/lv_obj_pos.c ****                 w = (LV_COORD_GET_PCT(w) * parent_w) / 100;
 116:Middlewares/LVGL/GUI/lvgl/src/core/lv_obj_pos.c ****             }
 117:Middlewares/LVGL/GUI/lvgl/src/core/lv_obj_pos.c ****         }
 118:Middlewares/LVGL/GUI/lvgl/src/core/lv_obj_pos.c **** 
 119:Middlewares/LVGL/GUI/lvgl/src/core/lv_obj_pos.c ****         lv_coord_t minw = lv_obj_get_style_min_width(obj, LV_PART_MAIN);
 120:Middlewares/LVGL/GUI/lvgl/src/core/lv_obj_pos.c ****         lv_coord_t maxw = lv_obj_get_style_max_width(obj, LV_PART_MAIN);
 121:Middlewares/LVGL/GUI/lvgl/src/core/lv_obj_pos.c ****         w = lv_clamp_width(w, minw, maxw, parent_w);
 122:Middlewares/LVGL/GUI/lvgl/src/core/lv_obj_pos.c ****     }
 123:Middlewares/LVGL/GUI/lvgl/src/core/lv_obj_pos.c **** 
 124:Middlewares/LVGL/GUI/lvgl/src/core/lv_obj_pos.c ****     lv_coord_t st_ori = lv_obj_get_scroll_top(obj);
 125:Middlewares/LVGL/GUI/lvgl/src/core/lv_obj_pos.c ****     lv_coord_t h;
 126:Middlewares/LVGL/GUI/lvgl/src/core/lv_obj_pos.c ****     bool h_is_content = false;
 127:Middlewares/LVGL/GUI/lvgl/src/core/lv_obj_pos.c ****     bool h_is_pct = false;
 128:Middlewares/LVGL/GUI/lvgl/src/core/lv_obj_pos.c ****     if(obj->h_layout) {
 129:Middlewares/LVGL/GUI/lvgl/src/core/lv_obj_pos.c ****         h = lv_obj_get_height(obj);
 130:Middlewares/LVGL/GUI/lvgl/src/core/lv_obj_pos.c ****     }
 131:Middlewares/LVGL/GUI/lvgl/src/core/lv_obj_pos.c ****     else {
 132:Middlewares/LVGL/GUI/lvgl/src/core/lv_obj_pos.c ****         h = lv_obj_get_style_height(obj, LV_PART_MAIN);
 133:Middlewares/LVGL/GUI/lvgl/src/core/lv_obj_pos.c ****         h_is_content = h == LV_SIZE_CONTENT ? true : false;
 134:Middlewares/LVGL/GUI/lvgl/src/core/lv_obj_pos.c ****         h_is_pct = LV_COORD_IS_PCT(h) ? true : false;
 135:Middlewares/LVGL/GUI/lvgl/src/core/lv_obj_pos.c ****         lv_coord_t parent_h = lv_obj_get_content_height(parent);
 136:Middlewares/LVGL/GUI/lvgl/src/core/lv_obj_pos.c **** 
 137:Middlewares/LVGL/GUI/lvgl/src/core/lv_obj_pos.c ****         if(h_is_content) {
 138:Middlewares/LVGL/GUI/lvgl/src/core/lv_obj_pos.c ****             h = calc_content_height(obj);
 139:Middlewares/LVGL/GUI/lvgl/src/core/lv_obj_pos.c ****         }
 140:Middlewares/LVGL/GUI/lvgl/src/core/lv_obj_pos.c ****         else if(h_is_pct) {
 141:Middlewares/LVGL/GUI/lvgl/src/core/lv_obj_pos.c ****             /*If parent has content size and the child has pct size
 142:Middlewares/LVGL/GUI/lvgl/src/core/lv_obj_pos.c ****              *a circular dependency will occur. To solve it keep child size at zero */
 143:Middlewares/LVGL/GUI/lvgl/src/core/lv_obj_pos.c ****             if(parent->h_layout == 0 && lv_obj_get_style_height(parent, 0) == LV_SIZE_CONTENT) {
 144:Middlewares/LVGL/GUI/lvgl/src/core/lv_obj_pos.c ****                 lv_coord_t border_w = lv_obj_get_style_border_width(obj, 0);
 145:Middlewares/LVGL/GUI/lvgl/src/core/lv_obj_pos.c ****                 h = lv_obj_get_style_pad_top(obj, 0) + border_w;
 146:Middlewares/LVGL/GUI/lvgl/src/core/lv_obj_pos.c ****                 h += lv_obj_get_style_pad_bottom(obj, 0) + border_w;
 147:Middlewares/LVGL/GUI/lvgl/src/core/lv_obj_pos.c ****             }
 148:Middlewares/LVGL/GUI/lvgl/src/core/lv_obj_pos.c ****             else {
 149:Middlewares/LVGL/GUI/lvgl/src/core/lv_obj_pos.c ****                 h = (LV_COORD_GET_PCT(h) * parent_h) / 100;
 150:Middlewares/LVGL/GUI/lvgl/src/core/lv_obj_pos.c ****             }
 151:Middlewares/LVGL/GUI/lvgl/src/core/lv_obj_pos.c ****         }
 152:Middlewares/LVGL/GUI/lvgl/src/core/lv_obj_pos.c **** 
 153:Middlewares/LVGL/GUI/lvgl/src/core/lv_obj_pos.c ****         lv_coord_t minh = lv_obj_get_style_min_height(obj, LV_PART_MAIN);
 154:Middlewares/LVGL/GUI/lvgl/src/core/lv_obj_pos.c ****         lv_coord_t maxh = lv_obj_get_style_max_height(obj, LV_PART_MAIN);
 155:Middlewares/LVGL/GUI/lvgl/src/core/lv_obj_pos.c ****         h = lv_clamp_height(h, minh, maxh, parent_h);
 156:Middlewares/LVGL/GUI/lvgl/src/core/lv_obj_pos.c ****     }
 157:Middlewares/LVGL/GUI/lvgl/src/core/lv_obj_pos.c **** 
 158:Middlewares/LVGL/GUI/lvgl/src/core/lv_obj_pos.c ****     /*calc_auto_size set the scroll x/y to 0 so revert the original value*/
 159:Middlewares/LVGL/GUI/lvgl/src/core/lv_obj_pos.c ****     if(w_is_content || h_is_content) {
 160:Middlewares/LVGL/GUI/lvgl/src/core/lv_obj_pos.c ****         lv_obj_scroll_to(obj, sl_ori, st_ori, LV_ANIM_OFF);
 161:Middlewares/LVGL/GUI/lvgl/src/core/lv_obj_pos.c ****     }
 162:Middlewares/LVGL/GUI/lvgl/src/core/lv_obj_pos.c **** 
 163:Middlewares/LVGL/GUI/lvgl/src/core/lv_obj_pos.c ****     /*Do nothing if the size is not changed*/
 164:Middlewares/LVGL/GUI/lvgl/src/core/lv_obj_pos.c ****     /*It is very important else recursive resizing can occur without size change*/
 165:Middlewares/LVGL/GUI/lvgl/src/core/lv_obj_pos.c ****     if(lv_obj_get_width(obj) == w && lv_obj_get_height(obj) == h) return false;
 166:Middlewares/LVGL/GUI/lvgl/src/core/lv_obj_pos.c **** 
 167:Middlewares/LVGL/GUI/lvgl/src/core/lv_obj_pos.c ****     /*Invalidate the original area*/
 168:Middlewares/LVGL/GUI/lvgl/src/core/lv_obj_pos.c ****     lv_obj_invalidate(obj);
 169:Middlewares/LVGL/GUI/lvgl/src/core/lv_obj_pos.c **** 
ARM GAS  C:\Users\ADMINI~1\AppData\Local\Temp\ccVA75Tx.s 			page 8


 170:Middlewares/LVGL/GUI/lvgl/src/core/lv_obj_pos.c ****     /*Save the original coordinates*/
 171:Middlewares/LVGL/GUI/lvgl/src/core/lv_obj_pos.c ****     lv_area_t ori;
 172:Middlewares/LVGL/GUI/lvgl/src/core/lv_obj_pos.c ****     lv_obj_get_coords(obj, &ori);
 173:Middlewares/LVGL/GUI/lvgl/src/core/lv_obj_pos.c **** 
 174:Middlewares/LVGL/GUI/lvgl/src/core/lv_obj_pos.c ****     /*Check if the object inside the parent or not*/
 175:Middlewares/LVGL/GUI/lvgl/src/core/lv_obj_pos.c ****     lv_area_t parent_fit_area;
 176:Middlewares/LVGL/GUI/lvgl/src/core/lv_obj_pos.c ****     lv_obj_get_content_coords(parent, &parent_fit_area);
 177:Middlewares/LVGL/GUI/lvgl/src/core/lv_obj_pos.c **** 
 178:Middlewares/LVGL/GUI/lvgl/src/core/lv_obj_pos.c ****     /*If the object is already out of the parent and its position is changes
 179:Middlewares/LVGL/GUI/lvgl/src/core/lv_obj_pos.c ****      *surely the scrollbars also changes so invalidate them*/
 180:Middlewares/LVGL/GUI/lvgl/src/core/lv_obj_pos.c ****     bool on1 = _lv_area_is_in(&ori, &parent_fit_area, 0);
 181:Middlewares/LVGL/GUI/lvgl/src/core/lv_obj_pos.c ****     if(!on1) lv_obj_scrollbar_invalidate(parent);
 182:Middlewares/LVGL/GUI/lvgl/src/core/lv_obj_pos.c **** 
 183:Middlewares/LVGL/GUI/lvgl/src/core/lv_obj_pos.c ****     /*Set the length and height
 184:Middlewares/LVGL/GUI/lvgl/src/core/lv_obj_pos.c ****      *Be sure the content is not scrolled in an invalid position on the new size*/
 185:Middlewares/LVGL/GUI/lvgl/src/core/lv_obj_pos.c ****     obj->coords.y2 = obj->coords.y1 + h - 1;
 186:Middlewares/LVGL/GUI/lvgl/src/core/lv_obj_pos.c ****     if(lv_obj_get_style_base_dir(obj, LV_PART_MAIN) == LV_BASE_DIR_RTL) {
 187:Middlewares/LVGL/GUI/lvgl/src/core/lv_obj_pos.c ****         obj->coords.x1 = obj->coords.x2 - w + 1;
 188:Middlewares/LVGL/GUI/lvgl/src/core/lv_obj_pos.c ****     }
 189:Middlewares/LVGL/GUI/lvgl/src/core/lv_obj_pos.c ****     else {
 190:Middlewares/LVGL/GUI/lvgl/src/core/lv_obj_pos.c ****         obj->coords.x2 = obj->coords.x1 + w - 1;
 191:Middlewares/LVGL/GUI/lvgl/src/core/lv_obj_pos.c ****     }
 192:Middlewares/LVGL/GUI/lvgl/src/core/lv_obj_pos.c **** 
 193:Middlewares/LVGL/GUI/lvgl/src/core/lv_obj_pos.c ****     /*Call the ancestor's event handler to the object with its new coordinates*/
 194:Middlewares/LVGL/GUI/lvgl/src/core/lv_obj_pos.c ****     lv_event_send(obj, LV_EVENT_SIZE_CHANGED, &ori);
 195:Middlewares/LVGL/GUI/lvgl/src/core/lv_obj_pos.c **** 
 196:Middlewares/LVGL/GUI/lvgl/src/core/lv_obj_pos.c ****     /*Call the ancestor's event handler to the parent too*/
 197:Middlewares/LVGL/GUI/lvgl/src/core/lv_obj_pos.c ****     lv_event_send(parent, LV_EVENT_CHILD_CHANGED, obj);
 198:Middlewares/LVGL/GUI/lvgl/src/core/lv_obj_pos.c **** 
 199:Middlewares/LVGL/GUI/lvgl/src/core/lv_obj_pos.c ****     /*Invalidate the new area*/
 200:Middlewares/LVGL/GUI/lvgl/src/core/lv_obj_pos.c ****     lv_obj_invalidate(obj);
 201:Middlewares/LVGL/GUI/lvgl/src/core/lv_obj_pos.c **** 
 202:Middlewares/LVGL/GUI/lvgl/src/core/lv_obj_pos.c ****     lv_obj_readjust_scroll(obj, LV_ANIM_OFF);
 203:Middlewares/LVGL/GUI/lvgl/src/core/lv_obj_pos.c **** 
 204:Middlewares/LVGL/GUI/lvgl/src/core/lv_obj_pos.c ****     /*If the object was out of the parent invalidate the new scrollbar area too.
 205:Middlewares/LVGL/GUI/lvgl/src/core/lv_obj_pos.c ****      *If it wasn't out of the parent but out now, also invalidate the scrollbars*/
 206:Middlewares/LVGL/GUI/lvgl/src/core/lv_obj_pos.c ****     bool on2 = _lv_area_is_in(&obj->coords, &parent_fit_area, 0);
 207:Middlewares/LVGL/GUI/lvgl/src/core/lv_obj_pos.c ****     if(on1 || (!on1 && on2)) lv_obj_scrollbar_invalidate(parent);
 208:Middlewares/LVGL/GUI/lvgl/src/core/lv_obj_pos.c **** 
 209:Middlewares/LVGL/GUI/lvgl/src/core/lv_obj_pos.c ****     return true;
 210:Middlewares/LVGL/GUI/lvgl/src/core/lv_obj_pos.c **** }
 211:Middlewares/LVGL/GUI/lvgl/src/core/lv_obj_pos.c **** 
 212:Middlewares/LVGL/GUI/lvgl/src/core/lv_obj_pos.c **** void lv_obj_set_size(lv_obj_t * obj, lv_coord_t w, lv_coord_t h)
 213:Middlewares/LVGL/GUI/lvgl/src/core/lv_obj_pos.c **** {
 214:Middlewares/LVGL/GUI/lvgl/src/core/lv_obj_pos.c ****     LV_ASSERT_OBJ(obj, MY_CLASS);
 215:Middlewares/LVGL/GUI/lvgl/src/core/lv_obj_pos.c **** 
 216:Middlewares/LVGL/GUI/lvgl/src/core/lv_obj_pos.c ****     lv_obj_set_width(obj, w);
 217:Middlewares/LVGL/GUI/lvgl/src/core/lv_obj_pos.c ****     lv_obj_set_height(obj, h);
 218:Middlewares/LVGL/GUI/lvgl/src/core/lv_obj_pos.c **** }
 219:Middlewares/LVGL/GUI/lvgl/src/core/lv_obj_pos.c **** 
 220:Middlewares/LVGL/GUI/lvgl/src/core/lv_obj_pos.c **** void lv_obj_set_width(lv_obj_t * obj, lv_coord_t w)
 221:Middlewares/LVGL/GUI/lvgl/src/core/lv_obj_pos.c **** {
 225              		.loc 1 221 1 is_stmt 1 view -0
 226              		.cfi_startproc
 227              		@ args = 0, pretend = 0, frame = 8
 228              		@ frame_needed = 0, uses_anonymous_args = 0
 229              		.loc 1 221 1 is_stmt 0 view .LVU46
ARM GAS  C:\Users\ADMINI~1\AppData\Local\Temp\ccVA75Tx.s 			page 9


 230 0000 30B5     		push	{r4, r5, lr}
 231              	.LCFI9:
 232              		.cfi_def_cfa_offset 12
 233              		.cfi_offset 4, -12
 234              		.cfi_offset 5, -8
 235              		.cfi_offset 14, -4
 236 0002 83B0     		sub	sp, sp, #12
 237              	.LCFI10:
 238              		.cfi_def_cfa_offset 24
 239 0004 0546     		mov	r5, r0
 240 0006 0C46     		mov	r4, r1
 222:Middlewares/LVGL/GUI/lvgl/src/core/lv_obj_pos.c ****     LV_ASSERT_OBJ(obj, MY_CLASS);
 241              		.loc 1 222 5 is_stmt 1 view .LVU47
 242              		.loc 1 222 5 view .LVU48
 243              		.loc 1 222 5 view .LVU49
 223:Middlewares/LVGL/GUI/lvgl/src/core/lv_obj_pos.c ****     lv_res_t res_w;
 244              		.loc 1 223 5 view .LVU50
 224:Middlewares/LVGL/GUI/lvgl/src/core/lv_obj_pos.c ****     lv_style_value_t v_w;
 245              		.loc 1 224 5 view .LVU51
 225:Middlewares/LVGL/GUI/lvgl/src/core/lv_obj_pos.c **** 
 226:Middlewares/LVGL/GUI/lvgl/src/core/lv_obj_pos.c ****     res_w = lv_obj_get_local_style_prop(obj, LV_STYLE_WIDTH, &v_w, 0);
 246              		.loc 1 226 5 view .LVU52
 247              		.loc 1 226 13 is_stmt 0 view .LVU53
 248 0008 0023     		movs	r3, #0
 249 000a 01AA     		add	r2, sp, #4
 250 000c 41F20101 		movw	r1, #4097
 251              	.LVL16:
 252              		.loc 1 226 13 view .LVU54
 253 0010 FFF7FEFF 		bl	lv_obj_get_local_style_prop
 254              	.LVL17:
 227:Middlewares/LVGL/GUI/lvgl/src/core/lv_obj_pos.c **** 
 228:Middlewares/LVGL/GUI/lvgl/src/core/lv_obj_pos.c ****     if((res_w == LV_RES_OK && v_w.num != w) || res_w == LV_RES_INV) {
 255              		.loc 1 228 5 is_stmt 1 view .LVU55
 256              		.loc 1 228 7 is_stmt 0 view .LVU56
 257 0014 0128     		cmp	r0, #1
 258 0016 07D0     		beq	.L20
 259              	.L16:
 260              		.loc 1 228 45 discriminator 3 view .LVU57
 261 0018 20B9     		cbnz	r0, .L15
 262              	.L17:
 229:Middlewares/LVGL/GUI/lvgl/src/core/lv_obj_pos.c ****         lv_obj_set_style_width(obj, w, 0);
 263              		.loc 1 229 9 is_stmt 1 view .LVU58
 264 001a 0022     		movs	r2, #0
 265 001c 2146     		mov	r1, r4
 266 001e 2846     		mov	r0, r5
 267              	.LVL18:
 268              		.loc 1 229 9 is_stmt 0 view .LVU59
 269 0020 FFF7FEFF 		bl	lv_obj_set_style_width
 270              	.LVL19:
 271              	.L15:
 230:Middlewares/LVGL/GUI/lvgl/src/core/lv_obj_pos.c ****     }
 231:Middlewares/LVGL/GUI/lvgl/src/core/lv_obj_pos.c **** }
 272              		.loc 1 231 1 view .LVU60
 273 0024 03B0     		add	sp, sp, #12
 274              	.LCFI11:
 275              		.cfi_remember_state
 276              		.cfi_def_cfa_offset 12
ARM GAS  C:\Users\ADMINI~1\AppData\Local\Temp\ccVA75Tx.s 			page 10


 277              		@ sp needed
 278 0026 30BD     		pop	{r4, r5, pc}
 279              	.LVL20:
 280              	.L20:
 281              	.LCFI12:
 282              		.cfi_restore_state
 228:Middlewares/LVGL/GUI/lvgl/src/core/lv_obj_pos.c ****         lv_obj_set_style_width(obj, w, 0);
 283              		.loc 1 228 34 discriminator 1 view .LVU61
 284 0028 019B     		ldr	r3, [sp, #4]
 228:Middlewares/LVGL/GUI/lvgl/src/core/lv_obj_pos.c ****         lv_obj_set_style_width(obj, w, 0);
 285              		.loc 1 228 28 discriminator 1 view .LVU62
 286 002a A342     		cmp	r3, r4
 287 002c F5D1     		bne	.L17
 288 002e F3E7     		b	.L16
 289              		.cfi_endproc
 290              	.LFE164:
 292              		.section	.text.lv_obj_set_height,"ax",%progbits
 293              		.align	1
 294              		.global	lv_obj_set_height
 295              		.syntax unified
 296              		.thumb
 297              		.thumb_func
 299              	lv_obj_set_height:
 300              	.LVL21:
 301              	.LFB165:
 232:Middlewares/LVGL/GUI/lvgl/src/core/lv_obj_pos.c **** 
 233:Middlewares/LVGL/GUI/lvgl/src/core/lv_obj_pos.c **** void lv_obj_set_height(lv_obj_t * obj, lv_coord_t h)
 234:Middlewares/LVGL/GUI/lvgl/src/core/lv_obj_pos.c **** {
 302              		.loc 1 234 1 is_stmt 1 view -0
 303              		.cfi_startproc
 304              		@ args = 0, pretend = 0, frame = 8
 305              		@ frame_needed = 0, uses_anonymous_args = 0
 306              		.loc 1 234 1 is_stmt 0 view .LVU64
 307 0000 30B5     		push	{r4, r5, lr}
 308              	.LCFI13:
 309              		.cfi_def_cfa_offset 12
 310              		.cfi_offset 4, -12
 311              		.cfi_offset 5, -8
 312              		.cfi_offset 14, -4
 313 0002 83B0     		sub	sp, sp, #12
 314              	.LCFI14:
 315              		.cfi_def_cfa_offset 24
 316 0004 0546     		mov	r5, r0
 317 0006 0C46     		mov	r4, r1
 235:Middlewares/LVGL/GUI/lvgl/src/core/lv_obj_pos.c ****     LV_ASSERT_OBJ(obj, MY_CLASS);
 318              		.loc 1 235 5 is_stmt 1 view .LVU65
 319              		.loc 1 235 5 view .LVU66
 320              		.loc 1 235 5 view .LVU67
 236:Middlewares/LVGL/GUI/lvgl/src/core/lv_obj_pos.c ****     lv_res_t res_h;
 321              		.loc 1 236 5 view .LVU68
 237:Middlewares/LVGL/GUI/lvgl/src/core/lv_obj_pos.c ****     lv_style_value_t v_h;
 322              		.loc 1 237 5 view .LVU69
 238:Middlewares/LVGL/GUI/lvgl/src/core/lv_obj_pos.c **** 
 239:Middlewares/LVGL/GUI/lvgl/src/core/lv_obj_pos.c ****     res_h = lv_obj_get_local_style_prop(obj, LV_STYLE_HEIGHT, &v_h, 0);
 323              		.loc 1 239 5 view .LVU70
 324              		.loc 1 239 13 is_stmt 0 view .LVU71
 325 0008 0023     		movs	r3, #0
ARM GAS  C:\Users\ADMINI~1\AppData\Local\Temp\ccVA75Tx.s 			page 11


 326 000a 01AA     		add	r2, sp, #4
 327 000c 41F20401 		movw	r1, #4100
 328              	.LVL22:
 329              		.loc 1 239 13 view .LVU72
 330 0010 FFF7FEFF 		bl	lv_obj_get_local_style_prop
 331              	.LVL23:
 240:Middlewares/LVGL/GUI/lvgl/src/core/lv_obj_pos.c **** 
 241:Middlewares/LVGL/GUI/lvgl/src/core/lv_obj_pos.c ****     if((res_h == LV_RES_OK && v_h.num != h) || res_h == LV_RES_INV) {
 332              		.loc 1 241 5 is_stmt 1 view .LVU73
 333              		.loc 1 241 7 is_stmt 0 view .LVU74
 334 0014 0128     		cmp	r0, #1
 335 0016 07D0     		beq	.L26
 336              	.L22:
 337              		.loc 1 241 45 discriminator 3 view .LVU75
 338 0018 20B9     		cbnz	r0, .L21
 339              	.L23:
 242:Middlewares/LVGL/GUI/lvgl/src/core/lv_obj_pos.c ****         lv_obj_set_style_height(obj, h, 0);
 340              		.loc 1 242 9 is_stmt 1 view .LVU76
 341 001a 0022     		movs	r2, #0
 342 001c 2146     		mov	r1, r4
 343 001e 2846     		mov	r0, r5
 344              	.LVL24:
 345              		.loc 1 242 9 is_stmt 0 view .LVU77
 346 0020 FFF7FEFF 		bl	lv_obj_set_style_height
 347              	.LVL25:
 348              	.L21:
 243:Middlewares/LVGL/GUI/lvgl/src/core/lv_obj_pos.c ****     }
 244:Middlewares/LVGL/GUI/lvgl/src/core/lv_obj_pos.c **** }
 349              		.loc 1 244 1 view .LVU78
 350 0024 03B0     		add	sp, sp, #12
 351              	.LCFI15:
 352              		.cfi_remember_state
 353              		.cfi_def_cfa_offset 12
 354              		@ sp needed
 355 0026 30BD     		pop	{r4, r5, pc}
 356              	.LVL26:
 357              	.L26:
 358              	.LCFI16:
 359              		.cfi_restore_state
 241:Middlewares/LVGL/GUI/lvgl/src/core/lv_obj_pos.c ****         lv_obj_set_style_height(obj, h, 0);
 360              		.loc 1 241 34 discriminator 1 view .LVU79
 361 0028 019B     		ldr	r3, [sp, #4]
 241:Middlewares/LVGL/GUI/lvgl/src/core/lv_obj_pos.c ****         lv_obj_set_style_height(obj, h, 0);
 362              		.loc 1 241 28 discriminator 1 view .LVU80
 363 002a A342     		cmp	r3, r4
 364 002c F5D1     		bne	.L23
 365 002e F3E7     		b	.L22
 366              		.cfi_endproc
 367              	.LFE165:
 369              		.section	.text.lv_obj_set_size,"ax",%progbits
 370              		.align	1
 371              		.global	lv_obj_set_size
 372              		.syntax unified
 373              		.thumb
 374              		.thumb_func
 376              	lv_obj_set_size:
 377              	.LVL27:
ARM GAS  C:\Users\ADMINI~1\AppData\Local\Temp\ccVA75Tx.s 			page 12


 378              	.LFB163:
 213:Middlewares/LVGL/GUI/lvgl/src/core/lv_obj_pos.c ****     LV_ASSERT_OBJ(obj, MY_CLASS);
 379              		.loc 1 213 1 is_stmt 1 view -0
 380              		.cfi_startproc
 381              		@ args = 0, pretend = 0, frame = 0
 382              		@ frame_needed = 0, uses_anonymous_args = 0
 213:Middlewares/LVGL/GUI/lvgl/src/core/lv_obj_pos.c ****     LV_ASSERT_OBJ(obj, MY_CLASS);
 383              		.loc 1 213 1 is_stmt 0 view .LVU82
 384 0000 38B5     		push	{r3, r4, r5, lr}
 385              	.LCFI17:
 386              		.cfi_def_cfa_offset 16
 387              		.cfi_offset 3, -16
 388              		.cfi_offset 4, -12
 389              		.cfi_offset 5, -8
 390              		.cfi_offset 14, -4
 391 0002 0446     		mov	r4, r0
 392 0004 1546     		mov	r5, r2
 214:Middlewares/LVGL/GUI/lvgl/src/core/lv_obj_pos.c **** 
 393              		.loc 1 214 5 is_stmt 1 view .LVU83
 214:Middlewares/LVGL/GUI/lvgl/src/core/lv_obj_pos.c **** 
 394              		.loc 1 214 5 view .LVU84
 214:Middlewares/LVGL/GUI/lvgl/src/core/lv_obj_pos.c **** 
 395              		.loc 1 214 5 view .LVU85
 216:Middlewares/LVGL/GUI/lvgl/src/core/lv_obj_pos.c ****     lv_obj_set_height(obj, h);
 396              		.loc 1 216 5 view .LVU86
 397 0006 FFF7FEFF 		bl	lv_obj_set_width
 398              	.LVL28:
 217:Middlewares/LVGL/GUI/lvgl/src/core/lv_obj_pos.c **** }
 399              		.loc 1 217 5 view .LVU87
 400 000a 2946     		mov	r1, r5
 401 000c 2046     		mov	r0, r4
 402 000e FFF7FEFF 		bl	lv_obj_set_height
 403              	.LVL29:
 218:Middlewares/LVGL/GUI/lvgl/src/core/lv_obj_pos.c **** 
 404              		.loc 1 218 1 is_stmt 0 view .LVU88
 405 0012 38BD     		pop	{r3, r4, r5, pc}
 218:Middlewares/LVGL/GUI/lvgl/src/core/lv_obj_pos.c **** 
 406              		.loc 1 218 1 view .LVU89
 407              		.cfi_endproc
 408              	.LFE163:
 410              		.section	.text.lv_obj_set_content_width,"ax",%progbits
 411              		.align	1
 412              		.global	lv_obj_set_content_width
 413              		.syntax unified
 414              		.thumb
 415              		.thumb_func
 417              	lv_obj_set_content_width:
 418              	.LVL30:
 419              	.LFB166:
 245:Middlewares/LVGL/GUI/lvgl/src/core/lv_obj_pos.c **** 
 246:Middlewares/LVGL/GUI/lvgl/src/core/lv_obj_pos.c **** void lv_obj_set_content_width(lv_obj_t * obj, lv_coord_t w)
 247:Middlewares/LVGL/GUI/lvgl/src/core/lv_obj_pos.c **** {
 420              		.loc 1 247 1 is_stmt 1 view -0
 421              		.cfi_startproc
 422              		@ args = 0, pretend = 0, frame = 0
 423              		@ frame_needed = 0, uses_anonymous_args = 0
 424              		.loc 1 247 1 is_stmt 0 view .LVU91
ARM GAS  C:\Users\ADMINI~1\AppData\Local\Temp\ccVA75Tx.s 			page 13


 425 0000 F8B5     		push	{r3, r4, r5, r6, r7, lr}
 426              	.LCFI18:
 427              		.cfi_def_cfa_offset 24
 428              		.cfi_offset 3, -24
 429              		.cfi_offset 4, -20
 430              		.cfi_offset 5, -16
 431              		.cfi_offset 6, -12
 432              		.cfi_offset 7, -8
 433              		.cfi_offset 14, -4
 434 0002 0546     		mov	r5, r0
 435 0004 0C46     		mov	r4, r1
 248:Middlewares/LVGL/GUI/lvgl/src/core/lv_obj_pos.c ****     lv_coord_t pleft = lv_obj_get_style_pad_left(obj, LV_PART_MAIN);
 436              		.loc 1 248 5 is_stmt 1 view .LVU92
 437              	.LVL31:
 438              	.LBB190:
 439              	.LBI190:
 440              		.file 2 "Middlewares/LVGL/GUI/lvgl/src/core/lv_obj_style_gen.h"
   1:Middlewares/LVGL/GUI/lvgl/src/core/lv_obj_style_gen.h **** static inline lv_coord_t lv_obj_get_style_width(const struct _lv_obj_t * obj, uint32_t part)
   2:Middlewares/LVGL/GUI/lvgl/src/core/lv_obj_style_gen.h **** {
   3:Middlewares/LVGL/GUI/lvgl/src/core/lv_obj_style_gen.h ****     lv_style_value_t v = lv_obj_get_style_prop(obj, part, LV_STYLE_WIDTH);
   4:Middlewares/LVGL/GUI/lvgl/src/core/lv_obj_style_gen.h ****     return (lv_coord_t)v.num;
   5:Middlewares/LVGL/GUI/lvgl/src/core/lv_obj_style_gen.h **** }
   6:Middlewares/LVGL/GUI/lvgl/src/core/lv_obj_style_gen.h **** 
   7:Middlewares/LVGL/GUI/lvgl/src/core/lv_obj_style_gen.h **** static inline lv_coord_t lv_obj_get_style_min_width(const struct _lv_obj_t * obj, uint32_t part)
   8:Middlewares/LVGL/GUI/lvgl/src/core/lv_obj_style_gen.h **** {
   9:Middlewares/LVGL/GUI/lvgl/src/core/lv_obj_style_gen.h ****     lv_style_value_t v = lv_obj_get_style_prop(obj, part, LV_STYLE_MIN_WIDTH);
  10:Middlewares/LVGL/GUI/lvgl/src/core/lv_obj_style_gen.h ****     return (lv_coord_t)v.num;
  11:Middlewares/LVGL/GUI/lvgl/src/core/lv_obj_style_gen.h **** }
  12:Middlewares/LVGL/GUI/lvgl/src/core/lv_obj_style_gen.h **** 
  13:Middlewares/LVGL/GUI/lvgl/src/core/lv_obj_style_gen.h **** static inline lv_coord_t lv_obj_get_style_max_width(const struct _lv_obj_t * obj, uint32_t part)
  14:Middlewares/LVGL/GUI/lvgl/src/core/lv_obj_style_gen.h **** {
  15:Middlewares/LVGL/GUI/lvgl/src/core/lv_obj_style_gen.h ****     lv_style_value_t v = lv_obj_get_style_prop(obj, part, LV_STYLE_MAX_WIDTH);
  16:Middlewares/LVGL/GUI/lvgl/src/core/lv_obj_style_gen.h ****     return (lv_coord_t)v.num;
  17:Middlewares/LVGL/GUI/lvgl/src/core/lv_obj_style_gen.h **** }
  18:Middlewares/LVGL/GUI/lvgl/src/core/lv_obj_style_gen.h **** 
  19:Middlewares/LVGL/GUI/lvgl/src/core/lv_obj_style_gen.h **** static inline lv_coord_t lv_obj_get_style_height(const struct _lv_obj_t * obj, uint32_t part)
  20:Middlewares/LVGL/GUI/lvgl/src/core/lv_obj_style_gen.h **** {
  21:Middlewares/LVGL/GUI/lvgl/src/core/lv_obj_style_gen.h ****     lv_style_value_t v = lv_obj_get_style_prop(obj, part, LV_STYLE_HEIGHT);
  22:Middlewares/LVGL/GUI/lvgl/src/core/lv_obj_style_gen.h ****     return (lv_coord_t)v.num;
  23:Middlewares/LVGL/GUI/lvgl/src/core/lv_obj_style_gen.h **** }
  24:Middlewares/LVGL/GUI/lvgl/src/core/lv_obj_style_gen.h **** 
  25:Middlewares/LVGL/GUI/lvgl/src/core/lv_obj_style_gen.h **** static inline lv_coord_t lv_obj_get_style_min_height(const struct _lv_obj_t * obj, uint32_t part)
  26:Middlewares/LVGL/GUI/lvgl/src/core/lv_obj_style_gen.h **** {
  27:Middlewares/LVGL/GUI/lvgl/src/core/lv_obj_style_gen.h ****     lv_style_value_t v = lv_obj_get_style_prop(obj, part, LV_STYLE_MIN_HEIGHT);
  28:Middlewares/LVGL/GUI/lvgl/src/core/lv_obj_style_gen.h ****     return (lv_coord_t)v.num;
  29:Middlewares/LVGL/GUI/lvgl/src/core/lv_obj_style_gen.h **** }
  30:Middlewares/LVGL/GUI/lvgl/src/core/lv_obj_style_gen.h **** 
  31:Middlewares/LVGL/GUI/lvgl/src/core/lv_obj_style_gen.h **** static inline lv_coord_t lv_obj_get_style_max_height(const struct _lv_obj_t * obj, uint32_t part)
  32:Middlewares/LVGL/GUI/lvgl/src/core/lv_obj_style_gen.h **** {
  33:Middlewares/LVGL/GUI/lvgl/src/core/lv_obj_style_gen.h ****     lv_style_value_t v = lv_obj_get_style_prop(obj, part, LV_STYLE_MAX_HEIGHT);
  34:Middlewares/LVGL/GUI/lvgl/src/core/lv_obj_style_gen.h ****     return (lv_coord_t)v.num;
  35:Middlewares/LVGL/GUI/lvgl/src/core/lv_obj_style_gen.h **** }
  36:Middlewares/LVGL/GUI/lvgl/src/core/lv_obj_style_gen.h **** 
  37:Middlewares/LVGL/GUI/lvgl/src/core/lv_obj_style_gen.h **** static inline lv_coord_t lv_obj_get_style_x(const struct _lv_obj_t * obj, uint32_t part)
  38:Middlewares/LVGL/GUI/lvgl/src/core/lv_obj_style_gen.h **** {
  39:Middlewares/LVGL/GUI/lvgl/src/core/lv_obj_style_gen.h ****     lv_style_value_t v = lv_obj_get_style_prop(obj, part, LV_STYLE_X);
  40:Middlewares/LVGL/GUI/lvgl/src/core/lv_obj_style_gen.h ****     return (lv_coord_t)v.num;
ARM GAS  C:\Users\ADMINI~1\AppData\Local\Temp\ccVA75Tx.s 			page 14


  41:Middlewares/LVGL/GUI/lvgl/src/core/lv_obj_style_gen.h **** }
  42:Middlewares/LVGL/GUI/lvgl/src/core/lv_obj_style_gen.h **** 
  43:Middlewares/LVGL/GUI/lvgl/src/core/lv_obj_style_gen.h **** static inline lv_coord_t lv_obj_get_style_y(const struct _lv_obj_t * obj, uint32_t part)
  44:Middlewares/LVGL/GUI/lvgl/src/core/lv_obj_style_gen.h **** {
  45:Middlewares/LVGL/GUI/lvgl/src/core/lv_obj_style_gen.h ****     lv_style_value_t v = lv_obj_get_style_prop(obj, part, LV_STYLE_Y);
  46:Middlewares/LVGL/GUI/lvgl/src/core/lv_obj_style_gen.h ****     return (lv_coord_t)v.num;
  47:Middlewares/LVGL/GUI/lvgl/src/core/lv_obj_style_gen.h **** }
  48:Middlewares/LVGL/GUI/lvgl/src/core/lv_obj_style_gen.h **** 
  49:Middlewares/LVGL/GUI/lvgl/src/core/lv_obj_style_gen.h **** static inline lv_align_t lv_obj_get_style_align(const struct _lv_obj_t * obj, uint32_t part)
  50:Middlewares/LVGL/GUI/lvgl/src/core/lv_obj_style_gen.h **** {
  51:Middlewares/LVGL/GUI/lvgl/src/core/lv_obj_style_gen.h ****     lv_style_value_t v = lv_obj_get_style_prop(obj, part, LV_STYLE_ALIGN);
  52:Middlewares/LVGL/GUI/lvgl/src/core/lv_obj_style_gen.h ****     return (lv_align_t)v.num;
  53:Middlewares/LVGL/GUI/lvgl/src/core/lv_obj_style_gen.h **** }
  54:Middlewares/LVGL/GUI/lvgl/src/core/lv_obj_style_gen.h **** 
  55:Middlewares/LVGL/GUI/lvgl/src/core/lv_obj_style_gen.h **** static inline lv_coord_t lv_obj_get_style_transform_width(const struct _lv_obj_t * obj, uint32_t pa
  56:Middlewares/LVGL/GUI/lvgl/src/core/lv_obj_style_gen.h **** {
  57:Middlewares/LVGL/GUI/lvgl/src/core/lv_obj_style_gen.h ****     lv_style_value_t v = lv_obj_get_style_prop(obj, part, LV_STYLE_TRANSFORM_WIDTH);
  58:Middlewares/LVGL/GUI/lvgl/src/core/lv_obj_style_gen.h ****     return (lv_coord_t)v.num;
  59:Middlewares/LVGL/GUI/lvgl/src/core/lv_obj_style_gen.h **** }
  60:Middlewares/LVGL/GUI/lvgl/src/core/lv_obj_style_gen.h **** 
  61:Middlewares/LVGL/GUI/lvgl/src/core/lv_obj_style_gen.h **** static inline lv_coord_t lv_obj_get_style_transform_height(const struct _lv_obj_t * obj, uint32_t p
  62:Middlewares/LVGL/GUI/lvgl/src/core/lv_obj_style_gen.h **** {
  63:Middlewares/LVGL/GUI/lvgl/src/core/lv_obj_style_gen.h ****     lv_style_value_t v = lv_obj_get_style_prop(obj, part, LV_STYLE_TRANSFORM_HEIGHT);
  64:Middlewares/LVGL/GUI/lvgl/src/core/lv_obj_style_gen.h ****     return (lv_coord_t)v.num;
  65:Middlewares/LVGL/GUI/lvgl/src/core/lv_obj_style_gen.h **** }
  66:Middlewares/LVGL/GUI/lvgl/src/core/lv_obj_style_gen.h **** 
  67:Middlewares/LVGL/GUI/lvgl/src/core/lv_obj_style_gen.h **** static inline lv_coord_t lv_obj_get_style_translate_x(const struct _lv_obj_t * obj, uint32_t part)
  68:Middlewares/LVGL/GUI/lvgl/src/core/lv_obj_style_gen.h **** {
  69:Middlewares/LVGL/GUI/lvgl/src/core/lv_obj_style_gen.h ****     lv_style_value_t v = lv_obj_get_style_prop(obj, part, LV_STYLE_TRANSLATE_X);
  70:Middlewares/LVGL/GUI/lvgl/src/core/lv_obj_style_gen.h ****     return (lv_coord_t)v.num;
  71:Middlewares/LVGL/GUI/lvgl/src/core/lv_obj_style_gen.h **** }
  72:Middlewares/LVGL/GUI/lvgl/src/core/lv_obj_style_gen.h **** 
  73:Middlewares/LVGL/GUI/lvgl/src/core/lv_obj_style_gen.h **** static inline lv_coord_t lv_obj_get_style_translate_y(const struct _lv_obj_t * obj, uint32_t part)
  74:Middlewares/LVGL/GUI/lvgl/src/core/lv_obj_style_gen.h **** {
  75:Middlewares/LVGL/GUI/lvgl/src/core/lv_obj_style_gen.h ****     lv_style_value_t v = lv_obj_get_style_prop(obj, part, LV_STYLE_TRANSLATE_Y);
  76:Middlewares/LVGL/GUI/lvgl/src/core/lv_obj_style_gen.h ****     return (lv_coord_t)v.num;
  77:Middlewares/LVGL/GUI/lvgl/src/core/lv_obj_style_gen.h **** }
  78:Middlewares/LVGL/GUI/lvgl/src/core/lv_obj_style_gen.h **** 
  79:Middlewares/LVGL/GUI/lvgl/src/core/lv_obj_style_gen.h **** static inline lv_coord_t lv_obj_get_style_transform_zoom(const struct _lv_obj_t * obj, uint32_t par
  80:Middlewares/LVGL/GUI/lvgl/src/core/lv_obj_style_gen.h **** {
  81:Middlewares/LVGL/GUI/lvgl/src/core/lv_obj_style_gen.h ****     lv_style_value_t v = lv_obj_get_style_prop(obj, part, LV_STYLE_TRANSFORM_ZOOM);
  82:Middlewares/LVGL/GUI/lvgl/src/core/lv_obj_style_gen.h ****     return (lv_coord_t)v.num;
  83:Middlewares/LVGL/GUI/lvgl/src/core/lv_obj_style_gen.h **** }
  84:Middlewares/LVGL/GUI/lvgl/src/core/lv_obj_style_gen.h **** 
  85:Middlewares/LVGL/GUI/lvgl/src/core/lv_obj_style_gen.h **** static inline lv_coord_t lv_obj_get_style_transform_angle(const struct _lv_obj_t * obj, uint32_t pa
  86:Middlewares/LVGL/GUI/lvgl/src/core/lv_obj_style_gen.h **** {
  87:Middlewares/LVGL/GUI/lvgl/src/core/lv_obj_style_gen.h ****     lv_style_value_t v = lv_obj_get_style_prop(obj, part, LV_STYLE_TRANSFORM_ANGLE);
  88:Middlewares/LVGL/GUI/lvgl/src/core/lv_obj_style_gen.h ****     return (lv_coord_t)v.num;
  89:Middlewares/LVGL/GUI/lvgl/src/core/lv_obj_style_gen.h **** }
  90:Middlewares/LVGL/GUI/lvgl/src/core/lv_obj_style_gen.h **** 
  91:Middlewares/LVGL/GUI/lvgl/src/core/lv_obj_style_gen.h **** static inline lv_coord_t lv_obj_get_style_pad_top(const struct _lv_obj_t * obj, uint32_t part)
  92:Middlewares/LVGL/GUI/lvgl/src/core/lv_obj_style_gen.h **** {
  93:Middlewares/LVGL/GUI/lvgl/src/core/lv_obj_style_gen.h ****     lv_style_value_t v = lv_obj_get_style_prop(obj, part, LV_STYLE_PAD_TOP);
  94:Middlewares/LVGL/GUI/lvgl/src/core/lv_obj_style_gen.h ****     return (lv_coord_t)v.num;
  95:Middlewares/LVGL/GUI/lvgl/src/core/lv_obj_style_gen.h **** }
  96:Middlewares/LVGL/GUI/lvgl/src/core/lv_obj_style_gen.h **** 
  97:Middlewares/LVGL/GUI/lvgl/src/core/lv_obj_style_gen.h **** static inline lv_coord_t lv_obj_get_style_pad_bottom(const struct _lv_obj_t * obj, uint32_t part)
ARM GAS  C:\Users\ADMINI~1\AppData\Local\Temp\ccVA75Tx.s 			page 15


  98:Middlewares/LVGL/GUI/lvgl/src/core/lv_obj_style_gen.h **** {
  99:Middlewares/LVGL/GUI/lvgl/src/core/lv_obj_style_gen.h ****     lv_style_value_t v = lv_obj_get_style_prop(obj, part, LV_STYLE_PAD_BOTTOM);
 100:Middlewares/LVGL/GUI/lvgl/src/core/lv_obj_style_gen.h ****     return (lv_coord_t)v.num;
 101:Middlewares/LVGL/GUI/lvgl/src/core/lv_obj_style_gen.h **** }
 102:Middlewares/LVGL/GUI/lvgl/src/core/lv_obj_style_gen.h **** 
 103:Middlewares/LVGL/GUI/lvgl/src/core/lv_obj_style_gen.h **** static inline lv_coord_t lv_obj_get_style_pad_left(const struct _lv_obj_t * obj, uint32_t part)
 441              		.loc 2 103 26 view .LVU93
 442              	.LBB191:
 104:Middlewares/LVGL/GUI/lvgl/src/core/lv_obj_style_gen.h **** {
 105:Middlewares/LVGL/GUI/lvgl/src/core/lv_obj_style_gen.h ****     lv_style_value_t v = lv_obj_get_style_prop(obj, part, LV_STYLE_PAD_LEFT);
 443              		.loc 2 105 5 view .LVU94
 444              		.loc 2 105 26 is_stmt 0 view .LVU95
 445 0006 41F61202 		movw	r2, #6162
 446 000a 0021     		movs	r1, #0
 447              	.LVL32:
 448              		.loc 2 105 26 view .LVU96
 449 000c FFF7FEFF 		bl	lv_obj_get_style_prop
 450              	.LVL33:
 451              		.loc 2 105 26 view .LVU97
 452 0010 0746     		mov	r7, r0
 453              	.LVL34:
 106:Middlewares/LVGL/GUI/lvgl/src/core/lv_obj_style_gen.h ****     return (lv_coord_t)v.num;
 454              		.loc 2 106 5 is_stmt 1 view .LVU98
 455              		.loc 2 106 5 is_stmt 0 view .LVU99
 456              	.LBE191:
 457              	.LBE190:
 249:Middlewares/LVGL/GUI/lvgl/src/core/lv_obj_pos.c ****     lv_coord_t pright = lv_obj_get_style_pad_right(obj, LV_PART_MAIN);
 458              		.loc 1 249 5 is_stmt 1 view .LVU100
 459              	.LBB192:
 460              	.LBI192:
 107:Middlewares/LVGL/GUI/lvgl/src/core/lv_obj_style_gen.h **** }
 108:Middlewares/LVGL/GUI/lvgl/src/core/lv_obj_style_gen.h **** 
 109:Middlewares/LVGL/GUI/lvgl/src/core/lv_obj_style_gen.h **** static inline lv_coord_t lv_obj_get_style_pad_right(const struct _lv_obj_t * obj, uint32_t part)
 461              		.loc 2 109 26 view .LVU101
 462              	.LBB193:
 110:Middlewares/LVGL/GUI/lvgl/src/core/lv_obj_style_gen.h **** {
 111:Middlewares/LVGL/GUI/lvgl/src/core/lv_obj_style_gen.h ****     lv_style_value_t v = lv_obj_get_style_prop(obj, part, LV_STYLE_PAD_RIGHT);
 463              		.loc 2 111 5 view .LVU102
 464              		.loc 2 111 26 is_stmt 0 view .LVU103
 465 0012 41F61302 		movw	r2, #6163
 466 0016 0021     		movs	r1, #0
 467 0018 2846     		mov	r0, r5
 468              	.LVL35:
 469              		.loc 2 111 26 view .LVU104
 470 001a FFF7FEFF 		bl	lv_obj_get_style_prop
 471              	.LVL36:
 472 001e 0646     		mov	r6, r0
 473              	.LVL37:
 112:Middlewares/LVGL/GUI/lvgl/src/core/lv_obj_style_gen.h ****     return (lv_coord_t)v.num;
 474              		.loc 2 112 5 is_stmt 1 view .LVU105
 475              		.loc 2 112 5 is_stmt 0 view .LVU106
 476              	.LBE193:
 477              	.LBE192:
 250:Middlewares/LVGL/GUI/lvgl/src/core/lv_obj_pos.c ****     lv_coord_t border_width = lv_obj_get_style_border_width(obj, LV_PART_MAIN);
 478              		.loc 1 250 5 is_stmt 1 view .LVU107
 479              	.LBB194:
 480              	.LBI194:
ARM GAS  C:\Users\ADMINI~1\AppData\Local\Temp\ccVA75Tx.s 			page 16


 113:Middlewares/LVGL/GUI/lvgl/src/core/lv_obj_style_gen.h **** }
 114:Middlewares/LVGL/GUI/lvgl/src/core/lv_obj_style_gen.h **** 
 115:Middlewares/LVGL/GUI/lvgl/src/core/lv_obj_style_gen.h **** static inline lv_coord_t lv_obj_get_style_pad_row(const struct _lv_obj_t * obj, uint32_t part)
 116:Middlewares/LVGL/GUI/lvgl/src/core/lv_obj_style_gen.h **** {
 117:Middlewares/LVGL/GUI/lvgl/src/core/lv_obj_style_gen.h ****     lv_style_value_t v = lv_obj_get_style_prop(obj, part, LV_STYLE_PAD_ROW);
 118:Middlewares/LVGL/GUI/lvgl/src/core/lv_obj_style_gen.h ****     return (lv_coord_t)v.num;
 119:Middlewares/LVGL/GUI/lvgl/src/core/lv_obj_style_gen.h **** }
 120:Middlewares/LVGL/GUI/lvgl/src/core/lv_obj_style_gen.h **** 
 121:Middlewares/LVGL/GUI/lvgl/src/core/lv_obj_style_gen.h **** static inline lv_coord_t lv_obj_get_style_pad_column(const struct _lv_obj_t * obj, uint32_t part)
 122:Middlewares/LVGL/GUI/lvgl/src/core/lv_obj_style_gen.h **** {
 123:Middlewares/LVGL/GUI/lvgl/src/core/lv_obj_style_gen.h ****     lv_style_value_t v = lv_obj_get_style_prop(obj, part, LV_STYLE_PAD_COLUMN);
 124:Middlewares/LVGL/GUI/lvgl/src/core/lv_obj_style_gen.h ****     return (lv_coord_t)v.num;
 125:Middlewares/LVGL/GUI/lvgl/src/core/lv_obj_style_gen.h **** }
 126:Middlewares/LVGL/GUI/lvgl/src/core/lv_obj_style_gen.h **** 
 127:Middlewares/LVGL/GUI/lvgl/src/core/lv_obj_style_gen.h **** static inline lv_color_t lv_obj_get_style_bg_color(const struct _lv_obj_t * obj, uint32_t part)
 128:Middlewares/LVGL/GUI/lvgl/src/core/lv_obj_style_gen.h **** {
 129:Middlewares/LVGL/GUI/lvgl/src/core/lv_obj_style_gen.h ****     lv_style_value_t v = lv_obj_get_style_prop(obj, part, LV_STYLE_BG_COLOR);
 130:Middlewares/LVGL/GUI/lvgl/src/core/lv_obj_style_gen.h ****     return v.color;
 131:Middlewares/LVGL/GUI/lvgl/src/core/lv_obj_style_gen.h **** }
 132:Middlewares/LVGL/GUI/lvgl/src/core/lv_obj_style_gen.h **** 
 133:Middlewares/LVGL/GUI/lvgl/src/core/lv_obj_style_gen.h **** static inline lv_color_t lv_obj_get_style_bg_color_filtered(const struct _lv_obj_t * obj, uint32_t 
 134:Middlewares/LVGL/GUI/lvgl/src/core/lv_obj_style_gen.h **** {
 135:Middlewares/LVGL/GUI/lvgl/src/core/lv_obj_style_gen.h ****     lv_style_value_t v = lv_obj_get_style_prop(obj, part, LV_STYLE_BG_COLOR_FILTERED);
 136:Middlewares/LVGL/GUI/lvgl/src/core/lv_obj_style_gen.h ****     return v.color;
 137:Middlewares/LVGL/GUI/lvgl/src/core/lv_obj_style_gen.h **** }
 138:Middlewares/LVGL/GUI/lvgl/src/core/lv_obj_style_gen.h **** 
 139:Middlewares/LVGL/GUI/lvgl/src/core/lv_obj_style_gen.h **** static inline lv_opa_t lv_obj_get_style_bg_opa(const struct _lv_obj_t * obj, uint32_t part)
 140:Middlewares/LVGL/GUI/lvgl/src/core/lv_obj_style_gen.h **** {
 141:Middlewares/LVGL/GUI/lvgl/src/core/lv_obj_style_gen.h ****     lv_style_value_t v = lv_obj_get_style_prop(obj, part, LV_STYLE_BG_OPA);
 142:Middlewares/LVGL/GUI/lvgl/src/core/lv_obj_style_gen.h ****     return (lv_opa_t)v.num;
 143:Middlewares/LVGL/GUI/lvgl/src/core/lv_obj_style_gen.h **** }
 144:Middlewares/LVGL/GUI/lvgl/src/core/lv_obj_style_gen.h **** 
 145:Middlewares/LVGL/GUI/lvgl/src/core/lv_obj_style_gen.h **** static inline lv_color_t lv_obj_get_style_bg_grad_color(const struct _lv_obj_t * obj, uint32_t part
 146:Middlewares/LVGL/GUI/lvgl/src/core/lv_obj_style_gen.h **** {
 147:Middlewares/LVGL/GUI/lvgl/src/core/lv_obj_style_gen.h ****     lv_style_value_t v = lv_obj_get_style_prop(obj, part, LV_STYLE_BG_GRAD_COLOR);
 148:Middlewares/LVGL/GUI/lvgl/src/core/lv_obj_style_gen.h ****     return v.color;
 149:Middlewares/LVGL/GUI/lvgl/src/core/lv_obj_style_gen.h **** }
 150:Middlewares/LVGL/GUI/lvgl/src/core/lv_obj_style_gen.h **** 
 151:Middlewares/LVGL/GUI/lvgl/src/core/lv_obj_style_gen.h **** static inline lv_color_t lv_obj_get_style_bg_grad_color_filtered(const struct _lv_obj_t * obj, uint
 152:Middlewares/LVGL/GUI/lvgl/src/core/lv_obj_style_gen.h **** {
 153:Middlewares/LVGL/GUI/lvgl/src/core/lv_obj_style_gen.h ****     lv_style_value_t v = lv_obj_get_style_prop(obj, part, LV_STYLE_BG_GRAD_COLOR_FILTERED);
 154:Middlewares/LVGL/GUI/lvgl/src/core/lv_obj_style_gen.h ****     return v.color;
 155:Middlewares/LVGL/GUI/lvgl/src/core/lv_obj_style_gen.h **** }
 156:Middlewares/LVGL/GUI/lvgl/src/core/lv_obj_style_gen.h **** 
 157:Middlewares/LVGL/GUI/lvgl/src/core/lv_obj_style_gen.h **** static inline lv_grad_dir_t lv_obj_get_style_bg_grad_dir(const struct _lv_obj_t * obj, uint32_t par
 158:Middlewares/LVGL/GUI/lvgl/src/core/lv_obj_style_gen.h **** {
 159:Middlewares/LVGL/GUI/lvgl/src/core/lv_obj_style_gen.h ****     lv_style_value_t v = lv_obj_get_style_prop(obj, part, LV_STYLE_BG_GRAD_DIR);
 160:Middlewares/LVGL/GUI/lvgl/src/core/lv_obj_style_gen.h ****     return (lv_grad_dir_t)v.num;
 161:Middlewares/LVGL/GUI/lvgl/src/core/lv_obj_style_gen.h **** }
 162:Middlewares/LVGL/GUI/lvgl/src/core/lv_obj_style_gen.h **** 
 163:Middlewares/LVGL/GUI/lvgl/src/core/lv_obj_style_gen.h **** static inline lv_coord_t lv_obj_get_style_bg_main_stop(const struct _lv_obj_t * obj, uint32_t part)
 164:Middlewares/LVGL/GUI/lvgl/src/core/lv_obj_style_gen.h **** {
 165:Middlewares/LVGL/GUI/lvgl/src/core/lv_obj_style_gen.h ****     lv_style_value_t v = lv_obj_get_style_prop(obj, part, LV_STYLE_BG_MAIN_STOP);
 166:Middlewares/LVGL/GUI/lvgl/src/core/lv_obj_style_gen.h ****     return (lv_coord_t)v.num;
 167:Middlewares/LVGL/GUI/lvgl/src/core/lv_obj_style_gen.h **** }
 168:Middlewares/LVGL/GUI/lvgl/src/core/lv_obj_style_gen.h **** 
 169:Middlewares/LVGL/GUI/lvgl/src/core/lv_obj_style_gen.h **** static inline lv_coord_t lv_obj_get_style_bg_grad_stop(const struct _lv_obj_t * obj, uint32_t part)
ARM GAS  C:\Users\ADMINI~1\AppData\Local\Temp\ccVA75Tx.s 			page 17


 170:Middlewares/LVGL/GUI/lvgl/src/core/lv_obj_style_gen.h **** {
 171:Middlewares/LVGL/GUI/lvgl/src/core/lv_obj_style_gen.h ****     lv_style_value_t v = lv_obj_get_style_prop(obj, part, LV_STYLE_BG_GRAD_STOP);
 172:Middlewares/LVGL/GUI/lvgl/src/core/lv_obj_style_gen.h ****     return (lv_coord_t)v.num;
 173:Middlewares/LVGL/GUI/lvgl/src/core/lv_obj_style_gen.h **** }
 174:Middlewares/LVGL/GUI/lvgl/src/core/lv_obj_style_gen.h **** 
 175:Middlewares/LVGL/GUI/lvgl/src/core/lv_obj_style_gen.h **** static inline const lv_grad_dsc_t * lv_obj_get_style_bg_grad(const struct _lv_obj_t * obj, uint32_t
 176:Middlewares/LVGL/GUI/lvgl/src/core/lv_obj_style_gen.h **** {
 177:Middlewares/LVGL/GUI/lvgl/src/core/lv_obj_style_gen.h ****     lv_style_value_t v = lv_obj_get_style_prop(obj, part, LV_STYLE_BG_GRAD);
 178:Middlewares/LVGL/GUI/lvgl/src/core/lv_obj_style_gen.h ****     return (const lv_grad_dsc_t *)v.ptr;
 179:Middlewares/LVGL/GUI/lvgl/src/core/lv_obj_style_gen.h **** }
 180:Middlewares/LVGL/GUI/lvgl/src/core/lv_obj_style_gen.h **** 
 181:Middlewares/LVGL/GUI/lvgl/src/core/lv_obj_style_gen.h **** static inline lv_dither_mode_t lv_obj_get_style_bg_dither_mode(const struct _lv_obj_t * obj, uint32
 182:Middlewares/LVGL/GUI/lvgl/src/core/lv_obj_style_gen.h **** {
 183:Middlewares/LVGL/GUI/lvgl/src/core/lv_obj_style_gen.h ****     lv_style_value_t v = lv_obj_get_style_prop(obj, part, LV_STYLE_BG_DITHER_MODE);
 184:Middlewares/LVGL/GUI/lvgl/src/core/lv_obj_style_gen.h ****     return (lv_dither_mode_t)v.num;
 185:Middlewares/LVGL/GUI/lvgl/src/core/lv_obj_style_gen.h **** }
 186:Middlewares/LVGL/GUI/lvgl/src/core/lv_obj_style_gen.h **** 
 187:Middlewares/LVGL/GUI/lvgl/src/core/lv_obj_style_gen.h **** static inline const void * lv_obj_get_style_bg_img_src(const struct _lv_obj_t * obj, uint32_t part)
 188:Middlewares/LVGL/GUI/lvgl/src/core/lv_obj_style_gen.h **** {
 189:Middlewares/LVGL/GUI/lvgl/src/core/lv_obj_style_gen.h ****     lv_style_value_t v = lv_obj_get_style_prop(obj, part, LV_STYLE_BG_IMG_SRC);
 190:Middlewares/LVGL/GUI/lvgl/src/core/lv_obj_style_gen.h ****     return (const void *)v.ptr;
 191:Middlewares/LVGL/GUI/lvgl/src/core/lv_obj_style_gen.h **** }
 192:Middlewares/LVGL/GUI/lvgl/src/core/lv_obj_style_gen.h **** 
 193:Middlewares/LVGL/GUI/lvgl/src/core/lv_obj_style_gen.h **** static inline lv_opa_t lv_obj_get_style_bg_img_opa(const struct _lv_obj_t * obj, uint32_t part)
 194:Middlewares/LVGL/GUI/lvgl/src/core/lv_obj_style_gen.h **** {
 195:Middlewares/LVGL/GUI/lvgl/src/core/lv_obj_style_gen.h ****     lv_style_value_t v = lv_obj_get_style_prop(obj, part, LV_STYLE_BG_IMG_OPA);
 196:Middlewares/LVGL/GUI/lvgl/src/core/lv_obj_style_gen.h ****     return (lv_opa_t)v.num;
 197:Middlewares/LVGL/GUI/lvgl/src/core/lv_obj_style_gen.h **** }
 198:Middlewares/LVGL/GUI/lvgl/src/core/lv_obj_style_gen.h **** 
 199:Middlewares/LVGL/GUI/lvgl/src/core/lv_obj_style_gen.h **** static inline lv_color_t lv_obj_get_style_bg_img_recolor(const struct _lv_obj_t * obj, uint32_t par
 200:Middlewares/LVGL/GUI/lvgl/src/core/lv_obj_style_gen.h **** {
 201:Middlewares/LVGL/GUI/lvgl/src/core/lv_obj_style_gen.h ****     lv_style_value_t v = lv_obj_get_style_prop(obj, part, LV_STYLE_BG_IMG_RECOLOR);
 202:Middlewares/LVGL/GUI/lvgl/src/core/lv_obj_style_gen.h ****     return v.color;
 203:Middlewares/LVGL/GUI/lvgl/src/core/lv_obj_style_gen.h **** }
 204:Middlewares/LVGL/GUI/lvgl/src/core/lv_obj_style_gen.h **** 
 205:Middlewares/LVGL/GUI/lvgl/src/core/lv_obj_style_gen.h **** static inline lv_color_t lv_obj_get_style_bg_img_recolor_filtered(const struct _lv_obj_t * obj, uin
 206:Middlewares/LVGL/GUI/lvgl/src/core/lv_obj_style_gen.h **** {
 207:Middlewares/LVGL/GUI/lvgl/src/core/lv_obj_style_gen.h ****     lv_style_value_t v = lv_obj_get_style_prop(obj, part, LV_STYLE_BG_IMG_RECOLOR_FILTERED);
 208:Middlewares/LVGL/GUI/lvgl/src/core/lv_obj_style_gen.h ****     return v.color;
 209:Middlewares/LVGL/GUI/lvgl/src/core/lv_obj_style_gen.h **** }
 210:Middlewares/LVGL/GUI/lvgl/src/core/lv_obj_style_gen.h **** 
 211:Middlewares/LVGL/GUI/lvgl/src/core/lv_obj_style_gen.h **** static inline lv_opa_t lv_obj_get_style_bg_img_recolor_opa(const struct _lv_obj_t * obj, uint32_t p
 212:Middlewares/LVGL/GUI/lvgl/src/core/lv_obj_style_gen.h **** {
 213:Middlewares/LVGL/GUI/lvgl/src/core/lv_obj_style_gen.h ****     lv_style_value_t v = lv_obj_get_style_prop(obj, part, LV_STYLE_BG_IMG_RECOLOR_OPA);
 214:Middlewares/LVGL/GUI/lvgl/src/core/lv_obj_style_gen.h ****     return (lv_opa_t)v.num;
 215:Middlewares/LVGL/GUI/lvgl/src/core/lv_obj_style_gen.h **** }
 216:Middlewares/LVGL/GUI/lvgl/src/core/lv_obj_style_gen.h **** 
 217:Middlewares/LVGL/GUI/lvgl/src/core/lv_obj_style_gen.h **** static inline bool lv_obj_get_style_bg_img_tiled(const struct _lv_obj_t * obj, uint32_t part)
 218:Middlewares/LVGL/GUI/lvgl/src/core/lv_obj_style_gen.h **** {
 219:Middlewares/LVGL/GUI/lvgl/src/core/lv_obj_style_gen.h ****     lv_style_value_t v = lv_obj_get_style_prop(obj, part, LV_STYLE_BG_IMG_TILED);
 220:Middlewares/LVGL/GUI/lvgl/src/core/lv_obj_style_gen.h ****     return (bool)v.num;
 221:Middlewares/LVGL/GUI/lvgl/src/core/lv_obj_style_gen.h **** }
 222:Middlewares/LVGL/GUI/lvgl/src/core/lv_obj_style_gen.h **** 
 223:Middlewares/LVGL/GUI/lvgl/src/core/lv_obj_style_gen.h **** static inline lv_color_t lv_obj_get_style_border_color(const struct _lv_obj_t * obj, uint32_t part)
 224:Middlewares/LVGL/GUI/lvgl/src/core/lv_obj_style_gen.h **** {
 225:Middlewares/LVGL/GUI/lvgl/src/core/lv_obj_style_gen.h ****     lv_style_value_t v = lv_obj_get_style_prop(obj, part, LV_STYLE_BORDER_COLOR);
 226:Middlewares/LVGL/GUI/lvgl/src/core/lv_obj_style_gen.h ****     return v.color;
ARM GAS  C:\Users\ADMINI~1\AppData\Local\Temp\ccVA75Tx.s 			page 18


 227:Middlewares/LVGL/GUI/lvgl/src/core/lv_obj_style_gen.h **** }
 228:Middlewares/LVGL/GUI/lvgl/src/core/lv_obj_style_gen.h **** 
 229:Middlewares/LVGL/GUI/lvgl/src/core/lv_obj_style_gen.h **** static inline lv_color_t lv_obj_get_style_border_color_filtered(const struct _lv_obj_t * obj, uint3
 230:Middlewares/LVGL/GUI/lvgl/src/core/lv_obj_style_gen.h **** {
 231:Middlewares/LVGL/GUI/lvgl/src/core/lv_obj_style_gen.h ****     lv_style_value_t v = lv_obj_get_style_prop(obj, part, LV_STYLE_BORDER_COLOR_FILTERED);
 232:Middlewares/LVGL/GUI/lvgl/src/core/lv_obj_style_gen.h ****     return v.color;
 233:Middlewares/LVGL/GUI/lvgl/src/core/lv_obj_style_gen.h **** }
 234:Middlewares/LVGL/GUI/lvgl/src/core/lv_obj_style_gen.h **** 
 235:Middlewares/LVGL/GUI/lvgl/src/core/lv_obj_style_gen.h **** static inline lv_opa_t lv_obj_get_style_border_opa(const struct _lv_obj_t * obj, uint32_t part)
 236:Middlewares/LVGL/GUI/lvgl/src/core/lv_obj_style_gen.h **** {
 237:Middlewares/LVGL/GUI/lvgl/src/core/lv_obj_style_gen.h ****     lv_style_value_t v = lv_obj_get_style_prop(obj, part, LV_STYLE_BORDER_OPA);
 238:Middlewares/LVGL/GUI/lvgl/src/core/lv_obj_style_gen.h ****     return (lv_opa_t)v.num;
 239:Middlewares/LVGL/GUI/lvgl/src/core/lv_obj_style_gen.h **** }
 240:Middlewares/LVGL/GUI/lvgl/src/core/lv_obj_style_gen.h **** 
 241:Middlewares/LVGL/GUI/lvgl/src/core/lv_obj_style_gen.h **** static inline lv_coord_t lv_obj_get_style_border_width(const struct _lv_obj_t * obj, uint32_t part)
 481              		.loc 2 241 26 view .LVU108
 482              	.LBB195:
 242:Middlewares/LVGL/GUI/lvgl/src/core/lv_obj_style_gen.h **** {
 243:Middlewares/LVGL/GUI/lvgl/src/core/lv_obj_style_gen.h ****     lv_style_value_t v = lv_obj_get_style_prop(obj, part, LV_STYLE_BORDER_WIDTH);
 483              		.loc 2 243 5 view .LVU109
 484              		.loc 2 243 26 is_stmt 0 view .LVU110
 485 0020 41F23202 		movw	r2, #4146
 486 0024 0021     		movs	r1, #0
 487 0026 2846     		mov	r0, r5
 488              	.LVL38:
 489              		.loc 2 243 26 view .LVU111
 490 0028 FFF7FEFF 		bl	lv_obj_get_style_prop
 491              	.LVL39:
 244:Middlewares/LVGL/GUI/lvgl/src/core/lv_obj_style_gen.h ****     return (lv_coord_t)v.num;
 492              		.loc 2 244 5 is_stmt 1 view .LVU112
 493              		.loc 2 244 5 is_stmt 0 view .LVU113
 494              	.LBE195:
 495              	.LBE194:
 251:Middlewares/LVGL/GUI/lvgl/src/core/lv_obj_pos.c **** 
 252:Middlewares/LVGL/GUI/lvgl/src/core/lv_obj_pos.c ****     lv_obj_set_width(obj, w + pleft + pright + 2 * border_width);
 496              		.loc 1 252 5 is_stmt 1 view .LVU114
 497              		.loc 1 252 29 is_stmt 0 view .LVU115
 498 002c 3C44     		add	r4, r4, r7
 499              	.LVL40:
 500              		.loc 1 252 37 view .LVU116
 501 002e 3444     		add	r4, r4, r6
 502              		.loc 1 252 5 view .LVU117
 503 0030 04EB4001 		add	r1, r4, r0, lsl #1
 504 0034 2846     		mov	r0, r5
 505              	.LVL41:
 506              		.loc 1 252 5 view .LVU118
 507 0036 FFF7FEFF 		bl	lv_obj_set_width
 508              	.LVL42:
 253:Middlewares/LVGL/GUI/lvgl/src/core/lv_obj_pos.c **** }
 509              		.loc 1 253 1 view .LVU119
 510 003a F8BD     		pop	{r3, r4, r5, r6, r7, pc}
 511              		.loc 1 253 1 view .LVU120
 512              		.cfi_endproc
 513              	.LFE166:
 515              		.section	.text.lv_obj_set_content_height,"ax",%progbits
 516              		.align	1
 517              		.global	lv_obj_set_content_height
ARM GAS  C:\Users\ADMINI~1\AppData\Local\Temp\ccVA75Tx.s 			page 19


 518              		.syntax unified
 519              		.thumb
 520              		.thumb_func
 522              	lv_obj_set_content_height:
 523              	.LVL43:
 524              	.LFB167:
 254:Middlewares/LVGL/GUI/lvgl/src/core/lv_obj_pos.c **** 
 255:Middlewares/LVGL/GUI/lvgl/src/core/lv_obj_pos.c **** void lv_obj_set_content_height(lv_obj_t * obj, lv_coord_t h)
 256:Middlewares/LVGL/GUI/lvgl/src/core/lv_obj_pos.c **** {
 525              		.loc 1 256 1 is_stmt 1 view -0
 526              		.cfi_startproc
 527              		@ args = 0, pretend = 0, frame = 0
 528              		@ frame_needed = 0, uses_anonymous_args = 0
 529              		.loc 1 256 1 is_stmt 0 view .LVU122
 530 0000 F8B5     		push	{r3, r4, r5, r6, r7, lr}
 531              	.LCFI19:
 532              		.cfi_def_cfa_offset 24
 533              		.cfi_offset 3, -24
 534              		.cfi_offset 4, -20
 535              		.cfi_offset 5, -16
 536              		.cfi_offset 6, -12
 537              		.cfi_offset 7, -8
 538              		.cfi_offset 14, -4
 539 0002 0546     		mov	r5, r0
 540 0004 0C46     		mov	r4, r1
 257:Middlewares/LVGL/GUI/lvgl/src/core/lv_obj_pos.c ****     lv_coord_t ptop = lv_obj_get_style_pad_top(obj, LV_PART_MAIN);
 541              		.loc 1 257 5 is_stmt 1 view .LVU123
 542              	.LVL44:
 543              	.LBB196:
 544              	.LBI196:
  91:Middlewares/LVGL/GUI/lvgl/src/core/lv_obj_style_gen.h **** {
 545              		.loc 2 91 26 view .LVU124
 546              	.LBB197:
  93:Middlewares/LVGL/GUI/lvgl/src/core/lv_obj_style_gen.h ****     return (lv_coord_t)v.num;
 547              		.loc 2 93 5 view .LVU125
  93:Middlewares/LVGL/GUI/lvgl/src/core/lv_obj_style_gen.h ****     return (lv_coord_t)v.num;
 548              		.loc 2 93 26 is_stmt 0 view .LVU126
 549 0006 41F61002 		movw	r2, #6160
 550 000a 0021     		movs	r1, #0
 551              	.LVL45:
  93:Middlewares/LVGL/GUI/lvgl/src/core/lv_obj_style_gen.h ****     return (lv_coord_t)v.num;
 552              		.loc 2 93 26 view .LVU127
 553 000c FFF7FEFF 		bl	lv_obj_get_style_prop
 554              	.LVL46:
  93:Middlewares/LVGL/GUI/lvgl/src/core/lv_obj_style_gen.h ****     return (lv_coord_t)v.num;
 555              		.loc 2 93 26 view .LVU128
 556 0010 0746     		mov	r7, r0
 557              	.LVL47:
  94:Middlewares/LVGL/GUI/lvgl/src/core/lv_obj_style_gen.h **** }
 558              		.loc 2 94 5 is_stmt 1 view .LVU129
  94:Middlewares/LVGL/GUI/lvgl/src/core/lv_obj_style_gen.h **** }
 559              		.loc 2 94 5 is_stmt 0 view .LVU130
 560              	.LBE197:
 561              	.LBE196:
 258:Middlewares/LVGL/GUI/lvgl/src/core/lv_obj_pos.c ****     lv_coord_t pbottom = lv_obj_get_style_pad_bottom(obj, LV_PART_MAIN);
 562              		.loc 1 258 5 is_stmt 1 view .LVU131
 563              	.LBB198:
ARM GAS  C:\Users\ADMINI~1\AppData\Local\Temp\ccVA75Tx.s 			page 20


 564              	.LBI198:
  97:Middlewares/LVGL/GUI/lvgl/src/core/lv_obj_style_gen.h **** {
 565              		.loc 2 97 26 view .LVU132
 566              	.LBB199:
  99:Middlewares/LVGL/GUI/lvgl/src/core/lv_obj_style_gen.h ****     return (lv_coord_t)v.num;
 567              		.loc 2 99 5 view .LVU133
  99:Middlewares/LVGL/GUI/lvgl/src/core/lv_obj_style_gen.h ****     return (lv_coord_t)v.num;
 568              		.loc 2 99 26 is_stmt 0 view .LVU134
 569 0012 41F61102 		movw	r2, #6161
 570 0016 0021     		movs	r1, #0
 571 0018 2846     		mov	r0, r5
 572              	.LVL48:
  99:Middlewares/LVGL/GUI/lvgl/src/core/lv_obj_style_gen.h ****     return (lv_coord_t)v.num;
 573              		.loc 2 99 26 view .LVU135
 574 001a FFF7FEFF 		bl	lv_obj_get_style_prop
 575              	.LVL49:
 576 001e 0646     		mov	r6, r0
 577              	.LVL50:
 100:Middlewares/LVGL/GUI/lvgl/src/core/lv_obj_style_gen.h **** }
 578              		.loc 2 100 5 is_stmt 1 view .LVU136
 100:Middlewares/LVGL/GUI/lvgl/src/core/lv_obj_style_gen.h **** }
 579              		.loc 2 100 5 is_stmt 0 view .LVU137
 580              	.LBE199:
 581              	.LBE198:
 259:Middlewares/LVGL/GUI/lvgl/src/core/lv_obj_pos.c ****     lv_coord_t border_width = lv_obj_get_style_border_width(obj, LV_PART_MAIN);
 582              		.loc 1 259 5 is_stmt 1 view .LVU138
 583              	.LBB200:
 584              	.LBI200:
 241:Middlewares/LVGL/GUI/lvgl/src/core/lv_obj_style_gen.h **** {
 585              		.loc 2 241 26 view .LVU139
 586              	.LBB201:
 243:Middlewares/LVGL/GUI/lvgl/src/core/lv_obj_style_gen.h ****     return (lv_coord_t)v.num;
 587              		.loc 2 243 5 view .LVU140
 243:Middlewares/LVGL/GUI/lvgl/src/core/lv_obj_style_gen.h ****     return (lv_coord_t)v.num;
 588              		.loc 2 243 26 is_stmt 0 view .LVU141
 589 0020 41F23202 		movw	r2, #4146
 590 0024 0021     		movs	r1, #0
 591 0026 2846     		mov	r0, r5
 592              	.LVL51:
 243:Middlewares/LVGL/GUI/lvgl/src/core/lv_obj_style_gen.h ****     return (lv_coord_t)v.num;
 593              		.loc 2 243 26 view .LVU142
 594 0028 FFF7FEFF 		bl	lv_obj_get_style_prop
 595              	.LVL52:
 596              		.loc 2 244 5 is_stmt 1 view .LVU143
 597              		.loc 2 244 5 is_stmt 0 view .LVU144
 598              	.LBE201:
 599              	.LBE200:
 260:Middlewares/LVGL/GUI/lvgl/src/core/lv_obj_pos.c **** 
 261:Middlewares/LVGL/GUI/lvgl/src/core/lv_obj_pos.c ****     lv_obj_set_height(obj, h + ptop + pbottom + 2 * border_width);
 600              		.loc 1 261 5 is_stmt 1 view .LVU145
 601              		.loc 1 261 30 is_stmt 0 view .LVU146
 602 002c 3C44     		add	r4, r4, r7
 603              	.LVL53:
 604              		.loc 1 261 37 view .LVU147
 605 002e 3444     		add	r4, r4, r6
 606              		.loc 1 261 5 view .LVU148
 607 0030 04EB4001 		add	r1, r4, r0, lsl #1
ARM GAS  C:\Users\ADMINI~1\AppData\Local\Temp\ccVA75Tx.s 			page 21


 608 0034 2846     		mov	r0, r5
 609              	.LVL54:
 610              		.loc 1 261 5 view .LVU149
 611 0036 FFF7FEFF 		bl	lv_obj_set_height
 612              	.LVL55:
 262:Middlewares/LVGL/GUI/lvgl/src/core/lv_obj_pos.c **** }
 613              		.loc 1 262 1 view .LVU150
 614 003a F8BD     		pop	{r3, r4, r5, r6, r7, pc}
 615              		.loc 1 262 1 view .LVU151
 616              		.cfi_endproc
 617              	.LFE167:
 619              		.section	.text.lv_obj_is_layout_positioned,"ax",%progbits
 620              		.align	1
 621              		.global	lv_obj_is_layout_positioned
 622              		.syntax unified
 623              		.thumb
 624              		.thumb_func
 626              	lv_obj_is_layout_positioned:
 627              	.LVL56:
 628              	.LFB169:
 263:Middlewares/LVGL/GUI/lvgl/src/core/lv_obj_pos.c **** 
 264:Middlewares/LVGL/GUI/lvgl/src/core/lv_obj_pos.c **** void lv_obj_set_layout(lv_obj_t * obj, uint32_t layout)
 265:Middlewares/LVGL/GUI/lvgl/src/core/lv_obj_pos.c **** {
 266:Middlewares/LVGL/GUI/lvgl/src/core/lv_obj_pos.c ****     LV_ASSERT_OBJ(obj, MY_CLASS);
 267:Middlewares/LVGL/GUI/lvgl/src/core/lv_obj_pos.c **** 
 268:Middlewares/LVGL/GUI/lvgl/src/core/lv_obj_pos.c ****     lv_obj_set_style_layout(obj, layout, 0);
 269:Middlewares/LVGL/GUI/lvgl/src/core/lv_obj_pos.c **** 
 270:Middlewares/LVGL/GUI/lvgl/src/core/lv_obj_pos.c ****     lv_obj_mark_layout_as_dirty(obj);
 271:Middlewares/LVGL/GUI/lvgl/src/core/lv_obj_pos.c **** }
 272:Middlewares/LVGL/GUI/lvgl/src/core/lv_obj_pos.c **** 
 273:Middlewares/LVGL/GUI/lvgl/src/core/lv_obj_pos.c **** bool lv_obj_is_layout_positioned(const lv_obj_t * obj)
 274:Middlewares/LVGL/GUI/lvgl/src/core/lv_obj_pos.c **** {
 629              		.loc 1 274 1 is_stmt 1 view -0
 630              		.cfi_startproc
 631              		@ args = 0, pretend = 0, frame = 0
 632              		@ frame_needed = 0, uses_anonymous_args = 0
 633              		.loc 1 274 1 is_stmt 0 view .LVU153
 634 0000 38B5     		push	{r3, r4, r5, lr}
 635              	.LCFI20:
 636              		.cfi_def_cfa_offset 16
 637              		.cfi_offset 3, -16
 638              		.cfi_offset 4, -12
 639              		.cfi_offset 5, -8
 640              		.cfi_offset 14, -4
 641 0002 0446     		mov	r4, r0
 275:Middlewares/LVGL/GUI/lvgl/src/core/lv_obj_pos.c ****     if(lv_obj_has_flag_any(obj, LV_OBJ_FLAG_HIDDEN | LV_OBJ_FLAG_IGNORE_LAYOUT | LV_OBJ_FLAG_FLOATI
 642              		.loc 1 275 5 is_stmt 1 view .LVU154
 643              		.loc 1 275 8 is_stmt 0 view .LVU155
 644 0004 0B49     		ldr	r1, .L38
 645 0006 FFF7FEFF 		bl	lv_obj_has_flag_any
 646              	.LVL57:
 647              		.loc 1 275 7 view .LVU156
 648 000a 10B1     		cbz	r0, .L37
 649              		.loc 1 275 112 view .LVU157
 650 000c 0025     		movs	r5, #0
 651              	.L34:
 276:Middlewares/LVGL/GUI/lvgl/src/core/lv_obj_pos.c **** 
ARM GAS  C:\Users\ADMINI~1\AppData\Local\Temp\ccVA75Tx.s 			page 22


 277:Middlewares/LVGL/GUI/lvgl/src/core/lv_obj_pos.c ****     lv_obj_t * parent = lv_obj_get_parent(obj);
 278:Middlewares/LVGL/GUI/lvgl/src/core/lv_obj_pos.c ****     if(parent == NULL) return false;
 279:Middlewares/LVGL/GUI/lvgl/src/core/lv_obj_pos.c **** 
 280:Middlewares/LVGL/GUI/lvgl/src/core/lv_obj_pos.c ****     uint32_t layout = lv_obj_get_style_layout(parent, LV_PART_MAIN);
 281:Middlewares/LVGL/GUI/lvgl/src/core/lv_obj_pos.c ****     if(layout) return true;
 282:Middlewares/LVGL/GUI/lvgl/src/core/lv_obj_pos.c ****     else return false;
 283:Middlewares/LVGL/GUI/lvgl/src/core/lv_obj_pos.c **** }
 652              		.loc 1 283 1 view .LVU158
 653 000e 2846     		mov	r0, r5
 654 0010 38BD     		pop	{r3, r4, r5, pc}
 655              	.LVL58:
 656              	.L37:
 657              		.loc 1 283 1 view .LVU159
 658 0012 0546     		mov	r5, r0
 277:Middlewares/LVGL/GUI/lvgl/src/core/lv_obj_pos.c ****     if(parent == NULL) return false;
 659              		.loc 1 277 5 is_stmt 1 view .LVU160
 277:Middlewares/LVGL/GUI/lvgl/src/core/lv_obj_pos.c ****     if(parent == NULL) return false;
 660              		.loc 1 277 25 is_stmt 0 view .LVU161
 661 0014 2046     		mov	r0, r4
 662 0016 FFF7FEFF 		bl	lv_obj_get_parent
 663              	.LVL59:
 278:Middlewares/LVGL/GUI/lvgl/src/core/lv_obj_pos.c **** 
 664              		.loc 1 278 5 is_stmt 1 view .LVU162
 278:Middlewares/LVGL/GUI/lvgl/src/core/lv_obj_pos.c **** 
 665              		.loc 1 278 7 is_stmt 0 view .LVU163
 666 001a 0028     		cmp	r0, #0
 667 001c F7D0     		beq	.L34
 280:Middlewares/LVGL/GUI/lvgl/src/core/lv_obj_pos.c ****     if(layout) return true;
 668              		.loc 1 280 5 is_stmt 1 view .LVU164
 669              	.LVL60:
 670              	.LBB202:
 671              	.LBI202:
 245:Middlewares/LVGL/GUI/lvgl/src/core/lv_obj_style_gen.h **** }
 246:Middlewares/LVGL/GUI/lvgl/src/core/lv_obj_style_gen.h **** 
 247:Middlewares/LVGL/GUI/lvgl/src/core/lv_obj_style_gen.h **** static inline lv_border_side_t lv_obj_get_style_border_side(const struct _lv_obj_t * obj, uint32_t 
 248:Middlewares/LVGL/GUI/lvgl/src/core/lv_obj_style_gen.h **** {
 249:Middlewares/LVGL/GUI/lvgl/src/core/lv_obj_style_gen.h ****     lv_style_value_t v = lv_obj_get_style_prop(obj, part, LV_STYLE_BORDER_SIDE);
 250:Middlewares/LVGL/GUI/lvgl/src/core/lv_obj_style_gen.h ****     return (lv_border_side_t)v.num;
 251:Middlewares/LVGL/GUI/lvgl/src/core/lv_obj_style_gen.h **** }
 252:Middlewares/LVGL/GUI/lvgl/src/core/lv_obj_style_gen.h **** 
 253:Middlewares/LVGL/GUI/lvgl/src/core/lv_obj_style_gen.h **** static inline bool lv_obj_get_style_border_post(const struct _lv_obj_t * obj, uint32_t part)
 254:Middlewares/LVGL/GUI/lvgl/src/core/lv_obj_style_gen.h **** {
 255:Middlewares/LVGL/GUI/lvgl/src/core/lv_obj_style_gen.h ****     lv_style_value_t v = lv_obj_get_style_prop(obj, part, LV_STYLE_BORDER_POST);
 256:Middlewares/LVGL/GUI/lvgl/src/core/lv_obj_style_gen.h ****     return (bool)v.num;
 257:Middlewares/LVGL/GUI/lvgl/src/core/lv_obj_style_gen.h **** }
 258:Middlewares/LVGL/GUI/lvgl/src/core/lv_obj_style_gen.h **** 
 259:Middlewares/LVGL/GUI/lvgl/src/core/lv_obj_style_gen.h **** static inline lv_coord_t lv_obj_get_style_outline_width(const struct _lv_obj_t * obj, uint32_t part
 260:Middlewares/LVGL/GUI/lvgl/src/core/lv_obj_style_gen.h **** {
 261:Middlewares/LVGL/GUI/lvgl/src/core/lv_obj_style_gen.h ****     lv_style_value_t v = lv_obj_get_style_prop(obj, part, LV_STYLE_OUTLINE_WIDTH);
 262:Middlewares/LVGL/GUI/lvgl/src/core/lv_obj_style_gen.h ****     return (lv_coord_t)v.num;
 263:Middlewares/LVGL/GUI/lvgl/src/core/lv_obj_style_gen.h **** }
 264:Middlewares/LVGL/GUI/lvgl/src/core/lv_obj_style_gen.h **** 
 265:Middlewares/LVGL/GUI/lvgl/src/core/lv_obj_style_gen.h **** static inline lv_color_t lv_obj_get_style_outline_color(const struct _lv_obj_t * obj, uint32_t part
 266:Middlewares/LVGL/GUI/lvgl/src/core/lv_obj_style_gen.h **** {
 267:Middlewares/LVGL/GUI/lvgl/src/core/lv_obj_style_gen.h ****     lv_style_value_t v = lv_obj_get_style_prop(obj, part, LV_STYLE_OUTLINE_COLOR);
 268:Middlewares/LVGL/GUI/lvgl/src/core/lv_obj_style_gen.h ****     return v.color;
 269:Middlewares/LVGL/GUI/lvgl/src/core/lv_obj_style_gen.h **** }
ARM GAS  C:\Users\ADMINI~1\AppData\Local\Temp\ccVA75Tx.s 			page 23


 270:Middlewares/LVGL/GUI/lvgl/src/core/lv_obj_style_gen.h **** 
 271:Middlewares/LVGL/GUI/lvgl/src/core/lv_obj_style_gen.h **** static inline lv_color_t lv_obj_get_style_outline_color_filtered(const struct _lv_obj_t * obj, uint
 272:Middlewares/LVGL/GUI/lvgl/src/core/lv_obj_style_gen.h **** {
 273:Middlewares/LVGL/GUI/lvgl/src/core/lv_obj_style_gen.h ****     lv_style_value_t v = lv_obj_get_style_prop(obj, part, LV_STYLE_OUTLINE_COLOR_FILTERED);
 274:Middlewares/LVGL/GUI/lvgl/src/core/lv_obj_style_gen.h ****     return v.color;
 275:Middlewares/LVGL/GUI/lvgl/src/core/lv_obj_style_gen.h **** }
 276:Middlewares/LVGL/GUI/lvgl/src/core/lv_obj_style_gen.h **** 
 277:Middlewares/LVGL/GUI/lvgl/src/core/lv_obj_style_gen.h **** static inline lv_opa_t lv_obj_get_style_outline_opa(const struct _lv_obj_t * obj, uint32_t part)
 278:Middlewares/LVGL/GUI/lvgl/src/core/lv_obj_style_gen.h **** {
 279:Middlewares/LVGL/GUI/lvgl/src/core/lv_obj_style_gen.h ****     lv_style_value_t v = lv_obj_get_style_prop(obj, part, LV_STYLE_OUTLINE_OPA);
 280:Middlewares/LVGL/GUI/lvgl/src/core/lv_obj_style_gen.h ****     return (lv_opa_t)v.num;
 281:Middlewares/LVGL/GUI/lvgl/src/core/lv_obj_style_gen.h **** }
 282:Middlewares/LVGL/GUI/lvgl/src/core/lv_obj_style_gen.h **** 
 283:Middlewares/LVGL/GUI/lvgl/src/core/lv_obj_style_gen.h **** static inline lv_coord_t lv_obj_get_style_outline_pad(const struct _lv_obj_t * obj, uint32_t part)
 284:Middlewares/LVGL/GUI/lvgl/src/core/lv_obj_style_gen.h **** {
 285:Middlewares/LVGL/GUI/lvgl/src/core/lv_obj_style_gen.h ****     lv_style_value_t v = lv_obj_get_style_prop(obj, part, LV_STYLE_OUTLINE_PAD);
 286:Middlewares/LVGL/GUI/lvgl/src/core/lv_obj_style_gen.h ****     return (lv_coord_t)v.num;
 287:Middlewares/LVGL/GUI/lvgl/src/core/lv_obj_style_gen.h **** }
 288:Middlewares/LVGL/GUI/lvgl/src/core/lv_obj_style_gen.h **** 
 289:Middlewares/LVGL/GUI/lvgl/src/core/lv_obj_style_gen.h **** static inline lv_coord_t lv_obj_get_style_shadow_width(const struct _lv_obj_t * obj, uint32_t part)
 290:Middlewares/LVGL/GUI/lvgl/src/core/lv_obj_style_gen.h **** {
 291:Middlewares/LVGL/GUI/lvgl/src/core/lv_obj_style_gen.h ****     lv_style_value_t v = lv_obj_get_style_prop(obj, part, LV_STYLE_SHADOW_WIDTH);
 292:Middlewares/LVGL/GUI/lvgl/src/core/lv_obj_style_gen.h ****     return (lv_coord_t)v.num;
 293:Middlewares/LVGL/GUI/lvgl/src/core/lv_obj_style_gen.h **** }
 294:Middlewares/LVGL/GUI/lvgl/src/core/lv_obj_style_gen.h **** 
 295:Middlewares/LVGL/GUI/lvgl/src/core/lv_obj_style_gen.h **** static inline lv_coord_t lv_obj_get_style_shadow_ofs_x(const struct _lv_obj_t * obj, uint32_t part)
 296:Middlewares/LVGL/GUI/lvgl/src/core/lv_obj_style_gen.h **** {
 297:Middlewares/LVGL/GUI/lvgl/src/core/lv_obj_style_gen.h ****     lv_style_value_t v = lv_obj_get_style_prop(obj, part, LV_STYLE_SHADOW_OFS_X);
 298:Middlewares/LVGL/GUI/lvgl/src/core/lv_obj_style_gen.h ****     return (lv_coord_t)v.num;
 299:Middlewares/LVGL/GUI/lvgl/src/core/lv_obj_style_gen.h **** }
 300:Middlewares/LVGL/GUI/lvgl/src/core/lv_obj_style_gen.h **** 
 301:Middlewares/LVGL/GUI/lvgl/src/core/lv_obj_style_gen.h **** static inline lv_coord_t lv_obj_get_style_shadow_ofs_y(const struct _lv_obj_t * obj, uint32_t part)
 302:Middlewares/LVGL/GUI/lvgl/src/core/lv_obj_style_gen.h **** {
 303:Middlewares/LVGL/GUI/lvgl/src/core/lv_obj_style_gen.h ****     lv_style_value_t v = lv_obj_get_style_prop(obj, part, LV_STYLE_SHADOW_OFS_Y);
 304:Middlewares/LVGL/GUI/lvgl/src/core/lv_obj_style_gen.h ****     return (lv_coord_t)v.num;
 305:Middlewares/LVGL/GUI/lvgl/src/core/lv_obj_style_gen.h **** }
 306:Middlewares/LVGL/GUI/lvgl/src/core/lv_obj_style_gen.h **** 
 307:Middlewares/LVGL/GUI/lvgl/src/core/lv_obj_style_gen.h **** static inline lv_coord_t lv_obj_get_style_shadow_spread(const struct _lv_obj_t * obj, uint32_t part
 308:Middlewares/LVGL/GUI/lvgl/src/core/lv_obj_style_gen.h **** {
 309:Middlewares/LVGL/GUI/lvgl/src/core/lv_obj_style_gen.h ****     lv_style_value_t v = lv_obj_get_style_prop(obj, part, LV_STYLE_SHADOW_SPREAD);
 310:Middlewares/LVGL/GUI/lvgl/src/core/lv_obj_style_gen.h ****     return (lv_coord_t)v.num;
 311:Middlewares/LVGL/GUI/lvgl/src/core/lv_obj_style_gen.h **** }
 312:Middlewares/LVGL/GUI/lvgl/src/core/lv_obj_style_gen.h **** 
 313:Middlewares/LVGL/GUI/lvgl/src/core/lv_obj_style_gen.h **** static inline lv_color_t lv_obj_get_style_shadow_color(const struct _lv_obj_t * obj, uint32_t part)
 314:Middlewares/LVGL/GUI/lvgl/src/core/lv_obj_style_gen.h **** {
 315:Middlewares/LVGL/GUI/lvgl/src/core/lv_obj_style_gen.h ****     lv_style_value_t v = lv_obj_get_style_prop(obj, part, LV_STYLE_SHADOW_COLOR);
 316:Middlewares/LVGL/GUI/lvgl/src/core/lv_obj_style_gen.h ****     return v.color;
 317:Middlewares/LVGL/GUI/lvgl/src/core/lv_obj_style_gen.h **** }
 318:Middlewares/LVGL/GUI/lvgl/src/core/lv_obj_style_gen.h **** 
 319:Middlewares/LVGL/GUI/lvgl/src/core/lv_obj_style_gen.h **** static inline lv_color_t lv_obj_get_style_shadow_color_filtered(const struct _lv_obj_t * obj, uint3
 320:Middlewares/LVGL/GUI/lvgl/src/core/lv_obj_style_gen.h **** {
 321:Middlewares/LVGL/GUI/lvgl/src/core/lv_obj_style_gen.h ****     lv_style_value_t v = lv_obj_get_style_prop(obj, part, LV_STYLE_SHADOW_COLOR_FILTERED);
 322:Middlewares/LVGL/GUI/lvgl/src/core/lv_obj_style_gen.h ****     return v.color;
 323:Middlewares/LVGL/GUI/lvgl/src/core/lv_obj_style_gen.h **** }
 324:Middlewares/LVGL/GUI/lvgl/src/core/lv_obj_style_gen.h **** 
 325:Middlewares/LVGL/GUI/lvgl/src/core/lv_obj_style_gen.h **** static inline lv_opa_t lv_obj_get_style_shadow_opa(const struct _lv_obj_t * obj, uint32_t part)
 326:Middlewares/LVGL/GUI/lvgl/src/core/lv_obj_style_gen.h **** {
ARM GAS  C:\Users\ADMINI~1\AppData\Local\Temp\ccVA75Tx.s 			page 24


 327:Middlewares/LVGL/GUI/lvgl/src/core/lv_obj_style_gen.h ****     lv_style_value_t v = lv_obj_get_style_prop(obj, part, LV_STYLE_SHADOW_OPA);
 328:Middlewares/LVGL/GUI/lvgl/src/core/lv_obj_style_gen.h ****     return (lv_opa_t)v.num;
 329:Middlewares/LVGL/GUI/lvgl/src/core/lv_obj_style_gen.h **** }
 330:Middlewares/LVGL/GUI/lvgl/src/core/lv_obj_style_gen.h **** 
 331:Middlewares/LVGL/GUI/lvgl/src/core/lv_obj_style_gen.h **** static inline lv_opa_t lv_obj_get_style_img_opa(const struct _lv_obj_t * obj, uint32_t part)
 332:Middlewares/LVGL/GUI/lvgl/src/core/lv_obj_style_gen.h **** {
 333:Middlewares/LVGL/GUI/lvgl/src/core/lv_obj_style_gen.h ****     lv_style_value_t v = lv_obj_get_style_prop(obj, part, LV_STYLE_IMG_OPA);
 334:Middlewares/LVGL/GUI/lvgl/src/core/lv_obj_style_gen.h ****     return (lv_opa_t)v.num;
 335:Middlewares/LVGL/GUI/lvgl/src/core/lv_obj_style_gen.h **** }
 336:Middlewares/LVGL/GUI/lvgl/src/core/lv_obj_style_gen.h **** 
 337:Middlewares/LVGL/GUI/lvgl/src/core/lv_obj_style_gen.h **** static inline lv_color_t lv_obj_get_style_img_recolor(const struct _lv_obj_t * obj, uint32_t part)
 338:Middlewares/LVGL/GUI/lvgl/src/core/lv_obj_style_gen.h **** {
 339:Middlewares/LVGL/GUI/lvgl/src/core/lv_obj_style_gen.h ****     lv_style_value_t v = lv_obj_get_style_prop(obj, part, LV_STYLE_IMG_RECOLOR);
 340:Middlewares/LVGL/GUI/lvgl/src/core/lv_obj_style_gen.h ****     return v.color;
 341:Middlewares/LVGL/GUI/lvgl/src/core/lv_obj_style_gen.h **** }
 342:Middlewares/LVGL/GUI/lvgl/src/core/lv_obj_style_gen.h **** 
 343:Middlewares/LVGL/GUI/lvgl/src/core/lv_obj_style_gen.h **** static inline lv_color_t lv_obj_get_style_img_recolor_filtered(const struct _lv_obj_t * obj, uint32
 344:Middlewares/LVGL/GUI/lvgl/src/core/lv_obj_style_gen.h **** {
 345:Middlewares/LVGL/GUI/lvgl/src/core/lv_obj_style_gen.h ****     lv_style_value_t v = lv_obj_get_style_prop(obj, part, LV_STYLE_IMG_RECOLOR_FILTERED);
 346:Middlewares/LVGL/GUI/lvgl/src/core/lv_obj_style_gen.h ****     return v.color;
 347:Middlewares/LVGL/GUI/lvgl/src/core/lv_obj_style_gen.h **** }
 348:Middlewares/LVGL/GUI/lvgl/src/core/lv_obj_style_gen.h **** 
 349:Middlewares/LVGL/GUI/lvgl/src/core/lv_obj_style_gen.h **** static inline lv_opa_t lv_obj_get_style_img_recolor_opa(const struct _lv_obj_t * obj, uint32_t part
 350:Middlewares/LVGL/GUI/lvgl/src/core/lv_obj_style_gen.h **** {
 351:Middlewares/LVGL/GUI/lvgl/src/core/lv_obj_style_gen.h ****     lv_style_value_t v = lv_obj_get_style_prop(obj, part, LV_STYLE_IMG_RECOLOR_OPA);
 352:Middlewares/LVGL/GUI/lvgl/src/core/lv_obj_style_gen.h ****     return (lv_opa_t)v.num;
 353:Middlewares/LVGL/GUI/lvgl/src/core/lv_obj_style_gen.h **** }
 354:Middlewares/LVGL/GUI/lvgl/src/core/lv_obj_style_gen.h **** 
 355:Middlewares/LVGL/GUI/lvgl/src/core/lv_obj_style_gen.h **** static inline lv_coord_t lv_obj_get_style_line_width(const struct _lv_obj_t * obj, uint32_t part)
 356:Middlewares/LVGL/GUI/lvgl/src/core/lv_obj_style_gen.h **** {
 357:Middlewares/LVGL/GUI/lvgl/src/core/lv_obj_style_gen.h ****     lv_style_value_t v = lv_obj_get_style_prop(obj, part, LV_STYLE_LINE_WIDTH);
 358:Middlewares/LVGL/GUI/lvgl/src/core/lv_obj_style_gen.h ****     return (lv_coord_t)v.num;
 359:Middlewares/LVGL/GUI/lvgl/src/core/lv_obj_style_gen.h **** }
 360:Middlewares/LVGL/GUI/lvgl/src/core/lv_obj_style_gen.h **** 
 361:Middlewares/LVGL/GUI/lvgl/src/core/lv_obj_style_gen.h **** static inline lv_coord_t lv_obj_get_style_line_dash_width(const struct _lv_obj_t * obj, uint32_t pa
 362:Middlewares/LVGL/GUI/lvgl/src/core/lv_obj_style_gen.h **** {
 363:Middlewares/LVGL/GUI/lvgl/src/core/lv_obj_style_gen.h ****     lv_style_value_t v = lv_obj_get_style_prop(obj, part, LV_STYLE_LINE_DASH_WIDTH);
 364:Middlewares/LVGL/GUI/lvgl/src/core/lv_obj_style_gen.h ****     return (lv_coord_t)v.num;
 365:Middlewares/LVGL/GUI/lvgl/src/core/lv_obj_style_gen.h **** }
 366:Middlewares/LVGL/GUI/lvgl/src/core/lv_obj_style_gen.h **** 
 367:Middlewares/LVGL/GUI/lvgl/src/core/lv_obj_style_gen.h **** static inline lv_coord_t lv_obj_get_style_line_dash_gap(const struct _lv_obj_t * obj, uint32_t part
 368:Middlewares/LVGL/GUI/lvgl/src/core/lv_obj_style_gen.h **** {
 369:Middlewares/LVGL/GUI/lvgl/src/core/lv_obj_style_gen.h ****     lv_style_value_t v = lv_obj_get_style_prop(obj, part, LV_STYLE_LINE_DASH_GAP);
 370:Middlewares/LVGL/GUI/lvgl/src/core/lv_obj_style_gen.h ****     return (lv_coord_t)v.num;
 371:Middlewares/LVGL/GUI/lvgl/src/core/lv_obj_style_gen.h **** }
 372:Middlewares/LVGL/GUI/lvgl/src/core/lv_obj_style_gen.h **** 
 373:Middlewares/LVGL/GUI/lvgl/src/core/lv_obj_style_gen.h **** static inline bool lv_obj_get_style_line_rounded(const struct _lv_obj_t * obj, uint32_t part)
 374:Middlewares/LVGL/GUI/lvgl/src/core/lv_obj_style_gen.h **** {
 375:Middlewares/LVGL/GUI/lvgl/src/core/lv_obj_style_gen.h ****     lv_style_value_t v = lv_obj_get_style_prop(obj, part, LV_STYLE_LINE_ROUNDED);
 376:Middlewares/LVGL/GUI/lvgl/src/core/lv_obj_style_gen.h ****     return (bool)v.num;
 377:Middlewares/LVGL/GUI/lvgl/src/core/lv_obj_style_gen.h **** }
 378:Middlewares/LVGL/GUI/lvgl/src/core/lv_obj_style_gen.h **** 
 379:Middlewares/LVGL/GUI/lvgl/src/core/lv_obj_style_gen.h **** static inline lv_color_t lv_obj_get_style_line_color(const struct _lv_obj_t * obj, uint32_t part)
 380:Middlewares/LVGL/GUI/lvgl/src/core/lv_obj_style_gen.h **** {
 381:Middlewares/LVGL/GUI/lvgl/src/core/lv_obj_style_gen.h ****     lv_style_value_t v = lv_obj_get_style_prop(obj, part, LV_STYLE_LINE_COLOR);
 382:Middlewares/LVGL/GUI/lvgl/src/core/lv_obj_style_gen.h ****     return v.color;
 383:Middlewares/LVGL/GUI/lvgl/src/core/lv_obj_style_gen.h **** }
ARM GAS  C:\Users\ADMINI~1\AppData\Local\Temp\ccVA75Tx.s 			page 25


 384:Middlewares/LVGL/GUI/lvgl/src/core/lv_obj_style_gen.h **** 
 385:Middlewares/LVGL/GUI/lvgl/src/core/lv_obj_style_gen.h **** static inline lv_color_t lv_obj_get_style_line_color_filtered(const struct _lv_obj_t * obj, uint32_
 386:Middlewares/LVGL/GUI/lvgl/src/core/lv_obj_style_gen.h **** {
 387:Middlewares/LVGL/GUI/lvgl/src/core/lv_obj_style_gen.h ****     lv_style_value_t v = lv_obj_get_style_prop(obj, part, LV_STYLE_LINE_COLOR_FILTERED);
 388:Middlewares/LVGL/GUI/lvgl/src/core/lv_obj_style_gen.h ****     return v.color;
 389:Middlewares/LVGL/GUI/lvgl/src/core/lv_obj_style_gen.h **** }
 390:Middlewares/LVGL/GUI/lvgl/src/core/lv_obj_style_gen.h **** 
 391:Middlewares/LVGL/GUI/lvgl/src/core/lv_obj_style_gen.h **** static inline lv_opa_t lv_obj_get_style_line_opa(const struct _lv_obj_t * obj, uint32_t part)
 392:Middlewares/LVGL/GUI/lvgl/src/core/lv_obj_style_gen.h **** {
 393:Middlewares/LVGL/GUI/lvgl/src/core/lv_obj_style_gen.h ****     lv_style_value_t v = lv_obj_get_style_prop(obj, part, LV_STYLE_LINE_OPA);
 394:Middlewares/LVGL/GUI/lvgl/src/core/lv_obj_style_gen.h ****     return (lv_opa_t)v.num;
 395:Middlewares/LVGL/GUI/lvgl/src/core/lv_obj_style_gen.h **** }
 396:Middlewares/LVGL/GUI/lvgl/src/core/lv_obj_style_gen.h **** 
 397:Middlewares/LVGL/GUI/lvgl/src/core/lv_obj_style_gen.h **** static inline lv_coord_t lv_obj_get_style_arc_width(const struct _lv_obj_t * obj, uint32_t part)
 398:Middlewares/LVGL/GUI/lvgl/src/core/lv_obj_style_gen.h **** {
 399:Middlewares/LVGL/GUI/lvgl/src/core/lv_obj_style_gen.h ****     lv_style_value_t v = lv_obj_get_style_prop(obj, part, LV_STYLE_ARC_WIDTH);
 400:Middlewares/LVGL/GUI/lvgl/src/core/lv_obj_style_gen.h ****     return (lv_coord_t)v.num;
 401:Middlewares/LVGL/GUI/lvgl/src/core/lv_obj_style_gen.h **** }
 402:Middlewares/LVGL/GUI/lvgl/src/core/lv_obj_style_gen.h **** 
 403:Middlewares/LVGL/GUI/lvgl/src/core/lv_obj_style_gen.h **** static inline bool lv_obj_get_style_arc_rounded(const struct _lv_obj_t * obj, uint32_t part)
 404:Middlewares/LVGL/GUI/lvgl/src/core/lv_obj_style_gen.h **** {
 405:Middlewares/LVGL/GUI/lvgl/src/core/lv_obj_style_gen.h ****     lv_style_value_t v = lv_obj_get_style_prop(obj, part, LV_STYLE_ARC_ROUNDED);
 406:Middlewares/LVGL/GUI/lvgl/src/core/lv_obj_style_gen.h ****     return (bool)v.num;
 407:Middlewares/LVGL/GUI/lvgl/src/core/lv_obj_style_gen.h **** }
 408:Middlewares/LVGL/GUI/lvgl/src/core/lv_obj_style_gen.h **** 
 409:Middlewares/LVGL/GUI/lvgl/src/core/lv_obj_style_gen.h **** static inline lv_color_t lv_obj_get_style_arc_color(const struct _lv_obj_t * obj, uint32_t part)
 410:Middlewares/LVGL/GUI/lvgl/src/core/lv_obj_style_gen.h **** {
 411:Middlewares/LVGL/GUI/lvgl/src/core/lv_obj_style_gen.h ****     lv_style_value_t v = lv_obj_get_style_prop(obj, part, LV_STYLE_ARC_COLOR);
 412:Middlewares/LVGL/GUI/lvgl/src/core/lv_obj_style_gen.h ****     return v.color;
 413:Middlewares/LVGL/GUI/lvgl/src/core/lv_obj_style_gen.h **** }
 414:Middlewares/LVGL/GUI/lvgl/src/core/lv_obj_style_gen.h **** 
 415:Middlewares/LVGL/GUI/lvgl/src/core/lv_obj_style_gen.h **** static inline lv_color_t lv_obj_get_style_arc_color_filtered(const struct _lv_obj_t * obj, uint32_t
 416:Middlewares/LVGL/GUI/lvgl/src/core/lv_obj_style_gen.h **** {
 417:Middlewares/LVGL/GUI/lvgl/src/core/lv_obj_style_gen.h ****     lv_style_value_t v = lv_obj_get_style_prop(obj, part, LV_STYLE_ARC_COLOR_FILTERED);
 418:Middlewares/LVGL/GUI/lvgl/src/core/lv_obj_style_gen.h ****     return v.color;
 419:Middlewares/LVGL/GUI/lvgl/src/core/lv_obj_style_gen.h **** }
 420:Middlewares/LVGL/GUI/lvgl/src/core/lv_obj_style_gen.h **** 
 421:Middlewares/LVGL/GUI/lvgl/src/core/lv_obj_style_gen.h **** static inline lv_opa_t lv_obj_get_style_arc_opa(const struct _lv_obj_t * obj, uint32_t part)
 422:Middlewares/LVGL/GUI/lvgl/src/core/lv_obj_style_gen.h **** {
 423:Middlewares/LVGL/GUI/lvgl/src/core/lv_obj_style_gen.h ****     lv_style_value_t v = lv_obj_get_style_prop(obj, part, LV_STYLE_ARC_OPA);
 424:Middlewares/LVGL/GUI/lvgl/src/core/lv_obj_style_gen.h ****     return (lv_opa_t)v.num;
 425:Middlewares/LVGL/GUI/lvgl/src/core/lv_obj_style_gen.h **** }
 426:Middlewares/LVGL/GUI/lvgl/src/core/lv_obj_style_gen.h **** 
 427:Middlewares/LVGL/GUI/lvgl/src/core/lv_obj_style_gen.h **** static inline const void * lv_obj_get_style_arc_img_src(const struct _lv_obj_t * obj, uint32_t part
 428:Middlewares/LVGL/GUI/lvgl/src/core/lv_obj_style_gen.h **** {
 429:Middlewares/LVGL/GUI/lvgl/src/core/lv_obj_style_gen.h ****     lv_style_value_t v = lv_obj_get_style_prop(obj, part, LV_STYLE_ARC_IMG_SRC);
 430:Middlewares/LVGL/GUI/lvgl/src/core/lv_obj_style_gen.h ****     return (const void *)v.ptr;
 431:Middlewares/LVGL/GUI/lvgl/src/core/lv_obj_style_gen.h **** }
 432:Middlewares/LVGL/GUI/lvgl/src/core/lv_obj_style_gen.h **** 
 433:Middlewares/LVGL/GUI/lvgl/src/core/lv_obj_style_gen.h **** static inline lv_color_t lv_obj_get_style_text_color(const struct _lv_obj_t * obj, uint32_t part)
 434:Middlewares/LVGL/GUI/lvgl/src/core/lv_obj_style_gen.h **** {
 435:Middlewares/LVGL/GUI/lvgl/src/core/lv_obj_style_gen.h ****     lv_style_value_t v = lv_obj_get_style_prop(obj, part, LV_STYLE_TEXT_COLOR);
 436:Middlewares/LVGL/GUI/lvgl/src/core/lv_obj_style_gen.h ****     return v.color;
 437:Middlewares/LVGL/GUI/lvgl/src/core/lv_obj_style_gen.h **** }
 438:Middlewares/LVGL/GUI/lvgl/src/core/lv_obj_style_gen.h **** 
 439:Middlewares/LVGL/GUI/lvgl/src/core/lv_obj_style_gen.h **** static inline lv_color_t lv_obj_get_style_text_color_filtered(const struct _lv_obj_t * obj, uint32_
 440:Middlewares/LVGL/GUI/lvgl/src/core/lv_obj_style_gen.h **** {
ARM GAS  C:\Users\ADMINI~1\AppData\Local\Temp\ccVA75Tx.s 			page 26


 441:Middlewares/LVGL/GUI/lvgl/src/core/lv_obj_style_gen.h ****     lv_style_value_t v = lv_obj_get_style_prop(obj, part, LV_STYLE_TEXT_COLOR_FILTERED);
 442:Middlewares/LVGL/GUI/lvgl/src/core/lv_obj_style_gen.h ****     return v.color;
 443:Middlewares/LVGL/GUI/lvgl/src/core/lv_obj_style_gen.h **** }
 444:Middlewares/LVGL/GUI/lvgl/src/core/lv_obj_style_gen.h **** 
 445:Middlewares/LVGL/GUI/lvgl/src/core/lv_obj_style_gen.h **** static inline lv_opa_t lv_obj_get_style_text_opa(const struct _lv_obj_t * obj, uint32_t part)
 446:Middlewares/LVGL/GUI/lvgl/src/core/lv_obj_style_gen.h **** {
 447:Middlewares/LVGL/GUI/lvgl/src/core/lv_obj_style_gen.h ****     lv_style_value_t v = lv_obj_get_style_prop(obj, part, LV_STYLE_TEXT_OPA);
 448:Middlewares/LVGL/GUI/lvgl/src/core/lv_obj_style_gen.h ****     return (lv_opa_t)v.num;
 449:Middlewares/LVGL/GUI/lvgl/src/core/lv_obj_style_gen.h **** }
 450:Middlewares/LVGL/GUI/lvgl/src/core/lv_obj_style_gen.h **** 
 451:Middlewares/LVGL/GUI/lvgl/src/core/lv_obj_style_gen.h **** static inline const lv_font_t * lv_obj_get_style_text_font(const struct _lv_obj_t * obj, uint32_t p
 452:Middlewares/LVGL/GUI/lvgl/src/core/lv_obj_style_gen.h **** {
 453:Middlewares/LVGL/GUI/lvgl/src/core/lv_obj_style_gen.h ****     lv_style_value_t v = lv_obj_get_style_prop(obj, part, LV_STYLE_TEXT_FONT);
 454:Middlewares/LVGL/GUI/lvgl/src/core/lv_obj_style_gen.h ****     return (const lv_font_t *)v.ptr;
 455:Middlewares/LVGL/GUI/lvgl/src/core/lv_obj_style_gen.h **** }
 456:Middlewares/LVGL/GUI/lvgl/src/core/lv_obj_style_gen.h **** 
 457:Middlewares/LVGL/GUI/lvgl/src/core/lv_obj_style_gen.h **** static inline lv_coord_t lv_obj_get_style_text_letter_space(const struct _lv_obj_t * obj, uint32_t 
 458:Middlewares/LVGL/GUI/lvgl/src/core/lv_obj_style_gen.h **** {
 459:Middlewares/LVGL/GUI/lvgl/src/core/lv_obj_style_gen.h ****     lv_style_value_t v = lv_obj_get_style_prop(obj, part, LV_STYLE_TEXT_LETTER_SPACE);
 460:Middlewares/LVGL/GUI/lvgl/src/core/lv_obj_style_gen.h ****     return (lv_coord_t)v.num;
 461:Middlewares/LVGL/GUI/lvgl/src/core/lv_obj_style_gen.h **** }
 462:Middlewares/LVGL/GUI/lvgl/src/core/lv_obj_style_gen.h **** 
 463:Middlewares/LVGL/GUI/lvgl/src/core/lv_obj_style_gen.h **** static inline lv_coord_t lv_obj_get_style_text_line_space(const struct _lv_obj_t * obj, uint32_t pa
 464:Middlewares/LVGL/GUI/lvgl/src/core/lv_obj_style_gen.h **** {
 465:Middlewares/LVGL/GUI/lvgl/src/core/lv_obj_style_gen.h ****     lv_style_value_t v = lv_obj_get_style_prop(obj, part, LV_STYLE_TEXT_LINE_SPACE);
 466:Middlewares/LVGL/GUI/lvgl/src/core/lv_obj_style_gen.h ****     return (lv_coord_t)v.num;
 467:Middlewares/LVGL/GUI/lvgl/src/core/lv_obj_style_gen.h **** }
 468:Middlewares/LVGL/GUI/lvgl/src/core/lv_obj_style_gen.h **** 
 469:Middlewares/LVGL/GUI/lvgl/src/core/lv_obj_style_gen.h **** static inline lv_text_decor_t lv_obj_get_style_text_decor(const struct _lv_obj_t * obj, uint32_t pa
 470:Middlewares/LVGL/GUI/lvgl/src/core/lv_obj_style_gen.h **** {
 471:Middlewares/LVGL/GUI/lvgl/src/core/lv_obj_style_gen.h ****     lv_style_value_t v = lv_obj_get_style_prop(obj, part, LV_STYLE_TEXT_DECOR);
 472:Middlewares/LVGL/GUI/lvgl/src/core/lv_obj_style_gen.h ****     return (lv_text_decor_t)v.num;
 473:Middlewares/LVGL/GUI/lvgl/src/core/lv_obj_style_gen.h **** }
 474:Middlewares/LVGL/GUI/lvgl/src/core/lv_obj_style_gen.h **** 
 475:Middlewares/LVGL/GUI/lvgl/src/core/lv_obj_style_gen.h **** static inline lv_text_align_t lv_obj_get_style_text_align(const struct _lv_obj_t * obj, uint32_t pa
 476:Middlewares/LVGL/GUI/lvgl/src/core/lv_obj_style_gen.h **** {
 477:Middlewares/LVGL/GUI/lvgl/src/core/lv_obj_style_gen.h ****     lv_style_value_t v = lv_obj_get_style_prop(obj, part, LV_STYLE_TEXT_ALIGN);
 478:Middlewares/LVGL/GUI/lvgl/src/core/lv_obj_style_gen.h ****     return (lv_text_align_t)v.num;
 479:Middlewares/LVGL/GUI/lvgl/src/core/lv_obj_style_gen.h **** }
 480:Middlewares/LVGL/GUI/lvgl/src/core/lv_obj_style_gen.h **** 
 481:Middlewares/LVGL/GUI/lvgl/src/core/lv_obj_style_gen.h **** static inline lv_coord_t lv_obj_get_style_radius(const struct _lv_obj_t * obj, uint32_t part)
 482:Middlewares/LVGL/GUI/lvgl/src/core/lv_obj_style_gen.h **** {
 483:Middlewares/LVGL/GUI/lvgl/src/core/lv_obj_style_gen.h ****     lv_style_value_t v = lv_obj_get_style_prop(obj, part, LV_STYLE_RADIUS);
 484:Middlewares/LVGL/GUI/lvgl/src/core/lv_obj_style_gen.h ****     return (lv_coord_t)v.num;
 485:Middlewares/LVGL/GUI/lvgl/src/core/lv_obj_style_gen.h **** }
 486:Middlewares/LVGL/GUI/lvgl/src/core/lv_obj_style_gen.h **** 
 487:Middlewares/LVGL/GUI/lvgl/src/core/lv_obj_style_gen.h **** static inline bool lv_obj_get_style_clip_corner(const struct _lv_obj_t * obj, uint32_t part)
 488:Middlewares/LVGL/GUI/lvgl/src/core/lv_obj_style_gen.h **** {
 489:Middlewares/LVGL/GUI/lvgl/src/core/lv_obj_style_gen.h ****     lv_style_value_t v = lv_obj_get_style_prop(obj, part, LV_STYLE_CLIP_CORNER);
 490:Middlewares/LVGL/GUI/lvgl/src/core/lv_obj_style_gen.h ****     return (bool)v.num;
 491:Middlewares/LVGL/GUI/lvgl/src/core/lv_obj_style_gen.h **** }
 492:Middlewares/LVGL/GUI/lvgl/src/core/lv_obj_style_gen.h **** 
 493:Middlewares/LVGL/GUI/lvgl/src/core/lv_obj_style_gen.h **** static inline lv_opa_t lv_obj_get_style_opa(const struct _lv_obj_t * obj, uint32_t part)
 494:Middlewares/LVGL/GUI/lvgl/src/core/lv_obj_style_gen.h **** {
 495:Middlewares/LVGL/GUI/lvgl/src/core/lv_obj_style_gen.h ****     lv_style_value_t v = lv_obj_get_style_prop(obj, part, LV_STYLE_OPA);
 496:Middlewares/LVGL/GUI/lvgl/src/core/lv_obj_style_gen.h ****     return (lv_opa_t)v.num;
 497:Middlewares/LVGL/GUI/lvgl/src/core/lv_obj_style_gen.h **** }
ARM GAS  C:\Users\ADMINI~1\AppData\Local\Temp\ccVA75Tx.s 			page 27


 498:Middlewares/LVGL/GUI/lvgl/src/core/lv_obj_style_gen.h **** 
 499:Middlewares/LVGL/GUI/lvgl/src/core/lv_obj_style_gen.h **** static inline const lv_color_filter_dsc_t * lv_obj_get_style_color_filter_dsc(const struct _lv_obj_
 500:Middlewares/LVGL/GUI/lvgl/src/core/lv_obj_style_gen.h ****                                                                               uint32_t part)
 501:Middlewares/LVGL/GUI/lvgl/src/core/lv_obj_style_gen.h **** {
 502:Middlewares/LVGL/GUI/lvgl/src/core/lv_obj_style_gen.h ****     lv_style_value_t v = lv_obj_get_style_prop(obj, part, LV_STYLE_COLOR_FILTER_DSC);
 503:Middlewares/LVGL/GUI/lvgl/src/core/lv_obj_style_gen.h ****     return (const lv_color_filter_dsc_t *)v.ptr;
 504:Middlewares/LVGL/GUI/lvgl/src/core/lv_obj_style_gen.h **** }
 505:Middlewares/LVGL/GUI/lvgl/src/core/lv_obj_style_gen.h **** 
 506:Middlewares/LVGL/GUI/lvgl/src/core/lv_obj_style_gen.h **** static inline lv_opa_t lv_obj_get_style_color_filter_opa(const struct _lv_obj_t * obj, uint32_t par
 507:Middlewares/LVGL/GUI/lvgl/src/core/lv_obj_style_gen.h **** {
 508:Middlewares/LVGL/GUI/lvgl/src/core/lv_obj_style_gen.h ****     lv_style_value_t v = lv_obj_get_style_prop(obj, part, LV_STYLE_COLOR_FILTER_OPA);
 509:Middlewares/LVGL/GUI/lvgl/src/core/lv_obj_style_gen.h ****     return (lv_opa_t)v.num;
 510:Middlewares/LVGL/GUI/lvgl/src/core/lv_obj_style_gen.h **** }
 511:Middlewares/LVGL/GUI/lvgl/src/core/lv_obj_style_gen.h **** 
 512:Middlewares/LVGL/GUI/lvgl/src/core/lv_obj_style_gen.h **** static inline uint32_t lv_obj_get_style_anim_time(const struct _lv_obj_t * obj, uint32_t part)
 513:Middlewares/LVGL/GUI/lvgl/src/core/lv_obj_style_gen.h **** {
 514:Middlewares/LVGL/GUI/lvgl/src/core/lv_obj_style_gen.h ****     lv_style_value_t v = lv_obj_get_style_prop(obj, part, LV_STYLE_ANIM_TIME);
 515:Middlewares/LVGL/GUI/lvgl/src/core/lv_obj_style_gen.h ****     return (uint32_t)v.num;
 516:Middlewares/LVGL/GUI/lvgl/src/core/lv_obj_style_gen.h **** }
 517:Middlewares/LVGL/GUI/lvgl/src/core/lv_obj_style_gen.h **** 
 518:Middlewares/LVGL/GUI/lvgl/src/core/lv_obj_style_gen.h **** static inline uint32_t lv_obj_get_style_anim_speed(const struct _lv_obj_t * obj, uint32_t part)
 519:Middlewares/LVGL/GUI/lvgl/src/core/lv_obj_style_gen.h **** {
 520:Middlewares/LVGL/GUI/lvgl/src/core/lv_obj_style_gen.h ****     lv_style_value_t v = lv_obj_get_style_prop(obj, part, LV_STYLE_ANIM_SPEED);
 521:Middlewares/LVGL/GUI/lvgl/src/core/lv_obj_style_gen.h ****     return (uint32_t)v.num;
 522:Middlewares/LVGL/GUI/lvgl/src/core/lv_obj_style_gen.h **** }
 523:Middlewares/LVGL/GUI/lvgl/src/core/lv_obj_style_gen.h **** 
 524:Middlewares/LVGL/GUI/lvgl/src/core/lv_obj_style_gen.h **** static inline const lv_style_transition_dsc_t * lv_obj_get_style_transition(const struct _lv_obj_t 
 525:Middlewares/LVGL/GUI/lvgl/src/core/lv_obj_style_gen.h **** {
 526:Middlewares/LVGL/GUI/lvgl/src/core/lv_obj_style_gen.h ****     lv_style_value_t v = lv_obj_get_style_prop(obj, part, LV_STYLE_TRANSITION);
 527:Middlewares/LVGL/GUI/lvgl/src/core/lv_obj_style_gen.h ****     return (const lv_style_transition_dsc_t *)v.ptr;
 528:Middlewares/LVGL/GUI/lvgl/src/core/lv_obj_style_gen.h **** }
 529:Middlewares/LVGL/GUI/lvgl/src/core/lv_obj_style_gen.h **** 
 530:Middlewares/LVGL/GUI/lvgl/src/core/lv_obj_style_gen.h **** static inline lv_blend_mode_t lv_obj_get_style_blend_mode(const struct _lv_obj_t * obj, uint32_t pa
 531:Middlewares/LVGL/GUI/lvgl/src/core/lv_obj_style_gen.h **** {
 532:Middlewares/LVGL/GUI/lvgl/src/core/lv_obj_style_gen.h ****     lv_style_value_t v = lv_obj_get_style_prop(obj, part, LV_STYLE_BLEND_MODE);
 533:Middlewares/LVGL/GUI/lvgl/src/core/lv_obj_style_gen.h ****     return (lv_blend_mode_t)v.num;
 534:Middlewares/LVGL/GUI/lvgl/src/core/lv_obj_style_gen.h **** }
 535:Middlewares/LVGL/GUI/lvgl/src/core/lv_obj_style_gen.h **** 
 536:Middlewares/LVGL/GUI/lvgl/src/core/lv_obj_style_gen.h **** static inline uint16_t lv_obj_get_style_layout(const struct _lv_obj_t * obj, uint32_t part)
 672              		.loc 2 536 24 view .LVU165
 673              	.LBB203:
 537:Middlewares/LVGL/GUI/lvgl/src/core/lv_obj_style_gen.h **** {
 538:Middlewares/LVGL/GUI/lvgl/src/core/lv_obj_style_gen.h ****     lv_style_value_t v = lv_obj_get_style_prop(obj, part, LV_STYLE_LAYOUT);
 674              		.loc 2 538 5 view .LVU166
 675              		.loc 2 538 26 is_stmt 0 view .LVU167
 676 001e 41F26902 		movw	r2, #4201
 677 0022 0021     		movs	r1, #0
 678 0024 FFF7FEFF 		bl	lv_obj_get_style_prop
 679              	.LVL61:
 539:Middlewares/LVGL/GUI/lvgl/src/core/lv_obj_style_gen.h ****     return (uint16_t)v.num;
 680              		.loc 2 539 5 is_stmt 1 view .LVU168
 681              		.loc 2 539 5 is_stmt 0 view .LVU169
 682              	.LBE203:
 683              	.LBE202:
 281:Middlewares/LVGL/GUI/lvgl/src/core/lv_obj_pos.c ****     else return false;
 684              		.loc 1 281 5 is_stmt 1 view .LVU170
 281:Middlewares/LVGL/GUI/lvgl/src/core/lv_obj_pos.c ****     else return false;
ARM GAS  C:\Users\ADMINI~1\AppData\Local\Temp\ccVA75Tx.s 			page 28


 685              		.loc 1 281 7 is_stmt 0 view .LVU171
 686 0028 80B2     		uxth	r0, r0
 687              	.LVL62:
 281:Middlewares/LVGL/GUI/lvgl/src/core/lv_obj_pos.c ****     else return false;
 688              		.loc 1 281 7 view .LVU172
 689 002a 0028     		cmp	r0, #0
 690 002c EFD0     		beq	.L34
 281:Middlewares/LVGL/GUI/lvgl/src/core/lv_obj_pos.c ****     else return false;
 691              		.loc 1 281 23 view .LVU173
 692 002e 0125     		movs	r5, #1
 693 0030 EDE7     		b	.L34
 694              	.L39:
 695 0032 00BF     		.align	2
 696              	.L38:
 697 0034 01000600 		.word	393217
 698              		.cfi_endproc
 699              	.LFE169:
 701              		.section	.text.lv_obj_mark_layout_as_dirty,"ax",%progbits
 702              		.align	1
 703              		.global	lv_obj_mark_layout_as_dirty
 704              		.syntax unified
 705              		.thumb
 706              		.thumb_func
 708              	lv_obj_mark_layout_as_dirty:
 709              	.LVL63:
 710              	.LFB170:
 284:Middlewares/LVGL/GUI/lvgl/src/core/lv_obj_pos.c **** 
 285:Middlewares/LVGL/GUI/lvgl/src/core/lv_obj_pos.c **** void lv_obj_mark_layout_as_dirty(lv_obj_t * obj)
 286:Middlewares/LVGL/GUI/lvgl/src/core/lv_obj_pos.c **** {
 711              		.loc 1 286 1 is_stmt 1 view -0
 712              		.cfi_startproc
 713              		@ args = 0, pretend = 0, frame = 0
 714              		@ frame_needed = 0, uses_anonymous_args = 0
 715              		.loc 1 286 1 is_stmt 0 view .LVU175
 716 0000 08B5     		push	{r3, lr}
 717              	.LCFI21:
 718              		.cfi_def_cfa_offset 8
 719              		.cfi_offset 3, -8
 720              		.cfi_offset 14, -4
 287:Middlewares/LVGL/GUI/lvgl/src/core/lv_obj_pos.c ****     obj->layout_inv = 1;
 721              		.loc 1 287 5 is_stmt 1 view .LVU176
 722              		.loc 1 287 21 is_stmt 0 view .LVU177
 723 0002 90F82A20 		ldrb	r2, [r0, #42]	@ zero_extendqisi2
 724 0006 42F00102 		orr	r2, r2, #1
 725 000a 80F82A20 		strb	r2, [r0, #42]
 288:Middlewares/LVGL/GUI/lvgl/src/core/lv_obj_pos.c **** 
 289:Middlewares/LVGL/GUI/lvgl/src/core/lv_obj_pos.c ****     /*Mark the screen as dirty too to mark that there is something to do on this screen*/
 290:Middlewares/LVGL/GUI/lvgl/src/core/lv_obj_pos.c ****     lv_obj_t * scr = lv_obj_get_screen(obj);
 726              		.loc 1 290 5 is_stmt 1 view .LVU178
 727              		.loc 1 290 22 is_stmt 0 view .LVU179
 728 000e FFF7FEFF 		bl	lv_obj_get_screen
 729              	.LVL64:
 291:Middlewares/LVGL/GUI/lvgl/src/core/lv_obj_pos.c ****     scr->scr_layout_inv = 1;
 730              		.loc 1 291 5 is_stmt 1 view .LVU180
 731              		.loc 1 291 25 is_stmt 0 view .LVU181
 732 0012 90F82A20 		ldrb	r2, [r0, #42]	@ zero_extendqisi2
 733 0016 42F00202 		orr	r2, r2, #2
ARM GAS  C:\Users\ADMINI~1\AppData\Local\Temp\ccVA75Tx.s 			page 29


 734 001a 80F82A20 		strb	r2, [r0, #42]
 292:Middlewares/LVGL/GUI/lvgl/src/core/lv_obj_pos.c **** 
 293:Middlewares/LVGL/GUI/lvgl/src/core/lv_obj_pos.c ****     /*Make the display refreshing*/
 294:Middlewares/LVGL/GUI/lvgl/src/core/lv_obj_pos.c ****     lv_disp_t * disp = lv_obj_get_disp(scr);
 735              		.loc 1 294 5 is_stmt 1 view .LVU182
 736              		.loc 1 294 24 is_stmt 0 view .LVU183
 737 001e FFF7FEFF 		bl	lv_obj_get_disp
 738              	.LVL65:
 295:Middlewares/LVGL/GUI/lvgl/src/core/lv_obj_pos.c ****     if(disp->refr_timer) lv_timer_resume(disp->refr_timer);
 739              		.loc 1 295 5 is_stmt 1 view .LVU184
 740              		.loc 1 295 12 is_stmt 0 view .LVU185
 741 0022 4068     		ldr	r0, [r0, #4]
 742              	.LVL66:
 743              		.loc 1 295 7 view .LVU186
 744 0024 08B1     		cbz	r0, .L40
 745              		.loc 1 295 26 is_stmt 1 discriminator 1 view .LVU187
 746 0026 FFF7FEFF 		bl	lv_timer_resume
 747              	.LVL67:
 748              	.L40:
 296:Middlewares/LVGL/GUI/lvgl/src/core/lv_obj_pos.c **** }
 749              		.loc 1 296 1 is_stmt 0 view .LVU188
 750 002a 08BD     		pop	{r3, pc}
 751              		.cfi_endproc
 752              	.LFE170:
 754              		.section	.text.lv_obj_set_layout,"ax",%progbits
 755              		.align	1
 756              		.global	lv_obj_set_layout
 757              		.syntax unified
 758              		.thumb
 759              		.thumb_func
 761              	lv_obj_set_layout:
 762              	.LVL68:
 763              	.LFB168:
 265:Middlewares/LVGL/GUI/lvgl/src/core/lv_obj_pos.c ****     LV_ASSERT_OBJ(obj, MY_CLASS);
 764              		.loc 1 265 1 is_stmt 1 view -0
 765              		.cfi_startproc
 766              		@ args = 0, pretend = 0, frame = 0
 767              		@ frame_needed = 0, uses_anonymous_args = 0
 265:Middlewares/LVGL/GUI/lvgl/src/core/lv_obj_pos.c ****     LV_ASSERT_OBJ(obj, MY_CLASS);
 768              		.loc 1 265 1 is_stmt 0 view .LVU190
 769 0000 10B5     		push	{r4, lr}
 770              	.LCFI22:
 771              		.cfi_def_cfa_offset 8
 772              		.cfi_offset 4, -8
 773              		.cfi_offset 14, -4
 774 0002 0446     		mov	r4, r0
 266:Middlewares/LVGL/GUI/lvgl/src/core/lv_obj_pos.c **** 
 775              		.loc 1 266 5 is_stmt 1 view .LVU191
 266:Middlewares/LVGL/GUI/lvgl/src/core/lv_obj_pos.c **** 
 776              		.loc 1 266 5 view .LVU192
 266:Middlewares/LVGL/GUI/lvgl/src/core/lv_obj_pos.c **** 
 777              		.loc 1 266 5 view .LVU193
 268:Middlewares/LVGL/GUI/lvgl/src/core/lv_obj_pos.c **** 
 778              		.loc 1 268 5 view .LVU194
 779 0004 0022     		movs	r2, #0
 780 0006 89B2     		uxth	r1, r1
 781              	.LVL69:
ARM GAS  C:\Users\ADMINI~1\AppData\Local\Temp\ccVA75Tx.s 			page 30


 268:Middlewares/LVGL/GUI/lvgl/src/core/lv_obj_pos.c **** 
 782              		.loc 1 268 5 is_stmt 0 view .LVU195
 783 0008 FFF7FEFF 		bl	lv_obj_set_style_layout
 784              	.LVL70:
 270:Middlewares/LVGL/GUI/lvgl/src/core/lv_obj_pos.c **** }
 785              		.loc 1 270 5 is_stmt 1 view .LVU196
 786 000c 2046     		mov	r0, r4
 787 000e FFF7FEFF 		bl	lv_obj_mark_layout_as_dirty
 788              	.LVL71:
 271:Middlewares/LVGL/GUI/lvgl/src/core/lv_obj_pos.c **** 
 789              		.loc 1 271 1 is_stmt 0 view .LVU197
 790 0012 10BD     		pop	{r4, pc}
 271:Middlewares/LVGL/GUI/lvgl/src/core/lv_obj_pos.c **** 
 791              		.loc 1 271 1 view .LVU198
 792              		.cfi_endproc
 793              	.LFE168:
 795              		.section	.text.lv_layout_register,"ax",%progbits
 796              		.align	1
 797              		.global	lv_layout_register
 798              		.syntax unified
 799              		.thumb
 800              		.thumb_func
 802              	lv_layout_register:
 803              	.LVL72:
 804              	.LFB172:
 297:Middlewares/LVGL/GUI/lvgl/src/core/lv_obj_pos.c **** 
 298:Middlewares/LVGL/GUI/lvgl/src/core/lv_obj_pos.c **** void lv_obj_update_layout(const lv_obj_t * obj)
 299:Middlewares/LVGL/GUI/lvgl/src/core/lv_obj_pos.c **** {
 300:Middlewares/LVGL/GUI/lvgl/src/core/lv_obj_pos.c ****     static bool mutex = false;
 301:Middlewares/LVGL/GUI/lvgl/src/core/lv_obj_pos.c ****     if(mutex) {
 302:Middlewares/LVGL/GUI/lvgl/src/core/lv_obj_pos.c ****         LV_LOG_TRACE("Already running, returning");
 303:Middlewares/LVGL/GUI/lvgl/src/core/lv_obj_pos.c ****         return;
 304:Middlewares/LVGL/GUI/lvgl/src/core/lv_obj_pos.c ****     }
 305:Middlewares/LVGL/GUI/lvgl/src/core/lv_obj_pos.c ****     mutex = true;
 306:Middlewares/LVGL/GUI/lvgl/src/core/lv_obj_pos.c **** 
 307:Middlewares/LVGL/GUI/lvgl/src/core/lv_obj_pos.c ****     lv_obj_t * scr = lv_obj_get_screen(obj);
 308:Middlewares/LVGL/GUI/lvgl/src/core/lv_obj_pos.c **** 
 309:Middlewares/LVGL/GUI/lvgl/src/core/lv_obj_pos.c ****     /*Repeat until there where layout invalidations*/
 310:Middlewares/LVGL/GUI/lvgl/src/core/lv_obj_pos.c ****     while(scr->scr_layout_inv) {
 311:Middlewares/LVGL/GUI/lvgl/src/core/lv_obj_pos.c ****         LV_LOG_INFO("Layout update begin");
 312:Middlewares/LVGL/GUI/lvgl/src/core/lv_obj_pos.c ****         scr->scr_layout_inv = 0;
 313:Middlewares/LVGL/GUI/lvgl/src/core/lv_obj_pos.c ****         layout_update_core(scr);
 314:Middlewares/LVGL/GUI/lvgl/src/core/lv_obj_pos.c ****         LV_LOG_TRACE("Layout update end");
 315:Middlewares/LVGL/GUI/lvgl/src/core/lv_obj_pos.c ****     }
 316:Middlewares/LVGL/GUI/lvgl/src/core/lv_obj_pos.c **** 
 317:Middlewares/LVGL/GUI/lvgl/src/core/lv_obj_pos.c ****     mutex = false;
 318:Middlewares/LVGL/GUI/lvgl/src/core/lv_obj_pos.c **** }
 319:Middlewares/LVGL/GUI/lvgl/src/core/lv_obj_pos.c **** 
 320:Middlewares/LVGL/GUI/lvgl/src/core/lv_obj_pos.c **** uint32_t lv_layout_register(lv_layout_update_cb_t cb, void * user_data)
 321:Middlewares/LVGL/GUI/lvgl/src/core/lv_obj_pos.c **** {
 805              		.loc 1 321 1 is_stmt 1 view -0
 806              		.cfi_startproc
 807              		@ args = 0, pretend = 0, frame = 0
 808              		@ frame_needed = 0, uses_anonymous_args = 0
 809              		.loc 1 321 1 is_stmt 0 view .LVU200
 810 0000 70B5     		push	{r4, r5, r6, lr}
 811              	.LCFI23:
ARM GAS  C:\Users\ADMINI~1\AppData\Local\Temp\ccVA75Tx.s 			page 31


 812              		.cfi_def_cfa_offset 16
 813              		.cfi_offset 4, -16
 814              		.cfi_offset 5, -12
 815              		.cfi_offset 6, -8
 816              		.cfi_offset 14, -4
 817 0002 0546     		mov	r5, r0
 818 0004 0C46     		mov	r4, r1
 322:Middlewares/LVGL/GUI/lvgl/src/core/lv_obj_pos.c ****     layout_cnt++;
 819              		.loc 1 322 5 is_stmt 1 view .LVU201
 820              		.loc 1 322 15 is_stmt 0 view .LVU202
 821 0006 0D4A     		ldr	r2, .L49
 822 0008 1368     		ldr	r3, [r2]
 823 000a 0133     		adds	r3, r3, #1
 824 000c 1360     		str	r3, [r2]
 323:Middlewares/LVGL/GUI/lvgl/src/core/lv_obj_pos.c ****     LV_GC_ROOT(_lv_layout_list) = lv_mem_realloc(LV_GC_ROOT(_lv_layout_list), layout_cnt * sizeof(l
 825              		.loc 1 323 5 is_stmt 1 view .LVU203
 826              		.loc 1 323 35 is_stmt 0 view .LVU204
 827 000e 0C4E     		ldr	r6, .L49+4
 828 0010 D900     		lsls	r1, r3, #3
 829              	.LVL73:
 830              		.loc 1 323 35 view .LVU205
 831 0012 3068     		ldr	r0, [r6]
 832              	.LVL74:
 833              		.loc 1 323 35 view .LVU206
 834 0014 FFF7FEFF 		bl	lv_mem_realloc
 835              	.LVL75:
 836              		.loc 1 323 33 view .LVU207
 837 0018 3060     		str	r0, [r6]
 324:Middlewares/LVGL/GUI/lvgl/src/core/lv_obj_pos.c ****     LV_ASSERT_MALLOC(LV_GC_ROOT(_lv_layout_list));
 838              		.loc 1 324 5 is_stmt 1 view .LVU208
 839              		.loc 1 324 5 view .LVU209
 840 001a 68B1     		cbz	r0, .L47
 841 001c 0346     		mov	r3, r0
 842              		.loc 1 324 5 discriminator 2 view .LVU210
 843              		.loc 1 324 50 discriminator 2 view .LVU211
 325:Middlewares/LVGL/GUI/lvgl/src/core/lv_obj_pos.c **** 
 326:Middlewares/LVGL/GUI/lvgl/src/core/lv_obj_pos.c ****     LV_GC_ROOT(_lv_layout_list)[layout_cnt - 1].cb = cb;
 844              		.loc 1 326 5 discriminator 2 view .LVU212
 845              		.loc 1 326 32 is_stmt 0 discriminator 2 view .LVU213
 846 001e 074A     		ldr	r2, .L49
 847 0020 1068     		ldr	r0, [r2]
 848 0022 00F10052 		add	r2, r0, #536870912
 849 0026 013A     		subs	r2, r2, #1
 850              		.loc 1 326 52 discriminator 2 view .LVU214
 851 0028 43F83250 		str	r5, [r3, r2, lsl #3]
 327:Middlewares/LVGL/GUI/lvgl/src/core/lv_obj_pos.c ****     LV_GC_ROOT(_lv_layout_list)[layout_cnt - 1].user_data = user_data;
 852              		.loc 1 327 5 is_stmt 1 discriminator 2 view .LVU215
 853              		.loc 1 327 32 is_stmt 0 discriminator 2 view .LVU216
 854 002c 044B     		ldr	r3, .L49+4
 855 002e 1B68     		ldr	r3, [r3]
 856 0030 03EBC202 		add	r2, r3, r2, lsl #3
 857              		.loc 1 327 59 discriminator 2 view .LVU217
 858 0034 5460     		str	r4, [r2, #4]
 328:Middlewares/LVGL/GUI/lvgl/src/core/lv_obj_pos.c ****     return layout_cnt;  /*No -1 to skip 0th index*/
 859              		.loc 1 328 5 is_stmt 1 discriminator 2 view .LVU218
 329:Middlewares/LVGL/GUI/lvgl/src/core/lv_obj_pos.c **** }
 860              		.loc 1 329 1 is_stmt 0 discriminator 2 view .LVU219
ARM GAS  C:\Users\ADMINI~1\AppData\Local\Temp\ccVA75Tx.s 			page 32


 861 0036 70BD     		pop	{r4, r5, r6, pc}
 862              	.LVL76:
 863              	.L47:
 324:Middlewares/LVGL/GUI/lvgl/src/core/lv_obj_pos.c **** 
 864              		.loc 1 324 5 is_stmt 1 discriminator 1 view .LVU220
 324:Middlewares/LVGL/GUI/lvgl/src/core/lv_obj_pos.c **** 
 865              		.loc 1 324 5 discriminator 1 view .LVU221
 324:Middlewares/LVGL/GUI/lvgl/src/core/lv_obj_pos.c **** 
 866              		.loc 1 324 5 discriminator 1 view .LVU222
 324:Middlewares/LVGL/GUI/lvgl/src/core/lv_obj_pos.c **** 
 867              		.loc 1 324 5 discriminator 1 view .LVU223
 324:Middlewares/LVGL/GUI/lvgl/src/core/lv_obj_pos.c **** 
 868              		.loc 1 324 5 discriminator 1 view .LVU224
 324:Middlewares/LVGL/GUI/lvgl/src/core/lv_obj_pos.c **** 
 869              		.loc 1 324 5 discriminator 1 view .LVU225
 870 0038 FEE7     		b	.L47
 871              	.L50:
 872 003a 00BF     		.align	2
 873              	.L49:
 874 003c 00000000 		.word	.LANCHOR0
 875 0040 00000000 		.word	_lv_layout_list
 876              		.cfi_endproc
 877              	.LFE172:
 879              		.section	.text.lv_obj_set_align,"ax",%progbits
 880              		.align	1
 881              		.global	lv_obj_set_align
 882              		.syntax unified
 883              		.thumb
 884              		.thumb_func
 886              	lv_obj_set_align:
 887              	.LVL77:
 888              	.LFB173:
 330:Middlewares/LVGL/GUI/lvgl/src/core/lv_obj_pos.c **** 
 331:Middlewares/LVGL/GUI/lvgl/src/core/lv_obj_pos.c **** void lv_obj_set_align(lv_obj_t * obj, lv_align_t align)
 332:Middlewares/LVGL/GUI/lvgl/src/core/lv_obj_pos.c **** {
 889              		.loc 1 332 1 view -0
 890              		.cfi_startproc
 891              		@ args = 0, pretend = 0, frame = 0
 892              		@ frame_needed = 0, uses_anonymous_args = 0
 893              		.loc 1 332 1 is_stmt 0 view .LVU227
 894 0000 08B5     		push	{r3, lr}
 895              	.LCFI24:
 896              		.cfi_def_cfa_offset 8
 897              		.cfi_offset 3, -8
 898              		.cfi_offset 14, -4
 333:Middlewares/LVGL/GUI/lvgl/src/core/lv_obj_pos.c ****     lv_obj_set_style_align(obj, align, 0);
 899              		.loc 1 333 5 is_stmt 1 view .LVU228
 900 0002 0022     		movs	r2, #0
 901 0004 FFF7FEFF 		bl	lv_obj_set_style_align
 902              	.LVL78:
 334:Middlewares/LVGL/GUI/lvgl/src/core/lv_obj_pos.c **** }
 903              		.loc 1 334 1 is_stmt 0 view .LVU229
 904 0008 08BD     		pop	{r3, pc}
 905              		.cfi_endproc
 906              	.LFE173:
 908              		.section	.text.lv_obj_align,"ax",%progbits
 909              		.align	1
ARM GAS  C:\Users\ADMINI~1\AppData\Local\Temp\ccVA75Tx.s 			page 33


 910              		.global	lv_obj_align
 911              		.syntax unified
 912              		.thumb
 913              		.thumb_func
 915              	lv_obj_align:
 916              	.LVL79:
 917              	.LFB174:
 335:Middlewares/LVGL/GUI/lvgl/src/core/lv_obj_pos.c **** 
 336:Middlewares/LVGL/GUI/lvgl/src/core/lv_obj_pos.c **** void lv_obj_align(lv_obj_t * obj, lv_align_t align, lv_coord_t x_ofs, lv_coord_t y_ofs)
 337:Middlewares/LVGL/GUI/lvgl/src/core/lv_obj_pos.c **** {
 918              		.loc 1 337 1 is_stmt 1 view -0
 919              		.cfi_startproc
 920              		@ args = 0, pretend = 0, frame = 0
 921              		@ frame_needed = 0, uses_anonymous_args = 0
 922              		.loc 1 337 1 is_stmt 0 view .LVU231
 923 0000 70B5     		push	{r4, r5, r6, lr}
 924              	.LCFI25:
 925              		.cfi_def_cfa_offset 16
 926              		.cfi_offset 4, -16
 927              		.cfi_offset 5, -12
 928              		.cfi_offset 6, -8
 929              		.cfi_offset 14, -4
 930 0002 0446     		mov	r4, r0
 931 0004 1546     		mov	r5, r2
 932 0006 1E46     		mov	r6, r3
 338:Middlewares/LVGL/GUI/lvgl/src/core/lv_obj_pos.c ****     lv_obj_set_style_align(obj, align, 0);
 933              		.loc 1 338 5 is_stmt 1 view .LVU232
 934 0008 0022     		movs	r2, #0
 935              	.LVL80:
 936              		.loc 1 338 5 is_stmt 0 view .LVU233
 937 000a FFF7FEFF 		bl	lv_obj_set_style_align
 938              	.LVL81:
 339:Middlewares/LVGL/GUI/lvgl/src/core/lv_obj_pos.c ****     lv_obj_set_pos(obj, x_ofs, y_ofs);
 939              		.loc 1 339 5 is_stmt 1 view .LVU234
 940 000e 3246     		mov	r2, r6
 941 0010 2946     		mov	r1, r5
 942 0012 2046     		mov	r0, r4
 943 0014 FFF7FEFF 		bl	lv_obj_set_pos
 944              	.LVL82:
 340:Middlewares/LVGL/GUI/lvgl/src/core/lv_obj_pos.c **** }
 945              		.loc 1 340 1 is_stmt 0 view .LVU235
 946 0018 70BD     		pop	{r4, r5, r6, pc}
 947              		.loc 1 340 1 view .LVU236
 948              		.cfi_endproc
 949              	.LFE174:
 951              		.section	.text.lv_obj_get_coords,"ax",%progbits
 952              		.align	1
 953              		.global	lv_obj_get_coords
 954              		.syntax unified
 955              		.thumb
 956              		.thumb_func
 958              	lv_obj_get_coords:
 959              	.LVL83:
 960              	.LFB176:
 341:Middlewares/LVGL/GUI/lvgl/src/core/lv_obj_pos.c **** 
 342:Middlewares/LVGL/GUI/lvgl/src/core/lv_obj_pos.c **** void lv_obj_align_to(lv_obj_t * obj, const lv_obj_t * base, lv_align_t align, lv_coord_t x_ofs, lv_
 343:Middlewares/LVGL/GUI/lvgl/src/core/lv_obj_pos.c **** {
ARM GAS  C:\Users\ADMINI~1\AppData\Local\Temp\ccVA75Tx.s 			page 34


 344:Middlewares/LVGL/GUI/lvgl/src/core/lv_obj_pos.c ****     LV_ASSERT_OBJ(obj, MY_CLASS);
 345:Middlewares/LVGL/GUI/lvgl/src/core/lv_obj_pos.c **** 
 346:Middlewares/LVGL/GUI/lvgl/src/core/lv_obj_pos.c ****     lv_obj_update_layout(obj);
 347:Middlewares/LVGL/GUI/lvgl/src/core/lv_obj_pos.c ****     if(base == NULL) base = lv_obj_get_parent(obj);
 348:Middlewares/LVGL/GUI/lvgl/src/core/lv_obj_pos.c **** 
 349:Middlewares/LVGL/GUI/lvgl/src/core/lv_obj_pos.c ****     LV_ASSERT_OBJ(base, MY_CLASS);
 350:Middlewares/LVGL/GUI/lvgl/src/core/lv_obj_pos.c **** 
 351:Middlewares/LVGL/GUI/lvgl/src/core/lv_obj_pos.c ****     lv_coord_t x = 0;
 352:Middlewares/LVGL/GUI/lvgl/src/core/lv_obj_pos.c ****     lv_coord_t y = 0;
 353:Middlewares/LVGL/GUI/lvgl/src/core/lv_obj_pos.c **** 
 354:Middlewares/LVGL/GUI/lvgl/src/core/lv_obj_pos.c ****     lv_obj_t * parent = lv_obj_get_parent(obj);
 355:Middlewares/LVGL/GUI/lvgl/src/core/lv_obj_pos.c ****     lv_coord_t pborder = lv_obj_get_style_border_width(parent, LV_PART_MAIN);
 356:Middlewares/LVGL/GUI/lvgl/src/core/lv_obj_pos.c ****     lv_coord_t pleft = lv_obj_get_style_pad_left(parent, LV_PART_MAIN) + pborder;
 357:Middlewares/LVGL/GUI/lvgl/src/core/lv_obj_pos.c ****     lv_coord_t ptop = lv_obj_get_style_pad_top(parent, LV_PART_MAIN) + pborder;
 358:Middlewares/LVGL/GUI/lvgl/src/core/lv_obj_pos.c **** 
 359:Middlewares/LVGL/GUI/lvgl/src/core/lv_obj_pos.c ****     lv_coord_t bborder = lv_obj_get_style_border_width(base, LV_PART_MAIN);
 360:Middlewares/LVGL/GUI/lvgl/src/core/lv_obj_pos.c ****     lv_coord_t bleft = lv_obj_get_style_pad_left(base, LV_PART_MAIN) + bborder;
 361:Middlewares/LVGL/GUI/lvgl/src/core/lv_obj_pos.c ****     lv_coord_t btop = lv_obj_get_style_pad_top(base, LV_PART_MAIN) + bborder;
 362:Middlewares/LVGL/GUI/lvgl/src/core/lv_obj_pos.c **** 
 363:Middlewares/LVGL/GUI/lvgl/src/core/lv_obj_pos.c ****     if(align == LV_ALIGN_DEFAULT) {
 364:Middlewares/LVGL/GUI/lvgl/src/core/lv_obj_pos.c ****         if(lv_obj_get_style_base_dir(base, LV_PART_MAIN) == LV_BASE_DIR_RTL) align = LV_ALIGN_TOP_R
 365:Middlewares/LVGL/GUI/lvgl/src/core/lv_obj_pos.c ****         else align = LV_ALIGN_TOP_LEFT;
 366:Middlewares/LVGL/GUI/lvgl/src/core/lv_obj_pos.c ****     }
 367:Middlewares/LVGL/GUI/lvgl/src/core/lv_obj_pos.c **** 
 368:Middlewares/LVGL/GUI/lvgl/src/core/lv_obj_pos.c ****     switch(align) {
 369:Middlewares/LVGL/GUI/lvgl/src/core/lv_obj_pos.c ****         case LV_ALIGN_CENTER:
 370:Middlewares/LVGL/GUI/lvgl/src/core/lv_obj_pos.c ****             x = lv_obj_get_content_width(base) / 2 - lv_obj_get_width(obj) / 2 + bleft;
 371:Middlewares/LVGL/GUI/lvgl/src/core/lv_obj_pos.c ****             y = lv_obj_get_content_height(base) / 2 - lv_obj_get_height(obj) / 2 + btop;
 372:Middlewares/LVGL/GUI/lvgl/src/core/lv_obj_pos.c ****             break;
 373:Middlewares/LVGL/GUI/lvgl/src/core/lv_obj_pos.c ****         case LV_ALIGN_TOP_LEFT:
 374:Middlewares/LVGL/GUI/lvgl/src/core/lv_obj_pos.c ****             x = bleft;
 375:Middlewares/LVGL/GUI/lvgl/src/core/lv_obj_pos.c ****             y = btop;
 376:Middlewares/LVGL/GUI/lvgl/src/core/lv_obj_pos.c ****             break;
 377:Middlewares/LVGL/GUI/lvgl/src/core/lv_obj_pos.c ****         case LV_ALIGN_TOP_MID:
 378:Middlewares/LVGL/GUI/lvgl/src/core/lv_obj_pos.c ****             x = lv_obj_get_content_width(base) / 2 - lv_obj_get_width(obj) / 2 + bleft;
 379:Middlewares/LVGL/GUI/lvgl/src/core/lv_obj_pos.c ****             y = btop;
 380:Middlewares/LVGL/GUI/lvgl/src/core/lv_obj_pos.c ****             break;
 381:Middlewares/LVGL/GUI/lvgl/src/core/lv_obj_pos.c **** 
 382:Middlewares/LVGL/GUI/lvgl/src/core/lv_obj_pos.c ****         case LV_ALIGN_TOP_RIGHT:
 383:Middlewares/LVGL/GUI/lvgl/src/core/lv_obj_pos.c ****             x = lv_obj_get_content_width(base) - lv_obj_get_width(obj) + bleft;
 384:Middlewares/LVGL/GUI/lvgl/src/core/lv_obj_pos.c ****             y = btop;
 385:Middlewares/LVGL/GUI/lvgl/src/core/lv_obj_pos.c ****             break;
 386:Middlewares/LVGL/GUI/lvgl/src/core/lv_obj_pos.c **** 
 387:Middlewares/LVGL/GUI/lvgl/src/core/lv_obj_pos.c ****         case LV_ALIGN_BOTTOM_LEFT:
 388:Middlewares/LVGL/GUI/lvgl/src/core/lv_obj_pos.c ****             x = bleft;
 389:Middlewares/LVGL/GUI/lvgl/src/core/lv_obj_pos.c ****             y = lv_obj_get_content_height(base) - lv_obj_get_height(obj) + btop;
 390:Middlewares/LVGL/GUI/lvgl/src/core/lv_obj_pos.c ****             break;
 391:Middlewares/LVGL/GUI/lvgl/src/core/lv_obj_pos.c ****         case LV_ALIGN_BOTTOM_MID:
 392:Middlewares/LVGL/GUI/lvgl/src/core/lv_obj_pos.c ****             x = lv_obj_get_content_width(base) / 2 - lv_obj_get_width(obj) / 2 + bleft;
 393:Middlewares/LVGL/GUI/lvgl/src/core/lv_obj_pos.c ****             y = lv_obj_get_content_height(base) - lv_obj_get_height(obj) + btop;
 394:Middlewares/LVGL/GUI/lvgl/src/core/lv_obj_pos.c ****             break;
 395:Middlewares/LVGL/GUI/lvgl/src/core/lv_obj_pos.c **** 
 396:Middlewares/LVGL/GUI/lvgl/src/core/lv_obj_pos.c ****         case LV_ALIGN_BOTTOM_RIGHT:
 397:Middlewares/LVGL/GUI/lvgl/src/core/lv_obj_pos.c ****             x = lv_obj_get_content_width(base) - lv_obj_get_width(obj) + bleft;
 398:Middlewares/LVGL/GUI/lvgl/src/core/lv_obj_pos.c ****             y = lv_obj_get_content_height(base) - lv_obj_get_height(obj) + btop;
 399:Middlewares/LVGL/GUI/lvgl/src/core/lv_obj_pos.c ****             break;
 400:Middlewares/LVGL/GUI/lvgl/src/core/lv_obj_pos.c **** 
ARM GAS  C:\Users\ADMINI~1\AppData\Local\Temp\ccVA75Tx.s 			page 35


 401:Middlewares/LVGL/GUI/lvgl/src/core/lv_obj_pos.c ****         case LV_ALIGN_LEFT_MID:
 402:Middlewares/LVGL/GUI/lvgl/src/core/lv_obj_pos.c ****             x = bleft;
 403:Middlewares/LVGL/GUI/lvgl/src/core/lv_obj_pos.c ****             y = lv_obj_get_content_height(base) / 2 - lv_obj_get_height(obj) / 2 + btop;
 404:Middlewares/LVGL/GUI/lvgl/src/core/lv_obj_pos.c ****             break;
 405:Middlewares/LVGL/GUI/lvgl/src/core/lv_obj_pos.c **** 
 406:Middlewares/LVGL/GUI/lvgl/src/core/lv_obj_pos.c ****         case LV_ALIGN_RIGHT_MID:
 407:Middlewares/LVGL/GUI/lvgl/src/core/lv_obj_pos.c ****             x = lv_obj_get_content_width(base) - lv_obj_get_width(obj) + bleft;
 408:Middlewares/LVGL/GUI/lvgl/src/core/lv_obj_pos.c ****             y = lv_obj_get_content_height(base) / 2 - lv_obj_get_height(obj) / 2 + btop;
 409:Middlewares/LVGL/GUI/lvgl/src/core/lv_obj_pos.c ****             break;
 410:Middlewares/LVGL/GUI/lvgl/src/core/lv_obj_pos.c **** 
 411:Middlewares/LVGL/GUI/lvgl/src/core/lv_obj_pos.c ****         case LV_ALIGN_OUT_TOP_LEFT:
 412:Middlewares/LVGL/GUI/lvgl/src/core/lv_obj_pos.c ****             x = 0;
 413:Middlewares/LVGL/GUI/lvgl/src/core/lv_obj_pos.c ****             y = -lv_obj_get_height(obj);
 414:Middlewares/LVGL/GUI/lvgl/src/core/lv_obj_pos.c ****             break;
 415:Middlewares/LVGL/GUI/lvgl/src/core/lv_obj_pos.c **** 
 416:Middlewares/LVGL/GUI/lvgl/src/core/lv_obj_pos.c ****         case LV_ALIGN_OUT_TOP_MID:
 417:Middlewares/LVGL/GUI/lvgl/src/core/lv_obj_pos.c ****             x = lv_obj_get_width(base) / 2 - lv_obj_get_width(obj) / 2;
 418:Middlewares/LVGL/GUI/lvgl/src/core/lv_obj_pos.c ****             y = -lv_obj_get_height(obj);
 419:Middlewares/LVGL/GUI/lvgl/src/core/lv_obj_pos.c ****             break;
 420:Middlewares/LVGL/GUI/lvgl/src/core/lv_obj_pos.c **** 
 421:Middlewares/LVGL/GUI/lvgl/src/core/lv_obj_pos.c ****         case LV_ALIGN_OUT_TOP_RIGHT:
 422:Middlewares/LVGL/GUI/lvgl/src/core/lv_obj_pos.c ****             x = lv_obj_get_width(base) - lv_obj_get_width(obj);
 423:Middlewares/LVGL/GUI/lvgl/src/core/lv_obj_pos.c ****             y = -lv_obj_get_height(obj);
 424:Middlewares/LVGL/GUI/lvgl/src/core/lv_obj_pos.c ****             break;
 425:Middlewares/LVGL/GUI/lvgl/src/core/lv_obj_pos.c **** 
 426:Middlewares/LVGL/GUI/lvgl/src/core/lv_obj_pos.c ****         case LV_ALIGN_OUT_BOTTOM_LEFT:
 427:Middlewares/LVGL/GUI/lvgl/src/core/lv_obj_pos.c ****             x = 0;
 428:Middlewares/LVGL/GUI/lvgl/src/core/lv_obj_pos.c ****             y = lv_obj_get_height(base);
 429:Middlewares/LVGL/GUI/lvgl/src/core/lv_obj_pos.c ****             break;
 430:Middlewares/LVGL/GUI/lvgl/src/core/lv_obj_pos.c **** 
 431:Middlewares/LVGL/GUI/lvgl/src/core/lv_obj_pos.c ****         case LV_ALIGN_OUT_BOTTOM_MID:
 432:Middlewares/LVGL/GUI/lvgl/src/core/lv_obj_pos.c ****             x = lv_obj_get_width(base) / 2 - lv_obj_get_width(obj) / 2;
 433:Middlewares/LVGL/GUI/lvgl/src/core/lv_obj_pos.c ****             y = lv_obj_get_height(base);
 434:Middlewares/LVGL/GUI/lvgl/src/core/lv_obj_pos.c ****             break;
 435:Middlewares/LVGL/GUI/lvgl/src/core/lv_obj_pos.c **** 
 436:Middlewares/LVGL/GUI/lvgl/src/core/lv_obj_pos.c ****         case LV_ALIGN_OUT_BOTTOM_RIGHT:
 437:Middlewares/LVGL/GUI/lvgl/src/core/lv_obj_pos.c ****             x = lv_obj_get_width(base) - lv_obj_get_width(obj);
 438:Middlewares/LVGL/GUI/lvgl/src/core/lv_obj_pos.c ****             y = lv_obj_get_height(base);
 439:Middlewares/LVGL/GUI/lvgl/src/core/lv_obj_pos.c ****             break;
 440:Middlewares/LVGL/GUI/lvgl/src/core/lv_obj_pos.c **** 
 441:Middlewares/LVGL/GUI/lvgl/src/core/lv_obj_pos.c ****         case LV_ALIGN_OUT_LEFT_TOP:
 442:Middlewares/LVGL/GUI/lvgl/src/core/lv_obj_pos.c ****             x = -lv_obj_get_width(obj);
 443:Middlewares/LVGL/GUI/lvgl/src/core/lv_obj_pos.c ****             y = 0;
 444:Middlewares/LVGL/GUI/lvgl/src/core/lv_obj_pos.c ****             break;
 445:Middlewares/LVGL/GUI/lvgl/src/core/lv_obj_pos.c **** 
 446:Middlewares/LVGL/GUI/lvgl/src/core/lv_obj_pos.c ****         case LV_ALIGN_OUT_LEFT_MID:
 447:Middlewares/LVGL/GUI/lvgl/src/core/lv_obj_pos.c ****             x = -lv_obj_get_width(obj);
 448:Middlewares/LVGL/GUI/lvgl/src/core/lv_obj_pos.c ****             y = lv_obj_get_height(base) / 2 - lv_obj_get_height(obj) / 2;
 449:Middlewares/LVGL/GUI/lvgl/src/core/lv_obj_pos.c ****             break;
 450:Middlewares/LVGL/GUI/lvgl/src/core/lv_obj_pos.c **** 
 451:Middlewares/LVGL/GUI/lvgl/src/core/lv_obj_pos.c ****         case LV_ALIGN_OUT_LEFT_BOTTOM:
 452:Middlewares/LVGL/GUI/lvgl/src/core/lv_obj_pos.c ****             x = -lv_obj_get_width(obj);
 453:Middlewares/LVGL/GUI/lvgl/src/core/lv_obj_pos.c ****             y = lv_obj_get_height(base) - lv_obj_get_height(obj);
 454:Middlewares/LVGL/GUI/lvgl/src/core/lv_obj_pos.c ****             break;
 455:Middlewares/LVGL/GUI/lvgl/src/core/lv_obj_pos.c **** 
 456:Middlewares/LVGL/GUI/lvgl/src/core/lv_obj_pos.c ****         case LV_ALIGN_OUT_RIGHT_TOP:
 457:Middlewares/LVGL/GUI/lvgl/src/core/lv_obj_pos.c ****             x = lv_obj_get_width(base);
ARM GAS  C:\Users\ADMINI~1\AppData\Local\Temp\ccVA75Tx.s 			page 36


 458:Middlewares/LVGL/GUI/lvgl/src/core/lv_obj_pos.c ****             y = 0;
 459:Middlewares/LVGL/GUI/lvgl/src/core/lv_obj_pos.c ****             break;
 460:Middlewares/LVGL/GUI/lvgl/src/core/lv_obj_pos.c **** 
 461:Middlewares/LVGL/GUI/lvgl/src/core/lv_obj_pos.c ****         case LV_ALIGN_OUT_RIGHT_MID:
 462:Middlewares/LVGL/GUI/lvgl/src/core/lv_obj_pos.c ****             x = lv_obj_get_width(base);
 463:Middlewares/LVGL/GUI/lvgl/src/core/lv_obj_pos.c ****             y = lv_obj_get_height(base) / 2 - lv_obj_get_height(obj) / 2;
 464:Middlewares/LVGL/GUI/lvgl/src/core/lv_obj_pos.c ****             break;
 465:Middlewares/LVGL/GUI/lvgl/src/core/lv_obj_pos.c **** 
 466:Middlewares/LVGL/GUI/lvgl/src/core/lv_obj_pos.c ****         case LV_ALIGN_OUT_RIGHT_BOTTOM:
 467:Middlewares/LVGL/GUI/lvgl/src/core/lv_obj_pos.c ****             x = lv_obj_get_width(base);
 468:Middlewares/LVGL/GUI/lvgl/src/core/lv_obj_pos.c ****             y = lv_obj_get_height(base) - lv_obj_get_height(obj);
 469:Middlewares/LVGL/GUI/lvgl/src/core/lv_obj_pos.c ****             break;
 470:Middlewares/LVGL/GUI/lvgl/src/core/lv_obj_pos.c ****     }
 471:Middlewares/LVGL/GUI/lvgl/src/core/lv_obj_pos.c **** 
 472:Middlewares/LVGL/GUI/lvgl/src/core/lv_obj_pos.c ****     if(lv_obj_get_style_base_dir(parent, LV_PART_MAIN) == LV_BASE_DIR_RTL) {
 473:Middlewares/LVGL/GUI/lvgl/src/core/lv_obj_pos.c ****         x += x_ofs + base->coords.x1 - parent->coords.x1 + lv_obj_get_scroll_right(parent) - pleft;
 474:Middlewares/LVGL/GUI/lvgl/src/core/lv_obj_pos.c ****     }
 475:Middlewares/LVGL/GUI/lvgl/src/core/lv_obj_pos.c ****     else {
 476:Middlewares/LVGL/GUI/lvgl/src/core/lv_obj_pos.c ****         x += x_ofs + base->coords.x1 - parent->coords.x1 + lv_obj_get_scroll_left(parent) - pleft;
 477:Middlewares/LVGL/GUI/lvgl/src/core/lv_obj_pos.c ****     }
 478:Middlewares/LVGL/GUI/lvgl/src/core/lv_obj_pos.c ****     y += y_ofs + base->coords.y1 - parent->coords.y1 + lv_obj_get_scroll_top(parent) - ptop;
 479:Middlewares/LVGL/GUI/lvgl/src/core/lv_obj_pos.c ****     lv_obj_set_style_align(obj, LV_ALIGN_TOP_LEFT, 0);
 480:Middlewares/LVGL/GUI/lvgl/src/core/lv_obj_pos.c ****     lv_obj_set_pos(obj, x, y);
 481:Middlewares/LVGL/GUI/lvgl/src/core/lv_obj_pos.c **** 
 482:Middlewares/LVGL/GUI/lvgl/src/core/lv_obj_pos.c **** }
 483:Middlewares/LVGL/GUI/lvgl/src/core/lv_obj_pos.c **** 
 484:Middlewares/LVGL/GUI/lvgl/src/core/lv_obj_pos.c **** void lv_obj_get_coords(const lv_obj_t * obj, lv_area_t * coords)
 485:Middlewares/LVGL/GUI/lvgl/src/core/lv_obj_pos.c **** {
 961              		.loc 1 485 1 is_stmt 1 view -0
 962              		.cfi_startproc
 963              		@ args = 0, pretend = 0, frame = 0
 964              		@ frame_needed = 0, uses_anonymous_args = 0
 965              		@ link register save eliminated.
 486:Middlewares/LVGL/GUI/lvgl/src/core/lv_obj_pos.c ****     LV_ASSERT_OBJ(obj, MY_CLASS);
 966              		.loc 1 486 5 view .LVU238
 967              		.loc 1 486 5 view .LVU239
 968              		.loc 1 486 5 view .LVU240
 487:Middlewares/LVGL/GUI/lvgl/src/core/lv_obj_pos.c **** 
 488:Middlewares/LVGL/GUI/lvgl/src/core/lv_obj_pos.c ****     lv_area_copy(coords, &obj->coords);
 969              		.loc 1 488 5 view .LVU241
 970              	.LBB204:
 971              	.LBI204:
 972              		.file 3 "Middlewares/LVGL/GUI/lvgl/src/core/../misc/../font/../misc/lv_area.h"
   1:Middlewares/LVGL/GUI/lvgl/src/core/../misc/../font/../misc/lv_area.h **** /**
   2:Middlewares/LVGL/GUI/lvgl/src/core/../misc/../font/../misc/lv_area.h ****  * @file lv_area.h
   3:Middlewares/LVGL/GUI/lvgl/src/core/../misc/../font/../misc/lv_area.h ****  *
   4:Middlewares/LVGL/GUI/lvgl/src/core/../misc/../font/../misc/lv_area.h ****  */
   5:Middlewares/LVGL/GUI/lvgl/src/core/../misc/../font/../misc/lv_area.h **** 
   6:Middlewares/LVGL/GUI/lvgl/src/core/../misc/../font/../misc/lv_area.h **** #ifndef LV_AREA_H
   7:Middlewares/LVGL/GUI/lvgl/src/core/../misc/../font/../misc/lv_area.h **** #define LV_AREA_H
   8:Middlewares/LVGL/GUI/lvgl/src/core/../misc/../font/../misc/lv_area.h **** 
   9:Middlewares/LVGL/GUI/lvgl/src/core/../misc/../font/../misc/lv_area.h **** #ifdef __cplusplus
  10:Middlewares/LVGL/GUI/lvgl/src/core/../misc/../font/../misc/lv_area.h **** extern "C" {
  11:Middlewares/LVGL/GUI/lvgl/src/core/../misc/../font/../misc/lv_area.h **** #endif
  12:Middlewares/LVGL/GUI/lvgl/src/core/../misc/../font/../misc/lv_area.h **** 
  13:Middlewares/LVGL/GUI/lvgl/src/core/../misc/../font/../misc/lv_area.h **** /*********************
  14:Middlewares/LVGL/GUI/lvgl/src/core/../misc/../font/../misc/lv_area.h ****  *      INCLUDES
ARM GAS  C:\Users\ADMINI~1\AppData\Local\Temp\ccVA75Tx.s 			page 37


  15:Middlewares/LVGL/GUI/lvgl/src/core/../misc/../font/../misc/lv_area.h ****  *********************/
  16:Middlewares/LVGL/GUI/lvgl/src/core/../misc/../font/../misc/lv_area.h **** #include "../lv_conf_internal.h"
  17:Middlewares/LVGL/GUI/lvgl/src/core/../misc/../font/../misc/lv_area.h **** #include <stdbool.h>
  18:Middlewares/LVGL/GUI/lvgl/src/core/../misc/../font/../misc/lv_area.h **** #include <stdint.h>
  19:Middlewares/LVGL/GUI/lvgl/src/core/../misc/../font/../misc/lv_area.h **** 
  20:Middlewares/LVGL/GUI/lvgl/src/core/../misc/../font/../misc/lv_area.h **** /*********************
  21:Middlewares/LVGL/GUI/lvgl/src/core/../misc/../font/../misc/lv_area.h ****  *      DEFINES
  22:Middlewares/LVGL/GUI/lvgl/src/core/../misc/../font/../misc/lv_area.h ****  *********************/
  23:Middlewares/LVGL/GUI/lvgl/src/core/../misc/../font/../misc/lv_area.h **** 
  24:Middlewares/LVGL/GUI/lvgl/src/core/../misc/../font/../misc/lv_area.h **** #if LV_USE_LARGE_COORD
  25:Middlewares/LVGL/GUI/lvgl/src/core/../misc/../font/../misc/lv_area.h **** typedef int32_t lv_coord_t;
  26:Middlewares/LVGL/GUI/lvgl/src/core/../misc/../font/../misc/lv_area.h **** #else
  27:Middlewares/LVGL/GUI/lvgl/src/core/../misc/../font/../misc/lv_area.h **** typedef int16_t lv_coord_t;
  28:Middlewares/LVGL/GUI/lvgl/src/core/../misc/../font/../misc/lv_area.h **** #endif
  29:Middlewares/LVGL/GUI/lvgl/src/core/../misc/../font/../misc/lv_area.h **** 
  30:Middlewares/LVGL/GUI/lvgl/src/core/../misc/../font/../misc/lv_area.h **** /**********************
  31:Middlewares/LVGL/GUI/lvgl/src/core/../misc/../font/../misc/lv_area.h ****  *      TYPEDEFS
  32:Middlewares/LVGL/GUI/lvgl/src/core/../misc/../font/../misc/lv_area.h ****  **********************/
  33:Middlewares/LVGL/GUI/lvgl/src/core/../misc/../font/../misc/lv_area.h **** 
  34:Middlewares/LVGL/GUI/lvgl/src/core/../misc/../font/../misc/lv_area.h **** /**
  35:Middlewares/LVGL/GUI/lvgl/src/core/../misc/../font/../misc/lv_area.h ****  * Represents a point on the screen.
  36:Middlewares/LVGL/GUI/lvgl/src/core/../misc/../font/../misc/lv_area.h ****  */
  37:Middlewares/LVGL/GUI/lvgl/src/core/../misc/../font/../misc/lv_area.h **** typedef struct {
  38:Middlewares/LVGL/GUI/lvgl/src/core/../misc/../font/../misc/lv_area.h ****     lv_coord_t x;
  39:Middlewares/LVGL/GUI/lvgl/src/core/../misc/../font/../misc/lv_area.h ****     lv_coord_t y;
  40:Middlewares/LVGL/GUI/lvgl/src/core/../misc/../font/../misc/lv_area.h **** } lv_point_t;
  41:Middlewares/LVGL/GUI/lvgl/src/core/../misc/../font/../misc/lv_area.h **** 
  42:Middlewares/LVGL/GUI/lvgl/src/core/../misc/../font/../misc/lv_area.h **** /** Represents an area of the screen.*/
  43:Middlewares/LVGL/GUI/lvgl/src/core/../misc/../font/../misc/lv_area.h **** typedef struct {
  44:Middlewares/LVGL/GUI/lvgl/src/core/../misc/../font/../misc/lv_area.h ****     lv_coord_t x1;
  45:Middlewares/LVGL/GUI/lvgl/src/core/../misc/../font/../misc/lv_area.h ****     lv_coord_t y1;
  46:Middlewares/LVGL/GUI/lvgl/src/core/../misc/../font/../misc/lv_area.h ****     lv_coord_t x2;
  47:Middlewares/LVGL/GUI/lvgl/src/core/../misc/../font/../misc/lv_area.h ****     lv_coord_t y2;
  48:Middlewares/LVGL/GUI/lvgl/src/core/../misc/../font/../misc/lv_area.h **** } lv_area_t;
  49:Middlewares/LVGL/GUI/lvgl/src/core/../misc/../font/../misc/lv_area.h **** 
  50:Middlewares/LVGL/GUI/lvgl/src/core/../misc/../font/../misc/lv_area.h **** /** Alignments*/
  51:Middlewares/LVGL/GUI/lvgl/src/core/../misc/../font/../misc/lv_area.h **** enum {
  52:Middlewares/LVGL/GUI/lvgl/src/core/../misc/../font/../misc/lv_area.h ****     LV_ALIGN_DEFAULT = 0,
  53:Middlewares/LVGL/GUI/lvgl/src/core/../misc/../font/../misc/lv_area.h ****     LV_ALIGN_TOP_LEFT,
  54:Middlewares/LVGL/GUI/lvgl/src/core/../misc/../font/../misc/lv_area.h ****     LV_ALIGN_TOP_MID,
  55:Middlewares/LVGL/GUI/lvgl/src/core/../misc/../font/../misc/lv_area.h ****     LV_ALIGN_TOP_RIGHT,
  56:Middlewares/LVGL/GUI/lvgl/src/core/../misc/../font/../misc/lv_area.h ****     LV_ALIGN_BOTTOM_LEFT,
  57:Middlewares/LVGL/GUI/lvgl/src/core/../misc/../font/../misc/lv_area.h ****     LV_ALIGN_BOTTOM_MID,
  58:Middlewares/LVGL/GUI/lvgl/src/core/../misc/../font/../misc/lv_area.h ****     LV_ALIGN_BOTTOM_RIGHT,
  59:Middlewares/LVGL/GUI/lvgl/src/core/../misc/../font/../misc/lv_area.h ****     LV_ALIGN_LEFT_MID,
  60:Middlewares/LVGL/GUI/lvgl/src/core/../misc/../font/../misc/lv_area.h ****     LV_ALIGN_RIGHT_MID,
  61:Middlewares/LVGL/GUI/lvgl/src/core/../misc/../font/../misc/lv_area.h ****     LV_ALIGN_CENTER,
  62:Middlewares/LVGL/GUI/lvgl/src/core/../misc/../font/../misc/lv_area.h **** 
  63:Middlewares/LVGL/GUI/lvgl/src/core/../misc/../font/../misc/lv_area.h ****     LV_ALIGN_OUT_TOP_LEFT,
  64:Middlewares/LVGL/GUI/lvgl/src/core/../misc/../font/../misc/lv_area.h ****     LV_ALIGN_OUT_TOP_MID,
  65:Middlewares/LVGL/GUI/lvgl/src/core/../misc/../font/../misc/lv_area.h ****     LV_ALIGN_OUT_TOP_RIGHT,
  66:Middlewares/LVGL/GUI/lvgl/src/core/../misc/../font/../misc/lv_area.h ****     LV_ALIGN_OUT_BOTTOM_LEFT,
  67:Middlewares/LVGL/GUI/lvgl/src/core/../misc/../font/../misc/lv_area.h ****     LV_ALIGN_OUT_BOTTOM_MID,
  68:Middlewares/LVGL/GUI/lvgl/src/core/../misc/../font/../misc/lv_area.h ****     LV_ALIGN_OUT_BOTTOM_RIGHT,
  69:Middlewares/LVGL/GUI/lvgl/src/core/../misc/../font/../misc/lv_area.h ****     LV_ALIGN_OUT_LEFT_TOP,
  70:Middlewares/LVGL/GUI/lvgl/src/core/../misc/../font/../misc/lv_area.h ****     LV_ALIGN_OUT_LEFT_MID,
  71:Middlewares/LVGL/GUI/lvgl/src/core/../misc/../font/../misc/lv_area.h ****     LV_ALIGN_OUT_LEFT_BOTTOM,
ARM GAS  C:\Users\ADMINI~1\AppData\Local\Temp\ccVA75Tx.s 			page 38


  72:Middlewares/LVGL/GUI/lvgl/src/core/../misc/../font/../misc/lv_area.h ****     LV_ALIGN_OUT_RIGHT_TOP,
  73:Middlewares/LVGL/GUI/lvgl/src/core/../misc/../font/../misc/lv_area.h ****     LV_ALIGN_OUT_RIGHT_MID,
  74:Middlewares/LVGL/GUI/lvgl/src/core/../misc/../font/../misc/lv_area.h ****     LV_ALIGN_OUT_RIGHT_BOTTOM,
  75:Middlewares/LVGL/GUI/lvgl/src/core/../misc/../font/../misc/lv_area.h **** };
  76:Middlewares/LVGL/GUI/lvgl/src/core/../misc/../font/../misc/lv_area.h **** typedef uint8_t lv_align_t;
  77:Middlewares/LVGL/GUI/lvgl/src/core/../misc/../font/../misc/lv_area.h **** 
  78:Middlewares/LVGL/GUI/lvgl/src/core/../misc/../font/../misc/lv_area.h **** enum {
  79:Middlewares/LVGL/GUI/lvgl/src/core/../misc/../font/../misc/lv_area.h ****     LV_DIR_NONE     = 0x00,
  80:Middlewares/LVGL/GUI/lvgl/src/core/../misc/../font/../misc/lv_area.h ****     LV_DIR_LEFT     = (1 << 0),
  81:Middlewares/LVGL/GUI/lvgl/src/core/../misc/../font/../misc/lv_area.h ****     LV_DIR_RIGHT    = (1 << 1),
  82:Middlewares/LVGL/GUI/lvgl/src/core/../misc/../font/../misc/lv_area.h ****     LV_DIR_TOP      = (1 << 2),
  83:Middlewares/LVGL/GUI/lvgl/src/core/../misc/../font/../misc/lv_area.h ****     LV_DIR_BOTTOM   = (1 << 3),
  84:Middlewares/LVGL/GUI/lvgl/src/core/../misc/../font/../misc/lv_area.h ****     LV_DIR_HOR      = LV_DIR_LEFT | LV_DIR_RIGHT,
  85:Middlewares/LVGL/GUI/lvgl/src/core/../misc/../font/../misc/lv_area.h ****     LV_DIR_VER      = LV_DIR_TOP | LV_DIR_BOTTOM,
  86:Middlewares/LVGL/GUI/lvgl/src/core/../misc/../font/../misc/lv_area.h ****     LV_DIR_ALL      = LV_DIR_HOR | LV_DIR_VER,
  87:Middlewares/LVGL/GUI/lvgl/src/core/../misc/../font/../misc/lv_area.h **** };
  88:Middlewares/LVGL/GUI/lvgl/src/core/../misc/../font/../misc/lv_area.h **** 
  89:Middlewares/LVGL/GUI/lvgl/src/core/../misc/../font/../misc/lv_area.h **** typedef uint8_t lv_dir_t;
  90:Middlewares/LVGL/GUI/lvgl/src/core/../misc/../font/../misc/lv_area.h **** 
  91:Middlewares/LVGL/GUI/lvgl/src/core/../misc/../font/../misc/lv_area.h **** /**********************
  92:Middlewares/LVGL/GUI/lvgl/src/core/../misc/../font/../misc/lv_area.h ****  * GLOBAL PROTOTYPES
  93:Middlewares/LVGL/GUI/lvgl/src/core/../misc/../font/../misc/lv_area.h ****  **********************/
  94:Middlewares/LVGL/GUI/lvgl/src/core/../misc/../font/../misc/lv_area.h **** 
  95:Middlewares/LVGL/GUI/lvgl/src/core/../misc/../font/../misc/lv_area.h **** /**
  96:Middlewares/LVGL/GUI/lvgl/src/core/../misc/../font/../misc/lv_area.h ****  * Initialize an area
  97:Middlewares/LVGL/GUI/lvgl/src/core/../misc/../font/../misc/lv_area.h ****  * @param area_p pointer to an area
  98:Middlewares/LVGL/GUI/lvgl/src/core/../misc/../font/../misc/lv_area.h ****  * @param x1 left coordinate of the area
  99:Middlewares/LVGL/GUI/lvgl/src/core/../misc/../font/../misc/lv_area.h ****  * @param y1 top coordinate of the area
 100:Middlewares/LVGL/GUI/lvgl/src/core/../misc/../font/../misc/lv_area.h ****  * @param x2 right coordinate of the area
 101:Middlewares/LVGL/GUI/lvgl/src/core/../misc/../font/../misc/lv_area.h ****  * @param y2 bottom coordinate of the area
 102:Middlewares/LVGL/GUI/lvgl/src/core/../misc/../font/../misc/lv_area.h ****  */
 103:Middlewares/LVGL/GUI/lvgl/src/core/../misc/../font/../misc/lv_area.h **** void lv_area_set(lv_area_t * area_p, lv_coord_t x1, lv_coord_t y1, lv_coord_t x2, lv_coord_t y2);
 104:Middlewares/LVGL/GUI/lvgl/src/core/../misc/../font/../misc/lv_area.h **** 
 105:Middlewares/LVGL/GUI/lvgl/src/core/../misc/../font/../misc/lv_area.h **** /**
 106:Middlewares/LVGL/GUI/lvgl/src/core/../misc/../font/../misc/lv_area.h ****  * Copy an area
 107:Middlewares/LVGL/GUI/lvgl/src/core/../misc/../font/../misc/lv_area.h ****  * @param dest pointer to the destination area
 108:Middlewares/LVGL/GUI/lvgl/src/core/../misc/../font/../misc/lv_area.h ****  * @param src pointer to the source area
 109:Middlewares/LVGL/GUI/lvgl/src/core/../misc/../font/../misc/lv_area.h ****  */
 110:Middlewares/LVGL/GUI/lvgl/src/core/../misc/../font/../misc/lv_area.h **** inline static void lv_area_copy(lv_area_t * dest, const lv_area_t * src)
 973              		.loc 3 110 20 view .LVU242
 974              	.LBB205:
 111:Middlewares/LVGL/GUI/lvgl/src/core/../misc/../font/../misc/lv_area.h **** {
 112:Middlewares/LVGL/GUI/lvgl/src/core/../misc/../font/../misc/lv_area.h ****     dest->x1 = src->x1;
 975              		.loc 3 112 5 view .LVU243
 976              		.loc 3 112 19 is_stmt 0 view .LVU244
 977 0000 4369     		ldr	r3, [r0, #20]
 978              		.loc 3 112 14 view .LVU245
 979 0002 0B60     		str	r3, [r1]
 113:Middlewares/LVGL/GUI/lvgl/src/core/../misc/../font/../misc/lv_area.h ****     dest->y1 = src->y1;
 980              		.loc 3 113 5 is_stmt 1 view .LVU246
 981              		.loc 3 113 19 is_stmt 0 view .LVU247
 982 0004 8369     		ldr	r3, [r0, #24]
 983              		.loc 3 113 14 view .LVU248
 984 0006 4B60     		str	r3, [r1, #4]
 114:Middlewares/LVGL/GUI/lvgl/src/core/../misc/../font/../misc/lv_area.h ****     dest->x2 = src->x2;
 985              		.loc 3 114 5 is_stmt 1 view .LVU249
 986              		.loc 3 114 19 is_stmt 0 view .LVU250
ARM GAS  C:\Users\ADMINI~1\AppData\Local\Temp\ccVA75Tx.s 			page 39


 987 0008 C369     		ldr	r3, [r0, #28]
 988              		.loc 3 114 14 view .LVU251
 989 000a 8B60     		str	r3, [r1, #8]
 115:Middlewares/LVGL/GUI/lvgl/src/core/../misc/../font/../misc/lv_area.h ****     dest->y2 = src->y2;
 990              		.loc 3 115 5 is_stmt 1 view .LVU252
 991              		.loc 3 115 19 is_stmt 0 view .LVU253
 992 000c 036A     		ldr	r3, [r0, #32]
 993              		.loc 3 115 14 view .LVU254
 994 000e CB60     		str	r3, [r1, #12]
 995              	.LVL84:
 996              		.loc 3 115 14 view .LVU255
 997              	.LBE205:
 998              	.LBE204:
 489:Middlewares/LVGL/GUI/lvgl/src/core/lv_obj_pos.c **** }
 999              		.loc 1 489 1 view .LVU256
 1000 0010 7047     		bx	lr
 1001              		.cfi_endproc
 1002              	.LFE176:
 1004              		.section	.text.lv_obj_get_x,"ax",%progbits
 1005              		.align	1
 1006              		.global	lv_obj_get_x
 1007              		.syntax unified
 1008              		.thumb
 1009              		.thumb_func
 1011              	lv_obj_get_x:
 1012              	.LVL85:
 1013              	.LFB177:
 490:Middlewares/LVGL/GUI/lvgl/src/core/lv_obj_pos.c **** 
 491:Middlewares/LVGL/GUI/lvgl/src/core/lv_obj_pos.c **** lv_coord_t lv_obj_get_x(const lv_obj_t * obj)
 492:Middlewares/LVGL/GUI/lvgl/src/core/lv_obj_pos.c **** {
 1014              		.loc 1 492 1 is_stmt 1 view -0
 1015              		.cfi_startproc
 1016              		@ args = 0, pretend = 0, frame = 0
 1017              		@ frame_needed = 0, uses_anonymous_args = 0
 1018              		.loc 1 492 1 is_stmt 0 view .LVU258
 1019 0000 38B5     		push	{r3, r4, r5, lr}
 1020              	.LCFI26:
 1021              		.cfi_def_cfa_offset 16
 1022              		.cfi_offset 3, -16
 1023              		.cfi_offset 4, -12
 1024              		.cfi_offset 5, -8
 1025              		.cfi_offset 14, -4
 1026 0002 0446     		mov	r4, r0
 493:Middlewares/LVGL/GUI/lvgl/src/core/lv_obj_pos.c ****     LV_ASSERT_OBJ(obj, MY_CLASS);
 1027              		.loc 1 493 5 is_stmt 1 view .LVU259
 1028              		.loc 1 493 5 view .LVU260
 1029              		.loc 1 493 5 view .LVU261
 494:Middlewares/LVGL/GUI/lvgl/src/core/lv_obj_pos.c **** 
 495:Middlewares/LVGL/GUI/lvgl/src/core/lv_obj_pos.c ****     lv_coord_t rel_x;
 1030              		.loc 1 495 5 view .LVU262
 496:Middlewares/LVGL/GUI/lvgl/src/core/lv_obj_pos.c ****     lv_obj_t * parent = lv_obj_get_parent(obj);
 1031              		.loc 1 496 5 view .LVU263
 1032              		.loc 1 496 25 is_stmt 0 view .LVU264
 1033 0004 FFF7FEFF 		bl	lv_obj_get_parent
 1034              	.LVL86:
 497:Middlewares/LVGL/GUI/lvgl/src/core/lv_obj_pos.c ****     if(parent) {
 1035              		.loc 1 497 5 is_stmt 1 view .LVU265
ARM GAS  C:\Users\ADMINI~1\AppData\Local\Temp\ccVA75Tx.s 			page 40


 1036              		.loc 1 497 7 is_stmt 0 view .LVU266
 1037 0008 B0B1     		cbz	r0, .L57
 1038 000a 0546     		mov	r5, r0
 498:Middlewares/LVGL/GUI/lvgl/src/core/lv_obj_pos.c ****         rel_x  = obj->coords.x1 - parent->coords.x1;
 1039              		.loc 1 498 9 is_stmt 1 view .LVU267
 1040              		.loc 1 498 29 is_stmt 0 view .LVU268
 1041 000c 6469     		ldr	r4, [r4, #20]
 1042              	.LVL87:
 1043              		.loc 1 498 49 view .LVU269
 1044 000e 4069     		ldr	r0, [r0, #20]
 1045              	.LVL88:
 1046              		.loc 1 498 16 view .LVU270
 1047 0010 241A     		subs	r4, r4, r0
 1048              	.LVL89:
 499:Middlewares/LVGL/GUI/lvgl/src/core/lv_obj_pos.c ****         rel_x += lv_obj_get_scroll_x(parent);
 1049              		.loc 1 499 9 is_stmt 1 view .LVU271
 1050              		.loc 1 499 18 is_stmt 0 view .LVU272
 1051 0012 2846     		mov	r0, r5
 1052 0014 FFF7FEFF 		bl	lv_obj_get_scroll_x
 1053              	.LVL90:
 1054              		.loc 1 499 15 view .LVU273
 1055 0018 0444     		add	r4, r4, r0
 1056              	.LVL91:
 500:Middlewares/LVGL/GUI/lvgl/src/core/lv_obj_pos.c ****         rel_x -= lv_obj_get_style_pad_left(parent, LV_PART_MAIN);
 1057              		.loc 1 500 9 is_stmt 1 view .LVU274
 1058              	.LBB206:
 1059              	.LBI206:
 103:Middlewares/LVGL/GUI/lvgl/src/core/lv_obj_style_gen.h **** {
 1060              		.loc 2 103 26 view .LVU275
 1061              	.LBB207:
 105:Middlewares/LVGL/GUI/lvgl/src/core/lv_obj_style_gen.h ****     return (lv_coord_t)v.num;
 1062              		.loc 2 105 5 view .LVU276
 105:Middlewares/LVGL/GUI/lvgl/src/core/lv_obj_style_gen.h ****     return (lv_coord_t)v.num;
 1063              		.loc 2 105 26 is_stmt 0 view .LVU277
 1064 001a 41F61202 		movw	r2, #6162
 1065 001e 0021     		movs	r1, #0
 1066 0020 2846     		mov	r0, r5
 1067 0022 FFF7FEFF 		bl	lv_obj_get_style_prop
 1068              	.LVL92:
 106:Middlewares/LVGL/GUI/lvgl/src/core/lv_obj_style_gen.h **** }
 1069              		.loc 2 106 5 is_stmt 1 view .LVU278
 106:Middlewares/LVGL/GUI/lvgl/src/core/lv_obj_style_gen.h **** }
 1070              		.loc 2 106 5 is_stmt 0 view .LVU279
 1071              	.LBE207:
 1072              	.LBE206:
 1073              		.loc 1 500 15 view .LVU280
 1074 0026 241A     		subs	r4, r4, r0
 1075              	.LVL93:
 501:Middlewares/LVGL/GUI/lvgl/src/core/lv_obj_pos.c ****         rel_x -= lv_obj_get_style_border_width(parent, LV_PART_MAIN);
 1076              		.loc 1 501 9 is_stmt 1 view .LVU281
 1077              	.LBB208:
 1078              	.LBI208:
 241:Middlewares/LVGL/GUI/lvgl/src/core/lv_obj_style_gen.h **** {
 1079              		.loc 2 241 26 view .LVU282
 1080              	.LBB209:
 243:Middlewares/LVGL/GUI/lvgl/src/core/lv_obj_style_gen.h ****     return (lv_coord_t)v.num;
 1081              		.loc 2 243 5 view .LVU283
ARM GAS  C:\Users\ADMINI~1\AppData\Local\Temp\ccVA75Tx.s 			page 41


 243:Middlewares/LVGL/GUI/lvgl/src/core/lv_obj_style_gen.h ****     return (lv_coord_t)v.num;
 1082              		.loc 2 243 26 is_stmt 0 view .LVU284
 1083 0028 41F23202 		movw	r2, #4146
 1084 002c 0021     		movs	r1, #0
 1085 002e 2846     		mov	r0, r5
 1086 0030 FFF7FEFF 		bl	lv_obj_get_style_prop
 1087              	.LVL94:
 244:Middlewares/LVGL/GUI/lvgl/src/core/lv_obj_style_gen.h **** }
 1088              		.loc 2 244 5 is_stmt 1 view .LVU285
 244:Middlewares/LVGL/GUI/lvgl/src/core/lv_obj_style_gen.h **** }
 1089              		.loc 2 244 5 is_stmt 0 view .LVU286
 1090              	.LBE209:
 1091              	.LBE208:
 1092              		.loc 1 501 15 view .LVU287
 1093 0034 201A     		subs	r0, r4, r0
 1094              	.LVL95:
 1095              	.L56:
 502:Middlewares/LVGL/GUI/lvgl/src/core/lv_obj_pos.c ****     }
 503:Middlewares/LVGL/GUI/lvgl/src/core/lv_obj_pos.c ****     else {
 504:Middlewares/LVGL/GUI/lvgl/src/core/lv_obj_pos.c ****         rel_x = obj->coords.x1;
 505:Middlewares/LVGL/GUI/lvgl/src/core/lv_obj_pos.c ****     }
 506:Middlewares/LVGL/GUI/lvgl/src/core/lv_obj_pos.c ****     return rel_x;
 507:Middlewares/LVGL/GUI/lvgl/src/core/lv_obj_pos.c **** }
 1096              		.loc 1 507 1 view .LVU288
 1097 0036 38BD     		pop	{r3, r4, r5, pc}
 1098              	.LVL96:
 1099              	.L57:
 504:Middlewares/LVGL/GUI/lvgl/src/core/lv_obj_pos.c ****     }
 1100              		.loc 1 504 9 is_stmt 1 view .LVU289
 504:Middlewares/LVGL/GUI/lvgl/src/core/lv_obj_pos.c ****     }
 1101              		.loc 1 504 15 is_stmt 0 view .LVU290
 1102 0038 6069     		ldr	r0, [r4, #20]
 1103              	.LVL97:
 506:Middlewares/LVGL/GUI/lvgl/src/core/lv_obj_pos.c **** }
 1104              		.loc 1 506 5 is_stmt 1 view .LVU291
 506:Middlewares/LVGL/GUI/lvgl/src/core/lv_obj_pos.c **** }
 1105              		.loc 1 506 12 is_stmt 0 view .LVU292
 1106 003a FCE7     		b	.L56
 1107              		.cfi_endproc
 1108              	.LFE177:
 1110              		.section	.text.lv_obj_get_y,"ax",%progbits
 1111              		.align	1
 1112              		.global	lv_obj_get_y
 1113              		.syntax unified
 1114              		.thumb
 1115              		.thumb_func
 1117              	lv_obj_get_y:
 1118              	.LVL98:
 1119              	.LFB179:
 508:Middlewares/LVGL/GUI/lvgl/src/core/lv_obj_pos.c **** 
 509:Middlewares/LVGL/GUI/lvgl/src/core/lv_obj_pos.c **** lv_coord_t lv_obj_get_x2(const lv_obj_t * obj)
 510:Middlewares/LVGL/GUI/lvgl/src/core/lv_obj_pos.c **** {
 511:Middlewares/LVGL/GUI/lvgl/src/core/lv_obj_pos.c ****     LV_ASSERT_OBJ(obj, MY_CLASS);
 512:Middlewares/LVGL/GUI/lvgl/src/core/lv_obj_pos.c **** 
 513:Middlewares/LVGL/GUI/lvgl/src/core/lv_obj_pos.c ****     return lv_obj_get_x(obj) + lv_obj_get_width(obj);
 514:Middlewares/LVGL/GUI/lvgl/src/core/lv_obj_pos.c **** }
 515:Middlewares/LVGL/GUI/lvgl/src/core/lv_obj_pos.c **** 
ARM GAS  C:\Users\ADMINI~1\AppData\Local\Temp\ccVA75Tx.s 			page 42


 516:Middlewares/LVGL/GUI/lvgl/src/core/lv_obj_pos.c **** lv_coord_t lv_obj_get_y(const lv_obj_t * obj)
 517:Middlewares/LVGL/GUI/lvgl/src/core/lv_obj_pos.c **** {
 1120              		.loc 1 517 1 is_stmt 1 view -0
 1121              		.cfi_startproc
 1122              		@ args = 0, pretend = 0, frame = 0
 1123              		@ frame_needed = 0, uses_anonymous_args = 0
 1124              		.loc 1 517 1 is_stmt 0 view .LVU294
 1125 0000 38B5     		push	{r3, r4, r5, lr}
 1126              	.LCFI27:
 1127              		.cfi_def_cfa_offset 16
 1128              		.cfi_offset 3, -16
 1129              		.cfi_offset 4, -12
 1130              		.cfi_offset 5, -8
 1131              		.cfi_offset 14, -4
 1132 0002 0446     		mov	r4, r0
 518:Middlewares/LVGL/GUI/lvgl/src/core/lv_obj_pos.c ****     LV_ASSERT_OBJ(obj, MY_CLASS);
 1133              		.loc 1 518 5 is_stmt 1 view .LVU295
 1134              		.loc 1 518 5 view .LVU296
 1135              		.loc 1 518 5 view .LVU297
 519:Middlewares/LVGL/GUI/lvgl/src/core/lv_obj_pos.c **** 
 520:Middlewares/LVGL/GUI/lvgl/src/core/lv_obj_pos.c ****     lv_coord_t rel_y;
 1136              		.loc 1 520 5 view .LVU298
 521:Middlewares/LVGL/GUI/lvgl/src/core/lv_obj_pos.c ****     lv_obj_t * parent = lv_obj_get_parent(obj);
 1137              		.loc 1 521 5 view .LVU299
 1138              		.loc 1 521 25 is_stmt 0 view .LVU300
 1139 0004 FFF7FEFF 		bl	lv_obj_get_parent
 1140              	.LVL99:
 522:Middlewares/LVGL/GUI/lvgl/src/core/lv_obj_pos.c ****     if(parent) {
 1141              		.loc 1 522 5 is_stmt 1 view .LVU301
 1142              		.loc 1 522 7 is_stmt 0 view .LVU302
 1143 0008 B0B1     		cbz	r0, .L61
 1144 000a 0546     		mov	r5, r0
 523:Middlewares/LVGL/GUI/lvgl/src/core/lv_obj_pos.c ****         rel_y = obj->coords.y1 - parent->coords.y1;
 1145              		.loc 1 523 9 is_stmt 1 view .LVU303
 1146              		.loc 1 523 28 is_stmt 0 view .LVU304
 1147 000c A469     		ldr	r4, [r4, #24]
 1148              	.LVL100:
 1149              		.loc 1 523 48 view .LVU305
 1150 000e 8069     		ldr	r0, [r0, #24]
 1151              	.LVL101:
 1152              		.loc 1 523 15 view .LVU306
 1153 0010 241A     		subs	r4, r4, r0
 1154              	.LVL102:
 524:Middlewares/LVGL/GUI/lvgl/src/core/lv_obj_pos.c ****         rel_y += lv_obj_get_scroll_y(parent);
 1155              		.loc 1 524 9 is_stmt 1 view .LVU307
 1156              		.loc 1 524 18 is_stmt 0 view .LVU308
 1157 0012 2846     		mov	r0, r5
 1158 0014 FFF7FEFF 		bl	lv_obj_get_scroll_y
 1159              	.LVL103:
 1160              		.loc 1 524 15 view .LVU309
 1161 0018 0444     		add	r4, r4, r0
 1162              	.LVL104:
 525:Middlewares/LVGL/GUI/lvgl/src/core/lv_obj_pos.c ****         rel_y -= lv_obj_get_style_pad_top(parent, LV_PART_MAIN);
 1163              		.loc 1 525 9 is_stmt 1 view .LVU310
 1164              	.LBB210:
 1165              	.LBI210:
  91:Middlewares/LVGL/GUI/lvgl/src/core/lv_obj_style_gen.h **** {
ARM GAS  C:\Users\ADMINI~1\AppData\Local\Temp\ccVA75Tx.s 			page 43


 1166              		.loc 2 91 26 view .LVU311
 1167              	.LBB211:
  93:Middlewares/LVGL/GUI/lvgl/src/core/lv_obj_style_gen.h ****     return (lv_coord_t)v.num;
 1168              		.loc 2 93 5 view .LVU312
  93:Middlewares/LVGL/GUI/lvgl/src/core/lv_obj_style_gen.h ****     return (lv_coord_t)v.num;
 1169              		.loc 2 93 26 is_stmt 0 view .LVU313
 1170 001a 41F61002 		movw	r2, #6160
 1171 001e 0021     		movs	r1, #0
 1172 0020 2846     		mov	r0, r5
 1173 0022 FFF7FEFF 		bl	lv_obj_get_style_prop
 1174              	.LVL105:
  94:Middlewares/LVGL/GUI/lvgl/src/core/lv_obj_style_gen.h **** }
 1175              		.loc 2 94 5 is_stmt 1 view .LVU314
  94:Middlewares/LVGL/GUI/lvgl/src/core/lv_obj_style_gen.h **** }
 1176              		.loc 2 94 5 is_stmt 0 view .LVU315
 1177              	.LBE211:
 1178              	.LBE210:
 1179              		.loc 1 525 15 view .LVU316
 1180 0026 241A     		subs	r4, r4, r0
 1181              	.LVL106:
 526:Middlewares/LVGL/GUI/lvgl/src/core/lv_obj_pos.c ****         rel_y -= lv_obj_get_style_border_width(parent, LV_PART_MAIN);
 1182              		.loc 1 526 9 is_stmt 1 view .LVU317
 1183              	.LBB212:
 1184              	.LBI212:
 241:Middlewares/LVGL/GUI/lvgl/src/core/lv_obj_style_gen.h **** {
 1185              		.loc 2 241 26 view .LVU318
 1186              	.LBB213:
 243:Middlewares/LVGL/GUI/lvgl/src/core/lv_obj_style_gen.h ****     return (lv_coord_t)v.num;
 1187              		.loc 2 243 5 view .LVU319
 243:Middlewares/LVGL/GUI/lvgl/src/core/lv_obj_style_gen.h ****     return (lv_coord_t)v.num;
 1188              		.loc 2 243 26 is_stmt 0 view .LVU320
 1189 0028 41F23202 		movw	r2, #4146
 1190 002c 0021     		movs	r1, #0
 1191 002e 2846     		mov	r0, r5
 1192 0030 FFF7FEFF 		bl	lv_obj_get_style_prop
 1193              	.LVL107:
 244:Middlewares/LVGL/GUI/lvgl/src/core/lv_obj_style_gen.h **** }
 1194              		.loc 2 244 5 is_stmt 1 view .LVU321
 244:Middlewares/LVGL/GUI/lvgl/src/core/lv_obj_style_gen.h **** }
 1195              		.loc 2 244 5 is_stmt 0 view .LVU322
 1196              	.LBE213:
 1197              	.LBE212:
 1198              		.loc 1 526 15 view .LVU323
 1199 0034 201A     		subs	r0, r4, r0
 1200              	.LVL108:
 1201              	.L60:
 527:Middlewares/LVGL/GUI/lvgl/src/core/lv_obj_pos.c ****     }
 528:Middlewares/LVGL/GUI/lvgl/src/core/lv_obj_pos.c ****     else {
 529:Middlewares/LVGL/GUI/lvgl/src/core/lv_obj_pos.c ****         rel_y = obj->coords.y1;
 530:Middlewares/LVGL/GUI/lvgl/src/core/lv_obj_pos.c ****     }
 531:Middlewares/LVGL/GUI/lvgl/src/core/lv_obj_pos.c ****     return rel_y;
 532:Middlewares/LVGL/GUI/lvgl/src/core/lv_obj_pos.c **** }
 1202              		.loc 1 532 1 view .LVU324
 1203 0036 38BD     		pop	{r3, r4, r5, pc}
 1204              	.LVL109:
 1205              	.L61:
 529:Middlewares/LVGL/GUI/lvgl/src/core/lv_obj_pos.c ****     }
ARM GAS  C:\Users\ADMINI~1\AppData\Local\Temp\ccVA75Tx.s 			page 44


 1206              		.loc 1 529 9 is_stmt 1 view .LVU325
 529:Middlewares/LVGL/GUI/lvgl/src/core/lv_obj_pos.c ****     }
 1207              		.loc 1 529 15 is_stmt 0 view .LVU326
 1208 0038 A069     		ldr	r0, [r4, #24]
 1209              	.LVL110:
 531:Middlewares/LVGL/GUI/lvgl/src/core/lv_obj_pos.c **** }
 1210              		.loc 1 531 5 is_stmt 1 view .LVU327
 531:Middlewares/LVGL/GUI/lvgl/src/core/lv_obj_pos.c **** }
 1211              		.loc 1 531 12 is_stmt 0 view .LVU328
 1212 003a FCE7     		b	.L60
 1213              		.cfi_endproc
 1214              	.LFE179:
 1216              		.section	.text.lv_obj_get_x_aligned,"ax",%progbits
 1217              		.align	1
 1218              		.global	lv_obj_get_x_aligned
 1219              		.syntax unified
 1220              		.thumb
 1221              		.thumb_func
 1223              	lv_obj_get_x_aligned:
 1224              	.LVL111:
 1225              	.LFB181:
 533:Middlewares/LVGL/GUI/lvgl/src/core/lv_obj_pos.c **** 
 534:Middlewares/LVGL/GUI/lvgl/src/core/lv_obj_pos.c **** lv_coord_t lv_obj_get_y2(const lv_obj_t * obj)
 535:Middlewares/LVGL/GUI/lvgl/src/core/lv_obj_pos.c **** {
 536:Middlewares/LVGL/GUI/lvgl/src/core/lv_obj_pos.c ****     LV_ASSERT_OBJ(obj, MY_CLASS);
 537:Middlewares/LVGL/GUI/lvgl/src/core/lv_obj_pos.c **** 
 538:Middlewares/LVGL/GUI/lvgl/src/core/lv_obj_pos.c ****     return lv_obj_get_y(obj) + lv_obj_get_height(obj);
 539:Middlewares/LVGL/GUI/lvgl/src/core/lv_obj_pos.c **** }
 540:Middlewares/LVGL/GUI/lvgl/src/core/lv_obj_pos.c **** 
 541:Middlewares/LVGL/GUI/lvgl/src/core/lv_obj_pos.c **** lv_coord_t lv_obj_get_x_aligned(const lv_obj_t * obj)
 542:Middlewares/LVGL/GUI/lvgl/src/core/lv_obj_pos.c **** {
 1226              		.loc 1 542 1 is_stmt 1 view -0
 1227              		.cfi_startproc
 1228              		@ args = 0, pretend = 0, frame = 0
 1229              		@ frame_needed = 0, uses_anonymous_args = 0
 1230              		.loc 1 542 1 is_stmt 0 view .LVU330
 1231 0000 08B5     		push	{r3, lr}
 1232              	.LCFI28:
 1233              		.cfi_def_cfa_offset 8
 1234              		.cfi_offset 3, -8
 1235              		.cfi_offset 14, -4
 543:Middlewares/LVGL/GUI/lvgl/src/core/lv_obj_pos.c ****     return lv_obj_get_style_x(obj, LV_PART_MAIN);
 1236              		.loc 1 543 5 is_stmt 1 view .LVU331
 1237              	.LVL112:
 1238              	.LBB214:
 1239              	.LBI214:
  37:Middlewares/LVGL/GUI/lvgl/src/core/lv_obj_style_gen.h **** {
 1240              		.loc 2 37 26 view .LVU332
 1241              	.LBB215:
  39:Middlewares/LVGL/GUI/lvgl/src/core/lv_obj_style_gen.h ****     return (lv_coord_t)v.num;
 1242              		.loc 2 39 5 view .LVU333
  39:Middlewares/LVGL/GUI/lvgl/src/core/lv_obj_style_gen.h ****     return (lv_coord_t)v.num;
 1243              		.loc 2 39 26 is_stmt 0 view .LVU334
 1244 0002 41F20702 		movw	r2, #4103
 1245 0006 0021     		movs	r1, #0
 1246 0008 FFF7FEFF 		bl	lv_obj_get_style_prop
 1247              	.LVL113:
ARM GAS  C:\Users\ADMINI~1\AppData\Local\Temp\ccVA75Tx.s 			page 45


  40:Middlewares/LVGL/GUI/lvgl/src/core/lv_obj_style_gen.h **** }
 1248              		.loc 2 40 5 is_stmt 1 view .LVU335
  40:Middlewares/LVGL/GUI/lvgl/src/core/lv_obj_style_gen.h **** }
 1249              		.loc 2 40 5 is_stmt 0 view .LVU336
 1250              	.LBE215:
 1251              	.LBE214:
 544:Middlewares/LVGL/GUI/lvgl/src/core/lv_obj_pos.c **** }
 1252              		.loc 1 544 1 view .LVU337
 1253 000c 08BD     		pop	{r3, pc}
 1254              		.cfi_endproc
 1255              	.LFE181:
 1257              		.section	.text.lv_obj_get_y_aligned,"ax",%progbits
 1258              		.align	1
 1259              		.global	lv_obj_get_y_aligned
 1260              		.syntax unified
 1261              		.thumb
 1262              		.thumb_func
 1264              	lv_obj_get_y_aligned:
 1265              	.LVL114:
 1266              	.LFB182:
 545:Middlewares/LVGL/GUI/lvgl/src/core/lv_obj_pos.c **** 
 546:Middlewares/LVGL/GUI/lvgl/src/core/lv_obj_pos.c **** lv_coord_t lv_obj_get_y_aligned(const lv_obj_t * obj)
 547:Middlewares/LVGL/GUI/lvgl/src/core/lv_obj_pos.c **** {
 1267              		.loc 1 547 1 is_stmt 1 view -0
 1268              		.cfi_startproc
 1269              		@ args = 0, pretend = 0, frame = 0
 1270              		@ frame_needed = 0, uses_anonymous_args = 0
 1271              		.loc 1 547 1 is_stmt 0 view .LVU339
 1272 0000 08B5     		push	{r3, lr}
 1273              	.LCFI29:
 1274              		.cfi_def_cfa_offset 8
 1275              		.cfi_offset 3, -8
 1276              		.cfi_offset 14, -4
 548:Middlewares/LVGL/GUI/lvgl/src/core/lv_obj_pos.c ****     return lv_obj_get_style_y(obj, LV_PART_MAIN);
 1277              		.loc 1 548 5 is_stmt 1 view .LVU340
 1278              	.LVL115:
 1279              	.LBB216:
 1280              	.LBI216:
  43:Middlewares/LVGL/GUI/lvgl/src/core/lv_obj_style_gen.h **** {
 1281              		.loc 2 43 26 view .LVU341
 1282              	.LBB217:
  45:Middlewares/LVGL/GUI/lvgl/src/core/lv_obj_style_gen.h ****     return (lv_coord_t)v.num;
 1283              		.loc 2 45 5 view .LVU342
  45:Middlewares/LVGL/GUI/lvgl/src/core/lv_obj_style_gen.h ****     return (lv_coord_t)v.num;
 1284              		.loc 2 45 26 is_stmt 0 view .LVU343
 1285 0002 41F20802 		movw	r2, #4104
 1286 0006 0021     		movs	r1, #0
 1287 0008 FFF7FEFF 		bl	lv_obj_get_style_prop
 1288              	.LVL116:
  46:Middlewares/LVGL/GUI/lvgl/src/core/lv_obj_style_gen.h **** }
 1289              		.loc 2 46 5 is_stmt 1 view .LVU344
  46:Middlewares/LVGL/GUI/lvgl/src/core/lv_obj_style_gen.h **** }
 1290              		.loc 2 46 5 is_stmt 0 view .LVU345
 1291              	.LBE217:
 1292              	.LBE216:
 549:Middlewares/LVGL/GUI/lvgl/src/core/lv_obj_pos.c **** }
 1293              		.loc 1 549 1 view .LVU346
ARM GAS  C:\Users\ADMINI~1\AppData\Local\Temp\ccVA75Tx.s 			page 46


 1294 000c 08BD     		pop	{r3, pc}
 1295              		.cfi_endproc
 1296              	.LFE182:
 1298              		.section	.text.lv_obj_get_width,"ax",%progbits
 1299              		.align	1
 1300              		.global	lv_obj_get_width
 1301              		.syntax unified
 1302              		.thumb
 1303              		.thumb_func
 1305              	lv_obj_get_width:
 1306              	.LVL117:
 1307              	.LFB183:
 550:Middlewares/LVGL/GUI/lvgl/src/core/lv_obj_pos.c **** 
 551:Middlewares/LVGL/GUI/lvgl/src/core/lv_obj_pos.c **** 
 552:Middlewares/LVGL/GUI/lvgl/src/core/lv_obj_pos.c **** lv_coord_t lv_obj_get_width(const lv_obj_t * obj)
 553:Middlewares/LVGL/GUI/lvgl/src/core/lv_obj_pos.c **** {
 1308              		.loc 1 553 1 is_stmt 1 view -0
 1309              		.cfi_startproc
 1310              		@ args = 0, pretend = 0, frame = 0
 1311              		@ frame_needed = 0, uses_anonymous_args = 0
 1312              		@ link register save eliminated.
 554:Middlewares/LVGL/GUI/lvgl/src/core/lv_obj_pos.c ****     LV_ASSERT_OBJ(obj, MY_CLASS);
 1313              		.loc 1 554 5 view .LVU348
 1314              		.loc 1 554 5 view .LVU349
 1315              		.loc 1 554 5 view .LVU350
 555:Middlewares/LVGL/GUI/lvgl/src/core/lv_obj_pos.c **** 
 556:Middlewares/LVGL/GUI/lvgl/src/core/lv_obj_pos.c ****     return lv_area_get_width(&obj->coords);
 1316              		.loc 1 556 5 view .LVU351
 1317              	.LBB218:
 1318              	.LBI218:
 116:Middlewares/LVGL/GUI/lvgl/src/core/../misc/../font/../misc/lv_area.h **** }
 117:Middlewares/LVGL/GUI/lvgl/src/core/../misc/../font/../misc/lv_area.h **** 
 118:Middlewares/LVGL/GUI/lvgl/src/core/../misc/../font/../misc/lv_area.h **** /**
 119:Middlewares/LVGL/GUI/lvgl/src/core/../misc/../font/../misc/lv_area.h ****  * Get the width of an area
 120:Middlewares/LVGL/GUI/lvgl/src/core/../misc/../font/../misc/lv_area.h ****  * @param area_p pointer to an area
 121:Middlewares/LVGL/GUI/lvgl/src/core/../misc/../font/../misc/lv_area.h ****  * @return the width of the area (if x1 == x2 -> width = 1)
 122:Middlewares/LVGL/GUI/lvgl/src/core/../misc/../font/../misc/lv_area.h ****  */
 123:Middlewares/LVGL/GUI/lvgl/src/core/../misc/../font/../misc/lv_area.h **** static inline lv_coord_t lv_area_get_width(const lv_area_t * area_p)
 1319              		.loc 3 123 26 view .LVU352
 1320              	.LBB219:
 124:Middlewares/LVGL/GUI/lvgl/src/core/../misc/../font/../misc/lv_area.h **** {
 125:Middlewares/LVGL/GUI/lvgl/src/core/../misc/../font/../misc/lv_area.h ****     return (lv_coord_t)(area_p->x2 - area_p->x1 + 1);
 1321              		.loc 3 125 5 view .LVU353
 1322              		.loc 3 125 31 is_stmt 0 view .LVU354
 1323 0000 C369     		ldr	r3, [r0, #28]
 1324              		.loc 3 125 44 view .LVU355
 1325 0002 4069     		ldr	r0, [r0, #20]
 1326              	.LVL118:
 1327              		.loc 3 125 36 view .LVU356
 1328 0004 181A     		subs	r0, r3, r0
 1329              	.LVL119:
 1330              		.loc 3 125 36 view .LVU357
 1331              	.LBE219:
 1332              	.LBE218:
 557:Middlewares/LVGL/GUI/lvgl/src/core/lv_obj_pos.c **** }
 1333              		.loc 1 557 1 view .LVU358
 1334 0006 0130     		adds	r0, r0, #1
ARM GAS  C:\Users\ADMINI~1\AppData\Local\Temp\ccVA75Tx.s 			page 47


 1335 0008 7047     		bx	lr
 1336              		.cfi_endproc
 1337              	.LFE183:
 1339              		.section	.text.lv_obj_get_x2,"ax",%progbits
 1340              		.align	1
 1341              		.global	lv_obj_get_x2
 1342              		.syntax unified
 1343              		.thumb
 1344              		.thumb_func
 1346              	lv_obj_get_x2:
 1347              	.LVL120:
 1348              	.LFB178:
 510:Middlewares/LVGL/GUI/lvgl/src/core/lv_obj_pos.c ****     LV_ASSERT_OBJ(obj, MY_CLASS);
 1349              		.loc 1 510 1 is_stmt 1 view -0
 1350              		.cfi_startproc
 1351              		@ args = 0, pretend = 0, frame = 0
 1352              		@ frame_needed = 0, uses_anonymous_args = 0
 510:Middlewares/LVGL/GUI/lvgl/src/core/lv_obj_pos.c ****     LV_ASSERT_OBJ(obj, MY_CLASS);
 1353              		.loc 1 510 1 is_stmt 0 view .LVU360
 1354 0000 38B5     		push	{r3, r4, r5, lr}
 1355              	.LCFI30:
 1356              		.cfi_def_cfa_offset 16
 1357              		.cfi_offset 3, -16
 1358              		.cfi_offset 4, -12
 1359              		.cfi_offset 5, -8
 1360              		.cfi_offset 14, -4
 1361 0002 0546     		mov	r5, r0
 511:Middlewares/LVGL/GUI/lvgl/src/core/lv_obj_pos.c **** 
 1362              		.loc 1 511 5 is_stmt 1 view .LVU361
 511:Middlewares/LVGL/GUI/lvgl/src/core/lv_obj_pos.c **** 
 1363              		.loc 1 511 5 view .LVU362
 511:Middlewares/LVGL/GUI/lvgl/src/core/lv_obj_pos.c **** 
 1364              		.loc 1 511 5 view .LVU363
 513:Middlewares/LVGL/GUI/lvgl/src/core/lv_obj_pos.c **** }
 1365              		.loc 1 513 5 view .LVU364
 513:Middlewares/LVGL/GUI/lvgl/src/core/lv_obj_pos.c **** }
 1366              		.loc 1 513 12 is_stmt 0 view .LVU365
 1367 0004 FFF7FEFF 		bl	lv_obj_get_x
 1368              	.LVL121:
 513:Middlewares/LVGL/GUI/lvgl/src/core/lv_obj_pos.c **** }
 1369              		.loc 1 513 12 view .LVU366
 1370 0008 0446     		mov	r4, r0
 513:Middlewares/LVGL/GUI/lvgl/src/core/lv_obj_pos.c **** }
 1371              		.loc 1 513 32 view .LVU367
 1372 000a 2846     		mov	r0, r5
 1373 000c FFF7FEFF 		bl	lv_obj_get_width
 1374              	.LVL122:
 514:Middlewares/LVGL/GUI/lvgl/src/core/lv_obj_pos.c **** 
 1375              		.loc 1 514 1 view .LVU368
 1376 0010 2044     		add	r0, r0, r4
 1377 0012 38BD     		pop	{r3, r4, r5, pc}
 514:Middlewares/LVGL/GUI/lvgl/src/core/lv_obj_pos.c **** 
 1378              		.loc 1 514 1 view .LVU369
 1379              		.cfi_endproc
 1380              	.LFE178:
 1382              		.section	.text.lv_obj_get_height,"ax",%progbits
 1383              		.align	1
ARM GAS  C:\Users\ADMINI~1\AppData\Local\Temp\ccVA75Tx.s 			page 48


 1384              		.global	lv_obj_get_height
 1385              		.syntax unified
 1386              		.thumb
 1387              		.thumb_func
 1389              	lv_obj_get_height:
 1390              	.LVL123:
 1391              	.LFB184:
 558:Middlewares/LVGL/GUI/lvgl/src/core/lv_obj_pos.c **** 
 559:Middlewares/LVGL/GUI/lvgl/src/core/lv_obj_pos.c **** lv_coord_t lv_obj_get_height(const lv_obj_t * obj)
 560:Middlewares/LVGL/GUI/lvgl/src/core/lv_obj_pos.c **** {
 1392              		.loc 1 560 1 is_stmt 1 view -0
 1393              		.cfi_startproc
 1394              		@ args = 0, pretend = 0, frame = 0
 1395              		@ frame_needed = 0, uses_anonymous_args = 0
 1396              		@ link register save eliminated.
 561:Middlewares/LVGL/GUI/lvgl/src/core/lv_obj_pos.c ****     LV_ASSERT_OBJ(obj, MY_CLASS);
 1397              		.loc 1 561 5 view .LVU371
 1398              		.loc 1 561 5 view .LVU372
 1399              		.loc 1 561 5 view .LVU373
 562:Middlewares/LVGL/GUI/lvgl/src/core/lv_obj_pos.c **** 
 563:Middlewares/LVGL/GUI/lvgl/src/core/lv_obj_pos.c ****     return lv_area_get_height(&obj->coords);
 1400              		.loc 1 563 5 view .LVU374
 1401              	.LBB220:
 1402              	.LBI220:
 126:Middlewares/LVGL/GUI/lvgl/src/core/../misc/../font/../misc/lv_area.h **** }
 127:Middlewares/LVGL/GUI/lvgl/src/core/../misc/../font/../misc/lv_area.h **** 
 128:Middlewares/LVGL/GUI/lvgl/src/core/../misc/../font/../misc/lv_area.h **** /**
 129:Middlewares/LVGL/GUI/lvgl/src/core/../misc/../font/../misc/lv_area.h ****  * Get the height of an area
 130:Middlewares/LVGL/GUI/lvgl/src/core/../misc/../font/../misc/lv_area.h ****  * @param area_p pointer to an area
 131:Middlewares/LVGL/GUI/lvgl/src/core/../misc/../font/../misc/lv_area.h ****  * @return the height of the area (if y1 == y2 -> height = 1)
 132:Middlewares/LVGL/GUI/lvgl/src/core/../misc/../font/../misc/lv_area.h ****  */
 133:Middlewares/LVGL/GUI/lvgl/src/core/../misc/../font/../misc/lv_area.h **** static inline lv_coord_t lv_area_get_height(const lv_area_t * area_p)
 1403              		.loc 3 133 26 view .LVU375
 1404              	.LBB221:
 134:Middlewares/LVGL/GUI/lvgl/src/core/../misc/../font/../misc/lv_area.h **** {
 135:Middlewares/LVGL/GUI/lvgl/src/core/../misc/../font/../misc/lv_area.h ****     return (lv_coord_t)(area_p->y2 - area_p->y1 + 1);
 1405              		.loc 3 135 5 view .LVU376
 1406              		.loc 3 135 31 is_stmt 0 view .LVU377
 1407 0000 036A     		ldr	r3, [r0, #32]
 1408              		.loc 3 135 44 view .LVU378
 1409 0002 8069     		ldr	r0, [r0, #24]
 1410              	.LVL124:
 1411              		.loc 3 135 36 view .LVU379
 1412 0004 181A     		subs	r0, r3, r0
 1413              	.LVL125:
 1414              		.loc 3 135 36 view .LVU380
 1415              	.LBE221:
 1416              	.LBE220:
 564:Middlewares/LVGL/GUI/lvgl/src/core/lv_obj_pos.c **** }
 1417              		.loc 1 564 1 view .LVU381
 1418 0006 0130     		adds	r0, r0, #1
 1419 0008 7047     		bx	lr
 1420              		.cfi_endproc
 1421              	.LFE184:
 1423              		.section	.text.lv_obj_get_y2,"ax",%progbits
 1424              		.align	1
 1425              		.global	lv_obj_get_y2
ARM GAS  C:\Users\ADMINI~1\AppData\Local\Temp\ccVA75Tx.s 			page 49


 1426              		.syntax unified
 1427              		.thumb
 1428              		.thumb_func
 1430              	lv_obj_get_y2:
 1431              	.LVL126:
 1432              	.LFB180:
 535:Middlewares/LVGL/GUI/lvgl/src/core/lv_obj_pos.c ****     LV_ASSERT_OBJ(obj, MY_CLASS);
 1433              		.loc 1 535 1 is_stmt 1 view -0
 1434              		.cfi_startproc
 1435              		@ args = 0, pretend = 0, frame = 0
 1436              		@ frame_needed = 0, uses_anonymous_args = 0
 535:Middlewares/LVGL/GUI/lvgl/src/core/lv_obj_pos.c ****     LV_ASSERT_OBJ(obj, MY_CLASS);
 1437              		.loc 1 535 1 is_stmt 0 view .LVU383
 1438 0000 38B5     		push	{r3, r4, r5, lr}
 1439              	.LCFI31:
 1440              		.cfi_def_cfa_offset 16
 1441              		.cfi_offset 3, -16
 1442              		.cfi_offset 4, -12
 1443              		.cfi_offset 5, -8
 1444              		.cfi_offset 14, -4
 1445 0002 0546     		mov	r5, r0
 536:Middlewares/LVGL/GUI/lvgl/src/core/lv_obj_pos.c **** 
 1446              		.loc 1 536 5 is_stmt 1 view .LVU384
 536:Middlewares/LVGL/GUI/lvgl/src/core/lv_obj_pos.c **** 
 1447              		.loc 1 536 5 view .LVU385
 536:Middlewares/LVGL/GUI/lvgl/src/core/lv_obj_pos.c **** 
 1448              		.loc 1 536 5 view .LVU386
 538:Middlewares/LVGL/GUI/lvgl/src/core/lv_obj_pos.c **** }
 1449              		.loc 1 538 5 view .LVU387
 538:Middlewares/LVGL/GUI/lvgl/src/core/lv_obj_pos.c **** }
 1450              		.loc 1 538 12 is_stmt 0 view .LVU388
 1451 0004 FFF7FEFF 		bl	lv_obj_get_y
 1452              	.LVL127:
 538:Middlewares/LVGL/GUI/lvgl/src/core/lv_obj_pos.c **** }
 1453              		.loc 1 538 12 view .LVU389
 1454 0008 0446     		mov	r4, r0
 538:Middlewares/LVGL/GUI/lvgl/src/core/lv_obj_pos.c **** }
 1455              		.loc 1 538 32 view .LVU390
 1456 000a 2846     		mov	r0, r5
 1457 000c FFF7FEFF 		bl	lv_obj_get_height
 1458              	.LVL128:
 539:Middlewares/LVGL/GUI/lvgl/src/core/lv_obj_pos.c **** 
 1459              		.loc 1 539 1 view .LVU391
 1460 0010 2044     		add	r0, r0, r4
 1461 0012 38BD     		pop	{r3, r4, r5, pc}
 539:Middlewares/LVGL/GUI/lvgl/src/core/lv_obj_pos.c **** 
 1462              		.loc 1 539 1 view .LVU392
 1463              		.cfi_endproc
 1464              	.LFE180:
 1466              		.section	.text.lv_obj_get_content_width,"ax",%progbits
 1467              		.align	1
 1468              		.global	lv_obj_get_content_width
 1469              		.syntax unified
 1470              		.thumb
 1471              		.thumb_func
 1473              	lv_obj_get_content_width:
 1474              	.LVL129:
ARM GAS  C:\Users\ADMINI~1\AppData\Local\Temp\ccVA75Tx.s 			page 50


 1475              	.LFB185:
 565:Middlewares/LVGL/GUI/lvgl/src/core/lv_obj_pos.c **** 
 566:Middlewares/LVGL/GUI/lvgl/src/core/lv_obj_pos.c **** lv_coord_t lv_obj_get_content_width(const lv_obj_t * obj)
 567:Middlewares/LVGL/GUI/lvgl/src/core/lv_obj_pos.c **** {
 1476              		.loc 1 567 1 is_stmt 1 view -0
 1477              		.cfi_startproc
 1478              		@ args = 0, pretend = 0, frame = 0
 1479              		@ frame_needed = 0, uses_anonymous_args = 0
 1480              		.loc 1 567 1 is_stmt 0 view .LVU394
 1481 0000 F8B5     		push	{r3, r4, r5, r6, r7, lr}
 1482              	.LCFI32:
 1483              		.cfi_def_cfa_offset 24
 1484              		.cfi_offset 3, -24
 1485              		.cfi_offset 4, -20
 1486              		.cfi_offset 5, -16
 1487              		.cfi_offset 6, -12
 1488              		.cfi_offset 7, -8
 1489              		.cfi_offset 14, -4
 1490 0002 0446     		mov	r4, r0
 568:Middlewares/LVGL/GUI/lvgl/src/core/lv_obj_pos.c ****     LV_ASSERT_OBJ(obj, MY_CLASS);
 1491              		.loc 1 568 5 is_stmt 1 view .LVU395
 1492              		.loc 1 568 5 view .LVU396
 1493              		.loc 1 568 5 view .LVU397
 569:Middlewares/LVGL/GUI/lvgl/src/core/lv_obj_pos.c **** 
 570:Middlewares/LVGL/GUI/lvgl/src/core/lv_obj_pos.c ****     lv_coord_t left = lv_obj_get_style_pad_left(obj, LV_PART_MAIN);
 1494              		.loc 1 570 5 view .LVU398
 1495              	.LVL130:
 1496              	.LBB222:
 1497              	.LBI222:
 103:Middlewares/LVGL/GUI/lvgl/src/core/lv_obj_style_gen.h **** {
 1498              		.loc 2 103 26 view .LVU399
 1499              	.LBB223:
 105:Middlewares/LVGL/GUI/lvgl/src/core/lv_obj_style_gen.h ****     return (lv_coord_t)v.num;
 1500              		.loc 2 105 5 view .LVU400
 105:Middlewares/LVGL/GUI/lvgl/src/core/lv_obj_style_gen.h ****     return (lv_coord_t)v.num;
 1501              		.loc 2 105 26 is_stmt 0 view .LVU401
 1502 0004 41F61202 		movw	r2, #6162
 1503 0008 0021     		movs	r1, #0
 1504 000a FFF7FEFF 		bl	lv_obj_get_style_prop
 1505              	.LVL131:
 105:Middlewares/LVGL/GUI/lvgl/src/core/lv_obj_style_gen.h ****     return (lv_coord_t)v.num;
 1506              		.loc 2 105 26 view .LVU402
 1507 000e 0746     		mov	r7, r0
 1508              	.LVL132:
 106:Middlewares/LVGL/GUI/lvgl/src/core/lv_obj_style_gen.h **** }
 1509              		.loc 2 106 5 is_stmt 1 view .LVU403
 106:Middlewares/LVGL/GUI/lvgl/src/core/lv_obj_style_gen.h **** }
 1510              		.loc 2 106 5 is_stmt 0 view .LVU404
 1511              	.LBE223:
 1512              	.LBE222:
 571:Middlewares/LVGL/GUI/lvgl/src/core/lv_obj_pos.c ****     lv_coord_t right = lv_obj_get_style_pad_right(obj, LV_PART_MAIN);
 1513              		.loc 1 571 5 is_stmt 1 view .LVU405
 1514              	.LBB224:
 1515              	.LBI224:
 109:Middlewares/LVGL/GUI/lvgl/src/core/lv_obj_style_gen.h **** {
 1516              		.loc 2 109 26 view .LVU406
 1517              	.LBB225:
ARM GAS  C:\Users\ADMINI~1\AppData\Local\Temp\ccVA75Tx.s 			page 51


 111:Middlewares/LVGL/GUI/lvgl/src/core/lv_obj_style_gen.h ****     return (lv_coord_t)v.num;
 1518              		.loc 2 111 5 view .LVU407
 111:Middlewares/LVGL/GUI/lvgl/src/core/lv_obj_style_gen.h ****     return (lv_coord_t)v.num;
 1519              		.loc 2 111 26 is_stmt 0 view .LVU408
 1520 0010 41F61302 		movw	r2, #6163
 1521 0014 0021     		movs	r1, #0
 1522 0016 2046     		mov	r0, r4
 1523              	.LVL133:
 111:Middlewares/LVGL/GUI/lvgl/src/core/lv_obj_style_gen.h ****     return (lv_coord_t)v.num;
 1524              		.loc 2 111 26 view .LVU409
 1525 0018 FFF7FEFF 		bl	lv_obj_get_style_prop
 1526              	.LVL134:
 1527 001c 0646     		mov	r6, r0
 1528              	.LVL135:
 112:Middlewares/LVGL/GUI/lvgl/src/core/lv_obj_style_gen.h **** }
 1529              		.loc 2 112 5 is_stmt 1 view .LVU410
 112:Middlewares/LVGL/GUI/lvgl/src/core/lv_obj_style_gen.h **** }
 1530              		.loc 2 112 5 is_stmt 0 view .LVU411
 1531              	.LBE225:
 1532              	.LBE224:
 572:Middlewares/LVGL/GUI/lvgl/src/core/lv_obj_pos.c ****     lv_coord_t border_width = lv_obj_get_style_border_width(obj, LV_PART_MAIN);
 1533              		.loc 1 572 5 is_stmt 1 view .LVU412
 1534              	.LBB226:
 1535              	.LBI226:
 241:Middlewares/LVGL/GUI/lvgl/src/core/lv_obj_style_gen.h **** {
 1536              		.loc 2 241 26 view .LVU413
 1537              	.LBB227:
 243:Middlewares/LVGL/GUI/lvgl/src/core/lv_obj_style_gen.h ****     return (lv_coord_t)v.num;
 1538              		.loc 2 243 5 view .LVU414
 243:Middlewares/LVGL/GUI/lvgl/src/core/lv_obj_style_gen.h ****     return (lv_coord_t)v.num;
 1539              		.loc 2 243 26 is_stmt 0 view .LVU415
 1540 001e 41F23202 		movw	r2, #4146
 1541 0022 0021     		movs	r1, #0
 1542 0024 2046     		mov	r0, r4
 1543              	.LVL136:
 243:Middlewares/LVGL/GUI/lvgl/src/core/lv_obj_style_gen.h ****     return (lv_coord_t)v.num;
 1544              		.loc 2 243 26 view .LVU416
 1545 0026 FFF7FEFF 		bl	lv_obj_get_style_prop
 1546              	.LVL137:
 1547 002a 0546     		mov	r5, r0
 1548              	.LVL138:
 244:Middlewares/LVGL/GUI/lvgl/src/core/lv_obj_style_gen.h **** }
 1549              		.loc 2 244 5 is_stmt 1 view .LVU417
 244:Middlewares/LVGL/GUI/lvgl/src/core/lv_obj_style_gen.h **** }
 1550              		.loc 2 244 5 is_stmt 0 view .LVU418
 1551              	.LBE227:
 1552              	.LBE226:
 573:Middlewares/LVGL/GUI/lvgl/src/core/lv_obj_pos.c **** 
 574:Middlewares/LVGL/GUI/lvgl/src/core/lv_obj_pos.c ****     return lv_obj_get_width(obj) - left - right - 2 * border_width;
 1553              		.loc 1 574 5 is_stmt 1 view .LVU419
 1554              		.loc 1 574 12 is_stmt 0 view .LVU420
 1555 002c 2046     		mov	r0, r4
 1556              	.LVL139:
 1557              		.loc 1 574 12 view .LVU421
 1558 002e FFF7FEFF 		bl	lv_obj_get_width
 1559              	.LVL140:
 1560              		.loc 1 574 34 view .LVU422
ARM GAS  C:\Users\ADMINI~1\AppData\Local\Temp\ccVA75Tx.s 			page 52


 1561 0032 C31B     		subs	r3, r0, r7
 1562              		.loc 1 574 41 view .LVU423
 1563 0034 9B1B     		subs	r3, r3, r6
 575:Middlewares/LVGL/GUI/lvgl/src/core/lv_obj_pos.c **** }
 1564              		.loc 1 575 1 view .LVU424
 1565 0036 A3EB4500 		sub	r0, r3, r5, lsl #1
 1566 003a F8BD     		pop	{r3, r4, r5, r6, r7, pc}
 1567              		.loc 1 575 1 view .LVU425
 1568              		.cfi_endproc
 1569              	.LFE185:
 1571              		.section	.text.lv_obj_get_content_height,"ax",%progbits
 1572              		.align	1
 1573              		.global	lv_obj_get_content_height
 1574              		.syntax unified
 1575              		.thumb
 1576              		.thumb_func
 1578              	lv_obj_get_content_height:
 1579              	.LVL141:
 1580              	.LFB186:
 576:Middlewares/LVGL/GUI/lvgl/src/core/lv_obj_pos.c **** 
 577:Middlewares/LVGL/GUI/lvgl/src/core/lv_obj_pos.c **** lv_coord_t lv_obj_get_content_height(const lv_obj_t * obj)
 578:Middlewares/LVGL/GUI/lvgl/src/core/lv_obj_pos.c **** {
 1581              		.loc 1 578 1 is_stmt 1 view -0
 1582              		.cfi_startproc
 1583              		@ args = 0, pretend = 0, frame = 0
 1584              		@ frame_needed = 0, uses_anonymous_args = 0
 1585              		.loc 1 578 1 is_stmt 0 view .LVU427
 1586 0000 F8B5     		push	{r3, r4, r5, r6, r7, lr}
 1587              	.LCFI33:
 1588              		.cfi_def_cfa_offset 24
 1589              		.cfi_offset 3, -24
 1590              		.cfi_offset 4, -20
 1591              		.cfi_offset 5, -16
 1592              		.cfi_offset 6, -12
 1593              		.cfi_offset 7, -8
 1594              		.cfi_offset 14, -4
 1595 0002 0446     		mov	r4, r0
 579:Middlewares/LVGL/GUI/lvgl/src/core/lv_obj_pos.c ****     LV_ASSERT_OBJ(obj, MY_CLASS);
 1596              		.loc 1 579 5 is_stmt 1 view .LVU428
 1597              		.loc 1 579 5 view .LVU429
 1598              		.loc 1 579 5 view .LVU430
 580:Middlewares/LVGL/GUI/lvgl/src/core/lv_obj_pos.c **** 
 581:Middlewares/LVGL/GUI/lvgl/src/core/lv_obj_pos.c ****     lv_coord_t top = lv_obj_get_style_pad_top(obj, LV_PART_MAIN);
 1599              		.loc 1 581 5 view .LVU431
 1600              	.LVL142:
 1601              	.LBB228:
 1602              	.LBI228:
  91:Middlewares/LVGL/GUI/lvgl/src/core/lv_obj_style_gen.h **** {
 1603              		.loc 2 91 26 view .LVU432
 1604              	.LBB229:
  93:Middlewares/LVGL/GUI/lvgl/src/core/lv_obj_style_gen.h ****     return (lv_coord_t)v.num;
 1605              		.loc 2 93 5 view .LVU433
  93:Middlewares/LVGL/GUI/lvgl/src/core/lv_obj_style_gen.h ****     return (lv_coord_t)v.num;
 1606              		.loc 2 93 26 is_stmt 0 view .LVU434
 1607 0004 41F61002 		movw	r2, #6160
 1608 0008 0021     		movs	r1, #0
 1609 000a FFF7FEFF 		bl	lv_obj_get_style_prop
ARM GAS  C:\Users\ADMINI~1\AppData\Local\Temp\ccVA75Tx.s 			page 53


 1610              	.LVL143:
  93:Middlewares/LVGL/GUI/lvgl/src/core/lv_obj_style_gen.h ****     return (lv_coord_t)v.num;
 1611              		.loc 2 93 26 view .LVU435
 1612 000e 0746     		mov	r7, r0
 1613              	.LVL144:
  94:Middlewares/LVGL/GUI/lvgl/src/core/lv_obj_style_gen.h **** }
 1614              		.loc 2 94 5 is_stmt 1 view .LVU436
  94:Middlewares/LVGL/GUI/lvgl/src/core/lv_obj_style_gen.h **** }
 1615              		.loc 2 94 5 is_stmt 0 view .LVU437
 1616              	.LBE229:
 1617              	.LBE228:
 582:Middlewares/LVGL/GUI/lvgl/src/core/lv_obj_pos.c ****     lv_coord_t bottom = lv_obj_get_style_pad_bottom(obj, LV_PART_MAIN);
 1618              		.loc 1 582 5 is_stmt 1 view .LVU438
 1619              	.LBB230:
 1620              	.LBI230:
  97:Middlewares/LVGL/GUI/lvgl/src/core/lv_obj_style_gen.h **** {
 1621              		.loc 2 97 26 view .LVU439
 1622              	.LBB231:
  99:Middlewares/LVGL/GUI/lvgl/src/core/lv_obj_style_gen.h ****     return (lv_coord_t)v.num;
 1623              		.loc 2 99 5 view .LVU440
  99:Middlewares/LVGL/GUI/lvgl/src/core/lv_obj_style_gen.h ****     return (lv_coord_t)v.num;
 1624              		.loc 2 99 26 is_stmt 0 view .LVU441
 1625 0010 41F61102 		movw	r2, #6161
 1626 0014 0021     		movs	r1, #0
 1627 0016 2046     		mov	r0, r4
 1628              	.LVL145:
  99:Middlewares/LVGL/GUI/lvgl/src/core/lv_obj_style_gen.h ****     return (lv_coord_t)v.num;
 1629              		.loc 2 99 26 view .LVU442
 1630 0018 FFF7FEFF 		bl	lv_obj_get_style_prop
 1631              	.LVL146:
 1632 001c 0646     		mov	r6, r0
 1633              	.LVL147:
 100:Middlewares/LVGL/GUI/lvgl/src/core/lv_obj_style_gen.h **** }
 1634              		.loc 2 100 5 is_stmt 1 view .LVU443
 100:Middlewares/LVGL/GUI/lvgl/src/core/lv_obj_style_gen.h **** }
 1635              		.loc 2 100 5 is_stmt 0 view .LVU444
 1636              	.LBE231:
 1637              	.LBE230:
 583:Middlewares/LVGL/GUI/lvgl/src/core/lv_obj_pos.c ****     lv_coord_t border_width = lv_obj_get_style_border_width(obj, LV_PART_MAIN);
 1638              		.loc 1 583 5 is_stmt 1 view .LVU445
 1639              	.LBB232:
 1640              	.LBI232:
 241:Middlewares/LVGL/GUI/lvgl/src/core/lv_obj_style_gen.h **** {
 1641              		.loc 2 241 26 view .LVU446
 1642              	.LBB233:
 243:Middlewares/LVGL/GUI/lvgl/src/core/lv_obj_style_gen.h ****     return (lv_coord_t)v.num;
 1643              		.loc 2 243 5 view .LVU447
 243:Middlewares/LVGL/GUI/lvgl/src/core/lv_obj_style_gen.h ****     return (lv_coord_t)v.num;
 1644              		.loc 2 243 26 is_stmt 0 view .LVU448
 1645 001e 41F23202 		movw	r2, #4146
 1646 0022 0021     		movs	r1, #0
 1647 0024 2046     		mov	r0, r4
 1648              	.LVL148:
 243:Middlewares/LVGL/GUI/lvgl/src/core/lv_obj_style_gen.h ****     return (lv_coord_t)v.num;
 1649              		.loc 2 243 26 view .LVU449
 1650 0026 FFF7FEFF 		bl	lv_obj_get_style_prop
 1651              	.LVL149:
ARM GAS  C:\Users\ADMINI~1\AppData\Local\Temp\ccVA75Tx.s 			page 54


 1652 002a 0546     		mov	r5, r0
 1653              	.LVL150:
 244:Middlewares/LVGL/GUI/lvgl/src/core/lv_obj_style_gen.h **** }
 1654              		.loc 2 244 5 is_stmt 1 view .LVU450
 244:Middlewares/LVGL/GUI/lvgl/src/core/lv_obj_style_gen.h **** }
 1655              		.loc 2 244 5 is_stmt 0 view .LVU451
 1656              	.LBE233:
 1657              	.LBE232:
 584:Middlewares/LVGL/GUI/lvgl/src/core/lv_obj_pos.c **** 
 585:Middlewares/LVGL/GUI/lvgl/src/core/lv_obj_pos.c ****     return lv_obj_get_height(obj) - top - bottom - 2 * border_width;
 1658              		.loc 1 585 5 is_stmt 1 view .LVU452
 1659              		.loc 1 585 12 is_stmt 0 view .LVU453
 1660 002c 2046     		mov	r0, r4
 1661              	.LVL151:
 1662              		.loc 1 585 12 view .LVU454
 1663 002e FFF7FEFF 		bl	lv_obj_get_height
 1664              	.LVL152:
 1665              		.loc 1 585 35 view .LVU455
 1666 0032 C31B     		subs	r3, r0, r7
 1667              		.loc 1 585 41 view .LVU456
 1668 0034 9B1B     		subs	r3, r3, r6
 586:Middlewares/LVGL/GUI/lvgl/src/core/lv_obj_pos.c **** }
 1669              		.loc 1 586 1 view .LVU457
 1670 0036 A3EB4500 		sub	r0, r3, r5, lsl #1
 1671 003a F8BD     		pop	{r3, r4, r5, r6, r7, pc}
 1672              		.loc 1 586 1 view .LVU458
 1673              		.cfi_endproc
 1674              	.LFE186:
 1676              		.section	.text.lv_obj_get_content_coords,"ax",%progbits
 1677              		.align	1
 1678              		.global	lv_obj_get_content_coords
 1679              		.syntax unified
 1680              		.thumb
 1681              		.thumb_func
 1683              	lv_obj_get_content_coords:
 1684              	.LVL153:
 1685              	.LFB187:
 587:Middlewares/LVGL/GUI/lvgl/src/core/lv_obj_pos.c **** 
 588:Middlewares/LVGL/GUI/lvgl/src/core/lv_obj_pos.c **** void lv_obj_get_content_coords(const lv_obj_t * obj, lv_area_t * area)
 589:Middlewares/LVGL/GUI/lvgl/src/core/lv_obj_pos.c **** {
 1686              		.loc 1 589 1 is_stmt 1 view -0
 1687              		.cfi_startproc
 1688              		@ args = 0, pretend = 0, frame = 0
 1689              		@ frame_needed = 0, uses_anonymous_args = 0
 1690              		.loc 1 589 1 is_stmt 0 view .LVU460
 1691 0000 70B5     		push	{r4, r5, r6, lr}
 1692              	.LCFI34:
 1693              		.cfi_def_cfa_offset 16
 1694              		.cfi_offset 4, -16
 1695              		.cfi_offset 5, -12
 1696              		.cfi_offset 6, -8
 1697              		.cfi_offset 14, -4
 1698 0002 0546     		mov	r5, r0
 1699 0004 0C46     		mov	r4, r1
 590:Middlewares/LVGL/GUI/lvgl/src/core/lv_obj_pos.c ****     LV_ASSERT_OBJ(obj, MY_CLASS);
 1700              		.loc 1 590 5 is_stmt 1 view .LVU461
 1701              		.loc 1 590 5 view .LVU462
ARM GAS  C:\Users\ADMINI~1\AppData\Local\Temp\ccVA75Tx.s 			page 55


 1702              		.loc 1 590 5 view .LVU463
 591:Middlewares/LVGL/GUI/lvgl/src/core/lv_obj_pos.c ****     lv_coord_t border_width = lv_obj_get_style_border_width(obj, LV_PART_MAIN);
 1703              		.loc 1 591 5 view .LVU464
 1704              	.LVL154:
 1705              	.LBB234:
 1706              	.LBI234:
 241:Middlewares/LVGL/GUI/lvgl/src/core/lv_obj_style_gen.h **** {
 1707              		.loc 2 241 26 view .LVU465
 1708              	.LBB235:
 243:Middlewares/LVGL/GUI/lvgl/src/core/lv_obj_style_gen.h ****     return (lv_coord_t)v.num;
 1709              		.loc 2 243 5 view .LVU466
 243:Middlewares/LVGL/GUI/lvgl/src/core/lv_obj_style_gen.h ****     return (lv_coord_t)v.num;
 1710              		.loc 2 243 26 is_stmt 0 view .LVU467
 1711 0006 41F23202 		movw	r2, #4146
 1712 000a 0021     		movs	r1, #0
 1713              	.LVL155:
 243:Middlewares/LVGL/GUI/lvgl/src/core/lv_obj_style_gen.h ****     return (lv_coord_t)v.num;
 1714              		.loc 2 243 26 view .LVU468
 1715 000c FFF7FEFF 		bl	lv_obj_get_style_prop
 1716              	.LVL156:
 243:Middlewares/LVGL/GUI/lvgl/src/core/lv_obj_style_gen.h ****     return (lv_coord_t)v.num;
 1717              		.loc 2 243 26 view .LVU469
 1718 0010 0646     		mov	r6, r0
 1719              	.LVL157:
 244:Middlewares/LVGL/GUI/lvgl/src/core/lv_obj_style_gen.h **** }
 1720              		.loc 2 244 5 is_stmt 1 view .LVU470
 244:Middlewares/LVGL/GUI/lvgl/src/core/lv_obj_style_gen.h **** }
 1721              		.loc 2 244 5 is_stmt 0 view .LVU471
 1722              	.LBE235:
 1723              	.LBE234:
 592:Middlewares/LVGL/GUI/lvgl/src/core/lv_obj_pos.c **** 
 593:Middlewares/LVGL/GUI/lvgl/src/core/lv_obj_pos.c ****     lv_obj_get_coords(obj, area);
 1724              		.loc 1 593 5 is_stmt 1 view .LVU472
 1725 0012 2146     		mov	r1, r4
 1726 0014 2846     		mov	r0, r5
 1727              	.LVL158:
 1728              		.loc 1 593 5 is_stmt 0 view .LVU473
 1729 0016 FFF7FEFF 		bl	lv_obj_get_coords
 1730              	.LVL159:
 594:Middlewares/LVGL/GUI/lvgl/src/core/lv_obj_pos.c ****     lv_area_increase(area, -border_width, -border_width);
 1731              		.loc 1 594 5 is_stmt 1 view .LVU474
 1732 001a 7142     		rsbs	r1, r6, #0
 1733 001c 0A46     		mov	r2, r1
 1734 001e 2046     		mov	r0, r4
 1735 0020 FFF7FEFF 		bl	lv_area_increase
 1736              	.LVL160:
 595:Middlewares/LVGL/GUI/lvgl/src/core/lv_obj_pos.c ****     area->x1 += lv_obj_get_style_pad_left(obj, LV_PART_MAIN);
 1737              		.loc 1 595 5 view .LVU475
 1738              	.LBB236:
 1739              	.LBI236:
 103:Middlewares/LVGL/GUI/lvgl/src/core/lv_obj_style_gen.h **** {
 1740              		.loc 2 103 26 view .LVU476
 1741              	.LBB237:
 105:Middlewares/LVGL/GUI/lvgl/src/core/lv_obj_style_gen.h ****     return (lv_coord_t)v.num;
 1742              		.loc 2 105 5 view .LVU477
 105:Middlewares/LVGL/GUI/lvgl/src/core/lv_obj_style_gen.h ****     return (lv_coord_t)v.num;
 1743              		.loc 2 105 26 is_stmt 0 view .LVU478
ARM GAS  C:\Users\ADMINI~1\AppData\Local\Temp\ccVA75Tx.s 			page 56


 1744 0024 41F61202 		movw	r2, #6162
 1745 0028 0021     		movs	r1, #0
 1746 002a 2846     		mov	r0, r5
 1747 002c FFF7FEFF 		bl	lv_obj_get_style_prop
 1748              	.LVL161:
 106:Middlewares/LVGL/GUI/lvgl/src/core/lv_obj_style_gen.h **** }
 1749              		.loc 2 106 5 is_stmt 1 view .LVU479
 106:Middlewares/LVGL/GUI/lvgl/src/core/lv_obj_style_gen.h **** }
 1750              		.loc 2 106 5 is_stmt 0 view .LVU480
 1751              	.LBE237:
 1752              	.LBE236:
 1753              		.loc 1 595 14 view .LVU481
 1754 0030 2368     		ldr	r3, [r4]
 1755 0032 0344     		add	r3, r3, r0
 1756 0034 2360     		str	r3, [r4]
 596:Middlewares/LVGL/GUI/lvgl/src/core/lv_obj_pos.c ****     area->x2 -= lv_obj_get_style_pad_right(obj, LV_PART_MAIN);
 1757              		.loc 1 596 5 is_stmt 1 view .LVU482
 1758              	.LVL162:
 1759              	.LBB238:
 1760              	.LBI238:
 109:Middlewares/LVGL/GUI/lvgl/src/core/lv_obj_style_gen.h **** {
 1761              		.loc 2 109 26 view .LVU483
 1762              	.LBB239:
 111:Middlewares/LVGL/GUI/lvgl/src/core/lv_obj_style_gen.h ****     return (lv_coord_t)v.num;
 1763              		.loc 2 111 5 view .LVU484
 111:Middlewares/LVGL/GUI/lvgl/src/core/lv_obj_style_gen.h ****     return (lv_coord_t)v.num;
 1764              		.loc 2 111 26 is_stmt 0 view .LVU485
 1765 0036 41F61302 		movw	r2, #6163
 1766 003a 0021     		movs	r1, #0
 1767 003c 2846     		mov	r0, r5
 1768 003e FFF7FEFF 		bl	lv_obj_get_style_prop
 1769              	.LVL163:
 112:Middlewares/LVGL/GUI/lvgl/src/core/lv_obj_style_gen.h **** }
 1770              		.loc 2 112 5 is_stmt 1 view .LVU486
 112:Middlewares/LVGL/GUI/lvgl/src/core/lv_obj_style_gen.h **** }
 1771              		.loc 2 112 5 is_stmt 0 view .LVU487
 1772              	.LBE239:
 1773              	.LBE238:
 1774              		.loc 1 596 14 view .LVU488
 1775 0042 A368     		ldr	r3, [r4, #8]
 1776 0044 1B1A     		subs	r3, r3, r0
 1777 0046 A360     		str	r3, [r4, #8]
 597:Middlewares/LVGL/GUI/lvgl/src/core/lv_obj_pos.c ****     area->y1 += lv_obj_get_style_pad_top(obj, LV_PART_MAIN);
 1778              		.loc 1 597 5 is_stmt 1 view .LVU489
 1779              	.LVL164:
 1780              	.LBB240:
 1781              	.LBI240:
  91:Middlewares/LVGL/GUI/lvgl/src/core/lv_obj_style_gen.h **** {
 1782              		.loc 2 91 26 view .LVU490
 1783              	.LBB241:
  93:Middlewares/LVGL/GUI/lvgl/src/core/lv_obj_style_gen.h ****     return (lv_coord_t)v.num;
 1784              		.loc 2 93 5 view .LVU491
  93:Middlewares/LVGL/GUI/lvgl/src/core/lv_obj_style_gen.h ****     return (lv_coord_t)v.num;
 1785              		.loc 2 93 26 is_stmt 0 view .LVU492
 1786 0048 41F61002 		movw	r2, #6160
 1787 004c 0021     		movs	r1, #0
 1788 004e 2846     		mov	r0, r5
ARM GAS  C:\Users\ADMINI~1\AppData\Local\Temp\ccVA75Tx.s 			page 57


 1789 0050 FFF7FEFF 		bl	lv_obj_get_style_prop
 1790              	.LVL165:
  94:Middlewares/LVGL/GUI/lvgl/src/core/lv_obj_style_gen.h **** }
 1791              		.loc 2 94 5 is_stmt 1 view .LVU493
  94:Middlewares/LVGL/GUI/lvgl/src/core/lv_obj_style_gen.h **** }
 1792              		.loc 2 94 5 is_stmt 0 view .LVU494
 1793              	.LBE241:
 1794              	.LBE240:
 1795              		.loc 1 597 14 view .LVU495
 1796 0054 6368     		ldr	r3, [r4, #4]
 1797 0056 0344     		add	r3, r3, r0
 1798 0058 6360     		str	r3, [r4, #4]
 598:Middlewares/LVGL/GUI/lvgl/src/core/lv_obj_pos.c ****     area->y2 -= lv_obj_get_style_pad_bottom(obj, LV_PART_MAIN);
 1799              		.loc 1 598 5 is_stmt 1 view .LVU496
 1800              	.LVL166:
 1801              	.LBB242:
 1802              	.LBI242:
  97:Middlewares/LVGL/GUI/lvgl/src/core/lv_obj_style_gen.h **** {
 1803              		.loc 2 97 26 view .LVU497
 1804              	.LBB243:
  99:Middlewares/LVGL/GUI/lvgl/src/core/lv_obj_style_gen.h ****     return (lv_coord_t)v.num;
 1805              		.loc 2 99 5 view .LVU498
  99:Middlewares/LVGL/GUI/lvgl/src/core/lv_obj_style_gen.h ****     return (lv_coord_t)v.num;
 1806              		.loc 2 99 26 is_stmt 0 view .LVU499
 1807 005a 41F61102 		movw	r2, #6161
 1808 005e 0021     		movs	r1, #0
 1809 0060 2846     		mov	r0, r5
 1810 0062 FFF7FEFF 		bl	lv_obj_get_style_prop
 1811              	.LVL167:
 100:Middlewares/LVGL/GUI/lvgl/src/core/lv_obj_style_gen.h **** }
 1812              		.loc 2 100 5 is_stmt 1 view .LVU500
 100:Middlewares/LVGL/GUI/lvgl/src/core/lv_obj_style_gen.h **** }
 1813              		.loc 2 100 5 is_stmt 0 view .LVU501
 1814              	.LBE243:
 1815              	.LBE242:
 1816              		.loc 1 598 14 view .LVU502
 1817 0066 E368     		ldr	r3, [r4, #12]
 1818 0068 1B1A     		subs	r3, r3, r0
 1819 006a E360     		str	r3, [r4, #12]
 599:Middlewares/LVGL/GUI/lvgl/src/core/lv_obj_pos.c **** 
 600:Middlewares/LVGL/GUI/lvgl/src/core/lv_obj_pos.c **** }
 1820              		.loc 1 600 1 view .LVU503
 1821 006c 70BD     		pop	{r4, r5, r6, pc}
 1822              		.loc 1 600 1 view .LVU504
 1823              		.cfi_endproc
 1824              	.LFE187:
 1826              		.section	.text.lv_obj_get_self_width,"ax",%progbits
 1827              		.align	1
 1828              		.global	lv_obj_get_self_width
 1829              		.syntax unified
 1830              		.thumb
 1831              		.thumb_func
 1833              	lv_obj_get_self_width:
 1834              	.LVL168:
 1835              	.LFB188:
 601:Middlewares/LVGL/GUI/lvgl/src/core/lv_obj_pos.c **** 
 602:Middlewares/LVGL/GUI/lvgl/src/core/lv_obj_pos.c **** lv_coord_t lv_obj_get_self_width(const lv_obj_t * obj)
ARM GAS  C:\Users\ADMINI~1\AppData\Local\Temp\ccVA75Tx.s 			page 58


 603:Middlewares/LVGL/GUI/lvgl/src/core/lv_obj_pos.c **** {
 1836              		.loc 1 603 1 is_stmt 1 view -0
 1837              		.cfi_startproc
 1838              		@ args = 0, pretend = 0, frame = 8
 1839              		@ frame_needed = 0, uses_anonymous_args = 0
 1840              		.loc 1 603 1 is_stmt 0 view .LVU506
 1841 0000 00B5     		push	{lr}
 1842              	.LCFI35:
 1843              		.cfi_def_cfa_offset 4
 1844              		.cfi_offset 14, -4
 1845 0002 83B0     		sub	sp, sp, #12
 1846              	.LCFI36:
 1847              		.cfi_def_cfa_offset 16
 604:Middlewares/LVGL/GUI/lvgl/src/core/lv_obj_pos.c ****     lv_point_t p = {0, LV_COORD_MIN};
 1848              		.loc 1 604 5 is_stmt 1 view .LVU507
 1849              		.loc 1 604 16 is_stmt 0 view .LVU508
 1850 0004 0023     		movs	r3, #0
 1851 0006 0093     		str	r3, [sp]
 1852 0008 044B     		ldr	r3, .L82
 1853 000a 0193     		str	r3, [sp, #4]
 605:Middlewares/LVGL/GUI/lvgl/src/core/lv_obj_pos.c ****     lv_event_send((lv_obj_t *)obj, LV_EVENT_GET_SELF_SIZE, &p);
 1854              		.loc 1 605 5 is_stmt 1 view .LVU509
 1855 000c 6A46     		mov	r2, sp
 1856 000e 2C21     		movs	r1, #44
 1857 0010 FFF7FEFF 		bl	lv_event_send
 1858              	.LVL169:
 606:Middlewares/LVGL/GUI/lvgl/src/core/lv_obj_pos.c ****     return p.x;
 1859              		.loc 1 606 5 view .LVU510
 607:Middlewares/LVGL/GUI/lvgl/src/core/lv_obj_pos.c **** }
 1860              		.loc 1 607 1 is_stmt 0 view .LVU511
 1861 0014 0098     		ldr	r0, [sp]
 1862 0016 03B0     		add	sp, sp, #12
 1863              	.LCFI37:
 1864              		.cfi_def_cfa_offset 4
 1865              		@ sp needed
 1866 0018 5DF804FB 		ldr	pc, [sp], #4
 1867              	.L83:
 1868              		.align	2
 1869              	.L82:
 1870 001c 010000E0 		.word	-536870911
 1871              		.cfi_endproc
 1872              	.LFE188:
 1874              		.section	.text.calc_content_width,"ax",%progbits
 1875              		.align	1
 1876              		.syntax unified
 1877              		.thumb
 1878              		.thumb_func
 1880              	calc_content_width:
 1881              	.LVL170:
 1882              	.LFB203:
 608:Middlewares/LVGL/GUI/lvgl/src/core/lv_obj_pos.c **** 
 609:Middlewares/LVGL/GUI/lvgl/src/core/lv_obj_pos.c **** lv_coord_t lv_obj_get_self_height(const lv_obj_t * obj)
 610:Middlewares/LVGL/GUI/lvgl/src/core/lv_obj_pos.c **** {
 611:Middlewares/LVGL/GUI/lvgl/src/core/lv_obj_pos.c ****     lv_point_t p = {LV_COORD_MIN, 0};
 612:Middlewares/LVGL/GUI/lvgl/src/core/lv_obj_pos.c ****     lv_event_send((lv_obj_t *)obj, LV_EVENT_GET_SELF_SIZE, &p);
 613:Middlewares/LVGL/GUI/lvgl/src/core/lv_obj_pos.c ****     return p.y;
 614:Middlewares/LVGL/GUI/lvgl/src/core/lv_obj_pos.c **** }
ARM GAS  C:\Users\ADMINI~1\AppData\Local\Temp\ccVA75Tx.s 			page 59


 615:Middlewares/LVGL/GUI/lvgl/src/core/lv_obj_pos.c **** 
 616:Middlewares/LVGL/GUI/lvgl/src/core/lv_obj_pos.c **** bool lv_obj_refresh_self_size(lv_obj_t * obj)
 617:Middlewares/LVGL/GUI/lvgl/src/core/lv_obj_pos.c **** {
 618:Middlewares/LVGL/GUI/lvgl/src/core/lv_obj_pos.c ****     lv_coord_t w_set = lv_obj_get_style_width(obj, LV_PART_MAIN);
 619:Middlewares/LVGL/GUI/lvgl/src/core/lv_obj_pos.c ****     lv_coord_t h_set = lv_obj_get_style_height(obj, LV_PART_MAIN);
 620:Middlewares/LVGL/GUI/lvgl/src/core/lv_obj_pos.c ****     if(w_set != LV_SIZE_CONTENT && h_set != LV_SIZE_CONTENT) return false;
 621:Middlewares/LVGL/GUI/lvgl/src/core/lv_obj_pos.c **** 
 622:Middlewares/LVGL/GUI/lvgl/src/core/lv_obj_pos.c ****     lv_obj_mark_layout_as_dirty(obj);
 623:Middlewares/LVGL/GUI/lvgl/src/core/lv_obj_pos.c ****     return true;
 624:Middlewares/LVGL/GUI/lvgl/src/core/lv_obj_pos.c **** }
 625:Middlewares/LVGL/GUI/lvgl/src/core/lv_obj_pos.c **** 
 626:Middlewares/LVGL/GUI/lvgl/src/core/lv_obj_pos.c **** void lv_obj_refr_pos(lv_obj_t * obj)
 627:Middlewares/LVGL/GUI/lvgl/src/core/lv_obj_pos.c **** {
 628:Middlewares/LVGL/GUI/lvgl/src/core/lv_obj_pos.c ****     if(lv_obj_is_layout_positioned(obj)) return;
 629:Middlewares/LVGL/GUI/lvgl/src/core/lv_obj_pos.c **** 
 630:Middlewares/LVGL/GUI/lvgl/src/core/lv_obj_pos.c ****     lv_obj_t * parent = lv_obj_get_parent(obj);
 631:Middlewares/LVGL/GUI/lvgl/src/core/lv_obj_pos.c ****     lv_coord_t x = lv_obj_get_style_x(obj, LV_PART_MAIN);
 632:Middlewares/LVGL/GUI/lvgl/src/core/lv_obj_pos.c ****     lv_coord_t y = lv_obj_get_style_y(obj, LV_PART_MAIN);
 633:Middlewares/LVGL/GUI/lvgl/src/core/lv_obj_pos.c **** 
 634:Middlewares/LVGL/GUI/lvgl/src/core/lv_obj_pos.c ****     if(parent == NULL) {
 635:Middlewares/LVGL/GUI/lvgl/src/core/lv_obj_pos.c ****         lv_obj_move_to(obj, x, y);
 636:Middlewares/LVGL/GUI/lvgl/src/core/lv_obj_pos.c ****         return;
 637:Middlewares/LVGL/GUI/lvgl/src/core/lv_obj_pos.c ****     }
 638:Middlewares/LVGL/GUI/lvgl/src/core/lv_obj_pos.c **** 
 639:Middlewares/LVGL/GUI/lvgl/src/core/lv_obj_pos.c ****     /*Handle percentage value*/
 640:Middlewares/LVGL/GUI/lvgl/src/core/lv_obj_pos.c ****     lv_coord_t pw = lv_obj_get_content_width(parent);
 641:Middlewares/LVGL/GUI/lvgl/src/core/lv_obj_pos.c ****     lv_coord_t ph = lv_obj_get_content_height(parent);
 642:Middlewares/LVGL/GUI/lvgl/src/core/lv_obj_pos.c ****     if(LV_COORD_IS_PCT(x)) x = (pw * LV_COORD_GET_PCT(x)) / 100;
 643:Middlewares/LVGL/GUI/lvgl/src/core/lv_obj_pos.c ****     if(LV_COORD_IS_PCT(y)) y = (ph * LV_COORD_GET_PCT(y)) / 100;
 644:Middlewares/LVGL/GUI/lvgl/src/core/lv_obj_pos.c **** 
 645:Middlewares/LVGL/GUI/lvgl/src/core/lv_obj_pos.c ****     /*Handle percentage value of translate*/
 646:Middlewares/LVGL/GUI/lvgl/src/core/lv_obj_pos.c ****     lv_coord_t tr_x = lv_obj_get_style_translate_x(obj, LV_PART_MAIN);
 647:Middlewares/LVGL/GUI/lvgl/src/core/lv_obj_pos.c ****     lv_coord_t tr_y = lv_obj_get_style_translate_y(obj, LV_PART_MAIN);
 648:Middlewares/LVGL/GUI/lvgl/src/core/lv_obj_pos.c ****     lv_coord_t w = lv_obj_get_width(obj);
 649:Middlewares/LVGL/GUI/lvgl/src/core/lv_obj_pos.c ****     lv_coord_t h = lv_obj_get_height(obj);
 650:Middlewares/LVGL/GUI/lvgl/src/core/lv_obj_pos.c ****     if(LV_COORD_IS_PCT(tr_x)) tr_x = (w * LV_COORD_GET_PCT(tr_x)) / 100;
 651:Middlewares/LVGL/GUI/lvgl/src/core/lv_obj_pos.c ****     if(LV_COORD_IS_PCT(tr_y)) tr_y = (h * LV_COORD_GET_PCT(tr_y)) / 100;
 652:Middlewares/LVGL/GUI/lvgl/src/core/lv_obj_pos.c **** 
 653:Middlewares/LVGL/GUI/lvgl/src/core/lv_obj_pos.c ****     /*Use the translation*/
 654:Middlewares/LVGL/GUI/lvgl/src/core/lv_obj_pos.c ****     x += tr_x;
 655:Middlewares/LVGL/GUI/lvgl/src/core/lv_obj_pos.c ****     y += tr_y;
 656:Middlewares/LVGL/GUI/lvgl/src/core/lv_obj_pos.c **** 
 657:Middlewares/LVGL/GUI/lvgl/src/core/lv_obj_pos.c ****     lv_align_t align = lv_obj_get_style_align(obj, LV_PART_MAIN);
 658:Middlewares/LVGL/GUI/lvgl/src/core/lv_obj_pos.c **** 
 659:Middlewares/LVGL/GUI/lvgl/src/core/lv_obj_pos.c ****     if(align == LV_ALIGN_DEFAULT) {
 660:Middlewares/LVGL/GUI/lvgl/src/core/lv_obj_pos.c ****         if(lv_obj_get_style_base_dir(parent, LV_PART_MAIN) == LV_BASE_DIR_RTL) align = LV_ALIGN_TOP
 661:Middlewares/LVGL/GUI/lvgl/src/core/lv_obj_pos.c ****         else align = LV_ALIGN_TOP_LEFT;
 662:Middlewares/LVGL/GUI/lvgl/src/core/lv_obj_pos.c ****     }
 663:Middlewares/LVGL/GUI/lvgl/src/core/lv_obj_pos.c **** 
 664:Middlewares/LVGL/GUI/lvgl/src/core/lv_obj_pos.c ****     if(align == LV_ALIGN_TOP_LEFT) {
 665:Middlewares/LVGL/GUI/lvgl/src/core/lv_obj_pos.c ****         lv_obj_move_to(obj, x, y);
 666:Middlewares/LVGL/GUI/lvgl/src/core/lv_obj_pos.c ****     }
 667:Middlewares/LVGL/GUI/lvgl/src/core/lv_obj_pos.c ****     else {
 668:Middlewares/LVGL/GUI/lvgl/src/core/lv_obj_pos.c **** 
 669:Middlewares/LVGL/GUI/lvgl/src/core/lv_obj_pos.c ****         switch(align) {
 670:Middlewares/LVGL/GUI/lvgl/src/core/lv_obj_pos.c ****             case LV_ALIGN_TOP_MID:
 671:Middlewares/LVGL/GUI/lvgl/src/core/lv_obj_pos.c ****                 x += pw / 2 - w / 2;
ARM GAS  C:\Users\ADMINI~1\AppData\Local\Temp\ccVA75Tx.s 			page 60


 672:Middlewares/LVGL/GUI/lvgl/src/core/lv_obj_pos.c ****                 break;
 673:Middlewares/LVGL/GUI/lvgl/src/core/lv_obj_pos.c ****             case LV_ALIGN_TOP_RIGHT:
 674:Middlewares/LVGL/GUI/lvgl/src/core/lv_obj_pos.c ****                 x += pw - w;
 675:Middlewares/LVGL/GUI/lvgl/src/core/lv_obj_pos.c ****                 break;
 676:Middlewares/LVGL/GUI/lvgl/src/core/lv_obj_pos.c ****             case LV_ALIGN_LEFT_MID:
 677:Middlewares/LVGL/GUI/lvgl/src/core/lv_obj_pos.c ****                 y += ph / 2 - h / 2;
 678:Middlewares/LVGL/GUI/lvgl/src/core/lv_obj_pos.c ****                 break;
 679:Middlewares/LVGL/GUI/lvgl/src/core/lv_obj_pos.c ****             case LV_ALIGN_BOTTOM_LEFT:
 680:Middlewares/LVGL/GUI/lvgl/src/core/lv_obj_pos.c ****                 y += ph - h;
 681:Middlewares/LVGL/GUI/lvgl/src/core/lv_obj_pos.c ****                 break;
 682:Middlewares/LVGL/GUI/lvgl/src/core/lv_obj_pos.c ****             case LV_ALIGN_BOTTOM_MID:
 683:Middlewares/LVGL/GUI/lvgl/src/core/lv_obj_pos.c ****                 x += pw / 2 - w / 2;
 684:Middlewares/LVGL/GUI/lvgl/src/core/lv_obj_pos.c ****                 y += ph - h;
 685:Middlewares/LVGL/GUI/lvgl/src/core/lv_obj_pos.c ****                 break;
 686:Middlewares/LVGL/GUI/lvgl/src/core/lv_obj_pos.c ****             case LV_ALIGN_BOTTOM_RIGHT:
 687:Middlewares/LVGL/GUI/lvgl/src/core/lv_obj_pos.c ****                 x += pw - w;
 688:Middlewares/LVGL/GUI/lvgl/src/core/lv_obj_pos.c ****                 y += ph - h;
 689:Middlewares/LVGL/GUI/lvgl/src/core/lv_obj_pos.c ****                 break;
 690:Middlewares/LVGL/GUI/lvgl/src/core/lv_obj_pos.c ****             case LV_ALIGN_RIGHT_MID:
 691:Middlewares/LVGL/GUI/lvgl/src/core/lv_obj_pos.c ****                 x += pw - w;
 692:Middlewares/LVGL/GUI/lvgl/src/core/lv_obj_pos.c ****                 y += ph / 2 - h / 2;
 693:Middlewares/LVGL/GUI/lvgl/src/core/lv_obj_pos.c ****                 break;
 694:Middlewares/LVGL/GUI/lvgl/src/core/lv_obj_pos.c ****             case LV_ALIGN_CENTER:
 695:Middlewares/LVGL/GUI/lvgl/src/core/lv_obj_pos.c ****                 x += pw / 2 - w / 2;
 696:Middlewares/LVGL/GUI/lvgl/src/core/lv_obj_pos.c ****                 y += ph / 2 - h / 2;
 697:Middlewares/LVGL/GUI/lvgl/src/core/lv_obj_pos.c ****                 break;
 698:Middlewares/LVGL/GUI/lvgl/src/core/lv_obj_pos.c ****             default:
 699:Middlewares/LVGL/GUI/lvgl/src/core/lv_obj_pos.c ****                 break;
 700:Middlewares/LVGL/GUI/lvgl/src/core/lv_obj_pos.c ****         }
 701:Middlewares/LVGL/GUI/lvgl/src/core/lv_obj_pos.c ****         lv_obj_move_to(obj, x, y);
 702:Middlewares/LVGL/GUI/lvgl/src/core/lv_obj_pos.c ****     }
 703:Middlewares/LVGL/GUI/lvgl/src/core/lv_obj_pos.c **** }
 704:Middlewares/LVGL/GUI/lvgl/src/core/lv_obj_pos.c **** 
 705:Middlewares/LVGL/GUI/lvgl/src/core/lv_obj_pos.c **** void lv_obj_move_to(lv_obj_t * obj, lv_coord_t x, lv_coord_t y)
 706:Middlewares/LVGL/GUI/lvgl/src/core/lv_obj_pos.c **** {
 707:Middlewares/LVGL/GUI/lvgl/src/core/lv_obj_pos.c ****     /*Convert x and y to absolute coordinates*/
 708:Middlewares/LVGL/GUI/lvgl/src/core/lv_obj_pos.c ****     lv_obj_t * parent = obj->parent;
 709:Middlewares/LVGL/GUI/lvgl/src/core/lv_obj_pos.c **** 
 710:Middlewares/LVGL/GUI/lvgl/src/core/lv_obj_pos.c ****     if(parent) {
 711:Middlewares/LVGL/GUI/lvgl/src/core/lv_obj_pos.c ****         lv_coord_t pad_left = lv_obj_get_style_pad_left(parent, LV_PART_MAIN);
 712:Middlewares/LVGL/GUI/lvgl/src/core/lv_obj_pos.c ****         lv_coord_t pad_top = lv_obj_get_style_pad_top(parent, LV_PART_MAIN);
 713:Middlewares/LVGL/GUI/lvgl/src/core/lv_obj_pos.c **** 
 714:Middlewares/LVGL/GUI/lvgl/src/core/lv_obj_pos.c ****         if(lv_obj_has_flag(obj, LV_OBJ_FLAG_FLOATING)) {
 715:Middlewares/LVGL/GUI/lvgl/src/core/lv_obj_pos.c ****             x += pad_left + parent->coords.x1;
 716:Middlewares/LVGL/GUI/lvgl/src/core/lv_obj_pos.c ****             y += pad_top + parent->coords.y1;
 717:Middlewares/LVGL/GUI/lvgl/src/core/lv_obj_pos.c ****         }
 718:Middlewares/LVGL/GUI/lvgl/src/core/lv_obj_pos.c ****         else {
 719:Middlewares/LVGL/GUI/lvgl/src/core/lv_obj_pos.c ****             x += pad_left + parent->coords.x1 - lv_obj_get_scroll_x(parent);
 720:Middlewares/LVGL/GUI/lvgl/src/core/lv_obj_pos.c ****             y += pad_top + parent->coords.y1 - lv_obj_get_scroll_y(parent);
 721:Middlewares/LVGL/GUI/lvgl/src/core/lv_obj_pos.c ****         }
 722:Middlewares/LVGL/GUI/lvgl/src/core/lv_obj_pos.c **** 
 723:Middlewares/LVGL/GUI/lvgl/src/core/lv_obj_pos.c ****         lv_coord_t border_width = lv_obj_get_style_border_width(parent, LV_PART_MAIN);
 724:Middlewares/LVGL/GUI/lvgl/src/core/lv_obj_pos.c ****         x += border_width;
 725:Middlewares/LVGL/GUI/lvgl/src/core/lv_obj_pos.c ****         y += border_width;
 726:Middlewares/LVGL/GUI/lvgl/src/core/lv_obj_pos.c ****     }
 727:Middlewares/LVGL/GUI/lvgl/src/core/lv_obj_pos.c **** 
 728:Middlewares/LVGL/GUI/lvgl/src/core/lv_obj_pos.c ****     /*Calculate and set the movement*/
ARM GAS  C:\Users\ADMINI~1\AppData\Local\Temp\ccVA75Tx.s 			page 61


 729:Middlewares/LVGL/GUI/lvgl/src/core/lv_obj_pos.c ****     lv_point_t diff;
 730:Middlewares/LVGL/GUI/lvgl/src/core/lv_obj_pos.c ****     diff.x = x - obj->coords.x1;
 731:Middlewares/LVGL/GUI/lvgl/src/core/lv_obj_pos.c ****     diff.y = y - obj->coords.y1;
 732:Middlewares/LVGL/GUI/lvgl/src/core/lv_obj_pos.c **** 
 733:Middlewares/LVGL/GUI/lvgl/src/core/lv_obj_pos.c ****     /*Do nothing if the position is not changed*/
 734:Middlewares/LVGL/GUI/lvgl/src/core/lv_obj_pos.c ****     /*It is very important else recursive positioning can
 735:Middlewares/LVGL/GUI/lvgl/src/core/lv_obj_pos.c ****      *occur without position change*/
 736:Middlewares/LVGL/GUI/lvgl/src/core/lv_obj_pos.c ****     if(diff.x == 0 && diff.y == 0) return;
 737:Middlewares/LVGL/GUI/lvgl/src/core/lv_obj_pos.c **** 
 738:Middlewares/LVGL/GUI/lvgl/src/core/lv_obj_pos.c ****     /*Invalidate the original area*/
 739:Middlewares/LVGL/GUI/lvgl/src/core/lv_obj_pos.c ****     lv_obj_invalidate(obj);
 740:Middlewares/LVGL/GUI/lvgl/src/core/lv_obj_pos.c **** 
 741:Middlewares/LVGL/GUI/lvgl/src/core/lv_obj_pos.c ****     /*Save the original coordinates*/
 742:Middlewares/LVGL/GUI/lvgl/src/core/lv_obj_pos.c ****     lv_area_t ori;
 743:Middlewares/LVGL/GUI/lvgl/src/core/lv_obj_pos.c ****     lv_obj_get_coords(obj, &ori);
 744:Middlewares/LVGL/GUI/lvgl/src/core/lv_obj_pos.c **** 
 745:Middlewares/LVGL/GUI/lvgl/src/core/lv_obj_pos.c ****     /*Check if the object inside the parent or not*/
 746:Middlewares/LVGL/GUI/lvgl/src/core/lv_obj_pos.c ****     lv_area_t parent_fit_area;
 747:Middlewares/LVGL/GUI/lvgl/src/core/lv_obj_pos.c ****     bool on1 = false;
 748:Middlewares/LVGL/GUI/lvgl/src/core/lv_obj_pos.c ****     if(parent) {
 749:Middlewares/LVGL/GUI/lvgl/src/core/lv_obj_pos.c ****         lv_obj_get_content_coords(parent, &parent_fit_area);
 750:Middlewares/LVGL/GUI/lvgl/src/core/lv_obj_pos.c **** 
 751:Middlewares/LVGL/GUI/lvgl/src/core/lv_obj_pos.c ****         /*If the object is already out of the parent and its position is changes
 752:Middlewares/LVGL/GUI/lvgl/src/core/lv_obj_pos.c ****          *surely the scrollbars also changes so invalidate them*/
 753:Middlewares/LVGL/GUI/lvgl/src/core/lv_obj_pos.c ****         on1 = _lv_area_is_in(&ori, &parent_fit_area, 0);
 754:Middlewares/LVGL/GUI/lvgl/src/core/lv_obj_pos.c ****         if(!on1) lv_obj_scrollbar_invalidate(parent);
 755:Middlewares/LVGL/GUI/lvgl/src/core/lv_obj_pos.c ****     }
 756:Middlewares/LVGL/GUI/lvgl/src/core/lv_obj_pos.c **** 
 757:Middlewares/LVGL/GUI/lvgl/src/core/lv_obj_pos.c ****     obj->coords.x1 += diff.x;
 758:Middlewares/LVGL/GUI/lvgl/src/core/lv_obj_pos.c ****     obj->coords.y1 += diff.y;
 759:Middlewares/LVGL/GUI/lvgl/src/core/lv_obj_pos.c ****     obj->coords.x2 += diff.x;
 760:Middlewares/LVGL/GUI/lvgl/src/core/lv_obj_pos.c ****     obj->coords.y2 += diff.y;
 761:Middlewares/LVGL/GUI/lvgl/src/core/lv_obj_pos.c **** 
 762:Middlewares/LVGL/GUI/lvgl/src/core/lv_obj_pos.c ****     lv_obj_move_children_by(obj, diff.x, diff.y, false);
 763:Middlewares/LVGL/GUI/lvgl/src/core/lv_obj_pos.c **** 
 764:Middlewares/LVGL/GUI/lvgl/src/core/lv_obj_pos.c ****     /*Call the ancestor's event handler to the parent too*/
 765:Middlewares/LVGL/GUI/lvgl/src/core/lv_obj_pos.c ****     if(parent) lv_event_send(parent, LV_EVENT_CHILD_CHANGED, obj);
 766:Middlewares/LVGL/GUI/lvgl/src/core/lv_obj_pos.c **** 
 767:Middlewares/LVGL/GUI/lvgl/src/core/lv_obj_pos.c ****     /*Invalidate the new area*/
 768:Middlewares/LVGL/GUI/lvgl/src/core/lv_obj_pos.c ****     lv_obj_invalidate(obj);
 769:Middlewares/LVGL/GUI/lvgl/src/core/lv_obj_pos.c **** 
 770:Middlewares/LVGL/GUI/lvgl/src/core/lv_obj_pos.c ****     /*If the object was out of the parent invalidate the new scrollbar area too.
 771:Middlewares/LVGL/GUI/lvgl/src/core/lv_obj_pos.c ****      *If it wasn't out of the parent but out now, also invalidate the srollbars*/
 772:Middlewares/LVGL/GUI/lvgl/src/core/lv_obj_pos.c ****     if(parent) {
 773:Middlewares/LVGL/GUI/lvgl/src/core/lv_obj_pos.c ****         bool on2 = _lv_area_is_in(&obj->coords, &parent_fit_area, 0);
 774:Middlewares/LVGL/GUI/lvgl/src/core/lv_obj_pos.c ****         if(on1 || (!on1 && on2)) lv_obj_scrollbar_invalidate(parent);
 775:Middlewares/LVGL/GUI/lvgl/src/core/lv_obj_pos.c ****     }
 776:Middlewares/LVGL/GUI/lvgl/src/core/lv_obj_pos.c **** }
 777:Middlewares/LVGL/GUI/lvgl/src/core/lv_obj_pos.c **** 
 778:Middlewares/LVGL/GUI/lvgl/src/core/lv_obj_pos.c **** void lv_obj_move_children_by(lv_obj_t * obj, lv_coord_t x_diff, lv_coord_t y_diff, bool ignore_floa
 779:Middlewares/LVGL/GUI/lvgl/src/core/lv_obj_pos.c **** {
 780:Middlewares/LVGL/GUI/lvgl/src/core/lv_obj_pos.c ****     uint32_t i;
 781:Middlewares/LVGL/GUI/lvgl/src/core/lv_obj_pos.c ****     uint32_t child_cnt = lv_obj_get_child_cnt(obj);
 782:Middlewares/LVGL/GUI/lvgl/src/core/lv_obj_pos.c ****     for(i = 0; i < child_cnt; i++) {
 783:Middlewares/LVGL/GUI/lvgl/src/core/lv_obj_pos.c ****         lv_obj_t * child = obj->spec_attr->children[i];
 784:Middlewares/LVGL/GUI/lvgl/src/core/lv_obj_pos.c ****         if(ignore_floating && lv_obj_has_flag(child, LV_OBJ_FLAG_FLOATING)) continue;
 785:Middlewares/LVGL/GUI/lvgl/src/core/lv_obj_pos.c ****         child->coords.x1 += x_diff;
ARM GAS  C:\Users\ADMINI~1\AppData\Local\Temp\ccVA75Tx.s 			page 62


 786:Middlewares/LVGL/GUI/lvgl/src/core/lv_obj_pos.c ****         child->coords.y1 += y_diff;
 787:Middlewares/LVGL/GUI/lvgl/src/core/lv_obj_pos.c ****         child->coords.x2 += x_diff;
 788:Middlewares/LVGL/GUI/lvgl/src/core/lv_obj_pos.c ****         child->coords.y2 += y_diff;
 789:Middlewares/LVGL/GUI/lvgl/src/core/lv_obj_pos.c **** 
 790:Middlewares/LVGL/GUI/lvgl/src/core/lv_obj_pos.c ****         lv_obj_move_children_by(child, x_diff, y_diff, false);
 791:Middlewares/LVGL/GUI/lvgl/src/core/lv_obj_pos.c ****     }
 792:Middlewares/LVGL/GUI/lvgl/src/core/lv_obj_pos.c **** }
 793:Middlewares/LVGL/GUI/lvgl/src/core/lv_obj_pos.c **** 
 794:Middlewares/LVGL/GUI/lvgl/src/core/lv_obj_pos.c **** 
 795:Middlewares/LVGL/GUI/lvgl/src/core/lv_obj_pos.c **** void lv_obj_invalidate_area(const lv_obj_t * obj, const lv_area_t * area)
 796:Middlewares/LVGL/GUI/lvgl/src/core/lv_obj_pos.c **** {
 797:Middlewares/LVGL/GUI/lvgl/src/core/lv_obj_pos.c ****     LV_ASSERT_OBJ(obj, MY_CLASS);
 798:Middlewares/LVGL/GUI/lvgl/src/core/lv_obj_pos.c **** 
 799:Middlewares/LVGL/GUI/lvgl/src/core/lv_obj_pos.c ****     lv_area_t area_tmp;
 800:Middlewares/LVGL/GUI/lvgl/src/core/lv_obj_pos.c ****     lv_area_copy(&area_tmp, area);
 801:Middlewares/LVGL/GUI/lvgl/src/core/lv_obj_pos.c ****     bool visible = lv_obj_area_is_visible(obj, &area_tmp);
 802:Middlewares/LVGL/GUI/lvgl/src/core/lv_obj_pos.c **** 
 803:Middlewares/LVGL/GUI/lvgl/src/core/lv_obj_pos.c ****     if(visible) _lv_inv_area(lv_obj_get_disp(obj), &area_tmp);
 804:Middlewares/LVGL/GUI/lvgl/src/core/lv_obj_pos.c **** }
 805:Middlewares/LVGL/GUI/lvgl/src/core/lv_obj_pos.c **** 
 806:Middlewares/LVGL/GUI/lvgl/src/core/lv_obj_pos.c **** void lv_obj_invalidate(const lv_obj_t * obj)
 807:Middlewares/LVGL/GUI/lvgl/src/core/lv_obj_pos.c **** {
 808:Middlewares/LVGL/GUI/lvgl/src/core/lv_obj_pos.c ****     LV_ASSERT_OBJ(obj, MY_CLASS);
 809:Middlewares/LVGL/GUI/lvgl/src/core/lv_obj_pos.c **** 
 810:Middlewares/LVGL/GUI/lvgl/src/core/lv_obj_pos.c ****     /*If the object has overflow visible it can be drawn anywhere on its parent
 811:Middlewares/LVGL/GUI/lvgl/src/core/lv_obj_pos.c ****      *It needs to be checked recursively*/
 812:Middlewares/LVGL/GUI/lvgl/src/core/lv_obj_pos.c ****     while(lv_obj_get_parent(obj) && lv_obj_has_flag(obj, LV_OBJ_FLAG_OVERFLOW_VISIBLE)) {
 813:Middlewares/LVGL/GUI/lvgl/src/core/lv_obj_pos.c ****         obj = lv_obj_get_parent(obj);
 814:Middlewares/LVGL/GUI/lvgl/src/core/lv_obj_pos.c ****     }
 815:Middlewares/LVGL/GUI/lvgl/src/core/lv_obj_pos.c **** 
 816:Middlewares/LVGL/GUI/lvgl/src/core/lv_obj_pos.c ****     /*Truncate the area to the object*/
 817:Middlewares/LVGL/GUI/lvgl/src/core/lv_obj_pos.c ****     lv_area_t obj_coords;
 818:Middlewares/LVGL/GUI/lvgl/src/core/lv_obj_pos.c ****     lv_coord_t ext_size = _lv_obj_get_ext_draw_size(obj);
 819:Middlewares/LVGL/GUI/lvgl/src/core/lv_obj_pos.c ****     lv_area_copy(&obj_coords, &obj->coords);
 820:Middlewares/LVGL/GUI/lvgl/src/core/lv_obj_pos.c ****     obj_coords.x1 -= ext_size;
 821:Middlewares/LVGL/GUI/lvgl/src/core/lv_obj_pos.c ****     obj_coords.y1 -= ext_size;
 822:Middlewares/LVGL/GUI/lvgl/src/core/lv_obj_pos.c ****     obj_coords.x2 += ext_size;
 823:Middlewares/LVGL/GUI/lvgl/src/core/lv_obj_pos.c ****     obj_coords.y2 += ext_size;
 824:Middlewares/LVGL/GUI/lvgl/src/core/lv_obj_pos.c **** 
 825:Middlewares/LVGL/GUI/lvgl/src/core/lv_obj_pos.c ****     lv_obj_invalidate_area(obj, &obj_coords);
 826:Middlewares/LVGL/GUI/lvgl/src/core/lv_obj_pos.c **** 
 827:Middlewares/LVGL/GUI/lvgl/src/core/lv_obj_pos.c **** }
 828:Middlewares/LVGL/GUI/lvgl/src/core/lv_obj_pos.c **** 
 829:Middlewares/LVGL/GUI/lvgl/src/core/lv_obj_pos.c **** bool lv_obj_area_is_visible(const lv_obj_t * obj, lv_area_t * area)
 830:Middlewares/LVGL/GUI/lvgl/src/core/lv_obj_pos.c **** {
 831:Middlewares/LVGL/GUI/lvgl/src/core/lv_obj_pos.c ****     if(lv_obj_has_flag(obj, LV_OBJ_FLAG_HIDDEN)) return false;
 832:Middlewares/LVGL/GUI/lvgl/src/core/lv_obj_pos.c **** 
 833:Middlewares/LVGL/GUI/lvgl/src/core/lv_obj_pos.c ****     /*Invalidate the object only if it belongs to the current or previous or one of the layers'*/
 834:Middlewares/LVGL/GUI/lvgl/src/core/lv_obj_pos.c ****     lv_obj_t * obj_scr = lv_obj_get_screen(obj);
 835:Middlewares/LVGL/GUI/lvgl/src/core/lv_obj_pos.c ****     lv_disp_t * disp   = lv_obj_get_disp(obj_scr);
 836:Middlewares/LVGL/GUI/lvgl/src/core/lv_obj_pos.c ****     if(obj_scr != lv_disp_get_scr_act(disp) &&
 837:Middlewares/LVGL/GUI/lvgl/src/core/lv_obj_pos.c ****        obj_scr != lv_disp_get_scr_prev(disp) &&
 838:Middlewares/LVGL/GUI/lvgl/src/core/lv_obj_pos.c ****        obj_scr != lv_disp_get_layer_top(disp) &&
 839:Middlewares/LVGL/GUI/lvgl/src/core/lv_obj_pos.c ****        obj_scr != lv_disp_get_layer_sys(disp)) {
 840:Middlewares/LVGL/GUI/lvgl/src/core/lv_obj_pos.c ****         return false;
 841:Middlewares/LVGL/GUI/lvgl/src/core/lv_obj_pos.c ****     }
 842:Middlewares/LVGL/GUI/lvgl/src/core/lv_obj_pos.c **** 
ARM GAS  C:\Users\ADMINI~1\AppData\Local\Temp\ccVA75Tx.s 			page 63


 843:Middlewares/LVGL/GUI/lvgl/src/core/lv_obj_pos.c ****     /*Truncate the area to the object*/
 844:Middlewares/LVGL/GUI/lvgl/src/core/lv_obj_pos.c ****     if(!lv_obj_has_flag(obj, LV_OBJ_FLAG_OVERFLOW_VISIBLE)) {
 845:Middlewares/LVGL/GUI/lvgl/src/core/lv_obj_pos.c ****         lv_area_t obj_coords;
 846:Middlewares/LVGL/GUI/lvgl/src/core/lv_obj_pos.c ****         lv_coord_t ext_size = _lv_obj_get_ext_draw_size(obj);
 847:Middlewares/LVGL/GUI/lvgl/src/core/lv_obj_pos.c ****         lv_area_copy(&obj_coords, &obj->coords);
 848:Middlewares/LVGL/GUI/lvgl/src/core/lv_obj_pos.c ****         obj_coords.x1 -= ext_size;
 849:Middlewares/LVGL/GUI/lvgl/src/core/lv_obj_pos.c ****         obj_coords.y1 -= ext_size;
 850:Middlewares/LVGL/GUI/lvgl/src/core/lv_obj_pos.c ****         obj_coords.x2 += ext_size;
 851:Middlewares/LVGL/GUI/lvgl/src/core/lv_obj_pos.c ****         obj_coords.y2 += ext_size;
 852:Middlewares/LVGL/GUI/lvgl/src/core/lv_obj_pos.c **** 
 853:Middlewares/LVGL/GUI/lvgl/src/core/lv_obj_pos.c ****         /*The area is not on the object*/
 854:Middlewares/LVGL/GUI/lvgl/src/core/lv_obj_pos.c ****         if(!_lv_area_intersect(area, area, &obj_coords)) return false;
 855:Middlewares/LVGL/GUI/lvgl/src/core/lv_obj_pos.c ****     }
 856:Middlewares/LVGL/GUI/lvgl/src/core/lv_obj_pos.c **** 
 857:Middlewares/LVGL/GUI/lvgl/src/core/lv_obj_pos.c ****     /*Truncate recursively to the parents*/
 858:Middlewares/LVGL/GUI/lvgl/src/core/lv_obj_pos.c ****     lv_obj_t * par = lv_obj_get_parent(obj);
 859:Middlewares/LVGL/GUI/lvgl/src/core/lv_obj_pos.c ****     while(par != NULL) {
 860:Middlewares/LVGL/GUI/lvgl/src/core/lv_obj_pos.c ****         /*If the parent is hidden then the child is hidden and won't be drawn*/
 861:Middlewares/LVGL/GUI/lvgl/src/core/lv_obj_pos.c ****         if(lv_obj_has_flag(par, LV_OBJ_FLAG_HIDDEN)) return false;
 862:Middlewares/LVGL/GUI/lvgl/src/core/lv_obj_pos.c **** 
 863:Middlewares/LVGL/GUI/lvgl/src/core/lv_obj_pos.c ****         /*Truncate to the parent and if no common parts break*/
 864:Middlewares/LVGL/GUI/lvgl/src/core/lv_obj_pos.c ****         if(!lv_obj_has_flag(par, LV_OBJ_FLAG_OVERFLOW_VISIBLE)) {
 865:Middlewares/LVGL/GUI/lvgl/src/core/lv_obj_pos.c ****             if(!_lv_area_intersect(area, area, &par->coords)) return false;
 866:Middlewares/LVGL/GUI/lvgl/src/core/lv_obj_pos.c ****         }
 867:Middlewares/LVGL/GUI/lvgl/src/core/lv_obj_pos.c **** 
 868:Middlewares/LVGL/GUI/lvgl/src/core/lv_obj_pos.c ****         par = lv_obj_get_parent(par);
 869:Middlewares/LVGL/GUI/lvgl/src/core/lv_obj_pos.c ****     }
 870:Middlewares/LVGL/GUI/lvgl/src/core/lv_obj_pos.c **** 
 871:Middlewares/LVGL/GUI/lvgl/src/core/lv_obj_pos.c ****     return true;
 872:Middlewares/LVGL/GUI/lvgl/src/core/lv_obj_pos.c **** }
 873:Middlewares/LVGL/GUI/lvgl/src/core/lv_obj_pos.c **** 
 874:Middlewares/LVGL/GUI/lvgl/src/core/lv_obj_pos.c **** bool lv_obj_is_visible(const lv_obj_t * obj)
 875:Middlewares/LVGL/GUI/lvgl/src/core/lv_obj_pos.c **** {
 876:Middlewares/LVGL/GUI/lvgl/src/core/lv_obj_pos.c ****     LV_ASSERT_OBJ(obj, MY_CLASS);
 877:Middlewares/LVGL/GUI/lvgl/src/core/lv_obj_pos.c **** 
 878:Middlewares/LVGL/GUI/lvgl/src/core/lv_obj_pos.c ****     lv_area_t obj_coords;
 879:Middlewares/LVGL/GUI/lvgl/src/core/lv_obj_pos.c ****     lv_coord_t ext_size = _lv_obj_get_ext_draw_size(obj);
 880:Middlewares/LVGL/GUI/lvgl/src/core/lv_obj_pos.c ****     lv_area_copy(&obj_coords, &obj->coords);
 881:Middlewares/LVGL/GUI/lvgl/src/core/lv_obj_pos.c ****     obj_coords.x1 -= ext_size;
 882:Middlewares/LVGL/GUI/lvgl/src/core/lv_obj_pos.c ****     obj_coords.y1 -= ext_size;
 883:Middlewares/LVGL/GUI/lvgl/src/core/lv_obj_pos.c ****     obj_coords.x2 += ext_size;
 884:Middlewares/LVGL/GUI/lvgl/src/core/lv_obj_pos.c ****     obj_coords.y2 += ext_size;
 885:Middlewares/LVGL/GUI/lvgl/src/core/lv_obj_pos.c **** 
 886:Middlewares/LVGL/GUI/lvgl/src/core/lv_obj_pos.c ****     return lv_obj_area_is_visible(obj, &obj_coords);
 887:Middlewares/LVGL/GUI/lvgl/src/core/lv_obj_pos.c **** 
 888:Middlewares/LVGL/GUI/lvgl/src/core/lv_obj_pos.c **** }
 889:Middlewares/LVGL/GUI/lvgl/src/core/lv_obj_pos.c **** 
 890:Middlewares/LVGL/GUI/lvgl/src/core/lv_obj_pos.c **** void lv_obj_set_ext_click_area(lv_obj_t * obj, lv_coord_t size)
 891:Middlewares/LVGL/GUI/lvgl/src/core/lv_obj_pos.c **** {
 892:Middlewares/LVGL/GUI/lvgl/src/core/lv_obj_pos.c ****     LV_ASSERT_OBJ(obj, MY_CLASS);
 893:Middlewares/LVGL/GUI/lvgl/src/core/lv_obj_pos.c **** 
 894:Middlewares/LVGL/GUI/lvgl/src/core/lv_obj_pos.c ****     lv_obj_allocate_spec_attr(obj);
 895:Middlewares/LVGL/GUI/lvgl/src/core/lv_obj_pos.c ****     obj->spec_attr->ext_click_pad = size;
 896:Middlewares/LVGL/GUI/lvgl/src/core/lv_obj_pos.c **** }
 897:Middlewares/LVGL/GUI/lvgl/src/core/lv_obj_pos.c **** 
 898:Middlewares/LVGL/GUI/lvgl/src/core/lv_obj_pos.c **** void lv_obj_get_click_area(const lv_obj_t * obj, lv_area_t * area)
 899:Middlewares/LVGL/GUI/lvgl/src/core/lv_obj_pos.c **** {
ARM GAS  C:\Users\ADMINI~1\AppData\Local\Temp\ccVA75Tx.s 			page 64


 900:Middlewares/LVGL/GUI/lvgl/src/core/lv_obj_pos.c ****     lv_area_copy(area, &obj->coords);
 901:Middlewares/LVGL/GUI/lvgl/src/core/lv_obj_pos.c ****     if(obj->spec_attr) {
 902:Middlewares/LVGL/GUI/lvgl/src/core/lv_obj_pos.c ****         area->x1 -= obj->spec_attr->ext_click_pad;
 903:Middlewares/LVGL/GUI/lvgl/src/core/lv_obj_pos.c ****         area->x2 += obj->spec_attr->ext_click_pad;
 904:Middlewares/LVGL/GUI/lvgl/src/core/lv_obj_pos.c ****         area->y1 -= obj->spec_attr->ext_click_pad;
 905:Middlewares/LVGL/GUI/lvgl/src/core/lv_obj_pos.c ****         area->y2 += obj->spec_attr->ext_click_pad;
 906:Middlewares/LVGL/GUI/lvgl/src/core/lv_obj_pos.c ****     }
 907:Middlewares/LVGL/GUI/lvgl/src/core/lv_obj_pos.c **** }
 908:Middlewares/LVGL/GUI/lvgl/src/core/lv_obj_pos.c **** 
 909:Middlewares/LVGL/GUI/lvgl/src/core/lv_obj_pos.c **** bool lv_obj_hit_test(lv_obj_t * obj, const lv_point_t * point)
 910:Middlewares/LVGL/GUI/lvgl/src/core/lv_obj_pos.c **** {
 911:Middlewares/LVGL/GUI/lvgl/src/core/lv_obj_pos.c ****     if(!lv_obj_has_flag(obj, LV_OBJ_FLAG_CLICKABLE)) return false;
 912:Middlewares/LVGL/GUI/lvgl/src/core/lv_obj_pos.c ****     if(lv_obj_has_state(obj, LV_STATE_DISABLED)) return false;
 913:Middlewares/LVGL/GUI/lvgl/src/core/lv_obj_pos.c **** 
 914:Middlewares/LVGL/GUI/lvgl/src/core/lv_obj_pos.c ****     lv_area_t a;
 915:Middlewares/LVGL/GUI/lvgl/src/core/lv_obj_pos.c ****     lv_obj_get_click_area(obj, &a);
 916:Middlewares/LVGL/GUI/lvgl/src/core/lv_obj_pos.c ****     bool res = _lv_area_is_point_on(&a, point, 0);
 917:Middlewares/LVGL/GUI/lvgl/src/core/lv_obj_pos.c ****     if(res == false) return false;
 918:Middlewares/LVGL/GUI/lvgl/src/core/lv_obj_pos.c **** 
 919:Middlewares/LVGL/GUI/lvgl/src/core/lv_obj_pos.c ****     if(lv_obj_has_flag(obj, LV_OBJ_FLAG_ADV_HITTEST)) {
 920:Middlewares/LVGL/GUI/lvgl/src/core/lv_obj_pos.c ****         lv_hit_test_info_t hit_info;
 921:Middlewares/LVGL/GUI/lvgl/src/core/lv_obj_pos.c ****         hit_info.point = point;
 922:Middlewares/LVGL/GUI/lvgl/src/core/lv_obj_pos.c ****         hit_info.res = true;
 923:Middlewares/LVGL/GUI/lvgl/src/core/lv_obj_pos.c ****         lv_event_send(obj, LV_EVENT_HIT_TEST, &hit_info);
 924:Middlewares/LVGL/GUI/lvgl/src/core/lv_obj_pos.c ****         return hit_info.res;
 925:Middlewares/LVGL/GUI/lvgl/src/core/lv_obj_pos.c ****     }
 926:Middlewares/LVGL/GUI/lvgl/src/core/lv_obj_pos.c **** 
 927:Middlewares/LVGL/GUI/lvgl/src/core/lv_obj_pos.c ****     return res;
 928:Middlewares/LVGL/GUI/lvgl/src/core/lv_obj_pos.c **** }
 929:Middlewares/LVGL/GUI/lvgl/src/core/lv_obj_pos.c **** 
 930:Middlewares/LVGL/GUI/lvgl/src/core/lv_obj_pos.c **** lv_coord_t lv_clamp_width(lv_coord_t width, lv_coord_t min_width, lv_coord_t max_width, lv_coord_t 
 931:Middlewares/LVGL/GUI/lvgl/src/core/lv_obj_pos.c **** {
 932:Middlewares/LVGL/GUI/lvgl/src/core/lv_obj_pos.c ****     if(LV_COORD_IS_PCT(min_width)) min_width = (ref_width * LV_COORD_GET_PCT(min_width)) / 100;
 933:Middlewares/LVGL/GUI/lvgl/src/core/lv_obj_pos.c ****     if(LV_COORD_IS_PCT(max_width)) max_width = (ref_width * LV_COORD_GET_PCT(max_width)) / 100;
 934:Middlewares/LVGL/GUI/lvgl/src/core/lv_obj_pos.c ****     return LV_CLAMP(min_width, width, max_width);
 935:Middlewares/LVGL/GUI/lvgl/src/core/lv_obj_pos.c **** }
 936:Middlewares/LVGL/GUI/lvgl/src/core/lv_obj_pos.c **** 
 937:Middlewares/LVGL/GUI/lvgl/src/core/lv_obj_pos.c **** lv_coord_t lv_clamp_height(lv_coord_t height, lv_coord_t min_height, lv_coord_t max_height, lv_coor
 938:Middlewares/LVGL/GUI/lvgl/src/core/lv_obj_pos.c **** {
 939:Middlewares/LVGL/GUI/lvgl/src/core/lv_obj_pos.c ****     if(LV_COORD_IS_PCT(min_height)) min_height = (ref_height * LV_COORD_GET_PCT(min_height)) / 100;
 940:Middlewares/LVGL/GUI/lvgl/src/core/lv_obj_pos.c ****     if(LV_COORD_IS_PCT(max_height)) max_height = (ref_height * LV_COORD_GET_PCT(max_height)) / 100;
 941:Middlewares/LVGL/GUI/lvgl/src/core/lv_obj_pos.c ****     return LV_CLAMP(min_height, height, max_height);
 942:Middlewares/LVGL/GUI/lvgl/src/core/lv_obj_pos.c **** }
 943:Middlewares/LVGL/GUI/lvgl/src/core/lv_obj_pos.c **** 
 944:Middlewares/LVGL/GUI/lvgl/src/core/lv_obj_pos.c **** 
 945:Middlewares/LVGL/GUI/lvgl/src/core/lv_obj_pos.c **** 
 946:Middlewares/LVGL/GUI/lvgl/src/core/lv_obj_pos.c **** /**********************
 947:Middlewares/LVGL/GUI/lvgl/src/core/lv_obj_pos.c ****  *   STATIC FUNCTIONS
 948:Middlewares/LVGL/GUI/lvgl/src/core/lv_obj_pos.c ****  **********************/
 949:Middlewares/LVGL/GUI/lvgl/src/core/lv_obj_pos.c **** 
 950:Middlewares/LVGL/GUI/lvgl/src/core/lv_obj_pos.c **** static lv_coord_t calc_content_width(lv_obj_t * obj)
 951:Middlewares/LVGL/GUI/lvgl/src/core/lv_obj_pos.c **** {
 1883              		.loc 1 951 1 is_stmt 1 view -0
 1884              		.cfi_startproc
 1885              		@ args = 0, pretend = 0, frame = 0
 1886              		@ frame_needed = 0, uses_anonymous_args = 0
 1887              		.loc 1 951 1 is_stmt 0 view .LVU513
ARM GAS  C:\Users\ADMINI~1\AppData\Local\Temp\ccVA75Tx.s 			page 65


 1888 0000 2DE9F84F 		push	{r3, r4, r5, r6, r7, r8, r9, r10, fp, lr}
 1889              	.LCFI38:
 1890              		.cfi_def_cfa_offset 40
 1891              		.cfi_offset 3, -40
 1892              		.cfi_offset 4, -36
 1893              		.cfi_offset 5, -32
 1894              		.cfi_offset 6, -28
 1895              		.cfi_offset 7, -24
 1896              		.cfi_offset 8, -20
 1897              		.cfi_offset 9, -16
 1898              		.cfi_offset 10, -12
 1899              		.cfi_offset 11, -8
 1900              		.cfi_offset 14, -4
 1901 0004 0546     		mov	r5, r0
 952:Middlewares/LVGL/GUI/lvgl/src/core/lv_obj_pos.c ****     lv_obj_scroll_to_x(obj, 0, LV_ANIM_OFF);
 1902              		.loc 1 952 5 is_stmt 1 view .LVU514
 1903 0006 0022     		movs	r2, #0
 1904 0008 1146     		mov	r1, r2
 1905 000a FFF7FEFF 		bl	lv_obj_scroll_to_x
 1906              	.LVL171:
 953:Middlewares/LVGL/GUI/lvgl/src/core/lv_obj_pos.c **** 
 954:Middlewares/LVGL/GUI/lvgl/src/core/lv_obj_pos.c ****     lv_coord_t border_width = lv_obj_get_style_border_width(obj, LV_PART_MAIN);
 1907              		.loc 1 954 5 view .LVU515
 1908              	.LBB244:
 1909              	.LBI244:
 241:Middlewares/LVGL/GUI/lvgl/src/core/lv_obj_style_gen.h **** {
 1910              		.loc 2 241 26 view .LVU516
 1911              	.LBB245:
 243:Middlewares/LVGL/GUI/lvgl/src/core/lv_obj_style_gen.h ****     return (lv_coord_t)v.num;
 1912              		.loc 2 243 5 view .LVU517
 243:Middlewares/LVGL/GUI/lvgl/src/core/lv_obj_style_gen.h ****     return (lv_coord_t)v.num;
 1913              		.loc 2 243 26 is_stmt 0 view .LVU518
 1914 000e 41F23202 		movw	r2, #4146
 1915 0012 0021     		movs	r1, #0
 1916 0014 2846     		mov	r0, r5
 1917 0016 FFF7FEFF 		bl	lv_obj_get_style_prop
 1918              	.LVL172:
 1919 001a 8346     		mov	fp, r0
 1920              	.LVL173:
 244:Middlewares/LVGL/GUI/lvgl/src/core/lv_obj_style_gen.h **** }
 1921              		.loc 2 244 5 is_stmt 1 view .LVU519
 244:Middlewares/LVGL/GUI/lvgl/src/core/lv_obj_style_gen.h **** }
 1922              		.loc 2 244 5 is_stmt 0 view .LVU520
 1923              	.LBE245:
 1924              	.LBE244:
 955:Middlewares/LVGL/GUI/lvgl/src/core/lv_obj_pos.c ****     lv_coord_t pad_right = lv_obj_get_style_pad_right(obj, LV_PART_MAIN) + border_width;
 1925              		.loc 1 955 5 is_stmt 1 view .LVU521
 1926              	.LBB246:
 1927              	.LBI246:
 109:Middlewares/LVGL/GUI/lvgl/src/core/lv_obj_style_gen.h **** {
 1928              		.loc 2 109 26 view .LVU522
 1929              	.LBB247:
 111:Middlewares/LVGL/GUI/lvgl/src/core/lv_obj_style_gen.h ****     return (lv_coord_t)v.num;
 1930              		.loc 2 111 5 view .LVU523
 111:Middlewares/LVGL/GUI/lvgl/src/core/lv_obj_style_gen.h ****     return (lv_coord_t)v.num;
 1931              		.loc 2 111 26 is_stmt 0 view .LVU524
 1932 001c 41F61302 		movw	r2, #6163
ARM GAS  C:\Users\ADMINI~1\AppData\Local\Temp\ccVA75Tx.s 			page 66


 1933 0020 0021     		movs	r1, #0
 1934 0022 2846     		mov	r0, r5
 1935              	.LVL174:
 111:Middlewares/LVGL/GUI/lvgl/src/core/lv_obj_style_gen.h ****     return (lv_coord_t)v.num;
 1936              		.loc 2 111 26 view .LVU525
 1937 0024 FFF7FEFF 		bl	lv_obj_get_style_prop
 1938              	.LVL175:
 112:Middlewares/LVGL/GUI/lvgl/src/core/lv_obj_style_gen.h **** }
 1939              		.loc 2 112 5 is_stmt 1 view .LVU526
 112:Middlewares/LVGL/GUI/lvgl/src/core/lv_obj_style_gen.h **** }
 1940              		.loc 2 112 5 is_stmt 0 view .LVU527
 1941              	.LBE247:
 1942              	.LBE246:
 1943              		.loc 1 955 16 view .LVU528
 1944 0028 00EB0B0A 		add	r10, r0, fp
 1945              	.LVL176:
 956:Middlewares/LVGL/GUI/lvgl/src/core/lv_obj_pos.c ****     lv_coord_t pad_left = lv_obj_get_style_pad_left(obj, LV_PART_MAIN) + border_width;
 1946              		.loc 1 956 5 is_stmt 1 view .LVU529
 1947              	.LBB248:
 1948              	.LBI248:
 103:Middlewares/LVGL/GUI/lvgl/src/core/lv_obj_style_gen.h **** {
 1949              		.loc 2 103 26 view .LVU530
 1950              	.LBB249:
 105:Middlewares/LVGL/GUI/lvgl/src/core/lv_obj_style_gen.h ****     return (lv_coord_t)v.num;
 1951              		.loc 2 105 5 view .LVU531
 105:Middlewares/LVGL/GUI/lvgl/src/core/lv_obj_style_gen.h ****     return (lv_coord_t)v.num;
 1952              		.loc 2 105 26 is_stmt 0 view .LVU532
 1953 002c 41F61202 		movw	r2, #6162
 1954 0030 0021     		movs	r1, #0
 1955 0032 2846     		mov	r0, r5
 1956 0034 FFF7FEFF 		bl	lv_obj_get_style_prop
 1957              	.LVL177:
 106:Middlewares/LVGL/GUI/lvgl/src/core/lv_obj_style_gen.h **** }
 1958              		.loc 2 106 5 is_stmt 1 view .LVU533
 106:Middlewares/LVGL/GUI/lvgl/src/core/lv_obj_style_gen.h **** }
 1959              		.loc 2 106 5 is_stmt 0 view .LVU534
 1960              	.LBE249:
 1961              	.LBE248:
 1962              		.loc 1 956 16 view .LVU535
 1963 0038 8344     		add	fp, fp, r0
 1964              	.LVL178:
 957:Middlewares/LVGL/GUI/lvgl/src/core/lv_obj_pos.c **** 
 958:Middlewares/LVGL/GUI/lvgl/src/core/lv_obj_pos.c ****     lv_coord_t self_w;
 1965              		.loc 1 958 5 is_stmt 1 view .LVU536
 959:Middlewares/LVGL/GUI/lvgl/src/core/lv_obj_pos.c ****     self_w = lv_obj_get_self_width(obj) +  pad_left + pad_right;
 1966              		.loc 1 959 5 view .LVU537
 1967              		.loc 1 959 14 is_stmt 0 view .LVU538
 1968 003a 2846     		mov	r0, r5
 1969 003c FFF7FEFF 		bl	lv_obj_get_self_width
 1970              	.LVL179:
 1971              		.loc 1 959 41 view .LVU539
 1972 0040 00EB0B09 		add	r9, r0, fp
 1973              		.loc 1 959 12 view .LVU540
 1974 0044 D144     		add	r9, r9, r10
 1975              	.LVL180:
 960:Middlewares/LVGL/GUI/lvgl/src/core/lv_obj_pos.c **** 
 961:Middlewares/LVGL/GUI/lvgl/src/core/lv_obj_pos.c ****     lv_coord_t child_res = LV_COORD_MIN;
ARM GAS  C:\Users\ADMINI~1\AppData\Local\Temp\ccVA75Tx.s 			page 67


 1976              		.loc 1 961 5 is_stmt 1 view .LVU541
 962:Middlewares/LVGL/GUI/lvgl/src/core/lv_obj_pos.c ****     uint32_t i;
 1977              		.loc 1 962 5 view .LVU542
 963:Middlewares/LVGL/GUI/lvgl/src/core/lv_obj_pos.c ****     uint32_t child_cnt = lv_obj_get_child_cnt(obj);
 1978              		.loc 1 963 5 view .LVU543
 1979              		.loc 1 963 26 is_stmt 0 view .LVU544
 1980 0046 2846     		mov	r0, r5
 1981 0048 FFF7FEFF 		bl	lv_obj_get_child_cnt
 1982              	.LVL181:
 1983 004c 8046     		mov	r8, r0
 1984              	.LVL182:
 964:Middlewares/LVGL/GUI/lvgl/src/core/lv_obj_pos.c ****     /*With RTL find the left most coordinate*/
 965:Middlewares/LVGL/GUI/lvgl/src/core/lv_obj_pos.c ****     if(lv_obj_get_style_base_dir(obj, LV_PART_MAIN) == LV_BASE_DIR_RTL) {
 1985              		.loc 1 965 5 is_stmt 1 view .LVU545
 1986              	.LBB250:
 1987              	.LBI250:
 540:Middlewares/LVGL/GUI/lvgl/src/core/lv_obj_style_gen.h **** }
 541:Middlewares/LVGL/GUI/lvgl/src/core/lv_obj_style_gen.h **** 
 542:Middlewares/LVGL/GUI/lvgl/src/core/lv_obj_style_gen.h **** static inline lv_base_dir_t lv_obj_get_style_base_dir(const struct _lv_obj_t * obj, uint32_t part)
 1988              		.loc 2 542 29 view .LVU546
 1989              	.LBB251:
 543:Middlewares/LVGL/GUI/lvgl/src/core/lv_obj_style_gen.h **** {
 544:Middlewares/LVGL/GUI/lvgl/src/core/lv_obj_style_gen.h ****     lv_style_value_t v = lv_obj_get_style_prop(obj, part, LV_STYLE_BASE_DIR);
 1990              		.loc 2 544 5 view .LVU547
 1991              		.loc 2 544 26 is_stmt 0 view .LVU548
 1992 004e 41F26A42 		movw	r2, #5226
 1993 0052 0021     		movs	r1, #0
 1994 0054 2846     		mov	r0, r5
 1995              	.LVL183:
 1996              		.loc 2 544 26 view .LVU549
 1997 0056 FFF7FEFF 		bl	lv_obj_get_style_prop
 1998              	.LVL184:
 545:Middlewares/LVGL/GUI/lvgl/src/core/lv_obj_style_gen.h ****     return (lv_base_dir_t)v.num;
 1999              		.loc 2 545 5 is_stmt 1 view .LVU550
 2000              		.loc 2 545 12 is_stmt 0 view .LVU551
 2001 005a C0B2     		uxtb	r0, r0
 2002              	.LVL185:
 2003              		.loc 2 545 12 view .LVU552
 2004              	.LBE251:
 2005              	.LBE250:
 2006              		.loc 1 965 7 view .LVU553
 2007 005c 0128     		cmp	r0, #1
 2008 005e 44D0     		beq	.L99
 966:Middlewares/LVGL/GUI/lvgl/src/core/lv_obj_pos.c ****         for(i = 0; i < child_cnt; i++) {
 967:Middlewares/LVGL/GUI/lvgl/src/core/lv_obj_pos.c ****             lv_obj_t * child = obj->spec_attr->children[i];
 968:Middlewares/LVGL/GUI/lvgl/src/core/lv_obj_pos.c ****             if(lv_obj_has_flag_any(child,  LV_OBJ_FLAG_HIDDEN | LV_OBJ_FLAG_FLOATING)) continue;
 969:Middlewares/LVGL/GUI/lvgl/src/core/lv_obj_pos.c **** 
 970:Middlewares/LVGL/GUI/lvgl/src/core/lv_obj_pos.c ****             if(!lv_obj_is_layout_positioned(child)) {
 971:Middlewares/LVGL/GUI/lvgl/src/core/lv_obj_pos.c ****                 lv_align_t align = lv_obj_get_style_align(child, 0);
 972:Middlewares/LVGL/GUI/lvgl/src/core/lv_obj_pos.c ****                 switch(align) {
 973:Middlewares/LVGL/GUI/lvgl/src/core/lv_obj_pos.c ****                     case LV_ALIGN_DEFAULT:
 974:Middlewares/LVGL/GUI/lvgl/src/core/lv_obj_pos.c ****                     case LV_ALIGN_TOP_RIGHT:
 975:Middlewares/LVGL/GUI/lvgl/src/core/lv_obj_pos.c ****                     case LV_ALIGN_BOTTOM_RIGHT:
 976:Middlewares/LVGL/GUI/lvgl/src/core/lv_obj_pos.c ****                     case LV_ALIGN_RIGHT_MID:
 977:Middlewares/LVGL/GUI/lvgl/src/core/lv_obj_pos.c ****                         /*Normal right aligns. Other are ignored due to possible circular dependenc
 978:Middlewares/LVGL/GUI/lvgl/src/core/lv_obj_pos.c ****                         child_res = LV_MAX(child_res, obj->coords.x2 - child->coords.x1 + 1);
 979:Middlewares/LVGL/GUI/lvgl/src/core/lv_obj_pos.c ****                         break;
ARM GAS  C:\Users\ADMINI~1\AppData\Local\Temp\ccVA75Tx.s 			page 68


 980:Middlewares/LVGL/GUI/lvgl/src/core/lv_obj_pos.c ****                     default:
 981:Middlewares/LVGL/GUI/lvgl/src/core/lv_obj_pos.c ****                         /* Consider other cases only if x=0 and use the width of the object.
 982:Middlewares/LVGL/GUI/lvgl/src/core/lv_obj_pos.c ****                          * With x!=0 circular dependency could occur. */
 983:Middlewares/LVGL/GUI/lvgl/src/core/lv_obj_pos.c ****                         if(lv_obj_get_style_x(child, 0) == 0) {
 984:Middlewares/LVGL/GUI/lvgl/src/core/lv_obj_pos.c ****                             child_res = LV_MAX(child_res, lv_area_get_width(&child->coords) + pad_r
 985:Middlewares/LVGL/GUI/lvgl/src/core/lv_obj_pos.c ****                         }
 986:Middlewares/LVGL/GUI/lvgl/src/core/lv_obj_pos.c ****                 }
 987:Middlewares/LVGL/GUI/lvgl/src/core/lv_obj_pos.c ****             }
 988:Middlewares/LVGL/GUI/lvgl/src/core/lv_obj_pos.c ****             else {
 989:Middlewares/LVGL/GUI/lvgl/src/core/lv_obj_pos.c ****                 child_res = LV_MAX(child_res, obj->coords.x2 - child->coords.x1 + 1);
 990:Middlewares/LVGL/GUI/lvgl/src/core/lv_obj_pos.c ****             }
 991:Middlewares/LVGL/GUI/lvgl/src/core/lv_obj_pos.c ****         }
 992:Middlewares/LVGL/GUI/lvgl/src/core/lv_obj_pos.c ****         if(child_res != LV_COORD_MIN) {
 993:Middlewares/LVGL/GUI/lvgl/src/core/lv_obj_pos.c ****             child_res += pad_left;
 994:Middlewares/LVGL/GUI/lvgl/src/core/lv_obj_pos.c ****         }
 995:Middlewares/LVGL/GUI/lvgl/src/core/lv_obj_pos.c ****     }
 996:Middlewares/LVGL/GUI/lvgl/src/core/lv_obj_pos.c ****     /*Else find the right most coordinate*/
 997:Middlewares/LVGL/GUI/lvgl/src/core/lv_obj_pos.c ****     else {
 998:Middlewares/LVGL/GUI/lvgl/src/core/lv_obj_pos.c ****         for(i = 0; i < child_cnt; i++) {
 2009              		.loc 1 998 15 view .LVU554
 2010 0060 0024     		movs	r4, #0
 961:Middlewares/LVGL/GUI/lvgl/src/core/lv_obj_pos.c ****     uint32_t i;
 2011              		.loc 1 961 16 view .LVU555
 2012 0062 4D4F     		ldr	r7, .L107
 2013 0064 60E0     		b	.L86
 2014              	.LVL186:
 2015              	.L104:
 2016              	.LBB252:
 2017              	.LBB253:
 971:Middlewares/LVGL/GUI/lvgl/src/core/lv_obj_pos.c ****                 switch(align) {
 2018              		.loc 1 971 17 is_stmt 1 view .LVU556
 2019              	.LBB254:
 2020              	.LBI254:
  49:Middlewares/LVGL/GUI/lvgl/src/core/lv_obj_style_gen.h **** {
 2021              		.loc 2 49 26 view .LVU557
 2022              	.LBB255:
  51:Middlewares/LVGL/GUI/lvgl/src/core/lv_obj_style_gen.h ****     return (lv_align_t)v.num;
 2023              		.loc 2 51 5 view .LVU558
  51:Middlewares/LVGL/GUI/lvgl/src/core/lv_obj_style_gen.h ****     return (lv_align_t)v.num;
 2024              		.loc 2 51 26 is_stmt 0 view .LVU559
 2025 0066 41F20902 		movw	r2, #4105
 2026 006a 0021     		movs	r1, #0
 2027 006c 3046     		mov	r0, r6
 2028 006e FFF7FEFF 		bl	lv_obj_get_style_prop
 2029              	.LVL187:
  52:Middlewares/LVGL/GUI/lvgl/src/core/lv_obj_style_gen.h **** }
 2030              		.loc 2 52 5 is_stmt 1 view .LVU560
  52:Middlewares/LVGL/GUI/lvgl/src/core/lv_obj_style_gen.h **** }
 2031              		.loc 2 52 5 is_stmt 0 view .LVU561
 2032              	.LBE255:
 2033              	.LBE254:
 972:Middlewares/LVGL/GUI/lvgl/src/core/lv_obj_pos.c ****                     case LV_ALIGN_DEFAULT:
 2034              		.loc 1 972 17 is_stmt 1 view .LVU562
 2035 0072 C0B2     		uxtb	r0, r0
 972:Middlewares/LVGL/GUI/lvgl/src/core/lv_obj_pos.c ****                     case LV_ALIGN_DEFAULT:
 2036              		.loc 1 972 17 is_stmt 0 view .LVU563
 2037 0074 0828     		cmp	r0, #8
ARM GAS  C:\Users\ADMINI~1\AppData\Local\Temp\ccVA75Tx.s 			page 69


 2038 0076 27D8     		bhi	.L89
 2039 0078 DFE800F0 		tbb	[pc, r0]
 2040              	.L91:
 2041 007c 05       		.byte	(.L90-.L91)/2
 2042 007d 26       		.byte	(.L89-.L91)/2
 2043 007e 26       		.byte	(.L89-.L91)/2
 2044 007f 05       		.byte	(.L90-.L91)/2
 2045 0080 26       		.byte	(.L89-.L91)/2
 2046 0081 26       		.byte	(.L89-.L91)/2
 2047 0082 05       		.byte	(.L90-.L91)/2
 2048 0083 26       		.byte	(.L89-.L91)/2
 2049 0084 05       		.byte	(.L90-.L91)/2
 2050 0085 00       		.p2align 1
 2051              	.L90:
 978:Middlewares/LVGL/GUI/lvgl/src/core/lv_obj_pos.c ****                         break;
 2052              		.loc 1 978 25 is_stmt 1 view .LVU564
 978:Middlewares/LVGL/GUI/lvgl/src/core/lv_obj_pos.c ****                         break;
 2053              		.loc 1 978 37 is_stmt 0 view .LVU565
 2054 0086 EB69     		ldr	r3, [r5, #28]
 2055 0088 7269     		ldr	r2, [r6, #20]
 2056 008a 9B1A     		subs	r3, r3, r2
 2057 008c 0133     		adds	r3, r3, #1
 978:Middlewares/LVGL/GUI/lvgl/src/core/lv_obj_pos.c ****                         break;
 2058              		.loc 1 978 35 view .LVU566
 2059 008e 9F42     		cmp	r7, r3
 2060 0090 B8BF     		it	lt
 2061 0092 1F46     		movlt	r7, r3
 2062              	.LVL188:
 979:Middlewares/LVGL/GUI/lvgl/src/core/lv_obj_pos.c ****                     default:
 2063              		.loc 1 979 25 is_stmt 1 view .LVU567
 2064              	.L87:
 979:Middlewares/LVGL/GUI/lvgl/src/core/lv_obj_pos.c ****                     default:
 2065              		.loc 1 979 25 is_stmt 0 view .LVU568
 2066              	.LBE253:
 2067              	.LBE252:
 966:Middlewares/LVGL/GUI/lvgl/src/core/lv_obj_pos.c ****             lv_obj_t * child = obj->spec_attr->children[i];
 2068              		.loc 1 966 35 is_stmt 1 discriminator 2 view .LVU569
 966:Middlewares/LVGL/GUI/lvgl/src/core/lv_obj_pos.c ****             lv_obj_t * child = obj->spec_attr->children[i];
 2069              		.loc 1 966 36 is_stmt 0 discriminator 2 view .LVU570
 2070 0094 0134     		adds	r4, r4, #1
 2071              	.LVL189:
 2072              	.L85:
 966:Middlewares/LVGL/GUI/lvgl/src/core/lv_obj_pos.c ****             lv_obj_t * child = obj->spec_attr->children[i];
 2073              		.loc 1 966 20 is_stmt 1 discriminator 1 view .LVU571
 966:Middlewares/LVGL/GUI/lvgl/src/core/lv_obj_pos.c ****             lv_obj_t * child = obj->spec_attr->children[i];
 2074              		.loc 1 966 9 is_stmt 0 discriminator 1 view .LVU572
 2075 0096 4445     		cmp	r4, r8
 2076 0098 2AD2     		bcs	.L103
 2077              	.LBB261:
 967:Middlewares/LVGL/GUI/lvgl/src/core/lv_obj_pos.c ****             if(lv_obj_has_flag_any(child,  LV_OBJ_FLAG_HIDDEN | LV_OBJ_FLAG_FLOATING)) continue;
 2078              		.loc 1 967 13 is_stmt 1 view .LVU573
 967:Middlewares/LVGL/GUI/lvgl/src/core/lv_obj_pos.c ****             if(lv_obj_has_flag_any(child,  LV_OBJ_FLAG_HIDDEN | LV_OBJ_FLAG_FLOATING)) continue;
 2079              		.loc 1 967 35 is_stmt 0 view .LVU574
 2080 009a AB68     		ldr	r3, [r5, #8]
 967:Middlewares/LVGL/GUI/lvgl/src/core/lv_obj_pos.c ****             if(lv_obj_has_flag_any(child,  LV_OBJ_FLAG_HIDDEN | LV_OBJ_FLAG_FLOATING)) continue;
 2081              		.loc 1 967 46 view .LVU575
 2082 009c 1B68     		ldr	r3, [r3]
ARM GAS  C:\Users\ADMINI~1\AppData\Local\Temp\ccVA75Tx.s 			page 70


 967:Middlewares/LVGL/GUI/lvgl/src/core/lv_obj_pos.c ****             if(lv_obj_has_flag_any(child,  LV_OBJ_FLAG_HIDDEN | LV_OBJ_FLAG_FLOATING)) continue;
 2083              		.loc 1 967 24 view .LVU576
 2084 009e 53F82460 		ldr	r6, [r3, r4, lsl #2]
 2085              	.LVL190:
 968:Middlewares/LVGL/GUI/lvgl/src/core/lv_obj_pos.c **** 
 2086              		.loc 1 968 13 is_stmt 1 view .LVU577
 968:Middlewares/LVGL/GUI/lvgl/src/core/lv_obj_pos.c **** 
 2087              		.loc 1 968 16 is_stmt 0 view .LVU578
 2088 00a2 3E49     		ldr	r1, .L107+4
 2089 00a4 3046     		mov	r0, r6
 2090 00a6 FFF7FEFF 		bl	lv_obj_has_flag_any
 2091              	.LVL191:
 968:Middlewares/LVGL/GUI/lvgl/src/core/lv_obj_pos.c **** 
 2092              		.loc 1 968 15 view .LVU579
 2093 00aa 0028     		cmp	r0, #0
 2094 00ac F2D1     		bne	.L87
 970:Middlewares/LVGL/GUI/lvgl/src/core/lv_obj_pos.c ****                 lv_align_t align = lv_obj_get_style_align(child, 0);
 2095              		.loc 1 970 13 is_stmt 1 view .LVU580
 970:Middlewares/LVGL/GUI/lvgl/src/core/lv_obj_pos.c ****                 lv_align_t align = lv_obj_get_style_align(child, 0);
 2096              		.loc 1 970 17 is_stmt 0 view .LVU581
 2097 00ae 3046     		mov	r0, r6
 2098 00b0 FFF7FEFF 		bl	lv_obj_is_layout_positioned
 2099              	.LVL192:
 970:Middlewares/LVGL/GUI/lvgl/src/core/lv_obj_pos.c ****                 lv_align_t align = lv_obj_get_style_align(child, 0);
 2100              		.loc 1 970 15 view .LVU582
 2101 00b4 0028     		cmp	r0, #0
 2102 00b6 D6D0     		beq	.L104
 989:Middlewares/LVGL/GUI/lvgl/src/core/lv_obj_pos.c ****             }
 2103              		.loc 1 989 17 is_stmt 1 view .LVU583
 989:Middlewares/LVGL/GUI/lvgl/src/core/lv_obj_pos.c ****             }
 2104              		.loc 1 989 29 is_stmt 0 view .LVU584
 2105 00b8 EB69     		ldr	r3, [r5, #28]
 2106 00ba 7269     		ldr	r2, [r6, #20]
 2107 00bc 9B1A     		subs	r3, r3, r2
 2108 00be 0133     		adds	r3, r3, #1
 989:Middlewares/LVGL/GUI/lvgl/src/core/lv_obj_pos.c ****             }
 2109              		.loc 1 989 27 view .LVU585
 2110 00c0 9F42     		cmp	r7, r3
 2111 00c2 B8BF     		it	lt
 2112 00c4 1F46     		movlt	r7, r3
 2113              	.LVL193:
 989:Middlewares/LVGL/GUI/lvgl/src/core/lv_obj_pos.c ****             }
 2114              		.loc 1 989 27 view .LVU586
 2115 00c6 E5E7     		b	.L87
 2116              	.LVL194:
 2117              	.L89:
 2118              	.LBB260:
 983:Middlewares/LVGL/GUI/lvgl/src/core/lv_obj_pos.c ****                             child_res = LV_MAX(child_res, lv_area_get_width(&child->coords) + pad_r
 2119              		.loc 1 983 25 is_stmt 1 view .LVU587
 2120              	.LBB256:
 2121              	.LBI256:
  37:Middlewares/LVGL/GUI/lvgl/src/core/lv_obj_style_gen.h **** {
 2122              		.loc 2 37 26 view .LVU588
 2123              	.LBB257:
  39:Middlewares/LVGL/GUI/lvgl/src/core/lv_obj_style_gen.h ****     return (lv_coord_t)v.num;
 2124              		.loc 2 39 5 view .LVU589
  39:Middlewares/LVGL/GUI/lvgl/src/core/lv_obj_style_gen.h ****     return (lv_coord_t)v.num;
ARM GAS  C:\Users\ADMINI~1\AppData\Local\Temp\ccVA75Tx.s 			page 71


 2125              		.loc 2 39 26 is_stmt 0 view .LVU590
 2126 00c8 41F20702 		movw	r2, #4103
 2127 00cc 0021     		movs	r1, #0
 2128 00ce 3046     		mov	r0, r6
 2129              	.LVL195:
  39:Middlewares/LVGL/GUI/lvgl/src/core/lv_obj_style_gen.h ****     return (lv_coord_t)v.num;
 2130              		.loc 2 39 26 view .LVU591
 2131 00d0 FFF7FEFF 		bl	lv_obj_get_style_prop
 2132              	.LVL196:
  40:Middlewares/LVGL/GUI/lvgl/src/core/lv_obj_style_gen.h **** }
 2133              		.loc 2 40 5 is_stmt 1 view .LVU592
  40:Middlewares/LVGL/GUI/lvgl/src/core/lv_obj_style_gen.h **** }
 2134              		.loc 2 40 5 is_stmt 0 view .LVU593
 2135              	.LBE257:
 2136              	.LBE256:
 983:Middlewares/LVGL/GUI/lvgl/src/core/lv_obj_pos.c ****                             child_res = LV_MAX(child_res, lv_area_get_width(&child->coords) + pad_r
 2137              		.loc 1 983 27 view .LVU594
 2138 00d4 0028     		cmp	r0, #0
 2139 00d6 DDD1     		bne	.L87
 984:Middlewares/LVGL/GUI/lvgl/src/core/lv_obj_pos.c ****                         }
 2140              		.loc 1 984 29 is_stmt 1 view .LVU595
 2141              	.LVL197:
 2142              	.LBB258:
 2143              	.LBI258:
 123:Middlewares/LVGL/GUI/lvgl/src/core/../misc/../font/../misc/lv_area.h **** {
 2144              		.loc 3 123 26 view .LVU596
 2145              	.LBB259:
 125:Middlewares/LVGL/GUI/lvgl/src/core/../misc/../font/../misc/lv_area.h **** }
 2146              		.loc 3 125 5 view .LVU597
 125:Middlewares/LVGL/GUI/lvgl/src/core/../misc/../font/../misc/lv_area.h **** }
 2147              		.loc 3 125 31 is_stmt 0 view .LVU598
 2148 00d8 F369     		ldr	r3, [r6, #28]
 125:Middlewares/LVGL/GUI/lvgl/src/core/../misc/../font/../misc/lv_area.h **** }
 2149              		.loc 3 125 44 view .LVU599
 2150 00da 7269     		ldr	r2, [r6, #20]
 125:Middlewares/LVGL/GUI/lvgl/src/core/../misc/../font/../misc/lv_area.h **** }
 2151              		.loc 3 125 36 view .LVU600
 2152 00dc 9B1A     		subs	r3, r3, r2
 125:Middlewares/LVGL/GUI/lvgl/src/core/../misc/../font/../misc/lv_area.h **** }
 2153              		.loc 3 125 12 view .LVU601
 2154 00de 0133     		adds	r3, r3, #1
 2155              	.LVL198:
 125:Middlewares/LVGL/GUI/lvgl/src/core/../misc/../font/../misc/lv_area.h **** }
 2156              		.loc 3 125 12 view .LVU602
 2157              	.LBE259:
 2158              	.LBE258:
 984:Middlewares/LVGL/GUI/lvgl/src/core/lv_obj_pos.c ****                         }
 2159              		.loc 1 984 41 view .LVU603
 2160 00e0 5344     		add	r3, r3, r10
 2161 00e2 BB42     		cmp	r3, r7
 2162 00e4 D6DB     		blt	.L87
 2163 00e6 1F46     		mov	r7, r3
 2164              	.LVL199:
 984:Middlewares/LVGL/GUI/lvgl/src/core/lv_obj_pos.c ****                         }
 2165              		.loc 1 984 41 view .LVU604
 2166 00e8 D4E7     		b	.L87
 2167              	.LVL200:
ARM GAS  C:\Users\ADMINI~1\AppData\Local\Temp\ccVA75Tx.s 			page 72


 2168              	.L99:
 984:Middlewares/LVGL/GUI/lvgl/src/core/lv_obj_pos.c ****                         }
 2169              		.loc 1 984 41 view .LVU605
 2170              	.LBE260:
 2171              	.LBE261:
 966:Middlewares/LVGL/GUI/lvgl/src/core/lv_obj_pos.c ****             lv_obj_t * child = obj->spec_attr->children[i];
 2172              		.loc 1 966 15 view .LVU606
 2173 00ea 0024     		movs	r4, #0
 961:Middlewares/LVGL/GUI/lvgl/src/core/lv_obj_pos.c ****     uint32_t i;
 2174              		.loc 1 961 16 view .LVU607
 2175 00ec 2A4F     		ldr	r7, .L107
 2176 00ee D2E7     		b	.L85
 2177              	.LVL201:
 2178              	.L103:
 992:Middlewares/LVGL/GUI/lvgl/src/core/lv_obj_pos.c ****             child_res += pad_left;
 2179              		.loc 1 992 9 is_stmt 1 view .LVU608
 992:Middlewares/LVGL/GUI/lvgl/src/core/lv_obj_pos.c ****             child_res += pad_left;
 2180              		.loc 1 992 11 is_stmt 0 view .LVU609
 2181 00f0 294B     		ldr	r3, .L107
 2182 00f2 9F42     		cmp	r7, r3
 2183 00f4 46D0     		beq	.L93
 993:Middlewares/LVGL/GUI/lvgl/src/core/lv_obj_pos.c ****         }
 2184              		.loc 1 993 13 is_stmt 1 view .LVU610
 993:Middlewares/LVGL/GUI/lvgl/src/core/lv_obj_pos.c ****         }
 2185              		.loc 1 993 23 is_stmt 0 view .LVU611
 2186 00f6 5F44     		add	r7, r7, fp
 2187              	.LVL202:
 993:Middlewares/LVGL/GUI/lvgl/src/core/lv_obj_pos.c ****         }
 2188              		.loc 1 993 23 view .LVU612
 2189 00f8 44E0     		b	.L93
 2190              	.LVL203:
 2191              	.L106:
 2192              	.LBB262:
 2193              	.LBB263:
 999:Middlewares/LVGL/GUI/lvgl/src/core/lv_obj_pos.c ****             lv_obj_t * child = obj->spec_attr->children[i];
1000:Middlewares/LVGL/GUI/lvgl/src/core/lv_obj_pos.c ****             if(lv_obj_has_flag_any(child,  LV_OBJ_FLAG_HIDDEN | LV_OBJ_FLAG_FLOATING)) continue;
1001:Middlewares/LVGL/GUI/lvgl/src/core/lv_obj_pos.c **** 
1002:Middlewares/LVGL/GUI/lvgl/src/core/lv_obj_pos.c ****             if(!lv_obj_is_layout_positioned(child)) {
1003:Middlewares/LVGL/GUI/lvgl/src/core/lv_obj_pos.c ****                 lv_align_t align = lv_obj_get_style_align(child, 0);
 2194              		.loc 1 1003 17 is_stmt 1 view .LVU613
 2195              	.LBB264:
 2196              	.LBI264:
  49:Middlewares/LVGL/GUI/lvgl/src/core/lv_obj_style_gen.h **** {
 2197              		.loc 2 49 26 view .LVU614
 2198              	.LBB265:
  51:Middlewares/LVGL/GUI/lvgl/src/core/lv_obj_style_gen.h ****     return (lv_align_t)v.num;
 2199              		.loc 2 51 5 view .LVU615
  51:Middlewares/LVGL/GUI/lvgl/src/core/lv_obj_style_gen.h ****     return (lv_align_t)v.num;
 2200              		.loc 2 51 26 is_stmt 0 view .LVU616
 2201 00fa 41F20902 		movw	r2, #4105
 2202 00fe 0021     		movs	r1, #0
 2203 0100 3046     		mov	r0, r6
 2204 0102 FFF7FEFF 		bl	lv_obj_get_style_prop
 2205              	.LVL204:
  52:Middlewares/LVGL/GUI/lvgl/src/core/lv_obj_style_gen.h **** }
 2206              		.loc 2 52 5 is_stmt 1 view .LVU617
  52:Middlewares/LVGL/GUI/lvgl/src/core/lv_obj_style_gen.h **** }
ARM GAS  C:\Users\ADMINI~1\AppData\Local\Temp\ccVA75Tx.s 			page 73


 2207              		.loc 2 52 5 is_stmt 0 view .LVU618
 2208              	.LBE265:
 2209              	.LBE264:
1004:Middlewares/LVGL/GUI/lvgl/src/core/lv_obj_pos.c ****                 switch(align) {
 2210              		.loc 1 1004 17 is_stmt 1 view .LVU619
 2211 0106 C0B2     		uxtb	r0, r0
 2212              		.loc 1 1004 17 is_stmt 0 view .LVU620
 2213 0108 0728     		cmp	r0, #7
 2214 010a 26D8     		bhi	.L96
 2215              		.loc 1 1004 17 view .LVU621
 2216 010c 0123     		movs	r3, #1
 2217 010e 03FA00F0 		lsl	r0, r3, r0
 2218              	.LVL205:
 2219              		.loc 1 1004 17 view .LVU622
 2220 0112 10F0930F 		tst	r0, #147
 2221 0116 20D0     		beq	.L96
1005:Middlewares/LVGL/GUI/lvgl/src/core/lv_obj_pos.c ****                     case LV_ALIGN_DEFAULT:
1006:Middlewares/LVGL/GUI/lvgl/src/core/lv_obj_pos.c ****                     case LV_ALIGN_TOP_LEFT:
1007:Middlewares/LVGL/GUI/lvgl/src/core/lv_obj_pos.c ****                     case LV_ALIGN_BOTTOM_LEFT:
1008:Middlewares/LVGL/GUI/lvgl/src/core/lv_obj_pos.c ****                     case LV_ALIGN_LEFT_MID:
1009:Middlewares/LVGL/GUI/lvgl/src/core/lv_obj_pos.c ****                         /*Normal left aligns.*/
1010:Middlewares/LVGL/GUI/lvgl/src/core/lv_obj_pos.c ****                         child_res = LV_MAX(child_res, child->coords.x2 - obj->coords.x1 + 1);
 2222              		.loc 1 1010 25 is_stmt 1 view .LVU623
 2223              		.loc 1 1010 37 is_stmt 0 view .LVU624
 2224 0118 F369     		ldr	r3, [r6, #28]
 2225 011a 6A69     		ldr	r2, [r5, #20]
 2226 011c 9B1A     		subs	r3, r3, r2
 2227 011e 0133     		adds	r3, r3, #1
 2228              		.loc 1 1010 35 view .LVU625
 2229 0120 9F42     		cmp	r7, r3
 2230 0122 B8BF     		it	lt
 2231 0124 1F46     		movlt	r7, r3
 2232              	.LVL206:
1011:Middlewares/LVGL/GUI/lvgl/src/core/lv_obj_pos.c ****                         break;
 2233              		.loc 1 1011 25 is_stmt 1 view .LVU626
 2234              	.L94:
 2235              		.loc 1 1011 25 is_stmt 0 view .LVU627
 2236              	.LBE263:
 2237              	.LBE262:
 998:Middlewares/LVGL/GUI/lvgl/src/core/lv_obj_pos.c ****             lv_obj_t * child = obj->spec_attr->children[i];
 2238              		.loc 1 998 35 is_stmt 1 discriminator 2 view .LVU628
 998:Middlewares/LVGL/GUI/lvgl/src/core/lv_obj_pos.c ****             lv_obj_t * child = obj->spec_attr->children[i];
 2239              		.loc 1 998 36 is_stmt 0 discriminator 2 view .LVU629
 2240 0126 0134     		adds	r4, r4, #1
 2241              	.LVL207:
 2242              	.L86:
 998:Middlewares/LVGL/GUI/lvgl/src/core/lv_obj_pos.c ****             lv_obj_t * child = obj->spec_attr->children[i];
 2243              		.loc 1 998 20 is_stmt 1 discriminator 1 view .LVU630
 998:Middlewares/LVGL/GUI/lvgl/src/core/lv_obj_pos.c ****             lv_obj_t * child = obj->spec_attr->children[i];
 2244              		.loc 1 998 9 is_stmt 0 discriminator 1 view .LVU631
 2245 0128 4445     		cmp	r4, r8
 2246 012a 27D2     		bcs	.L105
 2247              	.LBB271:
 999:Middlewares/LVGL/GUI/lvgl/src/core/lv_obj_pos.c ****             if(lv_obj_has_flag_any(child,  LV_OBJ_FLAG_HIDDEN | LV_OBJ_FLAG_FLOATING)) continue;
 2248              		.loc 1 999 13 is_stmt 1 view .LVU632
 999:Middlewares/LVGL/GUI/lvgl/src/core/lv_obj_pos.c ****             if(lv_obj_has_flag_any(child,  LV_OBJ_FLAG_HIDDEN | LV_OBJ_FLAG_FLOATING)) continue;
 2249              		.loc 1 999 35 is_stmt 0 view .LVU633
ARM GAS  C:\Users\ADMINI~1\AppData\Local\Temp\ccVA75Tx.s 			page 74


 2250 012c AB68     		ldr	r3, [r5, #8]
 999:Middlewares/LVGL/GUI/lvgl/src/core/lv_obj_pos.c ****             if(lv_obj_has_flag_any(child,  LV_OBJ_FLAG_HIDDEN | LV_OBJ_FLAG_FLOATING)) continue;
 2251              		.loc 1 999 46 view .LVU634
 2252 012e 1B68     		ldr	r3, [r3]
 999:Middlewares/LVGL/GUI/lvgl/src/core/lv_obj_pos.c ****             if(lv_obj_has_flag_any(child,  LV_OBJ_FLAG_HIDDEN | LV_OBJ_FLAG_FLOATING)) continue;
 2253              		.loc 1 999 24 view .LVU635
 2254 0130 53F82460 		ldr	r6, [r3, r4, lsl #2]
 2255              	.LVL208:
1000:Middlewares/LVGL/GUI/lvgl/src/core/lv_obj_pos.c **** 
 2256              		.loc 1 1000 13 is_stmt 1 view .LVU636
1000:Middlewares/LVGL/GUI/lvgl/src/core/lv_obj_pos.c **** 
 2257              		.loc 1 1000 16 is_stmt 0 view .LVU637
 2258 0134 1949     		ldr	r1, .L107+4
 2259 0136 3046     		mov	r0, r6
 2260 0138 FFF7FEFF 		bl	lv_obj_has_flag_any
 2261              	.LVL209:
1000:Middlewares/LVGL/GUI/lvgl/src/core/lv_obj_pos.c **** 
 2262              		.loc 1 1000 15 view .LVU638
 2263 013c 0028     		cmp	r0, #0
 2264 013e F2D1     		bne	.L94
1002:Middlewares/LVGL/GUI/lvgl/src/core/lv_obj_pos.c ****                 lv_align_t align = lv_obj_get_style_align(child, 0);
 2265              		.loc 1 1002 13 is_stmt 1 view .LVU639
1002:Middlewares/LVGL/GUI/lvgl/src/core/lv_obj_pos.c ****                 lv_align_t align = lv_obj_get_style_align(child, 0);
 2266              		.loc 1 1002 17 is_stmt 0 view .LVU640
 2267 0140 3046     		mov	r0, r6
 2268 0142 FFF7FEFF 		bl	lv_obj_is_layout_positioned
 2269              	.LVL210:
1002:Middlewares/LVGL/GUI/lvgl/src/core/lv_obj_pos.c ****                 lv_align_t align = lv_obj_get_style_align(child, 0);
 2270              		.loc 1 1002 15 view .LVU641
 2271 0146 0028     		cmp	r0, #0
 2272 0148 D7D0     		beq	.L106
1012:Middlewares/LVGL/GUI/lvgl/src/core/lv_obj_pos.c ****                     default:
1013:Middlewares/LVGL/GUI/lvgl/src/core/lv_obj_pos.c ****                         /* Consider other cases only if x=0 and use the width of the object.
1014:Middlewares/LVGL/GUI/lvgl/src/core/lv_obj_pos.c ****                          * With x!=0 circular dependency could occur. */
1015:Middlewares/LVGL/GUI/lvgl/src/core/lv_obj_pos.c ****                         if(lv_obj_get_style_y(child, 0) == 0) {
1016:Middlewares/LVGL/GUI/lvgl/src/core/lv_obj_pos.c ****                             child_res = LV_MAX(child_res, lv_area_get_width(&child->coords) + pad_l
1017:Middlewares/LVGL/GUI/lvgl/src/core/lv_obj_pos.c ****                         }
1018:Middlewares/LVGL/GUI/lvgl/src/core/lv_obj_pos.c ****                 }
1019:Middlewares/LVGL/GUI/lvgl/src/core/lv_obj_pos.c ****             }
1020:Middlewares/LVGL/GUI/lvgl/src/core/lv_obj_pos.c ****             else {
1021:Middlewares/LVGL/GUI/lvgl/src/core/lv_obj_pos.c ****                 child_res = LV_MAX(child_res, child->coords.x2 - obj->coords.x1 + 1);
 2273              		.loc 1 1021 17 is_stmt 1 view .LVU642
 2274              		.loc 1 1021 29 is_stmt 0 view .LVU643
 2275 014a F369     		ldr	r3, [r6, #28]
 2276 014c 6A69     		ldr	r2, [r5, #20]
 2277 014e 9B1A     		subs	r3, r3, r2
 2278 0150 0133     		adds	r3, r3, #1
 2279              		.loc 1 1021 27 view .LVU644
 2280 0152 9F42     		cmp	r7, r3
 2281 0154 B8BF     		it	lt
 2282 0156 1F46     		movlt	r7, r3
 2283              	.LVL211:
 2284              		.loc 1 1021 27 view .LVU645
 2285 0158 E5E7     		b	.L94
 2286              	.L96:
 2287              	.LBB270:
1015:Middlewares/LVGL/GUI/lvgl/src/core/lv_obj_pos.c ****                             child_res = LV_MAX(child_res, lv_area_get_width(&child->coords) + pad_l
ARM GAS  C:\Users\ADMINI~1\AppData\Local\Temp\ccVA75Tx.s 			page 75


 2288              		.loc 1 1015 25 is_stmt 1 view .LVU646
 2289              	.LVL212:
 2290              	.LBB266:
 2291              	.LBI266:
  43:Middlewares/LVGL/GUI/lvgl/src/core/lv_obj_style_gen.h **** {
 2292              		.loc 2 43 26 view .LVU647
 2293              	.LBB267:
  45:Middlewares/LVGL/GUI/lvgl/src/core/lv_obj_style_gen.h ****     return (lv_coord_t)v.num;
 2294              		.loc 2 45 5 view .LVU648
  45:Middlewares/LVGL/GUI/lvgl/src/core/lv_obj_style_gen.h ****     return (lv_coord_t)v.num;
 2295              		.loc 2 45 26 is_stmt 0 view .LVU649
 2296 015a 41F20802 		movw	r2, #4104
 2297 015e 0021     		movs	r1, #0
 2298 0160 3046     		mov	r0, r6
 2299 0162 FFF7FEFF 		bl	lv_obj_get_style_prop
 2300              	.LVL213:
  46:Middlewares/LVGL/GUI/lvgl/src/core/lv_obj_style_gen.h **** }
 2301              		.loc 2 46 5 is_stmt 1 view .LVU650
  46:Middlewares/LVGL/GUI/lvgl/src/core/lv_obj_style_gen.h **** }
 2302              		.loc 2 46 5 is_stmt 0 view .LVU651
 2303              	.LBE267:
 2304              	.LBE266:
1015:Middlewares/LVGL/GUI/lvgl/src/core/lv_obj_pos.c ****                             child_res = LV_MAX(child_res, lv_area_get_width(&child->coords) + pad_l
 2305              		.loc 1 1015 27 view .LVU652
 2306 0166 0028     		cmp	r0, #0
 2307 0168 DDD1     		bne	.L94
1016:Middlewares/LVGL/GUI/lvgl/src/core/lv_obj_pos.c ****                         }
 2308              		.loc 1 1016 29 is_stmt 1 view .LVU653
 2309              	.LVL214:
 2310              	.LBB268:
 2311              	.LBI268:
 123:Middlewares/LVGL/GUI/lvgl/src/core/../misc/../font/../misc/lv_area.h **** {
 2312              		.loc 3 123 26 view .LVU654
 2313              	.LBB269:
 125:Middlewares/LVGL/GUI/lvgl/src/core/../misc/../font/../misc/lv_area.h **** }
 2314              		.loc 3 125 5 view .LVU655
 125:Middlewares/LVGL/GUI/lvgl/src/core/../misc/../font/../misc/lv_area.h **** }
 2315              		.loc 3 125 31 is_stmt 0 view .LVU656
 2316 016a F369     		ldr	r3, [r6, #28]
 125:Middlewares/LVGL/GUI/lvgl/src/core/../misc/../font/../misc/lv_area.h **** }
 2317              		.loc 3 125 44 view .LVU657
 2318 016c 7269     		ldr	r2, [r6, #20]
 125:Middlewares/LVGL/GUI/lvgl/src/core/../misc/../font/../misc/lv_area.h **** }
 2319              		.loc 3 125 36 view .LVU658
 2320 016e 9B1A     		subs	r3, r3, r2
 125:Middlewares/LVGL/GUI/lvgl/src/core/../misc/../font/../misc/lv_area.h **** }
 2321              		.loc 3 125 12 view .LVU659
 2322 0170 0133     		adds	r3, r3, #1
 2323              	.LVL215:
 125:Middlewares/LVGL/GUI/lvgl/src/core/../misc/../font/../misc/lv_area.h **** }
 2324              		.loc 3 125 12 view .LVU660
 2325              	.LBE269:
 2326              	.LBE268:
1016:Middlewares/LVGL/GUI/lvgl/src/core/lv_obj_pos.c ****                         }
 2327              		.loc 1 1016 41 view .LVU661
 2328 0172 5B44     		add	r3, r3, fp
 2329 0174 BB42     		cmp	r3, r7
ARM GAS  C:\Users\ADMINI~1\AppData\Local\Temp\ccVA75Tx.s 			page 76


 2330 0176 D6DB     		blt	.L94
 2331 0178 1F46     		mov	r7, r3
 2332              	.LVL216:
1016:Middlewares/LVGL/GUI/lvgl/src/core/lv_obj_pos.c ****                         }
 2333              		.loc 1 1016 41 view .LVU662
 2334 017a D4E7     		b	.L94
 2335              	.LVL217:
 2336              	.L105:
1016:Middlewares/LVGL/GUI/lvgl/src/core/lv_obj_pos.c ****                         }
 2337              		.loc 1 1016 41 view .LVU663
 2338              	.LBE270:
 2339              	.LBE271:
1022:Middlewares/LVGL/GUI/lvgl/src/core/lv_obj_pos.c ****             }
1023:Middlewares/LVGL/GUI/lvgl/src/core/lv_obj_pos.c ****         }
1024:Middlewares/LVGL/GUI/lvgl/src/core/lv_obj_pos.c **** 
1025:Middlewares/LVGL/GUI/lvgl/src/core/lv_obj_pos.c ****         if(child_res != LV_COORD_MIN) {
 2340              		.loc 1 1025 9 is_stmt 1 view .LVU664
 2341              		.loc 1 1025 11 is_stmt 0 view .LVU665
 2342 017c 064B     		ldr	r3, .L107
 2343 017e 9F42     		cmp	r7, r3
 2344 0180 00D0     		beq	.L93
1026:Middlewares/LVGL/GUI/lvgl/src/core/lv_obj_pos.c ****             child_res += pad_right;
 2345              		.loc 1 1026 13 is_stmt 1 view .LVU666
 2346              		.loc 1 1026 23 is_stmt 0 view .LVU667
 2347 0182 5744     		add	r7, r7, r10
 2348              	.LVL218:
 2349              	.L93:
1027:Middlewares/LVGL/GUI/lvgl/src/core/lv_obj_pos.c ****         }
1028:Middlewares/LVGL/GUI/lvgl/src/core/lv_obj_pos.c ****     }
1029:Middlewares/LVGL/GUI/lvgl/src/core/lv_obj_pos.c **** 
1030:Middlewares/LVGL/GUI/lvgl/src/core/lv_obj_pos.c ****     if(child_res == LV_COORD_MIN) return self_w;
 2350              		.loc 1 1030 5 is_stmt 1 view .LVU668
 2351              		.loc 1 1030 7 is_stmt 0 view .LVU669
 2352 0184 044B     		ldr	r3, .L107
 2353 0186 9F42     		cmp	r7, r3
 2354 0188 02D0     		beq	.L84
1031:Middlewares/LVGL/GUI/lvgl/src/core/lv_obj_pos.c ****     else return LV_MAX(child_res, self_w);
 2355              		.loc 1 1031 10 is_stmt 1 view .LVU670
 2356              		.loc 1 1031 17 is_stmt 0 view .LVU671
 2357 018a B945     		cmp	r9, r7
 2358 018c B8BF     		it	lt
 2359 018e B946     		movlt	r9, r7
 2360              	.LVL219:
 2361              	.L84:
1032:Middlewares/LVGL/GUI/lvgl/src/core/lv_obj_pos.c **** }
 2362              		.loc 1 1032 1 view .LVU672
 2363 0190 4846     		mov	r0, r9
 2364 0192 BDE8F88F 		pop	{r3, r4, r5, r6, r7, r8, r9, r10, fp, pc}
 2365              	.LVL220:
 2366              	.L108:
 2367              		.loc 1 1032 1 view .LVU673
 2368 0196 00BF     		.align	2
 2369              	.L107:
 2370 0198 010000E0 		.word	-536870911
 2371 019c 01000400 		.word	262145
 2372              		.cfi_endproc
 2373              	.LFE203:
ARM GAS  C:\Users\ADMINI~1\AppData\Local\Temp\ccVA75Tx.s 			page 77


 2375              		.section	.text.lv_obj_get_self_height,"ax",%progbits
 2376              		.align	1
 2377              		.global	lv_obj_get_self_height
 2378              		.syntax unified
 2379              		.thumb
 2380              		.thumb_func
 2382              	lv_obj_get_self_height:
 2383              	.LVL221:
 2384              	.LFB189:
 610:Middlewares/LVGL/GUI/lvgl/src/core/lv_obj_pos.c ****     lv_point_t p = {LV_COORD_MIN, 0};
 2385              		.loc 1 610 1 is_stmt 1 view -0
 2386              		.cfi_startproc
 2387              		@ args = 0, pretend = 0, frame = 8
 2388              		@ frame_needed = 0, uses_anonymous_args = 0
 610:Middlewares/LVGL/GUI/lvgl/src/core/lv_obj_pos.c ****     lv_point_t p = {LV_COORD_MIN, 0};
 2389              		.loc 1 610 1 is_stmt 0 view .LVU675
 2390 0000 00B5     		push	{lr}
 2391              	.LCFI39:
 2392              		.cfi_def_cfa_offset 4
 2393              		.cfi_offset 14, -4
 2394 0002 83B0     		sub	sp, sp, #12
 2395              	.LCFI40:
 2396              		.cfi_def_cfa_offset 16
 611:Middlewares/LVGL/GUI/lvgl/src/core/lv_obj_pos.c ****     lv_event_send((lv_obj_t *)obj, LV_EVENT_GET_SELF_SIZE, &p);
 2397              		.loc 1 611 5 is_stmt 1 view .LVU676
 611:Middlewares/LVGL/GUI/lvgl/src/core/lv_obj_pos.c ****     lv_event_send((lv_obj_t *)obj, LV_EVENT_GET_SELF_SIZE, &p);
 2398              		.loc 1 611 16 is_stmt 0 view .LVU677
 2399 0004 054B     		ldr	r3, .L111
 2400 0006 0093     		str	r3, [sp]
 2401 0008 0023     		movs	r3, #0
 2402 000a 0193     		str	r3, [sp, #4]
 612:Middlewares/LVGL/GUI/lvgl/src/core/lv_obj_pos.c ****     return p.y;
 2403              		.loc 1 612 5 is_stmt 1 view .LVU678
 2404 000c 6A46     		mov	r2, sp
 2405 000e 2C21     		movs	r1, #44
 2406 0010 FFF7FEFF 		bl	lv_event_send
 2407              	.LVL222:
 613:Middlewares/LVGL/GUI/lvgl/src/core/lv_obj_pos.c **** }
 2408              		.loc 1 613 5 view .LVU679
 614:Middlewares/LVGL/GUI/lvgl/src/core/lv_obj_pos.c **** 
 2409              		.loc 1 614 1 is_stmt 0 view .LVU680
 2410 0014 0198     		ldr	r0, [sp, #4]
 2411 0016 03B0     		add	sp, sp, #12
 2412              	.LCFI41:
 2413              		.cfi_def_cfa_offset 4
 2414              		@ sp needed
 2415 0018 5DF804FB 		ldr	pc, [sp], #4
 2416              	.L112:
 2417              		.align	2
 2418              	.L111:
 2419 001c 010000E0 		.word	-536870911
 2420              		.cfi_endproc
 2421              	.LFE189:
 2423              		.section	.text.calc_content_height,"ax",%progbits
 2424              		.align	1
 2425              		.syntax unified
 2426              		.thumb
ARM GAS  C:\Users\ADMINI~1\AppData\Local\Temp\ccVA75Tx.s 			page 78


 2427              		.thumb_func
 2429              	calc_content_height:
 2430              	.LVL223:
 2431              	.LFB204:
1033:Middlewares/LVGL/GUI/lvgl/src/core/lv_obj_pos.c **** 
1034:Middlewares/LVGL/GUI/lvgl/src/core/lv_obj_pos.c **** static lv_coord_t calc_content_height(lv_obj_t * obj)
1035:Middlewares/LVGL/GUI/lvgl/src/core/lv_obj_pos.c **** {
 2432              		.loc 1 1035 1 is_stmt 1 view -0
 2433              		.cfi_startproc
 2434              		@ args = 0, pretend = 0, frame = 0
 2435              		@ frame_needed = 0, uses_anonymous_args = 0
 2436              		.loc 1 1035 1 is_stmt 0 view .LVU682
 2437 0000 2DE9F84F 		push	{r3, r4, r5, r6, r7, r8, r9, r10, fp, lr}
 2438              	.LCFI42:
 2439              		.cfi_def_cfa_offset 40
 2440              		.cfi_offset 3, -40
 2441              		.cfi_offset 4, -36
 2442              		.cfi_offset 5, -32
 2443              		.cfi_offset 6, -28
 2444              		.cfi_offset 7, -24
 2445              		.cfi_offset 8, -20
 2446              		.cfi_offset 9, -16
 2447              		.cfi_offset 10, -12
 2448              		.cfi_offset 11, -8
 2449              		.cfi_offset 14, -4
 2450 0004 0646     		mov	r6, r0
1036:Middlewares/LVGL/GUI/lvgl/src/core/lv_obj_pos.c ****     lv_obj_scroll_to_y(obj, 0, LV_ANIM_OFF);
 2451              		.loc 1 1036 5 is_stmt 1 view .LVU683
 2452 0006 0022     		movs	r2, #0
 2453 0008 1146     		mov	r1, r2
 2454 000a FFF7FEFF 		bl	lv_obj_scroll_to_y
 2455              	.LVL224:
1037:Middlewares/LVGL/GUI/lvgl/src/core/lv_obj_pos.c **** 
1038:Middlewares/LVGL/GUI/lvgl/src/core/lv_obj_pos.c ****     lv_coord_t border_width = lv_obj_get_style_border_width(obj, LV_PART_MAIN);
 2456              		.loc 1 1038 5 view .LVU684
 2457              	.LBB272:
 2458              	.LBI272:
 241:Middlewares/LVGL/GUI/lvgl/src/core/lv_obj_style_gen.h **** {
 2459              		.loc 2 241 26 view .LVU685
 2460              	.LBB273:
 243:Middlewares/LVGL/GUI/lvgl/src/core/lv_obj_style_gen.h ****     return (lv_coord_t)v.num;
 2461              		.loc 2 243 5 view .LVU686
 243:Middlewares/LVGL/GUI/lvgl/src/core/lv_obj_style_gen.h ****     return (lv_coord_t)v.num;
 2462              		.loc 2 243 26 is_stmt 0 view .LVU687
 2463 000e 41F23202 		movw	r2, #4146
 2464 0012 0021     		movs	r1, #0
 2465 0014 3046     		mov	r0, r6
 2466 0016 FFF7FEFF 		bl	lv_obj_get_style_prop
 2467              	.LVL225:
 2468 001a 8246     		mov	r10, r0
 2469              	.LVL226:
 244:Middlewares/LVGL/GUI/lvgl/src/core/lv_obj_style_gen.h **** }
 2470              		.loc 2 244 5 is_stmt 1 view .LVU688
 244:Middlewares/LVGL/GUI/lvgl/src/core/lv_obj_style_gen.h **** }
 2471              		.loc 2 244 5 is_stmt 0 view .LVU689
 2472              	.LBE273:
 2473              	.LBE272:
ARM GAS  C:\Users\ADMINI~1\AppData\Local\Temp\ccVA75Tx.s 			page 79


1039:Middlewares/LVGL/GUI/lvgl/src/core/lv_obj_pos.c ****     lv_coord_t pad_top = lv_obj_get_style_pad_top(obj, LV_PART_MAIN) + border_width;
 2474              		.loc 1 1039 5 is_stmt 1 view .LVU690
 2475              	.LBB274:
 2476              	.LBI274:
  91:Middlewares/LVGL/GUI/lvgl/src/core/lv_obj_style_gen.h **** {
 2477              		.loc 2 91 26 view .LVU691
 2478              	.LBB275:
  93:Middlewares/LVGL/GUI/lvgl/src/core/lv_obj_style_gen.h ****     return (lv_coord_t)v.num;
 2479              		.loc 2 93 5 view .LVU692
  93:Middlewares/LVGL/GUI/lvgl/src/core/lv_obj_style_gen.h ****     return (lv_coord_t)v.num;
 2480              		.loc 2 93 26 is_stmt 0 view .LVU693
 2481 001c 41F61002 		movw	r2, #6160
 2482 0020 0021     		movs	r1, #0
 2483 0022 3046     		mov	r0, r6
 2484              	.LVL227:
  93:Middlewares/LVGL/GUI/lvgl/src/core/lv_obj_style_gen.h ****     return (lv_coord_t)v.num;
 2485              		.loc 2 93 26 view .LVU694
 2486 0024 FFF7FEFF 		bl	lv_obj_get_style_prop
 2487              	.LVL228:
  94:Middlewares/LVGL/GUI/lvgl/src/core/lv_obj_style_gen.h **** }
 2488              		.loc 2 94 5 is_stmt 1 view .LVU695
  94:Middlewares/LVGL/GUI/lvgl/src/core/lv_obj_style_gen.h **** }
 2489              		.loc 2 94 5 is_stmt 0 view .LVU696
 2490              	.LBE275:
 2491              	.LBE274:
 2492              		.loc 1 1039 16 view .LVU697
 2493 0028 00EB0A0B 		add	fp, r0, r10
 2494              	.LVL229:
1040:Middlewares/LVGL/GUI/lvgl/src/core/lv_obj_pos.c ****     lv_coord_t pad_bottom = lv_obj_get_style_pad_bottom(obj, LV_PART_MAIN) + border_width;
 2495              		.loc 1 1040 5 is_stmt 1 view .LVU698
 2496              	.LBB276:
 2497              	.LBI276:
  97:Middlewares/LVGL/GUI/lvgl/src/core/lv_obj_style_gen.h **** {
 2498              		.loc 2 97 26 view .LVU699
 2499              	.LBB277:
  99:Middlewares/LVGL/GUI/lvgl/src/core/lv_obj_style_gen.h ****     return (lv_coord_t)v.num;
 2500              		.loc 2 99 5 view .LVU700
  99:Middlewares/LVGL/GUI/lvgl/src/core/lv_obj_style_gen.h ****     return (lv_coord_t)v.num;
 2501              		.loc 2 99 26 is_stmt 0 view .LVU701
 2502 002c 41F61102 		movw	r2, #6161
 2503 0030 0021     		movs	r1, #0
 2504 0032 3046     		mov	r0, r6
 2505 0034 FFF7FEFF 		bl	lv_obj_get_style_prop
 2506              	.LVL230:
 100:Middlewares/LVGL/GUI/lvgl/src/core/lv_obj_style_gen.h **** }
 2507              		.loc 2 100 5 is_stmt 1 view .LVU702
 100:Middlewares/LVGL/GUI/lvgl/src/core/lv_obj_style_gen.h **** }
 2508              		.loc 2 100 5 is_stmt 0 view .LVU703
 2509              	.LBE277:
 2510              	.LBE276:
 2511              		.loc 1 1040 16 view .LVU704
 2512 0038 8244     		add	r10, r10, r0
 2513              	.LVL231:
1041:Middlewares/LVGL/GUI/lvgl/src/core/lv_obj_pos.c **** 
1042:Middlewares/LVGL/GUI/lvgl/src/core/lv_obj_pos.c ****     lv_coord_t self_h;
 2514              		.loc 1 1042 5 is_stmt 1 view .LVU705
1043:Middlewares/LVGL/GUI/lvgl/src/core/lv_obj_pos.c ****     self_h = lv_obj_get_self_height(obj) + pad_top + pad_bottom;
ARM GAS  C:\Users\ADMINI~1\AppData\Local\Temp\ccVA75Tx.s 			page 80


 2515              		.loc 1 1043 5 view .LVU706
 2516              		.loc 1 1043 14 is_stmt 0 view .LVU707
 2517 003a 3046     		mov	r0, r6
 2518 003c FFF7FEFF 		bl	lv_obj_get_self_height
 2519              	.LVL232:
 2520              		.loc 1 1043 42 view .LVU708
 2521 0040 00EB0B09 		add	r9, r0, fp
 2522              		.loc 1 1043 12 view .LVU709
 2523 0044 D144     		add	r9, r9, r10
 2524              	.LVL233:
1044:Middlewares/LVGL/GUI/lvgl/src/core/lv_obj_pos.c **** 
1045:Middlewares/LVGL/GUI/lvgl/src/core/lv_obj_pos.c ****     lv_coord_t child_res = LV_COORD_MIN;
 2525              		.loc 1 1045 5 is_stmt 1 view .LVU710
1046:Middlewares/LVGL/GUI/lvgl/src/core/lv_obj_pos.c ****     uint32_t i;
 2526              		.loc 1 1046 5 view .LVU711
1047:Middlewares/LVGL/GUI/lvgl/src/core/lv_obj_pos.c ****     uint32_t child_cnt = lv_obj_get_child_cnt(obj);
 2527              		.loc 1 1047 5 view .LVU712
 2528              		.loc 1 1047 26 is_stmt 0 view .LVU713
 2529 0046 3046     		mov	r0, r6
 2530 0048 FFF7FEFF 		bl	lv_obj_get_child_cnt
 2531              	.LVL234:
 2532 004c 0746     		mov	r7, r0
 2533              	.LVL235:
1048:Middlewares/LVGL/GUI/lvgl/src/core/lv_obj_pos.c ****     for(i = 0; i < child_cnt; i++) {
 2534              		.loc 1 1048 5 is_stmt 1 view .LVU714
 2535              		.loc 1 1048 11 is_stmt 0 view .LVU715
 2536 004e 0024     		movs	r4, #0
1045:Middlewares/LVGL/GUI/lvgl/src/core/lv_obj_pos.c ****     uint32_t i;
 2537              		.loc 1 1045 16 view .LVU716
 2538 0050 DFF89080 		ldr	r8, .L124+4
 2539              		.loc 1 1048 5 view .LVU717
 2540 0054 10E0     		b	.L114
 2541              	.LVL236:
 2542              	.L123:
 2543              	.LBB278:
 2544              	.LBB279:
1049:Middlewares/LVGL/GUI/lvgl/src/core/lv_obj_pos.c ****         lv_obj_t * child = obj->spec_attr->children[i];
1050:Middlewares/LVGL/GUI/lvgl/src/core/lv_obj_pos.c ****         if(lv_obj_has_flag_any(child,  LV_OBJ_FLAG_HIDDEN | LV_OBJ_FLAG_FLOATING)) continue;
1051:Middlewares/LVGL/GUI/lvgl/src/core/lv_obj_pos.c **** 
1052:Middlewares/LVGL/GUI/lvgl/src/core/lv_obj_pos.c **** 
1053:Middlewares/LVGL/GUI/lvgl/src/core/lv_obj_pos.c ****         if(!lv_obj_is_layout_positioned(child)) {
1054:Middlewares/LVGL/GUI/lvgl/src/core/lv_obj_pos.c ****             lv_align_t align = lv_obj_get_style_align(child, 0);
 2545              		.loc 1 1054 13 is_stmt 1 view .LVU718
 2546              	.LBB280:
 2547              	.LBI280:
  49:Middlewares/LVGL/GUI/lvgl/src/core/lv_obj_style_gen.h **** {
 2548              		.loc 2 49 26 view .LVU719
 2549              	.LBB281:
  51:Middlewares/LVGL/GUI/lvgl/src/core/lv_obj_style_gen.h ****     return (lv_align_t)v.num;
 2550              		.loc 2 51 5 view .LVU720
  51:Middlewares/LVGL/GUI/lvgl/src/core/lv_obj_style_gen.h ****     return (lv_align_t)v.num;
 2551              		.loc 2 51 26 is_stmt 0 view .LVU721
 2552 0056 41F20902 		movw	r2, #4105
 2553 005a 0021     		movs	r1, #0
 2554 005c 2846     		mov	r0, r5
 2555 005e FFF7FEFF 		bl	lv_obj_get_style_prop
 2556              	.LVL237:
ARM GAS  C:\Users\ADMINI~1\AppData\Local\Temp\ccVA75Tx.s 			page 81


  52:Middlewares/LVGL/GUI/lvgl/src/core/lv_obj_style_gen.h **** }
 2557              		.loc 2 52 5 is_stmt 1 view .LVU722
  52:Middlewares/LVGL/GUI/lvgl/src/core/lv_obj_style_gen.h **** }
 2558              		.loc 2 52 5 is_stmt 0 view .LVU723
 2559              	.LBE281:
 2560              	.LBE280:
1055:Middlewares/LVGL/GUI/lvgl/src/core/lv_obj_pos.c ****             switch(align) {
 2561              		.loc 1 1055 13 is_stmt 1 view .LVU724
 2562 0062 C0B2     		uxtb	r0, r0
 2563              		.loc 1 1055 13 is_stmt 0 view .LVU725
 2564 0064 0328     		cmp	r0, #3
 2565 0066 20D8     		bhi	.L117
1056:Middlewares/LVGL/GUI/lvgl/src/core/lv_obj_pos.c ****                 case LV_ALIGN_DEFAULT:
1057:Middlewares/LVGL/GUI/lvgl/src/core/lv_obj_pos.c ****                 case LV_ALIGN_TOP_RIGHT:
1058:Middlewares/LVGL/GUI/lvgl/src/core/lv_obj_pos.c ****                 case LV_ALIGN_TOP_MID:
1059:Middlewares/LVGL/GUI/lvgl/src/core/lv_obj_pos.c ****                 case LV_ALIGN_TOP_LEFT:
1060:Middlewares/LVGL/GUI/lvgl/src/core/lv_obj_pos.c ****                     /*Normal top aligns. */
1061:Middlewares/LVGL/GUI/lvgl/src/core/lv_obj_pos.c ****                     child_res = LV_MAX(child_res, child->coords.y2 - obj->coords.y1 + 1);
 2566              		.loc 1 1061 21 is_stmt 1 view .LVU726
 2567              		.loc 1 1061 33 is_stmt 0 view .LVU727
 2568 0068 2B6A     		ldr	r3, [r5, #32]
 2569 006a B269     		ldr	r2, [r6, #24]
 2570 006c 9B1A     		subs	r3, r3, r2
 2571 006e 0133     		adds	r3, r3, #1
 2572              		.loc 1 1061 31 view .LVU728
 2573 0070 9845     		cmp	r8, r3
 2574 0072 B8BF     		it	lt
 2575 0074 9846     		movlt	r8, r3
 2576              	.LVL238:
1062:Middlewares/LVGL/GUI/lvgl/src/core/lv_obj_pos.c ****                     break;
 2577              		.loc 1 1062 21 is_stmt 1 view .LVU729
 2578              	.L115:
 2579              		.loc 1 1062 21 is_stmt 0 view .LVU730
 2580              	.LBE279:
 2581              	.LBE278:
1048:Middlewares/LVGL/GUI/lvgl/src/core/lv_obj_pos.c ****         lv_obj_t * child = obj->spec_attr->children[i];
 2582              		.loc 1 1048 31 is_stmt 1 discriminator 2 view .LVU731
1048:Middlewares/LVGL/GUI/lvgl/src/core/lv_obj_pos.c ****         lv_obj_t * child = obj->spec_attr->children[i];
 2583              		.loc 1 1048 32 is_stmt 0 discriminator 2 view .LVU732
 2584 0076 0134     		adds	r4, r4, #1
 2585              	.LVL239:
 2586              	.L114:
1048:Middlewares/LVGL/GUI/lvgl/src/core/lv_obj_pos.c ****         lv_obj_t * child = obj->spec_attr->children[i];
 2587              		.loc 1 1048 16 is_stmt 1 discriminator 1 view .LVU733
1048:Middlewares/LVGL/GUI/lvgl/src/core/lv_obj_pos.c ****         lv_obj_t * child = obj->spec_attr->children[i];
 2588              		.loc 1 1048 5 is_stmt 0 discriminator 1 view .LVU734
 2589 0078 BC42     		cmp	r4, r7
 2590 007a 27D2     		bcs	.L122
 2591              	.LBB287:
1049:Middlewares/LVGL/GUI/lvgl/src/core/lv_obj_pos.c ****         if(lv_obj_has_flag_any(child,  LV_OBJ_FLAG_HIDDEN | LV_OBJ_FLAG_FLOATING)) continue;
 2592              		.loc 1 1049 9 is_stmt 1 view .LVU735
1049:Middlewares/LVGL/GUI/lvgl/src/core/lv_obj_pos.c ****         if(lv_obj_has_flag_any(child,  LV_OBJ_FLAG_HIDDEN | LV_OBJ_FLAG_FLOATING)) continue;
 2593              		.loc 1 1049 31 is_stmt 0 view .LVU736
 2594 007c B368     		ldr	r3, [r6, #8]
1049:Middlewares/LVGL/GUI/lvgl/src/core/lv_obj_pos.c ****         if(lv_obj_has_flag_any(child,  LV_OBJ_FLAG_HIDDEN | LV_OBJ_FLAG_FLOATING)) continue;
 2595              		.loc 1 1049 42 view .LVU737
 2596 007e 1B68     		ldr	r3, [r3]
ARM GAS  C:\Users\ADMINI~1\AppData\Local\Temp\ccVA75Tx.s 			page 82


1049:Middlewares/LVGL/GUI/lvgl/src/core/lv_obj_pos.c ****         if(lv_obj_has_flag_any(child,  LV_OBJ_FLAG_HIDDEN | LV_OBJ_FLAG_FLOATING)) continue;
 2597              		.loc 1 1049 20 view .LVU738
 2598 0080 53F82450 		ldr	r5, [r3, r4, lsl #2]
 2599              	.LVL240:
1050:Middlewares/LVGL/GUI/lvgl/src/core/lv_obj_pos.c **** 
 2600              		.loc 1 1050 9 is_stmt 1 view .LVU739
1050:Middlewares/LVGL/GUI/lvgl/src/core/lv_obj_pos.c **** 
 2601              		.loc 1 1050 12 is_stmt 0 view .LVU740
 2602 0084 1649     		ldr	r1, .L124
 2603 0086 2846     		mov	r0, r5
 2604 0088 FFF7FEFF 		bl	lv_obj_has_flag_any
 2605              	.LVL241:
1050:Middlewares/LVGL/GUI/lvgl/src/core/lv_obj_pos.c **** 
 2606              		.loc 1 1050 11 view .LVU741
 2607 008c 0028     		cmp	r0, #0
 2608 008e F2D1     		bne	.L115
1053:Middlewares/LVGL/GUI/lvgl/src/core/lv_obj_pos.c ****             lv_align_t align = lv_obj_get_style_align(child, 0);
 2609              		.loc 1 1053 9 is_stmt 1 view .LVU742
1053:Middlewares/LVGL/GUI/lvgl/src/core/lv_obj_pos.c ****             lv_align_t align = lv_obj_get_style_align(child, 0);
 2610              		.loc 1 1053 13 is_stmt 0 view .LVU743
 2611 0090 2846     		mov	r0, r5
 2612 0092 FFF7FEFF 		bl	lv_obj_is_layout_positioned
 2613              	.LVL242:
1053:Middlewares/LVGL/GUI/lvgl/src/core/lv_obj_pos.c ****             lv_align_t align = lv_obj_get_style_align(child, 0);
 2614              		.loc 1 1053 11 view .LVU744
 2615 0096 0028     		cmp	r0, #0
 2616 0098 DDD0     		beq	.L123
1063:Middlewares/LVGL/GUI/lvgl/src/core/lv_obj_pos.c ****                 default:
1064:Middlewares/LVGL/GUI/lvgl/src/core/lv_obj_pos.c ****                     /* Consider other cases only if y=0 and use the height of the object.
1065:Middlewares/LVGL/GUI/lvgl/src/core/lv_obj_pos.c ****                      * With y!=0 circular dependency could occur. */
1066:Middlewares/LVGL/GUI/lvgl/src/core/lv_obj_pos.c ****                     if(lv_obj_get_style_y(child, 0) == 0) {
1067:Middlewares/LVGL/GUI/lvgl/src/core/lv_obj_pos.c ****                         child_res = LV_MAX(child_res, lv_area_get_height(&child->coords) + pad_top)
1068:Middlewares/LVGL/GUI/lvgl/src/core/lv_obj_pos.c ****                     }
1069:Middlewares/LVGL/GUI/lvgl/src/core/lv_obj_pos.c ****                     break;
1070:Middlewares/LVGL/GUI/lvgl/src/core/lv_obj_pos.c ****             }
1071:Middlewares/LVGL/GUI/lvgl/src/core/lv_obj_pos.c ****         }
1072:Middlewares/LVGL/GUI/lvgl/src/core/lv_obj_pos.c ****         else {
1073:Middlewares/LVGL/GUI/lvgl/src/core/lv_obj_pos.c ****             child_res = LV_MAX(child_res, child->coords.y2 - obj->coords.y1 + 1);
 2617              		.loc 1 1073 13 is_stmt 1 view .LVU745
 2618              		.loc 1 1073 25 is_stmt 0 view .LVU746
 2619 009a 2B6A     		ldr	r3, [r5, #32]
 2620 009c B269     		ldr	r2, [r6, #24]
 2621 009e 9B1A     		subs	r3, r3, r2
 2622 00a0 0133     		adds	r3, r3, #1
 2623              		.loc 1 1073 23 view .LVU747
 2624 00a2 9845     		cmp	r8, r3
 2625 00a4 B8BF     		it	lt
 2626 00a6 9846     		movlt	r8, r3
 2627              	.LVL243:
 2628              		.loc 1 1073 23 view .LVU748
 2629 00a8 E5E7     		b	.L115
 2630              	.LVL244:
 2631              	.L117:
 2632              	.LBB286:
1066:Middlewares/LVGL/GUI/lvgl/src/core/lv_obj_pos.c ****                         child_res = LV_MAX(child_res, lv_area_get_height(&child->coords) + pad_top)
 2633              		.loc 1 1066 21 is_stmt 1 view .LVU749
 2634              	.LBB282:
ARM GAS  C:\Users\ADMINI~1\AppData\Local\Temp\ccVA75Tx.s 			page 83


 2635              	.LBI282:
  43:Middlewares/LVGL/GUI/lvgl/src/core/lv_obj_style_gen.h **** {
 2636              		.loc 2 43 26 view .LVU750
 2637              	.LBB283:
  45:Middlewares/LVGL/GUI/lvgl/src/core/lv_obj_style_gen.h ****     return (lv_coord_t)v.num;
 2638              		.loc 2 45 5 view .LVU751
  45:Middlewares/LVGL/GUI/lvgl/src/core/lv_obj_style_gen.h ****     return (lv_coord_t)v.num;
 2639              		.loc 2 45 26 is_stmt 0 view .LVU752
 2640 00aa 41F20802 		movw	r2, #4104
 2641 00ae 0021     		movs	r1, #0
 2642 00b0 2846     		mov	r0, r5
 2643              	.LVL245:
  45:Middlewares/LVGL/GUI/lvgl/src/core/lv_obj_style_gen.h ****     return (lv_coord_t)v.num;
 2644              		.loc 2 45 26 view .LVU753
 2645 00b2 FFF7FEFF 		bl	lv_obj_get_style_prop
 2646              	.LVL246:
  46:Middlewares/LVGL/GUI/lvgl/src/core/lv_obj_style_gen.h **** }
 2647              		.loc 2 46 5 is_stmt 1 view .LVU754
  46:Middlewares/LVGL/GUI/lvgl/src/core/lv_obj_style_gen.h **** }
 2648              		.loc 2 46 5 is_stmt 0 view .LVU755
 2649              	.LBE283:
 2650              	.LBE282:
1066:Middlewares/LVGL/GUI/lvgl/src/core/lv_obj_pos.c ****                         child_res = LV_MAX(child_res, lv_area_get_height(&child->coords) + pad_top)
 2651              		.loc 1 1066 23 view .LVU756
 2652 00b6 0028     		cmp	r0, #0
 2653 00b8 DDD1     		bne	.L115
1067:Middlewares/LVGL/GUI/lvgl/src/core/lv_obj_pos.c ****                     }
 2654              		.loc 1 1067 25 is_stmt 1 view .LVU757
 2655              	.LVL247:
 2656              	.LBB284:
 2657              	.LBI284:
 133:Middlewares/LVGL/GUI/lvgl/src/core/../misc/../font/../misc/lv_area.h **** {
 2658              		.loc 3 133 26 view .LVU758
 2659              	.LBB285:
 2660              		.loc 3 135 5 view .LVU759
 2661              		.loc 3 135 31 is_stmt 0 view .LVU760
 2662 00ba 2B6A     		ldr	r3, [r5, #32]
 2663              		.loc 3 135 44 view .LVU761
 2664 00bc AA69     		ldr	r2, [r5, #24]
 2665              		.loc 3 135 36 view .LVU762
 2666 00be 9B1A     		subs	r3, r3, r2
 2667              		.loc 3 135 12 view .LVU763
 2668 00c0 0133     		adds	r3, r3, #1
 2669              	.LVL248:
 2670              		.loc 3 135 12 view .LVU764
 2671              	.LBE285:
 2672              	.LBE284:
1067:Middlewares/LVGL/GUI/lvgl/src/core/lv_obj_pos.c ****                     }
 2673              		.loc 1 1067 37 view .LVU765
 2674 00c2 5B44     		add	r3, r3, fp
 2675 00c4 4345     		cmp	r3, r8
 2676 00c6 D6DB     		blt	.L115
 2677 00c8 9846     		mov	r8, r3
 2678              	.LVL249:
1067:Middlewares/LVGL/GUI/lvgl/src/core/lv_obj_pos.c ****                     }
 2679              		.loc 1 1067 37 view .LVU766
 2680 00ca D4E7     		b	.L115
ARM GAS  C:\Users\ADMINI~1\AppData\Local\Temp\ccVA75Tx.s 			page 84


 2681              	.LVL250:
 2682              	.L122:
1067:Middlewares/LVGL/GUI/lvgl/src/core/lv_obj_pos.c ****                     }
 2683              		.loc 1 1067 37 view .LVU767
 2684              	.LBE286:
 2685              	.LBE287:
1074:Middlewares/LVGL/GUI/lvgl/src/core/lv_obj_pos.c ****         }
1075:Middlewares/LVGL/GUI/lvgl/src/core/lv_obj_pos.c ****     }
1076:Middlewares/LVGL/GUI/lvgl/src/core/lv_obj_pos.c **** 
1077:Middlewares/LVGL/GUI/lvgl/src/core/lv_obj_pos.c ****     if(child_res != LV_COORD_MIN) {
 2686              		.loc 1 1077 5 is_stmt 1 view .LVU768
 2687              		.loc 1 1077 7 is_stmt 0 view .LVU769
 2688 00cc 054B     		ldr	r3, .L124+4
 2689 00ce 9845     		cmp	r8, r3
 2690 00d0 03D0     		beq	.L113
1078:Middlewares/LVGL/GUI/lvgl/src/core/lv_obj_pos.c ****         child_res += pad_bottom;
 2691              		.loc 1 1078 9 is_stmt 1 view .LVU770
 2692              		.loc 1 1078 19 is_stmt 0 view .LVU771
 2693 00d2 D044     		add	r8, r8, r10
 2694              	.LVL251:
1079:Middlewares/LVGL/GUI/lvgl/src/core/lv_obj_pos.c ****         return LV_MAX(child_res, self_h);
 2695              		.loc 1 1079 9 is_stmt 1 view .LVU772
 2696              		.loc 1 1079 16 is_stmt 0 view .LVU773
 2697 00d4 C145     		cmp	r9, r8
 2698 00d6 B8BF     		it	lt
 2699 00d8 C146     		movlt	r9, r8
 2700              	.LVL252:
 2701              	.L113:
1080:Middlewares/LVGL/GUI/lvgl/src/core/lv_obj_pos.c ****     }
1081:Middlewares/LVGL/GUI/lvgl/src/core/lv_obj_pos.c ****     else {
1082:Middlewares/LVGL/GUI/lvgl/src/core/lv_obj_pos.c ****         return self_h;
1083:Middlewares/LVGL/GUI/lvgl/src/core/lv_obj_pos.c ****     }
1084:Middlewares/LVGL/GUI/lvgl/src/core/lv_obj_pos.c **** 
1085:Middlewares/LVGL/GUI/lvgl/src/core/lv_obj_pos.c **** }
 2702              		.loc 1 1085 1 view .LVU774
 2703 00da 4846     		mov	r0, r9
 2704 00dc BDE8F88F 		pop	{r3, r4, r5, r6, r7, r8, r9, r10, fp, pc}
 2705              	.LVL253:
 2706              	.L125:
 2707              		.loc 1 1085 1 view .LVU775
 2708              		.align	2
 2709              	.L124:
 2710 00e0 01000400 		.word	262145
 2711 00e4 010000E0 		.word	-536870911
 2712              		.cfi_endproc
 2713              	.LFE204:
 2715              		.section	.text.lv_obj_refresh_self_size,"ax",%progbits
 2716              		.align	1
 2717              		.global	lv_obj_refresh_self_size
 2718              		.syntax unified
 2719              		.thumb
 2720              		.thumb_func
 2722              	lv_obj_refresh_self_size:
 2723              	.LVL254:
 2724              	.LFB190:
 617:Middlewares/LVGL/GUI/lvgl/src/core/lv_obj_pos.c ****     lv_coord_t w_set = lv_obj_get_style_width(obj, LV_PART_MAIN);
 2725              		.loc 1 617 1 is_stmt 1 view -0
ARM GAS  C:\Users\ADMINI~1\AppData\Local\Temp\ccVA75Tx.s 			page 85


 2726              		.cfi_startproc
 2727              		@ args = 0, pretend = 0, frame = 0
 2728              		@ frame_needed = 0, uses_anonymous_args = 0
 617:Middlewares/LVGL/GUI/lvgl/src/core/lv_obj_pos.c ****     lv_coord_t w_set = lv_obj_get_style_width(obj, LV_PART_MAIN);
 2729              		.loc 1 617 1 is_stmt 0 view .LVU777
 2730 0000 38B5     		push	{r3, r4, r5, lr}
 2731              	.LCFI43:
 2732              		.cfi_def_cfa_offset 16
 2733              		.cfi_offset 3, -16
 2734              		.cfi_offset 4, -12
 2735              		.cfi_offset 5, -8
 2736              		.cfi_offset 14, -4
 2737 0002 0446     		mov	r4, r0
 618:Middlewares/LVGL/GUI/lvgl/src/core/lv_obj_pos.c ****     lv_coord_t h_set = lv_obj_get_style_height(obj, LV_PART_MAIN);
 2738              		.loc 1 618 5 is_stmt 1 view .LVU778
 2739              	.LVL255:
 2740              	.LBB288:
 2741              	.LBI288:
   1:Middlewares/LVGL/GUI/lvgl/src/core/lv_obj_style_gen.h **** {
 2742              		.loc 2 1 26 view .LVU779
 2743              	.LBB289:
   3:Middlewares/LVGL/GUI/lvgl/src/core/lv_obj_style_gen.h ****     return (lv_coord_t)v.num;
 2744              		.loc 2 3 5 view .LVU780
   3:Middlewares/LVGL/GUI/lvgl/src/core/lv_obj_style_gen.h ****     return (lv_coord_t)v.num;
 2745              		.loc 2 3 26 is_stmt 0 view .LVU781
 2746 0004 41F20102 		movw	r2, #4097
 2747 0008 0021     		movs	r1, #0
 2748 000a FFF7FEFF 		bl	lv_obj_get_style_prop
 2749              	.LVL256:
   3:Middlewares/LVGL/GUI/lvgl/src/core/lv_obj_style_gen.h ****     return (lv_coord_t)v.num;
 2750              		.loc 2 3 26 view .LVU782
 2751 000e 0546     		mov	r5, r0
 2752              	.LVL257:
   4:Middlewares/LVGL/GUI/lvgl/src/core/lv_obj_style_gen.h **** }
 2753              		.loc 2 4 5 is_stmt 1 view .LVU783
   4:Middlewares/LVGL/GUI/lvgl/src/core/lv_obj_style_gen.h **** }
 2754              		.loc 2 4 5 is_stmt 0 view .LVU784
 2755              	.LBE289:
 2756              	.LBE288:
 619:Middlewares/LVGL/GUI/lvgl/src/core/lv_obj_pos.c ****     if(w_set != LV_SIZE_CONTENT && h_set != LV_SIZE_CONTENT) return false;
 2757              		.loc 1 619 5 is_stmt 1 view .LVU785
 2758              	.LBB290:
 2759              	.LBI290:
  19:Middlewares/LVGL/GUI/lvgl/src/core/lv_obj_style_gen.h **** {
 2760              		.loc 2 19 26 view .LVU786
 2761              	.LBB291:
  21:Middlewares/LVGL/GUI/lvgl/src/core/lv_obj_style_gen.h ****     return (lv_coord_t)v.num;
 2762              		.loc 2 21 5 view .LVU787
  21:Middlewares/LVGL/GUI/lvgl/src/core/lv_obj_style_gen.h ****     return (lv_coord_t)v.num;
 2763              		.loc 2 21 26 is_stmt 0 view .LVU788
 2764 0010 41F20402 		movw	r2, #4100
 2765 0014 0021     		movs	r1, #0
 2766 0016 2046     		mov	r0, r4
 2767              	.LVL258:
  21:Middlewares/LVGL/GUI/lvgl/src/core/lv_obj_style_gen.h ****     return (lv_coord_t)v.num;
 2768              		.loc 2 21 26 view .LVU789
 2769 0018 FFF7FEFF 		bl	lv_obj_get_style_prop
ARM GAS  C:\Users\ADMINI~1\AppData\Local\Temp\ccVA75Tx.s 			page 86


 2770              	.LVL259:
  22:Middlewares/LVGL/GUI/lvgl/src/core/lv_obj_style_gen.h **** }
 2771              		.loc 2 22 5 is_stmt 1 view .LVU790
  22:Middlewares/LVGL/GUI/lvgl/src/core/lv_obj_style_gen.h **** }
 2772              		.loc 2 22 5 is_stmt 0 view .LVU791
 2773              	.LBE291:
 2774              	.LBE290:
 620:Middlewares/LVGL/GUI/lvgl/src/core/lv_obj_pos.c **** 
 2775              		.loc 1 620 5 is_stmt 1 view .LVU792
 620:Middlewares/LVGL/GUI/lvgl/src/core/lv_obj_pos.c **** 
 2776              		.loc 1 620 7 is_stmt 0 view .LVU793
 2777 001c 054B     		ldr	r3, .L131
 2778 001e 9D42     		cmp	r5, r3
 2779 0020 01D0     		beq	.L127
 620:Middlewares/LVGL/GUI/lvgl/src/core/lv_obj_pos.c **** 
 2780              		.loc 1 620 33 discriminator 1 view .LVU794
 2781 0022 9842     		cmp	r0, r3
 2782 0024 04D1     		bne	.L129
 2783              	.L127:
 622:Middlewares/LVGL/GUI/lvgl/src/core/lv_obj_pos.c ****     return true;
 2784              		.loc 1 622 5 is_stmt 1 view .LVU795
 2785 0026 2046     		mov	r0, r4
 2786              	.LVL260:
 622:Middlewares/LVGL/GUI/lvgl/src/core/lv_obj_pos.c ****     return true;
 2787              		.loc 1 622 5 is_stmt 0 view .LVU796
 2788 0028 FFF7FEFF 		bl	lv_obj_mark_layout_as_dirty
 2789              	.LVL261:
 623:Middlewares/LVGL/GUI/lvgl/src/core/lv_obj_pos.c **** }
 2790              		.loc 1 623 5 is_stmt 1 view .LVU797
 623:Middlewares/LVGL/GUI/lvgl/src/core/lv_obj_pos.c **** }
 2791              		.loc 1 623 12 is_stmt 0 view .LVU798
 2792 002c 0120     		movs	r0, #1
 2793              	.L128:
 624:Middlewares/LVGL/GUI/lvgl/src/core/lv_obj_pos.c **** 
 2794              		.loc 1 624 1 view .LVU799
 2795 002e 38BD     		pop	{r3, r4, r5, pc}
 2796              	.LVL262:
 2797              	.L129:
 620:Middlewares/LVGL/GUI/lvgl/src/core/lv_obj_pos.c **** 
 2798              		.loc 1 620 69 view .LVU800
 2799 0030 0020     		movs	r0, #0
 2800              	.LVL263:
 620:Middlewares/LVGL/GUI/lvgl/src/core/lv_obj_pos.c **** 
 2801              		.loc 1 620 69 view .LVU801
 2802 0032 FCE7     		b	.L128
 2803              	.L132:
 2804              		.align	2
 2805              	.L131:
 2806 0034 D1070020 		.word	536872913
 2807              		.cfi_endproc
 2808              	.LFE190:
 2810              		.section	.text.lv_obj_move_children_by,"ax",%progbits
 2811              		.align	1
 2812              		.global	lv_obj_move_children_by
 2813              		.syntax unified
 2814              		.thumb
 2815              		.thumb_func
ARM GAS  C:\Users\ADMINI~1\AppData\Local\Temp\ccVA75Tx.s 			page 87


 2817              	lv_obj_move_children_by:
 2818              	.LVL264:
 2819              	.LFB193:
 779:Middlewares/LVGL/GUI/lvgl/src/core/lv_obj_pos.c ****     uint32_t i;
 2820              		.loc 1 779 1 is_stmt 1 view -0
 2821              		.cfi_startproc
 2822              		@ args = 0, pretend = 0, frame = 0
 2823              		@ frame_needed = 0, uses_anonymous_args = 0
 779:Middlewares/LVGL/GUI/lvgl/src/core/lv_obj_pos.c ****     uint32_t i;
 2824              		.loc 1 779 1 is_stmt 0 view .LVU803
 2825 0000 2DE9F047 		push	{r4, r5, r6, r7, r8, r9, r10, lr}
 2826              	.LCFI44:
 2827              		.cfi_def_cfa_offset 32
 2828              		.cfi_offset 4, -32
 2829              		.cfi_offset 5, -28
 2830              		.cfi_offset 6, -24
 2831              		.cfi_offset 7, -20
 2832              		.cfi_offset 8, -16
 2833              		.cfi_offset 9, -12
 2834              		.cfi_offset 10, -8
 2835              		.cfi_offset 14, -4
 2836 0004 8246     		mov	r10, r0
 2837 0006 0F46     		mov	r7, r1
 2838 0008 1646     		mov	r6, r2
 2839 000a 9946     		mov	r9, r3
 780:Middlewares/LVGL/GUI/lvgl/src/core/lv_obj_pos.c ****     uint32_t child_cnt = lv_obj_get_child_cnt(obj);
 2840              		.loc 1 780 5 is_stmt 1 view .LVU804
 781:Middlewares/LVGL/GUI/lvgl/src/core/lv_obj_pos.c ****     for(i = 0; i < child_cnt; i++) {
 2841              		.loc 1 781 5 view .LVU805
 781:Middlewares/LVGL/GUI/lvgl/src/core/lv_obj_pos.c ****     for(i = 0; i < child_cnt; i++) {
 2842              		.loc 1 781 26 is_stmt 0 view .LVU806
 2843 000c FFF7FEFF 		bl	lv_obj_get_child_cnt
 2844              	.LVL265:
 781:Middlewares/LVGL/GUI/lvgl/src/core/lv_obj_pos.c ****     for(i = 0; i < child_cnt; i++) {
 2845              		.loc 1 781 26 view .LVU807
 2846 0010 8046     		mov	r8, r0
 2847              	.LVL266:
 782:Middlewares/LVGL/GUI/lvgl/src/core/lv_obj_pos.c ****         lv_obj_t * child = obj->spec_attr->children[i];
 2848              		.loc 1 782 5 is_stmt 1 view .LVU808
 782:Middlewares/LVGL/GUI/lvgl/src/core/lv_obj_pos.c ****         lv_obj_t * child = obj->spec_attr->children[i];
 2849              		.loc 1 782 11 is_stmt 0 view .LVU809
 2850 0012 0025     		movs	r5, #0
 782:Middlewares/LVGL/GUI/lvgl/src/core/lv_obj_pos.c ****         lv_obj_t * child = obj->spec_attr->children[i];
 2851              		.loc 1 782 5 view .LVU810
 2852 0014 12E0     		b	.L134
 2853              	.LVL267:
 2854              	.L135:
 2855              	.LBB292:
 785:Middlewares/LVGL/GUI/lvgl/src/core/lv_obj_pos.c ****         child->coords.y1 += y_diff;
 2856              		.loc 1 785 9 is_stmt 1 view .LVU811
 785:Middlewares/LVGL/GUI/lvgl/src/core/lv_obj_pos.c ****         child->coords.y1 += y_diff;
 2857              		.loc 1 785 26 is_stmt 0 view .LVU812
 2858 0016 6369     		ldr	r3, [r4, #20]
 2859 0018 3B44     		add	r3, r3, r7
 2860 001a 6361     		str	r3, [r4, #20]
 786:Middlewares/LVGL/GUI/lvgl/src/core/lv_obj_pos.c ****         child->coords.x2 += x_diff;
 2861              		.loc 1 786 9 is_stmt 1 view .LVU813
ARM GAS  C:\Users\ADMINI~1\AppData\Local\Temp\ccVA75Tx.s 			page 88


 786:Middlewares/LVGL/GUI/lvgl/src/core/lv_obj_pos.c ****         child->coords.x2 += x_diff;
 2862              		.loc 1 786 26 is_stmt 0 view .LVU814
 2863 001c A369     		ldr	r3, [r4, #24]
 2864 001e 3344     		add	r3, r3, r6
 2865 0020 A361     		str	r3, [r4, #24]
 787:Middlewares/LVGL/GUI/lvgl/src/core/lv_obj_pos.c ****         child->coords.y2 += y_diff;
 2866              		.loc 1 787 9 is_stmt 1 view .LVU815
 787:Middlewares/LVGL/GUI/lvgl/src/core/lv_obj_pos.c ****         child->coords.y2 += y_diff;
 2867              		.loc 1 787 26 is_stmt 0 view .LVU816
 2868 0022 E369     		ldr	r3, [r4, #28]
 2869 0024 3B44     		add	r3, r3, r7
 2870 0026 E361     		str	r3, [r4, #28]
 788:Middlewares/LVGL/GUI/lvgl/src/core/lv_obj_pos.c **** 
 2871              		.loc 1 788 9 is_stmt 1 view .LVU817
 788:Middlewares/LVGL/GUI/lvgl/src/core/lv_obj_pos.c **** 
 2872              		.loc 1 788 26 is_stmt 0 view .LVU818
 2873 0028 226A     		ldr	r2, [r4, #32]
 2874 002a 3244     		add	r2, r2, r6
 2875 002c 2262     		str	r2, [r4, #32]
 790:Middlewares/LVGL/GUI/lvgl/src/core/lv_obj_pos.c ****     }
 2876              		.loc 1 790 9 is_stmt 1 view .LVU819
 2877 002e 0023     		movs	r3, #0
 2878 0030 3246     		mov	r2, r6
 2879 0032 3946     		mov	r1, r7
 2880 0034 2046     		mov	r0, r4
 2881 0036 FFF7FEFF 		bl	lv_obj_move_children_by
 2882              	.LVL268:
 2883              	.L136:
 790:Middlewares/LVGL/GUI/lvgl/src/core/lv_obj_pos.c ****     }
 2884              		.loc 1 790 9 is_stmt 0 view .LVU820
 2885              	.LBE292:
 782:Middlewares/LVGL/GUI/lvgl/src/core/lv_obj_pos.c ****         lv_obj_t * child = obj->spec_attr->children[i];
 2886              		.loc 1 782 31 is_stmt 1 discriminator 2 view .LVU821
 782:Middlewares/LVGL/GUI/lvgl/src/core/lv_obj_pos.c ****         lv_obj_t * child = obj->spec_attr->children[i];
 2887              		.loc 1 782 32 is_stmt 0 discriminator 2 view .LVU822
 2888 003a 0135     		adds	r5, r5, #1
 2889              	.LVL269:
 2890              	.L134:
 782:Middlewares/LVGL/GUI/lvgl/src/core/lv_obj_pos.c ****         lv_obj_t * child = obj->spec_attr->children[i];
 2891              		.loc 1 782 16 is_stmt 1 discriminator 1 view .LVU823
 782:Middlewares/LVGL/GUI/lvgl/src/core/lv_obj_pos.c ****         lv_obj_t * child = obj->spec_attr->children[i];
 2892              		.loc 1 782 5 is_stmt 0 discriminator 1 view .LVU824
 2893 003c 4545     		cmp	r5, r8
 2894 003e 0FD2     		bcs	.L139
 2895              	.LBB293:
 783:Middlewares/LVGL/GUI/lvgl/src/core/lv_obj_pos.c ****         if(ignore_floating && lv_obj_has_flag(child, LV_OBJ_FLAG_FLOATING)) continue;
 2896              		.loc 1 783 9 is_stmt 1 view .LVU825
 783:Middlewares/LVGL/GUI/lvgl/src/core/lv_obj_pos.c ****         if(ignore_floating && lv_obj_has_flag(child, LV_OBJ_FLAG_FLOATING)) continue;
 2897              		.loc 1 783 31 is_stmt 0 view .LVU826
 2898 0040 DAF80830 		ldr	r3, [r10, #8]
 783:Middlewares/LVGL/GUI/lvgl/src/core/lv_obj_pos.c ****         if(ignore_floating && lv_obj_has_flag(child, LV_OBJ_FLAG_FLOATING)) continue;
 2899              		.loc 1 783 42 view .LVU827
 2900 0044 1B68     		ldr	r3, [r3]
 783:Middlewares/LVGL/GUI/lvgl/src/core/lv_obj_pos.c ****         if(ignore_floating && lv_obj_has_flag(child, LV_OBJ_FLAG_FLOATING)) continue;
 2901              		.loc 1 783 20 view .LVU828
 2902 0046 53F82540 		ldr	r4, [r3, r5, lsl #2]
 2903              	.LVL270:
ARM GAS  C:\Users\ADMINI~1\AppData\Local\Temp\ccVA75Tx.s 			page 89


 784:Middlewares/LVGL/GUI/lvgl/src/core/lv_obj_pos.c ****         child->coords.x1 += x_diff;
 2904              		.loc 1 784 9 is_stmt 1 view .LVU829
 784:Middlewares/LVGL/GUI/lvgl/src/core/lv_obj_pos.c ****         child->coords.x1 += x_diff;
 2905              		.loc 1 784 11 is_stmt 0 view .LVU830
 2906 004a B9F1000F 		cmp	r9, #0
 2907 004e E2D0     		beq	.L135
 784:Middlewares/LVGL/GUI/lvgl/src/core/lv_obj_pos.c ****         child->coords.x1 += x_diff;
 2908              		.loc 1 784 31 discriminator 1 view .LVU831
 2909 0050 4FF48021 		mov	r1, #262144
 2910 0054 2046     		mov	r0, r4
 2911 0056 FFF7FEFF 		bl	lv_obj_has_flag
 2912              	.LVL271:
 784:Middlewares/LVGL/GUI/lvgl/src/core/lv_obj_pos.c ****         child->coords.x1 += x_diff;
 2913              		.loc 1 784 28 discriminator 1 view .LVU832
 2914 005a 0028     		cmp	r0, #0
 2915 005c DBD0     		beq	.L135
 2916 005e ECE7     		b	.L136
 2917              	.LVL272:
 2918              	.L139:
 784:Middlewares/LVGL/GUI/lvgl/src/core/lv_obj_pos.c ****         child->coords.x1 += x_diff;
 2919              		.loc 1 784 28 discriminator 1 view .LVU833
 2920              	.LBE293:
 792:Middlewares/LVGL/GUI/lvgl/src/core/lv_obj_pos.c **** 
 2921              		.loc 1 792 1 view .LVU834
 2922 0060 BDE8F087 		pop	{r4, r5, r6, r7, r8, r9, r10, pc}
 792:Middlewares/LVGL/GUI/lvgl/src/core/lv_obj_pos.c **** 
 2923              		.loc 1 792 1 view .LVU835
 2924              		.cfi_endproc
 2925              	.LFE193:
 2927              		.section	.text.lv_obj_area_is_visible,"ax",%progbits
 2928              		.align	1
 2929              		.global	lv_obj_area_is_visible
 2930              		.syntax unified
 2931              		.thumb
 2932              		.thumb_func
 2934              	lv_obj_area_is_visible:
 2935              	.LVL273:
 2936              	.LFB196:
 830:Middlewares/LVGL/GUI/lvgl/src/core/lv_obj_pos.c ****     if(lv_obj_has_flag(obj, LV_OBJ_FLAG_HIDDEN)) return false;
 2937              		.loc 1 830 1 is_stmt 1 view -0
 2938              		.cfi_startproc
 2939              		@ args = 0, pretend = 0, frame = 16
 2940              		@ frame_needed = 0, uses_anonymous_args = 0
 830:Middlewares/LVGL/GUI/lvgl/src/core/lv_obj_pos.c ****     if(lv_obj_has_flag(obj, LV_OBJ_FLAG_HIDDEN)) return false;
 2941              		.loc 1 830 1 is_stmt 0 view .LVU837
 2942 0000 2DE9F041 		push	{r4, r5, r6, r7, r8, lr}
 2943              	.LCFI45:
 2944              		.cfi_def_cfa_offset 24
 2945              		.cfi_offset 4, -24
 2946              		.cfi_offset 5, -20
 2947              		.cfi_offset 6, -16
 2948              		.cfi_offset 7, -12
 2949              		.cfi_offset 8, -8
 2950              		.cfi_offset 14, -4
 2951 0004 84B0     		sub	sp, sp, #16
 2952              	.LCFI46:
 2953              		.cfi_def_cfa_offset 40
ARM GAS  C:\Users\ADMINI~1\AppData\Local\Temp\ccVA75Tx.s 			page 90


 2954 0006 0446     		mov	r4, r0
 2955 0008 0D46     		mov	r5, r1
 831:Middlewares/LVGL/GUI/lvgl/src/core/lv_obj_pos.c **** 
 2956              		.loc 1 831 5 is_stmt 1 view .LVU838
 831:Middlewares/LVGL/GUI/lvgl/src/core/lv_obj_pos.c **** 
 2957              		.loc 1 831 8 is_stmt 0 view .LVU839
 2958 000a 0121     		movs	r1, #1
 2959              	.LVL274:
 831:Middlewares/LVGL/GUI/lvgl/src/core/lv_obj_pos.c **** 
 2960              		.loc 1 831 8 view .LVU840
 2961 000c FFF7FEFF 		bl	lv_obj_has_flag
 2962              	.LVL275:
 831:Middlewares/LVGL/GUI/lvgl/src/core/lv_obj_pos.c **** 
 2963              		.loc 1 831 7 view .LVU841
 2964 0010 20B1     		cbz	r0, .L151
 831:Middlewares/LVGL/GUI/lvgl/src/core/lv_obj_pos.c **** 
 2965              		.loc 1 831 57 view .LVU842
 2966 0012 0026     		movs	r6, #0
 2967              	.LVL276:
 2968              	.L141:
 872:Middlewares/LVGL/GUI/lvgl/src/core/lv_obj_pos.c **** 
 2969              		.loc 1 872 1 view .LVU843
 2970 0014 3046     		mov	r0, r6
 2971 0016 04B0     		add	sp, sp, #16
 2972              	.LCFI47:
 2973              		.cfi_remember_state
 2974              		.cfi_def_cfa_offset 24
 2975              		@ sp needed
 2976 0018 BDE8F081 		pop	{r4, r5, r6, r7, r8, pc}
 2977              	.LVL277:
 2978              	.L151:
 2979              	.LCFI48:
 2980              		.cfi_restore_state
 872:Middlewares/LVGL/GUI/lvgl/src/core/lv_obj_pos.c **** 
 2981              		.loc 1 872 1 view .LVU844
 2982 001c 0646     		mov	r6, r0
 834:Middlewares/LVGL/GUI/lvgl/src/core/lv_obj_pos.c ****     lv_disp_t * disp   = lv_obj_get_disp(obj_scr);
 2983              		.loc 1 834 5 is_stmt 1 view .LVU845
 834:Middlewares/LVGL/GUI/lvgl/src/core/lv_obj_pos.c ****     lv_disp_t * disp   = lv_obj_get_disp(obj_scr);
 2984              		.loc 1 834 26 is_stmt 0 view .LVU846
 2985 001e 2046     		mov	r0, r4
 2986 0020 FFF7FEFF 		bl	lv_obj_get_screen
 2987              	.LVL278:
 2988 0024 0746     		mov	r7, r0
 2989              	.LVL279:
 835:Middlewares/LVGL/GUI/lvgl/src/core/lv_obj_pos.c ****     if(obj_scr != lv_disp_get_scr_act(disp) &&
 2990              		.loc 1 835 5 is_stmt 1 view .LVU847
 835:Middlewares/LVGL/GUI/lvgl/src/core/lv_obj_pos.c ****     if(obj_scr != lv_disp_get_scr_act(disp) &&
 2991              		.loc 1 835 26 is_stmt 0 view .LVU848
 2992 0026 FFF7FEFF 		bl	lv_obj_get_disp
 2993              	.LVL280:
 835:Middlewares/LVGL/GUI/lvgl/src/core/lv_obj_pos.c ****     if(obj_scr != lv_disp_get_scr_act(disp) &&
 2994              		.loc 1 835 26 view .LVU849
 2995 002a 8046     		mov	r8, r0
 2996              	.LVL281:
 836:Middlewares/LVGL/GUI/lvgl/src/core/lv_obj_pos.c ****        obj_scr != lv_disp_get_scr_prev(disp) &&
 2997              		.loc 1 836 5 is_stmt 1 view .LVU850
ARM GAS  C:\Users\ADMINI~1\AppData\Local\Temp\ccVA75Tx.s 			page 91


 836:Middlewares/LVGL/GUI/lvgl/src/core/lv_obj_pos.c ****        obj_scr != lv_disp_get_scr_prev(disp) &&
 2998              		.loc 1 836 19 is_stmt 0 view .LVU851
 2999 002c FFF7FEFF 		bl	lv_disp_get_scr_act
 3000              	.LVL282:
 836:Middlewares/LVGL/GUI/lvgl/src/core/lv_obj_pos.c ****        obj_scr != lv_disp_get_scr_prev(disp) &&
 3001              		.loc 1 836 7 view .LVU852
 3002 0030 8742     		cmp	r7, r0
 3003 0032 0ED0     		beq	.L142
 837:Middlewares/LVGL/GUI/lvgl/src/core/lv_obj_pos.c ****        obj_scr != lv_disp_get_layer_top(disp) &&
 3004              		.loc 1 837 19 discriminator 1 view .LVU853
 3005 0034 4046     		mov	r0, r8
 3006 0036 FFF7FEFF 		bl	lv_disp_get_scr_prev
 3007              	.LVL283:
 836:Middlewares/LVGL/GUI/lvgl/src/core/lv_obj_pos.c ****        obj_scr != lv_disp_get_scr_prev(disp) &&
 3008              		.loc 1 836 45 discriminator 1 view .LVU854
 3009 003a 8742     		cmp	r7, r0
 3010 003c 09D0     		beq	.L142
 838:Middlewares/LVGL/GUI/lvgl/src/core/lv_obj_pos.c ****        obj_scr != lv_disp_get_layer_sys(disp)) {
 3011              		.loc 1 838 19 view .LVU855
 3012 003e 4046     		mov	r0, r8
 3013 0040 FFF7FEFF 		bl	lv_disp_get_layer_top
 3014              	.LVL284:
 837:Middlewares/LVGL/GUI/lvgl/src/core/lv_obj_pos.c ****        obj_scr != lv_disp_get_layer_top(disp) &&
 3015              		.loc 1 837 46 view .LVU856
 3016 0044 8742     		cmp	r7, r0
 3017 0046 04D0     		beq	.L142
 839:Middlewares/LVGL/GUI/lvgl/src/core/lv_obj_pos.c ****         return false;
 3018              		.loc 1 839 19 view .LVU857
 3019 0048 4046     		mov	r0, r8
 3020 004a FFF7FEFF 		bl	lv_disp_get_layer_sys
 3021              	.LVL285:
 838:Middlewares/LVGL/GUI/lvgl/src/core/lv_obj_pos.c ****        obj_scr != lv_disp_get_layer_sys(disp)) {
 3022              		.loc 1 838 47 view .LVU858
 3023 004e 8742     		cmp	r7, r0
 3024 0050 E0D1     		bne	.L141
 3025              	.L142:
 844:Middlewares/LVGL/GUI/lvgl/src/core/lv_obj_pos.c ****         lv_area_t obj_coords;
 3026              		.loc 1 844 5 is_stmt 1 view .LVU859
 844:Middlewares/LVGL/GUI/lvgl/src/core/lv_obj_pos.c ****         lv_area_t obj_coords;
 3027              		.loc 1 844 9 is_stmt 0 view .LVU860
 3028 0052 4FF40021 		mov	r1, #524288
 3029 0056 2046     		mov	r0, r4
 3030 0058 FFF7FEFF 		bl	lv_obj_has_flag
 3031              	.LVL286:
 844:Middlewares/LVGL/GUI/lvgl/src/core/lv_obj_pos.c ****         lv_area_t obj_coords;
 3032              		.loc 1 844 7 view .LVU861
 3033 005c C0B9     		cbnz	r0, .L143
 3034              	.LBB294:
 845:Middlewares/LVGL/GUI/lvgl/src/core/lv_obj_pos.c ****         lv_coord_t ext_size = _lv_obj_get_ext_draw_size(obj);
 3035              		.loc 1 845 9 is_stmt 1 view .LVU862
 846:Middlewares/LVGL/GUI/lvgl/src/core/lv_obj_pos.c ****         lv_area_copy(&obj_coords, &obj->coords);
 3036              		.loc 1 846 9 view .LVU863
 846:Middlewares/LVGL/GUI/lvgl/src/core/lv_obj_pos.c ****         lv_area_copy(&obj_coords, &obj->coords);
 3037              		.loc 1 846 31 is_stmt 0 view .LVU864
 3038 005e 2046     		mov	r0, r4
 3039 0060 FFF7FEFF 		bl	_lv_obj_get_ext_draw_size
 3040              	.LVL287:
ARM GAS  C:\Users\ADMINI~1\AppData\Local\Temp\ccVA75Tx.s 			page 92


 847:Middlewares/LVGL/GUI/lvgl/src/core/lv_obj_pos.c ****         obj_coords.x1 -= ext_size;
 3041              		.loc 1 847 9 is_stmt 1 view .LVU865
 3042              	.LBB295:
 3043              	.LBI295:
 110:Middlewares/LVGL/GUI/lvgl/src/core/../misc/../font/../misc/lv_area.h **** {
 3044              		.loc 3 110 20 view .LVU866
 3045              	.LBB296:
 112:Middlewares/LVGL/GUI/lvgl/src/core/../misc/../font/../misc/lv_area.h ****     dest->y1 = src->y1;
 3046              		.loc 3 112 5 view .LVU867
 112:Middlewares/LVGL/GUI/lvgl/src/core/../misc/../font/../misc/lv_area.h ****     dest->y1 = src->y1;
 3047              		.loc 3 112 19 is_stmt 0 view .LVU868
 3048 0064 6169     		ldr	r1, [r4, #20]
 112:Middlewares/LVGL/GUI/lvgl/src/core/../misc/../font/../misc/lv_area.h ****     dest->y1 = src->y1;
 3049              		.loc 3 112 14 view .LVU869
 3050 0066 0091     		str	r1, [sp]
 113:Middlewares/LVGL/GUI/lvgl/src/core/../misc/../font/../misc/lv_area.h ****     dest->x2 = src->x2;
 3051              		.loc 3 113 5 is_stmt 1 view .LVU870
 113:Middlewares/LVGL/GUI/lvgl/src/core/../misc/../font/../misc/lv_area.h ****     dest->x2 = src->x2;
 3052              		.loc 3 113 19 is_stmt 0 view .LVU871
 3053 0068 A269     		ldr	r2, [r4, #24]
 113:Middlewares/LVGL/GUI/lvgl/src/core/../misc/../font/../misc/lv_area.h ****     dest->x2 = src->x2;
 3054              		.loc 3 113 14 view .LVU872
 3055 006a 0192     		str	r2, [sp, #4]
 114:Middlewares/LVGL/GUI/lvgl/src/core/../misc/../font/../misc/lv_area.h ****     dest->y2 = src->y2;
 3056              		.loc 3 114 5 is_stmt 1 view .LVU873
 114:Middlewares/LVGL/GUI/lvgl/src/core/../misc/../font/../misc/lv_area.h ****     dest->y2 = src->y2;
 3057              		.loc 3 114 19 is_stmt 0 view .LVU874
 3058 006c E369     		ldr	r3, [r4, #28]
 114:Middlewares/LVGL/GUI/lvgl/src/core/../misc/../font/../misc/lv_area.h ****     dest->y2 = src->y2;
 3059              		.loc 3 114 14 view .LVU875
 3060 006e 0293     		str	r3, [sp, #8]
 115:Middlewares/LVGL/GUI/lvgl/src/core/../misc/../font/../misc/lv_area.h **** }
 3061              		.loc 3 115 5 is_stmt 1 view .LVU876
 115:Middlewares/LVGL/GUI/lvgl/src/core/../misc/../font/../misc/lv_area.h **** }
 3062              		.loc 3 115 19 is_stmt 0 view .LVU877
 3063 0070 276A     		ldr	r7, [r4, #32]
 3064              	.LVL288:
 115:Middlewares/LVGL/GUI/lvgl/src/core/../misc/../font/../misc/lv_area.h **** }
 3065              		.loc 3 115 14 view .LVU878
 3066 0072 0397     		str	r7, [sp, #12]
 3067              	.LVL289:
 115:Middlewares/LVGL/GUI/lvgl/src/core/../misc/../font/../misc/lv_area.h **** }
 3068              		.loc 3 115 14 view .LVU879
 3069              	.LBE296:
 3070              	.LBE295:
 848:Middlewares/LVGL/GUI/lvgl/src/core/lv_obj_pos.c ****         obj_coords.y1 -= ext_size;
 3071              		.loc 1 848 9 is_stmt 1 view .LVU880
 848:Middlewares/LVGL/GUI/lvgl/src/core/lv_obj_pos.c ****         obj_coords.y1 -= ext_size;
 3072              		.loc 1 848 23 is_stmt 0 view .LVU881
 3073 0074 091A     		subs	r1, r1, r0
 3074 0076 0091     		str	r1, [sp]
 849:Middlewares/LVGL/GUI/lvgl/src/core/lv_obj_pos.c ****         obj_coords.x2 += ext_size;
 3075              		.loc 1 849 9 is_stmt 1 view .LVU882
 849:Middlewares/LVGL/GUI/lvgl/src/core/lv_obj_pos.c ****         obj_coords.x2 += ext_size;
 3076              		.loc 1 849 23 is_stmt 0 view .LVU883
 3077 0078 121A     		subs	r2, r2, r0
 3078 007a 0192     		str	r2, [sp, #4]
ARM GAS  C:\Users\ADMINI~1\AppData\Local\Temp\ccVA75Tx.s 			page 93


 850:Middlewares/LVGL/GUI/lvgl/src/core/lv_obj_pos.c ****         obj_coords.y2 += ext_size;
 3079              		.loc 1 850 9 is_stmt 1 view .LVU884
 850:Middlewares/LVGL/GUI/lvgl/src/core/lv_obj_pos.c ****         obj_coords.y2 += ext_size;
 3080              		.loc 1 850 23 is_stmt 0 view .LVU885
 3081 007c 0344     		add	r3, r3, r0
 3082 007e 0293     		str	r3, [sp, #8]
 851:Middlewares/LVGL/GUI/lvgl/src/core/lv_obj_pos.c **** 
 3083              		.loc 1 851 9 is_stmt 1 view .LVU886
 851:Middlewares/LVGL/GUI/lvgl/src/core/lv_obj_pos.c **** 
 3084              		.loc 1 851 23 is_stmt 0 view .LVU887
 3085 0080 3844     		add	r0, r0, r7
 3086              	.LVL290:
 851:Middlewares/LVGL/GUI/lvgl/src/core/lv_obj_pos.c **** 
 3087              		.loc 1 851 23 view .LVU888
 3088 0082 0390     		str	r0, [sp, #12]
 854:Middlewares/LVGL/GUI/lvgl/src/core/lv_obj_pos.c ****     }
 3089              		.loc 1 854 9 is_stmt 1 view .LVU889
 854:Middlewares/LVGL/GUI/lvgl/src/core/lv_obj_pos.c ****     }
 3090              		.loc 1 854 13 is_stmt 0 view .LVU890
 3091 0084 6A46     		mov	r2, sp
 3092 0086 2946     		mov	r1, r5
 3093 0088 2846     		mov	r0, r5
 3094 008a FFF7FEFF 		bl	_lv_area_intersect
 3095              	.LVL291:
 854:Middlewares/LVGL/GUI/lvgl/src/core/lv_obj_pos.c ****     }
 3096              		.loc 1 854 11 view .LVU891
 3097 008e 20B1     		cbz	r0, .L152
 3098              	.L143:
 854:Middlewares/LVGL/GUI/lvgl/src/core/lv_obj_pos.c ****     }
 3099              		.loc 1 854 11 view .LVU892
 3100              	.LBE294:
 858:Middlewares/LVGL/GUI/lvgl/src/core/lv_obj_pos.c ****     while(par != NULL) {
 3101              		.loc 1 858 5 is_stmt 1 view .LVU893
 858:Middlewares/LVGL/GUI/lvgl/src/core/lv_obj_pos.c ****     while(par != NULL) {
 3102              		.loc 1 858 22 is_stmt 0 view .LVU894
 3103 0090 2046     		mov	r0, r4
 3104 0092 FFF7FEFF 		bl	lv_obj_get_parent
 3105              	.LVL292:
 3106 0096 0446     		mov	r4, r0
 3107              	.LVL293:
 859:Middlewares/LVGL/GUI/lvgl/src/core/lv_obj_pos.c ****         /*If the parent is hidden then the child is hidden and won't be drawn*/
 3108              		.loc 1 859 5 is_stmt 1 view .LVU895
 859:Middlewares/LVGL/GUI/lvgl/src/core/lv_obj_pos.c ****         /*If the parent is hidden then the child is hidden and won't be drawn*/
 3109              		.loc 1 859 10 is_stmt 0 view .LVU896
 3110 0098 05E0     		b	.L145
 3111              	.LVL294:
 3112              	.L152:
 3113              	.LBB297:
 854:Middlewares/LVGL/GUI/lvgl/src/core/lv_obj_pos.c ****     }
 3114              		.loc 1 854 58 is_stmt 1 discriminator 1 view .LVU897
 854:Middlewares/LVGL/GUI/lvgl/src/core/lv_obj_pos.c ****     }
 3115              		.loc 1 854 65 is_stmt 0 discriminator 1 view .LVU898
 3116 009a 0646     		mov	r6, r0
 3117 009c BAE7     		b	.L141
 3118              	.LVL295:
 3119              	.L146:
 854:Middlewares/LVGL/GUI/lvgl/src/core/lv_obj_pos.c ****     }
ARM GAS  C:\Users\ADMINI~1\AppData\Local\Temp\ccVA75Tx.s 			page 94


 3120              		.loc 1 854 65 discriminator 1 view .LVU899
 3121              	.LBE297:
 868:Middlewares/LVGL/GUI/lvgl/src/core/lv_obj_pos.c ****     }
 3122              		.loc 1 868 9 is_stmt 1 view .LVU900
 868:Middlewares/LVGL/GUI/lvgl/src/core/lv_obj_pos.c ****     }
 3123              		.loc 1 868 15 is_stmt 0 view .LVU901
 3124 009e 2046     		mov	r0, r4
 3125 00a0 FFF7FEFF 		bl	lv_obj_get_parent
 3126              	.LVL296:
 3127 00a4 0446     		mov	r4, r0
 3128              	.LVL297:
 3129              	.L145:
 859:Middlewares/LVGL/GUI/lvgl/src/core/lv_obj_pos.c ****         /*If the parent is hidden then the child is hidden and won't be drawn*/
 3130              		.loc 1 859 10 is_stmt 1 view .LVU902
 3131 00a6 B4B1     		cbz	r4, .L153
 861:Middlewares/LVGL/GUI/lvgl/src/core/lv_obj_pos.c **** 
 3132              		.loc 1 861 9 view .LVU903
 861:Middlewares/LVGL/GUI/lvgl/src/core/lv_obj_pos.c **** 
 3133              		.loc 1 861 12 is_stmt 0 view .LVU904
 3134 00a8 0121     		movs	r1, #1
 3135 00aa 2046     		mov	r0, r4
 861:Middlewares/LVGL/GUI/lvgl/src/core/lv_obj_pos.c **** 
 3136              		.loc 1 861 12 view .LVU905
 3137 00ac FFF7FEFF 		bl	lv_obj_has_flag
 3138              	.LVL298:
 861:Middlewares/LVGL/GUI/lvgl/src/core/lv_obj_pos.c **** 
 3139              		.loc 1 861 11 view .LVU906
 3140 00b0 0028     		cmp	r0, #0
 3141 00b2 AFD1     		bne	.L141
 864:Middlewares/LVGL/GUI/lvgl/src/core/lv_obj_pos.c ****             if(!_lv_area_intersect(area, area, &par->coords)) return false;
 3142              		.loc 1 864 9 is_stmt 1 view .LVU907
 864:Middlewares/LVGL/GUI/lvgl/src/core/lv_obj_pos.c ****             if(!_lv_area_intersect(area, area, &par->coords)) return false;
 3143              		.loc 1 864 13 is_stmt 0 view .LVU908
 3144 00b4 4FF40021 		mov	r1, #524288
 3145 00b8 2046     		mov	r0, r4
 3146 00ba FFF7FEFF 		bl	lv_obj_has_flag
 3147              	.LVL299:
 864:Middlewares/LVGL/GUI/lvgl/src/core/lv_obj_pos.c ****             if(!_lv_area_intersect(area, area, &par->coords)) return false;
 3148              		.loc 1 864 11 view .LVU909
 3149 00be 0028     		cmp	r0, #0
 3150 00c0 EDD1     		bne	.L146
 865:Middlewares/LVGL/GUI/lvgl/src/core/lv_obj_pos.c ****         }
 3151              		.loc 1 865 13 is_stmt 1 view .LVU910
 865:Middlewares/LVGL/GUI/lvgl/src/core/lv_obj_pos.c ****         }
 3152              		.loc 1 865 17 is_stmt 0 view .LVU911
 3153 00c2 04F11402 		add	r2, r4, #20
 3154 00c6 2946     		mov	r1, r5
 3155 00c8 2846     		mov	r0, r5
 3156 00ca FFF7FEFF 		bl	_lv_area_intersect
 3157              	.LVL300:
 865:Middlewares/LVGL/GUI/lvgl/src/core/lv_obj_pos.c ****         }
 3158              		.loc 1 865 15 view .LVU912
 3159 00ce 0028     		cmp	r0, #0
 3160 00d0 E5D1     		bne	.L146
 865:Middlewares/LVGL/GUI/lvgl/src/core/lv_obj_pos.c ****         }
 3161              		.loc 1 865 70 view .LVU913
 3162 00d2 0646     		mov	r6, r0
ARM GAS  C:\Users\ADMINI~1\AppData\Local\Temp\ccVA75Tx.s 			page 95


 3163 00d4 9EE7     		b	.L141
 3164              	.LVL301:
 3165              	.L153:
 871:Middlewares/LVGL/GUI/lvgl/src/core/lv_obj_pos.c **** }
 3166              		.loc 1 871 12 view .LVU914
 3167 00d6 0126     		movs	r6, #1
 3168 00d8 9CE7     		b	.L141
 3169              		.cfi_endproc
 3170              	.LFE196:
 3172              		.section	.text.lv_obj_invalidate_area,"ax",%progbits
 3173              		.align	1
 3174              		.global	lv_obj_invalidate_area
 3175              		.syntax unified
 3176              		.thumb
 3177              		.thumb_func
 3179              	lv_obj_invalidate_area:
 3180              	.LVL302:
 3181              	.LFB194:
 796:Middlewares/LVGL/GUI/lvgl/src/core/lv_obj_pos.c ****     LV_ASSERT_OBJ(obj, MY_CLASS);
 3182              		.loc 1 796 1 is_stmt 1 view -0
 3183              		.cfi_startproc
 3184              		@ args = 0, pretend = 0, frame = 16
 3185              		@ frame_needed = 0, uses_anonymous_args = 0
 796:Middlewares/LVGL/GUI/lvgl/src/core/lv_obj_pos.c ****     LV_ASSERT_OBJ(obj, MY_CLASS);
 3186              		.loc 1 796 1 is_stmt 0 view .LVU916
 3187 0000 10B5     		push	{r4, lr}
 3188              	.LCFI49:
 3189              		.cfi_def_cfa_offset 8
 3190              		.cfi_offset 4, -8
 3191              		.cfi_offset 14, -4
 3192 0002 84B0     		sub	sp, sp, #16
 3193              	.LCFI50:
 3194              		.cfi_def_cfa_offset 24
 3195 0004 0446     		mov	r4, r0
 797:Middlewares/LVGL/GUI/lvgl/src/core/lv_obj_pos.c **** 
 3196              		.loc 1 797 5 is_stmt 1 view .LVU917
 797:Middlewares/LVGL/GUI/lvgl/src/core/lv_obj_pos.c **** 
 3197              		.loc 1 797 5 view .LVU918
 797:Middlewares/LVGL/GUI/lvgl/src/core/lv_obj_pos.c **** 
 3198              		.loc 1 797 5 view .LVU919
 799:Middlewares/LVGL/GUI/lvgl/src/core/lv_obj_pos.c ****     lv_area_copy(&area_tmp, area);
 3199              		.loc 1 799 5 view .LVU920
 800:Middlewares/LVGL/GUI/lvgl/src/core/lv_obj_pos.c ****     bool visible = lv_obj_area_is_visible(obj, &area_tmp);
 3200              		.loc 1 800 5 view .LVU921
 3201              	.LVL303:
 3202              	.LBB298:
 3203              	.LBI298:
 110:Middlewares/LVGL/GUI/lvgl/src/core/../misc/../font/../misc/lv_area.h **** {
 3204              		.loc 3 110 20 view .LVU922
 3205              	.LBB299:
 112:Middlewares/LVGL/GUI/lvgl/src/core/../misc/../font/../misc/lv_area.h ****     dest->y1 = src->y1;
 3206              		.loc 3 112 5 view .LVU923
 112:Middlewares/LVGL/GUI/lvgl/src/core/../misc/../font/../misc/lv_area.h ****     dest->y1 = src->y1;
 3207              		.loc 3 112 19 is_stmt 0 view .LVU924
 3208 0006 0B68     		ldr	r3, [r1]
 112:Middlewares/LVGL/GUI/lvgl/src/core/../misc/../font/../misc/lv_area.h ****     dest->y1 = src->y1;
 3209              		.loc 3 112 14 view .LVU925
ARM GAS  C:\Users\ADMINI~1\AppData\Local\Temp\ccVA75Tx.s 			page 96


 3210 0008 0093     		str	r3, [sp]
 113:Middlewares/LVGL/GUI/lvgl/src/core/../misc/../font/../misc/lv_area.h ****     dest->x2 = src->x2;
 3211              		.loc 3 113 5 is_stmt 1 view .LVU926
 113:Middlewares/LVGL/GUI/lvgl/src/core/../misc/../font/../misc/lv_area.h ****     dest->x2 = src->x2;
 3212              		.loc 3 113 19 is_stmt 0 view .LVU927
 3213 000a 4B68     		ldr	r3, [r1, #4]
 113:Middlewares/LVGL/GUI/lvgl/src/core/../misc/../font/../misc/lv_area.h ****     dest->x2 = src->x2;
 3214              		.loc 3 113 14 view .LVU928
 3215 000c 0193     		str	r3, [sp, #4]
 114:Middlewares/LVGL/GUI/lvgl/src/core/../misc/../font/../misc/lv_area.h ****     dest->y2 = src->y2;
 3216              		.loc 3 114 5 is_stmt 1 view .LVU929
 114:Middlewares/LVGL/GUI/lvgl/src/core/../misc/../font/../misc/lv_area.h ****     dest->y2 = src->y2;
 3217              		.loc 3 114 19 is_stmt 0 view .LVU930
 3218 000e 8B68     		ldr	r3, [r1, #8]
 114:Middlewares/LVGL/GUI/lvgl/src/core/../misc/../font/../misc/lv_area.h ****     dest->y2 = src->y2;
 3219              		.loc 3 114 14 view .LVU931
 3220 0010 0293     		str	r3, [sp, #8]
 115:Middlewares/LVGL/GUI/lvgl/src/core/../misc/../font/../misc/lv_area.h **** }
 3221              		.loc 3 115 5 is_stmt 1 view .LVU932
 115:Middlewares/LVGL/GUI/lvgl/src/core/../misc/../font/../misc/lv_area.h **** }
 3222              		.loc 3 115 19 is_stmt 0 view .LVU933
 3223 0012 CB68     		ldr	r3, [r1, #12]
 115:Middlewares/LVGL/GUI/lvgl/src/core/../misc/../font/../misc/lv_area.h **** }
 3224              		.loc 3 115 14 view .LVU934
 3225 0014 0393     		str	r3, [sp, #12]
 3226              	.LVL304:
 115:Middlewares/LVGL/GUI/lvgl/src/core/../misc/../font/../misc/lv_area.h **** }
 3227              		.loc 3 115 14 view .LVU935
 3228              	.LBE299:
 3229              	.LBE298:
 801:Middlewares/LVGL/GUI/lvgl/src/core/lv_obj_pos.c **** 
 3230              		.loc 1 801 5 is_stmt 1 view .LVU936
 801:Middlewares/LVGL/GUI/lvgl/src/core/lv_obj_pos.c **** 
 3231              		.loc 1 801 20 is_stmt 0 view .LVU937
 3232 0016 6946     		mov	r1, sp
 3233              	.LVL305:
 801:Middlewares/LVGL/GUI/lvgl/src/core/lv_obj_pos.c **** 
 3234              		.loc 1 801 20 view .LVU938
 3235 0018 FFF7FEFF 		bl	lv_obj_area_is_visible
 3236              	.LVL306:
 803:Middlewares/LVGL/GUI/lvgl/src/core/lv_obj_pos.c **** }
 3237              		.loc 1 803 5 is_stmt 1 view .LVU939
 803:Middlewares/LVGL/GUI/lvgl/src/core/lv_obj_pos.c **** }
 3238              		.loc 1 803 7 is_stmt 0 view .LVU940
 3239 001c 08B9     		cbnz	r0, .L157
 3240              	.LVL307:
 3241              	.L154:
 804:Middlewares/LVGL/GUI/lvgl/src/core/lv_obj_pos.c **** 
 3242              		.loc 1 804 1 view .LVU941
 3243 001e 04B0     		add	sp, sp, #16
 3244              	.LCFI51:
 3245              		.cfi_remember_state
 3246              		.cfi_def_cfa_offset 8
 3247              		@ sp needed
 3248 0020 10BD     		pop	{r4, pc}
 3249              	.LVL308:
 3250              	.L157:
ARM GAS  C:\Users\ADMINI~1\AppData\Local\Temp\ccVA75Tx.s 			page 97


 3251              	.LCFI52:
 3252              		.cfi_restore_state
 803:Middlewares/LVGL/GUI/lvgl/src/core/lv_obj_pos.c **** }
 3253              		.loc 1 803 17 is_stmt 1 discriminator 1 view .LVU942
 3254 0022 2046     		mov	r0, r4
 3255              	.LVL309:
 803:Middlewares/LVGL/GUI/lvgl/src/core/lv_obj_pos.c **** }
 3256              		.loc 1 803 17 is_stmt 0 discriminator 1 view .LVU943
 3257 0024 FFF7FEFF 		bl	lv_obj_get_disp
 3258              	.LVL310:
 3259 0028 6946     		mov	r1, sp
 3260 002a FFF7FEFF 		bl	_lv_inv_area
 3261              	.LVL311:
 804:Middlewares/LVGL/GUI/lvgl/src/core/lv_obj_pos.c **** 
 3262              		.loc 1 804 1 discriminator 1 view .LVU944
 3263 002e F6E7     		b	.L154
 3264              		.cfi_endproc
 3265              	.LFE194:
 3267              		.section	.text.lv_obj_invalidate,"ax",%progbits
 3268              		.align	1
 3269              		.global	lv_obj_invalidate
 3270              		.syntax unified
 3271              		.thumb
 3272              		.thumb_func
 3274              	lv_obj_invalidate:
 3275              	.LVL312:
 3276              	.LFB195:
 807:Middlewares/LVGL/GUI/lvgl/src/core/lv_obj_pos.c ****     LV_ASSERT_OBJ(obj, MY_CLASS);
 3277              		.loc 1 807 1 is_stmt 1 view -0
 3278              		.cfi_startproc
 3279              		@ args = 0, pretend = 0, frame = 16
 3280              		@ frame_needed = 0, uses_anonymous_args = 0
 807:Middlewares/LVGL/GUI/lvgl/src/core/lv_obj_pos.c ****     LV_ASSERT_OBJ(obj, MY_CLASS);
 3281              		.loc 1 807 1 is_stmt 0 view .LVU946
 3282 0000 30B5     		push	{r4, r5, lr}
 3283              	.LCFI53:
 3284              		.cfi_def_cfa_offset 12
 3285              		.cfi_offset 4, -12
 3286              		.cfi_offset 5, -8
 3287              		.cfi_offset 14, -4
 3288 0002 85B0     		sub	sp, sp, #20
 3289              	.LCFI54:
 3290              		.cfi_def_cfa_offset 32
 3291 0004 0446     		mov	r4, r0
 808:Middlewares/LVGL/GUI/lvgl/src/core/lv_obj_pos.c **** 
 3292              		.loc 1 808 5 is_stmt 1 view .LVU947
 808:Middlewares/LVGL/GUI/lvgl/src/core/lv_obj_pos.c **** 
 3293              		.loc 1 808 5 view .LVU948
 808:Middlewares/LVGL/GUI/lvgl/src/core/lv_obj_pos.c **** 
 3294              		.loc 1 808 5 view .LVU949
 812:Middlewares/LVGL/GUI/lvgl/src/core/lv_obj_pos.c ****         obj = lv_obj_get_parent(obj);
 3295              		.loc 1 812 5 view .LVU950
 812:Middlewares/LVGL/GUI/lvgl/src/core/lv_obj_pos.c ****         obj = lv_obj_get_parent(obj);
 3296              		.loc 1 812 10 is_stmt 0 view .LVU951
 3297 0006 03E0     		b	.L159
 3298              	.LVL313:
 3299              	.L161:
ARM GAS  C:\Users\ADMINI~1\AppData\Local\Temp\ccVA75Tx.s 			page 98


 813:Middlewares/LVGL/GUI/lvgl/src/core/lv_obj_pos.c ****     }
 3300              		.loc 1 813 9 is_stmt 1 view .LVU952
 813:Middlewares/LVGL/GUI/lvgl/src/core/lv_obj_pos.c ****     }
 3301              		.loc 1 813 15 is_stmt 0 view .LVU953
 3302 0008 2046     		mov	r0, r4
 3303 000a FFF7FEFF 		bl	lv_obj_get_parent
 3304              	.LVL314:
 3305 000e 0446     		mov	r4, r0
 3306              	.LVL315:
 3307              	.L159:
 812:Middlewares/LVGL/GUI/lvgl/src/core/lv_obj_pos.c ****         obj = lv_obj_get_parent(obj);
 3308              		.loc 1 812 10 is_stmt 1 view .LVU954
 812:Middlewares/LVGL/GUI/lvgl/src/core/lv_obj_pos.c ****         obj = lv_obj_get_parent(obj);
 3309              		.loc 1 812 11 is_stmt 0 view .LVU955
 3310 0010 2046     		mov	r0, r4
 812:Middlewares/LVGL/GUI/lvgl/src/core/lv_obj_pos.c ****         obj = lv_obj_get_parent(obj);
 3311              		.loc 1 812 11 view .LVU956
 3312 0012 FFF7FEFF 		bl	lv_obj_get_parent
 3313              	.LVL316:
 812:Middlewares/LVGL/GUI/lvgl/src/core/lv_obj_pos.c ****         obj = lv_obj_get_parent(obj);
 3314              		.loc 1 812 10 view .LVU957
 3315 0016 30B1     		cbz	r0, .L160
 812:Middlewares/LVGL/GUI/lvgl/src/core/lv_obj_pos.c ****         obj = lv_obj_get_parent(obj);
 3316              		.loc 1 812 37 discriminator 1 view .LVU958
 3317 0018 4FF40021 		mov	r1, #524288
 3318 001c 2046     		mov	r0, r4
 3319 001e FFF7FEFF 		bl	lv_obj_has_flag
 3320              	.LVL317:
 812:Middlewares/LVGL/GUI/lvgl/src/core/lv_obj_pos.c ****         obj = lv_obj_get_parent(obj);
 3321              		.loc 1 812 34 discriminator 1 view .LVU959
 3322 0022 0028     		cmp	r0, #0
 3323 0024 F0D1     		bne	.L161
 3324              	.L160:
 817:Middlewares/LVGL/GUI/lvgl/src/core/lv_obj_pos.c ****     lv_coord_t ext_size = _lv_obj_get_ext_draw_size(obj);
 3325              		.loc 1 817 5 is_stmt 1 view .LVU960
 818:Middlewares/LVGL/GUI/lvgl/src/core/lv_obj_pos.c ****     lv_area_copy(&obj_coords, &obj->coords);
 3326              		.loc 1 818 5 view .LVU961
 818:Middlewares/LVGL/GUI/lvgl/src/core/lv_obj_pos.c ****     lv_area_copy(&obj_coords, &obj->coords);
 3327              		.loc 1 818 27 is_stmt 0 view .LVU962
 3328 0026 2046     		mov	r0, r4
 3329 0028 FFF7FEFF 		bl	_lv_obj_get_ext_draw_size
 3330              	.LVL318:
 819:Middlewares/LVGL/GUI/lvgl/src/core/lv_obj_pos.c ****     obj_coords.x1 -= ext_size;
 3331              		.loc 1 819 5 is_stmt 1 view .LVU963
 3332              	.LBB300:
 3333              	.LBI300:
 110:Middlewares/LVGL/GUI/lvgl/src/core/../misc/../font/../misc/lv_area.h **** {
 3334              		.loc 3 110 20 view .LVU964
 3335              	.LBB301:
 112:Middlewares/LVGL/GUI/lvgl/src/core/../misc/../font/../misc/lv_area.h ****     dest->y1 = src->y1;
 3336              		.loc 3 112 5 view .LVU965
 112:Middlewares/LVGL/GUI/lvgl/src/core/../misc/../font/../misc/lv_area.h ****     dest->y1 = src->y1;
 3337              		.loc 3 112 19 is_stmt 0 view .LVU966
 3338 002c 6169     		ldr	r1, [r4, #20]
 112:Middlewares/LVGL/GUI/lvgl/src/core/../misc/../font/../misc/lv_area.h ****     dest->y1 = src->y1;
 3339              		.loc 3 112 14 view .LVU967
 3340 002e 0091     		str	r1, [sp]
ARM GAS  C:\Users\ADMINI~1\AppData\Local\Temp\ccVA75Tx.s 			page 99


 113:Middlewares/LVGL/GUI/lvgl/src/core/../misc/../font/../misc/lv_area.h ****     dest->x2 = src->x2;
 3341              		.loc 3 113 5 is_stmt 1 view .LVU968
 113:Middlewares/LVGL/GUI/lvgl/src/core/../misc/../font/../misc/lv_area.h ****     dest->x2 = src->x2;
 3342              		.loc 3 113 19 is_stmt 0 view .LVU969
 3343 0030 A269     		ldr	r2, [r4, #24]
 113:Middlewares/LVGL/GUI/lvgl/src/core/../misc/../font/../misc/lv_area.h ****     dest->x2 = src->x2;
 3344              		.loc 3 113 14 view .LVU970
 3345 0032 0192     		str	r2, [sp, #4]
 114:Middlewares/LVGL/GUI/lvgl/src/core/../misc/../font/../misc/lv_area.h ****     dest->y2 = src->y2;
 3346              		.loc 3 114 5 is_stmt 1 view .LVU971
 114:Middlewares/LVGL/GUI/lvgl/src/core/../misc/../font/../misc/lv_area.h ****     dest->y2 = src->y2;
 3347              		.loc 3 114 19 is_stmt 0 view .LVU972
 3348 0034 E369     		ldr	r3, [r4, #28]
 114:Middlewares/LVGL/GUI/lvgl/src/core/../misc/../font/../misc/lv_area.h ****     dest->y2 = src->y2;
 3349              		.loc 3 114 14 view .LVU973
 3350 0036 0293     		str	r3, [sp, #8]
 115:Middlewares/LVGL/GUI/lvgl/src/core/../misc/../font/../misc/lv_area.h **** }
 3351              		.loc 3 115 5 is_stmt 1 view .LVU974
 115:Middlewares/LVGL/GUI/lvgl/src/core/../misc/../font/../misc/lv_area.h **** }
 3352              		.loc 3 115 19 is_stmt 0 view .LVU975
 3353 0038 256A     		ldr	r5, [r4, #32]
 115:Middlewares/LVGL/GUI/lvgl/src/core/../misc/../font/../misc/lv_area.h **** }
 3354              		.loc 3 115 14 view .LVU976
 3355 003a 0395     		str	r5, [sp, #12]
 3356              	.LVL319:
 115:Middlewares/LVGL/GUI/lvgl/src/core/../misc/../font/../misc/lv_area.h **** }
 3357              		.loc 3 115 14 view .LVU977
 3358              	.LBE301:
 3359              	.LBE300:
 820:Middlewares/LVGL/GUI/lvgl/src/core/lv_obj_pos.c ****     obj_coords.y1 -= ext_size;
 3360              		.loc 1 820 5 is_stmt 1 view .LVU978
 820:Middlewares/LVGL/GUI/lvgl/src/core/lv_obj_pos.c ****     obj_coords.y1 -= ext_size;
 3361              		.loc 1 820 19 is_stmt 0 view .LVU979
 3362 003c 091A     		subs	r1, r1, r0
 3363 003e 0091     		str	r1, [sp]
 821:Middlewares/LVGL/GUI/lvgl/src/core/lv_obj_pos.c ****     obj_coords.x2 += ext_size;
 3364              		.loc 1 821 5 is_stmt 1 view .LVU980
 821:Middlewares/LVGL/GUI/lvgl/src/core/lv_obj_pos.c ****     obj_coords.x2 += ext_size;
 3365              		.loc 1 821 19 is_stmt 0 view .LVU981
 3366 0040 121A     		subs	r2, r2, r0
 3367 0042 0192     		str	r2, [sp, #4]
 822:Middlewares/LVGL/GUI/lvgl/src/core/lv_obj_pos.c ****     obj_coords.y2 += ext_size;
 3368              		.loc 1 822 5 is_stmt 1 view .LVU982
 822:Middlewares/LVGL/GUI/lvgl/src/core/lv_obj_pos.c ****     obj_coords.y2 += ext_size;
 3369              		.loc 1 822 19 is_stmt 0 view .LVU983
 3370 0044 0344     		add	r3, r3, r0
 3371 0046 0293     		str	r3, [sp, #8]
 823:Middlewares/LVGL/GUI/lvgl/src/core/lv_obj_pos.c **** 
 3372              		.loc 1 823 5 is_stmt 1 view .LVU984
 823:Middlewares/LVGL/GUI/lvgl/src/core/lv_obj_pos.c **** 
 3373              		.loc 1 823 19 is_stmt 0 view .LVU985
 3374 0048 2844     		add	r0, r0, r5
 3375              	.LVL320:
 823:Middlewares/LVGL/GUI/lvgl/src/core/lv_obj_pos.c **** 
 3376              		.loc 1 823 19 view .LVU986
 3377 004a 0390     		str	r0, [sp, #12]
 825:Middlewares/LVGL/GUI/lvgl/src/core/lv_obj_pos.c **** 
ARM GAS  C:\Users\ADMINI~1\AppData\Local\Temp\ccVA75Tx.s 			page 100


 3378              		.loc 1 825 5 is_stmt 1 view .LVU987
 3379 004c 6946     		mov	r1, sp
 3380 004e 2046     		mov	r0, r4
 3381 0050 FFF7FEFF 		bl	lv_obj_invalidate_area
 3382              	.LVL321:
 827:Middlewares/LVGL/GUI/lvgl/src/core/lv_obj_pos.c **** 
 3383              		.loc 1 827 1 is_stmt 0 view .LVU988
 3384 0054 05B0     		add	sp, sp, #20
 3385              	.LCFI55:
 3386              		.cfi_def_cfa_offset 12
 3387              		@ sp needed
 3388 0056 30BD     		pop	{r4, r5, pc}
 827:Middlewares/LVGL/GUI/lvgl/src/core/lv_obj_pos.c **** 
 3389              		.loc 1 827 1 view .LVU989
 3390              		.cfi_endproc
 3391              	.LFE195:
 3393              		.section	.text.lv_obj_move_to,"ax",%progbits
 3394              		.align	1
 3395              		.global	lv_obj_move_to
 3396              		.syntax unified
 3397              		.thumb
 3398              		.thumb_func
 3400              	lv_obj_move_to:
 3401              	.LVL322:
 3402              	.LFB192:
 706:Middlewares/LVGL/GUI/lvgl/src/core/lv_obj_pos.c ****     /*Convert x and y to absolute coordinates*/
 3403              		.loc 1 706 1 is_stmt 1 view -0
 3404              		.cfi_startproc
 3405              		@ args = 0, pretend = 0, frame = 40
 3406              		@ frame_needed = 0, uses_anonymous_args = 0
 706:Middlewares/LVGL/GUI/lvgl/src/core/lv_obj_pos.c ****     /*Convert x and y to absolute coordinates*/
 3407              		.loc 1 706 1 is_stmt 0 view .LVU991
 3408 0000 2DE9F043 		push	{r4, r5, r6, r7, r8, r9, lr}
 3409              	.LCFI56:
 3410              		.cfi_def_cfa_offset 28
 3411              		.cfi_offset 4, -28
 3412              		.cfi_offset 5, -24
 3413              		.cfi_offset 6, -20
 3414              		.cfi_offset 7, -16
 3415              		.cfi_offset 8, -12
 3416              		.cfi_offset 9, -8
 3417              		.cfi_offset 14, -4
 3418 0004 8BB0     		sub	sp, sp, #44
 3419              	.LCFI57:
 3420              		.cfi_def_cfa_offset 72
 3421 0006 0446     		mov	r4, r0
 3422 0008 0D46     		mov	r5, r1
 3423 000a 1646     		mov	r6, r2
 708:Middlewares/LVGL/GUI/lvgl/src/core/lv_obj_pos.c **** 
 3424              		.loc 1 708 5 is_stmt 1 view .LVU992
 708:Middlewares/LVGL/GUI/lvgl/src/core/lv_obj_pos.c **** 
 3425              		.loc 1 708 16 is_stmt 0 view .LVU993
 3426 000c 4768     		ldr	r7, [r0, #4]
 3427              	.LVL323:
 710:Middlewares/LVGL/GUI/lvgl/src/core/lv_obj_pos.c ****         lv_coord_t pad_left = lv_obj_get_style_pad_left(parent, LV_PART_MAIN);
 3428              		.loc 1 710 5 is_stmt 1 view .LVU994
 710:Middlewares/LVGL/GUI/lvgl/src/core/lv_obj_pos.c ****         lv_coord_t pad_left = lv_obj_get_style_pad_left(parent, LV_PART_MAIN);
ARM GAS  C:\Users\ADMINI~1\AppData\Local\Temp\ccVA75Tx.s 			page 101


 3429              		.loc 1 710 7 is_stmt 0 view .LVU995
 3430 000e 0FB3     		cbz	r7, .L164
 3431              	.LBB302:
 711:Middlewares/LVGL/GUI/lvgl/src/core/lv_obj_pos.c ****         lv_coord_t pad_top = lv_obj_get_style_pad_top(parent, LV_PART_MAIN);
 3432              		.loc 1 711 9 is_stmt 1 view .LVU996
 3433              	.LVL324:
 3434              	.LBB303:
 3435              	.LBI303:
 103:Middlewares/LVGL/GUI/lvgl/src/core/lv_obj_style_gen.h **** {
 3436              		.loc 2 103 26 view .LVU997
 3437              	.LBB304:
 105:Middlewares/LVGL/GUI/lvgl/src/core/lv_obj_style_gen.h ****     return (lv_coord_t)v.num;
 3438              		.loc 2 105 5 view .LVU998
 105:Middlewares/LVGL/GUI/lvgl/src/core/lv_obj_style_gen.h ****     return (lv_coord_t)v.num;
 3439              		.loc 2 105 26 is_stmt 0 view .LVU999
 3440 0010 41F61202 		movw	r2, #6162
 3441              	.LVL325:
 105:Middlewares/LVGL/GUI/lvgl/src/core/lv_obj_style_gen.h ****     return (lv_coord_t)v.num;
 3442              		.loc 2 105 26 view .LVU1000
 3443 0014 0021     		movs	r1, #0
 3444              	.LVL326:
 105:Middlewares/LVGL/GUI/lvgl/src/core/lv_obj_style_gen.h ****     return (lv_coord_t)v.num;
 3445              		.loc 2 105 26 view .LVU1001
 3446 0016 3846     		mov	r0, r7
 3447              	.LVL327:
 105:Middlewares/LVGL/GUI/lvgl/src/core/lv_obj_style_gen.h ****     return (lv_coord_t)v.num;
 3448              		.loc 2 105 26 view .LVU1002
 3449 0018 FFF7FEFF 		bl	lv_obj_get_style_prop
 3450              	.LVL328:
 3451 001c 8146     		mov	r9, r0
 106:Middlewares/LVGL/GUI/lvgl/src/core/lv_obj_style_gen.h **** }
 3452              		.loc 2 106 5 is_stmt 1 view .LVU1003
 3453              	.LVL329:
 106:Middlewares/LVGL/GUI/lvgl/src/core/lv_obj_style_gen.h **** }
 3454              		.loc 2 106 5 is_stmt 0 view .LVU1004
 3455              	.LBE304:
 3456              	.LBE303:
 712:Middlewares/LVGL/GUI/lvgl/src/core/lv_obj_pos.c **** 
 3457              		.loc 1 712 9 is_stmt 1 view .LVU1005
 3458              	.LBB305:
 3459              	.LBI305:
  91:Middlewares/LVGL/GUI/lvgl/src/core/lv_obj_style_gen.h **** {
 3460              		.loc 2 91 26 view .LVU1006
 3461              	.LBB306:
  93:Middlewares/LVGL/GUI/lvgl/src/core/lv_obj_style_gen.h ****     return (lv_coord_t)v.num;
 3462              		.loc 2 93 5 view .LVU1007
  93:Middlewares/LVGL/GUI/lvgl/src/core/lv_obj_style_gen.h ****     return (lv_coord_t)v.num;
 3463              		.loc 2 93 26 is_stmt 0 view .LVU1008
 3464 001e 41F61002 		movw	r2, #6160
 3465 0022 0021     		movs	r1, #0
 3466 0024 3846     		mov	r0, r7
 3467              	.LVL330:
  93:Middlewares/LVGL/GUI/lvgl/src/core/lv_obj_style_gen.h ****     return (lv_coord_t)v.num;
 3468              		.loc 2 93 26 view .LVU1009
 3469 0026 FFF7FEFF 		bl	lv_obj_get_style_prop
 3470              	.LVL331:
 3471 002a 8046     		mov	r8, r0
ARM GAS  C:\Users\ADMINI~1\AppData\Local\Temp\ccVA75Tx.s 			page 102


  94:Middlewares/LVGL/GUI/lvgl/src/core/lv_obj_style_gen.h **** }
 3472              		.loc 2 94 5 is_stmt 1 view .LVU1010
 3473              	.LVL332:
  94:Middlewares/LVGL/GUI/lvgl/src/core/lv_obj_style_gen.h **** }
 3474              		.loc 2 94 5 is_stmt 0 view .LVU1011
 3475              	.LBE306:
 3476              	.LBE305:
 714:Middlewares/LVGL/GUI/lvgl/src/core/lv_obj_pos.c ****             x += pad_left + parent->coords.x1;
 3477              		.loc 1 714 9 is_stmt 1 view .LVU1012
 714:Middlewares/LVGL/GUI/lvgl/src/core/lv_obj_pos.c ****             x += pad_left + parent->coords.x1;
 3478              		.loc 1 714 12 is_stmt 0 view .LVU1013
 3479 002c 4FF48021 		mov	r1, #262144
 3480 0030 2046     		mov	r0, r4
 3481              	.LVL333:
 714:Middlewares/LVGL/GUI/lvgl/src/core/lv_obj_pos.c ****             x += pad_left + parent->coords.x1;
 3482              		.loc 1 714 12 view .LVU1014
 3483 0032 FFF7FEFF 		bl	lv_obj_has_flag
 3484              	.LVL334:
 714:Middlewares/LVGL/GUI/lvgl/src/core/lv_obj_pos.c ****             x += pad_left + parent->coords.x1;
 3485              		.loc 1 714 11 view .LVU1015
 3486 0036 68B3     		cbz	r0, .L165
 715:Middlewares/LVGL/GUI/lvgl/src/core/lv_obj_pos.c ****             y += pad_top + parent->coords.y1;
 3487              		.loc 1 715 13 is_stmt 1 view .LVU1016
 715:Middlewares/LVGL/GUI/lvgl/src/core/lv_obj_pos.c ****             y += pad_top + parent->coords.y1;
 3488              		.loc 1 715 43 is_stmt 0 view .LVU1017
 3489 0038 7869     		ldr	r0, [r7, #20]
 715:Middlewares/LVGL/GUI/lvgl/src/core/lv_obj_pos.c ****             y += pad_top + parent->coords.y1;
 3490              		.loc 1 715 27 view .LVU1018
 3491 003a 4844     		add	r0, r0, r9
 715:Middlewares/LVGL/GUI/lvgl/src/core/lv_obj_pos.c ****             y += pad_top + parent->coords.y1;
 3492              		.loc 1 715 15 view .LVU1019
 3493 003c 0544     		add	r5, r5, r0
 3494              	.LVL335:
 716:Middlewares/LVGL/GUI/lvgl/src/core/lv_obj_pos.c ****         }
 3495              		.loc 1 716 13 is_stmt 1 view .LVU1020
 716:Middlewares/LVGL/GUI/lvgl/src/core/lv_obj_pos.c ****         }
 3496              		.loc 1 716 42 is_stmt 0 view .LVU1021
 3497 003e BB69     		ldr	r3, [r7, #24]
 716:Middlewares/LVGL/GUI/lvgl/src/core/lv_obj_pos.c ****         }
 3498              		.loc 1 716 26 view .LVU1022
 3499 0040 4344     		add	r3, r3, r8
 716:Middlewares/LVGL/GUI/lvgl/src/core/lv_obj_pos.c ****         }
 3500              		.loc 1 716 15 view .LVU1023
 3501 0042 1E44     		add	r6, r6, r3
 3502              	.LVL336:
 3503              	.L166:
 723:Middlewares/LVGL/GUI/lvgl/src/core/lv_obj_pos.c ****         x += border_width;
 3504              		.loc 1 723 9 is_stmt 1 view .LVU1024
 3505              	.LBB307:
 3506              	.LBI307:
 241:Middlewares/LVGL/GUI/lvgl/src/core/lv_obj_style_gen.h **** {
 3507              		.loc 2 241 26 view .LVU1025
 3508              	.LBB308:
 243:Middlewares/LVGL/GUI/lvgl/src/core/lv_obj_style_gen.h ****     return (lv_coord_t)v.num;
 3509              		.loc 2 243 5 view .LVU1026
 243:Middlewares/LVGL/GUI/lvgl/src/core/lv_obj_style_gen.h ****     return (lv_coord_t)v.num;
 3510              		.loc 2 243 26 is_stmt 0 view .LVU1027
ARM GAS  C:\Users\ADMINI~1\AppData\Local\Temp\ccVA75Tx.s 			page 103


 3511 0044 41F23202 		movw	r2, #4146
 3512 0048 0021     		movs	r1, #0
 3513 004a 3846     		mov	r0, r7
 3514 004c FFF7FEFF 		bl	lv_obj_get_style_prop
 3515              	.LVL337:
 244:Middlewares/LVGL/GUI/lvgl/src/core/lv_obj_style_gen.h **** }
 3516              		.loc 2 244 5 is_stmt 1 view .LVU1028
 244:Middlewares/LVGL/GUI/lvgl/src/core/lv_obj_style_gen.h **** }
 3517              		.loc 2 244 5 is_stmt 0 view .LVU1029
 3518              	.LBE308:
 3519              	.LBE307:
 724:Middlewares/LVGL/GUI/lvgl/src/core/lv_obj_pos.c ****         y += border_width;
 3520              		.loc 1 724 9 is_stmt 1 view .LVU1030
 724:Middlewares/LVGL/GUI/lvgl/src/core/lv_obj_pos.c ****         y += border_width;
 3521              		.loc 1 724 11 is_stmt 0 view .LVU1031
 3522 0050 0544     		add	r5, r5, r0
 3523              	.LVL338:
 725:Middlewares/LVGL/GUI/lvgl/src/core/lv_obj_pos.c ****     }
 3524              		.loc 1 725 9 is_stmt 1 view .LVU1032
 725:Middlewares/LVGL/GUI/lvgl/src/core/lv_obj_pos.c ****     }
 3525              		.loc 1 725 11 is_stmt 0 view .LVU1033
 3526 0052 0644     		add	r6, r6, r0
 3527              	.LVL339:
 3528              	.L164:
 725:Middlewares/LVGL/GUI/lvgl/src/core/lv_obj_pos.c ****     }
 3529              		.loc 1 725 11 view .LVU1034
 3530              	.LBE302:
 729:Middlewares/LVGL/GUI/lvgl/src/core/lv_obj_pos.c ****     diff.x = x - obj->coords.x1;
 3531              		.loc 1 729 5 is_stmt 1 view .LVU1035
 730:Middlewares/LVGL/GUI/lvgl/src/core/lv_obj_pos.c ****     diff.y = y - obj->coords.y1;
 3532              		.loc 1 730 5 view .LVU1036
 730:Middlewares/LVGL/GUI/lvgl/src/core/lv_obj_pos.c ****     diff.y = y - obj->coords.y1;
 3533              		.loc 1 730 29 is_stmt 0 view .LVU1037
 3534 0054 6169     		ldr	r1, [r4, #20]
 730:Middlewares/LVGL/GUI/lvgl/src/core/lv_obj_pos.c ****     diff.y = y - obj->coords.y1;
 3535              		.loc 1 730 16 view .LVU1038
 3536 0056 6D1A     		subs	r5, r5, r1
 3537              	.LVL340:
 730:Middlewares/LVGL/GUI/lvgl/src/core/lv_obj_pos.c ****     diff.y = y - obj->coords.y1;
 3538              		.loc 1 730 12 view .LVU1039
 3539 0058 0895     		str	r5, [sp, #32]
 731:Middlewares/LVGL/GUI/lvgl/src/core/lv_obj_pos.c **** 
 3540              		.loc 1 731 5 is_stmt 1 view .LVU1040
 731:Middlewares/LVGL/GUI/lvgl/src/core/lv_obj_pos.c **** 
 3541              		.loc 1 731 29 is_stmt 0 view .LVU1041
 3542 005a A269     		ldr	r2, [r4, #24]
 731:Middlewares/LVGL/GUI/lvgl/src/core/lv_obj_pos.c **** 
 3543              		.loc 1 731 16 view .LVU1042
 3544 005c B61A     		subs	r6, r6, r2
 3545              	.LVL341:
 731:Middlewares/LVGL/GUI/lvgl/src/core/lv_obj_pos.c **** 
 3546              		.loc 1 731 12 view .LVU1043
 3547 005e 0996     		str	r6, [sp, #36]
 736:Middlewares/LVGL/GUI/lvgl/src/core/lv_obj_pos.c **** 
 3548              		.loc 1 736 5 is_stmt 1 view .LVU1044
 736:Middlewares/LVGL/GUI/lvgl/src/core/lv_obj_pos.c **** 
 3549              		.loc 1 736 7 is_stmt 0 view .LVU1045
ARM GAS  C:\Users\ADMINI~1\AppData\Local\Temp\ccVA75Tx.s 			page 104


 3550 0060 0DB9     		cbnz	r5, .L167
 736:Middlewares/LVGL/GUI/lvgl/src/core/lv_obj_pos.c **** 
 3551              		.loc 1 736 20 discriminator 1 view .LVU1046
 3552 0062 002E     		cmp	r6, #0
 3553 0064 52D0     		beq	.L163
 3554              	.L167:
 739:Middlewares/LVGL/GUI/lvgl/src/core/lv_obj_pos.c **** 
 3555              		.loc 1 739 5 is_stmt 1 view .LVU1047
 3556 0066 2046     		mov	r0, r4
 3557              	.LVL342:
 739:Middlewares/LVGL/GUI/lvgl/src/core/lv_obj_pos.c **** 
 3558              		.loc 1 739 5 is_stmt 0 view .LVU1048
 3559 0068 FFF7FEFF 		bl	lv_obj_invalidate
 3560              	.LVL343:
 742:Middlewares/LVGL/GUI/lvgl/src/core/lv_obj_pos.c ****     lv_obj_get_coords(obj, &ori);
 3561              		.loc 1 742 5 is_stmt 1 view .LVU1049
 743:Middlewares/LVGL/GUI/lvgl/src/core/lv_obj_pos.c **** 
 3562              		.loc 1 743 5 view .LVU1050
 3563 006c 04A9     		add	r1, sp, #16
 3564 006e 2046     		mov	r0, r4
 3565 0070 FFF7FEFF 		bl	lv_obj_get_coords
 3566              	.LVL344:
 746:Middlewares/LVGL/GUI/lvgl/src/core/lv_obj_pos.c ****     bool on1 = false;
 3567              		.loc 1 746 5 view .LVU1051
 747:Middlewares/LVGL/GUI/lvgl/src/core/lv_obj_pos.c ****     if(parent) {
 3568              		.loc 1 747 5 view .LVU1052
 748:Middlewares/LVGL/GUI/lvgl/src/core/lv_obj_pos.c ****         lv_obj_get_content_coords(parent, &parent_fit_area);
 3569              		.loc 1 748 5 view .LVU1053
 748:Middlewares/LVGL/GUI/lvgl/src/core/lv_obj_pos.c ****         lv_obj_get_content_coords(parent, &parent_fit_area);
 3570              		.loc 1 748 7 is_stmt 0 view .LVU1054
 3571 0074 FFB1     		cbz	r7, .L173
 749:Middlewares/LVGL/GUI/lvgl/src/core/lv_obj_pos.c **** 
 3572              		.loc 1 749 9 is_stmt 1 view .LVU1055
 3573 0076 6946     		mov	r1, sp
 3574 0078 3846     		mov	r0, r7
 3575 007a FFF7FEFF 		bl	lv_obj_get_content_coords
 3576              	.LVL345:
 753:Middlewares/LVGL/GUI/lvgl/src/core/lv_obj_pos.c ****         if(!on1) lv_obj_scrollbar_invalidate(parent);
 3577              		.loc 1 753 9 view .LVU1056
 753:Middlewares/LVGL/GUI/lvgl/src/core/lv_obj_pos.c ****         if(!on1) lv_obj_scrollbar_invalidate(parent);
 3578              		.loc 1 753 15 is_stmt 0 view .LVU1057
 3579 007e 0022     		movs	r2, #0
 3580 0080 6946     		mov	r1, sp
 3581 0082 04A8     		add	r0, sp, #16
 3582 0084 FFF7FEFF 		bl	_lv_area_is_in
 3583              	.LVL346:
 754:Middlewares/LVGL/GUI/lvgl/src/core/lv_obj_pos.c ****     }
 3584              		.loc 1 754 9 is_stmt 1 view .LVU1058
 754:Middlewares/LVGL/GUI/lvgl/src/core/lv_obj_pos.c ****     }
 3585              		.loc 1 754 11 is_stmt 0 view .LVU1059
 3586 0088 8046     		mov	r8, r0
 3587 008a B0B9     		cbnz	r0, .L169
 754:Middlewares/LVGL/GUI/lvgl/src/core/lv_obj_pos.c ****     }
 3588              		.loc 1 754 18 is_stmt 1 discriminator 1 view .LVU1060
 3589 008c 3846     		mov	r0, r7
 3590              	.LVL347:
 754:Middlewares/LVGL/GUI/lvgl/src/core/lv_obj_pos.c ****     }
ARM GAS  C:\Users\ADMINI~1\AppData\Local\Temp\ccVA75Tx.s 			page 105


 3591              		.loc 1 754 18 is_stmt 0 discriminator 1 view .LVU1061
 3592 008e FFF7FEFF 		bl	lv_obj_scrollbar_invalidate
 3593              	.LVL348:
 3594 0092 12E0     		b	.L169
 3595              	.LVL349:
 3596              	.L165:
 3597              	.LBB309:
 719:Middlewares/LVGL/GUI/lvgl/src/core/lv_obj_pos.c ****             y += pad_top + parent->coords.y1 - lv_obj_get_scroll_y(parent);
 3598              		.loc 1 719 13 is_stmt 1 view .LVU1062
 719:Middlewares/LVGL/GUI/lvgl/src/core/lv_obj_pos.c ****             y += pad_top + parent->coords.y1 - lv_obj_get_scroll_y(parent);
 3599              		.loc 1 719 43 is_stmt 0 view .LVU1063
 3600 0094 7869     		ldr	r0, [r7, #20]
 719:Middlewares/LVGL/GUI/lvgl/src/core/lv_obj_pos.c ****             y += pad_top + parent->coords.y1 - lv_obj_get_scroll_y(parent);
 3601              		.loc 1 719 27 view .LVU1064
 3602 0096 8144     		add	r9, r9, r0
 3603              	.LVL350:
 719:Middlewares/LVGL/GUI/lvgl/src/core/lv_obj_pos.c ****             y += pad_top + parent->coords.y1 - lv_obj_get_scroll_y(parent);
 3604              		.loc 1 719 49 view .LVU1065
 3605 0098 3846     		mov	r0, r7
 3606 009a FFF7FEFF 		bl	lv_obj_get_scroll_x
 3607              	.LVL351:
 719:Middlewares/LVGL/GUI/lvgl/src/core/lv_obj_pos.c ****             y += pad_top + parent->coords.y1 - lv_obj_get_scroll_y(parent);
 3608              		.loc 1 719 47 view .LVU1066
 3609 009e A9EB0009 		sub	r9, r9, r0
 719:Middlewares/LVGL/GUI/lvgl/src/core/lv_obj_pos.c ****             y += pad_top + parent->coords.y1 - lv_obj_get_scroll_y(parent);
 3610              		.loc 1 719 15 view .LVU1067
 3611 00a2 4D44     		add	r5, r5, r9
 3612              	.LVL352:
 720:Middlewares/LVGL/GUI/lvgl/src/core/lv_obj_pos.c ****         }
 3613              		.loc 1 720 13 is_stmt 1 view .LVU1068
 720:Middlewares/LVGL/GUI/lvgl/src/core/lv_obj_pos.c ****         }
 3614              		.loc 1 720 42 is_stmt 0 view .LVU1069
 3615 00a4 BA69     		ldr	r2, [r7, #24]
 720:Middlewares/LVGL/GUI/lvgl/src/core/lv_obj_pos.c ****         }
 3616              		.loc 1 720 26 view .LVU1070
 3617 00a6 9044     		add	r8, r8, r2
 3618              	.LVL353:
 720:Middlewares/LVGL/GUI/lvgl/src/core/lv_obj_pos.c ****         }
 3619              		.loc 1 720 48 view .LVU1071
 3620 00a8 3846     		mov	r0, r7
 3621 00aa FFF7FEFF 		bl	lv_obj_get_scroll_y
 3622              	.LVL354:
 720:Middlewares/LVGL/GUI/lvgl/src/core/lv_obj_pos.c ****         }
 3623              		.loc 1 720 46 view .LVU1072
 3624 00ae A8EB0008 		sub	r8, r8, r0
 720:Middlewares/LVGL/GUI/lvgl/src/core/lv_obj_pos.c ****         }
 3625              		.loc 1 720 15 view .LVU1073
 3626 00b2 4644     		add	r6, r6, r8
 3627              	.LVL355:
 720:Middlewares/LVGL/GUI/lvgl/src/core/lv_obj_pos.c ****         }
 3628              		.loc 1 720 15 view .LVU1074
 3629 00b4 C6E7     		b	.L166
 3630              	.LVL356:
 3631              	.L173:
 720:Middlewares/LVGL/GUI/lvgl/src/core/lv_obj_pos.c ****         }
 3632              		.loc 1 720 15 view .LVU1075
 3633              	.LBE309:
ARM GAS  C:\Users\ADMINI~1\AppData\Local\Temp\ccVA75Tx.s 			page 106


 747:Middlewares/LVGL/GUI/lvgl/src/core/lv_obj_pos.c ****     if(parent) {
 3634              		.loc 1 747 10 view .LVU1076
 3635 00b6 4FF00008 		mov	r8, #0
 3636              	.LVL357:
 3637              	.L169:
 757:Middlewares/LVGL/GUI/lvgl/src/core/lv_obj_pos.c ****     obj->coords.y1 += diff.y;
 3638              		.loc 1 757 5 is_stmt 1 view .LVU1077
 757:Middlewares/LVGL/GUI/lvgl/src/core/lv_obj_pos.c ****     obj->coords.y1 += diff.y;
 3639              		.loc 1 757 20 is_stmt 0 view .LVU1078
 3640 00ba 6369     		ldr	r3, [r4, #20]
 3641 00bc 2B44     		add	r3, r3, r5
 3642 00be 6361     		str	r3, [r4, #20]
 758:Middlewares/LVGL/GUI/lvgl/src/core/lv_obj_pos.c ****     obj->coords.x2 += diff.x;
 3643              		.loc 1 758 5 is_stmt 1 view .LVU1079
 758:Middlewares/LVGL/GUI/lvgl/src/core/lv_obj_pos.c ****     obj->coords.x2 += diff.x;
 3644              		.loc 1 758 20 is_stmt 0 view .LVU1080
 3645 00c0 A369     		ldr	r3, [r4, #24]
 3646 00c2 3344     		add	r3, r3, r6
 3647 00c4 A361     		str	r3, [r4, #24]
 759:Middlewares/LVGL/GUI/lvgl/src/core/lv_obj_pos.c ****     obj->coords.y2 += diff.y;
 3648              		.loc 1 759 5 is_stmt 1 view .LVU1081
 759:Middlewares/LVGL/GUI/lvgl/src/core/lv_obj_pos.c ****     obj->coords.y2 += diff.y;
 3649              		.loc 1 759 20 is_stmt 0 view .LVU1082
 3650 00c6 E369     		ldr	r3, [r4, #28]
 3651 00c8 2B44     		add	r3, r3, r5
 3652 00ca E361     		str	r3, [r4, #28]
 760:Middlewares/LVGL/GUI/lvgl/src/core/lv_obj_pos.c **** 
 3653              		.loc 1 760 5 is_stmt 1 view .LVU1083
 760:Middlewares/LVGL/GUI/lvgl/src/core/lv_obj_pos.c **** 
 3654              		.loc 1 760 20 is_stmt 0 view .LVU1084
 3655 00cc 236A     		ldr	r3, [r4, #32]
 3656 00ce 3344     		add	r3, r3, r6
 3657 00d0 2362     		str	r3, [r4, #32]
 762:Middlewares/LVGL/GUI/lvgl/src/core/lv_obj_pos.c **** 
 3658              		.loc 1 762 5 is_stmt 1 view .LVU1085
 3659 00d2 0023     		movs	r3, #0
 3660 00d4 3246     		mov	r2, r6
 3661 00d6 2946     		mov	r1, r5
 3662 00d8 2046     		mov	r0, r4
 3663 00da FFF7FEFF 		bl	lv_obj_move_children_by
 3664              	.LVL358:
 765:Middlewares/LVGL/GUI/lvgl/src/core/lv_obj_pos.c **** 
 3665              		.loc 1 765 5 view .LVU1086
 765:Middlewares/LVGL/GUI/lvgl/src/core/lv_obj_pos.c **** 
 3666              		.loc 1 765 7 is_stmt 0 view .LVU1087
 3667 00de 27B1     		cbz	r7, .L170
 765:Middlewares/LVGL/GUI/lvgl/src/core/lv_obj_pos.c **** 
 3668              		.loc 1 765 16 is_stmt 1 discriminator 1 view .LVU1088
 3669 00e0 2246     		mov	r2, r4
 3670 00e2 2221     		movs	r1, #34
 3671 00e4 3846     		mov	r0, r7
 3672 00e6 FFF7FEFF 		bl	lv_event_send
 3673              	.LVL359:
 3674              	.L170:
 768:Middlewares/LVGL/GUI/lvgl/src/core/lv_obj_pos.c **** 
 3675              		.loc 1 768 5 view .LVU1089
 3676 00ea 2046     		mov	r0, r4
ARM GAS  C:\Users\ADMINI~1\AppData\Local\Temp\ccVA75Tx.s 			page 107


 3677 00ec FFF7FEFF 		bl	lv_obj_invalidate
 3678              	.LVL360:
 772:Middlewares/LVGL/GUI/lvgl/src/core/lv_obj_pos.c ****         bool on2 = _lv_area_is_in(&obj->coords, &parent_fit_area, 0);
 3679              		.loc 1 772 5 view .LVU1090
 772:Middlewares/LVGL/GUI/lvgl/src/core/lv_obj_pos.c ****         bool on2 = _lv_area_is_in(&obj->coords, &parent_fit_area, 0);
 3680              		.loc 1 772 7 is_stmt 0 view .LVU1091
 3681 00f0 67B1     		cbz	r7, .L163
 3682              	.LBB310:
 773:Middlewares/LVGL/GUI/lvgl/src/core/lv_obj_pos.c ****         if(on1 || (!on1 && on2)) lv_obj_scrollbar_invalidate(parent);
 3683              		.loc 1 773 9 is_stmt 1 view .LVU1092
 773:Middlewares/LVGL/GUI/lvgl/src/core/lv_obj_pos.c ****         if(on1 || (!on1 && on2)) lv_obj_scrollbar_invalidate(parent);
 3684              		.loc 1 773 20 is_stmt 0 view .LVU1093
 3685 00f2 0022     		movs	r2, #0
 3686 00f4 6946     		mov	r1, sp
 3687 00f6 04F11400 		add	r0, r4, #20
 3688 00fa FFF7FEFF 		bl	_lv_area_is_in
 3689              	.LVL361:
 774:Middlewares/LVGL/GUI/lvgl/src/core/lv_obj_pos.c ****     }
 3690              		.loc 1 774 9 is_stmt 1 view .LVU1094
 774:Middlewares/LVGL/GUI/lvgl/src/core/lv_obj_pos.c ****     }
 3691              		.loc 1 774 11 is_stmt 0 view .LVU1095
 3692 00fe B8F1000F 		cmp	r8, #0
 3693 0102 00D1     		bne	.L172
 774:Middlewares/LVGL/GUI/lvgl/src/core/lv_obj_pos.c ****     }
 3694              		.loc 1 774 25 discriminator 2 view .LVU1096
 3695 0104 10B1     		cbz	r0, .L163
 3696              	.L172:
 774:Middlewares/LVGL/GUI/lvgl/src/core/lv_obj_pos.c ****     }
 3697              		.loc 1 774 34 is_stmt 1 discriminator 4 view .LVU1097
 3698 0106 3846     		mov	r0, r7
 3699              	.LVL362:
 774:Middlewares/LVGL/GUI/lvgl/src/core/lv_obj_pos.c ****     }
 3700              		.loc 1 774 34 is_stmt 0 discriminator 4 view .LVU1098
 3701 0108 FFF7FEFF 		bl	lv_obj_scrollbar_invalidate
 3702              	.LVL363:
 3703              	.L163:
 774:Middlewares/LVGL/GUI/lvgl/src/core/lv_obj_pos.c ****     }
 3704              		.loc 1 774 34 discriminator 4 view .LVU1099
 3705              	.LBE310:
 776:Middlewares/LVGL/GUI/lvgl/src/core/lv_obj_pos.c **** 
 3706              		.loc 1 776 1 view .LVU1100
 3707 010c 0BB0     		add	sp, sp, #44
 3708              	.LCFI58:
 3709              		.cfi_def_cfa_offset 28
 3710              		@ sp needed
 3711 010e BDE8F083 		pop	{r4, r5, r6, r7, r8, r9, pc}
 776:Middlewares/LVGL/GUI/lvgl/src/core/lv_obj_pos.c **** 
 3712              		.loc 1 776 1 view .LVU1101
 3713              		.cfi_endproc
 3714              	.LFE192:
 3716              		.section	.text.lv_obj_refr_pos,"ax",%progbits
 3717              		.align	1
 3718              		.global	lv_obj_refr_pos
 3719              		.syntax unified
 3720              		.thumb
 3721              		.thumb_func
 3723              	lv_obj_refr_pos:
ARM GAS  C:\Users\ADMINI~1\AppData\Local\Temp\ccVA75Tx.s 			page 108


 3724              	.LVL364:
 3725              	.LFB191:
 627:Middlewares/LVGL/GUI/lvgl/src/core/lv_obj_pos.c ****     if(lv_obj_is_layout_positioned(obj)) return;
 3726              		.loc 1 627 1 is_stmt 1 view -0
 3727              		.cfi_startproc
 3728              		@ args = 0, pretend = 0, frame = 8
 3729              		@ frame_needed = 0, uses_anonymous_args = 0
 627:Middlewares/LVGL/GUI/lvgl/src/core/lv_obj_pos.c ****     if(lv_obj_is_layout_positioned(obj)) return;
 3730              		.loc 1 627 1 is_stmt 0 view .LVU1103
 3731 0000 2DE9F04F 		push	{r4, r5, r6, r7, r8, r9, r10, fp, lr}
 3732              	.LCFI59:
 3733              		.cfi_def_cfa_offset 36
 3734              		.cfi_offset 4, -36
 3735              		.cfi_offset 5, -32
 3736              		.cfi_offset 6, -28
 3737              		.cfi_offset 7, -24
 3738              		.cfi_offset 8, -20
 3739              		.cfi_offset 9, -16
 3740              		.cfi_offset 10, -12
 3741              		.cfi_offset 11, -8
 3742              		.cfi_offset 14, -4
 3743 0004 83B0     		sub	sp, sp, #12
 3744              	.LCFI60:
 3745              		.cfi_def_cfa_offset 48
 3746 0006 0446     		mov	r4, r0
 628:Middlewares/LVGL/GUI/lvgl/src/core/lv_obj_pos.c **** 
 3747              		.loc 1 628 5 is_stmt 1 view .LVU1104
 628:Middlewares/LVGL/GUI/lvgl/src/core/lv_obj_pos.c **** 
 3748              		.loc 1 628 8 is_stmt 0 view .LVU1105
 3749 0008 FFF7FEFF 		bl	lv_obj_is_layout_positioned
 3750              	.LVL365:
 628:Middlewares/LVGL/GUI/lvgl/src/core/lv_obj_pos.c **** 
 3751              		.loc 1 628 7 view .LVU1106
 3752 000c 10B1     		cbz	r0, .L201
 3753              	.L175:
 703:Middlewares/LVGL/GUI/lvgl/src/core/lv_obj_pos.c **** 
 3754              		.loc 1 703 1 view .LVU1107
 3755 000e 03B0     		add	sp, sp, #12
 3756              	.LCFI61:
 3757              		.cfi_remember_state
 3758              		.cfi_def_cfa_offset 36
 3759              		@ sp needed
 3760 0010 BDE8F08F 		pop	{r4, r5, r6, r7, r8, r9, r10, fp, pc}
 3761              	.LVL366:
 3762              	.L201:
 3763              	.LCFI62:
 3764              		.cfi_restore_state
 630:Middlewares/LVGL/GUI/lvgl/src/core/lv_obj_pos.c ****     lv_coord_t x = lv_obj_get_style_x(obj, LV_PART_MAIN);
 3765              		.loc 1 630 5 is_stmt 1 view .LVU1108
 630:Middlewares/LVGL/GUI/lvgl/src/core/lv_obj_pos.c ****     lv_coord_t x = lv_obj_get_style_x(obj, LV_PART_MAIN);
 3766              		.loc 1 630 25 is_stmt 0 view .LVU1109
 3767 0014 2046     		mov	r0, r4
 3768 0016 FFF7FEFF 		bl	lv_obj_get_parent
 3769              	.LVL367:
 3770 001a 0746     		mov	r7, r0
 3771              	.LVL368:
 631:Middlewares/LVGL/GUI/lvgl/src/core/lv_obj_pos.c ****     lv_coord_t y = lv_obj_get_style_y(obj, LV_PART_MAIN);
ARM GAS  C:\Users\ADMINI~1\AppData\Local\Temp\ccVA75Tx.s 			page 109


 3772              		.loc 1 631 5 is_stmt 1 view .LVU1110
 3773              	.LBB311:
 3774              	.LBI311:
  37:Middlewares/LVGL/GUI/lvgl/src/core/lv_obj_style_gen.h **** {
 3775              		.loc 2 37 26 view .LVU1111
 3776              	.LBB312:
  39:Middlewares/LVGL/GUI/lvgl/src/core/lv_obj_style_gen.h ****     return (lv_coord_t)v.num;
 3777              		.loc 2 39 5 view .LVU1112
  39:Middlewares/LVGL/GUI/lvgl/src/core/lv_obj_style_gen.h ****     return (lv_coord_t)v.num;
 3778              		.loc 2 39 26 is_stmt 0 view .LVU1113
 3779 001c 41F20702 		movw	r2, #4103
 3780 0020 0021     		movs	r1, #0
 3781 0022 2046     		mov	r0, r4
 3782              	.LVL369:
  39:Middlewares/LVGL/GUI/lvgl/src/core/lv_obj_style_gen.h ****     return (lv_coord_t)v.num;
 3783              		.loc 2 39 26 view .LVU1114
 3784 0024 FFF7FEFF 		bl	lv_obj_get_style_prop
 3785              	.LVL370:
 3786 0028 0546     		mov	r5, r0
  40:Middlewares/LVGL/GUI/lvgl/src/core/lv_obj_style_gen.h **** }
 3787              		.loc 2 40 5 is_stmt 1 view .LVU1115
 3788              	.LVL371:
  40:Middlewares/LVGL/GUI/lvgl/src/core/lv_obj_style_gen.h **** }
 3789              		.loc 2 40 5 is_stmt 0 view .LVU1116
 3790              	.LBE312:
 3791              	.LBE311:
 632:Middlewares/LVGL/GUI/lvgl/src/core/lv_obj_pos.c **** 
 3792              		.loc 1 632 5 is_stmt 1 view .LVU1117
 3793              	.LBB313:
 3794              	.LBI313:
  43:Middlewares/LVGL/GUI/lvgl/src/core/lv_obj_style_gen.h **** {
 3795              		.loc 2 43 26 view .LVU1118
 3796              	.LBB314:
  45:Middlewares/LVGL/GUI/lvgl/src/core/lv_obj_style_gen.h ****     return (lv_coord_t)v.num;
 3797              		.loc 2 45 5 view .LVU1119
  45:Middlewares/LVGL/GUI/lvgl/src/core/lv_obj_style_gen.h ****     return (lv_coord_t)v.num;
 3798              		.loc 2 45 26 is_stmt 0 view .LVU1120
 3799 002a 41F20802 		movw	r2, #4104
 3800 002e 0021     		movs	r1, #0
 3801 0030 2046     		mov	r0, r4
 3802              	.LVL372:
  45:Middlewares/LVGL/GUI/lvgl/src/core/lv_obj_style_gen.h ****     return (lv_coord_t)v.num;
 3803              		.loc 2 45 26 view .LVU1121
 3804 0032 FFF7FEFF 		bl	lv_obj_get_style_prop
 3805              	.LVL373:
 3806 0036 8046     		mov	r8, r0
  46:Middlewares/LVGL/GUI/lvgl/src/core/lv_obj_style_gen.h **** }
 3807              		.loc 2 46 5 is_stmt 1 view .LVU1122
 3808              	.LVL374:
  46:Middlewares/LVGL/GUI/lvgl/src/core/lv_obj_style_gen.h **** }
 3809              		.loc 2 46 5 is_stmt 0 view .LVU1123
 3810              	.LBE314:
 3811              	.LBE313:
 634:Middlewares/LVGL/GUI/lvgl/src/core/lv_obj_pos.c ****         lv_obj_move_to(obj, x, y);
 3812              		.loc 1 634 5 is_stmt 1 view .LVU1124
 634:Middlewares/LVGL/GUI/lvgl/src/core/lv_obj_pos.c ****         lv_obj_move_to(obj, x, y);
 3813              		.loc 1 634 7 is_stmt 0 view .LVU1125
ARM GAS  C:\Users\ADMINI~1\AppData\Local\Temp\ccVA75Tx.s 			page 110


 3814 0038 002F     		cmp	r7, #0
 3815 003a 47D0     		beq	.L202
 640:Middlewares/LVGL/GUI/lvgl/src/core/lv_obj_pos.c ****     lv_coord_t ph = lv_obj_get_content_height(parent);
 3816              		.loc 1 640 5 is_stmt 1 view .LVU1126
 640:Middlewares/LVGL/GUI/lvgl/src/core/lv_obj_pos.c ****     lv_coord_t ph = lv_obj_get_content_height(parent);
 3817              		.loc 1 640 21 is_stmt 0 view .LVU1127
 3818 003c 3846     		mov	r0, r7
 3819              	.LVL375:
 640:Middlewares/LVGL/GUI/lvgl/src/core/lv_obj_pos.c ****     lv_coord_t ph = lv_obj_get_content_height(parent);
 3820              		.loc 1 640 21 view .LVU1128
 3821 003e FFF7FEFF 		bl	lv_obj_get_content_width
 3822              	.LVL376:
 3823 0042 8346     		mov	fp, r0
 3824              	.LVL377:
 641:Middlewares/LVGL/GUI/lvgl/src/core/lv_obj_pos.c ****     if(LV_COORD_IS_PCT(x)) x = (pw * LV_COORD_GET_PCT(x)) / 100;
 3825              		.loc 1 641 5 is_stmt 1 view .LVU1129
 641:Middlewares/LVGL/GUI/lvgl/src/core/lv_obj_pos.c ****     if(LV_COORD_IS_PCT(x)) x = (pw * LV_COORD_GET_PCT(x)) / 100;
 3826              		.loc 1 641 21 is_stmt 0 view .LVU1130
 3827 0044 3846     		mov	r0, r7
 3828              	.LVL378:
 641:Middlewares/LVGL/GUI/lvgl/src/core/lv_obj_pos.c ****     if(LV_COORD_IS_PCT(x)) x = (pw * LV_COORD_GET_PCT(x)) / 100;
 3829              		.loc 1 641 21 view .LVU1131
 3830 0046 FFF7FEFF 		bl	lv_obj_get_content_height
 3831              	.LVL379:
 3832 004a 0090     		str	r0, [sp]
 3833              	.LVL380:
 642:Middlewares/LVGL/GUI/lvgl/src/core/lv_obj_pos.c ****     if(LV_COORD_IS_PCT(y)) y = (ph * LV_COORD_GET_PCT(y)) / 100;
 3834              		.loc 1 642 5 is_stmt 1 view .LVU1132
 642:Middlewares/LVGL/GUI/lvgl/src/core/lv_obj_pos.c ****     if(LV_COORD_IS_PCT(y)) y = (ph * LV_COORD_GET_PCT(y)) / 100;
 3835              		.loc 1 642 8 is_stmt 0 view .LVU1133
 3836 004c 05F0C043 		and	r3, r5, #1610612736
 642:Middlewares/LVGL/GUI/lvgl/src/core/lv_obj_pos.c ****     if(LV_COORD_IS_PCT(y)) y = (ph * LV_COORD_GET_PCT(y)) / 100;
 3837              		.loc 1 642 7 view .LVU1134
 3838 0050 B3F1005F 		cmp	r3, #536870912
 3839 0054 40D0     		beq	.L203
 3840              	.L178:
 643:Middlewares/LVGL/GUI/lvgl/src/core/lv_obj_pos.c **** 
 3841              		.loc 1 643 5 is_stmt 1 view .LVU1135
 643:Middlewares/LVGL/GUI/lvgl/src/core/lv_obj_pos.c **** 
 3842              		.loc 1 643 8 is_stmt 0 view .LVU1136
 3843 0056 08F0C043 		and	r3, r8, #1610612736
 643:Middlewares/LVGL/GUI/lvgl/src/core/lv_obj_pos.c **** 
 3844              		.loc 1 643 7 view .LVU1137
 3845 005a B3F1005F 		cmp	r3, #536870912
 3846 005e 4ED0     		beq	.L204
 3847              	.LVL381:
 3848              	.L180:
 646:Middlewares/LVGL/GUI/lvgl/src/core/lv_obj_pos.c ****     lv_coord_t tr_y = lv_obj_get_style_translate_y(obj, LV_PART_MAIN);
 3849              		.loc 1 646 5 is_stmt 1 view .LVU1138
 3850              	.LBB315:
 3851              	.LBI315:
  67:Middlewares/LVGL/GUI/lvgl/src/core/lv_obj_style_gen.h **** {
 3852              		.loc 2 67 26 view .LVU1139
 3853              	.LBB316:
  69:Middlewares/LVGL/GUI/lvgl/src/core/lv_obj_style_gen.h ****     return (lv_coord_t)v.num;
 3854              		.loc 2 69 5 view .LVU1140
  69:Middlewares/LVGL/GUI/lvgl/src/core/lv_obj_style_gen.h ****     return (lv_coord_t)v.num;
ARM GAS  C:\Users\ADMINI~1\AppData\Local\Temp\ccVA75Tx.s 			page 111


 3855              		.loc 2 69 26 is_stmt 0 view .LVU1141
 3856 0060 43F20C02 		movw	r2, #12300
 3857 0064 0021     		movs	r1, #0
 3858 0066 2046     		mov	r0, r4
 3859 0068 FFF7FEFF 		bl	lv_obj_get_style_prop
 3860              	.LVL382:
 3861 006c 8146     		mov	r9, r0
  70:Middlewares/LVGL/GUI/lvgl/src/core/lv_obj_style_gen.h **** }
 3862              		.loc 2 70 5 is_stmt 1 view .LVU1142
 3863              	.LVL383:
  70:Middlewares/LVGL/GUI/lvgl/src/core/lv_obj_style_gen.h **** }
 3864              		.loc 2 70 5 is_stmt 0 view .LVU1143
 3865              	.LBE316:
 3866              	.LBE315:
 647:Middlewares/LVGL/GUI/lvgl/src/core/lv_obj_pos.c ****     lv_coord_t w = lv_obj_get_width(obj);
 3867              		.loc 1 647 5 is_stmt 1 view .LVU1144
 3868              	.LBB317:
 3869              	.LBI317:
  73:Middlewares/LVGL/GUI/lvgl/src/core/lv_obj_style_gen.h **** {
 3870              		.loc 2 73 26 view .LVU1145
 3871              	.LBB318:
  75:Middlewares/LVGL/GUI/lvgl/src/core/lv_obj_style_gen.h ****     return (lv_coord_t)v.num;
 3872              		.loc 2 75 5 view .LVU1146
  75:Middlewares/LVGL/GUI/lvgl/src/core/lv_obj_style_gen.h ****     return (lv_coord_t)v.num;
 3873              		.loc 2 75 26 is_stmt 0 view .LVU1147
 3874 006e 43F20D02 		movw	r2, #12301
 3875 0072 0021     		movs	r1, #0
 3876 0074 2046     		mov	r0, r4
 3877              	.LVL384:
  75:Middlewares/LVGL/GUI/lvgl/src/core/lv_obj_style_gen.h ****     return (lv_coord_t)v.num;
 3878              		.loc 2 75 26 view .LVU1148
 3879 0076 FFF7FEFF 		bl	lv_obj_get_style_prop
 3880              	.LVL385:
 3881 007a 0646     		mov	r6, r0
  76:Middlewares/LVGL/GUI/lvgl/src/core/lv_obj_style_gen.h **** }
 3882              		.loc 2 76 5 is_stmt 1 view .LVU1149
 3883              	.LVL386:
  76:Middlewares/LVGL/GUI/lvgl/src/core/lv_obj_style_gen.h **** }
 3884              		.loc 2 76 5 is_stmt 0 view .LVU1150
 3885              	.LBE318:
 3886              	.LBE317:
 648:Middlewares/LVGL/GUI/lvgl/src/core/lv_obj_pos.c ****     lv_coord_t h = lv_obj_get_height(obj);
 3887              		.loc 1 648 5 is_stmt 1 view .LVU1151
 648:Middlewares/LVGL/GUI/lvgl/src/core/lv_obj_pos.c ****     lv_coord_t h = lv_obj_get_height(obj);
 3888              		.loc 1 648 20 is_stmt 0 view .LVU1152
 3889 007c 2046     		mov	r0, r4
 3890              	.LVL387:
 648:Middlewares/LVGL/GUI/lvgl/src/core/lv_obj_pos.c ****     lv_coord_t h = lv_obj_get_height(obj);
 3891              		.loc 1 648 20 view .LVU1153
 3892 007e FFF7FEFF 		bl	lv_obj_get_width
 3893              	.LVL388:
 3894 0082 8246     		mov	r10, r0
 3895              	.LVL389:
 649:Middlewares/LVGL/GUI/lvgl/src/core/lv_obj_pos.c ****     if(LV_COORD_IS_PCT(tr_x)) tr_x = (w * LV_COORD_GET_PCT(tr_x)) / 100;
 3896              		.loc 1 649 5 is_stmt 1 view .LVU1154
 649:Middlewares/LVGL/GUI/lvgl/src/core/lv_obj_pos.c ****     if(LV_COORD_IS_PCT(tr_x)) tr_x = (w * LV_COORD_GET_PCT(tr_x)) / 100;
 3897              		.loc 1 649 20 is_stmt 0 view .LVU1155
ARM GAS  C:\Users\ADMINI~1\AppData\Local\Temp\ccVA75Tx.s 			page 112


 3898 0084 2046     		mov	r0, r4
 3899              	.LVL390:
 649:Middlewares/LVGL/GUI/lvgl/src/core/lv_obj_pos.c ****     if(LV_COORD_IS_PCT(tr_x)) tr_x = (w * LV_COORD_GET_PCT(tr_x)) / 100;
 3900              		.loc 1 649 20 view .LVU1156
 3901 0086 FFF7FEFF 		bl	lv_obj_get_height
 3902              	.LVL391:
 3903 008a 0190     		str	r0, [sp, #4]
 3904              	.LVL392:
 650:Middlewares/LVGL/GUI/lvgl/src/core/lv_obj_pos.c ****     if(LV_COORD_IS_PCT(tr_y)) tr_y = (h * LV_COORD_GET_PCT(tr_y)) / 100;
 3905              		.loc 1 650 5 is_stmt 1 view .LVU1157
 650:Middlewares/LVGL/GUI/lvgl/src/core/lv_obj_pos.c ****     if(LV_COORD_IS_PCT(tr_y)) tr_y = (h * LV_COORD_GET_PCT(tr_y)) / 100;
 3906              		.loc 1 650 8 is_stmt 0 view .LVU1158
 3907 008c 09F0C043 		and	r3, r9, #1610612736
 650:Middlewares/LVGL/GUI/lvgl/src/core/lv_obj_pos.c ****     if(LV_COORD_IS_PCT(tr_y)) tr_y = (h * LV_COORD_GET_PCT(tr_y)) / 100;
 3908              		.loc 1 650 7 view .LVU1159
 3909 0090 B3F1005F 		cmp	r3, #536870912
 3910 0094 47D0     		beq	.L205
 3911              	.LVL393:
 3912              	.L182:
 651:Middlewares/LVGL/GUI/lvgl/src/core/lv_obj_pos.c **** 
 3913              		.loc 1 651 5 is_stmt 1 view .LVU1160
 651:Middlewares/LVGL/GUI/lvgl/src/core/lv_obj_pos.c **** 
 3914              		.loc 1 651 8 is_stmt 0 view .LVU1161
 3915 0096 06F0C043 		and	r3, r6, #1610612736
 651:Middlewares/LVGL/GUI/lvgl/src/core/lv_obj_pos.c **** 
 3916              		.loc 1 651 7 view .LVU1162
 3917 009a B3F1005F 		cmp	r3, #536870912
 3918 009e 55D0     		beq	.L206
 3919              	.L184:
 654:Middlewares/LVGL/GUI/lvgl/src/core/lv_obj_pos.c ****     y += tr_y;
 3920              		.loc 1 654 5 is_stmt 1 view .LVU1163
 654:Middlewares/LVGL/GUI/lvgl/src/core/lv_obj_pos.c ****     y += tr_y;
 3921              		.loc 1 654 7 is_stmt 0 view .LVU1164
 3922 00a0 4D44     		add	r5, r5, r9
 3923              	.LVL394:
 655:Middlewares/LVGL/GUI/lvgl/src/core/lv_obj_pos.c **** 
 3924              		.loc 1 655 5 is_stmt 1 view .LVU1165
 655:Middlewares/LVGL/GUI/lvgl/src/core/lv_obj_pos.c **** 
 3925              		.loc 1 655 7 is_stmt 0 view .LVU1166
 3926 00a2 4644     		add	r6, r6, r8
 3927              	.LVL395:
 657:Middlewares/LVGL/GUI/lvgl/src/core/lv_obj_pos.c **** 
 3928              		.loc 1 657 5 is_stmt 1 view .LVU1167
 3929              	.LBB319:
 3930              	.LBI319:
  49:Middlewares/LVGL/GUI/lvgl/src/core/lv_obj_style_gen.h **** {
 3931              		.loc 2 49 26 view .LVU1168
 3932              	.LBB320:
  51:Middlewares/LVGL/GUI/lvgl/src/core/lv_obj_style_gen.h ****     return (lv_align_t)v.num;
 3933              		.loc 2 51 5 view .LVU1169
  51:Middlewares/LVGL/GUI/lvgl/src/core/lv_obj_style_gen.h ****     return (lv_align_t)v.num;
 3934              		.loc 2 51 26 is_stmt 0 view .LVU1170
 3935 00a4 41F20902 		movw	r2, #4105
 3936 00a8 0021     		movs	r1, #0
 3937 00aa 2046     		mov	r0, r4
 3938 00ac FFF7FEFF 		bl	lv_obj_get_style_prop
 3939              	.LVL396:
ARM GAS  C:\Users\ADMINI~1\AppData\Local\Temp\ccVA75Tx.s 			page 113


  52:Middlewares/LVGL/GUI/lvgl/src/core/lv_obj_style_gen.h **** }
 3940              		.loc 2 52 5 is_stmt 1 view .LVU1171
  52:Middlewares/LVGL/GUI/lvgl/src/core/lv_obj_style_gen.h **** }
 3941              		.loc 2 52 5 is_stmt 0 view .LVU1172
 3942              	.LBE320:
 3943              	.LBE319:
 659:Middlewares/LVGL/GUI/lvgl/src/core/lv_obj_pos.c ****         if(lv_obj_get_style_base_dir(parent, LV_PART_MAIN) == LV_BASE_DIR_RTL) align = LV_ALIGN_TOP
 3944              		.loc 1 659 5 is_stmt 1 view .LVU1173
 659:Middlewares/LVGL/GUI/lvgl/src/core/lv_obj_pos.c ****         if(lv_obj_get_style_base_dir(parent, LV_PART_MAIN) == LV_BASE_DIR_RTL) align = LV_ALIGN_TOP
 3945              		.loc 1 659 7 is_stmt 0 view .LVU1174
 3946 00b0 10F0FF00 		ands	r0, r0, #255
 3947              	.LVL397:
 659:Middlewares/LVGL/GUI/lvgl/src/core/lv_obj_pos.c ****         if(lv_obj_get_style_base_dir(parent, LV_PART_MAIN) == LV_BASE_DIR_RTL) align = LV_ALIGN_TOP
 3948              		.loc 1 659 7 view .LVU1175
 3949 00b4 5ED0     		beq	.L207
 3950              	.LVL398:
 664:Middlewares/LVGL/GUI/lvgl/src/core/lv_obj_pos.c ****         lv_obj_move_to(obj, x, y);
 3951              		.loc 1 664 5 is_stmt 1 view .LVU1176
 664:Middlewares/LVGL/GUI/lvgl/src/core/lv_obj_pos.c ****         lv_obj_move_to(obj, x, y);
 3952              		.loc 1 664 7 is_stmt 0 view .LVU1177
 3953 00b6 0128     		cmp	r0, #1
 3954 00b8 65D0     		beq	.L188
 3955              	.LVL399:
 3956              	.L187:
 669:Middlewares/LVGL/GUI/lvgl/src/core/lv_obj_pos.c ****             case LV_ALIGN_TOP_MID:
 3957              		.loc 1 669 9 is_stmt 1 view .LVU1178
 3958 00ba 0238     		subs	r0, r0, #2
 3959 00bc 0728     		cmp	r0, #7
 3960 00be 73D8     		bhi	.L189
 3961 00c0 DFE800F0 		tbb	[pc, r0]
 3962              	.L191:
 3963 00c4 69       		.byte	(.L198-.L191)/2
 3964 00c5 78       		.byte	(.L197-.L191)/2
 3965 00c6 87       		.byte	(.L196-.L191)/2
 3966 00c7 8C       		.byte	(.L195-.L191)/2
 3967 00c8 9A       		.byte	(.L194-.L191)/2
 3968 00c9 7C       		.byte	(.L193-.L191)/2
 3969 00ca A2       		.byte	(.L192-.L191)/2
 3970 00cb B0       		.byte	(.L190-.L191)/2
 3971              	.LVL400:
 3972              		.p2align 1
 3973              	.L202:
 635:Middlewares/LVGL/GUI/lvgl/src/core/lv_obj_pos.c ****         return;
 3974              		.loc 1 635 9 view .LVU1179
 3975 00cc 0246     		mov	r2, r0
 3976 00ce 2946     		mov	r1, r5
 3977 00d0 2046     		mov	r0, r4
 3978              	.LVL401:
 635:Middlewares/LVGL/GUI/lvgl/src/core/lv_obj_pos.c ****         return;
 3979              		.loc 1 635 9 is_stmt 0 view .LVU1180
 3980 00d2 FFF7FEFF 		bl	lv_obj_move_to
 3981              	.LVL402:
 636:Middlewares/LVGL/GUI/lvgl/src/core/lv_obj_pos.c ****     }
 3982              		.loc 1 636 9 is_stmt 1 view .LVU1181
 3983 00d6 9AE7     		b	.L175
 3984              	.LVL403:
 3985              	.L203:
ARM GAS  C:\Users\ADMINI~1\AppData\Local\Temp\ccVA75Tx.s 			page 114


 642:Middlewares/LVGL/GUI/lvgl/src/core/lv_obj_pos.c ****     if(LV_COORD_IS_PCT(y)) y = (ph * LV_COORD_GET_PCT(y)) / 100;
 3986              		.loc 1 642 8 is_stmt 0 discriminator 1 view .LVU1182
 3987 00d8 25F0C043 		bic	r3, r5, #1610612736
 3988 00dc B3F5FA6F 		cmp	r3, #2000
 3989 00e0 B9DC     		bgt	.L178
 642:Middlewares/LVGL/GUI/lvgl/src/core/lv_obj_pos.c ****     if(LV_COORD_IS_PCT(y)) y = (ph * LV_COORD_GET_PCT(y)) / 100;
 3990              		.loc 1 642 28 is_stmt 1 discriminator 2 view .LVU1183
 642:Middlewares/LVGL/GUI/lvgl/src/core/lv_obj_pos.c ****     if(LV_COORD_IS_PCT(y)) y = (ph * LV_COORD_GET_PCT(y)) / 100;
 3991              		.loc 1 642 38 is_stmt 0 discriminator 2 view .LVU1184
 3992 00e2 B3F57A7F 		cmp	r3, #1000
 3993 00e6 01DD     		ble	.L179
 642:Middlewares/LVGL/GUI/lvgl/src/core/lv_obj_pos.c ****     if(LV_COORD_IS_PCT(y)) y = (ph * LV_COORD_GET_PCT(y)) / 100;
 3994              		.loc 1 642 38 discriminator 3 view .LVU1185
 3995 00e8 C3F57A73 		rsb	r3, r3, #1000
 3996              	.L179:
 642:Middlewares/LVGL/GUI/lvgl/src/core/lv_obj_pos.c ****     if(LV_COORD_IS_PCT(y)) y = (ph * LV_COORD_GET_PCT(y)) / 100;
 3997              		.loc 1 642 36 discriminator 6 view .LVU1186
 3998 00ec 0BFB03F3 		mul	r3, fp, r3
 642:Middlewares/LVGL/GUI/lvgl/src/core/lv_obj_pos.c ****     if(LV_COORD_IS_PCT(y)) y = (ph * LV_COORD_GET_PCT(y)) / 100;
 3999              		.loc 1 642 30 discriminator 6 view .LVU1187
 4000 00f0 564D     		ldr	r5, .L209
 4001              	.LVL404:
 642:Middlewares/LVGL/GUI/lvgl/src/core/lv_obj_pos.c ****     if(LV_COORD_IS_PCT(y)) y = (ph * LV_COORD_GET_PCT(y)) / 100;
 4002              		.loc 1 642 30 discriminator 6 view .LVU1188
 4003 00f2 85FB0325 		smull	r2, r5, r5, r3
 4004 00f6 DB17     		asrs	r3, r3, #31
 4005 00f8 C3EB6515 		rsb	r5, r3, r5, asr #5
 4006              	.LVL405:
 642:Middlewares/LVGL/GUI/lvgl/src/core/lv_obj_pos.c ****     if(LV_COORD_IS_PCT(y)) y = (ph * LV_COORD_GET_PCT(y)) / 100;
 4007              		.loc 1 642 30 discriminator 6 view .LVU1189
 4008 00fc ABE7     		b	.L178
 4009              	.L204:
 643:Middlewares/LVGL/GUI/lvgl/src/core/lv_obj_pos.c **** 
 4010              		.loc 1 643 8 discriminator 1 view .LVU1190
 4011 00fe 28F0C043 		bic	r3, r8, #1610612736
 4012 0102 B3F5FA6F 		cmp	r3, #2000
 4013 0106 ABDC     		bgt	.L180
 643:Middlewares/LVGL/GUI/lvgl/src/core/lv_obj_pos.c **** 
 4014              		.loc 1 643 28 is_stmt 1 discriminator 2 view .LVU1191
 643:Middlewares/LVGL/GUI/lvgl/src/core/lv_obj_pos.c **** 
 4015              		.loc 1 643 38 is_stmt 0 discriminator 2 view .LVU1192
 4016 0108 B3F57A7F 		cmp	r3, #1000
 4017 010c 01DD     		ble	.L181
 643:Middlewares/LVGL/GUI/lvgl/src/core/lv_obj_pos.c **** 
 4018              		.loc 1 643 38 discriminator 3 view .LVU1193
 4019 010e C3F57A73 		rsb	r3, r3, #1000
 4020              	.L181:
 643:Middlewares/LVGL/GUI/lvgl/src/core/lv_obj_pos.c **** 
 4021              		.loc 1 643 36 discriminator 6 view .LVU1194
 4022 0112 009A     		ldr	r2, [sp]
 4023 0114 02FB03F3 		mul	r3, r2, r3
 643:Middlewares/LVGL/GUI/lvgl/src/core/lv_obj_pos.c **** 
 4024              		.loc 1 643 30 discriminator 6 view .LVU1195
 4025 0118 4C48     		ldr	r0, .L209
 4026              	.LVL406:
 643:Middlewares/LVGL/GUI/lvgl/src/core/lv_obj_pos.c **** 
 4027              		.loc 1 643 30 discriminator 6 view .LVU1196
ARM GAS  C:\Users\ADMINI~1\AppData\Local\Temp\ccVA75Tx.s 			page 115


 4028 011a 80FB0328 		smull	r2, r8, r0, r3
 4029              	.LVL407:
 643:Middlewares/LVGL/GUI/lvgl/src/core/lv_obj_pos.c **** 
 4030              		.loc 1 643 30 discriminator 6 view .LVU1197
 4031 011e DB17     		asrs	r3, r3, #31
 4032 0120 C3EB6818 		rsb	r8, r3, r8, asr #5
 4033              	.LVL408:
 643:Middlewares/LVGL/GUI/lvgl/src/core/lv_obj_pos.c **** 
 4034              		.loc 1 643 30 discriminator 6 view .LVU1198
 4035 0124 9CE7     		b	.L180
 4036              	.LVL409:
 4037              	.L205:
 650:Middlewares/LVGL/GUI/lvgl/src/core/lv_obj_pos.c ****     if(LV_COORD_IS_PCT(tr_y)) tr_y = (h * LV_COORD_GET_PCT(tr_y)) / 100;
 4038              		.loc 1 650 8 discriminator 1 view .LVU1199
 4039 0126 29F0C043 		bic	r3, r9, #1610612736
 4040 012a B3F5FA6F 		cmp	r3, #2000
 4041 012e B2DC     		bgt	.L182
 650:Middlewares/LVGL/GUI/lvgl/src/core/lv_obj_pos.c ****     if(LV_COORD_IS_PCT(tr_y)) tr_y = (h * LV_COORD_GET_PCT(tr_y)) / 100;
 4042              		.loc 1 650 31 is_stmt 1 discriminator 2 view .LVU1200
 650:Middlewares/LVGL/GUI/lvgl/src/core/lv_obj_pos.c ****     if(LV_COORD_IS_PCT(tr_y)) tr_y = (h * LV_COORD_GET_PCT(tr_y)) / 100;
 4043              		.loc 1 650 43 is_stmt 0 discriminator 2 view .LVU1201
 4044 0130 B3F57A7F 		cmp	r3, #1000
 4045 0134 01DD     		ble	.L183
 650:Middlewares/LVGL/GUI/lvgl/src/core/lv_obj_pos.c ****     if(LV_COORD_IS_PCT(tr_y)) tr_y = (h * LV_COORD_GET_PCT(tr_y)) / 100;
 4046              		.loc 1 650 43 discriminator 3 view .LVU1202
 4047 0136 C3F57A73 		rsb	r3, r3, #1000
 4048              	.L183:
 650:Middlewares/LVGL/GUI/lvgl/src/core/lv_obj_pos.c ****     if(LV_COORD_IS_PCT(tr_y)) tr_y = (h * LV_COORD_GET_PCT(tr_y)) / 100;
 4049              		.loc 1 650 41 discriminator 6 view .LVU1203
 4050 013a 0AFB03F3 		mul	r3, r10, r3
 650:Middlewares/LVGL/GUI/lvgl/src/core/lv_obj_pos.c ****     if(LV_COORD_IS_PCT(tr_y)) tr_y = (h * LV_COORD_GET_PCT(tr_y)) / 100;
 4051              		.loc 1 650 36 discriminator 6 view .LVU1204
 4052 013e 4348     		ldr	r0, .L209
 4053              	.LVL410:
 650:Middlewares/LVGL/GUI/lvgl/src/core/lv_obj_pos.c ****     if(LV_COORD_IS_PCT(tr_y)) tr_y = (h * LV_COORD_GET_PCT(tr_y)) / 100;
 4054              		.loc 1 650 36 discriminator 6 view .LVU1205
 4055 0140 80FB0329 		smull	r2, r9, r0, r3
 4056              	.LVL411:
 650:Middlewares/LVGL/GUI/lvgl/src/core/lv_obj_pos.c ****     if(LV_COORD_IS_PCT(tr_y)) tr_y = (h * LV_COORD_GET_PCT(tr_y)) / 100;
 4057              		.loc 1 650 36 discriminator 6 view .LVU1206
 4058 0144 DB17     		asrs	r3, r3, #31
 4059 0146 C3EB6919 		rsb	r9, r3, r9, asr #5
 4060              	.LVL412:
 650:Middlewares/LVGL/GUI/lvgl/src/core/lv_obj_pos.c ****     if(LV_COORD_IS_PCT(tr_y)) tr_y = (h * LV_COORD_GET_PCT(tr_y)) / 100;
 4061              		.loc 1 650 36 discriminator 6 view .LVU1207
 4062 014a A4E7     		b	.L182
 4063              	.L206:
 651:Middlewares/LVGL/GUI/lvgl/src/core/lv_obj_pos.c **** 
 4064              		.loc 1 651 8 discriminator 1 view .LVU1208
 4065 014c 26F0C043 		bic	r3, r6, #1610612736
 4066 0150 B3F5FA6F 		cmp	r3, #2000
 4067 0154 A4DC     		bgt	.L184
 651:Middlewares/LVGL/GUI/lvgl/src/core/lv_obj_pos.c **** 
 4068              		.loc 1 651 31 is_stmt 1 discriminator 2 view .LVU1209
 651:Middlewares/LVGL/GUI/lvgl/src/core/lv_obj_pos.c **** 
 4069              		.loc 1 651 43 is_stmt 0 discriminator 2 view .LVU1210
 4070 0156 B3F57A7F 		cmp	r3, #1000
ARM GAS  C:\Users\ADMINI~1\AppData\Local\Temp\ccVA75Tx.s 			page 116


 4071 015a 01DD     		ble	.L185
 651:Middlewares/LVGL/GUI/lvgl/src/core/lv_obj_pos.c **** 
 4072              		.loc 1 651 43 discriminator 3 view .LVU1211
 4073 015c C3F57A73 		rsb	r3, r3, #1000
 4074              	.L185:
 651:Middlewares/LVGL/GUI/lvgl/src/core/lv_obj_pos.c **** 
 4075              		.loc 1 651 41 discriminator 6 view .LVU1212
 4076 0160 019A     		ldr	r2, [sp, #4]
 4077 0162 02FB03F3 		mul	r3, r2, r3
 651:Middlewares/LVGL/GUI/lvgl/src/core/lv_obj_pos.c **** 
 4078              		.loc 1 651 36 discriminator 6 view .LVU1213
 4079 0166 394E     		ldr	r6, .L209
 4080              	.LVL413:
 651:Middlewares/LVGL/GUI/lvgl/src/core/lv_obj_pos.c **** 
 4081              		.loc 1 651 36 discriminator 6 view .LVU1214
 4082 0168 86FB0326 		smull	r2, r6, r6, r3
 4083 016c DB17     		asrs	r3, r3, #31
 4084 016e C3EB6616 		rsb	r6, r3, r6, asr #5
 4085              	.LVL414:
 651:Middlewares/LVGL/GUI/lvgl/src/core/lv_obj_pos.c **** 
 4086              		.loc 1 651 36 discriminator 6 view .LVU1215
 4087 0172 95E7     		b	.L184
 4088              	.LVL415:
 4089              	.L207:
 660:Middlewares/LVGL/GUI/lvgl/src/core/lv_obj_pos.c ****         else align = LV_ALIGN_TOP_LEFT;
 4090              		.loc 1 660 9 is_stmt 1 view .LVU1216
 4091              	.LBB321:
 4092              	.LBI321:
 542:Middlewares/LVGL/GUI/lvgl/src/core/lv_obj_style_gen.h **** {
 4093              		.loc 2 542 29 view .LVU1217
 4094              	.LBB322:
 544:Middlewares/LVGL/GUI/lvgl/src/core/lv_obj_style_gen.h ****     return (lv_base_dir_t)v.num;
 4095              		.loc 2 544 5 view .LVU1218
 544:Middlewares/LVGL/GUI/lvgl/src/core/lv_obj_style_gen.h ****     return (lv_base_dir_t)v.num;
 4096              		.loc 2 544 26 is_stmt 0 view .LVU1219
 4097 0174 41F26A42 		movw	r2, #5226
 4098 0178 0021     		movs	r1, #0
 4099 017a 3846     		mov	r0, r7
 4100 017c FFF7FEFF 		bl	lv_obj_get_style_prop
 4101              	.LVL416:
 4102              		.loc 2 545 5 is_stmt 1 view .LVU1220
 4103              		.loc 2 545 12 is_stmt 0 view .LVU1221
 4104 0180 C0B2     		uxtb	r0, r0
 4105              	.LVL417:
 4106              		.loc 2 545 12 view .LVU1222
 4107              	.LBE322:
 4108              	.LBE321:
 660:Middlewares/LVGL/GUI/lvgl/src/core/lv_obj_pos.c ****         else align = LV_ALIGN_TOP_LEFT;
 4109              		.loc 1 660 11 view .LVU1223
 4110 0182 0128     		cmp	r0, #1
 4111 0184 05D0     		beq	.L208
 4112              	.L188:
 665:Middlewares/LVGL/GUI/lvgl/src/core/lv_obj_pos.c ****     }
 4113              		.loc 1 665 9 is_stmt 1 view .LVU1224
 4114 0186 3246     		mov	r2, r6
 4115 0188 2946     		mov	r1, r5
 4116 018a 2046     		mov	r0, r4
ARM GAS  C:\Users\ADMINI~1\AppData\Local\Temp\ccVA75Tx.s 			page 117


 4117 018c FFF7FEFF 		bl	lv_obj_move_to
 4118              	.LVL418:
 4119 0190 3DE7     		b	.L175
 4120              	.L208:
 660:Middlewares/LVGL/GUI/lvgl/src/core/lv_obj_pos.c ****         else align = LV_ALIGN_TOP_LEFT;
 4121              		.loc 1 660 86 is_stmt 0 view .LVU1225
 4122 0192 0320     		movs	r0, #3
 4123 0194 91E7     		b	.L187
 4124              	.L198:
 671:Middlewares/LVGL/GUI/lvgl/src/core/lv_obj_pos.c ****                 break;
 4125              		.loc 1 671 17 is_stmt 1 view .LVU1226
 671:Middlewares/LVGL/GUI/lvgl/src/core/lv_obj_pos.c ****                 break;
 4126              		.loc 1 671 25 is_stmt 0 view .LVU1227
 4127 0196 0BEBDB7B 		add	fp, fp, fp, lsr #31
 4128              	.LVL419:
 671:Middlewares/LVGL/GUI/lvgl/src/core/lv_obj_pos.c ****                 break;
 4129              		.loc 1 671 33 view .LVU1228
 4130 019a 0AEBDA7A 		add	r10, r10, r10, lsr #31
 4131              	.LVL420:
 671:Middlewares/LVGL/GUI/lvgl/src/core/lv_obj_pos.c ****                 break;
 4132              		.loc 1 671 33 view .LVU1229
 4133 019e 4FEA6A0A 		asr	r10, r10, #1
 671:Middlewares/LVGL/GUI/lvgl/src/core/lv_obj_pos.c ****                 break;
 4134              		.loc 1 671 29 view .LVU1230
 4135 01a2 CAEB6B0B 		rsb	fp, r10, fp, asr #1
 671:Middlewares/LVGL/GUI/lvgl/src/core/lv_obj_pos.c ****                 break;
 4136              		.loc 1 671 19 view .LVU1231
 4137 01a6 5D44     		add	r5, r5, fp
 4138              	.LVL421:
 672:Middlewares/LVGL/GUI/lvgl/src/core/lv_obj_pos.c ****             case LV_ALIGN_TOP_RIGHT:
 4139              		.loc 1 672 17 is_stmt 1 view .LVU1232
 4140              	.L189:
 701:Middlewares/LVGL/GUI/lvgl/src/core/lv_obj_pos.c ****     }
 4141              		.loc 1 701 9 view .LVU1233
 4142 01a8 3246     		mov	r2, r6
 4143 01aa 2946     		mov	r1, r5
 4144 01ac 2046     		mov	r0, r4
 4145 01ae FFF7FEFF 		bl	lv_obj_move_to
 4146              	.LVL422:
 4147 01b2 2CE7     		b	.L175
 4148              	.LVL423:
 4149              	.L197:
 674:Middlewares/LVGL/GUI/lvgl/src/core/lv_obj_pos.c ****                 break;
 4150              		.loc 1 674 17 view .LVU1234
 674:Middlewares/LVGL/GUI/lvgl/src/core/lv_obj_pos.c ****                 break;
 4151              		.loc 1 674 25 is_stmt 0 view .LVU1235
 4152 01b4 ABEB0A0A 		sub	r10, fp, r10
 4153              	.LVL424:
 674:Middlewares/LVGL/GUI/lvgl/src/core/lv_obj_pos.c ****                 break;
 4154              		.loc 1 674 19 view .LVU1236
 4155 01b8 5544     		add	r5, r5, r10
 4156              	.LVL425:
 675:Middlewares/LVGL/GUI/lvgl/src/core/lv_obj_pos.c ****             case LV_ALIGN_LEFT_MID:
 4157              		.loc 1 675 17 is_stmt 1 view .LVU1237
 4158 01ba F5E7     		b	.L189
 4159              	.LVL426:
 4160              	.L193:
ARM GAS  C:\Users\ADMINI~1\AppData\Local\Temp\ccVA75Tx.s 			page 118


 677:Middlewares/LVGL/GUI/lvgl/src/core/lv_obj_pos.c ****                 break;
 4161              		.loc 1 677 17 view .LVU1238
 677:Middlewares/LVGL/GUI/lvgl/src/core/lv_obj_pos.c ****                 break;
 4162              		.loc 1 677 25 is_stmt 0 view .LVU1239
 4163 01bc 009B     		ldr	r3, [sp]
 4164 01be 03EBD370 		add	r0, r3, r3, lsr #31
 677:Middlewares/LVGL/GUI/lvgl/src/core/lv_obj_pos.c ****                 break;
 4165              		.loc 1 677 33 view .LVU1240
 4166 01c2 019B     		ldr	r3, [sp, #4]
 4167 01c4 03EBD373 		add	r3, r3, r3, lsr #31
 4168 01c8 5B10     		asrs	r3, r3, #1
 677:Middlewares/LVGL/GUI/lvgl/src/core/lv_obj_pos.c ****                 break;
 4169              		.loc 1 677 29 view .LVU1241
 4170 01ca C3EB6003 		rsb	r3, r3, r0, asr #1
 677:Middlewares/LVGL/GUI/lvgl/src/core/lv_obj_pos.c ****                 break;
 4171              		.loc 1 677 19 view .LVU1242
 4172 01ce 1E44     		add	r6, r6, r3
 4173              	.LVL427:
 678:Middlewares/LVGL/GUI/lvgl/src/core/lv_obj_pos.c ****             case LV_ALIGN_BOTTOM_LEFT:
 4174              		.loc 1 678 17 is_stmt 1 view .LVU1243
 4175 01d0 EAE7     		b	.L189
 4176              	.L196:
 680:Middlewares/LVGL/GUI/lvgl/src/core/lv_obj_pos.c ****                 break;
 4177              		.loc 1 680 17 view .LVU1244
 680:Middlewares/LVGL/GUI/lvgl/src/core/lv_obj_pos.c ****                 break;
 4178              		.loc 1 680 25 is_stmt 0 view .LVU1245
 4179 01d2 009B     		ldr	r3, [sp]
 4180 01d4 019A     		ldr	r2, [sp, #4]
 4181 01d6 981A     		subs	r0, r3, r2
 680:Middlewares/LVGL/GUI/lvgl/src/core/lv_obj_pos.c ****                 break;
 4182              		.loc 1 680 19 view .LVU1246
 4183 01d8 0644     		add	r6, r6, r0
 4184              	.LVL428:
 681:Middlewares/LVGL/GUI/lvgl/src/core/lv_obj_pos.c ****             case LV_ALIGN_BOTTOM_MID:
 4185              		.loc 1 681 17 is_stmt 1 view .LVU1247
 4186 01da E5E7     		b	.L189
 4187              	.L195:
 683:Middlewares/LVGL/GUI/lvgl/src/core/lv_obj_pos.c ****                 y += ph - h;
 4188              		.loc 1 683 17 view .LVU1248
 683:Middlewares/LVGL/GUI/lvgl/src/core/lv_obj_pos.c ****                 y += ph - h;
 4189              		.loc 1 683 25 is_stmt 0 view .LVU1249
 4190 01dc 0BEBDB7B 		add	fp, fp, fp, lsr #31
 4191              	.LVL429:
 683:Middlewares/LVGL/GUI/lvgl/src/core/lv_obj_pos.c ****                 y += ph - h;
 4192              		.loc 1 683 33 view .LVU1250
 4193 01e0 0AEBDA7A 		add	r10, r10, r10, lsr #31
 4194              	.LVL430:
 683:Middlewares/LVGL/GUI/lvgl/src/core/lv_obj_pos.c ****                 y += ph - h;
 4195              		.loc 1 683 33 view .LVU1251
 4196 01e4 4FEA6A0A 		asr	r10, r10, #1
 683:Middlewares/LVGL/GUI/lvgl/src/core/lv_obj_pos.c ****                 y += ph - h;
 4197              		.loc 1 683 29 view .LVU1252
 4198 01e8 CAEB6B0B 		rsb	fp, r10, fp, asr #1
 683:Middlewares/LVGL/GUI/lvgl/src/core/lv_obj_pos.c ****                 y += ph - h;
 4199              		.loc 1 683 19 view .LVU1253
 4200 01ec 5D44     		add	r5, r5, fp
 4201              	.LVL431:
ARM GAS  C:\Users\ADMINI~1\AppData\Local\Temp\ccVA75Tx.s 			page 119


 684:Middlewares/LVGL/GUI/lvgl/src/core/lv_obj_pos.c ****                 break;
 4202              		.loc 1 684 17 is_stmt 1 view .LVU1254
 684:Middlewares/LVGL/GUI/lvgl/src/core/lv_obj_pos.c ****                 break;
 4203              		.loc 1 684 25 is_stmt 0 view .LVU1255
 4204 01ee 009B     		ldr	r3, [sp]
 4205 01f0 019A     		ldr	r2, [sp, #4]
 4206 01f2 981A     		subs	r0, r3, r2
 684:Middlewares/LVGL/GUI/lvgl/src/core/lv_obj_pos.c ****                 break;
 4207              		.loc 1 684 19 view .LVU1256
 4208 01f4 0644     		add	r6, r6, r0
 4209              	.LVL432:
 685:Middlewares/LVGL/GUI/lvgl/src/core/lv_obj_pos.c ****             case LV_ALIGN_BOTTOM_RIGHT:
 4210              		.loc 1 685 17 is_stmt 1 view .LVU1257
 4211 01f6 D7E7     		b	.L189
 4212              	.LVL433:
 4213              	.L194:
 687:Middlewares/LVGL/GUI/lvgl/src/core/lv_obj_pos.c ****                 y += ph - h;
 4214              		.loc 1 687 17 view .LVU1258
 687:Middlewares/LVGL/GUI/lvgl/src/core/lv_obj_pos.c ****                 y += ph - h;
 4215              		.loc 1 687 25 is_stmt 0 view .LVU1259
 4216 01f8 ABEB0A0A 		sub	r10, fp, r10
 4217              	.LVL434:
 687:Middlewares/LVGL/GUI/lvgl/src/core/lv_obj_pos.c ****                 y += ph - h;
 4218              		.loc 1 687 19 view .LVU1260
 4219 01fc 5544     		add	r5, r5, r10
 4220              	.LVL435:
 688:Middlewares/LVGL/GUI/lvgl/src/core/lv_obj_pos.c ****                 break;
 4221              		.loc 1 688 17 is_stmt 1 view .LVU1261
 688:Middlewares/LVGL/GUI/lvgl/src/core/lv_obj_pos.c ****                 break;
 4222              		.loc 1 688 25 is_stmt 0 view .LVU1262
 4223 01fe 009B     		ldr	r3, [sp]
 4224 0200 019A     		ldr	r2, [sp, #4]
 4225 0202 981A     		subs	r0, r3, r2
 688:Middlewares/LVGL/GUI/lvgl/src/core/lv_obj_pos.c ****                 break;
 4226              		.loc 1 688 19 view .LVU1263
 4227 0204 0644     		add	r6, r6, r0
 4228              	.LVL436:
 689:Middlewares/LVGL/GUI/lvgl/src/core/lv_obj_pos.c ****             case LV_ALIGN_RIGHT_MID:
 4229              		.loc 1 689 17 is_stmt 1 view .LVU1264
 4230 0206 CFE7     		b	.L189
 4231              	.LVL437:
 4232              	.L192:
 691:Middlewares/LVGL/GUI/lvgl/src/core/lv_obj_pos.c ****                 y += ph / 2 - h / 2;
 4233              		.loc 1 691 17 view .LVU1265
 691:Middlewares/LVGL/GUI/lvgl/src/core/lv_obj_pos.c ****                 y += ph / 2 - h / 2;
 4234              		.loc 1 691 25 is_stmt 0 view .LVU1266
 4235 0208 ABEB0A0A 		sub	r10, fp, r10
 4236              	.LVL438:
 691:Middlewares/LVGL/GUI/lvgl/src/core/lv_obj_pos.c ****                 y += ph / 2 - h / 2;
 4237              		.loc 1 691 19 view .LVU1267
 4238 020c 5544     		add	r5, r5, r10
 4239              	.LVL439:
 692:Middlewares/LVGL/GUI/lvgl/src/core/lv_obj_pos.c ****                 break;
 4240              		.loc 1 692 17 is_stmt 1 view .LVU1268
 692:Middlewares/LVGL/GUI/lvgl/src/core/lv_obj_pos.c ****                 break;
 4241              		.loc 1 692 25 is_stmt 0 view .LVU1269
 4242 020e 009B     		ldr	r3, [sp]
ARM GAS  C:\Users\ADMINI~1\AppData\Local\Temp\ccVA75Tx.s 			page 120


 4243 0210 03EBD370 		add	r0, r3, r3, lsr #31
 692:Middlewares/LVGL/GUI/lvgl/src/core/lv_obj_pos.c ****                 break;
 4244              		.loc 1 692 33 view .LVU1270
 4245 0214 019B     		ldr	r3, [sp, #4]
 4246 0216 03EBD373 		add	r3, r3, r3, lsr #31
 4247 021a 5B10     		asrs	r3, r3, #1
 692:Middlewares/LVGL/GUI/lvgl/src/core/lv_obj_pos.c ****                 break;
 4248              		.loc 1 692 29 view .LVU1271
 4249 021c C3EB6003 		rsb	r3, r3, r0, asr #1
 692:Middlewares/LVGL/GUI/lvgl/src/core/lv_obj_pos.c ****                 break;
 4250              		.loc 1 692 19 view .LVU1272
 4251 0220 1E44     		add	r6, r6, r3
 4252              	.LVL440:
 693:Middlewares/LVGL/GUI/lvgl/src/core/lv_obj_pos.c ****             case LV_ALIGN_CENTER:
 4253              		.loc 1 693 17 is_stmt 1 view .LVU1273
 4254 0222 C1E7     		b	.L189
 4255              	.LVL441:
 4256              	.L190:
 695:Middlewares/LVGL/GUI/lvgl/src/core/lv_obj_pos.c ****                 y += ph / 2 - h / 2;
 4257              		.loc 1 695 17 view .LVU1274
 695:Middlewares/LVGL/GUI/lvgl/src/core/lv_obj_pos.c ****                 y += ph / 2 - h / 2;
 4258              		.loc 1 695 25 is_stmt 0 view .LVU1275
 4259 0224 0BEBDB7B 		add	fp, fp, fp, lsr #31
 4260              	.LVL442:
 695:Middlewares/LVGL/GUI/lvgl/src/core/lv_obj_pos.c ****                 y += ph / 2 - h / 2;
 4261              		.loc 1 695 33 view .LVU1276
 4262 0228 0AEBDA7A 		add	r10, r10, r10, lsr #31
 4263              	.LVL443:
 695:Middlewares/LVGL/GUI/lvgl/src/core/lv_obj_pos.c ****                 y += ph / 2 - h / 2;
 4264              		.loc 1 695 33 view .LVU1277
 4265 022c 4FEA6A0A 		asr	r10, r10, #1
 695:Middlewares/LVGL/GUI/lvgl/src/core/lv_obj_pos.c ****                 y += ph / 2 - h / 2;
 4266              		.loc 1 695 29 view .LVU1278
 4267 0230 CAEB6B0B 		rsb	fp, r10, fp, asr #1
 695:Middlewares/LVGL/GUI/lvgl/src/core/lv_obj_pos.c ****                 y += ph / 2 - h / 2;
 4268              		.loc 1 695 19 view .LVU1279
 4269 0234 5D44     		add	r5, r5, fp
 4270              	.LVL444:
 696:Middlewares/LVGL/GUI/lvgl/src/core/lv_obj_pos.c ****                 break;
 4271              		.loc 1 696 17 is_stmt 1 view .LVU1280
 696:Middlewares/LVGL/GUI/lvgl/src/core/lv_obj_pos.c ****                 break;
 4272              		.loc 1 696 25 is_stmt 0 view .LVU1281
 4273 0236 009B     		ldr	r3, [sp]
 4274 0238 03EBD370 		add	r0, r3, r3, lsr #31
 696:Middlewares/LVGL/GUI/lvgl/src/core/lv_obj_pos.c ****                 break;
 4275              		.loc 1 696 33 view .LVU1282
 4276 023c 019B     		ldr	r3, [sp, #4]
 4277 023e 03EBD373 		add	r3, r3, r3, lsr #31
 4278 0242 5B10     		asrs	r3, r3, #1
 696:Middlewares/LVGL/GUI/lvgl/src/core/lv_obj_pos.c ****                 break;
 4279              		.loc 1 696 29 view .LVU1283
 4280 0244 C3EB6003 		rsb	r3, r3, r0, asr #1
 696:Middlewares/LVGL/GUI/lvgl/src/core/lv_obj_pos.c ****                 break;
 4281              		.loc 1 696 19 view .LVU1284
 4282 0248 1E44     		add	r6, r6, r3
 4283              	.LVL445:
 697:Middlewares/LVGL/GUI/lvgl/src/core/lv_obj_pos.c ****             default:
ARM GAS  C:\Users\ADMINI~1\AppData\Local\Temp\ccVA75Tx.s 			page 121


 4284              		.loc 1 697 17 is_stmt 1 view .LVU1285
 4285 024a ADE7     		b	.L189
 4286              	.L210:
 4287              		.align	2
 4288              	.L209:
 4289 024c 1F85EB51 		.word	1374389535
 4290              		.cfi_endproc
 4291              	.LFE191:
 4293              		.section	.text.lv_obj_is_visible,"ax",%progbits
 4294              		.align	1
 4295              		.global	lv_obj_is_visible
 4296              		.syntax unified
 4297              		.thumb
 4298              		.thumb_func
 4300              	lv_obj_is_visible:
 4301              	.LVL446:
 4302              	.LFB197:
 875:Middlewares/LVGL/GUI/lvgl/src/core/lv_obj_pos.c ****     LV_ASSERT_OBJ(obj, MY_CLASS);
 4303              		.loc 1 875 1 view -0
 4304              		.cfi_startproc
 4305              		@ args = 0, pretend = 0, frame = 16
 4306              		@ frame_needed = 0, uses_anonymous_args = 0
 875:Middlewares/LVGL/GUI/lvgl/src/core/lv_obj_pos.c ****     LV_ASSERT_OBJ(obj, MY_CLASS);
 4307              		.loc 1 875 1 is_stmt 0 view .LVU1287
 4308 0000 30B5     		push	{r4, r5, lr}
 4309              	.LCFI63:
 4310              		.cfi_def_cfa_offset 12
 4311              		.cfi_offset 4, -12
 4312              		.cfi_offset 5, -8
 4313              		.cfi_offset 14, -4
 4314 0002 85B0     		sub	sp, sp, #20
 4315              	.LCFI64:
 4316              		.cfi_def_cfa_offset 32
 4317 0004 0446     		mov	r4, r0
 876:Middlewares/LVGL/GUI/lvgl/src/core/lv_obj_pos.c **** 
 4318              		.loc 1 876 5 is_stmt 1 view .LVU1288
 876:Middlewares/LVGL/GUI/lvgl/src/core/lv_obj_pos.c **** 
 4319              		.loc 1 876 5 view .LVU1289
 876:Middlewares/LVGL/GUI/lvgl/src/core/lv_obj_pos.c **** 
 4320              		.loc 1 876 5 view .LVU1290
 878:Middlewares/LVGL/GUI/lvgl/src/core/lv_obj_pos.c ****     lv_coord_t ext_size = _lv_obj_get_ext_draw_size(obj);
 4321              		.loc 1 878 5 view .LVU1291
 879:Middlewares/LVGL/GUI/lvgl/src/core/lv_obj_pos.c ****     lv_area_copy(&obj_coords, &obj->coords);
 4322              		.loc 1 879 5 view .LVU1292
 879:Middlewares/LVGL/GUI/lvgl/src/core/lv_obj_pos.c ****     lv_area_copy(&obj_coords, &obj->coords);
 4323              		.loc 1 879 27 is_stmt 0 view .LVU1293
 4324 0006 FFF7FEFF 		bl	_lv_obj_get_ext_draw_size
 4325              	.LVL447:
 880:Middlewares/LVGL/GUI/lvgl/src/core/lv_obj_pos.c ****     obj_coords.x1 -= ext_size;
 4326              		.loc 1 880 5 is_stmt 1 view .LVU1294
 4327              	.LBB323:
 4328              	.LBI323:
 110:Middlewares/LVGL/GUI/lvgl/src/core/../misc/../font/../misc/lv_area.h **** {
 4329              		.loc 3 110 20 view .LVU1295
 4330              	.LBB324:
 112:Middlewares/LVGL/GUI/lvgl/src/core/../misc/../font/../misc/lv_area.h ****     dest->y1 = src->y1;
 4331              		.loc 3 112 5 view .LVU1296
ARM GAS  C:\Users\ADMINI~1\AppData\Local\Temp\ccVA75Tx.s 			page 122


 112:Middlewares/LVGL/GUI/lvgl/src/core/../misc/../font/../misc/lv_area.h ****     dest->y1 = src->y1;
 4332              		.loc 3 112 19 is_stmt 0 view .LVU1297
 4333 000a 6169     		ldr	r1, [r4, #20]
 112:Middlewares/LVGL/GUI/lvgl/src/core/../misc/../font/../misc/lv_area.h ****     dest->y1 = src->y1;
 4334              		.loc 3 112 14 view .LVU1298
 4335 000c 0091     		str	r1, [sp]
 113:Middlewares/LVGL/GUI/lvgl/src/core/../misc/../font/../misc/lv_area.h ****     dest->x2 = src->x2;
 4336              		.loc 3 113 5 is_stmt 1 view .LVU1299
 113:Middlewares/LVGL/GUI/lvgl/src/core/../misc/../font/../misc/lv_area.h ****     dest->x2 = src->x2;
 4337              		.loc 3 113 19 is_stmt 0 view .LVU1300
 4338 000e A269     		ldr	r2, [r4, #24]
 113:Middlewares/LVGL/GUI/lvgl/src/core/../misc/../font/../misc/lv_area.h ****     dest->x2 = src->x2;
 4339              		.loc 3 113 14 view .LVU1301
 4340 0010 0192     		str	r2, [sp, #4]
 114:Middlewares/LVGL/GUI/lvgl/src/core/../misc/../font/../misc/lv_area.h ****     dest->y2 = src->y2;
 4341              		.loc 3 114 5 is_stmt 1 view .LVU1302
 114:Middlewares/LVGL/GUI/lvgl/src/core/../misc/../font/../misc/lv_area.h ****     dest->y2 = src->y2;
 4342              		.loc 3 114 19 is_stmt 0 view .LVU1303
 4343 0012 E369     		ldr	r3, [r4, #28]
 114:Middlewares/LVGL/GUI/lvgl/src/core/../misc/../font/../misc/lv_area.h ****     dest->y2 = src->y2;
 4344              		.loc 3 114 14 view .LVU1304
 4345 0014 0293     		str	r3, [sp, #8]
 115:Middlewares/LVGL/GUI/lvgl/src/core/../misc/../font/../misc/lv_area.h **** }
 4346              		.loc 3 115 5 is_stmt 1 view .LVU1305
 115:Middlewares/LVGL/GUI/lvgl/src/core/../misc/../font/../misc/lv_area.h **** }
 4347              		.loc 3 115 19 is_stmt 0 view .LVU1306
 4348 0016 256A     		ldr	r5, [r4, #32]
 115:Middlewares/LVGL/GUI/lvgl/src/core/../misc/../font/../misc/lv_area.h **** }
 4349              		.loc 3 115 14 view .LVU1307
 4350 0018 0395     		str	r5, [sp, #12]
 4351              	.LVL448:
 115:Middlewares/LVGL/GUI/lvgl/src/core/../misc/../font/../misc/lv_area.h **** }
 4352              		.loc 3 115 14 view .LVU1308
 4353              	.LBE324:
 4354              	.LBE323:
 881:Middlewares/LVGL/GUI/lvgl/src/core/lv_obj_pos.c ****     obj_coords.y1 -= ext_size;
 4355              		.loc 1 881 5 is_stmt 1 view .LVU1309
 881:Middlewares/LVGL/GUI/lvgl/src/core/lv_obj_pos.c ****     obj_coords.y1 -= ext_size;
 4356              		.loc 1 881 19 is_stmt 0 view .LVU1310
 4357 001a 091A     		subs	r1, r1, r0
 4358 001c 0091     		str	r1, [sp]
 882:Middlewares/LVGL/GUI/lvgl/src/core/lv_obj_pos.c ****     obj_coords.x2 += ext_size;
 4359              		.loc 1 882 5 is_stmt 1 view .LVU1311
 882:Middlewares/LVGL/GUI/lvgl/src/core/lv_obj_pos.c ****     obj_coords.x2 += ext_size;
 4360              		.loc 1 882 19 is_stmt 0 view .LVU1312
 4361 001e 121A     		subs	r2, r2, r0
 4362 0020 0192     		str	r2, [sp, #4]
 883:Middlewares/LVGL/GUI/lvgl/src/core/lv_obj_pos.c ****     obj_coords.y2 += ext_size;
 4363              		.loc 1 883 5 is_stmt 1 view .LVU1313
 883:Middlewares/LVGL/GUI/lvgl/src/core/lv_obj_pos.c ****     obj_coords.y2 += ext_size;
 4364              		.loc 1 883 19 is_stmt 0 view .LVU1314
 4365 0022 0344     		add	r3, r3, r0
 4366 0024 0293     		str	r3, [sp, #8]
 884:Middlewares/LVGL/GUI/lvgl/src/core/lv_obj_pos.c **** 
 4367              		.loc 1 884 5 is_stmt 1 view .LVU1315
 884:Middlewares/LVGL/GUI/lvgl/src/core/lv_obj_pos.c **** 
 4368              		.loc 1 884 19 is_stmt 0 view .LVU1316
ARM GAS  C:\Users\ADMINI~1\AppData\Local\Temp\ccVA75Tx.s 			page 123


 4369 0026 2844     		add	r0, r0, r5
 4370              	.LVL449:
 884:Middlewares/LVGL/GUI/lvgl/src/core/lv_obj_pos.c **** 
 4371              		.loc 1 884 19 view .LVU1317
 4372 0028 0390     		str	r0, [sp, #12]
 886:Middlewares/LVGL/GUI/lvgl/src/core/lv_obj_pos.c **** 
 4373              		.loc 1 886 5 is_stmt 1 view .LVU1318
 886:Middlewares/LVGL/GUI/lvgl/src/core/lv_obj_pos.c **** 
 4374              		.loc 1 886 12 is_stmt 0 view .LVU1319
 4375 002a 6946     		mov	r1, sp
 4376 002c 2046     		mov	r0, r4
 4377 002e FFF7FEFF 		bl	lv_obj_area_is_visible
 4378              	.LVL450:
 888:Middlewares/LVGL/GUI/lvgl/src/core/lv_obj_pos.c **** 
 4379              		.loc 1 888 1 view .LVU1320
 4380 0032 05B0     		add	sp, sp, #20
 4381              	.LCFI65:
 4382              		.cfi_def_cfa_offset 12
 4383              		@ sp needed
 4384 0034 30BD     		pop	{r4, r5, pc}
 888:Middlewares/LVGL/GUI/lvgl/src/core/lv_obj_pos.c **** 
 4385              		.loc 1 888 1 view .LVU1321
 4386              		.cfi_endproc
 4387              	.LFE197:
 4389              		.section	.text.lv_obj_set_ext_click_area,"ax",%progbits
 4390              		.align	1
 4391              		.global	lv_obj_set_ext_click_area
 4392              		.syntax unified
 4393              		.thumb
 4394              		.thumb_func
 4396              	lv_obj_set_ext_click_area:
 4397              	.LVL451:
 4398              	.LFB198:
 891:Middlewares/LVGL/GUI/lvgl/src/core/lv_obj_pos.c ****     LV_ASSERT_OBJ(obj, MY_CLASS);
 4399              		.loc 1 891 1 is_stmt 1 view -0
 4400              		.cfi_startproc
 4401              		@ args = 0, pretend = 0, frame = 0
 4402              		@ frame_needed = 0, uses_anonymous_args = 0
 891:Middlewares/LVGL/GUI/lvgl/src/core/lv_obj_pos.c ****     LV_ASSERT_OBJ(obj, MY_CLASS);
 4403              		.loc 1 891 1 is_stmt 0 view .LVU1323
 4404 0000 38B5     		push	{r3, r4, r5, lr}
 4405              	.LCFI66:
 4406              		.cfi_def_cfa_offset 16
 4407              		.cfi_offset 3, -16
 4408              		.cfi_offset 4, -12
 4409              		.cfi_offset 5, -8
 4410              		.cfi_offset 14, -4
 4411 0002 0546     		mov	r5, r0
 4412 0004 0C46     		mov	r4, r1
 892:Middlewares/LVGL/GUI/lvgl/src/core/lv_obj_pos.c **** 
 4413              		.loc 1 892 5 is_stmt 1 view .LVU1324
 892:Middlewares/LVGL/GUI/lvgl/src/core/lv_obj_pos.c **** 
 4414              		.loc 1 892 5 view .LVU1325
 892:Middlewares/LVGL/GUI/lvgl/src/core/lv_obj_pos.c **** 
 4415              		.loc 1 892 5 view .LVU1326
 894:Middlewares/LVGL/GUI/lvgl/src/core/lv_obj_pos.c ****     obj->spec_attr->ext_click_pad = size;
 4416              		.loc 1 894 5 view .LVU1327
ARM GAS  C:\Users\ADMINI~1\AppData\Local\Temp\ccVA75Tx.s 			page 124


 4417 0006 FFF7FEFF 		bl	lv_obj_allocate_spec_attr
 4418              	.LVL452:
 895:Middlewares/LVGL/GUI/lvgl/src/core/lv_obj_pos.c **** }
 4419              		.loc 1 895 5 view .LVU1328
 895:Middlewares/LVGL/GUI/lvgl/src/core/lv_obj_pos.c **** }
 4420              		.loc 1 895 8 is_stmt 0 view .LVU1329
 4421 000a AB68     		ldr	r3, [r5, #8]
 895:Middlewares/LVGL/GUI/lvgl/src/core/lv_obj_pos.c **** }
 4422              		.loc 1 895 35 view .LVU1330
 4423 000c 9C61     		str	r4, [r3, #24]
 896:Middlewares/LVGL/GUI/lvgl/src/core/lv_obj_pos.c **** 
 4424              		.loc 1 896 1 view .LVU1331
 4425 000e 38BD     		pop	{r3, r4, r5, pc}
 896:Middlewares/LVGL/GUI/lvgl/src/core/lv_obj_pos.c **** 
 4426              		.loc 1 896 1 view .LVU1332
 4427              		.cfi_endproc
 4428              	.LFE198:
 4430              		.section	.text.lv_obj_get_click_area,"ax",%progbits
 4431              		.align	1
 4432              		.global	lv_obj_get_click_area
 4433              		.syntax unified
 4434              		.thumb
 4435              		.thumb_func
 4437              	lv_obj_get_click_area:
 4438              	.LVL453:
 4439              	.LFB199:
 899:Middlewares/LVGL/GUI/lvgl/src/core/lv_obj_pos.c ****     lv_area_copy(area, &obj->coords);
 4440              		.loc 1 899 1 is_stmt 1 view -0
 4441              		.cfi_startproc
 4442              		@ args = 0, pretend = 0, frame = 0
 4443              		@ frame_needed = 0, uses_anonymous_args = 0
 4444              		@ link register save eliminated.
 899:Middlewares/LVGL/GUI/lvgl/src/core/lv_obj_pos.c ****     lv_area_copy(area, &obj->coords);
 4445              		.loc 1 899 1 is_stmt 0 view .LVU1334
 4446 0000 70B4     		push	{r4, r5, r6}
 4447              	.LCFI67:
 4448              		.cfi_def_cfa_offset 12
 4449              		.cfi_offset 4, -12
 4450              		.cfi_offset 5, -8
 4451              		.cfi_offset 6, -4
 900:Middlewares/LVGL/GUI/lvgl/src/core/lv_obj_pos.c ****     if(obj->spec_attr) {
 4452              		.loc 1 900 5 is_stmt 1 view .LVU1335
 4453              	.LVL454:
 4454              	.LBB325:
 4455              	.LBI325:
 110:Middlewares/LVGL/GUI/lvgl/src/core/../misc/../font/../misc/lv_area.h **** {
 4456              		.loc 3 110 20 view .LVU1336
 4457              	.LBB326:
 112:Middlewares/LVGL/GUI/lvgl/src/core/../misc/../font/../misc/lv_area.h ****     dest->y1 = src->y1;
 4458              		.loc 3 112 5 view .LVU1337
 112:Middlewares/LVGL/GUI/lvgl/src/core/../misc/../font/../misc/lv_area.h ****     dest->y1 = src->y1;
 4459              		.loc 3 112 19 is_stmt 0 view .LVU1338
 4460 0002 4269     		ldr	r2, [r0, #20]
 112:Middlewares/LVGL/GUI/lvgl/src/core/../misc/../font/../misc/lv_area.h ****     dest->y1 = src->y1;
 4461              		.loc 3 112 14 view .LVU1339
 4462 0004 0A60     		str	r2, [r1]
 113:Middlewares/LVGL/GUI/lvgl/src/core/../misc/../font/../misc/lv_area.h ****     dest->x2 = src->x2;
ARM GAS  C:\Users\ADMINI~1\AppData\Local\Temp\ccVA75Tx.s 			page 125


 4463              		.loc 3 113 5 is_stmt 1 view .LVU1340
 113:Middlewares/LVGL/GUI/lvgl/src/core/../misc/../font/../misc/lv_area.h ****     dest->x2 = src->x2;
 4464              		.loc 3 113 19 is_stmt 0 view .LVU1341
 4465 0006 8369     		ldr	r3, [r0, #24]
 113:Middlewares/LVGL/GUI/lvgl/src/core/../misc/../font/../misc/lv_area.h ****     dest->x2 = src->x2;
 4466              		.loc 3 113 14 view .LVU1342
 4467 0008 4B60     		str	r3, [r1, #4]
 114:Middlewares/LVGL/GUI/lvgl/src/core/../misc/../font/../misc/lv_area.h ****     dest->y2 = src->y2;
 4468              		.loc 3 114 5 is_stmt 1 view .LVU1343
 114:Middlewares/LVGL/GUI/lvgl/src/core/../misc/../font/../misc/lv_area.h ****     dest->y2 = src->y2;
 4469              		.loc 3 114 19 is_stmt 0 view .LVU1344
 4470 000a C569     		ldr	r5, [r0, #28]
 114:Middlewares/LVGL/GUI/lvgl/src/core/../misc/../font/../misc/lv_area.h ****     dest->y2 = src->y2;
 4471              		.loc 3 114 14 view .LVU1345
 4472 000c 8D60     		str	r5, [r1, #8]
 115:Middlewares/LVGL/GUI/lvgl/src/core/../misc/../font/../misc/lv_area.h **** }
 4473              		.loc 3 115 5 is_stmt 1 view .LVU1346
 115:Middlewares/LVGL/GUI/lvgl/src/core/../misc/../font/../misc/lv_area.h **** }
 4474              		.loc 3 115 19 is_stmt 0 view .LVU1347
 4475 000e 046A     		ldr	r4, [r0, #32]
 115:Middlewares/LVGL/GUI/lvgl/src/core/../misc/../font/../misc/lv_area.h **** }
 4476              		.loc 3 115 14 view .LVU1348
 4477 0010 CC60     		str	r4, [r1, #12]
 4478              	.LVL455:
 115:Middlewares/LVGL/GUI/lvgl/src/core/../misc/../font/../misc/lv_area.h **** }
 4479              		.loc 3 115 14 view .LVU1349
 4480              	.LBE326:
 4481              	.LBE325:
 901:Middlewares/LVGL/GUI/lvgl/src/core/lv_obj_pos.c ****         area->x1 -= obj->spec_attr->ext_click_pad;
 4482              		.loc 1 901 5 is_stmt 1 view .LVU1350
 901:Middlewares/LVGL/GUI/lvgl/src/core/lv_obj_pos.c ****         area->x1 -= obj->spec_attr->ext_click_pad;
 4483              		.loc 1 901 11 is_stmt 0 view .LVU1351
 4484 0012 8668     		ldr	r6, [r0, #8]
 901:Middlewares/LVGL/GUI/lvgl/src/core/lv_obj_pos.c ****         area->x1 -= obj->spec_attr->ext_click_pad;
 4485              		.loc 1 901 7 view .LVU1352
 4486 0014 76B1     		cbz	r6, .L215
 902:Middlewares/LVGL/GUI/lvgl/src/core/lv_obj_pos.c ****         area->x2 += obj->spec_attr->ext_click_pad;
 4487              		.loc 1 902 9 is_stmt 1 view .LVU1353
 902:Middlewares/LVGL/GUI/lvgl/src/core/lv_obj_pos.c ****         area->x2 += obj->spec_attr->ext_click_pad;
 4488              		.loc 1 902 35 is_stmt 0 view .LVU1354
 4489 0016 B669     		ldr	r6, [r6, #24]
 902:Middlewares/LVGL/GUI/lvgl/src/core/lv_obj_pos.c ****         area->x2 += obj->spec_attr->ext_click_pad;
 4490              		.loc 1 902 18 view .LVU1355
 4491 0018 921B     		subs	r2, r2, r6
 4492 001a 0A60     		str	r2, [r1]
 903:Middlewares/LVGL/GUI/lvgl/src/core/lv_obj_pos.c ****         area->y1 -= obj->spec_attr->ext_click_pad;
 4493              		.loc 1 903 9 is_stmt 1 view .LVU1356
 903:Middlewares/LVGL/GUI/lvgl/src/core/lv_obj_pos.c ****         area->y1 -= obj->spec_attr->ext_click_pad;
 4494              		.loc 1 903 24 is_stmt 0 view .LVU1357
 4495 001c 8268     		ldr	r2, [r0, #8]
 903:Middlewares/LVGL/GUI/lvgl/src/core/lv_obj_pos.c ****         area->y1 -= obj->spec_attr->ext_click_pad;
 4496              		.loc 1 903 35 view .LVU1358
 4497 001e 9269     		ldr	r2, [r2, #24]
 903:Middlewares/LVGL/GUI/lvgl/src/core/lv_obj_pos.c ****         area->y1 -= obj->spec_attr->ext_click_pad;
 4498              		.loc 1 903 18 view .LVU1359
 4499 0020 2A44     		add	r2, r2, r5
 4500 0022 8A60     		str	r2, [r1, #8]
ARM GAS  C:\Users\ADMINI~1\AppData\Local\Temp\ccVA75Tx.s 			page 126


 904:Middlewares/LVGL/GUI/lvgl/src/core/lv_obj_pos.c ****         area->y2 += obj->spec_attr->ext_click_pad;
 4501              		.loc 1 904 9 is_stmt 1 view .LVU1360
 904:Middlewares/LVGL/GUI/lvgl/src/core/lv_obj_pos.c ****         area->y2 += obj->spec_attr->ext_click_pad;
 4502              		.loc 1 904 24 is_stmt 0 view .LVU1361
 4503 0024 8268     		ldr	r2, [r0, #8]
 904:Middlewares/LVGL/GUI/lvgl/src/core/lv_obj_pos.c ****         area->y2 += obj->spec_attr->ext_click_pad;
 4504              		.loc 1 904 35 view .LVU1362
 4505 0026 9269     		ldr	r2, [r2, #24]
 904:Middlewares/LVGL/GUI/lvgl/src/core/lv_obj_pos.c ****         area->y2 += obj->spec_attr->ext_click_pad;
 4506              		.loc 1 904 18 view .LVU1363
 4507 0028 9B1A     		subs	r3, r3, r2
 4508 002a 4B60     		str	r3, [r1, #4]
 905:Middlewares/LVGL/GUI/lvgl/src/core/lv_obj_pos.c ****     }
 4509              		.loc 1 905 9 is_stmt 1 view .LVU1364
 905:Middlewares/LVGL/GUI/lvgl/src/core/lv_obj_pos.c ****     }
 4510              		.loc 1 905 24 is_stmt 0 view .LVU1365
 4511 002c 8368     		ldr	r3, [r0, #8]
 905:Middlewares/LVGL/GUI/lvgl/src/core/lv_obj_pos.c ****     }
 4512              		.loc 1 905 35 view .LVU1366
 4513 002e 9B69     		ldr	r3, [r3, #24]
 905:Middlewares/LVGL/GUI/lvgl/src/core/lv_obj_pos.c ****     }
 4514              		.loc 1 905 18 view .LVU1367
 4515 0030 2344     		add	r3, r3, r4
 4516 0032 CB60     		str	r3, [r1, #12]
 4517              	.L215:
 907:Middlewares/LVGL/GUI/lvgl/src/core/lv_obj_pos.c **** 
 4518              		.loc 1 907 1 view .LVU1368
 4519 0034 70BC     		pop	{r4, r5, r6}
 4520              	.LCFI68:
 4521              		.cfi_restore 6
 4522              		.cfi_restore 5
 4523              		.cfi_restore 4
 4524              		.cfi_def_cfa_offset 0
 4525 0036 7047     		bx	lr
 4526              		.cfi_endproc
 4527              	.LFE199:
 4529              		.section	.text.lv_obj_hit_test,"ax",%progbits
 4530              		.align	1
 4531              		.global	lv_obj_hit_test
 4532              		.syntax unified
 4533              		.thumb
 4534              		.thumb_func
 4536              	lv_obj_hit_test:
 4537              	.LVL456:
 4538              	.LFB200:
 910:Middlewares/LVGL/GUI/lvgl/src/core/lv_obj_pos.c ****     if(!lv_obj_has_flag(obj, LV_OBJ_FLAG_CLICKABLE)) return false;
 4539              		.loc 1 910 1 is_stmt 1 view -0
 4540              		.cfi_startproc
 4541              		@ args = 0, pretend = 0, frame = 24
 4542              		@ frame_needed = 0, uses_anonymous_args = 0
 910:Middlewares/LVGL/GUI/lvgl/src/core/lv_obj_pos.c ****     if(!lv_obj_has_flag(obj, LV_OBJ_FLAG_CLICKABLE)) return false;
 4543              		.loc 1 910 1 is_stmt 0 view .LVU1370
 4544 0000 70B5     		push	{r4, r5, r6, lr}
 4545              	.LCFI69:
 4546              		.cfi_def_cfa_offset 16
 4547              		.cfi_offset 4, -16
 4548              		.cfi_offset 5, -12
ARM GAS  C:\Users\ADMINI~1\AppData\Local\Temp\ccVA75Tx.s 			page 127


 4549              		.cfi_offset 6, -8
 4550              		.cfi_offset 14, -4
 4551 0002 86B0     		sub	sp, sp, #24
 4552              	.LCFI70:
 4553              		.cfi_def_cfa_offset 40
 4554 0004 0646     		mov	r6, r0
 4555 0006 0C46     		mov	r4, r1
 911:Middlewares/LVGL/GUI/lvgl/src/core/lv_obj_pos.c ****     if(lv_obj_has_state(obj, LV_STATE_DISABLED)) return false;
 4556              		.loc 1 911 5 is_stmt 1 view .LVU1371
 911:Middlewares/LVGL/GUI/lvgl/src/core/lv_obj_pos.c ****     if(lv_obj_has_state(obj, LV_STATE_DISABLED)) return false;
 4557              		.loc 1 911 9 is_stmt 0 view .LVU1372
 4558 0008 0221     		movs	r1, #2
 4559              	.LVL457:
 911:Middlewares/LVGL/GUI/lvgl/src/core/lv_obj_pos.c ****     if(lv_obj_has_state(obj, LV_STATE_DISABLED)) return false;
 4560              		.loc 1 911 9 view .LVU1373
 4561 000a FFF7FEFF 		bl	lv_obj_has_flag
 4562              	.LVL458:
 911:Middlewares/LVGL/GUI/lvgl/src/core/lv_obj_pos.c ****     if(lv_obj_has_state(obj, LV_STATE_DISABLED)) return false;
 4563              		.loc 1 911 7 view .LVU1374
 4564 000e 0546     		mov	r5, r0
 4565 0010 10B9     		cbnz	r0, .L222
 4566              	.L219:
 928:Middlewares/LVGL/GUI/lvgl/src/core/lv_obj_pos.c **** 
 4567              		.loc 1 928 1 discriminator 1 view .LVU1375
 4568 0012 2846     		mov	r0, r5
 4569 0014 06B0     		add	sp, sp, #24
 4570              	.LCFI71:
 4571              		.cfi_remember_state
 4572              		.cfi_def_cfa_offset 16
 4573              		@ sp needed
 4574 0016 70BD     		pop	{r4, r5, r6, pc}
 4575              	.LVL459:
 4576              	.L222:
 4577              	.LCFI72:
 4578              		.cfi_restore_state
 912:Middlewares/LVGL/GUI/lvgl/src/core/lv_obj_pos.c **** 
 4579              		.loc 1 912 5 is_stmt 1 view .LVU1376
 912:Middlewares/LVGL/GUI/lvgl/src/core/lv_obj_pos.c **** 
 4580              		.loc 1 912 8 is_stmt 0 view .LVU1377
 4581 0018 8021     		movs	r1, #128
 4582 001a 3046     		mov	r0, r6
 4583 001c FFF7FEFF 		bl	lv_obj_has_state
 4584              	.LVL460:
 912:Middlewares/LVGL/GUI/lvgl/src/core/lv_obj_pos.c **** 
 4585              		.loc 1 912 7 view .LVU1378
 4586 0020 08B1     		cbz	r0, .L223
 912:Middlewares/LVGL/GUI/lvgl/src/core/lv_obj_pos.c **** 
 4587              		.loc 1 912 57 view .LVU1379
 4588 0022 0025     		movs	r5, #0
 4589 0024 F5E7     		b	.L219
 4590              	.L223:
 914:Middlewares/LVGL/GUI/lvgl/src/core/lv_obj_pos.c ****     lv_obj_get_click_area(obj, &a);
 4591              		.loc 1 914 5 is_stmt 1 view .LVU1380
 915:Middlewares/LVGL/GUI/lvgl/src/core/lv_obj_pos.c ****     bool res = _lv_area_is_point_on(&a, point, 0);
 4592              		.loc 1 915 5 view .LVU1381
 4593 0026 02A9     		add	r1, sp, #8
 4594 0028 3046     		mov	r0, r6
ARM GAS  C:\Users\ADMINI~1\AppData\Local\Temp\ccVA75Tx.s 			page 128


 4595 002a FFF7FEFF 		bl	lv_obj_get_click_area
 4596              	.LVL461:
 916:Middlewares/LVGL/GUI/lvgl/src/core/lv_obj_pos.c ****     if(res == false) return false;
 4597              		.loc 1 916 5 view .LVU1382
 916:Middlewares/LVGL/GUI/lvgl/src/core/lv_obj_pos.c ****     if(res == false) return false;
 4598              		.loc 1 916 16 is_stmt 0 view .LVU1383
 4599 002e 0022     		movs	r2, #0
 4600 0030 2146     		mov	r1, r4
 4601 0032 02A8     		add	r0, sp, #8
 4602 0034 FFF7FEFF 		bl	_lv_area_is_point_on
 4603              	.LVL462:
 917:Middlewares/LVGL/GUI/lvgl/src/core/lv_obj_pos.c **** 
 4604              		.loc 1 917 5 is_stmt 1 view .LVU1384
 917:Middlewares/LVGL/GUI/lvgl/src/core/lv_obj_pos.c **** 
 4605              		.loc 1 917 7 is_stmt 0 view .LVU1385
 4606 0038 0546     		mov	r5, r0
 4607 003a 0028     		cmp	r0, #0
 4608 003c E9D0     		beq	.L219
 919:Middlewares/LVGL/GUI/lvgl/src/core/lv_obj_pos.c ****         lv_hit_test_info_t hit_info;
 4609              		.loc 1 919 5 is_stmt 1 view .LVU1386
 919:Middlewares/LVGL/GUI/lvgl/src/core/lv_obj_pos.c ****         lv_hit_test_info_t hit_info;
 4610              		.loc 1 919 8 is_stmt 0 view .LVU1387
 4611 003e 4FF48031 		mov	r1, #65536
 4612 0042 3046     		mov	r0, r6
 4613              	.LVL463:
 919:Middlewares/LVGL/GUI/lvgl/src/core/lv_obj_pos.c ****         lv_hit_test_info_t hit_info;
 4614              		.loc 1 919 8 view .LVU1388
 4615 0044 FFF7FEFF 		bl	lv_obj_has_flag
 4616              	.LVL464:
 919:Middlewares/LVGL/GUI/lvgl/src/core/lv_obj_pos.c ****         lv_hit_test_info_t hit_info;
 4617              		.loc 1 919 7 view .LVU1389
 4618 0048 0028     		cmp	r0, #0
 4619 004a E2D0     		beq	.L219
 4620              	.LBB327:
 920:Middlewares/LVGL/GUI/lvgl/src/core/lv_obj_pos.c ****         hit_info.point = point;
 4621              		.loc 1 920 9 is_stmt 1 view .LVU1390
 921:Middlewares/LVGL/GUI/lvgl/src/core/lv_obj_pos.c ****         hit_info.res = true;
 4622              		.loc 1 921 9 view .LVU1391
 921:Middlewares/LVGL/GUI/lvgl/src/core/lv_obj_pos.c ****         hit_info.res = true;
 4623              		.loc 1 921 24 is_stmt 0 view .LVU1392
 4624 004c 0094     		str	r4, [sp]
 922:Middlewares/LVGL/GUI/lvgl/src/core/lv_obj_pos.c ****         lv_event_send(obj, LV_EVENT_HIT_TEST, &hit_info);
 4625              		.loc 1 922 9 is_stmt 1 view .LVU1393
 922:Middlewares/LVGL/GUI/lvgl/src/core/lv_obj_pos.c ****         lv_event_send(obj, LV_EVENT_HIT_TEST, &hit_info);
 4626              		.loc 1 922 22 is_stmt 0 view .LVU1394
 4627 004e 0123     		movs	r3, #1
 4628 0050 8DF80430 		strb	r3, [sp, #4]
 923:Middlewares/LVGL/GUI/lvgl/src/core/lv_obj_pos.c ****         return hit_info.res;
 4629              		.loc 1 923 9 is_stmt 1 view .LVU1395
 4630 0054 6A46     		mov	r2, sp
 4631 0056 1121     		movs	r1, #17
 4632 0058 3046     		mov	r0, r6
 4633 005a FFF7FEFF 		bl	lv_event_send
 4634              	.LVL465:
 924:Middlewares/LVGL/GUI/lvgl/src/core/lv_obj_pos.c ****     }
 4635              		.loc 1 924 9 view .LVU1396
 924:Middlewares/LVGL/GUI/lvgl/src/core/lv_obj_pos.c ****     }
ARM GAS  C:\Users\ADMINI~1\AppData\Local\Temp\ccVA75Tx.s 			page 129


 4636              		.loc 1 924 24 is_stmt 0 view .LVU1397
 4637 005e 9DF80450 		ldrb	r5, [sp, #4]	@ zero_extendqisi2
 4638 0062 D6E7     		b	.L219
 4639              	.LBE327:
 4640              		.cfi_endproc
 4641              	.LFE200:
 4643              		.section	.text.lv_clamp_width,"ax",%progbits
 4644              		.align	1
 4645              		.global	lv_clamp_width
 4646              		.syntax unified
 4647              		.thumb
 4648              		.thumb_func
 4650              	lv_clamp_width:
 4651              	.LVL466:
 4652              	.LFB201:
 931:Middlewares/LVGL/GUI/lvgl/src/core/lv_obj_pos.c ****     if(LV_COORD_IS_PCT(min_width)) min_width = (ref_width * LV_COORD_GET_PCT(min_width)) / 100;
 4653              		.loc 1 931 1 is_stmt 1 view -0
 4654              		.cfi_startproc
 4655              		@ args = 0, pretend = 0, frame = 0
 4656              		@ frame_needed = 0, uses_anonymous_args = 0
 931:Middlewares/LVGL/GUI/lvgl/src/core/lv_obj_pos.c ****     if(LV_COORD_IS_PCT(min_width)) min_width = (ref_width * LV_COORD_GET_PCT(min_width)) / 100;
 4657              		.loc 1 931 1 is_stmt 0 view .LVU1399
 4658 0000 00B5     		push	{lr}
 4659              	.LCFI73:
 4660              		.cfi_def_cfa_offset 4
 4661              		.cfi_offset 14, -4
 4662 0002 8446     		mov	ip, r0
 4663 0004 0846     		mov	r0, r1
 4664              	.LVL467:
 932:Middlewares/LVGL/GUI/lvgl/src/core/lv_obj_pos.c ****     if(LV_COORD_IS_PCT(max_width)) max_width = (ref_width * LV_COORD_GET_PCT(max_width)) / 100;
 4665              		.loc 1 932 5 is_stmt 1 view .LVU1400
 932:Middlewares/LVGL/GUI/lvgl/src/core/lv_obj_pos.c ****     if(LV_COORD_IS_PCT(max_width)) max_width = (ref_width * LV_COORD_GET_PCT(max_width)) / 100;
 4666              		.loc 1 932 8 is_stmt 0 view .LVU1401
 4667 0006 01F0C041 		and	r1, r1, #1610612736
 4668              	.LVL468:
 932:Middlewares/LVGL/GUI/lvgl/src/core/lv_obj_pos.c ****     if(LV_COORD_IS_PCT(max_width)) max_width = (ref_width * LV_COORD_GET_PCT(max_width)) / 100;
 4669              		.loc 1 932 7 view .LVU1402
 4670 000a B1F1005F 		cmp	r1, #536870912
 4671 000e 0CD0     		beq	.L230
 4672              	.L225:
 933:Middlewares/LVGL/GUI/lvgl/src/core/lv_obj_pos.c ****     return LV_CLAMP(min_width, width, max_width);
 4673              		.loc 1 933 5 is_stmt 1 view .LVU1403
 933:Middlewares/LVGL/GUI/lvgl/src/core/lv_obj_pos.c ****     return LV_CLAMP(min_width, width, max_width);
 4674              		.loc 1 933 8 is_stmt 0 view .LVU1404
 4675 0010 02F0C041 		and	r1, r2, #1610612736
 933:Middlewares/LVGL/GUI/lvgl/src/core/lv_obj_pos.c ****     return LV_CLAMP(min_width, width, max_width);
 4676              		.loc 1 933 7 view .LVU1405
 4677 0014 B1F1005F 		cmp	r1, #536870912
 4678 0018 1AD0     		beq	.L231
 4679              	.LVL469:
 4680              	.L227:
 934:Middlewares/LVGL/GUI/lvgl/src/core/lv_obj_pos.c **** }
 4681              		.loc 1 934 5 is_stmt 1 view .LVU1406
 934:Middlewares/LVGL/GUI/lvgl/src/core/lv_obj_pos.c **** }
 4682              		.loc 1 934 12 is_stmt 0 view .LVU1407
 4683 001a 6245     		cmp	r2, ip
 4684 001c A8BF     		it	ge
ARM GAS  C:\Users\ADMINI~1\AppData\Local\Temp\ccVA75Tx.s 			page 130


 4685 001e 6246     		movge	r2, ip
 4686              	.LVL470:
 935:Middlewares/LVGL/GUI/lvgl/src/core/lv_obj_pos.c **** 
 4687              		.loc 1 935 1 view .LVU1408
 4688 0020 9042     		cmp	r0, r2
 4689 0022 B8BF     		it	lt
 4690 0024 1046     		movlt	r0, r2
 4691              	.LVL471:
 935:Middlewares/LVGL/GUI/lvgl/src/core/lv_obj_pos.c **** 
 4692              		.loc 1 935 1 view .LVU1409
 4693 0026 5DF804FB 		ldr	pc, [sp], #4
 4694              	.LVL472:
 4695              	.L230:
 932:Middlewares/LVGL/GUI/lvgl/src/core/lv_obj_pos.c ****     if(LV_COORD_IS_PCT(max_width)) max_width = (ref_width * LV_COORD_GET_PCT(max_width)) / 100;
 4696              		.loc 1 932 8 discriminator 1 view .LVU1410
 4697 002a 20F0C041 		bic	r1, r0, #1610612736
 4698 002e B1F5FA6F 		cmp	r1, #2000
 4699 0032 EDDC     		bgt	.L225
 932:Middlewares/LVGL/GUI/lvgl/src/core/lv_obj_pos.c ****     if(LV_COORD_IS_PCT(max_width)) max_width = (ref_width * LV_COORD_GET_PCT(max_width)) / 100;
 4700              		.loc 1 932 36 is_stmt 1 discriminator 2 view .LVU1411
 932:Middlewares/LVGL/GUI/lvgl/src/core/lv_obj_pos.c ****     if(LV_COORD_IS_PCT(max_width)) max_width = (ref_width * LV_COORD_GET_PCT(max_width)) / 100;
 4701              		.loc 1 932 61 is_stmt 0 discriminator 2 view .LVU1412
 4702 0034 B1F57A7F 		cmp	r1, #1000
 4703 0038 01DD     		ble	.L226
 932:Middlewares/LVGL/GUI/lvgl/src/core/lv_obj_pos.c ****     if(LV_COORD_IS_PCT(max_width)) max_width = (ref_width * LV_COORD_GET_PCT(max_width)) / 100;
 4704              		.loc 1 932 61 discriminator 3 view .LVU1413
 4705 003a C1F57A71 		rsb	r1, r1, #1000
 4706              	.L226:
 932:Middlewares/LVGL/GUI/lvgl/src/core/lv_obj_pos.c ****     if(LV_COORD_IS_PCT(max_width)) max_width = (ref_width * LV_COORD_GET_PCT(max_width)) / 100;
 4707              		.loc 1 932 59 discriminator 6 view .LVU1414
 4708 003e 03FB01F1 		mul	r1, r3, r1
 932:Middlewares/LVGL/GUI/lvgl/src/core/lv_obj_pos.c ****     if(LV_COORD_IS_PCT(max_width)) max_width = (ref_width * LV_COORD_GET_PCT(max_width)) / 100;
 4709              		.loc 1 932 46 discriminator 6 view .LVU1415
 4710 0042 0D48     		ldr	r0, .L232
 4711              	.LVL473:
 932:Middlewares/LVGL/GUI/lvgl/src/core/lv_obj_pos.c ****     if(LV_COORD_IS_PCT(max_width)) max_width = (ref_width * LV_COORD_GET_PCT(max_width)) / 100;
 4712              		.loc 1 932 46 discriminator 6 view .LVU1416
 4713 0044 80FB01E0 		smull	lr, r0, r0, r1
 4714 0048 C917     		asrs	r1, r1, #31
 4715 004a C1EB6010 		rsb	r0, r1, r0, asr #5
 4716              	.LVL474:
 932:Middlewares/LVGL/GUI/lvgl/src/core/lv_obj_pos.c ****     if(LV_COORD_IS_PCT(max_width)) max_width = (ref_width * LV_COORD_GET_PCT(max_width)) / 100;
 4717              		.loc 1 932 46 discriminator 6 view .LVU1417
 4718 004e DFE7     		b	.L225
 4719              	.L231:
 933:Middlewares/LVGL/GUI/lvgl/src/core/lv_obj_pos.c ****     return LV_CLAMP(min_width, width, max_width);
 4720              		.loc 1 933 8 discriminator 1 view .LVU1418
 4721 0050 22F0C041 		bic	r1, r2, #1610612736
 4722 0054 B1F5FA6F 		cmp	r1, #2000
 4723 0058 DFDC     		bgt	.L227
 933:Middlewares/LVGL/GUI/lvgl/src/core/lv_obj_pos.c ****     return LV_CLAMP(min_width, width, max_width);
 4724              		.loc 1 933 36 is_stmt 1 discriminator 2 view .LVU1419
 933:Middlewares/LVGL/GUI/lvgl/src/core/lv_obj_pos.c ****     return LV_CLAMP(min_width, width, max_width);
 4725              		.loc 1 933 61 is_stmt 0 discriminator 2 view .LVU1420
 4726 005a B1F57A7F 		cmp	r1, #1000
 4727 005e 01DD     		ble	.L228
 933:Middlewares/LVGL/GUI/lvgl/src/core/lv_obj_pos.c ****     return LV_CLAMP(min_width, width, max_width);
ARM GAS  C:\Users\ADMINI~1\AppData\Local\Temp\ccVA75Tx.s 			page 131


 4728              		.loc 1 933 61 discriminator 3 view .LVU1421
 4729 0060 C1F57A71 		rsb	r1, r1, #1000
 4730              	.L228:
 933:Middlewares/LVGL/GUI/lvgl/src/core/lv_obj_pos.c ****     return LV_CLAMP(min_width, width, max_width);
 4731              		.loc 1 933 59 discriminator 6 view .LVU1422
 4732 0064 03FB01F1 		mul	r1, r3, r1
 933:Middlewares/LVGL/GUI/lvgl/src/core/lv_obj_pos.c ****     return LV_CLAMP(min_width, width, max_width);
 4733              		.loc 1 933 46 discriminator 6 view .LVU1423
 4734 0068 034B     		ldr	r3, .L232
 4735              	.LVL475:
 933:Middlewares/LVGL/GUI/lvgl/src/core/lv_obj_pos.c ****     return LV_CLAMP(min_width, width, max_width);
 4736              		.loc 1 933 46 discriminator 6 view .LVU1424
 4737 006a 83FB0123 		smull	r2, r3, r3, r1
 4738              	.LVL476:
 933:Middlewares/LVGL/GUI/lvgl/src/core/lv_obj_pos.c ****     return LV_CLAMP(min_width, width, max_width);
 4739              		.loc 1 933 46 discriminator 6 view .LVU1425
 4740 006e C917     		asrs	r1, r1, #31
 4741 0070 C1EB6312 		rsb	r2, r1, r3, asr #5
 4742              	.LVL477:
 933:Middlewares/LVGL/GUI/lvgl/src/core/lv_obj_pos.c ****     return LV_CLAMP(min_width, width, max_width);
 4743              		.loc 1 933 46 discriminator 6 view .LVU1426
 4744 0074 D1E7     		b	.L227
 4745              	.L233:
 4746 0076 00BF     		.align	2
 4747              	.L232:
 4748 0078 1F85EB51 		.word	1374389535
 4749              		.cfi_endproc
 4750              	.LFE201:
 4752              		.section	.text.lv_clamp_height,"ax",%progbits
 4753              		.align	1
 4754              		.global	lv_clamp_height
 4755              		.syntax unified
 4756              		.thumb
 4757              		.thumb_func
 4759              	lv_clamp_height:
 4760              	.LVL478:
 4761              	.LFB202:
 938:Middlewares/LVGL/GUI/lvgl/src/core/lv_obj_pos.c ****     if(LV_COORD_IS_PCT(min_height)) min_height = (ref_height * LV_COORD_GET_PCT(min_height)) / 100;
 4762              		.loc 1 938 1 is_stmt 1 view -0
 4763              		.cfi_startproc
 4764              		@ args = 0, pretend = 0, frame = 0
 4765              		@ frame_needed = 0, uses_anonymous_args = 0
 938:Middlewares/LVGL/GUI/lvgl/src/core/lv_obj_pos.c ****     if(LV_COORD_IS_PCT(min_height)) min_height = (ref_height * LV_COORD_GET_PCT(min_height)) / 100;
 4766              		.loc 1 938 1 is_stmt 0 view .LVU1428
 4767 0000 00B5     		push	{lr}
 4768              	.LCFI74:
 4769              		.cfi_def_cfa_offset 4
 4770              		.cfi_offset 14, -4
 4771 0002 8446     		mov	ip, r0
 4772 0004 0846     		mov	r0, r1
 4773              	.LVL479:
 939:Middlewares/LVGL/GUI/lvgl/src/core/lv_obj_pos.c ****     if(LV_COORD_IS_PCT(max_height)) max_height = (ref_height * LV_COORD_GET_PCT(max_height)) / 100;
 4774              		.loc 1 939 5 is_stmt 1 view .LVU1429
 939:Middlewares/LVGL/GUI/lvgl/src/core/lv_obj_pos.c ****     if(LV_COORD_IS_PCT(max_height)) max_height = (ref_height * LV_COORD_GET_PCT(max_height)) / 100;
 4775              		.loc 1 939 8 is_stmt 0 view .LVU1430
 4776 0006 01F0C041 		and	r1, r1, #1610612736
 4777              	.LVL480:
ARM GAS  C:\Users\ADMINI~1\AppData\Local\Temp\ccVA75Tx.s 			page 132


 939:Middlewares/LVGL/GUI/lvgl/src/core/lv_obj_pos.c ****     if(LV_COORD_IS_PCT(max_height)) max_height = (ref_height * LV_COORD_GET_PCT(max_height)) / 100;
 4778              		.loc 1 939 7 view .LVU1431
 4779 000a B1F1005F 		cmp	r1, #536870912
 4780 000e 0CD0     		beq	.L240
 4781              	.L235:
 940:Middlewares/LVGL/GUI/lvgl/src/core/lv_obj_pos.c ****     return LV_CLAMP(min_height, height, max_height);
 4782              		.loc 1 940 5 is_stmt 1 view .LVU1432
 940:Middlewares/LVGL/GUI/lvgl/src/core/lv_obj_pos.c ****     return LV_CLAMP(min_height, height, max_height);
 4783              		.loc 1 940 8 is_stmt 0 view .LVU1433
 4784 0010 02F0C041 		and	r1, r2, #1610612736
 940:Middlewares/LVGL/GUI/lvgl/src/core/lv_obj_pos.c ****     return LV_CLAMP(min_height, height, max_height);
 4785              		.loc 1 940 7 view .LVU1434
 4786 0014 B1F1005F 		cmp	r1, #536870912
 4787 0018 1AD0     		beq	.L241
 4788              	.LVL481:
 4789              	.L237:
 941:Middlewares/LVGL/GUI/lvgl/src/core/lv_obj_pos.c **** }
 4790              		.loc 1 941 5 is_stmt 1 view .LVU1435
 941:Middlewares/LVGL/GUI/lvgl/src/core/lv_obj_pos.c **** }
 4791              		.loc 1 941 12 is_stmt 0 view .LVU1436
 4792 001a 6245     		cmp	r2, ip
 4793 001c A8BF     		it	ge
 4794 001e 6246     		movge	r2, ip
 4795              	.LVL482:
 942:Middlewares/LVGL/GUI/lvgl/src/core/lv_obj_pos.c **** 
 4796              		.loc 1 942 1 view .LVU1437
 4797 0020 9042     		cmp	r0, r2
 4798 0022 B8BF     		it	lt
 4799 0024 1046     		movlt	r0, r2
 4800              	.LVL483:
 942:Middlewares/LVGL/GUI/lvgl/src/core/lv_obj_pos.c **** 
 4801              		.loc 1 942 1 view .LVU1438
 4802 0026 5DF804FB 		ldr	pc, [sp], #4
 4803              	.LVL484:
 4804              	.L240:
 939:Middlewares/LVGL/GUI/lvgl/src/core/lv_obj_pos.c ****     if(LV_COORD_IS_PCT(max_height)) max_height = (ref_height * LV_COORD_GET_PCT(max_height)) / 100;
 4805              		.loc 1 939 8 discriminator 1 view .LVU1439
 4806 002a 20F0C041 		bic	r1, r0, #1610612736
 4807 002e B1F5FA6F 		cmp	r1, #2000
 4808 0032 EDDC     		bgt	.L235
 939:Middlewares/LVGL/GUI/lvgl/src/core/lv_obj_pos.c ****     if(LV_COORD_IS_PCT(max_height)) max_height = (ref_height * LV_COORD_GET_PCT(max_height)) / 100;
 4809              		.loc 1 939 37 is_stmt 1 discriminator 2 view .LVU1440
 939:Middlewares/LVGL/GUI/lvgl/src/core/lv_obj_pos.c ****     if(LV_COORD_IS_PCT(max_height)) max_height = (ref_height * LV_COORD_GET_PCT(max_height)) / 100;
 4810              		.loc 1 939 64 is_stmt 0 discriminator 2 view .LVU1441
 4811 0034 B1F57A7F 		cmp	r1, #1000
 4812 0038 01DD     		ble	.L236
 939:Middlewares/LVGL/GUI/lvgl/src/core/lv_obj_pos.c ****     if(LV_COORD_IS_PCT(max_height)) max_height = (ref_height * LV_COORD_GET_PCT(max_height)) / 100;
 4813              		.loc 1 939 64 discriminator 3 view .LVU1442
 4814 003a C1F57A71 		rsb	r1, r1, #1000
 4815              	.L236:
 939:Middlewares/LVGL/GUI/lvgl/src/core/lv_obj_pos.c ****     if(LV_COORD_IS_PCT(max_height)) max_height = (ref_height * LV_COORD_GET_PCT(max_height)) / 100;
 4816              		.loc 1 939 62 discriminator 6 view .LVU1443
 4817 003e 03FB01F1 		mul	r1, r3, r1
 939:Middlewares/LVGL/GUI/lvgl/src/core/lv_obj_pos.c ****     if(LV_COORD_IS_PCT(max_height)) max_height = (ref_height * LV_COORD_GET_PCT(max_height)) / 100;
 4818              		.loc 1 939 48 discriminator 6 view .LVU1444
 4819 0042 0D48     		ldr	r0, .L242
 4820              	.LVL485:
ARM GAS  C:\Users\ADMINI~1\AppData\Local\Temp\ccVA75Tx.s 			page 133


 939:Middlewares/LVGL/GUI/lvgl/src/core/lv_obj_pos.c ****     if(LV_COORD_IS_PCT(max_height)) max_height = (ref_height * LV_COORD_GET_PCT(max_height)) / 100;
 4821              		.loc 1 939 48 discriminator 6 view .LVU1445
 4822 0044 80FB01E0 		smull	lr, r0, r0, r1
 4823 0048 C917     		asrs	r1, r1, #31
 4824 004a C1EB6010 		rsb	r0, r1, r0, asr #5
 4825              	.LVL486:
 939:Middlewares/LVGL/GUI/lvgl/src/core/lv_obj_pos.c ****     if(LV_COORD_IS_PCT(max_height)) max_height = (ref_height * LV_COORD_GET_PCT(max_height)) / 100;
 4826              		.loc 1 939 48 discriminator 6 view .LVU1446
 4827 004e DFE7     		b	.L235
 4828              	.L241:
 940:Middlewares/LVGL/GUI/lvgl/src/core/lv_obj_pos.c ****     return LV_CLAMP(min_height, height, max_height);
 4829              		.loc 1 940 8 discriminator 1 view .LVU1447
 4830 0050 22F0C041 		bic	r1, r2, #1610612736
 4831 0054 B1F5FA6F 		cmp	r1, #2000
 4832 0058 DFDC     		bgt	.L237
 940:Middlewares/LVGL/GUI/lvgl/src/core/lv_obj_pos.c ****     return LV_CLAMP(min_height, height, max_height);
 4833              		.loc 1 940 37 is_stmt 1 discriminator 2 view .LVU1448
 940:Middlewares/LVGL/GUI/lvgl/src/core/lv_obj_pos.c ****     return LV_CLAMP(min_height, height, max_height);
 4834              		.loc 1 940 64 is_stmt 0 discriminator 2 view .LVU1449
 4835 005a B1F57A7F 		cmp	r1, #1000
 4836 005e 01DD     		ble	.L238
 940:Middlewares/LVGL/GUI/lvgl/src/core/lv_obj_pos.c ****     return LV_CLAMP(min_height, height, max_height);
 4837              		.loc 1 940 64 discriminator 3 view .LVU1450
 4838 0060 C1F57A71 		rsb	r1, r1, #1000
 4839              	.L238:
 940:Middlewares/LVGL/GUI/lvgl/src/core/lv_obj_pos.c ****     return LV_CLAMP(min_height, height, max_height);
 4840              		.loc 1 940 62 discriminator 6 view .LVU1451
 4841 0064 03FB01F1 		mul	r1, r3, r1
 940:Middlewares/LVGL/GUI/lvgl/src/core/lv_obj_pos.c ****     return LV_CLAMP(min_height, height, max_height);
 4842              		.loc 1 940 48 discriminator 6 view .LVU1452
 4843 0068 034B     		ldr	r3, .L242
 4844              	.LVL487:
 940:Middlewares/LVGL/GUI/lvgl/src/core/lv_obj_pos.c ****     return LV_CLAMP(min_height, height, max_height);
 4845              		.loc 1 940 48 discriminator 6 view .LVU1453
 4846 006a 83FB0123 		smull	r2, r3, r3, r1
 4847              	.LVL488:
 940:Middlewares/LVGL/GUI/lvgl/src/core/lv_obj_pos.c ****     return LV_CLAMP(min_height, height, max_height);
 4848              		.loc 1 940 48 discriminator 6 view .LVU1454
 4849 006e C917     		asrs	r1, r1, #31
 4850 0070 C1EB6312 		rsb	r2, r1, r3, asr #5
 4851              	.LVL489:
 940:Middlewares/LVGL/GUI/lvgl/src/core/lv_obj_pos.c ****     return LV_CLAMP(min_height, height, max_height);
 4852              		.loc 1 940 48 discriminator 6 view .LVU1455
 4853 0074 D1E7     		b	.L237
 4854              	.L243:
 4855 0076 00BF     		.align	2
 4856              	.L242:
 4857 0078 1F85EB51 		.word	1374389535
 4858              		.cfi_endproc
 4859              	.LFE202:
 4861              		.section	.text.lv_obj_refr_size,"ax",%progbits
 4862              		.align	1
 4863              		.global	lv_obj_refr_size
 4864              		.syntax unified
 4865              		.thumb
 4866              		.thumb_func
 4868              	lv_obj_refr_size:
ARM GAS  C:\Users\ADMINI~1\AppData\Local\Temp\ccVA75Tx.s 			page 134


 4869              	.LVL490:
 4870              	.LFB162:
  80:Middlewares/LVGL/GUI/lvgl/src/core/lv_obj_pos.c ****     LV_ASSERT_OBJ(obj, MY_CLASS);
 4871              		.loc 1 80 1 is_stmt 1 view -0
 4872              		.cfi_startproc
 4873              		@ args = 0, pretend = 0, frame = 40
 4874              		@ frame_needed = 0, uses_anonymous_args = 0
  81:Middlewares/LVGL/GUI/lvgl/src/core/lv_obj_pos.c **** 
 4875              		.loc 1 81 5 view .LVU1457
  81:Middlewares/LVGL/GUI/lvgl/src/core/lv_obj_pos.c **** 
 4876              		.loc 1 81 5 view .LVU1458
  81:Middlewares/LVGL/GUI/lvgl/src/core/lv_obj_pos.c **** 
 4877              		.loc 1 81 5 view .LVU1459
  84:Middlewares/LVGL/GUI/lvgl/src/core/lv_obj_pos.c **** 
 4878              		.loc 1 84 5 view .LVU1460
  84:Middlewares/LVGL/GUI/lvgl/src/core/lv_obj_pos.c **** 
 4879              		.loc 1 84 22 is_stmt 0 view .LVU1461
 4880 0000 90F82B30 		ldrb	r3, [r0, #43]	@ zero_extendqisi2
 4881 0004 03F00603 		and	r3, r3, #6
  84:Middlewares/LVGL/GUI/lvgl/src/core/lv_obj_pos.c **** 
 4882              		.loc 1 84 7 view .LVU1462
 4883 0008 062B     		cmp	r3, #6
 4884 000a 00F08481 		beq	.L267
  80:Middlewares/LVGL/GUI/lvgl/src/core/lv_obj_pos.c ****     LV_ASSERT_OBJ(obj, MY_CLASS);
 4885              		.loc 1 80 1 view .LVU1463
 4886 000e 2DE9F04F 		push	{r4, r5, r6, r7, r8, r9, r10, fp, lr}
 4887              	.LCFI75:
 4888              		.cfi_def_cfa_offset 36
 4889              		.cfi_offset 4, -36
 4890              		.cfi_offset 5, -32
 4891              		.cfi_offset 6, -28
 4892              		.cfi_offset 7, -24
 4893              		.cfi_offset 8, -20
 4894              		.cfi_offset 9, -16
 4895              		.cfi_offset 10, -12
 4896              		.cfi_offset 11, -8
 4897              		.cfi_offset 14, -4
 4898 0012 8BB0     		sub	sp, sp, #44
 4899              	.LCFI76:
 4900              		.cfi_def_cfa_offset 80
 4901 0014 0446     		mov	r4, r0
  86:Middlewares/LVGL/GUI/lvgl/src/core/lv_obj_pos.c ****     if(parent == NULL) return false;
 4902              		.loc 1 86 5 is_stmt 1 view .LVU1464
  86:Middlewares/LVGL/GUI/lvgl/src/core/lv_obj_pos.c ****     if(parent == NULL) return false;
 4903              		.loc 1 86 25 is_stmt 0 view .LVU1465
 4904 0016 FFF7FEFF 		bl	lv_obj_get_parent
 4905              	.LVL491:
  87:Middlewares/LVGL/GUI/lvgl/src/core/lv_obj_pos.c **** 
 4906              		.loc 1 87 5 is_stmt 1 view .LVU1466
  87:Middlewares/LVGL/GUI/lvgl/src/core/lv_obj_pos.c **** 
 4907              		.loc 1 87 7 is_stmt 0 view .LVU1467
 4908 001a 0546     		mov	r5, r0
 4909 001c 0028     		cmp	r0, #0
 4910 001e 00F07C81 		beq	.L268
  89:Middlewares/LVGL/GUI/lvgl/src/core/lv_obj_pos.c ****     bool w_is_content = false;
 4911              		.loc 1 89 5 is_stmt 1 view .LVU1468
  89:Middlewares/LVGL/GUI/lvgl/src/core/lv_obj_pos.c ****     bool w_is_content = false;
ARM GAS  C:\Users\ADMINI~1\AppData\Local\Temp\ccVA75Tx.s 			page 135


 4912              		.loc 1 89 25 is_stmt 0 view .LVU1469
 4913 0022 2046     		mov	r0, r4
 4914              	.LVL492:
  89:Middlewares/LVGL/GUI/lvgl/src/core/lv_obj_pos.c ****     bool w_is_content = false;
 4915              		.loc 1 89 25 view .LVU1470
 4916 0024 FFF7FEFF 		bl	lv_obj_get_scroll_left
 4917              	.LVL493:
 4918 0028 8046     		mov	r8, r0
 4919              	.LVL494:
  90:Middlewares/LVGL/GUI/lvgl/src/core/lv_obj_pos.c ****     bool w_is_pct = false;
 4920              		.loc 1 90 5 is_stmt 1 view .LVU1471
  91:Middlewares/LVGL/GUI/lvgl/src/core/lv_obj_pos.c **** 
 4921              		.loc 1 91 5 view .LVU1472
  93:Middlewares/LVGL/GUI/lvgl/src/core/lv_obj_pos.c ****     if(obj->w_layout) {
 4922              		.loc 1 93 5 view .LVU1473
  94:Middlewares/LVGL/GUI/lvgl/src/core/lv_obj_pos.c ****         w = lv_obj_get_width(obj);
 4923              		.loc 1 94 5 view .LVU1474
  94:Middlewares/LVGL/GUI/lvgl/src/core/lv_obj_pos.c ****         w = lv_obj_get_width(obj);
 4924              		.loc 1 94 8 is_stmt 0 view .LVU1475
 4925 002a 94F82B30 		ldrb	r3, [r4, #43]	@ zero_extendqisi2
  94:Middlewares/LVGL/GUI/lvgl/src/core/lv_obj_pos.c ****         w = lv_obj_get_width(obj);
 4926              		.loc 1 94 7 view .LVU1476
 4927 002e 13F0040F 		tst	r3, #4
 4928 0032 76D0     		beq	.L246
  95:Middlewares/LVGL/GUI/lvgl/src/core/lv_obj_pos.c ****     }
 4929              		.loc 1 95 9 is_stmt 1 view .LVU1477
  95:Middlewares/LVGL/GUI/lvgl/src/core/lv_obj_pos.c ****     }
 4930              		.loc 1 95 13 is_stmt 0 view .LVU1478
 4931 0034 2046     		mov	r0, r4
 4932              	.LVL495:
  95:Middlewares/LVGL/GUI/lvgl/src/core/lv_obj_pos.c ****     }
 4933              		.loc 1 95 13 view .LVU1479
 4934 0036 FFF7FEFF 		bl	lv_obj_get_width
 4935              	.LVL496:
 4936 003a 0646     		mov	r6, r0
 4937              	.LVL497:
  90:Middlewares/LVGL/GUI/lvgl/src/core/lv_obj_pos.c ****     bool w_is_pct = false;
 4938              		.loc 1 90 10 view .LVU1480
 4939 003c 4FF0000A 		mov	r10, #0
 4940              	.LVL498:
 4941              	.L247:
 124:Middlewares/LVGL/GUI/lvgl/src/core/lv_obj_pos.c ****     lv_coord_t h;
 4942              		.loc 1 124 5 is_stmt 1 view .LVU1481
 124:Middlewares/LVGL/GUI/lvgl/src/core/lv_obj_pos.c ****     lv_coord_t h;
 4943              		.loc 1 124 25 is_stmt 0 view .LVU1482
 4944 0040 2046     		mov	r0, r4
 4945              	.LVL499:
 124:Middlewares/LVGL/GUI/lvgl/src/core/lv_obj_pos.c ****     lv_coord_t h;
 4946              		.loc 1 124 25 view .LVU1483
 4947 0042 FFF7FEFF 		bl	lv_obj_get_scroll_top
 4948              	.LVL500:
 4949 0046 8146     		mov	r9, r0
 4950              	.LVL501:
 125:Middlewares/LVGL/GUI/lvgl/src/core/lv_obj_pos.c ****     bool h_is_content = false;
 4951              		.loc 1 125 5 is_stmt 1 view .LVU1484
 126:Middlewares/LVGL/GUI/lvgl/src/core/lv_obj_pos.c ****     bool h_is_pct = false;
 4952              		.loc 1 126 5 view .LVU1485
ARM GAS  C:\Users\ADMINI~1\AppData\Local\Temp\ccVA75Tx.s 			page 136


 127:Middlewares/LVGL/GUI/lvgl/src/core/lv_obj_pos.c ****     if(obj->h_layout) {
 4953              		.loc 1 127 5 view .LVU1486
 128:Middlewares/LVGL/GUI/lvgl/src/core/lv_obj_pos.c ****         h = lv_obj_get_height(obj);
 4954              		.loc 1 128 5 view .LVU1487
 128:Middlewares/LVGL/GUI/lvgl/src/core/lv_obj_pos.c ****         h = lv_obj_get_height(obj);
 4955              		.loc 1 128 8 is_stmt 0 view .LVU1488
 4956 0048 94F82B30 		ldrb	r3, [r4, #43]	@ zero_extendqisi2
 128:Middlewares/LVGL/GUI/lvgl/src/core/lv_obj_pos.c ****         h = lv_obj_get_height(obj);
 4957              		.loc 1 128 7 view .LVU1489
 4958 004c 13F0020F 		tst	r3, #2
 4959 0050 00F0E080 		beq	.L253
 129:Middlewares/LVGL/GUI/lvgl/src/core/lv_obj_pos.c ****     }
 4960              		.loc 1 129 9 is_stmt 1 view .LVU1490
 129:Middlewares/LVGL/GUI/lvgl/src/core/lv_obj_pos.c ****     }
 4961              		.loc 1 129 13 is_stmt 0 view .LVU1491
 4962 0054 2046     		mov	r0, r4
 4963              	.LVL502:
 129:Middlewares/LVGL/GUI/lvgl/src/core/lv_obj_pos.c ****     }
 4964              		.loc 1 129 13 view .LVU1492
 4965 0056 FFF7FEFF 		bl	lv_obj_get_height
 4966              	.LVL503:
 4967 005a 0746     		mov	r7, r0
 4968              	.LVL504:
 126:Middlewares/LVGL/GUI/lvgl/src/core/lv_obj_pos.c ****     bool h_is_pct = false;
 4969              		.loc 1 126 10 view .LVU1493
 4970 005c 4FF0000B 		mov	fp, #0
 4971              	.LVL505:
 4972              	.L254:
 159:Middlewares/LVGL/GUI/lvgl/src/core/lv_obj_pos.c ****         lv_obj_scroll_to(obj, sl_ori, st_ori, LV_ANIM_OFF);
 4973              		.loc 1 159 5 is_stmt 1 view .LVU1494
 159:Middlewares/LVGL/GUI/lvgl/src/core/lv_obj_pos.c ****         lv_obj_scroll_to(obj, sl_ori, st_ori, LV_ANIM_OFF);
 4974              		.loc 1 159 7 is_stmt 0 view .LVU1495
 4975 0060 BAF1000F 		cmp	r10, #0
 4976 0064 02D1     		bne	.L260
 159:Middlewares/LVGL/GUI/lvgl/src/core/lv_obj_pos.c ****         lv_obj_scroll_to(obj, sl_ori, st_ori, LV_ANIM_OFF);
 4977              		.loc 1 159 21 discriminator 1 view .LVU1496
 4978 0066 BBF1000F 		cmp	fp, #0
 4979 006a 05D0     		beq	.L261
 4980              	.L260:
 160:Middlewares/LVGL/GUI/lvgl/src/core/lv_obj_pos.c ****     }
 4981              		.loc 1 160 9 is_stmt 1 view .LVU1497
 4982 006c 0023     		movs	r3, #0
 4983 006e 4A46     		mov	r2, r9
 4984 0070 4146     		mov	r1, r8
 4985 0072 2046     		mov	r0, r4
 4986              	.LVL506:
 160:Middlewares/LVGL/GUI/lvgl/src/core/lv_obj_pos.c ****     }
 4987              		.loc 1 160 9 is_stmt 0 view .LVU1498
 4988 0074 FFF7FEFF 		bl	lv_obj_scroll_to
 4989              	.LVL507:
 4990              	.L261:
 165:Middlewares/LVGL/GUI/lvgl/src/core/lv_obj_pos.c **** 
 4991              		.loc 1 165 5 is_stmt 1 view .LVU1499
 165:Middlewares/LVGL/GUI/lvgl/src/core/lv_obj_pos.c **** 
 4992              		.loc 1 165 8 is_stmt 0 view .LVU1500
 4993 0078 2046     		mov	r0, r4
 4994 007a FFF7FEFF 		bl	lv_obj_get_width
ARM GAS  C:\Users\ADMINI~1\AppData\Local\Temp\ccVA75Tx.s 			page 137


 4995              	.LVL508:
 165:Middlewares/LVGL/GUI/lvgl/src/core/lv_obj_pos.c **** 
 4996              		.loc 1 165 7 view .LVU1501
 4997 007e B042     		cmp	r0, r6
 4998 0080 05D1     		bne	.L262
 165:Middlewares/LVGL/GUI/lvgl/src/core/lv_obj_pos.c **** 
 4999              		.loc 1 165 38 discriminator 1 view .LVU1502
 5000 0082 2046     		mov	r0, r4
 5001 0084 FFF7FEFF 		bl	lv_obj_get_height
 5002              	.LVL509:
 165:Middlewares/LVGL/GUI/lvgl/src/core/lv_obj_pos.c **** 
 5003              		.loc 1 165 35 discriminator 1 view .LVU1503
 5004 0088 B842     		cmp	r0, r7
 5005 008a 00F04881 		beq	.L273
 5006              	.L262:
 168:Middlewares/LVGL/GUI/lvgl/src/core/lv_obj_pos.c **** 
 5007              		.loc 1 168 5 is_stmt 1 view .LVU1504
 5008 008e 2046     		mov	r0, r4
 5009 0090 FFF7FEFF 		bl	lv_obj_invalidate
 5010              	.LVL510:
 171:Middlewares/LVGL/GUI/lvgl/src/core/lv_obj_pos.c ****     lv_obj_get_coords(obj, &ori);
 5011              		.loc 1 171 5 view .LVU1505
 172:Middlewares/LVGL/GUI/lvgl/src/core/lv_obj_pos.c **** 
 5012              		.loc 1 172 5 view .LVU1506
 5013 0094 06A9     		add	r1, sp, #24
 5014 0096 2046     		mov	r0, r4
 5015 0098 FFF7FEFF 		bl	lv_obj_get_coords
 5016              	.LVL511:
 175:Middlewares/LVGL/GUI/lvgl/src/core/lv_obj_pos.c ****     lv_obj_get_content_coords(parent, &parent_fit_area);
 5017              		.loc 1 175 5 view .LVU1507
 176:Middlewares/LVGL/GUI/lvgl/src/core/lv_obj_pos.c **** 
 5018              		.loc 1 176 5 view .LVU1508
 5019 009c 02A9     		add	r1, sp, #8
 5020 009e 2846     		mov	r0, r5
 5021 00a0 FFF7FEFF 		bl	lv_obj_get_content_coords
 5022              	.LVL512:
 180:Middlewares/LVGL/GUI/lvgl/src/core/lv_obj_pos.c ****     if(!on1) lv_obj_scrollbar_invalidate(parent);
 5023              		.loc 1 180 5 view .LVU1509
 180:Middlewares/LVGL/GUI/lvgl/src/core/lv_obj_pos.c ****     if(!on1) lv_obj_scrollbar_invalidate(parent);
 5024              		.loc 1 180 16 is_stmt 0 view .LVU1510
 5025 00a4 0022     		movs	r2, #0
 5026 00a6 02A9     		add	r1, sp, #8
 5027 00a8 06A8     		add	r0, sp, #24
 5028 00aa FFF7FEFF 		bl	_lv_area_is_in
 5029              	.LVL513:
 181:Middlewares/LVGL/GUI/lvgl/src/core/lv_obj_pos.c **** 
 5030              		.loc 1 181 5 is_stmt 1 view .LVU1511
 181:Middlewares/LVGL/GUI/lvgl/src/core/lv_obj_pos.c **** 
 5031              		.loc 1 181 7 is_stmt 0 view .LVU1512
 5032 00ae 8046     		mov	r8, r0
 5033              	.LVL514:
 181:Middlewares/LVGL/GUI/lvgl/src/core/lv_obj_pos.c **** 
 5034              		.loc 1 181 7 view .LVU1513
 5035 00b0 0028     		cmp	r0, #0
 5036 00b2 00F02781 		beq	.L279
 5037              	.LVL515:
 5038              	.L263:
ARM GAS  C:\Users\ADMINI~1\AppData\Local\Temp\ccVA75Tx.s 			page 138


 185:Middlewares/LVGL/GUI/lvgl/src/core/lv_obj_pos.c ****     if(lv_obj_get_style_base_dir(obj, LV_PART_MAIN) == LV_BASE_DIR_RTL) {
 5039              		.loc 1 185 5 is_stmt 1 view .LVU1514
 185:Middlewares/LVGL/GUI/lvgl/src/core/lv_obj_pos.c ****     if(lv_obj_get_style_base_dir(obj, LV_PART_MAIN) == LV_BASE_DIR_RTL) {
 5040              		.loc 1 185 33 is_stmt 0 view .LVU1515
 5041 00b6 A069     		ldr	r0, [r4, #24]
 185:Middlewares/LVGL/GUI/lvgl/src/core/lv_obj_pos.c ****     if(lv_obj_get_style_base_dir(obj, LV_PART_MAIN) == LV_BASE_DIR_RTL) {
 5042              		.loc 1 185 37 view .LVU1516
 5043 00b8 3844     		add	r0, r0, r7
 185:Middlewares/LVGL/GUI/lvgl/src/core/lv_obj_pos.c ****     if(lv_obj_get_style_base_dir(obj, LV_PART_MAIN) == LV_BASE_DIR_RTL) {
 5044              		.loc 1 185 41 view .LVU1517
 5045 00ba 0138     		subs	r0, r0, #1
 185:Middlewares/LVGL/GUI/lvgl/src/core/lv_obj_pos.c ****     if(lv_obj_get_style_base_dir(obj, LV_PART_MAIN) == LV_BASE_DIR_RTL) {
 5046              		.loc 1 185 20 view .LVU1518
 5047 00bc 2062     		str	r0, [r4, #32]
 186:Middlewares/LVGL/GUI/lvgl/src/core/lv_obj_pos.c ****         obj->coords.x1 = obj->coords.x2 - w + 1;
 5048              		.loc 1 186 5 is_stmt 1 view .LVU1519
 5049              	.LVL516:
 5050              	.LBB328:
 5051              	.LBI328:
 542:Middlewares/LVGL/GUI/lvgl/src/core/lv_obj_style_gen.h **** {
 5052              		.loc 2 542 29 view .LVU1520
 5053              	.LBB329:
 544:Middlewares/LVGL/GUI/lvgl/src/core/lv_obj_style_gen.h ****     return (lv_base_dir_t)v.num;
 5054              		.loc 2 544 5 view .LVU1521
 544:Middlewares/LVGL/GUI/lvgl/src/core/lv_obj_style_gen.h ****     return (lv_base_dir_t)v.num;
 5055              		.loc 2 544 26 is_stmt 0 view .LVU1522
 5056 00be 41F26A42 		movw	r2, #5226
 5057 00c2 0021     		movs	r1, #0
 5058 00c4 2046     		mov	r0, r4
 5059 00c6 FFF7FEFF 		bl	lv_obj_get_style_prop
 5060              	.LVL517:
 5061              		.loc 2 545 5 is_stmt 1 view .LVU1523
 5062              		.loc 2 545 12 is_stmt 0 view .LVU1524
 5063 00ca C0B2     		uxtb	r0, r0
 5064              	.LVL518:
 5065              		.loc 2 545 12 view .LVU1525
 5066              	.LBE329:
 5067              	.LBE328:
 186:Middlewares/LVGL/GUI/lvgl/src/core/lv_obj_pos.c ****         obj->coords.x1 = obj->coords.x2 - w + 1;
 5068              		.loc 1 186 7 view .LVU1526
 5069 00cc 0128     		cmp	r0, #1
 5070 00ce 00F01D81 		beq	.L280
 190:Middlewares/LVGL/GUI/lvgl/src/core/lv_obj_pos.c ****     }
 5071              		.loc 1 190 9 is_stmt 1 view .LVU1527
 190:Middlewares/LVGL/GUI/lvgl/src/core/lv_obj_pos.c ****     }
 5072              		.loc 1 190 37 is_stmt 0 view .LVU1528
 5073 00d2 6069     		ldr	r0, [r4, #20]
 190:Middlewares/LVGL/GUI/lvgl/src/core/lv_obj_pos.c ****     }
 5074              		.loc 1 190 41 view .LVU1529
 5075 00d4 3044     		add	r0, r0, r6
 190:Middlewares/LVGL/GUI/lvgl/src/core/lv_obj_pos.c ****     }
 5076              		.loc 1 190 45 view .LVU1530
 5077 00d6 0138     		subs	r0, r0, #1
 190:Middlewares/LVGL/GUI/lvgl/src/core/lv_obj_pos.c ****     }
 5078              		.loc 1 190 24 view .LVU1531
 5079 00d8 E061     		str	r0, [r4, #28]
 5080              	.L265:
ARM GAS  C:\Users\ADMINI~1\AppData\Local\Temp\ccVA75Tx.s 			page 139


 194:Middlewares/LVGL/GUI/lvgl/src/core/lv_obj_pos.c **** 
 5081              		.loc 1 194 5 is_stmt 1 view .LVU1532
 5082 00da 06AA     		add	r2, sp, #24
 5083 00dc 2921     		movs	r1, #41
 5084 00de 2046     		mov	r0, r4
 5085 00e0 FFF7FEFF 		bl	lv_event_send
 5086              	.LVL519:
 197:Middlewares/LVGL/GUI/lvgl/src/core/lv_obj_pos.c **** 
 5087              		.loc 1 197 5 view .LVU1533
 5088 00e4 2246     		mov	r2, r4
 5089 00e6 2221     		movs	r1, #34
 5090 00e8 2846     		mov	r0, r5
 5091 00ea FFF7FEFF 		bl	lv_event_send
 5092              	.LVL520:
 200:Middlewares/LVGL/GUI/lvgl/src/core/lv_obj_pos.c **** 
 5093              		.loc 1 200 5 view .LVU1534
 5094 00ee 2046     		mov	r0, r4
 5095 00f0 FFF7FEFF 		bl	lv_obj_invalidate
 5096              	.LVL521:
 202:Middlewares/LVGL/GUI/lvgl/src/core/lv_obj_pos.c **** 
 5097              		.loc 1 202 5 view .LVU1535
 5098 00f4 0021     		movs	r1, #0
 5099 00f6 2046     		mov	r0, r4
 5100 00f8 FFF7FEFF 		bl	lv_obj_readjust_scroll
 5101              	.LVL522:
 206:Middlewares/LVGL/GUI/lvgl/src/core/lv_obj_pos.c ****     if(on1 || (!on1 && on2)) lv_obj_scrollbar_invalidate(parent);
 5102              		.loc 1 206 5 view .LVU1536
 206:Middlewares/LVGL/GUI/lvgl/src/core/lv_obj_pos.c ****     if(on1 || (!on1 && on2)) lv_obj_scrollbar_invalidate(parent);
 5103              		.loc 1 206 16 is_stmt 0 view .LVU1537
 5104 00fc 0022     		movs	r2, #0
 5105 00fe 02A9     		add	r1, sp, #8
 5106 0100 04F11400 		add	r0, r4, #20
 5107 0104 FFF7FEFF 		bl	_lv_area_is_in
 5108              	.LVL523:
 207:Middlewares/LVGL/GUI/lvgl/src/core/lv_obj_pos.c **** 
 5109              		.loc 1 207 5 is_stmt 1 view .LVU1538
 207:Middlewares/LVGL/GUI/lvgl/src/core/lv_obj_pos.c **** 
 5110              		.loc 1 207 7 is_stmt 0 view .LVU1539
 5111 0108 B8F1000F 		cmp	r8, #0
 5112 010c 02D1     		bne	.L266
 207:Middlewares/LVGL/GUI/lvgl/src/core/lv_obj_pos.c **** 
 5113              		.loc 1 207 21 discriminator 3 view .LVU1540
 5114 010e 0028     		cmp	r0, #0
 5115 0110 00F00781 		beq	.L274
 5116              	.L266:
 207:Middlewares/LVGL/GUI/lvgl/src/core/lv_obj_pos.c **** 
 5117              		.loc 1 207 30 is_stmt 1 discriminator 4 view .LVU1541
 5118 0114 2846     		mov	r0, r5
 5119              	.LVL524:
 207:Middlewares/LVGL/GUI/lvgl/src/core/lv_obj_pos.c **** 
 5120              		.loc 1 207 30 is_stmt 0 discriminator 4 view .LVU1542
 5121 0116 FFF7FEFF 		bl	lv_obj_scrollbar_invalidate
 5122              	.LVL525:
 209:Middlewares/LVGL/GUI/lvgl/src/core/lv_obj_pos.c **** }
 5123              		.loc 1 209 12 discriminator 4 view .LVU1543
 5124 011a 0120     		movs	r0, #1
 5125              	.LVL526:
ARM GAS  C:\Users\ADMINI~1\AppData\Local\Temp\ccVA75Tx.s 			page 140


 5126              	.L245:
 210:Middlewares/LVGL/GUI/lvgl/src/core/lv_obj_pos.c **** 
 5127              		.loc 1 210 1 view .LVU1544
 5128 011c 0BB0     		add	sp, sp, #44
 5129              	.LCFI77:
 5130              		.cfi_remember_state
 5131              		.cfi_def_cfa_offset 36
 5132              		@ sp needed
 5133 011e BDE8F08F 		pop	{r4, r5, r6, r7, r8, r9, r10, fp, pc}
 5134              	.LVL527:
 5135              	.L246:
 5136              	.LCFI78:
 5137              		.cfi_restore_state
 5138              	.LBB330:
  98:Middlewares/LVGL/GUI/lvgl/src/core/lv_obj_pos.c ****         w_is_content = w == LV_SIZE_CONTENT ? true : false;
 5139              		.loc 1 98 9 is_stmt 1 view .LVU1545
 5140              	.LBB331:
 5141              	.LBI331:
   1:Middlewares/LVGL/GUI/lvgl/src/core/lv_obj_style_gen.h **** {
 5142              		.loc 2 1 26 view .LVU1546
 5143              	.LBB332:
   3:Middlewares/LVGL/GUI/lvgl/src/core/lv_obj_style_gen.h ****     return (lv_coord_t)v.num;
 5144              		.loc 2 3 5 view .LVU1547
   3:Middlewares/LVGL/GUI/lvgl/src/core/lv_obj_style_gen.h ****     return (lv_coord_t)v.num;
 5145              		.loc 2 3 26 is_stmt 0 view .LVU1548
 5146 0122 41F20102 		movw	r2, #4097
 5147 0126 0021     		movs	r1, #0
 5148 0128 2046     		mov	r0, r4
 5149              	.LVL528:
   3:Middlewares/LVGL/GUI/lvgl/src/core/lv_obj_style_gen.h ****     return (lv_coord_t)v.num;
 5150              		.loc 2 3 26 view .LVU1549
 5151 012a FFF7FEFF 		bl	lv_obj_get_style_prop
 5152              	.LVL529:
 5153 012e 0646     		mov	r6, r0
   4:Middlewares/LVGL/GUI/lvgl/src/core/lv_obj_style_gen.h **** }
 5154              		.loc 2 4 5 is_stmt 1 view .LVU1550
 5155              	.LVL530:
   4:Middlewares/LVGL/GUI/lvgl/src/core/lv_obj_style_gen.h **** }
 5156              		.loc 2 4 5 is_stmt 0 view .LVU1551
 5157              	.LBE332:
 5158              	.LBE331:
  99:Middlewares/LVGL/GUI/lvgl/src/core/lv_obj_pos.c ****         w_is_pct = LV_COORD_IS_PCT(w) ? true : false;
 5159              		.loc 1 99 9 is_stmt 1 view .LVU1552
  99:Middlewares/LVGL/GUI/lvgl/src/core/lv_obj_pos.c ****         w_is_pct = LV_COORD_IS_PCT(w) ? true : false;
 5160              		.loc 1 99 22 is_stmt 0 view .LVU1553
 5161 0130 7D4B     		ldr	r3, .L287
 5162 0132 9842     		cmp	r0, r3
 5163 0134 14BF     		ite	ne
 5164 0136 4FF0000A 		movne	r10, #0
 5165 013a 4FF0010A 		moveq	r10, #1
 5166              	.LVL531:
 100:Middlewares/LVGL/GUI/lvgl/src/core/lv_obj_pos.c ****         lv_coord_t parent_w = lv_obj_get_content_width(parent);
 5167              		.loc 1 100 9 is_stmt 1 view .LVU1554
 100:Middlewares/LVGL/GUI/lvgl/src/core/lv_obj_pos.c ****         lv_coord_t parent_w = lv_obj_get_content_width(parent);
 5168              		.loc 1 100 20 is_stmt 0 view .LVU1555
 5169 013e 00F0C043 		and	r3, r0, #1610612736
 100:Middlewares/LVGL/GUI/lvgl/src/core/lv_obj_pos.c ****         lv_coord_t parent_w = lv_obj_get_content_width(parent);
ARM GAS  C:\Users\ADMINI~1\AppData\Local\Temp\ccVA75Tx.s 			page 141


 5170              		.loc 1 100 46 view .LVU1556
 5171 0142 B3F1005F 		cmp	r3, #536870912
 5172 0146 34D0     		beq	.L281
 5173 0148 4FF00009 		mov	r9, #0
 5174              	.L248:
 5175              	.LVL532:
 101:Middlewares/LVGL/GUI/lvgl/src/core/lv_obj_pos.c **** 
 5176              		.loc 1 101 9 is_stmt 1 discriminator 6 view .LVU1557
 101:Middlewares/LVGL/GUI/lvgl/src/core/lv_obj_pos.c **** 
 5177              		.loc 1 101 31 is_stmt 0 discriminator 6 view .LVU1558
 5178 014c 2846     		mov	r0, r5
 5179              	.LVL533:
 101:Middlewares/LVGL/GUI/lvgl/src/core/lv_obj_pos.c **** 
 5180              		.loc 1 101 31 discriminator 6 view .LVU1559
 5181 014e FFF7FEFF 		bl	lv_obj_get_content_width
 5182              	.LVL534:
 5183 0152 0746     		mov	r7, r0
 5184              	.LVL535:
 103:Middlewares/LVGL/GUI/lvgl/src/core/lv_obj_pos.c ****             w = calc_content_width(obj);
 5185              		.loc 1 103 9 is_stmt 1 discriminator 6 view .LVU1560
 103:Middlewares/LVGL/GUI/lvgl/src/core/lv_obj_pos.c ****             w = calc_content_width(obj);
 5186              		.loc 1 103 11 is_stmt 0 discriminator 6 view .LVU1561
 5187 0154 744B     		ldr	r3, .L287
 5188 0156 9E42     		cmp	r6, r3
 5189 0158 36D0     		beq	.L282
 106:Middlewares/LVGL/GUI/lvgl/src/core/lv_obj_pos.c ****             /*If parent has content size and the child has pct size
 5190              		.loc 1 106 14 is_stmt 1 view .LVU1562
 106:Middlewares/LVGL/GUI/lvgl/src/core/lv_obj_pos.c ****             /*If parent has content size and the child has pct size
 5191              		.loc 1 106 16 is_stmt 0 view .LVU1563
 5192 015a B9F1000F 		cmp	r9, #0
 5193 015e 13D0     		beq	.L250
 109:Middlewares/LVGL/GUI/lvgl/src/core/lv_obj_pos.c ****                 lv_coord_t border_w = lv_obj_get_style_border_width(obj, 0);
 5194              		.loc 1 109 13 is_stmt 1 view .LVU1564
 109:Middlewares/LVGL/GUI/lvgl/src/core/lv_obj_pos.c ****                 lv_coord_t border_w = lv_obj_get_style_border_width(obj, 0);
 5195              		.loc 1 109 33 is_stmt 0 view .LVU1565
 5196 0160 95F82B30 		ldrb	r3, [r5, #43]	@ zero_extendqisi2
 109:Middlewares/LVGL/GUI/lvgl/src/core/lv_obj_pos.c ****                 lv_coord_t border_w = lv_obj_get_style_border_width(obj, 0);
 5197              		.loc 1 109 15 view .LVU1566
 5198 0164 13F0040F 		tst	r3, #4
 5199 0168 33D0     		beq	.L283
 5200              	.LVL536:
 5201              	.L251:
 115:Middlewares/LVGL/GUI/lvgl/src/core/lv_obj_pos.c ****             }
 5202              		.loc 1 115 17 is_stmt 1 view .LVU1567
 115:Middlewares/LVGL/GUI/lvgl/src/core/lv_obj_pos.c ****             }
 5203              		.loc 1 115 22 is_stmt 0 view .LVU1568
 5204 016a 26F0C046 		bic	r6, r6, #1610612736
 5205              	.LVL537:
 115:Middlewares/LVGL/GUI/lvgl/src/core/lv_obj_pos.c ****             }
 5206              		.loc 1 115 22 view .LVU1569
 5207 016e B6F57A7F 		cmp	r6, #1000
 5208 0172 01DD     		ble	.L252
 115:Middlewares/LVGL/GUI/lvgl/src/core/lv_obj_pos.c ****             }
 5209              		.loc 1 115 22 discriminator 1 view .LVU1570
 5210 0174 C6F57A76 		rsb	r6, r6, #1000
 5211              	.L252:
 115:Middlewares/LVGL/GUI/lvgl/src/core/lv_obj_pos.c ****             }
ARM GAS  C:\Users\ADMINI~1\AppData\Local\Temp\ccVA75Tx.s 			page 142


 5212              		.loc 1 115 42 discriminator 4 view .LVU1571
 5213 0178 07FB06F6 		mul	r6, r7, r6
 115:Middlewares/LVGL/GUI/lvgl/src/core/lv_obj_pos.c ****             }
 5214              		.loc 1 115 19 discriminator 4 view .LVU1572
 5215 017c 6B48     		ldr	r0, .L287+4
 5216 017e 80FB0630 		smull	r3, r0, r0, r6
 5217 0182 F617     		asrs	r6, r6, #31
 5218 0184 C6EB6016 		rsb	r6, r6, r0, asr #5
 5219              	.LVL538:
 5220              	.L250:
 119:Middlewares/LVGL/GUI/lvgl/src/core/lv_obj_pos.c ****         lv_coord_t maxw = lv_obj_get_style_max_width(obj, LV_PART_MAIN);
 5221              		.loc 1 119 9 is_stmt 1 view .LVU1573
 5222              	.LBB333:
 5223              	.LBI333:
   7:Middlewares/LVGL/GUI/lvgl/src/core/lv_obj_style_gen.h **** {
 5224              		.loc 2 7 26 view .LVU1574
 5225              	.LBB334:
   9:Middlewares/LVGL/GUI/lvgl/src/core/lv_obj_style_gen.h ****     return (lv_coord_t)v.num;
 5226              		.loc 2 9 5 view .LVU1575
   9:Middlewares/LVGL/GUI/lvgl/src/core/lv_obj_style_gen.h ****     return (lv_coord_t)v.num;
 5227              		.loc 2 9 26 is_stmt 0 view .LVU1576
 5228 0188 41F20202 		movw	r2, #4098
 5229 018c 0021     		movs	r1, #0
 5230 018e 2046     		mov	r0, r4
 5231 0190 FFF7FEFF 		bl	lv_obj_get_style_prop
 5232              	.LVL539:
 5233 0194 8146     		mov	r9, r0
  10:Middlewares/LVGL/GUI/lvgl/src/core/lv_obj_style_gen.h **** }
 5234              		.loc 2 10 5 is_stmt 1 view .LVU1577
 5235              	.LVL540:
  10:Middlewares/LVGL/GUI/lvgl/src/core/lv_obj_style_gen.h **** }
 5236              		.loc 2 10 5 is_stmt 0 view .LVU1578
 5237              	.LBE334:
 5238              	.LBE333:
 120:Middlewares/LVGL/GUI/lvgl/src/core/lv_obj_pos.c ****         w = lv_clamp_width(w, minw, maxw, parent_w);
 5239              		.loc 1 120 9 is_stmt 1 view .LVU1579
 5240              	.LBB335:
 5241              	.LBI335:
  13:Middlewares/LVGL/GUI/lvgl/src/core/lv_obj_style_gen.h **** {
 5242              		.loc 2 13 26 view .LVU1580
 5243              	.LBB336:
  15:Middlewares/LVGL/GUI/lvgl/src/core/lv_obj_style_gen.h ****     return (lv_coord_t)v.num;
 5244              		.loc 2 15 5 view .LVU1581
  15:Middlewares/LVGL/GUI/lvgl/src/core/lv_obj_style_gen.h ****     return (lv_coord_t)v.num;
 5245              		.loc 2 15 26 is_stmt 0 view .LVU1582
 5246 0196 41F20302 		movw	r2, #4099
 5247 019a 0021     		movs	r1, #0
 5248 019c 2046     		mov	r0, r4
 5249              	.LVL541:
  15:Middlewares/LVGL/GUI/lvgl/src/core/lv_obj_style_gen.h ****     return (lv_coord_t)v.num;
 5250              		.loc 2 15 26 view .LVU1583
 5251 019e FFF7FEFF 		bl	lv_obj_get_style_prop
 5252              	.LVL542:
 5253 01a2 0246     		mov	r2, r0
  16:Middlewares/LVGL/GUI/lvgl/src/core/lv_obj_style_gen.h **** }
 5254              		.loc 2 16 5 is_stmt 1 view .LVU1584
 5255              	.LVL543:
ARM GAS  C:\Users\ADMINI~1\AppData\Local\Temp\ccVA75Tx.s 			page 143


  16:Middlewares/LVGL/GUI/lvgl/src/core/lv_obj_style_gen.h **** }
 5256              		.loc 2 16 5 is_stmt 0 view .LVU1585
 5257              	.LBE336:
 5258              	.LBE335:
 121:Middlewares/LVGL/GUI/lvgl/src/core/lv_obj_pos.c ****     }
 5259              		.loc 1 121 9 is_stmt 1 view .LVU1586
 121:Middlewares/LVGL/GUI/lvgl/src/core/lv_obj_pos.c ****     }
 5260              		.loc 1 121 13 is_stmt 0 view .LVU1587
 5261 01a4 3B46     		mov	r3, r7
 5262 01a6 4946     		mov	r1, r9
 5263 01a8 3046     		mov	r0, r6
 5264              	.LVL544:
 121:Middlewares/LVGL/GUI/lvgl/src/core/lv_obj_pos.c ****     }
 5265              		.loc 1 121 13 view .LVU1588
 5266 01aa FFF7FEFF 		bl	lv_clamp_width
 5267              	.LVL545:
 121:Middlewares/LVGL/GUI/lvgl/src/core/lv_obj_pos.c ****     }
 5268              		.loc 1 121 13 view .LVU1589
 5269 01ae 0646     		mov	r6, r0
 5270              	.LVL546:
 121:Middlewares/LVGL/GUI/lvgl/src/core/lv_obj_pos.c ****     }
 5271              		.loc 1 121 13 view .LVU1590
 5272 01b0 46E7     		b	.L247
 5273              	.LVL547:
 5274              	.L281:
 100:Middlewares/LVGL/GUI/lvgl/src/core/lv_obj_pos.c ****         lv_coord_t parent_w = lv_obj_get_content_width(parent);
 5275              		.loc 1 100 20 discriminator 1 view .LVU1591
 5276 01b2 20F0C043 		bic	r3, r0, #1610612736
 100:Middlewares/LVGL/GUI/lvgl/src/core/lv_obj_pos.c ****         lv_coord_t parent_w = lv_obj_get_content_width(parent);
 5277              		.loc 1 100 46 discriminator 1 view .LVU1592
 5278 01b6 B3F5FA6F 		cmp	r3, #2000
 5279 01ba 02DD     		ble	.L270
 100:Middlewares/LVGL/GUI/lvgl/src/core/lv_obj_pos.c ****         lv_coord_t parent_w = lv_obj_get_content_width(parent);
 5280              		.loc 1 100 46 view .LVU1593
 5281 01bc 4FF00009 		mov	r9, #0
 5282 01c0 C4E7     		b	.L248
 5283              	.L270:
 5284 01c2 4FF00109 		mov	r9, #1
 5285 01c6 C1E7     		b	.L248
 5286              	.LVL548:
 5287              	.L282:
 104:Middlewares/LVGL/GUI/lvgl/src/core/lv_obj_pos.c ****         }
 5288              		.loc 1 104 13 is_stmt 1 view .LVU1594
 104:Middlewares/LVGL/GUI/lvgl/src/core/lv_obj_pos.c ****         }
 5289              		.loc 1 104 17 is_stmt 0 view .LVU1595
 5290 01c8 2046     		mov	r0, r4
 5291              	.LVL549:
 104:Middlewares/LVGL/GUI/lvgl/src/core/lv_obj_pos.c ****         }
 5292              		.loc 1 104 17 view .LVU1596
 5293 01ca FFF7FEFF 		bl	calc_content_width
 5294              	.LVL550:
 5295 01ce 0646     		mov	r6, r0
 5296              	.LVL551:
 104:Middlewares/LVGL/GUI/lvgl/src/core/lv_obj_pos.c ****         }
 5297              		.loc 1 104 17 view .LVU1597
 5298 01d0 DAE7     		b	.L250
 5299              	.LVL552:
ARM GAS  C:\Users\ADMINI~1\AppData\Local\Temp\ccVA75Tx.s 			page 144


 5300              	.L283:
 5301              	.LBB337:
 5302              	.LBI337:
   1:Middlewares/LVGL/GUI/lvgl/src/core/lv_obj_style_gen.h **** {
 5303              		.loc 2 1 26 is_stmt 1 view .LVU1598
 5304              	.LBB338:
   3:Middlewares/LVGL/GUI/lvgl/src/core/lv_obj_style_gen.h ****     return (lv_coord_t)v.num;
 5305              		.loc 2 3 5 view .LVU1599
   3:Middlewares/LVGL/GUI/lvgl/src/core/lv_obj_style_gen.h ****     return (lv_coord_t)v.num;
 5306              		.loc 2 3 26 is_stmt 0 view .LVU1600
 5307 01d2 41F20102 		movw	r2, #4097
 5308 01d6 0021     		movs	r1, #0
 5309 01d8 2846     		mov	r0, r5
 5310              	.LVL553:
   3:Middlewares/LVGL/GUI/lvgl/src/core/lv_obj_style_gen.h ****     return (lv_coord_t)v.num;
 5311              		.loc 2 3 26 view .LVU1601
 5312 01da FFF7FEFF 		bl	lv_obj_get_style_prop
 5313              	.LVL554:
   4:Middlewares/LVGL/GUI/lvgl/src/core/lv_obj_style_gen.h **** }
 5314              		.loc 2 4 5 is_stmt 1 view .LVU1602
   4:Middlewares/LVGL/GUI/lvgl/src/core/lv_obj_style_gen.h **** }
 5315              		.loc 2 4 5 is_stmt 0 view .LVU1603
 5316              	.LBE338:
 5317              	.LBE337:
 109:Middlewares/LVGL/GUI/lvgl/src/core/lv_obj_pos.c ****                 lv_coord_t border_w = lv_obj_get_style_border_width(obj, 0);
 5318              		.loc 1 109 38 view .LVU1604
 5319 01de 524B     		ldr	r3, .L287
 5320 01e0 9842     		cmp	r0, r3
 5321 01e2 C2D1     		bne	.L251
 5322              	.LBB339:
 110:Middlewares/LVGL/GUI/lvgl/src/core/lv_obj_pos.c ****                 w = lv_obj_get_style_pad_left(obj, 0) + border_w;
 5323              		.loc 1 110 17 is_stmt 1 view .LVU1605
 5324              	.LVL555:
 5325              	.LBB340:
 5326              	.LBI340:
 241:Middlewares/LVGL/GUI/lvgl/src/core/lv_obj_style_gen.h **** {
 5327              		.loc 2 241 26 view .LVU1606
 5328              	.LBB341:
 243:Middlewares/LVGL/GUI/lvgl/src/core/lv_obj_style_gen.h ****     return (lv_coord_t)v.num;
 5329              		.loc 2 243 5 view .LVU1607
 243:Middlewares/LVGL/GUI/lvgl/src/core/lv_obj_style_gen.h ****     return (lv_coord_t)v.num;
 5330              		.loc 2 243 26 is_stmt 0 view .LVU1608
 5331 01e4 41F23202 		movw	r2, #4146
 5332 01e8 0021     		movs	r1, #0
 5333 01ea 2046     		mov	r0, r4
 5334 01ec FFF7FEFF 		bl	lv_obj_get_style_prop
 5335              	.LVL556:
 5336 01f0 8146     		mov	r9, r0
 5337              	.LVL557:
 244:Middlewares/LVGL/GUI/lvgl/src/core/lv_obj_style_gen.h **** }
 5338              		.loc 2 244 5 is_stmt 1 view .LVU1609
 244:Middlewares/LVGL/GUI/lvgl/src/core/lv_obj_style_gen.h **** }
 5339              		.loc 2 244 5 is_stmt 0 view .LVU1610
 5340              	.LBE341:
 5341              	.LBE340:
 111:Middlewares/LVGL/GUI/lvgl/src/core/lv_obj_pos.c ****                 w += lv_obj_get_style_pad_right(obj, 0) + border_w;
 5342              		.loc 1 111 17 is_stmt 1 view .LVU1611
ARM GAS  C:\Users\ADMINI~1\AppData\Local\Temp\ccVA75Tx.s 			page 145


 5343              	.LBB342:
 5344              	.LBI342:
 103:Middlewares/LVGL/GUI/lvgl/src/core/lv_obj_style_gen.h **** {
 5345              		.loc 2 103 26 view .LVU1612
 5346              	.LBB343:
 105:Middlewares/LVGL/GUI/lvgl/src/core/lv_obj_style_gen.h ****     return (lv_coord_t)v.num;
 5347              		.loc 2 105 5 view .LVU1613
 105:Middlewares/LVGL/GUI/lvgl/src/core/lv_obj_style_gen.h ****     return (lv_coord_t)v.num;
 5348              		.loc 2 105 26 is_stmt 0 view .LVU1614
 5349 01f2 41F61202 		movw	r2, #6162
 5350 01f6 0021     		movs	r1, #0
 5351 01f8 2046     		mov	r0, r4
 5352              	.LVL558:
 105:Middlewares/LVGL/GUI/lvgl/src/core/lv_obj_style_gen.h ****     return (lv_coord_t)v.num;
 5353              		.loc 2 105 26 view .LVU1615
 5354 01fa FFF7FEFF 		bl	lv_obj_get_style_prop
 5355              	.LVL559:
 106:Middlewares/LVGL/GUI/lvgl/src/core/lv_obj_style_gen.h **** }
 5356              		.loc 2 106 5 is_stmt 1 view .LVU1616
 106:Middlewares/LVGL/GUI/lvgl/src/core/lv_obj_style_gen.h **** }
 5357              		.loc 2 106 5 is_stmt 0 view .LVU1617
 5358              	.LBE343:
 5359              	.LBE342:
 111:Middlewares/LVGL/GUI/lvgl/src/core/lv_obj_pos.c ****                 w += lv_obj_get_style_pad_right(obj, 0) + border_w;
 5360              		.loc 1 111 19 view .LVU1618
 5361 01fe 09EB0006 		add	r6, r9, r0
 5362              	.LVL560:
 112:Middlewares/LVGL/GUI/lvgl/src/core/lv_obj_pos.c ****             }
 5363              		.loc 1 112 17 is_stmt 1 view .LVU1619
 5364              	.LBB344:
 5365              	.LBI344:
 109:Middlewares/LVGL/GUI/lvgl/src/core/lv_obj_style_gen.h **** {
 5366              		.loc 2 109 26 view .LVU1620
 5367              	.LBB345:
 111:Middlewares/LVGL/GUI/lvgl/src/core/lv_obj_style_gen.h ****     return (lv_coord_t)v.num;
 5368              		.loc 2 111 5 view .LVU1621
 111:Middlewares/LVGL/GUI/lvgl/src/core/lv_obj_style_gen.h ****     return (lv_coord_t)v.num;
 5369              		.loc 2 111 26 is_stmt 0 view .LVU1622
 5370 0202 41F61302 		movw	r2, #6163
 5371 0206 0021     		movs	r1, #0
 5372 0208 2046     		mov	r0, r4
 5373 020a FFF7FEFF 		bl	lv_obj_get_style_prop
 5374              	.LVL561:
 112:Middlewares/LVGL/GUI/lvgl/src/core/lv_obj_style_gen.h **** }
 5375              		.loc 2 112 5 is_stmt 1 view .LVU1623
 112:Middlewares/LVGL/GUI/lvgl/src/core/lv_obj_style_gen.h **** }
 5376              		.loc 2 112 5 is_stmt 0 view .LVU1624
 5377              	.LBE345:
 5378              	.LBE344:
 112:Middlewares/LVGL/GUI/lvgl/src/core/lv_obj_pos.c ****             }
 5379              		.loc 1 112 57 view .LVU1625
 5380 020e 8144     		add	r9, r9, r0
 5381              	.LVL562:
 112:Middlewares/LVGL/GUI/lvgl/src/core/lv_obj_pos.c ****             }
 5382              		.loc 1 112 19 view .LVU1626
 5383 0210 4E44     		add	r6, r6, r9
 5384              	.LVL563:
ARM GAS  C:\Users\ADMINI~1\AppData\Local\Temp\ccVA75Tx.s 			page 146


 112:Middlewares/LVGL/GUI/lvgl/src/core/lv_obj_pos.c ****             }
 5385              		.loc 1 112 19 view .LVU1627
 5386              	.LBE339:
 109:Middlewares/LVGL/GUI/lvgl/src/core/lv_obj_pos.c ****                 lv_coord_t border_w = lv_obj_get_style_border_width(obj, 0);
 5387              		.loc 1 109 95 view .LVU1628
 5388 0212 B9E7     		b	.L250
 5389              	.LVL564:
 5390              	.L253:
 109:Middlewares/LVGL/GUI/lvgl/src/core/lv_obj_pos.c ****                 lv_coord_t border_w = lv_obj_get_style_border_width(obj, 0);
 5391              		.loc 1 109 95 view .LVU1629
 5392              	.LBE330:
 5393              	.LBB346:
 132:Middlewares/LVGL/GUI/lvgl/src/core/lv_obj_pos.c ****         h_is_content = h == LV_SIZE_CONTENT ? true : false;
 5394              		.loc 1 132 9 is_stmt 1 view .LVU1630
 5395              	.LBB347:
 5396              	.LBI347:
  19:Middlewares/LVGL/GUI/lvgl/src/core/lv_obj_style_gen.h **** {
 5397              		.loc 2 19 26 view .LVU1631
 5398              	.LBB348:
  21:Middlewares/LVGL/GUI/lvgl/src/core/lv_obj_style_gen.h ****     return (lv_coord_t)v.num;
 5399              		.loc 2 21 5 view .LVU1632
  21:Middlewares/LVGL/GUI/lvgl/src/core/lv_obj_style_gen.h ****     return (lv_coord_t)v.num;
 5400              		.loc 2 21 26 is_stmt 0 view .LVU1633
 5401 0214 41F20402 		movw	r2, #4100
 5402 0218 0021     		movs	r1, #0
 5403 021a 2046     		mov	r0, r4
 5404              	.LVL565:
  21:Middlewares/LVGL/GUI/lvgl/src/core/lv_obj_style_gen.h ****     return (lv_coord_t)v.num;
 5405              		.loc 2 21 26 view .LVU1634
 5406 021c FFF7FEFF 		bl	lv_obj_get_style_prop
 5407              	.LVL566:
 5408 0220 0746     		mov	r7, r0
  22:Middlewares/LVGL/GUI/lvgl/src/core/lv_obj_style_gen.h **** }
 5409              		.loc 2 22 5 is_stmt 1 view .LVU1635
 5410              	.LVL567:
  22:Middlewares/LVGL/GUI/lvgl/src/core/lv_obj_style_gen.h **** }
 5411              		.loc 2 22 5 is_stmt 0 view .LVU1636
 5412              	.LBE348:
 5413              	.LBE347:
 133:Middlewares/LVGL/GUI/lvgl/src/core/lv_obj_pos.c ****         h_is_pct = LV_COORD_IS_PCT(h) ? true : false;
 5414              		.loc 1 133 9 is_stmt 1 view .LVU1637
 133:Middlewares/LVGL/GUI/lvgl/src/core/lv_obj_pos.c ****         h_is_pct = LV_COORD_IS_PCT(h) ? true : false;
 5415              		.loc 1 133 22 is_stmt 0 view .LVU1638
 5416 0222 414B     		ldr	r3, .L287
 5417 0224 9842     		cmp	r0, r3
 5418 0226 14BF     		ite	ne
 5419 0228 4FF0000B 		movne	fp, #0
 5420 022c 4FF0010B 		moveq	fp, #1
 5421              	.LVL568:
 134:Middlewares/LVGL/GUI/lvgl/src/core/lv_obj_pos.c ****         lv_coord_t parent_h = lv_obj_get_content_height(parent);
 5422              		.loc 1 134 9 is_stmt 1 view .LVU1639
 134:Middlewares/LVGL/GUI/lvgl/src/core/lv_obj_pos.c ****         lv_coord_t parent_h = lv_obj_get_content_height(parent);
 5423              		.loc 1 134 20 is_stmt 0 view .LVU1640
 5424 0230 00F0C043 		and	r3, r0, #1610612736
 134:Middlewares/LVGL/GUI/lvgl/src/core/lv_obj_pos.c ****         lv_coord_t parent_h = lv_obj_get_content_height(parent);
 5425              		.loc 1 134 46 view .LVU1641
 5426 0234 B3F1005F 		cmp	r3, #536870912
ARM GAS  C:\Users\ADMINI~1\AppData\Local\Temp\ccVA75Tx.s 			page 147


 5427 0238 34D0     		beq	.L284
 5428 023a 0023     		movs	r3, #0
 5429              	.L255:
 134:Middlewares/LVGL/GUI/lvgl/src/core/lv_obj_pos.c ****         lv_coord_t parent_h = lv_obj_get_content_height(parent);
 5430              		.loc 1 134 18 discriminator 6 view .LVU1642
 5431 023c 0193     		str	r3, [sp, #4]
 5432              	.LVL569:
 135:Middlewares/LVGL/GUI/lvgl/src/core/lv_obj_pos.c **** 
 5433              		.loc 1 135 9 is_stmt 1 discriminator 6 view .LVU1643
 135:Middlewares/LVGL/GUI/lvgl/src/core/lv_obj_pos.c **** 
 5434              		.loc 1 135 31 is_stmt 0 discriminator 6 view .LVU1644
 5435 023e 2846     		mov	r0, r5
 5436              	.LVL570:
 135:Middlewares/LVGL/GUI/lvgl/src/core/lv_obj_pos.c **** 
 5437              		.loc 1 135 31 discriminator 6 view .LVU1645
 5438 0240 FFF7FEFF 		bl	lv_obj_get_content_height
 5439              	.LVL571:
 5440 0244 0090     		str	r0, [sp]
 5441              	.LVL572:
 137:Middlewares/LVGL/GUI/lvgl/src/core/lv_obj_pos.c ****             h = calc_content_height(obj);
 5442              		.loc 1 137 9 is_stmt 1 discriminator 6 view .LVU1646
 137:Middlewares/LVGL/GUI/lvgl/src/core/lv_obj_pos.c ****             h = calc_content_height(obj);
 5443              		.loc 1 137 11 is_stmt 0 discriminator 6 view .LVU1647
 5444 0246 384B     		ldr	r3, .L287
 5445 0248 9F42     		cmp	r7, r3
 5446 024a 34D0     		beq	.L285
 140:Middlewares/LVGL/GUI/lvgl/src/core/lv_obj_pos.c ****             /*If parent has content size and the child has pct size
 5447              		.loc 1 140 14 is_stmt 1 view .LVU1648
 140:Middlewares/LVGL/GUI/lvgl/src/core/lv_obj_pos.c ****             /*If parent has content size and the child has pct size
 5448              		.loc 1 140 16 is_stmt 0 view .LVU1649
 5449 024c 019B     		ldr	r3, [sp, #4]
 5450 024e A3B1     		cbz	r3, .L257
 143:Middlewares/LVGL/GUI/lvgl/src/core/lv_obj_pos.c ****                 lv_coord_t border_w = lv_obj_get_style_border_width(obj, 0);
 5451              		.loc 1 143 13 is_stmt 1 view .LVU1650
 143:Middlewares/LVGL/GUI/lvgl/src/core/lv_obj_pos.c ****                 lv_coord_t border_w = lv_obj_get_style_border_width(obj, 0);
 5452              		.loc 1 143 33 is_stmt 0 view .LVU1651
 5453 0250 95F82B30 		ldrb	r3, [r5, #43]	@ zero_extendqisi2
 143:Middlewares/LVGL/GUI/lvgl/src/core/lv_obj_pos.c ****                 lv_coord_t border_w = lv_obj_get_style_border_width(obj, 0);
 5454              		.loc 1 143 15 view .LVU1652
 5455 0254 13F0020F 		tst	r3, #2
 5456 0258 32D0     		beq	.L286
 5457              	.LVL573:
 5458              	.L258:
 149:Middlewares/LVGL/GUI/lvgl/src/core/lv_obj_pos.c ****             }
 5459              		.loc 1 149 17 is_stmt 1 view .LVU1653
 149:Middlewares/LVGL/GUI/lvgl/src/core/lv_obj_pos.c ****             }
 5460              		.loc 1 149 22 is_stmt 0 view .LVU1654
 5461 025a 27F0C047 		bic	r7, r7, #1610612736
 5462              	.LVL574:
 149:Middlewares/LVGL/GUI/lvgl/src/core/lv_obj_pos.c ****             }
 5463              		.loc 1 149 22 view .LVU1655
 5464 025e B7F57A7F 		cmp	r7, #1000
 5465 0262 01DD     		ble	.L259
 149:Middlewares/LVGL/GUI/lvgl/src/core/lv_obj_pos.c ****             }
 5466              		.loc 1 149 22 discriminator 1 view .LVU1656
 5467 0264 C7F57A77 		rsb	r7, r7, #1000
 5468              	.L259:
ARM GAS  C:\Users\ADMINI~1\AppData\Local\Temp\ccVA75Tx.s 			page 148


 149:Middlewares/LVGL/GUI/lvgl/src/core/lv_obj_pos.c ****             }
 5469              		.loc 1 149 42 discriminator 4 view .LVU1657
 5470 0268 009B     		ldr	r3, [sp]
 5471 026a 03FB07F7 		mul	r7, r3, r7
 149:Middlewares/LVGL/GUI/lvgl/src/core/lv_obj_pos.c ****             }
 5472              		.loc 1 149 19 discriminator 4 view .LVU1658
 5473 026e 2F48     		ldr	r0, .L287+4
 5474 0270 80FB0730 		smull	r3, r0, r0, r7
 5475 0274 FF17     		asrs	r7, r7, #31
 5476 0276 C7EB6017 		rsb	r7, r7, r0, asr #5
 5477              	.LVL575:
 5478              	.L257:
 153:Middlewares/LVGL/GUI/lvgl/src/core/lv_obj_pos.c ****         lv_coord_t maxh = lv_obj_get_style_max_height(obj, LV_PART_MAIN);
 5479              		.loc 1 153 9 is_stmt 1 view .LVU1659
 5480              	.LBB349:
 5481              	.LBI349:
  25:Middlewares/LVGL/GUI/lvgl/src/core/lv_obj_style_gen.h **** {
 5482              		.loc 2 25 26 view .LVU1660
 5483              	.LBB350:
  27:Middlewares/LVGL/GUI/lvgl/src/core/lv_obj_style_gen.h ****     return (lv_coord_t)v.num;
 5484              		.loc 2 27 5 view .LVU1661
  27:Middlewares/LVGL/GUI/lvgl/src/core/lv_obj_style_gen.h ****     return (lv_coord_t)v.num;
 5485              		.loc 2 27 26 is_stmt 0 view .LVU1662
 5486 027a 41F20502 		movw	r2, #4101
 5487 027e 0021     		movs	r1, #0
 5488 0280 2046     		mov	r0, r4
 5489 0282 FFF7FEFF 		bl	lv_obj_get_style_prop
 5490              	.LVL576:
 5491 0286 0190     		str	r0, [sp, #4]
  28:Middlewares/LVGL/GUI/lvgl/src/core/lv_obj_style_gen.h **** }
 5492              		.loc 2 28 5 is_stmt 1 view .LVU1663
 5493              	.LVL577:
  28:Middlewares/LVGL/GUI/lvgl/src/core/lv_obj_style_gen.h **** }
 5494              		.loc 2 28 5 is_stmt 0 view .LVU1664
 5495              	.LBE350:
 5496              	.LBE349:
 154:Middlewares/LVGL/GUI/lvgl/src/core/lv_obj_pos.c ****         h = lv_clamp_height(h, minh, maxh, parent_h);
 5497              		.loc 1 154 9 is_stmt 1 view .LVU1665
 5498              	.LBB351:
 5499              	.LBI351:
  31:Middlewares/LVGL/GUI/lvgl/src/core/lv_obj_style_gen.h **** {
 5500              		.loc 2 31 26 view .LVU1666
 5501              	.LBB352:
  33:Middlewares/LVGL/GUI/lvgl/src/core/lv_obj_style_gen.h ****     return (lv_coord_t)v.num;
 5502              		.loc 2 33 5 view .LVU1667
  33:Middlewares/LVGL/GUI/lvgl/src/core/lv_obj_style_gen.h ****     return (lv_coord_t)v.num;
 5503              		.loc 2 33 26 is_stmt 0 view .LVU1668
 5504 0288 41F20602 		movw	r2, #4102
 5505 028c 0021     		movs	r1, #0
 5506 028e 2046     		mov	r0, r4
 5507              	.LVL578:
  33:Middlewares/LVGL/GUI/lvgl/src/core/lv_obj_style_gen.h ****     return (lv_coord_t)v.num;
 5508              		.loc 2 33 26 view .LVU1669
 5509 0290 FFF7FEFF 		bl	lv_obj_get_style_prop
 5510              	.LVL579:
 5511 0294 0246     		mov	r2, r0
  34:Middlewares/LVGL/GUI/lvgl/src/core/lv_obj_style_gen.h **** }
ARM GAS  C:\Users\ADMINI~1\AppData\Local\Temp\ccVA75Tx.s 			page 149


 5512              		.loc 2 34 5 is_stmt 1 view .LVU1670
 5513              	.LVL580:
  34:Middlewares/LVGL/GUI/lvgl/src/core/lv_obj_style_gen.h **** }
 5514              		.loc 2 34 5 is_stmt 0 view .LVU1671
 5515              	.LBE352:
 5516              	.LBE351:
 155:Middlewares/LVGL/GUI/lvgl/src/core/lv_obj_pos.c ****     }
 5517              		.loc 1 155 9 is_stmt 1 view .LVU1672
 155:Middlewares/LVGL/GUI/lvgl/src/core/lv_obj_pos.c ****     }
 5518              		.loc 1 155 13 is_stmt 0 view .LVU1673
 5519 0296 009B     		ldr	r3, [sp]
 5520 0298 0199     		ldr	r1, [sp, #4]
 5521 029a 3846     		mov	r0, r7
 5522              	.LVL581:
 155:Middlewares/LVGL/GUI/lvgl/src/core/lv_obj_pos.c ****     }
 5523              		.loc 1 155 13 view .LVU1674
 5524 029c FFF7FEFF 		bl	lv_clamp_height
 5525              	.LVL582:
 155:Middlewares/LVGL/GUI/lvgl/src/core/lv_obj_pos.c ****     }
 5526              		.loc 1 155 13 view .LVU1675
 5527 02a0 0746     		mov	r7, r0
 5528              	.LVL583:
 155:Middlewares/LVGL/GUI/lvgl/src/core/lv_obj_pos.c ****     }
 5529              		.loc 1 155 13 view .LVU1676
 5530 02a2 DDE6     		b	.L254
 5531              	.LVL584:
 5532              	.L284:
 134:Middlewares/LVGL/GUI/lvgl/src/core/lv_obj_pos.c ****         lv_coord_t parent_h = lv_obj_get_content_height(parent);
 5533              		.loc 1 134 20 discriminator 1 view .LVU1677
 5534 02a4 20F0C043 		bic	r3, r0, #1610612736
 134:Middlewares/LVGL/GUI/lvgl/src/core/lv_obj_pos.c ****         lv_coord_t parent_h = lv_obj_get_content_height(parent);
 5535              		.loc 1 134 46 discriminator 1 view .LVU1678
 5536 02a8 B3F5FA6F 		cmp	r3, #2000
 5537 02ac 01DD     		ble	.L272
 134:Middlewares/LVGL/GUI/lvgl/src/core/lv_obj_pos.c ****         lv_coord_t parent_h = lv_obj_get_content_height(parent);
 5538              		.loc 1 134 46 view .LVU1679
 5539 02ae 0023     		movs	r3, #0
 5540 02b0 C4E7     		b	.L255
 5541              	.L272:
 5542 02b2 0123     		movs	r3, #1
 5543 02b4 C2E7     		b	.L255
 5544              	.LVL585:
 5545              	.L285:
 138:Middlewares/LVGL/GUI/lvgl/src/core/lv_obj_pos.c ****         }
 5546              		.loc 1 138 13 is_stmt 1 view .LVU1680
 138:Middlewares/LVGL/GUI/lvgl/src/core/lv_obj_pos.c ****         }
 5547              		.loc 1 138 17 is_stmt 0 view .LVU1681
 5548 02b6 2046     		mov	r0, r4
 5549              	.LVL586:
 138:Middlewares/LVGL/GUI/lvgl/src/core/lv_obj_pos.c ****         }
 5550              		.loc 1 138 17 view .LVU1682
 5551 02b8 FFF7FEFF 		bl	calc_content_height
 5552              	.LVL587:
 5553 02bc 0746     		mov	r7, r0
 5554              	.LVL588:
 138:Middlewares/LVGL/GUI/lvgl/src/core/lv_obj_pos.c ****         }
 5555              		.loc 1 138 17 view .LVU1683
ARM GAS  C:\Users\ADMINI~1\AppData\Local\Temp\ccVA75Tx.s 			page 150


 5556 02be DCE7     		b	.L257
 5557              	.LVL589:
 5558              	.L286:
 5559              	.LBB353:
 5560              	.LBI353:
  19:Middlewares/LVGL/GUI/lvgl/src/core/lv_obj_style_gen.h **** {
 5561              		.loc 2 19 26 is_stmt 1 view .LVU1684
 5562              	.LBB354:
  21:Middlewares/LVGL/GUI/lvgl/src/core/lv_obj_style_gen.h ****     return (lv_coord_t)v.num;
 5563              		.loc 2 21 5 view .LVU1685
  21:Middlewares/LVGL/GUI/lvgl/src/core/lv_obj_style_gen.h ****     return (lv_coord_t)v.num;
 5564              		.loc 2 21 26 is_stmt 0 view .LVU1686
 5565 02c0 41F20402 		movw	r2, #4100
 5566 02c4 0021     		movs	r1, #0
 5567 02c6 2846     		mov	r0, r5
 5568              	.LVL590:
  21:Middlewares/LVGL/GUI/lvgl/src/core/lv_obj_style_gen.h ****     return (lv_coord_t)v.num;
 5569              		.loc 2 21 26 view .LVU1687
 5570 02c8 FFF7FEFF 		bl	lv_obj_get_style_prop
 5571              	.LVL591:
  22:Middlewares/LVGL/GUI/lvgl/src/core/lv_obj_style_gen.h **** }
 5572              		.loc 2 22 5 is_stmt 1 view .LVU1688
  22:Middlewares/LVGL/GUI/lvgl/src/core/lv_obj_style_gen.h **** }
 5573              		.loc 2 22 5 is_stmt 0 view .LVU1689
 5574              	.LBE354:
 5575              	.LBE353:
 143:Middlewares/LVGL/GUI/lvgl/src/core/lv_obj_pos.c ****                 lv_coord_t border_w = lv_obj_get_style_border_width(obj, 0);
 5576              		.loc 1 143 38 view .LVU1690
 5577 02cc 164B     		ldr	r3, .L287
 5578 02ce 9842     		cmp	r0, r3
 5579 02d0 C3D1     		bne	.L258
 5580              	.LBB355:
 144:Middlewares/LVGL/GUI/lvgl/src/core/lv_obj_pos.c ****                 h = lv_obj_get_style_pad_top(obj, 0) + border_w;
 5581              		.loc 1 144 17 is_stmt 1 view .LVU1691
 5582              	.LVL592:
 5583              	.LBB356:
 5584              	.LBI356:
 241:Middlewares/LVGL/GUI/lvgl/src/core/lv_obj_style_gen.h **** {
 5585              		.loc 2 241 26 view .LVU1692
 5586              	.LBB357:
 243:Middlewares/LVGL/GUI/lvgl/src/core/lv_obj_style_gen.h ****     return (lv_coord_t)v.num;
 5587              		.loc 2 243 5 view .LVU1693
 243:Middlewares/LVGL/GUI/lvgl/src/core/lv_obj_style_gen.h ****     return (lv_coord_t)v.num;
 5588              		.loc 2 243 26 is_stmt 0 view .LVU1694
 5589 02d2 41F23202 		movw	r2, #4146
 5590 02d6 0021     		movs	r1, #0
 5591 02d8 2046     		mov	r0, r4
 5592 02da FFF7FEFF 		bl	lv_obj_get_style_prop
 5593              	.LVL593:
 5594 02de 0746     		mov	r7, r0
 5595              	.LVL594:
 244:Middlewares/LVGL/GUI/lvgl/src/core/lv_obj_style_gen.h **** }
 5596              		.loc 2 244 5 is_stmt 1 view .LVU1695
 244:Middlewares/LVGL/GUI/lvgl/src/core/lv_obj_style_gen.h **** }
 5597              		.loc 2 244 5 is_stmt 0 view .LVU1696
 5598              	.LBE357:
 5599              	.LBE356:
ARM GAS  C:\Users\ADMINI~1\AppData\Local\Temp\ccVA75Tx.s 			page 151


 145:Middlewares/LVGL/GUI/lvgl/src/core/lv_obj_pos.c ****                 h += lv_obj_get_style_pad_bottom(obj, 0) + border_w;
 5600              		.loc 1 145 17 is_stmt 1 view .LVU1697
 5601              	.LBB358:
 5602              	.LBI358:
  91:Middlewares/LVGL/GUI/lvgl/src/core/lv_obj_style_gen.h **** {
 5603              		.loc 2 91 26 view .LVU1698
 5604              	.LBB359:
  93:Middlewares/LVGL/GUI/lvgl/src/core/lv_obj_style_gen.h ****     return (lv_coord_t)v.num;
 5605              		.loc 2 93 5 view .LVU1699
  93:Middlewares/LVGL/GUI/lvgl/src/core/lv_obj_style_gen.h ****     return (lv_coord_t)v.num;
 5606              		.loc 2 93 26 is_stmt 0 view .LVU1700
 5607 02e0 41F61002 		movw	r2, #6160
 5608 02e4 0021     		movs	r1, #0
 5609 02e6 2046     		mov	r0, r4
 5610              	.LVL595:
  93:Middlewares/LVGL/GUI/lvgl/src/core/lv_obj_style_gen.h ****     return (lv_coord_t)v.num;
 5611              		.loc 2 93 26 view .LVU1701
 5612 02e8 FFF7FEFF 		bl	lv_obj_get_style_prop
 5613              	.LVL596:
  94:Middlewares/LVGL/GUI/lvgl/src/core/lv_obj_style_gen.h **** }
 5614              		.loc 2 94 5 is_stmt 1 view .LVU1702
  94:Middlewares/LVGL/GUI/lvgl/src/core/lv_obj_style_gen.h **** }
 5615              		.loc 2 94 5 is_stmt 0 view .LVU1703
 5616              	.LBE359:
 5617              	.LBE358:
 145:Middlewares/LVGL/GUI/lvgl/src/core/lv_obj_pos.c ****                 h += lv_obj_get_style_pad_bottom(obj, 0) + border_w;
 5618              		.loc 1 145 19 view .LVU1704
 5619 02ec C319     		adds	r3, r0, r7
 5620 02ee 0193     		str	r3, [sp, #4]
 5621              	.LVL597:
 146:Middlewares/LVGL/GUI/lvgl/src/core/lv_obj_pos.c ****             }
 5622              		.loc 1 146 17 is_stmt 1 view .LVU1705
 5623              	.LBB360:
 5624              	.LBI360:
  97:Middlewares/LVGL/GUI/lvgl/src/core/lv_obj_style_gen.h **** {
 5625              		.loc 2 97 26 view .LVU1706
 5626              	.LBB361:
  99:Middlewares/LVGL/GUI/lvgl/src/core/lv_obj_style_gen.h ****     return (lv_coord_t)v.num;
 5627              		.loc 2 99 5 view .LVU1707
  99:Middlewares/LVGL/GUI/lvgl/src/core/lv_obj_style_gen.h ****     return (lv_coord_t)v.num;
 5628              		.loc 2 99 26 is_stmt 0 view .LVU1708
 5629 02f0 41F61102 		movw	r2, #6161
 5630 02f4 0021     		movs	r1, #0
 5631 02f6 2046     		mov	r0, r4
 5632 02f8 FFF7FEFF 		bl	lv_obj_get_style_prop
 5633              	.LVL598:
 100:Middlewares/LVGL/GUI/lvgl/src/core/lv_obj_style_gen.h **** }
 5634              		.loc 2 100 5 is_stmt 1 view .LVU1709
 100:Middlewares/LVGL/GUI/lvgl/src/core/lv_obj_style_gen.h **** }
 5635              		.loc 2 100 5 is_stmt 0 view .LVU1710
 5636              	.LBE361:
 5637              	.LBE360:
 146:Middlewares/LVGL/GUI/lvgl/src/core/lv_obj_pos.c ****             }
 5638              		.loc 1 146 58 view .LVU1711
 5639 02fc 0744     		add	r7, r7, r0
 5640              	.LVL599:
 146:Middlewares/LVGL/GUI/lvgl/src/core/lv_obj_pos.c ****             }
ARM GAS  C:\Users\ADMINI~1\AppData\Local\Temp\ccVA75Tx.s 			page 152


 5641              		.loc 1 146 19 view .LVU1712
 5642 02fe 019B     		ldr	r3, [sp, #4]
 5643 0300 1F44     		add	r7, r7, r3
 5644              	.LVL600:
 146:Middlewares/LVGL/GUI/lvgl/src/core/lv_obj_pos.c ****             }
 5645              		.loc 1 146 19 view .LVU1713
 5646              	.LBE355:
 143:Middlewares/LVGL/GUI/lvgl/src/core/lv_obj_pos.c ****                 lv_coord_t border_w = lv_obj_get_style_border_width(obj, 0);
 5647              		.loc 1 143 96 view .LVU1714
 5648 0302 BAE7     		b	.L257
 5649              	.LVL601:
 5650              	.L279:
 143:Middlewares/LVGL/GUI/lvgl/src/core/lv_obj_pos.c ****                 lv_coord_t border_w = lv_obj_get_style_border_width(obj, 0);
 5651              		.loc 1 143 96 view .LVU1715
 5652              	.LBE346:
 181:Middlewares/LVGL/GUI/lvgl/src/core/lv_obj_pos.c **** 
 5653              		.loc 1 181 14 is_stmt 1 discriminator 1 view .LVU1716
 5654 0304 2846     		mov	r0, r5
 5655              	.LVL602:
 181:Middlewares/LVGL/GUI/lvgl/src/core/lv_obj_pos.c **** 
 5656              		.loc 1 181 14 is_stmt 0 discriminator 1 view .LVU1717
 5657 0306 FFF7FEFF 		bl	lv_obj_scrollbar_invalidate
 5658              	.LVL603:
 5659 030a D4E6     		b	.L263
 5660              	.L280:
 187:Middlewares/LVGL/GUI/lvgl/src/core/lv_obj_pos.c ****     }
 5661              		.loc 1 187 9 is_stmt 1 view .LVU1718
 187:Middlewares/LVGL/GUI/lvgl/src/core/lv_obj_pos.c ****     }
 5662              		.loc 1 187 37 is_stmt 0 view .LVU1719
 5663 030c E369     		ldr	r3, [r4, #28]
 187:Middlewares/LVGL/GUI/lvgl/src/core/lv_obj_pos.c ****     }
 5664              		.loc 1 187 41 view .LVU1720
 5665 030e 9B1B     		subs	r3, r3, r6
 187:Middlewares/LVGL/GUI/lvgl/src/core/lv_obj_pos.c ****     }
 5666              		.loc 1 187 45 view .LVU1721
 5667 0310 0133     		adds	r3, r3, #1
 187:Middlewares/LVGL/GUI/lvgl/src/core/lv_obj_pos.c ****     }
 5668              		.loc 1 187 24 view .LVU1722
 5669 0312 6361     		str	r3, [r4, #20]
 5670 0314 E1E6     		b	.L265
 5671              	.LVL604:
 5672              	.L267:
 5673              	.LCFI79:
 5674              		.cfi_def_cfa_offset 0
 5675              		.cfi_restore 4
 5676              		.cfi_restore 5
 5677              		.cfi_restore 6
 5678              		.cfi_restore 7
 5679              		.cfi_restore 8
 5680              		.cfi_restore 9
 5681              		.cfi_restore 10
 5682              		.cfi_restore 11
 5683              		.cfi_restore 14
  84:Middlewares/LVGL/GUI/lvgl/src/core/lv_obj_pos.c **** 
 5684              		.loc 1 84 47 view .LVU1723
 5685 0316 0020     		movs	r0, #0
 5686              	.LVL605:
ARM GAS  C:\Users\ADMINI~1\AppData\Local\Temp\ccVA75Tx.s 			page 153


 210:Middlewares/LVGL/GUI/lvgl/src/core/lv_obj_pos.c **** 
 5687              		.loc 1 210 1 view .LVU1724
 5688 0318 7047     		bx	lr
 5689              	.LVL606:
 5690              	.L268:
 5691              	.LCFI80:
 5692              		.cfi_def_cfa_offset 80
 5693              		.cfi_offset 4, -36
 5694              		.cfi_offset 5, -32
 5695              		.cfi_offset 6, -28
 5696              		.cfi_offset 7, -24
 5697              		.cfi_offset 8, -20
 5698              		.cfi_offset 9, -16
 5699              		.cfi_offset 10, -12
 5700              		.cfi_offset 11, -8
 5701              		.cfi_offset 14, -4
  87:Middlewares/LVGL/GUI/lvgl/src/core/lv_obj_pos.c **** 
 5702              		.loc 1 87 31 view .LVU1725
 5703 031a 0020     		movs	r0, #0
 5704              	.LVL607:
  87:Middlewares/LVGL/GUI/lvgl/src/core/lv_obj_pos.c **** 
 5705              		.loc 1 87 31 view .LVU1726
 5706 031c FEE6     		b	.L245
 5707              	.LVL608:
 5708              	.L273:
 165:Middlewares/LVGL/GUI/lvgl/src/core/lv_obj_pos.c **** 
 5709              		.loc 1 165 74 view .LVU1727
 5710 031e 0020     		movs	r0, #0
 5711 0320 FCE6     		b	.L245
 5712              	.LVL609:
 5713              	.L274:
 209:Middlewares/LVGL/GUI/lvgl/src/core/lv_obj_pos.c **** }
 5714              		.loc 1 209 12 view .LVU1728
 5715 0322 0120     		movs	r0, #1
 5716              	.LVL610:
 209:Middlewares/LVGL/GUI/lvgl/src/core/lv_obj_pos.c **** }
 5717              		.loc 1 209 12 view .LVU1729
 5718 0324 FAE6     		b	.L245
 5719              	.L288:
 5720 0326 00BF     		.align	2
 5721              	.L287:
 5722 0328 D1070020 		.word	536872913
 5723 032c 1F85EB51 		.word	1374389535
 5724              		.cfi_endproc
 5725              	.LFE162:
 5727              		.section	.text.layout_update_core,"ax",%progbits
 5728              		.align	1
 5729              		.syntax unified
 5730              		.thumb
 5731              		.thumb_func
 5733              	layout_update_core:
 5734              	.LVL611:
 5735              	.LFB205:
1086:Middlewares/LVGL/GUI/lvgl/src/core/lv_obj_pos.c **** 
1087:Middlewares/LVGL/GUI/lvgl/src/core/lv_obj_pos.c **** static void layout_update_core(lv_obj_t * obj)
1088:Middlewares/LVGL/GUI/lvgl/src/core/lv_obj_pos.c **** {
 5736              		.loc 1 1088 1 is_stmt 1 view -0
ARM GAS  C:\Users\ADMINI~1\AppData\Local\Temp\ccVA75Tx.s 			page 154


 5737              		.cfi_startproc
 5738              		@ args = 0, pretend = 0, frame = 0
 5739              		@ frame_needed = 0, uses_anonymous_args = 0
 5740              		.loc 1 1088 1 is_stmt 0 view .LVU1731
 5741 0000 70B5     		push	{r4, r5, r6, lr}
 5742              	.LCFI81:
 5743              		.cfi_def_cfa_offset 16
 5744              		.cfi_offset 4, -16
 5745              		.cfi_offset 5, -12
 5746              		.cfi_offset 6, -8
 5747              		.cfi_offset 14, -4
 5748 0002 0546     		mov	r5, r0
1089:Middlewares/LVGL/GUI/lvgl/src/core/lv_obj_pos.c ****     uint32_t i;
 5749              		.loc 1 1089 5 is_stmt 1 view .LVU1732
1090:Middlewares/LVGL/GUI/lvgl/src/core/lv_obj_pos.c ****     uint32_t child_cnt = lv_obj_get_child_cnt(obj);
 5750              		.loc 1 1090 5 view .LVU1733
 5751              		.loc 1 1090 26 is_stmt 0 view .LVU1734
 5752 0004 FFF7FEFF 		bl	lv_obj_get_child_cnt
 5753              	.LVL612:
 5754              		.loc 1 1090 26 view .LVU1735
 5755 0008 0646     		mov	r6, r0
 5756              	.LVL613:
1091:Middlewares/LVGL/GUI/lvgl/src/core/lv_obj_pos.c ****     for(i = 0; i < child_cnt; i++) {
 5757              		.loc 1 1091 5 is_stmt 1 view .LVU1736
 5758              		.loc 1 1091 11 is_stmt 0 view .LVU1737
 5759 000a 0024     		movs	r4, #0
 5760              		.loc 1 1091 5 view .LVU1738
 5761 000c 06E0     		b	.L290
 5762              	.LVL614:
 5763              	.L291:
 5764              	.LBB362:
1092:Middlewares/LVGL/GUI/lvgl/src/core/lv_obj_pos.c ****         lv_obj_t * child = obj->spec_attr->children[i];
 5765              		.loc 1 1092 9 is_stmt 1 discriminator 3 view .LVU1739
 5766              		.loc 1 1092 31 is_stmt 0 discriminator 3 view .LVU1740
 5767 000e AB68     		ldr	r3, [r5, #8]
 5768              		.loc 1 1092 42 discriminator 3 view .LVU1741
 5769 0010 1B68     		ldr	r3, [r3]
 5770              	.LVL615:
1093:Middlewares/LVGL/GUI/lvgl/src/core/lv_obj_pos.c ****         layout_update_core(child);
 5771              		.loc 1 1093 9 is_stmt 1 discriminator 3 view .LVU1742
 5772 0012 53F82400 		ldr	r0, [r3, r4, lsl #2]
 5773 0016 FFF7F3FF 		bl	layout_update_core
 5774              	.LVL616:
 5775              		.loc 1 1093 9 is_stmt 0 discriminator 3 view .LVU1743
 5776              	.LBE362:
1091:Middlewares/LVGL/GUI/lvgl/src/core/lv_obj_pos.c ****     for(i = 0; i < child_cnt; i++) {
 5777              		.loc 1 1091 31 is_stmt 1 discriminator 3 view .LVU1744
1091:Middlewares/LVGL/GUI/lvgl/src/core/lv_obj_pos.c ****     for(i = 0; i < child_cnt; i++) {
 5778              		.loc 1 1091 32 is_stmt 0 discriminator 3 view .LVU1745
 5779 001a 0134     		adds	r4, r4, #1
 5780              	.LVL617:
 5781              	.L290:
1091:Middlewares/LVGL/GUI/lvgl/src/core/lv_obj_pos.c ****     for(i = 0; i < child_cnt; i++) {
 5782              		.loc 1 1091 16 is_stmt 1 discriminator 1 view .LVU1746
1091:Middlewares/LVGL/GUI/lvgl/src/core/lv_obj_pos.c ****     for(i = 0; i < child_cnt; i++) {
 5783              		.loc 1 1091 5 is_stmt 0 discriminator 1 view .LVU1747
 5784 001c B442     		cmp	r4, r6
ARM GAS  C:\Users\ADMINI~1\AppData\Local\Temp\ccVA75Tx.s 			page 155


 5785 001e F6D3     		bcc	.L291
1094:Middlewares/LVGL/GUI/lvgl/src/core/lv_obj_pos.c ****     }
1095:Middlewares/LVGL/GUI/lvgl/src/core/lv_obj_pos.c **** 
1096:Middlewares/LVGL/GUI/lvgl/src/core/lv_obj_pos.c ****     if(obj->layout_inv == 0) return;
 5786              		.loc 1 1096 5 is_stmt 1 view .LVU1748
 5787              		.loc 1 1096 24 is_stmt 0 view .LVU1749
 5788 0020 95F82A30 		ldrb	r3, [r5, #42]	@ zero_extendqisi2
 5789              		.loc 1 1096 7 view .LVU1750
 5790 0024 13F0010F 		tst	r3, #1
 5791 0028 00D1     		bne	.L294
 5792              	.L289:
1097:Middlewares/LVGL/GUI/lvgl/src/core/lv_obj_pos.c **** 
1098:Middlewares/LVGL/GUI/lvgl/src/core/lv_obj_pos.c ****     obj->layout_inv = 0;
1099:Middlewares/LVGL/GUI/lvgl/src/core/lv_obj_pos.c **** 
1100:Middlewares/LVGL/GUI/lvgl/src/core/lv_obj_pos.c ****     lv_obj_refr_size(obj);
1101:Middlewares/LVGL/GUI/lvgl/src/core/lv_obj_pos.c ****     lv_obj_refr_pos(obj);
1102:Middlewares/LVGL/GUI/lvgl/src/core/lv_obj_pos.c **** 
1103:Middlewares/LVGL/GUI/lvgl/src/core/lv_obj_pos.c ****     if(child_cnt > 0) {
1104:Middlewares/LVGL/GUI/lvgl/src/core/lv_obj_pos.c ****         uint32_t layout_id = lv_obj_get_style_layout(obj, LV_PART_MAIN);
1105:Middlewares/LVGL/GUI/lvgl/src/core/lv_obj_pos.c ****         if(layout_id > 0 && layout_id <= layout_cnt) {
1106:Middlewares/LVGL/GUI/lvgl/src/core/lv_obj_pos.c ****             void  * user_data = LV_GC_ROOT(_lv_layout_list)[layout_id - 1].user_data;
1107:Middlewares/LVGL/GUI/lvgl/src/core/lv_obj_pos.c ****             LV_GC_ROOT(_lv_layout_list)[layout_id - 1].cb(obj, user_data);
1108:Middlewares/LVGL/GUI/lvgl/src/core/lv_obj_pos.c ****         }
1109:Middlewares/LVGL/GUI/lvgl/src/core/lv_obj_pos.c ****     }
1110:Middlewares/LVGL/GUI/lvgl/src/core/lv_obj_pos.c **** }
 5793              		.loc 1 1110 1 view .LVU1751
 5794 002a 70BD     		pop	{r4, r5, r6, pc}
 5795              	.LVL618:
 5796              	.L294:
1098:Middlewares/LVGL/GUI/lvgl/src/core/lv_obj_pos.c **** 
 5797              		.loc 1 1098 5 is_stmt 1 view .LVU1752
1098:Middlewares/LVGL/GUI/lvgl/src/core/lv_obj_pos.c **** 
 5798              		.loc 1 1098 21 is_stmt 0 view .LVU1753
 5799 002c 95F82A30 		ldrb	r3, [r5, #42]	@ zero_extendqisi2
 5800 0030 6FF30003 		bfc	r3, #0, #1
 5801 0034 85F82A30 		strb	r3, [r5, #42]
1100:Middlewares/LVGL/GUI/lvgl/src/core/lv_obj_pos.c ****     lv_obj_refr_pos(obj);
 5802              		.loc 1 1100 5 is_stmt 1 view .LVU1754
 5803 0038 2846     		mov	r0, r5
 5804 003a FFF7FEFF 		bl	lv_obj_refr_size
 5805              	.LVL619:
1101:Middlewares/LVGL/GUI/lvgl/src/core/lv_obj_pos.c **** 
 5806              		.loc 1 1101 5 view .LVU1755
 5807 003e 2846     		mov	r0, r5
 5808 0040 FFF7FEFF 		bl	lv_obj_refr_pos
 5809              	.LVL620:
1103:Middlewares/LVGL/GUI/lvgl/src/core/lv_obj_pos.c ****         uint32_t layout_id = lv_obj_get_style_layout(obj, LV_PART_MAIN);
 5810              		.loc 1 1103 5 view .LVU1756
1103:Middlewares/LVGL/GUI/lvgl/src/core/lv_obj_pos.c ****         uint32_t layout_id = lv_obj_get_style_layout(obj, LV_PART_MAIN);
 5811              		.loc 1 1103 7 is_stmt 0 view .LVU1757
 5812 0044 002E     		cmp	r6, #0
 5813 0046 F0D0     		beq	.L289
 5814              	.LBB363:
1104:Middlewares/LVGL/GUI/lvgl/src/core/lv_obj_pos.c ****         if(layout_id > 0 && layout_id <= layout_cnt) {
 5815              		.loc 1 1104 9 is_stmt 1 view .LVU1758
 5816              	.LVL621:
 5817              	.LBB364:
ARM GAS  C:\Users\ADMINI~1\AppData\Local\Temp\ccVA75Tx.s 			page 156


 5818              	.LBI364:
 536:Middlewares/LVGL/GUI/lvgl/src/core/lv_obj_style_gen.h **** {
 5819              		.loc 2 536 24 view .LVU1759
 5820              	.LBB365:
 538:Middlewares/LVGL/GUI/lvgl/src/core/lv_obj_style_gen.h ****     return (uint16_t)v.num;
 5821              		.loc 2 538 5 view .LVU1760
 538:Middlewares/LVGL/GUI/lvgl/src/core/lv_obj_style_gen.h ****     return (uint16_t)v.num;
 5822              		.loc 2 538 26 is_stmt 0 view .LVU1761
 5823 0048 41F26902 		movw	r2, #4201
 5824 004c 0021     		movs	r1, #0
 5825 004e 2846     		mov	r0, r5
 5826 0050 FFF7FEFF 		bl	lv_obj_get_style_prop
 5827              	.LVL622:
 539:Middlewares/LVGL/GUI/lvgl/src/core/lv_obj_style_gen.h **** }
 5828              		.loc 2 539 5 is_stmt 1 view .LVU1762
 539:Middlewares/LVGL/GUI/lvgl/src/core/lv_obj_style_gen.h **** }
 5829              		.loc 2 539 5 is_stmt 0 view .LVU1763
 5830              	.LBE365:
 5831              	.LBE364:
1104:Middlewares/LVGL/GUI/lvgl/src/core/lv_obj_pos.c ****         if(layout_id > 0 && layout_id <= layout_cnt) {
 5832              		.loc 1 1104 18 view .LVU1764
 5833 0054 80B2     		uxth	r0, r0
 5834              	.LVL623:
1105:Middlewares/LVGL/GUI/lvgl/src/core/lv_obj_pos.c ****             void  * user_data = LV_GC_ROOT(_lv_layout_list)[layout_id - 1].user_data;
 5835              		.loc 1 1105 9 is_stmt 1 view .LVU1765
1105:Middlewares/LVGL/GUI/lvgl/src/core/lv_obj_pos.c ****             void  * user_data = LV_GC_ROOT(_lv_layout_list)[layout_id - 1].user_data;
 5836              		.loc 1 1105 11 is_stmt 0 view .LVU1766
 5837 0056 0028     		cmp	r0, #0
 5838 0058 E7D0     		beq	.L289
1105:Middlewares/LVGL/GUI/lvgl/src/core/lv_obj_pos.c ****             void  * user_data = LV_GC_ROOT(_lv_layout_list)[layout_id - 1].user_data;
 5839              		.loc 1 1105 39 discriminator 1 view .LVU1767
 5840 005a 084B     		ldr	r3, .L295
 5841 005c 1B68     		ldr	r3, [r3]
1105:Middlewares/LVGL/GUI/lvgl/src/core/lv_obj_pos.c ****             void  * user_data = LV_GC_ROOT(_lv_layout_list)[layout_id - 1].user_data;
 5842              		.loc 1 1105 26 discriminator 1 view .LVU1768
 5843 005e 8342     		cmp	r3, r0
 5844 0060 E3D3     		bcc	.L289
 5845              	.LBB366:
1106:Middlewares/LVGL/GUI/lvgl/src/core/lv_obj_pos.c ****             LV_GC_ROOT(_lv_layout_list)[layout_id - 1].cb(obj, user_data);
 5846              		.loc 1 1106 13 is_stmt 1 view .LVU1769
1106:Middlewares/LVGL/GUI/lvgl/src/core/lv_obj_pos.c ****             LV_GC_ROOT(_lv_layout_list)[layout_id - 1].cb(obj, user_data);
 5847              		.loc 1 1106 60 is_stmt 0 view .LVU1770
 5848 0062 00F10050 		add	r0, r0, #536870912
 5849              	.LVL624:
1106:Middlewares/LVGL/GUI/lvgl/src/core/lv_obj_pos.c ****             LV_GC_ROOT(_lv_layout_list)[layout_id - 1].cb(obj, user_data);
 5850              		.loc 1 1106 60 view .LVU1771
 5851 0066 0138     		subs	r0, r0, #1
 5852              	.LVL625:
1106:Middlewares/LVGL/GUI/lvgl/src/core/lv_obj_pos.c ****             LV_GC_ROOT(_lv_layout_list)[layout_id - 1].cb(obj, user_data);
 5853              		.loc 1 1106 60 view .LVU1772
 5854 0068 054B     		ldr	r3, .L295+4
 5855 006a 1B68     		ldr	r3, [r3]
 5856 006c 03EBC002 		add	r2, r3, r0, lsl #3
 5857              	.LVL626:
1107:Middlewares/LVGL/GUI/lvgl/src/core/lv_obj_pos.c ****         }
 5858              		.loc 1 1107 13 is_stmt 1 view .LVU1773
1107:Middlewares/LVGL/GUI/lvgl/src/core/lv_obj_pos.c ****         }
ARM GAS  C:\Users\ADMINI~1\AppData\Local\Temp\ccVA75Tx.s 			page 157


 5859              		.loc 1 1107 55 is_stmt 0 view .LVU1774
 5860 0070 53F83030 		ldr	r3, [r3, r0, lsl #3]
1107:Middlewares/LVGL/GUI/lvgl/src/core/lv_obj_pos.c ****         }
 5861              		.loc 1 1107 13 view .LVU1775
 5862 0074 5168     		ldr	r1, [r2, #4]
 5863 0076 2846     		mov	r0, r5
 5864              	.LVL627:
1107:Middlewares/LVGL/GUI/lvgl/src/core/lv_obj_pos.c ****         }
 5865              		.loc 1 1107 13 view .LVU1776
 5866 0078 9847     		blx	r3
 5867              	.LVL628:
1107:Middlewares/LVGL/GUI/lvgl/src/core/lv_obj_pos.c ****         }
 5868              		.loc 1 1107 13 view .LVU1777
 5869 007a D6E7     		b	.L289
 5870              	.L296:
 5871              		.align	2
 5872              	.L295:
 5873 007c 00000000 		.word	.LANCHOR0
 5874 0080 00000000 		.word	_lv_layout_list
 5875              	.LBE366:
 5876              	.LBE363:
 5877              		.cfi_endproc
 5878              	.LFE205:
 5880              		.section	.text.lv_obj_update_layout,"ax",%progbits
 5881              		.align	1
 5882              		.global	lv_obj_update_layout
 5883              		.syntax unified
 5884              		.thumb
 5885              		.thumb_func
 5887              	lv_obj_update_layout:
 5888              	.LVL629:
 5889              	.LFB171:
 299:Middlewares/LVGL/GUI/lvgl/src/core/lv_obj_pos.c ****     static bool mutex = false;
 5890              		.loc 1 299 1 is_stmt 1 view -0
 5891              		.cfi_startproc
 5892              		@ args = 0, pretend = 0, frame = 0
 5893              		@ frame_needed = 0, uses_anonymous_args = 0
 300:Middlewares/LVGL/GUI/lvgl/src/core/lv_obj_pos.c ****     if(mutex) {
 5894              		.loc 1 300 5 view .LVU1779
 301:Middlewares/LVGL/GUI/lvgl/src/core/lv_obj_pos.c ****         LV_LOG_TRACE("Already running, returning");
 5895              		.loc 1 301 5 view .LVU1780
 301:Middlewares/LVGL/GUI/lvgl/src/core/lv_obj_pos.c ****         LV_LOG_TRACE("Already running, returning");
 5896              		.loc 1 301 8 is_stmt 0 view .LVU1781
 5897 0000 0E4B     		ldr	r3, .L306
 5898 0002 1B78     		ldrb	r3, [r3]	@ zero_extendqisi2
 301:Middlewares/LVGL/GUI/lvgl/src/core/lv_obj_pos.c ****         LV_LOG_TRACE("Already running, returning");
 5899              		.loc 1 301 7 view .LVU1782
 5900 0004 03B1     		cbz	r3, .L305
 5901 0006 7047     		bx	lr
 5902              	.L305:
 299:Middlewares/LVGL/GUI/lvgl/src/core/lv_obj_pos.c ****     static bool mutex = false;
 5903              		.loc 1 299 1 view .LVU1783
 5904 0008 10B5     		push	{r4, lr}
 5905              	.LCFI82:
 5906              		.cfi_def_cfa_offset 8
 5907              		.cfi_offset 4, -8
 5908              		.cfi_offset 14, -4
ARM GAS  C:\Users\ADMINI~1\AppData\Local\Temp\ccVA75Tx.s 			page 158


 305:Middlewares/LVGL/GUI/lvgl/src/core/lv_obj_pos.c **** 
 5909              		.loc 1 305 5 is_stmt 1 view .LVU1784
 305:Middlewares/LVGL/GUI/lvgl/src/core/lv_obj_pos.c **** 
 5910              		.loc 1 305 11 is_stmt 0 view .LVU1785
 5911 000a 0C4B     		ldr	r3, .L306
 5912 000c 0122     		movs	r2, #1
 5913 000e 1A70     		strb	r2, [r3]
 307:Middlewares/LVGL/GUI/lvgl/src/core/lv_obj_pos.c **** 
 5914              		.loc 1 307 5 is_stmt 1 view .LVU1786
 307:Middlewares/LVGL/GUI/lvgl/src/core/lv_obj_pos.c **** 
 5915              		.loc 1 307 22 is_stmt 0 view .LVU1787
 5916 0010 FFF7FEFF 		bl	lv_obj_get_screen
 5917              	.LVL630:
 307:Middlewares/LVGL/GUI/lvgl/src/core/lv_obj_pos.c **** 
 5918              		.loc 1 307 22 view .LVU1788
 5919 0014 0446     		mov	r4, r0
 5920              	.LVL631:
 310:Middlewares/LVGL/GUI/lvgl/src/core/lv_obj_pos.c ****         LV_LOG_INFO("Layout update begin");
 5921              		.loc 1 310 5 is_stmt 1 view .LVU1789
 310:Middlewares/LVGL/GUI/lvgl/src/core/lv_obj_pos.c ****         LV_LOG_INFO("Layout update begin");
 5922              		.loc 1 310 10 is_stmt 0 view .LVU1790
 5923 0016 08E0     		b	.L299
 5924              	.LVL632:
 5925              	.L300:
 311:Middlewares/LVGL/GUI/lvgl/src/core/lv_obj_pos.c ****         scr->scr_layout_inv = 0;
 5926              		.loc 1 311 9 is_stmt 1 view .LVU1791
 311:Middlewares/LVGL/GUI/lvgl/src/core/lv_obj_pos.c ****         scr->scr_layout_inv = 0;
 5927              		.loc 1 311 9 view .LVU1792
 311:Middlewares/LVGL/GUI/lvgl/src/core/lv_obj_pos.c ****         scr->scr_layout_inv = 0;
 5928              		.loc 1 311 9 view .LVU1793
 312:Middlewares/LVGL/GUI/lvgl/src/core/lv_obj_pos.c ****         layout_update_core(scr);
 5929              		.loc 1 312 9 view .LVU1794
 312:Middlewares/LVGL/GUI/lvgl/src/core/lv_obj_pos.c ****         layout_update_core(scr);
 5930              		.loc 1 312 29 is_stmt 0 view .LVU1795
 5931 0018 94F82A30 		ldrb	r3, [r4, #42]	@ zero_extendqisi2
 5932 001c 6FF34103 		bfc	r3, #1, #1
 5933 0020 84F82A30 		strb	r3, [r4, #42]
 313:Middlewares/LVGL/GUI/lvgl/src/core/lv_obj_pos.c ****         LV_LOG_TRACE("Layout update end");
 5934              		.loc 1 313 9 is_stmt 1 view .LVU1796
 5935 0024 2046     		mov	r0, r4
 5936 0026 FFF7FEFF 		bl	layout_update_core
 5937              	.LVL633:
 5938              	.L299:
 314:Middlewares/LVGL/GUI/lvgl/src/core/lv_obj_pos.c ****     }
 5939              		.loc 1 314 9 view .LVU1797
 314:Middlewares/LVGL/GUI/lvgl/src/core/lv_obj_pos.c ****     }
 5940              		.loc 1 314 9 view .LVU1798
 314:Middlewares/LVGL/GUI/lvgl/src/core/lv_obj_pos.c ****     }
 5941              		.loc 1 314 9 view .LVU1799
 310:Middlewares/LVGL/GUI/lvgl/src/core/lv_obj_pos.c ****         LV_LOG_INFO("Layout update begin");
 5942              		.loc 1 310 10 view .LVU1800
 310:Middlewares/LVGL/GUI/lvgl/src/core/lv_obj_pos.c ****         LV_LOG_INFO("Layout update begin");
 5943              		.loc 1 310 11 is_stmt 0 view .LVU1801
 5944 002a 94F82A30 		ldrb	r3, [r4, #42]	@ zero_extendqisi2
 310:Middlewares/LVGL/GUI/lvgl/src/core/lv_obj_pos.c ****         LV_LOG_INFO("Layout update begin");
 5945              		.loc 1 310 10 view .LVU1802
 5946 002e 13F0020F 		tst	r3, #2
ARM GAS  C:\Users\ADMINI~1\AppData\Local\Temp\ccVA75Tx.s 			page 159


 5947 0032 F1D1     		bne	.L300
 317:Middlewares/LVGL/GUI/lvgl/src/core/lv_obj_pos.c **** }
 5948              		.loc 1 317 5 is_stmt 1 view .LVU1803
 317:Middlewares/LVGL/GUI/lvgl/src/core/lv_obj_pos.c **** }
 5949              		.loc 1 317 11 is_stmt 0 view .LVU1804
 5950 0034 014B     		ldr	r3, .L306
 5951 0036 0022     		movs	r2, #0
 5952 0038 1A70     		strb	r2, [r3]
 318:Middlewares/LVGL/GUI/lvgl/src/core/lv_obj_pos.c **** 
 5953              		.loc 1 318 1 view .LVU1805
 5954 003a 10BD     		pop	{r4, pc}
 5955              	.LVL634:
 5956              	.L307:
 318:Middlewares/LVGL/GUI/lvgl/src/core/lv_obj_pos.c **** 
 5957              		.loc 1 318 1 view .LVU1806
 5958              		.align	2
 5959              	.L306:
 5960 003c 00000000 		.word	.LANCHOR1
 5961              		.cfi_endproc
 5962              	.LFE171:
 5964              		.section	.text.lv_obj_align_to,"ax",%progbits
 5965              		.align	1
 5966              		.global	lv_obj_align_to
 5967              		.syntax unified
 5968              		.thumb
 5969              		.thumb_func
 5971              	lv_obj_align_to:
 5972              	.LVL635:
 5973              	.LFB175:
 343:Middlewares/LVGL/GUI/lvgl/src/core/lv_obj_pos.c ****     LV_ASSERT_OBJ(obj, MY_CLASS);
 5974              		.loc 1 343 1 is_stmt 1 view -0
 5975              		.cfi_startproc
 5976              		@ args = 4, pretend = 0, frame = 8
 5977              		@ frame_needed = 0, uses_anonymous_args = 0
 343:Middlewares/LVGL/GUI/lvgl/src/core/lv_obj_pos.c ****     LV_ASSERT_OBJ(obj, MY_CLASS);
 5978              		.loc 1 343 1 is_stmt 0 view .LVU1808
 5979 0000 2DE9F04F 		push	{r4, r5, r6, r7, r8, r9, r10, fp, lr}
 5980              	.LCFI83:
 5981              		.cfi_def_cfa_offset 36
 5982              		.cfi_offset 4, -36
 5983              		.cfi_offset 5, -32
 5984              		.cfi_offset 6, -28
 5985              		.cfi_offset 7, -24
 5986              		.cfi_offset 8, -20
 5987              		.cfi_offset 9, -16
 5988              		.cfi_offset 10, -12
 5989              		.cfi_offset 11, -8
 5990              		.cfi_offset 14, -4
 5991 0004 83B0     		sub	sp, sp, #12
 5992              	.LCFI84:
 5993              		.cfi_def_cfa_offset 48
 5994 0006 0746     		mov	r7, r0
 5995 0008 0C46     		mov	r4, r1
 5996 000a 9146     		mov	r9, r2
 5997 000c 0193     		str	r3, [sp, #4]
 344:Middlewares/LVGL/GUI/lvgl/src/core/lv_obj_pos.c **** 
 5998              		.loc 1 344 5 is_stmt 1 view .LVU1809
ARM GAS  C:\Users\ADMINI~1\AppData\Local\Temp\ccVA75Tx.s 			page 160


 344:Middlewares/LVGL/GUI/lvgl/src/core/lv_obj_pos.c **** 
 5999              		.loc 1 344 5 view .LVU1810
 344:Middlewares/LVGL/GUI/lvgl/src/core/lv_obj_pos.c **** 
 6000              		.loc 1 344 5 view .LVU1811
 346:Middlewares/LVGL/GUI/lvgl/src/core/lv_obj_pos.c ****     if(base == NULL) base = lv_obj_get_parent(obj);
 6001              		.loc 1 346 5 view .LVU1812
 6002 000e FFF7FEFF 		bl	lv_obj_update_layout
 6003              	.LVL636:
 347:Middlewares/LVGL/GUI/lvgl/src/core/lv_obj_pos.c **** 
 6004              		.loc 1 347 5 view .LVU1813
 347:Middlewares/LVGL/GUI/lvgl/src/core/lv_obj_pos.c **** 
 6005              		.loc 1 347 7 is_stmt 0 view .LVU1814
 6006 0012 002C     		cmp	r4, #0
 6007 0014 4DD0     		beq	.L337
 6008              	.L309:
 349:Middlewares/LVGL/GUI/lvgl/src/core/lv_obj_pos.c **** 
 6009              		.loc 1 349 5 is_stmt 1 view .LVU1815
 349:Middlewares/LVGL/GUI/lvgl/src/core/lv_obj_pos.c **** 
 6010              		.loc 1 349 5 view .LVU1816
 349:Middlewares/LVGL/GUI/lvgl/src/core/lv_obj_pos.c **** 
 6011              		.loc 1 349 5 view .LVU1817
 351:Middlewares/LVGL/GUI/lvgl/src/core/lv_obj_pos.c ****     lv_coord_t y = 0;
 6012              		.loc 1 351 5 view .LVU1818
 6013              	.LVL637:
 352:Middlewares/LVGL/GUI/lvgl/src/core/lv_obj_pos.c **** 
 6014              		.loc 1 352 5 view .LVU1819
 354:Middlewares/LVGL/GUI/lvgl/src/core/lv_obj_pos.c ****     lv_coord_t pborder = lv_obj_get_style_border_width(parent, LV_PART_MAIN);
 6015              		.loc 1 354 5 view .LVU1820
 354:Middlewares/LVGL/GUI/lvgl/src/core/lv_obj_pos.c ****     lv_coord_t pborder = lv_obj_get_style_border_width(parent, LV_PART_MAIN);
 6016              		.loc 1 354 25 is_stmt 0 view .LVU1821
 6017 0016 3846     		mov	r0, r7
 6018 0018 FFF7FEFF 		bl	lv_obj_get_parent
 6019              	.LVL638:
 6020 001c 0646     		mov	r6, r0
 6021              	.LVL639:
 355:Middlewares/LVGL/GUI/lvgl/src/core/lv_obj_pos.c ****     lv_coord_t pleft = lv_obj_get_style_pad_left(parent, LV_PART_MAIN) + pborder;
 6022              		.loc 1 355 5 is_stmt 1 view .LVU1822
 6023              	.LBB367:
 6024              	.LBI367:
 241:Middlewares/LVGL/GUI/lvgl/src/core/lv_obj_style_gen.h **** {
 6025              		.loc 2 241 26 view .LVU1823
 6026              	.LBB368:
 243:Middlewares/LVGL/GUI/lvgl/src/core/lv_obj_style_gen.h ****     return (lv_coord_t)v.num;
 6027              		.loc 2 243 5 view .LVU1824
 243:Middlewares/LVGL/GUI/lvgl/src/core/lv_obj_style_gen.h ****     return (lv_coord_t)v.num;
 6028              		.loc 2 243 26 is_stmt 0 view .LVU1825
 6029 001e 41F23202 		movw	r2, #4146
 6030 0022 0021     		movs	r1, #0
 6031 0024 FFF7FEFF 		bl	lv_obj_get_style_prop
 6032              	.LVL640:
 243:Middlewares/LVGL/GUI/lvgl/src/core/lv_obj_style_gen.h ****     return (lv_coord_t)v.num;
 6033              		.loc 2 243 26 view .LVU1826
 6034 0028 8046     		mov	r8, r0
 6035              	.LVL641:
 244:Middlewares/LVGL/GUI/lvgl/src/core/lv_obj_style_gen.h **** }
 6036              		.loc 2 244 5 is_stmt 1 view .LVU1827
 244:Middlewares/LVGL/GUI/lvgl/src/core/lv_obj_style_gen.h **** }
ARM GAS  C:\Users\ADMINI~1\AppData\Local\Temp\ccVA75Tx.s 			page 161


 6037              		.loc 2 244 5 is_stmt 0 view .LVU1828
 6038              	.LBE368:
 6039              	.LBE367:
 356:Middlewares/LVGL/GUI/lvgl/src/core/lv_obj_pos.c ****     lv_coord_t ptop = lv_obj_get_style_pad_top(parent, LV_PART_MAIN) + pborder;
 6040              		.loc 1 356 5 is_stmt 1 view .LVU1829
 6041              	.LBB369:
 6042              	.LBI369:
 103:Middlewares/LVGL/GUI/lvgl/src/core/lv_obj_style_gen.h **** {
 6043              		.loc 2 103 26 view .LVU1830
 6044              	.LBB370:
 105:Middlewares/LVGL/GUI/lvgl/src/core/lv_obj_style_gen.h ****     return (lv_coord_t)v.num;
 6045              		.loc 2 105 5 view .LVU1831
 105:Middlewares/LVGL/GUI/lvgl/src/core/lv_obj_style_gen.h ****     return (lv_coord_t)v.num;
 6046              		.loc 2 105 26 is_stmt 0 view .LVU1832
 6047 002a 41F61202 		movw	r2, #6162
 6048 002e 0021     		movs	r1, #0
 6049 0030 3046     		mov	r0, r6
 6050              	.LVL642:
 105:Middlewares/LVGL/GUI/lvgl/src/core/lv_obj_style_gen.h ****     return (lv_coord_t)v.num;
 6051              		.loc 2 105 26 view .LVU1833
 6052 0032 FFF7FEFF 		bl	lv_obj_get_style_prop
 6053              	.LVL643:
 106:Middlewares/LVGL/GUI/lvgl/src/core/lv_obj_style_gen.h **** }
 6054              		.loc 2 106 5 is_stmt 1 view .LVU1834
 106:Middlewares/LVGL/GUI/lvgl/src/core/lv_obj_style_gen.h **** }
 6055              		.loc 2 106 5 is_stmt 0 view .LVU1835
 6056              	.LBE370:
 6057              	.LBE369:
 356:Middlewares/LVGL/GUI/lvgl/src/core/lv_obj_pos.c ****     lv_coord_t ptop = lv_obj_get_style_pad_top(parent, LV_PART_MAIN) + pborder;
 6058              		.loc 1 356 16 view .LVU1836
 6059 0036 08EB000B 		add	fp, r8, r0
 6060              	.LVL644:
 357:Middlewares/LVGL/GUI/lvgl/src/core/lv_obj_pos.c **** 
 6061              		.loc 1 357 5 is_stmt 1 view .LVU1837
 6062              	.LBB371:
 6063              	.LBI371:
  91:Middlewares/LVGL/GUI/lvgl/src/core/lv_obj_style_gen.h **** {
 6064              		.loc 2 91 26 view .LVU1838
 6065              	.LBB372:
  93:Middlewares/LVGL/GUI/lvgl/src/core/lv_obj_style_gen.h ****     return (lv_coord_t)v.num;
 6066              		.loc 2 93 5 view .LVU1839
  93:Middlewares/LVGL/GUI/lvgl/src/core/lv_obj_style_gen.h ****     return (lv_coord_t)v.num;
 6067              		.loc 2 93 26 is_stmt 0 view .LVU1840
 6068 003a 41F61002 		movw	r2, #6160
 6069 003e 0021     		movs	r1, #0
 6070 0040 3046     		mov	r0, r6
 6071 0042 FFF7FEFF 		bl	lv_obj_get_style_prop
 6072              	.LVL645:
  94:Middlewares/LVGL/GUI/lvgl/src/core/lv_obj_style_gen.h **** }
 6073              		.loc 2 94 5 is_stmt 1 view .LVU1841
  94:Middlewares/LVGL/GUI/lvgl/src/core/lv_obj_style_gen.h **** }
 6074              		.loc 2 94 5 is_stmt 0 view .LVU1842
 6075              	.LBE372:
 6076              	.LBE371:
 357:Middlewares/LVGL/GUI/lvgl/src/core/lv_obj_pos.c **** 
 6077              		.loc 1 357 16 view .LVU1843
 6078 0046 8044     		add	r8, r8, r0
ARM GAS  C:\Users\ADMINI~1\AppData\Local\Temp\ccVA75Tx.s 			page 162


 6079              	.LVL646:
 359:Middlewares/LVGL/GUI/lvgl/src/core/lv_obj_pos.c ****     lv_coord_t bleft = lv_obj_get_style_pad_left(base, LV_PART_MAIN) + bborder;
 6080              		.loc 1 359 5 is_stmt 1 view .LVU1844
 6081              	.LBB373:
 6082              	.LBI373:
 241:Middlewares/LVGL/GUI/lvgl/src/core/lv_obj_style_gen.h **** {
 6083              		.loc 2 241 26 view .LVU1845
 6084              	.LBB374:
 243:Middlewares/LVGL/GUI/lvgl/src/core/lv_obj_style_gen.h ****     return (lv_coord_t)v.num;
 6085              		.loc 2 243 5 view .LVU1846
 243:Middlewares/LVGL/GUI/lvgl/src/core/lv_obj_style_gen.h ****     return (lv_coord_t)v.num;
 6086              		.loc 2 243 26 is_stmt 0 view .LVU1847
 6087 0048 41F23202 		movw	r2, #4146
 6088 004c 0021     		movs	r1, #0
 6089 004e 2046     		mov	r0, r4
 6090 0050 FFF7FEFF 		bl	lv_obj_get_style_prop
 6091              	.LVL647:
 6092 0054 0546     		mov	r5, r0
 6093              	.LVL648:
 244:Middlewares/LVGL/GUI/lvgl/src/core/lv_obj_style_gen.h **** }
 6094              		.loc 2 244 5 is_stmt 1 view .LVU1848
 244:Middlewares/LVGL/GUI/lvgl/src/core/lv_obj_style_gen.h **** }
 6095              		.loc 2 244 5 is_stmt 0 view .LVU1849
 6096              	.LBE374:
 6097              	.LBE373:
 360:Middlewares/LVGL/GUI/lvgl/src/core/lv_obj_pos.c ****     lv_coord_t btop = lv_obj_get_style_pad_top(base, LV_PART_MAIN) + bborder;
 6098              		.loc 1 360 5 is_stmt 1 view .LVU1850
 6099              	.LBB375:
 6100              	.LBI375:
 103:Middlewares/LVGL/GUI/lvgl/src/core/lv_obj_style_gen.h **** {
 6101              		.loc 2 103 26 view .LVU1851
 6102              	.LBB376:
 105:Middlewares/LVGL/GUI/lvgl/src/core/lv_obj_style_gen.h ****     return (lv_coord_t)v.num;
 6103              		.loc 2 105 5 view .LVU1852
 105:Middlewares/LVGL/GUI/lvgl/src/core/lv_obj_style_gen.h ****     return (lv_coord_t)v.num;
 6104              		.loc 2 105 26 is_stmt 0 view .LVU1853
 6105 0056 41F61202 		movw	r2, #6162
 6106 005a 0021     		movs	r1, #0
 6107 005c 2046     		mov	r0, r4
 6108              	.LVL649:
 105:Middlewares/LVGL/GUI/lvgl/src/core/lv_obj_style_gen.h ****     return (lv_coord_t)v.num;
 6109              		.loc 2 105 26 view .LVU1854
 6110 005e FFF7FEFF 		bl	lv_obj_get_style_prop
 6111              	.LVL650:
 106:Middlewares/LVGL/GUI/lvgl/src/core/lv_obj_style_gen.h **** }
 6112              		.loc 2 106 5 is_stmt 1 view .LVU1855
 106:Middlewares/LVGL/GUI/lvgl/src/core/lv_obj_style_gen.h **** }
 6113              		.loc 2 106 5 is_stmt 0 view .LVU1856
 6114              	.LBE376:
 6115              	.LBE375:
 360:Middlewares/LVGL/GUI/lvgl/src/core/lv_obj_pos.c ****     lv_coord_t btop = lv_obj_get_style_pad_top(base, LV_PART_MAIN) + bborder;
 6116              		.loc 1 360 16 view .LVU1857
 6117 0062 05EB000A 		add	r10, r5, r0
 6118              	.LVL651:
 361:Middlewares/LVGL/GUI/lvgl/src/core/lv_obj_pos.c **** 
 6119              		.loc 1 361 5 is_stmt 1 view .LVU1858
 6120              	.LBB377:
ARM GAS  C:\Users\ADMINI~1\AppData\Local\Temp\ccVA75Tx.s 			page 163


 6121              	.LBI377:
  91:Middlewares/LVGL/GUI/lvgl/src/core/lv_obj_style_gen.h **** {
 6122              		.loc 2 91 26 view .LVU1859
 6123              	.LBB378:
  93:Middlewares/LVGL/GUI/lvgl/src/core/lv_obj_style_gen.h ****     return (lv_coord_t)v.num;
 6124              		.loc 2 93 5 view .LVU1860
  93:Middlewares/LVGL/GUI/lvgl/src/core/lv_obj_style_gen.h ****     return (lv_coord_t)v.num;
 6125              		.loc 2 93 26 is_stmt 0 view .LVU1861
 6126 0066 41F61002 		movw	r2, #6160
 6127 006a 0021     		movs	r1, #0
 6128 006c 2046     		mov	r0, r4
 6129 006e FFF7FEFF 		bl	lv_obj_get_style_prop
 6130              	.LVL652:
  94:Middlewares/LVGL/GUI/lvgl/src/core/lv_obj_style_gen.h **** }
 6131              		.loc 2 94 5 is_stmt 1 view .LVU1862
  94:Middlewares/LVGL/GUI/lvgl/src/core/lv_obj_style_gen.h **** }
 6132              		.loc 2 94 5 is_stmt 0 view .LVU1863
 6133              	.LBE378:
 6134              	.LBE377:
 361:Middlewares/LVGL/GUI/lvgl/src/core/lv_obj_pos.c **** 
 6135              		.loc 1 361 16 view .LVU1864
 6136 0072 0544     		add	r5, r5, r0
 6137              	.LVL653:
 363:Middlewares/LVGL/GUI/lvgl/src/core/lv_obj_pos.c ****         if(lv_obj_get_style_base_dir(base, LV_PART_MAIN) == LV_BASE_DIR_RTL) align = LV_ALIGN_TOP_R
 6138              		.loc 1 363 5 is_stmt 1 view .LVU1865
 363:Middlewares/LVGL/GUI/lvgl/src/core/lv_obj_pos.c ****         if(lv_obj_get_style_base_dir(base, LV_PART_MAIN) == LV_BASE_DIR_RTL) align = LV_ALIGN_TOP_R
 6139              		.loc 1 363 7 is_stmt 0 view .LVU1866
 6140 0074 B9F1000F 		cmp	r9, #0
 6141 0078 20D0     		beq	.L338
 6142              	.LVL654:
 368:Middlewares/LVGL/GUI/lvgl/src/core/lv_obj_pos.c ****         case LV_ALIGN_CENTER:
 6143              		.loc 1 368 5 is_stmt 1 view .LVU1867
 6144 007a 09F1FF39 		add	r9, r9, #-1
 6145              	.LVL655:
 368:Middlewares/LVGL/GUI/lvgl/src/core/lv_obj_pos.c ****         case LV_ALIGN_CENTER:
 6146              		.loc 1 368 5 is_stmt 0 view .LVU1868
 6147 007e B9F1140F 		cmp	r9, #20
 6148 0082 54D8     		bhi	.L313
 6149 0084 DFE819F0 		tbh	[pc, r9, lsl #1]
 6150              	.L315:
 6151 0088 2300     		.2byte	(.L312-.L315)/2
 6152 008a 7500     		.2byte	(.L333-.L315)/2
 6153 008c 8500     		.2byte	(.L311-.L315)/2
 6154 008e 9000     		.2byte	(.L332-.L315)/2
 6155 0090 9B00     		.2byte	(.L331-.L315)/2
 6156 0092 B500     		.2byte	(.L330-.L315)/2
 6157 0094 CA00     		.2byte	(.L329-.L315)/2
 6158 0096 DA00     		.2byte	(.L328-.L315)/2
 6159 0098 5600     		.2byte	(.L327-.L315)/2
 6160 009a F400     		.2byte	(.L326-.L315)/2
 6161 009c FB00     		.2byte	(.L325-.L315)/2
 6162 009e 0E01     		.2byte	(.L324-.L315)/2
 6163 00a0 1C01     		.2byte	(.L323-.L315)/2
 6164 00a2 2301     		.2byte	(.L322-.L315)/2
 6165 00a4 3601     		.2byte	(.L321-.L315)/2
 6166 00a6 4401     		.2byte	(.L320-.L315)/2
 6167 00a8 4B01     		.2byte	(.L319-.L315)/2
ARM GAS  C:\Users\ADMINI~1\AppData\Local\Temp\ccVA75Tx.s 			page 164


 6168 00aa 5E01     		.2byte	(.L318-.L315)/2
 6169 00ac 6C01     		.2byte	(.L317-.L315)/2
 6170 00ae 7201     		.2byte	(.L316-.L315)/2
 6171 00b0 8401     		.2byte	(.L314-.L315)/2
 6172              	.LVL656:
 6173              		.p2align 1
 6174              	.L337:
 347:Middlewares/LVGL/GUI/lvgl/src/core/lv_obj_pos.c **** 
 6175              		.loc 1 347 22 is_stmt 1 discriminator 1 view .LVU1869
 347:Middlewares/LVGL/GUI/lvgl/src/core/lv_obj_pos.c **** 
 6176              		.loc 1 347 29 is_stmt 0 discriminator 1 view .LVU1870
 6177 00b2 3846     		mov	r0, r7
 6178 00b4 FFF7FEFF 		bl	lv_obj_get_parent
 6179              	.LVL657:
 6180 00b8 0446     		mov	r4, r0
 6181              	.LVL658:
 347:Middlewares/LVGL/GUI/lvgl/src/core/lv_obj_pos.c **** 
 6182              		.loc 1 347 29 discriminator 1 view .LVU1871
 6183 00ba ACE7     		b	.L309
 6184              	.LVL659:
 6185              	.L338:
 364:Middlewares/LVGL/GUI/lvgl/src/core/lv_obj_pos.c ****         else align = LV_ALIGN_TOP_LEFT;
 6186              		.loc 1 364 9 is_stmt 1 view .LVU1872
 6187              	.LBB379:
 6188              	.LBI379:
 542:Middlewares/LVGL/GUI/lvgl/src/core/lv_obj_style_gen.h **** {
 6189              		.loc 2 542 29 view .LVU1873
 6190              	.LBB380:
 544:Middlewares/LVGL/GUI/lvgl/src/core/lv_obj_style_gen.h ****     return (lv_base_dir_t)v.num;
 6191              		.loc 2 544 5 view .LVU1874
 544:Middlewares/LVGL/GUI/lvgl/src/core/lv_obj_style_gen.h ****     return (lv_base_dir_t)v.num;
 6192              		.loc 2 544 26 is_stmt 0 view .LVU1875
 6193 00bc 41F26A42 		movw	r2, #5226
 6194 00c0 0021     		movs	r1, #0
 6195 00c2 2046     		mov	r0, r4
 6196 00c4 FFF7FEFF 		bl	lv_obj_get_style_prop
 6197              	.LVL660:
 6198              		.loc 2 545 5 is_stmt 1 view .LVU1876
 6199              		.loc 2 545 12 is_stmt 0 view .LVU1877
 6200 00c8 C0B2     		uxtb	r0, r0
 6201              	.LVL661:
 6202              		.loc 2 545 12 view .LVU1878
 6203              	.LBE380:
 6204              	.LBE379:
 364:Middlewares/LVGL/GUI/lvgl/src/core/lv_obj_pos.c ****         else align = LV_ALIGN_TOP_LEFT;
 6205              		.loc 1 364 11 view .LVU1879
 6206 00ca 0128     		cmp	r0, #1
 6207 00cc 61D0     		beq	.L311
 6208              	.LVL662:
 6209              	.L312:
 472:Middlewares/LVGL/GUI/lvgl/src/core/lv_obj_pos.c ****         x += x_ofs + base->coords.x1 - parent->coords.x1 + lv_obj_get_scroll_right(parent) - pleft;
 6210              		.loc 1 472 5 is_stmt 1 view .LVU1880
 6211              	.LBB381:
 6212              	.LBI381:
 542:Middlewares/LVGL/GUI/lvgl/src/core/lv_obj_style_gen.h **** {
 6213              		.loc 2 542 29 view .LVU1881
 6214              	.LBB382:
ARM GAS  C:\Users\ADMINI~1\AppData\Local\Temp\ccVA75Tx.s 			page 165


 544:Middlewares/LVGL/GUI/lvgl/src/core/lv_obj_style_gen.h ****     return (lv_base_dir_t)v.num;
 6215              		.loc 2 544 5 view .LVU1882
 544:Middlewares/LVGL/GUI/lvgl/src/core/lv_obj_style_gen.h ****     return (lv_base_dir_t)v.num;
 6216              		.loc 2 544 26 is_stmt 0 view .LVU1883
 6217 00ce 41F26A42 		movw	r2, #5226
 6218 00d2 0021     		movs	r1, #0
 6219 00d4 3046     		mov	r0, r6
 6220 00d6 FFF7FEFF 		bl	lv_obj_get_style_prop
 6221              	.LVL663:
 6222              		.loc 2 545 5 is_stmt 1 view .LVU1884
 6223              		.loc 2 545 12 is_stmt 0 view .LVU1885
 6224 00da C0B2     		uxtb	r0, r0
 6225              	.LVL664:
 6226              		.loc 2 545 12 view .LVU1886
 6227              	.LBE382:
 6228              	.LBE381:
 472:Middlewares/LVGL/GUI/lvgl/src/core/lv_obj_pos.c ****         x += x_ofs + base->coords.x1 - parent->coords.x1 + lv_obj_get_scroll_right(parent) - pleft;
 6229              		.loc 1 472 7 view .LVU1887
 6230 00dc 0128     		cmp	r0, #1
 6231 00de 00F06481 		beq	.L339
 476:Middlewares/LVGL/GUI/lvgl/src/core/lv_obj_pos.c ****     }
 6232              		.loc 1 476 9 is_stmt 1 view .LVU1888
 476:Middlewares/LVGL/GUI/lvgl/src/core/lv_obj_pos.c ****     }
 6233              		.loc 1 476 34 is_stmt 0 view .LVU1889
 6234 00e2 6369     		ldr	r3, [r4, #20]
 476:Middlewares/LVGL/GUI/lvgl/src/core/lv_obj_pos.c ****     }
 6235              		.loc 1 476 20 view .LVU1890
 6236 00e4 019A     		ldr	r2, [sp, #4]
 6237 00e6 1344     		add	r3, r3, r2
 476:Middlewares/LVGL/GUI/lvgl/src/core/lv_obj_pos.c ****     }
 6238              		.loc 1 476 54 view .LVU1891
 6239 00e8 7269     		ldr	r2, [r6, #20]
 476:Middlewares/LVGL/GUI/lvgl/src/core/lv_obj_pos.c ****     }
 6240              		.loc 1 476 38 view .LVU1892
 6241 00ea A3EB0209 		sub	r9, r3, r2
 476:Middlewares/LVGL/GUI/lvgl/src/core/lv_obj_pos.c ****     }
 6242              		.loc 1 476 60 view .LVU1893
 6243 00ee 3046     		mov	r0, r6
 6244 00f0 FFF7FEFF 		bl	lv_obj_get_scroll_left
 6245              	.LVL665:
 476:Middlewares/LVGL/GUI/lvgl/src/core/lv_obj_pos.c ****     }
 6246              		.loc 1 476 58 view .LVU1894
 6247 00f4 8144     		add	r9, r9, r0
 476:Middlewares/LVGL/GUI/lvgl/src/core/lv_obj_pos.c ****     }
 6248              		.loc 1 476 91 view .LVU1895
 6249 00f6 A9EB0B0B 		sub	fp, r9, fp
 6250              	.LVL666:
 476:Middlewares/LVGL/GUI/lvgl/src/core/lv_obj_pos.c ****     }
 6251              		.loc 1 476 11 view .LVU1896
 6252 00fa DA44     		add	r10, r10, fp
 6253              	.LVL667:
 6254              	.L335:
 478:Middlewares/LVGL/GUI/lvgl/src/core/lv_obj_pos.c ****     lv_obj_set_style_align(obj, LV_ALIGN_TOP_LEFT, 0);
 6255              		.loc 1 478 5 is_stmt 1 view .LVU1897
 478:Middlewares/LVGL/GUI/lvgl/src/core/lv_obj_pos.c ****     lv_obj_set_style_align(obj, LV_ALIGN_TOP_LEFT, 0);
 6256              		.loc 1 478 30 is_stmt 0 view .LVU1898
 6257 00fc A469     		ldr	r4, [r4, #24]
ARM GAS  C:\Users\ADMINI~1\AppData\Local\Temp\ccVA75Tx.s 			page 166


 6258              	.LVL668:
 478:Middlewares/LVGL/GUI/lvgl/src/core/lv_obj_pos.c ****     lv_obj_set_style_align(obj, LV_ALIGN_TOP_LEFT, 0);
 6259              		.loc 1 478 16 view .LVU1899
 6260 00fe 0C9B     		ldr	r3, [sp, #48]
 6261 0100 1C44     		add	r4, r4, r3
 478:Middlewares/LVGL/GUI/lvgl/src/core/lv_obj_pos.c ****     lv_obj_set_style_align(obj, LV_ALIGN_TOP_LEFT, 0);
 6262              		.loc 1 478 50 view .LVU1900
 6263 0102 B369     		ldr	r3, [r6, #24]
 478:Middlewares/LVGL/GUI/lvgl/src/core/lv_obj_pos.c ****     lv_obj_set_style_align(obj, LV_ALIGN_TOP_LEFT, 0);
 6264              		.loc 1 478 34 view .LVU1901
 6265 0104 E41A     		subs	r4, r4, r3
 478:Middlewares/LVGL/GUI/lvgl/src/core/lv_obj_pos.c ****     lv_obj_set_style_align(obj, LV_ALIGN_TOP_LEFT, 0);
 6266              		.loc 1 478 56 view .LVU1902
 6267 0106 3046     		mov	r0, r6
 6268 0108 FFF7FEFF 		bl	lv_obj_get_scroll_top
 6269              	.LVL669:
 478:Middlewares/LVGL/GUI/lvgl/src/core/lv_obj_pos.c ****     lv_obj_set_style_align(obj, LV_ALIGN_TOP_LEFT, 0);
 6270              		.loc 1 478 54 view .LVU1903
 6271 010c 0444     		add	r4, r4, r0
 478:Middlewares/LVGL/GUI/lvgl/src/core/lv_obj_pos.c ****     lv_obj_set_style_align(obj, LV_ALIGN_TOP_LEFT, 0);
 6272              		.loc 1 478 86 view .LVU1904
 6273 010e A4EB0808 		sub	r8, r4, r8
 6274              	.LVL670:
 478:Middlewares/LVGL/GUI/lvgl/src/core/lv_obj_pos.c ****     lv_obj_set_style_align(obj, LV_ALIGN_TOP_LEFT, 0);
 6275              		.loc 1 478 7 view .LVU1905
 6276 0112 4544     		add	r5, r5, r8
 6277              	.LVL671:
 479:Middlewares/LVGL/GUI/lvgl/src/core/lv_obj_pos.c ****     lv_obj_set_pos(obj, x, y);
 6278              		.loc 1 479 5 is_stmt 1 view .LVU1906
 6279 0114 0022     		movs	r2, #0
 6280 0116 0121     		movs	r1, #1
 6281 0118 3846     		mov	r0, r7
 6282 011a FFF7FEFF 		bl	lv_obj_set_style_align
 6283              	.LVL672:
 480:Middlewares/LVGL/GUI/lvgl/src/core/lv_obj_pos.c **** 
 6284              		.loc 1 480 5 view .LVU1907
 6285 011e 2A46     		mov	r2, r5
 6286 0120 5146     		mov	r1, r10
 6287 0122 3846     		mov	r0, r7
 6288 0124 FFF7FEFF 		bl	lv_obj_set_pos
 6289              	.LVL673:
 482:Middlewares/LVGL/GUI/lvgl/src/core/lv_obj_pos.c **** 
 6290              		.loc 1 482 1 is_stmt 0 view .LVU1908
 6291 0128 03B0     		add	sp, sp, #12
 6292              	.LCFI85:
 6293              		.cfi_remember_state
 6294              		.cfi_def_cfa_offset 36
 6295              		@ sp needed
 6296 012a BDE8F08F 		pop	{r4, r5, r6, r7, r8, r9, r10, fp, pc}
 6297              	.LVL674:
 6298              	.L313:
 6299              	.LCFI86:
 6300              		.cfi_restore_state
 368:Middlewares/LVGL/GUI/lvgl/src/core/lv_obj_pos.c ****         case LV_ALIGN_CENTER:
 6301              		.loc 1 368 5 view .LVU1909
 6302 012e 0025     		movs	r5, #0
 6303              	.LVL675:
ARM GAS  C:\Users\ADMINI~1\AppData\Local\Temp\ccVA75Tx.s 			page 167


 368:Middlewares/LVGL/GUI/lvgl/src/core/lv_obj_pos.c ****         case LV_ALIGN_CENTER:
 6304              		.loc 1 368 5 view .LVU1910
 6305 0130 AA46     		mov	r10, r5
 6306              	.LVL676:
 368:Middlewares/LVGL/GUI/lvgl/src/core/lv_obj_pos.c ****         case LV_ALIGN_CENTER:
 6307              		.loc 1 368 5 view .LVU1911
 6308 0132 CCE7     		b	.L312
 6309              	.LVL677:
 6310              	.L327:
 370:Middlewares/LVGL/GUI/lvgl/src/core/lv_obj_pos.c ****             y = lv_obj_get_content_height(base) / 2 - lv_obj_get_height(obj) / 2 + btop;
 6311              		.loc 1 370 13 is_stmt 1 view .LVU1912
 370:Middlewares/LVGL/GUI/lvgl/src/core/lv_obj_pos.c ****             y = lv_obj_get_content_height(base) / 2 - lv_obj_get_height(obj) / 2 + btop;
 6312              		.loc 1 370 17 is_stmt 0 view .LVU1913
 6313 0134 2046     		mov	r0, r4
 6314 0136 FFF7FEFF 		bl	lv_obj_get_content_width
 6315              	.LVL678:
 370:Middlewares/LVGL/GUI/lvgl/src/core/lv_obj_pos.c ****             y = lv_obj_get_content_height(base) / 2 - lv_obj_get_height(obj) / 2 + btop;
 6316              		.loc 1 370 48 view .LVU1914
 6317 013a 00EBD070 		add	r0, r0, r0, lsr #31
 6318 013e 4FEA6009 		asr	r9, r0, #1
 370:Middlewares/LVGL/GUI/lvgl/src/core/lv_obj_pos.c ****             y = lv_obj_get_content_height(base) / 2 - lv_obj_get_height(obj) / 2 + btop;
 6319              		.loc 1 370 54 view .LVU1915
 6320 0142 3846     		mov	r0, r7
 6321 0144 FFF7FEFF 		bl	lv_obj_get_width
 6322              	.LVL679:
 370:Middlewares/LVGL/GUI/lvgl/src/core/lv_obj_pos.c ****             y = lv_obj_get_content_height(base) / 2 - lv_obj_get_height(obj) / 2 + btop;
 6323              		.loc 1 370 76 view .LVU1916
 6324 0148 00EBD070 		add	r0, r0, r0, lsr #31
 370:Middlewares/LVGL/GUI/lvgl/src/core/lv_obj_pos.c ****             y = lv_obj_get_content_height(base) / 2 - lv_obj_get_height(obj) / 2 + btop;
 6325              		.loc 1 370 52 view .LVU1917
 6326 014c A9EB6000 		sub	r0, r9, r0, asr #1
 370:Middlewares/LVGL/GUI/lvgl/src/core/lv_obj_pos.c ****             y = lv_obj_get_content_height(base) / 2 - lv_obj_get_height(obj) / 2 + btop;
 6327              		.loc 1 370 15 view .LVU1918
 6328 0150 8244     		add	r10, r10, r0
 6329              	.LVL680:
 371:Middlewares/LVGL/GUI/lvgl/src/core/lv_obj_pos.c ****             break;
 6330              		.loc 1 371 13 is_stmt 1 view .LVU1919
 371:Middlewares/LVGL/GUI/lvgl/src/core/lv_obj_pos.c ****             break;
 6331              		.loc 1 371 17 is_stmt 0 view .LVU1920
 6332 0152 2046     		mov	r0, r4
 6333 0154 FFF7FEFF 		bl	lv_obj_get_content_height
 6334              	.LVL681:
 371:Middlewares/LVGL/GUI/lvgl/src/core/lv_obj_pos.c ****             break;
 6335              		.loc 1 371 49 view .LVU1921
 6336 0158 00EBD070 		add	r0, r0, r0, lsr #31
 6337 015c 4FEA6009 		asr	r9, r0, #1
 371:Middlewares/LVGL/GUI/lvgl/src/core/lv_obj_pos.c ****             break;
 6338              		.loc 1 371 55 view .LVU1922
 6339 0160 3846     		mov	r0, r7
 6340 0162 FFF7FEFF 		bl	lv_obj_get_height
 6341              	.LVL682:
 371:Middlewares/LVGL/GUI/lvgl/src/core/lv_obj_pos.c ****             break;
 6342              		.loc 1 371 78 view .LVU1923
 6343 0166 00EBD070 		add	r0, r0, r0, lsr #31
 371:Middlewares/LVGL/GUI/lvgl/src/core/lv_obj_pos.c ****             break;
 6344              		.loc 1 371 53 view .LVU1924
 6345 016a A9EB6000 		sub	r0, r9, r0, asr #1
ARM GAS  C:\Users\ADMINI~1\AppData\Local\Temp\ccVA75Tx.s 			page 168


 371:Middlewares/LVGL/GUI/lvgl/src/core/lv_obj_pos.c ****             break;
 6346              		.loc 1 371 15 view .LVU1925
 6347 016e 0544     		add	r5, r5, r0
 6348              	.LVL683:
 372:Middlewares/LVGL/GUI/lvgl/src/core/lv_obj_pos.c ****         case LV_ALIGN_TOP_LEFT:
 6349              		.loc 1 372 13 is_stmt 1 view .LVU1926
 6350 0170 ADE7     		b	.L312
 6351              	.LVL684:
 6352              	.L333:
 378:Middlewares/LVGL/GUI/lvgl/src/core/lv_obj_pos.c ****             y = btop;
 6353              		.loc 1 378 13 view .LVU1927
 378:Middlewares/LVGL/GUI/lvgl/src/core/lv_obj_pos.c ****             y = btop;
 6354              		.loc 1 378 17 is_stmt 0 view .LVU1928
 6355 0172 2046     		mov	r0, r4
 6356 0174 FFF7FEFF 		bl	lv_obj_get_content_width
 6357              	.LVL685:
 378:Middlewares/LVGL/GUI/lvgl/src/core/lv_obj_pos.c ****             y = btop;
 6358              		.loc 1 378 48 view .LVU1929
 6359 0178 00EBD070 		add	r0, r0, r0, lsr #31
 6360 017c 4FEA6009 		asr	r9, r0, #1
 378:Middlewares/LVGL/GUI/lvgl/src/core/lv_obj_pos.c ****             y = btop;
 6361              		.loc 1 378 54 view .LVU1930
 6362 0180 3846     		mov	r0, r7
 6363 0182 FFF7FEFF 		bl	lv_obj_get_width
 6364              	.LVL686:
 378:Middlewares/LVGL/GUI/lvgl/src/core/lv_obj_pos.c ****             y = btop;
 6365              		.loc 1 378 76 view .LVU1931
 6366 0186 00EBD070 		add	r0, r0, r0, lsr #31
 378:Middlewares/LVGL/GUI/lvgl/src/core/lv_obj_pos.c ****             y = btop;
 6367              		.loc 1 378 52 view .LVU1932
 6368 018a A9EB6000 		sub	r0, r9, r0, asr #1
 378:Middlewares/LVGL/GUI/lvgl/src/core/lv_obj_pos.c ****             y = btop;
 6369              		.loc 1 378 15 view .LVU1933
 6370 018e 8244     		add	r10, r10, r0
 6371              	.LVL687:
 379:Middlewares/LVGL/GUI/lvgl/src/core/lv_obj_pos.c ****             break;
 6372              		.loc 1 379 13 is_stmt 1 view .LVU1934
 380:Middlewares/LVGL/GUI/lvgl/src/core/lv_obj_pos.c **** 
 6373              		.loc 1 380 13 view .LVU1935
 6374 0190 9DE7     		b	.L312
 6375              	.LVL688:
 6376              	.L311:
 383:Middlewares/LVGL/GUI/lvgl/src/core/lv_obj_pos.c ****             y = btop;
 6377              		.loc 1 383 13 view .LVU1936
 383:Middlewares/LVGL/GUI/lvgl/src/core/lv_obj_pos.c ****             y = btop;
 6378              		.loc 1 383 17 is_stmt 0 view .LVU1937
 6379 0192 2046     		mov	r0, r4
 6380 0194 FFF7FEFF 		bl	lv_obj_get_content_width
 6381              	.LVL689:
 6382 0198 8146     		mov	r9, r0
 383:Middlewares/LVGL/GUI/lvgl/src/core/lv_obj_pos.c ****             y = btop;
 6383              		.loc 1 383 50 view .LVU1938
 6384 019a 3846     		mov	r0, r7
 6385 019c FFF7FEFF 		bl	lv_obj_get_width
 6386              	.LVL690:
 383:Middlewares/LVGL/GUI/lvgl/src/core/lv_obj_pos.c ****             y = btop;
 6387              		.loc 1 383 48 view .LVU1939
ARM GAS  C:\Users\ADMINI~1\AppData\Local\Temp\ccVA75Tx.s 			page 169


 6388 01a0 A9EB0009 		sub	r9, r9, r0
 383:Middlewares/LVGL/GUI/lvgl/src/core/lv_obj_pos.c ****             y = btop;
 6389              		.loc 1 383 15 view .LVU1940
 6390 01a4 CA44     		add	r10, r10, r9
 6391              	.LVL691:
 384:Middlewares/LVGL/GUI/lvgl/src/core/lv_obj_pos.c ****             break;
 6392              		.loc 1 384 13 is_stmt 1 view .LVU1941
 385:Middlewares/LVGL/GUI/lvgl/src/core/lv_obj_pos.c **** 
 6393              		.loc 1 385 13 view .LVU1942
 6394 01a6 92E7     		b	.L312
 6395              	.LVL692:
 6396              	.L332:
 388:Middlewares/LVGL/GUI/lvgl/src/core/lv_obj_pos.c ****             y = lv_obj_get_content_height(base) - lv_obj_get_height(obj) + btop;
 6397              		.loc 1 388 13 view .LVU1943
 389:Middlewares/LVGL/GUI/lvgl/src/core/lv_obj_pos.c ****             break;
 6398              		.loc 1 389 13 view .LVU1944
 389:Middlewares/LVGL/GUI/lvgl/src/core/lv_obj_pos.c ****             break;
 6399              		.loc 1 389 17 is_stmt 0 view .LVU1945
 6400 01a8 2046     		mov	r0, r4
 6401 01aa FFF7FEFF 		bl	lv_obj_get_content_height
 6402              	.LVL693:
 6403 01ae 8146     		mov	r9, r0
 389:Middlewares/LVGL/GUI/lvgl/src/core/lv_obj_pos.c ****             break;
 6404              		.loc 1 389 51 view .LVU1946
 6405 01b0 3846     		mov	r0, r7
 6406 01b2 FFF7FEFF 		bl	lv_obj_get_height
 6407              	.LVL694:
 389:Middlewares/LVGL/GUI/lvgl/src/core/lv_obj_pos.c ****             break;
 6408              		.loc 1 389 49 view .LVU1947
 6409 01b6 A9EB0009 		sub	r9, r9, r0
 389:Middlewares/LVGL/GUI/lvgl/src/core/lv_obj_pos.c ****             break;
 6410              		.loc 1 389 15 view .LVU1948
 6411 01ba 4D44     		add	r5, r5, r9
 6412              	.LVL695:
 390:Middlewares/LVGL/GUI/lvgl/src/core/lv_obj_pos.c ****         case LV_ALIGN_BOTTOM_MID:
 6413              		.loc 1 390 13 is_stmt 1 view .LVU1949
 6414 01bc 87E7     		b	.L312
 6415              	.LVL696:
 6416              	.L331:
 392:Middlewares/LVGL/GUI/lvgl/src/core/lv_obj_pos.c ****             y = lv_obj_get_content_height(base) - lv_obj_get_height(obj) + btop;
 6417              		.loc 1 392 13 view .LVU1950
 392:Middlewares/LVGL/GUI/lvgl/src/core/lv_obj_pos.c ****             y = lv_obj_get_content_height(base) - lv_obj_get_height(obj) + btop;
 6418              		.loc 1 392 17 is_stmt 0 view .LVU1951
 6419 01be 2046     		mov	r0, r4
 6420 01c0 FFF7FEFF 		bl	lv_obj_get_content_width
 6421              	.LVL697:
 392:Middlewares/LVGL/GUI/lvgl/src/core/lv_obj_pos.c ****             y = lv_obj_get_content_height(base) - lv_obj_get_height(obj) + btop;
 6422              		.loc 1 392 48 view .LVU1952
 6423 01c4 00EBD070 		add	r0, r0, r0, lsr #31
 6424 01c8 4FEA6009 		asr	r9, r0, #1
 392:Middlewares/LVGL/GUI/lvgl/src/core/lv_obj_pos.c ****             y = lv_obj_get_content_height(base) - lv_obj_get_height(obj) + btop;
 6425              		.loc 1 392 54 view .LVU1953
 6426 01cc 3846     		mov	r0, r7
 6427 01ce FFF7FEFF 		bl	lv_obj_get_width
 6428              	.LVL698:
 392:Middlewares/LVGL/GUI/lvgl/src/core/lv_obj_pos.c ****             y = lv_obj_get_content_height(base) - lv_obj_get_height(obj) + btop;
 6429              		.loc 1 392 76 view .LVU1954
ARM GAS  C:\Users\ADMINI~1\AppData\Local\Temp\ccVA75Tx.s 			page 170


 6430 01d2 00EBD070 		add	r0, r0, r0, lsr #31
 392:Middlewares/LVGL/GUI/lvgl/src/core/lv_obj_pos.c ****             y = lv_obj_get_content_height(base) - lv_obj_get_height(obj) + btop;
 6431              		.loc 1 392 52 view .LVU1955
 6432 01d6 A9EB6000 		sub	r0, r9, r0, asr #1
 392:Middlewares/LVGL/GUI/lvgl/src/core/lv_obj_pos.c ****             y = lv_obj_get_content_height(base) - lv_obj_get_height(obj) + btop;
 6433              		.loc 1 392 15 view .LVU1956
 6434 01da 8244     		add	r10, r10, r0
 6435              	.LVL699:
 393:Middlewares/LVGL/GUI/lvgl/src/core/lv_obj_pos.c ****             break;
 6436              		.loc 1 393 13 is_stmt 1 view .LVU1957
 393:Middlewares/LVGL/GUI/lvgl/src/core/lv_obj_pos.c ****             break;
 6437              		.loc 1 393 17 is_stmt 0 view .LVU1958
 6438 01dc 2046     		mov	r0, r4
 6439 01de FFF7FEFF 		bl	lv_obj_get_content_height
 6440              	.LVL700:
 6441 01e2 8146     		mov	r9, r0
 393:Middlewares/LVGL/GUI/lvgl/src/core/lv_obj_pos.c ****             break;
 6442              		.loc 1 393 51 view .LVU1959
 6443 01e4 3846     		mov	r0, r7
 6444 01e6 FFF7FEFF 		bl	lv_obj_get_height
 6445              	.LVL701:
 393:Middlewares/LVGL/GUI/lvgl/src/core/lv_obj_pos.c ****             break;
 6446              		.loc 1 393 49 view .LVU1960
 6447 01ea A9EB0009 		sub	r9, r9, r0
 393:Middlewares/LVGL/GUI/lvgl/src/core/lv_obj_pos.c ****             break;
 6448              		.loc 1 393 15 view .LVU1961
 6449 01ee 4D44     		add	r5, r5, r9
 6450              	.LVL702:
 394:Middlewares/LVGL/GUI/lvgl/src/core/lv_obj_pos.c **** 
 6451              		.loc 1 394 13 is_stmt 1 view .LVU1962
 6452 01f0 6DE7     		b	.L312
 6453              	.LVL703:
 6454              	.L330:
 397:Middlewares/LVGL/GUI/lvgl/src/core/lv_obj_pos.c ****             y = lv_obj_get_content_height(base) - lv_obj_get_height(obj) + btop;
 6455              		.loc 1 397 13 view .LVU1963
 397:Middlewares/LVGL/GUI/lvgl/src/core/lv_obj_pos.c ****             y = lv_obj_get_content_height(base) - lv_obj_get_height(obj) + btop;
 6456              		.loc 1 397 17 is_stmt 0 view .LVU1964
 6457 01f2 2046     		mov	r0, r4
 6458 01f4 FFF7FEFF 		bl	lv_obj_get_content_width
 6459              	.LVL704:
 6460 01f8 8146     		mov	r9, r0
 397:Middlewares/LVGL/GUI/lvgl/src/core/lv_obj_pos.c ****             y = lv_obj_get_content_height(base) - lv_obj_get_height(obj) + btop;
 6461              		.loc 1 397 50 view .LVU1965
 6462 01fa 3846     		mov	r0, r7
 6463 01fc FFF7FEFF 		bl	lv_obj_get_width
 6464              	.LVL705:
 397:Middlewares/LVGL/GUI/lvgl/src/core/lv_obj_pos.c ****             y = lv_obj_get_content_height(base) - lv_obj_get_height(obj) + btop;
 6465              		.loc 1 397 48 view .LVU1966
 6466 0200 A9EB0009 		sub	r9, r9, r0
 397:Middlewares/LVGL/GUI/lvgl/src/core/lv_obj_pos.c ****             y = lv_obj_get_content_height(base) - lv_obj_get_height(obj) + btop;
 6467              		.loc 1 397 15 view .LVU1967
 6468 0204 CA44     		add	r10, r10, r9
 6469              	.LVL706:
 398:Middlewares/LVGL/GUI/lvgl/src/core/lv_obj_pos.c ****             break;
 6470              		.loc 1 398 13 is_stmt 1 view .LVU1968
 398:Middlewares/LVGL/GUI/lvgl/src/core/lv_obj_pos.c ****             break;
 6471              		.loc 1 398 17 is_stmt 0 view .LVU1969
ARM GAS  C:\Users\ADMINI~1\AppData\Local\Temp\ccVA75Tx.s 			page 171


 6472 0206 2046     		mov	r0, r4
 6473 0208 FFF7FEFF 		bl	lv_obj_get_content_height
 6474              	.LVL707:
 6475 020c 8146     		mov	r9, r0
 398:Middlewares/LVGL/GUI/lvgl/src/core/lv_obj_pos.c ****             break;
 6476              		.loc 1 398 51 view .LVU1970
 6477 020e 3846     		mov	r0, r7
 6478 0210 FFF7FEFF 		bl	lv_obj_get_height
 6479              	.LVL708:
 398:Middlewares/LVGL/GUI/lvgl/src/core/lv_obj_pos.c ****             break;
 6480              		.loc 1 398 49 view .LVU1971
 6481 0214 A9EB0009 		sub	r9, r9, r0
 398:Middlewares/LVGL/GUI/lvgl/src/core/lv_obj_pos.c ****             break;
 6482              		.loc 1 398 15 view .LVU1972
 6483 0218 4D44     		add	r5, r5, r9
 6484              	.LVL709:
 399:Middlewares/LVGL/GUI/lvgl/src/core/lv_obj_pos.c **** 
 6485              		.loc 1 399 13 is_stmt 1 view .LVU1973
 6486 021a 58E7     		b	.L312
 6487              	.LVL710:
 6488              	.L329:
 402:Middlewares/LVGL/GUI/lvgl/src/core/lv_obj_pos.c ****             y = lv_obj_get_content_height(base) / 2 - lv_obj_get_height(obj) / 2 + btop;
 6489              		.loc 1 402 13 view .LVU1974
 403:Middlewares/LVGL/GUI/lvgl/src/core/lv_obj_pos.c ****             break;
 6490              		.loc 1 403 13 view .LVU1975
 403:Middlewares/LVGL/GUI/lvgl/src/core/lv_obj_pos.c ****             break;
 6491              		.loc 1 403 17 is_stmt 0 view .LVU1976
 6492 021c 2046     		mov	r0, r4
 6493 021e FFF7FEFF 		bl	lv_obj_get_content_height
 6494              	.LVL711:
 403:Middlewares/LVGL/GUI/lvgl/src/core/lv_obj_pos.c ****             break;
 6495              		.loc 1 403 49 view .LVU1977
 6496 0222 00EBD070 		add	r0, r0, r0, lsr #31
 6497 0226 4FEA6009 		asr	r9, r0, #1
 403:Middlewares/LVGL/GUI/lvgl/src/core/lv_obj_pos.c ****             break;
 6498              		.loc 1 403 55 view .LVU1978
 6499 022a 3846     		mov	r0, r7
 6500 022c FFF7FEFF 		bl	lv_obj_get_height
 6501              	.LVL712:
 403:Middlewares/LVGL/GUI/lvgl/src/core/lv_obj_pos.c ****             break;
 6502              		.loc 1 403 78 view .LVU1979
 6503 0230 00EBD070 		add	r0, r0, r0, lsr #31
 403:Middlewares/LVGL/GUI/lvgl/src/core/lv_obj_pos.c ****             break;
 6504              		.loc 1 403 53 view .LVU1980
 6505 0234 A9EB6000 		sub	r0, r9, r0, asr #1
 403:Middlewares/LVGL/GUI/lvgl/src/core/lv_obj_pos.c ****             break;
 6506              		.loc 1 403 15 view .LVU1981
 6507 0238 0544     		add	r5, r5, r0
 6508              	.LVL713:
 404:Middlewares/LVGL/GUI/lvgl/src/core/lv_obj_pos.c **** 
 6509              		.loc 1 404 13 is_stmt 1 view .LVU1982
 6510 023a 48E7     		b	.L312
 6511              	.LVL714:
 6512              	.L328:
 407:Middlewares/LVGL/GUI/lvgl/src/core/lv_obj_pos.c ****             y = lv_obj_get_content_height(base) / 2 - lv_obj_get_height(obj) / 2 + btop;
 6513              		.loc 1 407 13 view .LVU1983
 407:Middlewares/LVGL/GUI/lvgl/src/core/lv_obj_pos.c ****             y = lv_obj_get_content_height(base) / 2 - lv_obj_get_height(obj) / 2 + btop;
ARM GAS  C:\Users\ADMINI~1\AppData\Local\Temp\ccVA75Tx.s 			page 172


 6514              		.loc 1 407 17 is_stmt 0 view .LVU1984
 6515 023c 2046     		mov	r0, r4
 6516 023e FFF7FEFF 		bl	lv_obj_get_content_width
 6517              	.LVL715:
 6518 0242 8146     		mov	r9, r0
 407:Middlewares/LVGL/GUI/lvgl/src/core/lv_obj_pos.c ****             y = lv_obj_get_content_height(base) / 2 - lv_obj_get_height(obj) / 2 + btop;
 6519              		.loc 1 407 50 view .LVU1985
 6520 0244 3846     		mov	r0, r7
 6521 0246 FFF7FEFF 		bl	lv_obj_get_width
 6522              	.LVL716:
 407:Middlewares/LVGL/GUI/lvgl/src/core/lv_obj_pos.c ****             y = lv_obj_get_content_height(base) / 2 - lv_obj_get_height(obj) / 2 + btop;
 6523              		.loc 1 407 48 view .LVU1986
 6524 024a A9EB0009 		sub	r9, r9, r0
 407:Middlewares/LVGL/GUI/lvgl/src/core/lv_obj_pos.c ****             y = lv_obj_get_content_height(base) / 2 - lv_obj_get_height(obj) / 2 + btop;
 6525              		.loc 1 407 15 view .LVU1987
 6526 024e CA44     		add	r10, r10, r9
 6527              	.LVL717:
 408:Middlewares/LVGL/GUI/lvgl/src/core/lv_obj_pos.c ****             break;
 6528              		.loc 1 408 13 is_stmt 1 view .LVU1988
 408:Middlewares/LVGL/GUI/lvgl/src/core/lv_obj_pos.c ****             break;
 6529              		.loc 1 408 17 is_stmt 0 view .LVU1989
 6530 0250 2046     		mov	r0, r4
 6531 0252 FFF7FEFF 		bl	lv_obj_get_content_height
 6532              	.LVL718:
 408:Middlewares/LVGL/GUI/lvgl/src/core/lv_obj_pos.c ****             break;
 6533              		.loc 1 408 49 view .LVU1990
 6534 0256 00EBD070 		add	r0, r0, r0, lsr #31
 6535 025a 4FEA6009 		asr	r9, r0, #1
 408:Middlewares/LVGL/GUI/lvgl/src/core/lv_obj_pos.c ****             break;
 6536              		.loc 1 408 55 view .LVU1991
 6537 025e 3846     		mov	r0, r7
 6538 0260 FFF7FEFF 		bl	lv_obj_get_height
 6539              	.LVL719:
 408:Middlewares/LVGL/GUI/lvgl/src/core/lv_obj_pos.c ****             break;
 6540              		.loc 1 408 78 view .LVU1992
 6541 0264 00EBD070 		add	r0, r0, r0, lsr #31
 408:Middlewares/LVGL/GUI/lvgl/src/core/lv_obj_pos.c ****             break;
 6542              		.loc 1 408 53 view .LVU1993
 6543 0268 A9EB6000 		sub	r0, r9, r0, asr #1
 408:Middlewares/LVGL/GUI/lvgl/src/core/lv_obj_pos.c ****             break;
 6544              		.loc 1 408 15 view .LVU1994
 6545 026c 0544     		add	r5, r5, r0
 6546              	.LVL720:
 409:Middlewares/LVGL/GUI/lvgl/src/core/lv_obj_pos.c **** 
 6547              		.loc 1 409 13 is_stmt 1 view .LVU1995
 6548 026e 2EE7     		b	.L312
 6549              	.LVL721:
 6550              	.L326:
 412:Middlewares/LVGL/GUI/lvgl/src/core/lv_obj_pos.c ****             y = -lv_obj_get_height(obj);
 6551              		.loc 1 412 13 view .LVU1996
 413:Middlewares/LVGL/GUI/lvgl/src/core/lv_obj_pos.c ****             break;
 6552              		.loc 1 413 13 view .LVU1997
 413:Middlewares/LVGL/GUI/lvgl/src/core/lv_obj_pos.c ****             break;
 6553              		.loc 1 413 18 is_stmt 0 view .LVU1998
 6554 0270 3846     		mov	r0, r7
 6555 0272 FFF7FEFF 		bl	lv_obj_get_height
 6556              	.LVL722:
ARM GAS  C:\Users\ADMINI~1\AppData\Local\Temp\ccVA75Tx.s 			page 173


 413:Middlewares/LVGL/GUI/lvgl/src/core/lv_obj_pos.c ****             break;
 6557              		.loc 1 413 15 view .LVU1999
 6558 0276 4542     		rsbs	r5, r0, #0
 6559              	.LVL723:
 414:Middlewares/LVGL/GUI/lvgl/src/core/lv_obj_pos.c **** 
 6560              		.loc 1 414 13 is_stmt 1 view .LVU2000
 412:Middlewares/LVGL/GUI/lvgl/src/core/lv_obj_pos.c ****             y = -lv_obj_get_height(obj);
 6561              		.loc 1 412 15 is_stmt 0 view .LVU2001
 6562 0278 4FF0000A 		mov	r10, #0
 6563              	.LVL724:
 414:Middlewares/LVGL/GUI/lvgl/src/core/lv_obj_pos.c **** 
 6564              		.loc 1 414 13 view .LVU2002
 6565 027c 27E7     		b	.L312
 6566              	.LVL725:
 6567              	.L325:
 417:Middlewares/LVGL/GUI/lvgl/src/core/lv_obj_pos.c ****             y = -lv_obj_get_height(obj);
 6568              		.loc 1 417 13 is_stmt 1 view .LVU2003
 417:Middlewares/LVGL/GUI/lvgl/src/core/lv_obj_pos.c ****             y = -lv_obj_get_height(obj);
 6569              		.loc 1 417 17 is_stmt 0 view .LVU2004
 6570 027e 2046     		mov	r0, r4
 6571 0280 FFF7FEFF 		bl	lv_obj_get_width
 6572              	.LVL726:
 417:Middlewares/LVGL/GUI/lvgl/src/core/lv_obj_pos.c ****             y = -lv_obj_get_height(obj);
 6573              		.loc 1 417 40 view .LVU2005
 6574 0284 00EBD07A 		add	r10, r0, r0, lsr #31
 6575              	.LVL727:
 417:Middlewares/LVGL/GUI/lvgl/src/core/lv_obj_pos.c ****             y = -lv_obj_get_height(obj);
 6576              		.loc 1 417 40 view .LVU2006
 6577 0288 4FEA6A0A 		asr	r10, r10, #1
 417:Middlewares/LVGL/GUI/lvgl/src/core/lv_obj_pos.c ****             y = -lv_obj_get_height(obj);
 6578              		.loc 1 417 46 view .LVU2007
 6579 028c 3846     		mov	r0, r7
 6580 028e FFF7FEFF 		bl	lv_obj_get_width
 6581              	.LVL728:
 417:Middlewares/LVGL/GUI/lvgl/src/core/lv_obj_pos.c ****             y = -lv_obj_get_height(obj);
 6582              		.loc 1 417 68 view .LVU2008
 6583 0292 00EBD070 		add	r0, r0, r0, lsr #31
 417:Middlewares/LVGL/GUI/lvgl/src/core/lv_obj_pos.c ****             y = -lv_obj_get_height(obj);
 6584              		.loc 1 417 15 view .LVU2009
 6585 0296 AAEB600A 		sub	r10, r10, r0, asr #1
 6586              	.LVL729:
 418:Middlewares/LVGL/GUI/lvgl/src/core/lv_obj_pos.c ****             break;
 6587              		.loc 1 418 13 is_stmt 1 view .LVU2010
 418:Middlewares/LVGL/GUI/lvgl/src/core/lv_obj_pos.c ****             break;
 6588              		.loc 1 418 18 is_stmt 0 view .LVU2011
 6589 029a 3846     		mov	r0, r7
 6590 029c FFF7FEFF 		bl	lv_obj_get_height
 6591              	.LVL730:
 418:Middlewares/LVGL/GUI/lvgl/src/core/lv_obj_pos.c ****             break;
 6592              		.loc 1 418 15 view .LVU2012
 6593 02a0 4542     		rsbs	r5, r0, #0
 6594              	.LVL731:
 419:Middlewares/LVGL/GUI/lvgl/src/core/lv_obj_pos.c **** 
 6595              		.loc 1 419 13 is_stmt 1 view .LVU2013
 6596 02a2 14E7     		b	.L312
 6597              	.LVL732:
 6598              	.L324:
ARM GAS  C:\Users\ADMINI~1\AppData\Local\Temp\ccVA75Tx.s 			page 174


 422:Middlewares/LVGL/GUI/lvgl/src/core/lv_obj_pos.c ****             y = -lv_obj_get_height(obj);
 6599              		.loc 1 422 13 view .LVU2014
 422:Middlewares/LVGL/GUI/lvgl/src/core/lv_obj_pos.c ****             y = -lv_obj_get_height(obj);
 6600              		.loc 1 422 17 is_stmt 0 view .LVU2015
 6601 02a4 2046     		mov	r0, r4
 6602 02a6 FFF7FEFF 		bl	lv_obj_get_width
 6603              	.LVL733:
 6604 02aa 8246     		mov	r10, r0
 6605              	.LVL734:
 422:Middlewares/LVGL/GUI/lvgl/src/core/lv_obj_pos.c ****             y = -lv_obj_get_height(obj);
 6606              		.loc 1 422 42 view .LVU2016
 6607 02ac 3846     		mov	r0, r7
 6608 02ae FFF7FEFF 		bl	lv_obj_get_width
 6609              	.LVL735:
 422:Middlewares/LVGL/GUI/lvgl/src/core/lv_obj_pos.c ****             y = -lv_obj_get_height(obj);
 6610              		.loc 1 422 15 view .LVU2017
 6611 02b2 AAEB000A 		sub	r10, r10, r0
 6612              	.LVL736:
 423:Middlewares/LVGL/GUI/lvgl/src/core/lv_obj_pos.c ****             break;
 6613              		.loc 1 423 13 is_stmt 1 view .LVU2018
 423:Middlewares/LVGL/GUI/lvgl/src/core/lv_obj_pos.c ****             break;
 6614              		.loc 1 423 18 is_stmt 0 view .LVU2019
 6615 02b6 3846     		mov	r0, r7
 6616 02b8 FFF7FEFF 		bl	lv_obj_get_height
 6617              	.LVL737:
 423:Middlewares/LVGL/GUI/lvgl/src/core/lv_obj_pos.c ****             break;
 6618              		.loc 1 423 15 view .LVU2020
 6619 02bc 4542     		rsbs	r5, r0, #0
 6620              	.LVL738:
 424:Middlewares/LVGL/GUI/lvgl/src/core/lv_obj_pos.c **** 
 6621              		.loc 1 424 13 is_stmt 1 view .LVU2021
 6622 02be 06E7     		b	.L312
 6623              	.LVL739:
 6624              	.L323:
 427:Middlewares/LVGL/GUI/lvgl/src/core/lv_obj_pos.c ****             y = lv_obj_get_height(base);
 6625              		.loc 1 427 13 view .LVU2022
 428:Middlewares/LVGL/GUI/lvgl/src/core/lv_obj_pos.c ****             break;
 6626              		.loc 1 428 13 view .LVU2023
 428:Middlewares/LVGL/GUI/lvgl/src/core/lv_obj_pos.c ****             break;
 6627              		.loc 1 428 17 is_stmt 0 view .LVU2024
 6628 02c0 2046     		mov	r0, r4
 6629 02c2 FFF7FEFF 		bl	lv_obj_get_height
 6630              	.LVL740:
 6631 02c6 0546     		mov	r5, r0
 6632              	.LVL741:
 429:Middlewares/LVGL/GUI/lvgl/src/core/lv_obj_pos.c **** 
 6633              		.loc 1 429 13 is_stmt 1 view .LVU2025
 427:Middlewares/LVGL/GUI/lvgl/src/core/lv_obj_pos.c ****             y = lv_obj_get_height(base);
 6634              		.loc 1 427 15 is_stmt 0 view .LVU2026
 6635 02c8 4FF0000A 		mov	r10, #0
 6636              	.LVL742:
 429:Middlewares/LVGL/GUI/lvgl/src/core/lv_obj_pos.c **** 
 6637              		.loc 1 429 13 view .LVU2027
 6638 02cc FFE6     		b	.L312
 6639              	.LVL743:
 6640              	.L322:
 432:Middlewares/LVGL/GUI/lvgl/src/core/lv_obj_pos.c ****             y = lv_obj_get_height(base);
ARM GAS  C:\Users\ADMINI~1\AppData\Local\Temp\ccVA75Tx.s 			page 175


 6641              		.loc 1 432 13 is_stmt 1 view .LVU2028
 432:Middlewares/LVGL/GUI/lvgl/src/core/lv_obj_pos.c ****             y = lv_obj_get_height(base);
 6642              		.loc 1 432 17 is_stmt 0 view .LVU2029
 6643 02ce 2046     		mov	r0, r4
 6644 02d0 FFF7FEFF 		bl	lv_obj_get_width
 6645              	.LVL744:
 432:Middlewares/LVGL/GUI/lvgl/src/core/lv_obj_pos.c ****             y = lv_obj_get_height(base);
 6646              		.loc 1 432 40 view .LVU2030
 6647 02d4 00EBD07A 		add	r10, r0, r0, lsr #31
 6648              	.LVL745:
 432:Middlewares/LVGL/GUI/lvgl/src/core/lv_obj_pos.c ****             y = lv_obj_get_height(base);
 6649              		.loc 1 432 40 view .LVU2031
 6650 02d8 4FEA6A0A 		asr	r10, r10, #1
 432:Middlewares/LVGL/GUI/lvgl/src/core/lv_obj_pos.c ****             y = lv_obj_get_height(base);
 6651              		.loc 1 432 46 view .LVU2032
 6652 02dc 3846     		mov	r0, r7
 6653 02de FFF7FEFF 		bl	lv_obj_get_width
 6654              	.LVL746:
 432:Middlewares/LVGL/GUI/lvgl/src/core/lv_obj_pos.c ****             y = lv_obj_get_height(base);
 6655              		.loc 1 432 68 view .LVU2033
 6656 02e2 00EBD070 		add	r0, r0, r0, lsr #31
 432:Middlewares/LVGL/GUI/lvgl/src/core/lv_obj_pos.c ****             y = lv_obj_get_height(base);
 6657              		.loc 1 432 15 view .LVU2034
 6658 02e6 AAEB600A 		sub	r10, r10, r0, asr #1
 6659              	.LVL747:
 433:Middlewares/LVGL/GUI/lvgl/src/core/lv_obj_pos.c ****             break;
 6660              		.loc 1 433 13 is_stmt 1 view .LVU2035
 433:Middlewares/LVGL/GUI/lvgl/src/core/lv_obj_pos.c ****             break;
 6661              		.loc 1 433 17 is_stmt 0 view .LVU2036
 6662 02ea 2046     		mov	r0, r4
 6663 02ec FFF7FEFF 		bl	lv_obj_get_height
 6664              	.LVL748:
 6665 02f0 0546     		mov	r5, r0
 6666              	.LVL749:
 434:Middlewares/LVGL/GUI/lvgl/src/core/lv_obj_pos.c **** 
 6667              		.loc 1 434 13 is_stmt 1 view .LVU2037
 6668 02f2 ECE6     		b	.L312
 6669              	.LVL750:
 6670              	.L321:
 437:Middlewares/LVGL/GUI/lvgl/src/core/lv_obj_pos.c ****             y = lv_obj_get_height(base);
 6671              		.loc 1 437 13 view .LVU2038
 437:Middlewares/LVGL/GUI/lvgl/src/core/lv_obj_pos.c ****             y = lv_obj_get_height(base);
 6672              		.loc 1 437 17 is_stmt 0 view .LVU2039
 6673 02f4 2046     		mov	r0, r4
 6674 02f6 FFF7FEFF 		bl	lv_obj_get_width
 6675              	.LVL751:
 6676 02fa 8246     		mov	r10, r0
 6677              	.LVL752:
 437:Middlewares/LVGL/GUI/lvgl/src/core/lv_obj_pos.c ****             y = lv_obj_get_height(base);
 6678              		.loc 1 437 42 view .LVU2040
 6679 02fc 3846     		mov	r0, r7
 6680 02fe FFF7FEFF 		bl	lv_obj_get_width
 6681              	.LVL753:
 437:Middlewares/LVGL/GUI/lvgl/src/core/lv_obj_pos.c ****             y = lv_obj_get_height(base);
 6682              		.loc 1 437 15 view .LVU2041
 6683 0302 AAEB000A 		sub	r10, r10, r0
 6684              	.LVL754:
ARM GAS  C:\Users\ADMINI~1\AppData\Local\Temp\ccVA75Tx.s 			page 176


 438:Middlewares/LVGL/GUI/lvgl/src/core/lv_obj_pos.c ****             break;
 6685              		.loc 1 438 13 is_stmt 1 view .LVU2042
 438:Middlewares/LVGL/GUI/lvgl/src/core/lv_obj_pos.c ****             break;
 6686              		.loc 1 438 17 is_stmt 0 view .LVU2043
 6687 0306 2046     		mov	r0, r4
 6688 0308 FFF7FEFF 		bl	lv_obj_get_height
 6689              	.LVL755:
 6690 030c 0546     		mov	r5, r0
 6691              	.LVL756:
 439:Middlewares/LVGL/GUI/lvgl/src/core/lv_obj_pos.c **** 
 6692              		.loc 1 439 13 is_stmt 1 view .LVU2044
 6693 030e DEE6     		b	.L312
 6694              	.LVL757:
 6695              	.L320:
 442:Middlewares/LVGL/GUI/lvgl/src/core/lv_obj_pos.c ****             y = 0;
 6696              		.loc 1 442 13 view .LVU2045
 442:Middlewares/LVGL/GUI/lvgl/src/core/lv_obj_pos.c ****             y = 0;
 6697              		.loc 1 442 18 is_stmt 0 view .LVU2046
 6698 0310 3846     		mov	r0, r7
 6699 0312 FFF7FEFF 		bl	lv_obj_get_width
 6700              	.LVL758:
 442:Middlewares/LVGL/GUI/lvgl/src/core/lv_obj_pos.c ****             y = 0;
 6701              		.loc 1 442 15 view .LVU2047
 6702 0316 C0F1000A 		rsb	r10, r0, #0
 6703              	.LVL759:
 443:Middlewares/LVGL/GUI/lvgl/src/core/lv_obj_pos.c ****             break;
 6704              		.loc 1 443 13 is_stmt 1 view .LVU2048
 444:Middlewares/LVGL/GUI/lvgl/src/core/lv_obj_pos.c **** 
 6705              		.loc 1 444 13 view .LVU2049
 443:Middlewares/LVGL/GUI/lvgl/src/core/lv_obj_pos.c ****             break;
 6706              		.loc 1 443 15 is_stmt 0 view .LVU2050
 6707 031a 0025     		movs	r5, #0
 6708              	.LVL760:
 444:Middlewares/LVGL/GUI/lvgl/src/core/lv_obj_pos.c **** 
 6709              		.loc 1 444 13 view .LVU2051
 6710 031c D7E6     		b	.L312
 6711              	.LVL761:
 6712              	.L319:
 447:Middlewares/LVGL/GUI/lvgl/src/core/lv_obj_pos.c ****             y = lv_obj_get_height(base) / 2 - lv_obj_get_height(obj) / 2;
 6713              		.loc 1 447 13 is_stmt 1 view .LVU2052
 447:Middlewares/LVGL/GUI/lvgl/src/core/lv_obj_pos.c ****             y = lv_obj_get_height(base) / 2 - lv_obj_get_height(obj) / 2;
 6714              		.loc 1 447 18 is_stmt 0 view .LVU2053
 6715 031e 3846     		mov	r0, r7
 6716 0320 FFF7FEFF 		bl	lv_obj_get_width
 6717              	.LVL762:
 447:Middlewares/LVGL/GUI/lvgl/src/core/lv_obj_pos.c ****             y = lv_obj_get_height(base) / 2 - lv_obj_get_height(obj) / 2;
 6718              		.loc 1 447 15 view .LVU2054
 6719 0324 C0F1000A 		rsb	r10, r0, #0
 6720              	.LVL763:
 448:Middlewares/LVGL/GUI/lvgl/src/core/lv_obj_pos.c ****             break;
 6721              		.loc 1 448 13 is_stmt 1 view .LVU2055
 448:Middlewares/LVGL/GUI/lvgl/src/core/lv_obj_pos.c ****             break;
 6722              		.loc 1 448 17 is_stmt 0 view .LVU2056
 6723 0328 2046     		mov	r0, r4
 6724 032a FFF7FEFF 		bl	lv_obj_get_height
 6725              	.LVL764:
 448:Middlewares/LVGL/GUI/lvgl/src/core/lv_obj_pos.c ****             break;
ARM GAS  C:\Users\ADMINI~1\AppData\Local\Temp\ccVA75Tx.s 			page 177


 6726              		.loc 1 448 41 view .LVU2057
 6727 032e 00EBD075 		add	r5, r0, r0, lsr #31
 6728              	.LVL765:
 448:Middlewares/LVGL/GUI/lvgl/src/core/lv_obj_pos.c ****             break;
 6729              		.loc 1 448 41 view .LVU2058
 6730 0332 6D10     		asrs	r5, r5, #1
 448:Middlewares/LVGL/GUI/lvgl/src/core/lv_obj_pos.c ****             break;
 6731              		.loc 1 448 47 view .LVU2059
 6732 0334 3846     		mov	r0, r7
 6733 0336 FFF7FEFF 		bl	lv_obj_get_height
 6734              	.LVL766:
 448:Middlewares/LVGL/GUI/lvgl/src/core/lv_obj_pos.c ****             break;
 6735              		.loc 1 448 70 view .LVU2060
 6736 033a 00EBD070 		add	r0, r0, r0, lsr #31
 448:Middlewares/LVGL/GUI/lvgl/src/core/lv_obj_pos.c ****             break;
 6737              		.loc 1 448 15 view .LVU2061
 6738 033e A5EB6005 		sub	r5, r5, r0, asr #1
 6739              	.LVL767:
 449:Middlewares/LVGL/GUI/lvgl/src/core/lv_obj_pos.c **** 
 6740              		.loc 1 449 13 is_stmt 1 view .LVU2062
 6741 0342 C4E6     		b	.L312
 6742              	.LVL768:
 6743              	.L318:
 452:Middlewares/LVGL/GUI/lvgl/src/core/lv_obj_pos.c ****             y = lv_obj_get_height(base) - lv_obj_get_height(obj);
 6744              		.loc 1 452 13 view .LVU2063
 452:Middlewares/LVGL/GUI/lvgl/src/core/lv_obj_pos.c ****             y = lv_obj_get_height(base) - lv_obj_get_height(obj);
 6745              		.loc 1 452 18 is_stmt 0 view .LVU2064
 6746 0344 3846     		mov	r0, r7
 6747 0346 FFF7FEFF 		bl	lv_obj_get_width
 6748              	.LVL769:
 452:Middlewares/LVGL/GUI/lvgl/src/core/lv_obj_pos.c ****             y = lv_obj_get_height(base) - lv_obj_get_height(obj);
 6749              		.loc 1 452 15 view .LVU2065
 6750 034a C0F1000A 		rsb	r10, r0, #0
 6751              	.LVL770:
 453:Middlewares/LVGL/GUI/lvgl/src/core/lv_obj_pos.c ****             break;
 6752              		.loc 1 453 13 is_stmt 1 view .LVU2066
 453:Middlewares/LVGL/GUI/lvgl/src/core/lv_obj_pos.c ****             break;
 6753              		.loc 1 453 17 is_stmt 0 view .LVU2067
 6754 034e 2046     		mov	r0, r4
 6755 0350 FFF7FEFF 		bl	lv_obj_get_height
 6756              	.LVL771:
 6757 0354 0546     		mov	r5, r0
 6758              	.LVL772:
 453:Middlewares/LVGL/GUI/lvgl/src/core/lv_obj_pos.c ****             break;
 6759              		.loc 1 453 43 view .LVU2068
 6760 0356 3846     		mov	r0, r7
 6761 0358 FFF7FEFF 		bl	lv_obj_get_height
 6762              	.LVL773:
 453:Middlewares/LVGL/GUI/lvgl/src/core/lv_obj_pos.c ****             break;
 6763              		.loc 1 453 15 view .LVU2069
 6764 035c 2D1A     		subs	r5, r5, r0
 6765              	.LVL774:
 454:Middlewares/LVGL/GUI/lvgl/src/core/lv_obj_pos.c **** 
 6766              		.loc 1 454 13 is_stmt 1 view .LVU2070
 6767 035e B6E6     		b	.L312
 6768              	.LVL775:
 6769              	.L317:
ARM GAS  C:\Users\ADMINI~1\AppData\Local\Temp\ccVA75Tx.s 			page 178


 457:Middlewares/LVGL/GUI/lvgl/src/core/lv_obj_pos.c ****             y = 0;
 6770              		.loc 1 457 13 view .LVU2071
 457:Middlewares/LVGL/GUI/lvgl/src/core/lv_obj_pos.c ****             y = 0;
 6771              		.loc 1 457 17 is_stmt 0 view .LVU2072
 6772 0360 2046     		mov	r0, r4
 6773 0362 FFF7FEFF 		bl	lv_obj_get_width
 6774              	.LVL776:
 6775 0366 8246     		mov	r10, r0
 6776              	.LVL777:
 458:Middlewares/LVGL/GUI/lvgl/src/core/lv_obj_pos.c ****             break;
 6777              		.loc 1 458 13 is_stmt 1 view .LVU2073
 459:Middlewares/LVGL/GUI/lvgl/src/core/lv_obj_pos.c **** 
 6778              		.loc 1 459 13 view .LVU2074
 458:Middlewares/LVGL/GUI/lvgl/src/core/lv_obj_pos.c ****             break;
 6779              		.loc 1 458 15 is_stmt 0 view .LVU2075
 6780 0368 0025     		movs	r5, #0
 6781              	.LVL778:
 459:Middlewares/LVGL/GUI/lvgl/src/core/lv_obj_pos.c **** 
 6782              		.loc 1 459 13 view .LVU2076
 6783 036a B0E6     		b	.L312
 6784              	.LVL779:
 6785              	.L316:
 462:Middlewares/LVGL/GUI/lvgl/src/core/lv_obj_pos.c ****             y = lv_obj_get_height(base) / 2 - lv_obj_get_height(obj) / 2;
 6786              		.loc 1 462 13 is_stmt 1 view .LVU2077
 462:Middlewares/LVGL/GUI/lvgl/src/core/lv_obj_pos.c ****             y = lv_obj_get_height(base) / 2 - lv_obj_get_height(obj) / 2;
 6787              		.loc 1 462 17 is_stmt 0 view .LVU2078
 6788 036c 2046     		mov	r0, r4
 6789 036e FFF7FEFF 		bl	lv_obj_get_width
 6790              	.LVL780:
 6791 0372 8246     		mov	r10, r0
 6792              	.LVL781:
 463:Middlewares/LVGL/GUI/lvgl/src/core/lv_obj_pos.c ****             break;
 6793              		.loc 1 463 13 is_stmt 1 view .LVU2079
 463:Middlewares/LVGL/GUI/lvgl/src/core/lv_obj_pos.c ****             break;
 6794              		.loc 1 463 17 is_stmt 0 view .LVU2080
 6795 0374 2046     		mov	r0, r4
 6796              	.LVL782:
 463:Middlewares/LVGL/GUI/lvgl/src/core/lv_obj_pos.c ****             break;
 6797              		.loc 1 463 17 view .LVU2081
 6798 0376 FFF7FEFF 		bl	lv_obj_get_height
 6799              	.LVL783:
 463:Middlewares/LVGL/GUI/lvgl/src/core/lv_obj_pos.c ****             break;
 6800              		.loc 1 463 41 view .LVU2082
 6801 037a 00EBD075 		add	r5, r0, r0, lsr #31
 6802              	.LVL784:
 463:Middlewares/LVGL/GUI/lvgl/src/core/lv_obj_pos.c ****             break;
 6803              		.loc 1 463 41 view .LVU2083
 6804 037e 6D10     		asrs	r5, r5, #1
 463:Middlewares/LVGL/GUI/lvgl/src/core/lv_obj_pos.c ****             break;
 6805              		.loc 1 463 47 view .LVU2084
 6806 0380 3846     		mov	r0, r7
 6807 0382 FFF7FEFF 		bl	lv_obj_get_height
 6808              	.LVL785:
 463:Middlewares/LVGL/GUI/lvgl/src/core/lv_obj_pos.c ****             break;
 6809              		.loc 1 463 70 view .LVU2085
 6810 0386 00EBD070 		add	r0, r0, r0, lsr #31
 463:Middlewares/LVGL/GUI/lvgl/src/core/lv_obj_pos.c ****             break;
ARM GAS  C:\Users\ADMINI~1\AppData\Local\Temp\ccVA75Tx.s 			page 179


 6811              		.loc 1 463 15 view .LVU2086
 6812 038a A5EB6005 		sub	r5, r5, r0, asr #1
 6813              	.LVL786:
 464:Middlewares/LVGL/GUI/lvgl/src/core/lv_obj_pos.c **** 
 6814              		.loc 1 464 13 is_stmt 1 view .LVU2087
 6815 038e 9EE6     		b	.L312
 6816              	.LVL787:
 6817              	.L314:
 467:Middlewares/LVGL/GUI/lvgl/src/core/lv_obj_pos.c ****             y = lv_obj_get_height(base) - lv_obj_get_height(obj);
 6818              		.loc 1 467 13 view .LVU2088
 467:Middlewares/LVGL/GUI/lvgl/src/core/lv_obj_pos.c ****             y = lv_obj_get_height(base) - lv_obj_get_height(obj);
 6819              		.loc 1 467 17 is_stmt 0 view .LVU2089
 6820 0390 2046     		mov	r0, r4
 6821 0392 FFF7FEFF 		bl	lv_obj_get_width
 6822              	.LVL788:
 6823 0396 8246     		mov	r10, r0
 6824              	.LVL789:
 468:Middlewares/LVGL/GUI/lvgl/src/core/lv_obj_pos.c ****             break;
 6825              		.loc 1 468 13 is_stmt 1 view .LVU2090
 468:Middlewares/LVGL/GUI/lvgl/src/core/lv_obj_pos.c ****             break;
 6826              		.loc 1 468 17 is_stmt 0 view .LVU2091
 6827 0398 2046     		mov	r0, r4
 6828              	.LVL790:
 468:Middlewares/LVGL/GUI/lvgl/src/core/lv_obj_pos.c ****             break;
 6829              		.loc 1 468 17 view .LVU2092
 6830 039a FFF7FEFF 		bl	lv_obj_get_height
 6831              	.LVL791:
 6832 039e 0546     		mov	r5, r0
 6833              	.LVL792:
 468:Middlewares/LVGL/GUI/lvgl/src/core/lv_obj_pos.c ****             break;
 6834              		.loc 1 468 43 view .LVU2093
 6835 03a0 3846     		mov	r0, r7
 6836 03a2 FFF7FEFF 		bl	lv_obj_get_height
 6837              	.LVL793:
 468:Middlewares/LVGL/GUI/lvgl/src/core/lv_obj_pos.c ****             break;
 6838              		.loc 1 468 15 view .LVU2094
 6839 03a6 2D1A     		subs	r5, r5, r0
 6840              	.LVL794:
 469:Middlewares/LVGL/GUI/lvgl/src/core/lv_obj_pos.c ****     }
 6841              		.loc 1 469 13 is_stmt 1 view .LVU2095
 6842 03a8 91E6     		b	.L312
 6843              	.L339:
 473:Middlewares/LVGL/GUI/lvgl/src/core/lv_obj_pos.c ****     }
 6844              		.loc 1 473 9 view .LVU2096
 473:Middlewares/LVGL/GUI/lvgl/src/core/lv_obj_pos.c ****     }
 6845              		.loc 1 473 34 is_stmt 0 view .LVU2097
 6846 03aa 6369     		ldr	r3, [r4, #20]
 473:Middlewares/LVGL/GUI/lvgl/src/core/lv_obj_pos.c ****     }
 6847              		.loc 1 473 20 view .LVU2098
 6848 03ac 019A     		ldr	r2, [sp, #4]
 6849 03ae 1344     		add	r3, r3, r2
 473:Middlewares/LVGL/GUI/lvgl/src/core/lv_obj_pos.c ****     }
 6850              		.loc 1 473 54 view .LVU2099
 6851 03b0 7269     		ldr	r2, [r6, #20]
 473:Middlewares/LVGL/GUI/lvgl/src/core/lv_obj_pos.c ****     }
 6852              		.loc 1 473 38 view .LVU2100
 6853 03b2 A3EB0209 		sub	r9, r3, r2
ARM GAS  C:\Users\ADMINI~1\AppData\Local\Temp\ccVA75Tx.s 			page 180


 473:Middlewares/LVGL/GUI/lvgl/src/core/lv_obj_pos.c ****     }
 6854              		.loc 1 473 60 view .LVU2101
 6855 03b6 3046     		mov	r0, r6
 6856 03b8 FFF7FEFF 		bl	lv_obj_get_scroll_right
 6857              	.LVL795:
 473:Middlewares/LVGL/GUI/lvgl/src/core/lv_obj_pos.c ****     }
 6858              		.loc 1 473 58 view .LVU2102
 6859 03bc 8144     		add	r9, r9, r0
 473:Middlewares/LVGL/GUI/lvgl/src/core/lv_obj_pos.c ****     }
 6860              		.loc 1 473 92 view .LVU2103
 6861 03be A9EB0B0B 		sub	fp, r9, fp
 6862              	.LVL796:
 473:Middlewares/LVGL/GUI/lvgl/src/core/lv_obj_pos.c ****     }
 6863              		.loc 1 473 11 view .LVU2104
 6864 03c2 DA44     		add	r10, r10, fp
 6865              	.LVL797:
 473:Middlewares/LVGL/GUI/lvgl/src/core/lv_obj_pos.c ****     }
 6866              		.loc 1 473 11 view .LVU2105
 6867 03c4 9AE6     		b	.L335
 6868              		.cfi_endproc
 6869              	.LFE175:
 6871              		.section	.bss.layout_cnt,"aw",%nobits
 6872              		.align	2
 6873              		.set	.LANCHOR0,. + 0
 6876              	layout_cnt:
 6877 0000 00000000 		.space	4
 6878              		.section	.bss.mutex.0,"aw",%nobits
 6879              		.set	.LANCHOR1,. + 0
 6882              	mutex.0:
 6883 0000 00       		.space	1
 6884              		.text
 6885              	.Letext0:
 6886              		.file 4 "c:\\gnu arm embedded toolchain\\10 2021.10\\arm-none-eabi\\include\\machine\\_default_typ
 6887              		.file 5 "c:\\gnu arm embedded toolchain\\10 2021.10\\arm-none-eabi\\include\\sys\\_stdint.h"
 6888              		.file 6 "c:\\gnu arm embedded toolchain\\10 2021.10\\lib\\gcc\\arm-none-eabi\\10.3.1\\include\\std
 6889              		.file 7 "Middlewares/LVGL/GUI/lvgl/src/core/../misc/../font/lv_font.h"
 6890              		.file 8 "Middlewares/LVGL/GUI/lvgl/src/core/../misc/lv_types.h"
 6891              		.file 9 "Middlewares/LVGL/GUI/lvgl/src/core/../misc/lv_color.h"
 6892              		.file 10 "Middlewares/LVGL/GUI/lvgl/src/core/../misc/lv_anim.h"
 6893              		.file 11 "Middlewares/LVGL/GUI/lvgl/src/core/../misc/lv_txt.h"
 6894              		.file 12 "Middlewares/LVGL/GUI/lvgl/src/core/../misc/lv_bidi.h"
 6895              		.file 13 "Middlewares/LVGL/GUI/lvgl/src/core/../misc/lv_style.h"
 6896              		.file 14 "Middlewares/LVGL/GUI/lvgl/src/core/../hal/../draw/lv_img_buf.h"
 6897              		.file 15 "Middlewares/LVGL/GUI/lvgl/src/core/../hal/../draw/sw/../../core/lv_obj_pos.h"
 6898              		.file 16 "Middlewares/LVGL/GUI/lvgl/src/core/lv_obj.h"
 6899              		.file 17 "Middlewares/LVGL/GUI/lvgl/src/core/../hal/../draw/lv_draw_rect.h"
 6900              		.file 18 "Middlewares/LVGL/GUI/lvgl/src/core/../hal/../draw/lv_draw_label.h"
 6901              		.file 19 "Middlewares/LVGL/GUI/lvgl/src/core/../hal/../draw/lv_draw_img.h"
 6902              		.file 20 "Middlewares/LVGL/GUI/lvgl/src/core/../hal/../draw/lv_draw_line.h"
 6903              		.file 21 "Middlewares/LVGL/GUI/lvgl/src/core/../hal/../draw/lv_draw_arc.h"
 6904              		.file 22 "Middlewares/LVGL/GUI/lvgl/src/core/../hal/../draw/lv_draw.h"
 6905              		.file 23 "Middlewares/LVGL/GUI/lvgl/src/core/../hal/../misc/lv_ll.h"
 6906              		.file 24 "Middlewares/LVGL/GUI/lvgl/src/core/../hal/../misc/lv_timer.h"
 6907              		.file 25 "Middlewares/LVGL/GUI/lvgl/src/core/../hal/lv_hal_disp.h"
 6908              		.file 26 "Middlewares/LVGL/GUI/lvgl/src/core/lv_theme.h"
 6909              		.file 27 "Middlewares/LVGL/GUI/lvgl/src/core/lv_group.h"
 6910              		.file 28 "Middlewares/LVGL/GUI/lvgl/src/core/lv_obj_scroll.h"
ARM GAS  C:\Users\ADMINI~1\AppData\Local\Temp\ccVA75Tx.s 			page 181


 6911              		.file 29 "Middlewares/LVGL/GUI/lvgl/src/core/lv_obj_style.h"
 6912              		.file 30 "Middlewares/LVGL/GUI/lvgl/src/core/lv_obj_class.h"
 6913              		.file 31 "Middlewares/LVGL/GUI/lvgl/src/core/lv_event.h"
 6914              		.file 32 "Middlewares/LVGL/GUI/lvgl/src/core/../misc/lv_gc.h"
 6915              		.file 33 "Middlewares/LVGL/GUI/lvgl/src/core/lv_obj_tree.h"
 6916              		.file 34 "Middlewares/LVGL/GUI/lvgl/src/core/lv_obj_draw.h"
 6917              		.file 35 "Middlewares/LVGL/GUI/lvgl/src/core/lv_disp.h"
 6918              		.file 36 "Middlewares/LVGL/GUI/lvgl/src/core/lv_refr.h"
 6919              		.file 37 "Middlewares/LVGL/GUI/lvgl/src/core/../misc/lv_mem.h"
ARM GAS  C:\Users\ADMINI~1\AppData\Local\Temp\ccVA75Tx.s 			page 182


DEFINED SYMBOLS
                            *ABS*:00000000 lv_obj_pos.c
C:\Users\ADMINI~1\AppData\Local\Temp\ccVA75Tx.s:20     .text.lv_obj_set_x:00000000 $t
C:\Users\ADMINI~1\AppData\Local\Temp\ccVA75Tx.s:26     .text.lv_obj_set_x:00000000 lv_obj_set_x
C:\Users\ADMINI~1\AppData\Local\Temp\ccVA75Tx.s:98     .text.lv_obj_set_y:00000000 $t
C:\Users\ADMINI~1\AppData\Local\Temp\ccVA75Tx.s:104    .text.lv_obj_set_y:00000000 lv_obj_set_y
C:\Users\ADMINI~1\AppData\Local\Temp\ccVA75Tx.s:175    .text.lv_obj_set_pos:00000000 $t
C:\Users\ADMINI~1\AppData\Local\Temp\ccVA75Tx.s:181    .text.lv_obj_set_pos:00000000 lv_obj_set_pos
C:\Users\ADMINI~1\AppData\Local\Temp\ccVA75Tx.s:216    .text.lv_obj_set_width:00000000 $t
C:\Users\ADMINI~1\AppData\Local\Temp\ccVA75Tx.s:222    .text.lv_obj_set_width:00000000 lv_obj_set_width
C:\Users\ADMINI~1\AppData\Local\Temp\ccVA75Tx.s:293    .text.lv_obj_set_height:00000000 $t
C:\Users\ADMINI~1\AppData\Local\Temp\ccVA75Tx.s:299    .text.lv_obj_set_height:00000000 lv_obj_set_height
C:\Users\ADMINI~1\AppData\Local\Temp\ccVA75Tx.s:370    .text.lv_obj_set_size:00000000 $t
C:\Users\ADMINI~1\AppData\Local\Temp\ccVA75Tx.s:376    .text.lv_obj_set_size:00000000 lv_obj_set_size
C:\Users\ADMINI~1\AppData\Local\Temp\ccVA75Tx.s:411    .text.lv_obj_set_content_width:00000000 $t
C:\Users\ADMINI~1\AppData\Local\Temp\ccVA75Tx.s:417    .text.lv_obj_set_content_width:00000000 lv_obj_set_content_width
C:\Users\ADMINI~1\AppData\Local\Temp\ccVA75Tx.s:516    .text.lv_obj_set_content_height:00000000 $t
C:\Users\ADMINI~1\AppData\Local\Temp\ccVA75Tx.s:522    .text.lv_obj_set_content_height:00000000 lv_obj_set_content_height
C:\Users\ADMINI~1\AppData\Local\Temp\ccVA75Tx.s:620    .text.lv_obj_is_layout_positioned:00000000 $t
C:\Users\ADMINI~1\AppData\Local\Temp\ccVA75Tx.s:626    .text.lv_obj_is_layout_positioned:00000000 lv_obj_is_layout_positioned
C:\Users\ADMINI~1\AppData\Local\Temp\ccVA75Tx.s:697    .text.lv_obj_is_layout_positioned:00000034 $d
C:\Users\ADMINI~1\AppData\Local\Temp\ccVA75Tx.s:702    .text.lv_obj_mark_layout_as_dirty:00000000 $t
C:\Users\ADMINI~1\AppData\Local\Temp\ccVA75Tx.s:708    .text.lv_obj_mark_layout_as_dirty:00000000 lv_obj_mark_layout_as_dirty
C:\Users\ADMINI~1\AppData\Local\Temp\ccVA75Tx.s:755    .text.lv_obj_set_layout:00000000 $t
C:\Users\ADMINI~1\AppData\Local\Temp\ccVA75Tx.s:761    .text.lv_obj_set_layout:00000000 lv_obj_set_layout
C:\Users\ADMINI~1\AppData\Local\Temp\ccVA75Tx.s:796    .text.lv_layout_register:00000000 $t
C:\Users\ADMINI~1\AppData\Local\Temp\ccVA75Tx.s:802    .text.lv_layout_register:00000000 lv_layout_register
C:\Users\ADMINI~1\AppData\Local\Temp\ccVA75Tx.s:874    .text.lv_layout_register:0000003c $d
C:\Users\ADMINI~1\AppData\Local\Temp\ccVA75Tx.s:880    .text.lv_obj_set_align:00000000 $t
C:\Users\ADMINI~1\AppData\Local\Temp\ccVA75Tx.s:886    .text.lv_obj_set_align:00000000 lv_obj_set_align
C:\Users\ADMINI~1\AppData\Local\Temp\ccVA75Tx.s:909    .text.lv_obj_align:00000000 $t
C:\Users\ADMINI~1\AppData\Local\Temp\ccVA75Tx.s:915    .text.lv_obj_align:00000000 lv_obj_align
C:\Users\ADMINI~1\AppData\Local\Temp\ccVA75Tx.s:952    .text.lv_obj_get_coords:00000000 $t
C:\Users\ADMINI~1\AppData\Local\Temp\ccVA75Tx.s:958    .text.lv_obj_get_coords:00000000 lv_obj_get_coords
C:\Users\ADMINI~1\AppData\Local\Temp\ccVA75Tx.s:1005   .text.lv_obj_get_x:00000000 $t
C:\Users\ADMINI~1\AppData\Local\Temp\ccVA75Tx.s:1011   .text.lv_obj_get_x:00000000 lv_obj_get_x
C:\Users\ADMINI~1\AppData\Local\Temp\ccVA75Tx.s:1111   .text.lv_obj_get_y:00000000 $t
C:\Users\ADMINI~1\AppData\Local\Temp\ccVA75Tx.s:1117   .text.lv_obj_get_y:00000000 lv_obj_get_y
C:\Users\ADMINI~1\AppData\Local\Temp\ccVA75Tx.s:1217   .text.lv_obj_get_x_aligned:00000000 $t
C:\Users\ADMINI~1\AppData\Local\Temp\ccVA75Tx.s:1223   .text.lv_obj_get_x_aligned:00000000 lv_obj_get_x_aligned
C:\Users\ADMINI~1\AppData\Local\Temp\ccVA75Tx.s:1258   .text.lv_obj_get_y_aligned:00000000 $t
C:\Users\ADMINI~1\AppData\Local\Temp\ccVA75Tx.s:1264   .text.lv_obj_get_y_aligned:00000000 lv_obj_get_y_aligned
C:\Users\ADMINI~1\AppData\Local\Temp\ccVA75Tx.s:1299   .text.lv_obj_get_width:00000000 $t
C:\Users\ADMINI~1\AppData\Local\Temp\ccVA75Tx.s:1305   .text.lv_obj_get_width:00000000 lv_obj_get_width
C:\Users\ADMINI~1\AppData\Local\Temp\ccVA75Tx.s:1340   .text.lv_obj_get_x2:00000000 $t
C:\Users\ADMINI~1\AppData\Local\Temp\ccVA75Tx.s:1346   .text.lv_obj_get_x2:00000000 lv_obj_get_x2
C:\Users\ADMINI~1\AppData\Local\Temp\ccVA75Tx.s:1383   .text.lv_obj_get_height:00000000 $t
C:\Users\ADMINI~1\AppData\Local\Temp\ccVA75Tx.s:1389   .text.lv_obj_get_height:00000000 lv_obj_get_height
C:\Users\ADMINI~1\AppData\Local\Temp\ccVA75Tx.s:1424   .text.lv_obj_get_y2:00000000 $t
C:\Users\ADMINI~1\AppData\Local\Temp\ccVA75Tx.s:1430   .text.lv_obj_get_y2:00000000 lv_obj_get_y2
C:\Users\ADMINI~1\AppData\Local\Temp\ccVA75Tx.s:1467   .text.lv_obj_get_content_width:00000000 $t
C:\Users\ADMINI~1\AppData\Local\Temp\ccVA75Tx.s:1473   .text.lv_obj_get_content_width:00000000 lv_obj_get_content_width
C:\Users\ADMINI~1\AppData\Local\Temp\ccVA75Tx.s:1572   .text.lv_obj_get_content_height:00000000 $t
C:\Users\ADMINI~1\AppData\Local\Temp\ccVA75Tx.s:1578   .text.lv_obj_get_content_height:00000000 lv_obj_get_content_height
C:\Users\ADMINI~1\AppData\Local\Temp\ccVA75Tx.s:1677   .text.lv_obj_get_content_coords:00000000 $t
C:\Users\ADMINI~1\AppData\Local\Temp\ccVA75Tx.s:1683   .text.lv_obj_get_content_coords:00000000 lv_obj_get_content_coords
C:\Users\ADMINI~1\AppData\Local\Temp\ccVA75Tx.s:1827   .text.lv_obj_get_self_width:00000000 $t
ARM GAS  C:\Users\ADMINI~1\AppData\Local\Temp\ccVA75Tx.s 			page 183


C:\Users\ADMINI~1\AppData\Local\Temp\ccVA75Tx.s:1833   .text.lv_obj_get_self_width:00000000 lv_obj_get_self_width
C:\Users\ADMINI~1\AppData\Local\Temp\ccVA75Tx.s:1870   .text.lv_obj_get_self_width:0000001c $d
C:\Users\ADMINI~1\AppData\Local\Temp\ccVA75Tx.s:1875   .text.calc_content_width:00000000 $t
C:\Users\ADMINI~1\AppData\Local\Temp\ccVA75Tx.s:1880   .text.calc_content_width:00000000 calc_content_width
C:\Users\ADMINI~1\AppData\Local\Temp\ccVA75Tx.s:2041   .text.calc_content_width:0000007c $d
C:\Users\ADMINI~1\AppData\Local\Temp\ccVA75Tx.s:2370   .text.calc_content_width:00000198 $d
C:\Users\ADMINI~1\AppData\Local\Temp\ccVA75Tx.s:2376   .text.lv_obj_get_self_height:00000000 $t
C:\Users\ADMINI~1\AppData\Local\Temp\ccVA75Tx.s:2382   .text.lv_obj_get_self_height:00000000 lv_obj_get_self_height
C:\Users\ADMINI~1\AppData\Local\Temp\ccVA75Tx.s:2419   .text.lv_obj_get_self_height:0000001c $d
C:\Users\ADMINI~1\AppData\Local\Temp\ccVA75Tx.s:2424   .text.calc_content_height:00000000 $t
C:\Users\ADMINI~1\AppData\Local\Temp\ccVA75Tx.s:2429   .text.calc_content_height:00000000 calc_content_height
C:\Users\ADMINI~1\AppData\Local\Temp\ccVA75Tx.s:2710   .text.calc_content_height:000000e0 $d
C:\Users\ADMINI~1\AppData\Local\Temp\ccVA75Tx.s:2716   .text.lv_obj_refresh_self_size:00000000 $t
C:\Users\ADMINI~1\AppData\Local\Temp\ccVA75Tx.s:2722   .text.lv_obj_refresh_self_size:00000000 lv_obj_refresh_self_size
C:\Users\ADMINI~1\AppData\Local\Temp\ccVA75Tx.s:2806   .text.lv_obj_refresh_self_size:00000034 $d
C:\Users\ADMINI~1\AppData\Local\Temp\ccVA75Tx.s:2811   .text.lv_obj_move_children_by:00000000 $t
C:\Users\ADMINI~1\AppData\Local\Temp\ccVA75Tx.s:2817   .text.lv_obj_move_children_by:00000000 lv_obj_move_children_by
C:\Users\ADMINI~1\AppData\Local\Temp\ccVA75Tx.s:2928   .text.lv_obj_area_is_visible:00000000 $t
C:\Users\ADMINI~1\AppData\Local\Temp\ccVA75Tx.s:2934   .text.lv_obj_area_is_visible:00000000 lv_obj_area_is_visible
C:\Users\ADMINI~1\AppData\Local\Temp\ccVA75Tx.s:3173   .text.lv_obj_invalidate_area:00000000 $t
C:\Users\ADMINI~1\AppData\Local\Temp\ccVA75Tx.s:3179   .text.lv_obj_invalidate_area:00000000 lv_obj_invalidate_area
C:\Users\ADMINI~1\AppData\Local\Temp\ccVA75Tx.s:3268   .text.lv_obj_invalidate:00000000 $t
C:\Users\ADMINI~1\AppData\Local\Temp\ccVA75Tx.s:3274   .text.lv_obj_invalidate:00000000 lv_obj_invalidate
C:\Users\ADMINI~1\AppData\Local\Temp\ccVA75Tx.s:3394   .text.lv_obj_move_to:00000000 $t
C:\Users\ADMINI~1\AppData\Local\Temp\ccVA75Tx.s:3400   .text.lv_obj_move_to:00000000 lv_obj_move_to
C:\Users\ADMINI~1\AppData\Local\Temp\ccVA75Tx.s:3717   .text.lv_obj_refr_pos:00000000 $t
C:\Users\ADMINI~1\AppData\Local\Temp\ccVA75Tx.s:3723   .text.lv_obj_refr_pos:00000000 lv_obj_refr_pos
C:\Users\ADMINI~1\AppData\Local\Temp\ccVA75Tx.s:3963   .text.lv_obj_refr_pos:000000c4 $d
C:\Users\ADMINI~1\AppData\Local\Temp\ccVA75Tx.s:3972   .text.lv_obj_refr_pos:000000cc $t
C:\Users\ADMINI~1\AppData\Local\Temp\ccVA75Tx.s:4289   .text.lv_obj_refr_pos:0000024c $d
C:\Users\ADMINI~1\AppData\Local\Temp\ccVA75Tx.s:4294   .text.lv_obj_is_visible:00000000 $t
C:\Users\ADMINI~1\AppData\Local\Temp\ccVA75Tx.s:4300   .text.lv_obj_is_visible:00000000 lv_obj_is_visible
C:\Users\ADMINI~1\AppData\Local\Temp\ccVA75Tx.s:4390   .text.lv_obj_set_ext_click_area:00000000 $t
C:\Users\ADMINI~1\AppData\Local\Temp\ccVA75Tx.s:4396   .text.lv_obj_set_ext_click_area:00000000 lv_obj_set_ext_click_area
C:\Users\ADMINI~1\AppData\Local\Temp\ccVA75Tx.s:4431   .text.lv_obj_get_click_area:00000000 $t
C:\Users\ADMINI~1\AppData\Local\Temp\ccVA75Tx.s:4437   .text.lv_obj_get_click_area:00000000 lv_obj_get_click_area
C:\Users\ADMINI~1\AppData\Local\Temp\ccVA75Tx.s:4530   .text.lv_obj_hit_test:00000000 $t
C:\Users\ADMINI~1\AppData\Local\Temp\ccVA75Tx.s:4536   .text.lv_obj_hit_test:00000000 lv_obj_hit_test
C:\Users\ADMINI~1\AppData\Local\Temp\ccVA75Tx.s:4644   .text.lv_clamp_width:00000000 $t
C:\Users\ADMINI~1\AppData\Local\Temp\ccVA75Tx.s:4650   .text.lv_clamp_width:00000000 lv_clamp_width
C:\Users\ADMINI~1\AppData\Local\Temp\ccVA75Tx.s:4748   .text.lv_clamp_width:00000078 $d
C:\Users\ADMINI~1\AppData\Local\Temp\ccVA75Tx.s:4753   .text.lv_clamp_height:00000000 $t
C:\Users\ADMINI~1\AppData\Local\Temp\ccVA75Tx.s:4759   .text.lv_clamp_height:00000000 lv_clamp_height
C:\Users\ADMINI~1\AppData\Local\Temp\ccVA75Tx.s:4857   .text.lv_clamp_height:00000078 $d
C:\Users\ADMINI~1\AppData\Local\Temp\ccVA75Tx.s:4862   .text.lv_obj_refr_size:00000000 $t
C:\Users\ADMINI~1\AppData\Local\Temp\ccVA75Tx.s:4868   .text.lv_obj_refr_size:00000000 lv_obj_refr_size
C:\Users\ADMINI~1\AppData\Local\Temp\ccVA75Tx.s:5722   .text.lv_obj_refr_size:00000328 $d
C:\Users\ADMINI~1\AppData\Local\Temp\ccVA75Tx.s:5728   .text.layout_update_core:00000000 $t
C:\Users\ADMINI~1\AppData\Local\Temp\ccVA75Tx.s:5733   .text.layout_update_core:00000000 layout_update_core
C:\Users\ADMINI~1\AppData\Local\Temp\ccVA75Tx.s:5873   .text.layout_update_core:0000007c $d
C:\Users\ADMINI~1\AppData\Local\Temp\ccVA75Tx.s:5881   .text.lv_obj_update_layout:00000000 $t
C:\Users\ADMINI~1\AppData\Local\Temp\ccVA75Tx.s:5887   .text.lv_obj_update_layout:00000000 lv_obj_update_layout
C:\Users\ADMINI~1\AppData\Local\Temp\ccVA75Tx.s:5960   .text.lv_obj_update_layout:0000003c $d
C:\Users\ADMINI~1\AppData\Local\Temp\ccVA75Tx.s:5965   .text.lv_obj_align_to:00000000 $t
C:\Users\ADMINI~1\AppData\Local\Temp\ccVA75Tx.s:5971   .text.lv_obj_align_to:00000000 lv_obj_align_to
C:\Users\ADMINI~1\AppData\Local\Temp\ccVA75Tx.s:6151   .text.lv_obj_align_to:00000088 $d
C:\Users\ADMINI~1\AppData\Local\Temp\ccVA75Tx.s:6173   .text.lv_obj_align_to:000000b2 $t
ARM GAS  C:\Users\ADMINI~1\AppData\Local\Temp\ccVA75Tx.s 			page 184


C:\Users\ADMINI~1\AppData\Local\Temp\ccVA75Tx.s:6872   .bss.layout_cnt:00000000 $d
C:\Users\ADMINI~1\AppData\Local\Temp\ccVA75Tx.s:6876   .bss.layout_cnt:00000000 layout_cnt
C:\Users\ADMINI~1\AppData\Local\Temp\ccVA75Tx.s:6882   .bss.mutex.0:00000000 mutex.0
C:\Users\ADMINI~1\AppData\Local\Temp\ccVA75Tx.s:6883   .bss.mutex.0:00000000 $d
C:\Users\ADMINI~1\AppData\Local\Temp\ccVA75Tx.s:2050   .text.calc_content_width:00000085 $d
C:\Users\ADMINI~1\AppData\Local\Temp\ccVA75Tx.s:2050   .text.calc_content_width:00000086 $t

UNDEFINED SYMBOLS
lv_obj_get_local_style_prop
lv_obj_set_style_x
lv_obj_set_style_y
lv_obj_set_style_width
lv_obj_set_style_height
lv_obj_get_style_prop
lv_obj_has_flag_any
lv_obj_get_parent
lv_obj_get_screen
lv_obj_get_disp
lv_timer_resume
lv_obj_set_style_layout
lv_mem_realloc
_lv_layout_list
lv_obj_set_style_align
lv_obj_get_scroll_x
lv_obj_get_scroll_y
lv_area_increase
lv_event_send
lv_obj_scroll_to_x
lv_obj_get_child_cnt
lv_obj_scroll_to_y
lv_obj_has_flag
lv_disp_get_scr_act
lv_disp_get_scr_prev
lv_disp_get_layer_top
lv_disp_get_layer_sys
_lv_obj_get_ext_draw_size
_lv_area_intersect
_lv_inv_area
_lv_area_is_in
lv_obj_scrollbar_invalidate
lv_obj_allocate_spec_attr
lv_obj_has_state
_lv_area_is_point_on
lv_obj_get_scroll_left
lv_obj_get_scroll_top
lv_obj_scroll_to
lv_obj_readjust_scroll
lv_obj_get_scroll_right
