ARM GAS  C:\Users\ADMINI~1\AppData\Local\Temp\cchMZgMB.s 			page 1


   1              		.cpu cortex-m4
   2              		.arch armv7e-m
   3              		.fpu fpv4-sp-d16
   4              		.eabi_attribute 27, 1
   5              		.eabi_attribute 28, 1
   6              		.eabi_attribute 20, 1
   7              		.eabi_attribute 21, 1
   8              		.eabi_attribute 23, 3
   9              		.eabi_attribute 24, 1
  10              		.eabi_attribute 25, 1
  11              		.eabi_attribute 26, 1
  12              		.eabi_attribute 30, 1
  13              		.eabi_attribute 34, 1
  14              		.eabi_attribute 18, 4
  15              		.file	"lv_obj_scroll.c"
  16              		.text
  17              	.Ltext0:
  18              		.cfi_sections	.debug_frame
  19              		.section	.text.scroll_by_raw,"ax",%progbits
  20              		.align	1
  21              		.syntax unified
  22              		.thumb
  23              		.thumb_func
  25              	scroll_by_raw:
  26              	.LVL0:
  27              	.LFB186:
  28              		.file 1 "Middlewares/LVGL/GUI/lvgl/src/core/lv_obj_scroll.c"
   1:Middlewares/LVGL/GUI/lvgl/src/core/lv_obj_scroll.c **** /**
   2:Middlewares/LVGL/GUI/lvgl/src/core/lv_obj_scroll.c ****  * @file lv_obj_scroll.c
   3:Middlewares/LVGL/GUI/lvgl/src/core/lv_obj_scroll.c ****  *
   4:Middlewares/LVGL/GUI/lvgl/src/core/lv_obj_scroll.c ****  */
   5:Middlewares/LVGL/GUI/lvgl/src/core/lv_obj_scroll.c **** 
   6:Middlewares/LVGL/GUI/lvgl/src/core/lv_obj_scroll.c **** /*********************
   7:Middlewares/LVGL/GUI/lvgl/src/core/lv_obj_scroll.c ****  *      INCLUDES
   8:Middlewares/LVGL/GUI/lvgl/src/core/lv_obj_scroll.c ****  *********************/
   9:Middlewares/LVGL/GUI/lvgl/src/core/lv_obj_scroll.c **** #include "lv_obj_scroll.h"
  10:Middlewares/LVGL/GUI/lvgl/src/core/lv_obj_scroll.c **** #include "lv_obj.h"
  11:Middlewares/LVGL/GUI/lvgl/src/core/lv_obj_scroll.c **** #include "lv_indev.h"
  12:Middlewares/LVGL/GUI/lvgl/src/core/lv_obj_scroll.c **** #include "lv_disp.h"
  13:Middlewares/LVGL/GUI/lvgl/src/core/lv_obj_scroll.c **** #include "lv_indev_scroll.h"
  14:Middlewares/LVGL/GUI/lvgl/src/core/lv_obj_scroll.c **** 
  15:Middlewares/LVGL/GUI/lvgl/src/core/lv_obj_scroll.c **** /*********************
  16:Middlewares/LVGL/GUI/lvgl/src/core/lv_obj_scroll.c ****  *      DEFINES
  17:Middlewares/LVGL/GUI/lvgl/src/core/lv_obj_scroll.c ****  *********************/
  18:Middlewares/LVGL/GUI/lvgl/src/core/lv_obj_scroll.c **** #define MY_CLASS &lv_obj_class
  19:Middlewares/LVGL/GUI/lvgl/src/core/lv_obj_scroll.c **** #define SCROLL_ANIM_TIME_MIN    200    /*ms*/
  20:Middlewares/LVGL/GUI/lvgl/src/core/lv_obj_scroll.c **** #define SCROLL_ANIM_TIME_MAX    400    /*ms*/
  21:Middlewares/LVGL/GUI/lvgl/src/core/lv_obj_scroll.c **** #define SCROLLBAR_MIN_SIZE      (LV_DPX(10))
  22:Middlewares/LVGL/GUI/lvgl/src/core/lv_obj_scroll.c **** 
  23:Middlewares/LVGL/GUI/lvgl/src/core/lv_obj_scroll.c **** /**********************
  24:Middlewares/LVGL/GUI/lvgl/src/core/lv_obj_scroll.c ****  *      TYPEDEFS
  25:Middlewares/LVGL/GUI/lvgl/src/core/lv_obj_scroll.c ****  **********************/
  26:Middlewares/LVGL/GUI/lvgl/src/core/lv_obj_scroll.c **** 
  27:Middlewares/LVGL/GUI/lvgl/src/core/lv_obj_scroll.c **** /**********************
  28:Middlewares/LVGL/GUI/lvgl/src/core/lv_obj_scroll.c ****  *  GLOBAL PROTOTYPES
  29:Middlewares/LVGL/GUI/lvgl/src/core/lv_obj_scroll.c ****  **********************/
  30:Middlewares/LVGL/GUI/lvgl/src/core/lv_obj_scroll.c **** 
ARM GAS  C:\Users\ADMINI~1\AppData\Local\Temp\cchMZgMB.s 			page 2


  31:Middlewares/LVGL/GUI/lvgl/src/core/lv_obj_scroll.c **** /**********************
  32:Middlewares/LVGL/GUI/lvgl/src/core/lv_obj_scroll.c ****  *  STATIC PROTOTYPES
  33:Middlewares/LVGL/GUI/lvgl/src/core/lv_obj_scroll.c ****  **********************/
  34:Middlewares/LVGL/GUI/lvgl/src/core/lv_obj_scroll.c **** static void scroll_by_raw(lv_obj_t * obj, lv_coord_t x, lv_coord_t y);
  35:Middlewares/LVGL/GUI/lvgl/src/core/lv_obj_scroll.c **** static void scroll_x_anim(void * obj, int32_t v);
  36:Middlewares/LVGL/GUI/lvgl/src/core/lv_obj_scroll.c **** static void scroll_y_anim(void * obj, int32_t v);
  37:Middlewares/LVGL/GUI/lvgl/src/core/lv_obj_scroll.c **** static void scroll_anim_ready_cb(lv_anim_t * a);
  38:Middlewares/LVGL/GUI/lvgl/src/core/lv_obj_scroll.c **** static void scroll_area_into_view(const lv_area_t * area, lv_obj_t * child, lv_point_t * scroll_val
  39:Middlewares/LVGL/GUI/lvgl/src/core/lv_obj_scroll.c ****                                   lv_anim_enable_t anim_en);
  40:Middlewares/LVGL/GUI/lvgl/src/core/lv_obj_scroll.c **** 
  41:Middlewares/LVGL/GUI/lvgl/src/core/lv_obj_scroll.c **** /**********************
  42:Middlewares/LVGL/GUI/lvgl/src/core/lv_obj_scroll.c ****  *  STATIC VARIABLES
  43:Middlewares/LVGL/GUI/lvgl/src/core/lv_obj_scroll.c ****  **********************/
  44:Middlewares/LVGL/GUI/lvgl/src/core/lv_obj_scroll.c **** 
  45:Middlewares/LVGL/GUI/lvgl/src/core/lv_obj_scroll.c **** /**********************
  46:Middlewares/LVGL/GUI/lvgl/src/core/lv_obj_scroll.c ****  *      MACROS
  47:Middlewares/LVGL/GUI/lvgl/src/core/lv_obj_scroll.c ****  **********************/
  48:Middlewares/LVGL/GUI/lvgl/src/core/lv_obj_scroll.c **** 
  49:Middlewares/LVGL/GUI/lvgl/src/core/lv_obj_scroll.c **** /**********************
  50:Middlewares/LVGL/GUI/lvgl/src/core/lv_obj_scroll.c ****  *   GLOBAL FUNCTIONS
  51:Middlewares/LVGL/GUI/lvgl/src/core/lv_obj_scroll.c ****  **********************/
  52:Middlewares/LVGL/GUI/lvgl/src/core/lv_obj_scroll.c **** 
  53:Middlewares/LVGL/GUI/lvgl/src/core/lv_obj_scroll.c **** /*=====================
  54:Middlewares/LVGL/GUI/lvgl/src/core/lv_obj_scroll.c ****  * Setter functions
  55:Middlewares/LVGL/GUI/lvgl/src/core/lv_obj_scroll.c ****  *====================*/
  56:Middlewares/LVGL/GUI/lvgl/src/core/lv_obj_scroll.c **** 
  57:Middlewares/LVGL/GUI/lvgl/src/core/lv_obj_scroll.c **** void lv_obj_set_scrollbar_mode(lv_obj_t * obj, lv_scrollbar_mode_t mode)
  58:Middlewares/LVGL/GUI/lvgl/src/core/lv_obj_scroll.c **** {
  59:Middlewares/LVGL/GUI/lvgl/src/core/lv_obj_scroll.c ****     LV_ASSERT_OBJ(obj, MY_CLASS);
  60:Middlewares/LVGL/GUI/lvgl/src/core/lv_obj_scroll.c **** 
  61:Middlewares/LVGL/GUI/lvgl/src/core/lv_obj_scroll.c ****     lv_obj_allocate_spec_attr(obj);
  62:Middlewares/LVGL/GUI/lvgl/src/core/lv_obj_scroll.c **** 
  63:Middlewares/LVGL/GUI/lvgl/src/core/lv_obj_scroll.c ****     if(obj->spec_attr->scrollbar_mode == mode) return;
  64:Middlewares/LVGL/GUI/lvgl/src/core/lv_obj_scroll.c ****     obj->spec_attr->scrollbar_mode = mode;
  65:Middlewares/LVGL/GUI/lvgl/src/core/lv_obj_scroll.c ****     lv_obj_invalidate(obj);
  66:Middlewares/LVGL/GUI/lvgl/src/core/lv_obj_scroll.c **** }
  67:Middlewares/LVGL/GUI/lvgl/src/core/lv_obj_scroll.c **** 
  68:Middlewares/LVGL/GUI/lvgl/src/core/lv_obj_scroll.c **** void lv_obj_set_scroll_dir(lv_obj_t * obj, lv_dir_t dir)
  69:Middlewares/LVGL/GUI/lvgl/src/core/lv_obj_scroll.c **** {
  70:Middlewares/LVGL/GUI/lvgl/src/core/lv_obj_scroll.c ****     lv_obj_allocate_spec_attr(obj);
  71:Middlewares/LVGL/GUI/lvgl/src/core/lv_obj_scroll.c **** 
  72:Middlewares/LVGL/GUI/lvgl/src/core/lv_obj_scroll.c ****     if(dir != obj->spec_attr->scroll_dir) {
  73:Middlewares/LVGL/GUI/lvgl/src/core/lv_obj_scroll.c ****         obj->spec_attr->scroll_dir = dir;
  74:Middlewares/LVGL/GUI/lvgl/src/core/lv_obj_scroll.c ****     }
  75:Middlewares/LVGL/GUI/lvgl/src/core/lv_obj_scroll.c **** }
  76:Middlewares/LVGL/GUI/lvgl/src/core/lv_obj_scroll.c **** 
  77:Middlewares/LVGL/GUI/lvgl/src/core/lv_obj_scroll.c **** void lv_obj_set_scroll_snap_x(lv_obj_t * obj, lv_scroll_snap_t align)
  78:Middlewares/LVGL/GUI/lvgl/src/core/lv_obj_scroll.c **** {
  79:Middlewares/LVGL/GUI/lvgl/src/core/lv_obj_scroll.c ****     lv_obj_allocate_spec_attr(obj);
  80:Middlewares/LVGL/GUI/lvgl/src/core/lv_obj_scroll.c ****     obj->spec_attr->scroll_snap_x = align;
  81:Middlewares/LVGL/GUI/lvgl/src/core/lv_obj_scroll.c **** }
  82:Middlewares/LVGL/GUI/lvgl/src/core/lv_obj_scroll.c **** 
  83:Middlewares/LVGL/GUI/lvgl/src/core/lv_obj_scroll.c **** void lv_obj_set_scroll_snap_y(lv_obj_t * obj, lv_scroll_snap_t align)
  84:Middlewares/LVGL/GUI/lvgl/src/core/lv_obj_scroll.c **** {
  85:Middlewares/LVGL/GUI/lvgl/src/core/lv_obj_scroll.c ****     lv_obj_allocate_spec_attr(obj);
  86:Middlewares/LVGL/GUI/lvgl/src/core/lv_obj_scroll.c ****     obj->spec_attr->scroll_snap_y = align;
  87:Middlewares/LVGL/GUI/lvgl/src/core/lv_obj_scroll.c **** }
ARM GAS  C:\Users\ADMINI~1\AppData\Local\Temp\cchMZgMB.s 			page 3


  88:Middlewares/LVGL/GUI/lvgl/src/core/lv_obj_scroll.c **** 
  89:Middlewares/LVGL/GUI/lvgl/src/core/lv_obj_scroll.c **** /*=====================
  90:Middlewares/LVGL/GUI/lvgl/src/core/lv_obj_scroll.c ****  * Getter functions
  91:Middlewares/LVGL/GUI/lvgl/src/core/lv_obj_scroll.c ****  *====================*/
  92:Middlewares/LVGL/GUI/lvgl/src/core/lv_obj_scroll.c **** 
  93:Middlewares/LVGL/GUI/lvgl/src/core/lv_obj_scroll.c **** lv_scrollbar_mode_t lv_obj_get_scrollbar_mode(const lv_obj_t * obj)
  94:Middlewares/LVGL/GUI/lvgl/src/core/lv_obj_scroll.c **** {
  95:Middlewares/LVGL/GUI/lvgl/src/core/lv_obj_scroll.c ****     if(obj->spec_attr) return obj->spec_attr->scrollbar_mode;
  96:Middlewares/LVGL/GUI/lvgl/src/core/lv_obj_scroll.c ****     else return LV_SCROLLBAR_MODE_AUTO;
  97:Middlewares/LVGL/GUI/lvgl/src/core/lv_obj_scroll.c **** }
  98:Middlewares/LVGL/GUI/lvgl/src/core/lv_obj_scroll.c **** 
  99:Middlewares/LVGL/GUI/lvgl/src/core/lv_obj_scroll.c **** lv_dir_t lv_obj_get_scroll_dir(const lv_obj_t * obj)
 100:Middlewares/LVGL/GUI/lvgl/src/core/lv_obj_scroll.c **** {
 101:Middlewares/LVGL/GUI/lvgl/src/core/lv_obj_scroll.c ****     if(obj->spec_attr) return obj->spec_attr->scroll_dir;
 102:Middlewares/LVGL/GUI/lvgl/src/core/lv_obj_scroll.c ****     else return LV_DIR_ALL;
 103:Middlewares/LVGL/GUI/lvgl/src/core/lv_obj_scroll.c **** }
 104:Middlewares/LVGL/GUI/lvgl/src/core/lv_obj_scroll.c **** 
 105:Middlewares/LVGL/GUI/lvgl/src/core/lv_obj_scroll.c **** lv_scroll_snap_t lv_obj_get_scroll_snap_x(const lv_obj_t * obj)
 106:Middlewares/LVGL/GUI/lvgl/src/core/lv_obj_scroll.c **** {
 107:Middlewares/LVGL/GUI/lvgl/src/core/lv_obj_scroll.c ****     if(obj->spec_attr) return obj->spec_attr->scroll_snap_x;
 108:Middlewares/LVGL/GUI/lvgl/src/core/lv_obj_scroll.c ****     else return LV_SCROLL_SNAP_NONE;
 109:Middlewares/LVGL/GUI/lvgl/src/core/lv_obj_scroll.c **** }
 110:Middlewares/LVGL/GUI/lvgl/src/core/lv_obj_scroll.c **** 
 111:Middlewares/LVGL/GUI/lvgl/src/core/lv_obj_scroll.c **** lv_scroll_snap_t lv_obj_get_scroll_snap_y(const lv_obj_t * obj)
 112:Middlewares/LVGL/GUI/lvgl/src/core/lv_obj_scroll.c **** {
 113:Middlewares/LVGL/GUI/lvgl/src/core/lv_obj_scroll.c ****     if(obj->spec_attr) return obj->spec_attr->scroll_snap_y;
 114:Middlewares/LVGL/GUI/lvgl/src/core/lv_obj_scroll.c ****     else return LV_SCROLL_SNAP_NONE;
 115:Middlewares/LVGL/GUI/lvgl/src/core/lv_obj_scroll.c **** }
 116:Middlewares/LVGL/GUI/lvgl/src/core/lv_obj_scroll.c **** 
 117:Middlewares/LVGL/GUI/lvgl/src/core/lv_obj_scroll.c **** lv_coord_t lv_obj_get_scroll_x(const lv_obj_t * obj)
 118:Middlewares/LVGL/GUI/lvgl/src/core/lv_obj_scroll.c **** {
 119:Middlewares/LVGL/GUI/lvgl/src/core/lv_obj_scroll.c ****     if(obj->spec_attr == NULL) return 0;
 120:Middlewares/LVGL/GUI/lvgl/src/core/lv_obj_scroll.c ****     return -obj->spec_attr->scroll.x;
 121:Middlewares/LVGL/GUI/lvgl/src/core/lv_obj_scroll.c **** }
 122:Middlewares/LVGL/GUI/lvgl/src/core/lv_obj_scroll.c **** 
 123:Middlewares/LVGL/GUI/lvgl/src/core/lv_obj_scroll.c **** lv_coord_t lv_obj_get_scroll_y(const lv_obj_t * obj)
 124:Middlewares/LVGL/GUI/lvgl/src/core/lv_obj_scroll.c **** {
 125:Middlewares/LVGL/GUI/lvgl/src/core/lv_obj_scroll.c ****     if(obj->spec_attr == NULL) return 0;
 126:Middlewares/LVGL/GUI/lvgl/src/core/lv_obj_scroll.c ****     return -obj->spec_attr->scroll.y;
 127:Middlewares/LVGL/GUI/lvgl/src/core/lv_obj_scroll.c **** }
 128:Middlewares/LVGL/GUI/lvgl/src/core/lv_obj_scroll.c **** 
 129:Middlewares/LVGL/GUI/lvgl/src/core/lv_obj_scroll.c **** lv_coord_t lv_obj_get_scroll_top(lv_obj_t * obj)
 130:Middlewares/LVGL/GUI/lvgl/src/core/lv_obj_scroll.c **** {
 131:Middlewares/LVGL/GUI/lvgl/src/core/lv_obj_scroll.c ****     if(obj->spec_attr == NULL) return 0;
 132:Middlewares/LVGL/GUI/lvgl/src/core/lv_obj_scroll.c ****     return -obj->spec_attr->scroll.y;
 133:Middlewares/LVGL/GUI/lvgl/src/core/lv_obj_scroll.c **** }
 134:Middlewares/LVGL/GUI/lvgl/src/core/lv_obj_scroll.c **** 
 135:Middlewares/LVGL/GUI/lvgl/src/core/lv_obj_scroll.c **** lv_coord_t lv_obj_get_scroll_bottom(lv_obj_t * obj)
 136:Middlewares/LVGL/GUI/lvgl/src/core/lv_obj_scroll.c **** {
 137:Middlewares/LVGL/GUI/lvgl/src/core/lv_obj_scroll.c ****     LV_ASSERT_OBJ(obj, MY_CLASS);
 138:Middlewares/LVGL/GUI/lvgl/src/core/lv_obj_scroll.c **** 
 139:Middlewares/LVGL/GUI/lvgl/src/core/lv_obj_scroll.c ****     lv_coord_t child_res = LV_COORD_MIN;
 140:Middlewares/LVGL/GUI/lvgl/src/core/lv_obj_scroll.c ****     uint32_t i;
 141:Middlewares/LVGL/GUI/lvgl/src/core/lv_obj_scroll.c ****     uint32_t child_cnt = lv_obj_get_child_cnt(obj);
 142:Middlewares/LVGL/GUI/lvgl/src/core/lv_obj_scroll.c ****     for(i = 0; i < child_cnt; i++) {
 143:Middlewares/LVGL/GUI/lvgl/src/core/lv_obj_scroll.c ****         lv_obj_t * child = obj->spec_attr->children[i];
 144:Middlewares/LVGL/GUI/lvgl/src/core/lv_obj_scroll.c ****         if(lv_obj_has_flag_any(child,  LV_OBJ_FLAG_HIDDEN | LV_OBJ_FLAG_FLOATING)) continue;
ARM GAS  C:\Users\ADMINI~1\AppData\Local\Temp\cchMZgMB.s 			page 4


 145:Middlewares/LVGL/GUI/lvgl/src/core/lv_obj_scroll.c ****         child_res = LV_MAX(child_res, child->coords.y2);
 146:Middlewares/LVGL/GUI/lvgl/src/core/lv_obj_scroll.c ****     }
 147:Middlewares/LVGL/GUI/lvgl/src/core/lv_obj_scroll.c **** 
 148:Middlewares/LVGL/GUI/lvgl/src/core/lv_obj_scroll.c ****     lv_coord_t pad_top = lv_obj_get_style_pad_top(obj, LV_PART_MAIN);
 149:Middlewares/LVGL/GUI/lvgl/src/core/lv_obj_scroll.c ****     lv_coord_t pad_bottom = lv_obj_get_style_pad_bottom(obj, LV_PART_MAIN);
 150:Middlewares/LVGL/GUI/lvgl/src/core/lv_obj_scroll.c ****     lv_coord_t border_width = lv_obj_get_style_border_width(obj, LV_PART_MAIN);
 151:Middlewares/LVGL/GUI/lvgl/src/core/lv_obj_scroll.c **** 
 152:Middlewares/LVGL/GUI/lvgl/src/core/lv_obj_scroll.c ****     if(child_res != LV_COORD_MIN) {
 153:Middlewares/LVGL/GUI/lvgl/src/core/lv_obj_scroll.c ****         child_res -= (obj->coords.y2 - pad_bottom - border_width);
 154:Middlewares/LVGL/GUI/lvgl/src/core/lv_obj_scroll.c ****     }
 155:Middlewares/LVGL/GUI/lvgl/src/core/lv_obj_scroll.c **** 
 156:Middlewares/LVGL/GUI/lvgl/src/core/lv_obj_scroll.c ****     lv_coord_t self_h = lv_obj_get_self_height(obj);
 157:Middlewares/LVGL/GUI/lvgl/src/core/lv_obj_scroll.c ****     self_h = self_h - (lv_obj_get_height(obj) - pad_top - pad_bottom - 2 * border_width);
 158:Middlewares/LVGL/GUI/lvgl/src/core/lv_obj_scroll.c ****     self_h -= lv_obj_get_scroll_y(obj);
 159:Middlewares/LVGL/GUI/lvgl/src/core/lv_obj_scroll.c ****     return LV_MAX(child_res, self_h);
 160:Middlewares/LVGL/GUI/lvgl/src/core/lv_obj_scroll.c **** }
 161:Middlewares/LVGL/GUI/lvgl/src/core/lv_obj_scroll.c **** 
 162:Middlewares/LVGL/GUI/lvgl/src/core/lv_obj_scroll.c **** lv_coord_t lv_obj_get_scroll_left(lv_obj_t * obj)
 163:Middlewares/LVGL/GUI/lvgl/src/core/lv_obj_scroll.c **** {
 164:Middlewares/LVGL/GUI/lvgl/src/core/lv_obj_scroll.c ****     LV_ASSERT_OBJ(obj, MY_CLASS);
 165:Middlewares/LVGL/GUI/lvgl/src/core/lv_obj_scroll.c **** 
 166:Middlewares/LVGL/GUI/lvgl/src/core/lv_obj_scroll.c ****     /*Normally can't scroll the object out on the left.
 167:Middlewares/LVGL/GUI/lvgl/src/core/lv_obj_scroll.c ****      *So simply use the current scroll position as "left size"*/
 168:Middlewares/LVGL/GUI/lvgl/src/core/lv_obj_scroll.c ****     if(lv_obj_get_style_base_dir(obj, LV_PART_MAIN) != LV_BASE_DIR_RTL) {
 169:Middlewares/LVGL/GUI/lvgl/src/core/lv_obj_scroll.c ****         if(obj->spec_attr == NULL) return 0;
 170:Middlewares/LVGL/GUI/lvgl/src/core/lv_obj_scroll.c ****         return -obj->spec_attr->scroll.x;
 171:Middlewares/LVGL/GUI/lvgl/src/core/lv_obj_scroll.c ****     }
 172:Middlewares/LVGL/GUI/lvgl/src/core/lv_obj_scroll.c **** 
 173:Middlewares/LVGL/GUI/lvgl/src/core/lv_obj_scroll.c ****     /*With RTL base direction scrolling the left is normal so find the left most coordinate*/
 174:Middlewares/LVGL/GUI/lvgl/src/core/lv_obj_scroll.c ****     lv_coord_t pad_right = lv_obj_get_style_pad_right(obj, LV_PART_MAIN);
 175:Middlewares/LVGL/GUI/lvgl/src/core/lv_obj_scroll.c ****     lv_coord_t pad_left = lv_obj_get_style_pad_left(obj, LV_PART_MAIN);
 176:Middlewares/LVGL/GUI/lvgl/src/core/lv_obj_scroll.c ****     lv_coord_t border_width = lv_obj_get_style_border_width(obj, LV_PART_MAIN);
 177:Middlewares/LVGL/GUI/lvgl/src/core/lv_obj_scroll.c **** 
 178:Middlewares/LVGL/GUI/lvgl/src/core/lv_obj_scroll.c ****     lv_coord_t child_res = 0;
 179:Middlewares/LVGL/GUI/lvgl/src/core/lv_obj_scroll.c **** 
 180:Middlewares/LVGL/GUI/lvgl/src/core/lv_obj_scroll.c ****     uint32_t i;
 181:Middlewares/LVGL/GUI/lvgl/src/core/lv_obj_scroll.c ****     lv_coord_t x1 = LV_COORD_MAX;
 182:Middlewares/LVGL/GUI/lvgl/src/core/lv_obj_scroll.c ****     uint32_t child_cnt = lv_obj_get_child_cnt(obj);
 183:Middlewares/LVGL/GUI/lvgl/src/core/lv_obj_scroll.c ****     for(i = 0; i < child_cnt; i++) {
 184:Middlewares/LVGL/GUI/lvgl/src/core/lv_obj_scroll.c ****         lv_obj_t * child = obj->spec_attr->children[i];
 185:Middlewares/LVGL/GUI/lvgl/src/core/lv_obj_scroll.c ****         if(lv_obj_has_flag_any(child,  LV_OBJ_FLAG_HIDDEN | LV_OBJ_FLAG_FLOATING)) continue;
 186:Middlewares/LVGL/GUI/lvgl/src/core/lv_obj_scroll.c ****         x1 = LV_MIN(x1, child->coords.x1);
 187:Middlewares/LVGL/GUI/lvgl/src/core/lv_obj_scroll.c **** 
 188:Middlewares/LVGL/GUI/lvgl/src/core/lv_obj_scroll.c ****     }
 189:Middlewares/LVGL/GUI/lvgl/src/core/lv_obj_scroll.c **** 
 190:Middlewares/LVGL/GUI/lvgl/src/core/lv_obj_scroll.c ****     if(x1 != LV_COORD_MAX) {
 191:Middlewares/LVGL/GUI/lvgl/src/core/lv_obj_scroll.c ****         child_res = x1;
 192:Middlewares/LVGL/GUI/lvgl/src/core/lv_obj_scroll.c ****         child_res = (obj->coords.x1 + pad_left + border_width) - child_res;
 193:Middlewares/LVGL/GUI/lvgl/src/core/lv_obj_scroll.c ****     }
 194:Middlewares/LVGL/GUI/lvgl/src/core/lv_obj_scroll.c ****     else {
 195:Middlewares/LVGL/GUI/lvgl/src/core/lv_obj_scroll.c ****         child_res = LV_COORD_MIN;
 196:Middlewares/LVGL/GUI/lvgl/src/core/lv_obj_scroll.c ****     }
 197:Middlewares/LVGL/GUI/lvgl/src/core/lv_obj_scroll.c **** 
 198:Middlewares/LVGL/GUI/lvgl/src/core/lv_obj_scroll.c ****     lv_coord_t self_w = lv_obj_get_self_width(obj);
 199:Middlewares/LVGL/GUI/lvgl/src/core/lv_obj_scroll.c ****     self_w = self_w - (lv_obj_get_width(obj) - pad_right - pad_left - 2 * border_width);
 200:Middlewares/LVGL/GUI/lvgl/src/core/lv_obj_scroll.c ****     self_w += lv_obj_get_scroll_x(obj);
 201:Middlewares/LVGL/GUI/lvgl/src/core/lv_obj_scroll.c **** 
ARM GAS  C:\Users\ADMINI~1\AppData\Local\Temp\cchMZgMB.s 			page 5


 202:Middlewares/LVGL/GUI/lvgl/src/core/lv_obj_scroll.c ****     return LV_MAX(child_res, self_w);
 203:Middlewares/LVGL/GUI/lvgl/src/core/lv_obj_scroll.c **** }
 204:Middlewares/LVGL/GUI/lvgl/src/core/lv_obj_scroll.c **** 
 205:Middlewares/LVGL/GUI/lvgl/src/core/lv_obj_scroll.c **** lv_coord_t lv_obj_get_scroll_right(lv_obj_t * obj)
 206:Middlewares/LVGL/GUI/lvgl/src/core/lv_obj_scroll.c **** {
 207:Middlewares/LVGL/GUI/lvgl/src/core/lv_obj_scroll.c ****     LV_ASSERT_OBJ(obj, MY_CLASS);
 208:Middlewares/LVGL/GUI/lvgl/src/core/lv_obj_scroll.c **** 
 209:Middlewares/LVGL/GUI/lvgl/src/core/lv_obj_scroll.c ****     /*With RTL base dir can't scroll to the object out on the right.
 210:Middlewares/LVGL/GUI/lvgl/src/core/lv_obj_scroll.c ****      *So simply use the current scroll position as "right size"*/
 211:Middlewares/LVGL/GUI/lvgl/src/core/lv_obj_scroll.c ****     if(lv_obj_get_style_base_dir(obj, LV_PART_MAIN) == LV_BASE_DIR_RTL) {
 212:Middlewares/LVGL/GUI/lvgl/src/core/lv_obj_scroll.c ****         if(obj->spec_attr == NULL) return 0;
 213:Middlewares/LVGL/GUI/lvgl/src/core/lv_obj_scroll.c ****         return obj->spec_attr->scroll.x;
 214:Middlewares/LVGL/GUI/lvgl/src/core/lv_obj_scroll.c ****     }
 215:Middlewares/LVGL/GUI/lvgl/src/core/lv_obj_scroll.c **** 
 216:Middlewares/LVGL/GUI/lvgl/src/core/lv_obj_scroll.c ****     /*With other base direction (LTR) scrolling to the right is normal so find the right most coord
 217:Middlewares/LVGL/GUI/lvgl/src/core/lv_obj_scroll.c ****     lv_coord_t child_res = LV_COORD_MIN;
 218:Middlewares/LVGL/GUI/lvgl/src/core/lv_obj_scroll.c ****     uint32_t i;
 219:Middlewares/LVGL/GUI/lvgl/src/core/lv_obj_scroll.c ****     uint32_t child_cnt = lv_obj_get_child_cnt(obj);
 220:Middlewares/LVGL/GUI/lvgl/src/core/lv_obj_scroll.c ****     for(i = 0; i < child_cnt; i++) {
 221:Middlewares/LVGL/GUI/lvgl/src/core/lv_obj_scroll.c ****         lv_obj_t * child = obj->spec_attr->children[i];
 222:Middlewares/LVGL/GUI/lvgl/src/core/lv_obj_scroll.c ****         if(lv_obj_has_flag_any(child,  LV_OBJ_FLAG_HIDDEN | LV_OBJ_FLAG_FLOATING)) continue;
 223:Middlewares/LVGL/GUI/lvgl/src/core/lv_obj_scroll.c ****         child_res = LV_MAX(child_res, child->coords.x2);
 224:Middlewares/LVGL/GUI/lvgl/src/core/lv_obj_scroll.c ****     }
 225:Middlewares/LVGL/GUI/lvgl/src/core/lv_obj_scroll.c **** 
 226:Middlewares/LVGL/GUI/lvgl/src/core/lv_obj_scroll.c ****     lv_coord_t pad_right = lv_obj_get_style_pad_right(obj, LV_PART_MAIN);
 227:Middlewares/LVGL/GUI/lvgl/src/core/lv_obj_scroll.c ****     lv_coord_t pad_left = lv_obj_get_style_pad_left(obj, LV_PART_MAIN);
 228:Middlewares/LVGL/GUI/lvgl/src/core/lv_obj_scroll.c ****     lv_coord_t border_width = lv_obj_get_style_border_width(obj, LV_PART_MAIN);
 229:Middlewares/LVGL/GUI/lvgl/src/core/lv_obj_scroll.c **** 
 230:Middlewares/LVGL/GUI/lvgl/src/core/lv_obj_scroll.c ****     if(child_res != LV_COORD_MIN) {
 231:Middlewares/LVGL/GUI/lvgl/src/core/lv_obj_scroll.c ****         child_res -= (obj->coords.x2 - pad_right - border_width);
 232:Middlewares/LVGL/GUI/lvgl/src/core/lv_obj_scroll.c ****     }
 233:Middlewares/LVGL/GUI/lvgl/src/core/lv_obj_scroll.c **** 
 234:Middlewares/LVGL/GUI/lvgl/src/core/lv_obj_scroll.c ****     lv_coord_t self_w;
 235:Middlewares/LVGL/GUI/lvgl/src/core/lv_obj_scroll.c ****     self_w = lv_obj_get_self_width(obj);
 236:Middlewares/LVGL/GUI/lvgl/src/core/lv_obj_scroll.c ****     self_w = self_w - (lv_obj_get_width(obj) - pad_right - pad_left - 2 * border_width);
 237:Middlewares/LVGL/GUI/lvgl/src/core/lv_obj_scroll.c ****     self_w -= lv_obj_get_scroll_x(obj);
 238:Middlewares/LVGL/GUI/lvgl/src/core/lv_obj_scroll.c ****     return LV_MAX(child_res, self_w);
 239:Middlewares/LVGL/GUI/lvgl/src/core/lv_obj_scroll.c **** }
 240:Middlewares/LVGL/GUI/lvgl/src/core/lv_obj_scroll.c **** 
 241:Middlewares/LVGL/GUI/lvgl/src/core/lv_obj_scroll.c **** void lv_obj_get_scroll_end(struct _lv_obj_t  * obj, lv_point_t * end)
 242:Middlewares/LVGL/GUI/lvgl/src/core/lv_obj_scroll.c **** {
 243:Middlewares/LVGL/GUI/lvgl/src/core/lv_obj_scroll.c ****     lv_anim_t * a;
 244:Middlewares/LVGL/GUI/lvgl/src/core/lv_obj_scroll.c ****     a = lv_anim_get(obj, scroll_x_anim);
 245:Middlewares/LVGL/GUI/lvgl/src/core/lv_obj_scroll.c ****     end->x = a ? -a->end_value : lv_obj_get_scroll_x(obj);
 246:Middlewares/LVGL/GUI/lvgl/src/core/lv_obj_scroll.c **** 
 247:Middlewares/LVGL/GUI/lvgl/src/core/lv_obj_scroll.c ****     a = lv_anim_get(obj, scroll_y_anim);
 248:Middlewares/LVGL/GUI/lvgl/src/core/lv_obj_scroll.c ****     end->y = a ? -a->end_value : lv_obj_get_scroll_y(obj);
 249:Middlewares/LVGL/GUI/lvgl/src/core/lv_obj_scroll.c **** }
 250:Middlewares/LVGL/GUI/lvgl/src/core/lv_obj_scroll.c **** 
 251:Middlewares/LVGL/GUI/lvgl/src/core/lv_obj_scroll.c **** /*=====================
 252:Middlewares/LVGL/GUI/lvgl/src/core/lv_obj_scroll.c ****  * Other functions
 253:Middlewares/LVGL/GUI/lvgl/src/core/lv_obj_scroll.c ****  *====================*/
 254:Middlewares/LVGL/GUI/lvgl/src/core/lv_obj_scroll.c **** 
 255:Middlewares/LVGL/GUI/lvgl/src/core/lv_obj_scroll.c **** void lv_obj_scroll_by_bounded(lv_obj_t * obj, lv_coord_t dx, lv_coord_t dy, lv_anim_enable_t anim_e
 256:Middlewares/LVGL/GUI/lvgl/src/core/lv_obj_scroll.c **** {
 257:Middlewares/LVGL/GUI/lvgl/src/core/lv_obj_scroll.c ****     if(dx == 0 && dy == 0) return;
 258:Middlewares/LVGL/GUI/lvgl/src/core/lv_obj_scroll.c **** 
ARM GAS  C:\Users\ADMINI~1\AppData\Local\Temp\cchMZgMB.s 			page 6


 259:Middlewares/LVGL/GUI/lvgl/src/core/lv_obj_scroll.c ****     /*We need to know the final sizes for bound check*/
 260:Middlewares/LVGL/GUI/lvgl/src/core/lv_obj_scroll.c ****     lv_obj_update_layout(obj);
 261:Middlewares/LVGL/GUI/lvgl/src/core/lv_obj_scroll.c **** 
 262:Middlewares/LVGL/GUI/lvgl/src/core/lv_obj_scroll.c ****     /*Don't let scroll more then naturally possible by the size of the content*/
 263:Middlewares/LVGL/GUI/lvgl/src/core/lv_obj_scroll.c ****     lv_coord_t x_current = -lv_obj_get_scroll_x(obj);
 264:Middlewares/LVGL/GUI/lvgl/src/core/lv_obj_scroll.c ****     lv_coord_t x_bounded = x_current + dx;
 265:Middlewares/LVGL/GUI/lvgl/src/core/lv_obj_scroll.c **** 
 266:Middlewares/LVGL/GUI/lvgl/src/core/lv_obj_scroll.c ****     if(lv_obj_get_style_base_dir(obj, LV_PART_MAIN) != LV_BASE_DIR_RTL) {
 267:Middlewares/LVGL/GUI/lvgl/src/core/lv_obj_scroll.c ****         if(x_bounded > 0) x_bounded = 0;
 268:Middlewares/LVGL/GUI/lvgl/src/core/lv_obj_scroll.c ****         if(x_bounded < 0) {
 269:Middlewares/LVGL/GUI/lvgl/src/core/lv_obj_scroll.c ****             lv_coord_t  scroll_max = lv_obj_get_scroll_left(obj) + lv_obj_get_scroll_right(obj);
 270:Middlewares/LVGL/GUI/lvgl/src/core/lv_obj_scroll.c ****             if(scroll_max < 0) scroll_max = 0;
 271:Middlewares/LVGL/GUI/lvgl/src/core/lv_obj_scroll.c **** 
 272:Middlewares/LVGL/GUI/lvgl/src/core/lv_obj_scroll.c ****             if(x_bounded < -scroll_max) x_bounded = -scroll_max;
 273:Middlewares/LVGL/GUI/lvgl/src/core/lv_obj_scroll.c ****         }
 274:Middlewares/LVGL/GUI/lvgl/src/core/lv_obj_scroll.c ****     }
 275:Middlewares/LVGL/GUI/lvgl/src/core/lv_obj_scroll.c ****     else {
 276:Middlewares/LVGL/GUI/lvgl/src/core/lv_obj_scroll.c ****         if(x_bounded < 0) x_bounded = 0;
 277:Middlewares/LVGL/GUI/lvgl/src/core/lv_obj_scroll.c ****         if(x_bounded > 0) {
 278:Middlewares/LVGL/GUI/lvgl/src/core/lv_obj_scroll.c ****             lv_coord_t  scroll_max = lv_obj_get_scroll_left(obj) + lv_obj_get_scroll_right(obj);
 279:Middlewares/LVGL/GUI/lvgl/src/core/lv_obj_scroll.c ****             if(scroll_max < 0) scroll_max = 0;
 280:Middlewares/LVGL/GUI/lvgl/src/core/lv_obj_scroll.c **** 
 281:Middlewares/LVGL/GUI/lvgl/src/core/lv_obj_scroll.c ****             if(x_bounded > scroll_max) x_bounded = scroll_max;
 282:Middlewares/LVGL/GUI/lvgl/src/core/lv_obj_scroll.c ****         }
 283:Middlewares/LVGL/GUI/lvgl/src/core/lv_obj_scroll.c ****     }
 284:Middlewares/LVGL/GUI/lvgl/src/core/lv_obj_scroll.c **** 
 285:Middlewares/LVGL/GUI/lvgl/src/core/lv_obj_scroll.c ****     /*Don't let scroll more then naturally possible by the size of the content*/
 286:Middlewares/LVGL/GUI/lvgl/src/core/lv_obj_scroll.c ****     lv_coord_t y_current = -lv_obj_get_scroll_y(obj);
 287:Middlewares/LVGL/GUI/lvgl/src/core/lv_obj_scroll.c ****     lv_coord_t y_bounded = y_current + dy;
 288:Middlewares/LVGL/GUI/lvgl/src/core/lv_obj_scroll.c **** 
 289:Middlewares/LVGL/GUI/lvgl/src/core/lv_obj_scroll.c ****     if(y_bounded > 0) y_bounded = 0;
 290:Middlewares/LVGL/GUI/lvgl/src/core/lv_obj_scroll.c ****     if(y_bounded < 0) {
 291:Middlewares/LVGL/GUI/lvgl/src/core/lv_obj_scroll.c ****         lv_coord_t  scroll_max = lv_obj_get_scroll_top(obj) + lv_obj_get_scroll_bottom(obj);
 292:Middlewares/LVGL/GUI/lvgl/src/core/lv_obj_scroll.c ****         if(scroll_max < 0) scroll_max = 0;
 293:Middlewares/LVGL/GUI/lvgl/src/core/lv_obj_scroll.c ****         if(y_bounded < -scroll_max) y_bounded = -scroll_max;
 294:Middlewares/LVGL/GUI/lvgl/src/core/lv_obj_scroll.c ****     }
 295:Middlewares/LVGL/GUI/lvgl/src/core/lv_obj_scroll.c **** 
 296:Middlewares/LVGL/GUI/lvgl/src/core/lv_obj_scroll.c ****     dx = x_bounded - x_current;
 297:Middlewares/LVGL/GUI/lvgl/src/core/lv_obj_scroll.c ****     dy = y_bounded - y_current;
 298:Middlewares/LVGL/GUI/lvgl/src/core/lv_obj_scroll.c ****     if(dx || dy) {
 299:Middlewares/LVGL/GUI/lvgl/src/core/lv_obj_scroll.c ****         lv_obj_scroll_by(obj, dx, dy, anim_en);
 300:Middlewares/LVGL/GUI/lvgl/src/core/lv_obj_scroll.c ****     }
 301:Middlewares/LVGL/GUI/lvgl/src/core/lv_obj_scroll.c **** }
 302:Middlewares/LVGL/GUI/lvgl/src/core/lv_obj_scroll.c **** 
 303:Middlewares/LVGL/GUI/lvgl/src/core/lv_obj_scroll.c **** 
 304:Middlewares/LVGL/GUI/lvgl/src/core/lv_obj_scroll.c **** void lv_obj_scroll_by(lv_obj_t * obj, lv_coord_t dx, lv_coord_t dy, lv_anim_enable_t anim_en)
 305:Middlewares/LVGL/GUI/lvgl/src/core/lv_obj_scroll.c **** {
 306:Middlewares/LVGL/GUI/lvgl/src/core/lv_obj_scroll.c ****     if(dx == 0 && dy == 0) return;
 307:Middlewares/LVGL/GUI/lvgl/src/core/lv_obj_scroll.c ****     if(anim_en == LV_ANIM_ON) {
 308:Middlewares/LVGL/GUI/lvgl/src/core/lv_obj_scroll.c ****         lv_disp_t * d = lv_obj_get_disp(obj);
 309:Middlewares/LVGL/GUI/lvgl/src/core/lv_obj_scroll.c ****         lv_anim_t a;
 310:Middlewares/LVGL/GUI/lvgl/src/core/lv_obj_scroll.c ****         lv_anim_init(&a);
 311:Middlewares/LVGL/GUI/lvgl/src/core/lv_obj_scroll.c ****         lv_anim_set_var(&a, obj);
 312:Middlewares/LVGL/GUI/lvgl/src/core/lv_obj_scroll.c ****         lv_anim_set_ready_cb(&a, scroll_anim_ready_cb);
 313:Middlewares/LVGL/GUI/lvgl/src/core/lv_obj_scroll.c **** 
 314:Middlewares/LVGL/GUI/lvgl/src/core/lv_obj_scroll.c ****         if(dx) {
 315:Middlewares/LVGL/GUI/lvgl/src/core/lv_obj_scroll.c ****             uint32_t t = lv_anim_speed_to_time((lv_disp_get_hor_res(d) * 2) >> 2, 0, dx);
ARM GAS  C:\Users\ADMINI~1\AppData\Local\Temp\cchMZgMB.s 			page 7


 316:Middlewares/LVGL/GUI/lvgl/src/core/lv_obj_scroll.c ****             if(t < SCROLL_ANIM_TIME_MIN) t = SCROLL_ANIM_TIME_MIN;
 317:Middlewares/LVGL/GUI/lvgl/src/core/lv_obj_scroll.c ****             if(t > SCROLL_ANIM_TIME_MAX) t = SCROLL_ANIM_TIME_MAX;
 318:Middlewares/LVGL/GUI/lvgl/src/core/lv_obj_scroll.c ****             lv_anim_set_time(&a, t);
 319:Middlewares/LVGL/GUI/lvgl/src/core/lv_obj_scroll.c ****             lv_coord_t sx = lv_obj_get_scroll_x(obj);
 320:Middlewares/LVGL/GUI/lvgl/src/core/lv_obj_scroll.c ****             lv_anim_set_values(&a, -sx, -sx + dx);
 321:Middlewares/LVGL/GUI/lvgl/src/core/lv_obj_scroll.c ****             lv_anim_set_exec_cb(&a, scroll_x_anim);
 322:Middlewares/LVGL/GUI/lvgl/src/core/lv_obj_scroll.c ****             lv_anim_set_path_cb(&a, lv_anim_path_ease_out);
 323:Middlewares/LVGL/GUI/lvgl/src/core/lv_obj_scroll.c **** 
 324:Middlewares/LVGL/GUI/lvgl/src/core/lv_obj_scroll.c ****             lv_res_t res;
 325:Middlewares/LVGL/GUI/lvgl/src/core/lv_obj_scroll.c ****             res = lv_event_send(obj, LV_EVENT_SCROLL_BEGIN, &a);
 326:Middlewares/LVGL/GUI/lvgl/src/core/lv_obj_scroll.c ****             if(res != LV_RES_OK) return;
 327:Middlewares/LVGL/GUI/lvgl/src/core/lv_obj_scroll.c ****             lv_anim_start(&a);
 328:Middlewares/LVGL/GUI/lvgl/src/core/lv_obj_scroll.c ****         }
 329:Middlewares/LVGL/GUI/lvgl/src/core/lv_obj_scroll.c **** 
 330:Middlewares/LVGL/GUI/lvgl/src/core/lv_obj_scroll.c ****         if(dy) {
 331:Middlewares/LVGL/GUI/lvgl/src/core/lv_obj_scroll.c ****             uint32_t t = lv_anim_speed_to_time((lv_disp_get_ver_res(d) * 2) >> 2, 0, dy);
 332:Middlewares/LVGL/GUI/lvgl/src/core/lv_obj_scroll.c ****             if(t < SCROLL_ANIM_TIME_MIN) t = SCROLL_ANIM_TIME_MIN;
 333:Middlewares/LVGL/GUI/lvgl/src/core/lv_obj_scroll.c ****             if(t > SCROLL_ANIM_TIME_MAX) t = SCROLL_ANIM_TIME_MAX;
 334:Middlewares/LVGL/GUI/lvgl/src/core/lv_obj_scroll.c ****             lv_anim_set_time(&a, t);
 335:Middlewares/LVGL/GUI/lvgl/src/core/lv_obj_scroll.c ****             lv_coord_t sy = lv_obj_get_scroll_y(obj);
 336:Middlewares/LVGL/GUI/lvgl/src/core/lv_obj_scroll.c ****             lv_anim_set_values(&a, -sy, -sy + dy);
 337:Middlewares/LVGL/GUI/lvgl/src/core/lv_obj_scroll.c ****             lv_anim_set_exec_cb(&a,  scroll_y_anim);
 338:Middlewares/LVGL/GUI/lvgl/src/core/lv_obj_scroll.c ****             lv_anim_set_path_cb(&a, lv_anim_path_ease_out);
 339:Middlewares/LVGL/GUI/lvgl/src/core/lv_obj_scroll.c **** 
 340:Middlewares/LVGL/GUI/lvgl/src/core/lv_obj_scroll.c ****             lv_res_t res;
 341:Middlewares/LVGL/GUI/lvgl/src/core/lv_obj_scroll.c ****             res = lv_event_send(obj, LV_EVENT_SCROLL_BEGIN, &a);
 342:Middlewares/LVGL/GUI/lvgl/src/core/lv_obj_scroll.c ****             if(res != LV_RES_OK) return;
 343:Middlewares/LVGL/GUI/lvgl/src/core/lv_obj_scroll.c ****             lv_anim_start(&a);
 344:Middlewares/LVGL/GUI/lvgl/src/core/lv_obj_scroll.c ****         }
 345:Middlewares/LVGL/GUI/lvgl/src/core/lv_obj_scroll.c ****     }
 346:Middlewares/LVGL/GUI/lvgl/src/core/lv_obj_scroll.c ****     else {
 347:Middlewares/LVGL/GUI/lvgl/src/core/lv_obj_scroll.c ****         /*Remove pending animations*/
 348:Middlewares/LVGL/GUI/lvgl/src/core/lv_obj_scroll.c ****         bool y_del = lv_anim_del(obj, scroll_y_anim);
 349:Middlewares/LVGL/GUI/lvgl/src/core/lv_obj_scroll.c ****         bool x_del = lv_anim_del(obj, scroll_x_anim);
 350:Middlewares/LVGL/GUI/lvgl/src/core/lv_obj_scroll.c ****         scroll_by_raw(obj, dx, dy);
 351:Middlewares/LVGL/GUI/lvgl/src/core/lv_obj_scroll.c ****         if(y_del || x_del) {
 352:Middlewares/LVGL/GUI/lvgl/src/core/lv_obj_scroll.c ****             lv_res_t res;
 353:Middlewares/LVGL/GUI/lvgl/src/core/lv_obj_scroll.c ****             res = lv_event_send(obj, LV_EVENT_SCROLL_END, NULL);
 354:Middlewares/LVGL/GUI/lvgl/src/core/lv_obj_scroll.c ****             if(res != LV_RES_OK) return;
 355:Middlewares/LVGL/GUI/lvgl/src/core/lv_obj_scroll.c ****         }
 356:Middlewares/LVGL/GUI/lvgl/src/core/lv_obj_scroll.c ****     }
 357:Middlewares/LVGL/GUI/lvgl/src/core/lv_obj_scroll.c **** }
 358:Middlewares/LVGL/GUI/lvgl/src/core/lv_obj_scroll.c **** 
 359:Middlewares/LVGL/GUI/lvgl/src/core/lv_obj_scroll.c **** void lv_obj_scroll_to(lv_obj_t * obj, lv_coord_t x, lv_coord_t y, lv_anim_enable_t anim_en)
 360:Middlewares/LVGL/GUI/lvgl/src/core/lv_obj_scroll.c **** {
 361:Middlewares/LVGL/GUI/lvgl/src/core/lv_obj_scroll.c ****     lv_obj_scroll_to_x(obj, x, anim_en);
 362:Middlewares/LVGL/GUI/lvgl/src/core/lv_obj_scroll.c ****     lv_obj_scroll_to_y(obj, y, anim_en);
 363:Middlewares/LVGL/GUI/lvgl/src/core/lv_obj_scroll.c **** }
 364:Middlewares/LVGL/GUI/lvgl/src/core/lv_obj_scroll.c **** 
 365:Middlewares/LVGL/GUI/lvgl/src/core/lv_obj_scroll.c **** void lv_obj_scroll_to_x(lv_obj_t * obj, lv_coord_t x, lv_anim_enable_t anim_en)
 366:Middlewares/LVGL/GUI/lvgl/src/core/lv_obj_scroll.c **** {
 367:Middlewares/LVGL/GUI/lvgl/src/core/lv_obj_scroll.c ****     lv_anim_del(obj, scroll_x_anim);
 368:Middlewares/LVGL/GUI/lvgl/src/core/lv_obj_scroll.c **** 
 369:Middlewares/LVGL/GUI/lvgl/src/core/lv_obj_scroll.c ****     lv_coord_t scroll_x = lv_obj_get_scroll_x(obj);
 370:Middlewares/LVGL/GUI/lvgl/src/core/lv_obj_scroll.c ****     lv_coord_t diff = -x + scroll_x;
 371:Middlewares/LVGL/GUI/lvgl/src/core/lv_obj_scroll.c **** 
 372:Middlewares/LVGL/GUI/lvgl/src/core/lv_obj_scroll.c ****     lv_obj_scroll_by_bounded(obj, diff, 0, anim_en);
ARM GAS  C:\Users\ADMINI~1\AppData\Local\Temp\cchMZgMB.s 			page 8


 373:Middlewares/LVGL/GUI/lvgl/src/core/lv_obj_scroll.c **** }
 374:Middlewares/LVGL/GUI/lvgl/src/core/lv_obj_scroll.c **** 
 375:Middlewares/LVGL/GUI/lvgl/src/core/lv_obj_scroll.c **** void lv_obj_scroll_to_y(lv_obj_t * obj, lv_coord_t y, lv_anim_enable_t anim_en)
 376:Middlewares/LVGL/GUI/lvgl/src/core/lv_obj_scroll.c **** {
 377:Middlewares/LVGL/GUI/lvgl/src/core/lv_obj_scroll.c ****     lv_anim_del(obj, scroll_y_anim);
 378:Middlewares/LVGL/GUI/lvgl/src/core/lv_obj_scroll.c **** 
 379:Middlewares/LVGL/GUI/lvgl/src/core/lv_obj_scroll.c ****     lv_coord_t scroll_y = lv_obj_get_scroll_y(obj);
 380:Middlewares/LVGL/GUI/lvgl/src/core/lv_obj_scroll.c ****     lv_coord_t diff = -y + scroll_y;
 381:Middlewares/LVGL/GUI/lvgl/src/core/lv_obj_scroll.c **** 
 382:Middlewares/LVGL/GUI/lvgl/src/core/lv_obj_scroll.c ****     lv_obj_scroll_by_bounded(obj, 0, diff, anim_en);
 383:Middlewares/LVGL/GUI/lvgl/src/core/lv_obj_scroll.c **** }
 384:Middlewares/LVGL/GUI/lvgl/src/core/lv_obj_scroll.c **** 
 385:Middlewares/LVGL/GUI/lvgl/src/core/lv_obj_scroll.c **** void lv_obj_scroll_to_view(lv_obj_t * obj, lv_anim_enable_t anim_en)
 386:Middlewares/LVGL/GUI/lvgl/src/core/lv_obj_scroll.c **** {
 387:Middlewares/LVGL/GUI/lvgl/src/core/lv_obj_scroll.c ****     /*Be sure the screens layout is correct*/
 388:Middlewares/LVGL/GUI/lvgl/src/core/lv_obj_scroll.c ****     lv_obj_update_layout(obj);
 389:Middlewares/LVGL/GUI/lvgl/src/core/lv_obj_scroll.c **** 
 390:Middlewares/LVGL/GUI/lvgl/src/core/lv_obj_scroll.c ****     lv_point_t p = {0, 0};
 391:Middlewares/LVGL/GUI/lvgl/src/core/lv_obj_scroll.c ****     scroll_area_into_view(&obj->coords, obj, &p, anim_en);
 392:Middlewares/LVGL/GUI/lvgl/src/core/lv_obj_scroll.c **** }
 393:Middlewares/LVGL/GUI/lvgl/src/core/lv_obj_scroll.c **** 
 394:Middlewares/LVGL/GUI/lvgl/src/core/lv_obj_scroll.c **** void lv_obj_scroll_to_view_recursive(lv_obj_t * obj, lv_anim_enable_t anim_en)
 395:Middlewares/LVGL/GUI/lvgl/src/core/lv_obj_scroll.c **** {
 396:Middlewares/LVGL/GUI/lvgl/src/core/lv_obj_scroll.c ****     /*Be sure the screens layout is correct*/
 397:Middlewares/LVGL/GUI/lvgl/src/core/lv_obj_scroll.c ****     lv_obj_update_layout(obj);
 398:Middlewares/LVGL/GUI/lvgl/src/core/lv_obj_scroll.c **** 
 399:Middlewares/LVGL/GUI/lvgl/src/core/lv_obj_scroll.c ****     lv_point_t p = {0, 0};
 400:Middlewares/LVGL/GUI/lvgl/src/core/lv_obj_scroll.c ****     lv_obj_t * child = obj;
 401:Middlewares/LVGL/GUI/lvgl/src/core/lv_obj_scroll.c ****     lv_obj_t * parent = lv_obj_get_parent(child);
 402:Middlewares/LVGL/GUI/lvgl/src/core/lv_obj_scroll.c ****     while(parent) {
 403:Middlewares/LVGL/GUI/lvgl/src/core/lv_obj_scroll.c ****         scroll_area_into_view(&obj->coords, child, &p, anim_en);
 404:Middlewares/LVGL/GUI/lvgl/src/core/lv_obj_scroll.c ****         child = parent;
 405:Middlewares/LVGL/GUI/lvgl/src/core/lv_obj_scroll.c ****         parent = lv_obj_get_parent(parent);
 406:Middlewares/LVGL/GUI/lvgl/src/core/lv_obj_scroll.c ****     }
 407:Middlewares/LVGL/GUI/lvgl/src/core/lv_obj_scroll.c **** }
 408:Middlewares/LVGL/GUI/lvgl/src/core/lv_obj_scroll.c **** 
 409:Middlewares/LVGL/GUI/lvgl/src/core/lv_obj_scroll.c **** bool lv_obj_is_scrolling(const lv_obj_t * obj)
 410:Middlewares/LVGL/GUI/lvgl/src/core/lv_obj_scroll.c **** {
 411:Middlewares/LVGL/GUI/lvgl/src/core/lv_obj_scroll.c ****     lv_indev_t * indev = lv_indev_get_next(NULL);
 412:Middlewares/LVGL/GUI/lvgl/src/core/lv_obj_scroll.c ****     while(indev) {
 413:Middlewares/LVGL/GUI/lvgl/src/core/lv_obj_scroll.c ****         if(lv_indev_get_scroll_obj(indev) == obj) return true;
 414:Middlewares/LVGL/GUI/lvgl/src/core/lv_obj_scroll.c ****         indev = lv_indev_get_next(indev);
 415:Middlewares/LVGL/GUI/lvgl/src/core/lv_obj_scroll.c ****     }
 416:Middlewares/LVGL/GUI/lvgl/src/core/lv_obj_scroll.c **** 
 417:Middlewares/LVGL/GUI/lvgl/src/core/lv_obj_scroll.c ****     return false;
 418:Middlewares/LVGL/GUI/lvgl/src/core/lv_obj_scroll.c **** }
 419:Middlewares/LVGL/GUI/lvgl/src/core/lv_obj_scroll.c **** 
 420:Middlewares/LVGL/GUI/lvgl/src/core/lv_obj_scroll.c **** void lv_obj_update_snap(lv_obj_t * obj, lv_anim_enable_t anim_en)
 421:Middlewares/LVGL/GUI/lvgl/src/core/lv_obj_scroll.c **** {
 422:Middlewares/LVGL/GUI/lvgl/src/core/lv_obj_scroll.c ****     lv_obj_update_layout(obj);
 423:Middlewares/LVGL/GUI/lvgl/src/core/lv_obj_scroll.c ****     lv_point_t p;
 424:Middlewares/LVGL/GUI/lvgl/src/core/lv_obj_scroll.c ****     lv_indev_scroll_get_snap_dist(obj, &p);
 425:Middlewares/LVGL/GUI/lvgl/src/core/lv_obj_scroll.c ****     lv_obj_scroll_by(obj, p.x, p.y, anim_en);
 426:Middlewares/LVGL/GUI/lvgl/src/core/lv_obj_scroll.c **** }
 427:Middlewares/LVGL/GUI/lvgl/src/core/lv_obj_scroll.c **** 
 428:Middlewares/LVGL/GUI/lvgl/src/core/lv_obj_scroll.c **** void lv_obj_get_scrollbar_area(lv_obj_t * obj, lv_area_t * hor_area, lv_area_t * ver_area)
 429:Middlewares/LVGL/GUI/lvgl/src/core/lv_obj_scroll.c **** {
ARM GAS  C:\Users\ADMINI~1\AppData\Local\Temp\cchMZgMB.s 			page 9


 430:Middlewares/LVGL/GUI/lvgl/src/core/lv_obj_scroll.c ****     lv_area_set(hor_area, 0, 0, -1, -1);
 431:Middlewares/LVGL/GUI/lvgl/src/core/lv_obj_scroll.c ****     lv_area_set(ver_area, 0, 0, -1, -1);
 432:Middlewares/LVGL/GUI/lvgl/src/core/lv_obj_scroll.c **** 
 433:Middlewares/LVGL/GUI/lvgl/src/core/lv_obj_scroll.c ****     if(lv_obj_has_flag(obj, LV_OBJ_FLAG_SCROLLABLE) == false) return;
 434:Middlewares/LVGL/GUI/lvgl/src/core/lv_obj_scroll.c **** 
 435:Middlewares/LVGL/GUI/lvgl/src/core/lv_obj_scroll.c ****     lv_dir_t sm = lv_obj_get_scrollbar_mode(obj);
 436:Middlewares/LVGL/GUI/lvgl/src/core/lv_obj_scroll.c ****     if(sm == LV_SCROLLBAR_MODE_OFF)  return;
 437:Middlewares/LVGL/GUI/lvgl/src/core/lv_obj_scroll.c **** 
 438:Middlewares/LVGL/GUI/lvgl/src/core/lv_obj_scroll.c ****     /*If there is no indev scrolling this object but `mode==active` return*/
 439:Middlewares/LVGL/GUI/lvgl/src/core/lv_obj_scroll.c ****     lv_indev_t * indev = lv_indev_get_next(NULL);
 440:Middlewares/LVGL/GUI/lvgl/src/core/lv_obj_scroll.c ****     if(sm == LV_SCROLLBAR_MODE_ACTIVE) {
 441:Middlewares/LVGL/GUI/lvgl/src/core/lv_obj_scroll.c ****         while(indev) {
 442:Middlewares/LVGL/GUI/lvgl/src/core/lv_obj_scroll.c ****             if(lv_indev_get_scroll_obj(indev) == obj) break;
 443:Middlewares/LVGL/GUI/lvgl/src/core/lv_obj_scroll.c ****             indev = lv_indev_get_next(indev);
 444:Middlewares/LVGL/GUI/lvgl/src/core/lv_obj_scroll.c ****         }
 445:Middlewares/LVGL/GUI/lvgl/src/core/lv_obj_scroll.c ****         if(indev == NULL)  return;
 446:Middlewares/LVGL/GUI/lvgl/src/core/lv_obj_scroll.c ****     }
 447:Middlewares/LVGL/GUI/lvgl/src/core/lv_obj_scroll.c **** 
 448:Middlewares/LVGL/GUI/lvgl/src/core/lv_obj_scroll.c ****     lv_coord_t st = lv_obj_get_scroll_top(obj);
 449:Middlewares/LVGL/GUI/lvgl/src/core/lv_obj_scroll.c ****     lv_coord_t sb = lv_obj_get_scroll_bottom(obj);
 450:Middlewares/LVGL/GUI/lvgl/src/core/lv_obj_scroll.c ****     lv_coord_t sl = lv_obj_get_scroll_left(obj);
 451:Middlewares/LVGL/GUI/lvgl/src/core/lv_obj_scroll.c ****     lv_coord_t sr = lv_obj_get_scroll_right(obj);
 452:Middlewares/LVGL/GUI/lvgl/src/core/lv_obj_scroll.c **** 
 453:Middlewares/LVGL/GUI/lvgl/src/core/lv_obj_scroll.c ****     lv_dir_t dir = lv_obj_get_scroll_dir(obj);
 454:Middlewares/LVGL/GUI/lvgl/src/core/lv_obj_scroll.c **** 
 455:Middlewares/LVGL/GUI/lvgl/src/core/lv_obj_scroll.c ****     bool ver_draw = false;
 456:Middlewares/LVGL/GUI/lvgl/src/core/lv_obj_scroll.c ****     if((dir & LV_DIR_VER) &&
 457:Middlewares/LVGL/GUI/lvgl/src/core/lv_obj_scroll.c ****        ((sm == LV_SCROLLBAR_MODE_ON) ||
 458:Middlewares/LVGL/GUI/lvgl/src/core/lv_obj_scroll.c ****         (sm == LV_SCROLLBAR_MODE_AUTO && (st > 0 || sb > 0)) ||
 459:Middlewares/LVGL/GUI/lvgl/src/core/lv_obj_scroll.c ****         (sm == LV_SCROLLBAR_MODE_ACTIVE && lv_indev_get_scroll_dir(indev) == LV_DIR_VER))) {
 460:Middlewares/LVGL/GUI/lvgl/src/core/lv_obj_scroll.c ****         ver_draw = true;
 461:Middlewares/LVGL/GUI/lvgl/src/core/lv_obj_scroll.c ****     }
 462:Middlewares/LVGL/GUI/lvgl/src/core/lv_obj_scroll.c **** 
 463:Middlewares/LVGL/GUI/lvgl/src/core/lv_obj_scroll.c **** 
 464:Middlewares/LVGL/GUI/lvgl/src/core/lv_obj_scroll.c ****     bool hor_draw = false;
 465:Middlewares/LVGL/GUI/lvgl/src/core/lv_obj_scroll.c ****     if((dir & LV_DIR_HOR) &&
 466:Middlewares/LVGL/GUI/lvgl/src/core/lv_obj_scroll.c ****        ((sm == LV_SCROLLBAR_MODE_ON) ||
 467:Middlewares/LVGL/GUI/lvgl/src/core/lv_obj_scroll.c ****         (sm == LV_SCROLLBAR_MODE_AUTO && (sl > 0 || sr > 0)) ||
 468:Middlewares/LVGL/GUI/lvgl/src/core/lv_obj_scroll.c ****         (sm == LV_SCROLLBAR_MODE_ACTIVE && lv_indev_get_scroll_dir(indev) == LV_DIR_HOR))) {
 469:Middlewares/LVGL/GUI/lvgl/src/core/lv_obj_scroll.c ****         hor_draw = true;
 470:Middlewares/LVGL/GUI/lvgl/src/core/lv_obj_scroll.c ****     }
 471:Middlewares/LVGL/GUI/lvgl/src/core/lv_obj_scroll.c **** 
 472:Middlewares/LVGL/GUI/lvgl/src/core/lv_obj_scroll.c ****     if(!hor_draw && !ver_draw) return;
 473:Middlewares/LVGL/GUI/lvgl/src/core/lv_obj_scroll.c **** 
 474:Middlewares/LVGL/GUI/lvgl/src/core/lv_obj_scroll.c ****     bool rtl = lv_obj_get_style_base_dir(obj, LV_PART_SCROLLBAR) == LV_BASE_DIR_RTL ? true : false;
 475:Middlewares/LVGL/GUI/lvgl/src/core/lv_obj_scroll.c **** 
 476:Middlewares/LVGL/GUI/lvgl/src/core/lv_obj_scroll.c ****     lv_coord_t top_space = lv_obj_get_style_pad_top(obj, LV_PART_SCROLLBAR);
 477:Middlewares/LVGL/GUI/lvgl/src/core/lv_obj_scroll.c ****     lv_coord_t bottom_space = lv_obj_get_style_pad_bottom(obj, LV_PART_SCROLLBAR);
 478:Middlewares/LVGL/GUI/lvgl/src/core/lv_obj_scroll.c ****     lv_coord_t left_space = lv_obj_get_style_pad_left(obj, LV_PART_SCROLLBAR);
 479:Middlewares/LVGL/GUI/lvgl/src/core/lv_obj_scroll.c ****     lv_coord_t right_space = lv_obj_get_style_pad_right(obj, LV_PART_SCROLLBAR);
 480:Middlewares/LVGL/GUI/lvgl/src/core/lv_obj_scroll.c ****     lv_coord_t tickness = lv_obj_get_style_width(obj, LV_PART_SCROLLBAR);
 481:Middlewares/LVGL/GUI/lvgl/src/core/lv_obj_scroll.c **** 
 482:Middlewares/LVGL/GUI/lvgl/src/core/lv_obj_scroll.c ****     lv_coord_t obj_h = lv_obj_get_height(obj);
 483:Middlewares/LVGL/GUI/lvgl/src/core/lv_obj_scroll.c ****     lv_coord_t obj_w = lv_obj_get_width(obj);
 484:Middlewares/LVGL/GUI/lvgl/src/core/lv_obj_scroll.c **** 
 485:Middlewares/LVGL/GUI/lvgl/src/core/lv_obj_scroll.c ****     /*Space required for the vertical and horizontal scrollbars*/
 486:Middlewares/LVGL/GUI/lvgl/src/core/lv_obj_scroll.c ****     lv_coord_t ver_reg_space = ver_draw ? tickness : 0;
ARM GAS  C:\Users\ADMINI~1\AppData\Local\Temp\cchMZgMB.s 			page 10


 487:Middlewares/LVGL/GUI/lvgl/src/core/lv_obj_scroll.c ****     lv_coord_t hor_req_space = hor_draw ? tickness : 0;
 488:Middlewares/LVGL/GUI/lvgl/src/core/lv_obj_scroll.c ****     lv_coord_t rem;
 489:Middlewares/LVGL/GUI/lvgl/src/core/lv_obj_scroll.c **** 
 490:Middlewares/LVGL/GUI/lvgl/src/core/lv_obj_scroll.c ****     if(lv_obj_get_style_bg_opa(obj, LV_PART_SCROLLBAR) < LV_OPA_MIN &&
 491:Middlewares/LVGL/GUI/lvgl/src/core/lv_obj_scroll.c ****        lv_obj_get_style_border_opa(obj, LV_PART_SCROLLBAR) < LV_OPA_MIN) {
 492:Middlewares/LVGL/GUI/lvgl/src/core/lv_obj_scroll.c ****         return;
 493:Middlewares/LVGL/GUI/lvgl/src/core/lv_obj_scroll.c ****     }
 494:Middlewares/LVGL/GUI/lvgl/src/core/lv_obj_scroll.c **** 
 495:Middlewares/LVGL/GUI/lvgl/src/core/lv_obj_scroll.c ****     /*Draw vertical scrollbar if the mode is ON or can be scrolled in this direction*/
 496:Middlewares/LVGL/GUI/lvgl/src/core/lv_obj_scroll.c ****     lv_coord_t content_h = obj_h + st + sb;
 497:Middlewares/LVGL/GUI/lvgl/src/core/lv_obj_scroll.c ****     if(ver_draw && content_h) {
 498:Middlewares/LVGL/GUI/lvgl/src/core/lv_obj_scroll.c ****         ver_area->y1 = obj->coords.y1;
 499:Middlewares/LVGL/GUI/lvgl/src/core/lv_obj_scroll.c ****         ver_area->y2 = obj->coords.y2;
 500:Middlewares/LVGL/GUI/lvgl/src/core/lv_obj_scroll.c ****         if(rtl) {
 501:Middlewares/LVGL/GUI/lvgl/src/core/lv_obj_scroll.c ****             ver_area->x1 = obj->coords.x1 + left_space;
 502:Middlewares/LVGL/GUI/lvgl/src/core/lv_obj_scroll.c ****             ver_area->x2 = ver_area->x1 + tickness - 1;
 503:Middlewares/LVGL/GUI/lvgl/src/core/lv_obj_scroll.c ****         }
 504:Middlewares/LVGL/GUI/lvgl/src/core/lv_obj_scroll.c ****         else {
 505:Middlewares/LVGL/GUI/lvgl/src/core/lv_obj_scroll.c ****             ver_area->x2 = obj->coords.x2 - right_space;
 506:Middlewares/LVGL/GUI/lvgl/src/core/lv_obj_scroll.c ****             ver_area->x1 = ver_area->x2 - tickness + 1;
 507:Middlewares/LVGL/GUI/lvgl/src/core/lv_obj_scroll.c ****         }
 508:Middlewares/LVGL/GUI/lvgl/src/core/lv_obj_scroll.c **** 
 509:Middlewares/LVGL/GUI/lvgl/src/core/lv_obj_scroll.c ****         lv_coord_t sb_h = ((obj_h - top_space - bottom_space - hor_req_space) * obj_h) / content_h;
 510:Middlewares/LVGL/GUI/lvgl/src/core/lv_obj_scroll.c ****         sb_h = LV_MAX(sb_h, SCROLLBAR_MIN_SIZE);
 511:Middlewares/LVGL/GUI/lvgl/src/core/lv_obj_scroll.c ****         rem = (obj_h - top_space - bottom_space - hor_req_space) -
 512:Middlewares/LVGL/GUI/lvgl/src/core/lv_obj_scroll.c ****               sb_h;  /*Remaining size from the scrollbar track that is not the scrollbar itself*/
 513:Middlewares/LVGL/GUI/lvgl/src/core/lv_obj_scroll.c ****         lv_coord_t scroll_h = content_h - obj_h; /*The size of the content which can be really scro
 514:Middlewares/LVGL/GUI/lvgl/src/core/lv_obj_scroll.c ****         if(scroll_h <= 0) {
 515:Middlewares/LVGL/GUI/lvgl/src/core/lv_obj_scroll.c ****             ver_area->y1 = obj->coords.y1 + top_space;
 516:Middlewares/LVGL/GUI/lvgl/src/core/lv_obj_scroll.c ****             ver_area->y2 = obj->coords.y2 - bottom_space - hor_req_space - 1;
 517:Middlewares/LVGL/GUI/lvgl/src/core/lv_obj_scroll.c ****         }
 518:Middlewares/LVGL/GUI/lvgl/src/core/lv_obj_scroll.c ****         else {
 519:Middlewares/LVGL/GUI/lvgl/src/core/lv_obj_scroll.c ****             lv_coord_t sb_y = (rem * sb) / scroll_h;
 520:Middlewares/LVGL/GUI/lvgl/src/core/lv_obj_scroll.c ****             sb_y = rem - sb_y;
 521:Middlewares/LVGL/GUI/lvgl/src/core/lv_obj_scroll.c **** 
 522:Middlewares/LVGL/GUI/lvgl/src/core/lv_obj_scroll.c ****             ver_area->y1 = obj->coords.y1 + sb_y + top_space;
 523:Middlewares/LVGL/GUI/lvgl/src/core/lv_obj_scroll.c ****             ver_area->y2 = ver_area->y1 + sb_h - 1;
 524:Middlewares/LVGL/GUI/lvgl/src/core/lv_obj_scroll.c ****             if(ver_area->y1 < obj->coords.y1 + top_space) {
 525:Middlewares/LVGL/GUI/lvgl/src/core/lv_obj_scroll.c ****                 ver_area->y1 = obj->coords.y1 + top_space;
 526:Middlewares/LVGL/GUI/lvgl/src/core/lv_obj_scroll.c ****                 if(ver_area->y1 + SCROLLBAR_MIN_SIZE > ver_area->y2) {
 527:Middlewares/LVGL/GUI/lvgl/src/core/lv_obj_scroll.c ****                     ver_area->y2 = ver_area->y1 + SCROLLBAR_MIN_SIZE;
 528:Middlewares/LVGL/GUI/lvgl/src/core/lv_obj_scroll.c ****                 }
 529:Middlewares/LVGL/GUI/lvgl/src/core/lv_obj_scroll.c ****             }
 530:Middlewares/LVGL/GUI/lvgl/src/core/lv_obj_scroll.c ****             if(ver_area->y2 > obj->coords.y2 - hor_req_space - bottom_space) {
 531:Middlewares/LVGL/GUI/lvgl/src/core/lv_obj_scroll.c ****                 ver_area->y2 = obj->coords.y2 - hor_req_space - bottom_space;
 532:Middlewares/LVGL/GUI/lvgl/src/core/lv_obj_scroll.c ****                 if(ver_area->y2 - SCROLLBAR_MIN_SIZE < ver_area->y1) {
 533:Middlewares/LVGL/GUI/lvgl/src/core/lv_obj_scroll.c ****                     ver_area->y1 = ver_area->y2 - SCROLLBAR_MIN_SIZE;
 534:Middlewares/LVGL/GUI/lvgl/src/core/lv_obj_scroll.c ****                 }
 535:Middlewares/LVGL/GUI/lvgl/src/core/lv_obj_scroll.c ****             }
 536:Middlewares/LVGL/GUI/lvgl/src/core/lv_obj_scroll.c ****         }
 537:Middlewares/LVGL/GUI/lvgl/src/core/lv_obj_scroll.c ****     }
 538:Middlewares/LVGL/GUI/lvgl/src/core/lv_obj_scroll.c **** 
 539:Middlewares/LVGL/GUI/lvgl/src/core/lv_obj_scroll.c ****     /*Draw horizontal scrollbar if the mode is ON or can be scrolled in this direction*/
 540:Middlewares/LVGL/GUI/lvgl/src/core/lv_obj_scroll.c ****     lv_coord_t content_w = obj_w + sl + sr;
 541:Middlewares/LVGL/GUI/lvgl/src/core/lv_obj_scroll.c ****     if(hor_draw && content_w) {
 542:Middlewares/LVGL/GUI/lvgl/src/core/lv_obj_scroll.c ****         hor_area->y2 = obj->coords.y2 - bottom_space;
 543:Middlewares/LVGL/GUI/lvgl/src/core/lv_obj_scroll.c ****         hor_area->y1 = hor_area->y2 - tickness + 1;
ARM GAS  C:\Users\ADMINI~1\AppData\Local\Temp\cchMZgMB.s 			page 11


 544:Middlewares/LVGL/GUI/lvgl/src/core/lv_obj_scroll.c ****         hor_area->x1 = obj->coords.x1;
 545:Middlewares/LVGL/GUI/lvgl/src/core/lv_obj_scroll.c ****         hor_area->x2 = obj->coords.x2;
 546:Middlewares/LVGL/GUI/lvgl/src/core/lv_obj_scroll.c **** 
 547:Middlewares/LVGL/GUI/lvgl/src/core/lv_obj_scroll.c ****         lv_coord_t sb_w = ((obj_w - left_space - right_space - ver_reg_space) * obj_w) / content_w;
 548:Middlewares/LVGL/GUI/lvgl/src/core/lv_obj_scroll.c ****         sb_w = LV_MAX(sb_w, SCROLLBAR_MIN_SIZE);
 549:Middlewares/LVGL/GUI/lvgl/src/core/lv_obj_scroll.c ****         rem = (obj_w - left_space - right_space - ver_reg_space) -
 550:Middlewares/LVGL/GUI/lvgl/src/core/lv_obj_scroll.c ****               sb_w;  /*Remaining size from the scrollbar track that is not the scrollbar itself*/
 551:Middlewares/LVGL/GUI/lvgl/src/core/lv_obj_scroll.c ****         lv_coord_t scroll_w = content_w - obj_w; /*The size of the content which can be really scro
 552:Middlewares/LVGL/GUI/lvgl/src/core/lv_obj_scroll.c ****         if(scroll_w <= 0) {
 553:Middlewares/LVGL/GUI/lvgl/src/core/lv_obj_scroll.c ****             if(rtl) {
 554:Middlewares/LVGL/GUI/lvgl/src/core/lv_obj_scroll.c ****                 hor_area->x1 = obj->coords.x1 + left_space + ver_reg_space - 1;
 555:Middlewares/LVGL/GUI/lvgl/src/core/lv_obj_scroll.c ****                 hor_area->x2 = obj->coords.x2 - right_space;
 556:Middlewares/LVGL/GUI/lvgl/src/core/lv_obj_scroll.c ****             }
 557:Middlewares/LVGL/GUI/lvgl/src/core/lv_obj_scroll.c ****             else {
 558:Middlewares/LVGL/GUI/lvgl/src/core/lv_obj_scroll.c ****                 hor_area->x1 = obj->coords.x1 + left_space;
 559:Middlewares/LVGL/GUI/lvgl/src/core/lv_obj_scroll.c ****                 hor_area->x2 = obj->coords.x2 - right_space - ver_reg_space - 1;
 560:Middlewares/LVGL/GUI/lvgl/src/core/lv_obj_scroll.c ****             }
 561:Middlewares/LVGL/GUI/lvgl/src/core/lv_obj_scroll.c ****         }
 562:Middlewares/LVGL/GUI/lvgl/src/core/lv_obj_scroll.c ****         else {
 563:Middlewares/LVGL/GUI/lvgl/src/core/lv_obj_scroll.c ****             lv_coord_t sb_x = (rem * sr) / scroll_w;
 564:Middlewares/LVGL/GUI/lvgl/src/core/lv_obj_scroll.c ****             sb_x = rem - sb_x;
 565:Middlewares/LVGL/GUI/lvgl/src/core/lv_obj_scroll.c **** 
 566:Middlewares/LVGL/GUI/lvgl/src/core/lv_obj_scroll.c ****             if(rtl) {
 567:Middlewares/LVGL/GUI/lvgl/src/core/lv_obj_scroll.c ****                 hor_area->x1 = obj->coords.x1 + sb_x + left_space + ver_reg_space;
 568:Middlewares/LVGL/GUI/lvgl/src/core/lv_obj_scroll.c ****                 hor_area->x2 = hor_area->x1 + sb_w - 1;
 569:Middlewares/LVGL/GUI/lvgl/src/core/lv_obj_scroll.c ****                 if(hor_area->x1 < obj->coords.x1 + left_space + ver_reg_space) {
 570:Middlewares/LVGL/GUI/lvgl/src/core/lv_obj_scroll.c ****                     hor_area->x1 = obj->coords.x1 + left_space + ver_reg_space;
 571:Middlewares/LVGL/GUI/lvgl/src/core/lv_obj_scroll.c ****                     if(hor_area->x1 + SCROLLBAR_MIN_SIZE > hor_area->x2) {
 572:Middlewares/LVGL/GUI/lvgl/src/core/lv_obj_scroll.c ****                         hor_area->x2 = hor_area->x1 + SCROLLBAR_MIN_SIZE;
 573:Middlewares/LVGL/GUI/lvgl/src/core/lv_obj_scroll.c ****                     }
 574:Middlewares/LVGL/GUI/lvgl/src/core/lv_obj_scroll.c ****                 }
 575:Middlewares/LVGL/GUI/lvgl/src/core/lv_obj_scroll.c ****                 if(hor_area->x2 > obj->coords.x2 - right_space) {
 576:Middlewares/LVGL/GUI/lvgl/src/core/lv_obj_scroll.c ****                     hor_area->x2 = obj->coords.x2 - right_space;
 577:Middlewares/LVGL/GUI/lvgl/src/core/lv_obj_scroll.c ****                     if(hor_area->x2 - SCROLLBAR_MIN_SIZE < hor_area->x1) {
 578:Middlewares/LVGL/GUI/lvgl/src/core/lv_obj_scroll.c ****                         hor_area->x1 = hor_area->x2 - SCROLLBAR_MIN_SIZE;
 579:Middlewares/LVGL/GUI/lvgl/src/core/lv_obj_scroll.c ****                     }
 580:Middlewares/LVGL/GUI/lvgl/src/core/lv_obj_scroll.c ****                 }
 581:Middlewares/LVGL/GUI/lvgl/src/core/lv_obj_scroll.c ****             }
 582:Middlewares/LVGL/GUI/lvgl/src/core/lv_obj_scroll.c ****             else {
 583:Middlewares/LVGL/GUI/lvgl/src/core/lv_obj_scroll.c ****                 hor_area->x1 = obj->coords.x1 + sb_x + left_space;
 584:Middlewares/LVGL/GUI/lvgl/src/core/lv_obj_scroll.c ****                 hor_area->x2 = hor_area->x1 + sb_w - 1;
 585:Middlewares/LVGL/GUI/lvgl/src/core/lv_obj_scroll.c ****                 if(hor_area->x1 < obj->coords.x1 + left_space) {
 586:Middlewares/LVGL/GUI/lvgl/src/core/lv_obj_scroll.c ****                     hor_area->x1 = obj->coords.x1 + left_space;
 587:Middlewares/LVGL/GUI/lvgl/src/core/lv_obj_scroll.c ****                     if(hor_area->x1 + SCROLLBAR_MIN_SIZE > hor_area->x2) {
 588:Middlewares/LVGL/GUI/lvgl/src/core/lv_obj_scroll.c ****                         hor_area->x2 = hor_area->x1 + SCROLLBAR_MIN_SIZE;
 589:Middlewares/LVGL/GUI/lvgl/src/core/lv_obj_scroll.c ****                     }
 590:Middlewares/LVGL/GUI/lvgl/src/core/lv_obj_scroll.c ****                 }
 591:Middlewares/LVGL/GUI/lvgl/src/core/lv_obj_scroll.c ****                 if(hor_area->x2 > obj->coords.x2 - ver_reg_space - right_space) {
 592:Middlewares/LVGL/GUI/lvgl/src/core/lv_obj_scroll.c ****                     hor_area->x2 = obj->coords.x2 - ver_reg_space - right_space;
 593:Middlewares/LVGL/GUI/lvgl/src/core/lv_obj_scroll.c ****                     if(hor_area->x2 - SCROLLBAR_MIN_SIZE < hor_area->x1) {
 594:Middlewares/LVGL/GUI/lvgl/src/core/lv_obj_scroll.c ****                         hor_area->x1 = hor_area->x2 - SCROLLBAR_MIN_SIZE;
 595:Middlewares/LVGL/GUI/lvgl/src/core/lv_obj_scroll.c ****                     }
 596:Middlewares/LVGL/GUI/lvgl/src/core/lv_obj_scroll.c ****                 }
 597:Middlewares/LVGL/GUI/lvgl/src/core/lv_obj_scroll.c ****             }
 598:Middlewares/LVGL/GUI/lvgl/src/core/lv_obj_scroll.c ****         }
 599:Middlewares/LVGL/GUI/lvgl/src/core/lv_obj_scroll.c ****     }
 600:Middlewares/LVGL/GUI/lvgl/src/core/lv_obj_scroll.c **** }
ARM GAS  C:\Users\ADMINI~1\AppData\Local\Temp\cchMZgMB.s 			page 12


 601:Middlewares/LVGL/GUI/lvgl/src/core/lv_obj_scroll.c **** 
 602:Middlewares/LVGL/GUI/lvgl/src/core/lv_obj_scroll.c **** void lv_obj_scrollbar_invalidate(lv_obj_t * obj)
 603:Middlewares/LVGL/GUI/lvgl/src/core/lv_obj_scroll.c **** {
 604:Middlewares/LVGL/GUI/lvgl/src/core/lv_obj_scroll.c ****     lv_area_t hor_area;
 605:Middlewares/LVGL/GUI/lvgl/src/core/lv_obj_scroll.c ****     lv_area_t ver_area;
 606:Middlewares/LVGL/GUI/lvgl/src/core/lv_obj_scroll.c ****     lv_obj_get_scrollbar_area(obj, &hor_area, &ver_area);
 607:Middlewares/LVGL/GUI/lvgl/src/core/lv_obj_scroll.c **** 
 608:Middlewares/LVGL/GUI/lvgl/src/core/lv_obj_scroll.c ****     if(lv_area_get_size(&hor_area) <= 0 && lv_area_get_size(&ver_area) <= 0) return;
 609:Middlewares/LVGL/GUI/lvgl/src/core/lv_obj_scroll.c **** 
 610:Middlewares/LVGL/GUI/lvgl/src/core/lv_obj_scroll.c ****     if(lv_area_get_size(&hor_area) > 0) lv_obj_invalidate_area(obj, &hor_area);
 611:Middlewares/LVGL/GUI/lvgl/src/core/lv_obj_scroll.c ****     if(lv_area_get_size(&ver_area) > 0) lv_obj_invalidate_area(obj, &ver_area);
 612:Middlewares/LVGL/GUI/lvgl/src/core/lv_obj_scroll.c **** }
 613:Middlewares/LVGL/GUI/lvgl/src/core/lv_obj_scroll.c **** 
 614:Middlewares/LVGL/GUI/lvgl/src/core/lv_obj_scroll.c **** void lv_obj_readjust_scroll(lv_obj_t * obj, lv_anim_enable_t anim_en)
 615:Middlewares/LVGL/GUI/lvgl/src/core/lv_obj_scroll.c **** {
 616:Middlewares/LVGL/GUI/lvgl/src/core/lv_obj_scroll.c ****     /*Be sure the bottom side is not remains scrolled in*/
 617:Middlewares/LVGL/GUI/lvgl/src/core/lv_obj_scroll.c ****     /*With snapping the content can't be scrolled in*/
 618:Middlewares/LVGL/GUI/lvgl/src/core/lv_obj_scroll.c ****     if(lv_obj_get_scroll_snap_y(obj) == LV_SCROLL_SNAP_NONE) {
 619:Middlewares/LVGL/GUI/lvgl/src/core/lv_obj_scroll.c ****         lv_coord_t st = lv_obj_get_scroll_top(obj);
 620:Middlewares/LVGL/GUI/lvgl/src/core/lv_obj_scroll.c ****         lv_coord_t sb = lv_obj_get_scroll_bottom(obj);
 621:Middlewares/LVGL/GUI/lvgl/src/core/lv_obj_scroll.c ****         if(sb < 0 && st > 0) {
 622:Middlewares/LVGL/GUI/lvgl/src/core/lv_obj_scroll.c ****             sb = LV_MIN(st, -sb);
 623:Middlewares/LVGL/GUI/lvgl/src/core/lv_obj_scroll.c ****             lv_obj_scroll_by(obj, 0, sb, anim_en);
 624:Middlewares/LVGL/GUI/lvgl/src/core/lv_obj_scroll.c ****         }
 625:Middlewares/LVGL/GUI/lvgl/src/core/lv_obj_scroll.c ****     }
 626:Middlewares/LVGL/GUI/lvgl/src/core/lv_obj_scroll.c **** 
 627:Middlewares/LVGL/GUI/lvgl/src/core/lv_obj_scroll.c ****     if(lv_obj_get_scroll_snap_x(obj) == LV_SCROLL_SNAP_NONE) {
 628:Middlewares/LVGL/GUI/lvgl/src/core/lv_obj_scroll.c ****         lv_coord_t sl = lv_obj_get_scroll_left(obj);
 629:Middlewares/LVGL/GUI/lvgl/src/core/lv_obj_scroll.c ****         lv_coord_t sr = lv_obj_get_scroll_right(obj);
 630:Middlewares/LVGL/GUI/lvgl/src/core/lv_obj_scroll.c ****         if(lv_obj_get_style_base_dir(obj, LV_PART_MAIN) != LV_BASE_DIR_RTL) {
 631:Middlewares/LVGL/GUI/lvgl/src/core/lv_obj_scroll.c ****             /*Be sure the left side is not remains scrolled in*/
 632:Middlewares/LVGL/GUI/lvgl/src/core/lv_obj_scroll.c ****             if(sr < 0 && sl > 0) {
 633:Middlewares/LVGL/GUI/lvgl/src/core/lv_obj_scroll.c ****                 sr = LV_MIN(sl, -sr);
 634:Middlewares/LVGL/GUI/lvgl/src/core/lv_obj_scroll.c ****                 lv_obj_scroll_by(obj, sr, 0, anim_en);
 635:Middlewares/LVGL/GUI/lvgl/src/core/lv_obj_scroll.c ****             }
 636:Middlewares/LVGL/GUI/lvgl/src/core/lv_obj_scroll.c ****         }
 637:Middlewares/LVGL/GUI/lvgl/src/core/lv_obj_scroll.c ****         else {
 638:Middlewares/LVGL/GUI/lvgl/src/core/lv_obj_scroll.c ****             /*Be sure the right side is not remains scrolled in*/
 639:Middlewares/LVGL/GUI/lvgl/src/core/lv_obj_scroll.c ****             if(sl < 0 && sr > 0) {
 640:Middlewares/LVGL/GUI/lvgl/src/core/lv_obj_scroll.c ****                 sr = LV_MIN(sr, -sl);
 641:Middlewares/LVGL/GUI/lvgl/src/core/lv_obj_scroll.c ****                 lv_obj_scroll_by(obj, sl, 0, anim_en);
 642:Middlewares/LVGL/GUI/lvgl/src/core/lv_obj_scroll.c ****             }
 643:Middlewares/LVGL/GUI/lvgl/src/core/lv_obj_scroll.c ****         }
 644:Middlewares/LVGL/GUI/lvgl/src/core/lv_obj_scroll.c ****     }
 645:Middlewares/LVGL/GUI/lvgl/src/core/lv_obj_scroll.c **** }
 646:Middlewares/LVGL/GUI/lvgl/src/core/lv_obj_scroll.c **** 
 647:Middlewares/LVGL/GUI/lvgl/src/core/lv_obj_scroll.c **** /**********************
 648:Middlewares/LVGL/GUI/lvgl/src/core/lv_obj_scroll.c ****  *   STATIC FUNCTIONS
 649:Middlewares/LVGL/GUI/lvgl/src/core/lv_obj_scroll.c ****  **********************/
 650:Middlewares/LVGL/GUI/lvgl/src/core/lv_obj_scroll.c **** 
 651:Middlewares/LVGL/GUI/lvgl/src/core/lv_obj_scroll.c **** static void scroll_by_raw(lv_obj_t * obj, lv_coord_t x, lv_coord_t y)
 652:Middlewares/LVGL/GUI/lvgl/src/core/lv_obj_scroll.c **** {
  29              		.loc 1 652 1 view -0
  30              		.cfi_startproc
  31              		@ args = 0, pretend = 0, frame = 0
  32              		@ frame_needed = 0, uses_anonymous_args = 0
  33              		.loc 1 652 1 is_stmt 0 view .LVU1
ARM GAS  C:\Users\ADMINI~1\AppData\Local\Temp\cchMZgMB.s 			page 13


  34 0000 70B5     		push	{r4, r5, r6, lr}
  35              	.LCFI0:
  36              		.cfi_def_cfa_offset 16
  37              		.cfi_offset 4, -16
  38              		.cfi_offset 5, -12
  39              		.cfi_offset 6, -8
  40              		.cfi_offset 14, -4
  41 0002 0446     		mov	r4, r0
  42 0004 1546     		mov	r5, r2
 653:Middlewares/LVGL/GUI/lvgl/src/core/lv_obj_scroll.c ****     if(x == 0 && y == 0) return;
  43              		.loc 1 653 5 is_stmt 1 view .LVU2
  44              		.loc 1 653 7 is_stmt 0 view .LVU3
  45 0006 0E46     		mov	r6, r1
  46 0008 01B9     		cbnz	r1, .L2
  47              		.loc 1 653 15 discriminator 1 view .LVU4
  48 000a BAB1     		cbz	r2, .L1
  49              	.L2:
 654:Middlewares/LVGL/GUI/lvgl/src/core/lv_obj_scroll.c **** 
 655:Middlewares/LVGL/GUI/lvgl/src/core/lv_obj_scroll.c ****     lv_obj_allocate_spec_attr(obj);
  50              		.loc 1 655 5 is_stmt 1 view .LVU5
  51 000c 2046     		mov	r0, r4
  52              	.LVL1:
  53              		.loc 1 655 5 is_stmt 0 view .LVU6
  54 000e FFF7FEFF 		bl	lv_obj_allocate_spec_attr
  55              	.LVL2:
 656:Middlewares/LVGL/GUI/lvgl/src/core/lv_obj_scroll.c **** 
 657:Middlewares/LVGL/GUI/lvgl/src/core/lv_obj_scroll.c ****     obj->spec_attr->scroll.x += x;
  56              		.loc 1 657 5 is_stmt 1 view .LVU7
  57              		.loc 1 657 8 is_stmt 0 view .LVU8
  58 0012 A268     		ldr	r2, [r4, #8]
  59              		.loc 1 657 30 view .LVU9
  60 0014 1369     		ldr	r3, [r2, #16]
  61 0016 3344     		add	r3, r3, r6
  62 0018 1361     		str	r3, [r2, #16]
 658:Middlewares/LVGL/GUI/lvgl/src/core/lv_obj_scroll.c ****     obj->spec_attr->scroll.y += y;
  63              		.loc 1 658 5 is_stmt 1 view .LVU10
  64              		.loc 1 658 8 is_stmt 0 view .LVU11
  65 001a A268     		ldr	r2, [r4, #8]
  66              		.loc 1 658 30 view .LVU12
  67 001c 5369     		ldr	r3, [r2, #20]
  68 001e 2B44     		add	r3, r3, r5
  69 0020 5361     		str	r3, [r2, #20]
 659:Middlewares/LVGL/GUI/lvgl/src/core/lv_obj_scroll.c **** 
 660:Middlewares/LVGL/GUI/lvgl/src/core/lv_obj_scroll.c ****     lv_obj_move_children_by(obj, x, y, true);
  70              		.loc 1 660 5 is_stmt 1 view .LVU13
  71 0022 0123     		movs	r3, #1
  72 0024 2A46     		mov	r2, r5
  73 0026 3146     		mov	r1, r6
  74 0028 2046     		mov	r0, r4
  75 002a FFF7FEFF 		bl	lv_obj_move_children_by
  76              	.LVL3:
 661:Middlewares/LVGL/GUI/lvgl/src/core/lv_obj_scroll.c ****     lv_res_t res = lv_event_send(obj, LV_EVENT_SCROLL, NULL);
  77              		.loc 1 661 5 view .LVU14
  78              		.loc 1 661 20 is_stmt 0 view .LVU15
  79 002e 0022     		movs	r2, #0
  80 0030 0B21     		movs	r1, #11
  81 0032 2046     		mov	r0, r4
ARM GAS  C:\Users\ADMINI~1\AppData\Local\Temp\cchMZgMB.s 			page 14


  82 0034 FFF7FEFF 		bl	lv_event_send
  83              	.LVL4:
 662:Middlewares/LVGL/GUI/lvgl/src/core/lv_obj_scroll.c ****     if(res != LV_RES_OK) return;
  84              		.loc 1 662 5 is_stmt 1 view .LVU16
  85              		.loc 1 662 7 is_stmt 0 view .LVU17
  86 0038 0128     		cmp	r0, #1
  87 003a 00D0     		beq	.L5
  88              	.LVL5:
  89              	.L1:
 663:Middlewares/LVGL/GUI/lvgl/src/core/lv_obj_scroll.c ****     lv_obj_invalidate(obj);
 664:Middlewares/LVGL/GUI/lvgl/src/core/lv_obj_scroll.c **** }
  90              		.loc 1 664 1 view .LVU18
  91 003c 70BD     		pop	{r4, r5, r6, pc}
  92              	.LVL6:
  93              	.L5:
 663:Middlewares/LVGL/GUI/lvgl/src/core/lv_obj_scroll.c ****     lv_obj_invalidate(obj);
  94              		.loc 1 663 5 is_stmt 1 view .LVU19
  95 003e 2046     		mov	r0, r4
  96              	.LVL7:
 663:Middlewares/LVGL/GUI/lvgl/src/core/lv_obj_scroll.c ****     lv_obj_invalidate(obj);
  97              		.loc 1 663 5 is_stmt 0 view .LVU20
  98 0040 FFF7FEFF 		bl	lv_obj_invalidate
  99              	.LVL8:
 100 0044 FAE7     		b	.L1
 101              		.cfi_endproc
 102              	.LFE186:
 104              		.section	.text.scroll_anim_ready_cb,"ax",%progbits
 105              		.align	1
 106              		.syntax unified
 107              		.thumb
 108              		.thumb_func
 110              	scroll_anim_ready_cb:
 111              	.LVL9:
 112              	.LFB189:
 665:Middlewares/LVGL/GUI/lvgl/src/core/lv_obj_scroll.c **** 
 666:Middlewares/LVGL/GUI/lvgl/src/core/lv_obj_scroll.c **** static void scroll_x_anim(void * obj, int32_t v)
 667:Middlewares/LVGL/GUI/lvgl/src/core/lv_obj_scroll.c **** {
 668:Middlewares/LVGL/GUI/lvgl/src/core/lv_obj_scroll.c ****     scroll_by_raw(obj, v + lv_obj_get_scroll_x(obj), 0);
 669:Middlewares/LVGL/GUI/lvgl/src/core/lv_obj_scroll.c **** }
 670:Middlewares/LVGL/GUI/lvgl/src/core/lv_obj_scroll.c **** 
 671:Middlewares/LVGL/GUI/lvgl/src/core/lv_obj_scroll.c **** static void scroll_y_anim(void * obj, int32_t v)
 672:Middlewares/LVGL/GUI/lvgl/src/core/lv_obj_scroll.c **** {
 673:Middlewares/LVGL/GUI/lvgl/src/core/lv_obj_scroll.c ****     scroll_by_raw(obj, 0, v + lv_obj_get_scroll_y(obj));
 674:Middlewares/LVGL/GUI/lvgl/src/core/lv_obj_scroll.c **** }
 675:Middlewares/LVGL/GUI/lvgl/src/core/lv_obj_scroll.c **** 
 676:Middlewares/LVGL/GUI/lvgl/src/core/lv_obj_scroll.c **** static void scroll_anim_ready_cb(lv_anim_t * a)
 677:Middlewares/LVGL/GUI/lvgl/src/core/lv_obj_scroll.c **** {
 113              		.loc 1 677 1 is_stmt 1 view -0
 114              		.cfi_startproc
 115              		@ args = 0, pretend = 0, frame = 0
 116              		@ frame_needed = 0, uses_anonymous_args = 0
 117              		.loc 1 677 1 is_stmt 0 view .LVU22
 118 0000 08B5     		push	{r3, lr}
 119              	.LCFI1:
 120              		.cfi_def_cfa_offset 8
 121              		.cfi_offset 3, -8
 122              		.cfi_offset 14, -4
ARM GAS  C:\Users\ADMINI~1\AppData\Local\Temp\cchMZgMB.s 			page 15


 678:Middlewares/LVGL/GUI/lvgl/src/core/lv_obj_scroll.c ****     lv_event_send(a->var, LV_EVENT_SCROLL_END, NULL);
 123              		.loc 1 678 5 is_stmt 1 view .LVU23
 124 0002 0022     		movs	r2, #0
 125 0004 0A21     		movs	r1, #10
 126 0006 0068     		ldr	r0, [r0]
 127              	.LVL10:
 128              		.loc 1 678 5 is_stmt 0 view .LVU24
 129 0008 FFF7FEFF 		bl	lv_event_send
 130              	.LVL11:
 679:Middlewares/LVGL/GUI/lvgl/src/core/lv_obj_scroll.c **** }
 131              		.loc 1 679 1 view .LVU25
 132 000c 08BD     		pop	{r3, pc}
 133              		.cfi_endproc
 134              	.LFE189:
 136              		.section	.text.lv_obj_set_scrollbar_mode,"ax",%progbits
 137              		.align	1
 138              		.global	lv_obj_set_scrollbar_mode
 139              		.syntax unified
 140              		.thumb
 141              		.thumb_func
 143              	lv_obj_set_scrollbar_mode:
 144              	.LVL12:
 145              	.LFB159:
  58:Middlewares/LVGL/GUI/lvgl/src/core/lv_obj_scroll.c ****     LV_ASSERT_OBJ(obj, MY_CLASS);
 146              		.loc 1 58 1 is_stmt 1 view -0
 147              		.cfi_startproc
 148              		@ args = 0, pretend = 0, frame = 0
 149              		@ frame_needed = 0, uses_anonymous_args = 0
  58:Middlewares/LVGL/GUI/lvgl/src/core/lv_obj_scroll.c ****     LV_ASSERT_OBJ(obj, MY_CLASS);
 150              		.loc 1 58 1 is_stmt 0 view .LVU27
 151 0000 38B5     		push	{r3, r4, r5, lr}
 152              	.LCFI2:
 153              		.cfi_def_cfa_offset 16
 154              		.cfi_offset 3, -16
 155              		.cfi_offset 4, -12
 156              		.cfi_offset 5, -8
 157              		.cfi_offset 14, -4
 158 0002 0446     		mov	r4, r0
 159 0004 0D46     		mov	r5, r1
  59:Middlewares/LVGL/GUI/lvgl/src/core/lv_obj_scroll.c **** 
 160              		.loc 1 59 5 is_stmt 1 view .LVU28
  59:Middlewares/LVGL/GUI/lvgl/src/core/lv_obj_scroll.c **** 
 161              		.loc 1 59 5 view .LVU29
  59:Middlewares/LVGL/GUI/lvgl/src/core/lv_obj_scroll.c **** 
 162              		.loc 1 59 5 view .LVU30
  61:Middlewares/LVGL/GUI/lvgl/src/core/lv_obj_scroll.c **** 
 163              		.loc 1 61 5 view .LVU31
 164 0006 FFF7FEFF 		bl	lv_obj_allocate_spec_attr
 165              	.LVL13:
  63:Middlewares/LVGL/GUI/lvgl/src/core/lv_obj_scroll.c ****     obj->spec_attr->scrollbar_mode = mode;
 166              		.loc 1 63 5 view .LVU32
  63:Middlewares/LVGL/GUI/lvgl/src/core/lv_obj_scroll.c ****     obj->spec_attr->scrollbar_mode = mode;
 167              		.loc 1 63 11 is_stmt 0 view .LVU33
 168 000a A268     		ldr	r2, [r4, #8]
  63:Middlewares/LVGL/GUI/lvgl/src/core/lv_obj_scroll.c ****     obj->spec_attr->scrollbar_mode = mode;
 169              		.loc 1 63 22 view .LVU34
 170 000c 92F82030 		ldrb	r3, [r2, #32]	@ zero_extendqisi2
ARM GAS  C:\Users\ADMINI~1\AppData\Local\Temp\cchMZgMB.s 			page 16


 171 0010 03F00303 		and	r3, r3, #3
  63:Middlewares/LVGL/GUI/lvgl/src/core/lv_obj_scroll.c ****     obj->spec_attr->scrollbar_mode = mode;
 172              		.loc 1 63 7 view .LVU35
 173 0014 AB42     		cmp	r3, r5
 174 0016 08D0     		beq	.L8
  64:Middlewares/LVGL/GUI/lvgl/src/core/lv_obj_scroll.c ****     lv_obj_invalidate(obj);
 175              		.loc 1 64 5 is_stmt 1 view .LVU36
  64:Middlewares/LVGL/GUI/lvgl/src/core/lv_obj_scroll.c ****     lv_obj_invalidate(obj);
 176              		.loc 1 64 36 is_stmt 0 view .LVU37
 177 0018 92F82030 		ldrb	r3, [r2, #32]	@ zero_extendqisi2
 178 001c 65F30103 		bfi	r3, r5, #0, #2
 179 0020 82F82030 		strb	r3, [r2, #32]
  65:Middlewares/LVGL/GUI/lvgl/src/core/lv_obj_scroll.c **** }
 180              		.loc 1 65 5 is_stmt 1 view .LVU38
 181 0024 2046     		mov	r0, r4
 182 0026 FFF7FEFF 		bl	lv_obj_invalidate
 183              	.LVL14:
 184              	.L8:
  66:Middlewares/LVGL/GUI/lvgl/src/core/lv_obj_scroll.c **** 
 185              		.loc 1 66 1 is_stmt 0 view .LVU39
 186 002a 38BD     		pop	{r3, r4, r5, pc}
  66:Middlewares/LVGL/GUI/lvgl/src/core/lv_obj_scroll.c **** 
 187              		.loc 1 66 1 view .LVU40
 188              		.cfi_endproc
 189              	.LFE159:
 191              		.section	.text.lv_obj_set_scroll_dir,"ax",%progbits
 192              		.align	1
 193              		.global	lv_obj_set_scroll_dir
 194              		.syntax unified
 195              		.thumb
 196              		.thumb_func
 198              	lv_obj_set_scroll_dir:
 199              	.LVL15:
 200              	.LFB160:
  69:Middlewares/LVGL/GUI/lvgl/src/core/lv_obj_scroll.c ****     lv_obj_allocate_spec_attr(obj);
 201              		.loc 1 69 1 is_stmt 1 view -0
 202              		.cfi_startproc
 203              		@ args = 0, pretend = 0, frame = 0
 204              		@ frame_needed = 0, uses_anonymous_args = 0
  69:Middlewares/LVGL/GUI/lvgl/src/core/lv_obj_scroll.c ****     lv_obj_allocate_spec_attr(obj);
 205              		.loc 1 69 1 is_stmt 0 view .LVU42
 206 0000 38B5     		push	{r3, r4, r5, lr}
 207              	.LCFI3:
 208              		.cfi_def_cfa_offset 16
 209              		.cfi_offset 3, -16
 210              		.cfi_offset 4, -12
 211              		.cfi_offset 5, -8
 212              		.cfi_offset 14, -4
 213 0002 0546     		mov	r5, r0
 214 0004 0C46     		mov	r4, r1
  70:Middlewares/LVGL/GUI/lvgl/src/core/lv_obj_scroll.c **** 
 215              		.loc 1 70 5 is_stmt 1 view .LVU43
 216 0006 FFF7FEFF 		bl	lv_obj_allocate_spec_attr
 217              	.LVL16:
  72:Middlewares/LVGL/GUI/lvgl/src/core/lv_obj_scroll.c ****         obj->spec_attr->scroll_dir = dir;
 218              		.loc 1 72 5 view .LVU44
  72:Middlewares/LVGL/GUI/lvgl/src/core/lv_obj_scroll.c ****         obj->spec_attr->scroll_dir = dir;
ARM GAS  C:\Users\ADMINI~1\AppData\Local\Temp\cchMZgMB.s 			page 17


 219              		.loc 1 72 18 is_stmt 0 view .LVU45
 220 000a AA68     		ldr	r2, [r5, #8]
  72:Middlewares/LVGL/GUI/lvgl/src/core/lv_obj_scroll.c ****         obj->spec_attr->scroll_dir = dir;
 221              		.loc 1 72 29 view .LVU46
 222 000c 92F82130 		ldrb	r3, [r2, #33]	@ zero_extendqisi2
 223 0010 03F00F03 		and	r3, r3, #15
  72:Middlewares/LVGL/GUI/lvgl/src/core/lv_obj_scroll.c ****         obj->spec_attr->scroll_dir = dir;
 224              		.loc 1 72 7 view .LVU47
 225 0014 A342     		cmp	r3, r4
 226 0016 05D0     		beq	.L11
  73:Middlewares/LVGL/GUI/lvgl/src/core/lv_obj_scroll.c ****     }
 227              		.loc 1 73 9 is_stmt 1 view .LVU48
  73:Middlewares/LVGL/GUI/lvgl/src/core/lv_obj_scroll.c ****     }
 228              		.loc 1 73 36 is_stmt 0 view .LVU49
 229 0018 92F82130 		ldrb	r3, [r2, #33]	@ zero_extendqisi2
 230 001c 64F30303 		bfi	r3, r4, #0, #4
 231              	.LVL17:
  73:Middlewares/LVGL/GUI/lvgl/src/core/lv_obj_scroll.c ****     }
 232              		.loc 1 73 36 view .LVU50
 233 0020 82F82130 		strb	r3, [r2, #33]
 234              	.L11:
  75:Middlewares/LVGL/GUI/lvgl/src/core/lv_obj_scroll.c **** 
 235              		.loc 1 75 1 view .LVU51
 236 0024 38BD     		pop	{r3, r4, r5, pc}
  75:Middlewares/LVGL/GUI/lvgl/src/core/lv_obj_scroll.c **** 
 237              		.loc 1 75 1 view .LVU52
 238              		.cfi_endproc
 239              	.LFE160:
 241              		.section	.text.lv_obj_set_scroll_snap_x,"ax",%progbits
 242              		.align	1
 243              		.global	lv_obj_set_scroll_snap_x
 244              		.syntax unified
 245              		.thumb
 246              		.thumb_func
 248              	lv_obj_set_scroll_snap_x:
 249              	.LVL18:
 250              	.LFB161:
  78:Middlewares/LVGL/GUI/lvgl/src/core/lv_obj_scroll.c ****     lv_obj_allocate_spec_attr(obj);
 251              		.loc 1 78 1 is_stmt 1 view -0
 252              		.cfi_startproc
 253              		@ args = 0, pretend = 0, frame = 0
 254              		@ frame_needed = 0, uses_anonymous_args = 0
  78:Middlewares/LVGL/GUI/lvgl/src/core/lv_obj_scroll.c ****     lv_obj_allocate_spec_attr(obj);
 255              		.loc 1 78 1 is_stmt 0 view .LVU54
 256 0000 38B5     		push	{r3, r4, r5, lr}
 257              	.LCFI4:
 258              		.cfi_def_cfa_offset 16
 259              		.cfi_offset 3, -16
 260              		.cfi_offset 4, -12
 261              		.cfi_offset 5, -8
 262              		.cfi_offset 14, -4
 263 0002 0546     		mov	r5, r0
 264 0004 0C46     		mov	r4, r1
  79:Middlewares/LVGL/GUI/lvgl/src/core/lv_obj_scroll.c ****     obj->spec_attr->scroll_snap_x = align;
 265              		.loc 1 79 5 is_stmt 1 view .LVU55
 266 0006 FFF7FEFF 		bl	lv_obj_allocate_spec_attr
 267              	.LVL19:
ARM GAS  C:\Users\ADMINI~1\AppData\Local\Temp\cchMZgMB.s 			page 18


  80:Middlewares/LVGL/GUI/lvgl/src/core/lv_obj_scroll.c **** }
 268              		.loc 1 80 5 view .LVU56
  80:Middlewares/LVGL/GUI/lvgl/src/core/lv_obj_scroll.c **** }
 269              		.loc 1 80 8 is_stmt 0 view .LVU57
 270 000a AB68     		ldr	r3, [r5, #8]
  80:Middlewares/LVGL/GUI/lvgl/src/core/lv_obj_scroll.c **** }
 271              		.loc 1 80 35 view .LVU58
 272 000c 93F82020 		ldrb	r2, [r3, #32]	@ zero_extendqisi2
 273 0010 64F38302 		bfi	r2, r4, #2, #2
 274 0014 83F82020 		strb	r2, [r3, #32]
  81:Middlewares/LVGL/GUI/lvgl/src/core/lv_obj_scroll.c **** 
 275              		.loc 1 81 1 view .LVU59
 276 0018 38BD     		pop	{r3, r4, r5, pc}
  81:Middlewares/LVGL/GUI/lvgl/src/core/lv_obj_scroll.c **** 
 277              		.loc 1 81 1 view .LVU60
 278              		.cfi_endproc
 279              	.LFE161:
 281              		.section	.text.lv_obj_set_scroll_snap_y,"ax",%progbits
 282              		.align	1
 283              		.global	lv_obj_set_scroll_snap_y
 284              		.syntax unified
 285              		.thumb
 286              		.thumb_func
 288              	lv_obj_set_scroll_snap_y:
 289              	.LVL20:
 290              	.LFB162:
  84:Middlewares/LVGL/GUI/lvgl/src/core/lv_obj_scroll.c ****     lv_obj_allocate_spec_attr(obj);
 291              		.loc 1 84 1 is_stmt 1 view -0
 292              		.cfi_startproc
 293              		@ args = 0, pretend = 0, frame = 0
 294              		@ frame_needed = 0, uses_anonymous_args = 0
  84:Middlewares/LVGL/GUI/lvgl/src/core/lv_obj_scroll.c ****     lv_obj_allocate_spec_attr(obj);
 295              		.loc 1 84 1 is_stmt 0 view .LVU62
 296 0000 38B5     		push	{r3, r4, r5, lr}
 297              	.LCFI5:
 298              		.cfi_def_cfa_offset 16
 299              		.cfi_offset 3, -16
 300              		.cfi_offset 4, -12
 301              		.cfi_offset 5, -8
 302              		.cfi_offset 14, -4
 303 0002 0546     		mov	r5, r0
 304 0004 0C46     		mov	r4, r1
  85:Middlewares/LVGL/GUI/lvgl/src/core/lv_obj_scroll.c ****     obj->spec_attr->scroll_snap_y = align;
 305              		.loc 1 85 5 is_stmt 1 view .LVU63
 306 0006 FFF7FEFF 		bl	lv_obj_allocate_spec_attr
 307              	.LVL21:
  86:Middlewares/LVGL/GUI/lvgl/src/core/lv_obj_scroll.c **** }
 308              		.loc 1 86 5 view .LVU64
  86:Middlewares/LVGL/GUI/lvgl/src/core/lv_obj_scroll.c **** }
 309              		.loc 1 86 8 is_stmt 0 view .LVU65
 310 000a AB68     		ldr	r3, [r5, #8]
  86:Middlewares/LVGL/GUI/lvgl/src/core/lv_obj_scroll.c **** }
 311              		.loc 1 86 35 view .LVU66
 312 000c 93F82020 		ldrb	r2, [r3, #32]	@ zero_extendqisi2
 313 0010 64F30512 		bfi	r2, r4, #4, #2
 314 0014 83F82020 		strb	r2, [r3, #32]
  87:Middlewares/LVGL/GUI/lvgl/src/core/lv_obj_scroll.c **** 
ARM GAS  C:\Users\ADMINI~1\AppData\Local\Temp\cchMZgMB.s 			page 19


 315              		.loc 1 87 1 view .LVU67
 316 0018 38BD     		pop	{r3, r4, r5, pc}
  87:Middlewares/LVGL/GUI/lvgl/src/core/lv_obj_scroll.c **** 
 317              		.loc 1 87 1 view .LVU68
 318              		.cfi_endproc
 319              	.LFE162:
 321              		.section	.text.lv_obj_get_scrollbar_mode,"ax",%progbits
 322              		.align	1
 323              		.global	lv_obj_get_scrollbar_mode
 324              		.syntax unified
 325              		.thumb
 326              		.thumb_func
 328              	lv_obj_get_scrollbar_mode:
 329              	.LVL22:
 330              	.LFB163:
  94:Middlewares/LVGL/GUI/lvgl/src/core/lv_obj_scroll.c ****     if(obj->spec_attr) return obj->spec_attr->scrollbar_mode;
 331              		.loc 1 94 1 is_stmt 1 view -0
 332              		.cfi_startproc
 333              		@ args = 0, pretend = 0, frame = 0
 334              		@ frame_needed = 0, uses_anonymous_args = 0
 335              		@ link register save eliminated.
  95:Middlewares/LVGL/GUI/lvgl/src/core/lv_obj_scroll.c ****     else return LV_SCROLLBAR_MODE_AUTO;
 336              		.loc 1 95 5 view .LVU70
  95:Middlewares/LVGL/GUI/lvgl/src/core/lv_obj_scroll.c ****     else return LV_SCROLLBAR_MODE_AUTO;
 337              		.loc 1 95 11 is_stmt 0 view .LVU71
 338 0000 8368     		ldr	r3, [r0, #8]
  95:Middlewares/LVGL/GUI/lvgl/src/core/lv_obj_scroll.c ****     else return LV_SCROLLBAR_MODE_AUTO;
 339              		.loc 1 95 7 view .LVU72
 340 0002 23B1     		cbz	r3, .L20
  95:Middlewares/LVGL/GUI/lvgl/src/core/lv_obj_scroll.c ****     else return LV_SCROLLBAR_MODE_AUTO;
 341              		.loc 1 95 24 is_stmt 1 discriminator 1 view .LVU73
  95:Middlewares/LVGL/GUI/lvgl/src/core/lv_obj_scroll.c ****     else return LV_SCROLLBAR_MODE_AUTO;
 342              		.loc 1 95 45 is_stmt 0 discriminator 1 view .LVU74
 343 0004 93F82000 		ldrb	r0, [r3, #32]	@ zero_extendqisi2
 344              	.LVL23:
  95:Middlewares/LVGL/GUI/lvgl/src/core/lv_obj_scroll.c ****     else return LV_SCROLLBAR_MODE_AUTO;
 345              		.loc 1 95 45 discriminator 1 view .LVU75
 346 0008 00F00300 		and	r0, r0, #3
 347 000c 7047     		bx	lr
 348              	.LVL24:
 349              	.L20:
  96:Middlewares/LVGL/GUI/lvgl/src/core/lv_obj_scroll.c **** }
 350              		.loc 1 96 17 view .LVU76
 351 000e 0320     		movs	r0, #3
 352              	.LVL25:
  97:Middlewares/LVGL/GUI/lvgl/src/core/lv_obj_scroll.c **** 
 353              		.loc 1 97 1 view .LVU77
 354 0010 7047     		bx	lr
 355              		.cfi_endproc
 356              	.LFE163:
 358              		.section	.text.lv_obj_get_scroll_dir,"ax",%progbits
 359              		.align	1
 360              		.global	lv_obj_get_scroll_dir
 361              		.syntax unified
 362              		.thumb
 363              		.thumb_func
 365              	lv_obj_get_scroll_dir:
ARM GAS  C:\Users\ADMINI~1\AppData\Local\Temp\cchMZgMB.s 			page 20


 366              	.LVL26:
 367              	.LFB164:
 100:Middlewares/LVGL/GUI/lvgl/src/core/lv_obj_scroll.c ****     if(obj->spec_attr) return obj->spec_attr->scroll_dir;
 368              		.loc 1 100 1 is_stmt 1 view -0
 369              		.cfi_startproc
 370              		@ args = 0, pretend = 0, frame = 0
 371              		@ frame_needed = 0, uses_anonymous_args = 0
 372              		@ link register save eliminated.
 101:Middlewares/LVGL/GUI/lvgl/src/core/lv_obj_scroll.c ****     else return LV_DIR_ALL;
 373              		.loc 1 101 5 view .LVU79
 101:Middlewares/LVGL/GUI/lvgl/src/core/lv_obj_scroll.c ****     else return LV_DIR_ALL;
 374              		.loc 1 101 11 is_stmt 0 view .LVU80
 375 0000 8368     		ldr	r3, [r0, #8]
 101:Middlewares/LVGL/GUI/lvgl/src/core/lv_obj_scroll.c ****     else return LV_DIR_ALL;
 376              		.loc 1 101 7 view .LVU81
 377 0002 23B1     		cbz	r3, .L23
 101:Middlewares/LVGL/GUI/lvgl/src/core/lv_obj_scroll.c ****     else return LV_DIR_ALL;
 378              		.loc 1 101 24 is_stmt 1 discriminator 1 view .LVU82
 101:Middlewares/LVGL/GUI/lvgl/src/core/lv_obj_scroll.c ****     else return LV_DIR_ALL;
 379              		.loc 1 101 45 is_stmt 0 discriminator 1 view .LVU83
 380 0004 93F82100 		ldrb	r0, [r3, #33]	@ zero_extendqisi2
 381              	.LVL27:
 101:Middlewares/LVGL/GUI/lvgl/src/core/lv_obj_scroll.c ****     else return LV_DIR_ALL;
 382              		.loc 1 101 45 discriminator 1 view .LVU84
 383 0008 00F00F00 		and	r0, r0, #15
 384 000c 7047     		bx	lr
 385              	.LVL28:
 386              	.L23:
 102:Middlewares/LVGL/GUI/lvgl/src/core/lv_obj_scroll.c **** }
 387              		.loc 1 102 17 view .LVU85
 388 000e 0F20     		movs	r0, #15
 389              	.LVL29:
 103:Middlewares/LVGL/GUI/lvgl/src/core/lv_obj_scroll.c **** 
 390              		.loc 1 103 1 view .LVU86
 391 0010 7047     		bx	lr
 392              		.cfi_endproc
 393              	.LFE164:
 395              		.section	.text.lv_obj_get_scroll_snap_x,"ax",%progbits
 396              		.align	1
 397              		.global	lv_obj_get_scroll_snap_x
 398              		.syntax unified
 399              		.thumb
 400              		.thumb_func
 402              	lv_obj_get_scroll_snap_x:
 403              	.LVL30:
 404              	.LFB165:
 106:Middlewares/LVGL/GUI/lvgl/src/core/lv_obj_scroll.c ****     if(obj->spec_attr) return obj->spec_attr->scroll_snap_x;
 405              		.loc 1 106 1 is_stmt 1 view -0
 406              		.cfi_startproc
 407              		@ args = 0, pretend = 0, frame = 0
 408              		@ frame_needed = 0, uses_anonymous_args = 0
 409              		@ link register save eliminated.
 107:Middlewares/LVGL/GUI/lvgl/src/core/lv_obj_scroll.c ****     else return LV_SCROLL_SNAP_NONE;
 410              		.loc 1 107 5 view .LVU88
 107:Middlewares/LVGL/GUI/lvgl/src/core/lv_obj_scroll.c ****     else return LV_SCROLL_SNAP_NONE;
 411              		.loc 1 107 11 is_stmt 0 view .LVU89
 412 0000 8368     		ldr	r3, [r0, #8]
ARM GAS  C:\Users\ADMINI~1\AppData\Local\Temp\cchMZgMB.s 			page 21


 107:Middlewares/LVGL/GUI/lvgl/src/core/lv_obj_scroll.c ****     else return LV_SCROLL_SNAP_NONE;
 413              		.loc 1 107 7 view .LVU90
 414 0002 23B1     		cbz	r3, .L26
 107:Middlewares/LVGL/GUI/lvgl/src/core/lv_obj_scroll.c ****     else return LV_SCROLL_SNAP_NONE;
 415              		.loc 1 107 24 is_stmt 1 discriminator 1 view .LVU91
 107:Middlewares/LVGL/GUI/lvgl/src/core/lv_obj_scroll.c ****     else return LV_SCROLL_SNAP_NONE;
 416              		.loc 1 107 45 is_stmt 0 discriminator 1 view .LVU92
 417 0004 93F82000 		ldrb	r0, [r3, #32]	@ zero_extendqisi2
 418              	.LVL31:
 107:Middlewares/LVGL/GUI/lvgl/src/core/lv_obj_scroll.c ****     else return LV_SCROLL_SNAP_NONE;
 419              		.loc 1 107 45 discriminator 1 view .LVU93
 420 0008 C0F38100 		ubfx	r0, r0, #2, #2
 421 000c 7047     		bx	lr
 422              	.LVL32:
 423              	.L26:
 108:Middlewares/LVGL/GUI/lvgl/src/core/lv_obj_scroll.c **** }
 424              		.loc 1 108 17 view .LVU94
 425 000e 0020     		movs	r0, #0
 426              	.LVL33:
 109:Middlewares/LVGL/GUI/lvgl/src/core/lv_obj_scroll.c **** 
 427              		.loc 1 109 1 view .LVU95
 428 0010 7047     		bx	lr
 429              		.cfi_endproc
 430              	.LFE165:
 432              		.section	.text.lv_obj_get_scroll_snap_y,"ax",%progbits
 433              		.align	1
 434              		.global	lv_obj_get_scroll_snap_y
 435              		.syntax unified
 436              		.thumb
 437              		.thumb_func
 439              	lv_obj_get_scroll_snap_y:
 440              	.LVL34:
 441              	.LFB166:
 112:Middlewares/LVGL/GUI/lvgl/src/core/lv_obj_scroll.c ****     if(obj->spec_attr) return obj->spec_attr->scroll_snap_y;
 442              		.loc 1 112 1 is_stmt 1 view -0
 443              		.cfi_startproc
 444              		@ args = 0, pretend = 0, frame = 0
 445              		@ frame_needed = 0, uses_anonymous_args = 0
 446              		@ link register save eliminated.
 113:Middlewares/LVGL/GUI/lvgl/src/core/lv_obj_scroll.c ****     else return LV_SCROLL_SNAP_NONE;
 447              		.loc 1 113 5 view .LVU97
 113:Middlewares/LVGL/GUI/lvgl/src/core/lv_obj_scroll.c ****     else return LV_SCROLL_SNAP_NONE;
 448              		.loc 1 113 11 is_stmt 0 view .LVU98
 449 0000 8368     		ldr	r3, [r0, #8]
 113:Middlewares/LVGL/GUI/lvgl/src/core/lv_obj_scroll.c ****     else return LV_SCROLL_SNAP_NONE;
 450              		.loc 1 113 7 view .LVU99
 451 0002 23B1     		cbz	r3, .L29
 113:Middlewares/LVGL/GUI/lvgl/src/core/lv_obj_scroll.c ****     else return LV_SCROLL_SNAP_NONE;
 452              		.loc 1 113 24 is_stmt 1 discriminator 1 view .LVU100
 113:Middlewares/LVGL/GUI/lvgl/src/core/lv_obj_scroll.c ****     else return LV_SCROLL_SNAP_NONE;
 453              		.loc 1 113 45 is_stmt 0 discriminator 1 view .LVU101
 454 0004 93F82000 		ldrb	r0, [r3, #32]	@ zero_extendqisi2
 455              	.LVL35:
 113:Middlewares/LVGL/GUI/lvgl/src/core/lv_obj_scroll.c ****     else return LV_SCROLL_SNAP_NONE;
 456              		.loc 1 113 45 discriminator 1 view .LVU102
 457 0008 C0F30110 		ubfx	r0, r0, #4, #2
 458 000c 7047     		bx	lr
ARM GAS  C:\Users\ADMINI~1\AppData\Local\Temp\cchMZgMB.s 			page 22


 459              	.LVL36:
 460              	.L29:
 114:Middlewares/LVGL/GUI/lvgl/src/core/lv_obj_scroll.c **** }
 461              		.loc 1 114 17 view .LVU103
 462 000e 0020     		movs	r0, #0
 463              	.LVL37:
 115:Middlewares/LVGL/GUI/lvgl/src/core/lv_obj_scroll.c **** 
 464              		.loc 1 115 1 view .LVU104
 465 0010 7047     		bx	lr
 466              		.cfi_endproc
 467              	.LFE166:
 469              		.section	.text.lv_obj_get_scroll_x,"ax",%progbits
 470              		.align	1
 471              		.global	lv_obj_get_scroll_x
 472              		.syntax unified
 473              		.thumb
 474              		.thumb_func
 476              	lv_obj_get_scroll_x:
 477              	.LVL38:
 478              	.LFB167:
 118:Middlewares/LVGL/GUI/lvgl/src/core/lv_obj_scroll.c ****     if(obj->spec_attr == NULL) return 0;
 479              		.loc 1 118 1 is_stmt 1 view -0
 480              		.cfi_startproc
 481              		@ args = 0, pretend = 0, frame = 0
 482              		@ frame_needed = 0, uses_anonymous_args = 0
 483              		@ link register save eliminated.
 119:Middlewares/LVGL/GUI/lvgl/src/core/lv_obj_scroll.c ****     return -obj->spec_attr->scroll.x;
 484              		.loc 1 119 5 view .LVU106
 119:Middlewares/LVGL/GUI/lvgl/src/core/lv_obj_scroll.c ****     return -obj->spec_attr->scroll.x;
 485              		.loc 1 119 11 is_stmt 0 view .LVU107
 486 0000 8368     		ldr	r3, [r0, #8]
 119:Middlewares/LVGL/GUI/lvgl/src/core/lv_obj_scroll.c ****     return -obj->spec_attr->scroll.x;
 487              		.loc 1 119 7 view .LVU108
 488 0002 13B1     		cbz	r3, .L32
 120:Middlewares/LVGL/GUI/lvgl/src/core/lv_obj_scroll.c **** }
 489              		.loc 1 120 5 is_stmt 1 view .LVU109
 120:Middlewares/LVGL/GUI/lvgl/src/core/lv_obj_scroll.c **** }
 490              		.loc 1 120 35 is_stmt 0 view .LVU110
 491 0004 1869     		ldr	r0, [r3, #16]
 492              	.LVL39:
 120:Middlewares/LVGL/GUI/lvgl/src/core/lv_obj_scroll.c **** }
 493              		.loc 1 120 12 view .LVU111
 494 0006 4042     		rsbs	r0, r0, #0
 495 0008 7047     		bx	lr
 496              	.LVL40:
 497              	.L32:
 119:Middlewares/LVGL/GUI/lvgl/src/core/lv_obj_scroll.c ****     return -obj->spec_attr->scroll.x;
 498              		.loc 1 119 39 view .LVU112
 499 000a 0020     		movs	r0, #0
 500              	.LVL41:
 121:Middlewares/LVGL/GUI/lvgl/src/core/lv_obj_scroll.c **** 
 501              		.loc 1 121 1 view .LVU113
 502 000c 7047     		bx	lr
 503              		.cfi_endproc
 504              	.LFE167:
 506              		.section	.text.scroll_x_anim,"ax",%progbits
 507              		.align	1
ARM GAS  C:\Users\ADMINI~1\AppData\Local\Temp\cchMZgMB.s 			page 23


 508              		.syntax unified
 509              		.thumb
 510              		.thumb_func
 512              	scroll_x_anim:
 513              	.LVL42:
 514              	.LFB187:
 667:Middlewares/LVGL/GUI/lvgl/src/core/lv_obj_scroll.c ****     scroll_by_raw(obj, v + lv_obj_get_scroll_x(obj), 0);
 515              		.loc 1 667 1 is_stmt 1 view -0
 516              		.cfi_startproc
 517              		@ args = 0, pretend = 0, frame = 0
 518              		@ frame_needed = 0, uses_anonymous_args = 0
 667:Middlewares/LVGL/GUI/lvgl/src/core/lv_obj_scroll.c ****     scroll_by_raw(obj, v + lv_obj_get_scroll_x(obj), 0);
 519              		.loc 1 667 1 is_stmt 0 view .LVU115
 520 0000 38B5     		push	{r3, r4, r5, lr}
 521              	.LCFI6:
 522              		.cfi_def_cfa_offset 16
 523              		.cfi_offset 3, -16
 524              		.cfi_offset 4, -12
 525              		.cfi_offset 5, -8
 526              		.cfi_offset 14, -4
 527 0002 0446     		mov	r4, r0
 528 0004 0D46     		mov	r5, r1
 668:Middlewares/LVGL/GUI/lvgl/src/core/lv_obj_scroll.c **** }
 529              		.loc 1 668 5 is_stmt 1 view .LVU116
 668:Middlewares/LVGL/GUI/lvgl/src/core/lv_obj_scroll.c **** }
 530              		.loc 1 668 28 is_stmt 0 view .LVU117
 531 0006 FFF7FEFF 		bl	lv_obj_get_scroll_x
 532              	.LVL43:
 668:Middlewares/LVGL/GUI/lvgl/src/core/lv_obj_scroll.c **** }
 533              		.loc 1 668 5 view .LVU118
 534 000a 0022     		movs	r2, #0
 535 000c 4119     		adds	r1, r0, r5
 536 000e 2046     		mov	r0, r4
 537 0010 FFF7FEFF 		bl	scroll_by_raw
 538              	.LVL44:
 669:Middlewares/LVGL/GUI/lvgl/src/core/lv_obj_scroll.c **** 
 539              		.loc 1 669 1 view .LVU119
 540 0014 38BD     		pop	{r3, r4, r5, pc}
 669:Middlewares/LVGL/GUI/lvgl/src/core/lv_obj_scroll.c **** 
 541              		.loc 1 669 1 view .LVU120
 542              		.cfi_endproc
 543              	.LFE187:
 545              		.section	.text.lv_obj_get_scroll_y,"ax",%progbits
 546              		.align	1
 547              		.global	lv_obj_get_scroll_y
 548              		.syntax unified
 549              		.thumb
 550              		.thumb_func
 552              	lv_obj_get_scroll_y:
 553              	.LVL45:
 554              	.LFB168:
 124:Middlewares/LVGL/GUI/lvgl/src/core/lv_obj_scroll.c ****     if(obj->spec_attr == NULL) return 0;
 555              		.loc 1 124 1 is_stmt 1 view -0
 556              		.cfi_startproc
 557              		@ args = 0, pretend = 0, frame = 0
 558              		@ frame_needed = 0, uses_anonymous_args = 0
 559              		@ link register save eliminated.
ARM GAS  C:\Users\ADMINI~1\AppData\Local\Temp\cchMZgMB.s 			page 24


 125:Middlewares/LVGL/GUI/lvgl/src/core/lv_obj_scroll.c ****     return -obj->spec_attr->scroll.y;
 560              		.loc 1 125 5 view .LVU122
 125:Middlewares/LVGL/GUI/lvgl/src/core/lv_obj_scroll.c ****     return -obj->spec_attr->scroll.y;
 561              		.loc 1 125 11 is_stmt 0 view .LVU123
 562 0000 8368     		ldr	r3, [r0, #8]
 125:Middlewares/LVGL/GUI/lvgl/src/core/lv_obj_scroll.c ****     return -obj->spec_attr->scroll.y;
 563              		.loc 1 125 7 view .LVU124
 564 0002 13B1     		cbz	r3, .L37
 126:Middlewares/LVGL/GUI/lvgl/src/core/lv_obj_scroll.c **** }
 565              		.loc 1 126 5 is_stmt 1 view .LVU125
 126:Middlewares/LVGL/GUI/lvgl/src/core/lv_obj_scroll.c **** }
 566              		.loc 1 126 35 is_stmt 0 view .LVU126
 567 0004 5869     		ldr	r0, [r3, #20]
 568              	.LVL46:
 126:Middlewares/LVGL/GUI/lvgl/src/core/lv_obj_scroll.c **** }
 569              		.loc 1 126 12 view .LVU127
 570 0006 4042     		rsbs	r0, r0, #0
 571 0008 7047     		bx	lr
 572              	.LVL47:
 573              	.L37:
 125:Middlewares/LVGL/GUI/lvgl/src/core/lv_obj_scroll.c ****     return -obj->spec_attr->scroll.y;
 574              		.loc 1 125 39 view .LVU128
 575 000a 0020     		movs	r0, #0
 576              	.LVL48:
 127:Middlewares/LVGL/GUI/lvgl/src/core/lv_obj_scroll.c **** 
 577              		.loc 1 127 1 view .LVU129
 578 000c 7047     		bx	lr
 579              		.cfi_endproc
 580              	.LFE168:
 582              		.section	.text.scroll_y_anim,"ax",%progbits
 583              		.align	1
 584              		.syntax unified
 585              		.thumb
 586              		.thumb_func
 588              	scroll_y_anim:
 589              	.LVL49:
 590              	.LFB188:
 672:Middlewares/LVGL/GUI/lvgl/src/core/lv_obj_scroll.c ****     scroll_by_raw(obj, 0, v + lv_obj_get_scroll_y(obj));
 591              		.loc 1 672 1 is_stmt 1 view -0
 592              		.cfi_startproc
 593              		@ args = 0, pretend = 0, frame = 0
 594              		@ frame_needed = 0, uses_anonymous_args = 0
 672:Middlewares/LVGL/GUI/lvgl/src/core/lv_obj_scroll.c ****     scroll_by_raw(obj, 0, v + lv_obj_get_scroll_y(obj));
 595              		.loc 1 672 1 is_stmt 0 view .LVU131
 596 0000 38B5     		push	{r3, r4, r5, lr}
 597              	.LCFI7:
 598              		.cfi_def_cfa_offset 16
 599              		.cfi_offset 3, -16
 600              		.cfi_offset 4, -12
 601              		.cfi_offset 5, -8
 602              		.cfi_offset 14, -4
 603 0002 0446     		mov	r4, r0
 604 0004 0D46     		mov	r5, r1
 673:Middlewares/LVGL/GUI/lvgl/src/core/lv_obj_scroll.c **** }
 605              		.loc 1 673 5 is_stmt 1 view .LVU132
 673:Middlewares/LVGL/GUI/lvgl/src/core/lv_obj_scroll.c **** }
 606              		.loc 1 673 31 is_stmt 0 view .LVU133
ARM GAS  C:\Users\ADMINI~1\AppData\Local\Temp\cchMZgMB.s 			page 25


 607 0006 FFF7FEFF 		bl	lv_obj_get_scroll_y
 608              	.LVL50:
 673:Middlewares/LVGL/GUI/lvgl/src/core/lv_obj_scroll.c **** }
 609              		.loc 1 673 5 view .LVU134
 610 000a 4219     		adds	r2, r0, r5
 611 000c 0021     		movs	r1, #0
 612 000e 2046     		mov	r0, r4
 613 0010 FFF7FEFF 		bl	scroll_by_raw
 614              	.LVL51:
 674:Middlewares/LVGL/GUI/lvgl/src/core/lv_obj_scroll.c **** 
 615              		.loc 1 674 1 view .LVU135
 616 0014 38BD     		pop	{r3, r4, r5, pc}
 674:Middlewares/LVGL/GUI/lvgl/src/core/lv_obj_scroll.c **** 
 617              		.loc 1 674 1 view .LVU136
 618              		.cfi_endproc
 619              	.LFE188:
 621              		.section	.text.lv_obj_get_scroll_top,"ax",%progbits
 622              		.align	1
 623              		.global	lv_obj_get_scroll_top
 624              		.syntax unified
 625              		.thumb
 626              		.thumb_func
 628              	lv_obj_get_scroll_top:
 629              	.LVL52:
 630              	.LFB169:
 130:Middlewares/LVGL/GUI/lvgl/src/core/lv_obj_scroll.c ****     if(obj->spec_attr == NULL) return 0;
 631              		.loc 1 130 1 is_stmt 1 view -0
 632              		.cfi_startproc
 633              		@ args = 0, pretend = 0, frame = 0
 634              		@ frame_needed = 0, uses_anonymous_args = 0
 635              		@ link register save eliminated.
 131:Middlewares/LVGL/GUI/lvgl/src/core/lv_obj_scroll.c ****     return -obj->spec_attr->scroll.y;
 636              		.loc 1 131 5 view .LVU138
 131:Middlewares/LVGL/GUI/lvgl/src/core/lv_obj_scroll.c ****     return -obj->spec_attr->scroll.y;
 637              		.loc 1 131 11 is_stmt 0 view .LVU139
 638 0000 8368     		ldr	r3, [r0, #8]
 131:Middlewares/LVGL/GUI/lvgl/src/core/lv_obj_scroll.c ****     return -obj->spec_attr->scroll.y;
 639              		.loc 1 131 7 view .LVU140
 640 0002 13B1     		cbz	r3, .L42
 132:Middlewares/LVGL/GUI/lvgl/src/core/lv_obj_scroll.c **** }
 641              		.loc 1 132 5 is_stmt 1 view .LVU141
 132:Middlewares/LVGL/GUI/lvgl/src/core/lv_obj_scroll.c **** }
 642              		.loc 1 132 35 is_stmt 0 view .LVU142
 643 0004 5869     		ldr	r0, [r3, #20]
 644              	.LVL53:
 132:Middlewares/LVGL/GUI/lvgl/src/core/lv_obj_scroll.c **** }
 645              		.loc 1 132 12 view .LVU143
 646 0006 4042     		rsbs	r0, r0, #0
 647 0008 7047     		bx	lr
 648              	.LVL54:
 649              	.L42:
 131:Middlewares/LVGL/GUI/lvgl/src/core/lv_obj_scroll.c ****     return -obj->spec_attr->scroll.y;
 650              		.loc 1 131 39 view .LVU144
 651 000a 0020     		movs	r0, #0
 652              	.LVL55:
 133:Middlewares/LVGL/GUI/lvgl/src/core/lv_obj_scroll.c **** 
 653              		.loc 1 133 1 view .LVU145
ARM GAS  C:\Users\ADMINI~1\AppData\Local\Temp\cchMZgMB.s 			page 26


 654 000c 7047     		bx	lr
 655              		.cfi_endproc
 656              	.LFE169:
 658              		.section	.text.lv_obj_get_scroll_bottom,"ax",%progbits
 659              		.align	1
 660              		.global	lv_obj_get_scroll_bottom
 661              		.syntax unified
 662              		.thumb
 663              		.thumb_func
 665              	lv_obj_get_scroll_bottom:
 666              	.LVL56:
 667              	.LFB170:
 136:Middlewares/LVGL/GUI/lvgl/src/core/lv_obj_scroll.c ****     LV_ASSERT_OBJ(obj, MY_CLASS);
 668              		.loc 1 136 1 is_stmt 1 view -0
 669              		.cfi_startproc
 670              		@ args = 0, pretend = 0, frame = 0
 671              		@ frame_needed = 0, uses_anonymous_args = 0
 136:Middlewares/LVGL/GUI/lvgl/src/core/lv_obj_scroll.c ****     LV_ASSERT_OBJ(obj, MY_CLASS);
 672              		.loc 1 136 1 is_stmt 0 view .LVU147
 673 0000 2DE9F843 		push	{r3, r4, r5, r6, r7, r8, r9, lr}
 674              	.LCFI8:
 675              		.cfi_def_cfa_offset 32
 676              		.cfi_offset 3, -32
 677              		.cfi_offset 4, -28
 678              		.cfi_offset 5, -24
 679              		.cfi_offset 6, -20
 680              		.cfi_offset 7, -16
 681              		.cfi_offset 8, -12
 682              		.cfi_offset 9, -8
 683              		.cfi_offset 14, -4
 684 0004 0646     		mov	r6, r0
 137:Middlewares/LVGL/GUI/lvgl/src/core/lv_obj_scroll.c **** 
 685              		.loc 1 137 5 is_stmt 1 view .LVU148
 137:Middlewares/LVGL/GUI/lvgl/src/core/lv_obj_scroll.c **** 
 686              		.loc 1 137 5 view .LVU149
 137:Middlewares/LVGL/GUI/lvgl/src/core/lv_obj_scroll.c **** 
 687              		.loc 1 137 5 view .LVU150
 139:Middlewares/LVGL/GUI/lvgl/src/core/lv_obj_scroll.c ****     uint32_t i;
 688              		.loc 1 139 5 view .LVU151
 689              	.LVL57:
 140:Middlewares/LVGL/GUI/lvgl/src/core/lv_obj_scroll.c ****     uint32_t child_cnt = lv_obj_get_child_cnt(obj);
 690              		.loc 1 140 5 view .LVU152
 141:Middlewares/LVGL/GUI/lvgl/src/core/lv_obj_scroll.c ****     for(i = 0; i < child_cnt; i++) {
 691              		.loc 1 141 5 view .LVU153
 141:Middlewares/LVGL/GUI/lvgl/src/core/lv_obj_scroll.c ****     for(i = 0; i < child_cnt; i++) {
 692              		.loc 1 141 26 is_stmt 0 view .LVU154
 693 0006 FFF7FEFF 		bl	lv_obj_get_child_cnt
 694              	.LVL58:
 141:Middlewares/LVGL/GUI/lvgl/src/core/lv_obj_scroll.c ****     for(i = 0; i < child_cnt; i++) {
 695              		.loc 1 141 26 view .LVU155
 696 000a 8046     		mov	r8, r0
 697              	.LVL59:
 142:Middlewares/LVGL/GUI/lvgl/src/core/lv_obj_scroll.c ****         lv_obj_t * child = obj->spec_attr->children[i];
 698              		.loc 1 142 5 is_stmt 1 view .LVU156
 142:Middlewares/LVGL/GUI/lvgl/src/core/lv_obj_scroll.c ****         lv_obj_t * child = obj->spec_attr->children[i];
 699              		.loc 1 142 11 is_stmt 0 view .LVU157
 700 000c 0024     		movs	r4, #0
ARM GAS  C:\Users\ADMINI~1\AppData\Local\Temp\cchMZgMB.s 			page 27


 139:Middlewares/LVGL/GUI/lvgl/src/core/lv_obj_scroll.c ****     uint32_t i;
 701              		.loc 1 139 16 view .LVU158
 702 000e 244F     		ldr	r7, .L51
 142:Middlewares/LVGL/GUI/lvgl/src/core/lv_obj_scroll.c ****         lv_obj_t * child = obj->spec_attr->children[i];
 703              		.loc 1 142 5 view .LVU159
 704 0010 04E0     		b	.L44
 705              	.LVL60:
 706              	.L50:
 707              	.LBB100:
 145:Middlewares/LVGL/GUI/lvgl/src/core/lv_obj_scroll.c ****     }
 708              		.loc 1 145 9 is_stmt 1 view .LVU160
 145:Middlewares/LVGL/GUI/lvgl/src/core/lv_obj_scroll.c ****     }
 709              		.loc 1 145 21 is_stmt 0 view .LVU161
 710 0012 2B6A     		ldr	r3, [r5, #32]
 145:Middlewares/LVGL/GUI/lvgl/src/core/lv_obj_scroll.c ****     }
 711              		.loc 1 145 19 view .LVU162
 712 0014 9F42     		cmp	r7, r3
 713 0016 B8BF     		it	lt
 714 0018 1F46     		movlt	r7, r3
 715              	.LVL61:
 716              	.L45:
 145:Middlewares/LVGL/GUI/lvgl/src/core/lv_obj_scroll.c ****     }
 717              		.loc 1 145 19 view .LVU163
 718              	.LBE100:
 142:Middlewares/LVGL/GUI/lvgl/src/core/lv_obj_scroll.c ****         lv_obj_t * child = obj->spec_attr->children[i];
 719              		.loc 1 142 31 is_stmt 1 discriminator 2 view .LVU164
 142:Middlewares/LVGL/GUI/lvgl/src/core/lv_obj_scroll.c ****         lv_obj_t * child = obj->spec_attr->children[i];
 720              		.loc 1 142 32 is_stmt 0 discriminator 2 view .LVU165
 721 001a 0134     		adds	r4, r4, #1
 722              	.LVL62:
 723              	.L44:
 142:Middlewares/LVGL/GUI/lvgl/src/core/lv_obj_scroll.c ****         lv_obj_t * child = obj->spec_attr->children[i];
 724              		.loc 1 142 16 is_stmt 1 discriminator 1 view .LVU166
 142:Middlewares/LVGL/GUI/lvgl/src/core/lv_obj_scroll.c ****         lv_obj_t * child = obj->spec_attr->children[i];
 725              		.loc 1 142 5 is_stmt 0 discriminator 1 view .LVU167
 726 001c 4445     		cmp	r4, r8
 727 001e 0AD2     		bcs	.L49
 728              	.LBB101:
 143:Middlewares/LVGL/GUI/lvgl/src/core/lv_obj_scroll.c ****         if(lv_obj_has_flag_any(child,  LV_OBJ_FLAG_HIDDEN | LV_OBJ_FLAG_FLOATING)) continue;
 729              		.loc 1 143 9 is_stmt 1 view .LVU168
 143:Middlewares/LVGL/GUI/lvgl/src/core/lv_obj_scroll.c ****         if(lv_obj_has_flag_any(child,  LV_OBJ_FLAG_HIDDEN | LV_OBJ_FLAG_FLOATING)) continue;
 730              		.loc 1 143 31 is_stmt 0 view .LVU169
 731 0020 B368     		ldr	r3, [r6, #8]
 143:Middlewares/LVGL/GUI/lvgl/src/core/lv_obj_scroll.c ****         if(lv_obj_has_flag_any(child,  LV_OBJ_FLAG_HIDDEN | LV_OBJ_FLAG_FLOATING)) continue;
 732              		.loc 1 143 42 view .LVU170
 733 0022 1B68     		ldr	r3, [r3]
 143:Middlewares/LVGL/GUI/lvgl/src/core/lv_obj_scroll.c ****         if(lv_obj_has_flag_any(child,  LV_OBJ_FLAG_HIDDEN | LV_OBJ_FLAG_FLOATING)) continue;
 734              		.loc 1 143 20 view .LVU171
 735 0024 53F82450 		ldr	r5, [r3, r4, lsl #2]
 736              	.LVL63:
 144:Middlewares/LVGL/GUI/lvgl/src/core/lv_obj_scroll.c ****         child_res = LV_MAX(child_res, child->coords.y2);
 737              		.loc 1 144 9 is_stmt 1 view .LVU172
 144:Middlewares/LVGL/GUI/lvgl/src/core/lv_obj_scroll.c ****         child_res = LV_MAX(child_res, child->coords.y2);
 738              		.loc 1 144 12 is_stmt 0 view .LVU173
 739 0028 1E49     		ldr	r1, .L51+4
 740 002a 2846     		mov	r0, r5
 741 002c FFF7FEFF 		bl	lv_obj_has_flag_any
ARM GAS  C:\Users\ADMINI~1\AppData\Local\Temp\cchMZgMB.s 			page 28


 742              	.LVL64:
 144:Middlewares/LVGL/GUI/lvgl/src/core/lv_obj_scroll.c ****         child_res = LV_MAX(child_res, child->coords.y2);
 743              		.loc 1 144 11 view .LVU174
 744 0030 0028     		cmp	r0, #0
 745 0032 EED0     		beq	.L50
 746 0034 F1E7     		b	.L45
 747              	.LVL65:
 748              	.L49:
 144:Middlewares/LVGL/GUI/lvgl/src/core/lv_obj_scroll.c ****         child_res = LV_MAX(child_res, child->coords.y2);
 749              		.loc 1 144 11 view .LVU175
 750              	.LBE101:
 148:Middlewares/LVGL/GUI/lvgl/src/core/lv_obj_scroll.c ****     lv_coord_t pad_bottom = lv_obj_get_style_pad_bottom(obj, LV_PART_MAIN);
 751              		.loc 1 148 5 is_stmt 1 view .LVU176
 752              	.LBB102:
 753              	.LBI102:
 754              		.file 2 "Middlewares/LVGL/GUI/lvgl/src/core/lv_obj_style_gen.h"
   1:Middlewares/LVGL/GUI/lvgl/src/core/lv_obj_style_gen.h **** static inline lv_coord_t lv_obj_get_style_width(const struct _lv_obj_t * obj, uint32_t part)
   2:Middlewares/LVGL/GUI/lvgl/src/core/lv_obj_style_gen.h **** {
   3:Middlewares/LVGL/GUI/lvgl/src/core/lv_obj_style_gen.h ****     lv_style_value_t v = lv_obj_get_style_prop(obj, part, LV_STYLE_WIDTH);
   4:Middlewares/LVGL/GUI/lvgl/src/core/lv_obj_style_gen.h ****     return (lv_coord_t)v.num;
   5:Middlewares/LVGL/GUI/lvgl/src/core/lv_obj_style_gen.h **** }
   6:Middlewares/LVGL/GUI/lvgl/src/core/lv_obj_style_gen.h **** 
   7:Middlewares/LVGL/GUI/lvgl/src/core/lv_obj_style_gen.h **** static inline lv_coord_t lv_obj_get_style_min_width(const struct _lv_obj_t * obj, uint32_t part)
   8:Middlewares/LVGL/GUI/lvgl/src/core/lv_obj_style_gen.h **** {
   9:Middlewares/LVGL/GUI/lvgl/src/core/lv_obj_style_gen.h ****     lv_style_value_t v = lv_obj_get_style_prop(obj, part, LV_STYLE_MIN_WIDTH);
  10:Middlewares/LVGL/GUI/lvgl/src/core/lv_obj_style_gen.h ****     return (lv_coord_t)v.num;
  11:Middlewares/LVGL/GUI/lvgl/src/core/lv_obj_style_gen.h **** }
  12:Middlewares/LVGL/GUI/lvgl/src/core/lv_obj_style_gen.h **** 
  13:Middlewares/LVGL/GUI/lvgl/src/core/lv_obj_style_gen.h **** static inline lv_coord_t lv_obj_get_style_max_width(const struct _lv_obj_t * obj, uint32_t part)
  14:Middlewares/LVGL/GUI/lvgl/src/core/lv_obj_style_gen.h **** {
  15:Middlewares/LVGL/GUI/lvgl/src/core/lv_obj_style_gen.h ****     lv_style_value_t v = lv_obj_get_style_prop(obj, part, LV_STYLE_MAX_WIDTH);
  16:Middlewares/LVGL/GUI/lvgl/src/core/lv_obj_style_gen.h ****     return (lv_coord_t)v.num;
  17:Middlewares/LVGL/GUI/lvgl/src/core/lv_obj_style_gen.h **** }
  18:Middlewares/LVGL/GUI/lvgl/src/core/lv_obj_style_gen.h **** 
  19:Middlewares/LVGL/GUI/lvgl/src/core/lv_obj_style_gen.h **** static inline lv_coord_t lv_obj_get_style_height(const struct _lv_obj_t * obj, uint32_t part)
  20:Middlewares/LVGL/GUI/lvgl/src/core/lv_obj_style_gen.h **** {
  21:Middlewares/LVGL/GUI/lvgl/src/core/lv_obj_style_gen.h ****     lv_style_value_t v = lv_obj_get_style_prop(obj, part, LV_STYLE_HEIGHT);
  22:Middlewares/LVGL/GUI/lvgl/src/core/lv_obj_style_gen.h ****     return (lv_coord_t)v.num;
  23:Middlewares/LVGL/GUI/lvgl/src/core/lv_obj_style_gen.h **** }
  24:Middlewares/LVGL/GUI/lvgl/src/core/lv_obj_style_gen.h **** 
  25:Middlewares/LVGL/GUI/lvgl/src/core/lv_obj_style_gen.h **** static inline lv_coord_t lv_obj_get_style_min_height(const struct _lv_obj_t * obj, uint32_t part)
  26:Middlewares/LVGL/GUI/lvgl/src/core/lv_obj_style_gen.h **** {
  27:Middlewares/LVGL/GUI/lvgl/src/core/lv_obj_style_gen.h ****     lv_style_value_t v = lv_obj_get_style_prop(obj, part, LV_STYLE_MIN_HEIGHT);
  28:Middlewares/LVGL/GUI/lvgl/src/core/lv_obj_style_gen.h ****     return (lv_coord_t)v.num;
  29:Middlewares/LVGL/GUI/lvgl/src/core/lv_obj_style_gen.h **** }
  30:Middlewares/LVGL/GUI/lvgl/src/core/lv_obj_style_gen.h **** 
  31:Middlewares/LVGL/GUI/lvgl/src/core/lv_obj_style_gen.h **** static inline lv_coord_t lv_obj_get_style_max_height(const struct _lv_obj_t * obj, uint32_t part)
  32:Middlewares/LVGL/GUI/lvgl/src/core/lv_obj_style_gen.h **** {
  33:Middlewares/LVGL/GUI/lvgl/src/core/lv_obj_style_gen.h ****     lv_style_value_t v = lv_obj_get_style_prop(obj, part, LV_STYLE_MAX_HEIGHT);
  34:Middlewares/LVGL/GUI/lvgl/src/core/lv_obj_style_gen.h ****     return (lv_coord_t)v.num;
  35:Middlewares/LVGL/GUI/lvgl/src/core/lv_obj_style_gen.h **** }
  36:Middlewares/LVGL/GUI/lvgl/src/core/lv_obj_style_gen.h **** 
  37:Middlewares/LVGL/GUI/lvgl/src/core/lv_obj_style_gen.h **** static inline lv_coord_t lv_obj_get_style_x(const struct _lv_obj_t * obj, uint32_t part)
  38:Middlewares/LVGL/GUI/lvgl/src/core/lv_obj_style_gen.h **** {
  39:Middlewares/LVGL/GUI/lvgl/src/core/lv_obj_style_gen.h ****     lv_style_value_t v = lv_obj_get_style_prop(obj, part, LV_STYLE_X);
  40:Middlewares/LVGL/GUI/lvgl/src/core/lv_obj_style_gen.h ****     return (lv_coord_t)v.num;
  41:Middlewares/LVGL/GUI/lvgl/src/core/lv_obj_style_gen.h **** }
ARM GAS  C:\Users\ADMINI~1\AppData\Local\Temp\cchMZgMB.s 			page 29


  42:Middlewares/LVGL/GUI/lvgl/src/core/lv_obj_style_gen.h **** 
  43:Middlewares/LVGL/GUI/lvgl/src/core/lv_obj_style_gen.h **** static inline lv_coord_t lv_obj_get_style_y(const struct _lv_obj_t * obj, uint32_t part)
  44:Middlewares/LVGL/GUI/lvgl/src/core/lv_obj_style_gen.h **** {
  45:Middlewares/LVGL/GUI/lvgl/src/core/lv_obj_style_gen.h ****     lv_style_value_t v = lv_obj_get_style_prop(obj, part, LV_STYLE_Y);
  46:Middlewares/LVGL/GUI/lvgl/src/core/lv_obj_style_gen.h ****     return (lv_coord_t)v.num;
  47:Middlewares/LVGL/GUI/lvgl/src/core/lv_obj_style_gen.h **** }
  48:Middlewares/LVGL/GUI/lvgl/src/core/lv_obj_style_gen.h **** 
  49:Middlewares/LVGL/GUI/lvgl/src/core/lv_obj_style_gen.h **** static inline lv_align_t lv_obj_get_style_align(const struct _lv_obj_t * obj, uint32_t part)
  50:Middlewares/LVGL/GUI/lvgl/src/core/lv_obj_style_gen.h **** {
  51:Middlewares/LVGL/GUI/lvgl/src/core/lv_obj_style_gen.h ****     lv_style_value_t v = lv_obj_get_style_prop(obj, part, LV_STYLE_ALIGN);
  52:Middlewares/LVGL/GUI/lvgl/src/core/lv_obj_style_gen.h ****     return (lv_align_t)v.num;
  53:Middlewares/LVGL/GUI/lvgl/src/core/lv_obj_style_gen.h **** }
  54:Middlewares/LVGL/GUI/lvgl/src/core/lv_obj_style_gen.h **** 
  55:Middlewares/LVGL/GUI/lvgl/src/core/lv_obj_style_gen.h **** static inline lv_coord_t lv_obj_get_style_transform_width(const struct _lv_obj_t * obj, uint32_t pa
  56:Middlewares/LVGL/GUI/lvgl/src/core/lv_obj_style_gen.h **** {
  57:Middlewares/LVGL/GUI/lvgl/src/core/lv_obj_style_gen.h ****     lv_style_value_t v = lv_obj_get_style_prop(obj, part, LV_STYLE_TRANSFORM_WIDTH);
  58:Middlewares/LVGL/GUI/lvgl/src/core/lv_obj_style_gen.h ****     return (lv_coord_t)v.num;
  59:Middlewares/LVGL/GUI/lvgl/src/core/lv_obj_style_gen.h **** }
  60:Middlewares/LVGL/GUI/lvgl/src/core/lv_obj_style_gen.h **** 
  61:Middlewares/LVGL/GUI/lvgl/src/core/lv_obj_style_gen.h **** static inline lv_coord_t lv_obj_get_style_transform_height(const struct _lv_obj_t * obj, uint32_t p
  62:Middlewares/LVGL/GUI/lvgl/src/core/lv_obj_style_gen.h **** {
  63:Middlewares/LVGL/GUI/lvgl/src/core/lv_obj_style_gen.h ****     lv_style_value_t v = lv_obj_get_style_prop(obj, part, LV_STYLE_TRANSFORM_HEIGHT);
  64:Middlewares/LVGL/GUI/lvgl/src/core/lv_obj_style_gen.h ****     return (lv_coord_t)v.num;
  65:Middlewares/LVGL/GUI/lvgl/src/core/lv_obj_style_gen.h **** }
  66:Middlewares/LVGL/GUI/lvgl/src/core/lv_obj_style_gen.h **** 
  67:Middlewares/LVGL/GUI/lvgl/src/core/lv_obj_style_gen.h **** static inline lv_coord_t lv_obj_get_style_translate_x(const struct _lv_obj_t * obj, uint32_t part)
  68:Middlewares/LVGL/GUI/lvgl/src/core/lv_obj_style_gen.h **** {
  69:Middlewares/LVGL/GUI/lvgl/src/core/lv_obj_style_gen.h ****     lv_style_value_t v = lv_obj_get_style_prop(obj, part, LV_STYLE_TRANSLATE_X);
  70:Middlewares/LVGL/GUI/lvgl/src/core/lv_obj_style_gen.h ****     return (lv_coord_t)v.num;
  71:Middlewares/LVGL/GUI/lvgl/src/core/lv_obj_style_gen.h **** }
  72:Middlewares/LVGL/GUI/lvgl/src/core/lv_obj_style_gen.h **** 
  73:Middlewares/LVGL/GUI/lvgl/src/core/lv_obj_style_gen.h **** static inline lv_coord_t lv_obj_get_style_translate_y(const struct _lv_obj_t * obj, uint32_t part)
  74:Middlewares/LVGL/GUI/lvgl/src/core/lv_obj_style_gen.h **** {
  75:Middlewares/LVGL/GUI/lvgl/src/core/lv_obj_style_gen.h ****     lv_style_value_t v = lv_obj_get_style_prop(obj, part, LV_STYLE_TRANSLATE_Y);
  76:Middlewares/LVGL/GUI/lvgl/src/core/lv_obj_style_gen.h ****     return (lv_coord_t)v.num;
  77:Middlewares/LVGL/GUI/lvgl/src/core/lv_obj_style_gen.h **** }
  78:Middlewares/LVGL/GUI/lvgl/src/core/lv_obj_style_gen.h **** 
  79:Middlewares/LVGL/GUI/lvgl/src/core/lv_obj_style_gen.h **** static inline lv_coord_t lv_obj_get_style_transform_zoom(const struct _lv_obj_t * obj, uint32_t par
  80:Middlewares/LVGL/GUI/lvgl/src/core/lv_obj_style_gen.h **** {
  81:Middlewares/LVGL/GUI/lvgl/src/core/lv_obj_style_gen.h ****     lv_style_value_t v = lv_obj_get_style_prop(obj, part, LV_STYLE_TRANSFORM_ZOOM);
  82:Middlewares/LVGL/GUI/lvgl/src/core/lv_obj_style_gen.h ****     return (lv_coord_t)v.num;
  83:Middlewares/LVGL/GUI/lvgl/src/core/lv_obj_style_gen.h **** }
  84:Middlewares/LVGL/GUI/lvgl/src/core/lv_obj_style_gen.h **** 
  85:Middlewares/LVGL/GUI/lvgl/src/core/lv_obj_style_gen.h **** static inline lv_coord_t lv_obj_get_style_transform_angle(const struct _lv_obj_t * obj, uint32_t pa
  86:Middlewares/LVGL/GUI/lvgl/src/core/lv_obj_style_gen.h **** {
  87:Middlewares/LVGL/GUI/lvgl/src/core/lv_obj_style_gen.h ****     lv_style_value_t v = lv_obj_get_style_prop(obj, part, LV_STYLE_TRANSFORM_ANGLE);
  88:Middlewares/LVGL/GUI/lvgl/src/core/lv_obj_style_gen.h ****     return (lv_coord_t)v.num;
  89:Middlewares/LVGL/GUI/lvgl/src/core/lv_obj_style_gen.h **** }
  90:Middlewares/LVGL/GUI/lvgl/src/core/lv_obj_style_gen.h **** 
  91:Middlewares/LVGL/GUI/lvgl/src/core/lv_obj_style_gen.h **** static inline lv_coord_t lv_obj_get_style_pad_top(const struct _lv_obj_t * obj, uint32_t part)
 755              		.loc 2 91 26 view .LVU177
 756              	.LBB103:
  92:Middlewares/LVGL/GUI/lvgl/src/core/lv_obj_style_gen.h **** {
  93:Middlewares/LVGL/GUI/lvgl/src/core/lv_obj_style_gen.h ****     lv_style_value_t v = lv_obj_get_style_prop(obj, part, LV_STYLE_PAD_TOP);
 757              		.loc 2 93 5 view .LVU178
 758              		.loc 2 93 26 is_stmt 0 view .LVU179
 759 0036 41F61002 		movw	r2, #6160
ARM GAS  C:\Users\ADMINI~1\AppData\Local\Temp\cchMZgMB.s 			page 30


 760 003a 0021     		movs	r1, #0
 761 003c 3046     		mov	r0, r6
 762 003e FFF7FEFF 		bl	lv_obj_get_style_prop
 763              	.LVL66:
 764 0042 8146     		mov	r9, r0
  94:Middlewares/LVGL/GUI/lvgl/src/core/lv_obj_style_gen.h ****     return (lv_coord_t)v.num;
 765              		.loc 2 94 5 is_stmt 1 view .LVU180
 766              	.LVL67:
 767              		.loc 2 94 5 is_stmt 0 view .LVU181
 768              	.LBE103:
 769              	.LBE102:
 149:Middlewares/LVGL/GUI/lvgl/src/core/lv_obj_scroll.c ****     lv_coord_t border_width = lv_obj_get_style_border_width(obj, LV_PART_MAIN);
 770              		.loc 1 149 5 is_stmt 1 view .LVU182
 771              	.LBB104:
 772              	.LBI104:
  95:Middlewares/LVGL/GUI/lvgl/src/core/lv_obj_style_gen.h **** }
  96:Middlewares/LVGL/GUI/lvgl/src/core/lv_obj_style_gen.h **** 
  97:Middlewares/LVGL/GUI/lvgl/src/core/lv_obj_style_gen.h **** static inline lv_coord_t lv_obj_get_style_pad_bottom(const struct _lv_obj_t * obj, uint32_t part)
 773              		.loc 2 97 26 view .LVU183
 774              	.LBB105:
  98:Middlewares/LVGL/GUI/lvgl/src/core/lv_obj_style_gen.h **** {
  99:Middlewares/LVGL/GUI/lvgl/src/core/lv_obj_style_gen.h ****     lv_style_value_t v = lv_obj_get_style_prop(obj, part, LV_STYLE_PAD_BOTTOM);
 775              		.loc 2 99 5 view .LVU184
 776              		.loc 2 99 26 is_stmt 0 view .LVU185
 777 0044 41F61102 		movw	r2, #6161
 778 0048 0021     		movs	r1, #0
 779 004a 3046     		mov	r0, r6
 780              	.LVL68:
 781              		.loc 2 99 26 view .LVU186
 782 004c FFF7FEFF 		bl	lv_obj_get_style_prop
 783              	.LVL69:
 784 0050 8046     		mov	r8, r0
 785              	.LVL70:
 100:Middlewares/LVGL/GUI/lvgl/src/core/lv_obj_style_gen.h ****     return (lv_coord_t)v.num;
 786              		.loc 2 100 5 is_stmt 1 view .LVU187
 787              		.loc 2 100 5 is_stmt 0 view .LVU188
 788              	.LBE105:
 789              	.LBE104:
 150:Middlewares/LVGL/GUI/lvgl/src/core/lv_obj_scroll.c **** 
 790              		.loc 1 150 5 is_stmt 1 view .LVU189
 791              	.LBB106:
 792              	.LBI106:
 101:Middlewares/LVGL/GUI/lvgl/src/core/lv_obj_style_gen.h **** }
 102:Middlewares/LVGL/GUI/lvgl/src/core/lv_obj_style_gen.h **** 
 103:Middlewares/LVGL/GUI/lvgl/src/core/lv_obj_style_gen.h **** static inline lv_coord_t lv_obj_get_style_pad_left(const struct _lv_obj_t * obj, uint32_t part)
 104:Middlewares/LVGL/GUI/lvgl/src/core/lv_obj_style_gen.h **** {
 105:Middlewares/LVGL/GUI/lvgl/src/core/lv_obj_style_gen.h ****     lv_style_value_t v = lv_obj_get_style_prop(obj, part, LV_STYLE_PAD_LEFT);
 106:Middlewares/LVGL/GUI/lvgl/src/core/lv_obj_style_gen.h ****     return (lv_coord_t)v.num;
 107:Middlewares/LVGL/GUI/lvgl/src/core/lv_obj_style_gen.h **** }
 108:Middlewares/LVGL/GUI/lvgl/src/core/lv_obj_style_gen.h **** 
 109:Middlewares/LVGL/GUI/lvgl/src/core/lv_obj_style_gen.h **** static inline lv_coord_t lv_obj_get_style_pad_right(const struct _lv_obj_t * obj, uint32_t part)
 110:Middlewares/LVGL/GUI/lvgl/src/core/lv_obj_style_gen.h **** {
 111:Middlewares/LVGL/GUI/lvgl/src/core/lv_obj_style_gen.h ****     lv_style_value_t v = lv_obj_get_style_prop(obj, part, LV_STYLE_PAD_RIGHT);
 112:Middlewares/LVGL/GUI/lvgl/src/core/lv_obj_style_gen.h ****     return (lv_coord_t)v.num;
 113:Middlewares/LVGL/GUI/lvgl/src/core/lv_obj_style_gen.h **** }
 114:Middlewares/LVGL/GUI/lvgl/src/core/lv_obj_style_gen.h **** 
 115:Middlewares/LVGL/GUI/lvgl/src/core/lv_obj_style_gen.h **** static inline lv_coord_t lv_obj_get_style_pad_row(const struct _lv_obj_t * obj, uint32_t part)
ARM GAS  C:\Users\ADMINI~1\AppData\Local\Temp\cchMZgMB.s 			page 31


 116:Middlewares/LVGL/GUI/lvgl/src/core/lv_obj_style_gen.h **** {
 117:Middlewares/LVGL/GUI/lvgl/src/core/lv_obj_style_gen.h ****     lv_style_value_t v = lv_obj_get_style_prop(obj, part, LV_STYLE_PAD_ROW);
 118:Middlewares/LVGL/GUI/lvgl/src/core/lv_obj_style_gen.h ****     return (lv_coord_t)v.num;
 119:Middlewares/LVGL/GUI/lvgl/src/core/lv_obj_style_gen.h **** }
 120:Middlewares/LVGL/GUI/lvgl/src/core/lv_obj_style_gen.h **** 
 121:Middlewares/LVGL/GUI/lvgl/src/core/lv_obj_style_gen.h **** static inline lv_coord_t lv_obj_get_style_pad_column(const struct _lv_obj_t * obj, uint32_t part)
 122:Middlewares/LVGL/GUI/lvgl/src/core/lv_obj_style_gen.h **** {
 123:Middlewares/LVGL/GUI/lvgl/src/core/lv_obj_style_gen.h ****     lv_style_value_t v = lv_obj_get_style_prop(obj, part, LV_STYLE_PAD_COLUMN);
 124:Middlewares/LVGL/GUI/lvgl/src/core/lv_obj_style_gen.h ****     return (lv_coord_t)v.num;
 125:Middlewares/LVGL/GUI/lvgl/src/core/lv_obj_style_gen.h **** }
 126:Middlewares/LVGL/GUI/lvgl/src/core/lv_obj_style_gen.h **** 
 127:Middlewares/LVGL/GUI/lvgl/src/core/lv_obj_style_gen.h **** static inline lv_color_t lv_obj_get_style_bg_color(const struct _lv_obj_t * obj, uint32_t part)
 128:Middlewares/LVGL/GUI/lvgl/src/core/lv_obj_style_gen.h **** {
 129:Middlewares/LVGL/GUI/lvgl/src/core/lv_obj_style_gen.h ****     lv_style_value_t v = lv_obj_get_style_prop(obj, part, LV_STYLE_BG_COLOR);
 130:Middlewares/LVGL/GUI/lvgl/src/core/lv_obj_style_gen.h ****     return v.color;
 131:Middlewares/LVGL/GUI/lvgl/src/core/lv_obj_style_gen.h **** }
 132:Middlewares/LVGL/GUI/lvgl/src/core/lv_obj_style_gen.h **** 
 133:Middlewares/LVGL/GUI/lvgl/src/core/lv_obj_style_gen.h **** static inline lv_color_t lv_obj_get_style_bg_color_filtered(const struct _lv_obj_t * obj, uint32_t 
 134:Middlewares/LVGL/GUI/lvgl/src/core/lv_obj_style_gen.h **** {
 135:Middlewares/LVGL/GUI/lvgl/src/core/lv_obj_style_gen.h ****     lv_style_value_t v = lv_obj_get_style_prop(obj, part, LV_STYLE_BG_COLOR_FILTERED);
 136:Middlewares/LVGL/GUI/lvgl/src/core/lv_obj_style_gen.h ****     return v.color;
 137:Middlewares/LVGL/GUI/lvgl/src/core/lv_obj_style_gen.h **** }
 138:Middlewares/LVGL/GUI/lvgl/src/core/lv_obj_style_gen.h **** 
 139:Middlewares/LVGL/GUI/lvgl/src/core/lv_obj_style_gen.h **** static inline lv_opa_t lv_obj_get_style_bg_opa(const struct _lv_obj_t * obj, uint32_t part)
 140:Middlewares/LVGL/GUI/lvgl/src/core/lv_obj_style_gen.h **** {
 141:Middlewares/LVGL/GUI/lvgl/src/core/lv_obj_style_gen.h ****     lv_style_value_t v = lv_obj_get_style_prop(obj, part, LV_STYLE_BG_OPA);
 142:Middlewares/LVGL/GUI/lvgl/src/core/lv_obj_style_gen.h ****     return (lv_opa_t)v.num;
 143:Middlewares/LVGL/GUI/lvgl/src/core/lv_obj_style_gen.h **** }
 144:Middlewares/LVGL/GUI/lvgl/src/core/lv_obj_style_gen.h **** 
 145:Middlewares/LVGL/GUI/lvgl/src/core/lv_obj_style_gen.h **** static inline lv_color_t lv_obj_get_style_bg_grad_color(const struct _lv_obj_t * obj, uint32_t part
 146:Middlewares/LVGL/GUI/lvgl/src/core/lv_obj_style_gen.h **** {
 147:Middlewares/LVGL/GUI/lvgl/src/core/lv_obj_style_gen.h ****     lv_style_value_t v = lv_obj_get_style_prop(obj, part, LV_STYLE_BG_GRAD_COLOR);
 148:Middlewares/LVGL/GUI/lvgl/src/core/lv_obj_style_gen.h ****     return v.color;
 149:Middlewares/LVGL/GUI/lvgl/src/core/lv_obj_style_gen.h **** }
 150:Middlewares/LVGL/GUI/lvgl/src/core/lv_obj_style_gen.h **** 
 151:Middlewares/LVGL/GUI/lvgl/src/core/lv_obj_style_gen.h **** static inline lv_color_t lv_obj_get_style_bg_grad_color_filtered(const struct _lv_obj_t * obj, uint
 152:Middlewares/LVGL/GUI/lvgl/src/core/lv_obj_style_gen.h **** {
 153:Middlewares/LVGL/GUI/lvgl/src/core/lv_obj_style_gen.h ****     lv_style_value_t v = lv_obj_get_style_prop(obj, part, LV_STYLE_BG_GRAD_COLOR_FILTERED);
 154:Middlewares/LVGL/GUI/lvgl/src/core/lv_obj_style_gen.h ****     return v.color;
 155:Middlewares/LVGL/GUI/lvgl/src/core/lv_obj_style_gen.h **** }
 156:Middlewares/LVGL/GUI/lvgl/src/core/lv_obj_style_gen.h **** 
 157:Middlewares/LVGL/GUI/lvgl/src/core/lv_obj_style_gen.h **** static inline lv_grad_dir_t lv_obj_get_style_bg_grad_dir(const struct _lv_obj_t * obj, uint32_t par
 158:Middlewares/LVGL/GUI/lvgl/src/core/lv_obj_style_gen.h **** {
 159:Middlewares/LVGL/GUI/lvgl/src/core/lv_obj_style_gen.h ****     lv_style_value_t v = lv_obj_get_style_prop(obj, part, LV_STYLE_BG_GRAD_DIR);
 160:Middlewares/LVGL/GUI/lvgl/src/core/lv_obj_style_gen.h ****     return (lv_grad_dir_t)v.num;
 161:Middlewares/LVGL/GUI/lvgl/src/core/lv_obj_style_gen.h **** }
 162:Middlewares/LVGL/GUI/lvgl/src/core/lv_obj_style_gen.h **** 
 163:Middlewares/LVGL/GUI/lvgl/src/core/lv_obj_style_gen.h **** static inline lv_coord_t lv_obj_get_style_bg_main_stop(const struct _lv_obj_t * obj, uint32_t part)
 164:Middlewares/LVGL/GUI/lvgl/src/core/lv_obj_style_gen.h **** {
 165:Middlewares/LVGL/GUI/lvgl/src/core/lv_obj_style_gen.h ****     lv_style_value_t v = lv_obj_get_style_prop(obj, part, LV_STYLE_BG_MAIN_STOP);
 166:Middlewares/LVGL/GUI/lvgl/src/core/lv_obj_style_gen.h ****     return (lv_coord_t)v.num;
 167:Middlewares/LVGL/GUI/lvgl/src/core/lv_obj_style_gen.h **** }
 168:Middlewares/LVGL/GUI/lvgl/src/core/lv_obj_style_gen.h **** 
 169:Middlewares/LVGL/GUI/lvgl/src/core/lv_obj_style_gen.h **** static inline lv_coord_t lv_obj_get_style_bg_grad_stop(const struct _lv_obj_t * obj, uint32_t part)
 170:Middlewares/LVGL/GUI/lvgl/src/core/lv_obj_style_gen.h **** {
 171:Middlewares/LVGL/GUI/lvgl/src/core/lv_obj_style_gen.h ****     lv_style_value_t v = lv_obj_get_style_prop(obj, part, LV_STYLE_BG_GRAD_STOP);
 172:Middlewares/LVGL/GUI/lvgl/src/core/lv_obj_style_gen.h ****     return (lv_coord_t)v.num;
ARM GAS  C:\Users\ADMINI~1\AppData\Local\Temp\cchMZgMB.s 			page 32


 173:Middlewares/LVGL/GUI/lvgl/src/core/lv_obj_style_gen.h **** }
 174:Middlewares/LVGL/GUI/lvgl/src/core/lv_obj_style_gen.h **** 
 175:Middlewares/LVGL/GUI/lvgl/src/core/lv_obj_style_gen.h **** static inline const lv_grad_dsc_t * lv_obj_get_style_bg_grad(const struct _lv_obj_t * obj, uint32_t
 176:Middlewares/LVGL/GUI/lvgl/src/core/lv_obj_style_gen.h **** {
 177:Middlewares/LVGL/GUI/lvgl/src/core/lv_obj_style_gen.h ****     lv_style_value_t v = lv_obj_get_style_prop(obj, part, LV_STYLE_BG_GRAD);
 178:Middlewares/LVGL/GUI/lvgl/src/core/lv_obj_style_gen.h ****     return (const lv_grad_dsc_t *)v.ptr;
 179:Middlewares/LVGL/GUI/lvgl/src/core/lv_obj_style_gen.h **** }
 180:Middlewares/LVGL/GUI/lvgl/src/core/lv_obj_style_gen.h **** 
 181:Middlewares/LVGL/GUI/lvgl/src/core/lv_obj_style_gen.h **** static inline lv_dither_mode_t lv_obj_get_style_bg_dither_mode(const struct _lv_obj_t * obj, uint32
 182:Middlewares/LVGL/GUI/lvgl/src/core/lv_obj_style_gen.h **** {
 183:Middlewares/LVGL/GUI/lvgl/src/core/lv_obj_style_gen.h ****     lv_style_value_t v = lv_obj_get_style_prop(obj, part, LV_STYLE_BG_DITHER_MODE);
 184:Middlewares/LVGL/GUI/lvgl/src/core/lv_obj_style_gen.h ****     return (lv_dither_mode_t)v.num;
 185:Middlewares/LVGL/GUI/lvgl/src/core/lv_obj_style_gen.h **** }
 186:Middlewares/LVGL/GUI/lvgl/src/core/lv_obj_style_gen.h **** 
 187:Middlewares/LVGL/GUI/lvgl/src/core/lv_obj_style_gen.h **** static inline const void * lv_obj_get_style_bg_img_src(const struct _lv_obj_t * obj, uint32_t part)
 188:Middlewares/LVGL/GUI/lvgl/src/core/lv_obj_style_gen.h **** {
 189:Middlewares/LVGL/GUI/lvgl/src/core/lv_obj_style_gen.h ****     lv_style_value_t v = lv_obj_get_style_prop(obj, part, LV_STYLE_BG_IMG_SRC);
 190:Middlewares/LVGL/GUI/lvgl/src/core/lv_obj_style_gen.h ****     return (const void *)v.ptr;
 191:Middlewares/LVGL/GUI/lvgl/src/core/lv_obj_style_gen.h **** }
 192:Middlewares/LVGL/GUI/lvgl/src/core/lv_obj_style_gen.h **** 
 193:Middlewares/LVGL/GUI/lvgl/src/core/lv_obj_style_gen.h **** static inline lv_opa_t lv_obj_get_style_bg_img_opa(const struct _lv_obj_t * obj, uint32_t part)
 194:Middlewares/LVGL/GUI/lvgl/src/core/lv_obj_style_gen.h **** {
 195:Middlewares/LVGL/GUI/lvgl/src/core/lv_obj_style_gen.h ****     lv_style_value_t v = lv_obj_get_style_prop(obj, part, LV_STYLE_BG_IMG_OPA);
 196:Middlewares/LVGL/GUI/lvgl/src/core/lv_obj_style_gen.h ****     return (lv_opa_t)v.num;
 197:Middlewares/LVGL/GUI/lvgl/src/core/lv_obj_style_gen.h **** }
 198:Middlewares/LVGL/GUI/lvgl/src/core/lv_obj_style_gen.h **** 
 199:Middlewares/LVGL/GUI/lvgl/src/core/lv_obj_style_gen.h **** static inline lv_color_t lv_obj_get_style_bg_img_recolor(const struct _lv_obj_t * obj, uint32_t par
 200:Middlewares/LVGL/GUI/lvgl/src/core/lv_obj_style_gen.h **** {
 201:Middlewares/LVGL/GUI/lvgl/src/core/lv_obj_style_gen.h ****     lv_style_value_t v = lv_obj_get_style_prop(obj, part, LV_STYLE_BG_IMG_RECOLOR);
 202:Middlewares/LVGL/GUI/lvgl/src/core/lv_obj_style_gen.h ****     return v.color;
 203:Middlewares/LVGL/GUI/lvgl/src/core/lv_obj_style_gen.h **** }
 204:Middlewares/LVGL/GUI/lvgl/src/core/lv_obj_style_gen.h **** 
 205:Middlewares/LVGL/GUI/lvgl/src/core/lv_obj_style_gen.h **** static inline lv_color_t lv_obj_get_style_bg_img_recolor_filtered(const struct _lv_obj_t * obj, uin
 206:Middlewares/LVGL/GUI/lvgl/src/core/lv_obj_style_gen.h **** {
 207:Middlewares/LVGL/GUI/lvgl/src/core/lv_obj_style_gen.h ****     lv_style_value_t v = lv_obj_get_style_prop(obj, part, LV_STYLE_BG_IMG_RECOLOR_FILTERED);
 208:Middlewares/LVGL/GUI/lvgl/src/core/lv_obj_style_gen.h ****     return v.color;
 209:Middlewares/LVGL/GUI/lvgl/src/core/lv_obj_style_gen.h **** }
 210:Middlewares/LVGL/GUI/lvgl/src/core/lv_obj_style_gen.h **** 
 211:Middlewares/LVGL/GUI/lvgl/src/core/lv_obj_style_gen.h **** static inline lv_opa_t lv_obj_get_style_bg_img_recolor_opa(const struct _lv_obj_t * obj, uint32_t p
 212:Middlewares/LVGL/GUI/lvgl/src/core/lv_obj_style_gen.h **** {
 213:Middlewares/LVGL/GUI/lvgl/src/core/lv_obj_style_gen.h ****     lv_style_value_t v = lv_obj_get_style_prop(obj, part, LV_STYLE_BG_IMG_RECOLOR_OPA);
 214:Middlewares/LVGL/GUI/lvgl/src/core/lv_obj_style_gen.h ****     return (lv_opa_t)v.num;
 215:Middlewares/LVGL/GUI/lvgl/src/core/lv_obj_style_gen.h **** }
 216:Middlewares/LVGL/GUI/lvgl/src/core/lv_obj_style_gen.h **** 
 217:Middlewares/LVGL/GUI/lvgl/src/core/lv_obj_style_gen.h **** static inline bool lv_obj_get_style_bg_img_tiled(const struct _lv_obj_t * obj, uint32_t part)
 218:Middlewares/LVGL/GUI/lvgl/src/core/lv_obj_style_gen.h **** {
 219:Middlewares/LVGL/GUI/lvgl/src/core/lv_obj_style_gen.h ****     lv_style_value_t v = lv_obj_get_style_prop(obj, part, LV_STYLE_BG_IMG_TILED);
 220:Middlewares/LVGL/GUI/lvgl/src/core/lv_obj_style_gen.h ****     return (bool)v.num;
 221:Middlewares/LVGL/GUI/lvgl/src/core/lv_obj_style_gen.h **** }
 222:Middlewares/LVGL/GUI/lvgl/src/core/lv_obj_style_gen.h **** 
 223:Middlewares/LVGL/GUI/lvgl/src/core/lv_obj_style_gen.h **** static inline lv_color_t lv_obj_get_style_border_color(const struct _lv_obj_t * obj, uint32_t part)
 224:Middlewares/LVGL/GUI/lvgl/src/core/lv_obj_style_gen.h **** {
 225:Middlewares/LVGL/GUI/lvgl/src/core/lv_obj_style_gen.h ****     lv_style_value_t v = lv_obj_get_style_prop(obj, part, LV_STYLE_BORDER_COLOR);
 226:Middlewares/LVGL/GUI/lvgl/src/core/lv_obj_style_gen.h ****     return v.color;
 227:Middlewares/LVGL/GUI/lvgl/src/core/lv_obj_style_gen.h **** }
 228:Middlewares/LVGL/GUI/lvgl/src/core/lv_obj_style_gen.h **** 
 229:Middlewares/LVGL/GUI/lvgl/src/core/lv_obj_style_gen.h **** static inline lv_color_t lv_obj_get_style_border_color_filtered(const struct _lv_obj_t * obj, uint3
ARM GAS  C:\Users\ADMINI~1\AppData\Local\Temp\cchMZgMB.s 			page 33


 230:Middlewares/LVGL/GUI/lvgl/src/core/lv_obj_style_gen.h **** {
 231:Middlewares/LVGL/GUI/lvgl/src/core/lv_obj_style_gen.h ****     lv_style_value_t v = lv_obj_get_style_prop(obj, part, LV_STYLE_BORDER_COLOR_FILTERED);
 232:Middlewares/LVGL/GUI/lvgl/src/core/lv_obj_style_gen.h ****     return v.color;
 233:Middlewares/LVGL/GUI/lvgl/src/core/lv_obj_style_gen.h **** }
 234:Middlewares/LVGL/GUI/lvgl/src/core/lv_obj_style_gen.h **** 
 235:Middlewares/LVGL/GUI/lvgl/src/core/lv_obj_style_gen.h **** static inline lv_opa_t lv_obj_get_style_border_opa(const struct _lv_obj_t * obj, uint32_t part)
 236:Middlewares/LVGL/GUI/lvgl/src/core/lv_obj_style_gen.h **** {
 237:Middlewares/LVGL/GUI/lvgl/src/core/lv_obj_style_gen.h ****     lv_style_value_t v = lv_obj_get_style_prop(obj, part, LV_STYLE_BORDER_OPA);
 238:Middlewares/LVGL/GUI/lvgl/src/core/lv_obj_style_gen.h ****     return (lv_opa_t)v.num;
 239:Middlewares/LVGL/GUI/lvgl/src/core/lv_obj_style_gen.h **** }
 240:Middlewares/LVGL/GUI/lvgl/src/core/lv_obj_style_gen.h **** 
 241:Middlewares/LVGL/GUI/lvgl/src/core/lv_obj_style_gen.h **** static inline lv_coord_t lv_obj_get_style_border_width(const struct _lv_obj_t * obj, uint32_t part)
 793              		.loc 2 241 26 view .LVU190
 794              	.LBB107:
 242:Middlewares/LVGL/GUI/lvgl/src/core/lv_obj_style_gen.h **** {
 243:Middlewares/LVGL/GUI/lvgl/src/core/lv_obj_style_gen.h ****     lv_style_value_t v = lv_obj_get_style_prop(obj, part, LV_STYLE_BORDER_WIDTH);
 795              		.loc 2 243 5 view .LVU191
 796              		.loc 2 243 26 is_stmt 0 view .LVU192
 797 0052 41F23202 		movw	r2, #4146
 798 0056 0021     		movs	r1, #0
 799 0058 3046     		mov	r0, r6
 800              	.LVL71:
 801              		.loc 2 243 26 view .LVU193
 802 005a FFF7FEFF 		bl	lv_obj_get_style_prop
 803              	.LVL72:
 804 005e 0546     		mov	r5, r0
 244:Middlewares/LVGL/GUI/lvgl/src/core/lv_obj_style_gen.h ****     return (lv_coord_t)v.num;
 805              		.loc 2 244 5 is_stmt 1 view .LVU194
 806              	.LVL73:
 807              		.loc 2 244 5 is_stmt 0 view .LVU195
 808              	.LBE107:
 809              	.LBE106:
 152:Middlewares/LVGL/GUI/lvgl/src/core/lv_obj_scroll.c ****         child_res -= (obj->coords.y2 - pad_bottom - border_width);
 810              		.loc 1 152 5 is_stmt 1 view .LVU196
 152:Middlewares/LVGL/GUI/lvgl/src/core/lv_obj_scroll.c ****         child_res -= (obj->coords.y2 - pad_bottom - border_width);
 811              		.loc 1 152 7 is_stmt 0 view .LVU197
 812 0060 0F4B     		ldr	r3, .L51
 813 0062 9F42     		cmp	r7, r3
 814 0064 04D0     		beq	.L47
 153:Middlewares/LVGL/GUI/lvgl/src/core/lv_obj_scroll.c ****     }
 815              		.loc 1 153 9 is_stmt 1 view .LVU198
 153:Middlewares/LVGL/GUI/lvgl/src/core/lv_obj_scroll.c ****     }
 816              		.loc 1 153 34 is_stmt 0 view .LVU199
 817 0066 336A     		ldr	r3, [r6, #32]
 153:Middlewares/LVGL/GUI/lvgl/src/core/lv_obj_scroll.c ****     }
 818              		.loc 1 153 38 view .LVU200
 819 0068 A3EB0803 		sub	r3, r3, r8
 153:Middlewares/LVGL/GUI/lvgl/src/core/lv_obj_scroll.c ****     }
 820              		.loc 1 153 51 view .LVU201
 821 006c 1B1A     		subs	r3, r3, r0
 153:Middlewares/LVGL/GUI/lvgl/src/core/lv_obj_scroll.c ****     }
 822              		.loc 1 153 19 view .LVU202
 823 006e FF1A     		subs	r7, r7, r3
 824              	.LVL74:
 825              	.L47:
 156:Middlewares/LVGL/GUI/lvgl/src/core/lv_obj_scroll.c ****     self_h = self_h - (lv_obj_get_height(obj) - pad_top - pad_bottom - 2 * border_width);
 826              		.loc 1 156 5 is_stmt 1 view .LVU203
ARM GAS  C:\Users\ADMINI~1\AppData\Local\Temp\cchMZgMB.s 			page 34


 156:Middlewares/LVGL/GUI/lvgl/src/core/lv_obj_scroll.c ****     self_h = self_h - (lv_obj_get_height(obj) - pad_top - pad_bottom - 2 * border_width);
 827              		.loc 1 156 25 is_stmt 0 view .LVU204
 828 0070 3046     		mov	r0, r6
 829              	.LVL75:
 156:Middlewares/LVGL/GUI/lvgl/src/core/lv_obj_scroll.c ****     self_h = self_h - (lv_obj_get_height(obj) - pad_top - pad_bottom - 2 * border_width);
 830              		.loc 1 156 25 view .LVU205
 831 0072 FFF7FEFF 		bl	lv_obj_get_self_height
 832              	.LVL76:
 833 0076 0446     		mov	r4, r0
 834              	.LVL77:
 157:Middlewares/LVGL/GUI/lvgl/src/core/lv_obj_scroll.c ****     self_h -= lv_obj_get_scroll_y(obj);
 835              		.loc 1 157 5 is_stmt 1 view .LVU206
 157:Middlewares/LVGL/GUI/lvgl/src/core/lv_obj_scroll.c ****     self_h -= lv_obj_get_scroll_y(obj);
 836              		.loc 1 157 24 is_stmt 0 view .LVU207
 837 0078 3046     		mov	r0, r6
 838              	.LVL78:
 157:Middlewares/LVGL/GUI/lvgl/src/core/lv_obj_scroll.c ****     self_h -= lv_obj_get_scroll_y(obj);
 839              		.loc 1 157 24 view .LVU208
 840 007a FFF7FEFF 		bl	lv_obj_get_height
 841              	.LVL79:
 157:Middlewares/LVGL/GUI/lvgl/src/core/lv_obj_scroll.c ****     self_h -= lv_obj_get_scroll_y(obj);
 842              		.loc 1 157 47 view .LVU209
 843 007e A0EB0903 		sub	r3, r0, r9
 157:Middlewares/LVGL/GUI/lvgl/src/core/lv_obj_scroll.c ****     self_h -= lv_obj_get_scroll_y(obj);
 844              		.loc 1 157 57 view .LVU210
 845 0082 A3EB0803 		sub	r3, r3, r8
 157:Middlewares/LVGL/GUI/lvgl/src/core/lv_obj_scroll.c ****     self_h -= lv_obj_get_scroll_y(obj);
 846              		.loc 1 157 70 view .LVU211
 847 0086 A3EB4500 		sub	r0, r3, r5, lsl #1
 157:Middlewares/LVGL/GUI/lvgl/src/core/lv_obj_scroll.c ****     self_h -= lv_obj_get_scroll_y(obj);
 848              		.loc 1 157 12 view .LVU212
 849 008a 241A     		subs	r4, r4, r0
 850              	.LVL80:
 158:Middlewares/LVGL/GUI/lvgl/src/core/lv_obj_scroll.c ****     return LV_MAX(child_res, self_h);
 851              		.loc 1 158 5 is_stmt 1 view .LVU213
 158:Middlewares/LVGL/GUI/lvgl/src/core/lv_obj_scroll.c ****     return LV_MAX(child_res, self_h);
 852              		.loc 1 158 15 is_stmt 0 view .LVU214
 853 008c 3046     		mov	r0, r6
 854 008e FFF7FEFF 		bl	lv_obj_get_scroll_y
 855              	.LVL81:
 158:Middlewares/LVGL/GUI/lvgl/src/core/lv_obj_scroll.c ****     return LV_MAX(child_res, self_h);
 856              		.loc 1 158 12 view .LVU215
 857 0092 201A     		subs	r0, r4, r0
 858              	.LVL82:
 159:Middlewares/LVGL/GUI/lvgl/src/core/lv_obj_scroll.c **** }
 859              		.loc 1 159 5 is_stmt 1 view .LVU216
 160:Middlewares/LVGL/GUI/lvgl/src/core/lv_obj_scroll.c **** 
 860              		.loc 1 160 1 is_stmt 0 view .LVU217
 861 0094 B842     		cmp	r0, r7
 862 0096 B8BF     		it	lt
 863 0098 3846     		movlt	r0, r7
 864              	.LVL83:
 160:Middlewares/LVGL/GUI/lvgl/src/core/lv_obj_scroll.c **** 
 865              		.loc 1 160 1 view .LVU218
 866 009a BDE8F883 		pop	{r3, r4, r5, r6, r7, r8, r9, pc}
 867              	.LVL84:
 868              	.L52:
ARM GAS  C:\Users\ADMINI~1\AppData\Local\Temp\cchMZgMB.s 			page 35


 160:Middlewares/LVGL/GUI/lvgl/src/core/lv_obj_scroll.c **** 
 869              		.loc 1 160 1 view .LVU219
 870 009e 00BF     		.align	2
 871              	.L51:
 872 00a0 010000E0 		.word	-536870911
 873 00a4 01000400 		.word	262145
 874              		.cfi_endproc
 875              	.LFE170:
 877              		.section	.text.lv_obj_get_scroll_left,"ax",%progbits
 878              		.align	1
 879              		.global	lv_obj_get_scroll_left
 880              		.syntax unified
 881              		.thumb
 882              		.thumb_func
 884              	lv_obj_get_scroll_left:
 885              	.LVL85:
 886              	.LFB171:
 163:Middlewares/LVGL/GUI/lvgl/src/core/lv_obj_scroll.c ****     LV_ASSERT_OBJ(obj, MY_CLASS);
 887              		.loc 1 163 1 is_stmt 1 view -0
 888              		.cfi_startproc
 889              		@ args = 0, pretend = 0, frame = 0
 890              		@ frame_needed = 0, uses_anonymous_args = 0
 163:Middlewares/LVGL/GUI/lvgl/src/core/lv_obj_scroll.c ****     LV_ASSERT_OBJ(obj, MY_CLASS);
 891              		.loc 1 163 1 is_stmt 0 view .LVU221
 892 0000 2DE9F84F 		push	{r3, r4, r5, r6, r7, r8, r9, r10, fp, lr}
 893              	.LCFI9:
 894              		.cfi_def_cfa_offset 40
 895              		.cfi_offset 3, -40
 896              		.cfi_offset 4, -36
 897              		.cfi_offset 5, -32
 898              		.cfi_offset 6, -28
 899              		.cfi_offset 7, -24
 900              		.cfi_offset 8, -20
 901              		.cfi_offset 9, -16
 902              		.cfi_offset 10, -12
 903              		.cfi_offset 11, -8
 904              		.cfi_offset 14, -4
 905 0004 0446     		mov	r4, r0
 164:Middlewares/LVGL/GUI/lvgl/src/core/lv_obj_scroll.c **** 
 906              		.loc 1 164 5 is_stmt 1 view .LVU222
 164:Middlewares/LVGL/GUI/lvgl/src/core/lv_obj_scroll.c **** 
 907              		.loc 1 164 5 view .LVU223
 164:Middlewares/LVGL/GUI/lvgl/src/core/lv_obj_scroll.c **** 
 908              		.loc 1 164 5 view .LVU224
 168:Middlewares/LVGL/GUI/lvgl/src/core/lv_obj_scroll.c ****         if(obj->spec_attr == NULL) return 0;
 909              		.loc 1 168 5 view .LVU225
 910              	.LVL86:
 911              	.LBB108:
 912              	.LBI108:
 245:Middlewares/LVGL/GUI/lvgl/src/core/lv_obj_style_gen.h **** }
 246:Middlewares/LVGL/GUI/lvgl/src/core/lv_obj_style_gen.h **** 
 247:Middlewares/LVGL/GUI/lvgl/src/core/lv_obj_style_gen.h **** static inline lv_border_side_t lv_obj_get_style_border_side(const struct _lv_obj_t * obj, uint32_t 
 248:Middlewares/LVGL/GUI/lvgl/src/core/lv_obj_style_gen.h **** {
 249:Middlewares/LVGL/GUI/lvgl/src/core/lv_obj_style_gen.h ****     lv_style_value_t v = lv_obj_get_style_prop(obj, part, LV_STYLE_BORDER_SIDE);
 250:Middlewares/LVGL/GUI/lvgl/src/core/lv_obj_style_gen.h ****     return (lv_border_side_t)v.num;
 251:Middlewares/LVGL/GUI/lvgl/src/core/lv_obj_style_gen.h **** }
 252:Middlewares/LVGL/GUI/lvgl/src/core/lv_obj_style_gen.h **** 
ARM GAS  C:\Users\ADMINI~1\AppData\Local\Temp\cchMZgMB.s 			page 36


 253:Middlewares/LVGL/GUI/lvgl/src/core/lv_obj_style_gen.h **** static inline bool lv_obj_get_style_border_post(const struct _lv_obj_t * obj, uint32_t part)
 254:Middlewares/LVGL/GUI/lvgl/src/core/lv_obj_style_gen.h **** {
 255:Middlewares/LVGL/GUI/lvgl/src/core/lv_obj_style_gen.h ****     lv_style_value_t v = lv_obj_get_style_prop(obj, part, LV_STYLE_BORDER_POST);
 256:Middlewares/LVGL/GUI/lvgl/src/core/lv_obj_style_gen.h ****     return (bool)v.num;
 257:Middlewares/LVGL/GUI/lvgl/src/core/lv_obj_style_gen.h **** }
 258:Middlewares/LVGL/GUI/lvgl/src/core/lv_obj_style_gen.h **** 
 259:Middlewares/LVGL/GUI/lvgl/src/core/lv_obj_style_gen.h **** static inline lv_coord_t lv_obj_get_style_outline_width(const struct _lv_obj_t * obj, uint32_t part
 260:Middlewares/LVGL/GUI/lvgl/src/core/lv_obj_style_gen.h **** {
 261:Middlewares/LVGL/GUI/lvgl/src/core/lv_obj_style_gen.h ****     lv_style_value_t v = lv_obj_get_style_prop(obj, part, LV_STYLE_OUTLINE_WIDTH);
 262:Middlewares/LVGL/GUI/lvgl/src/core/lv_obj_style_gen.h ****     return (lv_coord_t)v.num;
 263:Middlewares/LVGL/GUI/lvgl/src/core/lv_obj_style_gen.h **** }
 264:Middlewares/LVGL/GUI/lvgl/src/core/lv_obj_style_gen.h **** 
 265:Middlewares/LVGL/GUI/lvgl/src/core/lv_obj_style_gen.h **** static inline lv_color_t lv_obj_get_style_outline_color(const struct _lv_obj_t * obj, uint32_t part
 266:Middlewares/LVGL/GUI/lvgl/src/core/lv_obj_style_gen.h **** {
 267:Middlewares/LVGL/GUI/lvgl/src/core/lv_obj_style_gen.h ****     lv_style_value_t v = lv_obj_get_style_prop(obj, part, LV_STYLE_OUTLINE_COLOR);
 268:Middlewares/LVGL/GUI/lvgl/src/core/lv_obj_style_gen.h ****     return v.color;
 269:Middlewares/LVGL/GUI/lvgl/src/core/lv_obj_style_gen.h **** }
 270:Middlewares/LVGL/GUI/lvgl/src/core/lv_obj_style_gen.h **** 
 271:Middlewares/LVGL/GUI/lvgl/src/core/lv_obj_style_gen.h **** static inline lv_color_t lv_obj_get_style_outline_color_filtered(const struct _lv_obj_t * obj, uint
 272:Middlewares/LVGL/GUI/lvgl/src/core/lv_obj_style_gen.h **** {
 273:Middlewares/LVGL/GUI/lvgl/src/core/lv_obj_style_gen.h ****     lv_style_value_t v = lv_obj_get_style_prop(obj, part, LV_STYLE_OUTLINE_COLOR_FILTERED);
 274:Middlewares/LVGL/GUI/lvgl/src/core/lv_obj_style_gen.h ****     return v.color;
 275:Middlewares/LVGL/GUI/lvgl/src/core/lv_obj_style_gen.h **** }
 276:Middlewares/LVGL/GUI/lvgl/src/core/lv_obj_style_gen.h **** 
 277:Middlewares/LVGL/GUI/lvgl/src/core/lv_obj_style_gen.h **** static inline lv_opa_t lv_obj_get_style_outline_opa(const struct _lv_obj_t * obj, uint32_t part)
 278:Middlewares/LVGL/GUI/lvgl/src/core/lv_obj_style_gen.h **** {
 279:Middlewares/LVGL/GUI/lvgl/src/core/lv_obj_style_gen.h ****     lv_style_value_t v = lv_obj_get_style_prop(obj, part, LV_STYLE_OUTLINE_OPA);
 280:Middlewares/LVGL/GUI/lvgl/src/core/lv_obj_style_gen.h ****     return (lv_opa_t)v.num;
 281:Middlewares/LVGL/GUI/lvgl/src/core/lv_obj_style_gen.h **** }
 282:Middlewares/LVGL/GUI/lvgl/src/core/lv_obj_style_gen.h **** 
 283:Middlewares/LVGL/GUI/lvgl/src/core/lv_obj_style_gen.h **** static inline lv_coord_t lv_obj_get_style_outline_pad(const struct _lv_obj_t * obj, uint32_t part)
 284:Middlewares/LVGL/GUI/lvgl/src/core/lv_obj_style_gen.h **** {
 285:Middlewares/LVGL/GUI/lvgl/src/core/lv_obj_style_gen.h ****     lv_style_value_t v = lv_obj_get_style_prop(obj, part, LV_STYLE_OUTLINE_PAD);
 286:Middlewares/LVGL/GUI/lvgl/src/core/lv_obj_style_gen.h ****     return (lv_coord_t)v.num;
 287:Middlewares/LVGL/GUI/lvgl/src/core/lv_obj_style_gen.h **** }
 288:Middlewares/LVGL/GUI/lvgl/src/core/lv_obj_style_gen.h **** 
 289:Middlewares/LVGL/GUI/lvgl/src/core/lv_obj_style_gen.h **** static inline lv_coord_t lv_obj_get_style_shadow_width(const struct _lv_obj_t * obj, uint32_t part)
 290:Middlewares/LVGL/GUI/lvgl/src/core/lv_obj_style_gen.h **** {
 291:Middlewares/LVGL/GUI/lvgl/src/core/lv_obj_style_gen.h ****     lv_style_value_t v = lv_obj_get_style_prop(obj, part, LV_STYLE_SHADOW_WIDTH);
 292:Middlewares/LVGL/GUI/lvgl/src/core/lv_obj_style_gen.h ****     return (lv_coord_t)v.num;
 293:Middlewares/LVGL/GUI/lvgl/src/core/lv_obj_style_gen.h **** }
 294:Middlewares/LVGL/GUI/lvgl/src/core/lv_obj_style_gen.h **** 
 295:Middlewares/LVGL/GUI/lvgl/src/core/lv_obj_style_gen.h **** static inline lv_coord_t lv_obj_get_style_shadow_ofs_x(const struct _lv_obj_t * obj, uint32_t part)
 296:Middlewares/LVGL/GUI/lvgl/src/core/lv_obj_style_gen.h **** {
 297:Middlewares/LVGL/GUI/lvgl/src/core/lv_obj_style_gen.h ****     lv_style_value_t v = lv_obj_get_style_prop(obj, part, LV_STYLE_SHADOW_OFS_X);
 298:Middlewares/LVGL/GUI/lvgl/src/core/lv_obj_style_gen.h ****     return (lv_coord_t)v.num;
 299:Middlewares/LVGL/GUI/lvgl/src/core/lv_obj_style_gen.h **** }
 300:Middlewares/LVGL/GUI/lvgl/src/core/lv_obj_style_gen.h **** 
 301:Middlewares/LVGL/GUI/lvgl/src/core/lv_obj_style_gen.h **** static inline lv_coord_t lv_obj_get_style_shadow_ofs_y(const struct _lv_obj_t * obj, uint32_t part)
 302:Middlewares/LVGL/GUI/lvgl/src/core/lv_obj_style_gen.h **** {
 303:Middlewares/LVGL/GUI/lvgl/src/core/lv_obj_style_gen.h ****     lv_style_value_t v = lv_obj_get_style_prop(obj, part, LV_STYLE_SHADOW_OFS_Y);
 304:Middlewares/LVGL/GUI/lvgl/src/core/lv_obj_style_gen.h ****     return (lv_coord_t)v.num;
 305:Middlewares/LVGL/GUI/lvgl/src/core/lv_obj_style_gen.h **** }
 306:Middlewares/LVGL/GUI/lvgl/src/core/lv_obj_style_gen.h **** 
 307:Middlewares/LVGL/GUI/lvgl/src/core/lv_obj_style_gen.h **** static inline lv_coord_t lv_obj_get_style_shadow_spread(const struct _lv_obj_t * obj, uint32_t part
 308:Middlewares/LVGL/GUI/lvgl/src/core/lv_obj_style_gen.h **** {
 309:Middlewares/LVGL/GUI/lvgl/src/core/lv_obj_style_gen.h ****     lv_style_value_t v = lv_obj_get_style_prop(obj, part, LV_STYLE_SHADOW_SPREAD);
ARM GAS  C:\Users\ADMINI~1\AppData\Local\Temp\cchMZgMB.s 			page 37


 310:Middlewares/LVGL/GUI/lvgl/src/core/lv_obj_style_gen.h ****     return (lv_coord_t)v.num;
 311:Middlewares/LVGL/GUI/lvgl/src/core/lv_obj_style_gen.h **** }
 312:Middlewares/LVGL/GUI/lvgl/src/core/lv_obj_style_gen.h **** 
 313:Middlewares/LVGL/GUI/lvgl/src/core/lv_obj_style_gen.h **** static inline lv_color_t lv_obj_get_style_shadow_color(const struct _lv_obj_t * obj, uint32_t part)
 314:Middlewares/LVGL/GUI/lvgl/src/core/lv_obj_style_gen.h **** {
 315:Middlewares/LVGL/GUI/lvgl/src/core/lv_obj_style_gen.h ****     lv_style_value_t v = lv_obj_get_style_prop(obj, part, LV_STYLE_SHADOW_COLOR);
 316:Middlewares/LVGL/GUI/lvgl/src/core/lv_obj_style_gen.h ****     return v.color;
 317:Middlewares/LVGL/GUI/lvgl/src/core/lv_obj_style_gen.h **** }
 318:Middlewares/LVGL/GUI/lvgl/src/core/lv_obj_style_gen.h **** 
 319:Middlewares/LVGL/GUI/lvgl/src/core/lv_obj_style_gen.h **** static inline lv_color_t lv_obj_get_style_shadow_color_filtered(const struct _lv_obj_t * obj, uint3
 320:Middlewares/LVGL/GUI/lvgl/src/core/lv_obj_style_gen.h **** {
 321:Middlewares/LVGL/GUI/lvgl/src/core/lv_obj_style_gen.h ****     lv_style_value_t v = lv_obj_get_style_prop(obj, part, LV_STYLE_SHADOW_COLOR_FILTERED);
 322:Middlewares/LVGL/GUI/lvgl/src/core/lv_obj_style_gen.h ****     return v.color;
 323:Middlewares/LVGL/GUI/lvgl/src/core/lv_obj_style_gen.h **** }
 324:Middlewares/LVGL/GUI/lvgl/src/core/lv_obj_style_gen.h **** 
 325:Middlewares/LVGL/GUI/lvgl/src/core/lv_obj_style_gen.h **** static inline lv_opa_t lv_obj_get_style_shadow_opa(const struct _lv_obj_t * obj, uint32_t part)
 326:Middlewares/LVGL/GUI/lvgl/src/core/lv_obj_style_gen.h **** {
 327:Middlewares/LVGL/GUI/lvgl/src/core/lv_obj_style_gen.h ****     lv_style_value_t v = lv_obj_get_style_prop(obj, part, LV_STYLE_SHADOW_OPA);
 328:Middlewares/LVGL/GUI/lvgl/src/core/lv_obj_style_gen.h ****     return (lv_opa_t)v.num;
 329:Middlewares/LVGL/GUI/lvgl/src/core/lv_obj_style_gen.h **** }
 330:Middlewares/LVGL/GUI/lvgl/src/core/lv_obj_style_gen.h **** 
 331:Middlewares/LVGL/GUI/lvgl/src/core/lv_obj_style_gen.h **** static inline lv_opa_t lv_obj_get_style_img_opa(const struct _lv_obj_t * obj, uint32_t part)
 332:Middlewares/LVGL/GUI/lvgl/src/core/lv_obj_style_gen.h **** {
 333:Middlewares/LVGL/GUI/lvgl/src/core/lv_obj_style_gen.h ****     lv_style_value_t v = lv_obj_get_style_prop(obj, part, LV_STYLE_IMG_OPA);
 334:Middlewares/LVGL/GUI/lvgl/src/core/lv_obj_style_gen.h ****     return (lv_opa_t)v.num;
 335:Middlewares/LVGL/GUI/lvgl/src/core/lv_obj_style_gen.h **** }
 336:Middlewares/LVGL/GUI/lvgl/src/core/lv_obj_style_gen.h **** 
 337:Middlewares/LVGL/GUI/lvgl/src/core/lv_obj_style_gen.h **** static inline lv_color_t lv_obj_get_style_img_recolor(const struct _lv_obj_t * obj, uint32_t part)
 338:Middlewares/LVGL/GUI/lvgl/src/core/lv_obj_style_gen.h **** {
 339:Middlewares/LVGL/GUI/lvgl/src/core/lv_obj_style_gen.h ****     lv_style_value_t v = lv_obj_get_style_prop(obj, part, LV_STYLE_IMG_RECOLOR);
 340:Middlewares/LVGL/GUI/lvgl/src/core/lv_obj_style_gen.h ****     return v.color;
 341:Middlewares/LVGL/GUI/lvgl/src/core/lv_obj_style_gen.h **** }
 342:Middlewares/LVGL/GUI/lvgl/src/core/lv_obj_style_gen.h **** 
 343:Middlewares/LVGL/GUI/lvgl/src/core/lv_obj_style_gen.h **** static inline lv_color_t lv_obj_get_style_img_recolor_filtered(const struct _lv_obj_t * obj, uint32
 344:Middlewares/LVGL/GUI/lvgl/src/core/lv_obj_style_gen.h **** {
 345:Middlewares/LVGL/GUI/lvgl/src/core/lv_obj_style_gen.h ****     lv_style_value_t v = lv_obj_get_style_prop(obj, part, LV_STYLE_IMG_RECOLOR_FILTERED);
 346:Middlewares/LVGL/GUI/lvgl/src/core/lv_obj_style_gen.h ****     return v.color;
 347:Middlewares/LVGL/GUI/lvgl/src/core/lv_obj_style_gen.h **** }
 348:Middlewares/LVGL/GUI/lvgl/src/core/lv_obj_style_gen.h **** 
 349:Middlewares/LVGL/GUI/lvgl/src/core/lv_obj_style_gen.h **** static inline lv_opa_t lv_obj_get_style_img_recolor_opa(const struct _lv_obj_t * obj, uint32_t part
 350:Middlewares/LVGL/GUI/lvgl/src/core/lv_obj_style_gen.h **** {
 351:Middlewares/LVGL/GUI/lvgl/src/core/lv_obj_style_gen.h ****     lv_style_value_t v = lv_obj_get_style_prop(obj, part, LV_STYLE_IMG_RECOLOR_OPA);
 352:Middlewares/LVGL/GUI/lvgl/src/core/lv_obj_style_gen.h ****     return (lv_opa_t)v.num;
 353:Middlewares/LVGL/GUI/lvgl/src/core/lv_obj_style_gen.h **** }
 354:Middlewares/LVGL/GUI/lvgl/src/core/lv_obj_style_gen.h **** 
 355:Middlewares/LVGL/GUI/lvgl/src/core/lv_obj_style_gen.h **** static inline lv_coord_t lv_obj_get_style_line_width(const struct _lv_obj_t * obj, uint32_t part)
 356:Middlewares/LVGL/GUI/lvgl/src/core/lv_obj_style_gen.h **** {
 357:Middlewares/LVGL/GUI/lvgl/src/core/lv_obj_style_gen.h ****     lv_style_value_t v = lv_obj_get_style_prop(obj, part, LV_STYLE_LINE_WIDTH);
 358:Middlewares/LVGL/GUI/lvgl/src/core/lv_obj_style_gen.h ****     return (lv_coord_t)v.num;
 359:Middlewares/LVGL/GUI/lvgl/src/core/lv_obj_style_gen.h **** }
 360:Middlewares/LVGL/GUI/lvgl/src/core/lv_obj_style_gen.h **** 
 361:Middlewares/LVGL/GUI/lvgl/src/core/lv_obj_style_gen.h **** static inline lv_coord_t lv_obj_get_style_line_dash_width(const struct _lv_obj_t * obj, uint32_t pa
 362:Middlewares/LVGL/GUI/lvgl/src/core/lv_obj_style_gen.h **** {
 363:Middlewares/LVGL/GUI/lvgl/src/core/lv_obj_style_gen.h ****     lv_style_value_t v = lv_obj_get_style_prop(obj, part, LV_STYLE_LINE_DASH_WIDTH);
 364:Middlewares/LVGL/GUI/lvgl/src/core/lv_obj_style_gen.h ****     return (lv_coord_t)v.num;
 365:Middlewares/LVGL/GUI/lvgl/src/core/lv_obj_style_gen.h **** }
 366:Middlewares/LVGL/GUI/lvgl/src/core/lv_obj_style_gen.h **** 
ARM GAS  C:\Users\ADMINI~1\AppData\Local\Temp\cchMZgMB.s 			page 38


 367:Middlewares/LVGL/GUI/lvgl/src/core/lv_obj_style_gen.h **** static inline lv_coord_t lv_obj_get_style_line_dash_gap(const struct _lv_obj_t * obj, uint32_t part
 368:Middlewares/LVGL/GUI/lvgl/src/core/lv_obj_style_gen.h **** {
 369:Middlewares/LVGL/GUI/lvgl/src/core/lv_obj_style_gen.h ****     lv_style_value_t v = lv_obj_get_style_prop(obj, part, LV_STYLE_LINE_DASH_GAP);
 370:Middlewares/LVGL/GUI/lvgl/src/core/lv_obj_style_gen.h ****     return (lv_coord_t)v.num;
 371:Middlewares/LVGL/GUI/lvgl/src/core/lv_obj_style_gen.h **** }
 372:Middlewares/LVGL/GUI/lvgl/src/core/lv_obj_style_gen.h **** 
 373:Middlewares/LVGL/GUI/lvgl/src/core/lv_obj_style_gen.h **** static inline bool lv_obj_get_style_line_rounded(const struct _lv_obj_t * obj, uint32_t part)
 374:Middlewares/LVGL/GUI/lvgl/src/core/lv_obj_style_gen.h **** {
 375:Middlewares/LVGL/GUI/lvgl/src/core/lv_obj_style_gen.h ****     lv_style_value_t v = lv_obj_get_style_prop(obj, part, LV_STYLE_LINE_ROUNDED);
 376:Middlewares/LVGL/GUI/lvgl/src/core/lv_obj_style_gen.h ****     return (bool)v.num;
 377:Middlewares/LVGL/GUI/lvgl/src/core/lv_obj_style_gen.h **** }
 378:Middlewares/LVGL/GUI/lvgl/src/core/lv_obj_style_gen.h **** 
 379:Middlewares/LVGL/GUI/lvgl/src/core/lv_obj_style_gen.h **** static inline lv_color_t lv_obj_get_style_line_color(const struct _lv_obj_t * obj, uint32_t part)
 380:Middlewares/LVGL/GUI/lvgl/src/core/lv_obj_style_gen.h **** {
 381:Middlewares/LVGL/GUI/lvgl/src/core/lv_obj_style_gen.h ****     lv_style_value_t v = lv_obj_get_style_prop(obj, part, LV_STYLE_LINE_COLOR);
 382:Middlewares/LVGL/GUI/lvgl/src/core/lv_obj_style_gen.h ****     return v.color;
 383:Middlewares/LVGL/GUI/lvgl/src/core/lv_obj_style_gen.h **** }
 384:Middlewares/LVGL/GUI/lvgl/src/core/lv_obj_style_gen.h **** 
 385:Middlewares/LVGL/GUI/lvgl/src/core/lv_obj_style_gen.h **** static inline lv_color_t lv_obj_get_style_line_color_filtered(const struct _lv_obj_t * obj, uint32_
 386:Middlewares/LVGL/GUI/lvgl/src/core/lv_obj_style_gen.h **** {
 387:Middlewares/LVGL/GUI/lvgl/src/core/lv_obj_style_gen.h ****     lv_style_value_t v = lv_obj_get_style_prop(obj, part, LV_STYLE_LINE_COLOR_FILTERED);
 388:Middlewares/LVGL/GUI/lvgl/src/core/lv_obj_style_gen.h ****     return v.color;
 389:Middlewares/LVGL/GUI/lvgl/src/core/lv_obj_style_gen.h **** }
 390:Middlewares/LVGL/GUI/lvgl/src/core/lv_obj_style_gen.h **** 
 391:Middlewares/LVGL/GUI/lvgl/src/core/lv_obj_style_gen.h **** static inline lv_opa_t lv_obj_get_style_line_opa(const struct _lv_obj_t * obj, uint32_t part)
 392:Middlewares/LVGL/GUI/lvgl/src/core/lv_obj_style_gen.h **** {
 393:Middlewares/LVGL/GUI/lvgl/src/core/lv_obj_style_gen.h ****     lv_style_value_t v = lv_obj_get_style_prop(obj, part, LV_STYLE_LINE_OPA);
 394:Middlewares/LVGL/GUI/lvgl/src/core/lv_obj_style_gen.h ****     return (lv_opa_t)v.num;
 395:Middlewares/LVGL/GUI/lvgl/src/core/lv_obj_style_gen.h **** }
 396:Middlewares/LVGL/GUI/lvgl/src/core/lv_obj_style_gen.h **** 
 397:Middlewares/LVGL/GUI/lvgl/src/core/lv_obj_style_gen.h **** static inline lv_coord_t lv_obj_get_style_arc_width(const struct _lv_obj_t * obj, uint32_t part)
 398:Middlewares/LVGL/GUI/lvgl/src/core/lv_obj_style_gen.h **** {
 399:Middlewares/LVGL/GUI/lvgl/src/core/lv_obj_style_gen.h ****     lv_style_value_t v = lv_obj_get_style_prop(obj, part, LV_STYLE_ARC_WIDTH);
 400:Middlewares/LVGL/GUI/lvgl/src/core/lv_obj_style_gen.h ****     return (lv_coord_t)v.num;
 401:Middlewares/LVGL/GUI/lvgl/src/core/lv_obj_style_gen.h **** }
 402:Middlewares/LVGL/GUI/lvgl/src/core/lv_obj_style_gen.h **** 
 403:Middlewares/LVGL/GUI/lvgl/src/core/lv_obj_style_gen.h **** static inline bool lv_obj_get_style_arc_rounded(const struct _lv_obj_t * obj, uint32_t part)
 404:Middlewares/LVGL/GUI/lvgl/src/core/lv_obj_style_gen.h **** {
 405:Middlewares/LVGL/GUI/lvgl/src/core/lv_obj_style_gen.h ****     lv_style_value_t v = lv_obj_get_style_prop(obj, part, LV_STYLE_ARC_ROUNDED);
 406:Middlewares/LVGL/GUI/lvgl/src/core/lv_obj_style_gen.h ****     return (bool)v.num;
 407:Middlewares/LVGL/GUI/lvgl/src/core/lv_obj_style_gen.h **** }
 408:Middlewares/LVGL/GUI/lvgl/src/core/lv_obj_style_gen.h **** 
 409:Middlewares/LVGL/GUI/lvgl/src/core/lv_obj_style_gen.h **** static inline lv_color_t lv_obj_get_style_arc_color(const struct _lv_obj_t * obj, uint32_t part)
 410:Middlewares/LVGL/GUI/lvgl/src/core/lv_obj_style_gen.h **** {
 411:Middlewares/LVGL/GUI/lvgl/src/core/lv_obj_style_gen.h ****     lv_style_value_t v = lv_obj_get_style_prop(obj, part, LV_STYLE_ARC_COLOR);
 412:Middlewares/LVGL/GUI/lvgl/src/core/lv_obj_style_gen.h ****     return v.color;
 413:Middlewares/LVGL/GUI/lvgl/src/core/lv_obj_style_gen.h **** }
 414:Middlewares/LVGL/GUI/lvgl/src/core/lv_obj_style_gen.h **** 
 415:Middlewares/LVGL/GUI/lvgl/src/core/lv_obj_style_gen.h **** static inline lv_color_t lv_obj_get_style_arc_color_filtered(const struct _lv_obj_t * obj, uint32_t
 416:Middlewares/LVGL/GUI/lvgl/src/core/lv_obj_style_gen.h **** {
 417:Middlewares/LVGL/GUI/lvgl/src/core/lv_obj_style_gen.h ****     lv_style_value_t v = lv_obj_get_style_prop(obj, part, LV_STYLE_ARC_COLOR_FILTERED);
 418:Middlewares/LVGL/GUI/lvgl/src/core/lv_obj_style_gen.h ****     return v.color;
 419:Middlewares/LVGL/GUI/lvgl/src/core/lv_obj_style_gen.h **** }
 420:Middlewares/LVGL/GUI/lvgl/src/core/lv_obj_style_gen.h **** 
 421:Middlewares/LVGL/GUI/lvgl/src/core/lv_obj_style_gen.h **** static inline lv_opa_t lv_obj_get_style_arc_opa(const struct _lv_obj_t * obj, uint32_t part)
 422:Middlewares/LVGL/GUI/lvgl/src/core/lv_obj_style_gen.h **** {
 423:Middlewares/LVGL/GUI/lvgl/src/core/lv_obj_style_gen.h ****     lv_style_value_t v = lv_obj_get_style_prop(obj, part, LV_STYLE_ARC_OPA);
ARM GAS  C:\Users\ADMINI~1\AppData\Local\Temp\cchMZgMB.s 			page 39


 424:Middlewares/LVGL/GUI/lvgl/src/core/lv_obj_style_gen.h ****     return (lv_opa_t)v.num;
 425:Middlewares/LVGL/GUI/lvgl/src/core/lv_obj_style_gen.h **** }
 426:Middlewares/LVGL/GUI/lvgl/src/core/lv_obj_style_gen.h **** 
 427:Middlewares/LVGL/GUI/lvgl/src/core/lv_obj_style_gen.h **** static inline const void * lv_obj_get_style_arc_img_src(const struct _lv_obj_t * obj, uint32_t part
 428:Middlewares/LVGL/GUI/lvgl/src/core/lv_obj_style_gen.h **** {
 429:Middlewares/LVGL/GUI/lvgl/src/core/lv_obj_style_gen.h ****     lv_style_value_t v = lv_obj_get_style_prop(obj, part, LV_STYLE_ARC_IMG_SRC);
 430:Middlewares/LVGL/GUI/lvgl/src/core/lv_obj_style_gen.h ****     return (const void *)v.ptr;
 431:Middlewares/LVGL/GUI/lvgl/src/core/lv_obj_style_gen.h **** }
 432:Middlewares/LVGL/GUI/lvgl/src/core/lv_obj_style_gen.h **** 
 433:Middlewares/LVGL/GUI/lvgl/src/core/lv_obj_style_gen.h **** static inline lv_color_t lv_obj_get_style_text_color(const struct _lv_obj_t * obj, uint32_t part)
 434:Middlewares/LVGL/GUI/lvgl/src/core/lv_obj_style_gen.h **** {
 435:Middlewares/LVGL/GUI/lvgl/src/core/lv_obj_style_gen.h ****     lv_style_value_t v = lv_obj_get_style_prop(obj, part, LV_STYLE_TEXT_COLOR);
 436:Middlewares/LVGL/GUI/lvgl/src/core/lv_obj_style_gen.h ****     return v.color;
 437:Middlewares/LVGL/GUI/lvgl/src/core/lv_obj_style_gen.h **** }
 438:Middlewares/LVGL/GUI/lvgl/src/core/lv_obj_style_gen.h **** 
 439:Middlewares/LVGL/GUI/lvgl/src/core/lv_obj_style_gen.h **** static inline lv_color_t lv_obj_get_style_text_color_filtered(const struct _lv_obj_t * obj, uint32_
 440:Middlewares/LVGL/GUI/lvgl/src/core/lv_obj_style_gen.h **** {
 441:Middlewares/LVGL/GUI/lvgl/src/core/lv_obj_style_gen.h ****     lv_style_value_t v = lv_obj_get_style_prop(obj, part, LV_STYLE_TEXT_COLOR_FILTERED);
 442:Middlewares/LVGL/GUI/lvgl/src/core/lv_obj_style_gen.h ****     return v.color;
 443:Middlewares/LVGL/GUI/lvgl/src/core/lv_obj_style_gen.h **** }
 444:Middlewares/LVGL/GUI/lvgl/src/core/lv_obj_style_gen.h **** 
 445:Middlewares/LVGL/GUI/lvgl/src/core/lv_obj_style_gen.h **** static inline lv_opa_t lv_obj_get_style_text_opa(const struct _lv_obj_t * obj, uint32_t part)
 446:Middlewares/LVGL/GUI/lvgl/src/core/lv_obj_style_gen.h **** {
 447:Middlewares/LVGL/GUI/lvgl/src/core/lv_obj_style_gen.h ****     lv_style_value_t v = lv_obj_get_style_prop(obj, part, LV_STYLE_TEXT_OPA);
 448:Middlewares/LVGL/GUI/lvgl/src/core/lv_obj_style_gen.h ****     return (lv_opa_t)v.num;
 449:Middlewares/LVGL/GUI/lvgl/src/core/lv_obj_style_gen.h **** }
 450:Middlewares/LVGL/GUI/lvgl/src/core/lv_obj_style_gen.h **** 
 451:Middlewares/LVGL/GUI/lvgl/src/core/lv_obj_style_gen.h **** static inline const lv_font_t * lv_obj_get_style_text_font(const struct _lv_obj_t * obj, uint32_t p
 452:Middlewares/LVGL/GUI/lvgl/src/core/lv_obj_style_gen.h **** {
 453:Middlewares/LVGL/GUI/lvgl/src/core/lv_obj_style_gen.h ****     lv_style_value_t v = lv_obj_get_style_prop(obj, part, LV_STYLE_TEXT_FONT);
 454:Middlewares/LVGL/GUI/lvgl/src/core/lv_obj_style_gen.h ****     return (const lv_font_t *)v.ptr;
 455:Middlewares/LVGL/GUI/lvgl/src/core/lv_obj_style_gen.h **** }
 456:Middlewares/LVGL/GUI/lvgl/src/core/lv_obj_style_gen.h **** 
 457:Middlewares/LVGL/GUI/lvgl/src/core/lv_obj_style_gen.h **** static inline lv_coord_t lv_obj_get_style_text_letter_space(const struct _lv_obj_t * obj, uint32_t 
 458:Middlewares/LVGL/GUI/lvgl/src/core/lv_obj_style_gen.h **** {
 459:Middlewares/LVGL/GUI/lvgl/src/core/lv_obj_style_gen.h ****     lv_style_value_t v = lv_obj_get_style_prop(obj, part, LV_STYLE_TEXT_LETTER_SPACE);
 460:Middlewares/LVGL/GUI/lvgl/src/core/lv_obj_style_gen.h ****     return (lv_coord_t)v.num;
 461:Middlewares/LVGL/GUI/lvgl/src/core/lv_obj_style_gen.h **** }
 462:Middlewares/LVGL/GUI/lvgl/src/core/lv_obj_style_gen.h **** 
 463:Middlewares/LVGL/GUI/lvgl/src/core/lv_obj_style_gen.h **** static inline lv_coord_t lv_obj_get_style_text_line_space(const struct _lv_obj_t * obj, uint32_t pa
 464:Middlewares/LVGL/GUI/lvgl/src/core/lv_obj_style_gen.h **** {
 465:Middlewares/LVGL/GUI/lvgl/src/core/lv_obj_style_gen.h ****     lv_style_value_t v = lv_obj_get_style_prop(obj, part, LV_STYLE_TEXT_LINE_SPACE);
 466:Middlewares/LVGL/GUI/lvgl/src/core/lv_obj_style_gen.h ****     return (lv_coord_t)v.num;
 467:Middlewares/LVGL/GUI/lvgl/src/core/lv_obj_style_gen.h **** }
 468:Middlewares/LVGL/GUI/lvgl/src/core/lv_obj_style_gen.h **** 
 469:Middlewares/LVGL/GUI/lvgl/src/core/lv_obj_style_gen.h **** static inline lv_text_decor_t lv_obj_get_style_text_decor(const struct _lv_obj_t * obj, uint32_t pa
 470:Middlewares/LVGL/GUI/lvgl/src/core/lv_obj_style_gen.h **** {
 471:Middlewares/LVGL/GUI/lvgl/src/core/lv_obj_style_gen.h ****     lv_style_value_t v = lv_obj_get_style_prop(obj, part, LV_STYLE_TEXT_DECOR);
 472:Middlewares/LVGL/GUI/lvgl/src/core/lv_obj_style_gen.h ****     return (lv_text_decor_t)v.num;
 473:Middlewares/LVGL/GUI/lvgl/src/core/lv_obj_style_gen.h **** }
 474:Middlewares/LVGL/GUI/lvgl/src/core/lv_obj_style_gen.h **** 
 475:Middlewares/LVGL/GUI/lvgl/src/core/lv_obj_style_gen.h **** static inline lv_text_align_t lv_obj_get_style_text_align(const struct _lv_obj_t * obj, uint32_t pa
 476:Middlewares/LVGL/GUI/lvgl/src/core/lv_obj_style_gen.h **** {
 477:Middlewares/LVGL/GUI/lvgl/src/core/lv_obj_style_gen.h ****     lv_style_value_t v = lv_obj_get_style_prop(obj, part, LV_STYLE_TEXT_ALIGN);
 478:Middlewares/LVGL/GUI/lvgl/src/core/lv_obj_style_gen.h ****     return (lv_text_align_t)v.num;
 479:Middlewares/LVGL/GUI/lvgl/src/core/lv_obj_style_gen.h **** }
 480:Middlewares/LVGL/GUI/lvgl/src/core/lv_obj_style_gen.h **** 
ARM GAS  C:\Users\ADMINI~1\AppData\Local\Temp\cchMZgMB.s 			page 40


 481:Middlewares/LVGL/GUI/lvgl/src/core/lv_obj_style_gen.h **** static inline lv_coord_t lv_obj_get_style_radius(const struct _lv_obj_t * obj, uint32_t part)
 482:Middlewares/LVGL/GUI/lvgl/src/core/lv_obj_style_gen.h **** {
 483:Middlewares/LVGL/GUI/lvgl/src/core/lv_obj_style_gen.h ****     lv_style_value_t v = lv_obj_get_style_prop(obj, part, LV_STYLE_RADIUS);
 484:Middlewares/LVGL/GUI/lvgl/src/core/lv_obj_style_gen.h ****     return (lv_coord_t)v.num;
 485:Middlewares/LVGL/GUI/lvgl/src/core/lv_obj_style_gen.h **** }
 486:Middlewares/LVGL/GUI/lvgl/src/core/lv_obj_style_gen.h **** 
 487:Middlewares/LVGL/GUI/lvgl/src/core/lv_obj_style_gen.h **** static inline bool lv_obj_get_style_clip_corner(const struct _lv_obj_t * obj, uint32_t part)
 488:Middlewares/LVGL/GUI/lvgl/src/core/lv_obj_style_gen.h **** {
 489:Middlewares/LVGL/GUI/lvgl/src/core/lv_obj_style_gen.h ****     lv_style_value_t v = lv_obj_get_style_prop(obj, part, LV_STYLE_CLIP_CORNER);
 490:Middlewares/LVGL/GUI/lvgl/src/core/lv_obj_style_gen.h ****     return (bool)v.num;
 491:Middlewares/LVGL/GUI/lvgl/src/core/lv_obj_style_gen.h **** }
 492:Middlewares/LVGL/GUI/lvgl/src/core/lv_obj_style_gen.h **** 
 493:Middlewares/LVGL/GUI/lvgl/src/core/lv_obj_style_gen.h **** static inline lv_opa_t lv_obj_get_style_opa(const struct _lv_obj_t * obj, uint32_t part)
 494:Middlewares/LVGL/GUI/lvgl/src/core/lv_obj_style_gen.h **** {
 495:Middlewares/LVGL/GUI/lvgl/src/core/lv_obj_style_gen.h ****     lv_style_value_t v = lv_obj_get_style_prop(obj, part, LV_STYLE_OPA);
 496:Middlewares/LVGL/GUI/lvgl/src/core/lv_obj_style_gen.h ****     return (lv_opa_t)v.num;
 497:Middlewares/LVGL/GUI/lvgl/src/core/lv_obj_style_gen.h **** }
 498:Middlewares/LVGL/GUI/lvgl/src/core/lv_obj_style_gen.h **** 
 499:Middlewares/LVGL/GUI/lvgl/src/core/lv_obj_style_gen.h **** static inline const lv_color_filter_dsc_t * lv_obj_get_style_color_filter_dsc(const struct _lv_obj_
 500:Middlewares/LVGL/GUI/lvgl/src/core/lv_obj_style_gen.h ****                                                                               uint32_t part)
 501:Middlewares/LVGL/GUI/lvgl/src/core/lv_obj_style_gen.h **** {
 502:Middlewares/LVGL/GUI/lvgl/src/core/lv_obj_style_gen.h ****     lv_style_value_t v = lv_obj_get_style_prop(obj, part, LV_STYLE_COLOR_FILTER_DSC);
 503:Middlewares/LVGL/GUI/lvgl/src/core/lv_obj_style_gen.h ****     return (const lv_color_filter_dsc_t *)v.ptr;
 504:Middlewares/LVGL/GUI/lvgl/src/core/lv_obj_style_gen.h **** }
 505:Middlewares/LVGL/GUI/lvgl/src/core/lv_obj_style_gen.h **** 
 506:Middlewares/LVGL/GUI/lvgl/src/core/lv_obj_style_gen.h **** static inline lv_opa_t lv_obj_get_style_color_filter_opa(const struct _lv_obj_t * obj, uint32_t par
 507:Middlewares/LVGL/GUI/lvgl/src/core/lv_obj_style_gen.h **** {
 508:Middlewares/LVGL/GUI/lvgl/src/core/lv_obj_style_gen.h ****     lv_style_value_t v = lv_obj_get_style_prop(obj, part, LV_STYLE_COLOR_FILTER_OPA);
 509:Middlewares/LVGL/GUI/lvgl/src/core/lv_obj_style_gen.h ****     return (lv_opa_t)v.num;
 510:Middlewares/LVGL/GUI/lvgl/src/core/lv_obj_style_gen.h **** }
 511:Middlewares/LVGL/GUI/lvgl/src/core/lv_obj_style_gen.h **** 
 512:Middlewares/LVGL/GUI/lvgl/src/core/lv_obj_style_gen.h **** static inline uint32_t lv_obj_get_style_anim_time(const struct _lv_obj_t * obj, uint32_t part)
 513:Middlewares/LVGL/GUI/lvgl/src/core/lv_obj_style_gen.h **** {
 514:Middlewares/LVGL/GUI/lvgl/src/core/lv_obj_style_gen.h ****     lv_style_value_t v = lv_obj_get_style_prop(obj, part, LV_STYLE_ANIM_TIME);
 515:Middlewares/LVGL/GUI/lvgl/src/core/lv_obj_style_gen.h ****     return (uint32_t)v.num;
 516:Middlewares/LVGL/GUI/lvgl/src/core/lv_obj_style_gen.h **** }
 517:Middlewares/LVGL/GUI/lvgl/src/core/lv_obj_style_gen.h **** 
 518:Middlewares/LVGL/GUI/lvgl/src/core/lv_obj_style_gen.h **** static inline uint32_t lv_obj_get_style_anim_speed(const struct _lv_obj_t * obj, uint32_t part)
 519:Middlewares/LVGL/GUI/lvgl/src/core/lv_obj_style_gen.h **** {
 520:Middlewares/LVGL/GUI/lvgl/src/core/lv_obj_style_gen.h ****     lv_style_value_t v = lv_obj_get_style_prop(obj, part, LV_STYLE_ANIM_SPEED);
 521:Middlewares/LVGL/GUI/lvgl/src/core/lv_obj_style_gen.h ****     return (uint32_t)v.num;
 522:Middlewares/LVGL/GUI/lvgl/src/core/lv_obj_style_gen.h **** }
 523:Middlewares/LVGL/GUI/lvgl/src/core/lv_obj_style_gen.h **** 
 524:Middlewares/LVGL/GUI/lvgl/src/core/lv_obj_style_gen.h **** static inline const lv_style_transition_dsc_t * lv_obj_get_style_transition(const struct _lv_obj_t 
 525:Middlewares/LVGL/GUI/lvgl/src/core/lv_obj_style_gen.h **** {
 526:Middlewares/LVGL/GUI/lvgl/src/core/lv_obj_style_gen.h ****     lv_style_value_t v = lv_obj_get_style_prop(obj, part, LV_STYLE_TRANSITION);
 527:Middlewares/LVGL/GUI/lvgl/src/core/lv_obj_style_gen.h ****     return (const lv_style_transition_dsc_t *)v.ptr;
 528:Middlewares/LVGL/GUI/lvgl/src/core/lv_obj_style_gen.h **** }
 529:Middlewares/LVGL/GUI/lvgl/src/core/lv_obj_style_gen.h **** 
 530:Middlewares/LVGL/GUI/lvgl/src/core/lv_obj_style_gen.h **** static inline lv_blend_mode_t lv_obj_get_style_blend_mode(const struct _lv_obj_t * obj, uint32_t pa
 531:Middlewares/LVGL/GUI/lvgl/src/core/lv_obj_style_gen.h **** {
 532:Middlewares/LVGL/GUI/lvgl/src/core/lv_obj_style_gen.h ****     lv_style_value_t v = lv_obj_get_style_prop(obj, part, LV_STYLE_BLEND_MODE);
 533:Middlewares/LVGL/GUI/lvgl/src/core/lv_obj_style_gen.h ****     return (lv_blend_mode_t)v.num;
 534:Middlewares/LVGL/GUI/lvgl/src/core/lv_obj_style_gen.h **** }
 535:Middlewares/LVGL/GUI/lvgl/src/core/lv_obj_style_gen.h **** 
 536:Middlewares/LVGL/GUI/lvgl/src/core/lv_obj_style_gen.h **** static inline uint16_t lv_obj_get_style_layout(const struct _lv_obj_t * obj, uint32_t part)
 537:Middlewares/LVGL/GUI/lvgl/src/core/lv_obj_style_gen.h **** {
ARM GAS  C:\Users\ADMINI~1\AppData\Local\Temp\cchMZgMB.s 			page 41


 538:Middlewares/LVGL/GUI/lvgl/src/core/lv_obj_style_gen.h ****     lv_style_value_t v = lv_obj_get_style_prop(obj, part, LV_STYLE_LAYOUT);
 539:Middlewares/LVGL/GUI/lvgl/src/core/lv_obj_style_gen.h ****     return (uint16_t)v.num;
 540:Middlewares/LVGL/GUI/lvgl/src/core/lv_obj_style_gen.h **** }
 541:Middlewares/LVGL/GUI/lvgl/src/core/lv_obj_style_gen.h **** 
 542:Middlewares/LVGL/GUI/lvgl/src/core/lv_obj_style_gen.h **** static inline lv_base_dir_t lv_obj_get_style_base_dir(const struct _lv_obj_t * obj, uint32_t part)
 913              		.loc 2 542 29 view .LVU226
 914              	.LBB109:
 543:Middlewares/LVGL/GUI/lvgl/src/core/lv_obj_style_gen.h **** {
 544:Middlewares/LVGL/GUI/lvgl/src/core/lv_obj_style_gen.h ****     lv_style_value_t v = lv_obj_get_style_prop(obj, part, LV_STYLE_BASE_DIR);
 915              		.loc 2 544 5 view .LVU227
 916              		.loc 2 544 26 is_stmt 0 view .LVU228
 917 0006 41F26A42 		movw	r2, #5226
 918 000a 0021     		movs	r1, #0
 919 000c FFF7FEFF 		bl	lv_obj_get_style_prop
 920              	.LVL87:
 545:Middlewares/LVGL/GUI/lvgl/src/core/lv_obj_style_gen.h ****     return (lv_base_dir_t)v.num;
 921              		.loc 2 545 5 is_stmt 1 view .LVU229
 922              		.loc 2 545 12 is_stmt 0 view .LVU230
 923 0010 C0B2     		uxtb	r0, r0
 924              	.LVL88:
 925              		.loc 2 545 12 view .LVU231
 926              	.LBE109:
 927              	.LBE108:
 168:Middlewares/LVGL/GUI/lvgl/src/core/lv_obj_scroll.c ****         if(obj->spec_attr == NULL) return 0;
 928              		.loc 1 168 7 view .LVU232
 929 0012 0128     		cmp	r0, #1
 930 0014 06D0     		beq	.L54
 169:Middlewares/LVGL/GUI/lvgl/src/core/lv_obj_scroll.c ****         return -obj->spec_attr->scroll.x;
 931              		.loc 1 169 9 is_stmt 1 view .LVU233
 169:Middlewares/LVGL/GUI/lvgl/src/core/lv_obj_scroll.c ****         return -obj->spec_attr->scroll.x;
 932              		.loc 1 169 15 is_stmt 0 view .LVU234
 933 0016 A368     		ldr	r3, [r4, #8]
 169:Middlewares/LVGL/GUI/lvgl/src/core/lv_obj_scroll.c ****         return -obj->spec_attr->scroll.x;
 934              		.loc 1 169 11 view .LVU235
 935 0018 002B     		cmp	r3, #0
 936 001a 53D0     		beq	.L60
 170:Middlewares/LVGL/GUI/lvgl/src/core/lv_obj_scroll.c ****     }
 937              		.loc 1 170 9 is_stmt 1 view .LVU236
 170:Middlewares/LVGL/GUI/lvgl/src/core/lv_obj_scroll.c ****     }
 938              		.loc 1 170 39 is_stmt 0 view .LVU237
 939 001c 1869     		ldr	r0, [r3, #16]
 170:Middlewares/LVGL/GUI/lvgl/src/core/lv_obj_scroll.c ****     }
 940              		.loc 1 170 16 view .LVU238
 941 001e 4042     		rsbs	r0, r0, #0
 942              	.L53:
 203:Middlewares/LVGL/GUI/lvgl/src/core/lv_obj_scroll.c **** 
 943              		.loc 1 203 1 view .LVU239
 944 0020 BDE8F88F 		pop	{r3, r4, r5, r6, r7, r8, r9, r10, fp, pc}
 945              	.LVL89:
 946              	.L54:
 174:Middlewares/LVGL/GUI/lvgl/src/core/lv_obj_scroll.c ****     lv_coord_t pad_left = lv_obj_get_style_pad_left(obj, LV_PART_MAIN);
 947              		.loc 1 174 5 is_stmt 1 view .LVU240
 948              	.LBB110:
 949              	.LBI110:
 109:Middlewares/LVGL/GUI/lvgl/src/core/lv_obj_style_gen.h **** {
 950              		.loc 2 109 26 view .LVU241
 951              	.LBB111:
ARM GAS  C:\Users\ADMINI~1\AppData\Local\Temp\cchMZgMB.s 			page 42


 111:Middlewares/LVGL/GUI/lvgl/src/core/lv_obj_style_gen.h ****     return (lv_coord_t)v.num;
 952              		.loc 2 111 5 view .LVU242
 111:Middlewares/LVGL/GUI/lvgl/src/core/lv_obj_style_gen.h ****     return (lv_coord_t)v.num;
 953              		.loc 2 111 26 is_stmt 0 view .LVU243
 954 0024 41F61302 		movw	r2, #6163
 955 0028 0021     		movs	r1, #0
 956 002a 2046     		mov	r0, r4
 957 002c FFF7FEFF 		bl	lv_obj_get_style_prop
 958              	.LVL90:
 959 0030 8246     		mov	r10, r0
 112:Middlewares/LVGL/GUI/lvgl/src/core/lv_obj_style_gen.h **** }
 960              		.loc 2 112 5 is_stmt 1 view .LVU244
 961              	.LVL91:
 112:Middlewares/LVGL/GUI/lvgl/src/core/lv_obj_style_gen.h **** }
 962              		.loc 2 112 5 is_stmt 0 view .LVU245
 963              	.LBE111:
 964              	.LBE110:
 175:Middlewares/LVGL/GUI/lvgl/src/core/lv_obj_scroll.c ****     lv_coord_t border_width = lv_obj_get_style_border_width(obj, LV_PART_MAIN);
 965              		.loc 1 175 5 is_stmt 1 view .LVU246
 966              	.LBB112:
 967              	.LBI112:
 103:Middlewares/LVGL/GUI/lvgl/src/core/lv_obj_style_gen.h **** {
 968              		.loc 2 103 26 view .LVU247
 969              	.LBB113:
 105:Middlewares/LVGL/GUI/lvgl/src/core/lv_obj_style_gen.h ****     return (lv_coord_t)v.num;
 970              		.loc 2 105 5 view .LVU248
 105:Middlewares/LVGL/GUI/lvgl/src/core/lv_obj_style_gen.h ****     return (lv_coord_t)v.num;
 971              		.loc 2 105 26 is_stmt 0 view .LVU249
 972 0032 41F61202 		movw	r2, #6162
 973 0036 0021     		movs	r1, #0
 974 0038 2046     		mov	r0, r4
 975              	.LVL92:
 105:Middlewares/LVGL/GUI/lvgl/src/core/lv_obj_style_gen.h ****     return (lv_coord_t)v.num;
 976              		.loc 2 105 26 view .LVU250
 977 003a FFF7FEFF 		bl	lv_obj_get_style_prop
 978              	.LVL93:
 979 003e 8146     		mov	r9, r0
 106:Middlewares/LVGL/GUI/lvgl/src/core/lv_obj_style_gen.h **** }
 980              		.loc 2 106 5 is_stmt 1 view .LVU251
 981              	.LVL94:
 106:Middlewares/LVGL/GUI/lvgl/src/core/lv_obj_style_gen.h **** }
 982              		.loc 2 106 5 is_stmt 0 view .LVU252
 983              	.LBE113:
 984              	.LBE112:
 176:Middlewares/LVGL/GUI/lvgl/src/core/lv_obj_scroll.c **** 
 985              		.loc 1 176 5 is_stmt 1 view .LVU253
 986              	.LBB114:
 987              	.LBI114:
 241:Middlewares/LVGL/GUI/lvgl/src/core/lv_obj_style_gen.h **** {
 988              		.loc 2 241 26 view .LVU254
 989              	.LBB115:
 243:Middlewares/LVGL/GUI/lvgl/src/core/lv_obj_style_gen.h ****     return (lv_coord_t)v.num;
 990              		.loc 2 243 5 view .LVU255
 243:Middlewares/LVGL/GUI/lvgl/src/core/lv_obj_style_gen.h ****     return (lv_coord_t)v.num;
 991              		.loc 2 243 26 is_stmt 0 view .LVU256
 992 0040 41F23202 		movw	r2, #4146
 993 0044 0021     		movs	r1, #0
ARM GAS  C:\Users\ADMINI~1\AppData\Local\Temp\cchMZgMB.s 			page 43


 994 0046 2046     		mov	r0, r4
 995              	.LVL95:
 243:Middlewares/LVGL/GUI/lvgl/src/core/lv_obj_style_gen.h ****     return (lv_coord_t)v.num;
 996              		.loc 2 243 26 view .LVU257
 997 0048 FFF7FEFF 		bl	lv_obj_get_style_prop
 998              	.LVL96:
 999 004c 8046     		mov	r8, r0
 244:Middlewares/LVGL/GUI/lvgl/src/core/lv_obj_style_gen.h **** }
 1000              		.loc 2 244 5 is_stmt 1 view .LVU258
 1001              	.LVL97:
 244:Middlewares/LVGL/GUI/lvgl/src/core/lv_obj_style_gen.h **** }
 1002              		.loc 2 244 5 is_stmt 0 view .LVU259
 1003              	.LBE115:
 1004              	.LBE114:
 178:Middlewares/LVGL/GUI/lvgl/src/core/lv_obj_scroll.c **** 
 1005              		.loc 1 178 5 is_stmt 1 view .LVU260
 180:Middlewares/LVGL/GUI/lvgl/src/core/lv_obj_scroll.c ****     lv_coord_t x1 = LV_COORD_MAX;
 1006              		.loc 1 180 5 view .LVU261
 181:Middlewares/LVGL/GUI/lvgl/src/core/lv_obj_scroll.c ****     uint32_t child_cnt = lv_obj_get_child_cnt(obj);
 1007              		.loc 1 181 5 view .LVU262
 182:Middlewares/LVGL/GUI/lvgl/src/core/lv_obj_scroll.c ****     for(i = 0; i < child_cnt; i++) {
 1008              		.loc 1 182 5 view .LVU263
 182:Middlewares/LVGL/GUI/lvgl/src/core/lv_obj_scroll.c ****     for(i = 0; i < child_cnt; i++) {
 1009              		.loc 1 182 26 is_stmt 0 view .LVU264
 1010 004e 2046     		mov	r0, r4
 1011              	.LVL98:
 182:Middlewares/LVGL/GUI/lvgl/src/core/lv_obj_scroll.c ****     for(i = 0; i < child_cnt; i++) {
 1012              		.loc 1 182 26 view .LVU265
 1013 0050 FFF7FEFF 		bl	lv_obj_get_child_cnt
 1014              	.LVL99:
 1015 0054 8346     		mov	fp, r0
 1016              	.LVL100:
 183:Middlewares/LVGL/GUI/lvgl/src/core/lv_obj_scroll.c ****         lv_obj_t * child = obj->spec_attr->children[i];
 1017              		.loc 1 183 5 is_stmt 1 view .LVU266
 181:Middlewares/LVGL/GUI/lvgl/src/core/lv_obj_scroll.c ****     uint32_t child_cnt = lv_obj_get_child_cnt(obj);
 1018              		.loc 1 181 16 is_stmt 0 view .LVU267
 1019 0056 6FF06047 		mvn	r7, #-536870912
 183:Middlewares/LVGL/GUI/lvgl/src/core/lv_obj_scroll.c ****         lv_obj_t * child = obj->spec_attr->children[i];
 1020              		.loc 1 183 11 view .LVU268
 1021 005a 0025     		movs	r5, #0
 183:Middlewares/LVGL/GUI/lvgl/src/core/lv_obj_scroll.c ****         lv_obj_t * child = obj->spec_attr->children[i];
 1022              		.loc 1 183 5 view .LVU269
 1023 005c 04E0     		b	.L56
 1024              	.LVL101:
 1025              	.L64:
 1026              	.LBB116:
 186:Middlewares/LVGL/GUI/lvgl/src/core/lv_obj_scroll.c **** 
 1027              		.loc 1 186 9 is_stmt 1 view .LVU270
 186:Middlewares/LVGL/GUI/lvgl/src/core/lv_obj_scroll.c **** 
 1028              		.loc 1 186 14 is_stmt 0 view .LVU271
 1029 005e 7369     		ldr	r3, [r6, #20]
 186:Middlewares/LVGL/GUI/lvgl/src/core/lv_obj_scroll.c **** 
 1030              		.loc 1 186 12 view .LVU272
 1031 0060 9F42     		cmp	r7, r3
 1032 0062 A8BF     		it	ge
 1033 0064 1F46     		movge	r7, r3
 1034              	.LVL102:
ARM GAS  C:\Users\ADMINI~1\AppData\Local\Temp\cchMZgMB.s 			page 44


 1035              	.L57:
 186:Middlewares/LVGL/GUI/lvgl/src/core/lv_obj_scroll.c **** 
 1036              		.loc 1 186 12 view .LVU273
 1037              	.LBE116:
 183:Middlewares/LVGL/GUI/lvgl/src/core/lv_obj_scroll.c ****         lv_obj_t * child = obj->spec_attr->children[i];
 1038              		.loc 1 183 31 is_stmt 1 discriminator 2 view .LVU274
 183:Middlewares/LVGL/GUI/lvgl/src/core/lv_obj_scroll.c ****         lv_obj_t * child = obj->spec_attr->children[i];
 1039              		.loc 1 183 32 is_stmt 0 discriminator 2 view .LVU275
 1040 0066 0135     		adds	r5, r5, #1
 1041              	.LVL103:
 1042              	.L56:
 183:Middlewares/LVGL/GUI/lvgl/src/core/lv_obj_scroll.c ****         lv_obj_t * child = obj->spec_attr->children[i];
 1043              		.loc 1 183 16 is_stmt 1 discriminator 1 view .LVU276
 183:Middlewares/LVGL/GUI/lvgl/src/core/lv_obj_scroll.c ****         lv_obj_t * child = obj->spec_attr->children[i];
 1044              		.loc 1 183 5 is_stmt 0 discriminator 1 view .LVU277
 1045 0068 5D45     		cmp	r5, fp
 1046 006a 0AD2     		bcs	.L63
 1047              	.LBB117:
 184:Middlewares/LVGL/GUI/lvgl/src/core/lv_obj_scroll.c ****         if(lv_obj_has_flag_any(child,  LV_OBJ_FLAG_HIDDEN | LV_OBJ_FLAG_FLOATING)) continue;
 1048              		.loc 1 184 9 is_stmt 1 view .LVU278
 184:Middlewares/LVGL/GUI/lvgl/src/core/lv_obj_scroll.c ****         if(lv_obj_has_flag_any(child,  LV_OBJ_FLAG_HIDDEN | LV_OBJ_FLAG_FLOATING)) continue;
 1049              		.loc 1 184 31 is_stmt 0 view .LVU279
 1050 006c A368     		ldr	r3, [r4, #8]
 184:Middlewares/LVGL/GUI/lvgl/src/core/lv_obj_scroll.c ****         if(lv_obj_has_flag_any(child,  LV_OBJ_FLAG_HIDDEN | LV_OBJ_FLAG_FLOATING)) continue;
 1051              		.loc 1 184 42 view .LVU280
 1052 006e 1B68     		ldr	r3, [r3]
 184:Middlewares/LVGL/GUI/lvgl/src/core/lv_obj_scroll.c ****         if(lv_obj_has_flag_any(child,  LV_OBJ_FLAG_HIDDEN | LV_OBJ_FLAG_FLOATING)) continue;
 1053              		.loc 1 184 20 view .LVU281
 1054 0070 53F82560 		ldr	r6, [r3, r5, lsl #2]
 1055              	.LVL104:
 185:Middlewares/LVGL/GUI/lvgl/src/core/lv_obj_scroll.c ****         x1 = LV_MIN(x1, child->coords.x1);
 1056              		.loc 1 185 9 is_stmt 1 view .LVU282
 185:Middlewares/LVGL/GUI/lvgl/src/core/lv_obj_scroll.c ****         x1 = LV_MIN(x1, child->coords.x1);
 1057              		.loc 1 185 12 is_stmt 0 view .LVU283
 1058 0074 1449     		ldr	r1, .L65
 1059 0076 3046     		mov	r0, r6
 1060 0078 FFF7FEFF 		bl	lv_obj_has_flag_any
 1061              	.LVL105:
 185:Middlewares/LVGL/GUI/lvgl/src/core/lv_obj_scroll.c ****         x1 = LV_MIN(x1, child->coords.x1);
 1062              		.loc 1 185 11 view .LVU284
 1063 007c 0028     		cmp	r0, #0
 1064 007e EED0     		beq	.L64
 1065 0080 F1E7     		b	.L57
 1066              	.LVL106:
 1067              	.L63:
 185:Middlewares/LVGL/GUI/lvgl/src/core/lv_obj_scroll.c ****         x1 = LV_MIN(x1, child->coords.x1);
 1068              		.loc 1 185 11 view .LVU285
 1069              	.LBE117:
 190:Middlewares/LVGL/GUI/lvgl/src/core/lv_obj_scroll.c ****         child_res = x1;
 1070              		.loc 1 190 5 is_stmt 1 view .LVU286
 190:Middlewares/LVGL/GUI/lvgl/src/core/lv_obj_scroll.c ****         child_res = x1;
 1071              		.loc 1 190 7 is_stmt 0 view .LVU287
 1072 0082 6FF06043 		mvn	r3, #-536870912
 1073 0086 9F42     		cmp	r7, r3
 1074 0088 1AD0     		beq	.L61
 191:Middlewares/LVGL/GUI/lvgl/src/core/lv_obj_scroll.c ****         child_res = (obj->coords.x1 + pad_left + border_width) - child_res;
 1075              		.loc 1 191 9 is_stmt 1 view .LVU288
ARM GAS  C:\Users\ADMINI~1\AppData\Local\Temp\cchMZgMB.s 			page 45


 1076              	.LVL107:
 192:Middlewares/LVGL/GUI/lvgl/src/core/lv_obj_scroll.c ****     }
 1077              		.loc 1 192 9 view .LVU289
 192:Middlewares/LVGL/GUI/lvgl/src/core/lv_obj_scroll.c ****     }
 1078              		.loc 1 192 33 is_stmt 0 view .LVU290
 1079 008a 6069     		ldr	r0, [r4, #20]
 192:Middlewares/LVGL/GUI/lvgl/src/core/lv_obj_scroll.c ****     }
 1080              		.loc 1 192 37 view .LVU291
 1081 008c 4844     		add	r0, r0, r9
 192:Middlewares/LVGL/GUI/lvgl/src/core/lv_obj_scroll.c ****     }
 1082              		.loc 1 192 48 view .LVU292
 1083 008e 4044     		add	r0, r0, r8
 192:Middlewares/LVGL/GUI/lvgl/src/core/lv_obj_scroll.c ****     }
 1084              		.loc 1 192 19 view .LVU293
 1085 0090 C71B     		subs	r7, r0, r7
 1086              	.LVL108:
 1087              	.L59:
 198:Middlewares/LVGL/GUI/lvgl/src/core/lv_obj_scroll.c ****     self_w = self_w - (lv_obj_get_width(obj) - pad_right - pad_left - 2 * border_width);
 1088              		.loc 1 198 5 is_stmt 1 view .LVU294
 198:Middlewares/LVGL/GUI/lvgl/src/core/lv_obj_scroll.c ****     self_w = self_w - (lv_obj_get_width(obj) - pad_right - pad_left - 2 * border_width);
 1089              		.loc 1 198 25 is_stmt 0 view .LVU295
 1090 0092 2046     		mov	r0, r4
 1091 0094 FFF7FEFF 		bl	lv_obj_get_self_width
 1092              	.LVL109:
 1093 0098 0646     		mov	r6, r0
 1094              	.LVL110:
 199:Middlewares/LVGL/GUI/lvgl/src/core/lv_obj_scroll.c ****     self_w += lv_obj_get_scroll_x(obj);
 1095              		.loc 1 199 5 is_stmt 1 view .LVU296
 199:Middlewares/LVGL/GUI/lvgl/src/core/lv_obj_scroll.c ****     self_w += lv_obj_get_scroll_x(obj);
 1096              		.loc 1 199 24 is_stmt 0 view .LVU297
 1097 009a 2046     		mov	r0, r4
 1098              	.LVL111:
 199:Middlewares/LVGL/GUI/lvgl/src/core/lv_obj_scroll.c ****     self_w += lv_obj_get_scroll_x(obj);
 1099              		.loc 1 199 24 view .LVU298
 1100 009c FFF7FEFF 		bl	lv_obj_get_width
 1101              	.LVL112:
 199:Middlewares/LVGL/GUI/lvgl/src/core/lv_obj_scroll.c ****     self_w += lv_obj_get_scroll_x(obj);
 1102              		.loc 1 199 46 view .LVU299
 1103 00a0 A0EB0A0A 		sub	r10, r0, r10
 1104              	.LVL113:
 199:Middlewares/LVGL/GUI/lvgl/src/core/lv_obj_scroll.c ****     self_w += lv_obj_get_scroll_x(obj);
 1105              		.loc 1 199 58 view .LVU300
 1106 00a4 AAEB0909 		sub	r9, r10, r9
 1107              	.LVL114:
 199:Middlewares/LVGL/GUI/lvgl/src/core/lv_obj_scroll.c ****     self_w += lv_obj_get_scroll_x(obj);
 1108              		.loc 1 199 69 view .LVU301
 1109 00a8 A9EB4808 		sub	r8, r9, r8, lsl #1
 1110              	.LVL115:
 199:Middlewares/LVGL/GUI/lvgl/src/core/lv_obj_scroll.c ****     self_w += lv_obj_get_scroll_x(obj);
 1111              		.loc 1 199 12 view .LVU302
 1112 00ac A6EB0808 		sub	r8, r6, r8
 1113              	.LVL116:
 200:Middlewares/LVGL/GUI/lvgl/src/core/lv_obj_scroll.c **** 
 1114              		.loc 1 200 5 is_stmt 1 view .LVU303
 200:Middlewares/LVGL/GUI/lvgl/src/core/lv_obj_scroll.c **** 
 1115              		.loc 1 200 15 is_stmt 0 view .LVU304
 1116 00b0 2046     		mov	r0, r4
ARM GAS  C:\Users\ADMINI~1\AppData\Local\Temp\cchMZgMB.s 			page 46


 1117 00b2 FFF7FEFF 		bl	lv_obj_get_scroll_x
 1118              	.LVL117:
 200:Middlewares/LVGL/GUI/lvgl/src/core/lv_obj_scroll.c **** 
 1119              		.loc 1 200 12 view .LVU305
 1120 00b6 4044     		add	r0, r0, r8
 1121              	.LVL118:
 202:Middlewares/LVGL/GUI/lvgl/src/core/lv_obj_scroll.c **** }
 1122              		.loc 1 202 5 is_stmt 1 view .LVU306
 202:Middlewares/LVGL/GUI/lvgl/src/core/lv_obj_scroll.c **** }
 1123              		.loc 1 202 12 is_stmt 0 view .LVU307
 1124 00b8 B842     		cmp	r0, r7
 1125 00ba B8BF     		it	lt
 1126 00bc 3846     		movlt	r0, r7
 1127              	.LVL119:
 202:Middlewares/LVGL/GUI/lvgl/src/core/lv_obj_scroll.c **** }
 1128              		.loc 1 202 12 view .LVU308
 1129 00be AFE7     		b	.L53
 1130              	.LVL120:
 1131              	.L61:
 195:Middlewares/LVGL/GUI/lvgl/src/core/lv_obj_scroll.c ****     }
 1132              		.loc 1 195 19 view .LVU309
 1133 00c0 024F     		ldr	r7, .L65+4
 1134              	.LVL121:
 195:Middlewares/LVGL/GUI/lvgl/src/core/lv_obj_scroll.c ****     }
 1135              		.loc 1 195 19 view .LVU310
 1136 00c2 E6E7     		b	.L59
 1137              	.LVL122:
 1138              	.L60:
 169:Middlewares/LVGL/GUI/lvgl/src/core/lv_obj_scroll.c ****         return -obj->spec_attr->scroll.x;
 1139              		.loc 1 169 43 view .LVU311
 1140 00c4 0020     		movs	r0, #0
 1141 00c6 ABE7     		b	.L53
 1142              	.L66:
 1143              		.align	2
 1144              	.L65:
 1145 00c8 01000400 		.word	262145
 1146 00cc 010000E0 		.word	-536870911
 1147              		.cfi_endproc
 1148              	.LFE171:
 1150              		.section	.text.lv_obj_get_scroll_right,"ax",%progbits
 1151              		.align	1
 1152              		.global	lv_obj_get_scroll_right
 1153              		.syntax unified
 1154              		.thumb
 1155              		.thumb_func
 1157              	lv_obj_get_scroll_right:
 1158              	.LVL123:
 1159              	.LFB172:
 206:Middlewares/LVGL/GUI/lvgl/src/core/lv_obj_scroll.c ****     LV_ASSERT_OBJ(obj, MY_CLASS);
 1160              		.loc 1 206 1 is_stmt 1 view -0
 1161              		.cfi_startproc
 1162              		@ args = 0, pretend = 0, frame = 0
 1163              		@ frame_needed = 0, uses_anonymous_args = 0
 206:Middlewares/LVGL/GUI/lvgl/src/core/lv_obj_scroll.c ****     LV_ASSERT_OBJ(obj, MY_CLASS);
 1164              		.loc 1 206 1 is_stmt 0 view .LVU313
 1165 0000 2DE9F843 		push	{r3, r4, r5, r6, r7, r8, r9, lr}
 1166              	.LCFI10:
ARM GAS  C:\Users\ADMINI~1\AppData\Local\Temp\cchMZgMB.s 			page 47


 1167              		.cfi_def_cfa_offset 32
 1168              		.cfi_offset 3, -32
 1169              		.cfi_offset 4, -28
 1170              		.cfi_offset 5, -24
 1171              		.cfi_offset 6, -20
 1172              		.cfi_offset 7, -16
 1173              		.cfi_offset 8, -12
 1174              		.cfi_offset 9, -8
 1175              		.cfi_offset 14, -4
 1176 0004 0546     		mov	r5, r0
 207:Middlewares/LVGL/GUI/lvgl/src/core/lv_obj_scroll.c **** 
 1177              		.loc 1 207 5 is_stmt 1 view .LVU314
 207:Middlewares/LVGL/GUI/lvgl/src/core/lv_obj_scroll.c **** 
 1178              		.loc 1 207 5 view .LVU315
 207:Middlewares/LVGL/GUI/lvgl/src/core/lv_obj_scroll.c **** 
 1179              		.loc 1 207 5 view .LVU316
 211:Middlewares/LVGL/GUI/lvgl/src/core/lv_obj_scroll.c ****         if(obj->spec_attr == NULL) return 0;
 1180              		.loc 1 211 5 view .LVU317
 1181              	.LVL124:
 1182              	.LBB118:
 1183              	.LBI118:
 542:Middlewares/LVGL/GUI/lvgl/src/core/lv_obj_style_gen.h **** {
 1184              		.loc 2 542 29 view .LVU318
 1185              	.LBB119:
 544:Middlewares/LVGL/GUI/lvgl/src/core/lv_obj_style_gen.h ****     return (lv_base_dir_t)v.num;
 1186              		.loc 2 544 5 view .LVU319
 544:Middlewares/LVGL/GUI/lvgl/src/core/lv_obj_style_gen.h ****     return (lv_base_dir_t)v.num;
 1187              		.loc 2 544 26 is_stmt 0 view .LVU320
 1188 0006 41F26A42 		movw	r2, #5226
 1189 000a 0021     		movs	r1, #0
 1190 000c FFF7FEFF 		bl	lv_obj_get_style_prop
 1191              	.LVL125:
 1192              		.loc 2 545 5 is_stmt 1 view .LVU321
 1193              		.loc 2 545 12 is_stmt 0 view .LVU322
 1194 0010 C0B2     		uxtb	r0, r0
 1195              	.LVL126:
 1196              		.loc 2 545 12 view .LVU323
 1197              	.LBE119:
 1198              	.LBE118:
 211:Middlewares/LVGL/GUI/lvgl/src/core/lv_obj_scroll.c ****         if(obj->spec_attr == NULL) return 0;
 1199              		.loc 1 211 7 view .LVU324
 1200 0012 0128     		cmp	r0, #1
 1201 0014 04D1     		bne	.L68
 212:Middlewares/LVGL/GUI/lvgl/src/core/lv_obj_scroll.c ****         return obj->spec_attr->scroll.x;
 1202              		.loc 1 212 9 is_stmt 1 view .LVU325
 212:Middlewares/LVGL/GUI/lvgl/src/core/lv_obj_scroll.c ****         return obj->spec_attr->scroll.x;
 1203              		.loc 1 212 15 is_stmt 0 view .LVU326
 1204 0016 AB68     		ldr	r3, [r5, #8]
 212:Middlewares/LVGL/GUI/lvgl/src/core/lv_obj_scroll.c ****         return obj->spec_attr->scroll.x;
 1205              		.loc 1 212 11 view .LVU327
 1206 0018 002B     		cmp	r3, #0
 1207 001a 4ED0     		beq	.L74
 213:Middlewares/LVGL/GUI/lvgl/src/core/lv_obj_scroll.c ****     }
 1208              		.loc 1 213 9 is_stmt 1 view .LVU328
 213:Middlewares/LVGL/GUI/lvgl/src/core/lv_obj_scroll.c ****     }
 1209              		.loc 1 213 38 is_stmt 0 view .LVU329
 1210 001c 1869     		ldr	r0, [r3, #16]
ARM GAS  C:\Users\ADMINI~1\AppData\Local\Temp\cchMZgMB.s 			page 48


 1211 001e 4AE0     		b	.L67
 1212              	.L68:
 217:Middlewares/LVGL/GUI/lvgl/src/core/lv_obj_scroll.c ****     uint32_t i;
 1213              		.loc 1 217 5 is_stmt 1 view .LVU330
 1214              	.LVL127:
 218:Middlewares/LVGL/GUI/lvgl/src/core/lv_obj_scroll.c ****     uint32_t child_cnt = lv_obj_get_child_cnt(obj);
 1215              		.loc 1 218 5 view .LVU331
 219:Middlewares/LVGL/GUI/lvgl/src/core/lv_obj_scroll.c ****     for(i = 0; i < child_cnt; i++) {
 1216              		.loc 1 219 5 view .LVU332
 219:Middlewares/LVGL/GUI/lvgl/src/core/lv_obj_scroll.c ****     for(i = 0; i < child_cnt; i++) {
 1217              		.loc 1 219 26 is_stmt 0 view .LVU333
 1218 0020 2846     		mov	r0, r5
 1219 0022 FFF7FEFF 		bl	lv_obj_get_child_cnt
 1220              	.LVL128:
 1221 0026 8046     		mov	r8, r0
 1222              	.LVL129:
 220:Middlewares/LVGL/GUI/lvgl/src/core/lv_obj_scroll.c ****         lv_obj_t * child = obj->spec_attr->children[i];
 1223              		.loc 1 220 5 is_stmt 1 view .LVU334
 220:Middlewares/LVGL/GUI/lvgl/src/core/lv_obj_scroll.c ****         lv_obj_t * child = obj->spec_attr->children[i];
 1224              		.loc 1 220 11 is_stmt 0 view .LVU335
 1225 0028 0024     		movs	r4, #0
 217:Middlewares/LVGL/GUI/lvgl/src/core/lv_obj_scroll.c ****     uint32_t i;
 1226              		.loc 1 217 16 view .LVU336
 1227 002a 254F     		ldr	r7, .L78
 220:Middlewares/LVGL/GUI/lvgl/src/core/lv_obj_scroll.c ****         lv_obj_t * child = obj->spec_attr->children[i];
 1228              		.loc 1 220 5 view .LVU337
 1229 002c 04E0     		b	.L70
 1230              	.LVL130:
 1231              	.L77:
 1232              	.LBB120:
 223:Middlewares/LVGL/GUI/lvgl/src/core/lv_obj_scroll.c ****     }
 1233              		.loc 1 223 9 is_stmt 1 view .LVU338
 223:Middlewares/LVGL/GUI/lvgl/src/core/lv_obj_scroll.c ****     }
 1234              		.loc 1 223 21 is_stmt 0 view .LVU339
 1235 002e F369     		ldr	r3, [r6, #28]
 223:Middlewares/LVGL/GUI/lvgl/src/core/lv_obj_scroll.c ****     }
 1236              		.loc 1 223 19 view .LVU340
 1237 0030 9F42     		cmp	r7, r3
 1238 0032 B8BF     		it	lt
 1239 0034 1F46     		movlt	r7, r3
 1240              	.LVL131:
 1241              	.L71:
 223:Middlewares/LVGL/GUI/lvgl/src/core/lv_obj_scroll.c ****     }
 1242              		.loc 1 223 19 view .LVU341
 1243              	.LBE120:
 220:Middlewares/LVGL/GUI/lvgl/src/core/lv_obj_scroll.c ****         lv_obj_t * child = obj->spec_attr->children[i];
 1244              		.loc 1 220 31 is_stmt 1 discriminator 2 view .LVU342
 220:Middlewares/LVGL/GUI/lvgl/src/core/lv_obj_scroll.c ****         lv_obj_t * child = obj->spec_attr->children[i];
 1245              		.loc 1 220 32 is_stmt 0 discriminator 2 view .LVU343
 1246 0036 0134     		adds	r4, r4, #1
 1247              	.LVL132:
 1248              	.L70:
 220:Middlewares/LVGL/GUI/lvgl/src/core/lv_obj_scroll.c ****         lv_obj_t * child = obj->spec_attr->children[i];
 1249              		.loc 1 220 16 is_stmt 1 discriminator 1 view .LVU344
 220:Middlewares/LVGL/GUI/lvgl/src/core/lv_obj_scroll.c ****         lv_obj_t * child = obj->spec_attr->children[i];
 1250              		.loc 1 220 5 is_stmt 0 discriminator 1 view .LVU345
 1251 0038 4445     		cmp	r4, r8
ARM GAS  C:\Users\ADMINI~1\AppData\Local\Temp\cchMZgMB.s 			page 49


 1252 003a 0AD2     		bcs	.L76
 1253              	.LBB121:
 221:Middlewares/LVGL/GUI/lvgl/src/core/lv_obj_scroll.c ****         if(lv_obj_has_flag_any(child,  LV_OBJ_FLAG_HIDDEN | LV_OBJ_FLAG_FLOATING)) continue;
 1254              		.loc 1 221 9 is_stmt 1 view .LVU346
 221:Middlewares/LVGL/GUI/lvgl/src/core/lv_obj_scroll.c ****         if(lv_obj_has_flag_any(child,  LV_OBJ_FLAG_HIDDEN | LV_OBJ_FLAG_FLOATING)) continue;
 1255              		.loc 1 221 31 is_stmt 0 view .LVU347
 1256 003c AB68     		ldr	r3, [r5, #8]
 221:Middlewares/LVGL/GUI/lvgl/src/core/lv_obj_scroll.c ****         if(lv_obj_has_flag_any(child,  LV_OBJ_FLAG_HIDDEN | LV_OBJ_FLAG_FLOATING)) continue;
 1257              		.loc 1 221 42 view .LVU348
 1258 003e 1B68     		ldr	r3, [r3]
 221:Middlewares/LVGL/GUI/lvgl/src/core/lv_obj_scroll.c ****         if(lv_obj_has_flag_any(child,  LV_OBJ_FLAG_HIDDEN | LV_OBJ_FLAG_FLOATING)) continue;
 1259              		.loc 1 221 20 view .LVU349
 1260 0040 53F82460 		ldr	r6, [r3, r4, lsl #2]
 1261              	.LVL133:
 222:Middlewares/LVGL/GUI/lvgl/src/core/lv_obj_scroll.c ****         child_res = LV_MAX(child_res, child->coords.x2);
 1262              		.loc 1 222 9 is_stmt 1 view .LVU350
 222:Middlewares/LVGL/GUI/lvgl/src/core/lv_obj_scroll.c ****         child_res = LV_MAX(child_res, child->coords.x2);
 1263              		.loc 1 222 12 is_stmt 0 view .LVU351
 1264 0044 1F49     		ldr	r1, .L78+4
 1265 0046 3046     		mov	r0, r6
 1266 0048 FFF7FEFF 		bl	lv_obj_has_flag_any
 1267              	.LVL134:
 222:Middlewares/LVGL/GUI/lvgl/src/core/lv_obj_scroll.c ****         child_res = LV_MAX(child_res, child->coords.x2);
 1268              		.loc 1 222 11 view .LVU352
 1269 004c 0028     		cmp	r0, #0
 1270 004e EED0     		beq	.L77
 1271 0050 F1E7     		b	.L71
 1272              	.LVL135:
 1273              	.L76:
 222:Middlewares/LVGL/GUI/lvgl/src/core/lv_obj_scroll.c ****         child_res = LV_MAX(child_res, child->coords.x2);
 1274              		.loc 1 222 11 view .LVU353
 1275              	.LBE121:
 226:Middlewares/LVGL/GUI/lvgl/src/core/lv_obj_scroll.c ****     lv_coord_t pad_left = lv_obj_get_style_pad_left(obj, LV_PART_MAIN);
 1276              		.loc 1 226 5 is_stmt 1 view .LVU354
 1277              	.LBB122:
 1278              	.LBI122:
 109:Middlewares/LVGL/GUI/lvgl/src/core/lv_obj_style_gen.h **** {
 1279              		.loc 2 109 26 view .LVU355
 1280              	.LBB123:
 111:Middlewares/LVGL/GUI/lvgl/src/core/lv_obj_style_gen.h ****     return (lv_coord_t)v.num;
 1281              		.loc 2 111 5 view .LVU356
 111:Middlewares/LVGL/GUI/lvgl/src/core/lv_obj_style_gen.h ****     return (lv_coord_t)v.num;
 1282              		.loc 2 111 26 is_stmt 0 view .LVU357
 1283 0052 41F61302 		movw	r2, #6163
 1284 0056 0021     		movs	r1, #0
 1285 0058 2846     		mov	r0, r5
 1286 005a FFF7FEFF 		bl	lv_obj_get_style_prop
 1287              	.LVL136:
 1288 005e 8046     		mov	r8, r0
 1289              	.LVL137:
 112:Middlewares/LVGL/GUI/lvgl/src/core/lv_obj_style_gen.h **** }
 1290              		.loc 2 112 5 is_stmt 1 view .LVU358
 112:Middlewares/LVGL/GUI/lvgl/src/core/lv_obj_style_gen.h **** }
 1291              		.loc 2 112 5 is_stmt 0 view .LVU359
 1292              	.LBE123:
 1293              	.LBE122:
 227:Middlewares/LVGL/GUI/lvgl/src/core/lv_obj_scroll.c ****     lv_coord_t border_width = lv_obj_get_style_border_width(obj, LV_PART_MAIN);
ARM GAS  C:\Users\ADMINI~1\AppData\Local\Temp\cchMZgMB.s 			page 50


 1294              		.loc 1 227 5 is_stmt 1 view .LVU360
 1295              	.LBB124:
 1296              	.LBI124:
 103:Middlewares/LVGL/GUI/lvgl/src/core/lv_obj_style_gen.h **** {
 1297              		.loc 2 103 26 view .LVU361
 1298              	.LBB125:
 105:Middlewares/LVGL/GUI/lvgl/src/core/lv_obj_style_gen.h ****     return (lv_coord_t)v.num;
 1299              		.loc 2 105 5 view .LVU362
 105:Middlewares/LVGL/GUI/lvgl/src/core/lv_obj_style_gen.h ****     return (lv_coord_t)v.num;
 1300              		.loc 2 105 26 is_stmt 0 view .LVU363
 1301 0060 41F61202 		movw	r2, #6162
 1302 0064 0021     		movs	r1, #0
 1303 0066 2846     		mov	r0, r5
 1304              	.LVL138:
 105:Middlewares/LVGL/GUI/lvgl/src/core/lv_obj_style_gen.h ****     return (lv_coord_t)v.num;
 1305              		.loc 2 105 26 view .LVU364
 1306 0068 FFF7FEFF 		bl	lv_obj_get_style_prop
 1307              	.LVL139:
 1308 006c 8146     		mov	r9, r0
 106:Middlewares/LVGL/GUI/lvgl/src/core/lv_obj_style_gen.h **** }
 1309              		.loc 2 106 5 is_stmt 1 view .LVU365
 1310              	.LVL140:
 106:Middlewares/LVGL/GUI/lvgl/src/core/lv_obj_style_gen.h **** }
 1311              		.loc 2 106 5 is_stmt 0 view .LVU366
 1312              	.LBE125:
 1313              	.LBE124:
 228:Middlewares/LVGL/GUI/lvgl/src/core/lv_obj_scroll.c **** 
 1314              		.loc 1 228 5 is_stmt 1 view .LVU367
 1315              	.LBB126:
 1316              	.LBI126:
 241:Middlewares/LVGL/GUI/lvgl/src/core/lv_obj_style_gen.h **** {
 1317              		.loc 2 241 26 view .LVU368
 1318              	.LBB127:
 243:Middlewares/LVGL/GUI/lvgl/src/core/lv_obj_style_gen.h ****     return (lv_coord_t)v.num;
 1319              		.loc 2 243 5 view .LVU369
 243:Middlewares/LVGL/GUI/lvgl/src/core/lv_obj_style_gen.h ****     return (lv_coord_t)v.num;
 1320              		.loc 2 243 26 is_stmt 0 view .LVU370
 1321 006e 41F23202 		movw	r2, #4146
 1322 0072 0021     		movs	r1, #0
 1323 0074 2846     		mov	r0, r5
 1324              	.LVL141:
 243:Middlewares/LVGL/GUI/lvgl/src/core/lv_obj_style_gen.h ****     return (lv_coord_t)v.num;
 1325              		.loc 2 243 26 view .LVU371
 1326 0076 FFF7FEFF 		bl	lv_obj_get_style_prop
 1327              	.LVL142:
 1328 007a 0646     		mov	r6, r0
 244:Middlewares/LVGL/GUI/lvgl/src/core/lv_obj_style_gen.h **** }
 1329              		.loc 2 244 5 is_stmt 1 view .LVU372
 1330              	.LVL143:
 244:Middlewares/LVGL/GUI/lvgl/src/core/lv_obj_style_gen.h **** }
 1331              		.loc 2 244 5 is_stmt 0 view .LVU373
 1332              	.LBE127:
 1333              	.LBE126:
 230:Middlewares/LVGL/GUI/lvgl/src/core/lv_obj_scroll.c ****         child_res -= (obj->coords.x2 - pad_right - border_width);
 1334              		.loc 1 230 5 is_stmt 1 view .LVU374
 230:Middlewares/LVGL/GUI/lvgl/src/core/lv_obj_scroll.c ****         child_res -= (obj->coords.x2 - pad_right - border_width);
 1335              		.loc 1 230 7 is_stmt 0 view .LVU375
ARM GAS  C:\Users\ADMINI~1\AppData\Local\Temp\cchMZgMB.s 			page 51


 1336 007c 104B     		ldr	r3, .L78
 1337 007e 9F42     		cmp	r7, r3
 1338 0080 04D0     		beq	.L73
 231:Middlewares/LVGL/GUI/lvgl/src/core/lv_obj_scroll.c ****     }
 1339              		.loc 1 231 9 is_stmt 1 view .LVU376
 231:Middlewares/LVGL/GUI/lvgl/src/core/lv_obj_scroll.c ****     }
 1340              		.loc 1 231 34 is_stmt 0 view .LVU377
 1341 0082 EB69     		ldr	r3, [r5, #28]
 231:Middlewares/LVGL/GUI/lvgl/src/core/lv_obj_scroll.c ****     }
 1342              		.loc 1 231 38 view .LVU378
 1343 0084 A3EB0803 		sub	r3, r3, r8
 231:Middlewares/LVGL/GUI/lvgl/src/core/lv_obj_scroll.c ****     }
 1344              		.loc 1 231 50 view .LVU379
 1345 0088 1B1A     		subs	r3, r3, r0
 231:Middlewares/LVGL/GUI/lvgl/src/core/lv_obj_scroll.c ****     }
 1346              		.loc 1 231 19 view .LVU380
 1347 008a FF1A     		subs	r7, r7, r3
 1348              	.LVL144:
 1349              	.L73:
 234:Middlewares/LVGL/GUI/lvgl/src/core/lv_obj_scroll.c ****     self_w = lv_obj_get_self_width(obj);
 1350              		.loc 1 234 5 is_stmt 1 view .LVU381
 235:Middlewares/LVGL/GUI/lvgl/src/core/lv_obj_scroll.c ****     self_w = self_w - (lv_obj_get_width(obj) - pad_right - pad_left - 2 * border_width);
 1351              		.loc 1 235 5 view .LVU382
 235:Middlewares/LVGL/GUI/lvgl/src/core/lv_obj_scroll.c ****     self_w = self_w - (lv_obj_get_width(obj) - pad_right - pad_left - 2 * border_width);
 1352              		.loc 1 235 14 is_stmt 0 view .LVU383
 1353 008c 2846     		mov	r0, r5
 1354              	.LVL145:
 235:Middlewares/LVGL/GUI/lvgl/src/core/lv_obj_scroll.c ****     self_w = self_w - (lv_obj_get_width(obj) - pad_right - pad_left - 2 * border_width);
 1355              		.loc 1 235 14 view .LVU384
 1356 008e FFF7FEFF 		bl	lv_obj_get_self_width
 1357              	.LVL146:
 1358 0092 0446     		mov	r4, r0
 1359              	.LVL147:
 236:Middlewares/LVGL/GUI/lvgl/src/core/lv_obj_scroll.c ****     self_w -= lv_obj_get_scroll_x(obj);
 1360              		.loc 1 236 5 is_stmt 1 view .LVU385
 236:Middlewares/LVGL/GUI/lvgl/src/core/lv_obj_scroll.c ****     self_w -= lv_obj_get_scroll_x(obj);
 1361              		.loc 1 236 24 is_stmt 0 view .LVU386
 1362 0094 2846     		mov	r0, r5
 1363              	.LVL148:
 236:Middlewares/LVGL/GUI/lvgl/src/core/lv_obj_scroll.c ****     self_w -= lv_obj_get_scroll_x(obj);
 1364              		.loc 1 236 24 view .LVU387
 1365 0096 FFF7FEFF 		bl	lv_obj_get_width
 1366              	.LVL149:
 236:Middlewares/LVGL/GUI/lvgl/src/core/lv_obj_scroll.c ****     self_w -= lv_obj_get_scroll_x(obj);
 1367              		.loc 1 236 46 view .LVU388
 1368 009a A0EB0803 		sub	r3, r0, r8
 236:Middlewares/LVGL/GUI/lvgl/src/core/lv_obj_scroll.c ****     self_w -= lv_obj_get_scroll_x(obj);
 1369              		.loc 1 236 58 view .LVU389
 1370 009e A3EB0903 		sub	r3, r3, r9
 236:Middlewares/LVGL/GUI/lvgl/src/core/lv_obj_scroll.c ****     self_w -= lv_obj_get_scroll_x(obj);
 1371              		.loc 1 236 69 view .LVU390
 1372 00a2 A3EB4600 		sub	r0, r3, r6, lsl #1
 236:Middlewares/LVGL/GUI/lvgl/src/core/lv_obj_scroll.c ****     self_w -= lv_obj_get_scroll_x(obj);
 1373              		.loc 1 236 12 view .LVU391
 1374 00a6 241A     		subs	r4, r4, r0
 1375              	.LVL150:
 237:Middlewares/LVGL/GUI/lvgl/src/core/lv_obj_scroll.c ****     return LV_MAX(child_res, self_w);
ARM GAS  C:\Users\ADMINI~1\AppData\Local\Temp\cchMZgMB.s 			page 52


 1376              		.loc 1 237 5 is_stmt 1 view .LVU392
 237:Middlewares/LVGL/GUI/lvgl/src/core/lv_obj_scroll.c ****     return LV_MAX(child_res, self_w);
 1377              		.loc 1 237 15 is_stmt 0 view .LVU393
 1378 00a8 2846     		mov	r0, r5
 1379 00aa FFF7FEFF 		bl	lv_obj_get_scroll_x
 1380              	.LVL151:
 237:Middlewares/LVGL/GUI/lvgl/src/core/lv_obj_scroll.c ****     return LV_MAX(child_res, self_w);
 1381              		.loc 1 237 12 view .LVU394
 1382 00ae 201A     		subs	r0, r4, r0
 1383              	.LVL152:
 238:Middlewares/LVGL/GUI/lvgl/src/core/lv_obj_scroll.c **** }
 1384              		.loc 1 238 5 is_stmt 1 view .LVU395
 238:Middlewares/LVGL/GUI/lvgl/src/core/lv_obj_scroll.c **** }
 1385              		.loc 1 238 12 is_stmt 0 view .LVU396
 1386 00b0 B842     		cmp	r0, r7
 1387 00b2 B8BF     		it	lt
 1388 00b4 3846     		movlt	r0, r7
 1389              	.LVL153:
 1390              	.L67:
 239:Middlewares/LVGL/GUI/lvgl/src/core/lv_obj_scroll.c **** 
 1391              		.loc 1 239 1 view .LVU397
 1392 00b6 BDE8F883 		pop	{r3, r4, r5, r6, r7, r8, r9, pc}
 1393              	.LVL154:
 1394              	.L74:
 212:Middlewares/LVGL/GUI/lvgl/src/core/lv_obj_scroll.c ****         return obj->spec_attr->scroll.x;
 1395              		.loc 1 212 43 view .LVU398
 1396 00ba 0020     		movs	r0, #0
 1397 00bc FBE7     		b	.L67
 1398              	.L79:
 1399 00be 00BF     		.align	2
 1400              	.L78:
 1401 00c0 010000E0 		.word	-536870911
 1402 00c4 01000400 		.word	262145
 1403              		.cfi_endproc
 1404              	.LFE172:
 1406              		.section	.text.lv_obj_get_scroll_end,"ax",%progbits
 1407              		.align	1
 1408              		.global	lv_obj_get_scroll_end
 1409              		.syntax unified
 1410              		.thumb
 1411              		.thumb_func
 1413              	lv_obj_get_scroll_end:
 1414              	.LVL155:
 1415              	.LFB173:
 242:Middlewares/LVGL/GUI/lvgl/src/core/lv_obj_scroll.c ****     lv_anim_t * a;
 1416              		.loc 1 242 1 is_stmt 1 view -0
 1417              		.cfi_startproc
 1418              		@ args = 0, pretend = 0, frame = 0
 1419              		@ frame_needed = 0, uses_anonymous_args = 0
 242:Middlewares/LVGL/GUI/lvgl/src/core/lv_obj_scroll.c ****     lv_anim_t * a;
 1420              		.loc 1 242 1 is_stmt 0 view .LVU400
 1421 0000 38B5     		push	{r3, r4, r5, lr}
 1422              	.LCFI11:
 1423              		.cfi_def_cfa_offset 16
 1424              		.cfi_offset 3, -16
 1425              		.cfi_offset 4, -12
 1426              		.cfi_offset 5, -8
ARM GAS  C:\Users\ADMINI~1\AppData\Local\Temp\cchMZgMB.s 			page 53


 1427              		.cfi_offset 14, -4
 1428 0002 0546     		mov	r5, r0
 1429 0004 0C46     		mov	r4, r1
 243:Middlewares/LVGL/GUI/lvgl/src/core/lv_obj_scroll.c ****     a = lv_anim_get(obj, scroll_x_anim);
 1430              		.loc 1 243 5 is_stmt 1 view .LVU401
 244:Middlewares/LVGL/GUI/lvgl/src/core/lv_obj_scroll.c ****     end->x = a ? -a->end_value : lv_obj_get_scroll_x(obj);
 1431              		.loc 1 244 5 view .LVU402
 244:Middlewares/LVGL/GUI/lvgl/src/core/lv_obj_scroll.c ****     end->x = a ? -a->end_value : lv_obj_get_scroll_x(obj);
 1432              		.loc 1 244 9 is_stmt 0 view .LVU403
 1433 0006 0C49     		ldr	r1, .L86
 1434              	.LVL156:
 244:Middlewares/LVGL/GUI/lvgl/src/core/lv_obj_scroll.c ****     end->x = a ? -a->end_value : lv_obj_get_scroll_x(obj);
 1435              		.loc 1 244 9 view .LVU404
 1436 0008 FFF7FEFF 		bl	lv_anim_get
 1437              	.LVL157:
 245:Middlewares/LVGL/GUI/lvgl/src/core/lv_obj_scroll.c **** 
 1438              		.loc 1 245 5 is_stmt 1 view .LVU405
 245:Middlewares/LVGL/GUI/lvgl/src/core/lv_obj_scroll.c **** 
 1439              		.loc 1 245 32 is_stmt 0 view .LVU406
 1440 000c 58B1     		cbz	r0, .L81
 245:Middlewares/LVGL/GUI/lvgl/src/core/lv_obj_scroll.c **** 
 1441              		.loc 1 245 20 discriminator 1 view .LVU407
 1442 000e 406A     		ldr	r0, [r0, #36]
 1443              	.LVL158:
 245:Middlewares/LVGL/GUI/lvgl/src/core/lv_obj_scroll.c **** 
 1444              		.loc 1 245 32 discriminator 1 view .LVU408
 1445 0010 4042     		rsbs	r0, r0, #0
 1446              	.L82:
 245:Middlewares/LVGL/GUI/lvgl/src/core/lv_obj_scroll.c **** 
 1447              		.loc 1 245 12 discriminator 4 view .LVU409
 1448 0012 2060     		str	r0, [r4]
 247:Middlewares/LVGL/GUI/lvgl/src/core/lv_obj_scroll.c ****     end->y = a ? -a->end_value : lv_obj_get_scroll_y(obj);
 1449              		.loc 1 247 5 is_stmt 1 discriminator 4 view .LVU410
 247:Middlewares/LVGL/GUI/lvgl/src/core/lv_obj_scroll.c ****     end->y = a ? -a->end_value : lv_obj_get_scroll_y(obj);
 1450              		.loc 1 247 9 is_stmt 0 discriminator 4 view .LVU411
 1451 0014 0949     		ldr	r1, .L86+4
 1452 0016 2846     		mov	r0, r5
 1453 0018 FFF7FEFF 		bl	lv_anim_get
 1454              	.LVL159:
 248:Middlewares/LVGL/GUI/lvgl/src/core/lv_obj_scroll.c **** }
 1455              		.loc 1 248 5 is_stmt 1 discriminator 4 view .LVU412
 248:Middlewares/LVGL/GUI/lvgl/src/core/lv_obj_scroll.c **** }
 1456              		.loc 1 248 32 is_stmt 0 discriminator 4 view .LVU413
 1457 001c 38B1     		cbz	r0, .L83
 248:Middlewares/LVGL/GUI/lvgl/src/core/lv_obj_scroll.c **** }
 1458              		.loc 1 248 20 discriminator 1 view .LVU414
 1459 001e 406A     		ldr	r0, [r0, #36]
 1460              	.LVL160:
 248:Middlewares/LVGL/GUI/lvgl/src/core/lv_obj_scroll.c **** }
 1461              		.loc 1 248 32 discriminator 1 view .LVU415
 1462 0020 4042     		rsbs	r0, r0, #0
 1463              	.L84:
 248:Middlewares/LVGL/GUI/lvgl/src/core/lv_obj_scroll.c **** }
 1464              		.loc 1 248 12 discriminator 4 view .LVU416
 1465 0022 6060     		str	r0, [r4, #4]
 249:Middlewares/LVGL/GUI/lvgl/src/core/lv_obj_scroll.c **** 
 1466              		.loc 1 249 1 discriminator 4 view .LVU417
ARM GAS  C:\Users\ADMINI~1\AppData\Local\Temp\cchMZgMB.s 			page 54


 1467 0024 38BD     		pop	{r3, r4, r5, pc}
 1468              	.LVL161:
 1469              	.L81:
 245:Middlewares/LVGL/GUI/lvgl/src/core/lv_obj_scroll.c **** 
 1470              		.loc 1 245 34 discriminator 2 view .LVU418
 1471 0026 2846     		mov	r0, r5
 1472              	.LVL162:
 245:Middlewares/LVGL/GUI/lvgl/src/core/lv_obj_scroll.c **** 
 1473              		.loc 1 245 34 discriminator 2 view .LVU419
 1474 0028 FFF7FEFF 		bl	lv_obj_get_scroll_x
 1475              	.LVL163:
 1476 002c F1E7     		b	.L82
 1477              	.LVL164:
 1478              	.L83:
 248:Middlewares/LVGL/GUI/lvgl/src/core/lv_obj_scroll.c **** }
 1479              		.loc 1 248 34 discriminator 2 view .LVU420
 1480 002e 2846     		mov	r0, r5
 1481              	.LVL165:
 248:Middlewares/LVGL/GUI/lvgl/src/core/lv_obj_scroll.c **** }
 1482              		.loc 1 248 34 discriminator 2 view .LVU421
 1483 0030 FFF7FEFF 		bl	lv_obj_get_scroll_y
 1484              	.LVL166:
 1485 0034 F5E7     		b	.L84
 1486              	.L87:
 1487 0036 00BF     		.align	2
 1488              	.L86:
 1489 0038 00000000 		.word	scroll_x_anim
 1490 003c 00000000 		.word	scroll_y_anim
 1491              		.cfi_endproc
 1492              	.LFE173:
 1494              		.section	.text.lv_obj_scroll_by,"ax",%progbits
 1495              		.align	1
 1496              		.global	lv_obj_scroll_by
 1497              		.syntax unified
 1498              		.thumb
 1499              		.thumb_func
 1501              	lv_obj_scroll_by:
 1502              	.LVL167:
 1503              	.LFB175:
 305:Middlewares/LVGL/GUI/lvgl/src/core/lv_obj_scroll.c ****     if(dx == 0 && dy == 0) return;
 1504              		.loc 1 305 1 is_stmt 1 view -0
 1505              		.cfi_startproc
 1506              		@ args = 0, pretend = 0, frame = 64
 1507              		@ frame_needed = 0, uses_anonymous_args = 0
 305:Middlewares/LVGL/GUI/lvgl/src/core/lv_obj_scroll.c ****     if(dx == 0 && dy == 0) return;
 1508              		.loc 1 305 1 is_stmt 0 view .LVU423
 1509 0000 2DE9F041 		push	{r4, r5, r6, r7, r8, lr}
 1510              	.LCFI12:
 1511              		.cfi_def_cfa_offset 24
 1512              		.cfi_offset 4, -24
 1513              		.cfi_offset 5, -20
 1514              		.cfi_offset 6, -16
 1515              		.cfi_offset 7, -12
 1516              		.cfi_offset 8, -8
 1517              		.cfi_offset 14, -4
 1518 0004 90B0     		sub	sp, sp, #64
 1519              	.LCFI13:
ARM GAS  C:\Users\ADMINI~1\AppData\Local\Temp\cchMZgMB.s 			page 55


 1520              		.cfi_def_cfa_offset 88
 1521 0006 0446     		mov	r4, r0
 1522 0008 1546     		mov	r5, r2
 306:Middlewares/LVGL/GUI/lvgl/src/core/lv_obj_scroll.c ****     if(anim_en == LV_ANIM_ON) {
 1523              		.loc 1 306 5 is_stmt 1 view .LVU424
 306:Middlewares/LVGL/GUI/lvgl/src/core/lv_obj_scroll.c ****     if(anim_en == LV_ANIM_ON) {
 1524              		.loc 1 306 7 is_stmt 0 view .LVU425
 1525 000a 0F46     		mov	r7, r1
 1526 000c 01B9     		cbnz	r1, .L89
 306:Middlewares/LVGL/GUI/lvgl/src/core/lv_obj_scroll.c ****     if(anim_en == LV_ANIM_ON) {
 1527              		.loc 1 306 16 discriminator 1 view .LVU426
 1528 000e CAB1     		cbz	r2, .L88
 1529              	.L89:
 307:Middlewares/LVGL/GUI/lvgl/src/core/lv_obj_scroll.c ****         lv_disp_t * d = lv_obj_get_disp(obj);
 1530              		.loc 1 307 5 is_stmt 1 view .LVU427
 307:Middlewares/LVGL/GUI/lvgl/src/core/lv_obj_scroll.c ****         lv_disp_t * d = lv_obj_get_disp(obj);
 1531              		.loc 1 307 7 is_stmt 0 view .LVU428
 1532 0010 012B     		cmp	r3, #1
 1533 0012 1AD0     		beq	.L103
 1534              	.LBB128:
 348:Middlewares/LVGL/GUI/lvgl/src/core/lv_obj_scroll.c ****         bool x_del = lv_anim_del(obj, scroll_x_anim);
 1535              		.loc 1 348 9 is_stmt 1 view .LVU429
 348:Middlewares/LVGL/GUI/lvgl/src/core/lv_obj_scroll.c ****         bool x_del = lv_anim_del(obj, scroll_x_anim);
 1536              		.loc 1 348 22 is_stmt 0 view .LVU430
 1537 0014 3D49     		ldr	r1, .L105
 1538              	.LVL168:
 348:Middlewares/LVGL/GUI/lvgl/src/core/lv_obj_scroll.c ****         bool x_del = lv_anim_del(obj, scroll_x_anim);
 1539              		.loc 1 348 22 view .LVU431
 1540 0016 2046     		mov	r0, r4
 1541              	.LVL169:
 348:Middlewares/LVGL/GUI/lvgl/src/core/lv_obj_scroll.c ****         bool x_del = lv_anim_del(obj, scroll_x_anim);
 1542              		.loc 1 348 22 view .LVU432
 1543 0018 FFF7FEFF 		bl	lv_anim_del
 1544              	.LVL170:
 348:Middlewares/LVGL/GUI/lvgl/src/core/lv_obj_scroll.c ****         bool x_del = lv_anim_del(obj, scroll_x_anim);
 1545              		.loc 1 348 22 view .LVU433
 1546 001c 0646     		mov	r6, r0
 1547              	.LVL171:
 349:Middlewares/LVGL/GUI/lvgl/src/core/lv_obj_scroll.c ****         scroll_by_raw(obj, dx, dy);
 1548              		.loc 1 349 9 is_stmt 1 view .LVU434
 349:Middlewares/LVGL/GUI/lvgl/src/core/lv_obj_scroll.c ****         scroll_by_raw(obj, dx, dy);
 1549              		.loc 1 349 22 is_stmt 0 view .LVU435
 1550 001e 3C49     		ldr	r1, .L105+4
 1551 0020 2046     		mov	r0, r4
 1552 0022 FFF7FEFF 		bl	lv_anim_del
 1553              	.LVL172:
 1554 0026 8046     		mov	r8, r0
 1555              	.LVL173:
 350:Middlewares/LVGL/GUI/lvgl/src/core/lv_obj_scroll.c ****         if(y_del || x_del) {
 1556              		.loc 1 350 9 is_stmt 1 view .LVU436
 1557 0028 2A46     		mov	r2, r5
 1558 002a 3946     		mov	r1, r7
 1559 002c 2046     		mov	r0, r4
 1560 002e FFF7FEFF 		bl	scroll_by_raw
 1561              	.LVL174:
 351:Middlewares/LVGL/GUI/lvgl/src/core/lv_obj_scroll.c ****             lv_res_t res;
 1562              		.loc 1 351 9 view .LVU437
ARM GAS  C:\Users\ADMINI~1\AppData\Local\Temp\cchMZgMB.s 			page 56


 351:Middlewares/LVGL/GUI/lvgl/src/core/lv_obj_scroll.c ****             lv_res_t res;
 1563              		.loc 1 351 11 is_stmt 0 view .LVU438
 1564 0032 16B9     		cbnz	r6, .L97
 351:Middlewares/LVGL/GUI/lvgl/src/core/lv_obj_scroll.c ****             lv_res_t res;
 1565              		.loc 1 351 18 discriminator 1 view .LVU439
 1566 0034 B8F1000F 		cmp	r8, #0
 1567 0038 04D0     		beq	.L88
 1568              	.L97:
 1569              	.LBB129:
 352:Middlewares/LVGL/GUI/lvgl/src/core/lv_obj_scroll.c ****             res = lv_event_send(obj, LV_EVENT_SCROLL_END, NULL);
 1570              		.loc 1 352 13 is_stmt 1 view .LVU440
 353:Middlewares/LVGL/GUI/lvgl/src/core/lv_obj_scroll.c ****             if(res != LV_RES_OK) return;
 1571              		.loc 1 353 13 view .LVU441
 353:Middlewares/LVGL/GUI/lvgl/src/core/lv_obj_scroll.c ****             if(res != LV_RES_OK) return;
 1572              		.loc 1 353 19 is_stmt 0 view .LVU442
 1573 003a 0022     		movs	r2, #0
 1574 003c 0A21     		movs	r1, #10
 1575 003e 2046     		mov	r0, r4
 1576 0040 FFF7FEFF 		bl	lv_event_send
 1577              	.LVL175:
 354:Middlewares/LVGL/GUI/lvgl/src/core/lv_obj_scroll.c ****         }
 1578              		.loc 1 354 13 is_stmt 1 view .LVU443
 1579              	.L88:
 354:Middlewares/LVGL/GUI/lvgl/src/core/lv_obj_scroll.c ****         }
 1580              		.loc 1 354 13 is_stmt 0 view .LVU444
 1581              	.LBE129:
 1582              	.LBE128:
 357:Middlewares/LVGL/GUI/lvgl/src/core/lv_obj_scroll.c **** 
 1583              		.loc 1 357 1 view .LVU445
 1584 0044 10B0     		add	sp, sp, #64
 1585              	.LCFI14:
 1586              		.cfi_remember_state
 1587              		.cfi_def_cfa_offset 24
 1588              		@ sp needed
 1589 0046 BDE8F081 		pop	{r4, r5, r6, r7, r8, pc}
 1590              	.LVL176:
 1591              	.L103:
 1592              	.LCFI15:
 1593              		.cfi_restore_state
 1594              	.LBB130:
 308:Middlewares/LVGL/GUI/lvgl/src/core/lv_obj_scroll.c ****         lv_anim_t a;
 1595              		.loc 1 308 9 is_stmt 1 view .LVU446
 308:Middlewares/LVGL/GUI/lvgl/src/core/lv_obj_scroll.c ****         lv_anim_t a;
 1596              		.loc 1 308 25 is_stmt 0 view .LVU447
 1597 004a 2046     		mov	r0, r4
 1598              	.LVL177:
 308:Middlewares/LVGL/GUI/lvgl/src/core/lv_obj_scroll.c ****         lv_anim_t a;
 1599              		.loc 1 308 25 view .LVU448
 1600 004c FFF7FEFF 		bl	lv_obj_get_disp
 1601              	.LVL178:
 308:Middlewares/LVGL/GUI/lvgl/src/core/lv_obj_scroll.c ****         lv_anim_t a;
 1602              		.loc 1 308 25 view .LVU449
 1603 0050 0646     		mov	r6, r0
 1604              	.LVL179:
 309:Middlewares/LVGL/GUI/lvgl/src/core/lv_obj_scroll.c ****         lv_anim_init(&a);
 1605              		.loc 1 309 9 is_stmt 1 view .LVU450
 310:Middlewares/LVGL/GUI/lvgl/src/core/lv_obj_scroll.c ****         lv_anim_set_var(&a, obj);
ARM GAS  C:\Users\ADMINI~1\AppData\Local\Temp\cchMZgMB.s 			page 57


 1606              		.loc 1 310 9 view .LVU451
 1607 0052 6846     		mov	r0, sp
 1608              	.LVL180:
 310:Middlewares/LVGL/GUI/lvgl/src/core/lv_obj_scroll.c ****         lv_anim_set_var(&a, obj);
 1609              		.loc 1 310 9 is_stmt 0 view .LVU452
 1610 0054 FFF7FEFF 		bl	lv_anim_init
 1611              	.LVL181:
 311:Middlewares/LVGL/GUI/lvgl/src/core/lv_obj_scroll.c ****         lv_anim_set_ready_cb(&a, scroll_anim_ready_cb);
 1612              		.loc 1 311 9 is_stmt 1 view .LVU453
 1613              	.LBB131:
 1614              	.LBI131:
 1615              		.file 3 "Middlewares/LVGL/GUI/lvgl/src/core/../misc/lv_anim.h"
   1:Middlewares/LVGL/GUI/lvgl/src/core/../misc/lv_anim.h **** /**
   2:Middlewares/LVGL/GUI/lvgl/src/core/../misc/lv_anim.h ****  * @file lv_anim.h
   3:Middlewares/LVGL/GUI/lvgl/src/core/../misc/lv_anim.h ****  *
   4:Middlewares/LVGL/GUI/lvgl/src/core/../misc/lv_anim.h ****  */
   5:Middlewares/LVGL/GUI/lvgl/src/core/../misc/lv_anim.h **** 
   6:Middlewares/LVGL/GUI/lvgl/src/core/../misc/lv_anim.h **** #ifndef LV_ANIM_H
   7:Middlewares/LVGL/GUI/lvgl/src/core/../misc/lv_anim.h **** #define LV_ANIM_H
   8:Middlewares/LVGL/GUI/lvgl/src/core/../misc/lv_anim.h **** 
   9:Middlewares/LVGL/GUI/lvgl/src/core/../misc/lv_anim.h **** #ifdef __cplusplus
  10:Middlewares/LVGL/GUI/lvgl/src/core/../misc/lv_anim.h **** extern "C" {
  11:Middlewares/LVGL/GUI/lvgl/src/core/../misc/lv_anim.h **** #endif
  12:Middlewares/LVGL/GUI/lvgl/src/core/../misc/lv_anim.h **** 
  13:Middlewares/LVGL/GUI/lvgl/src/core/../misc/lv_anim.h **** /*********************
  14:Middlewares/LVGL/GUI/lvgl/src/core/../misc/lv_anim.h ****  *      INCLUDES
  15:Middlewares/LVGL/GUI/lvgl/src/core/../misc/lv_anim.h ****  *********************/
  16:Middlewares/LVGL/GUI/lvgl/src/core/../misc/lv_anim.h **** #include "../lv_conf_internal.h"
  17:Middlewares/LVGL/GUI/lvgl/src/core/../misc/lv_anim.h **** 
  18:Middlewares/LVGL/GUI/lvgl/src/core/../misc/lv_anim.h **** #include <stdint.h>
  19:Middlewares/LVGL/GUI/lvgl/src/core/../misc/lv_anim.h **** #include <stdbool.h>
  20:Middlewares/LVGL/GUI/lvgl/src/core/../misc/lv_anim.h **** #include <stddef.h>
  21:Middlewares/LVGL/GUI/lvgl/src/core/../misc/lv_anim.h **** 
  22:Middlewares/LVGL/GUI/lvgl/src/core/../misc/lv_anim.h **** /*********************
  23:Middlewares/LVGL/GUI/lvgl/src/core/../misc/lv_anim.h ****  *      DEFINES
  24:Middlewares/LVGL/GUI/lvgl/src/core/../misc/lv_anim.h ****  *********************/
  25:Middlewares/LVGL/GUI/lvgl/src/core/../misc/lv_anim.h **** 
  26:Middlewares/LVGL/GUI/lvgl/src/core/../misc/lv_anim.h **** #define LV_ANIM_REPEAT_INFINITE      0xFFFF
  27:Middlewares/LVGL/GUI/lvgl/src/core/../misc/lv_anim.h **** #define LV_ANIM_PLAYTIME_INFINITE    0xFFFFFFFF
  28:Middlewares/LVGL/GUI/lvgl/src/core/../misc/lv_anim.h **** 
  29:Middlewares/LVGL/GUI/lvgl/src/core/../misc/lv_anim.h **** LV_EXPORT_CONST_INT(LV_ANIM_REPEAT_INFINITE);
  30:Middlewares/LVGL/GUI/lvgl/src/core/../misc/lv_anim.h **** LV_EXPORT_CONST_INT(LV_ANIM_PLAYTIME_INFINITE);
  31:Middlewares/LVGL/GUI/lvgl/src/core/../misc/lv_anim.h **** 
  32:Middlewares/LVGL/GUI/lvgl/src/core/../misc/lv_anim.h **** /**********************
  33:Middlewares/LVGL/GUI/lvgl/src/core/../misc/lv_anim.h ****  *      TYPEDEFS
  34:Middlewares/LVGL/GUI/lvgl/src/core/../misc/lv_anim.h ****  **********************/
  35:Middlewares/LVGL/GUI/lvgl/src/core/../misc/lv_anim.h **** 
  36:Middlewares/LVGL/GUI/lvgl/src/core/../misc/lv_anim.h **** /** Can be used to indicate if animations are enabled or disabled in a case*/
  37:Middlewares/LVGL/GUI/lvgl/src/core/../misc/lv_anim.h **** typedef enum {
  38:Middlewares/LVGL/GUI/lvgl/src/core/../misc/lv_anim.h ****     LV_ANIM_OFF,
  39:Middlewares/LVGL/GUI/lvgl/src/core/../misc/lv_anim.h ****     LV_ANIM_ON,
  40:Middlewares/LVGL/GUI/lvgl/src/core/../misc/lv_anim.h **** } lv_anim_enable_t;
  41:Middlewares/LVGL/GUI/lvgl/src/core/../misc/lv_anim.h **** 
  42:Middlewares/LVGL/GUI/lvgl/src/core/../misc/lv_anim.h **** struct _lv_anim_t;
  43:Middlewares/LVGL/GUI/lvgl/src/core/../misc/lv_anim.h **** 
  44:Middlewares/LVGL/GUI/lvgl/src/core/../misc/lv_anim.h **** /** Get the current value during an animation*/
  45:Middlewares/LVGL/GUI/lvgl/src/core/../misc/lv_anim.h **** typedef int32_t (*lv_anim_path_cb_t)(const struct _lv_anim_t *);
ARM GAS  C:\Users\ADMINI~1\AppData\Local\Temp\cchMZgMB.s 			page 58


  46:Middlewares/LVGL/GUI/lvgl/src/core/../misc/lv_anim.h **** 
  47:Middlewares/LVGL/GUI/lvgl/src/core/../misc/lv_anim.h **** /** Generic prototype of "animator" functions.
  48:Middlewares/LVGL/GUI/lvgl/src/core/../misc/lv_anim.h ****  * First parameter is the variable to animate.
  49:Middlewares/LVGL/GUI/lvgl/src/core/../misc/lv_anim.h ****  * Second parameter is the value to set.
  50:Middlewares/LVGL/GUI/lvgl/src/core/../misc/lv_anim.h ****  * Compatible with `lv_xxx_set_yyy(obj, value)` functions
  51:Middlewares/LVGL/GUI/lvgl/src/core/../misc/lv_anim.h ****  * The `x` in `_xcb_t` means it's not a fully generic prototype because
  52:Middlewares/LVGL/GUI/lvgl/src/core/../misc/lv_anim.h ****  * it doesn't receive `lv_anim_t *` as its first argument*/
  53:Middlewares/LVGL/GUI/lvgl/src/core/../misc/lv_anim.h **** typedef void (*lv_anim_exec_xcb_t)(void *, int32_t);
  54:Middlewares/LVGL/GUI/lvgl/src/core/../misc/lv_anim.h **** 
  55:Middlewares/LVGL/GUI/lvgl/src/core/../misc/lv_anim.h **** /** Same as `lv_anim_exec_xcb_t` but receives `lv_anim_t *` as the first parameter.
  56:Middlewares/LVGL/GUI/lvgl/src/core/../misc/lv_anim.h ****  * It's more consistent but less convenient. Might be used by binding generator functions.*/
  57:Middlewares/LVGL/GUI/lvgl/src/core/../misc/lv_anim.h **** typedef void (*lv_anim_custom_exec_cb_t)(struct _lv_anim_t *, int32_t);
  58:Middlewares/LVGL/GUI/lvgl/src/core/../misc/lv_anim.h **** 
  59:Middlewares/LVGL/GUI/lvgl/src/core/../misc/lv_anim.h **** /** Callback to call when the animation is ready*/
  60:Middlewares/LVGL/GUI/lvgl/src/core/../misc/lv_anim.h **** typedef void (*lv_anim_ready_cb_t)(struct _lv_anim_t *);
  61:Middlewares/LVGL/GUI/lvgl/src/core/../misc/lv_anim.h **** 
  62:Middlewares/LVGL/GUI/lvgl/src/core/../misc/lv_anim.h **** /** Callback to call when the animation really stars (considering `delay`)*/
  63:Middlewares/LVGL/GUI/lvgl/src/core/../misc/lv_anim.h **** typedef void (*lv_anim_start_cb_t)(struct _lv_anim_t *);
  64:Middlewares/LVGL/GUI/lvgl/src/core/../misc/lv_anim.h **** 
  65:Middlewares/LVGL/GUI/lvgl/src/core/../misc/lv_anim.h **** /** Callback used when the animation values are relative to get the current value*/
  66:Middlewares/LVGL/GUI/lvgl/src/core/../misc/lv_anim.h **** typedef int32_t (*lv_anim_get_value_cb_t)(struct _lv_anim_t *);
  67:Middlewares/LVGL/GUI/lvgl/src/core/../misc/lv_anim.h **** 
  68:Middlewares/LVGL/GUI/lvgl/src/core/../misc/lv_anim.h **** /** Describes an animation*/
  69:Middlewares/LVGL/GUI/lvgl/src/core/../misc/lv_anim.h **** typedef struct _lv_anim_t {
  70:Middlewares/LVGL/GUI/lvgl/src/core/../misc/lv_anim.h ****     void * var;                          /**<Variable to animate*/
  71:Middlewares/LVGL/GUI/lvgl/src/core/../misc/lv_anim.h ****     lv_anim_exec_xcb_t exec_cb;          /**< Function to execute to animate*/
  72:Middlewares/LVGL/GUI/lvgl/src/core/../misc/lv_anim.h ****     lv_anim_start_cb_t start_cb;         /**< Call it when the animation is starts (considering `de
  73:Middlewares/LVGL/GUI/lvgl/src/core/../misc/lv_anim.h ****     lv_anim_ready_cb_t ready_cb;         /**< Call it when the animation is ready*/
  74:Middlewares/LVGL/GUI/lvgl/src/core/../misc/lv_anim.h ****     lv_anim_get_value_cb_t get_value_cb; /**< Get the current value in relative mode*/
  75:Middlewares/LVGL/GUI/lvgl/src/core/../misc/lv_anim.h **** #if LV_USE_USER_DATA
  76:Middlewares/LVGL/GUI/lvgl/src/core/../misc/lv_anim.h ****     void * user_data; /**< Custom user data*/
  77:Middlewares/LVGL/GUI/lvgl/src/core/../misc/lv_anim.h **** #endif
  78:Middlewares/LVGL/GUI/lvgl/src/core/../misc/lv_anim.h ****     lv_anim_path_cb_t path_cb;         /**< Describe the path (curve) of animations*/
  79:Middlewares/LVGL/GUI/lvgl/src/core/../misc/lv_anim.h ****     int32_t start_value;               /**< Start value*/
  80:Middlewares/LVGL/GUI/lvgl/src/core/../misc/lv_anim.h ****     int32_t current_value;             /**< Current value*/
  81:Middlewares/LVGL/GUI/lvgl/src/core/../misc/lv_anim.h ****     int32_t end_value;                 /**< End value*/
  82:Middlewares/LVGL/GUI/lvgl/src/core/../misc/lv_anim.h ****     int32_t time;                /**< Animation time in ms*/
  83:Middlewares/LVGL/GUI/lvgl/src/core/../misc/lv_anim.h ****     int32_t act_time;            /**< Current time in animation. Set to negative to make delay.*/
  84:Middlewares/LVGL/GUI/lvgl/src/core/../misc/lv_anim.h ****     uint32_t playback_delay;     /**< Wait before play back*/
  85:Middlewares/LVGL/GUI/lvgl/src/core/../misc/lv_anim.h ****     uint32_t playback_time;      /**< Duration of playback animation*/
  86:Middlewares/LVGL/GUI/lvgl/src/core/../misc/lv_anim.h ****     uint32_t repeat_delay;       /**< Wait before repeat*/
  87:Middlewares/LVGL/GUI/lvgl/src/core/../misc/lv_anim.h ****     uint16_t repeat_cnt;         /**< Repeat count for the animation*/
  88:Middlewares/LVGL/GUI/lvgl/src/core/../misc/lv_anim.h ****     uint8_t early_apply  : 1;    /**< 1: Apply start value immediately even is there is `delay`*/
  89:Middlewares/LVGL/GUI/lvgl/src/core/../misc/lv_anim.h **** 
  90:Middlewares/LVGL/GUI/lvgl/src/core/../misc/lv_anim.h ****     /*Animation system use these - user shouldn't set*/
  91:Middlewares/LVGL/GUI/lvgl/src/core/../misc/lv_anim.h ****     uint8_t playback_now : 1; /**< Play back is in progress*/
  92:Middlewares/LVGL/GUI/lvgl/src/core/../misc/lv_anim.h ****     uint8_t run_round : 1;    /**< Indicates the animation has run in this round*/
  93:Middlewares/LVGL/GUI/lvgl/src/core/../misc/lv_anim.h ****     uint8_t start_cb_called : 1;    /**< Indicates that the `start_cb` was already called*/
  94:Middlewares/LVGL/GUI/lvgl/src/core/../misc/lv_anim.h **** } lv_anim_t;
  95:Middlewares/LVGL/GUI/lvgl/src/core/../misc/lv_anim.h **** 
  96:Middlewares/LVGL/GUI/lvgl/src/core/../misc/lv_anim.h **** /**********************
  97:Middlewares/LVGL/GUI/lvgl/src/core/../misc/lv_anim.h ****  * GLOBAL PROTOTYPES
  98:Middlewares/LVGL/GUI/lvgl/src/core/../misc/lv_anim.h ****  **********************/
  99:Middlewares/LVGL/GUI/lvgl/src/core/../misc/lv_anim.h **** 
 100:Middlewares/LVGL/GUI/lvgl/src/core/../misc/lv_anim.h **** /**
 101:Middlewares/LVGL/GUI/lvgl/src/core/../misc/lv_anim.h ****  * Init. the animation module
 102:Middlewares/LVGL/GUI/lvgl/src/core/../misc/lv_anim.h ****  */
ARM GAS  C:\Users\ADMINI~1\AppData\Local\Temp\cchMZgMB.s 			page 59


 103:Middlewares/LVGL/GUI/lvgl/src/core/../misc/lv_anim.h **** void _lv_anim_core_init(void);
 104:Middlewares/LVGL/GUI/lvgl/src/core/../misc/lv_anim.h **** 
 105:Middlewares/LVGL/GUI/lvgl/src/core/../misc/lv_anim.h **** /**
 106:Middlewares/LVGL/GUI/lvgl/src/core/../misc/lv_anim.h ****  * Initialize an animation variable.
 107:Middlewares/LVGL/GUI/lvgl/src/core/../misc/lv_anim.h ****  * E.g.:
 108:Middlewares/LVGL/GUI/lvgl/src/core/../misc/lv_anim.h ****  * lv_anim_t a;
 109:Middlewares/LVGL/GUI/lvgl/src/core/../misc/lv_anim.h ****  * lv_anim_init(&a);
 110:Middlewares/LVGL/GUI/lvgl/src/core/../misc/lv_anim.h ****  * lv_anim_set_...(&a);
 111:Middlewares/LVGL/GUI/lvgl/src/core/../misc/lv_anim.h ****  * lv_anim_start(&a);
 112:Middlewares/LVGL/GUI/lvgl/src/core/../misc/lv_anim.h ****  * @param a     pointer to an `lv_anim_t` variable to initialize
 113:Middlewares/LVGL/GUI/lvgl/src/core/../misc/lv_anim.h ****  */
 114:Middlewares/LVGL/GUI/lvgl/src/core/../misc/lv_anim.h **** void lv_anim_init(lv_anim_t * a);
 115:Middlewares/LVGL/GUI/lvgl/src/core/../misc/lv_anim.h **** 
 116:Middlewares/LVGL/GUI/lvgl/src/core/../misc/lv_anim.h **** /**
 117:Middlewares/LVGL/GUI/lvgl/src/core/../misc/lv_anim.h ****  * Set a variable to animate
 118:Middlewares/LVGL/GUI/lvgl/src/core/../misc/lv_anim.h ****  * @param a     pointer to an initialized `lv_anim_t` variable
 119:Middlewares/LVGL/GUI/lvgl/src/core/../misc/lv_anim.h ****  * @param var   pointer to a variable to animate
 120:Middlewares/LVGL/GUI/lvgl/src/core/../misc/lv_anim.h ****  */
 121:Middlewares/LVGL/GUI/lvgl/src/core/../misc/lv_anim.h **** static inline void lv_anim_set_var(lv_anim_t * a, void * var)
 1616              		.loc 3 121 20 view .LVU454
 1617              	.LBB132:
 122:Middlewares/LVGL/GUI/lvgl/src/core/../misc/lv_anim.h **** {
 123:Middlewares/LVGL/GUI/lvgl/src/core/../misc/lv_anim.h ****     a->var = var;
 1618              		.loc 3 123 5 view .LVU455
 1619              		.loc 3 123 12 is_stmt 0 view .LVU456
 1620 0058 0094     		str	r4, [sp]
 1621              	.LVL182:
 1622              		.loc 3 123 12 view .LVU457
 1623              	.LBE132:
 1624              	.LBE131:
 312:Middlewares/LVGL/GUI/lvgl/src/core/lv_obj_scroll.c **** 
 1625              		.loc 1 312 9 is_stmt 1 view .LVU458
 1626              	.LBB133:
 1627              	.LBI133:
 124:Middlewares/LVGL/GUI/lvgl/src/core/../misc/lv_anim.h **** }
 125:Middlewares/LVGL/GUI/lvgl/src/core/../misc/lv_anim.h **** 
 126:Middlewares/LVGL/GUI/lvgl/src/core/../misc/lv_anim.h **** /**
 127:Middlewares/LVGL/GUI/lvgl/src/core/../misc/lv_anim.h ****  * Set a function to animate `var`
 128:Middlewares/LVGL/GUI/lvgl/src/core/../misc/lv_anim.h ****  * @param a         pointer to an initialized `lv_anim_t` variable
 129:Middlewares/LVGL/GUI/lvgl/src/core/../misc/lv_anim.h ****  * @param exec_cb   a function to execute during animation
 130:Middlewares/LVGL/GUI/lvgl/src/core/../misc/lv_anim.h ****  *                  LVGL's built-in functions can be used.
 131:Middlewares/LVGL/GUI/lvgl/src/core/../misc/lv_anim.h ****  *                  E.g. lv_obj_set_x
 132:Middlewares/LVGL/GUI/lvgl/src/core/../misc/lv_anim.h ****  */
 133:Middlewares/LVGL/GUI/lvgl/src/core/../misc/lv_anim.h **** static inline void lv_anim_set_exec_cb(lv_anim_t * a, lv_anim_exec_xcb_t exec_cb)
 134:Middlewares/LVGL/GUI/lvgl/src/core/../misc/lv_anim.h **** {
 135:Middlewares/LVGL/GUI/lvgl/src/core/../misc/lv_anim.h ****     a->exec_cb = exec_cb;
 136:Middlewares/LVGL/GUI/lvgl/src/core/../misc/lv_anim.h **** }
 137:Middlewares/LVGL/GUI/lvgl/src/core/../misc/lv_anim.h **** 
 138:Middlewares/LVGL/GUI/lvgl/src/core/../misc/lv_anim.h **** /**
 139:Middlewares/LVGL/GUI/lvgl/src/core/../misc/lv_anim.h ****  * Set the duration of an animation
 140:Middlewares/LVGL/GUI/lvgl/src/core/../misc/lv_anim.h ****  * @param a         pointer to an initialized `lv_anim_t` variable
 141:Middlewares/LVGL/GUI/lvgl/src/core/../misc/lv_anim.h ****  * @param duration  duration of the animation in milliseconds
 142:Middlewares/LVGL/GUI/lvgl/src/core/../misc/lv_anim.h ****  */
 143:Middlewares/LVGL/GUI/lvgl/src/core/../misc/lv_anim.h **** static inline void lv_anim_set_time(lv_anim_t * a, uint32_t duration)
 144:Middlewares/LVGL/GUI/lvgl/src/core/../misc/lv_anim.h **** {
 145:Middlewares/LVGL/GUI/lvgl/src/core/../misc/lv_anim.h ****     a->time = duration;
 146:Middlewares/LVGL/GUI/lvgl/src/core/../misc/lv_anim.h **** }
ARM GAS  C:\Users\ADMINI~1\AppData\Local\Temp\cchMZgMB.s 			page 60


 147:Middlewares/LVGL/GUI/lvgl/src/core/../misc/lv_anim.h **** 
 148:Middlewares/LVGL/GUI/lvgl/src/core/../misc/lv_anim.h **** /**
 149:Middlewares/LVGL/GUI/lvgl/src/core/../misc/lv_anim.h ****  * Set a delay before starting the animation
 150:Middlewares/LVGL/GUI/lvgl/src/core/../misc/lv_anim.h ****  * @param a         pointer to an initialized `lv_anim_t` variable
 151:Middlewares/LVGL/GUI/lvgl/src/core/../misc/lv_anim.h ****  * @param delay     delay before the animation in milliseconds
 152:Middlewares/LVGL/GUI/lvgl/src/core/../misc/lv_anim.h ****  */
 153:Middlewares/LVGL/GUI/lvgl/src/core/../misc/lv_anim.h **** static inline void lv_anim_set_delay(lv_anim_t * a, uint32_t delay)
 154:Middlewares/LVGL/GUI/lvgl/src/core/../misc/lv_anim.h **** {
 155:Middlewares/LVGL/GUI/lvgl/src/core/../misc/lv_anim.h ****     a->act_time = -(int32_t)(delay);
 156:Middlewares/LVGL/GUI/lvgl/src/core/../misc/lv_anim.h **** }
 157:Middlewares/LVGL/GUI/lvgl/src/core/../misc/lv_anim.h **** 
 158:Middlewares/LVGL/GUI/lvgl/src/core/../misc/lv_anim.h **** /**
 159:Middlewares/LVGL/GUI/lvgl/src/core/../misc/lv_anim.h ****  * Set the start and end values of an animation
 160:Middlewares/LVGL/GUI/lvgl/src/core/../misc/lv_anim.h ****  * @param a         pointer to an initialized `lv_anim_t` variable
 161:Middlewares/LVGL/GUI/lvgl/src/core/../misc/lv_anim.h ****  * @param start     the start value
 162:Middlewares/LVGL/GUI/lvgl/src/core/../misc/lv_anim.h ****  * @param end       the end value
 163:Middlewares/LVGL/GUI/lvgl/src/core/../misc/lv_anim.h ****  */
 164:Middlewares/LVGL/GUI/lvgl/src/core/../misc/lv_anim.h **** static inline void lv_anim_set_values(lv_anim_t * a, int32_t start, int32_t end)
 165:Middlewares/LVGL/GUI/lvgl/src/core/../misc/lv_anim.h **** {
 166:Middlewares/LVGL/GUI/lvgl/src/core/../misc/lv_anim.h ****     a->start_value = start;
 167:Middlewares/LVGL/GUI/lvgl/src/core/../misc/lv_anim.h ****     a->current_value = start;
 168:Middlewares/LVGL/GUI/lvgl/src/core/../misc/lv_anim.h ****     a->end_value = end;
 169:Middlewares/LVGL/GUI/lvgl/src/core/../misc/lv_anim.h **** }
 170:Middlewares/LVGL/GUI/lvgl/src/core/../misc/lv_anim.h **** 
 171:Middlewares/LVGL/GUI/lvgl/src/core/../misc/lv_anim.h **** /**
 172:Middlewares/LVGL/GUI/lvgl/src/core/../misc/lv_anim.h ****  * Similar to `lv_anim_set_exec_cb` but `lv_anim_custom_exec_cb_t` receives
 173:Middlewares/LVGL/GUI/lvgl/src/core/../misc/lv_anim.h ****  * `lv_anim_t * ` as its first parameter instead of `void *`.
 174:Middlewares/LVGL/GUI/lvgl/src/core/../misc/lv_anim.h ****  * This function might be used when LVGL is bound to other languages because
 175:Middlewares/LVGL/GUI/lvgl/src/core/../misc/lv_anim.h ****  * it's more consistent to have `lv_anim_t *` as first parameter.
 176:Middlewares/LVGL/GUI/lvgl/src/core/../misc/lv_anim.h ****  * The variable to animate can be stored in the animation's `user_data`
 177:Middlewares/LVGL/GUI/lvgl/src/core/../misc/lv_anim.h ****  * @param a         pointer to an initialized `lv_anim_t` variable
 178:Middlewares/LVGL/GUI/lvgl/src/core/../misc/lv_anim.h ****  * @param exec_cb   a function to execute.
 179:Middlewares/LVGL/GUI/lvgl/src/core/../misc/lv_anim.h ****  */
 180:Middlewares/LVGL/GUI/lvgl/src/core/../misc/lv_anim.h **** static inline void lv_anim_set_custom_exec_cb(lv_anim_t * a, lv_anim_custom_exec_cb_t exec_cb)
 181:Middlewares/LVGL/GUI/lvgl/src/core/../misc/lv_anim.h **** {
 182:Middlewares/LVGL/GUI/lvgl/src/core/../misc/lv_anim.h ****     a->var     = a;
 183:Middlewares/LVGL/GUI/lvgl/src/core/../misc/lv_anim.h ****     a->exec_cb = (lv_anim_exec_xcb_t)exec_cb;
 184:Middlewares/LVGL/GUI/lvgl/src/core/../misc/lv_anim.h **** }
 185:Middlewares/LVGL/GUI/lvgl/src/core/../misc/lv_anim.h **** 
 186:Middlewares/LVGL/GUI/lvgl/src/core/../misc/lv_anim.h **** /**
 187:Middlewares/LVGL/GUI/lvgl/src/core/../misc/lv_anim.h ****  * Set the path (curve) of the animation.
 188:Middlewares/LVGL/GUI/lvgl/src/core/../misc/lv_anim.h ****  * @param a         pointer to an initialized `lv_anim_t` variable
 189:Middlewares/LVGL/GUI/lvgl/src/core/../misc/lv_anim.h ****  * @param path_cb a function to set the current value of the animation.
 190:Middlewares/LVGL/GUI/lvgl/src/core/../misc/lv_anim.h ****  */
 191:Middlewares/LVGL/GUI/lvgl/src/core/../misc/lv_anim.h **** static inline void lv_anim_set_path_cb(lv_anim_t * a, lv_anim_path_cb_t path_cb)
 192:Middlewares/LVGL/GUI/lvgl/src/core/../misc/lv_anim.h **** {
 193:Middlewares/LVGL/GUI/lvgl/src/core/../misc/lv_anim.h ****     a->path_cb = path_cb;
 194:Middlewares/LVGL/GUI/lvgl/src/core/../misc/lv_anim.h **** }
 195:Middlewares/LVGL/GUI/lvgl/src/core/../misc/lv_anim.h **** 
 196:Middlewares/LVGL/GUI/lvgl/src/core/../misc/lv_anim.h **** /**
 197:Middlewares/LVGL/GUI/lvgl/src/core/../misc/lv_anim.h ****  * Set a function call when the animation really starts (considering `delay`)
 198:Middlewares/LVGL/GUI/lvgl/src/core/../misc/lv_anim.h ****  * @param a         pointer to an initialized `lv_anim_t` variable
 199:Middlewares/LVGL/GUI/lvgl/src/core/../misc/lv_anim.h ****  * @param start_cb  a function call when the animation starts
 200:Middlewares/LVGL/GUI/lvgl/src/core/../misc/lv_anim.h ****  */
 201:Middlewares/LVGL/GUI/lvgl/src/core/../misc/lv_anim.h **** static inline void lv_anim_set_start_cb(lv_anim_t * a, lv_anim_start_cb_t start_cb)
 202:Middlewares/LVGL/GUI/lvgl/src/core/../misc/lv_anim.h **** {
 203:Middlewares/LVGL/GUI/lvgl/src/core/../misc/lv_anim.h ****     a->start_cb = start_cb;
ARM GAS  C:\Users\ADMINI~1\AppData\Local\Temp\cchMZgMB.s 			page 61


 204:Middlewares/LVGL/GUI/lvgl/src/core/../misc/lv_anim.h **** }
 205:Middlewares/LVGL/GUI/lvgl/src/core/../misc/lv_anim.h **** 
 206:Middlewares/LVGL/GUI/lvgl/src/core/../misc/lv_anim.h **** /**
 207:Middlewares/LVGL/GUI/lvgl/src/core/../misc/lv_anim.h ****  * Set a function to use the current value of the variable and make start and end value
 208:Middlewares/LVGL/GUI/lvgl/src/core/../misc/lv_anim.h ****  * relative to the returned current value.
 209:Middlewares/LVGL/GUI/lvgl/src/core/../misc/lv_anim.h ****  * @param a             pointer to an initialized `lv_anim_t` variable
 210:Middlewares/LVGL/GUI/lvgl/src/core/../misc/lv_anim.h ****  * @param get_value_cb  a function call when the animation starts
 211:Middlewares/LVGL/GUI/lvgl/src/core/../misc/lv_anim.h ****  */
 212:Middlewares/LVGL/GUI/lvgl/src/core/../misc/lv_anim.h **** static inline void lv_anim_set_get_value_cb(lv_anim_t * a, lv_anim_get_value_cb_t get_value_cb)
 213:Middlewares/LVGL/GUI/lvgl/src/core/../misc/lv_anim.h **** {
 214:Middlewares/LVGL/GUI/lvgl/src/core/../misc/lv_anim.h ****     a->get_value_cb = get_value_cb;
 215:Middlewares/LVGL/GUI/lvgl/src/core/../misc/lv_anim.h **** }
 216:Middlewares/LVGL/GUI/lvgl/src/core/../misc/lv_anim.h **** 
 217:Middlewares/LVGL/GUI/lvgl/src/core/../misc/lv_anim.h **** /**
 218:Middlewares/LVGL/GUI/lvgl/src/core/../misc/lv_anim.h ****  * Set a function call when the animation is ready
 219:Middlewares/LVGL/GUI/lvgl/src/core/../misc/lv_anim.h ****  * @param a         pointer to an initialized `lv_anim_t` variable
 220:Middlewares/LVGL/GUI/lvgl/src/core/../misc/lv_anim.h ****  * @param ready_cb  a function call when the animation is ready
 221:Middlewares/LVGL/GUI/lvgl/src/core/../misc/lv_anim.h ****  */
 222:Middlewares/LVGL/GUI/lvgl/src/core/../misc/lv_anim.h **** static inline void lv_anim_set_ready_cb(lv_anim_t * a, lv_anim_ready_cb_t ready_cb)
 1628              		.loc 3 222 20 view .LVU459
 1629              	.LBB134:
 223:Middlewares/LVGL/GUI/lvgl/src/core/../misc/lv_anim.h **** {
 224:Middlewares/LVGL/GUI/lvgl/src/core/../misc/lv_anim.h ****     a->ready_cb = ready_cb;
 1630              		.loc 3 224 5 view .LVU460
 1631              		.loc 3 224 17 is_stmt 0 view .LVU461
 1632 005a 2E4B     		ldr	r3, .L105+8
 1633 005c 0393     		str	r3, [sp, #12]
 1634              	.LVL183:
 1635              		.loc 3 224 17 view .LVU462
 1636              	.LBE134:
 1637              	.LBE133:
 314:Middlewares/LVGL/GUI/lvgl/src/core/lv_obj_scroll.c ****             uint32_t t = lv_anim_speed_to_time((lv_disp_get_hor_res(d) * 2) >> 2, 0, dx);
 1638              		.loc 1 314 9 is_stmt 1 view .LVU463
 314:Middlewares/LVGL/GUI/lvgl/src/core/lv_obj_scroll.c ****             uint32_t t = lv_anim_speed_to_time((lv_disp_get_hor_res(d) * 2) >> 2, 0, dx);
 1639              		.loc 1 314 11 is_stmt 0 view .LVU464
 1640 005e 97B9     		cbnz	r7, .L104
 1641              	.L92:
 330:Middlewares/LVGL/GUI/lvgl/src/core/lv_obj_scroll.c ****             uint32_t t = lv_anim_speed_to_time((lv_disp_get_ver_res(d) * 2) >> 2, 0, dy);
 1642              		.loc 1 330 9 is_stmt 1 view .LVU465
 330:Middlewares/LVGL/GUI/lvgl/src/core/lv_obj_scroll.c ****             uint32_t t = lv_anim_speed_to_time((lv_disp_get_ver_res(d) * 2) >> 2, 0, dy);
 1643              		.loc 1 330 11 is_stmt 0 view .LVU466
 1644 0060 002D     		cmp	r5, #0
 1645 0062 EFD0     		beq	.L88
 1646              	.LBB135:
 331:Middlewares/LVGL/GUI/lvgl/src/core/lv_obj_scroll.c ****             if(t < SCROLL_ANIM_TIME_MIN) t = SCROLL_ANIM_TIME_MIN;
 1647              		.loc 1 331 13 is_stmt 1 view .LVU467
 331:Middlewares/LVGL/GUI/lvgl/src/core/lv_obj_scroll.c ****             if(t < SCROLL_ANIM_TIME_MIN) t = SCROLL_ANIM_TIME_MIN;
 1648              		.loc 1 331 49 is_stmt 0 view .LVU468
 1649 0064 3046     		mov	r0, r6
 1650 0066 FFF7FEFF 		bl	lv_disp_get_ver_res
 1651              	.LVL184:
 331:Middlewares/LVGL/GUI/lvgl/src/core/lv_obj_scroll.c ****             if(t < SCROLL_ANIM_TIME_MIN) t = SCROLL_ANIM_TIME_MIN;
 1652              		.loc 1 331 26 view .LVU469
 1653 006a 2A46     		mov	r2, r5
 1654 006c 0021     		movs	r1, #0
 1655 006e 40F35D00 		sbfx	r0, r0, #1, #30
 1656 0072 FFF7FEFF 		bl	lv_anim_speed_to_time
ARM GAS  C:\Users\ADMINI~1\AppData\Local\Temp\cchMZgMB.s 			page 62


 1657              	.LVL185:
 332:Middlewares/LVGL/GUI/lvgl/src/core/lv_obj_scroll.c ****             if(t > SCROLL_ANIM_TIME_MAX) t = SCROLL_ANIM_TIME_MAX;
 1658              		.loc 1 332 13 is_stmt 1 view .LVU470
 332:Middlewares/LVGL/GUI/lvgl/src/core/lv_obj_scroll.c ****             if(t > SCROLL_ANIM_TIME_MAX) t = SCROLL_ANIM_TIME_MAX;
 1659              		.loc 1 332 15 is_stmt 0 view .LVU471
 1660 0076 C728     		cmp	r0, #199
 1661 0078 2FD9     		bls	.L100
 333:Middlewares/LVGL/GUI/lvgl/src/core/lv_obj_scroll.c ****             lv_anim_set_time(&a, t);
 1662              		.loc 1 333 13 is_stmt 1 view .LVU472
 333:Middlewares/LVGL/GUI/lvgl/src/core/lv_obj_scroll.c ****             lv_anim_set_time(&a, t);
 1663              		.loc 1 333 15 is_stmt 0 view .LVU473
 1664 007a B0F5C87F 		cmp	r0, #400
 1665 007e 2DD9     		bls	.L96
 333:Middlewares/LVGL/GUI/lvgl/src/core/lv_obj_scroll.c ****             lv_anim_set_time(&a, t);
 1666              		.loc 1 333 44 view .LVU474
 1667 0080 4FF4C870 		mov	r0, #400
 1668              	.LVL186:
 333:Middlewares/LVGL/GUI/lvgl/src/core/lv_obj_scroll.c ****             lv_anim_set_time(&a, t);
 1669              		.loc 1 333 44 view .LVU475
 1670 0084 2AE0     		b	.L96
 1671              	.L104:
 333:Middlewares/LVGL/GUI/lvgl/src/core/lv_obj_scroll.c ****             lv_anim_set_time(&a, t);
 1672              		.loc 1 333 44 view .LVU476
 1673              	.LBE135:
 1674              	.LBB144:
 315:Middlewares/LVGL/GUI/lvgl/src/core/lv_obj_scroll.c ****             if(t < SCROLL_ANIM_TIME_MIN) t = SCROLL_ANIM_TIME_MIN;
 1675              		.loc 1 315 13 is_stmt 1 view .LVU477
 315:Middlewares/LVGL/GUI/lvgl/src/core/lv_obj_scroll.c ****             if(t < SCROLL_ANIM_TIME_MIN) t = SCROLL_ANIM_TIME_MIN;
 1676              		.loc 1 315 49 is_stmt 0 view .LVU478
 1677 0086 3046     		mov	r0, r6
 1678 0088 FFF7FEFF 		bl	lv_disp_get_hor_res
