ARM GAS  C:\Users\ADMINI~1\AppData\Local\Temp\ccVA75Tx.s 			page 1


   1              		.cpu cortex-m4
   2              		.arch armv7e-m
   3              		.fpu fpv4-sp-d16
   4              		.eabi_attribute 27, 1
   5              		.eabi_attribute 28, 1
   6              		.eabi_attribute 20, 1
   7              		.eabi_attribute 21, 1
   8              		.eabi_attribute 23, 3
   9              		.eabi_attribute 24, 1
  10              		.eabi_attribute 25, 1
  11              		.eabi_attribute 26, 1
  12              		.eabi_attribute 30, 1
  13              		.eabi_attribute 34, 1
  14              		.eabi_attribute 18, 4
  15              		.file	"lv_obj_pos.c"
  16              		.text
  17              	.Ltext0:
  18              		.cfi_sections	.debug_frame
  19              		.section	.text.lv_obj_set_x,"ax",%progbits
  20              		.align	1
  21              		.global	lv_obj_set_x
  22              		.syntax unified
  23              		.thumb
  24              		.thumb_func
  26              	lv_obj_set_x:
  27              	.LVL0:
  28              	.LFB160:
  29              		.file 1 "Middlewares/LVGL/GUI/lvgl/src/core/lv_obj_pos.c"
   1:Middlewares/LVGL/GUI/lvgl/src/core/lv_obj_pos.c **** /**
   2:Middlewares/LVGL/GUI/lvgl/src/core/lv_obj_pos.c ****  * @file lv_obj_pos.c
   3:Middlewares/LVGL/GUI/lvgl/src/core/lv_obj_pos.c ****  *
   4:Middlewares/LVGL/GUI/lvgl/src/core/lv_obj_pos.c ****  */
   5:Middlewares/LVGL/GUI/lvgl/src/core/lv_obj_pos.c **** 
   6:Middlewares/LVGL/GUI/lvgl/src/core/lv_obj_pos.c **** /*********************
   7:Middlewares/LVGL/GUI/lvgl/src/core/lv_obj_pos.c ****  *      INCLUDES
   8:Middlewares/LVGL/GUI/lvgl/src/core/lv_obj_pos.c ****  *********************/
   9:Middlewares/LVGL/GUI/lvgl/src/core/lv_obj_pos.c **** #include "lv_obj.h"
  10:Middlewares/LVGL/GUI/lvgl/src/core/lv_obj_pos.c **** #include "lv_disp.h"
  11:Middlewares/LVGL/GUI/lvgl/src/core/lv_obj_pos.c **** #include "lv_refr.h"
  12:Middlewares/LVGL/GUI/lvgl/src/core/lv_obj_pos.c **** #include "../misc/lv_gc.h"
  13:Middlewares/LVGL/GUI/lvgl/src/core/lv_obj_pos.c **** 
  14:Middlewares/LVGL/GUI/lvgl/src/core/lv_obj_pos.c **** /*********************
  15:Middlewares/LVGL/GUI/lvgl/src/core/lv_obj_pos.c ****  *      DEFINES
  16:Middlewares/LVGL/GUI/lvgl/src/core/lv_obj_pos.c ****  *********************/
  17:Middlewares/LVGL/GUI/lvgl/src/core/lv_obj_pos.c **** #define MY_CLASS &lv_obj_class
  18:Middlewares/LVGL/GUI/lvgl/src/core/lv_obj_pos.c **** 
  19:Middlewares/LVGL/GUI/lvgl/src/core/lv_obj_pos.c **** /**********************
  20:Middlewares/LVGL/GUI/lvgl/src/core/lv_obj_pos.c ****  *      TYPEDEFS
  21:Middlewares/LVGL/GUI/lvgl/src/core/lv_obj_pos.c ****  **********************/
  22:Middlewares/LVGL/GUI/lvgl/src/core/lv_obj_pos.c **** 
  23:Middlewares/LVGL/GUI/lvgl/src/core/lv_obj_pos.c **** /**********************
  24:Middlewares/LVGL/GUI/lvgl/src/core/lv_obj_pos.c ****  *  STATIC PROTOTYPES
  25:Middlewares/LVGL/GUI/lvgl/src/core/lv_obj_pos.c ****  **********************/
  26:Middlewares/LVGL/GUI/lvgl/src/core/lv_obj_pos.c **** static lv_coord_t calc_content_width(lv_obj_t * obj);
  27:Middlewares/LVGL/GUI/lvgl/src/core/lv_obj_pos.c **** static lv_coord_t calc_content_height(lv_obj_t * obj);
  28:Middlewares/LVGL/GUI/lvgl/src/core/lv_obj_pos.c **** static void layout_update_core(lv_obj_t * obj);
  29:Middlewares/LVGL/GUI/lvgl/src/core/lv_obj_pos.c **** 
ARM GAS  C:\Users\ADMINI~1\AppData\Local\Temp\ccVA75Tx.s 			page 2


  30:Middlewares/LVGL/GUI/lvgl/src/core/lv_obj_pos.c **** /**********************
  31:Middlewares/LVGL/GUI/lvgl/src/core/lv_obj_pos.c ****  *  STATIC VARIABLES
  32:Middlewares/LVGL/GUI/lvgl/src/core/lv_obj_pos.c ****  **********************/
  33:Middlewares/LVGL/GUI/lvgl/src/core/lv_obj_pos.c **** static uint32_t layout_cnt;
  34:Middlewares/LVGL/GUI/lvgl/src/core/lv_obj_pos.c **** 
  35:Middlewares/LVGL/GUI/lvgl/src/core/lv_obj_pos.c **** /**********************
  36:Middlewares/LVGL/GUI/lvgl/src/core/lv_obj_pos.c ****  *      MACROS
  37:Middlewares/LVGL/GUI/lvgl/src/core/lv_obj_pos.c ****  **********************/
  38:Middlewares/LVGL/GUI/lvgl/src/core/lv_obj_pos.c **** 
  39:Middlewares/LVGL/GUI/lvgl/src/core/lv_obj_pos.c **** /**********************
  40:Middlewares/LVGL/GUI/lvgl/src/core/lv_obj_pos.c ****  *   GLOBAL FUNCTIONS
  41:Middlewares/LVGL/GUI/lvgl/src/core/lv_obj_pos.c ****  **********************/
  42:Middlewares/LVGL/GUI/lvgl/src/core/lv_obj_pos.c **** 
  43:Middlewares/LVGL/GUI/lvgl/src/core/lv_obj_pos.c **** void lv_obj_set_pos(lv_obj_t * obj, lv_coord_t x, lv_coord_t y)
  44:Middlewares/LVGL/GUI/lvgl/src/core/lv_obj_pos.c **** {
  45:Middlewares/LVGL/GUI/lvgl/src/core/lv_obj_pos.c ****     LV_ASSERT_OBJ(obj, MY_CLASS);
  46:Middlewares/LVGL/GUI/lvgl/src/core/lv_obj_pos.c **** 
  47:Middlewares/LVGL/GUI/lvgl/src/core/lv_obj_pos.c ****     lv_obj_set_x(obj, x);
  48:Middlewares/LVGL/GUI/lvgl/src/core/lv_obj_pos.c ****     lv_obj_set_y(obj, y);
  49:Middlewares/LVGL/GUI/lvgl/src/core/lv_obj_pos.c **** }
  50:Middlewares/LVGL/GUI/lvgl/src/core/lv_obj_pos.c **** 
  51:Middlewares/LVGL/GUI/lvgl/src/core/lv_obj_pos.c **** void lv_obj_set_x(lv_obj_t * obj, lv_coord_t x)
  52:Middlewares/LVGL/GUI/lvgl/src/core/lv_obj_pos.c **** {
  30              		.loc 1 52 1 view -0
  31              		.cfi_startproc
  32              		@ args = 0, pretend = 0, frame = 8
  33              		@ frame_needed = 0, uses_anonymous_args = 0
  34              		.loc 1 52 1 is_stmt 0 view .LVU1
  35 0000 30B5     		push	{r4, r5, lr}
  36              	.LCFI0:
  37              		.cfi_def_cfa_offset 12
  38              		.cfi_offset 4, -12
  39              		.cfi_offset 5, -8
  40              		.cfi_offset 14, -4
  41 0002 83B0     		sub	sp, sp, #12
  42              	.LCFI1:
  43              		.cfi_def_cfa_offset 24
  44 0004 0546     		mov	r5, r0
  45 0006 0C46     		mov	r4, r1
  53:Middlewares/LVGL/GUI/lvgl/src/core/lv_obj_pos.c ****     LV_ASSERT_OBJ(obj, MY_CLASS);
  46              		.loc 1 53 5 is_stmt 1 view .LVU2
  47              		.loc 1 53 5 view .LVU3
  48              		.loc 1 53 5 view .LVU4
  54:Middlewares/LVGL/GUI/lvgl/src/core/lv_obj_pos.c **** 
  55:Middlewares/LVGL/GUI/lvgl/src/core/lv_obj_pos.c ****     lv_res_t res_x;
  49              		.loc 1 55 5 view .LVU5
  56:Middlewares/LVGL/GUI/lvgl/src/core/lv_obj_pos.c ****     lv_style_value_t v_x;
  50              		.loc 1 56 5 view .LVU6
  57:Middlewares/LVGL/GUI/lvgl/src/core/lv_obj_pos.c **** 
  58:Middlewares/LVGL/GUI/lvgl/src/core/lv_obj_pos.c ****     res_x = lv_obj_get_local_style_prop(obj, LV_STYLE_X, &v_x, 0);
  51              		.loc 1 58 5 view .LVU7
  52              		.loc 1 58 13 is_stmt 0 view .LVU8
  53 0008 0023     		movs	r3, #0
  54 000a 01AA     		add	r2, sp, #4
  55 000c 41F20701 		movw	r1, #4103
  56              	.LVL1:
  57              		.loc 1 58 13 view .LVU9
ARM GAS  C:\Users\ADMINI~1\AppData\Local\Temp\ccVA75Tx.s 			page 3


  58 0010 FFF7FEFF 		bl	lv_obj_get_local_style_prop
  59              	.LVL2:
  59:Middlewares/LVGL/GUI/lvgl/src/core/lv_obj_pos.c **** 
  60:Middlewares/LVGL/GUI/lvgl/src/core/lv_obj_pos.c ****     if((res_x == LV_RES_OK && v_x.num != x) || res_x == LV_RES_INV) {
  60              		.loc 1 60 5 is_stmt 1 view .LVU10
  61              		.loc 1 60 7 is_stmt 0 view .LVU11
  62 0014 0128     		cmp	r0, #1
  63 0016 07D0     		beq	.L6
  64              	.L2:
  65              		.loc 1 60 45 discriminator 3 view .LVU12
  66 0018 20B9     		cbnz	r0, .L1
  67              	.L3:
  61:Middlewares/LVGL/GUI/lvgl/src/core/lv_obj_pos.c ****         lv_obj_set_style_x(obj, x, 0);
  68              		.loc 1 61 9 is_stmt 1 view .LVU13
  69 001a 0022     		movs	r2, #0
  70 001c 2146     		mov	r1, r4
  71 001e 2846     		mov	r0, r5
  72              	.LVL3:
  73              		.loc 1 61 9 is_stmt 0 view .LVU14
  74 0020 FFF7FEFF 		bl	lv_obj_set_style_x
  75              	.LVL4:
  76              	.L1:
  62:Middlewares/LVGL/GUI/lvgl/src/core/lv_obj_pos.c ****     }
  63:Middlewares/LVGL/GUI/lvgl/src/core/lv_obj_pos.c **** }
  77              		.loc 1 63 1 view .LVU15
  78 0024 03B0     		add	sp, sp, #12
  79              	.LCFI2:
  80              		.cfi_remember_state
  81              		.cfi_def_cfa_offset 12
  82              		@ sp needed
  83 0026 30BD     		pop	{r4, r5, pc}
  84              	.LVL5:
  85              	.L6:
  86              	.LCFI3:
  87              		.cfi_restore_state
  60:Middlewares/LVGL/GUI/lvgl/src/core/lv_obj_pos.c ****         lv_obj_set_style_x(obj, x, 0);
  88              		.loc 1 60 34 discriminator 1 view .LVU16
  89 0028 019B     		ldr	r3, [sp, #4]
  60:Middlewares/LVGL/GUI/lvgl/src/core/lv_obj_pos.c ****         lv_obj_set_style_x(obj, x, 0);
  90              		.loc 1 60 28 discriminator 1 view .LVU17
  91 002a A342     		cmp	r3, r4
  92 002c F5D1     		bne	.L3
  93 002e F3E7     		b	.L2
  94              		.cfi_endproc
  95              	.LFE160:
  97              		.section	.text.lv_obj_set_y,"ax",%progbits
  98              		.align	1
  99              		.global	lv_obj_set_y
 100              		.syntax unified
 101              		.thumb
 102              		.thumb_func
 104              	lv_obj_set_y:
 105              	.LVL6:
 106              	.LFB161:
  64:Middlewares/LVGL/GUI/lvgl/src/core/lv_obj_pos.c **** 
  65:Middlewares/LVGL/GUI/lvgl/src/core/lv_obj_pos.c **** void lv_obj_set_y(lv_obj_t * obj, lv_coord_t y)
  66:Middlewares/LVGL/GUI/lvgl/src/core/lv_obj_pos.c **** {
ARM GAS  C:\Users\ADMINI~1\AppData\Local\Temp\ccVA75Tx.s 			page 4


 107              		.loc 1 66 1 is_stmt 1 view -0
 108              		.cfi_startproc
 109              		@ args = 0, pretend = 0, frame = 8
 110              		@ frame_needed = 0, uses_anonymous_args = 0
 111              		.loc 1 66 1 is_stmt 0 view .LVU19
 112 0000 30B5     		push	{r4, r5, lr}
 113              	.LCFI4:
 114              		.cfi_def_cfa_offset 12
 115              		.cfi_offset 4, -12
 116              		.cfi_offset 5, -8
 117              		.cfi_offset 14, -4
 118 0002 83B0     		sub	sp, sp, #12
 119              	.LCFI5:
 120              		.cfi_def_cfa_offset 24
 121 0004 0546     		mov	r5, r0
 122 0006 0C46     		mov	r4, r1
  67:Middlewares/LVGL/GUI/lvgl/src/core/lv_obj_pos.c ****     LV_ASSERT_OBJ(obj, MY_CLASS);
 123              		.loc 1 67 5 is_stmt 1 view .LVU20
 124              		.loc 1 67 5 view .LVU21
 125              		.loc 1 67 5 view .LVU22
  68:Middlewares/LVGL/GUI/lvgl/src/core/lv_obj_pos.c **** 
  69:Middlewares/LVGL/GUI/lvgl/src/core/lv_obj_pos.c ****     lv_res_t res_y;
 126              		.loc 1 69 5 view .LVU23
  70:Middlewares/LVGL/GUI/lvgl/src/core/lv_obj_pos.c ****     lv_style_value_t v_y;
 127              		.loc 1 70 5 view .LVU24
  71:Middlewares/LVGL/GUI/lvgl/src/core/lv_obj_pos.c **** 
  72:Middlewares/LVGL/GUI/lvgl/src/core/lv_obj_pos.c ****     res_y = lv_obj_get_local_style_prop(obj, LV_STYLE_Y, &v_y, 0);
 128              		.loc 1 72 5 view .LVU25
 129              		.loc 1 72 13 is_stmt 0 view .LVU26
 130 0008 0023     		movs	r3, #0
 131 000a 01AA     		add	r2, sp, #4
 132 000c 41F20801 		movw	r1, #4104
 133              	.LVL7:
 134              		.loc 1 72 13 view .LVU27
 135 0010 FFF7FEFF 		bl	lv_obj_get_local_style_prop
 136              	.LVL8:
  73:Middlewares/LVGL/GUI/lvgl/src/core/lv_obj_pos.c **** 
  74:Middlewares/LVGL/GUI/lvgl/src/core/lv_obj_pos.c ****     if((res_y == LV_RES_OK && v_y.num != y) || res_y == LV_RES_INV) {
 137              		.loc 1 74 5 is_stmt 1 view .LVU28
 138              		.loc 1 74 7 is_stmt 0 view .LVU29
 139 0014 0128     		cmp	r0, #1
 140 0016 07D0     		beq	.L12
 141              	.L8:
 142              		.loc 1 74 45 discriminator 3 view .LVU30
 143 0018 20B9     		cbnz	r0, .L7
 144              	.L9:
  75:Middlewares/LVGL/GUI/lvgl/src/core/lv_obj_pos.c ****         lv_obj_set_style_y(obj, y, 0);
 145              		.loc 1 75 9 is_stmt 1 view .LVU31
 146 001a 0022     		movs	r2, #0
 147 001c 2146     		mov	r1, r4
 148 001e 2846     		mov	r0, r5
 149              	.LVL9:
 150              		.loc 1 75 9 is_stmt 0 view .LVU32
 151 0020 FFF7FEFF 		bl	lv_obj_set_style_y
 152              	.LVL10:
 153              	.L7:
  76:Middlewares/LVGL/GUI/lvgl/src/core/lv_obj_pos.c ****     }
ARM GAS  C:\Users\ADMINI~1\AppData\Local\Temp\ccVA75Tx.s 			page 5


  77:Middlewares/LVGL/GUI/lvgl/src/core/lv_obj_pos.c **** }
 154              		.loc 1 77 1 view .LVU33
 155 0024 03B0     		add	sp, sp, #12
 156              	.LCFI6:
 157              		.cfi_remember_state
 158              		.cfi_def_cfa_offset 12
 159              		@ sp needed
 160 0026 30BD     		pop	{r4, r5, pc}
 161              	.LVL11:
 162              	.L12:
 163              	.LCFI7:
 164              		.cfi_restore_state
  74:Middlewares/LVGL/GUI/lvgl/src/core/lv_obj_pos.c ****         lv_obj_set_style_y(obj, y, 0);
 165              		.loc 1 74 34 discriminator 1 view .LVU34
 166 0028 019B     		ldr	r3, [sp, #4]
  74:Middlewares/LVGL/GUI/lvgl/src/core/lv_obj_pos.c ****         lv_obj_set_style_y(obj, y, 0);
 167              		.loc 1 74 28 discriminator 1 view .LVU35
 168 002a A342     		cmp	r3, r4
 169 002c F5D1     		bne	.L9
 170 002e F3E7     		b	.L8
 171              		.cfi_endproc
 172              	.LFE161:
 174              		.section	.text.lv_obj_set_pos,"ax",%progbits
 175              		.align	1
 176              		.global	lv_obj_set_pos
 177              		.syntax unified
 178              		.thumb
 179              		.thumb_func
 181              	lv_obj_set_pos:
 182              	.LVL12:
 183              	.LFB159:
  44:Middlewares/LVGL/GUI/lvgl/src/core/lv_obj_pos.c ****     LV_ASSERT_OBJ(obj, MY_CLASS);
 184              		.loc 1 44 1 is_stmt 1 view -0
 185              		.cfi_startproc
 186              		@ args = 0, pretend = 0, frame = 0
 187              		@ frame_needed = 0, uses_anonymous_args = 0
  44:Middlewares/LVGL/GUI/lvgl/src/core/lv_obj_pos.c ****     LV_ASSERT_OBJ(obj, MY_CLASS);
 188              		.loc 1 44 1 is_stmt 0 view .LVU37
 189 0000 38B5     		push	{r3, r4, r5, lr}
 190              	.LCFI8:
 191              		.cfi_def_cfa_offset 16
 192              		.cfi_offset 3, -16
 193              		.cfi_offset 4, -12
 194              		.cfi_offset 5, -8
 195              		.cfi_offset 14, -4
 196 0002 0446     		mov	r4, r0
 197 0004 1546     		mov	r5, r2
  45:Middlewares/LVGL/GUI/lvgl/src/core/lv_obj_pos.c **** 
 198              		.loc 1 45 5 is_stmt 1 view .LVU38
  45:Middlewares/LVGL/GUI/lvgl/src/core/lv_obj_pos.c **** 
 199              		.loc 1 45 5 view .LVU39
  45:Middlewares/LVGL/GUI/lvgl/src/core/lv_obj_pos.c **** 
 200              		.loc 1 45 5 view .LVU40
  47:Middlewares/LVGL/GUI/lvgl/src/core/lv_obj_pos.c ****     lv_obj_set_y(obj, y);
 201              		.loc 1 47 5 view .LVU41
 202 0006 FFF7FEFF 		bl	lv_obj_set_x
 203              	.LVL13:
ARM GAS  C:\Users\ADMINI~1\AppData\Local\Temp\ccVA75Tx.s 			page 6


  48:Middlewares/LVGL/GUI/lvgl/src/core/lv_obj_pos.c **** }
 204              		.loc 1 48 5 view .LVU42
 205 000a 2946     		mov	r1, r5
 206 000c 2046     		mov	r0, r4
 207 000e FFF7FEFF 		bl	lv_obj_set_y
 208              	.LVL14:
  49:Middlewares/LVGL/GUI/lvgl/src/core/lv_obj_pos.c **** 
 209              		.loc 1 49 1 is_stmt 0 view .LVU43
 210 0012 38BD     		pop	{r3, r4, r5, pc}
  49:Middlewares/LVGL/GUI/lvgl/src/core/lv_obj_pos.c **** 
 211              		.loc 1 49 1 view .LVU44
 212              		.cfi_endproc
 213              	.LFE159:
 215              		.section	.text.lv_obj_set_width,"ax",%progbits
 216              		.align	1
 217              		.global	lv_obj_set_width
 218              		.syntax unified
 219              		.thumb
 220              		.thumb_func
 222              	lv_obj_set_width:
 223              	.LVL15:
 224              	.LFB164:
  78:Middlewares/LVGL/GUI/lvgl/src/core/lv_obj_pos.c **** 
  79:Middlewares/LVGL/GUI/lvgl/src/core/lv_obj_pos.c **** bool lv_obj_refr_size(lv_obj_t * obj)
  80:Middlewares/LVGL/GUI/lvgl/src/core/lv_obj_pos.c **** {
  81:Middlewares/LVGL/GUI/lvgl/src/core/lv_obj_pos.c ****     LV_ASSERT_OBJ(obj, MY_CLASS);
  82:Middlewares/LVGL/GUI/lvgl/src/core/lv_obj_pos.c **** 
  83:Middlewares/LVGL/GUI/lvgl/src/core/lv_obj_pos.c ****     /*If the width or height is set by a layout do not modify them*/
  84:Middlewares/LVGL/GUI/lvgl/src/core/lv_obj_pos.c ****     if(obj->w_layout && obj->h_layout) return false;
  85:Middlewares/LVGL/GUI/lvgl/src/core/lv_obj_pos.c **** 
  86:Middlewares/LVGL/GUI/lvgl/src/core/lv_obj_pos.c ****     lv_obj_t * parent = lv_obj_get_parent(obj);
  87:Middlewares/LVGL/GUI/lvgl/src/core/lv_obj_pos.c ****     if(parent == NULL) return false;
  88:Middlewares/LVGL/GUI/lvgl/src/core/lv_obj_pos.c **** 
  89:Middlewares/LVGL/GUI/lvgl/src/core/lv_obj_pos.c ****     lv_coord_t sl_ori = lv_obj_get_scroll_left(obj);
  90:Middlewares/LVGL/GUI/lvgl/src/core/lv_obj_pos.c ****     bool w_is_content = false;
  91:Middlewares/LVGL/GUI/lvgl/src/core/lv_obj_pos.c ****     bool w_is_pct = false;
  92:Middlewares/LVGL/GUI/lvgl/src/core/lv_obj_pos.c **** 
  93:Middlewares/LVGL/GUI/lvgl/src/core/lv_obj_pos.c ****     lv_coord_t w;
  94:Middlewares/LVGL/GUI/lvgl/src/core/lv_obj_pos.c ****     if(obj->w_layout) {
  95:Middlewares/LVGL/GUI/lvgl/src/core/lv_obj_pos.c ****         w = lv_obj_get_width(obj);
  96:Middlewares/LVGL/GUI/lvgl/src/core/lv_obj_pos.c ****     }
  97:Middlewares/LVGL/GUI/lvgl/src/core/lv_obj_pos.c ****     else {
  98:Middlewares/LVGL/GUI/lvgl/src/core/lv_obj_pos.c ****         w = lv_obj_get_style_width(obj, LV_PART_MAIN);
  99:Middlewares/LVGL/GUI/lvgl/src/core/lv_obj_pos.c ****         w_is_content = w == LV_SIZE_CONTENT ? true : false;
 100:Middlewares/LVGL/GUI/lvgl/src/core/lv_obj_pos.c ****         w_is_pct = LV_COORD_IS_PCT(w) ? true : false;
 101:Middlewares/LVGL/GUI/lvgl/src/core/lv_obj_pos.c ****         lv_coord_t parent_w = lv_obj_get_content_width(parent);
 102:Middlewares/LVGL/GUI/lvgl/src/core/lv_obj_pos.c **** 
 103:Middlewares/LVGL/GUI/lvgl/src/core/lv_obj_pos.c ****         if(w_is_content) {
 104:Middlewares/LVGL/GUI/lvgl/src/core/lv_obj_pos.c ****             w = calc_content_width(obj);
 105:Middlewares/LVGL/GUI/lvgl/src/core/lv_obj_pos.c ****         }
 106:Middlewares/LVGL/GUI/lvgl/src/core/lv_obj_pos.c ****         else if(w_is_pct) {
 107:Middlewares/LVGL/GUI/lvgl/src/core/lv_obj_pos.c ****             /*If parent has content size and the child has pct size
 108:Middlewares/LVGL/GUI/lvgl/src/core/lv_obj_pos.c ****              *a circular dependency will occur. To solve it keep child size at zero */
 109:Middlewares/LVGL/GUI/lvgl/src/core/lv_obj_pos.c ****             if(parent->w_layout == 0 && lv_obj_get_style_width(parent, 0) == LV_SIZE_CONTENT) {
 110:Middlewares/LVGL/GUI/lvgl/src/core/lv_obj_pos.c ****                 lv_coord_t border_w = lv_obj_get_style_border_width(obj, 0);
 111:Middlewares/LVGL/GUI/lvgl/src/core/lv_obj_pos.c ****                 w = lv_obj_get_style_pad_left(obj, 0) + border_w;
 112:Middlewares/LVGL/GUI/lvgl/src/core/lv_obj_pos.c ****                 w += lv_obj_get_style_pad_right(obj, 0) + border_w;
ARM GAS  C:\Users\ADMINI~1\AppData\Local\Temp\ccVA75Tx.s 			page 7


 113:Middlewares/LVGL/GUI/lvgl/src/core/lv_obj_pos.c ****             }
 114:Middlewares/LVGL/GUI/lvgl/src/core/lv_obj_pos.c ****             else {
 115:Middlewares/LVGL/GUI/lvgl/src/core/lv_obj_pos.c ****                 w = (LV_COORD_GET_PCT(w) * parent_w) / 100;
 116:Middlewares/LVGL/GUI/lvgl/src/core/lv_obj_pos.c ****             }
 117:Middlewares/LVGL/GUI/lvgl/src/core/lv_obj_pos.c ****         }
 118:Middlewares/LVGL/GUI/lvgl/src/core/lv_obj_pos.c **** 
 119:Middlewares/LVGL/GUI/lvgl/src/core/lv_obj_pos.c ****         lv_coord_t minw = lv_obj_get_style_min_width(obj, LV_PART_MAIN);
 120:Middlewares/LVGL/GUI/lvgl/src/core/lv_obj_pos.c ****         lv_coord_t maxw = lv_obj_get_style_max_width(obj, LV_PART_MAIN);
 121:Middlewares/LVGL/GUI/lvgl/src/core/lv_obj_pos.c ****         w = lv_clamp_width(w, minw, maxw, parent_w);
 122:Middlewares/LVGL/GUI/lvgl/src/core/lv_obj_pos.c ****     }
 123:Middlewares/LVGL/GUI/lvgl/src/core/lv_obj_pos.c **** 
 124:Middlewares/LVGL/GUI/lvgl/src/core/lv_obj_pos.c ****     lv_coord_t st_ori = lv_obj_get_scroll_top(obj);
 125:Middlewares/LVGL/GUI/lvgl/src/core/lv_obj_pos.c ****     lv_coord_t h;
 126:Middlewares/LVGL/GUI/lvgl/src/core/lv_obj_pos.c ****     bool h_is_content = false;
 127:Middlewares/LVGL/GUI/lvgl/src/core/lv_obj_pos.c ****     bool h_is_pct = false;
 128:Middlewares/LVGL/GUI/lvgl/src/core/lv_obj_pos.c ****     if(obj->h_layout) {
 129:Middlewares/LVGL/GUI/lvgl/src/core/lv_obj_pos.c ****         h = lv_obj_get_height(obj);
 130:Middlewares/LVGL/GUI/lvgl/src/core/lv_obj_pos.c ****     }
 131:Middlewares/LVGL/GUI/lvgl/src/core/lv_obj_pos.c ****     else {
 132:Middlewares/LVGL/GUI/lvgl/src/core/lv_obj_pos.c ****         h = lv_obj_get_style_height(obj, LV_PART_MAIN);
 133:Middlewares/LVGL/GUI/lvgl/src/core/lv_obj_pos.c ****         h_is_content = h == LV_SIZE_CONTENT ? true : false;
 134:Middlewares/LVGL/GUI/lvgl/src/core/lv_obj_pos.c ****         h_is_pct = LV_COORD_IS_PCT(h) ? true : false;
 135:Middlewares/LVGL/GUI/lvgl/src/core/lv_obj_pos.c ****         lv_coord_t parent_h = lv_obj_get_content_height(parent);
 136:Middlewares/LVGL/GUI/lvgl/src/core/lv_obj_pos.c **** 
 137:Middlewares/LVGL/GUI/lvgl/src/core/lv_obj_pos.c ****         if(h_is_content) {
 138:Middlewares/LVGL/GUI/lvgl/src/core/lv_obj_pos.c ****             h = calc_content_height(obj);
 139:Middlewares/LVGL/GUI/lvgl/src/core/lv_obj_pos.c ****         }
 140:Middlewares/LVGL/GUI/lvgl/src/core/lv_obj_pos.c ****         else if(h_is_pct) {
 141:Middlewares/LVGL/GUI/lvgl/src/core/lv_obj_pos.c ****             /*If parent has content size and the child has pct size
 142:Middlewares/LVGL/GUI/lvgl/src/core/lv_obj_pos.c ****              *a circular dependency will occur. To solve it keep child size at zero */
 143:Middlewares/LVGL/GUI/lvgl/src/core/lv_obj_pos.c ****             if(parent->h_layout == 0 && lv_obj_get_style_height(parent, 0) == LV_SIZE_CONTENT) {
 144:Middlewares/LVGL/GUI/lvgl/src/core/lv_obj_pos.c ****                 lv_coord_t border_w = lv_obj_get_style_border_width(obj, 0);
 145:Middlewares/LVGL/GUI/lvgl/src/core/lv_obj_pos.c ****                 h = lv_obj_get_style_pad_top(obj, 0) + border_w;
 146:Middlewares/LVGL/GUI/lvgl/src/core/lv_obj_pos.c ****                 h += lv_obj_get_style_pad_bottom(obj, 0) + border_w;
 147:Middlewares/LVGL/GUI/lvgl/src/core/lv_obj_pos.c ****             }
 148:Middlewares/LVGL/GUI/lvgl/src/core/lv_obj_pos.c ****             else {
 149:Middlewares/LVGL/GUI/lvgl/src/core/lv_obj_pos.c ****                 h = (LV_COORD_GET_PCT(h) * parent_h) / 100;
 150:Middlewares/LVGL/GUI/lvgl/src/core/lv_obj_pos.c ****             }
 151:Middlewares/LVGL/GUI/lvgl/src/core/lv_obj_pos.c ****         }
 152:Middlewares/LVGL/GUI/lvgl/src/core/lv_obj_pos.c **** 
 153:Middlewares/LVGL/GUI/lvgl/src/core/lv_obj_pos.c ****         lv_coord_t minh = lv_obj_get_style_min_height(obj, LV_PART_MAIN);
 154:Middlewares/LVGL/GUI/lvgl/src/core/lv_obj_pos.c ****         lv_coord_t maxh = lv_obj_get_style_max_height(obj, LV_PART_MAIN);
 155:Middlewares/LVGL/GUI/lvgl/src/core/lv_obj_pos.c ****         h = lv_clamp_height(h, minh, maxh, parent_h);
 156:Middlewares/LVGL/GUI/lvgl/src/core/lv_obj_pos.c ****     }
 157:Middlewares/LVGL/GUI/lvgl/src/core/lv_obj_pos.c **** 
 158:Middlewares/LVGL/GUI/lvgl/src/core/lv_obj_pos.c ****     /*calc_auto_size set the scroll x/y to 0 so revert the original value*/
 159:Middlewares/LVGL/GUI/lvgl/src/core/lv_obj_pos.c ****     if(w_is_content || h_is_content) {
 160:Middlewares/LVGL/GUI/lvgl/src/core/lv_obj_pos.c ****         lv_obj_scroll_to(obj, sl_ori, st_ori, LV_ANIM_OFF);
 161:Middlewares/LVGL/GUI/lvgl/src/core/lv_obj_pos.c ****     }
 162:Middlewares/LVGL/GUI/lvgl/src/core/lv_obj_pos.c **** 
 163:Middlewares/LVGL/GUI/lvgl/src/core/lv_obj_pos.c ****     /*Do nothing if the size is not changed*/
 164:Middlewares/LVGL/GUI/lvgl/src/core/lv_obj_pos.c ****     /*It is very important else recursive resizing can occur without size change*/
 165:Middlewares/LVGL/GUI/lvgl/src/core/lv_obj_pos.c ****     if(lv_obj_get_width(obj) == w && lv_obj_get_height(obj) == h) return false;
 166:Middlewares/LVGL/GUI/lvgl/src/core/lv_obj_pos.c **** 
 167:Middlewares/LVGL/GUI/lvgl/src/core/lv_obj_pos.c ****     /*Invalidate the original area*/
 168:Middlewares/LVGL/GUI/lvgl/src/core/lv_obj_pos.c ****     lv_obj_invalidate(obj);
 169:Middlewares/LVGL/GUI/lvgl/src/core/lv_obj_pos.c **** 
ARM GAS  C:\Users\ADMINI~1\AppData\Local\Temp\ccVA75Tx.s 			page 8


 170:Middlewares/LVGL/GUI/lvgl/src/core/lv_obj_pos.c ****     /*Save the original coordinates*/
 171:Middlewares/LVGL/GUI/lvgl/src/core/lv_obj_pos.c ****     lv_area_t ori;
 172:Middlewares/LVGL/GUI/lvgl/src/core/lv_obj_pos.c ****     lv_obj_get_coords(obj, &ori);
 173:Middlewares/LVGL/GUI/lvgl/src/core/lv_obj_pos.c **** 
 174:Middlewares/LVGL/GUI/lvgl/src/core/lv_obj_pos.c ****     /*Check if the object inside the parent or not*/
 175:Middlewares/LVGL/GUI/lvgl/src/core/lv_obj_pos.c ****     lv_area_t parent_fit_area;
 176:Middlewares/LVGL/GUI/lvgl/src/core/lv_obj_pos.c ****     lv_obj_get_content_coords(parent, &parent_fit_area);
 177:Middlewares/LVGL/GUI/lvgl/src/core/lv_obj_pos.c **** 
 178:Middlewares/LVGL/GUI/lvgl/src/core/lv_obj_pos.c ****     /*If the object is already out of the parent and its position is changes
 179:Middlewares/LVGL/GUI/lvgl/src/core/lv_obj_pos.c ****      *surely the scrollbars also changes so invalidate them*/
 180:Middlewares/LVGL/GUI/lvgl/src/core/lv_obj_pos.c ****     bool on1 = _lv_area_is_in(&ori, &parent_fit_area, 0);
 181:Middlewares/LVGL/GUI/lvgl/src/core/lv_obj_pos.c ****     if(!on1) lv_obj_scrollbar_invalidate(parent);
 182:Middlewares/LVGL/GUI/lvgl/src/core/lv_obj_pos.c **** 
 183:Middlewares/LVGL/GUI/lvgl/src/core/lv_obj_pos.c ****     /*Set the length and height
 184:Middlewares/LVGL/GUI/lvgl/src/core/lv_obj_pos.c ****      *Be sure the content is not scrolled in an invalid position on the new size*/
 185:Middlewares/LVGL/GUI/lvgl/src/core/lv_obj_pos.c ****     obj->coords.y2 = obj->coords.y1 + h - 1;
 186:Middlewares/LVGL/GUI/lvgl/src/core/lv_obj_pos.c ****     if(lv_obj_get_style_base_dir(obj, LV_PART_MAIN) == LV_BASE_DIR_RTL) {
 187:Middlewares/LVGL/GUI/lvgl/src/core/lv_obj_pos.c ****         obj->coords.x1 = obj->coords.x2 - w + 1;
 188:Middlewares/LVGL/GUI/lvgl/src/core/lv_obj_pos.c ****     }
 189:Middlewares/LVGL/GUI/lvgl/src/core/lv_obj_pos.c ****     else {
 190:Middlewares/LVGL/GUI/lvgl/src/core/lv_obj_pos.c ****         obj->coords.x2 = obj->coords.x1 + w - 1;
 191:Middlewares/LVGL/GUI/lvgl/src/core/lv_obj_pos.c ****     }
 192:Middlewares/LVGL/GUI/lvgl/src/core/lv_obj_pos.c **** 
 193:Middlewares/LVGL/GUI/lvgl/src/core/lv_obj_pos.c ****     /*Call the ancestor's event handler to the object with its new coordinates*/
 194:Middlewares/LVGL/GUI/lvgl/src/core/lv_obj_pos.c ****     lv_event_send(obj, LV_EVENT_SIZE_CHANGED, &ori);
 195:Middlewares/LVGL/GUI/lvgl/src/core/lv_obj_pos.c **** 
 196:Middlewares/LVGL/GUI/lvgl/src/core/lv_obj_pos.c ****     /*Call the ancestor's event handler to the parent too*/
 197:Middlewares/LVGL/GUI/lvgl/src/core/lv_obj_pos.c ****     lv_event_send(parent, LV_EVENT_CHILD_CHANGED, obj);
 198:Middlewares/LVGL/GUI/lvgl/src/core/lv_obj_pos.c **** 
 199:Middlewares/LVGL/GUI/lvgl/src/core/lv_obj_pos.c ****     /*Invalidate the new area*/
 200:Middlewares/LVGL/GUI/lvgl/src/core/lv_obj_pos.c ****     lv_obj_invalidate(obj);
 201:Middlewares/LVGL/GUI/lvgl/src/core/lv_obj_pos.c **** 
 202:Middlewares/LVGL/GUI/lvgl/src/core/lv_obj_pos.c ****     lv_obj_readjust_scroll(obj, LV_ANIM_OFF);
 203:Middlewares/LVGL/GUI/lvgl/src/core/lv_obj_pos.c **** 
 204:Middlewares/LVGL/GUI/lvgl/src/core/lv_obj_pos.c ****     /*If the object was out of the parent invalidate the new scrollbar area too.
 205:Middlewares/LVGL/GUI/lvgl/src/core/lv_obj_pos.c ****      *If it wasn't out of the parent but out now, also invalidate the scrollbars*/
 206:Middlewares/LVGL/GUI/lvgl/src/core/lv_obj_pos.c ****     bool on2 = _lv_area_is_in(&obj->coords, &parent_fit_area, 0);
 207:Middlewares/LVGL/GUI/lvgl/src/core/lv_obj_pos.c ****     if(on1 || (!on1 && on2)) lv_obj_scrollbar_invalidate(parent);
 208:Middlewares/LVGL/GUI/lvgl/src/core/lv_obj_pos.c **** 
 209:Middlewares/LVGL/GUI/lvgl/src/core/lv_obj_pos.c ****     return true;
 210:Middlewares/LVGL/GUI/lvgl/src/core/lv_obj_pos.c **** }
 211:Middlewares/LVGL/GUI/lvgl/src/core/lv_obj_pos.c **** 
 212:Middlewares/LVGL/GUI/lvgl/src/core/lv_obj_pos.c **** void lv_obj_set_size(lv_obj_t * obj, lv_coord_t w, lv_coord_t h)
 213:Middlewares/LVGL/GUI/lvgl/src/core/lv_obj_pos.c **** {
 214:Middlewares/LVGL/GUI/lvgl/src/core/lv_obj_pos.c ****     LV_ASSERT_OBJ(obj, MY_CLASS);
 215:Middlewares/LVGL/GUI/lvgl/src/core/lv_obj_pos.c **** 
 216:Middlewares/LVGL/GUI/lvgl/src/core/lv_obj_pos.c ****     lv_obj_set_width(obj, w);
 217:Middlewares/LVGL/GUI/lvgl/src/core/lv_obj_pos.c ****     lv_obj_set_height(obj, h);
 218:Middlewares/LVGL/GUI/lvgl/src/core/lv_obj_pos.c **** }
 219:Middlewares/LVGL/GUI/lvgl/src/core/lv_obj_pos.c **** 
 220:Middlewares/LVGL/GUI/lvgl/src/core/lv_obj_pos.c **** void lv_obj_set_width(lv_obj_t * obj, lv_coord_t w)
 221:Middlewares/LVGL/GUI/lvgl/src/core/lv_obj_pos.c **** {
 225              		.loc 1 221 1 is_stmt 1 view -0
 226              		.cfi_startproc
 227              		@ args = 0, pretend = 0, frame = 8
 228              		@ frame_needed = 0, uses_anonymous_args = 0
 229              		.loc 1 221 1 is_stmt 0 view .LVU46
ARM GAS  C:\Users\ADMINI~1\AppData\Local\Temp\ccVA75Tx.s 			page 9


 230 0000 30B5     		push	{r4, r5, lr}
 231              	.LCFI9:
 232              		.cfi_def_cfa_offset 12
 233              		.cfi_offset 4, -12
 234              		.cfi_offset 5, -8
 235              		.cfi_offset 14, -4
 236 0002 83B0     		sub	sp, sp, #12
 237              	.LCFI10:
 238              		.cfi_def_cfa_offset 24
 239 0004 0546     		mov	r5, r0
 240 0006 0C46     		mov	r4, r1
 222:Middlewares/LVGL/GUI/lvgl/src/core/lv_obj_pos.c ****     LV_ASSERT_OBJ(obj, MY_CLASS);
 241              		.loc 1 222 5 is_stmt 1 view .LVU47
 242              		.loc 1 222 5 view .LVU48
 243              		.loc 1 222 5 view .LVU49
 223:Middlewares/LVGL/GUI/lvgl/src/core/lv_obj_pos.c ****     lv_res_t res_w;
 244              		.loc 1 223 5 view .LVU50
 224:Middlewares/LVGL/GUI/lvgl/src/core/lv_obj_pos.c ****     lv_style_value_t v_w;
 245              		.loc 1 224 5 view .LVU51
 225:Middlewares/LVGL/GUI/lvgl/src/core/lv_obj_pos.c **** 
 226:Middlewares/LVGL/GUI/lvgl/src/core/lv_obj_pos.c ****     res_w = lv_obj_get_local_style_prop(obj, LV_STYLE_WIDTH, &v_w, 0);
 246              		.loc 1 226 5 view .LVU52
 247              		.loc 1 226 13 is_stmt 0 view .LVU53
 248 0008 0023     		movs	r3, #0
 249 000a 01AA     		add	r2, sp, #4
 250 000c 41F20101 		movw	r1, #4097
 251              	.LVL16:
 252              		.loc 1 226 13 view .LVU54
 253 0010 FFF7FEFF 		bl	lv_obj_get_local_style_prop
 254              	.LVL17:
 227:Middlewares/LVGL/GUI/lvgl/src/core/lv_obj_pos.c **** 
 228:Middlewares/LVGL/GUI/lvgl/src/core/lv_obj_pos.c ****     if((res_w == LV_RES_OK && v_w.num != w) || res_w == LV_RES_INV) {
 255              		.loc 1 228 5 is_stmt 1 view .LVU55
 256              		.loc 1 228 7 is_stmt 0 view .LVU56
 257 0014 0128     		cmp	r0, #1
 258 0016 07D0     		beq	.L20
 259              	.L16:
 260              		.loc 1 228 45 discriminator 3 view .LVU57
 261 0018 20B9     		cbnz	r0, .L15
 262              	.L17:
 229:Middlewares/LVGL/GUI/lvgl/src/core/lv_obj_pos.c ****         lv_obj_set_style_width(obj, w, 0);
 263              		.loc 1 229 9 is_stmt 1 view .LVU58
 264 001a 0022     		movs	r2, #0
 265 001c 2146     		mov	r1, r4
 266 001e 2846     		mov	r0, r5
 267              	.LVL18:
 268              		.loc 1 229 9 is_stmt 0 view .LVU59
 269 0020 FFF7FEFF 		bl	lv_obj_set_style_width
 270              	.LVL19:
 271              	.L15:
 230:Middlewares/LVGL/GUI/lvgl/src/core/lv_obj_pos.c ****     }
 231:Middlewares/LVGL/GUI/lvgl/src/core/lv_obj_pos.c **** }
 272              		.loc 1 231 1 view .LVU60
 273 0024 03B0     		add	sp, sp, #12
 274              	.LCFI11:
 275              		.cfi_remember_state
 276              		.cfi_def_cfa_offset 12
ARM GAS  C:\Users\ADMINI~1\AppData\Local\Temp\ccVA75Tx.s 			page 10


 277              		@ sp needed
 278 0026 30BD     		pop	{r4, r5, pc}
 279              	.LVL20:
 280              	.L20:
 281              	.LCFI12:
 282              		.cfi_restore_state
 228:Middlewares/LVGL/GUI/lvgl/src/core/lv_obj_pos.c ****         lv_obj_set_style_width(obj, w, 0);
 283              		.loc 1 228 34 discriminator 1 view .LVU61
 284 0028 019B     		ldr	r3, [sp, #4]
 228:Middlewares/LVGL/GUI/lvgl/src/core/lv_obj_pos.c ****         lv_obj_set_style_width(obj, w, 0);
 285              		.loc 1 228 28 discriminator 1 view .LVU62
 286 002a A342     		cmp	r3, r4
 287 002c F5D1     		bne	.L17
 288 002e F3E7     		b	.L16
 289              		.cfi_endproc
 290              	.LFE164:
 292              		.section	.text.lv_obj_set_height,"ax",%progbits
 293              		.align	1
 294              		.global	lv_obj_set_height
 295              		.syntax unified
 296              		.thumb
 297              		.thumb_func
 299              	lv_obj_set_height:
 300              	.LVL21:
 301              	.LFB165:
 232:Middlewares/LVGL/GUI/lvgl/src/core/lv_obj_pos.c **** 
 233:Middlewares/LVGL/GUI/lvgl/src/core/lv_obj_pos.c **** void lv_obj_set_height(lv_obj_t * obj, lv_coord_t h)
 234:Middlewares/LVGL/GUI/lvgl/src/core/lv_obj_pos.c **** {
 302              		.loc 1 234 1 is_stmt 1 view -0
 303              		.cfi_startproc
 304              		@ args = 0, pretend = 0, frame = 8
 305              		@ frame_needed = 0, uses_anonymous_args = 0
 306              		.loc 1 234 1 is_stmt 0 view .LVU64
 307 0000 30B5     		push	{r4, r5, lr}
 308              	.LCFI13:
 309              		.cfi_def_cfa_offset 12
 310              		.cfi_offset 4, -12
 311              		.cfi_offset 5, -8
 312              		.cfi_offset 14, -4
 313 0002 83B0     		sub	sp, sp, #12
 314              	.LCFI14:
 315              		.cfi_def_cfa_offset 24
 316 0004 0546     		mov	r5, r0
 317 0006 0C46     		mov	r4, r1
 235:Middlewares/LVGL/GUI/lvgl/src/core/lv_obj_pos.c ****     LV_ASSERT_OBJ(obj, MY_CLASS);
 318              		.loc 1 235 5 is_stmt 1 view .LVU65
 319              		.loc 1 235 5 view .LVU66
 320              		.loc 1 235 5 view .LVU67
 236:Middlewares/LVGL/GUI/lvgl/src/core/lv_obj_pos.c ****     lv_res_t res_h;
 321              		.loc 1 236 5 view .LVU68
 237:Middlewares/LVGL/GUI/lvgl/src/core/lv_obj_pos.c ****     lv_style_value_t v_h;
 322              		.loc 1 237 5 view .LVU69
 238:Middlewares/LVGL/GUI/lvgl/src/core/lv_obj_pos.c **** 
 239:Middlewares/LVGL/GUI/lvgl/src/core/lv_obj_pos.c ****     res_h = lv_obj_get_local_style_prop(obj, LV_STYLE_HEIGHT, &v_h, 0);
 323              		.loc 1 239 5 view .LVU70
 324              		.loc 1 239 13 is_stmt 0 view .LVU71
 325 0008 0023     		movs	r3, #0
ARM GAS  C:\Users\ADMINI~1\AppData\Local\Temp\ccVA75Tx.s 			page 11


 326 000a 01AA     		add	r2, sp, #4
 327 000c 41F20401 		movw	r1, #4100
 328              	.LVL22:
 329              		.loc 1 239 13 view .LVU72
 330 0010 FFF7FEFF 		bl	lv_obj_get_local_style_prop
 331              	.LVL23:
 240:Middlewares/LVGL/GUI/lvgl/src/core/lv_obj_pos.c **** 
 241:Middlewares/LVGL/GUI/lvgl/src/core/lv_obj_pos.c ****     if((res_h == LV_RES_OK && v_h.num != h) || res_h == LV_RES_INV) {
 332              		.loc 1 241 5 is_stmt 1 view .LVU73
 333              		.loc 1 241 7 is_stmt 0 view .LVU74
 334 0014 0128     		cmp	r0, #1
 335 0016 07D0     		beq	.L26
 336              	.L22:
 337              		.loc 1 241 45 discriminator 3 view .LVU75
 338 0018 20B9     		cbnz	r0, .L21
 339              	.L23:
 242:Middlewares/LVGL/GUI/lvgl/src/core/lv_obj_pos.c ****         lv_obj_set_style_height(obj, h, 0);
 340              		.loc 1 242 9 is_stmt 1 view .LVU76
 341 001a 0022     		movs	r2, #0
 342 001c 2146     		mov	r1, r4
 343 001e 2846     		mov	r0, r5
 344              	.LVL24:
 345              		.loc 1 242 9 is_stmt 0 view .LVU77
 346 0020 FFF7FEFF 		bl	lv_obj_set_style_height
 347              	.LVL25:
 348              	.L21:
 243:Middlewares/LVGL/GUI/lvgl/src/core/lv_obj_pos.c ****     }
 244:Middlewares/LVGL/GUI/lvgl/src/core/lv_obj_pos.c **** }
 349              		.loc 1 244 1 view .LVU78
 350 0024 03B0     		add	sp, sp, #12
 351              	.LCFI15:
 352              		.cfi_remember_state
 353              		.cfi_def_cfa_offset 12
 354              		@ sp needed
 355 0026 30BD     		pop	{r4, r5, pc}
 356              	.LVL26:
 357              	.L26:
 358              	.LCFI16:
 359              		.cfi_restore_state
 241:Middlewares/LVGL/GUI/lvgl/src/core/lv_obj_pos.c ****         lv_obj_set_style_height(obj, h, 0);
 360              		.loc 1 241 34 discriminator 1 view .LVU79
 361 0028 019B     		ldr	r3, [sp, #4]
 241:Middlewares/LVGL/GUI/lvgl/src/core/lv_obj_pos.c ****         lv_obj_set_style_height(obj, h, 0);
 362              		.loc 1 241 28 discriminator 1 view .LVU80
 363 002a A342     		cmp	r3, r4
 364 002c F5D1     		bne	.L23
 365 002e F3E7     		b	.L22
 366              		.cfi_endproc
 367              	.LFE165:
 369              		.section	.text.lv_obj_set_size,"ax",%progbits
 370              		.align	1
 371              		.global	lv_obj_set_size
 372              		.syntax unified
 373              		.thumb
 374              		.thumb_func
 376              	lv_obj_set_size:
 377              	.LVL27:
ARM GAS  C:\Users\ADMINI~1\AppData\Local\Temp\ccVA75Tx.s 			page 12


 378              	.LFB163:
 213:Middlewares/LVGL/GUI/lvgl/src/core/lv_obj_pos.c ****     LV_ASSERT_OBJ(obj, MY_CLASS);
 379              		.loc 1 213 1 is_stmt 1 view -0
 380              		.cfi_startproc
 381              		@ args = 0, pretend = 0, frame = 0
 382              		@ frame_needed = 0, uses_anonymous_args = 0
 213:Middlewares/LVGL/GUI/lvgl/src/core/lv_obj_pos.c ****     LV_ASSERT_OBJ(obj, MY_CLASS);
 383              		.loc 1 213 1 is_stmt 0 view .LVU82
 384 0000 38B5     		push	{r3, r4, r5, lr}
 385              	.LCFI17:
 386              		.cfi_def_cfa_offset 16
 387              		.cfi_offset 3, -16
 388              		.cfi_offset 4, -12
 389              		.cfi_offset 5, -8
 390              		.cfi_offset 14, -4
 391 0002 0446     		mov	r4, r0
 392 0004 1546     		mov	r5, r2
 214:Middlewares/LVGL/GUI/lvgl/src/core/lv_obj_pos.c **** 
 393              		.loc 1 214 5 is_stmt 1 view .LVU83
 214:Middlewares/LVGL/GUI/lvgl/src/core/lv_obj_pos.c **** 
 394              		.loc 1 214 5 view .LVU84
 214:Middlewares/LVGL/GUI/lvgl/src/core/lv_obj_pos.c **** 
 395              		.loc 1 214 5 view .LVU85
 216:Middlewares/LVGL/GUI/lvgl/src/core/lv_obj_pos.c ****     lv_obj_set_height(obj, h);
 396              		.loc 1 216 5 view .LVU86
 397 0006 FFF7FEFF 		bl	lv_obj_set_width
 398              	.LVL28:
 217:Middlewares/LVGL/GUI/lvgl/src/core/lv_obj_pos.c **** }
 399              		.loc 1 217 5 view .LVU87
 400 000a 2946     		mov	r1, r5
 401 000c 2046     		mov	r0, r4
 402 000e FFF7FEFF 		bl	lv_obj_set_height
 403              	.LVL29:
 218:Middlewares/LVGL/GUI/lvgl/src/core/lv_obj_pos.c **** 
 404              		.loc 1 218 1 is_stmt 0 view .LVU88
 405 0012 38BD     		pop	{r3, r4, r5, pc}
 218:Middlewares/LVGL/GUI/lvgl/src/core/lv_obj_pos.c **** 
 406              		.loc 1 218 1 view .LVU89
 407              		.cfi_endproc
 408              	.LFE163:
 410              		.section	.text.lv_obj_set_content_width,"ax",%progbits
 411              		.align	1
 412              		.global	lv_obj_set_content_width
 413              		.syntax unified
 414              		.thumb
 415              		.thumb_func
 417              	lv_obj_set_content_width:
 418              	.LVL30:
 419              	.LFB166:
 245:Middlewares/LVGL/GUI/lvgl/src/core/lv_obj_pos.c **** 
 246:Middlewares/LVGL/GUI/lvgl/src/core/lv_obj_pos.c **** void lv_obj_set_content_width(lv_obj_t * obj, lv_coord_t w)
 247:Middlewares/LVGL/GUI/lvgl/src/core/lv_obj_pos.c **** {
 420              		.loc 1 247 1 is_stmt 1 view -0
 421              		.cfi_startproc
 422              		@ args = 0, pretend = 0, frame = 0
 423              		@ frame_needed = 0, uses_anonymous_args = 0
 424              		.loc 1 247 1 is_stmt 0 view .LVU91
ARM GAS  C:\Users\ADMINI~1\AppData\Local\Temp\ccVA75Tx.s 			page 13


 425 0000 F8B5     		push	{r3, r4, r5, r6, r7, lr}
 426              	.LCFI18:
 427              		.cfi_def_cfa_offset 24
 428              		.cfi_offset 3, -24
 429              		.cfi_offset 4, -20
 430              		.cfi_offset 5, -16
 431              		.cfi_offset 6, -12
 432              		.cfi_offset 7, -8
 433              		.cfi_offset 14, -4
 434 0002 0546     		mov	r5, r0
 435 0004 0C46     		mov	r4, r1
 248:Middlewares/LVGL/GUI/lvgl/src/core/lv_obj_pos.c ****     lv_coord_t pleft = lv_obj_get_style_pad_left(obj, LV_PART_MAIN);
 436              		.loc 1 248 5 is_stmt 1 view .LVU92
 437              	.LVL31:
 438              	.LBB190:
 439              	.LBI190:
 440              		.file 2 "Middlewares/LVGL/GUI/lvgl/src/core/lv_obj_style_gen.h"
   1:Middlewares/LVGL/GUI/lvgl/src/core/lv_obj_style_gen.h **** static inline lv_coord_t lv_obj_get_style_width(const struct _lv_obj_t * obj, uint32_t part)
   2:Middlewares/LVGL/GUI/lvgl/src/core/lv_obj_style_gen.h **** {
   3:Middlewares/LVGL/GUI/lvgl/src/core/lv_obj_style_gen.h ****     lv_style_value_t v = lv_obj_get_style_prop(obj, part, LV_STYLE_WIDTH);
   4:Middlewares/LVGL/GUI/lvgl/src/core/lv_obj_style_gen.h ****     return (lv_coord_t)v.num;
   5:Middlewares/LVGL/GUI/lvgl/src/core/lv_obj_style_gen.h **** }
   6:Middlewares/LVGL/GUI/lvgl/src/core/lv_obj_style_gen.h **** 
   7:Middlewares/LVGL/GUI/lvgl/src/core/lv_obj_style_gen.h **** static inline lv_coord_t lv_obj_get_style_min_width(const struct _lv_obj_t * obj, uint32_t part)
   8:Middlewares/LVGL/GUI/lvgl/src/core/lv_obj_style_gen.h **** {
   9:Middlewares/LVGL/GUI/lvgl/src/core/lv_obj_style_gen.h ****     lv_style_value_t v = lv_obj_get_style_prop(obj, part, LV_STYLE_MIN_WIDTH);
  10:Middlewares/LVGL/GUI/lvgl/src/core/lv_obj_style_gen.h ****     return (lv_coord_t)v.num;
  11:Middlewares/LVGL/GUI/lvgl/src/core/lv_obj_style_gen.h **** }
  12:Middlewares/LVGL/GUI/lvgl/src/core/lv_obj_style_gen.h **** 
  13:Middlewares/LVGL/GUI/lvgl/src/core/lv_obj_style_gen.h **** static inline lv_coord_t lv_obj_get_style_max_width(const struct _lv_obj_t * obj, uint32_t part)
  14:Middlewares/LVGL/GUI/lvgl/src/core/lv_obj_style_gen.h **** {
  15:Middlewares/LVGL/GUI/lvgl/src/core/lv_obj_style_gen.h ****     lv_style_value_t v = lv_obj_get_style_prop(obj, part, LV_STYLE_MAX_WIDTH);
  16:Middlewares/LVGL/GUI/lvgl/src/core/lv_obj_style_gen.h ****     return (lv_coord_t)v.num;
  17:Middlewares/LVGL/GUI/lvgl/src/core/lv_obj_style_gen.h **** }
  18:Middlewares/LVGL/GUI/lvgl/src/core/lv_obj_style_gen.h **** 
  19:Middlewares/LVGL/GUI/lvgl/src/core/lv_obj_style_gen.h **** static inline lv_coord_t lv_obj_get_style_height(const struct _lv_obj_t * obj, uint32_t part)
  20:Middlewares/LVGL/GUI/lvgl/src/core/lv_obj_style_gen.h **** {
  21:Middlewares/LVGL/GUI/lvgl/src/core/lv_obj_style_gen.h ****     lv_style_value_t v = lv_obj_get_style_prop(obj, part, LV_STYLE_HEIGHT);
  22:Middlewares/LVGL/GUI/lvgl/src/core/lv_obj_style_gen.h ****     return (lv_coord_t)v.num;
  23:Middlewares/LVGL/GUI/lvgl/src/core/lv_obj_style_gen.h **** }
  24:Middlewares/LVGL/GUI/lvgl/src/core/lv_obj_style_gen.h **** 
  25:Middlewares/LVGL/GUI/lvgl/src/core/lv_obj_style_gen.h **** static inline lv_coord_t lv_obj_get_style_min_height(const struct _lv_obj_t * obj, uint32_t part)
  26:Middlewares/LVGL/GUI/lvgl/src/core/lv_obj_style_gen.h **** {
  27:Middlewares/LVGL/GUI/lvgl/src/core/lv_obj_style_gen.h ****     lv_style_value_t v = lv_obj_get_style_prop(obj, part, LV_STYLE_MIN_HEIGHT);
  28:Middlewares/LVGL/GUI/lvgl/src/core/lv_obj_style_gen.h ****     return (lv_coord_t)v.num;
  29:Middlewares/LVGL/GUI/lvgl/src/core/lv_obj_style_gen.h **** }
  30:Middlewares/LVGL/GUI/lvgl/src/core/lv_obj_style_gen.h **** 
  31:Middlewares/LVGL/GUI/lvgl/src/core/lv_obj_style_gen.h **** static inline lv_coord_t lv_obj_get_style_max_height(const struct _lv_obj_t * obj, uint32_t part)
  32:Middlewares/LVGL/GUI/lvgl/src/core/lv_obj_style_gen.h **** {
  33:Middlewares/LVGL/GUI/lvgl/src/core/lv_obj_style_gen.h ****     lv_style_value_t v = lv_obj_get_style_prop(obj, part, LV_STYLE_MAX_HEIGHT);
  34:Middlewares/LVGL/GUI/lvgl/src/core/lv_obj_style_gen.h ****     return (lv_coord_t)v.num;
  35:Middlewares/LVGL/GUI/lvgl/src/core/lv_obj_style_gen.h **** }
  36:Middlewares/LVGL/GUI/lvgl/src/core/lv_obj_style_gen.h **** 
  37:Middlewares/LVGL/GUI/lvgl/src/core/lv_obj_style_gen.h **** static inline lv_coord_t lv_obj_get_style_x(const struct _lv_obj_t * obj, uint32_t part)
  38:Middlewares/LVGL/GUI/lvgl/src/core/lv_obj_style_gen.h **** {
  39:Middlewares/LVGL/GUI/lvgl/src/core/lv_obj_style_gen.h ****     lv_style_value_t v = lv_obj_get_style_prop(obj, part, LV_STYLE_X);
  40:Middlewares/LVGL/GUI/lvgl/src/core/lv_obj_style_gen.h ****     return (lv_coord_t)v.num;
ARM GAS  C:\Users\ADMINI~1\AppData\Local\Temp\ccVA75Tx.s 			page 14


  41:Middlewares/LVGL/GUI/lvgl/src/core/lv_obj_style_gen.h **** }
  42:Middlewares/LVGL/GUI/lvgl/src/core/lv_obj_style_gen.h **** 
  43:Middlewares/LVGL/GUI/lvgl/src/core/lv_obj_style_gen.h **** static inline lv_coord_t lv_obj_get_style_y(const struct _lv_obj_t * obj, uint32_t part)
  44:Middlewares/LVGL/GUI/lvgl/src/core/lv_obj_style_gen.h **** {
  45:Middlewares/LVGL/GUI/lvgl/src/core/lv_obj_style_gen.h ****     lv_style_value_t v = lv_obj_get_style_prop(obj, part, LV_STYLE_Y);
  46:Middlewares/LVGL/GUI/lvgl/src/core/lv_obj_style_gen.h ****     return (lv_coord_t)v.num;
  47:Middlewares/LVGL/GUI/lvgl/src/core/lv_obj_style_gen.h **** }
  48:Middlewares/LVGL/GUI/lvgl/src/core/lv_obj_style_gen.h **** 
  49:Middlewares/LVGL/GUI/lvgl/src/core/lv_obj_style_gen.h **** static inline lv_align_t lv_obj_get_style_align(const struct _lv_obj_t * obj, uint32_t part)
  50:Middlewares/LVGL/GUI/lvgl/src/core/lv_obj_style_gen.h **** {
  51:Middlewares/LVGL/GUI/lvgl/src/core/lv_obj_style_gen.h ****     lv_style_value_t v = lv_obj_get_style_prop(obj, part, LV_STYLE_ALIGN);
  52:Middlewares/LVGL/GUI/lvgl/src/core/lv_obj_style_gen.h ****     return (lv_align_t)v.num;
  53:Middlewares/LVGL/GUI/lvgl/src/core/lv_obj_style_gen.h **** }
  54:Middlewares/LVGL/GUI/lvgl/src/core/lv_obj_style_gen.h **** 
  55:Middlewares/LVGL/GUI/lvgl/src/core/lv_obj_style_gen.h **** static inline lv_coord_t lv_obj_get_style_transform_width(const struct _lv_obj_t * obj, uint32_t pa
  56:Middlewares/LVGL/GUI/lvgl/src/core/lv_obj_style_gen.h **** {
  57:Middlewares/LVGL/GUI/lvgl/src/core/lv_obj_style_gen.h ****     lv_style_value_t v = lv_obj_get_style_prop(obj, part, LV_STYLE_TRANSFORM_WIDTH);
  58:Middlewares/LVGL/GUI/lvgl/src/core/lv_obj_style_gen.h ****     return (lv_coord_t)v.num;
  59:Middlewares/LVGL/GUI/lvgl/src/core/lv_obj_style_gen.h **** }
  60:Middlewares/LVGL/GUI/lvgl/src/core/lv_obj_style_gen.h **** 
  61:Middlewares/LVGL/GUI/lvgl/src/core/lv_obj_style_gen.h **** static inline lv_coord_t lv_obj_get_style_transform_height(const struct _lv_obj_t * obj, uint32_t p
  62:Middlewares/LVGL/GUI/lvgl/src/core/lv_obj_style_gen.h **** {
  63:Middlewares/LVGL/GUI/lvgl/src/core/lv_obj_style_gen.h ****     lv_style_value_t v = lv_obj_get_style_prop(obj, part, LV_STYLE_TRANSFORM_HEIGHT);
  64:Middlewares/LVGL/GUI/lvgl/src/core/lv_obj_style_gen.h ****     return (lv_coord_t)v.num;
  65:Middlewares/LVGL/GUI/lvgl/src/core/lv_obj_style_gen.h **** }
  66:Middlewares/LVGL/GUI/lvgl/src/core/lv_obj_style_gen.h **** 
  67:Middlewares/LVGL/GUI/lvgl/src/core/lv_obj_style_gen.h **** static inline lv_coord_t lv_obj_get_style_translate_x(const struct _lv_obj_t * obj, uint32_t part)
  68:Middlewares/LVGL/GUI/lvgl/src/core/lv_obj_style_gen.h **** {
  69:Middlewares/LVGL/GUI/lvgl/src/core/lv_obj_style_gen.h ****     lv_style_value_t v = lv_obj_get_style_prop(obj, part, LV_STYLE_TRANSLATE_X);
  70:Middlewares/LVGL/GUI/lvgl/src/core/lv_obj_style_gen.h ****     return (lv_coord_t)v.num;
  71:Middlewares/LVGL/GUI/lvgl/src/core/lv_obj_style_gen.h **** }
  72:Middlewares/LVGL/GUI/lvgl/src/core/lv_obj_style_gen.h **** 
  73:Middlewares/LVGL/GUI/lvgl/src/core/lv_obj_style_gen.h **** static inline lv_coord_t lv_obj_get_style_translate_y(const struct _lv_obj_t * obj, uint32_t part)
  74:Middlewares/LVGL/GUI/lvgl/src/core/lv_obj_style_gen.h **** {
  75:Middlewares/LVGL/GUI/lvgl/src/core/lv_obj_style_gen.h ****     lv_style_value_t v = lv_obj_get_style_prop(obj, part, LV_STYLE_TRANSLATE_Y);
  76:Middlewares/LVGL/GUI/lvgl/src/core/lv_obj_style_gen.h ****     return (lv_coord_t)v.num;
  77:Middlewares/LVGL/GUI/lvgl/src/core/lv_obj_style_gen.h **** }
  78:Middlewares/LVGL/GUI/lvgl/src/core/lv_obj_style_gen.h **** 
  79:Middlewares/LVGL/GUI/lvgl/src/core/lv_obj_style_gen.h **** static inline lv_coord_t lv_obj_get_style_transform_zoom(const struct _lv_obj_t * obj, uint32_t par
  80:Middlewares/LVGL/GUI/lvgl/src/core/lv_obj_style_gen.h **** {
  81:Middlewares/LVGL/GUI/lvgl/src/core/lv_obj_style_gen.h ****     lv_style_value_t v = lv_obj_get_style_prop(obj, part, LV_STYLE_TRANSFORM_ZOOM);
  82:Middlewares/LVGL/GUI/lvgl/src/core/lv_obj_style_gen.h ****     return (lv_coord_t)v.num;
  83:Middlewares/LVGL/GUI/lvgl/src/core/lv_obj_style_gen.h **** }
  84:Middlewares/LVGL/GUI/lvgl/src/core/lv_obj_style_gen.h **** 
  85:Middlewares/LVGL/GUI/lvgl/src/core/lv_obj_style_gen.h **** static inline lv_coord_t lv_obj_get_style_transform_angle(const struct _lv_obj_t * obj, uint32_t pa
  86:Middlewares/LVGL/GUI/lvgl/src/core/lv_obj_style_gen.h **** {
  87:Middlewares/LVGL/GUI/lvgl/src/core/lv_obj_style_gen.h ****     lv_style_value_t v = lv_obj_get_style_prop(obj, part, LV_STYLE_TRANSFORM_ANGLE);
  88:Middlewares/LVGL/GUI/lvgl/src/core/lv_obj_style_gen.h ****     return (lv_coord_t)v.num;
  89:Middlewares/LVGL/GUI/lvgl/src/core/lv_obj_style_gen.h **** }
  90:Middlewares/LVGL/GUI/lvgl/src/core/lv_obj_style_gen.h **** 
  91:Middlewares/LVGL/GUI/lvgl/src/core/lv_obj_style_gen.h **** static inline lv_coord_t lv_obj_get_style_pad_top(const struct _lv_obj_t * obj, uint32_t part)
  92:Middlewares/LVGL/GUI/lvgl/src/core/lv_obj_style_gen.h **** {
  93:Middlewares/LVGL/GUI/lvgl/src/core/lv_obj_style_gen.h ****     lv_style_value_t v = lv_obj_get_style_prop(obj, part, LV_STYLE_PAD_TOP);
  94:Middlewares/LVGL/GUI/lvgl/src/core/lv_obj_style_gen.h ****     return (lv_coord_t)v.num;
  95:Middlewares/LVGL/GUI/lvgl/src/core/lv_obj_style_gen.h **** }
  96:Middlewares/LVGL/GUI/lvgl/src/core/lv_obj_style_gen.h **** 
  97:Middlewares/LVGL/GUI/lvgl/src/core/lv_obj_style_gen.h **** static inline lv_coord_t lv_obj_get_style_pad_bottom(const struct _lv_obj_t * obj, uint32_t part)
ARM GAS  C:\Users\ADMINI~1\AppData\Local\Temp\ccVA75Tx.s 			page 15


  98:Middlewares/LVGL/GUI/lvgl/src/core/lv_obj_style_gen.h **** {
  99:Middlewares/LVGL/GUI/lvgl/src/core/lv_obj_style_gen.h ****     lv_style_value_t v = lv_obj_get_style_prop(obj, part, LV_STYLE_PAD_BOTTOM);
 100:Middlewares/LVGL/GUI/lvgl/src/core/lv_obj_style_gen.h ****     return (lv_coord_t)v.num;
 101:Middlewares/LVGL/GUI/lvgl/src/core/lv_obj_style_gen.h **** }
 102:Middlewares/LVGL/GUI/lvgl/src/core/lv_obj_style_gen.h **** 
 103:Middlewares/LVGL/GUI/lvgl/src/core/lv_obj_style_gen.h **** static inline lv_coord_t lv_obj_get_style_pad_left(const struct _lv_obj_t * obj, uint32_t part)
 441              		.loc 2 103 26 view .LVU93
 442              	.LBB191:
 104:Middlewares/LVGL/GUI/lvgl/src/core/lv_obj_style_gen.h **** {
 105:Middlewares/LVGL/GUI/lvgl/src/core/lv_obj_style_gen.h ****     lv_style_value_t v = lv_obj_get_style_prop(obj, part, LV_STYLE_PAD_LEFT);
 443              		.loc 2 105 5 view .LVU94
 444              		.loc 2 105 26 is_stmt 0 view .LVU95
 445 0006 41F61202 		movw	r2, #6162
 446 000a 0021     		movs	r1, #0
 447              	.LVL32:
 448              		.loc 2 105 26 view .LVU96
 449 000c FFF7FEFF 		bl	lv_obj_get_style_prop
 450              	.LVL33:
 451              		.loc 2 105 26 view .LVU97
 452 0010 0746     		mov	r7, r0
 453              	.LVL34:
 106:Middlewares/LVGL/GUI/lvgl/src/core/lv_obj_style_gen.h ****     return (lv_coord_t)v.num;
 454              		.loc 2 106 5 is_stmt 1 view .LVU98
 455              		.loc 2 106 5 is_stmt 0 view .LVU99
 456              	.LBE191:
 457              	.LBE190:
 249:Middlewares/LVGL/GUI/lvgl/src/core/lv_obj_pos.c ****     lv_coord_t pright = lv_obj_get_style_pad_right(obj, LV_PART_MAIN);
 458              		.loc 1 249 5 is_stmt 1 view .LVU100
 459              	.LBB192:
 460              	.LBI192:
 107:Middlewares/LVGL/GUI/lvgl/src/core/lv_obj_style_gen.h **** }
 108:Middlewares/LVGL/GUI/lvgl/src/core/lv_obj_style_gen.h **** 
 109:Middlewares/LVGL/GUI/lvgl/src/core/lv_obj_style_gen.h **** static inline lv_coord_t lv_obj_get_style_pad_right(const struct _lv_obj_t * obj, uint32_t part)
 461              		.loc 2 109 26 view .LVU101
 462              	.LBB193:
 110:Middlewares/LVGL/GUI/lvgl/src/core/lv_obj_style_gen.h **** {
 111:Middlewares/LVGL/GUI/lvgl/src/core/lv_obj_style_gen.h ****     lv_style_value_t v = lv_obj_get_style_prop(obj, part, LV_STYLE_PAD_RIGHT);
 463              		.loc 2 111 5 view .LVU102
 464              		.loc 2 111 26 is_stmt 0 view .LVU103
 465 0012 41F61302 		movw	r2, #6163
 466 0016 0021     		movs	r1, #0
 467 0018 2846     		mov	r0, r5
 468              	.LVL35:
 469              		.loc 2 111 26 view .LVU104
 470 001a FFF7FEFF 		bl	lv_obj_get_style_prop
 471              	.LVL36:
 472 001e 0646     		mov	r6, r0
 473              	.LVL37:
 112:Middlewares/LVGL/GUI/lvgl/src/core/lv_obj_style_gen.h ****     return (lv_coord_t)v.num;
 474              		.loc 2 112 5 is_stmt 1 view .LVU105
 475              		.loc 2 112 5 is_stmt 0 view .LVU106
 476              	.LBE193:
 477              	.LBE192:
 250:Middlewares/LVGL/GUI/lvgl/src/core/lv_obj_pos.c ****     lv_coord_t border_width = lv_obj_get_style_border_width(obj, LV_PART_MAIN);
 478              		.loc 1 250 5 is_stmt 1 view .LVU107
 479              	.LBB194:
 480              	.LBI194:
ARM GAS  C:\Users\ADMINI~1\AppData\Local\Temp\ccVA75Tx.s 			page 16


 113:Middlewares/LVGL/GUI/lvgl/src/core/lv_obj_style_gen.h **** }
 114:Middlewares/LVGL/GUI/lvgl/src/core/lv_obj_style_gen.h **** 
 115:Middlewares/LVGL/GUI/lvgl/src/core/lv_obj_style_gen.h **** static inline lv_coord_t lv_obj_get_style_pad_row(const struct _lv_obj_t * obj, uint32_t part)
 116:Middlewares/LVGL/GUI/lvgl/src/core/lv_obj_style_gen.h **** {
 117:Middlewares/LVGL/GUI/lvgl/src/core/lv_obj_style_gen.h ****     lv_style_value_t v = lv_obj_get_style_prop(obj, part, LV_STYLE_PAD_ROW);
 118:Middlewares/LVGL/GUI/lvgl/src/core/lv_obj_style_gen.h ****     return (lv_coord_t)v.num;
 119:Middlewares/LVGL/GUI/lvgl/src/core/lv_obj_style_gen.h **** }
 120:Middlewares/LVGL/GUI/lvgl/src/core/lv_obj_style_gen.h **** 
 121:Middlewares/LVGL/GUI/lvgl/src/core/lv_obj_style_gen.h **** static inline lv_coord_t lv_obj_get_style_pad_column(const struct _lv_obj_t * obj, uint32_t part)
 122:Middlewares/LVGL/GUI/lvgl/src/core/lv_obj_style_gen.h **** {
 123:Middlewares/LVGL/GUI/lvgl/src/core/lv_obj_style_gen.h ****     lv_style_value_t v = lv_obj_get_style_prop(obj, part, LV_STYLE_PAD_COLUMN);
 124:Middlewares/LVGL/GUI/lvgl/src/core/lv_obj_style_gen.h ****     return (lv_coord_t)v.num;
 125:Middlewares/LVGL/GUI/lvgl/src/core/lv_obj_style_gen.h **** }
 126:Middlewares/LVGL/GUI/lvgl/src/core/lv_obj_style_gen.h **** 
 127:Middlewares/LVGL/GUI/lvgl/src/core/lv_obj_style_gen.h **** static inline lv_color_t lv_obj_get_style_bg_color(const struct _lv_obj_t * obj, uint32_t part)
 128:Middlewares/LVGL/GUI/lvgl/src/core/lv_obj_style_gen.h **** {
 129:Middlewares/LVGL/GUI/lvgl/src/core/lv_obj_style_gen.h ****     lv_style_value_t v = lv_obj_get_style_prop(obj, part, LV_STYLE_BG_COLOR);
 130:Middlewares/LVGL/GUI/lvgl/src/core/lv_obj_style_gen.h ****     return v.color;
 131:Middlewares/LVGL/GUI/lvgl/src/core/lv_obj_style_gen.h **** }
 132:Middlewares/LVGL/GUI/lvgl/src/core/lv_obj_style_gen.h **** 
 133:Middlewares/LVGL/GUI/lvgl/src/core/lv_obj_style_gen.h **** static inline lv_color_t lv_obj_get_style_bg_color_filtered(const struct _lv_obj_t * obj, uint32_t 
 134:Middlewares/LVGL/GUI/lvgl/src/core/lv_obj_style_gen.h **** {
 135:Middlewares/LVGL/GUI/lvgl/src/core/lv_obj_style_gen.h ****     lv_style_value_t v = lv_obj_get_style_prop(obj, part, LV_STYLE_BG_COLOR_FILTERED);
 136:Middlewares/LVGL/GUI/lvgl/src/core/lv_obj_style_gen.h ****     return v.color;
 137:Middlewares/LVGL/GUI/lvgl/src/core/lv_obj_style_gen.h **** }
 138:Middlewares/LVGL/GUI/lvgl/src/core/lv_obj_style_gen.h **** 
 139:Middlewares/LVGL/GUI/lvgl/src/core/lv_obj_style_gen.h **** static inline lv_opa_t lv_obj_get_style_bg_opa(const struct _lv_obj_t * obj, uint32_t part)
 140:Middlewares/LVGL/GUI/lvgl/src/core/lv_obj_style_gen.h **** {
 141:Middlewares/LVGL/GUI/lvgl/src/core/lv_obj_style_gen.h ****     lv_style_value_t v = lv_obj_get_style_prop(obj, part, LV_STYLE_BG_OPA);
 142:Middlewares/LVGL/GUI/lvgl/src/core/lv_obj_style_gen.h ****     return (lv_opa_t)v.num;
 143:Middlewares/LVGL/GUI/lvgl/src/core/lv_obj_style_gen.h **** }
 144:Middlewares/LVGL/GUI/lvgl/src/core/lv_obj_style_gen.h **** 
 145:Middlewares/LVGL/GUI/lvgl/src/core/lv_obj_style_gen.h **** static inline lv_color_t lv_obj_get_style_bg_grad_color(const struct _lv_obj_t * obj, uint32_t part
 146:Middlewares/LVGL/GUI/lvgl/src/core/lv_obj_style_gen.h **** {
 147:Middlewares/LVGL/GUI/lvgl/src/core/lv_obj_style_gen.h ****     lv_style_value_t v = lv_obj_get_style_prop(obj, part, LV_STYLE_BG_GRAD_COLOR);
 148:Middlewares/LVGL/GUI/lvgl/src/core/lv_obj_style_gen.h ****     return v.color;
 149:Middlewares/LVGL/GUI/lvgl/src/core/lv_obj_style_gen.h **** }
 150:Middlewares/LVGL/GUI/lvgl/src/core/lv_obj_style_gen.h **** 
 151:Middlewares/LVGL/GUI/lvgl/src/core/lv_obj_style_gen.h **** static inline lv_color_t lv_obj_get_style_bg_grad_color_filtered(const struct _lv_obj_t * obj, uint
 152:Middlewares/LVGL/GUI/lvgl/src/core/lv_obj_style_gen.h **** {
 153:Middlewares/LVGL/GUI/lvgl/src/core/lv_obj_style_gen.h ****     lv_style_value_t v = lv_obj_get_style_prop(obj, part, LV_STYLE_BG_GRAD_COLOR_FILTERED);
 154:Middlewares/LVGL/GUI/lvgl/src/core/lv_obj_style_gen.h ****     return v.color;
 155:Middlewares/LVGL/GUI/lvgl/src/core/lv_obj_style_gen.h **** }
 156:Middlewares/LVGL/GUI/lvgl/src/core/lv_obj_style_gen.h **** 
 157:Middlewares/LVGL/GUI/lvgl/src/core/lv_obj_style_gen.h **** static inline lv_grad_dir_t lv_obj_get_style_bg_grad_dir(const struct _lv_obj_t * obj, uint32_t par
 158:Middlewares/LVGL/GUI/lvgl/src/core/lv_obj_style_gen.h **** {
 159:Middlewares/LVGL/GUI/lvgl/src/core/lv_obj_style_gen.h ****     lv_style_value_t v = lv_obj_get_style_prop(obj, part, LV_STYLE_BG_GRAD_DIR);
 160:Middlewares/LVGL/GUI/lvgl/src/core/lv_obj_style_gen.h ****     return (lv_grad_dir_t)v.num;
 161:Middlewares/LVGL/GUI/lvgl/src/core/lv_obj_style_gen.h **** }
 162:Middlewares/LVGL/GUI/lvgl/src/core/lv_obj_style_gen.h **** 
 163:Middlewares/LVGL/GUI/lvgl/src/core/lv_obj_style_gen.h **** static inline lv_coord_t lv_obj_get_style_bg_main_stop(const struct _lv_obj_t * obj, uint32_t part)
 164:Middlewares/LVGL/GUI/lvgl/src/core/lv_obj_style_gen.h **** {
 165:Middlewares/LVGL/GUI/lvgl/src/core/lv_obj_style_gen.h ****     lv_style_value_t v = lv_obj_get_style_prop(obj, part, LV_STYLE_BG_MAIN_STOP);
 166:Middlewares/LVGL/GUI/lvgl/src/core/lv_obj_style_gen.h ****     return (lv_coord_t)v.num;
 167:Middlewares/LVGL/GUI/lvgl/src/core/lv_obj_style_gen.h **** }
 168:Middlewares/LVGL/GUI/lvgl/src/core/lv_obj_style_gen.h **** 
 169:Middlewares/LVGL/GUI/lvgl/src/core/lv_obj_style_gen.h **** static inline lv_coord_t lv_obj_get_style_bg_grad_stop(const struct _lv_obj_t * obj, uint32_t part)
ARM GAS  C:\Users\ADMINI~1\AppData\Local\Temp\ccVA75Tx.s 			page 17


 170:Middlewares/LVGL/GUI/lvgl/src/core/lv_obj_style_gen.h **** {
 171:Middlewares/LVGL/GUI/lvgl/src/core/lv_obj_style_gen.h ****     lv_style_value_t v = lv_obj_get_style_prop(obj, part, LV_STYLE_BG_GRAD_STOP);
 172:Middlewares/LVGL/GUI/lvgl/src/core/lv_obj_style_gen.h ****     return (lv_coord_t)v.num;
 173:Middlewares/LVGL/GUI/lvgl/src/core/lv_obj_style_gen.h **** }
 174:Middlewares/LVGL/GUI/lvgl/src/core/lv_obj_style_gen.h **** 
 175:Middlewares/LVGL/GUI/lvgl/src/core/lv_obj_style_gen.h **** static inline const lv_grad_dsc_t * lv_obj_get_style_bg_grad(const struct _lv_obj_t * obj, uint32_t
 176:Middlewares/LVGL/GUI/lvgl/src/core/lv_obj_style_gen.h **** {
 177:Middlewares/LVGL/GUI/lvgl/src/core/lv_obj_style_gen.h ****     lv_style_value_t v = lv_obj_get_style_prop(obj, part, LV_STYLE_BG_GRAD);
 178:Middlewares/LVGL/GUI/lvgl/src/core/lv_obj_style_gen.h ****     return (const lv_grad_dsc_t *)v.ptr;
 179:Middlewares/LVGL/GUI/lvgl/src/core/lv_obj_style_gen.h **** }
 180:Middlewares/LVGL/GUI/lvgl/src/core/lv_obj_style_gen.h **** 
 181:Middlewares/LVGL/GUI/lvgl/src/core/lv_obj_style_gen.h **** static inline lv_dither_mode_t lv_obj_get_style_bg_dither_mode(const struct _lv_obj_t * obj, uint32
 182:Middlewares/LVGL/GUI/lvgl/src/core/lv_obj_style_gen.h **** {
 183:Middlewares/LVGL/GUI/lvgl/src/core/lv_obj_style_gen.h ****     lv_style_value_t v = lv_obj_get_style_prop(obj, part, LV_STYLE_BG_DITHER_MODE);
 184:Middlewares/LVGL/GUI/lvgl/src/core/lv_obj_style_gen.h ****     return (lv_dither_mode_t)v.num;
 185:Middlewares/LVGL/GUI/lvgl/src/core/lv_obj_style_gen.h **** }
 186:Middlewares/LVGL/GUI/lvgl/src/core/lv_obj_style_gen.h **** 
 187:Middlewares/LVGL/GUI/lvgl/src/core/lv_obj_style_gen.h **** static inline const void * lv_obj_get_style_bg_img_src(const struct _lv_obj_t * obj, uint32_t part)
 188:Middlewares/LVGL/GUI/lvgl/src/core/lv_obj_style_gen.h **** {
 189:Middlewares/LVGL/GUI/lvgl/src/core/lv_obj_style_gen.h ****     lv_style_value_t v = lv_obj_get_style_prop(obj, part, LV_STYLE_BG_IMG_SRC);
 190:Middlewares/LVGL/GUI/lvgl/src/core/lv_obj_style_gen.h ****     return (const void *)v.ptr;
 191:Middlewares/LVGL/GUI/lvgl/src/core/lv_obj_style_gen.h **** }
 192:Middlewares/LVGL/GUI/lvgl/src/core/lv_obj_style_gen.h **** 
 193:Middlewares/LVGL/GUI/lvgl/src/core/lv_obj_style_gen.h **** static inline lv_opa_t lv_obj_get_style_bg_img_opa(const struct _lv_obj_t * obj, uint32_t part)
 194:Middlewares/LVGL/GUI/lvgl/src/core/lv_obj_style_gen.h **** {
 195:Middlewares/LVGL/GUI/lvgl/src/core/lv_obj_style_gen.h ****     lv_style_value_t v = lv_obj_get_style_prop(obj, part, LV_STYLE_BG_IMG_OPA);
 196:Middlewares/LVGL/GUI/lvgl/src/core/lv_obj_style_gen.h ****     return (lv_opa_t)v.num;
 197:Middlewares/LVGL/GUI/lvgl/src/core/lv_obj_style_gen.h **** }
 198:Middlewares/LVGL/GUI/lvgl/src/core/lv_obj_style_gen.h **** 
 199:Middlewares/LVGL/GUI/lvgl/src/core/lv_obj_style_gen.h **** static inline lv_color_t lv_obj_get_style_bg_img_recolor(const struct _lv_obj_t * obj, uint32_t par
 200:Middlewares/LVGL/GUI/lvgl/src/core/lv_obj_style_gen.h **** {
 201:Middlewares/LVGL/GUI/lvgl/src/core/lv_obj_style_gen.h ****     lv_style_value_t v = lv_obj_get_style_prop(obj, part, LV_STYLE_BG_IMG_RECOLOR);
 202:Middlewares/LVGL/GUI/lvgl/src/core/lv_obj_style_gen.h ****     return v.color;
 203:Middlewares/LVGL/GUI/lvgl/src/core/lv_obj_style_gen.h **** }
 204:Middlewares/LVGL/GUI/lvgl/src/core/lv_obj_style_gen.h **** 
 205:Middlewares/LVGL/GUI/lvgl/src/core/lv_obj_style_gen.h **** static inline lv_color_t lv_obj_get_style_bg_img_recolor_filtered(const struct _lv_obj_t * obj, uin
 206:Middlewares/LVGL/GUI/lvgl/src/core/lv_obj_style_gen.h **** {
 207:Middlewares/LVGL/GUI/lvgl/src/core/lv_obj_style_gen.h ****     lv_style_value_t v = lv_obj_get_style_prop(obj, part, LV_STYLE_BG_IMG_RECOLOR_FILTERED);
 208:Middlewares/LVGL/GUI/lvgl/src/core/lv_obj_style_gen.h ****     return v.color;
 209:Middlewares/LVGL/GUI/lvgl/src/core/lv_obj_style_gen.h **** }
 210:Middlewares/LVGL/GUI/lvgl/src/core/lv_obj_style_gen.h **** 
 211:Middlewares/LVGL/GUI/lvgl/src/core/lv_obj_style_gen.h **** static inline lv_opa_t lv_obj_get_style_bg_img_recolor_opa(const struct _lv_obj_t * obj, uint32_t p
 212:Middlewares/LVGL/GUI/lvgl/src/core/lv_obj_style_gen.h **** {
 213:Middlewares/LVGL/GUI/lvgl/src/core/lv_obj_style_gen.h ****     lv_style_value_t v = lv_obj_get_style_prop(obj, part, LV_STYLE_BG_IMG_RECOLOR_OPA);
 214:Middlewares/LVGL/GUI/lvgl/src/core/lv_obj_style_gen.h ****     return (lv_opa_t)v.num;
 215:Middlewares/LVGL/GUI/lvgl/src/core/lv_obj_style_gen.h **** }
 216:Middlewares/LVGL/GUI/lvgl/src/core/lv_obj_style_gen.h **** 
 217:Middlewares/LVGL/GUI/lvgl/src/core/lv_obj_style_gen.h **** static inline bool lv_obj_get_style_bg_img_tiled(const struct _lv_obj_t * obj, uint32_t part)
 218:Middlewares/LVGL/GUI/lvgl/src/core/lv_obj_style_gen.h **** {
 219:Middlewares/LVGL/GUI/lvgl/src/core/lv_obj_style_gen.h ****     lv_style_value_t v = lv_obj_get_style_prop(obj, part, LV_STYLE_BG_IMG_TILED);
 220:Middlewares/LVGL/GUI/lvgl/src/core/lv_obj_style_gen.h ****     return (bool)v.num;
 221:Middlewares/LVGL/GUI/lvgl/src/core/lv_obj_style_gen.h **** }
 222:Middlewares/LVGL/GUI/lvgl/src/core/lv_obj_style_gen.h **** 
 223:Middlewares/LVGL/GUI/lvgl/src/core/lv_obj_style_gen.h **** static inline lv_color_t lv_obj_get_style_border_color(const struct _lv_obj_t * obj, uint32_t part)
 224:Middlewares/LVGL/GUI/lvgl/src/core/lv_obj_style_gen.h **** {
 225:Middlewares/LVGL/GUI/lvgl/src/core/lv_obj_style_gen.h ****     lv_style_value_t v = lv_obj_get_style_prop(obj, part, LV_STYLE_BORDER_COLOR);
 226:Middlewares/LVGL/GUI/lvgl/src/core/lv_obj_style_gen.h ****     return v.color;
ARM GAS  C:\Users\ADMINI~1\AppData\Local\Temp\ccVA75Tx.s 			page 18


 227:Middlewares/LVGL/GUI/lvgl/src/core/lv_obj_style_gen.h **** }
 228:Middlewares/LVGL/GUI/lvgl/src/core/lv_obj_style_gen.h **** 
 229:Middlewares/LVGL/GUI/lvgl/src/core/lv_obj_style_gen.h **** static inline lv_color_t lv_obj_get_style_border_color_filtered(const struct _lv_obj_t * obj, uint3
 230:Middlewares/LVGL/GUI/lvgl/src/core/lv_obj_style_gen.h **** {
 231:Middlewares/LVGL/GUI/lvgl/src/core/lv_obj_style_gen.h ****     lv_style_value_t v = lv_obj_get_style_prop(obj, part, LV_STYLE_BORDER_COLOR_FILTERED);
 232:Middlewares/LVGL/GUI/lvgl/src/core/lv_obj_style_gen.h ****     return v.color;
 233:Middlewares/LVGL/GUI/lvgl/src/core/lv_obj_style_gen.h **** }
 234:Middlewares/LVGL/GUI/lvgl/src/core/lv_obj_style_gen.h **** 
 235:Middlewares/LVGL/GUI/lvgl/src/core/lv_obj_style_gen.h **** static inline lv_opa_t lv_obj_get_style_border_opa(const struct _lv_obj_t * obj, uint32_t part)
 236:Middlewares/LVGL/GUI/lvgl/src/core/lv_obj_style_gen.h **** {
 237:Middlewares/LVGL/GUI/lvgl/src/core/lv_obj_style_gen.h ****     lv_style_value_t v = lv_obj_get_style_prop(obj, part, LV_STYLE_BORDER_OPA);
 238:Middlewares/LVGL/GUI/lvgl/src/core/lv_obj_style_gen.h ****     return (lv_opa_t)v.num;
 239:Middlewares/LVGL/GUI/lvgl/src/core/lv_obj_style_gen.h **** }
 240:Middlewares/LVGL/GUI/lvgl/src/core/lv_obj_style_gen.h **** 
 241:Middlewares/LVGL/GUI/lvgl/src/core/lv_obj_style_gen.h **** static inline lv_coord_t lv_obj_get_style_border_width(const struct _lv_obj_t * obj, uint32_t part)
 481              		.loc 2 241 26 view .LVU108
 482              	.LBB195:
 242:Middlewares/LVGL/GUI/lvgl/src/core/lv_obj_style_gen.h **** {
 243:Middlewares/LVGL/GUI/lvgl/src/core/lv_obj_style_gen.h ****     lv_style_value_t v = lv_obj_get_style_prop(obj, part, LV_STYLE_BORDER_WIDTH);
 483              		.loc 2 243 5 view .LVU109
 484              		.loc 2 243 26 is_stmt 0 view .LVU110
 485 0020 41F23202 		movw	r2, #4146
 486 0024 0021     		movs	r1, #0
 487 0026 2846     		mov	r0, r5
 488              	.LVL38:
 489              		.loc 2 243 26 view .LVU111
 490 0028 FFF7FEFF 		bl	lv_obj_get_style_prop
 491              	.LVL39:
 244:Middlewares/LVGL/GUI/lvgl/src/core/lv_obj_style_gen.h ****     return (lv_coord_t)v.num;
 492              		.loc 2 244 5 is_stmt 1 view .LVU112
 493              		.loc 2 244 5 is_stmt 0 view .LVU113
 494              	.LBE195:
 495              	.LBE194:
 251:Middlewares/LVGL/GUI/lvgl/src/core/lv_obj_pos.c **** 
 252:Middlewares/LVGL/GUI/lvgl/src/core/lv_obj_pos.c ****     lv_obj_set_width(obj, w + pleft + pright + 2 * border_width);
 496              		.loc 1 252 5 is_stmt 1 view .LVU114
 497              		.loc 1 252 29 is_stmt 0 view .LVU115
 498 002c 3C44     		add	r4, r4, r7
 499              	.LVL40:
 500              		.loc 1 252 37 view .LVU116
 501 002e 3444     		add	r4, r4, r6
 502              		.loc 1 252 5 view .LVU117
 503 0030 04EB4001 		add	r1, r4, r0, lsl #1
 504 0034 2846     		mov	r0, r5
 505              	.LVL41:
 506              		.loc 1 252 5 view .LVU118
 507 0036 FFF7FEFF 		bl	lv_obj_set_width
 508              	.LVL42:
 253:Middlewares/LVGL/GUI/lvgl/src/core/lv_obj_pos.c **** }
 509              		.loc 1 253 1 view .LVU119
 510 003a F8BD     		pop	{r3, r4, r5, r6, r7, pc}
 511              		.loc 1 253 1 view .LVU120
 512              		.cfi_endproc
 513              	.LFE166:
 515              		.section	.text.lv_obj_set_content_height,"ax",%progbits
 516              		.align	1
 517              		.global	lv_obj_set_content_height
ARM GAS  C:\Users\ADMINI~1\AppData\Local\Temp\ccVA75Tx.s 			page 19


 518              		.syntax unified
 519              		.thumb
 520              		.thumb_func
 522              	lv_obj_set_content_height:
 523              	.LVL43:
 524              	.LFB167:
 254:Middlewares/LVGL/GUI/lvgl/src/core/lv_obj_pos.c **** 
 255:Middlewares/LVGL/GUI/lvgl/src/core/lv_obj_pos.c **** void lv_obj_set_content_height(lv_obj_t * obj, lv_coord_t h)
 256:Middlewares/LVGL/GUI/lvgl/src/core/lv_obj_pos.c **** {
 525              		.loc 1 256 1 is_stmt 1 view -0
 526              		.cfi_startproc
 527              		@ args = 0, pretend = 0, frame = 0
 528              		@ frame_needed = 0, uses_anonymous_args = 0
 529              		.loc 1 256 1 is_stmt 0 view .LVU122
 530 0000 F8B5     		push	{r3, r4, r5, r6, r7, lr}
 531              	.LCFI19:
 532              		.cfi_def_cfa_offset 24
 533              		.cfi_offset 3, -24
 534              		.cfi_offset 4, -20
 535              		.cfi_offset 5, -16
 536              		.cfi_offset 6, -12
 537              		.cfi_offset 7, -8
 538              		.cfi_offset 14, -4
 539 0002 0546     		mov	r5, r0
 540 0004 0C46     		mov	r4, r1
 257:Middlewares/LVGL/GUI/lvgl/src/core/lv_obj_pos.c ****     lv_coord_t ptop = lv_obj_get_style_pad_top(obj, LV_PART_MAIN);
 541              		.loc 1 257 5 is_stmt 1 view .LVU123
 542              	.LVL44:
 543              	.LBB196:
 544              	.LBI196:
  91:Middlewares/LVGL/GUI/lvgl/src/core/lv_obj_style_gen.h **** {
 545              		.loc 2 91 26 view .LVU124
 546              	.LBB197:
  93:Middlewares/LVGL/GUI/lvgl/src/core/lv_obj_style_gen.h ****     return (lv_coord_t)v.num;
 547              		.loc 2 93 5 view .LVU125
  93:Middlewares/LVGL/GUI/lvgl/src/core/lv_obj_style_gen.h ****     return (lv_coord_t)v.num;
 548              		.loc 2 93 26 is_stmt 0 view .LVU126
 549 0006 41F61002 		movw	r2, #6160
 550 000a 0021     		movs	r1, #0
 551              	.LVL45:
  93:Middlewares/LVGL/GUI/lvgl/src/core/lv_obj_style_gen.h ****     return (lv_coord_t)v.num;
 552              		.loc 2 93 26 view .LVU127
 553 000c FFF7FEFF 		bl	lv_obj_get_style_prop
 554              	.LVL46:
  93:Middlewares/LVGL/GUI/lvgl/src/core/lv_obj_style_gen.h ****     return (lv_coord_t)v.num;
 555              		.loc 2 93 26 view .LVU128
 556 0010 0746     		mov	r7, r0
 557              	.LVL47:
  94:Middlewares/LVGL/GUI/lvgl/src/core/lv_obj_style_gen.h **** }
 558              		.loc 2 94 5 is_stmt 1 view .LVU129
  94:Middlewares/LVGL/GUI/lvgl/src/core/lv_obj_style_gen.h **** }
 559              		.loc 2 94 5 is_stmt 0 view .LVU130
 560              	.LBE197:
 561              	.LBE196:
 258:Middlewares/LVGL/GUI/lvgl/src/core/lv_obj_pos.c ****     lv_coord_t pbottom = lv_obj_get_style_pad_bottom(obj, LV_PART_MAIN);
 562              		.loc 1 258 5 is_stmt 1 view .LVU131
 563              	.LBB198:
ARM GAS  C:\Users\ADMINI~1\AppData\Local\Temp\ccVA75Tx.s 			page 20


 564              	.LBI198:
  97:Middlewares/LVGL/GUI/lvgl/src/core/lv_obj_style_gen.h **** {
 565              		.loc 2 97 26 view .LVU132
 566              	.LBB199:
  99:Middlewares/LVGL/GUI/lvgl/src/core/lv_obj_style_gen.h ****     return (lv_coord_t)v.num;
 567              		.loc 2 99 5 view .LVU133
  99:Middlewares/LVGL/GUI/lvgl/src/core/lv_obj_style_gen.h ****     return (lv_coord_t)v.num;
 568              		.loc 2 99 26 is_stmt 0 view .LVU134
 569 0012 41F61102 		movw	r2, #6161
 570 0016 0021     		movs	r1, #0
 571 0018 2846     		mov	r0, r5
 572              	.LVL48:
  99:Middlewares/LVGL/GUI/lvgl/src/core/lv_obj_style_gen.h ****     return (lv_coord_t)v.num;
 573              		.loc 2 99 26 view .LVU135
 574 001a FFF7FEFF 		bl	lv_obj_get_style_prop
 575              	.LVL49:
 576 001e 0646     		mov	r6, r0
 577              	.LVL50:
 100:Middlewares/LVGL/GUI/lvgl/src/core/lv_obj_style_gen.h **** }
 578              		.loc 2 100 5 is_stmt 1 view .LVU136
 100:Middlewares/LVGL/GUI/lvgl/src/core/lv_obj_style_gen.h **** }
 579              		.loc 2 100 5 is_stmt 0 view .LVU137
 580              	.LBE199:
 581              	.LBE198:
 259:Middlewares/LVGL/GUI/lvgl/src/core/lv_obj_pos.c ****     lv_coord_t border_width = lv_obj_get_style_border_width(obj, LV_PART_MAIN);
 582              		.loc 1 259 5 is_stmt 1 view .LVU138
 583              	.LBB200:
 584              	.LBI200:
 241:Middlewares/LVGL/GUI/lvgl/src/core/lv_obj_style_gen.h **** {
 585              		.loc 2 241 26 view .LVU139
 586              	.LBB201:
 243:Middlewares/LVGL/GUI/lvgl/src/core/lv_obj_style_gen.h ****     return (lv_coord_t)v.num;
 587              		.loc 2 243 5 view .LVU140
 243:Middlewares/LVGL/GUI/lvgl/src/core/lv_obj_style_gen.h ****     return (lv_coord_t)v.num;
 588              		.loc 2 243 26 is_stmt 0 view .LVU141
 589 0020 41F23202 		movw	r2, #4146
 590 0024 0021     		movs	r1, #0
 591 0026 2846     		mov	r0, r5
 592              	.LVL51:
 243:Middlewares/LVGL/GUI/lvgl/src/core/lv_obj_style_gen.h ****     return (lv_coord_t)v.num;
 593              		.loc 2 243 26 view .LVU142
 594 0028 FFF7FEFF 		bl	lv_obj_get_style_prop
 595              	.LVL52:
 596              		.loc 2 244 5 is_stmt 1 view .LVU143
 597              		.loc 2 244 5 is_stmt 0 view .LVU144
 598              	.LBE201:
 599              	.LBE200:
 260:Middlewares/LVGL/GUI/lvgl/src/core/lv_obj_pos.c **** 
 261:Middlewares/LVGL/GUI/lvgl/src/core/lv_obj_pos.c ****     lv_obj_set_height(obj, h + ptop + pbottom + 2 * border_width);
 600              		.loc 1 261 5 is_stmt 1 view .LVU145
 601              		.loc 1 261 30 is_stmt 0 view .LVU146
 602 002c 3C44     		add	r4, r4, r7
 603              	.LVL53:
 604              		.loc 1 261 37 view .LVU147
 605 002e 3444     		add	r4, r4, r6
 606              		.loc 1 261 5 view .LVU148
 607 0030 04EB4001 		add	r1, r4, r0, lsl #1
ARM GAS  C:\Users\ADMINI~1\AppData\Local\Temp\ccVA75Tx.s 			page 21


 608 0034 2846     		mov	r0, r5
 609              	.LVL54:
 610              		.loc 1 261 5 view .LVU149
 611 0036 FFF7FEFF 		bl	lv_obj_set_height
 612              	.LVL55:
 262:Middlewares/LVGL/GUI/lvgl/src/core/lv_obj_pos.c **** }
 613              		.loc 1 262 1 view .LVU150
 614 003a F8BD     		pop	{r3, r4, r5, r6, r7, pc}
 615              		.loc 1 262 1 view .LVU151
 616              		.cfi_endproc
 617              	.LFE167:
 619              		.section	.text.lv_obj_is_layout_positioned,"ax",%progbits
 620              		.align	1
 621              		.global	lv_obj_is_layout_positioned
 622              		.syntax unified
 623              		.thumb
 624              		.thumb_func
 626              	lv_obj_is_layout_positioned:
 627              	.LVL56:
 628              	.LFB169:
 263:Middlewares/LVGL/GUI/lvgl/src/core/lv_obj_pos.c **** 
 264:Middlewares/LVGL/GUI/lvgl/src/core/lv_obj_pos.c **** void lv_obj_set_layout(lv_obj_t * obj, uint32_t layout)
 265:Middlewares/LVGL/GUI/lvgl/src/core/lv_obj_pos.c **** {
 266:Middlewares/LVGL/GUI/lvgl/src/core/lv_obj_pos.c ****     LV_ASSERT_OBJ(obj, MY_CLASS);
 267:Middlewares/LVGL/GUI/lvgl/src/core/lv_obj_pos.c **** 
 268:Middlewares/LVGL/GUI/lvgl/src/core/lv_obj_pos.c ****     lv_obj_set_style_layout(obj, layout, 0);
 269:Middlewares/LVGL/GUI/lvgl/src/core/lv_obj_pos.c **** 
 270:Middlewares/LVGL/GUI/lvgl/src/core/lv_obj_pos.c ****     lv_obj_mark_layout_as_dirty(obj);
 271:Middlewares/LVGL/GUI/lvgl/src/core/lv_obj_pos.c **** }
 272:Middlewares/LVGL/GUI/lvgl/src/core/lv_obj_pos.c **** 
 273:Middlewares/LVGL/GUI/lvgl/src/core/lv_obj_pos.c **** bool lv_obj_is_layout_positioned(const lv_obj_t * obj)
 274:Middlewares/LVGL/GUI/lvgl/src/core/lv_obj_pos.c **** {
 629              		.loc 1 274 1 is_stmt 1 view -0
 630              		.cfi_startproc
 631              		@ args = 0, pretend = 0, frame = 0
 632              		@ frame_needed = 0, uses_anonymous_args = 0
 633              		.loc 1 274 1 is_stmt 0 view .LVU153
 634 0000 38B5     		push	{r3, r4, r5, lr}
 635              	.LCFI20:
 636              		.cfi_def_cfa_offset 16
 637              		.cfi_offset 3, -16
 638              		.cfi_offset 4, -12
 639              		.cfi_offset 5, -8
 640              		.cfi_offset 14, -4
 641 0002 0446     		mov	r4, r0
 275:Middlewares/LVGL/GUI/lvgl/src/core/lv_obj_pos.c ****     if(lv_obj_has_flag_any(obj, LV_OBJ_FLAG_HIDDEN | LV_OBJ_FLAG_IGNORE_LAYOUT | LV_OBJ_FLAG_FLOATI
 642              		.loc 1 275 5 is_stmt 1 view .LVU154
 643              		.loc 1 275 8 is_stmt 0 view .LVU155
 644 0004 0B49     		ldr	r1, .L38
 645 0006 FFF7FEFF 		bl	lv_obj_has_flag_any
 646              	.LVL57:
 647              		.loc 1 275 7 view .LVU156
 648 000a 10B1     		cbz	r0, .L37
 649              		.loc 1 275 112 view .LVU157
 650 000c 0025     		movs	r5, #0
 651              	.L34:
 276:Middlewares/LVGL/GUI/lvgl/src/core/lv_obj_pos.c **** 
ARM GAS  C:\Users\ADMINI~1\AppData\Local\Temp\ccVA75Tx.s 			page 22


 277:Middlewares/LVGL/GUI/lvgl/src/core/lv_obj_pos.c ****     lv_obj_t * parent = lv_obj_get_parent(obj);
 278:Middlewares/LVGL/GUI/lvgl/src/core/lv_obj_pos.c ****     if(parent == NULL) return false;
 279:Middlewares/LVGL/GUI/lvgl/src/core/lv_obj_pos.c **** 
 280:Middlewares/LVGL/GUI/lvgl/src/core/lv_obj_pos.c ****     uint32_t layout = lv_obj_get_style_layout(parent, LV_PART_MAIN);
 281:Middlewares/LVGL/GUI/lvgl/src/core/lv_obj_pos.c ****     if(layout) return true;
 282:Middlewares/LVGL/GUI/lvgl/src/core/lv_obj_pos.c ****     else return false;
 283:Middlewares/LVGL/GUI/lvgl/src/core/lv_obj_pos.c **** }
 652              		.loc 1 283 1 view .LVU158
 653 000e 2846     		mov	r0, r5
 654 0010 38BD     		pop	{r3, r4, r5, pc}
 655              	.LVL58:
 656              	.L37:
 657              		.loc 1 283 1 view .LVU159
 658 0012 0546     		mov	r5, r0
 277:Middlewares/LVGL/GUI/lvgl/src/core/lv_obj_pos.c ****     if(parent == NULL) return false;
 659              		.loc 1 277 5 is_stmt 1 view .LVU160
 277:Middlewares/LVGL/GUI/lvgl/src/core/lv_obj_pos.c ****     if(parent == NULL) return false;
 660              		.loc 1 277 25 is_stmt 0 view .LVU161
 661 0014 2046     		mov	r0, r4
 662 0016 FFF7FEFF 		bl	lv_obj_get_parent
 663              	.LVL59:
 278:Middlewares/LVGL/GUI/lvgl/src/core/lv_obj_pos.c **** 
 664              		.loc 1 278 5 is_stmt 1 view .LVU162
 278:Middlewares/LVGL/GUI/lvgl/src/core/lv_obj_pos.c **** 
 665              		.loc 1 278 7 is_stmt 0 view .LVU163
 666 001a 0028     		cmp	r0, #0
 667 001c F7D0     		beq	.L34
 280:Middlewares/LVGL/GUI/lvgl/src/core/lv_obj_pos.c ****     if(layout) return true;
 668              		.loc 1 280 5 is_stmt 1 view .LVU164
 669              	.LVL60:
 670              	.LBB202:
 671              	.LBI202:
 245:Middlewares/LVGL/GUI/lvgl/src/core/lv_obj_style_gen.h **** }
 246:Middlewares/LVGL/GUI/lvgl/src/core/lv_obj_style_gen.h **** 
 247:Middlewares/LVGL/GUI/lvgl/src/core/lv_obj_style_gen.h **** static inline lv_border_side_t lv_obj_get_style_border_side(const struct _lv_obj_t * obj, uint32_t 
 248:Middlewares/LVGL/GUI/lvgl/src/core/lv_obj_style_gen.h **** {
 249:Middlewares/LVGL/GUI/lvgl/src/core/lv_obj_style_gen.h ****     lv_style_value_t v = lv_obj_get_style_prop(obj, part, LV_STYLE_BORDER_SIDE);
 250:Middlewares/LVGL/GUI/lvgl/src/core/lv_obj_style_gen.h ****     return (lv_border_side_t)v.num;
 251:Middlewares/LVGL/GUI/lvgl/src/core/lv_obj_style_gen.h **** }
 252:Middlewares/LVGL/GUI/lvgl/src/core/lv_obj_style_gen.h **** 
 253:Middlewares/LVGL/GUI/lvgl/src/core/lv_obj_style_gen.h **** static inline bool lv_obj_get_style_border_post(const struct _lv_obj_t * obj, uint32_t part)
 254:Middlewares/LVGL/GUI/lvgl/src/core/lv_obj_style_gen.h **** {
 255:Middlewares/LVGL/GUI/lvgl/src/core/lv_obj_style_gen.h ****     lv_style_value_t v = lv_obj_get_style_prop(obj, part, LV_STYLE_BORDER_POST);
 256:Middlewares/LVGL/GUI/lvgl/src/core/lv_obj_style_gen.h ****     return (bool)v.num;
 257:Middlewares/LVGL/GUI/lvgl/src/core/lv_obj_style_gen.h **** }
 258:Middlewares/LVGL/GUI/lvgl/src/core/lv_obj_style_gen.h **** 
 259:Middlewares/LVGL/GUI/lvgl/src/core/lv_obj_style_gen.h **** static inline lv_coord_t lv_obj_get_style_outline_width(const struct _lv_obj_t * obj, uint32_t part
 260:Middlewares/LVGL/GUI/lvgl/src/core/lv_obj_style_gen.h **** {
 261:Middlewares/LVGL/GUI/lvgl/src/core/lv_obj_style_gen.h ****     lv_style_value_t v = lv_obj_get_style_prop(obj, part, LV_STYLE_OUTLINE_WIDTH);
 262:Middlewares/LVGL/GUI/lvgl/src/core/lv_obj_style_gen.h ****     return (lv_coord_t)v.num;
 263:Middlewares/LVGL/GUI/lvgl/src/core/lv_obj_style_gen.h **** }
 264:Middlewares/LVGL/GUI/lvgl/src/core/lv_obj_style_gen.h **** 
 265:Middlewares/LVGL/GUI/lvgl/src/core/lv_obj_style_gen.h **** static inline lv_color_t lv_obj_get_style_outline_color(const struct _lv_obj_t * obj, uint32_t part
 266:Middlewares/LVGL/GUI/lvgl/src/core/lv_obj_style_gen.h **** {
 267:Middlewares/LVGL/GUI/lvgl/src/core/lv_obj_style_gen.h ****     lv_style_value_t v = lv_obj_get_style_prop(obj, part, LV_STYLE_OUTLINE_COLOR);
 268:Middlewares/LVGL/GUI/lvgl/src/core/lv_obj_style_gen.h ****     return v.color;
 269:Middlewares/LVGL/GUI/lvgl/src/core/lv_obj_style_gen.h **** }
ARM GAS  C:\Users\ADMINI~1\AppData\Local\Temp\ccVA75Tx.s 			page 23


 270:Middlewares/LVGL/GUI/lvgl/src/core/lv_obj_style_gen.h **** 
 271:Middlewares/LVGL/GUI/lvgl/src/core/lv_obj_style_gen.h **** static inline lv_color_t lv_obj_get_style_outline_color_filtered(const struct _lv_obj_t * obj, uint
 272:Middlewares/LVGL/GUI/lvgl/src/core/lv_obj_style_gen.h **** {
 273:Middlewares/LVGL/GUI/lvgl/src/core/lv_obj_style_gen.h ****     lv_style_value_t v = lv_obj_get_style_prop(obj, part, LV_STYLE_OUTLINE_COLOR_FILTERED);
 274:Middlewares/LVGL/GUI/lvgl/src/core/lv_obj_style_gen.h ****     return v.color;
 275:Middlewares/LVGL/GUI/lvgl/src/core/lv_obj_style_gen.h **** }
 276:Middlewares/LVGL/GUI/lvgl/src/core/lv_obj_style_gen.h **** 
 277:Middlewares/LVGL/GUI/lvgl/src/core/lv_obj_style_gen.h **** static inline lv_opa_t lv_obj_get_style_outline_opa(const struct _lv_obj_t * obj, uint32_t part)
 278:Middlewares/LVGL/GUI/lvgl/src/core/lv_obj_style_gen.h **** {
 279:Middlewares/LVGL/GUI/lvgl/src/core/lv_obj_style_gen.h ****     lv_style_value_t v = lv_obj_get_style_prop(obj, part, LV_STYLE_OUTLINE_OPA);
 280:Middlewares/LVGL/GUI/lvgl/src/core/lv_obj_style_gen.h ****     return (lv_opa_t)v.num;
 281:Middlewares/LVGL/GUI/lvgl/src/core/lv_obj_style_gen.h **** }
 282:Middlewares/LVGL/GUI/lvgl/src/core/lv_obj_style_gen.h **** 
 283:Middlewares/LVGL/GUI/lvgl/src/core/lv_obj_style_gen.h **** static inline lv_coord_t lv_obj_get_style_outline_pad(const struct _lv_obj_t * obj, uint32_t part)
 284:Middlewares/LVGL/GUI/lvgl/src/core/lv_obj_style_gen.h **** {
 285:Middlewares/LVGL/GUI/lvgl/src/core/lv_obj_style_gen.h ****     lv_style_value_t v = lv_obj_get_style_prop(obj, part, LV_STYLE_OUTLINE_PAD);
 286:Middlewares/LVGL/GUI/lvgl/src/core/lv_obj_style_gen.h ****     return (lv_coord_t)v.num;
 287:Middlewares/LVGL/GUI/lvgl/src/core/lv_obj_style_gen.h **** }
 288:Middlewares/LVGL/GUI/lvgl/src/core/lv_obj_style_gen.h **** 
 289:Middlewares/LVGL/GUI/lvgl/src/core/lv_obj_style_gen.h **** static inline lv_coord_t lv_obj_get_style_shadow_width(const struct _lv_obj_t * obj, uint32_t part)
 290:Middlewares/LVGL/GUI/lvgl/src/core/lv_obj_style_gen.h **** {
 291:Middlewares/LVGL/GUI/lvgl/src/core/lv_obj_style_gen.h ****     lv_style_value_t v = lv_obj_get_style_prop(obj, part, LV_STYLE_SHADOW_WIDTH);
 292:Middlewares/LVGL/GUI/lvgl/src/core/lv_obj_style_gen.h ****     return (lv_coord_t)v.num;
 293:Middlewares/LVGL/GUI/lvgl/src/core/lv_obj_style_gen.h **** }
 294:Middlewares/LVGL/GUI/lvgl/src/core/lv_obj_style_gen.h **** 
 295:Middlewares/LVGL/GUI/lvgl/src/core/lv_obj_style_gen.h **** static inline lv_coord_t lv_obj_get_style_shadow_ofs_x(const struct _lv_obj_t * obj, uint32_t part)
 296:Middlewares/LVGL/GUI/lvgl/src/core/lv_obj_style_gen.h **** {
 297:Middlewares/LVGL/GUI/lvgl/src/core/lv_obj_style_gen.h ****     lv_style_value_t v = lv_obj_get_style_prop(obj, part, LV_STYLE_SHADOW_OFS_X);
 298:Middlewares/LVGL/GUI/lvgl/src/core/lv_obj_style_gen.h ****     return (lv_coord_t)v.num;
 299:Middlewares/LVGL/GUI/lvgl/src/core/lv_obj_style_gen.h **** }
 300:Middlewares/LVGL/GUI/lvgl/src/core/lv_obj_style_gen.h **** 
 301:Middlewares/LVGL/GUI/lvgl/src/core/lv_obj_style_gen.h **** static inline lv_coord_t lv_obj_get_style_shadow_ofs_y(const struct _lv_obj_t * obj, uint32_t part)
 302:Middlewares/LVGL/GUI/lvgl/src/core/lv_obj_style_gen.h **** {
 303:Middlewares/LVGL/GUI/lvgl/src/core/lv_obj_style_gen.h ****     lv_style_value_t v = lv_obj_get_style_prop(obj, part, LV_STYLE_SHADOW_OFS_Y);
 304:Middlewares/LVGL/GUI/lvgl/src/core/lv_obj_style_gen.h ****     return (lv_coord_t)v.num;
 305:Middlewares/LVGL/GUI/lvgl/src/core/lv_obj_style_gen.h **** }
 306:Middlewares/LVGL/GUI/lvgl/src/core/lv_obj_style_gen.h **** 
 307:Middlewares/LVGL/GUI/lvgl/src/core/lv_obj_style_gen.h **** static inline lv_coord_t lv_obj_get_style_shadow_spread(const struct _lv_obj_t * obj, uint32_t part
 308:Middlewares/LVGL/GUI/lvgl/src/core/lv_obj_style_gen.h **** {
 309:Middlewares/LVGL/GUI/lvgl/src/core/lv_obj_style_gen.h ****     lv_style_value_t v = lv_obj_get_style_prop(obj, part, LV_STYLE_SHADOW_SPREAD);
 310:Middlewares/LVGL/GUI/lvgl/src/core/lv_obj_style_gen.h ****     return (lv_coord_t)v.num;
 311:Middlewares/LVGL/GUI/lvgl/src/core/lv_obj_style_gen.h **** }
 312:Middlewares/LVGL/GUI/lvgl/src/core/lv_obj_style_gen.h **** 
 313:Middlewares/LVGL/GUI/lvgl/src/core/lv_obj_style_gen.h **** static inline lv_color_t lv_obj_get_style_shadow_color(const struct _lv_obj_t * obj, uint32_t part)
 314:Middlewares/LVGL/GUI/lvgl/src/core/lv_obj_style_gen.h **** {
 315:Middlewares/LVGL/GUI/lvgl/src/core/lv_obj_style_gen.h ****     lv_style_value_t v = lv_obj_get_style_prop(obj, part, LV_STYLE_SHADOW_COLOR);
 316:Middlewares/LVGL/GUI/lvgl/src/core/lv_obj_style_gen.h ****     return v.color;
 317:Middlewares/LVGL/GUI/lvgl/src/core/lv_obj_style_gen.h **** }
 318:Middlewares/LVGL/GUI/lvgl/src/core/lv_obj_style_gen.h **** 
 319:Middlewares/LVGL/GUI/lvgl/src/core/lv_obj_style_gen.h **** static inline lv_color_t lv_obj_get_style_shadow_color_filtered(const struct _lv_obj_t * obj, uint3
 320:Middlewares/LVGL/GUI/lvgl/src/core/lv_obj_style_gen.h **** {
 321:Middlewares/LVGL/GUI/lvgl/src/core/lv_obj_style_gen.h ****     lv_style_value_t v = lv_obj_get_style_prop(obj, part, LV_STYLE_SHADOW_COLOR_FILTERED);
 322:Middlewares/LVGL/GUI/lvgl/src/core/lv_obj_style_gen.h ****     return v.color;
 323:Middlewares/LVGL/GUI/lvgl/src/core/lv_obj_style_gen.h **** }
 324:Middlewares/LVGL/GUI/lvgl/src/core/lv_obj_style_gen.h **** 
 325:Middlewares/LVGL/GUI/lvgl/src/core/lv_obj_style_gen.h **** static inline lv_opa_t lv_obj_get_style_shadow_opa(const struct _lv_obj_t * obj, uint32_t part)
 326:Middlewares/LVGL/GUI/lvgl/src/core/lv_obj_style_gen.h **** {
ARM GAS  C:\Users\ADMINI~1\AppData\Local\Temp\ccVA75Tx.s 			page 24


 327:Middlewares/LVGL/GUI/lvgl/src/core/lv_obj_style_gen.h ****     lv_style_value_t v = lv_obj_get_style_prop(obj, part, LV_STYLE_SHADOW_OPA);
 328:Middlewares/LVGL/GUI/lvgl/src/core/lv_obj_style_gen.h ****     return (lv_opa_t)v.num;
 329:Middlewares/LVGL/GUI/lvgl/src/core/lv_obj_style_gen.h **** }
 330:Middlewares/LVGL/GUI/lvgl/src/core/lv_obj_style_gen.h **** 
 331:Middlewares/LVGL/GUI/lvgl/src/core/lv_obj_style_gen.h **** static inline lv_opa_t lv_obj_get_style_img_opa(const struct _lv_obj_t * obj, uint32_t part)
 332:Middlewares/LVGL/GUI/lvgl/src/core/lv_obj_style_gen.h **** {
 333:Middlewares/LVGL/GUI/lvgl/src/core/lv_obj_style_gen.h ****     lv_style_value_t v = lv_obj_get_style_prop(obj, part, LV_STYLE_IMG_OPA);
 334:Middlewares/LVGL/GUI/lvgl/src/core/lv_obj_style_gen.h ****     return (lv_opa_t)v.num;
 335:Middlewares/LVGL/GUI/lvgl/src/core/lv_obj_style_gen.h **** }
 336:Middlewares/LVGL/GUI/lvgl/src/core/lv_obj_style_gen.h **** 
 337:Middlewares/LVGL/GUI/lvgl/src/core/lv_obj_style_gen.h **** static inline lv_color_t lv_obj_get_style_img_recolor(const struct _lv_obj_t * obj, uint32_t part)
 338:Middlewares/LVGL/GUI/lvgl/src/core/lv_obj_style_gen.h **** {
 339:Middlewares/LVGL/GUI/lvgl/src/core/lv_obj_style_gen.h ****     lv_style_value_t v = lv_obj_get_style_prop(obj, part, LV_STYLE_IMG_RECOLOR);
 340:Middlewares/LVGL/GUI/lvgl/src/core/lv_obj_style_gen.h ****     return v.color;
 341:Middlewares/LVGL/GUI/lvgl/src/core/lv_obj_style_gen.h **** }
 342:Middlewares/LVGL/GUI/lvgl/src/core/lv_obj_style_gen.h **** 
 343:Middlewares/LVGL/GUI/lvgl/src/core/lv_obj_style_gen.h **** static inline lv_color_t lv_obj_get_style_img_recolor_filtered(const struct _lv_obj_t * obj, uint32
 344:Middlewares/LVGL/GUI/lvgl/src/core/lv_obj_style_gen.h **** {
 345:Middlewares/LVGL/GUI/lvgl/src/core/lv_obj_style_gen.h ****     lv_style_value_t v = lv_obj_get_style_prop(obj, part, LV_STYLE_IMG_RECOLOR_FILTERED);
 346:Middlewares/LVGL/GUI/lvgl/src/core/lv_obj_style_gen.h ****     return v.color;
 347:Middlewares/LVGL/GUI/lvgl/src/core/lv_obj_style_gen.h **** }
 348:Middlewares/LVGL/GUI/lvgl/src/core/lv_obj_style_gen.h **** 
 349:Middlewares/LVGL/GUI/lvgl/src/core/lv_obj_style_gen.h **** static inline lv_opa_t lv_obj_get_style_img_recolor_opa(const struct _lv_obj_t * obj, uint32_t part
 350:Middlewares/LVGL/GUI/lvgl/src/core/lv_obj_style_gen.h **** {
 351:Middlewares/LVGL/GUI/lvgl/src/core/lv_obj_style_gen.h ****     lv_style_value_t v = lv_obj_get_style_prop(obj, part, LV_STYLE_IMG_RECOLOR_OPA);
 352:Middlewares/LVGL/GUI/lvgl/src/core/lv_obj_style_gen.h ****     return (lv_opa_t)v.num;
 353:Middlewares/LVGL/GUI/lvgl/src/core/lv_obj_style_gen.h **** }
 354:Middlewares/LVGL/GUI/lvgl/src/core/lv_obj_style_gen.h **** 
 355:Middlewares/LVGL/GUI/lvgl/src/core/lv_obj_style_gen.h **** static inline lv_coord_t lv_obj_get_style_line_width(const struct _lv_obj_t * obj, uint32_t part)
 356:Middlewares/LVGL/GUI/lvgl/src/core/lv_obj_style_gen.h **** {
 357:Middlewares/LVGL/GUI/lvgl/src/core/lv_obj_style_gen.h ****     lv_style_value_t v = lv_obj_get_style_prop(obj, part, LV_STYLE_LINE_WIDTH);
 358:Middlewares/LVGL/GUI/lvgl/src/core/lv_obj_style_gen.h ****     return (lv_coord_t)v.num;
 359:Middlewares/LVGL/GUI/lvgl/src/core/lv_obj_style_gen.h **** }
 360:Middlewares/LVGL/GUI/lvgl/src/core/lv_obj_style_gen.h **** 
 361:Middlewares/LVGL/GUI/lvgl/src/core/lv_obj_style_gen.h **** static inline lv_coord_t lv_obj_get_style_line_dash_width(const struct _lv_obj_t * obj, uint32_t pa
 362:Middlewares/LVGL/GUI/lvgl/src/core/lv_obj_style_gen.h **** {
 363:Middlewares/LVGL/GUI/lvgl/src/core/lv_obj_style_gen.h ****     lv_style_value_t v = lv_obj_get_style_prop(obj, part, LV_STYLE_LINE_DASH_WIDTH);
 364:Middlewares/LVGL/GUI/lvgl/src/core/lv_obj_style_gen.h ****     return (lv_coord_t)v.num;
 365:Middlewares/LVGL/GUI/lvgl/src/core/lv_obj_style_gen.h **** }
 366:Middlewares/LVGL/GUI/lvgl/src/core/lv_obj_style_gen.h **** 
 367:Middlewares/LVGL/GUI/lvgl/src/core/lv_obj_style_gen.h **** static inline lv_coord_t lv_obj_get_style_line_dash_gap(const struct _lv_obj_t * obj, uint32_t part
 368:Middlewares/LVGL/GUI/lvgl/src/core/lv_obj_style_gen.h **** {
 369:Middlewares/LVGL/GUI/lvgl/src/core/lv_obj_style_gen.h ****     lv_style_value_t v = lv_obj_get_style_prop(obj, part, LV_STYLE_LINE_DASH_GAP);
 370:Middlewares/LVGL/GUI/lvgl/src/core/lv_obj_style_gen.h ****     return (lv_coord_t)v.num;
 371:Middlewares/LVGL/GUI/lvgl/src/core/lv_obj_style_gen.h **** }
 372:Middlewares/LVGL/GUI/lvgl/src/core/lv_obj_style_gen.h **** 
 373:Middlewares/LVGL/GUI/lvgl/src/core/lv_obj_style_gen.h **** static inline bool lv_obj_get_style_line_rounded(const struct _lv_obj_t * obj, uint32_t part)
 374:Middlewares/LVGL/GUI/lvgl/src/core/lv_obj_style_gen.h **** {
 375:Middlewares/LVGL/GUI/lvgl/src/core/lv_obj_style_gen.h ****     lv_style_value_t v = lv_obj_get_style_prop(obj, part, LV_STYLE_LINE_ROUNDED);
 376:Middlewares/LVGL/GUI/lvgl/src/core/lv_obj_style_gen.h ****     return (bool)v.num;
 377:Middlewares/LVGL/GUI/lvgl/src/core/lv_obj_style_gen.h **** }
 378:Middlewares/LVGL/GUI/lvgl/src/core/lv_obj_style_gen.h **** 
 379:Middlewares/LVGL/GUI/lvgl/src/core/lv_obj_style_gen.h **** static inline lv_color_t lv_obj_get_style_line_color(const struct _lv_obj_t * obj, uint32_t part)
 380:Middlewares/LVGL/GUI/lvgl/src/core/lv_obj_style_gen.h **** {
 381:Middlewares/LVGL/GUI/lvgl/src/core/lv_obj_style_gen.h ****     lv_style_value_t v = lv_obj_get_style_prop(obj, part, LV_STYLE_LINE_COLOR);
 382:Middlewares/LVGL/GUI/lvgl/src/core/lv_obj_style_gen.h ****     return v.color;
 383:Middlewares/LVGL/GUI/lvgl/src/core/lv_obj_style_gen.h **** }
ARM GAS  C:\Users\ADMINI~1\AppData\Local\Temp\ccVA75Tx.s 			page 25


 384:Middlewares/LVGL/GUI/lvgl/src/core/lv_obj_style_gen.h **** 
 385:Middlewares/LVGL/GUI/lvgl/src/core/lv_obj_style_gen.h **** static inline lv_color_t lv_obj_get_style_line_color_filtered(const struct _lv_obj_t * obj, uint32_
 386:Middlewares/LVGL/GUI/lvgl/src/core/lv_obj_style_gen.h **** {
 387:Middlewares/LVGL/GUI/lvgl/src/core/lv_obj_style_gen.h ****     lv_style_value_t v = lv_obj_get_style_prop(obj, part, LV_STYLE_LINE_COLOR_FILTERED);
 388:Middlewares/LVGL/GUI/lvgl/src/core/lv_obj_style_gen.h ****     return v.color;
 389:Middlewares/LVGL/GUI/lvgl/src/core/lv_obj_style_gen.h **** }
 390:Middlewares/LVGL/GUI/lvgl/src/core/lv_obj_style_gen.h **** 
 391:Middlewares/LVGL/GUI/lvgl/src/core/lv_obj_style_gen.h **** static inline lv_opa_t lv_obj_get_style_line_opa(const struct _lv_obj_t * obj, uint32_t part)
 392:Middlewares/LVGL/GUI/lvgl/src/core/lv_obj_style_gen.h **** {
 393:Middlewares/LVGL/GUI/lvgl/src/core/lv_obj_style_gen.h ****     lv_style_value_t v = lv_obj_get_style_prop(obj, part, LV_STYLE_LINE_OPA);
 394:Middlewares/LVGL/GUI/lvgl/src/core/lv_obj_style_gen.h ****     return (lv_opa_t)v.num;
 395:Middlewares/LVGL/GUI/lvgl/src/core/lv_obj_style_gen.h **** }
 396:Middlewares/LVGL/GUI/lvgl/src/core/lv_obj_style_gen.h **** 
 397:Middlewares/LVGL/GUI/lvgl/src/core/lv_obj_style_gen.h **** static inline lv_coord_t lv_obj_get_style_arc_width(const struct _lv_obj_t * obj, uint32_t part)
 398:Middlewares/LVGL/GUI/lvgl/src/core/lv_obj_style_gen.h **** {
 399:Middlewares/LVGL/GUI/lvgl/src/core/lv_obj_style_gen.h ****     lv_style_value_t v = lv_obj_get_style_prop(obj, part, LV_STYLE_ARC_WIDTH);
 400:Middlewares/LVGL/GUI/lvgl/src/core/lv_obj_style_gen.h ****     return (lv_coord_t)v.num;
 401:Middlewares/LVGL/GUI/lvgl/src/core/lv_obj_style_gen.h **** }
 402:Middlewares/LVGL/GUI/lvgl/src/core/lv_obj_style_gen.h **** 
 403:Middlewares/LVGL/GUI/lvgl/src/core/lv_obj_style_gen.h **** static inline bool lv_obj_get_style_arc_rounded(const struct _lv_obj_t * obj, uint32_t part)
 404:Middlewares/LVGL/GUI/lvgl/src/core/lv_obj_style_gen.h **** {
 405:Middlewares/LVGL/GUI/lvgl/src/core/lv_obj_style_gen.h ****     lv_style_value_t v = lv_obj_get_style_prop(obj, part, LV_STYLE_ARC_ROUNDED);
 406:Middlewares/LVGL/GUI/lvgl/src/core/lv_obj_style_gen.h ****     return (bool)v.num;
 407:Middlewares/LVGL/GUI/lvgl/src/core/lv_obj_style_gen.h **** }
 408:Middlewares/LVGL/GUI/lvgl/src/core/lv_obj_style_gen.h **** 
 409:Middlewares/LVGL/GUI/lvgl/src/core/lv_obj_style_gen.h **** static inline lv_color_t lv_obj_get_style_arc_color(const struct _lv_obj_t * obj, uint32_t part)
 410:Middlewares/LVGL/GUI/lvgl/src/core/lv_obj_style_gen.h **** {
 411:Middlewares/LVGL/GUI/lvgl/src/core/lv_obj_style_gen.h ****     lv_style_value_t v = lv_obj_get_style_prop(obj, part, LV_STYLE_ARC_COLOR);
 412:Middlewares/LVGL/GUI/lvgl/src/core/lv_obj_style_gen.h ****     return v.color;
 413:Middlewares/LVGL/GUI/lvgl/src/core/lv_obj_style_gen.h **** }
 414:Middlewares/LVGL/GUI/lvgl/src/core/lv_obj_style_gen.h **** 
 415:Middlewares/LVGL/GUI/lvgl/src/core/lv_obj_style_gen.h **** static inline lv_color_t lv_obj_get_style_arc_color_filtered(const struct _lv_obj_t * obj, uint32_t
 416:Middlewares/LVGL/GUI/lvgl/src/core/lv_obj_style_gen.h **** {
 417:Middlewares/LVGL/GUI/lvgl/src/core/lv_obj_style_gen.h ****     lv_style_value_t v = lv_obj_get_style_prop(obj, part, LV_STYLE_ARC_COLOR_FILTERED);
 418:Middlewares/LVGL/GUI/lvgl/src/core/lv_obj_style_gen.h ****     return v.color;
 419:Middlewares/LVGL/GUI/lvgl/src/core/lv_obj_style_gen.h **** }
 420:Middlewares/LVGL/GUI/lvgl/src/core/lv_obj_style_gen.h **** 
 421:Middlewares/LVGL/GUI/lvgl/src/core/lv_obj_style_gen.h **** static inline lv_opa_t lv_obj_get_style_arc_opa(const struct _lv_obj_t * obj, uint32_t part)
 422:Middlewares/LVGL/GUI/lvgl/src/core/lv_obj_style_gen.h **** {
 423:Middlewares/LVGL/GUI/lvgl/src/core/lv_obj_style_gen.h ****     lv_style_value_t v = lv_obj_get_style_prop(obj, part, LV_STYLE_ARC_OPA);
 424:Middlewares/LVGL/GUI/lvgl/src/core/lv_obj_style_gen.h ****     return (lv_opa_t)v.num;
 425:Middlewares/LVGL/GUI/lvgl/src/core/lv_obj_style_gen.h **** }
 426:Middlewares/LVGL/GUI/lvgl/src/core/lv_obj_style_gen.h **** 
 427:Middlewares/LVGL/GUI/lvgl/src/core/lv_obj_style_gen.h **** static inline const void * lv_obj_get_style_arc_img_src(const struct _lv_obj_t * obj, uint32_t part
 428:Middlewares/LVGL/GUI/lvgl/src/core/lv_obj_style_gen.h **** {
 429:Middlewares/LVGL/GUI/lvgl/src/core/lv_obj_style_gen.h ****     lv_style_value_t v = lv_obj_get_style_prop(obj, part, LV_STYLE_ARC_IMG_SRC);
 430:Middlewares/LVGL/GUI/lvgl/src/core/lv_obj_style_gen.h ****     return (const void *)v.ptr;
 431:Middlewares/LVGL/GUI/lvgl/src/core/lv_obj_style_gen.h **** }
 432:Middlewares/LVGL/GUI/lvgl/src/core/lv_obj_style_gen.h **** 
 433:Middlewares/LVGL/GUI/lvgl/src/core/lv_obj_style_gen.h **** static inline lv_color_t lv_obj_get_style_text_color(const struct _lv_obj_t * obj, uint32_t part)
 434:Middlewares/LVGL/GUI/lvgl/src/core/lv_obj_style_gen.h **** {
 435:Middlewares/LVGL/GUI/lvgl/src/core/lv_obj_style_gen.h ****     lv_style_value_t v = lv_obj_get_style_prop(obj, part, LV_STYLE_TEXT_COLOR);
 436:Middlewares/LVGL/GUI/lvgl/src/core/lv_obj_style_gen.h ****     return v.color;
 437:Middlewares/LVGL/GUI/lvgl/src/core/lv_obj_style_gen.h **** }
 438:Middlewares/LVGL/GUI/lvgl/src/core/lv_obj_style_gen.h **** 
 439:Middlewares/LVGL/GUI/lvgl/src/core/lv_obj_style_gen.h **** static inline lv_color_t lv_obj_get_style_text_color_filtered(const struct _lv_obj_t * obj, uint32_
 440:Middlewares/LVGL/GUI/lvgl/src/core/lv_obj_style_gen.h **** {
ARM GAS  C:\Users\ADMINI~1\AppData\Local\Temp\ccVA75Tx.s 			page 26


 441:Middlewares/LVGL/GUI/lvgl/src/core/lv_obj_style_gen.h ****     lv_style_value_t v = lv_obj_get_style_prop(obj, part, LV_STYLE_TEXT_COLOR_FILTERED);
 442:Middlewares/LVGL/GUI/lvgl/src/core/lv_obj_style_gen.h ****     return v.color;
 443:Middlewares/LVGL/GUI/lvgl/src/core/lv_obj_style_gen.h **** }
 444:Middlewares/LVGL/GUI/lvgl/src/core/lv_obj_style_gen.h **** 
 445:Middlewares/LVGL/GUI/lvgl/src/core/lv_obj_style_gen.h **** static inline lv_opa_t lv_obj_get_style_text_opa(const struct _lv_obj_t * obj, uint32_t part)
 446:Middlewares/LVGL/GUI/lvgl/src/core/lv_obj_style_gen.h **** {
 447:Middlewares/LVGL/GUI/lvgl/src/core/lv_obj_style_gen.h ****     lv_style_value_t v = lv_obj_get_style_prop(obj, part, LV_STYLE_TEXT_OPA);
 448:Middlewares/LVGL/GUI/lvgl/src/core/lv_obj_style_gen.h ****     return (lv_opa_t)v.num;
 449:Middlewares/LVGL/GUI/lvgl/src/core/lv_obj_style_gen.h **** }
 450:Middlewares/LVGL/GUI/lvgl/src/core/lv_obj_style_gen.h **** 
 451:Middlewares/LVGL/GUI/lvgl/src/core/lv_obj_style_gen.h **** static inline const lv_font_t * lv_obj_get_style_text_font(const struct _lv_obj_t * obj, uint32_t p
 452:Middlewares/LVGL/GUI/lvgl/src/core/lv_obj_style_gen.h **** {
 453:Middlewares/LVGL/GUI/lvgl/src/core/lv_obj_style_gen.h ****     lv_style_value_t v = lv_obj_get_style_prop(obj, part, LV_STYLE_TEXT_FONT);
 454:Middlewares/LVGL/GUI/lvgl/src/core/lv_obj_style_gen.h ****     return (const lv_font_t *)v.ptr;
 455:Middlewares/LVGL/GUI/lvgl/src/core/lv_obj_style_gen.h **** }
 456:Middlewares/LVGL/GUI/lvgl/src/core/lv_obj_style_gen.h **** 
 457:Middlewares/LVGL/GUI/lvgl/src/core/lv_obj_style_gen.h **** static inline lv_coord_t lv_obj_get_style_text_letter_space(const struct _lv_obj_t * obj, uint32_t 
 458:Middlewares/LVGL/GUI/lvgl/src/core/lv_obj_style_gen.h **** {
 459:Middlewares/LVGL/GUI/lvgl/src/core/lv_obj_style_gen.h ****     lv_style_value_t v = lv_obj_get_style_prop(obj, part, LV_STYLE_TEXT_LETTER_SPACE);
 460:Middlewares/LVGL/GUI/lvgl/src/core/lv_obj_style_gen.h ****     return (lv_coord_t)v.num;
 461:Middlewares/LVGL/GUI/lvgl/src/core/lv_obj_style_gen.h **** }
 462:Middlewares/LVGL/GUI/lvgl/src/core/lv_obj_style_gen.h **** 
 463:Middlewares/LVGL/GUI/lvgl/src/core/lv_obj_style_gen.h **** static inline lv_coord_t lv_obj_get_style_text_line_space(const struct _lv_obj_t * obj, uint32_t pa
 464:Middlewares/LVGL/GUI/lvgl/src/core/lv_obj_style_gen.h **** {
 465:Middlewares/LVGL/GUI/lvgl/src/core/lv_obj_style_gen.h ****     lv_style_value_t v = lv_obj_get_style_prop(obj, part, LV_STYLE_TEXT_LINE_SPACE);
 466:Middlewares/LVGL/GUI/lvgl/src/core/lv_obj_style_gen.h ****     return (lv_coord_t)v.num;
 467:Middlewares/LVGL/GUI/lvgl/src/core/lv_obj_style_gen.h **** }
 468:Middlewares/LVGL/GUI/lvgl/src/core/lv_obj_style_gen.h **** 
 469:Middlewares/LVGL/GUI/lvgl/src/core/lv_obj_style_gen.h **** static inline lv_text_decor_t lv_obj_get_style_text_decor(const struct _lv_obj_t * obj, uint32_t pa
 470:Middlewares/LVGL/GUI/lvgl/src/core/lv_obj_style_gen.h **** {
 471:Middlewares/LVGL/GUI/lvgl/src/core/lv_obj_style_gen.h ****     lv_style_value_t v = lv_obj_get_style_prop(obj, part, LV_STYLE_TEXT_DECOR);
 472:Middlewares/LVGL/GUI/lvgl/src/core/lv_obj_style_gen.h ****     return (lv_text_decor_t)v.num;
 473:Middlewares/LVGL/GUI/lvgl/src/core/lv_obj_style_gen.h **** }
 474:Middlewares/LVGL/GUI/lvgl/src/core/lv_obj_style_gen.h **** 
 475:Middlewares/LVGL/GUI/lvgl/src/core/lv_obj_style_gen.h **** static inline lv_text_align_t lv_obj_get_style_text_align(const struct _lv_obj_t * obj, uint32_t pa
 476:Middlewares/LVGL/GUI/lvgl/src/core/lv_obj_style_gen.h **** {
 477:Middlewares/LVGL/GUI/lvgl/src/core/lv_obj_style_gen.h ****     lv_style_value_t v = lv_obj_get_style_prop(obj, part, LV_STYLE_TEXT_ALIGN);
 478:Middlewares/LVGL/GUI/lvgl/src/core/lv_obj_style_gen.h ****     return (lv_text_align_t)v.num;
 479:Middlewares/LVGL/GUI/lvgl/src/core/lv_obj_style_gen.h **** }
 480:Middlewares/LVGL/GUI/lvgl/src/core/lv_obj_style_gen.h **** 
 481:Middlewares/LVGL/GUI/lvgl/src/core/lv_obj_style_gen.h **** static inline lv_coord_t lv_obj_get_style_radius(const struct _lv_obj_t * obj, uint32_t part)
 482:Middlewares/LVGL/GUI/lvgl/src/core/lv_obj_style_gen.h **** {
 483:Middlewares/LVGL/GUI/lvgl/src/core/lv_obj_style_gen.h ****     lv_style_value_t v = lv_obj_get_style_prop(obj, part, LV_STYLE_RADIUS);
 484:Middlewares/LVGL/GUI/lvgl/src/core/lv_obj_style_gen.h ****     return (lv_coord_t)v.num;
 485:Middlewares/LVGL/GUI/lvgl/src/core/lv_obj_style_gen.h **** }
 486:Middlewares/LVGL/GUI/lvgl/src/core/lv_obj_style_gen.h **** 
 487:Middlewares/LVGL/GUI/lvgl/src/core/lv_obj_style_gen.h **** static inline bool lv_obj_get_style_clip_corner(const struct _lv_obj_t * obj, uint32_t part)
 488:Middlewares/LVGL/GUI/lvgl/src/core/lv_obj_style_gen.h **** {
 489:Middlewares/LVGL/GUI/lvgl/src/core/lv_obj_style_gen.h ****     lv_style_value_t v = lv_obj_get_style_prop(obj, part, LV_STYLE_CLIP_CORNER);
 490:Middlewares/LVGL/GUI/lvgl/src/core/lv_obj_style_gen.h ****     return (bool)v.num;
 491:Middlewares/LVGL/GUI/lvgl/src/core/lv_obj_style_gen.h **** }
 492:Middlewares/LVGL/GUI/lvgl/src/core/lv_obj_style_gen.h **** 
 493:Middlewares/LVGL/GUI/lvgl/src/core/lv_obj_style_gen.h **** static inline lv_opa_t lv_obj_get_style_opa(const struct _lv_obj_t * obj, uint32_t part)
 494:Middlewares/LVGL/GUI/lvgl/src/core/lv_obj_style_gen.h **** {
 495:Middlewares/LVGL/GUI/lvgl/src/core/lv_obj_style_gen.h ****     lv_style_value_t v = lv_obj_get_style_prop(obj, part, LV_STYLE_OPA);
 496:Middlewares/LVGL/GUI/lvgl/src/core/lv_obj_style_gen.h ****     return (lv_opa_t)v.num;
 497:Middlewares/LVGL/GUI/lvgl/src/core/lv_obj_style_gen.h **** }
ARM GAS  C:\Users\ADMINI~1\AppData\Local\Temp\ccVA75Tx.s 			page 27


 498:Middlewares/LVGL/GUI/lvgl/src/core/lv_obj_style_gen.h **** 
 499:Middlewares/LVGL/GUI/lvgl/src/core/lv_obj_style_gen.h **** static inline const lv_color_filter_dsc_t * lv_obj_get_style_color_filter_dsc(const struct _lv_obj_
 500:Middlewares/LVGL/GUI/lvgl/src/core/lv_obj_style_gen.h ****                                                                               uint32_t part)
 501:Middlewares/LVGL/GUI/lvgl/src/core/lv_obj_style_gen.h **** {
 502:Middlewares/LVGL/GUI/lvgl/src/core/lv_obj_style_gen.h ****     lv_style_value_t v = lv_obj_get_style_prop(obj, part, LV_STYLE_COLOR_FILTER_DSC);
 503:Middlewares/LVGL/GUI/lvgl/src/core/lv_obj_style_gen.h ****     return (const lv_color_filter_dsc_t *)v.ptr;
 504:Middlewares/LVGL/GUI/lvgl/src/core/lv_obj_style_gen.h **** }
 505:Middlewares/LVGL/GUI/lvgl/src/core/lv_obj_style_gen.h **** 
 506:Middlewares/LVGL/GUI/lvgl/src/core/lv_obj_style_gen.h **** static inline lv_opa_t lv_obj_get_style_color_filter_opa(const struct _lv_obj_t * obj, uint32_t par
 507:Middlewares/LVGL/GUI/lvgl/src/core/lv_obj_style_gen.h **** {
 508:Middlewares/LVGL/GUI/lvgl/src/core/lv_obj_style_gen.h ****     lv_style_value_t v = lv_obj_get_style_prop(obj, part, LV_STYLE_COLOR_FILTER_OPA);
 509:Middlewares/LVGL/GUI/lvgl/src/core/lv_obj_style_gen.h ****     return (lv_opa_t)v.num;
 510:Middlewares/LVGL/GUI/lvgl/src/core/lv_obj_style_gen.h **** }
 511:Middlewares/LVGL/GUI/lvgl/src/core/lv_obj_style_gen.h **** 
 512:Middlewares/LVGL/GUI/lvgl/src/core/lv_obj_style_gen.h **** static inline uint32_t lv_obj_get_style_anim_time(const struct _lv_obj_t * obj, uint32_t part)
 513:Middlewares/LVGL/GUI/lvgl/src/core/lv_obj_style_gen.h **** {
 514:Middlewares/LVGL/GUI/lvgl/src/core/lv_obj_style_gen.h ****     lv_style_value_t v = lv_obj_get_style_prop(obj, part, LV_STYLE_ANIM_TIME);
 515:Middlewares/LVGL/GUI/lvgl/src/core/lv_obj_style_gen.h ****     return (uint32_t)v.num;
 516:Middlewares/LVGL/GUI/lvgl/src/core/lv_obj_style_gen.h **** }
 517:Middlewares/LVGL/GUI/lvgl/src/core/lv_obj_style_gen.h **** 
 518:Middlewares/LVGL/GUI/lvgl/src/core/lv_obj_style_gen.h **** static inline uint32_t lv_obj_get_style_anim_speed(const struct _lv_obj_t * obj, uint32_t part)
 519:Middlewares/LVGL/GUI/lvgl/src/core/lv_obj_style_gen.h **** {
 520:Middlewares/LVGL/GUI/lvgl/src/core/lv_obj_style_gen.h ****     lv_style_value_t v = lv_obj_get_style_prop(obj, part, LV_STYLE_ANIM_SPEED);
 521:Middlewares/LVGL/GUI/lvgl/src/core/lv_obj_style_gen.h ****     return (uint32_t)v.num;
 522:Middlewares/LVGL/GUI/lvgl/src/core/lv_obj_style_gen.h **** }
 523:Middlewares/LVGL/GUI/lvgl/src/core/lv_obj_style_gen.h **** 
 524:Middlewares/LVGL/GUI/lvgl/src/core/lv_obj_style_gen.h **** static inline const lv_style_transition_dsc_t * lv_obj_get_style_transition(const struct _lv_obj_t 
 525:Middlewares/LVGL/GUI/lvgl/src/core/lv_obj_style_gen.h **** {
 526:Middlewares/LVGL/GUI/lvgl/src/core/lv_obj_style_gen.h ****     lv_style_value_t v = lv_obj_get_style_prop(obj, part, LV_STYLE_TRANSITION);
 527:Middlewares/LVGL/GUI/lvgl/src/core/lv_obj_style_gen.h ****     return (const lv_style_transition_dsc_t *)v.ptr;
 528:Middlewares/LVGL/GUI/lvgl/src/core/lv_obj_style_gen.h **** }
 529:Middlewares/LVGL/GUI/lvgl/src/core/lv_obj_style_gen.h **** 
 530:Middlewares/LVGL/GUI/lvgl/src/core/lv_obj_style_gen.h **** static inline lv_blend_mode_t lv_obj_get_style_blend_mode(const struct _lv_obj_t * obj, uint32_t pa
 531:Middlewares/LVGL/GUI/lvgl/src/core/lv_obj_style_gen.h **** {
 532:Middlewares/LVGL/GUI/lvgl/src/core/lv_obj_style_gen.h ****     lv_style_value_t v = lv_obj_get_style_prop(obj, part, LV_STYLE_BLEND_MODE);
 533:Middlewares/LVGL/GUI/lvgl/src/core/lv_obj_style_gen.h ****     return (lv_blend_mode_t)v.num;
 534:Middlewares/LVGL/GUI/lvgl/src/core/lv_obj_style_gen.h **** }
 535:Middlewares/LVGL/GUI/lvgl/src/core/lv_obj_style_gen.h **** 
 536:Middlewares/LVGL/GUI/lvgl/src/core/lv_obj_style_gen.h **** static inline uint16_t lv_obj_get_style_layout(const struct _lv_obj_t * obj, uint32_t part)
 672              		.loc 2 536 24 view .LVU165
 673              	.LBB203:
 537:Middlewares/LVGL/GUI/lvgl/src/core/lv_obj_style_gen.h **** {
 538:Middlewares/LVGL/GUI/lvgl/src/core/lv_obj_style_gen.h ****     lv_style_value_t v = lv_obj_get_style_prop(obj, part, LV_STYLE_LAYOUT);
 674              		.loc 2 538 5 view .LVU166
 675              		.loc 2 538 26 is_stmt 0 view .LVU167
 676 001e 41F26902 		movw	r2, #4201
 677 0022 0021     		movs	r1, #0
 678 0024 FFF7FEFF 		bl	lv_obj_get_style_prop
 679              	.LVL61:
 539:Middlewares/LVGL/GUI/lvgl/src/core/lv_obj_style_gen.h ****     return (uint16_t)v.num;
 680              		.loc 2 539 5 is_stmt 1 view .LVU168
 681              		.loc 2 539 5 is_stmt 0 view .LVU169
 682              	.LBE203:
 683              	.LBE202:
 281:Middlewares/LVGL/GUI/lvgl/src/core/lv_obj_pos.c ****     else return false;
 684              		.loc 1 281 5 is_stmt 1 view .LVU170
 281:Middlewares/LVGL/GUI/lvgl/src/core/lv_obj_pos.c ****     else return false;
ARM GAS  C:\Users\ADMINI~1\AppData\Local\Temp\ccVA75Tx.s 			page 28


 685              		.loc 1 281 7 is_stmt 0 view .LVU171
 686 0028 80B2     		uxth	r0, r0
 687              	.LVL62:
 281:Middlewares/LVGL/GUI/lvgl/src/core/lv_obj_pos.c ****     else return false;
 688              		.loc 1 281 7 view .LVU172
 689 002a 0028     		cmp	r0, #0
 690 002c EFD0     		beq	.L34
 281:Middlewares/LVGL/GUI/lvgl/src/core/lv_obj_pos.c ****     else return false;
 691              		.loc 1 281 23 view .LVU173
 692 002e 0125     		movs	r5, #1
 693 0030 EDE7     		b	.L34
 694              	.L39:
 695 0032 00BF     		.align	2
 696              	.L38:
 697 0034 01000600 		.word	393217
 698              		.cfi_endproc
 699              	.LFE169:
 701              		.section	.text.lv_obj_mark_layout_as_dirty,"ax",%progbits
 702              		.align	1
 703              		.global	lv_obj_mark_layout_as_dirty
 704              		.syntax unified
 705              		.thumb
 706              		.thumb_func
 708              	lv_obj_mark_layout_as_dirty:
 709              	.LVL63:
 710              	.LFB170:
 284:Middlewares/LVGL/GUI/lvgl/src/core/lv_obj_pos.c **** 
 285:Middlewares/LVGL/GUI/lvgl/src/core/lv_obj_pos.c **** void lv_obj_mark_layout_as_dirty(lv_obj_t * obj)
 286:Middlewares/LVGL/GUI/lvgl/src/core/lv_obj_pos.c **** {
 711              		.loc 1 286 1 is_stmt 1 view -0
 712              		.cfi_startproc
 713              		@ args = 0, pretend = 0, frame = 0
 714              		@ frame_needed = 0, uses_anonymous_args = 0
 715              		.loc 1 286 1 is_stmt 0 view .LVU175
 716 0000 08B5     		push	{r3, lr}
 717              	.LCFI21:
 718              		.cfi_def_cfa_offset 8
 719              		.cfi_offset 3, -8
 720              		.cfi_offset 14, -4
 287:Middlewares/LVGL/GUI/lvgl/src/core/lv_obj_pos.c ****     obj->layout_inv = 1;
 721              		.loc 1 287 5 is_stmt 1 view .LVU176
 722              		.loc 1 287 21 is_stmt 0 view .LVU177
 723 0002 90F82A20 		ldrb	r2, [r0, #42]	@ zero_extendqisi2
 724 0006 42F00102 		orr	r2, r2, #1
 725 000a 80F82A20 		strb	r2, [r0, #42]
 288:Middlewares/LVGL/GUI/lvgl/src/core/lv_obj_pos.c **** 
 289:Middlewares/LVGL/GUI/lvgl/src/core/lv_obj_pos.c ****     /*Mark the screen as dirty too to mark that there is something to do on this screen*/
 290:Middlewares/LVGL/GUI/lvgl/src/core/lv_obj_pos.c ****     lv_obj_t * scr = lv_obj_get_screen(obj);
 726              		.loc 1 290 5 is_stmt 1 view .LVU178
 727              		.loc 1 290 22 is_stmt 0 view .LVU179
 728 000e FFF7FEFF 		bl	lv_obj_get_screen
 729              	.LVL64:
 291:Middlewares/LVGL/GUI/lvgl/src/core/lv_obj_pos.c ****     scr->scr_layout_inv = 1;
 730              		.loc 1 291 5 is_stmt 1 view .LVU180
 731              		.loc 1 291 25 is_stmt 0 view .LVU181
 732 0012 90F82A20 		ldrb	r2, [r0, #42]	@ zero_extendqisi2
 733 0016 42F00202 		orr	r2, r2, #2
ARM GAS  C:\Users\ADMINI~1\AppData\Local\Temp\ccVA75Tx.s 			page 29


 734 001a 80F82A20 		strb	r2, [r0, #42]
 292:Middlewares/LVGL/GUI/lvgl/src/core/lv_obj_pos.c **** 
 293:Middlewares/LVGL/GUI/lvgl/src/core/lv_obj_pos.c ****     /*Make the display refreshing*/
 294:Middlewares/LVGL/GUI/lvgl/src/core/lv_obj_pos.c ****     lv_disp_t * disp = lv_obj_get_disp(scr);
 735              		.loc 1 294 5 is_stmt 1 view .LVU182
 736              		.loc 1 294 24 is_stmt 0 view .LVU183
 737 001e FFF7FEFF 		bl	lv_obj_get_disp
 738              	.LVL65:
 295:Middlewares/LVGL/GUI/lvgl/src/core/lv_obj_pos.c ****     if(disp->refr_timer) lv_timer_resume(disp->refr_timer);
 739              		.loc 1 295 5 is_stmt 1 view .LVU184
 740              		.loc 1 295 12 is_stmt 0 view .LVU185
 741 0022 4068     		ldr	r0, [r0, #4]
 742              	.LVL66:
 743              		.loc 1 295 7 view .LVU186
 744 0024 08B1     		cbz	r0, .L40
 745              		.loc 1 295 26 is_stmt 1 discriminator 1 view .LVU187
 746 0026 FFF7FEFF 		bl	lv_timer_resume
 747              	.LVL67:
 748              	.L40:
 296:Middlewares/LVGL/GUI/lvgl/src/core/lv_obj_pos.c **** }
 749              		.loc 1 296 1 is_stmt 0 view .LVU188
 750 002a 08BD     		pop	{r3, pc}
 751              		.cfi_endproc
 752              	.LFE170:
 754              		.section	.text.lv_obj_set_layout,"ax",%progbits
 755              		.align	1
 756              		.global	lv_obj_set_layout
 757              		.syntax unified
 758              		.thumb
 759              		.thumb_func
 761              	lv_obj_set_layout:
 762              	.LVL68:
 763              	.LFB168:
 265:Middlewares/LVGL/GUI/lvgl/src/core/lv_obj_pos.c ****     LV_ASSERT_OBJ(obj, MY_CLASS);
 764              		.loc 1 265 1 is_stmt 1 view -0
 765              		.cfi_startproc
 766              		@ args = 0, pretend = 0, frame = 0
 767              		@ frame_needed = 0, uses_anonymous_args = 0
 265:Middlewares/LVGL/GUI/lvgl/src/core/lv_obj_pos.c ****     LV_ASSERT_OBJ(obj, MY_CLASS);
 768              		.loc 1 265 1 is_stmt 0 view .LVU190
 769 0000 10B5     		push	{r4, lr}
 770              	.LCFI22:
 771              		.cfi_def_cfa_offset 8
 772              		.cfi_offset 4, -8
 773              		.cfi_offset 14, -4
 774 0002 0446     		mov	r4, r0
 266:Middlewares/LVGL/GUI/lvgl/src/core/lv_obj_pos.c **** 
 775              		.loc 1 266 5 is_stmt 1 view .LVU191
 266:Middlewares/LVGL/GUI/lvgl/src/core/lv_obj_pos.c **** 
 776              		.loc 1 266 5 view .LVU192
 266:Middlewares/LVGL/GUI/lvgl/src/core/lv_obj_pos.c **** 
 777              		.loc 1 266 5 view .LVU193
 268:Middlewares/LVGL/GUI/lvgl/src/core/lv_obj_pos.c **** 
 778              		.loc 1 268 5 view .LVU194
 779 0004 0022     		movs	r2, #0
 780 0006 89B2     		uxth	r1, r1
 781              	.LVL69:
ARM GAS  C:\Users\ADMINI~1\AppData\Local\Temp\ccVA75Tx.s 			page 30


 268:Middlewares/LVGL/GUI/lvgl/src/core/lv_obj_pos.c **** 
 782              		.loc 1 268 5 is_stmt 0 view .LVU195
 783 0008 FFF7FEFF 		bl	lv_obj_set_style_layout
 784              	.LVL70:
 270:Middlewares/LVGL/GUI/lvgl/src/core/lv_obj_pos.c **** }
 785              		.loc 1 270 5 is_stmt 1 view .LVU196
 786 000c 2046     		mov	r0, r4
 787 000e FFF7FEFF 		bl	lv_obj_mark_layout_as_dirty
 788              	.LVL71:
 271:Middlewares/LVGL/GUI/lvgl/src/core/lv_obj_pos.c **** 
 789              		.loc 1 271 1 is_stmt 0 view .LVU197
 790 0012 10BD     		pop	{r4, pc}
 271:Middlewares/LVGL/GUI/lvgl/src/core/lv_obj_pos.c **** 
 791              		.loc 1 271 1 view .LVU198
 792              		.cfi_endproc
 793              	.LFE168:
 795              		.section	.text.lv_layout_register,"ax",%progbits
 796              		.align	1
 797              		.global	lv_layout_register
 798              		.syntax unified
 799              		.thumb
 800              		.thumb_func
 802              	lv_layout_register:
 803              	.LVL72:
 804              	.LFB172:
 297:Middlewares/LVGL/GUI/lvgl/src/core/lv_obj_pos.c **** 
 298:Middlewares/LVGL/GUI/lvgl/src/core/lv_obj_pos.c **** void lv_obj_update_layout(const lv_obj_t * obj)
 299:Middlewares/LVGL/GUI/lvgl/src/core/lv_obj_pos.c **** {
 300:Middlewares/LVGL/GUI/lvgl/src/core/lv_obj_pos.c ****     static bool mutex = false;
 301:Middlewares/LVGL/GUI/lvgl/src/core/lv_obj_pos.c ****     if(mutex) {
 302:Middlewares/LVGL/GUI/lvgl/src/core/lv_obj_pos.c ****         LV_LOG_TRACE("Already running, returning");
 303:Middlewares/LVGL/GUI/lvgl/src/core/lv_obj_pos.c ****         return;
 304:Middlewares/LVGL/GUI/lvgl/src/core/lv_obj_pos.c ****     }
 305:Middlewares/LVGL/GUI/lvgl/src/core/lv_obj_pos.c ****     mutex = true;
 306:Middlewares/LVGL/GUI/lvgl/src/core/lv_obj_pos.c **** 
 307:Middlewares/LVGL/GUI/lvgl/src/core/lv_obj_pos.c ****     lv_obj_t * scr = lv_obj_get_screen(obj);
 308:Middlewares/LVGL/GUI/lvgl/src/core/lv_obj_pos.c **** 
 309:Middlewares/LVGL/GUI/lvgl/src/core/lv_obj_pos.c ****     /*Repeat until there where layout invalidations*/
 310:Middlewares/LVGL/GUI/lvgl/src/core/lv_obj_pos.c ****     while(scr->scr_layout_inv) {
 311:Middlewares/LVGL/GUI/lvgl/src/core/lv_obj_pos.c ****         LV_LOG_INFO("Layout update begin");
 312:Middlewares/LVGL/GUI/lvgl/src/core/lv_obj_pos.c ****         scr->scr_layout_inv = 0;
 313:Middlewares/LVGL/GUI/lvgl/src/core/lv_obj_pos.c ****         layout_update_core(scr);
 314:Middlewares/LVGL/GUI/lvgl/src/core/lv_obj_pos.c ****         LV_LOG_TRACE("Layout update end");
 315:Middlewares/LVGL/GUI/lvgl/src/core/lv_obj_pos.c ****     }
 316:Middlewares/LVGL/GUI/lvgl/src/core/lv_obj_pos.c **** 
 317:Middlewares/LVGL/GUI/lvgl/src/core/lv_obj_pos.c ****     mutex = false;
 318:Middlewares/LVGL/GUI/lvgl/src/core/lv_obj_pos.c **** }
 319:Middlewares/LVGL/GUI/lvgl/src/core/lv_obj_pos.c **** 
 320:Middlewares/LVGL/GUI/lvgl/src/core/lv_obj_pos.c **** uint32_t lv_layout_register(lv_layout_update_cb_t cb, void * user_data)
 321:Middlewares/LVGL/GUI/lvgl/src/core/lv_obj_pos.c **** {
 805              		.loc 1 321 1 is_stmt 1 view -0
 806              		.cfi_startproc
 807              		@ args = 0, pretend = 0, frame = 0
 808              		@ frame_needed = 0, uses_anonymous_args = 0
 809              		.loc 1 321 1 is_stmt 0 view .LVU200
 810 0000 70B5     		push	{r4, r5, r6, lr}
 811              	.LCFI23:
ARM GAS  C:\Users\ADMINI~1\AppData\Local\Temp\ccVA75Tx.s 			page 31


 812              		.cfi_def_cfa_offset 16
 813              		.cfi_offset 4, -16
 814              		.cfi_offset 5, -12
 815              		.cfi_offset 6, -8
 816              		.cfi_offset 14, -4
 817 0002 0546     		mov	r5, r0
 818 0004 0C46     		mov	r4, r1
 322:Middlewares/LVGL/GUI/lvgl/src/core/lv_obj_pos.c ****     layout_cnt++;
 819              		.loc 1 322 5 is_stmt 1 view .LVU201
 820              		.loc 1 322 15 is_stmt 0 view .LVU202
 821 0006 0D4A     		ldr	r2, .L49
 822 0008 1368     		ldr	r3, [r2]
 823 000a 0133     		adds	r3, r3, #1
 824 000c 1360     		str	r3, [r2]
 323:Middlewares/LVGL/GUI/lvgl/src/core/lv_obj_pos.c ****     LV_GC_ROOT(_lv_layout_list) = lv_mem_realloc(LV_GC_ROOT(_lv_layout_list), layout_cnt * sizeof(l
 825              		.loc 1 323 5 is_stmt 1 view .LVU203
 826              		.loc 1 323 35 is_stmt 0 view .LVU204
 827 000e 0C4E     		ldr	r6, .L49+4
 828 0010 D900     		lsls	r1, r3, #3
 829              	.LVL73:
 830              		.loc 1 323 35 view .LVU205
 831 0012 3068     		ldr	r0, [r6]
 832              	.LVL74:
 833              		.loc 1 323 35 view .LVU206
 834 0014 FFF7FEFF 		bl	lv_mem_realloc
 835              	.LVL75:
 836              		.loc 1 323 33 view .LVU207
 837 0018 3060     		str	r0, [r6]
 324:Middlewares/LVGL/GUI/lvgl/src/core/lv_obj_pos.c ****     LV_ASSERT_MALLOC(LV_GC_ROOT(_lv_layout_list));
 838              		.loc 1 324 5 is_stmt 1 view .LVU208
 839              		.loc 1 324 5 view .LVU209
 840 001a 68B1     		cbz	r0, .L47
 841 001c 0346     		mov	r3, r0
 842              		.loc 1 324 5 discriminator 2 view .LVU210
 843              		.loc 1 324 50 discriminator 2 view .LVU211
 325:Middlewares/LVGL/GUI/lvgl/src/core/lv_obj_pos.c **** 
 326:Middlewares/LVGL/GUI/lvgl/src/core/lv_obj_pos.c ****     LV_GC_ROOT(_lv_layout_list)[layout_cnt - 1].cb = cb;
 844              		.loc 1 326 5 discriminator 2 view .LVU212
 845              		.loc 1 326 32 is_stmt 0 discriminator 2 view .LVU213
 846 001e 074A     		ldr	r2, .L49
 847 0020 1068     		ldr	r0, [r2]
 848 0022 00F10052 		add	r2, r0, #536870912
 849 0026 013A     		subs	r2, r2, #1
 850              		.loc 1 326 52 discriminator 2 view .LVU214
 851 0028 43F83250 		str	r5, [r3, r2, lsl #3]
 327:Middlewares/LVGL/GUI/lvgl/src/core/lv_obj_pos.c ****     LV_GC_ROOT(_lv_layout_list)[layout_cnt - 1].user_data = user_data;
 852              		.loc 1 327 5 is_stmt 1 discriminator 2 view .LVU215
 853              		.loc 1 327 32 is_stmt 0 discriminator 2 view .LVU216
 854 002c 044B     		ldr	r3, .L49+4
 855 002e 1B68     		ldr	r3, [r3]
 856 0030 03EBC202 		add	r2, r3, r2, lsl #3
 857              		.loc 1 327 59 discriminator 2 view .LVU217
 858 0034 5460     		str	r4, [r2, #4]
 328:Middlewares/LVGL/GUI/lvgl/src/core/lv_obj_pos.c ****     return layout_cnt;  /*No -1 to skip 0th index*/
 859              		.loc 1 328 5 is_stmt 1 discriminator 2 view .LVU218
 329:Middlewares/LVGL/GUI/lvgl/src/core/lv_obj_pos.c **** }
 860              		.loc 1 329 1 is_stmt 0 discriminator 2 view .LVU219
ARM GAS  C:\Users\ADMINI~1\AppData\Local\Temp\ccVA75Tx.s 			page 32


 861 0036 70BD     		pop	{r4, r5, r6, pc}
 862              	.LVL76:
 863              	.L47:
 324:Middlewares/LVGL/GUI/lvgl/src/core/lv_obj_pos.c **** 
 864              		.loc 1 324 5 is_stmt 1 discriminator 1 view .LVU220
 324:Middlewares/LVGL/GUI/lvgl/src/core/lv_obj_pos.c **** 
 865              		.loc 1 324 5 discriminator 1 view .LVU221
 324:Middlewares/LVGL/GUI/lvgl/src/core/lv_obj_pos.c **** 
 866              		.loc 1 324 5 discriminator 1 view .LVU222
 324:Middlewares/LVGL/GUI/lvgl/src/core/lv_obj_pos.c **** 
 867              		.loc 1 324 5 discriminator 1 view .LVU223
 324:Middlewares/LVGL/GUI/lvgl/src/core/lv_obj_pos.c **** 
 868              		.loc 1 324 5 discriminator 1 view .LVU224
 324:Middlewares/LVGL/GUI/lvgl/src/core/lv_obj_pos.c **** 
 869              		.loc 1 324 5 discriminator 1 view .LVU225
 870 0038 FEE7     		b	.L47
 871              	.L50:
 872 003a 00BF     		.align	2
 873              	.L49:
 874 003c 00000000 		.word	.LANCHOR0
 875 0040 00000000 		.word	_lv_layout_list
 876              		.cfi_endproc
 877              	.LFE172:
 879              		.section	.text.lv_obj_set_align,"ax",%progbits
 880              		.align	1
 881              		.global	lv_obj_set_align
 882              		.syntax unified
 883              		.thumb
 884              		.thumb_func
 886              	lv_obj_set_align:
 887              	.LVL77:
 888              	.LFB173:
 330:Middlewares/LVGL/GUI/lvgl/src/core/lv_obj_pos.c **** 
 331:Middlewares/LVGL/GUI/lvgl/src/core/lv_obj_pos.c **** void lv_obj_set_align(lv_obj_t * obj, lv_align_t align)
 332:Middlewares/LVGL/GUI/lvgl/src/core/lv_obj_pos.c **** {
 889              		.loc 1 332 1 view -0
 890              		.cfi_startproc
 891              		@ args = 0, pretend = 0, frame = 0
 892              		@ frame_needed = 0, uses_anonymous_args = 0
 893              		.loc 1 332 1 is_stmt 0 view .LVU227
 894 0000 08B5     		push	{r3, lr}
 895              	.LCFI24:
 896              		.cfi_def_cfa_offset 8
 897              		.cfi_offset 3, -8
 898              		.cfi_offset 14, -4
 333:Middlewares/LVGL/GUI/lvgl/src/core/lv_obj_pos.c ****     lv_obj_set_style_align(obj, align, 0);
 899              		.loc 1 333 5 is_stmt 1 view .LVU228
 900 0002 0022     		movs	r2, #0
 901 0004 FFF7FEFF 		bl	lv_obj_set_style_align
 902              	.LVL78:
 334:Middlewares/LVGL/GUI/lvgl/src/core/lv_obj_pos.c **** }
 903              		.loc 1 334 1 is_stmt 0 view .LVU229
 904 0008 08BD     		pop	{r3, pc}
 905              		.cfi_endproc
 906              	.LFE173:
 908              		.section	.text.lv_obj_align,"ax",%progbits
 909              		.align	1
ARM GAS  C:\Users\ADMINI~1\AppData\Local\Temp\ccVA75Tx.s 			page 33


 910              		.global	lv_obj_align
 911              		.syntax unified
 912              		.thumb
 913              		.thumb_func
 915              	lv_obj_align:
 916              	.LVL79:
 917              	.LFB174:
 335:Middlewares/LVGL/GUI/lvgl/src/core/lv_obj_pos.c **** 
 336:Middlewares/LVGL/GUI/lvgl/src/core/lv_obj_pos.c **** void lv_obj_align(lv_obj_t * obj, lv_align_t align, lv_coord_t x_ofs, lv_coord_t y_ofs)
 337:Middlewares/LVGL/GUI/lvgl/src/core/lv_obj_pos.c **** {
 918              		.loc 1 337 1 is_stmt 1 view -0
 919              		.cfi_startproc
 920              		@ args = 0, pretend = 0, frame = 0
 921              		@ frame_needed = 0, uses_anonymous_args = 0
 922              		.loc 1 337 1 is_stmt 0 view .LVU231
 923 0000 70B5     		push	{r4, r5, r6, lr}
 924              	.LCFI25:
 925              		.cfi_def_cfa_offset 16
 926              		.cfi_offset 4, -16
 927              		.cfi_offset 5, -12
 928              		.cfi_offset 6, -8
 929              		.cfi_offset 14, -4
 930 0002 0446     		mov	r4, r0
 931 0004 1546     		mov	r5, r2
 932 0006 1E46     		mov	r6, r3
 338:Middlewares/LVGL/GUI/lvgl/src/core/lv_obj_pos.c ****     lv_obj_set_style_align(obj, align, 0);
 933              		.loc 1 338 5 is_stmt 1 view .LVU232
 934 0008 0022     		movs	r2, #0
 935              	.LVL80:
 936              		.loc 1 338 5 is_stmt 0 view .LVU233
 937 000a FFF7FEFF 		bl	lv_obj_set_style_align
 938              	.LVL81:
 339:Middlewares/LVGL/GUI/lvgl/src/core/lv_obj_pos.c ****     lv_obj_set_pos(obj, x_ofs, y_ofs);
 939              		.loc 1 339 5 is_stmt 1 view .LVU234
 940 000e 3246     		mov	r2, r6
 941 0010 2946     		mov	r1, r5
 942 0012 2046     		mov	r0, r4
 943 0014 FFF7FEFF 		bl	lv_obj_set_pos
 944              	.LVL82:
 340:Middlewares/LVGL/GUI/lvgl/src/core/lv_obj_pos.c **** }
 945              		.loc 1 340 1 is_stmt 0 view .LVU235
 946 0018 70BD     		pop	{r4, r5, r6, pc}
 947              		.loc 1 340 1 view .LVU236
 948              		.cfi_endproc
 949              	.LFE174:
 951              		.section	.text.lv_obj_get_coords,"ax",%progbits
 952              		.align	1
 953              		.global	lv_obj_get_coords
 954              		.syntax unified
 955              		.thumb
 956              		.thumb_func
 958              	lv_obj_get_coords:
 959              	.LVL83:
 960              	.LFB176:
 341:Middlewares/LVGL/GUI/lvgl/src/core/lv_obj_pos.c **** 
 342:Middlewares/LVGL/GUI/lvgl/src/core/lv_obj_pos.c **** void lv_obj_align_to(lv_obj_t * obj, const lv_obj_t * base, lv_align_t align, lv_coord_t x_ofs, lv_
 343:Middlewares/LVGL/GUI/lvgl/src/core/lv_obj_pos.c **** {
ARM GAS  C:\Users\ADMINI~1\AppData\Local\Temp\ccVA75Tx.s 			page 34


 344:Middlewares/LVGL/GUI/lvgl/src/core/lv_obj_pos.c ****     LV_ASSERT_OBJ(obj, MY_CLASS);
 345:Middlewares/LVGL/GUI/lvgl/src/core/lv_obj_pos.c **** 
 346:Middlewares/LVGL/GUI/lvgl/src/core/lv_obj_pos.c ****     lv_obj_update_layout(obj);
 347:Middlewares/LVGL/GUI/lvgl/src/core/lv_obj_pos.c ****     if(base == NULL) base = lv_obj_get_parent(obj);
 348:Middlewares/LVGL/GUI/lvgl/src/core/lv_obj_pos.c **** 
 349:Middlewares/LVGL/GUI/lvgl/src/core/lv_obj_pos.c ****     LV_ASSERT_OBJ(base, MY_CLASS);
 350:Middlewares/LVGL/GUI/lvgl/src/core/lv_obj_pos.c **** 
 351:Middlewares/LVGL/GUI/lvgl/src/core/lv_obj_pos.c ****     lv_coord_t x = 0;
 352:Middlewares/LVGL/GUI/lvgl/src/core/lv_obj_pos.c ****     lv_coord_t y = 0;
 353:Middlewares/LVGL/GUI/lvgl/src/core/lv_obj_pos.c **** 
 354:Middlewares/LVGL/GUI/lvgl/src/core/lv_obj_pos.c ****     lv_obj_t * parent = lv_obj_get_parent(obj);
 355:Middlewares/LVGL/GUI/lvgl/src/core/lv_obj_pos.c ****     lv_coord_t pborder = lv_obj_get_style_border_width(parent, LV_PART_MAIN);
 356:Middlewares/LVGL/GUI/lvgl/src/core/lv_obj_pos.c ****     lv_coord_t pleft = lv_obj_get_style_pad_left(parent, LV_PART_MAIN) + pborder;
 357:Middlewares/LVGL/GUI/lvgl/src/core/lv_obj_pos.c ****     lv_coord_t ptop = lv_obj_get_style_pad_top(parent, LV_PART_MAIN) + pborder;
 358:Middlewares/LVGL/GUI/lvgl/src/core/lv_obj_pos.c **** 
 359:Middlewares/LVGL/GUI/lvgl/src/core/lv_obj_pos.c ****     lv_coord_t bborder = lv_obj_get_style_border_width(base, LV_PART_MAIN);
 360:Middlewares/LVGL/GUI/lvgl/src/core/lv_obj_pos.c ****     lv_coord_t bleft = lv_obj_get_style_pad_left(base, LV_PART_MAIN) + bborder;
 361:Middlewares/LVGL/GUI/lvgl/src/core/lv_obj_pos.c ****     lv_coord_t btop = lv_obj_get_style_pad_top(base, LV_PART_MAIN) + bborder;
 362:Middlewares/LVGL/GUI/lvgl/src/core/lv_obj_pos.c **** 
 363:Middlewares/LVGL/GUI/lvgl/src/core/lv_obj_pos.c ****     if(align == LV_ALIGN_DEFAULT) {
 364:Middlewares/LVGL/GUI/lvgl/src/core/lv_obj_pos.c ****         if(lv_obj_get_style_base_dir(base, LV_PART_MAIN) == LV_BASE_DIR_RTL) align = LV_ALIGN_TOP_R
 365:Middlewares/LVGL/GUI/lvgl/src/core/lv_obj_pos.c ****         else align = LV_ALIGN_TOP_LEFT;
 366:Middlewares/LVGL/GUI/lvgl/src/core/lv_obj_pos.c ****     }
 367:Middlewares/LVGL/GUI/lvgl/src/core/lv_obj_pos.c **** 
 368:Middlewares/LVGL/GUI/lvgl/src/core/lv_obj_pos.c ****     switch(align) {
 369:Middlewares/LVGL/GUI/lvgl/src/core/lv_obj_pos.c ****         case LV_ALIGN_CENTER:
 370:Middlewares/LVGL/GUI/lvgl/src/core/lv_obj_pos.c ****             x = lv_obj_get_content_width(base) / 2 - lv_obj_get_width(obj) / 2 + bleft;
 371:Middlewares/LVGL/GUI/lvgl/src/core/lv_obj_pos.c ****             y = lv_obj_get_content_height(base) / 2 - lv_obj_get_height(obj) / 2 + btop;
 372:Middlewares/LVGL/GUI/lvgl/src/core/lv_obj_pos.c ****             break;
 373:Middlewares/LVGL/GUI/lvgl/src/core/lv_obj_pos.c ****         case LV_ALIGN_TOP_LEFT:
 374:Middlewares/LVGL/GUI/lvgl/src/core/lv_obj_pos.c ****             x = bleft;
 375:Middlewares/LVGL/GUI/lvgl/src/core/lv_obj_pos.c ****             y = btop;
 376:Middlewares/LVGL/GUI/lvgl/src/core/lv_obj_pos.c ****             break;
 377:Middlewares/LVGL/GUI/lvgl/src/core/lv_obj_pos.c ****         case LV_ALIGN_TOP_MID:
 378:Middlewares/LVGL/GUI/lvgl/src/core/lv_obj_pos.c ****             x = lv_obj_get_content_width(base) / 2 - lv_obj_get_width(obj) / 2 + bleft;
 379:Middlewares/LVGL/GUI/lvgl/src/core/lv_obj_pos.c ****             y = btop;
 380:Middlewares/LVGL/GUI/lvgl/src/core/lv_obj_pos.c ****             break;
 381:Middlewares/LVGL/GUI/lvgl/src/core/lv_obj_pos.c **** 
 382:Middlewares/LVGL/GUI/lvgl/src/core/lv_obj_pos.c ****         case LV_ALIGN_TOP_RIGHT:
 383:Middlewares/LVGL/GUI/lvgl/src/core/lv_obj_pos.c ****             x = lv_obj_get_content_width(base) - lv_obj_get_width(obj) + bleft;
 384:Middlewares/LVGL/GUI/lvgl/src/core/lv_obj_pos.c ****             y = btop;
 385:Middlewares/LVGL/GUI/lvgl/src/core/lv_obj_pos.c ****             break;
 386:Middlewares/LVGL/GUI/lvgl/src/core/lv_obj_pos.c **** 
 387:Middlewares/LVGL/GUI/lvgl/src/core/lv_obj_pos.c ****         case LV_ALIGN_BOTTOM_LEFT:
 388:Middlewares/LVGL/GUI/lvgl/src/core/lv_obj_pos.c ****             x = bleft;
 389:Middlewares/LVGL/GUI/lvgl/src/core/lv_obj_pos.c ****             y = lv_obj_get_content_height(base) - lv_obj_get_height(obj) + btop;
 390:Middlewares/LVGL/GUI/lvgl/src/core/lv_obj_pos.c ****             break;
 391:Middlewares/LVGL/GUI/lvgl/src/core/lv_obj_pos.c ****         case LV_ALIGN_BOTTOM_MID:
 392:Middlewares/LVGL/GUI/lvgl/src/core/lv_obj_pos.c ****             x = lv_obj_get_content_width(base) / 2 - lv_obj_get_width(obj) / 2 + bleft;
 393:Middlewares/LVGL/GUI/lvgl/src/core/lv_obj_pos.c ****             y = lv_obj_get_content_height(base) - lv_obj_get_height(obj) + btop;
 394:Middlewares/LVGL/GUI/lvgl/src/core/lv_obj_pos.c ****             break;
 395:Middlewares/LVGL/GUI/lvgl/src/core/lv_obj_pos.c **** 
 396:Middlewares/LVGL/GUI/lvgl/src/core/lv_obj_pos.c ****         case LV_ALIGN_BOTTOM_RIGHT:
 397:Middlewares/LVGL/GUI/lvgl/src/core/lv_obj_pos.c ****             x = lv_obj_get_content_width(base) - lv_obj_get_width(obj) + bleft;
 398:Middlewares/LVGL/GUI/lvgl/src/core/lv_obj_pos.c ****             y = lv_obj_get_content_height(base) - lv_obj_get_height(obj) + btop;
 399:Middlewares/LVGL/GUI/lvgl/src/core/lv_obj_pos.c ****             break;
 400:Middlewares/LVGL/GUI/lvgl/src/core/lv_obj_pos.c **** 
ARM GAS  C:\Users\ADMINI~1\AppData\Local\Temp\ccVA75Tx.s 			page 35


 401:Middlewares/LVGL/GUI/lvgl/src/core/lv_obj_pos.c ****         case LV_ALIGN_LEFT_MID:
 402:Middlewares/LVGL/GUI/lvgl/src/core/lv_obj_pos.c ****             x = bleft;
 403:Middlewares/LVGL/GUI/lvgl/src/core/lv_obj_pos.c ****             y = lv_obj_get_content_height(base) / 2 - lv_obj_get_height(obj) / 2 + btop;
 404:Middlewares/LVGL/GUI/lvgl/src/core/lv_obj_pos.c ****             break;
 405:Middlewares/LVGL/GUI/lvgl/src/core/lv_obj_pos.c **** 
 406:Middlewares/LVGL/GUI/lvgl/src/core/lv_obj_pos.c ****         case LV_ALIGN_RIGHT_MID:
 407:Middlewares/LVGL/GUI/lvgl/src/core/lv_obj_pos.c ****             x = lv_obj_get_content_width(base) - lv_obj_get_width(obj) + bleft;
 408:Middlewares/LVGL/GUI/lvgl/src/core/lv_obj_pos.c ****             y = lv_obj_get_content_height(base) / 2 - lv_obj_get_height(obj) / 2 + btop;
 409:Middlewares/LVGL/GUI/lvgl/src/core/lv_obj_pos.c ****             break;
 410:Middlewares/LVGL/GUI/lvgl/src/core/lv_obj_pos.c **** 
 411:Middlewares/LVGL/GUI/lvgl/src/core/lv_obj_pos.c ****         case LV_ALIGN_OUT_TOP_LEFT:
 412:Middlewares/LVGL/GUI/lvgl/src/core/lv_obj_pos.c ****             x = 0;
 413:Middlewares/LVGL/GUI/lvgl/src/core/lv_obj_pos.c ****             y = -lv_obj_get_height(obj);
 414:Middlewares/LVGL/GUI/lvgl/src/core/lv_obj_pos.c ****             break;
 415:Middlewares/LVGL/GUI/lvgl/src/core/lv_obj_pos.c **** 
 416:Middlewares/LVGL/GUI/lvgl/src/core/lv_obj_pos.c ****         case LV_ALIGN_OUT_TOP_MID:
 417:Middlewares/LVGL/GUI/lvgl/src/core/lv_obj_pos.c ****             x = lv_obj_get_width(base) / 2 - lv_obj_get_width(obj) / 2;
 418:Middlewares/LVGL/GUI/lvgl/src/core/lv_obj_pos.c ****             y = -lv_obj_get_height(obj);
 419:Middlewares/LVGL/GUI/lvgl/src/core/lv_obj_pos.c ****             break;
 420:Middlewares/LVGL/GUI/lvgl/src/core/lv_obj_pos.c **** 
 421:Middlewares/LVGL/GUI/lvgl/src/core/lv_obj_pos.c ****         case LV_ALIGN_OUT_TOP_RIGHT:
 422:Middlewares/LVGL/GUI/lvgl/src/core/lv_obj_pos.c ****             x = lv_obj_get_width(base) - lv_obj_get_width(obj);
 423:Middlewares/LVGL/GUI/lvgl/src/core/lv_obj_pos.c ****             y = -lv_obj_get_height(obj);
 424:Middlewares/LVGL/GUI/lvgl/src/core/lv_obj_pos.c ****             break;
 425:Middlewares/LVGL/GUI/lvgl/src/core/lv_obj_pos.c **** 
 426:Middlewares/LVGL/GUI/lvgl/src/core/lv_obj_pos.c ****         case LV_ALIGN_OUT_BOTTOM_LEFT:
 427:Middlewares/LVGL/GUI/lvgl/src/core/lv_obj_pos.c ****             x = 0;
 428:Middlewares/LVGL/GUI/lvgl/src/core/lv_obj_pos.c ****             y = lv_obj_get_height(base);
 429:Middlewares/LVGL/GUI/lvgl/src/core/lv_obj_pos.c ****             break;
 430:Middlewares/LVGL/GUI/lvgl/src/core/lv_obj_pos.c **** 
 431:Middlewares/LVGL/GUI/lvgl/src/core/lv_obj_pos.c ****         case LV_ALIGN_OUT_BOTTOM_MID:
 432:Middlewares/LVGL/GUI/lvgl/src/core/lv_obj_pos.c ****             x = lv_obj_get_width(base) / 2 - lv_obj_get_width(obj) / 2;
 433:Middlewares/LVGL/GUI/lvgl/src/core/lv_obj_pos.c ****             y = lv_obj_get_height(base);
 434:Middlewares/LVGL/GUI/lvgl/src/core/lv_obj_pos.c ****             break;
 435:Middlewares/LVGL/GUI/lvgl/src/core/lv_obj_pos.c **** 
 436:Middlewares/LVGL/GUI/lvgl/src/core/lv_obj_pos.c ****         case LV_ALIGN_OUT_BOTTOM_RIGHT:
 437:Middlewares/LVGL/GUI/lvgl/src/core/lv_obj_pos.c ****             x = lv_obj_get_width(base) - lv_obj_get_width(obj);
 438:Middlewares/LVGL/GUI/lvgl/src/core/lv_obj_pos.c ****             y = lv_obj_get_height(base);
 439:Middlewares/LVGL/GUI/lvgl/src/core/lv_obj_pos.c ****             break;
 440:Middlewares/LVGL/GUI/lvgl/src/core/lv_obj_pos.c **** 
 441:Middlewares/LVGL/GUI/lvgl/src/core/lv_obj_pos.c ****         case LV_ALIGN_OUT_LEFT_TOP:
 442:Middlewares/LVGL/GUI/lvgl/src/core/lv_obj_pos.c ****             x = -lv_obj_get_width(obj);
 443:Middlewares/LVGL/GUI/lvgl/src/core/lv_obj_pos.c ****             y = 0;
 444:Middlewares/LVGL/GUI/lvgl/src/core/lv_obj_pos.c ****             break;
 445:Middlewares/LVGL/GUI/lvgl/src/core/lv_obj_pos.c **** 
 446:Middlewares/LVGL/GUI/lvgl/src/core/lv_obj_pos.c ****         case LV_ALIGN_OUT_LEFT_MID:
 447:Middlewares/LVGL/GUI/lvgl/src/core/lv_obj_pos.c ****             x = -lv_obj_get_width(obj);
 448:Middlewares/LVGL/GUI/lvgl/src/core/lv_obj_pos.c ****             y = lv_obj_get_height(base) / 2 - lv_obj_get_height(obj) / 2;
 449:Middlewares/LVGL/GUI/lvgl/src/core/lv_obj_pos.c ****             break;
 450:Middlewares/LVGL/GUI/lvgl/src/core/lv_obj_pos.c **** 
 451:Middlewares/LVGL/GUI/lvgl/src/core/lv_obj_pos.c ****         case LV_ALIGN_OUT_LEFT_BOTTOM:
 452:Middlewares/LVGL/GUI/lvgl/src/core/lv_obj_pos.c ****             x = -lv_obj_get_width(obj);
 453:Middlewares/LVGL/GUI/lvgl/src/core/lv_obj_pos.c ****             y = lv_obj_get_height(base) - lv_obj_get_height(obj);
 454:Middlewares/LVGL/GUI/lvgl/src/core/lv_obj_pos.c ****             break;
 455:Middlewares/LVGL/GUI/lvgl/src/core/lv_obj_pos.c **** 
 456:Middlewares/LVGL/GUI/lvgl/src/core/lv_obj_pos.c ****         case LV_ALIGN_OUT_RIGHT_TOP:
 457:Middlewares/LVGL/GUI/lvgl/src/core/lv_obj_pos.c ****             x = lv_obj_get_width(base);
ARM GAS  C:\Users\ADMINI~1\AppData\Local\Temp\ccVA75Tx.s 			page 36


 458:Middlewares/LVGL/GUI/lvgl/src/core/lv_obj_pos.c ****             y = 0;
 459:Middlewares/LVGL/GUI/lvgl/src/core/lv_obj_pos.c ****             break;
 460:Middlewares/LVGL/GUI/lvgl/src/core/lv_obj_pos.c **** 
 461:Middlewares/LVGL/GUI/lvgl/src/core/lv_obj_pos.c ****         case LV_ALIGN_OUT_RIGHT_MID:
 462:Middlewares/LVGL/GUI/lvgl/src/core/lv_obj_pos.c ****             x = lv_obj_get_width(base);
 463:Middlewares/LVGL/GUI/lvgl/src/core/lv_obj_pos.c ****             y = lv_obj_get_height(base) / 2 - lv_obj_get_height(obj) / 2;
 464:Middlewares/LVGL/GUI/lvgl/src/core/lv_obj_pos.c ****             break;
 465:Middlewares/LVGL/GUI/lvgl/src/core/lv_obj_pos.c **** 
 466:Middlewares/LVGL/GUI/lvgl/src/core/lv_obj_pos.c ****         case LV_ALIGN_OUT_RIGHT_BOTTOM:
 467:Middlewares/LVGL/GUI/lvgl/src/core/lv_obj_pos.c ****             x = lv_obj_get_width(base);
 468:Middlewares/LVGL/GUI/lvgl/src/core/lv_obj_pos.c ****             y = lv_obj_get_height(base) - lv_obj_get_height(obj);
 469:Middlewares/LVGL/GUI/lvgl/src/core/lv_obj_pos.c ****             break;
 470:Middlewares/LVGL/GUI/lvgl/src/core/lv_obj_pos.c ****     }
 471:Middlewares/LVGL/GUI/lvgl/src/core/lv_obj_pos.c **** 
 472:Middlewares/LVGL/GUI/lvgl/src/core/lv_obj_pos.c ****     if(lv_obj_get_style_base_dir(parent, LV_PART_MAIN) == LV_BASE_DIR_RTL) {
 473:Middlewares/LVGL/GUI/lvgl/src/core/lv_obj_pos.c ****         x += x_ofs + base->coords.x1 - parent->coords.x1 + lv_obj_get_scroll_right(parent) - pleft;
 474:Middlewares/LVGL/GUI/lvgl/src/core/lv_obj_pos.c ****     }
 475:Middlewares/LVGL/GUI/lvgl/src/core/lv_obj_pos.c ****     else {
 476:Middlewares/LVGL/GUI/lvgl/src/core/lv_obj_pos.c ****         x += x_ofs + base->coords.x1 - parent->coords.x1 + lv_obj_get_scroll_left(parent) - pleft;
 477:Middlewares/LVGL/GUI/lvgl/src/core/lv_obj_pos.c ****     }
 478:Middlewares/LVGL/GUI/lvgl/src/core/lv_obj_pos.c ****     y += y_ofs + base->coords.y1 - parent->coords.y1 + lv_obj_get_scroll_top(parent) - ptop;
 479:Middlewares/LVGL/GUI/lvgl/src/core/lv_obj_pos.c ****     lv_obj_set_style_align(obj, LV_ALIGN_TOP_LEFT, 0);
 480:Middlewares/LVGL/GUI/lvgl/src/core/lv_obj_pos.c ****     lv_obj_set_pos(obj, x, y);
 481:Middlewares/LVGL/GUI/lvgl/src/core/lv_obj_pos.c **** 
 482:Middlewares/LVGL/GUI/lvgl/src/core/lv_obj_pos.c **** }
 483:Middlewares/LVGL/GUI/lvgl/src/core/lv_obj_pos.c **** 
 484:Middlewares/LVGL/GUI/lvgl/src/core/lv_obj_pos.c **** void lv_obj_get_coords(const lv_obj_t * obj, lv_area_t * coords)
 485:Middlewares/LVGL/GUI/lvgl/src/core/lv_obj_pos.c **** {
 961              		.loc 1 485 1 is_stmt 1 view -0
 962              		.cfi_startproc
 963              		@ args = 0, pretend = 0, frame = 0
 964              		@ frame_needed = 0, uses_anonymous_args = 0
 965              		@ link register save eliminated.
 486:Middlewares/LVGL/GUI/lvgl/src/core/lv_obj_pos.c ****     LV_ASSERT_OBJ(obj, MY_CLASS);
 966              		.loc 1 486 5 view .LVU238
 967              		.loc 1 486 5 view .LVU239
 968              		.loc 1 486 5 view .LVU240
 487:Middlewares/LVGL/GUI/lvgl/src/core/lv_obj_pos.c **** 
 488:Middlewares/LVGL/GUI/lvgl/src/core/lv_obj_pos.c ****     lv_area_copy(coords, &obj->coords);
 969              		.loc 1 488 5 view .LVU241
 970              	.LBB204:
 971              	.LBI204:
 972              		.file 3 "Middlewares/LVGL/GUI/lvgl/src/core/../misc/../font/../misc/lv_area.h"
   1:Middlewares/LVGL/GUI/lvgl/src/core/../misc/../font/../misc/lv_area.h **** /**
   2:Middlewares/LVGL/GUI/lvgl/src/core/../misc/../font/../misc/lv_area.h ****  * @file lv_area.h
   3:Middlewares/LVGL/GUI/lvgl/src/core/../misc/../font/../misc/lv_area.h ****  *
   4:Middlewares/LVGL/GUI/lvgl/src/core/../misc/../font/../misc/lv_area.h ****  */
   5:Middlewares/LVGL/GUI/lvgl/src/core/../misc/../font/../misc/lv_area.h **** 
   6:Middlewares/LVGL/GUI/lvgl/src/core/../misc/../font/../misc/lv_area.h **** #ifndef LV_AREA_H
   7:Middlewares/LVGL/GUI/lvgl/src/core/../misc/../font/../misc/lv_area.h **** #define LV_AREA_H
   8:Middlewares/LVGL/GUI/lvgl/src/core/../misc/../font/../misc/lv_area.h **** 
   9:Middlewares/LVGL/GUI/lvgl/src/core/../misc/../font/../misc/lv_area.h **** #ifdef __cplusplus
  10:Middlewares/LVGL/GUI/lvgl/src/core/../misc/../font/../misc/lv_area.h **** extern "C" {
  11:Middlewares/LVGL/GUI/lvgl/src/core/../misc/../font/../misc/lv_area.h **** #endif
  12:Middlewares/LVGL/GUI/lvgl/src/core/../misc/../font/../misc/lv_area.h **** 
  13:Middlewares/LVGL/GUI/lvgl/src/core/../misc/../font/../misc/lv_area.h **** /*********************
  14:Middlewares/LVGL/GUI/lvgl/src/core/../misc/../font/../misc/lv_area.h ****  *      INCLUDES
ARM GAS  C:\Users\ADMINI~1\AppData\Local\Temp\ccVA75Tx.s 			page 37


  15:Middlewares/LVGL/GUI/lvgl/src/core/../misc/../font/../misc/lv_area.h ****  *********************/
  16:Middlewares/LVGL/GUI/lvgl/src/core/../misc/../font/../misc/lv_area.h **** #include "../lv_conf_internal.h"
  17:Middlewares/LVGL/GUI/lvgl/src/core/../misc/../font/../misc/lv_area.h **** #include <stdbool.h>
  18:Middlewares/LVGL/GUI/lvgl/src/core/../misc/../font/../misc/lv_area.h **** #include <stdint.h>
  19:Middlewares/LVGL/GUI/lvgl/src/core/../misc/../font/../misc/lv_area.h **** 
  20:Middlewares/LVGL/GUI/lvgl/src/core/../misc/../font/../misc/lv_area.h **** /*********************
  21:Middlewares/LVGL/GUI/lvgl/src/core/../misc/../font/../misc/lv_area.h ****  *      DEFINES
  22:Middlewares/LVGL/GUI/lvgl/src/core/../misc/../font/../misc/lv_area.h ****  *********************/
  23:Middlewares/LVGL/GUI/lvgl/src/core/../misc/../font/../misc/lv_area.h **** 
  24:Middlewares/LVGL/GUI/lvgl/src/core/../misc/../font/../misc/lv_area.h **** #if LV_USE_LARGE_COORD
  25:Middlewares/LVGL/GUI/lvgl/src/core/../misc/../font/../misc/lv_area.h **** typedef int32_t lv_coord_t;
  26:Middlewares/LVGL/GUI/lvgl/src/core/../misc/../font/../misc/lv_area.h **** #else
  27:Middlewares/LVGL/GUI/lvgl/src/core/../misc/../font/../misc/lv_area.h **** typedef int16_t lv_coord_t;
  28:Middlewares/LVGL/GUI/lvgl/src/core/../misc/../font/../misc/lv_area.h **** #endif
  29:Middlewares/LVGL/GUI/lvgl/src/core/../misc/../font/../misc/lv_area.h **** 
  30:Middlewares/LVGL/GUI/lvgl/src/core/../misc/../font/../misc/lv_area.h **** /**********************
  31:Middlewares/LVGL/GUI/lvgl/src/core/../misc/../font/../misc/lv_area.h ****  *      TYPEDEFS
  32:Middlewares/LVGL/GUI/lvgl/src/core/../misc/../font/../misc/lv_area.h ****  **********************/
  33:Middlewares/LVGL/GUI/lvgl/src/core/../misc/../font/../misc/lv_area.h **** 
  34:Middlewares/LVGL/GUI/lvgl/src/core/../misc/../font/../misc/lv_area.h **** /**
  35:Middlewares/LVGL/GUI/lvgl/src/core/../misc/../font/../misc/lv_area.h ****  * Represents a point on the screen.
  36:Middlewares/LVGL/GUI/lvgl/src/core/../misc/../font/../misc/lv_area.h ****  */
  37:Middlewares/LVGL/GUI/lvgl/src/core/../misc/../font/../misc/lv_area.h **** typedef struct {
  38:Middlewares/LVGL/GUI/lvgl/src/core/../misc/../font/../misc/lv_area.h ****     lv_coord_t x;
  39:Middlewares/LVGL/GUI/lvgl/src/core/../misc/../font/../misc/lv_area.h ****     lv_coord_t y;
  40:Middlewares/LVGL/GUI/lvgl/src/core/../misc/../font/../misc/lv_area.h **** } lv_point_t;
  41:Middlewares/LVGL/GUI/lvgl/src/core/../misc/../font/../misc/lv_area.h **** 
  42:Middlewares/LVGL/GUI/lvgl/src/core/../misc/../font/../misc/lv_area.h **** /** Represents an area of the screen.*/
  43:Middlewares/LVGL/GUI/lvgl/src/core/../misc/../font/../misc/lv_area.h **** typedef struct {
  44:Middlewares/LVGL/GUI/lvgl/src/core/../misc/../font/../misc/lv_area.h ****     lv_coord_t x1;
  45:Middlewares/LVGL/GUI/lvgl/src/core/../misc/../font/../misc/lv_area.h ****     lv_coord_t y1;
  46:Middlewares/LVGL/GUI/lvgl/src/core/../misc/../font/../misc/lv_area.h ****     lv_coord_t x2;
  47:Middlewares/LVGL/GUI/lvgl/src/core/../misc/../font/../misc/lv_area.h ****     lv_coord_t y2;
  48:Middlewares/LVGL/GUI/lvgl/src/core/../misc/../font/../misc/lv_area.h **** } lv_area_t;
  49:Middlewares/LVGL/GUI/lvgl/src/core/../misc/../font/../misc/lv_area.h **** 
  50:Middlewares/LVGL/GUI/lvgl/src/core/../misc/../font/../misc/lv_area.h **** /** Alignments*/
  51:Middlewares/LVGL/GUI/lvgl/src/core/../misc/../font/../misc/lv_area.h **** enum {
  52:Middlewares/LVGL/GUI/lvgl/src/core/../misc/../font/../misc/lv_area.h ****     LV_ALIGN_DEFAULT = 0,
  53:Middlewares/LVGL/GUI/lvgl/src/core/../misc/../font/../misc/lv_area.h ****     LV_ALIGN_TOP_LEFT,
  54:Middlewares/LVGL/GUI/lvgl/src/core/../misc/../font/../misc/lv_area.h ****     LV_ALIGN_TOP_MID,
  55:Middlewares/LVGL/GUI/lvgl/src/core/../misc/../font/../misc/lv_area.h ****     LV_ALIGN_TOP_RIGHT,
  56:Middlewares/LVGL/GUI/lvgl/src/core/../misc/../font/../misc/lv_area.h ****     LV_ALIGN_BOTTOM_LEFT,
  57:Middlewares/LVGL/GUI/lvgl/src/core/../misc/../font/../misc/lv_area.h ****     LV_ALIGN_BOTTOM_MID,
  58:Middlewares/LVGL/GUI/lvgl/src/core/../misc/../font/../misc/lv_area.h ****     LV_ALIGN_BOTTOM_RIGHT,
  59:Middlewares/LVGL/GUI/lvgl/src/core/../misc/../font/../misc/lv_area.h ****     LV_ALIGN_LEFT_MID,
  60:Middlewares/LVGL/GUI/lvgl/src/core/../misc/../font/../misc/lv_area.h ****     LV_ALIGN_RIGHT_MID,
  61:Middlewares/LVGL/GUI/lvgl/src/core/../misc/../font/../misc/lv_area.h ****     LV_ALIGN_CENTER,
  62:Middlewares/LVGL/GUI/lvgl/src/core/../misc/../font/../misc/lv_area.h **** 
  63:Middlewares/LVGL/GUI/lvgl/src/core/../misc/../font/../misc/lv_area.h ****     LV_ALIGN_OUT_TOP_LEFT,
  64:Middlewares/LVGL/GUI/lvgl/src/core/../misc/../font/../misc/lv_area.h ****     LV_ALIGN_OUT_TOP_MID,
  65:Middlewares/LVGL/GUI/lvgl/src/core/../misc/../font/../misc/lv_area.h ****     LV_ALIGN_OUT_TOP_RIGHT,
  66:Middlewares/LVGL/GUI/lvgl/src/core/../misc/../font/../misc/lv_area.h ****     LV_ALIGN_OUT_BOTTOM_LEFT,
  67:Middlewares/LVGL/GUI/lvgl/src/core/../misc/../font/../misc/lv_area.h ****     LV_ALIGN_OUT_BOTTOM_MID,
  68:Middlewares/LVGL/GUI/lvgl/src/core/../misc/../font/../misc/lv_area.h ****     LV_ALIGN_OUT_BOTTOM_RIGHT,
  69:Middlewares/LVGL/GUI/lvgl/src/core/../misc/../font/../misc/lv_area.h ****     LV_ALIGN_OUT_LEFT_TOP,
  70:Middlewares/LVGL/GUI/lvgl/src/core/../misc/../font/../misc/lv_area.h ****     LV_ALIGN_OUT_LEFT_MID,
  71:Middlewares/LVGL/GUI/lvgl/src/core/../misc/../font/../misc/lv_area.h ****     LV_ALIGN_OUT_LEFT_BOTTOM,
ARM GAS  C:\Users\ADMINI~1\AppData\Local\Temp\ccVA75Tx.s 			page 38


  72:Middlewares/LVGL/GUI/lvgl/src/core/../misc/../font/../misc/lv_area.h ****     LV_ALIGN_OUT_RIGHT_TOP,
  73:Middlewares/LVGL/GUI/lvgl/src/core/../misc/../font/../misc/lv_area.h ****     LV_ALIGN_OUT_RIGHT_MID,
  74:Middlewares/LVGL/GUI/lvgl/src/core/../misc/../font/../misc/lv_area.h ****     LV_ALIGN_OUT_RIGHT_BOTTOM,
  75:Middlewares/LVGL/GUI/lvgl/src/core/../misc/../font/../misc/lv_area.h **** };
  76:Middlewares/LVGL/GUI/lvgl/src/core/../misc/../font/../misc/lv_area.h **** typedef uint8_t lv_align_t;
  77:Middlewares/LVGL/GUI/lvgl/src/core/../misc/../font/../misc/lv_area.h **** 
  78:Middlewares/LVGL/GUI/lvgl/src/core/../misc/../font/../misc/lv_area.h **** enum {
  79:Middlewares/LVGL/GUI/lvgl/src/core/../misc/../font/../misc/lv_area.h ****     LV_DIR_NONE     = 0x00,
  80:Middlewares/LVGL/GUI/lvgl/src/core/../misc/../font/../misc/lv_area.h ****     LV_DIR_LEFT     = (1 << 0),
  81:Middlewares/LVGL/GUI/lvgl/src/core/../misc/../font/../misc/lv_area.h ****     LV_DIR_RIGHT    = (1 << 1),
  82:Middlewares/LVGL/GUI/lvgl/src/core/../misc/../font/../misc/lv_area.h ****     LV_DIR_TOP      = (1 << 2),
  83:Middlewares/LVGL/GUI/lvgl/src/core/../misc/../font/../misc/lv_area.h ****     LV_DIR_BOTTOM   = (1 << 3),
  84:Middlewares/LVGL/GUI/lvgl/src/core/../misc/../font/../misc/lv_area.h ****     LV_DIR_HOR      = LV_DIR_LEFT | LV_DIR_RIGHT,
  85:Middlewares/LVGL/GUI/lvgl/src/core/../misc/../font/../misc/lv_area.h ****     LV_DIR_VER      = LV_DIR_TOP | LV_DIR_BOTTOM,
  86:Middlewares/LVGL/GUI/lvgl/src/core/../misc/../font/../misc/lv_area.h ****     LV_DIR_ALL      = LV_DIR_HOR | LV_DIR_VER,
  87:Middlewares/LVGL/GUI/lvgl/src/core/../misc/../font/../misc/lv_area.h **** };
  88:Middlewares/LVGL/GUI/lvgl/src/core/../misc/../font/../misc/lv_area.h **** 
  89:Middlewares/LVGL/GUI/lvgl/src/core/../misc/../font/../misc/lv_area.h **** typedef uint8_t lv_dir_t;
  90:Middlewares/LVGL/GUI/lvgl/src/core/../misc/../font/../misc/lv_area.h **** 
  91:Middlewares/LVGL/GUI/lvgl/src/core/../misc/../font/../misc/lv_area.h **** /**********************
  92:Middlewares/LVGL/GUI/lvgl/src/core/../misc/../font/../misc/lv_area.h ****  * GLOBAL PROTOTYPES
  93:Middlewares/LVGL/GUI/lvgl/src/core/../misc/../font/../misc/lv_area.h ****  **********************/
  94:Middlewares/LVGL/GUI/lvgl/src/core/../misc/../font/../misc/lv_area.h **** 
  95:Middlewares/LVGL/GUI/lvgl/src/core/../misc/../font/../misc/lv_area.h **** /**
  96:Middlewares/LVGL/GUI/lvgl/src/core/../misc/../font/../misc/lv_area.h ****  * Initialize an area
  97:Middlewares/LVGL/GUI/lvgl/src/core/../misc/../font/../misc/lv_area.h ****  * @param area_p pointer to an area
  98:Middlewares/LVGL/GUI/lvgl/src/core/../misc/../font/../misc/lv_area.h ****  * @param x1 left coordinate of the area
  99:Middlewares/LVGL/GUI/lvgl/src/core/../misc/../font/../misc/lv_area.h ****  * @param y1 top coordinate of the area
 100:Middlewares/LVGL/GUI/lvgl/src/core/../misc/../font/../misc/lv_area.h ****  * @param x2 right coordinate of the area
 101:Middlewares/LVGL/GUI/lvgl/src/core/../misc/../font/../misc/lv_area.h ****  * @param y2 bottom coordinate of the area
 102:Middlewares/LVGL/GUI/lvgl/src/core/../misc/../font/../misc/lv_area.h ****  */
 103:Middlewares/LVGL/GUI/lvgl/src/core/../misc/../font/../misc/lv_area.h **** void lv_area_set(lv_area_t * area_p, lv_coord_t x1, lv_coord_t y1, lv_coord_t x2, lv_coord_t y2);
 104:Middlewares/LVGL/GUI/lvgl/src/core/../misc/../font/../misc/lv_area.h **** 
 105:Middlewares/LVGL/GUI/lvgl/src/core/../misc/../font/../misc/lv_area.h **** /**
 106:Middlewares/LVGL/GUI/lvgl/src/core/../misc/../font/../misc/lv_area.h ****  * Copy an area
 107:Middlewares/LVGL/GUI/lvgl/src/core/../misc/../font/../misc/lv_area.h ****  * @param dest pointer to the destination area
 108:Middlewares/LVGL/GUI/lvgl/src/core/../misc/../font/../misc/lv_area.h ****  * @param src pointer to the source area
 109:Middlewares/LVGL/GUI/lvgl/src/core/../misc/../font/../misc/lv_area.h ****  */
 110:Middlewares/LVGL/GUI/lvgl/src/core/../misc/../font/../misc/lv_area.h **** inline static void lv_area_copy(lv_area_t * dest, const lv_area_t * src)
 973              		.loc 3 110 20 view .LVU242
 974              	.LBB205:
 111:Middlewares/LVGL/GUI/lvgl/src/core/../misc/../font/../misc/lv_area.h **** {
 112:Middlewares/LVGL/GUI/lvgl/src/core/../misc/../font/../misc/lv_area.h ****     dest->x1 = src->x1;
 975              		.loc 3 112 5 view .LVU243
 976              		.loc 3 112 19 is_stmt 0 view .LVU244
 977 0000 4369     		ldr	r3, [r0, #20]
 978              		.loc 3 112 14 view .LVU245
 979 0002 0B60     		str	r3, [r1]
 113:Middlewares/LVGL/GUI/lvgl/src/core/../misc/../font/../misc/lv_area.h ****     dest->y1 = src->y1;
 980              		.loc 3 113 5 is_stmt 1 view .LVU246
 981              		.loc 3 113 19 is_stmt 0 view .LVU247
 982 0004 8369     		ldr	r3, [r0, #24]
 983              		.loc 3 113 14 view .LVU248
 984 0006 4B60     		str	r3, [r1, #4]
 114:Middlewares/LVGL/GUI/lvgl/src/core/../misc/../font/../misc/lv_area.h ****     dest->x2 = src->x2;
 985              		.loc 3 114 5 is_stmt 1 view .LVU249
 986              		.loc 3 114 19 is_stmt 0 view .LVU250
ARM GAS  C:\Users\ADMINI~1\AppData\Local\Temp\ccVA75Tx.s 			page 39


 987 0008 C369     		ldr	r3, [r0, #28]
 988              		.loc 3 114 14 view .LVU251
 989 000a 8B60     		str	r3, [r1, #8]
 115:Middlewares/LVGL/GUI/lvgl/src/core/../misc/../font/../misc/lv_area.h ****     dest->y2 = src->y2;
 990              		.loc 3 115 5 is_stmt 1 view .LVU252
 991              		.loc 3 115 19 is_stmt 0 view .LVU253
 992 000c 036A     		ldr	r3, [r0, #32]
 993              		.loc 3 115 14 view .LVU254
 994 000e CB60     		str	r3, [r1, #12]
 995              	.LVL84:
 996              		.loc 3 115 14 view .LVU255
 997              	.LBE205:
 998              	.LBE204:
 489:Middlewares/LVGL/GUI/lvgl/src/core/lv_obj_pos.c **** }
 999              		.loc 1 489 1 view .LVU256
 1000 0010 7047     		bx	lr
 1001              		.cfi_endproc
 1002              	.LFE176:
 1004              		.section	.text.lv_obj_get_x,"ax",%progbits
 1005              		.align	1
 1006              		.global	lv_obj_get_x
 1007              		.syntax unified
 1008              		.thumb
 1009              		.thumb_func
 1011              	lv_obj_get_x:
 1012              	.LVL85:
 1013              	.LFB177:
 490:Middlewares/LVGL/GUI/lvgl/src/core/lv_obj_pos.c **** 
 491:Middlewares/LVGL/GUI/lvgl/src/core/lv_obj_pos.c **** lv_coord_t lv_obj_get_x(const lv_obj_t * obj)
 492:Middlewares/LVGL/GUI/lvgl/src/core/lv_obj_pos.c **** {
 1014              		.loc 1 492 1 is_stmt 1 view -0
 1015              		.cfi_startproc
 1016              		@ args = 0, pretend = 0, frame = 0
 1017              		@ frame_needed = 0, uses_anonymous_args = 0
 1018              		.loc 1 492 1 is_stmt 0 view .LVU258
 1019 0000 38B5     		push	{r3, r4, r5, lr}
 1020              	.LCFI26:
 1021              		.cfi_def_cfa_offset 16
 1022              		.cfi_offset 3, -16
 1023              		.cfi_offset 4, -12
 1024              		.cfi_offset 5, -8
 1025              		.cfi_offset 14, -4
 1026 0002 0446     		mov	r4, r0
 493:Middlewares/LVGL/GUI/lvgl/src/core/lv_obj_pos.c ****     LV_ASSERT_OBJ(obj, MY_CLASS);
 1027              		.loc 1 493 5 is_stmt 1 view .LVU259
 1028              		.loc 1 493 5 view .LVU260
 1029              		.loc 1 493 5 view .LVU261
 494:Middlewares/LVGL/GUI/lvgl/src/core/lv_obj_pos.c **** 
 495:Middlewares/LVGL/GUI/lvgl/src/core/lv_obj_pos.c ****     lv_coord_t rel_x;
 1030              		.loc 1 495 5 view .LVU262
 496:Middlewares/LVGL/GUI/lvgl/src/core/lv_obj_pos.c ****     lv_obj_t * parent = lv_obj_get_parent(obj);
 1031              		.loc 1 496 5 view .LVU263
 1032              		.loc 1 496 25 is_stmt 0 view .LVU264
 1033 0004 FFF7FEFF 		bl	lv_obj_get_parent
 1034              	.LVL86:
 497:Middlewares/LVGL/GUI/lvgl/src/core/lv_obj_pos.c ****     if(parent) {
 1035              		.loc 1 497 5 is_stmt 1 view .LVU265
ARM GAS  C:\Users\ADMINI~1\AppData\Local\Temp\ccVA75Tx.s 			page 40


 1036              		.loc 1 497 7 is_stmt 0 view .LVU266
 1037 0008 B0B1     		cbz	r0, .L57
 1038 000a 0546     		mov	r5, r0
 498:Middlewares/LVGL/GUI/lvgl/src/core/lv_obj_pos.c ****         rel_x  = obj->coords.x1 - parent->coords.x1;
 1039              		.loc 1 498 9 is_stmt 1 view .LVU267
 1040              		.loc 1 498 29 is_stmt 0 view .LVU268
 1041 000c 6469     		ldr	r4, [r4, #20]
 1042              	.LVL87:
 1043              		.loc 1 498 49 view .LVU269
 1044 000e 4069     		ldr	r0, [r0, #20]
 1045              	.LVL88:
 1046              		.loc 1 498 16 view .LVU270
 1047 0010 241A     		subs	r4, r4, r0
 1048              	.LVL89:
 499:Middlewares/LVGL/GUI/lvgl/src/core/lv_obj_pos.c ****         rel_x += lv_obj_get_scroll_x(parent);
 1049              		.loc 1 499 9 is_stmt 1 view .LVU271
 1050              		.loc 1 499 18 is_stmt 0 view .LVU272
 1051 0012 2846     		mov	r0, r5
 1052 0014 FFF7FEFF 		bl	lv_obj_get_scroll_x
 1053              	.LVL90:
 1054              		.loc 1 499 15 view .LVU273
 1055 0018 0444     		add	r4, r4, r0
 1056              	.LVL91:
 500:Middlewares/LVGL/GUI/lvgl/src/core/lv_obj_pos.c ****         rel_x -= lv_obj_get_style_pad_left(parent, LV_PART_MAIN);
 1057              		.loc 1 500 9 is_stmt 1 view .LVU274
 1058              	.LBB206:
 1059              	.LBI206:
 103:Middlewares/LVGL/GUI/lvgl/src/core/lv_obj_style_gen.h **** {
 1060              		.loc 2 103 26 view .LVU275
 1061              	.LBB207:
 105:Middlewares/LVGL/GUI/lvgl/src/core/lv_obj_style_gen.h ****     return (lv_coord_t)v.num;
 1062              		.loc 2 105 5 view .LVU276
 105:Middlewares/LVGL/GUI/lvgl/src/core/lv_obj_style_gen.h ****     return (lv_coord_t)v.num;
 1063              		.loc 2 105 26 is_stmt 0 view .LVU277
 1064 001a 41F61202 		movw	r2, #6162
 1065 001e 0021     		movs	r1, #0
 1066 0020 2846     		mov	r0, r5
 1067 0022 FFF7FEFF 		bl	lv_obj_get_style_prop
 1068              	.LVL92:
 106:Middlewares/LVGL/GUI/lvgl/src/core/lv_obj_style_gen.h **** }
 1069              		.loc 2 106 5 is_stmt 1 view .LVU278
 106:Middlewares/LVGL/GUI/lvgl/src/core/lv_obj_style_gen.h **** }
 1070              		.loc 2 106 5 is_stmt 0 view .LVU279
 1071              	.LBE207:
 1072              	.LBE206:
 1073              		.loc 1 500 15 view .LVU280
 1074 0026 241A     		subs	r4, r4, r0
 1075              	.LVL93:
 501:Middlewares/LVGL/GUI/lvgl/src/core/lv_obj_pos.c ****         rel_x -= lv_obj_get_style_border_width(parent, LV_PART_MAIN);
 1076              		.loc 1 501 9 is_stmt 1 view .LVU281
 1077              	.LBB208:
 1078              	.LBI208:
 241:Middlewares/LVGL/GUI/lvgl/src/core/lv_obj_style_gen.h **** {
 1079              		.loc 2 241 26 view .LVU282
 1080              	.LBB209:
 243:Middlewares/LVGL/GUI/lvgl/src/core/lv_obj_style_gen.h ****     return (lv_coord_t)v.num;
 1081              		.loc 2 243 5 view .LVU283
ARM GAS  C:\Users\ADMINI~1\AppData\Local\Temp\ccVA75Tx.s 			page 41


 243:Middlewares/LVGL/GUI/lvgl/src/core/lv_obj_style_gen.h ****     return (lv_coord_t)v.num;
 1082              		.loc 2 243 26 is_stmt 0 view .LVU284
 1083 0028 41F23202 		movw	r2, #4146
 1084 002c 0021     		movs	r1, #0
 1085 002e 2846     		mov	r0, r5
 1086 0030 FFF7FEFF 		bl	lv_obj_get_style_prop
 1087              	.LVL94:
 244:Middlewares/LVGL/GUI/lvgl/src/core/lv_obj_style_gen.h **** }
 1088              		.loc 2 244 5 is_stmt 1 view .LVU285
 244:Middlewares/LVGL/GUI/lvgl/src/core/lv_obj_style_gen.h **** }
 1089              		.loc 2 244 5 is_stmt 0 view .LVU286
 1090              	.LBE209:
 1091              	.LBE208:
 1092              		.loc 1 501 15 view .LVU287
 1093 0034 201A     		subs	r0, r4, r0
 1094              	.LVL95:
 1095              	.L56:
 502:Middlewares/LVGL/GUI/lvgl/src/core/lv_obj_pos.c ****     }
 503:Middlewares/LVGL/GUI/lvgl/src/core/lv_obj_pos.c ****     else {
 504:Middlewares/LVGL/GUI/lvgl/src/core/lv_obj_pos.c ****         rel_x = obj->coords.x1;
 505:Middlewares/LVGL/GUI/lvgl/src/core/lv_obj_pos.c ****     }
 506:Middlewares/LVGL/GUI/lvgl/src/core/lv_obj_pos.c ****     return rel_x;
 507:Middlewares/LVGL/GUI/lvgl/src/core/lv_obj_pos.c **** }
 1096              		.loc 1 507 1 view .LVU288
 1097 0036 38BD     		pop	{r3, r4, r5, pc}
 1098              	.LVL96:
 1099              	.L57:
 504:Middlewares/LVGL/GUI/lvgl/src/core/lv_obj_pos.c ****     }
 1100              		.loc 1 504 9 is_stmt 1 view .LVU289
 504:Middlewares/LVGL/GUI/lvgl/src/core/lv_obj_pos.c ****     }
 1101              		.loc 1 504 15 is_stmt 0 view .LVU290
 1102 0038 6069     		ldr	r0, [r4, #20]
 1103              	.LVL97:
 506:Middlewares/LVGL/GUI/lvgl/src/core/lv_obj_pos.c **** }
 1104              		.loc 1 506 5 is_stmt 1 view .LVU291
 506:Middlewares/LVGL/GUI/lvgl/src/core/lv_obj_pos.c **** }
 1105              		.loc 1 506 12 is_stmt 0 view .LVU292
 1106 003a FCE7     		b	.L56
 1107              		.cfi_endproc
 1108              	.LFE177:
 1110              		.section	.text.lv_obj_get_y,"ax",%progbits
 1111              		.align	1
 1112              		.global	lv_obj_get_y
 1113              		.syntax unified
 1114              		.thumb
 1115              		.thumb_func
 1117              	lv_obj_get_y:
 1118              	.LVL98:
 1119              	.LFB179:
 508:Middlewares/LVGL/GUI/lvgl/src/core/lv_obj_pos.c **** 
 509:Middlewares/LVGL/GUI/lvgl/src/core/lv_obj_pos.c **** lv_coord_t lv_obj_get_x2(const lv_obj_t * obj)
 510:Middlewares/LVGL/GUI/lvgl/src/core/lv_obj_pos.c **** {
 511:Middlewares/LVGL/GUI/lvgl/src/core/lv_obj_pos.c ****     LV_ASSERT_OBJ(obj, MY_CLASS);
 512:Middlewares/LVGL/GUI/lvgl/src/core/lv_obj_pos.c **** 
 513:Middlewares/LVGL/GUI/lvgl/src/core/lv_obj_pos.c ****     return lv_obj_get_x(obj) + lv_obj_get_width(obj);
 514:Middlewares/LVGL/GUI/lvgl/src/core/lv_obj_pos.c **** }
 515:Middlewares/LVGL/GUI/lvgl/src/core/lv_obj_pos.c **** 
ARM GAS  C:\Users\ADMINI~1\AppData\Local\Temp\ccVA75Tx.s 			page 42


 516:Middlewares/LVGL/GUI/lvgl/src/core/lv_obj_pos.c **** lv_coord_t lv_obj_get_y(const lv_obj_t * obj)
 517:Middlewares/LVGL/GUI/lvgl/src/core/lv_obj_pos.c **** {
 1120              		.loc 1 517 1 is_stmt 1 view -0
 1121              		.cfi_startproc
 1122              		@ args = 0, pretend = 0, frame = 0
 1123              		@ frame_needed = 0, uses_anonymous_args = 0
 1124              		.loc 1 517 1 is_stmt 0 view .LVU294
 1125 0000 38B5     		push	{r3, r4, r5, lr}
 1126              	.LCFI27:
 1127              		.cfi_def_cfa_offset 16
 1128              		.cfi_offset 3, -16
 1129              		.cfi_offset 4, -12
 1130              		.cfi_offset 5, -8
 1131              		.cfi_offset 14, -4
 1132 0002 0446     		mov	r4, r0
 518:Middlewares/LVGL/GUI/lvgl/src/core/lv_obj_pos.c ****     LV_ASSERT_OBJ(obj, MY_CLASS);
 1133              		.loc 1 518 5 is_stmt 1 view .LVU295
 1134              		.loc 1 518 5 view .LVU296
 1135              		.loc 1 518 5 view .LVU297
 519:Middlewares/LVGL/GUI/lvgl/src/core/lv_obj_pos.c **** 
 520:Middlewares/LVGL/GUI/lvgl/src/core/lv_obj_pos.c ****     lv_coord_t rel_y;
 1136              		.loc 1 520 5 view .LVU298
 521:Middlewares/LVGL/GUI/lvgl/src/core/lv_obj_pos.c ****     lv_obj_t * parent = lv_obj_get_parent(obj);
 1137              		.loc 1 521 5 view .LVU299
 1138              		.loc 1 521 25 is_stmt 0 view .LVU300
 1139 0004 FFF7FEFF 		bl	lv_obj_get_parent
 1140              	.LVL99:
 522:Middlewares/LVGL/GUI/lvgl/src/core/lv_obj_pos.c ****     if(parent) {
 1141              		.loc 1 522 5 is_stmt 1 view .LVU301
 1142              		.loc 1 522 7 is_stmt 0 view .LVU302
 1143 0008 B0B1     		cbz	r0, .L61
 1144 000a 0546     		mov	r5, r0
 523:Middlewares/LVGL/GUI/lvgl/src/core/lv_obj_pos.c ****         rel_y = obj->coords.y1 - parent->coords.y1;
 1145              		.loc 1 523 9 is_stmt 1 view .LVU303
 1146              		.loc 1 523 28 is_stmt 0 view .LVU304
 1147 000c A469     		ldr	r4, [r4, #24]
 1148              	.LVL100:
 1149              		.loc 1 523 48 view .LVU305
 1150 000e 8069     		ldr	r0, [r0, #24]
 1151              	.LVL101:
 1152              		.loc 1 523 15 view .LVU306
 1153 0010 241A     		subs	r4, r4, r0
 1154              	.LVL102:
 524:Middlewares/LVGL/GUI/lvgl/src/core/lv_obj_pos.c ****         rel_y += lv_obj_get_scroll_y(parent);
 1155              		.loc 1 524 9 is_stmt 1 view .LVU307
 1156              		.loc 1 524 18 is_stmt 0 view .LVU308
 1157 0012 2846     		mov	r0, r5
 1158 0014 FFF7FEFF 		bl	lv_obj_get_scroll_y
 1159              	.LVL103:
 1160              		.loc 1 524 15 view .LVU309
 1161 0018 0444     		add	r4, r4, r0
 1162              	.LVL104:
 525:Middlewares/LVGL/GUI/lvgl/src/core/lv_obj_pos.c ****         rel_y -= lv_obj_get_style_pad_top(parent, LV_PART_MAIN);
 1163              		.loc 1 525 9 is_stmt 1 view .LVU310
 1164              	.LBB210:
 1165              	.LBI210:
  91:Middlewares/LVGL/GUI/lvgl/src/core/lv_obj_style_gen.h **** {
ARM GAS  C:\Users\ADMINI~1\AppData\Local\Temp\ccVA75Tx.s 			page 43


 1166              		.loc 2 91 26 view .LVU311
 1167              	.LBB211:
  93:Middlewares/LVGL/GUI/lvgl/src/core/lv_obj_style_gen.h ****     return (lv_coord_t)v.num;
 1168              		.loc 2 93 5 view .LVU312
  93:Middlewares/LVGL/GUI/lvgl/src/core/lv_obj_style_gen.h ****     return (lv_coord_t)v.num;
 1169              		.loc 2 93 26 is_stmt 0 view .LVU313
 1170 001a 41F61002 		movw	r2, #6160
 1171 001e 0021     		movs	r1, #0
 1172 0020 2846     		mov	r0, r5
 1173 0022 FFF7FEFF 		bl	lv_obj_get_style_prop
 1174              	.LVL105:
  94:Middlewares/LVGL/GUI/lvgl/src/core/lv_obj_style_gen.h **** }
 1175              		.loc 2 94 5 is_stmt 1 view .LVU314
  94:Middlewares/LVGL/GUI/lvgl/src/core/lv_obj_style_gen.h **** }
 1176              		.loc 2 94 5 is_stmt 0 view .LVU315
 1177              	.LBE211:
 1178              	.LBE210:
 1179              		.loc 1 525 15 view .LVU316
 1180 0026 241A     		subs	r4, r4, r0
 1181              	.LVL106:
 526:Middlewares/LVGL/GUI/lvgl/src/core/lv_obj_pos.c ****         rel_y -= lv_obj_get_style_border_width(parent, LV_PART_MAIN);
 1182              		.loc 1 526 9 is_stmt 1 view .LVU317
 1183              	.LBB212:
 1184              	.LBI212:
 241:Middlewares/LVGL/GUI/lvgl/src/core/lv_obj_style_gen.h **** {
 1185              		.loc 2 241 26 view .LVU318
 1186              	.LBB213:
 243:Middlewares/LVGL/GUI/lvgl/src/core/lv_obj_style_gen.h ****     return (lv_coord_t)v.num;
 1187              		.loc 2 243 5 view .LVU319
 243:Middlewares/LVGL/GUI/lvgl/src/core/lv_obj_style_gen.h ****     return (lv_coord_t)v.num;
 1188              		.loc 2 243 26 is_stmt 0 view .LVU320
 1189 0028 41F23202 		movw	r2, #4146
 1190 002c 0021     		movs	r1, #0
 1191 002e 2846     		mov	r0, r5
 1192 0030 FFF7FEFF 		bl	lv_obj_get_style_prop
 1193              	.LVL107:
 244:Middlewares/LVGL/GUI/lvgl/src/core/lv_obj_style_gen.h **** }
 1194              		.loc 2 244 5 is_stmt 1 view .LVU321
 244:Middlewares/LVGL/GUI/lvgl/src/core/lv_obj_style_gen.h **** }
 1195              		.loc 2 244 5 is_stmt 0 view .LVU322
 1196              	.LBE213:
 1197              	.LBE212:
 1198              		.loc 1 526 15 view .LVU323
 1199 0034 201A     		subs	r0, r4, r0
 1200              	.LVL108:
 1201              	.L60:
 527:Middlewares/LVGL/GUI/lvgl/src/core/lv_obj_pos.c ****     }
 528:Middlewares/LVGL/GUI/lvgl/src/core/lv_obj_pos.c ****     else {
 529:Middlewares/LVGL/GUI/lvgl/src/core/lv_obj_pos.c ****         rel_y = obj->coords.y1;
 530:Middlewares/LVGL/GUI/lvgl/src/core/lv_obj_pos.c ****     }
 531:Middlewares/LVGL/GUI/lvgl/src/core/lv_obj_pos.c ****     return rel_y;
 532:Middlewares/LVGL/GUI/lvgl/src/core/lv_obj_pos.c **** }
 1202              		.loc 1 532 1 view .LVU324
 1203 0036 38BD     		pop	{r3, r4, r5, pc}
 1204              	.LVL109:
 1205              	.L61:
 529:Middlewares/LVGL/GUI/lvgl/src/core/lv_obj_pos.c ****     }
ARM GAS  C:\Users\ADMINI~1\AppData\Local\Temp\ccVA75Tx.s 			page 44


 1206              		.loc 1 529 9 is_stmt 1 view .LVU325
 529:Middlewares/LVGL/GUI/lvgl/src/core/lv_obj_pos.c ****     }
 1207              		.loc 1 529 15 is_stmt 0 view .LVU326
 1208 0038 A069     		ldr	r0, [r4, #24]
 1209              	.LVL110:
 531:Middlewares/LVGL/GUI/lvgl/src/core/lv_obj_pos.c **** }
 1210              		.loc 1 531 5 is_stmt 1 view .LVU327
 531:Middlewares/LVGL/GUI/lvgl/src/core/lv_obj_pos.c **** }
 1211              		.loc 1 531 12 is_stmt 0 view .LVU328
 1212 003a FCE7     		b	.L60
 1213              		.cfi_endproc
 1214              	.LFE179:
 1216              		.section	.text.lv_obj_get_x_aligned,"ax",%progbits
 1217              		.align	1
 1218              		.global	lv_obj_get_x_aligned
 1219              		.syntax unified
 1220              		.thumb
 1221              		.thumb_func
 1223              	lv_obj_get_x_aligned:
 1224              	.LVL111:
 1225              	.LFB181:
 533:Middlewares/LVGL/GUI/lvgl/src/core/lv_obj_pos.c **** 
 534:Middlewares/LVGL/GUI/lvgl/src/core/lv_obj_pos.c **** lv_coord_t lv_obj_get_y2(const lv_obj_t * obj)
 535:Middlewares/LVGL/GUI/lvgl/src/core/lv_obj_pos.c **** {
 536:Middlewares/LVGL/GUI/lvgl/src/core/lv_obj_pos.c ****     LV_ASSERT_OBJ(obj, MY_CLASS);
 537:Middlewares/LVGL/GUI/lvgl/src/core/lv_obj_pos.c **** 
 538:Middlewares/LVGL/GUI/lvgl/src/core/lv_obj_pos.c ****     return lv_obj_get_y(obj) + lv_obj_get_height(obj);
 539:Middlewares/LVGL/GUI/lvgl/src/core/lv_obj_pos.c **** }
 540:Middlewares/LVGL/GUI/lvgl/src/core/lv_obj_pos.c **** 
 541:Middlewares/LVGL/GUI/lvgl/src/core/lv_obj_pos.c **** lv_coord_t lv_obj_get_x_aligned(const lv_obj_t * obj)
 542:Middlewares/LVGL/GUI/lvgl/src/core/lv_obj_pos.c **** {
 1226              		.loc 1 542 1 is_stmt 1 view -0
 1227              		.cfi_startproc
 1228              		@ args = 0, pretend = 0, frame = 0
 1229              		@ frame_needed = 0, uses_anonymous_args = 0
 1230              		.loc 1 542 1 is_stmt 0 view .LVU330
 1231 0000 08B5     		push	{r3, lr}
 1232              	.LCFI28:
 1233              		.cfi_def_cfa_offset 8
 1234              		.cfi_offset 3, -8
 1235              		.cfi_offset 14, -4
 543:Middlewares/LVGL/GUI/lvgl/src/core/lv_obj_pos.c ****     return lv_obj_get_style_x(obj, LV_PART_MAIN);
 1236              		.loc 1 543 5 is_stmt 1 view .LVU331
 1237              	.LVL112:
 1238              	.LBB214:
 1239              	.LBI214:
  37:Middlewares/LVGL/GUI/lvgl/src/core/lv_obj_style_gen.h **** {
 1240              		.loc 2 37 26 view .LVU332
 1241              	.LBB215:
  39:Middlewares/LVGL/GUI/lvgl/src/core/lv_obj_style_gen.h ****     return (lv_coord_t)v.num;
 1242              		.loc 2 39 5 view .LVU333
  39:Middlewares/LVGL/GUI/lvgl/src/core/lv_obj_style_gen.h ****     return (lv_coord_t)v.num;
 1243              		.loc 2 39 26 is_stmt 0 view .LVU334
 1244 0002 41F20702 		movw	r2, #4103
 1245 0006 0021     		movs	r1, #0
 1246 0008 FFF7FEFF 		bl	lv_obj_get_style_prop
 1247              	.LVL113:
ARM GAS  C:\Users\ADMINI~1\AppData\Local\Temp\ccVA75Tx.s 			page 45


  40:Middlewares/LVGL/GUI/lvgl/src/core/lv_obj_style_gen.h **** }
 1248              		.loc 2 40 5 is_stmt 1 view .LVU335
  40:Middlewares/LVGL/GUI/lvgl/src/core/lv_obj_style_gen.h **** }
 1249              		.loc 2 40 5 is_stmt 0 view .LVU336
 1250              	.LBE215:
 1251              	.LBE214:
 544:Middlewares/LVGL/GUI/lvgl/src/core/lv_obj_pos.c **** }
 1252              		.loc 1 544 1 view .LVU337
 1253 000c 08BD     		pop	{r3, pc}
 1254              		.cfi_endproc
 1255              	.LFE181:
 1257              		.section	.text.lv_obj_get_y_aligned,"ax",%progbits
 1258              		.align	1
 1259              		.global	lv_obj_get_y_aligned
 1260              		.syntax unified
 1261              		.thumb
 1262              		.thumb_func
 1264              	lv_obj_get_y_aligned:
 1265              	.LVL114:
 1266              	.LFB182:
 545:Middlewares/LVGL/GUI/lvgl/src/core/lv_obj_pos.c **** 
 546:Middlewares/LVGL/GUI/lvgl/src/core/lv_obj_pos.c **** lv_coord_t lv_obj_get_y_aligned(const lv_obj_t * obj)
 547:Middlewares/LVGL/GUI/lvgl/src/core/lv_obj_pos.c **** {
 1267              		.loc 1 547 1 is_stmt 1 view -0
 1268              		.cfi_startproc
 1269              		@ args = 0, pretend = 0, frame = 0
 1270              		@ frame_needed = 0, uses_anonymous_args = 0
 1271              		.loc 1 547 1 is_stmt 0 view .LVU339
 1272 0000 08B5     		push	{r3, lr}
 1273              	.LCFI29:
 1274              		.cfi_def_cfa_offset 8
 1275              		.cfi_offset 3, -8
 1276              		.cfi_offset 14, -4
 548:Middlewares/LVGL/GUI/lvgl/src/core/lv_obj_pos.c ****     return lv_obj_get_style_y(obj, LV_PART_MAIN);
 1277              		.loc 1 548 5 is_stmt 1 view .LVU340
 1278              	.LVL115:
 1279              	.LBB216:
 1280              	.LBI216:
  43:Middlewares/LVGL/GUI/lvgl/src/core/lv_obj_style_gen.h **** {
 1281              		.loc 2 43 26 view .LVU341
 1282              	.LBB217:
  45:Middlewares/LVGL/GUI/lvgl/src/core/lv_obj_style_gen.h ****     return (lv_coord_t)v.num;
 1283              		.loc 2 45 5 view .LVU342
  45:Middlewares/LVGL/GUI/lvgl/src/core/lv_obj_style_gen.h ****     return (lv_coord_t)v.num;
 1284              		.loc 2 45 26 is_stmt 0 view .LVU343
 1285 0002 41F20802 		movw	r2, #4104
 1286 0006 0021     		movs	r1, #0
 1287 0008 FFF7FEFF 		bl	lv_obj_get_style_prop
 1288              	.LVL116:
  46:Middlewares/LVGL/GUI/lvgl/src/core/lv_obj_style_gen.h **** }
 1289              		.loc 2 46 5 is_stmt 1 view .LVU344
  46:Middlewares/LVGL/GUI/lvgl/src/core/lv_obj_style_gen.h **** }
 1290              		.loc 2 46 5 is_stmt 0 view .LVU345
 1291              	.LBE217:
 1292              	.LBE216:
 549:Middlewares/LVGL/GUI/lvgl/src/core/lv_obj_pos.c **** }
 1293              		.loc 1 549 1 view .LVU346
ARM GAS  C:\Users\ADMINI~1\AppData\Local\Temp\ccVA75Tx.s 			page 46


 1294 000c 08BD     		pop	{r3, pc}
 1295              		.cfi_endproc
 1296              	.LFE182:
 1298              		.section	.text.lv_obj_get_width,"ax",%progbits
 1299              		.align	1
 1300              		.global	lv_obj_get_width
 1301              		.syntax unified
 1302              		.thumb
 1303              		.thumb_func
 1305              	lv_obj_get_width:
 1306              	.LVL117:
 1307              	.LFB183:
 550:Middlewares/LVGL/GUI/lvgl/src/core/lv_obj_pos.c **** 
 551:Middlewares/LVGL/GUI/lvgl/src/core/lv_obj_pos.c **** 
 552:Middlewares/LVGL/GUI/lvgl/src/core/lv_obj_pos.c **** lv_coord_t lv_obj_get_width(const lv_obj_t * obj)
 553:Middlewares/LVGL/GUI/lvgl/src/core/lv_obj_pos.c **** {
 1308              		.loc 1 553 1 is_stmt 1 view -0
 1309              		.cfi_startproc
 1310              		@ args = 0, pretend = 0, frame = 0
 1311              		@ frame_needed = 0, uses_anonymous_args = 0
 1312              		@ link register save eliminated.
 554:Middlewares/LVGL/GUI/lvgl/src/core/lv_obj_pos.c ****     LV_ASSERT_OBJ(obj, MY_CLASS);
 1313              		.loc 1 554 5 view .LVU348
 1314              		.loc 1 554 5 view .LVU349
 1315              		.loc 1 554 5 view .LVU350
 555:Middlewares/LVGL/GUI/lvgl/src/core/lv_obj_pos.c **** 
 556:Middlewares/LVGL/GUI/lvgl/src/core/lv_obj_pos.c ****     return lv_area_get_width(&obj->coords);
 1316              		.loc 1 556 5 view .LVU351
 1317              	.LBB218:
 1318              	.LBI218:
 116:Middlewares/LVGL/GUI/lvgl/src/core/../misc/../font/../misc/lv_area.h **** }
 117:Middlewares/LVGL/GUI/lvgl/src/core/../misc/../font/../misc/lv_area.h **** 
 118:Middlewares/LVGL/GUI/lvgl/src/core/../misc/../font/../misc/lv_area.h **** /**
 119:Middlewares/LVGL/GUI/lvgl/src/core/../misc/../font/../misc/lv_area.h ****  * Get the width of an area
 120:Middlewares/LVGL/GUI/lvgl/src/core/../misc/../font/../misc/lv_area.h ****  * @param area_p pointer to an area
 121:Middlewares/LVGL/GUI/lvgl/src/core/../misc/../font/../misc/lv_area.h ****  * @return the width of the area (if x1 == x2 -> width = 1)
 122:Middlewares/LVGL/GUI/lvgl/src/core/../misc/../font/../misc/lv_area.h ****  */
 123:Middlewares/LVGL/GUI/lvgl/src/core/../misc/../font/../misc/lv_area.h **** static inline lv_coord_t lv_area_get_width(const lv_area_t * area_p)
 1319              		.loc 3 123 26 view .LVU352
 1320              	.LBB219:
 124:Middlewares/LVGL/GUI/lvgl/src/core/../misc/../font/../misc/lv_area.h **** {
 125:Middlewares/LVGL/GUI/lvgl/src/core/../misc/../font/../misc/lv_area.h ****     return (lv_coord_t)(area_p->x2 - area_p->x1 + 1);
 1321              		.loc 3 125 5 view .LVU353
 1322              		.loc 3 125 31 is_stmt 0 view .LVU354
 1323 0000 C369     		ldr	r3, [r0, #28]
 1324              		.loc 3 125 44 view .LVU355
 1325 0002 4069     		ldr	r0, [r0, #20]
 1326              	.LVL118:
 1327              		.loc 3 125 36 view .LVU356
 1328 0004 181A     		subs	r0, r3, r0
 1329              	.LVL119:
 1330              		.loc 3 125 36 view .LVU357
 1331              	.LBE219:
 1332              	.LBE218:
 557:Middlewares/LVGL/GUI/lvgl/src/core/lv_obj_pos.c **** }
 1333              		.loc 1 557 1 view .LVU358
 1334 0006 0130     		adds	r0, r0, #1
ARM GAS  C:\Users\ADMINI~1\AppData\Local\Temp\ccVA75Tx.s 			page 47


 1335 0008 7047     		bx	lr
 1336              		.cfi_endproc
 1337              	.LFE183:
 1339              		.section	.text.lv_obj_get_x2,"ax",%progbits
 1340              		.align	1
 1341              		.global	lv_obj_get_x2
 1342              		.syntax unified
 1343              		.thumb
 1344              		.thumb_func
 1346              	lv_obj_get_x2:
 1347              	.LVL120:
 1348              	.LFB178:
 510:Middlewares/LVGL/GUI/lvgl/src/core/lv_obj_pos.c ****     LV_ASSERT_OBJ(obj, MY_CLASS);
 1349              		.loc 1 510 1 is_stmt 1 view -0
 1350              		.cfi_startproc
 1351              		@ args = 0, pretend = 0, frame = 0
 1352              		@ frame_needed = 0, uses_anonymous_args = 0
 510:Middlewares/LVGL/GUI/lvgl/src/core/lv_obj_pos.c ****     LV_ASSERT_OBJ(obj, MY_CLASS);
 1353              		.loc 1 510 1 is_stmt 0 view .LVU360
 1354 0000 38B5     		push	{r3, r4, r5, lr}
 1355              	.LCFI30:
 1356              		.cfi_def_cfa_offset 16
 1357              		.cfi_offset 3, -16
 1358              		.cfi_offset 4, -12
 1359              		.cfi_offset 5, -8
 1360              		.cfi_offset 14, -4
 1361 0002 0546     		mov	r5, r0
 511:Middlewares/LVGL/GUI/lvgl/src/core/lv_obj_pos.c **** 
 1362              		.loc 1 511 5 is_stmt 1 view .LVU361
 511:Middlewares/LVGL/GUI/lvgl/src/core/lv_obj_pos.c **** 
 1363              		.loc 1 511 5 view .LVU362
 511:Middlewares/LVGL/GUI/lvgl/src/core/lv_obj_pos.c **** 
 1364              		.loc 1 511 5 view .LVU363
 513:Middlewares/LVGL/GUI/lvgl/src/core/lv_obj_pos.c **** }
 1365              		.loc 1 513 5 view .LVU364
 513:Middlewares/LVGL/GUI/lvgl/src/core/lv_obj_pos.c **** }
 1366              		.loc 1 513 12 is_stmt 0 view .LVU365
 1367 0004 FFF7FEFF 		bl	lv_obj_get_x
 1368              	.LVL121:
 513:Middlewares/LVGL/GUI/lvgl/src/core/lv_obj_pos.c **** }
 1369              		.loc 1 513 12 view .LVU366
 1370 0008 0446     		mov	r4, r0
 513:Middlewares/LVGL/GUI/lvgl/src/core/lv_obj_pos.c **** }
 1371              		.loc 1 513 32 view .LVU367
 1372 000a 2846     		mov	r0, r5
 1373 000c FFF7FEFF 		bl	lv_obj_get_width
 1374              	.LVL122:
 514:Middlewares/LVGL/GUI/lvgl/src/core/lv_obj_pos.c **** 
 1375              		.loc 1 514 1 view .LVU368
 1376 0010 2044     		add	r0, r0, r4
 1377 0012 38BD     		pop	{r3, r4, r5, pc}
 514:Middlewares/LVGL/GUI/lvgl/src/core/lv_obj_pos.c **** 
 1378              		.loc 1 514 1 view .LVU369
 1379              		.cfi_endproc
 1380              	.LFE178:
 1382              		.section	.text.lv_obj_get_height,"ax",%progbits
 1383              		.align	1
ARM GAS  C:\Users\ADMINI~1\AppData\Local\Temp\ccVA75Tx.s 			page 48


 1384              		.global	lv_obj_get_height
 1385              		.syntax unified
 1386              		.thumb
 1387              		.thumb_func
 1389              	lv_obj_get_height:
 1390              	.LVL123:
 1391              	.LFB184:
 558:Middlewares/LVGL/GUI/lvgl/src/core/lv_obj_pos.c **** 
 559:Middlewares/LVGL/GUI/lvgl/src/core/lv_obj_pos.c **** lv_coord_t lv_obj_get_height(const lv_obj_t * obj)
 560:Middlewares/LVGL/GUI/lvgl/src/core/lv_obj_pos.c **** {
 1392              		.loc 1 560 1 is_stmt 1 view -0
 1393              		.cfi_startproc
 1394              		@ args = 0, pretend = 0, frame = 0
 1395              		@ frame_needed = 0, uses_anonymous_args = 0
 1396              		@ link register save eliminated.
 561:Middlewares/LVGL/GUI/lvgl/src/core/lv_obj_pos.c ****     LV_ASSERT_OBJ(obj, MY_CLASS);
 1397              		.loc 1 561 5 view .LVU371
 1398              		.loc 1 561 5 view .LVU372
 1399              		.loc 1 561 5 view .LVU373
 562:Middlewares/LVGL/GUI/lvgl/src/core/lv_obj_pos.c **** 
 563:Middlewares/LVGL/GUI/lvgl/src/core/lv_obj_pos.c ****     return lv_area_get_height(&obj->coords);
 1400              		.loc 1 563 5 view .LVU374
 1401              	.LBB220:
 1402              	.LBI220:
 126:Middlewares/LVGL/GUI/lvgl/src/core/../misc/../font/../misc/lv_area.h **** }
 127:Middlewares/LVGL/GUI/lvgl/src/core/../misc/../font/../misc/lv_area.h **** 
 128:Middlewares/LVGL/GUI/lvgl/src/core/../misc/../font/../misc/lv_area.h **** /**
 129:Middlewares/LVGL/GUI/lvgl/src/core/../misc/../font/../misc/lv_area.h ****  * Get the height of an area
 130:Middlewares/LVGL/GUI/lvgl/src/core/../misc/../font/../misc/lv_area.h ****  * @param area_p pointer to an area
 131:Middlewares/LVGL/GUI/lvgl/src/core/../misc/../font/../misc/lv_area.h ****  * @return the height of the area (if y1 == y2 -> height = 1)
 132:Middlewares/LVGL/GUI/lvgl/src/core/../misc/../font/../misc/lv_area.h ****  */
 133:Middlewares/LVGL/GUI/lvgl/src/core/../misc/../font/../misc/lv_area.h **** static inline lv_coord_t lv_area_get_height(const lv_area_t * area_p)
 1403              		.loc 3 133 26 view .LVU375
 1404              	.LBB221:
 134:Middlewares/LVGL/GUI/lvgl/src/core/../misc/../font/../misc/lv_area.h **** {
 135:Middlewares/LVGL/GUI/lvgl/src/core/../misc/../font/../misc/lv_area.h ****     return (lv_coord_t)(area_p->y2 - area_p->y1 + 1);
 1405              		.loc 3 135 5 view .LVU376
 1406              		.loc 3 135 31 is_stmt 0 view .LVU377
 1407 0000 036A     		ldr	r3, [r0, #32]
 1408              		.loc 3 135 44 view .LVU378
 1409 0002 8069     		ldr	r0, [r0, #24]
 1410              	.LVL124:
 1411              		.loc 3 135 36 view .LVU379
 1412 0004 181A     		subs	r0, r3, r0
 1413              	.LVL125:
 1414              		.loc 3 135 36 view .LVU380
 1415              	.LBE221:
 1416              	.LBE220:
 564:Middlewares/LVGL/GUI/lvgl/src/core/lv_obj_pos.c **** }
 1417              		.loc 1 564 1 view .LVU381
 1418 0006 0130     		adds	r0, r0, #1
 1419 0008 7047     		bx	lr
 1420              		.cfi_endproc
 1421              	.LFE184:
 1423              		.section	.text.lv_obj_get_y2,"ax",%progbits
 1424              		.align	1
 1425              		.global	lv_obj_get_y2
ARM GAS  C:\Users\ADMINI~1\AppData\Local\Temp\ccVA75Tx.s 			page 49


 1426              		.syntax unified
 1427              		.thumb
 1428              		.thumb_func
 1430              	lv_obj_get_y2:
 1431              	.LVL126:
 1432              	.LFB180:
 535:Middlewares/LVGL/GUI/lvgl/src/core/lv_obj_pos.c ****     LV_ASSERT_OBJ(obj, MY_CLASS);
 1433              		.loc 1 535 1 is_stmt 1 view -0
 1434              		.cfi_startproc
 1435              		@ args = 0, pretend = 0, frame = 0
 1436              		@ frame_needed = 0, uses_anonymous_args = 0
 535:Middlewares/LVGL/GUI/lvgl/src/core/lv_obj_pos.c ****     LV_ASSERT_OBJ(obj, MY_CLASS);
 1437              		.loc 1 535 1 is_stmt 0 view .LVU383
 1438 0000 38B5     		push	{r3, r4, r5, lr}
 1439              	.LCFI31:
 1440              		.cfi_def_cfa_offset 16
 1441              		.cfi_offset 3, -16
 1442              		.cfi_offset 4, -12
 1443              		.cfi_offset 5, -8
 1444              		.cfi_offset 14, -4
 1445 0002 0546     		mov	r5, r0
 536:Middlewares/LVGL/GUI/lvgl/src/core/lv_obj_pos.c **** 
 1446              		.loc 1 536 5 is_stmt 1 view .LVU384
 536:Middlewares/LVGL/GUI/lvgl/src/core/lv_obj_pos.c **** 
 1447              		.loc 1 536 5 view .LVU385
 536:Middlewares/LVGL/GUI/lvgl/src/core/lv_obj_pos.c **** 
 1448              		.loc 1 536 5 view .LVU386
 538:Middlewares/LVGL/GUI/lvgl/src/core/lv_obj_pos.c **** }
 1449              		.loc 1 538 5 view .LVU387
 538:Middlewares/LVGL/GUI/lvgl/src/core/lv_obj_pos.c **** }
 1450              		.loc 1 538 12 is_stmt 0 view .LVU388
 1451 0004 FFF7FEFF 		bl	lv_obj_get_y
 1452              	.LVL127:
 538:Middlewares/LVGL/GUI/lvgl/src/core/lv_obj_pos.c **** }
 1453              		.loc 1 538 12 view .LVU389
 1454 0008 0446     		mov	r4, r0
 538:Middlewares/LVGL/GUI/lvgl/src/core/lv_obj_pos.c **** }
 1455              		.loc 1 538 32 view .LVU390
 1456 000a 2846     		mov	r0, r5
 1457 000c FFF7FEFF 		bl	lv_obj_get_height
 1458              	.LVL128:
 539:Middlewares/LVGL/GUI/lvgl/src/core/lv_obj_pos.c **** 
 1459              		.loc 1 539 1 view .LVU391
 1460 0010 2044     		add	r0, r0, r4
 1461 0012 38BD     		pop	{r3, r4, r5, pc}
 539:Middlewares/LVGL/GUI/lvgl/src/core/lv_obj_pos.c **** 
 1462              		.loc 1 539 1 view .LVU392
 1463              		.cfi_endproc
 1464              	.LFE180:
 1466              		.section	.text.lv_obj_get_content_width,"ax",%progbits
 1467              		.align	1
 1468              		.global	lv_obj_get_content_width
 1469              		.syntax unified
 1470              		.thumb
 1471              		.thumb_func
 1473              	lv_obj_get_content_width:
 1474              	.LVL129:
ARM GAS  C:\Users\ADMINI~1\AppData\Local\Temp\ccVA75Tx.s 			page 50


 1475              	.LFB185:
 565:Middlewares/LVGL/GUI/lvgl/src/core/lv_obj_pos.c **** 
 566:Middlewares/LVGL/GUI/lvgl/src/core/lv_obj_pos.c **** lv_coord_t lv_obj_get_content_width(const lv_obj_t * obj)
 567:Middlewares/LVGL/GUI/lvgl/src/core/lv_obj_pos.c **** {
 1476              		.loc 1 567 1 is_stmt 1 view -0
 1477              		.cfi_startproc
 1478              		@ args = 0, pretend = 0, frame = 0
 1479              		@ frame_needed = 0, uses_anonymous_args = 0
 1480              		.loc 1 567 1 is_stmt 0 view .LVU394
 1481 0000 F8B5     		push	{r3, r4, r5, r6, r7, lr}
 1482              	.LCFI32:
 1483              		.cfi_def_cfa_offset 24
 1484              		.cfi_offset 3, -24
 1485              		.cfi_offset 4, -20
 1486              		.cfi_offset 5, -16
 1487              		.cfi_offset 6, -12
 1488              		.cfi_offset 7, -8
 1489              		.cfi_offset 14, -4
 1490 0002 0446     		mov	r4, r0
 568:Middlewares/LVGL/GUI/lvgl/src/core/lv_obj_pos.c ****     LV_ASSERT_OBJ(obj, MY_CLASS);
 1491              		.loc 1 568 5 is_stmt 1 view .LVU395
 1492              		.loc 1 568 5 view .LVU396
 1493              		.loc 1 568 5 view .LVU397
 569:Middlewares/LVGL/GUI/lvgl/src/core/lv_obj_pos.c **** 
 570:Middlewares/LVGL/GUI/lvgl/src/core/lv_obj_pos.c ****     lv_coord_t left = lv_obj_get_style_pad_left(obj, LV_PART_MAIN);
 1494              		.loc 1 570 5 view .LVU398
 1495              	.LVL130:
 1496              	.LBB222:
 1497              	.LBI222:
 103:Middlewares/LVGL/GUI/lvgl/src/core/lv_obj_style_gen.h **** {
 1498              		.loc 2 103 26 view .LVU399
 1499              	.LBB223:
 105:Middlewares/LVGL/GUI/lvgl/src/core/lv_obj_style_gen.h ****     return (lv_coord_t)v.num;
 1500              		.loc 2 105 5 view .LVU400
 105:Middlewares/LVGL/GUI/lvgl/src/core/lv_obj_style_gen.h ****     return (lv_coord_t)v.num;
 1501              		.loc 2 105 26 is_stmt 0 view .LVU401
 1502 0004 41F61202 		movw	r2, #6162
 1503 0008 0021     		movs	r1, #0
 1504 000a FFF7FEFF 		bl	lv_obj_get_style_prop
 1505              	.LVL131:
 105:Middlewares/LVGL/GUI/lvgl/src/core/lv_obj_style_gen.h ****     return (lv_coord_t)v.num;
 1506              		.loc 2 105 26 view .LVU402
 1507 000e 0746     		mov	r7, r0
 1508              	.LVL132:
 106:Middlewares/LVGL/GUI/lvgl/src/core/lv_obj_style_gen.h **** }
 1509              		.loc 2 106 5 is_stmt 1 view .LVU403
 106:Middlewares/LVGL/GUI/lvgl/src/core/lv_obj_style_gen.h **** }
 1510              		.loc 2 106 5 is_stmt 0 view .LVU404
 1511              	.LBE223:
 1512              	.LBE222:
 571:Middlewares/LVGL/GUI/lvgl/src/core/lv_obj_pos.c ****     lv_coord_t right = lv_obj_get_style_pad_right(obj, LV_PART_MAIN);
 1513              		.loc 1 571 5 is_stmt 1 view .LVU405
 1514              	.LBB224:
 1515              	.LBI224:
 109:Middlewares/LVGL/GUI/lvgl/src/core/lv_obj_style_gen.h **** {
 1516              		.loc 2 109 26 view .LVU406
 1517              	.LBB225:
ARM GAS  C:\Users\ADMINI~1\AppData\Local\Temp\ccVA75Tx.s 			page 51


 111:Middlewares/LVGL/GUI/lvgl/src/core/lv_obj_style_gen.h ****     return (lv_coord_t)v.num;
 1518              		.loc 2 111 5 view .LVU407
 111:Middlewares/LVGL/GUI/lvgl/src/core/lv_obj_style_gen.h ****     return (lv_coord_t)v.num;
 1519              		.loc 2 111 26 is_stmt 0 view .LVU408
 1520 0010 41F61302 		movw	r2, #6163
 1521 0014 0021     		movs	r1, #0
 1522 0016 2046     		mov	r0, r4
 1523              	.LVL133:
 111:Middlewares/LVGL/GUI/lvgl/src/core/lv_obj_style_gen.h ****     return (lv_coord_t)v.num;
 1524              		.loc 2 111 26 view .LVU409
 1525 0018 FFF7FEFF 		bl	lv_obj_get_style_prop
 1526              	.LVL134:
 1527 001c 0646     		mov	r6, r0
 1528              	.LVL135:
 112:Middlewares/LVGL/GUI/lvgl/src/core/lv_obj_style_gen.h **** }
 1529              		.loc 2 112 5 is_stmt 1 view .LVU410
 112:Middlewares/LVGL/GUI/lvgl/src/core/lv_obj_style_gen.h **** }
 1530              		.loc 2 112 5 is_stmt 0 view .LVU411
 1531              	.LBE225:
 1532              	.LBE224:
 572:Middlewares/LVGL/GUI/lvgl/src/core/lv_obj_pos.c ****     lv_coord_t border_width = lv_obj_get_style_border_width(obj, LV_PART_MAIN);
 1533              		.loc 1 572 5 is_stmt 1 view .LVU412
 1534              	.LBB226:
 1535              	.LBI226:
 241:Middlewares/LVGL/GUI/lvgl/src/core/lv_obj_style_gen.h **** {
 1536              		.loc 2 241 26 view .LVU413
 1537              	.LBB227:
 243:Middlewares/LVGL/GUI/lvgl/src/core/lv_obj_style_gen.h ****     return (lv_coord_t)v.num;
 1538              		.loc 2 243 5 view .LVU414
 243:Middlewares/LVGL/GUI/lvgl/src/core/lv_obj_style_gen.h ****     return (lv_coord_t)v.num;
 1539              		.loc 2 243 26 is_stmt 0 view .LVU415
 1540 001e 41F23202 		movw	r2, #4146
 1541 0022 0021     		movs	r1, #0
 1542 0024 2046     		mov	r0, r4
 1543              	.LVL136:
 243:Middlewares/LVGL/GUI/lvgl/src/core/lv_obj_style_gen.h ****     return (lv_coord_t)v.num;
 1544              		.loc 2 243 26 view .LVU416
 1545 0026 FFF7FEFF 		bl	lv_obj_get_style_prop
 1546              	.LVL137:
 1547 002a 0546     		mov	r5, r0
 1548              	.LVL138:
 244:Middlewares/LVGL/GUI/lvgl/src/core/lv_obj_style_gen.h **** }
 1549              		.loc 2 244 5 is_stmt 1 view .LVU417
 244:Middlewares/LVGL/GUI/lvgl/src/core/lv_obj_style_gen.h **** }
 1550              		.loc 2 244 5 is_stmt 0 view .LVU418
 1551              	.LBE227:
 1552              	.LBE226:
 573:Middlewares/LVGL/GUI/lvgl/src/core/lv_obj_pos.c **** 
 574:Middlewares/LVGL/GUI/lvgl/src/core/lv_obj_pos.c ****     return lv_obj_get_width(obj) - left - right - 2 * border_width;
 1553              		.loc 1 574 5 is_stmt 1 view .LVU419
 1554              		.loc 1 574 12 is_stmt 0 view .LVU420
 1555 002c 2046     		mov	r0, r4
 1556              	.LVL139:
 1557              		.loc 1 574 12 view .LVU421
 1558 002e FFF7FEFF 		bl	lv_obj_get_width
 1559              	.LVL140:
 1560              		.loc 1 574 34 view .LVU422
ARM GAS  C:\Users\ADMINI~1\AppData\Local\Temp\ccVA75Tx.s 			page 52


 1561 0032 C31B     		subs	r3, r0, r7
 1562              		.loc 1 574 41 view .LVU423
 1563 0034 9B1B     		subs	r3, r3, r6
 575:Middlewares/LVGL/GUI/lvgl/src/core/lv_obj_pos.c **** }
 1564              		.loc 1 575 1 view .LVU424
 1565 0036 A3EB4500 		sub	r0, r3, r5, lsl #1
 1566 003a F8BD     		pop	{r3, r4, r5, r6, r7, pc}
 1567              		.loc 1 575 1 view .LVU425
 1568              		.cfi_endproc
 1569              	.LFE185:
 1571              		.section	.text.lv_obj_get_content_height,"ax",%progbits
 1572              		.align	1
 1573              		.global	lv_obj_get_content_height
 1574              		.syntax unified
 1575              		.thumb
 1576              		.thumb_func
 1578              	lv_obj_get_content_height:
 1579              	.LVL141:
 1580              	.LFB186:
 576:Middlewares/LVGL/GUI/lvgl/src/core/lv_obj_pos.c **** 
 577:Middlewares/LVGL/GUI/lvgl/src/core/lv_obj_pos.c **** lv_coord_t lv_obj_get_content_height(const lv_obj_t * obj)
 578:Middlewares/LVGL/GUI/lvgl/src/core/lv_obj_pos.c **** {
 1581              		.loc 1 578 1 is_stmt 1 view -0
 1582              		.cfi_startproc
 1583              		@ args = 0, pretend = 0, frame = 0
 1584              		@ frame_needed = 0, uses_anonymous_args = 0
 1585              		.loc 1 578 1 is_stmt 0 view .LVU427
 1586 0000 F8B5     		push	{r3, r4, r5, r6, r7, lr}
 1587              	.LCFI33:
 1588              		.cfi_def_cfa_offset 24
 1589              		.cfi_offset 3, -24
 1590              		.cfi_offset 4, -20
 1591              		.cfi_offset 5, -16
 1592              		.cfi_offset 6, -12
 1593              		.cfi_offset 7, -8
 1594              		.cfi_offset 14, -4
 1595 0002 0446     		mov	r4, r0
 579:Middlewares/LVGL/GUI/lvgl/src/core/lv_obj_pos.c ****     LV_ASSERT_OBJ(obj, MY_CLASS);
 1596              		.loc 1 579 5 is_stmt 1 view .LVU428
 1597              		.loc 1 579 5 view .LVU429
 1598              		.loc 1 579 5 view .LVU430
 580:Middlewares/LVGL/GUI/lvgl/src/core/lv_obj_pos.c **** 
 581:Middlewares/LVGL/GUI/lvgl/src/core/lv_obj_pos.c ****     lv_coord_t top = lv_obj_get_style_pad_top(obj, LV_PART_MAIN);
 1599              		.loc 1 581 5 view .LVU431
 1600              	.LVL142:
 1601              	.LBB228:
 1602              	.LBI228:
  91:Middlewares/LVGL/GUI/lvgl/src/core/lv_obj_style_gen.h **** {
 1603              		.loc 2 91 26 view .LVU432
 1604              	.LBB229:
  93:Middlewares/LVGL/GUI/lvgl/src/core/lv_obj_style_gen.h ****     return (lv_coord_t)v.num;
 1605              		.loc 2 93 5 view .LVU433
  93:Middlewares/LVGL/GUI/lvgl/src/core/lv_obj_style_gen.h ****     return (lv_coord_t)v.num;
 1606              		.loc 2 93 26 is_stmt 0 view .LVU434
 1607 0004 41F61002 		movw	r2, #6160
 1608 0008 0021     		movs	r1, #0
 1609 000a FFF7FEFF 		bl	lv_obj_get_style_prop
ARM GAS  C:\Users\ADMINI~1\AppData\Local\Temp\ccVA75Tx.s 			page 53


 1610              	.LVL143:
  93:Middlewares/LVGL/GUI/lvgl/src/core/lv_obj_style_gen.h ****     return (lv_coord_t)v.num;
 1611              		.loc 2 93 26 view .LVU435
 1612 000e 0746     		mov	r7, r0
 1613              	.LVL144:
  94:Middlewares/LVGL/GUI/lvgl/src/core/lv_obj_style_gen.h **** }
 1614              		.loc 2 94 5 is_stmt 1 view .LVU436
  94:Middlewares/LVGL/GUI/lvgl/src/core/lv_obj_style_gen.h **** }
 1615              		.loc 2 94 5 is_stmt 0 view .LVU437
 1616              	.LBE229:
 1617              	.LBE228:
 582:Middlewares/LVGL/GUI/lvgl/src/core/lv_obj_pos.c ****     lv_coord_t bottom = lv_obj_get_style_pad_bottom(obj, LV_PART_MAIN);
 1618              		.loc 1 582 5 is_stmt 1 view .LVU438
 1619              	.LBB230:
 1620              	.LBI230:
  97:Middlewares/LVGL/GUI/lvgl/src/core/lv_obj_style_gen.h **** {
 1621              		.loc 2 97 26 view .LVU439
 1622              	.LBB231:
  99:Middlewares/LVGL/GUI/lvgl/src/core/lv_obj_style_gen.h ****     return (lv_coord_t)v.num;
 1623              		.loc 2 99 5 view .LVU440
  99:Middlewares/LVGL/GUI/lvgl/src/core/lv_obj_style_gen.h ****     return (lv_coord_t)v.num;
 1624              		.loc 2 99 26 is_stmt 0 view .LVU441
 1625 0010 41F61102 		movw	r2, #6161
 1626 0014 0021     		movs	r1, #0
 1627 0016 2046     		mov	r0, r4
 1628              	.LVL145:
  99:Middlewares/LVGL/GUI/lvgl/src/core/lv_obj_style_gen.h ****     return (lv_coord_t)v.num;
 1629              		.loc 2 99 26 view .LVU442
 1630 0018 FFF7FEFF 		bl	lv_obj_get_style_prop
 1631              	.LVL146:
 1632 001c 0646     		mov	r6, r0
 1633              	.LVL147:
 100:Middlewares/LVGL/GUI/lvgl/src/core/lv_obj_style_gen.h **** }
 1634              		.loc 2 100 5 is_stmt 1 view .LVU443
 100:Middlewares/LVGL/GUI/lvgl/src/core/lv_obj_style_gen.h **** }
 1635              		.loc 2 100 5 is_stmt 0 view .LVU444
 1636              	.LBE231:
 1637              	.LBE230:
 583:Middlewares/LVGL/GUI/lvgl/src/core/lv_obj_pos.c ****     lv_coord_t border_width = lv_obj_get_style_border_width(obj, LV_PART_MAIN);
 1638              		.loc 1 583 5 is_stmt 1 view .LVU445
 1639              	.LBB232:
 1640              	.LBI232:
 241:Middlewares/LVGL/GUI/lvgl/src/core/lv_obj_style_gen.h **** {
 1641              		.loc 2 241 26 view .LVU446
 1642              	.LBB233:
 243:Middlewares/LVGL/GUI/lvgl/src/core/lv_obj_style_gen.h ****     return (lv_coord_t)v.num;
 1643              		.loc 2 243 5 view .LVU447
 243:Middlewares/LVGL/GUI/lvgl/src/core/lv_obj_style_gen.h ****     return (lv_coord_t)v.num;
 1644              		.loc 2 243 26 is_stmt 0 view .LVU448
 1645 001e 41F23202 		movw	r2, #4146
 1646 0022 0021     		movs	r1, #0
 1647 0024 2046     		mov	r0, r4
 1648              	.LVL148:
 243:Middlewares/LVGL/GUI/lvgl/src/core/lv_obj_style_gen.h ****     return (lv_coord_t)v.num;
 1649              		.loc 2 243 26 view .LVU449
 1650 0026 FFF7FEFF 		bl	lv_obj_get_style_prop
 1651              	.LVL149:
ARM GAS  C:\Users\ADMINI~1\AppData\Local\Temp\ccVA75Tx.s 			page 54


 1652 002a 0546     		mov	r5, r0
 1653              	.LVL150:
 244:Middlewares/LVGL/GUI/lvgl/src/core/lv_obj_style_gen.h **** }
 1654              		.loc 2 244 5 is_stmt 1 view .LVU450
 244:Middlewares/LVGL/GUI/lvgl/src/core/lv_obj_style_gen.h **** }
 1655              		.loc 2 244 5 is_stmt 0 view .LVU451
 1656              	.LBE233:
 1657              	.LBE232:
 584:Middlewares/LVGL/GUI/lvgl/src/core/lv_obj_pos.c **** 
 585:Middlewares/LVGL/GUI/lvgl/src/core/lv_obj_pos.c ****     return lv_obj_get_height(obj) - top - bottom - 2 * border_width;
 1658              		.loc 1 585 5 is_stmt 1 view .LVU452
 1659              		.loc 1 585 12 is_stmt 0 view .LVU453
 1660 002c 2046     		mov	r0, r4
 1661              	.LVL151:
 1662              		.loc 1 585 12 view .LVU454
 1663 002e FFF7FEFF 		bl	lv_obj_get_height
 1664              	.LVL152:
 1665              		.loc 1 585 35 view .LVU455
 1666 0032 C31B     		subs	r3, r0, r7
 1667              		.loc 1 585 41 view .LVU456
 1668 0034 9B1B     		subs	r3, r3, r6
 586:Middlewares/LVGL/GUI/lvgl/src/core/lv_obj_pos.c **** }
 1669              		.loc 1 586 1 view .LVU457
 1670 0036 A3EB4500 		sub	r0, r3, r5, lsl #1
 1671 003a F8BD     		pop	{r3, r4, r5, r6, r7, pc}
 1672              		.loc 1 586 1 view .LVU458
 1673              		.cfi_endproc
 1674              	.LFE186:
 1676              		.section	.text.lv_obj_get_content_coords,"ax",%progbits
 1677              		.align	1
 1678              		.global	lv_obj_get_content_coords
 1679              		.syntax unified
 1680              		.thumb
 1681              		.thumb_func
 1683              	lv_obj_get_content_coords:
 1684              	.LVL153:
 1685              	.LFB187:
 587:Middlewares/LVGL/GUI/lvgl/src/core/lv_obj_pos.c **** 
 588:Middlewares/LVGL/GUI/lvgl/src/core/lv_obj_pos.c **** void lv_obj_get_content_coords(const lv_obj_t * obj, lv_area_t * area)
 589:Middlewares/LVGL/GUI/lvgl/src/core/lv_obj_pos.c **** {
 1686              		.loc 1 589 1 is_stmt 1 view -0
 1687              		.cfi_startproc
 1688              		@ args = 0, pretend = 0, frame = 0
 1689              		@ frame_needed = 0, uses_anonymous_args = 0
 1690              		.loc 1 589 1 is_stmt 0 view .LVU460
 1691 0000 70B5     		push	{r4, r5, r6, lr}
 1692              	.LCFI34:
 1693              		.cfi_def_cfa_offset 16
 1694              		.cfi_offset 4, -16
 1695              		.cfi_offset 5, -12
 1696              		.cfi_offset 6, -8
 1697              		.cfi_offset 14, -4
 1698 0002 0546     		mov	r5, r0
 1699 0004 0C46     		mov	r4, r1
 590:Middlewares/LVGL/GUI/lvgl/src/core/lv_obj_pos.c ****     LV_ASSERT_OBJ(obj, MY_CLASS);
 1700              		.loc 1 590 5 is_stmt 1 view .LVU461
 1701              		.loc 1 590 5 view .LVU462
ARM GAS  C:\Users\ADMINI~1\AppData\Local\Temp\ccVA75Tx.s 			page 55


 1702              		.loc 1 590 5 view .LVU463
 591:Middlewares/LVGL/GUI/lvgl/src/core/lv_obj_pos.c ****     lv_coord_t border_width = lv_obj_get_style_border_width(obj, LV_PART_MAIN);
 1703              		.loc 1 591 5 view .LVU464
 1704              	.LVL154:
 1705              	.LBB234:
 1706              	.LBI234:
 241:Middlewares/LVGL/GUI/lvgl/src/core/lv_obj_style_gen.h **** {
 1707              		.loc 2 241 26 view .LVU465
 1708              	.LBB235:
 243:Middlewares/LVGL/GUI/lvgl/src/core/lv_obj_style_gen.h ****     return (lv_coord_t)v.num;
 1709              		.loc 2 243 5 view .LVU466
 243:Middlewares/LVGL/GUI/lvgl/src/core/lv_obj_style_gen.h ****     return (lv_coord_t)v.num;
 1710              		.loc 2 243 26 is_stmt 0 view .LVU467
 1711 0006 41F23202 		movw	r2, #4146
 1712 000a 0021     		movs	r1, #0
 1713              	.LVL155:
 243:Middlewares/LVGL/GUI/lvgl/src/core/lv_obj_style_gen.h ****     return (lv_coord_t)v.num;
 1714              		.loc 2 243 26 view .LVU468
 1715 000c FFF7FEFF 		bl	lv_obj_get_style_prop
 1716              	.LVL156:
 243:Middlewares/LVGL/GUI/lvgl/src/core/lv_obj_style_gen.h ****     return (lv_coord_t)v.num;
 1717              		.loc 2 243 26 view .LVU469
 1718 0010 0646     		mov	r6, r0
 1719              	.LVL157:
 244:Middlewares/LVGL/GUI/lvgl/src/core/lv_obj_style_gen.h **** }
 1720              		.loc 2 244 5 is_stmt 1 view .LVU470
 244:Middlewares/LVGL/GUI/lvgl/src/core/lv_obj_style_gen.h **** }
 1721              		.loc 2 244 5 is_stmt 0 view .LVU471
 1722              	.LBE235:
 1723              	.LBE234:
 592:Middlewares/LVGL/GUI/lvgl/src/core/lv_obj_pos.c **** 
 593:Middlewares/LVGL/GUI/lvgl/src/core/lv_obj_pos.c ****     lv_obj_get_coords(obj, area);
 1724              		.loc 1 593 5 is_stmt 1 view .LVU472
 1725 0012 2146     		mov	r1, r4
 1726 0014 2846     		mov	r0, r5
 1727              	.LVL158:
 1728              		.loc 1 593 5 is_stmt 0 view .LVU473
 1729 0016 FFF7FEFF 		bl	lv_obj_get_coords
 1730              	.LVL159:
 594:Middlewares/LVGL/GUI/lvgl/src/core/lv_obj_pos.c ****     lv_area_increase(area, -border_width, -border_width);
 1731              		.loc 1 594 5 is_stmt 1 view .LVU474
 1732 001a 7142     		rsbs	r1, r6, #0
 1733 001c 0A46     		mov	r2, r1
 1734 001e 2046     		mov	r0, r4
 1735 0020 FFF7FEFF 		bl	lv_area_increase
 1736              	.LVL160:
 595:Middlewares/LVGL/GUI/lvgl/src/core/lv_obj_pos.c ****     area->x1 += lv_obj_get_style_pad_left(obj, LV_PART_MAIN);
 1737              		.loc 1 595 5 view .LVU475
 1738              	.LBB236:
 1739              	.LBI236:
 103:Middlewares/LVGL/GUI/lvgl/src/core/lv_obj_style_gen.h **** {
 1740              		.loc 2 103 26 view .LVU476
 1741              	.LBB237:
 105:Middlewares/LVGL/GUI/lvgl/src/core/lv_obj_style_gen.h ****     return (lv_coord_t)v.num;
 1742              		.loc 2 105 5 view .LVU477
 105:Middlewares/LVGL/GUI/lvgl/src/core/lv_obj_style_gen.h ****     return (lv_coord_t)v.num;
 1743              		.loc 2 105 26 is_stmt 0 view .LVU478
ARM GAS  C:\Users\ADMINI~1\AppData\Local\Temp\ccVA75Tx.s 			page 56


 1744 0024 41F61202 		movw	r2, #6162
 1745 0028 0021     		movs	r1, #0
 1746 002a 2846     		mov	r0, r5
 1747 002c FFF7FEFF 		bl	lv_obj_get_style_prop
 1748              	.LVL161:
 106:Middlewares/LVGL/GUI/lvgl/src/core/lv_obj_style_gen.h **** }
 1749              		.loc 2 106 5 is_stmt 1 view .LVU479
 106:Middlewares/LVGL/GUI/lvgl/src/core/lv_obj_style_gen.h **** }
 1750              		.loc 2 106 5 is_stmt 0 view .LVU480
 1751              	.LBE237:
 1752              	.LBE236:
 1753              		.loc 1 595 14 view .LVU481
 1754 0030 2368     		ldr	r3, [r4]
 1755 0032 0344     		add	r3, r3, r0
 1756 0034 2360     		str	r3, [r4]
 596:Middlewares/LVGL/GUI/lvgl/src/core/lv_obj_pos.c ****     area->x2 -= lv_obj_get_style_pad_right(obj, LV_PART_MAIN);
 1757              		.loc 1 596 5 is_stmt 1 view .LVU482
 1758              	.LVL162:
 1759              	.LBB238:
 1760              	.LBI238:
 109:Middlewares/LVGL/GUI/lvgl/src/core/lv_obj_style_gen.h **** {
 1761              		.loc 2 109 26 view .LVU483
 1762              	.LBB239:
 111:Middlewares/LVGL/GUI/lvgl/src/core/lv_obj_style_gen.h ****     return (lv_coord_t)v.num;
 1763              		.loc 2 111 5 view .LVU484
 111:Middlewares/LVGL/GUI/lvgl/src/core/lv_obj_style_gen.h ****     return (lv_coord_t)v.num;
 1764              		.loc 2 111 26 is_stmt 0 view .LVU485
 1765 0036 41F61302 		movw	r2, #6163
 1766 003a 0021     		movs	r1, #0
 1767 003c 2846     		mov	r0, r5
 1768 003e FFF7FEFF 		bl	lv_obj_get_style_prop
 1769              	.LVL163:
 112:Middlewares/LVGL/GUI/lvgl/src/core/lv_obj_style_gen.h **** }
 1770              		.loc 2 112 5 is_stmt 1 view .LVU486
 112:Middlewares/LVGL/GUI/lvgl/src/core/lv_obj_style_gen.h **** }
 1771              		.loc 2 112 5 is_stmt 0 view .LVU487
 1772              	.LBE239:
 1773              	.LBE238:
 1774              		.loc 1 596 14 view .LVU488
 1775 0042 A368     		ldr	r3, [r4, #8]
 1776 0044 1B1A     		subs	r3, r3, r0
 1777 0046 A360     		str	r3, [r4, #8]
 597:Middlewares/LVGL/GUI/lvgl/src/core/lv_obj_pos.c ****     area->y1 += lv_obj_get_style_pad_top(obj, LV_PART_MAIN);
 1778              		.loc 1 597 5 is_stmt 1 view .LVU489
 1779              	.LVL164:
 1780              	.LBB240:
 1781              	.LBI240:
  91:Middlewares/LVGL/GUI/lvgl/src/core/lv_obj_style_gen.h **** {
 1782              		.loc 2 91 26 view .LVU490
 1783              	.LBB241:
  93:Middlewares/LVGL/GUI/lvgl/src/core/lv_obj_style_gen.h ****     return (lv_coord_t)v.num;
 1784              		.loc 2 93 5 view .LVU491
  93:Middlewares/LVGL/GUI/lvgl/src/core/lv_obj_style_gen.h ****     return (lv_coord_t)v.num;
 1785              		.loc 2 93 26 is_stmt 0 view .LVU492
 1786 0048 41F61002 		movw	r2, #6160
 1787 004c 0021     		movs	r1, #0
 1788 004e 2846     		mov	r0, r5
ARM GAS  C:\Users\ADMINI~1\AppData\Local\Temp\ccVA75Tx.s 			page 57


 1789 0050 FFF7FEFF 		bl	lv_obj_get_style_prop
 1790              	.LVL165:
  94:Middlewares/LVGL/GUI/lvgl/src/core/lv_obj_style_gen.h **** }
 1791              		.loc 2 94 5 is_stmt 1 view .LVU493
  94:Middlewares/LVGL/GUI/lvgl/src/core/lv_obj_style_gen.h **** }
 1792              		.loc 2 94 5 is_stmt 0 view .LVU494
 1793              	.LBE241:
 1794              	.LBE240:
 1795              		.loc 1 597 14 view .LVU495
 1796 0054 6368     		ldr	r3, [r4, #4]
 1797 0056 0344     		add	r3, r3, r0
 1798 0058 6360     		str	r3, [r4, #4]
 598:Middlewares/LVGL/GUI/lvgl/src/core/lv_obj_pos.c ****     area->y2 -= lv_obj_get_style_pad_bottom(obj, LV_PART_MAIN);
 1799              		.loc 1 598 5 is_stmt 1 view .LVU496
 1800              	.LVL166:
 1801              	.LBB242:
 1802              	.LBI242:
  97:Middlewares/LVGL/GUI/lvgl/src/core/lv_obj_style_gen.h **** {
 1803              		.loc 2 97 26 view .LVU497
 1804              	.LBB243:
  99:Middlewares/LVGL/GUI/lvgl/src/core/lv_obj_style_gen.h ****     return (lv_coord_t)v.num;
 1805              		.loc 2 99 5 view .LVU498
  99:Middlewares/LVGL/GUI/lvgl/src/core/lv_obj_style_gen.h ****     return (lv_coord_t)v.num;
 1806              		.loc 2 99 26 is_stmt 0 view .LVU499
 1807 005a 41F61102 		movw	r2, #6161
 1808 005e 0021     		movs	r1, #0
 1809 0060 2846     		mov	r0, r5
 1810 0062 FFF7FEFF 		bl	lv_obj_get_style_prop
 1811              	.LVL167:
 100:Middlewares/LVGL/GUI/lvgl/src/core/lv_obj_style_gen.h **** }
 1812              		.loc 2 100 5 is_stmt 1 view .LVU500
 100:Middlewares/LVGL/GUI/lvgl/src/core/lv_obj_style_gen.h **** }
 1813              		.loc 2 100 5 is_stmt 0 view .LVU501
 1814              	.LBE243:
 1815              	.LBE242:
 1816              		.loc 1 598 14 view .LVU502
 1817 0066 E368     		ldr	r3, [r4, #12]
 1818 0068 1B1A     		subs	r3, r3, r0
 1819 006a E360     		str	r3, [r4, #12]
 599:Middlewares/LVGL/GUI/lvgl/src/core/lv_obj_pos.c **** 
 600:Middlewares/LVGL/GUI/lvgl/src/core/lv_obj_pos.c **** }
 1820              		.loc 1 600 1 view .LVU503
 1821 006c 70BD     		pop	{r4, r5, r6, pc}
 1822              		.loc 1 600 1 view .LVU504
 1823              		.cfi_endproc
 1824              	.LFE187:
 1826              		.section	.text.lv_obj_get_self_width,"ax",%progbits
 1827              		.align	1
 1828              		.global	lv_obj_get_self_width
 1829              		.syntax unified
 1830              		.thumb
 1831              		.thumb_func
 1833              	lv_obj_get_self_width:
 1834              	.LVL168:
 1835              	.LFB188:
 601:Middlewares/LVGL/GUI/lvgl/src/core/lv_obj_pos.c **** 
 602:Middlewares/LVGL/GUI/lvgl/src/core/lv_obj_pos.c **** lv_coord_t lv_obj_get_self_width(const lv_obj_t * obj)
ARM GAS  C:\Users\ADMINI~1\AppData\Local\Temp\ccVA75Tx.s 			page 58


 603:Middlewares/LVGL/GUI/lvgl/src/core/lv_obj_pos.c **** {
 1836              		.loc 1 603 1 is_stmt 1 view -0
 1837              		.cfi_startproc
 1838              		@ args = 0, pretend = 0, frame = 8
 1839              		@ frame_needed = 0, uses_anonymous_args = 0
 1840              		.loc 1 603 1 is_stmt 0 view .LVU506
 1841 0000 00B5     		push	{lr}
 1842              	.LCFI35:
 1843              		.cfi_def_cfa_offset 4
 1844              		.cfi_offset 14, -4
 1845 0002 83B0     		sub	sp, sp, #12
 1846              	.LCFI36:
 1847              		.cfi_def_cfa_offset 16
 604:Middlewares/LVGL/GUI/lvgl/src/core/lv_obj_pos.c ****     lv_point_t p = {0, LV_COORD_MIN};
 1848              		.loc 1 604 5 is_stmt 1 view .LVU507
 1849              		.loc 1 604 16 is_stmt 0 view .LVU508
 1850 0004 0023     		movs	r3, #0
 1851 0006 0093     		str	r3, [sp]
 1852 0008 044B     		ldr	r3, .L82
 1853 000a 0193     		str	r3, [sp, #4]
 605:Middlewares/LVGL/GUI/lvgl/src/core/lv_obj_pos.c ****     lv_event_send((lv_obj_t *)obj, LV_EVENT_GET_SELF_SIZE, &p);
 1854              		.loc 1 605 5 is_stmt 1 view .LVU509
 1855 000c 6A46     		mov	r2, sp
 1856 000e 2C21     		movs	r1, #44
 1857 0010 FFF7FEFF 		bl	lv_event_send
 1858              	.LVL169:
 606:Middlewares/LVGL/GUI/lvgl/src/core/lv_obj_pos.c ****     return p.x;
 1859              		.loc 1 606 5 view .LVU510
 607:Middlewares/LVGL/GUI/lvgl/src/core/lv_obj_pos.c **** }
 1860              		.loc 1 607 1 is_stmt 0 view .LVU511
 1861 0014 0098     		ldr	r0, [sp]
 1862 0016 03B0     		add	sp, sp, #12
 1863              	.LCFI37:
 1864              		.cfi_def_cfa_offset 4
 1865              		@ sp needed
 1866 0018 5DF804FB 		ldr	pc, [sp], #4
 1867              	.L83:
 1868              		.align	2
 1869              	.L82:
 1870 001c 010000E0 		.word	-536870911
 1871              		.cfi_endproc
 1872              	.LFE188:
 1874              		.section	.text.calc_content_width,"ax",%progbits
 1875              		.align	1
 1876              		.syntax unified
 1877              		.thumb
 1878              		.thumb_func
 1880              	calc_content_width:
 1881              	.LVL170:
 1882              	.LFB203:
 608:Middlewares/LVGL/GUI/lvgl/src/core/lv_obj_pos.c **** 
 609:Middlewares/LVGL/GUI/lvgl/src/core/lv_obj_pos.c **** lv_coord_t lv_obj_get_self_height(const lv_obj_t * obj)
 610:Middlewares/LVGL/GUI/lvgl/src/core/lv_obj_pos.c **** {
 611:Middlewares/LVGL/GUI/lvgl/src/core/lv_obj_pos.c ****     lv_point_t p = {LV_COORD_MIN, 0};
 612:Middlewares/LVGL/GUI/lvgl/src/core/lv_obj_pos.c ****     lv_event_send((lv_obj_t *)obj, LV_EVENT_GET_SELF_SIZE, &p);
 613:Middlewares/LVGL/GUI/lvgl/src/core/lv_obj_pos.c ****     return p.y;
 614:Middlewares/LVGL/GUI/lvgl/src/core/lv_obj_pos.c **** }
ARM GAS  C:\Users\ADMINI~1\AppData\Local\Temp\ccVA75Tx.s 			page 59


 615:Middlewares/LVGL/GUI/lvgl/src/core/lv_obj_pos.c **** 
 616:Middlewares/LVGL/GUI/lvgl/src/core/lv_obj_pos.c **** bool lv_obj_refresh_self_size(lv_obj_t * obj)
 617:Middlewares/LVGL/GUI/lvgl/src/core/lv_obj_pos.c **** {
 618:Middlewares/LVGL/GUI/lvgl/src/core/lv_obj_pos.c ****     lv_coord_t w_set = lv_obj_get_style_width(obj, LV_PART_MAIN);
 619:Middlewares/LVGL/GUI/lvgl/src/core/lv_obj_pos.c ****     lv_coord_t h_set = lv_obj_get_style_height(obj, LV_PART_MAIN);
 620:Middlewares/LVGL/GUI/lvgl/src/core/lv_obj_pos.c ****     if(w_set != LV_SIZE_CONTENT && h_set != LV_SIZE_CONTENT) return false;
 621:Middlewares/LVGL/GUI/lvgl/src/core/lv_obj_pos.c **** 
 622:Middlewares/LVGL/GUI/lvgl/src/core/lv_obj_pos.c ****     lv_obj_mark_layout_as_dirty(obj);
 623:Middlewares/LVGL/GUI/lvgl/src/core/lv_obj_pos.c ****     return true;
 624:Middlewares/LVGL/GUI/lvgl/src/core/lv_obj_pos.c **** }
 625:Middlewares/LVGL/GUI/lvgl/src/core/lv_obj_pos.c **** 
 626:Middlewares/LVGL/GUI/lvgl/src/core/lv_obj_pos.c **** void lv_obj_refr_pos(lv_obj_t * obj)
 627:Middlewares/LVGL/GUI/lvgl/src/core/lv_obj_pos.c **** {
 628:Middlewares/LVGL/GUI/lvgl/src/core/lv_obj_pos.c ****     if(lv_obj_is_layout_positioned(obj)) return;
 629:Middlewares/LVGL/GUI/lvgl/src/core/lv_obj_pos.c **** 
 630:Middlewares/LVGL/GUI/lvgl/src/core/lv_obj_pos.c ****     lv_obj_t * parent = lv_obj_get_parent(obj);
 631:Middlewares/LVGL/GUI/lvgl/src/core/lv_obj_pos.c ****     lv_coord_t x = lv_obj_get_style_x(obj, LV_PART_MAIN);
 632:Middlewares/LVGL/GUI/lvgl/src/core/lv_obj_pos.c ****     lv_coord_t y = lv_obj_get_style_y(obj, LV_PART_MAIN);
 633:Middlewares/LVGL/GUI/lvgl/src/core/lv_obj_pos.c **** 
 634:Middlewares/LVGL/GUI/lvgl/src/core/lv_obj_pos.c ****     if(parent == NULL) {
 635:Middlewares/LVGL/GUI/lvgl/src/core/lv_obj_pos.c ****         lv_obj_move_to(obj, x, y);
 636:Middlewares/LVGL/GUI/lvgl/src/core/lv_obj_pos.c ****         return;
 637:Middlewares/LVGL/GUI/lvgl/src/core/lv_obj_pos.c ****     }
 638:Middlewares/LVGL/GUI/lvgl/src/core/lv_obj_pos.c **** 
 639:Middlewares/LVGL/GUI/lvgl/src/core/lv_obj_pos.c ****     /*Handle percentage value*/
 640:Middlewares/LVGL/GUI/lvgl/src/core/lv_obj_pos.c ****     lv_coord_t pw = lv_obj_get_content_width(parent);
 641:Middlewares/LVGL/GUI/lvgl/src/core/lv_obj_pos.c ****     lv_coord_t ph = lv_obj_get_content_height(parent);
 642:Middlewares/LVGL/GUI/lvgl/src/core/lv_obj_pos.c ****     if(LV_COORD_IS_PCT(x)) x = (pw * LV_COORD_GET_PCT(x)) / 100;
 643:Middlewares/LVGL/GUI/lvgl/src/core/lv_obj_pos.c ****     if(LV_COORD_IS_PCT(y)) y = (ph * LV_COORD_GET_PCT(y)) / 100;
 644:Middlewares/LVGL/GUI/lvgl/src/core/lv_obj_pos.c **** 
 645:Middlewares/LVGL/GUI/lvgl/src/core/lv_obj_pos.c ****     /*Handle percentage value of translate*/
 646:Middlewares/LVGL/GUI/lvgl/src/core/lv_obj_pos.c ****     lv_coord_t tr_x = lv_obj_get_style_translate_x(obj, LV_PART_MAIN);
 647:Middlewares/LVGL/GUI/lvgl/src/core/lv_obj_pos.c ****     lv_coord_t tr_y = lv_obj_get_style_translate_y(obj, LV_PART_MAIN);
 648:Middlewares/LVGL/GUI/lvgl/src/core/lv_obj_pos.c ****     lv_coord_t w = lv_obj_get_width(obj);
 649:Middlewares/LVGL/GUI/lvgl/src/core/lv_obj_pos.c ****     lv_coord_t h = lv_obj_get_height(obj);
 650:Middlewares/LVGL/GUI/lvgl/src/core/lv_obj_pos.c ****     if(LV_COORD_IS_PCT(tr_x)) tr_x = (w * LV_COORD_GET_PCT(tr_x)) / 100;
 651:Middlewares/LVGL/GUI/lvgl/src/core/lv_obj_pos.c ****     if(LV_COORD_IS_PCT(tr_y)) tr_y = (h * LV_COORD_GET_PCT(tr_y)) / 100;
 652:Middlewares/LVGL/GUI/lvgl/src/core/lv_obj_pos.c **** 
 653:Middlewares/LVGL/GUI/lvgl/src/core/lv_obj_pos.c ****     /*Use the translation*/
 654:Middlewares/LVGL/GUI/lvgl/src/core/lv_obj_pos.c ****     x += tr_x;
 655:Middlewares/LVGL/GUI/lvgl/src/core/lv_obj_pos.c ****     y += tr_y;
 656:Middlewares/LVGL/GUI/lvgl/src/core/lv_obj_pos.c **** 
 657:Middlewares/LVGL/GUI/lvgl/src/core/lv_obj_pos.c ****     lv_align_t align = lv_obj_get_style_align(obj, LV_PART_MAIN);
 658:Middlewares/LVGL/GUI/lvgl/src/core/lv_obj_pos.c **** 
 659:Middlewares/LVGL/GUI/lvgl/src/core/lv_obj_pos.c ****     if(align == LV_ALIGN_DEFAULT) {
 660:Middlewares/LVGL/GUI/lvgl/src/core/lv_obj_pos.c ****         if(lv_obj_get_style_base_dir(parent, LV_PART_MAIN) == LV_BASE_DIR_RTL) align = LV_ALIGN_TOP
 661:Middlewares/LVGL/GUI/lvgl/src/core/lv_obj_pos.c ****         else align = LV_ALIGN_TOP_LEFT;
 662:Middlewares/LVGL/GUI/lvgl/src/core/lv_obj_pos.c ****     }
 663:Middlewares/LVGL/GUI/lvgl/src/core/lv_obj_pos.c **** 
 664:Middlewares/LVGL/GUI/lvgl/src/core/lv_obj_pos.c ****     if(align == LV_ALIGN_TOP_LEFT) {
 665:Middlewares/LVGL/GUI/lvgl/src/core/lv_obj_pos.c ****         lv_obj_move_to(obj, x, y);
 666:Middlewares/LVGL/GUI/lvgl/src/core/lv_obj_pos.c ****     }
 667:Middlewares/LVGL/GUI/lvgl/src/core/lv_obj_pos.c ****     else {
 668:Middlewares/LVGL/GUI/lvgl/src/core/lv_obj_pos.c **** 
 669:Middlewares/LVGL/GUI/lvgl/src/core/lv_obj_pos.c ****         switch(align) {
 670:Middlewares/LVGL/GUI/lvgl/src/core/lv_obj_pos.c ****             case LV_ALIGN_TOP_MID:
 671:Middlewares/LVGL/GUI/lvgl/src/core/lv_obj_pos.c ****                 x += pw / 2 - w / 2;
ARM GAS  C:\Users\ADMINI~1\AppData\Local\Temp\ccVA75Tx.s 			page 60


 672:Middlewares/LVGL/GUI/lvgl/src/core/lv_obj_pos.c ****                 break;
 673:Middlewares/LVGL/GUI/lvgl/src/core/lv_obj_pos.c ****             case LV_ALIGN_TOP_RIGHT:
 674:Middlewares/LVGL/GUI/lvgl/src/core/lv_obj_pos.c ****                 x += pw - w;
 675:Middlewares/LVGL/GUI/lvgl/src/core/lv_obj_pos.c ****                 break;
 676:Middlewares/LVGL/GUI/lvgl/src/core/lv_obj_pos.c ****             case LV_ALIGN_LEFT_MID:
 677:Middlewares/LVGL/GUI/lvgl/src/core/lv_obj_pos.c ****                 y += ph / 2 - h / 2;
 678:Middlewares/LVGL/GUI/lvgl/src/core/lv_obj_pos.c ****                 break;
 679:Middlewares/LVGL/GUI/lvgl/src/core/lv_obj_pos.c ****             case LV_ALIGN_BOTTOM_LEFT:
 680:Middlewares/LVGL/GUI/lvgl/src/core/lv_obj_pos.c ****                 y += ph - h;
 681:Middlewares/LVGL/GUI/lvgl/src/core/lv_obj_pos.c ****                 break;
 682:Middlewares/LVGL/GUI/lvgl/src/core/lv_obj_pos.c ****             case LV_ALIGN_BOTTOM_MID:
 683:Middlewares/LVGL/GUI/lvgl/src/core/lv_obj_pos.c ****                 x += pw / 2 - w / 2;
 684:Middlewares/LVGL/GUI/lvgl/src/core/lv_obj_pos.c ****                 y += ph - h;
 685:Middlewares/LVGL/GUI/lvgl/src/core/lv_obj_pos.c ****                 break;
 686:Middlewares/LVGL/GUI/lvgl/src/core/lv_obj_pos.c ****             case LV_ALIGN_BOTTOM_RIGHT:
 687:Middlewares/LVGL/GUI/lvgl/src/core/lv_obj_pos.c ****                 x += pw - w;
 688:Middlewares/LVGL/GUI/lvgl/src/core/lv_obj_pos.c ****                 y += ph - h;
 689:Middlewares/LVGL/GUI/lvgl/src/core/lv_obj_pos.c ****                 break;
 690:Middlewares/LVGL/GUI/lvgl/src/core/lv_obj_pos.c ****             case LV_ALIGN_RIGHT_MID:
 691:Middlewares/LVGL/GUI/lvgl/src/core/lv_obj_pos.c ****                 x += pw - w;
 692:Middlewares/LVGL/GUI/lvgl/src/core/lv_obj_pos.c ****                 y += ph / 2 - h / 2;
 693:Middlewares/LVGL/GUI/lvgl/src/core/lv_obj_pos.c ****                 break;
 694:Middlewares/LVGL/GUI/lvgl/src/core/lv_obj_pos.c ****             case LV_ALIGN_CENTER:
 695:Middlewares/LVGL/GUI/lvgl/src/core/lv_obj_pos.c ****                 x += pw / 2 - w / 2;
 696:Middlewares/LVGL/GUI/lvgl/src/core/lv_obj_pos.c ****                 y += ph / 2 - h / 2;
 697:Middlewares/LVGL/GUI/lvgl/src/core/lv_obj_pos.c ****                 break;
 698:Middlewares/LVGL/GUI/lvgl/src/core/lv_obj_pos.c ****             default:
 699:Middlewares/LVGL/GUI/lvgl/src/core/lv_obj_pos.c ****                 break;
 700:Middlewares/LVGL/GUI/lvgl/src/core/lv_obj_pos.c ****         }
 701:Middlewares/LVGL/GUI/lvgl/src/core/lv_obj_pos.c ****         lv_obj_move_to(obj, x, y);
 702:Middlewares/LVGL/GUI/lvgl/src/core/lv_obj_pos.c ****     }
 703:Middlewares/LVGL/GUI/lvgl/src/core/lv_obj_pos.c **** }
 704:Middlewares/LVGL/GUI/lvgl/src/core/lv_obj_pos.c **** 
 705:Middlewares/LVGL/GUI/lvgl/src/core/lv_obj_pos.c **** void lv_obj_move_to(lv_obj_t * obj, lv_coord_t x, lv_coord_t y)
 706:Middlewares/LVGL/GUI/lvgl/src/core/lv_obj_pos.c **** {
 707:Middlewares/LVGL/GUI/lvgl/src/core/lv_obj_pos.c ****     /*Convert x and y to absolute coordinates*/
 708:Middlewares/LVGL/GUI/lvgl/src/core/lv_obj_pos.c ****     lv_obj_t * parent = obj->parent;
 709:Middlewares/LVGL/GUI/lvgl/src/core/lv_obj_pos.c **** 
 710:Middlewares/LVGL/GUI/lvgl/src/core/lv_obj_pos.c ****     if(parent) {
 711:Middlewares/LVGL/GUI/lvgl/src/core/lv_obj_pos.c ****         lv_coord_t pad_left = lv_obj_get_style_pad_left(parent, LV_PART_MAIN);
 712:Middlewares/LVGL/GUI/lvgl/src/core/lv_obj_pos.c ****         lv_coord_t pad_top = lv_obj_get_style_pad_top(parent, LV_PART_MAIN);
 713:Middlewares/LVGL/GUI/lvgl/src/core/lv_obj_pos.c **** 
 714:Middlewares/LVGL/GUI/lvgl/src/core/lv_obj_pos.c ****         if(lv_obj_has_flag(obj, LV_OBJ_FLAG_FLOATING)) {
 715:Middlewares/LVGL/GUI/lvgl/src/core/lv_obj_pos.c ****             x += pad_left + parent->coords.x1;
 716:Middlewares/LVGL/GUI/lvgl/src/core/lv_obj_pos.c ****             y += pad_top + parent->coords.y1;
 717:Middlewares/LVGL/GUI/lvgl/src/core/lv_obj_pos.c ****         }
 718:Middlewares/LVGL/GUI/lvgl/src/core/lv_obj_pos.c ****         else {
 719:Middlewares/LVGL/GUI/lvgl/src/core/lv_obj_pos.c ****             x += pad_left + parent->coords.x1 - lv_obj_get_scroll_x(parent);
 720:Middlewares/LVGL/GUI/lvgl/src/core/lv_obj_pos.c ****             y += pad_top + parent->coords.y1 - lv_obj_get_scroll_y(parent);
 721:Middlewares/LVGL/GUI/lvgl/src/core/lv_obj_pos.c ****         }
 722:Middlewares/LVGL/GUI/lvgl/src/core/lv_obj_pos.c **** 
 723:Middlewares/LVGL/GUI/lvgl/src/core/lv_obj_pos.c ****         lv_coord_t border_width = lv_obj_get_style_border_width(parent, LV_PART_MAIN);
 724:Middlewares/LVGL/GUI/lvgl/src/core/lv_obj_pos.c ****         x += border_width;
 725:Middlewares/LVGL/GUI/lvgl/src/core/lv_obj_pos.c ****         y += border_width;
 726:Middlewares/LVGL/GUI/lvgl/src/core/lv_obj_pos.c ****     }
 727:Middlewares/LVGL/GUI/lvgl/src/core/lv_obj_pos.c **** 
 728:Middlewares/LVGL/GUI/lvgl/src/core/lv_obj_pos.c ****     /*Calculate and set the movement*/
ARM GAS  C:\Users\ADMINI~1\AppData\Local\Temp\ccVA75Tx.s 			page 61


 729:Middlewares/LVGL/GUI/lvgl/src/core/lv_obj_pos.c ****     lv_point_t diff;
 730:Middlewares/LVGL/GUI/lvgl/src/core/lv_obj_pos.c ****     diff.x = x - obj->coords.x1;
 731:Middlewares/LVGL/GUI/lvgl/src/core/lv_obj_pos.c ****     diff.y = y - obj->coords.y1;
 732:Middlewares/LVGL/GUI/lvgl/src/core/lv_obj_pos.c **** 
 733:Middlewares/LVGL/GUI/lvgl/src/core/lv_obj_pos.c ****     /*Do nothing if the position is not changed*/
 734:Middlewares/LVGL/GUI/lvgl/src/core/lv_obj_pos.c ****     /*It is very important else recursive positioning can
 735:Middlewares/LVGL/GUI/lvgl/src/core/lv_obj_pos.c ****      *occur without position change*/
 736:Middlewares/LVGL/GUI/lvgl/src/core/lv_obj_pos.c ****     if(diff.x == 0 && diff.y == 0) return;
 737:Middlewares/LVGL/GUI/lvgl/src/core/lv_obj_pos.c **** 
 738:Middlewares/LVGL/GUI/lvgl/src/core/lv_obj_pos.c ****     /*Invalidate the original area*/
 739:Middlewares/LVGL/GUI/lvgl/src/core/lv_obj_pos.c ****     lv_obj_invalidate(obj);
 740:Middlewares/LVGL/GUI/lvgl/src/core/lv_obj_pos.c **** 
 741:Middlewares/LVGL/GUI/lvgl/src/core/lv_obj_pos.c ****     /*Save the original coordinates*/
 742:Middlewares/LVGL/GUI/lvgl/src/core/lv_obj_pos.c ****     lv_area_t ori;
 743:Middlewares/LVGL/GUI/lvgl/src/core/lv_obj_pos.c ****     lv_obj_get_coords(obj, &ori);
 744:Middlewares/LVGL/GUI/lvgl/src/core/lv_obj_pos.c **** 
 745:Middlewares/LVGL/GUI/lvgl/src/core/lv_obj_pos.c ****     /*Check if the object inside the parent or not*/
 746:Middlewares/LVGL/GUI/lvgl/src/core/lv_obj_pos.c ****     lv_area_t parent_fit_area;
 747:Middlewares/LVGL/GUI/lvgl/src/core/lv_obj_pos.c ****     bool on1 = false;
 748:Middlewares/LVGL/GUI/lvgl/src/core/lv_obj_pos.c ****     if(parent) {
 749:Middlewares/LVGL/GUI/lvgl/src/core/lv_obj_pos.c ****         lv_obj_get_content_coords(parent, &parent_fit_area);
 750:Middlewares/LVGL/GUI/lvgl/src/core/lv_obj_pos.c **** 
 751:Middlewares/LVGL/GUI/lvgl/src/core/lv_obj_pos.c ****         /*If the object is already out of the parent and its position is changes
 752:Middlewares/LVGL/GUI/lvgl/src/core/lv_obj_pos.c ****          *surely the scrollbars also changes so invalidate them*/
 753:Middlewares/LVGL/GUI/lvgl/src/core/lv_obj_pos.c ****         on1 = _lv_area_is_in(&ori, &parent_fit_area, 0);
 754:Middlewares/LVGL/GUI/lvgl/src/core/lv_obj_pos.c ****         if(!on1) lv_obj_scrollbar_invalidate(parent);
 755:Middlewares/LVGL/GUI/lvgl/src/core/lv_obj_pos.c ****     }
 756:Middlewares/LVGL/GUI/lvgl/src/core/lv_obj_pos.c **** 
 757:Middlewares/LVGL/GUI/lvgl/src/core/lv_obj_pos.c ****     obj->coords.x1 += diff.x;
 758:Middlewares/LVGL/GUI/lvgl/src/core/lv_obj_pos.c ****     obj->coords.y1 += diff.y;
 759:Middlewares/LVGL/GUI/lvgl/src/core/lv_obj_pos.c ****     obj->coords.x2 += diff.x;
 760:Middlewares/LVGL/GUI/lvgl/src/core/lv_obj_pos.c ****     obj->coords.y2 += diff.y;
 761:Middlewares/LVGL/GUI/lvgl/src/core/lv_obj_pos.c **** 
 762:Middlewares/LVGL/GUI/lvgl/src/core/lv_obj_pos.c ****     lv_obj_move_children_by(obj, diff.x, diff.y, false);
 763:Middlewares/LVGL/GUI/lvgl/src/core/lv_obj_pos.c **** 
 764:Middlewares/LVGL/GUI/lvgl/src/core/lv_obj_pos.c ****     /*Call the ancestor's event handler to the parent too*/
 765:Middlewares/LVGL/GUI/lvgl/src/core/lv_obj_pos.c ****     if(parent) lv_event_send(parent, LV_EVENT_CHILD_CHANGED, obj);
 766:Middlewares/LVGL/GUI/lvgl/src/core/lv_obj_pos.c **** 
 767:Middlewares/LVGL/GUI/lvgl/src/core/lv_obj_pos.c ****     /*Invalidate the new area*/
 768:Middlewares/LVGL/GUI/lvgl/src/core/lv_obj_pos.c ****     lv_obj_invalidate(obj);
 769:Middlewares/LVGL/GUI/lvgl/src/core/lv_obj_pos.c **** 
 770:Middlewares/LVGL/GUI/lvgl/src/core/lv_obj_pos.c ****     /*If the object was out of the parent invalidate the new scrollbar area too.
 771:Middlewares/LVGL/GUI/lvgl/src/core/lv_obj_pos.c ****      *If it wasn't out of the parent but out now, also invalidate the srollbars*/
 772:Middlewares/LVGL/GUI/lvgl/src/core/lv_obj_pos.c ****     if(parent) {
 773:Middlewares/LVGL/GUI/lvgl/src/core/lv_obj_pos.c ****         bool on2 = _lv_area_is_in(&obj->coords, &parent_fit_area, 0);
 774:Middlewares/LVGL/GUI/lvgl/src/core/lv_obj_pos.c ****         if(on1 || (!on1 && on2)) lv_obj_scrollbar_invalidate(parent);
 775:Middlewares/LVGL/GUI/lvgl/src/core/lv_obj_pos.c ****     }
 776:Middlewares/LVGL/GUI/lvgl/src/core/lv_obj_pos.c **** }
 777:Middlewares/LVGL/GUI/lvgl/src/core/lv_obj_pos.c **** 
 778:Middlewares/LVGL/GUI/lvgl/src/core/lv_obj_pos.c **** void lv_obj_move_children_by(lv_obj_t * obj, lv_coord_t x_diff, lv_coord_t y_diff, bool ignore_floa
 779:Middlewares/LVGL/GUI/lvgl/src/core/lv_obj_pos.c **** {
 780:Middlewares/LVGL/GUI/lvgl/src/core/lv_obj_pos.c ****     uint32_t i;
 781:Middlewares/LVGL/GUI/lvgl/src/core/lv_obj_pos.c ****     uint32_t child_cnt = lv_obj_get_child_cnt(obj);
 782:Middlewares/LVGL/GUI/lvgl/src/core/lv_obj_pos.c ****     for(i = 0; i < child_cnt; i++) {
 783:Middlewares/LVGL/GUI/lvgl/src/core/lv_obj_pos.c ****         lv_obj_t * child = obj->spec_attr->children[i];
 784:Middlewares/LVGL/GUI/lvgl/src/core/lv_obj_pos.c ****         if(ignore_floating && lv_obj_has_flag(child, LV_OBJ_FLAG_FLOATING)) continue;
 785:Middlewares/LVGL/GUI/lvgl/src/core/lv_obj_pos.c ****         child->coords.x1 += x_diff;
ARM GAS  C:\Users\ADMINI~1\AppData\Local\Temp\ccVA75Tx.s 			page 62


 786:Middlewares/LVGL/GUI/lvgl/src/core/lv_obj_pos.c ****         child->coords.y1 += y_diff;
 787:Middlewares/LVGL/GUI/lvgl/src/core/lv_obj_pos.c ****         child->coords.x2 += x_diff;
 788:Middlewares/LVGL/GUI/lvgl/src/core/lv_obj_pos.c ****         child->coords.y2 += y_diff;
 789:Middlewares/LVGL/GUI/lvgl/src/core/lv_obj_pos.c **** 
 790:Middlewares/LVGL/GUI/lvgl/src/core/lv_obj_pos.c ****         lv_obj_move_children_by(child, x_diff, y_diff, false);
 791:Middlewares/LVGL/GUI/lvgl/src/core/lv_obj_pos.c ****     }
 792:Middlewares/LVGL/GUI/lvgl/src/core/lv_obj_pos.c **** }
 793:Middlewares/LVGL/GUI/lvgl/src/core/lv_obj_pos.c **** 
 794:Middlewares/LVGL/GUI/lvgl/src/core/lv_obj_pos.c **** 
 795:Middlewares/LVGL/GUI/lvgl/src/core/lv_obj_pos.c **** void lv_obj_invalidate_area(const lv_obj_t * obj, const lv_area_t * area)
 796:Middlewares/LVGL/GUI/lvgl/src/core/lv_obj_pos.c **** {
 797:Middlewares/LVGL/GUI/lvgl/src/core/lv_obj_pos.c ****     LV_ASSERT_OBJ(obj, MY_CLASS);
 798:Middlewares/LVGL/GUI/lvgl/src/core/lv_obj_pos.c **** 
 799:Middlewares/LVGL/GUI/lvgl/src/core/lv_obj_pos.c ****     lv_area_t area_tmp;
 800:Middlewares/LVGL/GUI/lvgl/src/core/lv_obj_pos.c ****     lv_area_copy(&area_tmp, area);
 801:Middlewares/LVGL/GUI/lvgl/src/core/lv_obj_pos.c ****     bool visible = lv_obj_area_is_visible(obj, &area_tmp);
 802:Middlewares/LVGL/GUI/lvgl/src/core/lv_obj_pos.c **** 
 803:Middlewares/LVGL/GUI/lvgl/src/core/lv_obj_pos.c ****     if(visible) _lv_inv_area(lv_obj_get_disp(obj), &area_tmp);
 804:Middlewares/LVGL/GUI/lvgl/src/core/lv_obj_pos.c **** }
 805:Middlewares/LVGL/GUI/lvgl/src/core/lv_obj_pos.c **** 
 806:Middlewares/LVGL/GUI/lvgl/src/core/lv_obj_pos.c **** void lv_obj_invalidate(const lv_obj_t * obj)
 807:Middlewares/LVGL/GUI/lvgl/src/core/lv_obj_pos.c **** {
 808:Middlewares/LVGL/GUI/lvgl/src/core/lv_obj_pos.c ****     LV_ASSERT_OBJ(obj, MY_CLASS);
 809:Middlewares/LVGL/GUI/lvgl/src/core/lv_obj_pos.c **** 
 810:Middlewares/LVGL/GUI/lvgl/src/core/lv_obj_pos.c ****     /*If the object has overflow visible it can be drawn anywhere on its parent
 811:Middlewares/LVGL/GUI/lvgl/src/core/lv_obj_pos.c ****      *It needs to be checked recursively*/
 812:Middlewares/LVGL/GUI/lvgl/src/core/lv_obj_pos.c ****     while(lv_obj_get_parent(obj) && lv_obj_has_flag(obj, LV_OBJ_FLAG_OVERFLOW_VISIBLE)) {
 813:Middlewares/LVGL/GUI/lvgl/src/core/lv_obj_pos.c ****         obj = lv_obj_get_parent(obj);
 814:Middlewares/LVGL/GUI/lvgl/src/core/lv_obj_pos.c ****     }
 815:Middlewares/LVGL/GUI/lvgl/src/core/lv_obj_pos.c **** 
 816:Middlewares/LVGL/GUI/lvgl/src/core/lv_obj_pos.c ****     /*Truncate the area to the object*/
 817:Middlewares/LVGL/GUI/lvgl/src/core/lv_obj_pos.c ****     lv_area_t obj_coords;
 818:Middlewares/LVGL/GUI/lvgl/src/core/lv_obj_pos.c ****     lv_coord_t ext_size = _lv_obj_get_ext_draw_size(obj);
 819:Middlewares/LVGL/GUI/lvgl/src/core/lv_obj_pos.c ****     lv_area_copy(&obj_coords, &obj->coords);
 820:Middlewares/LVGL/GUI/lvgl/src/core/lv_obj_pos.c ****     obj_coords.x1 -= ext_size;
 821:Middlewares/LVGL/GUI/lvgl/src/core/lv_obj_pos.c ****     obj_coords.y1 -= ext_size;
 822:Middlewares/LVGL/GUI/lvgl/src/core/lv_obj_pos.c ****     obj_coords.x2 += ext_size;
 823:Middlewares/LVGL/GUI/lvgl/src/core/lv_obj_pos.c ****     obj_coords.y2 += ext_size;
 824:Middlewares/LVGL/GUI/lvgl/src/core/lv_obj_pos.c **** 
 825:Middlewares/LVGL/GUI/lvgl/src/core/lv_obj_pos.c ****     lv_obj_invalidate_area(obj, &obj_coords);
 826:Middlewares/LVGL/GUI/lvgl/src/core/lv_obj_pos.c **** 
 827:Middlewares/LVGL/GUI/lvgl/src/core/lv_obj_pos.c **** }
 828:Middlewares/LVGL/GUI/lvgl/src/core/lv_obj_pos.c **** 
 829:Middlewares/LVGL/GUI/lvgl/src/core/lv_obj_pos.c **** bool lv_obj_area_is_visible(const lv_obj_t * obj, lv_area_t * area)
 830:Middlewares/LVGL/GUI/lvgl/src/core/lv_obj_pos.c **** {
 831:Middlewares/LVGL/GUI/lvgl/src/core/lv_obj_pos.c ****     if(lv_obj_has_flag(obj, LV_OBJ_FLAG_HIDDEN)) return false;
 832:Middlewares/LVGL/GUI/lvgl/src/core/lv_obj_pos.c **** 
 833:Middlewares/LVGL/GUI/lvgl/src/core/lv_obj_pos.c ****     /*Invalidate the object only if it belongs to the current or previous or one of the layers'*/
 834:Middlewares/LVGL/GUI/lvgl/src/core/lv_obj_pos.c ****     lv_obj_t * obj_scr = lv_obj_get_screen(obj);
 835:Middlewares/LVGL/GUI/lvgl/src/core/lv_obj_pos.c ****     lv_disp_t * disp   = lv_obj_get_disp(obj_scr);
 836:Middlewares/LVGL/GUI/lvgl/src/core/lv_obj_pos.c ****     if(obj_scr != lv_disp_get_scr_act(disp) &&
 837:Middlewares/LVGL/GUI/lvgl/src/core/lv_obj_pos.c ****        obj_scr != lv_disp_get_scr_prev(disp) &&
 838:Middlewares/LVGL/GUI/lvgl/src/core/lv_obj_pos.c ****        obj_scr != lv_disp_get_layer_top(disp) &&
 839:Middlewares/LVGL/GUI/lvgl/src/core/lv_obj_pos.c ****        obj_scr != lv_disp_get_layer_sys(disp)) {
 840:Middlewares/LVGL/GUI/lvgl/src/core/lv_obj_pos.c ****         return false;
 841:Middlewares/LVGL/GUI/lvgl/src/core/lv_obj_pos.c ****     }
 842:Middlewares/LVGL/GUI/lvgl/src/core/lv_obj_pos.c **** 
ARM GAS  C:\Users\ADMINI~1\AppData\Local\Temp\ccVA75Tx.s 			page 63


 843:Middlewares/LVGL/GUI/lvgl/src/core/lv_obj_pos.c ****     /*Truncate the area to the object*/
 844:Middlewares/LVGL/GUI/lvgl/src/core/lv_obj_pos.c ****     if(!lv_obj_has_flag(obj, LV_OBJ_FLAG_OVERFLOW_VISIBLE)) {
 845:Middlewares/LVGL/GUI/lvgl/src/core/lv_obj_pos.c ****         lv_area_t obj_coords;
 846:Middlewares/LVGL/GUI/lvgl/src/core/lv_obj_pos.c ****         lv_coord_t ext_size = _lv_obj_get_ext_draw_size(obj);
 847:Middlewares/LVGL/GUI/lvgl/src/core/lv_obj_pos.c ****         lv_area_copy(&obj_coords, &obj->coords);
 848:Middlewares/LVGL/GUI/lvgl/src/core/lv_obj_pos.c ****         obj_coords.x1 -= ext_size;
 849:Middlewares/LVGL/GUI/lvgl/src/core/lv_obj_pos.c ****         obj_coords.y1 -= ext_size;
 850:Middlewares/LVGL/GUI/lvgl/src/core/lv_obj_pos.c ****         obj_coords.x2 += ext_size;
 851:Middlewares/LVGL/GUI/lvgl/src/core/lv_obj_pos.c ****         obj_coords.y2 += ext_size;
 852:Middlewares/LVGL/GUI/lvgl/src/core/lv_obj_pos.c **** 
 853:Middlewares/LVGL/GUI/lvgl/src/core/lv_obj_pos.c ****         /*The area is not on the object*/
 854:Middlewares/LVGL/GUI/lvgl/src/core/lv_obj_pos.c ****         if(!_lv_area_intersect(area, area, &obj_coords)) return false;
 855:Middlewares/LVGL/GUI/lvgl/src/core/lv_obj_pos.c ****     }
 856:Middlewares/LVGL/GUI/lvgl/src/core/lv_obj_pos.c **** 
 857:Middlewares/LVGL/GUI/lvgl/src/core/lv_obj_pos.c ****     /*Truncate recursively to the parents*/
 858:Middlewares/LVGL/GUI/lvgl/src/core/lv_obj_pos.c ****     lv_obj_t * par = lv_obj_get_parent(obj);
 859:Middlewares/LVGL/GUI/lvgl/src/core/lv_obj_pos.c ****     while(par != NULL) {
 860:Middlewares/LVGL/GUI/lvgl/src/core/lv_obj_pos.c ****         /*If the parent is hidden then the child is hidden and won't be drawn*/
 861:Middlewares/LVGL/GUI/lvgl/src/core/lv_obj_pos.c ****         if(lv_obj_has_flag(par, LV_OBJ_FLAG_HIDDEN)) return false;
 862:Middlewares/LVGL/GUI/lvgl/src/core/lv_obj_pos.c **** 
 863:Middlewares/LVGL/GUI/lvgl/src/core/lv_obj_pos.c ****         /*Truncate to the parent and if no common parts break*/
 864:Middlewares/LVGL/GUI/lvgl/src/core/lv_obj_pos.c ****         if(!lv_obj_has_flag(par, LV_OBJ_FLAG_OVERFLOW_VISIBLE)) {
 865:Middlewares/LVGL/GUI/lvgl/src/core/lv_obj_pos.c ****             if(!_lv_area_intersect(area, area, &par->coords)) return false;
 866:Middlewares/LVGL/GUI/lvgl/src/core/lv_obj_pos.c ****         }
 867:Middlewares/LVGL/GUI/lvgl/src/core/lv_obj_pos.c **** 
 868:Middlewares/LVGL/GUI/lvgl/src/core/lv_obj_pos.c ****         par = lv_obj_get_parent(par);
 869:Middlewares/LVGL/GUI/lvgl/src/core/lv_obj_pos.c ****     }
 870:Middlewares/LVGL/GUI/lvgl/src/core/lv_obj_pos.c **** 
 871:Middlewares/LVGL/GUI/lvgl/src/core/lv_obj_pos.c ****     return true;
 872:Middlewares/LVGL/GUI/lvgl/src/core/lv_obj_pos.c **** }
 873:Middlewares/LVGL/GUI/lvgl/src/core/lv_obj_pos.c **** 
 874:Middlewares/LVGL/GUI/lvgl/src/core/lv_obj_pos.c **** bool lv_obj_is_visible(const lv_obj_t * obj)
 875:Middlewares/LVGL/GUI/lvgl/src/core/lv_obj_pos.c **** {
 876:Middlewares/LVGL/GUI/lvgl/src/core/lv_obj_pos.c ****     LV_ASSERT_OBJ(obj, MY_CLASS);
 877:Middlewares/LVGL/GUI/lvgl/src/core/lv_obj_pos.c **** 
 878:Middlewares/LVGL/GUI/lvgl/src/core/lv_obj_pos.c ****     lv_area_t obj_coords;
 879:Middlewares/LVGL/GUI/lvgl/src/core/lv_obj_pos.c ****     lv_coord_t ext_size = _lv_obj_get_ext_draw_size(obj);
 880:Middlewares/LVGL/GUI/lvgl/src/core/lv_obj_pos.c ****     lv_area_copy(&obj_coords, &obj->coords);
 881:Middlewares/LVGL/GUI/lvgl/src/core/lv_obj_pos.c ****     obj_coords.x1 -= ext_size;
 882:Middlewares/LVGL/GUI/lvgl/src/core/lv_obj_pos.c ****     obj_coords.y1 -= ext_size;
 883:Middlewares/LVGL/GUI/lvgl/src/core/lv_obj_pos.c ****     obj_coords.x2 += ext_size;
 884:Middlewares/LVGL/GUI/lvgl/src/core/lv_obj_pos.c ****     obj_coords.y2 += ext_size;
 885:Middlewares/LVGL/GUI/lvgl/src/core/lv_obj_pos.c **** 
 886:Middlewares/LVGL/GUI/lvgl/src/core/lv_obj_pos.c ****     return lv_obj_area_is_visible(obj, &obj_coords);
 887:Middlewares/LVGL/GUI/lvgl/src/core/lv_obj_pos.c **** 
 888:Middlewares/LVGL/GUI/lvgl/src/core/lv_obj_pos.c **** }
 889:Middlewares/LVGL/GUI/lvgl/src/core/lv_obj_pos.c **** 
 890:Middlewares/LVGL/GUI/lvgl/src/core/lv_obj_pos.c **** void lv_obj_set_ext_click_area(lv_obj_t * obj, lv_coord_t size)
 891:Middlewares/LVGL/GUI/lvgl/src/core/lv_obj_pos.c **** {
 892:Middlewares/LVGL/GUI/lvgl/src/core/lv_obj_pos.c ****     LV_ASSERT_OBJ(obj, MY_CLASS);
 893:Middlewares/LVGL/GUI/lvgl/src/core/lv_obj_pos.c **** 
 894:Middlewares/LVGL/GUI/lvgl/src/core/lv_obj_pos.c ****     lv_obj_allocate_spec_attr(obj);
 895:Middlewares/LVGL/GUI/lvgl/src/core/lv_obj_pos.c ****     obj->spec_attr->ext_click_pad = size;
 896:Middlewares/LVGL/GUI/lvgl/src/core/lv_obj_pos.c **** }
 897:Middlewares/LVGL/GUI/lvgl/src/core/lv_obj_pos.c **** 
 898:Middlewares/LVGL/GUI/lvgl/src/core/lv_obj_pos.c **** void lv_obj_get_click_area(const lv_obj_t * obj, lv_area_t * area)
 899:Middlewares/LVGL/GUI/lvgl/src/core/lv_obj_pos.c **** {
ARM GAS  C:\Users\ADMINI~1\AppData\Local\Temp\ccVA75Tx.s 			page 64


 900:Middlewares/LVGL/GUI/lvgl/src/core/lv_obj_pos.c ****     lv_area_copy(area, &obj->coords);
 901:Middlewares/LVGL/GUI/lvgl/src/core/lv_obj_pos.c ****     if(obj->spec_attr) {
 902:Middlewares/LVGL/GUI/lvgl/src/core/lv_obj_pos.c ****         area->x1 -= obj->spec_attr->ext_click_pad;
 903:Middlewares/LVGL/GUI/lvgl/src/core/lv_obj_pos.c ****         area->x2 += obj->spec_attr->ext_click_pad;
 904:Middlewares/LVGL/GUI/lvgl/src/core/lv_obj_pos.c ****         area->y1 -= obj->spec_attr->ext_click_pad;
 905:Middlewares/LVGL/GUI/lvgl/src/core/lv_obj_pos.c ****         area->y2 += obj->spec_attr->ext_click_pad;
 906:Middlewares/LVGL/GUI/lvgl/src/core/lv_obj_pos.c ****     }
 907:Middlewares/LVGL/GUI/lvgl/src/core/lv_obj_pos.c **** }
 908:Middlewares/LVGL/GUI/lvgl/src/core/lv_obj_pos.c **** 
 909:Middlewares/LVGL/GUI/lvgl/src/core/lv_obj_pos.c **** bool lv_obj_hit_test(lv_obj_t * obj, const lv_point_t * point)
 910:Middlewares/LVGL/GUI/lvgl/src/core/lv_obj_pos.c **** {
 911:Middlewares/LVGL/GUI/lvgl/src/core/lv_obj_pos.c ****     if(!lv_obj_has_flag(obj, LV_OBJ_FLAG_CLICKABLE)) return false;
 912:Middlewares/LVGL/GUI/lvgl/src/core/lv_obj_pos.c ****     if(lv_obj_has_state(obj, LV_STATE_DISABLED)) return false;
 913:Middlewares/LVGL/GUI/lvgl/src/core/lv_obj_pos.c **** 
 914:Middlewares/LVGL/GUI/lvgl/src/core/lv_obj_pos.c ****     lv_area_t a;
 915:Middlewares/LVGL/GUI/lvgl/src/core/lv_obj_pos.c ****     lv_obj_get_click_area(obj, &a);
 916:Middlewares/LVGL/GUI/lvgl/src/core/lv_obj_pos.c ****     bool res = _lv_area_is_point_on(&a, point, 0);
 917:Middlewares/LVGL/GUI/lvgl/src/core/lv_obj_pos.c ****     if(res == false) return false;
 918:Middlewares/LVGL/GUI/lvgl/src/core/lv_obj_pos.c **** 
 919:Middlewares/LVGL/GUI/lvgl/src/core/lv_obj_pos.c ****     if(lv_obj_has_flag(obj, LV_OBJ_FLAG_ADV_HITTEST)) {
 920:Middlewares/LVGL/GUI/lvgl/src/core/lv_obj_pos.c ****         lv_hit_test_info_t hit_info;
 921:Middlewares/LVGL/GUI/lvgl/src/core/lv_obj_pos.c ****         hit_info.point = point;
 922:Middlewares/LVGL/GUI/lvgl/src/core/lv_obj_pos.c ****         hit_info.res = true;
 923:Middlewares/LVGL/GUI/lvgl/src/core/lv_obj_pos.c ****         lv_event_send(obj, LV_EVENT_HIT_TEST, &hit_info);
 924:Middlewares/LVGL/GUI/lvgl/src/core/lv_obj_pos.c ****         return hit_info.res;
 925:Middlewares/LVGL/GUI/lvgl/src/core/lv_obj_pos.c ****     }
 926:Middlewares/LVGL/GUI/lvgl/src/core/lv_obj_pos.c **** 
 927:Middlewares/LVGL/GUI/lvgl/src/core/lv_obj_pos.c ****     return res;
 928:Middlewares/LVGL/GUI/lvgl/src/core/lv_obj_pos.c **** }
 929:Middlewares/LVGL/GUI/lvgl/src/core/lv_obj_pos.c **** 
 930:Middlewares/LVGL/GUI/lvgl/src/core/lv_obj_pos.c **** lv_coord_t lv_clamp_width(lv_coord_t width, lv_coord_t min_width, lv_coord_t max_width, lv_coord_t 
 931:Middlewares/LVGL/GUI/lvgl/src/core/lv_obj_pos.c **** {
 932:Middlewares/LVGL/GUI/lvgl/src/core/lv_obj_pos.c ****     if(LV_COORD_IS_PCT(min_width)) min_width = (ref_width * LV_COORD_GET_PCT(min_width)) / 100;
 933:Middlewares/LVGL/GUI/lvgl/src/core/lv_obj_pos.c ****     if(LV_COORD_IS_PCT(max_width)) max_width = (ref_width * LV_COORD_GET_PCT(max_width)) / 100;
 934:Middlewares/LVGL/GUI/lvgl/src/core/lv_obj_pos.c ****     return LV_CLAMP(min_width, width, max_width);
 935:Middlewares/LVGL/GUI/lvgl/src/core/lv_obj_pos.c **** }
 936:Middlewares/LVGL/GUI/lvgl/src/core/lv_obj_pos.c **** 
 937:Middlewares/LVGL/GUI/lvgl/src/core/lv_obj_pos.c **** lv_coord_t lv_clamp_height(lv_coord_t height, lv_coord_t min_height, lv_coord_t max_height, lv_coor
 938:Middlewares/LVGL/GUI/lvgl/src/core/lv_obj_pos.c **** {
 939:Middlewares/LVGL/GUI/lvgl/src/core/lv_obj_pos.c ****     if(LV_COORD_IS_PCT(min_height)) min_height = (ref_height * LV_COORD_GET_PCT(min_height)) / 100;
 940:Middlewares/LVGL/GUI/lvgl/src/core/lv_obj_pos.c ****     if(LV_COORD_IS_PCT(max_height)) max_height = (ref_height * LV_COORD_GET_PCT(max_height)) / 100;
 941:Middlewares/LVGL/GUI/lvgl/src/core/lv_obj_pos.c ****     return LV_CLAMP(min_height, height, max_height);
 942:Middlewares/LVGL/GUI/lvgl/src/core/lv_obj_pos.c **** }
 943:Middlewares/LVGL/GUI/lvgl/src/core/lv_obj_pos.c **** 
 944:Middlewares/LVGL/GUI/lvgl/src/core/lv_obj_pos.c **** 
 945:Middlewares/LVGL/GUI/lvgl/src/core/lv_obj_pos.c **** 
 946:Middlewares/LVGL/GUI/lvgl/src/core/lv_obj_pos.c **** /**********************
 947:Middlewares/LVGL/GUI/lvgl/src/core/lv_obj_pos.c ****  *   STATIC FUNCTIONS
 948:Middlewares/LVGL/GUI/lvgl/src/core/lv_obj_pos.c ****  **********************/
 949:Middlewares/LVGL/GUI/lvgl/src/core/lv_obj_pos.c **** 
 950:Middlewares/LVGL/GUI/lvgl/src/core/lv_obj_pos.c **** static lv_coord_t calc_content_width(lv_obj_t * obj)
 951:Middlewares/LVGL/GUI/lvgl/src/core/lv_obj_pos.c **** {
 1883              		.loc 1 951 1 is_stmt 1 view -0
 1884              		.cfi_startproc
 1885              		@ args = 0, pretend = 0, frame = 0
 1886              		@ frame_needed = 0, uses_anonymous_args = 0
 1887              		.loc 1 951 1 is_stmt 0 view .LVU513
ARM GAS  C:\Users\ADMINI~1\AppData\Local\Temp\ccVA75Tx.s 			page 65


 1888 0000 2DE9F84F 		push	{r3, r4, r5, r6, r7, r8, r9, r10, fp, lr}
 1889              	.LCFI38:
 1890              		.cfi_def_cfa_offset 40
 1891              		.cfi_offset 3, -40
 1892              		.cfi_offset 4, -36
 1893              		.cfi_offset 5, -32
 1894              		.cfi_offset 6, -28
 1895              		.cfi_offset 7, -24
 1896              		.cfi_offset 8, -20
 1897              		.cfi_offset 9, -16
 1898              		.cfi_offset 10, -12
 1899              		.cfi_offset 11, -8
 1900              		.cfi_offset 14, -4
 1901 0004 0546     		mov	r5, r0
 952:Middlewares/LVGL/GUI/lvgl/src/core/lv_obj_pos.c ****     lv_obj_scroll_to_x(obj, 0, LV_ANIM_OFF);
 1902              		.loc 1 952 5 is_stmt 1 view .LVU514
 1903 0006 0022     		movs	r2, #0
 1904 0008 1146     		mov	r1, r2
 1905 000a FFF7FEFF 		bl	lv_obj_scroll_to_x
 1906              	.LVL171:
 953:Middlewares/LVGL/GUI/lvgl/src/core/lv_obj_pos.c **** 
 954:Middlewares/LVGL/GUI/lvgl/src/core/lv_obj_pos.c ****     lv_coord_t border_width = lv_obj_get_style_border_width(obj, LV_PART_MAIN);
 1907              		.loc 1 954 5 view .LVU515
 1908              	.LBB244:
 1909              	.LBI244:
 241:Middlewares/LVGL/GUI/lvgl/src/core/lv_obj_style_gen.h **** {
 1910              		.loc 2 241 26 view .LVU516
 1911              	.LBB245:
 243:Middlewares/LVGL/GUI/lvgl/src/core/lv_obj_style_gen.h ****     return (lv_coord_t)v.num;
 1912              		.loc 2 243 5 view .LVU517
 243:Middlewares/LVGL/GUI/lvgl/src/core/lv_obj_style_gen.h ****     return (lv_coord_t)v.num;
 1913              		.loc 2 243 26 is_stmt 0 view .LVU518
 1914 000e 41F23202 		movw	r2, #4146
 1915 0012 0021     		movs	r1, #0
 1916 0014 2846     		mov	r0, r5
 1917 0016 FFF7FEFF 		bl	lv_obj_get_style_prop
 1918              	.LVL172:
 1919 001a 8346     		mov	fp, r0
 1920              	.LVL173:
 244:Middlewares/LVGL/GUI/lvgl/src/core/lv_obj_style_gen.h **** }
 1921              		.loc 2 244 5 is_stmt 1 view .LVU519
 244:Middlewares/LVGL/GUI/lvgl/src/core/lv_obj_style_gen.h **** }
 1922              		.loc 2 244 5 is_stmt 0 view .LVU520
 1923              	.LBE245:
 1924              	.LBE244:
 955:Middlewares/LVGL/GUI/lvgl/src/core/lv_obj_pos.c ****     lv_coord_t pad_right = lv_obj_get_style_pad_right(obj, LV_PART_MAIN) + border_width;
 1925              		.loc 1 955 5 is_stmt 1 view .LVU521
 1926              	.LBB246:
 1927              	.LBI246:
 109:Middlewares/LVGL/GUI/lvgl/src/core/lv_obj_style_gen.h **** {
 1928              		.loc 2 109 26 view .LVU522
 1929              	.LBB247:
 111:Middlewares/LVGL/GUI/lvgl/src/core/lv_obj_style_gen.h ****     return (lv_coord_t)v.num;
 1930              		.loc 2 111 5 view .LVU523
 111:Middlewares/LVGL/GUI/lvgl/src/core/lv_obj_style_gen.h ****     return (lv_coord_t)v.num;
 1931              		.loc 2 111 26 is_stmt 0 view .LVU524
 1932 001c 41F61302 		movw	r2, #6163
ARM GAS  C:\Users\ADMINI~1\AppData\Local\Temp\ccVA75Tx.s 			page 66


 1933 0020 0021     		movs	r1, #0
 1934 0022 2846     		mov	r0, r5
 1935              	.LVL174:
 111:Middlewares/LVGL/GUI/lvgl/src/core/lv_obj_style_gen.h ****     return (lv_coord_t)v.num;
 1936              		.loc 2 111 26 view .LVU525
 1937 0024 FFF7FEFF 		bl	lv_obj_get_style_prop
 1938              	.LVL175:
 112:Middlewares/LVGL/GUI/lvgl/src/core/lv_obj_style_gen.h **** }
 1939              		.loc 2 112 5 is_stmt 1 view .LVU526
 112:Middlewares/LVGL/GUI/lvgl/src/core/lv_obj_style_gen.h **** }
 1940              		.loc 2 112 5 is_stmt 0 view .LVU527
 1941              	.LBE247:
 1942              	.LBE246:
 1943              		.loc 1 955 16 view .LVU528
 1944 0028 00EB0B0A 		add	r10, r0, fp
 1945              	.LVL176:
 956:Middlewares/LVGL/GUI/lvgl/src/core/lv_obj_pos.c ****     lv_coord_t pad_left = lv_obj_get_style_pad_left(obj, LV_PART_MAIN) + border_width;
 1946              		.loc 1 956 5 is_stmt 1 view .LVU529
 1947              	.LBB248:
 1948              	.LBI248:
 103:Middlewares/LVGL/GUI/lvgl/src/core/lv_obj_style_gen.h **** {
 1949              		.loc 2 103 26 view .LVU530
 1950              	.LBB249:
 105:Middlewares/LVGL/GUI/lvgl/src/core/lv_obj_style_gen.h ****     return (lv_coord_t)v.num;
 1951              		.loc 2 105 5 view .LVU531
 105:Middlewares/LVGL/GUI/lvgl/src/core/lv_obj_style_gen.h ****     return (lv_coord_t)v.num;
 1952              		.loc 2 105 26 is_stmt 0 view .LVU532
 1953 002c 41F61202 		movw	r2, #6162
 1954 0030 0021     		movs	r1, #0
 1955 0032 2846     		mov	r0, r5
 1956 0034 FFF7FEFF 		bl	lv_obj_get_style_prop
 1957              	.LVL177:
 106:Middlewares/LVGL/GUI/lvgl/src/core/lv_obj_style_gen.h **** }
 1958              		.loc 2 106 5 is_stmt 1 view .LVU533
 106:Middlewares/LVGL/GUI/lvgl/src/core/lv_obj_style_gen.h **** }
 1959              		.loc 2 106 5 is_stmt 0 view .LVU534
 1960              	.LBE249:
 1961              	.LBE248:
 1962              		.loc 1 956 16 view .LVU535
