ARM GAS  C:\Users\ADMINI~1\AppData\Local\Temp\cc386Zoq.s 			page 1


   1              		.cpu cortex-m4
   2              		.arch armv7e-m
   3              		.fpu fpv4-sp-d16
   4              		.eabi_attribute 27, 1
   5              		.eabi_attribute 28, 1
   6              		.eabi_attribute 20, 1
   7              		.eabi_attribute 21, 1
   8              		.eabi_attribute 23, 3
   9              		.eabi_attribute 24, 1
  10              		.eabi_attribute 25, 1
  11              		.eabi_attribute 26, 1
  12              		.eabi_attribute 30, 1
  13              		.eabi_attribute 34, 1
  14              		.eabi_attribute 18, 4
  15              		.file	"lv_obj_draw.c"
  16              		.text
  17              	.Ltext0:
  18              		.cfi_sections	.debug_frame
  19              		.section	.text.lv_obj_init_draw_rect_dsc,"ax",%progbits
  20              		.align	1
  21              		.global	lv_obj_init_draw_rect_dsc
  22              		.syntax unified
  23              		.thumb
  24              		.thumb_func
  26              	lv_obj_init_draw_rect_dsc:
  27              	.LVL0:
  28              	.LFB159:
  29              		.file 1 "Middlewares/LVGL/GUI/lvgl/src/core/lv_obj_draw.c"
   1:Middlewares/LVGL/GUI/lvgl/src/core/lv_obj_draw.c **** /**
   2:Middlewares/LVGL/GUI/lvgl/src/core/lv_obj_draw.c ****  * @file lv_obj_draw.c
   3:Middlewares/LVGL/GUI/lvgl/src/core/lv_obj_draw.c ****  *
   4:Middlewares/LVGL/GUI/lvgl/src/core/lv_obj_draw.c ****  */
   5:Middlewares/LVGL/GUI/lvgl/src/core/lv_obj_draw.c **** 
   6:Middlewares/LVGL/GUI/lvgl/src/core/lv_obj_draw.c **** /*********************
   7:Middlewares/LVGL/GUI/lvgl/src/core/lv_obj_draw.c ****  *      INCLUDES
   8:Middlewares/LVGL/GUI/lvgl/src/core/lv_obj_draw.c ****  *********************/
   9:Middlewares/LVGL/GUI/lvgl/src/core/lv_obj_draw.c **** #include "lv_obj_draw.h"
  10:Middlewares/LVGL/GUI/lvgl/src/core/lv_obj_draw.c **** #include "lv_obj.h"
  11:Middlewares/LVGL/GUI/lvgl/src/core/lv_obj_draw.c **** #include "lv_disp.h"
  12:Middlewares/LVGL/GUI/lvgl/src/core/lv_obj_draw.c **** #include "lv_indev.h"
  13:Middlewares/LVGL/GUI/lvgl/src/core/lv_obj_draw.c **** 
  14:Middlewares/LVGL/GUI/lvgl/src/core/lv_obj_draw.c **** /*********************
  15:Middlewares/LVGL/GUI/lvgl/src/core/lv_obj_draw.c ****  *      DEFINES
  16:Middlewares/LVGL/GUI/lvgl/src/core/lv_obj_draw.c ****  *********************/
  17:Middlewares/LVGL/GUI/lvgl/src/core/lv_obj_draw.c **** #define MY_CLASS &lv_obj_class
  18:Middlewares/LVGL/GUI/lvgl/src/core/lv_obj_draw.c **** 
  19:Middlewares/LVGL/GUI/lvgl/src/core/lv_obj_draw.c **** /**********************
  20:Middlewares/LVGL/GUI/lvgl/src/core/lv_obj_draw.c ****  *      TYPEDEFS
  21:Middlewares/LVGL/GUI/lvgl/src/core/lv_obj_draw.c ****  **********************/
  22:Middlewares/LVGL/GUI/lvgl/src/core/lv_obj_draw.c **** 
  23:Middlewares/LVGL/GUI/lvgl/src/core/lv_obj_draw.c **** /**********************
  24:Middlewares/LVGL/GUI/lvgl/src/core/lv_obj_draw.c ****  *  STATIC PROTOTYPES
  25:Middlewares/LVGL/GUI/lvgl/src/core/lv_obj_draw.c ****  **********************/
  26:Middlewares/LVGL/GUI/lvgl/src/core/lv_obj_draw.c **** 
  27:Middlewares/LVGL/GUI/lvgl/src/core/lv_obj_draw.c **** /**********************
  28:Middlewares/LVGL/GUI/lvgl/src/core/lv_obj_draw.c ****  *  STATIC VARIABLES
  29:Middlewares/LVGL/GUI/lvgl/src/core/lv_obj_draw.c ****  **********************/
ARM GAS  C:\Users\ADMINI~1\AppData\Local\Temp\cc386Zoq.s 			page 2


  30:Middlewares/LVGL/GUI/lvgl/src/core/lv_obj_draw.c **** 
  31:Middlewares/LVGL/GUI/lvgl/src/core/lv_obj_draw.c **** /**********************
  32:Middlewares/LVGL/GUI/lvgl/src/core/lv_obj_draw.c ****  *      MACROS
  33:Middlewares/LVGL/GUI/lvgl/src/core/lv_obj_draw.c ****  **********************/
  34:Middlewares/LVGL/GUI/lvgl/src/core/lv_obj_draw.c **** 
  35:Middlewares/LVGL/GUI/lvgl/src/core/lv_obj_draw.c **** /**********************
  36:Middlewares/LVGL/GUI/lvgl/src/core/lv_obj_draw.c ****  *   GLOBAL FUNCTIONS
  37:Middlewares/LVGL/GUI/lvgl/src/core/lv_obj_draw.c ****  **********************/
  38:Middlewares/LVGL/GUI/lvgl/src/core/lv_obj_draw.c **** 
  39:Middlewares/LVGL/GUI/lvgl/src/core/lv_obj_draw.c **** void lv_obj_init_draw_rect_dsc(lv_obj_t * obj, uint32_t part, lv_draw_rect_dsc_t * draw_dsc)
  40:Middlewares/LVGL/GUI/lvgl/src/core/lv_obj_draw.c **** {
  30              		.loc 1 40 1 view -0
  31              		.cfi_startproc
  32              		@ args = 0, pretend = 0, frame = 0
  33              		@ frame_needed = 0, uses_anonymous_args = 0
  34              		.loc 1 40 1 is_stmt 0 view .LVU1
  35 0000 2DE9F041 		push	{r4, r5, r6, r7, r8, lr}
  36              	.LCFI0:
  37              		.cfi_def_cfa_offset 24
  38              		.cfi_offset 4, -24
  39              		.cfi_offset 5, -20
  40              		.cfi_offset 6, -16
  41              		.cfi_offset 7, -12
  42              		.cfi_offset 8, -8
  43              		.cfi_offset 14, -4
  44 0004 0646     		mov	r6, r0
  45 0006 0D46     		mov	r5, r1
  46 0008 1446     		mov	r4, r2
  41:Middlewares/LVGL/GUI/lvgl/src/core/lv_obj_draw.c **** 
  42:Middlewares/LVGL/GUI/lvgl/src/core/lv_obj_draw.c **** #if LV_DRAW_COMPLEX
  43:Middlewares/LVGL/GUI/lvgl/src/core/lv_obj_draw.c ****     draw_dsc->radius = lv_obj_get_style_radius(obj, part);
  47              		.loc 1 43 5 is_stmt 1 view .LVU2
  48              	.LVL1:
  49              	.LBB157:
  50              	.LBI157:
  51              		.file 2 "Middlewares/LVGL/GUI/lvgl/src/core/lv_obj_style_gen.h"
   1:Middlewares/LVGL/GUI/lvgl/src/core/lv_obj_style_gen.h **** static inline lv_coord_t lv_obj_get_style_width(const struct _lv_obj_t * obj, uint32_t part)
   2:Middlewares/LVGL/GUI/lvgl/src/core/lv_obj_style_gen.h **** {
   3:Middlewares/LVGL/GUI/lvgl/src/core/lv_obj_style_gen.h ****     lv_style_value_t v = lv_obj_get_style_prop(obj, part, LV_STYLE_WIDTH);
   4:Middlewares/LVGL/GUI/lvgl/src/core/lv_obj_style_gen.h ****     return (lv_coord_t)v.num;
   5:Middlewares/LVGL/GUI/lvgl/src/core/lv_obj_style_gen.h **** }
   6:Middlewares/LVGL/GUI/lvgl/src/core/lv_obj_style_gen.h **** 
   7:Middlewares/LVGL/GUI/lvgl/src/core/lv_obj_style_gen.h **** static inline lv_coord_t lv_obj_get_style_min_width(const struct _lv_obj_t * obj, uint32_t part)
   8:Middlewares/LVGL/GUI/lvgl/src/core/lv_obj_style_gen.h **** {
   9:Middlewares/LVGL/GUI/lvgl/src/core/lv_obj_style_gen.h ****     lv_style_value_t v = lv_obj_get_style_prop(obj, part, LV_STYLE_MIN_WIDTH);
  10:Middlewares/LVGL/GUI/lvgl/src/core/lv_obj_style_gen.h ****     return (lv_coord_t)v.num;
  11:Middlewares/LVGL/GUI/lvgl/src/core/lv_obj_style_gen.h **** }
  12:Middlewares/LVGL/GUI/lvgl/src/core/lv_obj_style_gen.h **** 
  13:Middlewares/LVGL/GUI/lvgl/src/core/lv_obj_style_gen.h **** static inline lv_coord_t lv_obj_get_style_max_width(const struct _lv_obj_t * obj, uint32_t part)
  14:Middlewares/LVGL/GUI/lvgl/src/core/lv_obj_style_gen.h **** {
  15:Middlewares/LVGL/GUI/lvgl/src/core/lv_obj_style_gen.h ****     lv_style_value_t v = lv_obj_get_style_prop(obj, part, LV_STYLE_MAX_WIDTH);
  16:Middlewares/LVGL/GUI/lvgl/src/core/lv_obj_style_gen.h ****     return (lv_coord_t)v.num;
  17:Middlewares/LVGL/GUI/lvgl/src/core/lv_obj_style_gen.h **** }
  18:Middlewares/LVGL/GUI/lvgl/src/core/lv_obj_style_gen.h **** 
  19:Middlewares/LVGL/GUI/lvgl/src/core/lv_obj_style_gen.h **** static inline lv_coord_t lv_obj_get_style_height(const struct _lv_obj_t * obj, uint32_t part)
  20:Middlewares/LVGL/GUI/lvgl/src/core/lv_obj_style_gen.h **** {
  21:Middlewares/LVGL/GUI/lvgl/src/core/lv_obj_style_gen.h ****     lv_style_value_t v = lv_obj_get_style_prop(obj, part, LV_STYLE_HEIGHT);
ARM GAS  C:\Users\ADMINI~1\AppData\Local\Temp\cc386Zoq.s 			page 3


  22:Middlewares/LVGL/GUI/lvgl/src/core/lv_obj_style_gen.h ****     return (lv_coord_t)v.num;
  23:Middlewares/LVGL/GUI/lvgl/src/core/lv_obj_style_gen.h **** }
  24:Middlewares/LVGL/GUI/lvgl/src/core/lv_obj_style_gen.h **** 
  25:Middlewares/LVGL/GUI/lvgl/src/core/lv_obj_style_gen.h **** static inline lv_coord_t lv_obj_get_style_min_height(const struct _lv_obj_t * obj, uint32_t part)
  26:Middlewares/LVGL/GUI/lvgl/src/core/lv_obj_style_gen.h **** {
  27:Middlewares/LVGL/GUI/lvgl/src/core/lv_obj_style_gen.h ****     lv_style_value_t v = lv_obj_get_style_prop(obj, part, LV_STYLE_MIN_HEIGHT);
  28:Middlewares/LVGL/GUI/lvgl/src/core/lv_obj_style_gen.h ****     return (lv_coord_t)v.num;
  29:Middlewares/LVGL/GUI/lvgl/src/core/lv_obj_style_gen.h **** }
  30:Middlewares/LVGL/GUI/lvgl/src/core/lv_obj_style_gen.h **** 
  31:Middlewares/LVGL/GUI/lvgl/src/core/lv_obj_style_gen.h **** static inline lv_coord_t lv_obj_get_style_max_height(const struct _lv_obj_t * obj, uint32_t part)
  32:Middlewares/LVGL/GUI/lvgl/src/core/lv_obj_style_gen.h **** {
  33:Middlewares/LVGL/GUI/lvgl/src/core/lv_obj_style_gen.h ****     lv_style_value_t v = lv_obj_get_style_prop(obj, part, LV_STYLE_MAX_HEIGHT);
  34:Middlewares/LVGL/GUI/lvgl/src/core/lv_obj_style_gen.h ****     return (lv_coord_t)v.num;
  35:Middlewares/LVGL/GUI/lvgl/src/core/lv_obj_style_gen.h **** }
  36:Middlewares/LVGL/GUI/lvgl/src/core/lv_obj_style_gen.h **** 
  37:Middlewares/LVGL/GUI/lvgl/src/core/lv_obj_style_gen.h **** static inline lv_coord_t lv_obj_get_style_x(const struct _lv_obj_t * obj, uint32_t part)
  38:Middlewares/LVGL/GUI/lvgl/src/core/lv_obj_style_gen.h **** {
  39:Middlewares/LVGL/GUI/lvgl/src/core/lv_obj_style_gen.h ****     lv_style_value_t v = lv_obj_get_style_prop(obj, part, LV_STYLE_X);
  40:Middlewares/LVGL/GUI/lvgl/src/core/lv_obj_style_gen.h ****     return (lv_coord_t)v.num;
  41:Middlewares/LVGL/GUI/lvgl/src/core/lv_obj_style_gen.h **** }
  42:Middlewares/LVGL/GUI/lvgl/src/core/lv_obj_style_gen.h **** 
  43:Middlewares/LVGL/GUI/lvgl/src/core/lv_obj_style_gen.h **** static inline lv_coord_t lv_obj_get_style_y(const struct _lv_obj_t * obj, uint32_t part)
  44:Middlewares/LVGL/GUI/lvgl/src/core/lv_obj_style_gen.h **** {
  45:Middlewares/LVGL/GUI/lvgl/src/core/lv_obj_style_gen.h ****     lv_style_value_t v = lv_obj_get_style_prop(obj, part, LV_STYLE_Y);
  46:Middlewares/LVGL/GUI/lvgl/src/core/lv_obj_style_gen.h ****     return (lv_coord_t)v.num;
  47:Middlewares/LVGL/GUI/lvgl/src/core/lv_obj_style_gen.h **** }
  48:Middlewares/LVGL/GUI/lvgl/src/core/lv_obj_style_gen.h **** 
  49:Middlewares/LVGL/GUI/lvgl/src/core/lv_obj_style_gen.h **** static inline lv_align_t lv_obj_get_style_align(const struct _lv_obj_t * obj, uint32_t part)
  50:Middlewares/LVGL/GUI/lvgl/src/core/lv_obj_style_gen.h **** {
  51:Middlewares/LVGL/GUI/lvgl/src/core/lv_obj_style_gen.h ****     lv_style_value_t v = lv_obj_get_style_prop(obj, part, LV_STYLE_ALIGN);
  52:Middlewares/LVGL/GUI/lvgl/src/core/lv_obj_style_gen.h ****     return (lv_align_t)v.num;
  53:Middlewares/LVGL/GUI/lvgl/src/core/lv_obj_style_gen.h **** }
  54:Middlewares/LVGL/GUI/lvgl/src/core/lv_obj_style_gen.h **** 
  55:Middlewares/LVGL/GUI/lvgl/src/core/lv_obj_style_gen.h **** static inline lv_coord_t lv_obj_get_style_transform_width(const struct _lv_obj_t * obj, uint32_t pa
  56:Middlewares/LVGL/GUI/lvgl/src/core/lv_obj_style_gen.h **** {
  57:Middlewares/LVGL/GUI/lvgl/src/core/lv_obj_style_gen.h ****     lv_style_value_t v = lv_obj_get_style_prop(obj, part, LV_STYLE_TRANSFORM_WIDTH);
  58:Middlewares/LVGL/GUI/lvgl/src/core/lv_obj_style_gen.h ****     return (lv_coord_t)v.num;
  59:Middlewares/LVGL/GUI/lvgl/src/core/lv_obj_style_gen.h **** }
  60:Middlewares/LVGL/GUI/lvgl/src/core/lv_obj_style_gen.h **** 
  61:Middlewares/LVGL/GUI/lvgl/src/core/lv_obj_style_gen.h **** static inline lv_coord_t lv_obj_get_style_transform_height(const struct _lv_obj_t * obj, uint32_t p
  62:Middlewares/LVGL/GUI/lvgl/src/core/lv_obj_style_gen.h **** {
  63:Middlewares/LVGL/GUI/lvgl/src/core/lv_obj_style_gen.h ****     lv_style_value_t v = lv_obj_get_style_prop(obj, part, LV_STYLE_TRANSFORM_HEIGHT);
  64:Middlewares/LVGL/GUI/lvgl/src/core/lv_obj_style_gen.h ****     return (lv_coord_t)v.num;
  65:Middlewares/LVGL/GUI/lvgl/src/core/lv_obj_style_gen.h **** }
  66:Middlewares/LVGL/GUI/lvgl/src/core/lv_obj_style_gen.h **** 
  67:Middlewares/LVGL/GUI/lvgl/src/core/lv_obj_style_gen.h **** static inline lv_coord_t lv_obj_get_style_translate_x(const struct _lv_obj_t * obj, uint32_t part)
  68:Middlewares/LVGL/GUI/lvgl/src/core/lv_obj_style_gen.h **** {
  69:Middlewares/LVGL/GUI/lvgl/src/core/lv_obj_style_gen.h ****     lv_style_value_t v = lv_obj_get_style_prop(obj, part, LV_STYLE_TRANSLATE_X);
  70:Middlewares/LVGL/GUI/lvgl/src/core/lv_obj_style_gen.h ****     return (lv_coord_t)v.num;
  71:Middlewares/LVGL/GUI/lvgl/src/core/lv_obj_style_gen.h **** }
  72:Middlewares/LVGL/GUI/lvgl/src/core/lv_obj_style_gen.h **** 
  73:Middlewares/LVGL/GUI/lvgl/src/core/lv_obj_style_gen.h **** static inline lv_coord_t lv_obj_get_style_translate_y(const struct _lv_obj_t * obj, uint32_t part)
  74:Middlewares/LVGL/GUI/lvgl/src/core/lv_obj_style_gen.h **** {
  75:Middlewares/LVGL/GUI/lvgl/src/core/lv_obj_style_gen.h ****     lv_style_value_t v = lv_obj_get_style_prop(obj, part, LV_STYLE_TRANSLATE_Y);
  76:Middlewares/LVGL/GUI/lvgl/src/core/lv_obj_style_gen.h ****     return (lv_coord_t)v.num;
  77:Middlewares/LVGL/GUI/lvgl/src/core/lv_obj_style_gen.h **** }
  78:Middlewares/LVGL/GUI/lvgl/src/core/lv_obj_style_gen.h **** 
ARM GAS  C:\Users\ADMINI~1\AppData\Local\Temp\cc386Zoq.s 			page 4


  79:Middlewares/LVGL/GUI/lvgl/src/core/lv_obj_style_gen.h **** static inline lv_coord_t lv_obj_get_style_transform_zoom(const struct _lv_obj_t * obj, uint32_t par
  80:Middlewares/LVGL/GUI/lvgl/src/core/lv_obj_style_gen.h **** {
  81:Middlewares/LVGL/GUI/lvgl/src/core/lv_obj_style_gen.h ****     lv_style_value_t v = lv_obj_get_style_prop(obj, part, LV_STYLE_TRANSFORM_ZOOM);
  82:Middlewares/LVGL/GUI/lvgl/src/core/lv_obj_style_gen.h ****     return (lv_coord_t)v.num;
  83:Middlewares/LVGL/GUI/lvgl/src/core/lv_obj_style_gen.h **** }
  84:Middlewares/LVGL/GUI/lvgl/src/core/lv_obj_style_gen.h **** 
  85:Middlewares/LVGL/GUI/lvgl/src/core/lv_obj_style_gen.h **** static inline lv_coord_t lv_obj_get_style_transform_angle(const struct _lv_obj_t * obj, uint32_t pa
  86:Middlewares/LVGL/GUI/lvgl/src/core/lv_obj_style_gen.h **** {
  87:Middlewares/LVGL/GUI/lvgl/src/core/lv_obj_style_gen.h ****     lv_style_value_t v = lv_obj_get_style_prop(obj, part, LV_STYLE_TRANSFORM_ANGLE);
  88:Middlewares/LVGL/GUI/lvgl/src/core/lv_obj_style_gen.h ****     return (lv_coord_t)v.num;
  89:Middlewares/LVGL/GUI/lvgl/src/core/lv_obj_style_gen.h **** }
  90:Middlewares/LVGL/GUI/lvgl/src/core/lv_obj_style_gen.h **** 
  91:Middlewares/LVGL/GUI/lvgl/src/core/lv_obj_style_gen.h **** static inline lv_coord_t lv_obj_get_style_pad_top(const struct _lv_obj_t * obj, uint32_t part)
  92:Middlewares/LVGL/GUI/lvgl/src/core/lv_obj_style_gen.h **** {
  93:Middlewares/LVGL/GUI/lvgl/src/core/lv_obj_style_gen.h ****     lv_style_value_t v = lv_obj_get_style_prop(obj, part, LV_STYLE_PAD_TOP);
  94:Middlewares/LVGL/GUI/lvgl/src/core/lv_obj_style_gen.h ****     return (lv_coord_t)v.num;
  95:Middlewares/LVGL/GUI/lvgl/src/core/lv_obj_style_gen.h **** }
  96:Middlewares/LVGL/GUI/lvgl/src/core/lv_obj_style_gen.h **** 
  97:Middlewares/LVGL/GUI/lvgl/src/core/lv_obj_style_gen.h **** static inline lv_coord_t lv_obj_get_style_pad_bottom(const struct _lv_obj_t * obj, uint32_t part)
  98:Middlewares/LVGL/GUI/lvgl/src/core/lv_obj_style_gen.h **** {
  99:Middlewares/LVGL/GUI/lvgl/src/core/lv_obj_style_gen.h ****     lv_style_value_t v = lv_obj_get_style_prop(obj, part, LV_STYLE_PAD_BOTTOM);
 100:Middlewares/LVGL/GUI/lvgl/src/core/lv_obj_style_gen.h ****     return (lv_coord_t)v.num;
 101:Middlewares/LVGL/GUI/lvgl/src/core/lv_obj_style_gen.h **** }
 102:Middlewares/LVGL/GUI/lvgl/src/core/lv_obj_style_gen.h **** 
 103:Middlewares/LVGL/GUI/lvgl/src/core/lv_obj_style_gen.h **** static inline lv_coord_t lv_obj_get_style_pad_left(const struct _lv_obj_t * obj, uint32_t part)
 104:Middlewares/LVGL/GUI/lvgl/src/core/lv_obj_style_gen.h **** {
 105:Middlewares/LVGL/GUI/lvgl/src/core/lv_obj_style_gen.h ****     lv_style_value_t v = lv_obj_get_style_prop(obj, part, LV_STYLE_PAD_LEFT);
 106:Middlewares/LVGL/GUI/lvgl/src/core/lv_obj_style_gen.h ****     return (lv_coord_t)v.num;
 107:Middlewares/LVGL/GUI/lvgl/src/core/lv_obj_style_gen.h **** }
 108:Middlewares/LVGL/GUI/lvgl/src/core/lv_obj_style_gen.h **** 
 109:Middlewares/LVGL/GUI/lvgl/src/core/lv_obj_style_gen.h **** static inline lv_coord_t lv_obj_get_style_pad_right(const struct _lv_obj_t * obj, uint32_t part)
 110:Middlewares/LVGL/GUI/lvgl/src/core/lv_obj_style_gen.h **** {
 111:Middlewares/LVGL/GUI/lvgl/src/core/lv_obj_style_gen.h ****     lv_style_value_t v = lv_obj_get_style_prop(obj, part, LV_STYLE_PAD_RIGHT);
 112:Middlewares/LVGL/GUI/lvgl/src/core/lv_obj_style_gen.h ****     return (lv_coord_t)v.num;
 113:Middlewares/LVGL/GUI/lvgl/src/core/lv_obj_style_gen.h **** }
 114:Middlewares/LVGL/GUI/lvgl/src/core/lv_obj_style_gen.h **** 
 115:Middlewares/LVGL/GUI/lvgl/src/core/lv_obj_style_gen.h **** static inline lv_coord_t lv_obj_get_style_pad_row(const struct _lv_obj_t * obj, uint32_t part)
 116:Middlewares/LVGL/GUI/lvgl/src/core/lv_obj_style_gen.h **** {
 117:Middlewares/LVGL/GUI/lvgl/src/core/lv_obj_style_gen.h ****     lv_style_value_t v = lv_obj_get_style_prop(obj, part, LV_STYLE_PAD_ROW);
 118:Middlewares/LVGL/GUI/lvgl/src/core/lv_obj_style_gen.h ****     return (lv_coord_t)v.num;
 119:Middlewares/LVGL/GUI/lvgl/src/core/lv_obj_style_gen.h **** }
 120:Middlewares/LVGL/GUI/lvgl/src/core/lv_obj_style_gen.h **** 
 121:Middlewares/LVGL/GUI/lvgl/src/core/lv_obj_style_gen.h **** static inline lv_coord_t lv_obj_get_style_pad_column(const struct _lv_obj_t * obj, uint32_t part)
 122:Middlewares/LVGL/GUI/lvgl/src/core/lv_obj_style_gen.h **** {
 123:Middlewares/LVGL/GUI/lvgl/src/core/lv_obj_style_gen.h ****     lv_style_value_t v = lv_obj_get_style_prop(obj, part, LV_STYLE_PAD_COLUMN);
 124:Middlewares/LVGL/GUI/lvgl/src/core/lv_obj_style_gen.h ****     return (lv_coord_t)v.num;
 125:Middlewares/LVGL/GUI/lvgl/src/core/lv_obj_style_gen.h **** }
 126:Middlewares/LVGL/GUI/lvgl/src/core/lv_obj_style_gen.h **** 
 127:Middlewares/LVGL/GUI/lvgl/src/core/lv_obj_style_gen.h **** static inline lv_color_t lv_obj_get_style_bg_color(const struct _lv_obj_t * obj, uint32_t part)
 128:Middlewares/LVGL/GUI/lvgl/src/core/lv_obj_style_gen.h **** {
 129:Middlewares/LVGL/GUI/lvgl/src/core/lv_obj_style_gen.h ****     lv_style_value_t v = lv_obj_get_style_prop(obj, part, LV_STYLE_BG_COLOR);
 130:Middlewares/LVGL/GUI/lvgl/src/core/lv_obj_style_gen.h ****     return v.color;
 131:Middlewares/LVGL/GUI/lvgl/src/core/lv_obj_style_gen.h **** }
 132:Middlewares/LVGL/GUI/lvgl/src/core/lv_obj_style_gen.h **** 
 133:Middlewares/LVGL/GUI/lvgl/src/core/lv_obj_style_gen.h **** static inline lv_color_t lv_obj_get_style_bg_color_filtered(const struct _lv_obj_t * obj, uint32_t 
 134:Middlewares/LVGL/GUI/lvgl/src/core/lv_obj_style_gen.h **** {
 135:Middlewares/LVGL/GUI/lvgl/src/core/lv_obj_style_gen.h ****     lv_style_value_t v = lv_obj_get_style_prop(obj, part, LV_STYLE_BG_COLOR_FILTERED);
ARM GAS  C:\Users\ADMINI~1\AppData\Local\Temp\cc386Zoq.s 			page 5


 136:Middlewares/LVGL/GUI/lvgl/src/core/lv_obj_style_gen.h ****     return v.color;
 137:Middlewares/LVGL/GUI/lvgl/src/core/lv_obj_style_gen.h **** }
 138:Middlewares/LVGL/GUI/lvgl/src/core/lv_obj_style_gen.h **** 
 139:Middlewares/LVGL/GUI/lvgl/src/core/lv_obj_style_gen.h **** static inline lv_opa_t lv_obj_get_style_bg_opa(const struct _lv_obj_t * obj, uint32_t part)
 140:Middlewares/LVGL/GUI/lvgl/src/core/lv_obj_style_gen.h **** {
 141:Middlewares/LVGL/GUI/lvgl/src/core/lv_obj_style_gen.h ****     lv_style_value_t v = lv_obj_get_style_prop(obj, part, LV_STYLE_BG_OPA);
 142:Middlewares/LVGL/GUI/lvgl/src/core/lv_obj_style_gen.h ****     return (lv_opa_t)v.num;
 143:Middlewares/LVGL/GUI/lvgl/src/core/lv_obj_style_gen.h **** }
 144:Middlewares/LVGL/GUI/lvgl/src/core/lv_obj_style_gen.h **** 
 145:Middlewares/LVGL/GUI/lvgl/src/core/lv_obj_style_gen.h **** static inline lv_color_t lv_obj_get_style_bg_grad_color(const struct _lv_obj_t * obj, uint32_t part
 146:Middlewares/LVGL/GUI/lvgl/src/core/lv_obj_style_gen.h **** {
 147:Middlewares/LVGL/GUI/lvgl/src/core/lv_obj_style_gen.h ****     lv_style_value_t v = lv_obj_get_style_prop(obj, part, LV_STYLE_BG_GRAD_COLOR);
 148:Middlewares/LVGL/GUI/lvgl/src/core/lv_obj_style_gen.h ****     return v.color;
 149:Middlewares/LVGL/GUI/lvgl/src/core/lv_obj_style_gen.h **** }
 150:Middlewares/LVGL/GUI/lvgl/src/core/lv_obj_style_gen.h **** 
 151:Middlewares/LVGL/GUI/lvgl/src/core/lv_obj_style_gen.h **** static inline lv_color_t lv_obj_get_style_bg_grad_color_filtered(const struct _lv_obj_t * obj, uint
 152:Middlewares/LVGL/GUI/lvgl/src/core/lv_obj_style_gen.h **** {
 153:Middlewares/LVGL/GUI/lvgl/src/core/lv_obj_style_gen.h ****     lv_style_value_t v = lv_obj_get_style_prop(obj, part, LV_STYLE_BG_GRAD_COLOR_FILTERED);
 154:Middlewares/LVGL/GUI/lvgl/src/core/lv_obj_style_gen.h ****     return v.color;
 155:Middlewares/LVGL/GUI/lvgl/src/core/lv_obj_style_gen.h **** }
 156:Middlewares/LVGL/GUI/lvgl/src/core/lv_obj_style_gen.h **** 
 157:Middlewares/LVGL/GUI/lvgl/src/core/lv_obj_style_gen.h **** static inline lv_grad_dir_t lv_obj_get_style_bg_grad_dir(const struct _lv_obj_t * obj, uint32_t par
 158:Middlewares/LVGL/GUI/lvgl/src/core/lv_obj_style_gen.h **** {
 159:Middlewares/LVGL/GUI/lvgl/src/core/lv_obj_style_gen.h ****     lv_style_value_t v = lv_obj_get_style_prop(obj, part, LV_STYLE_BG_GRAD_DIR);
 160:Middlewares/LVGL/GUI/lvgl/src/core/lv_obj_style_gen.h ****     return (lv_grad_dir_t)v.num;
 161:Middlewares/LVGL/GUI/lvgl/src/core/lv_obj_style_gen.h **** }
 162:Middlewares/LVGL/GUI/lvgl/src/core/lv_obj_style_gen.h **** 
 163:Middlewares/LVGL/GUI/lvgl/src/core/lv_obj_style_gen.h **** static inline lv_coord_t lv_obj_get_style_bg_main_stop(const struct _lv_obj_t * obj, uint32_t part)
 164:Middlewares/LVGL/GUI/lvgl/src/core/lv_obj_style_gen.h **** {
 165:Middlewares/LVGL/GUI/lvgl/src/core/lv_obj_style_gen.h ****     lv_style_value_t v = lv_obj_get_style_prop(obj, part, LV_STYLE_BG_MAIN_STOP);
 166:Middlewares/LVGL/GUI/lvgl/src/core/lv_obj_style_gen.h ****     return (lv_coord_t)v.num;
 167:Middlewares/LVGL/GUI/lvgl/src/core/lv_obj_style_gen.h **** }
 168:Middlewares/LVGL/GUI/lvgl/src/core/lv_obj_style_gen.h **** 
 169:Middlewares/LVGL/GUI/lvgl/src/core/lv_obj_style_gen.h **** static inline lv_coord_t lv_obj_get_style_bg_grad_stop(const struct _lv_obj_t * obj, uint32_t part)
 170:Middlewares/LVGL/GUI/lvgl/src/core/lv_obj_style_gen.h **** {
 171:Middlewares/LVGL/GUI/lvgl/src/core/lv_obj_style_gen.h ****     lv_style_value_t v = lv_obj_get_style_prop(obj, part, LV_STYLE_BG_GRAD_STOP);
 172:Middlewares/LVGL/GUI/lvgl/src/core/lv_obj_style_gen.h ****     return (lv_coord_t)v.num;
 173:Middlewares/LVGL/GUI/lvgl/src/core/lv_obj_style_gen.h **** }
 174:Middlewares/LVGL/GUI/lvgl/src/core/lv_obj_style_gen.h **** 
 175:Middlewares/LVGL/GUI/lvgl/src/core/lv_obj_style_gen.h **** static inline const lv_grad_dsc_t * lv_obj_get_style_bg_grad(const struct _lv_obj_t * obj, uint32_t
 176:Middlewares/LVGL/GUI/lvgl/src/core/lv_obj_style_gen.h **** {
 177:Middlewares/LVGL/GUI/lvgl/src/core/lv_obj_style_gen.h ****     lv_style_value_t v = lv_obj_get_style_prop(obj, part, LV_STYLE_BG_GRAD);
 178:Middlewares/LVGL/GUI/lvgl/src/core/lv_obj_style_gen.h ****     return (const lv_grad_dsc_t *)v.ptr;
 179:Middlewares/LVGL/GUI/lvgl/src/core/lv_obj_style_gen.h **** }
 180:Middlewares/LVGL/GUI/lvgl/src/core/lv_obj_style_gen.h **** 
 181:Middlewares/LVGL/GUI/lvgl/src/core/lv_obj_style_gen.h **** static inline lv_dither_mode_t lv_obj_get_style_bg_dither_mode(const struct _lv_obj_t * obj, uint32
 182:Middlewares/LVGL/GUI/lvgl/src/core/lv_obj_style_gen.h **** {
 183:Middlewares/LVGL/GUI/lvgl/src/core/lv_obj_style_gen.h ****     lv_style_value_t v = lv_obj_get_style_prop(obj, part, LV_STYLE_BG_DITHER_MODE);
 184:Middlewares/LVGL/GUI/lvgl/src/core/lv_obj_style_gen.h ****     return (lv_dither_mode_t)v.num;
 185:Middlewares/LVGL/GUI/lvgl/src/core/lv_obj_style_gen.h **** }
 186:Middlewares/LVGL/GUI/lvgl/src/core/lv_obj_style_gen.h **** 
 187:Middlewares/LVGL/GUI/lvgl/src/core/lv_obj_style_gen.h **** static inline const void * lv_obj_get_style_bg_img_src(const struct _lv_obj_t * obj, uint32_t part)
 188:Middlewares/LVGL/GUI/lvgl/src/core/lv_obj_style_gen.h **** {
 189:Middlewares/LVGL/GUI/lvgl/src/core/lv_obj_style_gen.h ****     lv_style_value_t v = lv_obj_get_style_prop(obj, part, LV_STYLE_BG_IMG_SRC);
 190:Middlewares/LVGL/GUI/lvgl/src/core/lv_obj_style_gen.h ****     return (const void *)v.ptr;
 191:Middlewares/LVGL/GUI/lvgl/src/core/lv_obj_style_gen.h **** }
 192:Middlewares/LVGL/GUI/lvgl/src/core/lv_obj_style_gen.h **** 
ARM GAS  C:\Users\ADMINI~1\AppData\Local\Temp\cc386Zoq.s 			page 6


 193:Middlewares/LVGL/GUI/lvgl/src/core/lv_obj_style_gen.h **** static inline lv_opa_t lv_obj_get_style_bg_img_opa(const struct _lv_obj_t * obj, uint32_t part)
 194:Middlewares/LVGL/GUI/lvgl/src/core/lv_obj_style_gen.h **** {
 195:Middlewares/LVGL/GUI/lvgl/src/core/lv_obj_style_gen.h ****     lv_style_value_t v = lv_obj_get_style_prop(obj, part, LV_STYLE_BG_IMG_OPA);
 196:Middlewares/LVGL/GUI/lvgl/src/core/lv_obj_style_gen.h ****     return (lv_opa_t)v.num;
 197:Middlewares/LVGL/GUI/lvgl/src/core/lv_obj_style_gen.h **** }
 198:Middlewares/LVGL/GUI/lvgl/src/core/lv_obj_style_gen.h **** 
 199:Middlewares/LVGL/GUI/lvgl/src/core/lv_obj_style_gen.h **** static inline lv_color_t lv_obj_get_style_bg_img_recolor(const struct _lv_obj_t * obj, uint32_t par
 200:Middlewares/LVGL/GUI/lvgl/src/core/lv_obj_style_gen.h **** {
 201:Middlewares/LVGL/GUI/lvgl/src/core/lv_obj_style_gen.h ****     lv_style_value_t v = lv_obj_get_style_prop(obj, part, LV_STYLE_BG_IMG_RECOLOR);
 202:Middlewares/LVGL/GUI/lvgl/src/core/lv_obj_style_gen.h ****     return v.color;
 203:Middlewares/LVGL/GUI/lvgl/src/core/lv_obj_style_gen.h **** }
 204:Middlewares/LVGL/GUI/lvgl/src/core/lv_obj_style_gen.h **** 
 205:Middlewares/LVGL/GUI/lvgl/src/core/lv_obj_style_gen.h **** static inline lv_color_t lv_obj_get_style_bg_img_recolor_filtered(const struct _lv_obj_t * obj, uin
 206:Middlewares/LVGL/GUI/lvgl/src/core/lv_obj_style_gen.h **** {
 207:Middlewares/LVGL/GUI/lvgl/src/core/lv_obj_style_gen.h ****     lv_style_value_t v = lv_obj_get_style_prop(obj, part, LV_STYLE_BG_IMG_RECOLOR_FILTERED);
 208:Middlewares/LVGL/GUI/lvgl/src/core/lv_obj_style_gen.h ****     return v.color;
 209:Middlewares/LVGL/GUI/lvgl/src/core/lv_obj_style_gen.h **** }
 210:Middlewares/LVGL/GUI/lvgl/src/core/lv_obj_style_gen.h **** 
 211:Middlewares/LVGL/GUI/lvgl/src/core/lv_obj_style_gen.h **** static inline lv_opa_t lv_obj_get_style_bg_img_recolor_opa(const struct _lv_obj_t * obj, uint32_t p
 212:Middlewares/LVGL/GUI/lvgl/src/core/lv_obj_style_gen.h **** {
 213:Middlewares/LVGL/GUI/lvgl/src/core/lv_obj_style_gen.h ****     lv_style_value_t v = lv_obj_get_style_prop(obj, part, LV_STYLE_BG_IMG_RECOLOR_OPA);
 214:Middlewares/LVGL/GUI/lvgl/src/core/lv_obj_style_gen.h ****     return (lv_opa_t)v.num;
 215:Middlewares/LVGL/GUI/lvgl/src/core/lv_obj_style_gen.h **** }
 216:Middlewares/LVGL/GUI/lvgl/src/core/lv_obj_style_gen.h **** 
 217:Middlewares/LVGL/GUI/lvgl/src/core/lv_obj_style_gen.h **** static inline bool lv_obj_get_style_bg_img_tiled(const struct _lv_obj_t * obj, uint32_t part)
 218:Middlewares/LVGL/GUI/lvgl/src/core/lv_obj_style_gen.h **** {
 219:Middlewares/LVGL/GUI/lvgl/src/core/lv_obj_style_gen.h ****     lv_style_value_t v = lv_obj_get_style_prop(obj, part, LV_STYLE_BG_IMG_TILED);
 220:Middlewares/LVGL/GUI/lvgl/src/core/lv_obj_style_gen.h ****     return (bool)v.num;
 221:Middlewares/LVGL/GUI/lvgl/src/core/lv_obj_style_gen.h **** }
 222:Middlewares/LVGL/GUI/lvgl/src/core/lv_obj_style_gen.h **** 
 223:Middlewares/LVGL/GUI/lvgl/src/core/lv_obj_style_gen.h **** static inline lv_color_t lv_obj_get_style_border_color(const struct _lv_obj_t * obj, uint32_t part)
 224:Middlewares/LVGL/GUI/lvgl/src/core/lv_obj_style_gen.h **** {
 225:Middlewares/LVGL/GUI/lvgl/src/core/lv_obj_style_gen.h ****     lv_style_value_t v = lv_obj_get_style_prop(obj, part, LV_STYLE_BORDER_COLOR);
 226:Middlewares/LVGL/GUI/lvgl/src/core/lv_obj_style_gen.h ****     return v.color;
 227:Middlewares/LVGL/GUI/lvgl/src/core/lv_obj_style_gen.h **** }
 228:Middlewares/LVGL/GUI/lvgl/src/core/lv_obj_style_gen.h **** 
 229:Middlewares/LVGL/GUI/lvgl/src/core/lv_obj_style_gen.h **** static inline lv_color_t lv_obj_get_style_border_color_filtered(const struct _lv_obj_t * obj, uint3
 230:Middlewares/LVGL/GUI/lvgl/src/core/lv_obj_style_gen.h **** {
 231:Middlewares/LVGL/GUI/lvgl/src/core/lv_obj_style_gen.h ****     lv_style_value_t v = lv_obj_get_style_prop(obj, part, LV_STYLE_BORDER_COLOR_FILTERED);
 232:Middlewares/LVGL/GUI/lvgl/src/core/lv_obj_style_gen.h ****     return v.color;
 233:Middlewares/LVGL/GUI/lvgl/src/core/lv_obj_style_gen.h **** }
 234:Middlewares/LVGL/GUI/lvgl/src/core/lv_obj_style_gen.h **** 
 235:Middlewares/LVGL/GUI/lvgl/src/core/lv_obj_style_gen.h **** static inline lv_opa_t lv_obj_get_style_border_opa(const struct _lv_obj_t * obj, uint32_t part)
 236:Middlewares/LVGL/GUI/lvgl/src/core/lv_obj_style_gen.h **** {
 237:Middlewares/LVGL/GUI/lvgl/src/core/lv_obj_style_gen.h ****     lv_style_value_t v = lv_obj_get_style_prop(obj, part, LV_STYLE_BORDER_OPA);
 238:Middlewares/LVGL/GUI/lvgl/src/core/lv_obj_style_gen.h ****     return (lv_opa_t)v.num;
 239:Middlewares/LVGL/GUI/lvgl/src/core/lv_obj_style_gen.h **** }
 240:Middlewares/LVGL/GUI/lvgl/src/core/lv_obj_style_gen.h **** 
 241:Middlewares/LVGL/GUI/lvgl/src/core/lv_obj_style_gen.h **** static inline lv_coord_t lv_obj_get_style_border_width(const struct _lv_obj_t * obj, uint32_t part)
 242:Middlewares/LVGL/GUI/lvgl/src/core/lv_obj_style_gen.h **** {
 243:Middlewares/LVGL/GUI/lvgl/src/core/lv_obj_style_gen.h ****     lv_style_value_t v = lv_obj_get_style_prop(obj, part, LV_STYLE_BORDER_WIDTH);
 244:Middlewares/LVGL/GUI/lvgl/src/core/lv_obj_style_gen.h ****     return (lv_coord_t)v.num;
 245:Middlewares/LVGL/GUI/lvgl/src/core/lv_obj_style_gen.h **** }
 246:Middlewares/LVGL/GUI/lvgl/src/core/lv_obj_style_gen.h **** 
 247:Middlewares/LVGL/GUI/lvgl/src/core/lv_obj_style_gen.h **** static inline lv_border_side_t lv_obj_get_style_border_side(const struct _lv_obj_t * obj, uint32_t 
 248:Middlewares/LVGL/GUI/lvgl/src/core/lv_obj_style_gen.h **** {
 249:Middlewares/LVGL/GUI/lvgl/src/core/lv_obj_style_gen.h ****     lv_style_value_t v = lv_obj_get_style_prop(obj, part, LV_STYLE_BORDER_SIDE);
ARM GAS  C:\Users\ADMINI~1\AppData\Local\Temp\cc386Zoq.s 			page 7


 250:Middlewares/LVGL/GUI/lvgl/src/core/lv_obj_style_gen.h ****     return (lv_border_side_t)v.num;
 251:Middlewares/LVGL/GUI/lvgl/src/core/lv_obj_style_gen.h **** }
 252:Middlewares/LVGL/GUI/lvgl/src/core/lv_obj_style_gen.h **** 
 253:Middlewares/LVGL/GUI/lvgl/src/core/lv_obj_style_gen.h **** static inline bool lv_obj_get_style_border_post(const struct _lv_obj_t * obj, uint32_t part)
 254:Middlewares/LVGL/GUI/lvgl/src/core/lv_obj_style_gen.h **** {
 255:Middlewares/LVGL/GUI/lvgl/src/core/lv_obj_style_gen.h ****     lv_style_value_t v = lv_obj_get_style_prop(obj, part, LV_STYLE_BORDER_POST);
 256:Middlewares/LVGL/GUI/lvgl/src/core/lv_obj_style_gen.h ****     return (bool)v.num;
 257:Middlewares/LVGL/GUI/lvgl/src/core/lv_obj_style_gen.h **** }
 258:Middlewares/LVGL/GUI/lvgl/src/core/lv_obj_style_gen.h **** 
 259:Middlewares/LVGL/GUI/lvgl/src/core/lv_obj_style_gen.h **** static inline lv_coord_t lv_obj_get_style_outline_width(const struct _lv_obj_t * obj, uint32_t part
 260:Middlewares/LVGL/GUI/lvgl/src/core/lv_obj_style_gen.h **** {
 261:Middlewares/LVGL/GUI/lvgl/src/core/lv_obj_style_gen.h ****     lv_style_value_t v = lv_obj_get_style_prop(obj, part, LV_STYLE_OUTLINE_WIDTH);
 262:Middlewares/LVGL/GUI/lvgl/src/core/lv_obj_style_gen.h ****     return (lv_coord_t)v.num;
 263:Middlewares/LVGL/GUI/lvgl/src/core/lv_obj_style_gen.h **** }
 264:Middlewares/LVGL/GUI/lvgl/src/core/lv_obj_style_gen.h **** 
 265:Middlewares/LVGL/GUI/lvgl/src/core/lv_obj_style_gen.h **** static inline lv_color_t lv_obj_get_style_outline_color(const struct _lv_obj_t * obj, uint32_t part
 266:Middlewares/LVGL/GUI/lvgl/src/core/lv_obj_style_gen.h **** {
 267:Middlewares/LVGL/GUI/lvgl/src/core/lv_obj_style_gen.h ****     lv_style_value_t v = lv_obj_get_style_prop(obj, part, LV_STYLE_OUTLINE_COLOR);
 268:Middlewares/LVGL/GUI/lvgl/src/core/lv_obj_style_gen.h ****     return v.color;
 269:Middlewares/LVGL/GUI/lvgl/src/core/lv_obj_style_gen.h **** }
 270:Middlewares/LVGL/GUI/lvgl/src/core/lv_obj_style_gen.h **** 
 271:Middlewares/LVGL/GUI/lvgl/src/core/lv_obj_style_gen.h **** static inline lv_color_t lv_obj_get_style_outline_color_filtered(const struct _lv_obj_t * obj, uint
 272:Middlewares/LVGL/GUI/lvgl/src/core/lv_obj_style_gen.h **** {
 273:Middlewares/LVGL/GUI/lvgl/src/core/lv_obj_style_gen.h ****     lv_style_value_t v = lv_obj_get_style_prop(obj, part, LV_STYLE_OUTLINE_COLOR_FILTERED);
 274:Middlewares/LVGL/GUI/lvgl/src/core/lv_obj_style_gen.h ****     return v.color;
 275:Middlewares/LVGL/GUI/lvgl/src/core/lv_obj_style_gen.h **** }
 276:Middlewares/LVGL/GUI/lvgl/src/core/lv_obj_style_gen.h **** 
 277:Middlewares/LVGL/GUI/lvgl/src/core/lv_obj_style_gen.h **** static inline lv_opa_t lv_obj_get_style_outline_opa(const struct _lv_obj_t * obj, uint32_t part)
 278:Middlewares/LVGL/GUI/lvgl/src/core/lv_obj_style_gen.h **** {
 279:Middlewares/LVGL/GUI/lvgl/src/core/lv_obj_style_gen.h ****     lv_style_value_t v = lv_obj_get_style_prop(obj, part, LV_STYLE_OUTLINE_OPA);
 280:Middlewares/LVGL/GUI/lvgl/src/core/lv_obj_style_gen.h ****     return (lv_opa_t)v.num;
 281:Middlewares/LVGL/GUI/lvgl/src/core/lv_obj_style_gen.h **** }
 282:Middlewares/LVGL/GUI/lvgl/src/core/lv_obj_style_gen.h **** 
 283:Middlewares/LVGL/GUI/lvgl/src/core/lv_obj_style_gen.h **** static inline lv_coord_t lv_obj_get_style_outline_pad(const struct _lv_obj_t * obj, uint32_t part)
 284:Middlewares/LVGL/GUI/lvgl/src/core/lv_obj_style_gen.h **** {
 285:Middlewares/LVGL/GUI/lvgl/src/core/lv_obj_style_gen.h ****     lv_style_value_t v = lv_obj_get_style_prop(obj, part, LV_STYLE_OUTLINE_PAD);
 286:Middlewares/LVGL/GUI/lvgl/src/core/lv_obj_style_gen.h ****     return (lv_coord_t)v.num;
 287:Middlewares/LVGL/GUI/lvgl/src/core/lv_obj_style_gen.h **** }
 288:Middlewares/LVGL/GUI/lvgl/src/core/lv_obj_style_gen.h **** 
 289:Middlewares/LVGL/GUI/lvgl/src/core/lv_obj_style_gen.h **** static inline lv_coord_t lv_obj_get_style_shadow_width(const struct _lv_obj_t * obj, uint32_t part)
 290:Middlewares/LVGL/GUI/lvgl/src/core/lv_obj_style_gen.h **** {
 291:Middlewares/LVGL/GUI/lvgl/src/core/lv_obj_style_gen.h ****     lv_style_value_t v = lv_obj_get_style_prop(obj, part, LV_STYLE_SHADOW_WIDTH);
 292:Middlewares/LVGL/GUI/lvgl/src/core/lv_obj_style_gen.h ****     return (lv_coord_t)v.num;
 293:Middlewares/LVGL/GUI/lvgl/src/core/lv_obj_style_gen.h **** }
 294:Middlewares/LVGL/GUI/lvgl/src/core/lv_obj_style_gen.h **** 
 295:Middlewares/LVGL/GUI/lvgl/src/core/lv_obj_style_gen.h **** static inline lv_coord_t lv_obj_get_style_shadow_ofs_x(const struct _lv_obj_t * obj, uint32_t part)
 296:Middlewares/LVGL/GUI/lvgl/src/core/lv_obj_style_gen.h **** {
 297:Middlewares/LVGL/GUI/lvgl/src/core/lv_obj_style_gen.h ****     lv_style_value_t v = lv_obj_get_style_prop(obj, part, LV_STYLE_SHADOW_OFS_X);
 298:Middlewares/LVGL/GUI/lvgl/src/core/lv_obj_style_gen.h ****     return (lv_coord_t)v.num;
 299:Middlewares/LVGL/GUI/lvgl/src/core/lv_obj_style_gen.h **** }
 300:Middlewares/LVGL/GUI/lvgl/src/core/lv_obj_style_gen.h **** 
 301:Middlewares/LVGL/GUI/lvgl/src/core/lv_obj_style_gen.h **** static inline lv_coord_t lv_obj_get_style_shadow_ofs_y(const struct _lv_obj_t * obj, uint32_t part)
 302:Middlewares/LVGL/GUI/lvgl/src/core/lv_obj_style_gen.h **** {
 303:Middlewares/LVGL/GUI/lvgl/src/core/lv_obj_style_gen.h ****     lv_style_value_t v = lv_obj_get_style_prop(obj, part, LV_STYLE_SHADOW_OFS_Y);
 304:Middlewares/LVGL/GUI/lvgl/src/core/lv_obj_style_gen.h ****     return (lv_coord_t)v.num;
 305:Middlewares/LVGL/GUI/lvgl/src/core/lv_obj_style_gen.h **** }
 306:Middlewares/LVGL/GUI/lvgl/src/core/lv_obj_style_gen.h **** 
ARM GAS  C:\Users\ADMINI~1\AppData\Local\Temp\cc386Zoq.s 			page 8


 307:Middlewares/LVGL/GUI/lvgl/src/core/lv_obj_style_gen.h **** static inline lv_coord_t lv_obj_get_style_shadow_spread(const struct _lv_obj_t * obj, uint32_t part
 308:Middlewares/LVGL/GUI/lvgl/src/core/lv_obj_style_gen.h **** {
 309:Middlewares/LVGL/GUI/lvgl/src/core/lv_obj_style_gen.h ****     lv_style_value_t v = lv_obj_get_style_prop(obj, part, LV_STYLE_SHADOW_SPREAD);
 310:Middlewares/LVGL/GUI/lvgl/src/core/lv_obj_style_gen.h ****     return (lv_coord_t)v.num;
 311:Middlewares/LVGL/GUI/lvgl/src/core/lv_obj_style_gen.h **** }
 312:Middlewares/LVGL/GUI/lvgl/src/core/lv_obj_style_gen.h **** 
 313:Middlewares/LVGL/GUI/lvgl/src/core/lv_obj_style_gen.h **** static inline lv_color_t lv_obj_get_style_shadow_color(const struct _lv_obj_t * obj, uint32_t part)
 314:Middlewares/LVGL/GUI/lvgl/src/core/lv_obj_style_gen.h **** {
 315:Middlewares/LVGL/GUI/lvgl/src/core/lv_obj_style_gen.h ****     lv_style_value_t v = lv_obj_get_style_prop(obj, part, LV_STYLE_SHADOW_COLOR);
 316:Middlewares/LVGL/GUI/lvgl/src/core/lv_obj_style_gen.h ****     return v.color;
 317:Middlewares/LVGL/GUI/lvgl/src/core/lv_obj_style_gen.h **** }
 318:Middlewares/LVGL/GUI/lvgl/src/core/lv_obj_style_gen.h **** 
 319:Middlewares/LVGL/GUI/lvgl/src/core/lv_obj_style_gen.h **** static inline lv_color_t lv_obj_get_style_shadow_color_filtered(const struct _lv_obj_t * obj, uint3
 320:Middlewares/LVGL/GUI/lvgl/src/core/lv_obj_style_gen.h **** {
 321:Middlewares/LVGL/GUI/lvgl/src/core/lv_obj_style_gen.h ****     lv_style_value_t v = lv_obj_get_style_prop(obj, part, LV_STYLE_SHADOW_COLOR_FILTERED);
 322:Middlewares/LVGL/GUI/lvgl/src/core/lv_obj_style_gen.h ****     return v.color;
 323:Middlewares/LVGL/GUI/lvgl/src/core/lv_obj_style_gen.h **** }
 324:Middlewares/LVGL/GUI/lvgl/src/core/lv_obj_style_gen.h **** 
 325:Middlewares/LVGL/GUI/lvgl/src/core/lv_obj_style_gen.h **** static inline lv_opa_t lv_obj_get_style_shadow_opa(const struct _lv_obj_t * obj, uint32_t part)
 326:Middlewares/LVGL/GUI/lvgl/src/core/lv_obj_style_gen.h **** {
 327:Middlewares/LVGL/GUI/lvgl/src/core/lv_obj_style_gen.h ****     lv_style_value_t v = lv_obj_get_style_prop(obj, part, LV_STYLE_SHADOW_OPA);
 328:Middlewares/LVGL/GUI/lvgl/src/core/lv_obj_style_gen.h ****     return (lv_opa_t)v.num;
 329:Middlewares/LVGL/GUI/lvgl/src/core/lv_obj_style_gen.h **** }
 330:Middlewares/LVGL/GUI/lvgl/src/core/lv_obj_style_gen.h **** 
 331:Middlewares/LVGL/GUI/lvgl/src/core/lv_obj_style_gen.h **** static inline lv_opa_t lv_obj_get_style_img_opa(const struct _lv_obj_t * obj, uint32_t part)
 332:Middlewares/LVGL/GUI/lvgl/src/core/lv_obj_style_gen.h **** {
 333:Middlewares/LVGL/GUI/lvgl/src/core/lv_obj_style_gen.h ****     lv_style_value_t v = lv_obj_get_style_prop(obj, part, LV_STYLE_IMG_OPA);
 334:Middlewares/LVGL/GUI/lvgl/src/core/lv_obj_style_gen.h ****     return (lv_opa_t)v.num;
 335:Middlewares/LVGL/GUI/lvgl/src/core/lv_obj_style_gen.h **** }
 336:Middlewares/LVGL/GUI/lvgl/src/core/lv_obj_style_gen.h **** 
 337:Middlewares/LVGL/GUI/lvgl/src/core/lv_obj_style_gen.h **** static inline lv_color_t lv_obj_get_style_img_recolor(const struct _lv_obj_t * obj, uint32_t part)
 338:Middlewares/LVGL/GUI/lvgl/src/core/lv_obj_style_gen.h **** {
 339:Middlewares/LVGL/GUI/lvgl/src/core/lv_obj_style_gen.h ****     lv_style_value_t v = lv_obj_get_style_prop(obj, part, LV_STYLE_IMG_RECOLOR);
 340:Middlewares/LVGL/GUI/lvgl/src/core/lv_obj_style_gen.h ****     return v.color;
 341:Middlewares/LVGL/GUI/lvgl/src/core/lv_obj_style_gen.h **** }
 342:Middlewares/LVGL/GUI/lvgl/src/core/lv_obj_style_gen.h **** 
 343:Middlewares/LVGL/GUI/lvgl/src/core/lv_obj_style_gen.h **** static inline lv_color_t lv_obj_get_style_img_recolor_filtered(const struct _lv_obj_t * obj, uint32
 344:Middlewares/LVGL/GUI/lvgl/src/core/lv_obj_style_gen.h **** {
 345:Middlewares/LVGL/GUI/lvgl/src/core/lv_obj_style_gen.h ****     lv_style_value_t v = lv_obj_get_style_prop(obj, part, LV_STYLE_IMG_RECOLOR_FILTERED);
 346:Middlewares/LVGL/GUI/lvgl/src/core/lv_obj_style_gen.h ****     return v.color;
 347:Middlewares/LVGL/GUI/lvgl/src/core/lv_obj_style_gen.h **** }
 348:Middlewares/LVGL/GUI/lvgl/src/core/lv_obj_style_gen.h **** 
 349:Middlewares/LVGL/GUI/lvgl/src/core/lv_obj_style_gen.h **** static inline lv_opa_t lv_obj_get_style_img_recolor_opa(const struct _lv_obj_t * obj, uint32_t part
 350:Middlewares/LVGL/GUI/lvgl/src/core/lv_obj_style_gen.h **** {
 351:Middlewares/LVGL/GUI/lvgl/src/core/lv_obj_style_gen.h ****     lv_style_value_t v = lv_obj_get_style_prop(obj, part, LV_STYLE_IMG_RECOLOR_OPA);
 352:Middlewares/LVGL/GUI/lvgl/src/core/lv_obj_style_gen.h ****     return (lv_opa_t)v.num;
 353:Middlewares/LVGL/GUI/lvgl/src/core/lv_obj_style_gen.h **** }
 354:Middlewares/LVGL/GUI/lvgl/src/core/lv_obj_style_gen.h **** 
 355:Middlewares/LVGL/GUI/lvgl/src/core/lv_obj_style_gen.h **** static inline lv_coord_t lv_obj_get_style_line_width(const struct _lv_obj_t * obj, uint32_t part)
 356:Middlewares/LVGL/GUI/lvgl/src/core/lv_obj_style_gen.h **** {
 357:Middlewares/LVGL/GUI/lvgl/src/core/lv_obj_style_gen.h ****     lv_style_value_t v = lv_obj_get_style_prop(obj, part, LV_STYLE_LINE_WIDTH);
 358:Middlewares/LVGL/GUI/lvgl/src/core/lv_obj_style_gen.h ****     return (lv_coord_t)v.num;
 359:Middlewares/LVGL/GUI/lvgl/src/core/lv_obj_style_gen.h **** }
 360:Middlewares/LVGL/GUI/lvgl/src/core/lv_obj_style_gen.h **** 
 361:Middlewares/LVGL/GUI/lvgl/src/core/lv_obj_style_gen.h **** static inline lv_coord_t lv_obj_get_style_line_dash_width(const struct _lv_obj_t * obj, uint32_t pa
 362:Middlewares/LVGL/GUI/lvgl/src/core/lv_obj_style_gen.h **** {
 363:Middlewares/LVGL/GUI/lvgl/src/core/lv_obj_style_gen.h ****     lv_style_value_t v = lv_obj_get_style_prop(obj, part, LV_STYLE_LINE_DASH_WIDTH);
ARM GAS  C:\Users\ADMINI~1\AppData\Local\Temp\cc386Zoq.s 			page 9


 364:Middlewares/LVGL/GUI/lvgl/src/core/lv_obj_style_gen.h ****     return (lv_coord_t)v.num;
 365:Middlewares/LVGL/GUI/lvgl/src/core/lv_obj_style_gen.h **** }
 366:Middlewares/LVGL/GUI/lvgl/src/core/lv_obj_style_gen.h **** 
 367:Middlewares/LVGL/GUI/lvgl/src/core/lv_obj_style_gen.h **** static inline lv_coord_t lv_obj_get_style_line_dash_gap(const struct _lv_obj_t * obj, uint32_t part
 368:Middlewares/LVGL/GUI/lvgl/src/core/lv_obj_style_gen.h **** {
 369:Middlewares/LVGL/GUI/lvgl/src/core/lv_obj_style_gen.h ****     lv_style_value_t v = lv_obj_get_style_prop(obj, part, LV_STYLE_LINE_DASH_GAP);
 370:Middlewares/LVGL/GUI/lvgl/src/core/lv_obj_style_gen.h ****     return (lv_coord_t)v.num;
 371:Middlewares/LVGL/GUI/lvgl/src/core/lv_obj_style_gen.h **** }
 372:Middlewares/LVGL/GUI/lvgl/src/core/lv_obj_style_gen.h **** 
 373:Middlewares/LVGL/GUI/lvgl/src/core/lv_obj_style_gen.h **** static inline bool lv_obj_get_style_line_rounded(const struct _lv_obj_t * obj, uint32_t part)
 374:Middlewares/LVGL/GUI/lvgl/src/core/lv_obj_style_gen.h **** {
 375:Middlewares/LVGL/GUI/lvgl/src/core/lv_obj_style_gen.h ****     lv_style_value_t v = lv_obj_get_style_prop(obj, part, LV_STYLE_LINE_ROUNDED);
 376:Middlewares/LVGL/GUI/lvgl/src/core/lv_obj_style_gen.h ****     return (bool)v.num;
 377:Middlewares/LVGL/GUI/lvgl/src/core/lv_obj_style_gen.h **** }
 378:Middlewares/LVGL/GUI/lvgl/src/core/lv_obj_style_gen.h **** 
 379:Middlewares/LVGL/GUI/lvgl/src/core/lv_obj_style_gen.h **** static inline lv_color_t lv_obj_get_style_line_color(const struct _lv_obj_t * obj, uint32_t part)
 380:Middlewares/LVGL/GUI/lvgl/src/core/lv_obj_style_gen.h **** {
 381:Middlewares/LVGL/GUI/lvgl/src/core/lv_obj_style_gen.h ****     lv_style_value_t v = lv_obj_get_style_prop(obj, part, LV_STYLE_LINE_COLOR);
 382:Middlewares/LVGL/GUI/lvgl/src/core/lv_obj_style_gen.h ****     return v.color;
 383:Middlewares/LVGL/GUI/lvgl/src/core/lv_obj_style_gen.h **** }
 384:Middlewares/LVGL/GUI/lvgl/src/core/lv_obj_style_gen.h **** 
 385:Middlewares/LVGL/GUI/lvgl/src/core/lv_obj_style_gen.h **** static inline lv_color_t lv_obj_get_style_line_color_filtered(const struct _lv_obj_t * obj, uint32_
 386:Middlewares/LVGL/GUI/lvgl/src/core/lv_obj_style_gen.h **** {
 387:Middlewares/LVGL/GUI/lvgl/src/core/lv_obj_style_gen.h ****     lv_style_value_t v = lv_obj_get_style_prop(obj, part, LV_STYLE_LINE_COLOR_FILTERED);
 388:Middlewares/LVGL/GUI/lvgl/src/core/lv_obj_style_gen.h ****     return v.color;
 389:Middlewares/LVGL/GUI/lvgl/src/core/lv_obj_style_gen.h **** }
 390:Middlewares/LVGL/GUI/lvgl/src/core/lv_obj_style_gen.h **** 
 391:Middlewares/LVGL/GUI/lvgl/src/core/lv_obj_style_gen.h **** static inline lv_opa_t lv_obj_get_style_line_opa(const struct _lv_obj_t * obj, uint32_t part)
 392:Middlewares/LVGL/GUI/lvgl/src/core/lv_obj_style_gen.h **** {
 393:Middlewares/LVGL/GUI/lvgl/src/core/lv_obj_style_gen.h ****     lv_style_value_t v = lv_obj_get_style_prop(obj, part, LV_STYLE_LINE_OPA);
 394:Middlewares/LVGL/GUI/lvgl/src/core/lv_obj_style_gen.h ****     return (lv_opa_t)v.num;
 395:Middlewares/LVGL/GUI/lvgl/src/core/lv_obj_style_gen.h **** }
 396:Middlewares/LVGL/GUI/lvgl/src/core/lv_obj_style_gen.h **** 
 397:Middlewares/LVGL/GUI/lvgl/src/core/lv_obj_style_gen.h **** static inline lv_coord_t lv_obj_get_style_arc_width(const struct _lv_obj_t * obj, uint32_t part)
 398:Middlewares/LVGL/GUI/lvgl/src/core/lv_obj_style_gen.h **** {
 399:Middlewares/LVGL/GUI/lvgl/src/core/lv_obj_style_gen.h ****     lv_style_value_t v = lv_obj_get_style_prop(obj, part, LV_STYLE_ARC_WIDTH);
 400:Middlewares/LVGL/GUI/lvgl/src/core/lv_obj_style_gen.h ****     return (lv_coord_t)v.num;
 401:Middlewares/LVGL/GUI/lvgl/src/core/lv_obj_style_gen.h **** }
 402:Middlewares/LVGL/GUI/lvgl/src/core/lv_obj_style_gen.h **** 
 403:Middlewares/LVGL/GUI/lvgl/src/core/lv_obj_style_gen.h **** static inline bool lv_obj_get_style_arc_rounded(const struct _lv_obj_t * obj, uint32_t part)
 404:Middlewares/LVGL/GUI/lvgl/src/core/lv_obj_style_gen.h **** {
 405:Middlewares/LVGL/GUI/lvgl/src/core/lv_obj_style_gen.h ****     lv_style_value_t v = lv_obj_get_style_prop(obj, part, LV_STYLE_ARC_ROUNDED);
 406:Middlewares/LVGL/GUI/lvgl/src/core/lv_obj_style_gen.h ****     return (bool)v.num;
 407:Middlewares/LVGL/GUI/lvgl/src/core/lv_obj_style_gen.h **** }
 408:Middlewares/LVGL/GUI/lvgl/src/core/lv_obj_style_gen.h **** 
 409:Middlewares/LVGL/GUI/lvgl/src/core/lv_obj_style_gen.h **** static inline lv_color_t lv_obj_get_style_arc_color(const struct _lv_obj_t * obj, uint32_t part)
 410:Middlewares/LVGL/GUI/lvgl/src/core/lv_obj_style_gen.h **** {
 411:Middlewares/LVGL/GUI/lvgl/src/core/lv_obj_style_gen.h ****     lv_style_value_t v = lv_obj_get_style_prop(obj, part, LV_STYLE_ARC_COLOR);
 412:Middlewares/LVGL/GUI/lvgl/src/core/lv_obj_style_gen.h ****     return v.color;
 413:Middlewares/LVGL/GUI/lvgl/src/core/lv_obj_style_gen.h **** }
 414:Middlewares/LVGL/GUI/lvgl/src/core/lv_obj_style_gen.h **** 
 415:Middlewares/LVGL/GUI/lvgl/src/core/lv_obj_style_gen.h **** static inline lv_color_t lv_obj_get_style_arc_color_filtered(const struct _lv_obj_t * obj, uint32_t
 416:Middlewares/LVGL/GUI/lvgl/src/core/lv_obj_style_gen.h **** {
 417:Middlewares/LVGL/GUI/lvgl/src/core/lv_obj_style_gen.h ****     lv_style_value_t v = lv_obj_get_style_prop(obj, part, LV_STYLE_ARC_COLOR_FILTERED);
 418:Middlewares/LVGL/GUI/lvgl/src/core/lv_obj_style_gen.h ****     return v.color;
 419:Middlewares/LVGL/GUI/lvgl/src/core/lv_obj_style_gen.h **** }
 420:Middlewares/LVGL/GUI/lvgl/src/core/lv_obj_style_gen.h **** 
ARM GAS  C:\Users\ADMINI~1\AppData\Local\Temp\cc386Zoq.s 			page 10


 421:Middlewares/LVGL/GUI/lvgl/src/core/lv_obj_style_gen.h **** static inline lv_opa_t lv_obj_get_style_arc_opa(const struct _lv_obj_t * obj, uint32_t part)
 422:Middlewares/LVGL/GUI/lvgl/src/core/lv_obj_style_gen.h **** {
 423:Middlewares/LVGL/GUI/lvgl/src/core/lv_obj_style_gen.h ****     lv_style_value_t v = lv_obj_get_style_prop(obj, part, LV_STYLE_ARC_OPA);
 424:Middlewares/LVGL/GUI/lvgl/src/core/lv_obj_style_gen.h ****     return (lv_opa_t)v.num;
 425:Middlewares/LVGL/GUI/lvgl/src/core/lv_obj_style_gen.h **** }
 426:Middlewares/LVGL/GUI/lvgl/src/core/lv_obj_style_gen.h **** 
 427:Middlewares/LVGL/GUI/lvgl/src/core/lv_obj_style_gen.h **** static inline const void * lv_obj_get_style_arc_img_src(const struct _lv_obj_t * obj, uint32_t part
 428:Middlewares/LVGL/GUI/lvgl/src/core/lv_obj_style_gen.h **** {
 429:Middlewares/LVGL/GUI/lvgl/src/core/lv_obj_style_gen.h ****     lv_style_value_t v = lv_obj_get_style_prop(obj, part, LV_STYLE_ARC_IMG_SRC);
 430:Middlewares/LVGL/GUI/lvgl/src/core/lv_obj_style_gen.h ****     return (const void *)v.ptr;
 431:Middlewares/LVGL/GUI/lvgl/src/core/lv_obj_style_gen.h **** }
 432:Middlewares/LVGL/GUI/lvgl/src/core/lv_obj_style_gen.h **** 
 433:Middlewares/LVGL/GUI/lvgl/src/core/lv_obj_style_gen.h **** static inline lv_color_t lv_obj_get_style_text_color(const struct _lv_obj_t * obj, uint32_t part)
 434:Middlewares/LVGL/GUI/lvgl/src/core/lv_obj_style_gen.h **** {
 435:Middlewares/LVGL/GUI/lvgl/src/core/lv_obj_style_gen.h ****     lv_style_value_t v = lv_obj_get_style_prop(obj, part, LV_STYLE_TEXT_COLOR);
 436:Middlewares/LVGL/GUI/lvgl/src/core/lv_obj_style_gen.h ****     return v.color;
 437:Middlewares/LVGL/GUI/lvgl/src/core/lv_obj_style_gen.h **** }
 438:Middlewares/LVGL/GUI/lvgl/src/core/lv_obj_style_gen.h **** 
 439:Middlewares/LVGL/GUI/lvgl/src/core/lv_obj_style_gen.h **** static inline lv_color_t lv_obj_get_style_text_color_filtered(const struct _lv_obj_t * obj, uint32_
 440:Middlewares/LVGL/GUI/lvgl/src/core/lv_obj_style_gen.h **** {
 441:Middlewares/LVGL/GUI/lvgl/src/core/lv_obj_style_gen.h ****     lv_style_value_t v = lv_obj_get_style_prop(obj, part, LV_STYLE_TEXT_COLOR_FILTERED);
 442:Middlewares/LVGL/GUI/lvgl/src/core/lv_obj_style_gen.h ****     return v.color;
 443:Middlewares/LVGL/GUI/lvgl/src/core/lv_obj_style_gen.h **** }
 444:Middlewares/LVGL/GUI/lvgl/src/core/lv_obj_style_gen.h **** 
 445:Middlewares/LVGL/GUI/lvgl/src/core/lv_obj_style_gen.h **** static inline lv_opa_t lv_obj_get_style_text_opa(const struct _lv_obj_t * obj, uint32_t part)
 446:Middlewares/LVGL/GUI/lvgl/src/core/lv_obj_style_gen.h **** {
 447:Middlewares/LVGL/GUI/lvgl/src/core/lv_obj_style_gen.h ****     lv_style_value_t v = lv_obj_get_style_prop(obj, part, LV_STYLE_TEXT_OPA);
 448:Middlewares/LVGL/GUI/lvgl/src/core/lv_obj_style_gen.h ****     return (lv_opa_t)v.num;
 449:Middlewares/LVGL/GUI/lvgl/src/core/lv_obj_style_gen.h **** }
 450:Middlewares/LVGL/GUI/lvgl/src/core/lv_obj_style_gen.h **** 
 451:Middlewares/LVGL/GUI/lvgl/src/core/lv_obj_style_gen.h **** static inline const lv_font_t * lv_obj_get_style_text_font(const struct _lv_obj_t * obj, uint32_t p
 452:Middlewares/LVGL/GUI/lvgl/src/core/lv_obj_style_gen.h **** {
 453:Middlewares/LVGL/GUI/lvgl/src/core/lv_obj_style_gen.h ****     lv_style_value_t v = lv_obj_get_style_prop(obj, part, LV_STYLE_TEXT_FONT);
 454:Middlewares/LVGL/GUI/lvgl/src/core/lv_obj_style_gen.h ****     return (const lv_font_t *)v.ptr;
 455:Middlewares/LVGL/GUI/lvgl/src/core/lv_obj_style_gen.h **** }
 456:Middlewares/LVGL/GUI/lvgl/src/core/lv_obj_style_gen.h **** 
 457:Middlewares/LVGL/GUI/lvgl/src/core/lv_obj_style_gen.h **** static inline lv_coord_t lv_obj_get_style_text_letter_space(const struct _lv_obj_t * obj, uint32_t 
 458:Middlewares/LVGL/GUI/lvgl/src/core/lv_obj_style_gen.h **** {
 459:Middlewares/LVGL/GUI/lvgl/src/core/lv_obj_style_gen.h ****     lv_style_value_t v = lv_obj_get_style_prop(obj, part, LV_STYLE_TEXT_LETTER_SPACE);
 460:Middlewares/LVGL/GUI/lvgl/src/core/lv_obj_style_gen.h ****     return (lv_coord_t)v.num;
 461:Middlewares/LVGL/GUI/lvgl/src/core/lv_obj_style_gen.h **** }
 462:Middlewares/LVGL/GUI/lvgl/src/core/lv_obj_style_gen.h **** 
 463:Middlewares/LVGL/GUI/lvgl/src/core/lv_obj_style_gen.h **** static inline lv_coord_t lv_obj_get_style_text_line_space(const struct _lv_obj_t * obj, uint32_t pa
 464:Middlewares/LVGL/GUI/lvgl/src/core/lv_obj_style_gen.h **** {
 465:Middlewares/LVGL/GUI/lvgl/src/core/lv_obj_style_gen.h ****     lv_style_value_t v = lv_obj_get_style_prop(obj, part, LV_STYLE_TEXT_LINE_SPACE);
 466:Middlewares/LVGL/GUI/lvgl/src/core/lv_obj_style_gen.h ****     return (lv_coord_t)v.num;
 467:Middlewares/LVGL/GUI/lvgl/src/core/lv_obj_style_gen.h **** }
 468:Middlewares/LVGL/GUI/lvgl/src/core/lv_obj_style_gen.h **** 
 469:Middlewares/LVGL/GUI/lvgl/src/core/lv_obj_style_gen.h **** static inline lv_text_decor_t lv_obj_get_style_text_decor(const struct _lv_obj_t * obj, uint32_t pa
 470:Middlewares/LVGL/GUI/lvgl/src/core/lv_obj_style_gen.h **** {
 471:Middlewares/LVGL/GUI/lvgl/src/core/lv_obj_style_gen.h ****     lv_style_value_t v = lv_obj_get_style_prop(obj, part, LV_STYLE_TEXT_DECOR);
 472:Middlewares/LVGL/GUI/lvgl/src/core/lv_obj_style_gen.h ****     return (lv_text_decor_t)v.num;
 473:Middlewares/LVGL/GUI/lvgl/src/core/lv_obj_style_gen.h **** }
 474:Middlewares/LVGL/GUI/lvgl/src/core/lv_obj_style_gen.h **** 
 475:Middlewares/LVGL/GUI/lvgl/src/core/lv_obj_style_gen.h **** static inline lv_text_align_t lv_obj_get_style_text_align(const struct _lv_obj_t * obj, uint32_t pa
 476:Middlewares/LVGL/GUI/lvgl/src/core/lv_obj_style_gen.h **** {
 477:Middlewares/LVGL/GUI/lvgl/src/core/lv_obj_style_gen.h ****     lv_style_value_t v = lv_obj_get_style_prop(obj, part, LV_STYLE_TEXT_ALIGN);
ARM GAS  C:\Users\ADMINI~1\AppData\Local\Temp\cc386Zoq.s 			page 11


 478:Middlewares/LVGL/GUI/lvgl/src/core/lv_obj_style_gen.h ****     return (lv_text_align_t)v.num;
 479:Middlewares/LVGL/GUI/lvgl/src/core/lv_obj_style_gen.h **** }
 480:Middlewares/LVGL/GUI/lvgl/src/core/lv_obj_style_gen.h **** 
 481:Middlewares/LVGL/GUI/lvgl/src/core/lv_obj_style_gen.h **** static inline lv_coord_t lv_obj_get_style_radius(const struct _lv_obj_t * obj, uint32_t part)
  52              		.loc 2 481 26 view .LVU3
  53              	.LBB158:
 482:Middlewares/LVGL/GUI/lvgl/src/core/lv_obj_style_gen.h **** {
 483:Middlewares/LVGL/GUI/lvgl/src/core/lv_obj_style_gen.h ****     lv_style_value_t v = lv_obj_get_style_prop(obj, part, LV_STYLE_RADIUS);
  54              		.loc 2 483 5 view .LVU4
  55              		.loc 2 483 26 is_stmt 0 view .LVU5
  56 000a 6022     		movs	r2, #96
  57              	.LVL2:
  58              		.loc 2 483 26 view .LVU6
  59 000c FFF7FEFF 		bl	lv_obj_get_style_prop
  60              	.LVL3:
 484:Middlewares/LVGL/GUI/lvgl/src/core/lv_obj_style_gen.h ****     return (lv_coord_t)v.num;
  61              		.loc 2 484 5 is_stmt 1 view .LVU7
  62              		.loc 2 484 5 is_stmt 0 view .LVU8
  63              	.LBE158:
  64              	.LBE157:
  65              		.loc 1 43 22 view .LVU9
  66 0010 2060     		str	r0, [r4]
  44:Middlewares/LVGL/GUI/lvgl/src/core/lv_obj_draw.c **** 
  45:Middlewares/LVGL/GUI/lvgl/src/core/lv_obj_draw.c ****     lv_opa_t main_opa = part != LV_PART_MAIN ? lv_obj_get_style_opa(obj, part) : LV_OPA_COVER;
  67              		.loc 1 45 5 is_stmt 1 view .LVU10
  68              		.loc 1 45 14 is_stmt 0 view .LVU11
  69 0012 BDB9     		cbnz	r5, .L17
  70 0014 4FF0FF08 		mov	r8, #255
  71              	.L2:
  72              	.LVL4:
  46:Middlewares/LVGL/GUI/lvgl/src/core/lv_obj_draw.c ****     lv_opa_t opa = lv_obj_get_style_opa(obj, part);
  73              		.loc 1 46 5 is_stmt 1 discriminator 4 view .LVU12
  74              	.LBB159:
  75              	.LBI159:
 485:Middlewares/LVGL/GUI/lvgl/src/core/lv_obj_style_gen.h **** }
 486:Middlewares/LVGL/GUI/lvgl/src/core/lv_obj_style_gen.h **** 
 487:Middlewares/LVGL/GUI/lvgl/src/core/lv_obj_style_gen.h **** static inline bool lv_obj_get_style_clip_corner(const struct _lv_obj_t * obj, uint32_t part)
 488:Middlewares/LVGL/GUI/lvgl/src/core/lv_obj_style_gen.h **** {
 489:Middlewares/LVGL/GUI/lvgl/src/core/lv_obj_style_gen.h ****     lv_style_value_t v = lv_obj_get_style_prop(obj, part, LV_STYLE_CLIP_CORNER);
 490:Middlewares/LVGL/GUI/lvgl/src/core/lv_obj_style_gen.h ****     return (bool)v.num;
 491:Middlewares/LVGL/GUI/lvgl/src/core/lv_obj_style_gen.h **** }
 492:Middlewares/LVGL/GUI/lvgl/src/core/lv_obj_style_gen.h **** 
 493:Middlewares/LVGL/GUI/lvgl/src/core/lv_obj_style_gen.h **** static inline lv_opa_t lv_obj_get_style_opa(const struct _lv_obj_t * obj, uint32_t part)
  76              		.loc 2 493 24 discriminator 4 view .LVU13
  77              	.LBB160:
 494:Middlewares/LVGL/GUI/lvgl/src/core/lv_obj_style_gen.h **** {
 495:Middlewares/LVGL/GUI/lvgl/src/core/lv_obj_style_gen.h ****     lv_style_value_t v = lv_obj_get_style_prop(obj, part, LV_STYLE_OPA);
  78              		.loc 2 495 5 discriminator 4 view .LVU14
  79              		.loc 2 495 26 is_stmt 0 discriminator 4 view .LVU15
  80 0018 40F26242 		movw	r2, #1122
  81 001c 2946     		mov	r1, r5
  82 001e 3046     		mov	r0, r6
  83 0020 FFF7FEFF 		bl	lv_obj_get_style_prop
  84              	.LVL5:
 496:Middlewares/LVGL/GUI/lvgl/src/core/lv_obj_style_gen.h ****     return (lv_opa_t)v.num;
  85              		.loc 2 496 5 is_stmt 1 discriminator 4 view .LVU16
  86              		.loc 2 496 12 is_stmt 0 discriminator 4 view .LVU17
ARM GAS  C:\Users\ADMINI~1\AppData\Local\Temp\cc386Zoq.s 			page 12


  87 0024 C7B2     		uxtb	r7, r0
  88              	.LVL6:
  89              		.loc 2 496 12 discriminator 4 view .LVU18
  90              	.LBE160:
  91              	.LBE159:
  47:Middlewares/LVGL/GUI/lvgl/src/core/lv_obj_draw.c ****     if(opa <= LV_OPA_MIN || main_opa <= LV_OPA_MIN) {
  92              		.loc 1 47 5 is_stmt 1 discriminator 4 view .LVU19
  93              		.loc 1 47 7 is_stmt 0 discriminator 4 view .LVU20
  94 0026 022F     		cmp	r7, #2
  95 0028 02D9     		bls	.L3
  96              		.loc 1 47 26 discriminator 1 view .LVU21
  97 002a B8F1020F 		cmp	r8, #2
  98 002e 12D8     		bhi	.L4
  99              	.L3:
  48:Middlewares/LVGL/GUI/lvgl/src/core/lv_obj_draw.c ****         draw_dsc->bg_opa = LV_OPA_TRANSP;
 100              		.loc 1 48 9 is_stmt 1 view .LVU22
 101              		.loc 1 48 26 is_stmt 0 view .LVU23
 102 0030 0023     		movs	r3, #0
 103 0032 6371     		strb	r3, [r4, #5]
  49:Middlewares/LVGL/GUI/lvgl/src/core/lv_obj_draw.c ****         draw_dsc->border_opa = LV_OPA_TRANSP;
 104              		.loc 1 49 9 is_stmt 1 view .LVU24
 105              		.loc 1 49 30 is_stmt 0 view .LVU25
 106 0034 84F82430 		strb	r3, [r4, #36]
  50:Middlewares/LVGL/GUI/lvgl/src/core/lv_obj_draw.c ****         draw_dsc->shadow_opa = LV_OPA_TRANSP;
 107              		.loc 1 50 9 is_stmt 1 view .LVU26
 108              		.loc 1 50 30 is_stmt 0 view .LVU27
 109 0038 84F84430 		strb	r3, [r4, #68]
  51:Middlewares/LVGL/GUI/lvgl/src/core/lv_obj_draw.c ****         draw_dsc->outline_opa = LV_OPA_TRANSP;
 110              		.loc 1 51 9 is_stmt 1 view .LVU28
 111              		.loc 1 51 31 is_stmt 0 view .LVU29
 112 003c 84F83030 		strb	r3, [r4, #48]
  52:Middlewares/LVGL/GUI/lvgl/src/core/lv_obj_draw.c ****         return;
 113              		.loc 1 52 9 is_stmt 1 view .LVU30
 114              	.LVL7:
 115              	.L1:
  53:Middlewares/LVGL/GUI/lvgl/src/core/lv_obj_draw.c ****     }
  54:Middlewares/LVGL/GUI/lvgl/src/core/lv_obj_draw.c **** 
  55:Middlewares/LVGL/GUI/lvgl/src/core/lv_obj_draw.c ****     draw_dsc->blend_mode = lv_obj_get_style_blend_mode(obj, part);
  56:Middlewares/LVGL/GUI/lvgl/src/core/lv_obj_draw.c **** 
  57:Middlewares/LVGL/GUI/lvgl/src/core/lv_obj_draw.c ****     if(draw_dsc->bg_opa != LV_OPA_TRANSP) {
  58:Middlewares/LVGL/GUI/lvgl/src/core/lv_obj_draw.c ****         draw_dsc->bg_opa = lv_obj_get_style_bg_opa(obj, part);
  59:Middlewares/LVGL/GUI/lvgl/src/core/lv_obj_draw.c ****         if(draw_dsc->bg_opa > LV_OPA_MIN) {
  60:Middlewares/LVGL/GUI/lvgl/src/core/lv_obj_draw.c ****             draw_dsc->bg_color = lv_obj_get_style_bg_color_filtered(obj, part);
  61:Middlewares/LVGL/GUI/lvgl/src/core/lv_obj_draw.c ****             const lv_grad_dsc_t * grad = lv_obj_get_style_bg_grad(obj, part);
  62:Middlewares/LVGL/GUI/lvgl/src/core/lv_obj_draw.c ****             if(grad && grad->dir != LV_GRAD_DIR_NONE) {
  63:Middlewares/LVGL/GUI/lvgl/src/core/lv_obj_draw.c ****                 lv_memcpy(&draw_dsc->bg_grad, grad, sizeof(*grad));
  64:Middlewares/LVGL/GUI/lvgl/src/core/lv_obj_draw.c ****             }
  65:Middlewares/LVGL/GUI/lvgl/src/core/lv_obj_draw.c ****             else {
  66:Middlewares/LVGL/GUI/lvgl/src/core/lv_obj_draw.c ****                 draw_dsc->bg_grad.dir = lv_obj_get_style_bg_grad_dir(obj, part);
  67:Middlewares/LVGL/GUI/lvgl/src/core/lv_obj_draw.c ****                 if(draw_dsc->bg_grad.dir != LV_GRAD_DIR_NONE) {
  68:Middlewares/LVGL/GUI/lvgl/src/core/lv_obj_draw.c ****                     draw_dsc->bg_grad.stops[0].color = lv_obj_get_style_bg_color_filtered(obj, part
  69:Middlewares/LVGL/GUI/lvgl/src/core/lv_obj_draw.c ****                     draw_dsc->bg_grad.stops[1].color = lv_obj_get_style_bg_grad_color_filtered(obj,
  70:Middlewares/LVGL/GUI/lvgl/src/core/lv_obj_draw.c ****                     draw_dsc->bg_grad.stops[0].frac = lv_obj_get_style_bg_main_stop(obj, part);
  71:Middlewares/LVGL/GUI/lvgl/src/core/lv_obj_draw.c ****                     draw_dsc->bg_grad.stops[1].frac = lv_obj_get_style_bg_grad_stop(obj, part);
  72:Middlewares/LVGL/GUI/lvgl/src/core/lv_obj_draw.c ****                 }
  73:Middlewares/LVGL/GUI/lvgl/src/core/lv_obj_draw.c ****                 draw_dsc->bg_grad.dither = lv_obj_get_style_bg_dither_mode(obj, part);
  74:Middlewares/LVGL/GUI/lvgl/src/core/lv_obj_draw.c ****             }
ARM GAS  C:\Users\ADMINI~1\AppData\Local\Temp\cc386Zoq.s 			page 13


  75:Middlewares/LVGL/GUI/lvgl/src/core/lv_obj_draw.c ****         }
  76:Middlewares/LVGL/GUI/lvgl/src/core/lv_obj_draw.c ****     }
  77:Middlewares/LVGL/GUI/lvgl/src/core/lv_obj_draw.c **** 
  78:Middlewares/LVGL/GUI/lvgl/src/core/lv_obj_draw.c ****     draw_dsc->border_width = lv_obj_get_style_border_width(obj, part);
  79:Middlewares/LVGL/GUI/lvgl/src/core/lv_obj_draw.c ****     if(draw_dsc->border_width) {
  80:Middlewares/LVGL/GUI/lvgl/src/core/lv_obj_draw.c ****         if(draw_dsc->border_opa != LV_OPA_TRANSP) {
  81:Middlewares/LVGL/GUI/lvgl/src/core/lv_obj_draw.c ****             draw_dsc->border_opa = lv_obj_get_style_border_opa(obj, part);
  82:Middlewares/LVGL/GUI/lvgl/src/core/lv_obj_draw.c ****             if(draw_dsc->border_opa > LV_OPA_MIN) {
  83:Middlewares/LVGL/GUI/lvgl/src/core/lv_obj_draw.c ****                 draw_dsc->border_side = lv_obj_get_style_border_side(obj, part);
  84:Middlewares/LVGL/GUI/lvgl/src/core/lv_obj_draw.c ****                 draw_dsc->border_color = lv_obj_get_style_border_color_filtered(obj, part);
  85:Middlewares/LVGL/GUI/lvgl/src/core/lv_obj_draw.c ****             }
  86:Middlewares/LVGL/GUI/lvgl/src/core/lv_obj_draw.c ****         }
  87:Middlewares/LVGL/GUI/lvgl/src/core/lv_obj_draw.c ****     }
  88:Middlewares/LVGL/GUI/lvgl/src/core/lv_obj_draw.c **** 
  89:Middlewares/LVGL/GUI/lvgl/src/core/lv_obj_draw.c ****     draw_dsc->outline_width = lv_obj_get_style_outline_width(obj, part);
  90:Middlewares/LVGL/GUI/lvgl/src/core/lv_obj_draw.c ****     if(draw_dsc->outline_width) {
  91:Middlewares/LVGL/GUI/lvgl/src/core/lv_obj_draw.c ****         if(draw_dsc->outline_opa != LV_OPA_TRANSP) {
  92:Middlewares/LVGL/GUI/lvgl/src/core/lv_obj_draw.c ****             draw_dsc->outline_opa = lv_obj_get_style_outline_opa(obj, part);
  93:Middlewares/LVGL/GUI/lvgl/src/core/lv_obj_draw.c ****             if(draw_dsc->outline_opa > LV_OPA_MIN) {
  94:Middlewares/LVGL/GUI/lvgl/src/core/lv_obj_draw.c ****                 draw_dsc->outline_pad = lv_obj_get_style_outline_pad(obj, part);
  95:Middlewares/LVGL/GUI/lvgl/src/core/lv_obj_draw.c ****                 draw_dsc->outline_color = lv_obj_get_style_outline_color_filtered(obj, part);
  96:Middlewares/LVGL/GUI/lvgl/src/core/lv_obj_draw.c ****             }
  97:Middlewares/LVGL/GUI/lvgl/src/core/lv_obj_draw.c ****         }
  98:Middlewares/LVGL/GUI/lvgl/src/core/lv_obj_draw.c ****     }
  99:Middlewares/LVGL/GUI/lvgl/src/core/lv_obj_draw.c **** 
 100:Middlewares/LVGL/GUI/lvgl/src/core/lv_obj_draw.c ****     if(draw_dsc->bg_img_opa != LV_OPA_TRANSP) {
 101:Middlewares/LVGL/GUI/lvgl/src/core/lv_obj_draw.c ****         draw_dsc->bg_img_src = lv_obj_get_style_bg_img_src(obj, part);
 102:Middlewares/LVGL/GUI/lvgl/src/core/lv_obj_draw.c ****         if(draw_dsc->bg_img_src) {
 103:Middlewares/LVGL/GUI/lvgl/src/core/lv_obj_draw.c ****             draw_dsc->bg_img_opa = lv_obj_get_style_bg_img_opa(obj, part);
 104:Middlewares/LVGL/GUI/lvgl/src/core/lv_obj_draw.c ****             if(draw_dsc->bg_img_opa > LV_OPA_MIN) {
 105:Middlewares/LVGL/GUI/lvgl/src/core/lv_obj_draw.c ****                 if(lv_img_src_get_type(draw_dsc->bg_img_src) == LV_IMG_SRC_SYMBOL) {
 106:Middlewares/LVGL/GUI/lvgl/src/core/lv_obj_draw.c ****                     draw_dsc->bg_img_symbol_font = lv_obj_get_style_text_font(obj, part);
 107:Middlewares/LVGL/GUI/lvgl/src/core/lv_obj_draw.c ****                     draw_dsc->bg_img_recolor = lv_obj_get_style_text_color_filtered(obj, part);
 108:Middlewares/LVGL/GUI/lvgl/src/core/lv_obj_draw.c ****                 }
 109:Middlewares/LVGL/GUI/lvgl/src/core/lv_obj_draw.c ****                 else {
 110:Middlewares/LVGL/GUI/lvgl/src/core/lv_obj_draw.c ****                     draw_dsc->bg_img_recolor = lv_obj_get_style_bg_img_recolor_filtered(obj, part);
 111:Middlewares/LVGL/GUI/lvgl/src/core/lv_obj_draw.c ****                     draw_dsc->bg_img_recolor_opa = lv_obj_get_style_bg_img_recolor_opa(obj, part);
 112:Middlewares/LVGL/GUI/lvgl/src/core/lv_obj_draw.c ****                     draw_dsc->bg_img_tiled = lv_obj_get_style_bg_img_tiled(obj, part);
 113:Middlewares/LVGL/GUI/lvgl/src/core/lv_obj_draw.c ****                 }
 114:Middlewares/LVGL/GUI/lvgl/src/core/lv_obj_draw.c ****             }
 115:Middlewares/LVGL/GUI/lvgl/src/core/lv_obj_draw.c ****         }
 116:Middlewares/LVGL/GUI/lvgl/src/core/lv_obj_draw.c ****     }
 117:Middlewares/LVGL/GUI/lvgl/src/core/lv_obj_draw.c **** 
 118:Middlewares/LVGL/GUI/lvgl/src/core/lv_obj_draw.c ****     if(draw_dsc->shadow_opa) {
 119:Middlewares/LVGL/GUI/lvgl/src/core/lv_obj_draw.c ****         draw_dsc->shadow_width = lv_obj_get_style_shadow_width(obj, part);
 120:Middlewares/LVGL/GUI/lvgl/src/core/lv_obj_draw.c ****         if(draw_dsc->shadow_width) {
 121:Middlewares/LVGL/GUI/lvgl/src/core/lv_obj_draw.c ****             if(draw_dsc->shadow_opa > LV_OPA_MIN) {
 122:Middlewares/LVGL/GUI/lvgl/src/core/lv_obj_draw.c ****                 draw_dsc->shadow_opa = lv_obj_get_style_shadow_opa(obj, part);
 123:Middlewares/LVGL/GUI/lvgl/src/core/lv_obj_draw.c ****                 if(draw_dsc->shadow_opa > LV_OPA_MIN) {
 124:Middlewares/LVGL/GUI/lvgl/src/core/lv_obj_draw.c ****                     draw_dsc->shadow_ofs_x = lv_obj_get_style_shadow_ofs_x(obj, part);
 125:Middlewares/LVGL/GUI/lvgl/src/core/lv_obj_draw.c ****                     draw_dsc->shadow_ofs_y = lv_obj_get_style_shadow_ofs_y(obj, part);
 126:Middlewares/LVGL/GUI/lvgl/src/core/lv_obj_draw.c ****                     draw_dsc->shadow_spread = lv_obj_get_style_shadow_spread(obj, part);
 127:Middlewares/LVGL/GUI/lvgl/src/core/lv_obj_draw.c ****                     draw_dsc->shadow_color = lv_obj_get_style_shadow_color_filtered(obj, part);
 128:Middlewares/LVGL/GUI/lvgl/src/core/lv_obj_draw.c ****                 }
 129:Middlewares/LVGL/GUI/lvgl/src/core/lv_obj_draw.c ****             }
 130:Middlewares/LVGL/GUI/lvgl/src/core/lv_obj_draw.c ****         }
 131:Middlewares/LVGL/GUI/lvgl/src/core/lv_obj_draw.c ****     }
ARM GAS  C:\Users\ADMINI~1\AppData\Local\Temp\cc386Zoq.s 			page 14


 132:Middlewares/LVGL/GUI/lvgl/src/core/lv_obj_draw.c **** 
 133:Middlewares/LVGL/GUI/lvgl/src/core/lv_obj_draw.c ****     if(main_opa < LV_OPA_MAX) {
 134:Middlewares/LVGL/GUI/lvgl/src/core/lv_obj_draw.c ****         opa = (uint16_t)((uint16_t) main_opa * opa) >> 8;
 135:Middlewares/LVGL/GUI/lvgl/src/core/lv_obj_draw.c ****     }
 136:Middlewares/LVGL/GUI/lvgl/src/core/lv_obj_draw.c **** 
 137:Middlewares/LVGL/GUI/lvgl/src/core/lv_obj_draw.c ****     if(opa < LV_OPA_MAX) {
 138:Middlewares/LVGL/GUI/lvgl/src/core/lv_obj_draw.c ****         draw_dsc->bg_opa = (uint16_t)((uint16_t)draw_dsc->bg_opa * opa) >> 8;
 139:Middlewares/LVGL/GUI/lvgl/src/core/lv_obj_draw.c ****         draw_dsc->bg_img_opa = (uint16_t)((uint16_t)draw_dsc->bg_img_opa * opa) >> 8;
 140:Middlewares/LVGL/GUI/lvgl/src/core/lv_obj_draw.c ****         draw_dsc->border_opa = (uint16_t)((uint16_t)draw_dsc->border_opa * opa) >> 8;
 141:Middlewares/LVGL/GUI/lvgl/src/core/lv_obj_draw.c ****         draw_dsc->shadow_opa = (uint16_t)((uint16_t)draw_dsc->shadow_opa * opa) >> 8;
 142:Middlewares/LVGL/GUI/lvgl/src/core/lv_obj_draw.c ****         draw_dsc->outline_opa = (uint16_t)((uint16_t)draw_dsc->outline_opa * opa) >> 8;
 143:Middlewares/LVGL/GUI/lvgl/src/core/lv_obj_draw.c ****     }
 144:Middlewares/LVGL/GUI/lvgl/src/core/lv_obj_draw.c **** #else /*LV_DRAW_COMPLEX*/
 145:Middlewares/LVGL/GUI/lvgl/src/core/lv_obj_draw.c ****     if(draw_dsc->bg_opa != LV_OPA_TRANSP) {
 146:Middlewares/LVGL/GUI/lvgl/src/core/lv_obj_draw.c ****         draw_dsc->bg_opa = lv_obj_get_style_bg_opa(obj, part);
 147:Middlewares/LVGL/GUI/lvgl/src/core/lv_obj_draw.c ****         if(draw_dsc->bg_opa > LV_OPA_MIN) {
 148:Middlewares/LVGL/GUI/lvgl/src/core/lv_obj_draw.c ****             draw_dsc->bg_color = lv_obj_get_style_bg_color_filtered(obj, part);
 149:Middlewares/LVGL/GUI/lvgl/src/core/lv_obj_draw.c ****         }
 150:Middlewares/LVGL/GUI/lvgl/src/core/lv_obj_draw.c ****     }
 151:Middlewares/LVGL/GUI/lvgl/src/core/lv_obj_draw.c **** 
 152:Middlewares/LVGL/GUI/lvgl/src/core/lv_obj_draw.c ****     draw_dsc->border_width = lv_obj_get_style_border_width(obj, part);
 153:Middlewares/LVGL/GUI/lvgl/src/core/lv_obj_draw.c ****     if(draw_dsc->border_width) {
 154:Middlewares/LVGL/GUI/lvgl/src/core/lv_obj_draw.c ****         if(draw_dsc->border_opa != LV_OPA_TRANSP) {
 155:Middlewares/LVGL/GUI/lvgl/src/core/lv_obj_draw.c ****             draw_dsc->border_opa = lv_obj_get_style_border_opa(obj, part);
 156:Middlewares/LVGL/GUI/lvgl/src/core/lv_obj_draw.c ****             if(draw_dsc->border_opa > LV_OPA_MIN) {
 157:Middlewares/LVGL/GUI/lvgl/src/core/lv_obj_draw.c ****                 draw_dsc->border_color = lv_obj_get_style_border_color_filtered(obj, part);
 158:Middlewares/LVGL/GUI/lvgl/src/core/lv_obj_draw.c ****                 draw_dsc->border_side = lv_obj_get_style_border_side(obj, part);
 159:Middlewares/LVGL/GUI/lvgl/src/core/lv_obj_draw.c ****             }
 160:Middlewares/LVGL/GUI/lvgl/src/core/lv_obj_draw.c ****         }
 161:Middlewares/LVGL/GUI/lvgl/src/core/lv_obj_draw.c ****     }
 162:Middlewares/LVGL/GUI/lvgl/src/core/lv_obj_draw.c **** 
 163:Middlewares/LVGL/GUI/lvgl/src/core/lv_obj_draw.c ****     draw_dsc->outline_width = lv_obj_get_style_outline_width(obj, part);
 164:Middlewares/LVGL/GUI/lvgl/src/core/lv_obj_draw.c ****     if(draw_dsc->outline_width) {
 165:Middlewares/LVGL/GUI/lvgl/src/core/lv_obj_draw.c ****         if(draw_dsc->outline_opa != LV_OPA_TRANSP) {
 166:Middlewares/LVGL/GUI/lvgl/src/core/lv_obj_draw.c ****             draw_dsc->outline_opa = lv_obj_get_style_outline_opa(obj, part);
 167:Middlewares/LVGL/GUI/lvgl/src/core/lv_obj_draw.c ****             if(draw_dsc->outline_opa > LV_OPA_MIN) {
 168:Middlewares/LVGL/GUI/lvgl/src/core/lv_obj_draw.c ****                 draw_dsc->outline_pad = lv_obj_get_style_outline_pad(obj, part);
 169:Middlewares/LVGL/GUI/lvgl/src/core/lv_obj_draw.c ****                 draw_dsc->outline_color = lv_obj_get_style_outline_color_filtered(obj, part);
 170:Middlewares/LVGL/GUI/lvgl/src/core/lv_obj_draw.c ****             }
 171:Middlewares/LVGL/GUI/lvgl/src/core/lv_obj_draw.c ****         }
 172:Middlewares/LVGL/GUI/lvgl/src/core/lv_obj_draw.c ****     }
 173:Middlewares/LVGL/GUI/lvgl/src/core/lv_obj_draw.c **** 
 174:Middlewares/LVGL/GUI/lvgl/src/core/lv_obj_draw.c ****     if(draw_dsc->bg_img_opa != LV_OPA_TRANSP) {
 175:Middlewares/LVGL/GUI/lvgl/src/core/lv_obj_draw.c ****         draw_dsc->bg_img_src = lv_obj_get_style_bg_img_src(obj, part);
 176:Middlewares/LVGL/GUI/lvgl/src/core/lv_obj_draw.c ****         if(draw_dsc->bg_img_src) {
 177:Middlewares/LVGL/GUI/lvgl/src/core/lv_obj_draw.c ****             draw_dsc->bg_img_opa = lv_obj_get_style_bg_img_opa(obj, part);
 178:Middlewares/LVGL/GUI/lvgl/src/core/lv_obj_draw.c ****             if(draw_dsc->bg_img_opa > LV_OPA_MIN) {
 179:Middlewares/LVGL/GUI/lvgl/src/core/lv_obj_draw.c ****                 if(lv_img_src_get_type(draw_dsc->bg_img_src) == LV_IMG_SRC_SYMBOL) {
 180:Middlewares/LVGL/GUI/lvgl/src/core/lv_obj_draw.c ****                     draw_dsc->bg_img_symbol_font = lv_obj_get_style_text_font(obj, part);
 181:Middlewares/LVGL/GUI/lvgl/src/core/lv_obj_draw.c ****                     draw_dsc->bg_img_recolor = lv_obj_get_style_text_color_filtered(obj, part);
 182:Middlewares/LVGL/GUI/lvgl/src/core/lv_obj_draw.c ****                 }
 183:Middlewares/LVGL/GUI/lvgl/src/core/lv_obj_draw.c ****                 else {
 184:Middlewares/LVGL/GUI/lvgl/src/core/lv_obj_draw.c ****                     draw_dsc->bg_img_recolor = lv_obj_get_style_bg_img_recolor_filtered(obj, part);
 185:Middlewares/LVGL/GUI/lvgl/src/core/lv_obj_draw.c ****                     draw_dsc->bg_img_recolor_opa = lv_obj_get_style_bg_img_recolor_opa(obj, part);
 186:Middlewares/LVGL/GUI/lvgl/src/core/lv_obj_draw.c ****                     draw_dsc->bg_img_tiled = lv_obj_get_style_bg_img_tiled(obj, part);
 187:Middlewares/LVGL/GUI/lvgl/src/core/lv_obj_draw.c ****                 }
 188:Middlewares/LVGL/GUI/lvgl/src/core/lv_obj_draw.c ****             }
ARM GAS  C:\Users\ADMINI~1\AppData\Local\Temp\cc386Zoq.s 			page 15


 189:Middlewares/LVGL/GUI/lvgl/src/core/lv_obj_draw.c ****         }
 190:Middlewares/LVGL/GUI/lvgl/src/core/lv_obj_draw.c ****     }
 191:Middlewares/LVGL/GUI/lvgl/src/core/lv_obj_draw.c **** #endif
 192:Middlewares/LVGL/GUI/lvgl/src/core/lv_obj_draw.c **** }
 116              		.loc 1 192 1 is_stmt 0 view .LVU31
 117 0040 BDE8F081 		pop	{r4, r5, r6, r7, r8, pc}
 118              	.LVL8:
 119              	.L17:
 120              	.LBB161:
 121              	.LBI161:
 493:Middlewares/LVGL/GUI/lvgl/src/core/lv_obj_style_gen.h **** {
 122              		.loc 2 493 24 is_stmt 1 view .LVU32
 123              	.LBB162:
 495:Middlewares/LVGL/GUI/lvgl/src/core/lv_obj_style_gen.h ****     return (lv_opa_t)v.num;
 124              		.loc 2 495 5 view .LVU33
 495:Middlewares/LVGL/GUI/lvgl/src/core/lv_obj_style_gen.h ****     return (lv_opa_t)v.num;
 125              		.loc 2 495 26 is_stmt 0 view .LVU34
 126 0044 40F26242 		movw	r2, #1122
 127 0048 2946     		mov	r1, r5
 128 004a 3046     		mov	r0, r6
 129 004c FFF7FEFF 		bl	lv_obj_get_style_prop
 130              	.LVL9:
 131              		.loc 2 496 5 is_stmt 1 view .LVU35
 132              		.loc 2 496 12 is_stmt 0 view .LVU36
 133 0050 5FFA80F8 		uxtb	r8, r0
 134              	.LVL10:
 135              		.loc 2 496 12 view .LVU37
 136              	.LBE162:
 137              	.LBE161:
 138 0054 E0E7     		b	.L2
 139              	.LVL11:
 140              	.L4:
  55:Middlewares/LVGL/GUI/lvgl/src/core/lv_obj_draw.c **** 
 141              		.loc 1 55 5 is_stmt 1 view .LVU38
 142              	.LBB163:
 143              	.LBI163:
 497:Middlewares/LVGL/GUI/lvgl/src/core/lv_obj_style_gen.h **** }
 498:Middlewares/LVGL/GUI/lvgl/src/core/lv_obj_style_gen.h **** 
 499:Middlewares/LVGL/GUI/lvgl/src/core/lv_obj_style_gen.h **** static inline const lv_color_filter_dsc_t * lv_obj_get_style_color_filter_dsc(const struct _lv_obj_
 500:Middlewares/LVGL/GUI/lvgl/src/core/lv_obj_style_gen.h ****                                                                               uint32_t part)
 501:Middlewares/LVGL/GUI/lvgl/src/core/lv_obj_style_gen.h **** {
 502:Middlewares/LVGL/GUI/lvgl/src/core/lv_obj_style_gen.h ****     lv_style_value_t v = lv_obj_get_style_prop(obj, part, LV_STYLE_COLOR_FILTER_DSC);
 503:Middlewares/LVGL/GUI/lvgl/src/core/lv_obj_style_gen.h ****     return (const lv_color_filter_dsc_t *)v.ptr;
 504:Middlewares/LVGL/GUI/lvgl/src/core/lv_obj_style_gen.h **** }
 505:Middlewares/LVGL/GUI/lvgl/src/core/lv_obj_style_gen.h **** 
 506:Middlewares/LVGL/GUI/lvgl/src/core/lv_obj_style_gen.h **** static inline lv_opa_t lv_obj_get_style_color_filter_opa(const struct _lv_obj_t * obj, uint32_t par
 507:Middlewares/LVGL/GUI/lvgl/src/core/lv_obj_style_gen.h **** {
 508:Middlewares/LVGL/GUI/lvgl/src/core/lv_obj_style_gen.h ****     lv_style_value_t v = lv_obj_get_style_prop(obj, part, LV_STYLE_COLOR_FILTER_OPA);
 509:Middlewares/LVGL/GUI/lvgl/src/core/lv_obj_style_gen.h ****     return (lv_opa_t)v.num;
 510:Middlewares/LVGL/GUI/lvgl/src/core/lv_obj_style_gen.h **** }
 511:Middlewares/LVGL/GUI/lvgl/src/core/lv_obj_style_gen.h **** 
 512:Middlewares/LVGL/GUI/lvgl/src/core/lv_obj_style_gen.h **** static inline uint32_t lv_obj_get_style_anim_time(const struct _lv_obj_t * obj, uint32_t part)
 513:Middlewares/LVGL/GUI/lvgl/src/core/lv_obj_style_gen.h **** {
 514:Middlewares/LVGL/GUI/lvgl/src/core/lv_obj_style_gen.h ****     lv_style_value_t v = lv_obj_get_style_prop(obj, part, LV_STYLE_ANIM_TIME);
 515:Middlewares/LVGL/GUI/lvgl/src/core/lv_obj_style_gen.h ****     return (uint32_t)v.num;
 516:Middlewares/LVGL/GUI/lvgl/src/core/lv_obj_style_gen.h **** }
 517:Middlewares/LVGL/GUI/lvgl/src/core/lv_obj_style_gen.h **** 
ARM GAS  C:\Users\ADMINI~1\AppData\Local\Temp\cc386Zoq.s 			page 16


 518:Middlewares/LVGL/GUI/lvgl/src/core/lv_obj_style_gen.h **** static inline uint32_t lv_obj_get_style_anim_speed(const struct _lv_obj_t * obj, uint32_t part)
 519:Middlewares/LVGL/GUI/lvgl/src/core/lv_obj_style_gen.h **** {
 520:Middlewares/LVGL/GUI/lvgl/src/core/lv_obj_style_gen.h ****     lv_style_value_t v = lv_obj_get_style_prop(obj, part, LV_STYLE_ANIM_SPEED);
 521:Middlewares/LVGL/GUI/lvgl/src/core/lv_obj_style_gen.h ****     return (uint32_t)v.num;
 522:Middlewares/LVGL/GUI/lvgl/src/core/lv_obj_style_gen.h **** }
 523:Middlewares/LVGL/GUI/lvgl/src/core/lv_obj_style_gen.h **** 
 524:Middlewares/LVGL/GUI/lvgl/src/core/lv_obj_style_gen.h **** static inline const lv_style_transition_dsc_t * lv_obj_get_style_transition(const struct _lv_obj_t 
 525:Middlewares/LVGL/GUI/lvgl/src/core/lv_obj_style_gen.h **** {
 526:Middlewares/LVGL/GUI/lvgl/src/core/lv_obj_style_gen.h ****     lv_style_value_t v = lv_obj_get_style_prop(obj, part, LV_STYLE_TRANSITION);
 527:Middlewares/LVGL/GUI/lvgl/src/core/lv_obj_style_gen.h ****     return (const lv_style_transition_dsc_t *)v.ptr;
 528:Middlewares/LVGL/GUI/lvgl/src/core/lv_obj_style_gen.h **** }
 529:Middlewares/LVGL/GUI/lvgl/src/core/lv_obj_style_gen.h **** 
 530:Middlewares/LVGL/GUI/lvgl/src/core/lv_obj_style_gen.h **** static inline lv_blend_mode_t lv_obj_get_style_blend_mode(const struct _lv_obj_t * obj, uint32_t pa
 144              		.loc 2 530 31 view .LVU39
 145              	.LBB164:
 531:Middlewares/LVGL/GUI/lvgl/src/core/lv_obj_style_gen.h **** {
 532:Middlewares/LVGL/GUI/lvgl/src/core/lv_obj_style_gen.h ****     lv_style_value_t v = lv_obj_get_style_prop(obj, part, LV_STYLE_BLEND_MODE);
 146              		.loc 2 532 5 view .LVU40
 147              		.loc 2 532 26 is_stmt 0 view .LVU41
 148 0056 6822     		movs	r2, #104
 149 0058 2946     		mov	r1, r5
 150 005a 3046     		mov	r0, r6
 151 005c FFF7FEFF 		bl	lv_obj_get_style_prop
 152              	.LVL12:
 533:Middlewares/LVGL/GUI/lvgl/src/core/lv_obj_style_gen.h ****     return (lv_blend_mode_t)v.num;
 153              		.loc 2 533 5 is_stmt 1 view .LVU42
 154              		.loc 2 533 5 is_stmt 0 view .LVU43
 155              	.LBE164:
 156              	.LBE163:
  55:Middlewares/LVGL/GUI/lvgl/src/core/lv_obj_draw.c **** 
 157              		.loc 1 55 26 view .LVU44
 158 0060 2071     		strb	r0, [r4, #4]
  57:Middlewares/LVGL/GUI/lvgl/src/core/lv_obj_draw.c ****         draw_dsc->bg_opa = lv_obj_get_style_bg_opa(obj, part);
 159              		.loc 1 57 5 is_stmt 1 view .LVU45
  57:Middlewares/LVGL/GUI/lvgl/src/core/lv_obj_draw.c ****         draw_dsc->bg_opa = lv_obj_get_style_bg_opa(obj, part);
 160              		.loc 1 57 16 is_stmt 0 view .LVU46
 161 0062 6379     		ldrb	r3, [r4, #5]	@ zero_extendqisi2
  57:Middlewares/LVGL/GUI/lvgl/src/core/lv_obj_draw.c ****         draw_dsc->bg_opa = lv_obj_get_style_bg_opa(obj, part);
 162              		.loc 1 57 7 view .LVU47
 163 0064 002B     		cmp	r3, #0
 164 0066 4BD1     		bne	.L18
 165              	.L6:
  78:Middlewares/LVGL/GUI/lvgl/src/core/lv_obj_draw.c ****     if(draw_dsc->border_width) {
 166              		.loc 1 78 5 is_stmt 1 view .LVU48
 167              	.LVL13:
 168              	.LBB165:
 169              	.LBI165:
 241:Middlewares/LVGL/GUI/lvgl/src/core/lv_obj_style_gen.h **** {
 170              		.loc 2 241 26 view .LVU49
 171              	.LBB166:
 243:Middlewares/LVGL/GUI/lvgl/src/core/lv_obj_style_gen.h ****     return (lv_coord_t)v.num;
 172              		.loc 2 243 5 view .LVU50
 243:Middlewares/LVGL/GUI/lvgl/src/core/lv_obj_style_gen.h ****     return (lv_coord_t)v.num;
 173              		.loc 2 243 26 is_stmt 0 view .LVU51
 174 0068 41F23202 		movw	r2, #4146
 175 006c 2946     		mov	r1, r5
 176 006e 3046     		mov	r0, r6
ARM GAS  C:\Users\ADMINI~1\AppData\Local\Temp\cc386Zoq.s 			page 17


 177 0070 FFF7FEFF 		bl	lv_obj_get_style_prop
 178              	.LVL14:
 244:Middlewares/LVGL/GUI/lvgl/src/core/lv_obj_style_gen.h **** }
 179              		.loc 2 244 5 is_stmt 1 view .LVU52
 244:Middlewares/LVGL/GUI/lvgl/src/core/lv_obj_style_gen.h **** }
 180              		.loc 2 244 5 is_stmt 0 view .LVU53
 181              	.LBE166:
 182              	.LBE165:
  78:Middlewares/LVGL/GUI/lvgl/src/core/lv_obj_draw.c ****     if(draw_dsc->border_width) {
 183              		.loc 1 78 28 view .LVU54
 184 0074 2062     		str	r0, [r4, #32]
  79:Middlewares/LVGL/GUI/lvgl/src/core/lv_obj_draw.c ****         if(draw_dsc->border_opa != LV_OPA_TRANSP) {
 185              		.loc 1 79 5 is_stmt 1 view .LVU55
  79:Middlewares/LVGL/GUI/lvgl/src/core/lv_obj_draw.c ****         if(draw_dsc->border_opa != LV_OPA_TRANSP) {
 186              		.loc 1 79 7 is_stmt 0 view .LVU56
 187 0076 20B1     		cbz	r0, .L9
  80:Middlewares/LVGL/GUI/lvgl/src/core/lv_obj_draw.c ****             draw_dsc->border_opa = lv_obj_get_style_border_opa(obj, part);
 188              		.loc 1 80 9 is_stmt 1 view .LVU57
  80:Middlewares/LVGL/GUI/lvgl/src/core/lv_obj_draw.c ****             draw_dsc->border_opa = lv_obj_get_style_border_opa(obj, part);
 189              		.loc 1 80 20 is_stmt 0 view .LVU58
 190 0078 94F82430 		ldrb	r3, [r4, #36]	@ zero_extendqisi2
  80:Middlewares/LVGL/GUI/lvgl/src/core/lv_obj_draw.c ****             draw_dsc->border_opa = lv_obj_get_style_border_opa(obj, part);
 191              		.loc 1 80 11 view .LVU59
 192 007c 002B     		cmp	r3, #0
 193 007e 40F09180 		bne	.L19
 194              	.L9:
  89:Middlewares/LVGL/GUI/lvgl/src/core/lv_obj_draw.c ****     if(draw_dsc->outline_width) {
 195              		.loc 1 89 5 is_stmt 1 view .LVU60
 196              	.LVL15:
 197              	.LBB167:
 198              	.LBI167:
 259:Middlewares/LVGL/GUI/lvgl/src/core/lv_obj_style_gen.h **** {
 199              		.loc 2 259 26 view .LVU61
 200              	.LBB168:
 261:Middlewares/LVGL/GUI/lvgl/src/core/lv_obj_style_gen.h ****     return (lv_coord_t)v.num;
 201              		.loc 2 261 5 view .LVU62
 261:Middlewares/LVGL/GUI/lvgl/src/core/lv_obj_style_gen.h ****     return (lv_coord_t)v.num;
 202              		.loc 2 261 26 is_stmt 0 view .LVU63
 203 0082 40F63A02 		movw	r2, #2106
 204 0086 2946     		mov	r1, r5
 205 0088 3046     		mov	r0, r6
 206              	.LVL16:
 261:Middlewares/LVGL/GUI/lvgl/src/core/lv_obj_style_gen.h ****     return (lv_coord_t)v.num;
 207              		.loc 2 261 26 view .LVU64
 208 008a FFF7FEFF 		bl	lv_obj_get_style_prop
 209              	.LVL17:
 262:Middlewares/LVGL/GUI/lvgl/src/core/lv_obj_style_gen.h **** }
 210              		.loc 2 262 5 is_stmt 1 view .LVU65
 262:Middlewares/LVGL/GUI/lvgl/src/core/lv_obj_style_gen.h **** }
 211              		.loc 2 262 5 is_stmt 0 view .LVU66
 212              	.LBE168:
 213              	.LBE167:
  89:Middlewares/LVGL/GUI/lvgl/src/core/lv_obj_draw.c ****     if(draw_dsc->outline_width) {
 214              		.loc 1 89 29 view .LVU67
 215 008e A062     		str	r0, [r4, #40]
  90:Middlewares/LVGL/GUI/lvgl/src/core/lv_obj_draw.c ****         if(draw_dsc->outline_opa != LV_OPA_TRANSP) {
 216              		.loc 1 90 5 is_stmt 1 view .LVU68
ARM GAS  C:\Users\ADMINI~1\AppData\Local\Temp\cc386Zoq.s 			page 18


  90:Middlewares/LVGL/GUI/lvgl/src/core/lv_obj_draw.c ****         if(draw_dsc->outline_opa != LV_OPA_TRANSP) {
 217              		.loc 1 90 7 is_stmt 0 view .LVU69
 218 0090 20B1     		cbz	r0, .L10
  91:Middlewares/LVGL/GUI/lvgl/src/core/lv_obj_draw.c ****             draw_dsc->outline_opa = lv_obj_get_style_outline_opa(obj, part);
 219              		.loc 1 91 9 is_stmt 1 view .LVU70
  91:Middlewares/LVGL/GUI/lvgl/src/core/lv_obj_draw.c ****             draw_dsc->outline_opa = lv_obj_get_style_outline_opa(obj, part);
 220              		.loc 1 91 20 is_stmt 0 view .LVU71
 221 0092 94F83030 		ldrb	r3, [r4, #48]	@ zero_extendqisi2
  91:Middlewares/LVGL/GUI/lvgl/src/core/lv_obj_draw.c ****             draw_dsc->outline_opa = lv_obj_get_style_outline_opa(obj, part);
 222              		.loc 1 91 11 view .LVU72
 223 0096 002B     		cmp	r3, #0
 224 0098 40F0A280 		bne	.L20
 225              	.L10:
 100:Middlewares/LVGL/GUI/lvgl/src/core/lv_obj_draw.c ****         draw_dsc->bg_img_src = lv_obj_get_style_bg_img_src(obj, part);
 226              		.loc 1 100 5 is_stmt 1 view .LVU73
 100:Middlewares/LVGL/GUI/lvgl/src/core/lv_obj_draw.c ****         draw_dsc->bg_img_src = lv_obj_get_style_bg_img_src(obj, part);
 227              		.loc 1 100 16 is_stmt 0 view .LVU74
 228 009c A37E     		ldrb	r3, [r4, #26]	@ zero_extendqisi2
 100:Middlewares/LVGL/GUI/lvgl/src/core/lv_obj_draw.c ****         draw_dsc->bg_img_src = lv_obj_get_style_bg_img_src(obj, part);
 229              		.loc 1 100 7 view .LVU75
 230 009e 002B     		cmp	r3, #0
 231 00a0 40F0B980 		bne	.L21
 232              	.LVL18:
 233              	.L11:
 118:Middlewares/LVGL/GUI/lvgl/src/core/lv_obj_draw.c ****         draw_dsc->shadow_width = lv_obj_get_style_shadow_width(obj, part);
 234              		.loc 1 118 5 is_stmt 1 view .LVU76
 118:Middlewares/LVGL/GUI/lvgl/src/core/lv_obj_draw.c ****         draw_dsc->shadow_width = lv_obj_get_style_shadow_width(obj, part);
 235              		.loc 1 118 16 is_stmt 0 view .LVU77
 236 00a4 94F84430 		ldrb	r3, [r4, #68]	@ zero_extendqisi2
 118:Middlewares/LVGL/GUI/lvgl/src/core/lv_obj_draw.c ****         draw_dsc->shadow_width = lv_obj_get_style_shadow_width(obj, part);
 237              		.loc 1 118 7 view .LVU78
 238 00a8 002B     		cmp	r3, #0
 239 00aa 40F0F380 		bne	.L22
 240              	.LVL19:
 241              	.L13:
 133:Middlewares/LVGL/GUI/lvgl/src/core/lv_obj_draw.c ****         opa = (uint16_t)((uint16_t) main_opa * opa) >> 8;
 242              		.loc 1 133 5 is_stmt 1 view .LVU79
 133:Middlewares/LVGL/GUI/lvgl/src/core/lv_obj_draw.c ****         opa = (uint16_t)((uint16_t) main_opa * opa) >> 8;
 243              		.loc 1 133 7 is_stmt 0 view .LVU80
 244 00ae B8F1FC0F 		cmp	r8, #252
 245 00b2 03D8     		bhi	.L14
 134:Middlewares/LVGL/GUI/lvgl/src/core/lv_obj_draw.c ****     }
 246              		.loc 1 134 9 is_stmt 1 view .LVU81
 134:Middlewares/LVGL/GUI/lvgl/src/core/lv_obj_draw.c ****     }
 247              		.loc 1 134 15 is_stmt 0 view .LVU82
 248 00b4 08FB07F7 		mul	r7, r8, r7
 249              	.LVL20:
 134:Middlewares/LVGL/GUI/lvgl/src/core/lv_obj_draw.c ****     }
 250              		.loc 1 134 13 view .LVU83
 251 00b8 C7F30727 		ubfx	r7, r7, #8, #8
 252              	.LVL21:
 253              	.L14:
 137:Middlewares/LVGL/GUI/lvgl/src/core/lv_obj_draw.c ****         draw_dsc->bg_opa = (uint16_t)((uint16_t)draw_dsc->bg_opa * opa) >> 8;
 254              		.loc 1 137 5 is_stmt 1 view .LVU84
 137:Middlewares/LVGL/GUI/lvgl/src/core/lv_obj_draw.c ****         draw_dsc->bg_opa = (uint16_t)((uint16_t)draw_dsc->bg_opa * opa) >> 8;
 255              		.loc 1 137 7 is_stmt 0 view .LVU85
 256 00bc FC2F     		cmp	r7, #252
ARM GAS  C:\Users\ADMINI~1\AppData\Local\Temp\cc386Zoq.s 			page 19


 257 00be BFD8     		bhi	.L1
 138:Middlewares/LVGL/GUI/lvgl/src/core/lv_obj_draw.c ****         draw_dsc->bg_img_opa = (uint16_t)((uint16_t)draw_dsc->bg_img_opa * opa) >> 8;
 258              		.loc 1 138 9 is_stmt 1 view .LVU86
 138:Middlewares/LVGL/GUI/lvgl/src/core/lv_obj_draw.c ****         draw_dsc->bg_img_opa = (uint16_t)((uint16_t)draw_dsc->bg_img_opa * opa) >> 8;
 259              		.loc 1 138 57 is_stmt 0 view .LVU87
 260 00c0 6379     		ldrb	r3, [r4, #5]	@ zero_extendqisi2
 138:Middlewares/LVGL/GUI/lvgl/src/core/lv_obj_draw.c ****         draw_dsc->bg_img_opa = (uint16_t)((uint16_t)draw_dsc->bg_img_opa * opa) >> 8;
 261              		.loc 1 138 28 view .LVU88
 262 00c2 07FB03F3 		mul	r3, r7, r3
 138:Middlewares/LVGL/GUI/lvgl/src/core/lv_obj_draw.c ****         draw_dsc->bg_img_opa = (uint16_t)((uint16_t)draw_dsc->bg_img_opa * opa) >> 8;
 263              		.loc 1 138 26 view .LVU89
 264 00c6 1B0A     		lsrs	r3, r3, #8
 265 00c8 6371     		strb	r3, [r4, #5]
 139:Middlewares/LVGL/GUI/lvgl/src/core/lv_obj_draw.c ****         draw_dsc->border_opa = (uint16_t)((uint16_t)draw_dsc->border_opa * opa) >> 8;
 266              		.loc 1 139 9 is_stmt 1 view .LVU90
 139:Middlewares/LVGL/GUI/lvgl/src/core/lv_obj_draw.c ****         draw_dsc->border_opa = (uint16_t)((uint16_t)draw_dsc->border_opa * opa) >> 8;
 267              		.loc 1 139 61 is_stmt 0 view .LVU91
 268 00ca A37E     		ldrb	r3, [r4, #26]	@ zero_extendqisi2
 139:Middlewares/LVGL/GUI/lvgl/src/core/lv_obj_draw.c ****         draw_dsc->border_opa = (uint16_t)((uint16_t)draw_dsc->border_opa * opa) >> 8;
 269              		.loc 1 139 32 view .LVU92
 270 00cc 07FB03F3 		mul	r3, r7, r3
 139:Middlewares/LVGL/GUI/lvgl/src/core/lv_obj_draw.c ****         draw_dsc->border_opa = (uint16_t)((uint16_t)draw_dsc->border_opa * opa) >> 8;
 271              		.loc 1 139 30 view .LVU93
 272 00d0 1B0A     		lsrs	r3, r3, #8
 273 00d2 A376     		strb	r3, [r4, #26]
 140:Middlewares/LVGL/GUI/lvgl/src/core/lv_obj_draw.c ****         draw_dsc->shadow_opa = (uint16_t)((uint16_t)draw_dsc->shadow_opa * opa) >> 8;
 274              		.loc 1 140 9 is_stmt 1 view .LVU94
 140:Middlewares/LVGL/GUI/lvgl/src/core/lv_obj_draw.c ****         draw_dsc->shadow_opa = (uint16_t)((uint16_t)draw_dsc->shadow_opa * opa) >> 8;
 275              		.loc 1 140 61 is_stmt 0 view .LVU95
 276 00d4 94F82430 		ldrb	r3, [r4, #36]	@ zero_extendqisi2
 140:Middlewares/LVGL/GUI/lvgl/src/core/lv_obj_draw.c ****         draw_dsc->shadow_opa = (uint16_t)((uint16_t)draw_dsc->shadow_opa * opa) >> 8;
 277              		.loc 1 140 32 view .LVU96
 278 00d8 07FB03F3 		mul	r3, r7, r3
 140:Middlewares/LVGL/GUI/lvgl/src/core/lv_obj_draw.c ****         draw_dsc->shadow_opa = (uint16_t)((uint16_t)draw_dsc->shadow_opa * opa) >> 8;
 279              		.loc 1 140 30 view .LVU97
 280 00dc 1B0A     		lsrs	r3, r3, #8
 281 00de 84F82430 		strb	r3, [r4, #36]
 141:Middlewares/LVGL/GUI/lvgl/src/core/lv_obj_draw.c ****         draw_dsc->outline_opa = (uint16_t)((uint16_t)draw_dsc->outline_opa * opa) >> 8;
 282              		.loc 1 141 9 is_stmt 1 view .LVU98
 141:Middlewares/LVGL/GUI/lvgl/src/core/lv_obj_draw.c ****         draw_dsc->outline_opa = (uint16_t)((uint16_t)draw_dsc->outline_opa * opa) >> 8;
 283              		.loc 1 141 61 is_stmt 0 view .LVU99
 284 00e2 94F84430 		ldrb	r3, [r4, #68]	@ zero_extendqisi2
 141:Middlewares/LVGL/GUI/lvgl/src/core/lv_obj_draw.c ****         draw_dsc->outline_opa = (uint16_t)((uint16_t)draw_dsc->outline_opa * opa) >> 8;
 285              		.loc 1 141 32 view .LVU100
 286 00e6 07FB03F3 		mul	r3, r7, r3
 141:Middlewares/LVGL/GUI/lvgl/src/core/lv_obj_draw.c ****         draw_dsc->outline_opa = (uint16_t)((uint16_t)draw_dsc->outline_opa * opa) >> 8;
 287              		.loc 1 141 30 view .LVU101
 288 00ea 1B0A     		lsrs	r3, r3, #8
 289 00ec 84F84430 		strb	r3, [r4, #68]
 142:Middlewares/LVGL/GUI/lvgl/src/core/lv_obj_draw.c ****     }
 290              		.loc 1 142 9 is_stmt 1 view .LVU102
 142:Middlewares/LVGL/GUI/lvgl/src/core/lv_obj_draw.c ****     }
 291              		.loc 1 142 62 is_stmt 0 view .LVU103
 292 00f0 94F83000 		ldrb	r0, [r4, #48]	@ zero_extendqisi2
 293              	.LVL22:
 142:Middlewares/LVGL/GUI/lvgl/src/core/lv_obj_draw.c ****     }
 294              		.loc 1 142 33 view .LVU104
ARM GAS  C:\Users\ADMINI~1\AppData\Local\Temp\cc386Zoq.s 			page 20


 295 00f4 00FB07F7 		mul	r7, r0, r7
 296              	.LVL23:
 142:Middlewares/LVGL/GUI/lvgl/src/core/lv_obj_draw.c ****     }
 297              		.loc 1 142 31 view .LVU105
 298 00f8 3F0A     		lsrs	r7, r7, #8
 299 00fa 84F83070 		strb	r7, [r4, #48]
 300 00fe 9FE7     		b	.L1
 301              	.LVL24:
 302              	.L18:
  58:Middlewares/LVGL/GUI/lvgl/src/core/lv_obj_draw.c ****         if(draw_dsc->bg_opa > LV_OPA_MIN) {
 303              		.loc 1 58 9 is_stmt 1 view .LVU106
 304              	.LBB169:
 305              	.LBI169:
 139:Middlewares/LVGL/GUI/lvgl/src/core/lv_obj_style_gen.h **** {
 306              		.loc 2 139 24 view .LVU107
 307              	.LBB170:
 141:Middlewares/LVGL/GUI/lvgl/src/core/lv_obj_style_gen.h ****     return (lv_opa_t)v.num;
 308              		.loc 2 141 5 view .LVU108
 141:Middlewares/LVGL/GUI/lvgl/src/core/lv_obj_style_gen.h ****     return (lv_opa_t)v.num;
 309              		.loc 2 141 26 is_stmt 0 view .LVU109
 310 0100 2122     		movs	r2, #33
 311 0102 2946     		mov	r1, r5
 312 0104 3046     		mov	r0, r6
 313 0106 FFF7FEFF 		bl	lv_obj_get_style_prop
 314              	.LVL25:
 142:Middlewares/LVGL/GUI/lvgl/src/core/lv_obj_style_gen.h **** }
 315              		.loc 2 142 5 is_stmt 1 view .LVU110
 142:Middlewares/LVGL/GUI/lvgl/src/core/lv_obj_style_gen.h **** }
 316              		.loc 2 142 12 is_stmt 0 view .LVU111
 317 010a C0B2     		uxtb	r0, r0
 318              	.LVL26:
 142:Middlewares/LVGL/GUI/lvgl/src/core/lv_obj_style_gen.h **** }
 319              		.loc 2 142 12 view .LVU112
 320              	.LBE170:
 321              	.LBE169:
  58:Middlewares/LVGL/GUI/lvgl/src/core/lv_obj_draw.c ****         if(draw_dsc->bg_opa > LV_OPA_MIN) {
 322              		.loc 1 58 26 view .LVU113
 323 010c 6071     		strb	r0, [r4, #5]
  59:Middlewares/LVGL/GUI/lvgl/src/core/lv_obj_draw.c ****             draw_dsc->bg_color = lv_obj_get_style_bg_color_filtered(obj, part);
 324              		.loc 1 59 9 is_stmt 1 view .LVU114
  59:Middlewares/LVGL/GUI/lvgl/src/core/lv_obj_draw.c ****             draw_dsc->bg_color = lv_obj_get_style_bg_color_filtered(obj, part);
 325              		.loc 1 59 11 is_stmt 0 view .LVU115
 326 010e 0228     		cmp	r0, #2
 327 0110 AAD9     		bls	.L6
 328              	.LBB171:
  60:Middlewares/LVGL/GUI/lvgl/src/core/lv_obj_draw.c ****             const lv_grad_dsc_t * grad = lv_obj_get_style_bg_grad(obj, part);
 329              		.loc 1 60 13 is_stmt 1 view .LVU116
 330              	.LVL27:
 331              	.LBB172:
 332              	.LBI172:
 133:Middlewares/LVGL/GUI/lvgl/src/core/lv_obj_style_gen.h **** {
 333              		.loc 2 133 26 view .LVU117
 334              	.LBB173:
 135:Middlewares/LVGL/GUI/lvgl/src/core/lv_obj_style_gen.h ****     return v.color;
 335              		.loc 2 135 5 view .LVU118
 135:Middlewares/LVGL/GUI/lvgl/src/core/lv_obj_style_gen.h ****     return v.color;
 336              		.loc 2 135 26 is_stmt 0 view .LVU119
ARM GAS  C:\Users\ADMINI~1\AppData\Local\Temp\cc386Zoq.s 			page 21


 337 0112 44F22002 		movw	r2, #16416
 338 0116 2946     		mov	r1, r5
 339 0118 3046     		mov	r0, r6
 340 011a FFF7FEFF 		bl	lv_obj_get_style_prop
 341              	.LVL28:
 136:Middlewares/LVGL/GUI/lvgl/src/core/lv_obj_style_gen.h **** }
 342              		.loc 2 136 5 is_stmt 1 view .LVU120
 136:Middlewares/LVGL/GUI/lvgl/src/core/lv_obj_style_gen.h **** }
 343              		.loc 2 136 5 is_stmt 0 view .LVU121
 344              	.LBE173:
 345              	.LBE172:
  60:Middlewares/LVGL/GUI/lvgl/src/core/lv_obj_draw.c ****             const lv_grad_dsc_t * grad = lv_obj_get_style_bg_grad(obj, part);
 346              		.loc 1 60 34 view .LVU122
 347 011e E080     		strh	r0, [r4, #6]	@ movhi
  61:Middlewares/LVGL/GUI/lvgl/src/core/lv_obj_draw.c ****             if(grad && grad->dir != LV_GRAD_DIR_NONE) {
 348              		.loc 1 61 13 is_stmt 1 view .LVU123
 349              	.LVL29:
 350              	.LBB174:
 351              	.LBI174:
 175:Middlewares/LVGL/GUI/lvgl/src/core/lv_obj_style_gen.h **** {
 352              		.loc 2 175 37 view .LVU124
 353              	.LBB175:
 177:Middlewares/LVGL/GUI/lvgl/src/core/lv_obj_style_gen.h ****     return (const lv_grad_dsc_t *)v.ptr;
 354              		.loc 2 177 5 view .LVU125
 177:Middlewares/LVGL/GUI/lvgl/src/core/lv_obj_style_gen.h ****     return (const lv_grad_dsc_t *)v.ptr;
 355              		.loc 2 177 26 is_stmt 0 view .LVU126
 356 0120 2622     		movs	r2, #38
 357 0122 2946     		mov	r1, r5
 358 0124 3046     		mov	r0, r6
 359 0126 FFF7FEFF 		bl	lv_obj_get_style_prop
 360              	.LVL30:
 178:Middlewares/LVGL/GUI/lvgl/src/core/lv_obj_style_gen.h **** }
 361              		.loc 2 178 5 is_stmt 1 view .LVU127
 178:Middlewares/LVGL/GUI/lvgl/src/core/lv_obj_style_gen.h **** }
 362              		.loc 2 178 5 is_stmt 0 view .LVU128
 363              	.LBE175:
 364              	.LBE174:
  62:Middlewares/LVGL/GUI/lvgl/src/core/lv_obj_draw.c ****                 lv_memcpy(&draw_dsc->bg_grad, grad, sizeof(*grad));
 365              		.loc 1 62 13 is_stmt 1 view .LVU129
  62:Middlewares/LVGL/GUI/lvgl/src/core/lv_obj_draw.c ****                 lv_memcpy(&draw_dsc->bg_grad, grad, sizeof(*grad));
 366              		.loc 1 62 15 is_stmt 0 view .LVU130
 367 012a 0146     		mov	r1, r0
 368 012c 18B1     		cbz	r0, .L7
  62:Middlewares/LVGL/GUI/lvgl/src/core/lv_obj_draw.c ****                 lv_memcpy(&draw_dsc->bg_grad, grad, sizeof(*grad));
 369              		.loc 1 62 34 discriminator 1 view .LVU131
 370 012e 437A     		ldrb	r3, [r0, #9]	@ zero_extendqisi2
  62:Middlewares/LVGL/GUI/lvgl/src/core/lv_obj_draw.c ****                 lv_memcpy(&draw_dsc->bg_grad, grad, sizeof(*grad));
 371              		.loc 1 62 21 discriminator 1 view .LVU132
 372 0130 13F0070F 		tst	r3, #7
 373 0134 16D1     		bne	.L23
 374              	.L7:
  66:Middlewares/LVGL/GUI/lvgl/src/core/lv_obj_draw.c ****                 if(draw_dsc->bg_grad.dir != LV_GRAD_DIR_NONE) {
 375              		.loc 1 66 17 is_stmt 1 view .LVU133
 376              	.LVL31:
 377              	.LBB176:
 378              	.LBI176:
 157:Middlewares/LVGL/GUI/lvgl/src/core/lv_obj_style_gen.h **** {
ARM GAS  C:\Users\ADMINI~1\AppData\Local\Temp\cc386Zoq.s 			page 22


 379              		.loc 2 157 29 view .LVU134
 380              	.LBB177:
 159:Middlewares/LVGL/GUI/lvgl/src/core/lv_obj_style_gen.h ****     return (lv_grad_dir_t)v.num;
 381              		.loc 2 159 5 view .LVU135
 159:Middlewares/LVGL/GUI/lvgl/src/core/lv_obj_style_gen.h ****     return (lv_grad_dir_t)v.num;
 382              		.loc 2 159 26 is_stmt 0 view .LVU136
 383 0136 2322     		movs	r2, #35
 384 0138 2946     		mov	r1, r5
 385 013a 3046     		mov	r0, r6
 386              	.LVL32:
 159:Middlewares/LVGL/GUI/lvgl/src/core/lv_obj_style_gen.h ****     return (lv_grad_dir_t)v.num;
 387              		.loc 2 159 26 view .LVU137
 388 013c FFF7FEFF 		bl	lv_obj_get_style_prop
 389              	.LVL33:
 160:Middlewares/LVGL/GUI/lvgl/src/core/lv_obj_style_gen.h **** }
 390              		.loc 2 160 5 is_stmt 1 view .LVU138
 160:Middlewares/LVGL/GUI/lvgl/src/core/lv_obj_style_gen.h **** }
 391              		.loc 2 160 5 is_stmt 0 view .LVU139
 392              	.LBE177:
 393              	.LBE176:
  66:Middlewares/LVGL/GUI/lvgl/src/core/lv_obj_draw.c ****                 if(draw_dsc->bg_grad.dir != LV_GRAD_DIR_NONE) {
 394              		.loc 1 66 39 view .LVU140
 395 0140 E37B     		ldrb	r3, [r4, #15]	@ zero_extendqisi2
 396 0142 60F30203 		bfi	r3, r0, #0, #3
 397 0146 E373     		strb	r3, [r4, #15]
  67:Middlewares/LVGL/GUI/lvgl/src/core/lv_obj_draw.c ****                     draw_dsc->bg_grad.stops[0].color = lv_obj_get_style_bg_color_filtered(obj, part
 398              		.loc 1 67 17 is_stmt 1 view .LVU141
  67:Middlewares/LVGL/GUI/lvgl/src/core/lv_obj_draw.c ****                     draw_dsc->bg_grad.stops[0].color = lv_obj_get_style_bg_color_filtered(obj, part
 399              		.loc 1 67 42 is_stmt 0 view .LVU142
 400 0148 DBB2     		uxtb	r3, r3
  67:Middlewares/LVGL/GUI/lvgl/src/core/lv_obj_draw.c ****                     draw_dsc->bg_grad.stops[0].color = lv_obj_get_style_bg_color_filtered(obj, part
 401              		.loc 1 67 19 view .LVU143
 402 014a 13F0070F 		tst	r3, #7
 403 014e 0ED1     		bne	.L24
 404              	.L8:
  73:Middlewares/LVGL/GUI/lvgl/src/core/lv_obj_draw.c ****             }
 405              		.loc 1 73 17 is_stmt 1 view .LVU144
 406              	.LVL34:
 407              	.LBB178:
 408              	.LBI178:
 181:Middlewares/LVGL/GUI/lvgl/src/core/lv_obj_style_gen.h **** {
 409              		.loc 2 181 32 view .LVU145
 410              	.LBB179:
 183:Middlewares/LVGL/GUI/lvgl/src/core/lv_obj_style_gen.h ****     return (lv_dither_mode_t)v.num;
 411              		.loc 2 183 5 view .LVU146
 183:Middlewares/LVGL/GUI/lvgl/src/core/lv_obj_style_gen.h ****     return (lv_dither_mode_t)v.num;
 412              		.loc 2 183 26 is_stmt 0 view .LVU147
 413 0150 2722     		movs	r2, #39
 414 0152 2946     		mov	r1, r5
 415 0154 3046     		mov	r0, r6
 416 0156 FFF7FEFF 		bl	lv_obj_get_style_prop
 417              	.LVL35:
 184:Middlewares/LVGL/GUI/lvgl/src/core/lv_obj_style_gen.h **** }
 418              		.loc 2 184 5 is_stmt 1 view .LVU148
 184:Middlewares/LVGL/GUI/lvgl/src/core/lv_obj_style_gen.h **** }
 419              		.loc 2 184 5 is_stmt 0 view .LVU149
 420              	.LBE179:
ARM GAS  C:\Users\ADMINI~1\AppData\Local\Temp\cc386Zoq.s 			page 23


 421              	.LBE178:
  73:Middlewares/LVGL/GUI/lvgl/src/core/lv_obj_draw.c ****             }
 422              		.loc 1 73 42 view .LVU150
 423 015a E37B     		ldrb	r3, [r4, #15]	@ zero_extendqisi2
 424 015c 60F3C503 		bfi	r3, r0, #3, #3
 425 0160 E373     		strb	r3, [r4, #15]
 426 0162 81E7     		b	.L6
 427              	.LVL36:
 428              	.L23:
  63:Middlewares/LVGL/GUI/lvgl/src/core/lv_obj_draw.c ****             }
 429              		.loc 1 63 17 is_stmt 1 view .LVU151
 430 0164 0A22     		movs	r2, #10
 431 0166 A01D     		adds	r0, r4, #6
 432              	.LVL37:
  63:Middlewares/LVGL/GUI/lvgl/src/core/lv_obj_draw.c ****             }
 433              		.loc 1 63 17 is_stmt 0 view .LVU152
 434 0168 FFF7FEFF 		bl	lv_memcpy
 435              	.LVL38:
  63:Middlewares/LVGL/GUI/lvgl/src/core/lv_obj_draw.c ****             }
 436              		.loc 1 63 17 view .LVU153
 437 016c 7CE7     		b	.L6
 438              	.L24:
  68:Middlewares/LVGL/GUI/lvgl/src/core/lv_obj_draw.c ****                     draw_dsc->bg_grad.stops[1].color = lv_obj_get_style_bg_grad_color_filtered(obj,
 439              		.loc 1 68 21 is_stmt 1 view .LVU154
 440              	.LVL39:
 441              	.LBB180:
 442              	.LBI180:
 133:Middlewares/LVGL/GUI/lvgl/src/core/lv_obj_style_gen.h **** {
 443              		.loc 2 133 26 view .LVU155
 444              	.LBB181:
 135:Middlewares/LVGL/GUI/lvgl/src/core/lv_obj_style_gen.h ****     return v.color;
 445              		.loc 2 135 5 view .LVU156
 135:Middlewares/LVGL/GUI/lvgl/src/core/lv_obj_style_gen.h ****     return v.color;
 446              		.loc 2 135 26 is_stmt 0 view .LVU157
 447 016e 44F22002 		movw	r2, #16416
 448 0172 2946     		mov	r1, r5
 449 0174 3046     		mov	r0, r6
 450 0176 FFF7FEFF 		bl	lv_obj_get_style_prop
 451              	.LVL40:
 136:Middlewares/LVGL/GUI/lvgl/src/core/lv_obj_style_gen.h **** }
 452              		.loc 2 136 5 is_stmt 1 view .LVU158
 136:Middlewares/LVGL/GUI/lvgl/src/core/lv_obj_style_gen.h **** }
 453              		.loc 2 136 5 is_stmt 0 view .LVU159
 454              	.LBE181:
 455              	.LBE180:
  68:Middlewares/LVGL/GUI/lvgl/src/core/lv_obj_draw.c ****                     draw_dsc->bg_grad.stops[1].color = lv_obj_get_style_bg_grad_color_filtered(obj,
 456              		.loc 1 68 56 view .LVU160
 457 017a E080     		strh	r0, [r4, #6]	@ movhi
  69:Middlewares/LVGL/GUI/lvgl/src/core/lv_obj_draw.c ****                     draw_dsc->bg_grad.stops[0].frac = lv_obj_get_style_bg_main_stop(obj, part);
 458              		.loc 1 69 21 is_stmt 1 view .LVU161
 459              	.LVL41:
 460              	.LBB182:
 461              	.LBI182:
 151:Middlewares/LVGL/GUI/lvgl/src/core/lv_obj_style_gen.h **** {
 462              		.loc 2 151 26 view .LVU162
 463              	.LBB183:
 153:Middlewares/LVGL/GUI/lvgl/src/core/lv_obj_style_gen.h ****     return v.color;
ARM GAS  C:\Users\ADMINI~1\AppData\Local\Temp\cc386Zoq.s 			page 24


 464              		.loc 2 153 5 view .LVU163
 153:Middlewares/LVGL/GUI/lvgl/src/core/lv_obj_style_gen.h ****     return v.color;
 465              		.loc 2 153 26 is_stmt 0 view .LVU164
 466 017c 44F22202 		movw	r2, #16418
 467 0180 2946     		mov	r1, r5
 468 0182 3046     		mov	r0, r6
 469 0184 FFF7FEFF 		bl	lv_obj_get_style_prop
 470              	.LVL42:
 154:Middlewares/LVGL/GUI/lvgl/src/core/lv_obj_style_gen.h **** }
 471              		.loc 2 154 5 is_stmt 1 view .LVU165
 154:Middlewares/LVGL/GUI/lvgl/src/core/lv_obj_style_gen.h **** }
 472              		.loc 2 154 5 is_stmt 0 view .LVU166
 473              	.LBE183:
 474              	.LBE182:
  69:Middlewares/LVGL/GUI/lvgl/src/core/lv_obj_draw.c ****                     draw_dsc->bg_grad.stops[0].frac = lv_obj_get_style_bg_main_stop(obj, part);
 475              		.loc 1 69 56 view .LVU167
 476 0188 6081     		strh	r0, [r4, #10]	@ movhi
  70:Middlewares/LVGL/GUI/lvgl/src/core/lv_obj_draw.c ****                     draw_dsc->bg_grad.stops[1].frac = lv_obj_get_style_bg_grad_stop(obj, part);
 477              		.loc 1 70 21 is_stmt 1 view .LVU168
 478              	.LVL43:
 479              	.LBB184:
 480              	.LBI184:
 163:Middlewares/LVGL/GUI/lvgl/src/core/lv_obj_style_gen.h **** {
 481              		.loc 2 163 26 view .LVU169
 482              	.LBB185:
 165:Middlewares/LVGL/GUI/lvgl/src/core/lv_obj_style_gen.h ****     return (lv_coord_t)v.num;
 483              		.loc 2 165 5 view .LVU170
 165:Middlewares/LVGL/GUI/lvgl/src/core/lv_obj_style_gen.h ****     return (lv_coord_t)v.num;
 484              		.loc 2 165 26 is_stmt 0 view .LVU171
 485 018a 2422     		movs	r2, #36
 486 018c 2946     		mov	r1, r5
 487 018e 3046     		mov	r0, r6
 488 0190 FFF7FEFF 		bl	lv_obj_get_style_prop
 489              	.LVL44:
 166:Middlewares/LVGL/GUI/lvgl/src/core/lv_obj_style_gen.h **** }
 490              		.loc 2 166 5 is_stmt 1 view .LVU172
 166:Middlewares/LVGL/GUI/lvgl/src/core/lv_obj_style_gen.h **** }
 491              		.loc 2 166 5 is_stmt 0 view .LVU173
 492              	.LBE185:
 493              	.LBE184:
  70:Middlewares/LVGL/GUI/lvgl/src/core/lv_obj_draw.c ****                     draw_dsc->bg_grad.stops[1].frac = lv_obj_get_style_bg_grad_stop(obj, part);
 494              		.loc 1 70 53 view .LVU174
 495 0194 2072     		strb	r0, [r4, #8]
  71:Middlewares/LVGL/GUI/lvgl/src/core/lv_obj_draw.c ****                 }
 496              		.loc 1 71 21 is_stmt 1 view .LVU175
 497              	.LVL45:
 498              	.LBB186:
 499              	.LBI186:
 169:Middlewares/LVGL/GUI/lvgl/src/core/lv_obj_style_gen.h **** {
 500              		.loc 2 169 26 view .LVU176
 501              	.LBB187:
 171:Middlewares/LVGL/GUI/lvgl/src/core/lv_obj_style_gen.h ****     return (lv_coord_t)v.num;
 502              		.loc 2 171 5 view .LVU177
 171:Middlewares/LVGL/GUI/lvgl/src/core/lv_obj_style_gen.h ****     return (lv_coord_t)v.num;
 503              		.loc 2 171 26 is_stmt 0 view .LVU178
 504 0196 2522     		movs	r2, #37
 505 0198 2946     		mov	r1, r5
ARM GAS  C:\Users\ADMINI~1\AppData\Local\Temp\cc386Zoq.s 			page 25


 506 019a 3046     		mov	r0, r6
 507 019c FFF7FEFF 		bl	lv_obj_get_style_prop
 508              	.LVL46:
 172:Middlewares/LVGL/GUI/lvgl/src/core/lv_obj_style_gen.h **** }
 509              		.loc 2 172 5 is_stmt 1 view .LVU179
 172:Middlewares/LVGL/GUI/lvgl/src/core/lv_obj_style_gen.h **** }
 510              		.loc 2 172 5 is_stmt 0 view .LVU180
 511              	.LBE187:
 512              	.LBE186:
  71:Middlewares/LVGL/GUI/lvgl/src/core/lv_obj_draw.c ****                 }
 513              		.loc 1 71 53 view .LVU181
 514 01a0 2073     		strb	r0, [r4, #12]
 515 01a2 D5E7     		b	.L8
 516              	.LVL47:
 517              	.L19:
  71:Middlewares/LVGL/GUI/lvgl/src/core/lv_obj_draw.c ****                 }
 518              		.loc 1 71 53 view .LVU182
 519              	.LBE171:
  81:Middlewares/LVGL/GUI/lvgl/src/core/lv_obj_draw.c ****             if(draw_dsc->border_opa > LV_OPA_MIN) {
 520              		.loc 1 81 13 is_stmt 1 view .LVU183
 521              	.LBB188:
 522              	.LBI188:
 235:Middlewares/LVGL/GUI/lvgl/src/core/lv_obj_style_gen.h **** {
 523              		.loc 2 235 24 view .LVU184
 524              	.LBB189:
 237:Middlewares/LVGL/GUI/lvgl/src/core/lv_obj_style_gen.h ****     return (lv_opa_t)v.num;
 525              		.loc 2 237 5 view .LVU185
 237:Middlewares/LVGL/GUI/lvgl/src/core/lv_obj_style_gen.h ****     return (lv_opa_t)v.num;
 526              		.loc 2 237 26 is_stmt 0 view .LVU186
 527 01a4 3122     		movs	r2, #49
 528 01a6 2946     		mov	r1, r5
 529 01a8 3046     		mov	r0, r6
 530              	.LVL48:
 237:Middlewares/LVGL/GUI/lvgl/src/core/lv_obj_style_gen.h ****     return (lv_opa_t)v.num;
 531              		.loc 2 237 26 view .LVU187
 532 01aa FFF7FEFF 		bl	lv_obj_get_style_prop
 533              	.LVL49:
 238:Middlewares/LVGL/GUI/lvgl/src/core/lv_obj_style_gen.h **** }
 534              		.loc 2 238 5 is_stmt 1 view .LVU188
 238:Middlewares/LVGL/GUI/lvgl/src/core/lv_obj_style_gen.h **** }
 535              		.loc 2 238 12 is_stmt 0 view .LVU189
 536 01ae C0B2     		uxtb	r0, r0
 537              	.LVL50:
 238:Middlewares/LVGL/GUI/lvgl/src/core/lv_obj_style_gen.h **** }
 538              		.loc 2 238 12 view .LVU190
 539              	.LBE189:
 540              	.LBE188:
  81:Middlewares/LVGL/GUI/lvgl/src/core/lv_obj_draw.c ****             if(draw_dsc->border_opa > LV_OPA_MIN) {
 541              		.loc 1 81 34 view .LVU191
 542 01b0 84F82400 		strb	r0, [r4, #36]
  82:Middlewares/LVGL/GUI/lvgl/src/core/lv_obj_draw.c ****                 draw_dsc->border_side = lv_obj_get_style_border_side(obj, part);
 543              		.loc 1 82 13 is_stmt 1 view .LVU192
  82:Middlewares/LVGL/GUI/lvgl/src/core/lv_obj_draw.c ****                 draw_dsc->border_side = lv_obj_get_style_border_side(obj, part);
 544              		.loc 1 82 15 is_stmt 0 view .LVU193
 545 01b4 0228     		cmp	r0, #2
 546 01b6 7FF664AF 		bls	.L9
  83:Middlewares/LVGL/GUI/lvgl/src/core/lv_obj_draw.c ****                 draw_dsc->border_color = lv_obj_get_style_border_color_filtered(obj, part);
ARM GAS  C:\Users\ADMINI~1\AppData\Local\Temp\cc386Zoq.s 			page 26


 547              		.loc 1 83 17 is_stmt 1 view .LVU194
 548              	.LVL51:
 549              	.LBB190:
 550              	.LBI190:
 247:Middlewares/LVGL/GUI/lvgl/src/core/lv_obj_style_gen.h **** {
 551              		.loc 2 247 32 view .LVU195
 552              	.LBB191:
 249:Middlewares/LVGL/GUI/lvgl/src/core/lv_obj_style_gen.h ****     return (lv_border_side_t)v.num;
 553              		.loc 2 249 5 view .LVU196
 249:Middlewares/LVGL/GUI/lvgl/src/core/lv_obj_style_gen.h ****     return (lv_border_side_t)v.num;
 554              		.loc 2 249 26 is_stmt 0 view .LVU197
 555 01ba 3322     		movs	r2, #51
 556 01bc 2946     		mov	r1, r5
 557 01be 3046     		mov	r0, r6
 558 01c0 FFF7FEFF 		bl	lv_obj_get_style_prop
 559              	.LVL52:
 250:Middlewares/LVGL/GUI/lvgl/src/core/lv_obj_style_gen.h **** }
 560              		.loc 2 250 5 is_stmt 1 view .LVU198
 250:Middlewares/LVGL/GUI/lvgl/src/core/lv_obj_style_gen.h **** }
 561              		.loc 2 250 5 is_stmt 0 view .LVU199
 562              	.LBE191:
 563              	.LBE190:
  83:Middlewares/LVGL/GUI/lvgl/src/core/lv_obj_draw.c ****                 draw_dsc->border_color = lv_obj_get_style_border_color_filtered(obj, part);
 564              		.loc 1 83 39 view .LVU200
 565 01c4 94F82530 		ldrb	r3, [r4, #37]	@ zero_extendqisi2
 566 01c8 60F34503 		bfi	r3, r0, #1, #5
 567 01cc 84F82530 		strb	r3, [r4, #37]
  84:Middlewares/LVGL/GUI/lvgl/src/core/lv_obj_draw.c ****             }
 568              		.loc 1 84 17 is_stmt 1 view .LVU201
 569              	.LVL53:
 570              	.LBB192:
 571              	.LBI192:
 229:Middlewares/LVGL/GUI/lvgl/src/core/lv_obj_style_gen.h **** {
 572              		.loc 2 229 26 view .LVU202
 573              	.LBB193:
 231:Middlewares/LVGL/GUI/lvgl/src/core/lv_obj_style_gen.h ****     return v.color;
 574              		.loc 2 231 5 view .LVU203
 231:Middlewares/LVGL/GUI/lvgl/src/core/lv_obj_style_gen.h ****     return v.color;
 575              		.loc 2 231 26 is_stmt 0 view .LVU204
 576 01d0 44F23002 		movw	r2, #16432
 577 01d4 2946     		mov	r1, r5
 578 01d6 3046     		mov	r0, r6
 579 01d8 FFF7FEFF 		bl	lv_obj_get_style_prop
 580              	.LVL54:
 232:Middlewares/LVGL/GUI/lvgl/src/core/lv_obj_style_gen.h **** }
 581              		.loc 2 232 5 is_stmt 1 view .LVU205
 232:Middlewares/LVGL/GUI/lvgl/src/core/lv_obj_style_gen.h **** }
 582              		.loc 2 232 5 is_stmt 0 view .LVU206
 583              	.LBE193:
 584              	.LBE192:
  84:Middlewares/LVGL/GUI/lvgl/src/core/lv_obj_draw.c ****             }
 585              		.loc 1 84 42 view .LVU207
 586 01dc E083     		strh	r0, [r4, #30]	@ movhi
 587 01de 50E7     		b	.L9
 588              	.LVL55:
 589              	.L20:
  92:Middlewares/LVGL/GUI/lvgl/src/core/lv_obj_draw.c ****             if(draw_dsc->outline_opa > LV_OPA_MIN) {
ARM GAS  C:\Users\ADMINI~1\AppData\Local\Temp\cc386Zoq.s 			page 27


 590              		.loc 1 92 13 is_stmt 1 view .LVU208
 591              	.LBB194:
 592              	.LBI194:
 277:Middlewares/LVGL/GUI/lvgl/src/core/lv_obj_style_gen.h **** {
 593              		.loc 2 277 24 view .LVU209
 594              	.LBB195:
 279:Middlewares/LVGL/GUI/lvgl/src/core/lv_obj_style_gen.h ****     return (lv_opa_t)v.num;
 595              		.loc 2 279 5 view .LVU210
 279:Middlewares/LVGL/GUI/lvgl/src/core/lv_obj_style_gen.h ****     return (lv_opa_t)v.num;
 596              		.loc 2 279 26 is_stmt 0 view .LVU211
 597 01e0 40F63C02 		movw	r2, #2108
 598 01e4 2946     		mov	r1, r5
 599 01e6 3046     		mov	r0, r6
 600              	.LVL56:
 279:Middlewares/LVGL/GUI/lvgl/src/core/lv_obj_style_gen.h ****     return (lv_opa_t)v.num;
 601              		.loc 2 279 26 view .LVU212
 602 01e8 FFF7FEFF 		bl	lv_obj_get_style_prop
 603              	.LVL57:
 280:Middlewares/LVGL/GUI/lvgl/src/core/lv_obj_style_gen.h **** }
 604              		.loc 2 280 5 is_stmt 1 view .LVU213
 280:Middlewares/LVGL/GUI/lvgl/src/core/lv_obj_style_gen.h **** }
 605              		.loc 2 280 12 is_stmt 0 view .LVU214
 606 01ec C0B2     		uxtb	r0, r0
 607              	.LVL58:
 280:Middlewares/LVGL/GUI/lvgl/src/core/lv_obj_style_gen.h **** }
 608              		.loc 2 280 12 view .LVU215
 609              	.LBE195:
 610              	.LBE194:
  92:Middlewares/LVGL/GUI/lvgl/src/core/lv_obj_draw.c ****             if(draw_dsc->outline_opa > LV_OPA_MIN) {
 611              		.loc 1 92 35 view .LVU216
 612 01ee 84F83000 		strb	r0, [r4, #48]
  93:Middlewares/LVGL/GUI/lvgl/src/core/lv_obj_draw.c ****                 draw_dsc->outline_pad = lv_obj_get_style_outline_pad(obj, part);
 613              		.loc 1 93 13 is_stmt 1 view .LVU217
  93:Middlewares/LVGL/GUI/lvgl/src/core/lv_obj_draw.c ****                 draw_dsc->outline_pad = lv_obj_get_style_outline_pad(obj, part);
 614              		.loc 1 93 15 is_stmt 0 view .LVU218
 615 01f2 0228     		cmp	r0, #2
 616 01f4 7FF652AF 		bls	.L10
  94:Middlewares/LVGL/GUI/lvgl/src/core/lv_obj_draw.c ****                 draw_dsc->outline_color = lv_obj_get_style_outline_color_filtered(obj, part);
 617              		.loc 1 94 17 is_stmt 1 view .LVU219
 618              	.LVL59:
 619              	.LBB196:
 620              	.LBI196:
 283:Middlewares/LVGL/GUI/lvgl/src/core/lv_obj_style_gen.h **** {
 621              		.loc 2 283 26 view .LVU220
 622              	.LBB197:
 285:Middlewares/LVGL/GUI/lvgl/src/core/lv_obj_style_gen.h ****     return (lv_coord_t)v.num;
 623              		.loc 2 285 5 view .LVU221
 285:Middlewares/LVGL/GUI/lvgl/src/core/lv_obj_style_gen.h ****     return (lv_coord_t)v.num;
 624              		.loc 2 285 26 is_stmt 0 view .LVU222
 625 01f8 40F63D02 		movw	r2, #2109
 626 01fc 2946     		mov	r1, r5
 627 01fe 3046     		mov	r0, r6
 628 0200 FFF7FEFF 		bl	lv_obj_get_style_prop
 629              	.LVL60:
 286:Middlewares/LVGL/GUI/lvgl/src/core/lv_obj_style_gen.h **** }
 630              		.loc 2 286 5 is_stmt 1 view .LVU223
 286:Middlewares/LVGL/GUI/lvgl/src/core/lv_obj_style_gen.h **** }
ARM GAS  C:\Users\ADMINI~1\AppData\Local\Temp\cc386Zoq.s 			page 28


 631              		.loc 2 286 5 is_stmt 0 view .LVU224
 632              	.LBE197:
 633              	.LBE196:
  94:Middlewares/LVGL/GUI/lvgl/src/core/lv_obj_draw.c ****                 draw_dsc->outline_color = lv_obj_get_style_outline_color_filtered(obj, part);
 634              		.loc 1 94 39 view .LVU225
 635 0204 E062     		str	r0, [r4, #44]
  95:Middlewares/LVGL/GUI/lvgl/src/core/lv_obj_draw.c ****             }
 636              		.loc 1 95 17 is_stmt 1 view .LVU226
 637              	.LVL61:
 638              	.LBB198:
 639              	.LBI198:
 271:Middlewares/LVGL/GUI/lvgl/src/core/lv_obj_style_gen.h **** {
 640              		.loc 2 271 26 view .LVU227
 641              	.LBB199:
 273:Middlewares/LVGL/GUI/lvgl/src/core/lv_obj_style_gen.h ****     return v.color;
 642              		.loc 2 273 5 view .LVU228
 273:Middlewares/LVGL/GUI/lvgl/src/core/lv_obj_style_gen.h ****     return v.color;
 643              		.loc 2 273 26 is_stmt 0 view .LVU229
 644 0206 44F23B02 		movw	r2, #16443
 645 020a 2946     		mov	r1, r5
 646 020c 3046     		mov	r0, r6
 647 020e FFF7FEFF 		bl	lv_obj_get_style_prop
 648              	.LVL62:
 274:Middlewares/LVGL/GUI/lvgl/src/core/lv_obj_style_gen.h **** }
 649              		.loc 2 274 5 is_stmt 1 view .LVU230
 274:Middlewares/LVGL/GUI/lvgl/src/core/lv_obj_style_gen.h **** }
 650              		.loc 2 274 5 is_stmt 0 view .LVU231
 651              	.LBE199:
 652              	.LBE198:
  95:Middlewares/LVGL/GUI/lvgl/src/core/lv_obj_draw.c ****             }
 653              		.loc 1 95 43 view .LVU232
 654 0212 E084     		strh	r0, [r4, #38]	@ movhi
 655 0214 42E7     		b	.L10
 656              	.LVL63:
 657              	.L21:
 101:Middlewares/LVGL/GUI/lvgl/src/core/lv_obj_draw.c ****         if(draw_dsc->bg_img_src) {
 658              		.loc 1 101 9 is_stmt 1 view .LVU233
 659              	.LBB200:
 660              	.LBI200:
 187:Middlewares/LVGL/GUI/lvgl/src/core/lv_obj_style_gen.h **** {
 661              		.loc 2 187 28 view .LVU234
 662              	.LBB201:
 189:Middlewares/LVGL/GUI/lvgl/src/core/lv_obj_style_gen.h ****     return (const void *)v.ptr;
 663              		.loc 2 189 5 view .LVU235
 189:Middlewares/LVGL/GUI/lvgl/src/core/lv_obj_style_gen.h ****     return (const void *)v.ptr;
 664              		.loc 2 189 26 is_stmt 0 view .LVU236
 665 0216 40F62802 		movw	r2, #2088
 666 021a 2946     		mov	r1, r5
 667 021c 3046     		mov	r0, r6
 668              	.LVL64:
 189:Middlewares/LVGL/GUI/lvgl/src/core/lv_obj_style_gen.h ****     return (const void *)v.ptr;
 669              		.loc 2 189 26 view .LVU237
 670 021e FFF7FEFF 		bl	lv_obj_get_style_prop
 671              	.LVL65:
 190:Middlewares/LVGL/GUI/lvgl/src/core/lv_obj_style_gen.h **** }
 672              		.loc 2 190 5 is_stmt 1 view .LVU238
 190:Middlewares/LVGL/GUI/lvgl/src/core/lv_obj_style_gen.h **** }
ARM GAS  C:\Users\ADMINI~1\AppData\Local\Temp\cc386Zoq.s 			page 29


 673              		.loc 2 190 5 is_stmt 0 view .LVU239
 674              	.LBE201:
 675              	.LBE200:
 101:Middlewares/LVGL/GUI/lvgl/src/core/lv_obj_draw.c ****         if(draw_dsc->bg_img_src) {
 676              		.loc 1 101 30 view .LVU240
 677 0222 2061     		str	r0, [r4, #16]
 102:Middlewares/LVGL/GUI/lvgl/src/core/lv_obj_draw.c ****             draw_dsc->bg_img_opa = lv_obj_get_style_bg_img_opa(obj, part);
 678              		.loc 1 102 9 is_stmt 1 view .LVU241
 102:Middlewares/LVGL/GUI/lvgl/src/core/lv_obj_draw.c ****             draw_dsc->bg_img_opa = lv_obj_get_style_bg_img_opa(obj, part);
 679              		.loc 1 102 11 is_stmt 0 view .LVU242
 680 0224 0028     		cmp	r0, #0
 681 0226 3FF43DAF 		beq	.L11
 103:Middlewares/LVGL/GUI/lvgl/src/core/lv_obj_draw.c ****             if(draw_dsc->bg_img_opa > LV_OPA_MIN) {
 682              		.loc 1 103 13 is_stmt 1 view .LVU243
 683              	.LVL66:
 684              	.LBB202:
 685              	.LBI202:
 193:Middlewares/LVGL/GUI/lvgl/src/core/lv_obj_style_gen.h **** {
 686              		.loc 2 193 24 view .LVU244
 687              	.LBB203:
 195:Middlewares/LVGL/GUI/lvgl/src/core/lv_obj_style_gen.h ****     return (lv_opa_t)v.num;
 688              		.loc 2 195 5 view .LVU245
 195:Middlewares/LVGL/GUI/lvgl/src/core/lv_obj_style_gen.h ****     return (lv_opa_t)v.num;
 689              		.loc 2 195 26 is_stmt 0 view .LVU246
 690 022a 2922     		movs	r2, #41
 691 022c 2946     		mov	r1, r5
 692 022e 3046     		mov	r0, r6
 693              	.LVL67:
 195:Middlewares/LVGL/GUI/lvgl/src/core/lv_obj_style_gen.h ****     return (lv_opa_t)v.num;
 694              		.loc 2 195 26 view .LVU247
 695 0230 FFF7FEFF 		bl	lv_obj_get_style_prop
 696              	.LVL68:
 196:Middlewares/LVGL/GUI/lvgl/src/core/lv_obj_style_gen.h **** }
 697              		.loc 2 196 5 is_stmt 1 view .LVU248
 196:Middlewares/LVGL/GUI/lvgl/src/core/lv_obj_style_gen.h **** }
 698              		.loc 2 196 12 is_stmt 0 view .LVU249
 699 0234 C0B2     		uxtb	r0, r0
 700              	.LVL69:
 196:Middlewares/LVGL/GUI/lvgl/src/core/lv_obj_style_gen.h **** }
 701              		.loc 2 196 12 view .LVU250
 702              	.LBE203:
 703              	.LBE202:
 103:Middlewares/LVGL/GUI/lvgl/src/core/lv_obj_draw.c ****             if(draw_dsc->bg_img_opa > LV_OPA_MIN) {
 704              		.loc 1 103 34 view .LVU251
 705 0236 A076     		strb	r0, [r4, #26]
 104:Middlewares/LVGL/GUI/lvgl/src/core/lv_obj_draw.c ****                 if(lv_img_src_get_type(draw_dsc->bg_img_src) == LV_IMG_SRC_SYMBOL) {
 706              		.loc 1 104 13 is_stmt 1 view .LVU252
 104:Middlewares/LVGL/GUI/lvgl/src/core/lv_obj_draw.c ****                 if(lv_img_src_get_type(draw_dsc->bg_img_src) == LV_IMG_SRC_SYMBOL) {
 707              		.loc 1 104 15 is_stmt 0 view .LVU253
 708 0238 0228     		cmp	r0, #2
 709 023a 7FF633AF 		bls	.L11
 105:Middlewares/LVGL/GUI/lvgl/src/core/lv_obj_draw.c ****                     draw_dsc->bg_img_symbol_font = lv_obj_get_style_text_font(obj, part);
 710              		.loc 1 105 17 is_stmt 1 view .LVU254
 105:Middlewares/LVGL/GUI/lvgl/src/core/lv_obj_draw.c ****                     draw_dsc->bg_img_symbol_font = lv_obj_get_style_text_font(obj, part);
 711              		.loc 1 105 20 is_stmt 0 view .LVU255
 712 023e 2069     		ldr	r0, [r4, #16]
 713 0240 FFF7FEFF 		bl	lv_img_src_get_type
ARM GAS  C:\Users\ADMINI~1\AppData\Local\Temp\cc386Zoq.s 			page 30


 714              	.LVL70:
 105:Middlewares/LVGL/GUI/lvgl/src/core/lv_obj_draw.c ****                     draw_dsc->bg_img_symbol_font = lv_obj_get_style_text_font(obj, part);
 715              		.loc 1 105 19 view .LVU256
 716 0244 0228     		cmp	r0, #2
 717 0246 16D0     		beq	.L25
 110:Middlewares/LVGL/GUI/lvgl/src/core/lv_obj_draw.c ****                     draw_dsc->bg_img_recolor_opa = lv_obj_get_style_bg_img_recolor_opa(obj, part);
 718              		.loc 1 110 21 is_stmt 1 view .LVU257
 719              	.LVL71:
 720              	.LBB204:
 721              	.LBI204:
 205:Middlewares/LVGL/GUI/lvgl/src/core/lv_obj_style_gen.h **** {
 722              		.loc 2 205 26 view .LVU258
 723              	.LBB205:
 207:Middlewares/LVGL/GUI/lvgl/src/core/lv_obj_style_gen.h ****     return v.color;
 724              		.loc 2 207 5 view .LVU259
 207:Middlewares/LVGL/GUI/lvgl/src/core/lv_obj_style_gen.h ****     return v.color;
 725              		.loc 2 207 26 is_stmt 0 view .LVU260
 726 0248 44F22A02 		movw	r2, #16426
 727 024c 2946     		mov	r1, r5
 728 024e 3046     		mov	r0, r6
 729 0250 FFF7FEFF 		bl	lv_obj_get_style_prop
 730              	.LVL72:
 208:Middlewares/LVGL/GUI/lvgl/src/core/lv_obj_style_gen.h **** }
 731              		.loc 2 208 5 is_stmt 1 view .LVU261
 208:Middlewares/LVGL/GUI/lvgl/src/core/lv_obj_style_gen.h **** }
 732              		.loc 2 208 5 is_stmt 0 view .LVU262
 733              	.LBE205:
 734              	.LBE204:
 110:Middlewares/LVGL/GUI/lvgl/src/core/lv_obj_draw.c ****                     draw_dsc->bg_img_recolor_opa = lv_obj_get_style_bg_img_recolor_opa(obj, part);
 735              		.loc 1 110 48 view .LVU263
 736 0254 2083     		strh	r0, [r4, #24]	@ movhi
 111:Middlewares/LVGL/GUI/lvgl/src/core/lv_obj_draw.c ****                     draw_dsc->bg_img_tiled = lv_obj_get_style_bg_img_tiled(obj, part);
 737              		.loc 1 111 21 is_stmt 1 view .LVU264
 738              	.LVL73:
 739              	.LBB206:
 740              	.LBI206:
 211:Middlewares/LVGL/GUI/lvgl/src/core/lv_obj_style_gen.h **** {
 741              		.loc 2 211 24 view .LVU265
 742              	.LBB207:
 213:Middlewares/LVGL/GUI/lvgl/src/core/lv_obj_style_gen.h ****     return (lv_opa_t)v.num;
 743              		.loc 2 213 5 view .LVU266
 213:Middlewares/LVGL/GUI/lvgl/src/core/lv_obj_style_gen.h ****     return (lv_opa_t)v.num;
 744              		.loc 2 213 26 is_stmt 0 view .LVU267
 745 0256 2B22     		movs	r2, #43
 746 0258 2946     		mov	r1, r5
 747 025a 3046     		mov	r0, r6
 748 025c FFF7FEFF 		bl	lv_obj_get_style_prop
 749              	.LVL74:
 214:Middlewares/LVGL/GUI/lvgl/src/core/lv_obj_style_gen.h **** }
 750              		.loc 2 214 5 is_stmt 1 view .LVU268
 214:Middlewares/LVGL/GUI/lvgl/src/core/lv_obj_style_gen.h **** }
 751              		.loc 2 214 5 is_stmt 0 view .LVU269
 752              	.LBE207:
 753              	.LBE206:
 111:Middlewares/LVGL/GUI/lvgl/src/core/lv_obj_draw.c ****                     draw_dsc->bg_img_tiled = lv_obj_get_style_bg_img_tiled(obj, part);
 754              		.loc 1 111 50 view .LVU270
 755 0260 E076     		strb	r0, [r4, #27]
ARM GAS  C:\Users\ADMINI~1\AppData\Local\Temp\cc386Zoq.s 			page 31


 112:Middlewares/LVGL/GUI/lvgl/src/core/lv_obj_draw.c ****                 }
 756              		.loc 1 112 21 is_stmt 1 view .LVU271
 757              	.LVL75:
 758              	.LBB208:
 759              	.LBI208:
 217:Middlewares/LVGL/GUI/lvgl/src/core/lv_obj_style_gen.h **** {
 760              		.loc 2 217 20 view .LVU272
 761              	.LBB209:
 219:Middlewares/LVGL/GUI/lvgl/src/core/lv_obj_style_gen.h ****     return (bool)v.num;
 762              		.loc 2 219 5 view .LVU273
 219:Middlewares/LVGL/GUI/lvgl/src/core/lv_obj_style_gen.h ****     return (bool)v.num;
 763              		.loc 2 219 26 is_stmt 0 view .LVU274
 764 0262 2C22     		movs	r2, #44
 765 0264 2946     		mov	r1, r5
 766 0266 3046     		mov	r0, r6
 767 0268 FFF7FEFF 		bl	lv_obj_get_style_prop
 768              	.LVL76:
 220:Middlewares/LVGL/GUI/lvgl/src/core/lv_obj_style_gen.h **** }
 769              		.loc 2 220 5 is_stmt 1 view .LVU275
 220:Middlewares/LVGL/GUI/lvgl/src/core/lv_obj_style_gen.h **** }
 770              		.loc 2 220 12 is_stmt 0 view .LVU276
 771 026c 031E     		subs	r3, r0, #0
 772 026e 18BF     		it	ne
 773 0270 0123     		movne	r3, #1
 774              	.LVL77:
 220:Middlewares/LVGL/GUI/lvgl/src/core/lv_obj_style_gen.h **** }
 775              		.loc 2 220 12 view .LVU277
 776              	.LBE209:
 777              	.LBE208:
 112:Middlewares/LVGL/GUI/lvgl/src/core/lv_obj_draw.c ****                 }
 778              		.loc 1 112 44 view .LVU278
 779 0272 2377     		strb	r3, [r4, #28]
 780 0274 16E7     		b	.L11
 781              	.L25:
 106:Middlewares/LVGL/GUI/lvgl/src/core/lv_obj_draw.c ****                     draw_dsc->bg_img_recolor = lv_obj_get_style_text_color_filtered(obj, part);
 782              		.loc 1 106 21 is_stmt 1 view .LVU279
 783              	.LVL78:
 784              	.LBB210:
 785              	.LBI210:
 451:Middlewares/LVGL/GUI/lvgl/src/core/lv_obj_style_gen.h **** {
 786              		.loc 2 451 33 view .LVU280
 787              	.LBB211:
 453:Middlewares/LVGL/GUI/lvgl/src/core/lv_obj_style_gen.h ****     return (const lv_font_t *)v.ptr;
 788              		.loc 2 453 5 view .LVU281
 453:Middlewares/LVGL/GUI/lvgl/src/core/lv_obj_style_gen.h ****     return (const lv_font_t *)v.ptr;
 789              		.loc 2 453 26 is_stmt 0 view .LVU282
 790 0276 41F25942 		movw	r2, #5209
 791 027a 2946     		mov	r1, r5
 792 027c 3046     		mov	r0, r6
 793 027e FFF7FEFF 		bl	lv_obj_get_style_prop
 794              	.LVL79:
 454:Middlewares/LVGL/GUI/lvgl/src/core/lv_obj_style_gen.h **** }
 795              		.loc 2 454 5 is_stmt 1 view .LVU283
 454:Middlewares/LVGL/GUI/lvgl/src/core/lv_obj_style_gen.h **** }
 796              		.loc 2 454 5 is_stmt 0 view .LVU284
 797              	.LBE211:
 798              	.LBE210:
ARM GAS  C:\Users\ADMINI~1\AppData\Local\Temp\cc386Zoq.s 			page 32


 106:Middlewares/LVGL/GUI/lvgl/src/core/lv_obj_draw.c ****                     draw_dsc->bg_img_recolor = lv_obj_get_style_text_color_filtered(obj, part);
 799              		.loc 1 106 50 view .LVU285
 800 0282 6061     		str	r0, [r4, #20]
 107:Middlewares/LVGL/GUI/lvgl/src/core/lv_obj_draw.c ****                 }
 801              		.loc 1 107 21 is_stmt 1 view .LVU286
 802              	.LVL80:
 803              	.LBB212:
 804              	.LBI212:
 439:Middlewares/LVGL/GUI/lvgl/src/core/lv_obj_style_gen.h **** {
 805              		.loc 2 439 26 view .LVU287
 806              	.LBB213:
 441:Middlewares/LVGL/GUI/lvgl/src/core/lv_obj_style_gen.h ****     return v.color;
 807              		.loc 2 441 5 view .LVU288
 441:Middlewares/LVGL/GUI/lvgl/src/core/lv_obj_style_gen.h ****     return v.color;
 808              		.loc 2 441 26 is_stmt 0 view .LVU289
 809 0284 44F25742 		movw	r2, #17495
 810 0288 2946     		mov	r1, r5
 811 028a 3046     		mov	r0, r6
 812 028c FFF7FEFF 		bl	lv_obj_get_style_prop
 813              	.LVL81:
 442:Middlewares/LVGL/GUI/lvgl/src/core/lv_obj_style_gen.h **** }
 814              		.loc 2 442 5 is_stmt 1 view .LVU290
 442:Middlewares/LVGL/GUI/lvgl/src/core/lv_obj_style_gen.h **** }
 815              		.loc 2 442 5 is_stmt 0 view .LVU291
 816              	.LBE213:
 817              	.LBE212:
 107:Middlewares/LVGL/GUI/lvgl/src/core/lv_obj_draw.c ****                 }
 818              		.loc 1 107 48 view .LVU292
 819 0290 2083     		strh	r0, [r4, #24]	@ movhi
 820 0292 07E7     		b	.L11
 821              	.LVL82:
 822              	.L22:
 119:Middlewares/LVGL/GUI/lvgl/src/core/lv_obj_draw.c ****         if(draw_dsc->shadow_width) {
 823              		.loc 1 119 9 is_stmt 1 view .LVU293
 824              	.LBB214:
 825              	.LBI214:
 289:Middlewares/LVGL/GUI/lvgl/src/core/lv_obj_style_gen.h **** {
 826              		.loc 2 289 26 view .LVU294
 827              	.LBB215:
 291:Middlewares/LVGL/GUI/lvgl/src/core/lv_obj_style_gen.h ****     return (lv_coord_t)v.num;
 828              		.loc 2 291 5 view .LVU295
 291:Middlewares/LVGL/GUI/lvgl/src/core/lv_obj_style_gen.h ****     return (lv_coord_t)v.num;
 829              		.loc 2 291 26 is_stmt 0 view .LVU296
 830 0294 4FF40462 		mov	r2, #2112
 831 0298 2946     		mov	r1, r5
 832 029a 3046     		mov	r0, r6
 833              	.LVL83:
 291:Middlewares/LVGL/GUI/lvgl/src/core/lv_obj_style_gen.h ****     return (lv_coord_t)v.num;
 834              		.loc 2 291 26 view .LVU297
 835 029c FFF7FEFF 		bl	lv_obj_get_style_prop
 836              	.LVL84:
 292:Middlewares/LVGL/GUI/lvgl/src/core/lv_obj_style_gen.h **** }
 837              		.loc 2 292 5 is_stmt 1 view .LVU298
 292:Middlewares/LVGL/GUI/lvgl/src/core/lv_obj_style_gen.h **** }
 838              		.loc 2 292 5 is_stmt 0 view .LVU299
 839              	.LBE215:
 840              	.LBE214:
ARM GAS  C:\Users\ADMINI~1\AppData\Local\Temp\cc386Zoq.s 			page 33


 119:Middlewares/LVGL/GUI/lvgl/src/core/lv_obj_draw.c ****         if(draw_dsc->shadow_width) {
 841              		.loc 1 119 32 view .LVU300
 842 02a0 6063     		str	r0, [r4, #52]
 120:Middlewares/LVGL/GUI/lvgl/src/core/lv_obj_draw.c ****             if(draw_dsc->shadow_opa > LV_OPA_MIN) {
 843              		.loc 1 120 9 is_stmt 1 view .LVU301
 120:Middlewares/LVGL/GUI/lvgl/src/core/lv_obj_draw.c ****             if(draw_dsc->shadow_opa > LV_OPA_MIN) {
 844              		.loc 1 120 11 is_stmt 0 view .LVU302
 845 02a2 0028     		cmp	r0, #0
 846 02a4 3FF403AF 		beq	.L13
 121:Middlewares/LVGL/GUI/lvgl/src/core/lv_obj_draw.c ****                 draw_dsc->shadow_opa = lv_obj_get_style_shadow_opa(obj, part);
 847              		.loc 1 121 13 is_stmt 1 view .LVU303
 121:Middlewares/LVGL/GUI/lvgl/src/core/lv_obj_draw.c ****                 draw_dsc->shadow_opa = lv_obj_get_style_shadow_opa(obj, part);
 848              		.loc 1 121 24 is_stmt 0 view .LVU304
 849 02a8 94F84430 		ldrb	r3, [r4, #68]	@ zero_extendqisi2
 121:Middlewares/LVGL/GUI/lvgl/src/core/lv_obj_draw.c ****                 draw_dsc->shadow_opa = lv_obj_get_style_shadow_opa(obj, part);
 850              		.loc 1 121 15 view .LVU305
 851 02ac 022B     		cmp	r3, #2
 852 02ae 7FF6FEAE 		bls	.L13
 122:Middlewares/LVGL/GUI/lvgl/src/core/lv_obj_draw.c ****                 if(draw_dsc->shadow_opa > LV_OPA_MIN) {
 853              		.loc 1 122 17 is_stmt 1 view .LVU306
 854              	.LVL85:
 855              	.LBB216:
 856              	.LBI216:
 325:Middlewares/LVGL/GUI/lvgl/src/core/lv_obj_style_gen.h **** {
 857              		.loc 2 325 24 view .LVU307
 858              	.LBB217:
 327:Middlewares/LVGL/GUI/lvgl/src/core/lv_obj_style_gen.h ****     return (lv_opa_t)v.num;
 859              		.loc 2 327 5 view .LVU308
 327:Middlewares/LVGL/GUI/lvgl/src/core/lv_obj_style_gen.h ****     return (lv_opa_t)v.num;
 860              		.loc 2 327 26 is_stmt 0 view .LVU309
 861 02b2 40F64502 		movw	r2, #2117
 862 02b6 2946     		mov	r1, r5
 863 02b8 3046     		mov	r0, r6
 864              	.LVL86:
 327:Middlewares/LVGL/GUI/lvgl/src/core/lv_obj_style_gen.h ****     return (lv_opa_t)v.num;
 865              		.loc 2 327 26 view .LVU310
 866 02ba FFF7FEFF 		bl	lv_obj_get_style_prop
 867              	.LVL87:
 328:Middlewares/LVGL/GUI/lvgl/src/core/lv_obj_style_gen.h **** }
 868              		.loc 2 328 5 is_stmt 1 view .LVU311
 328:Middlewares/LVGL/GUI/lvgl/src/core/lv_obj_style_gen.h **** }
 869              		.loc 2 328 12 is_stmt 0 view .LVU312
 870 02be C0B2     		uxtb	r0, r0
 871              	.LVL88:
 328:Middlewares/LVGL/GUI/lvgl/src/core/lv_obj_style_gen.h **** }
 872              		.loc 2 328 12 view .LVU313
 873              	.LBE217:
 874              	.LBE216:
 122:Middlewares/LVGL/GUI/lvgl/src/core/lv_obj_draw.c ****                 if(draw_dsc->shadow_opa > LV_OPA_MIN) {
 875              		.loc 1 122 38 view .LVU314
 876 02c0 84F84400 		strb	r0, [r4, #68]
 123:Middlewares/LVGL/GUI/lvgl/src/core/lv_obj_draw.c ****                     draw_dsc->shadow_ofs_x = lv_obj_get_style_shadow_ofs_x(obj, part);
 877              		.loc 1 123 17 is_stmt 1 view .LVU315
 123:Middlewares/LVGL/GUI/lvgl/src/core/lv_obj_draw.c ****                     draw_dsc->shadow_ofs_x = lv_obj_get_style_shadow_ofs_x(obj, part);
 878              		.loc 1 123 19 is_stmt 0 view .LVU316
 879 02c4 0228     		cmp	r0, #2
 880 02c6 7FF6F2AE 		bls	.L13
ARM GAS  C:\Users\ADMINI~1\AppData\Local\Temp\cc386Zoq.s 			page 34


 124:Middlewares/LVGL/GUI/lvgl/src/core/lv_obj_draw.c ****                     draw_dsc->shadow_ofs_y = lv_obj_get_style_shadow_ofs_y(obj, part);
 881              		.loc 1 124 21 is_stmt 1 view .LVU317
 882              	.LVL89:
 883              	.LBB218:
 884              	.LBI218:
 295:Middlewares/LVGL/GUI/lvgl/src/core/lv_obj_style_gen.h **** {
 885              		.loc 2 295 26 view .LVU318
 886              	.LBB219:
 297:Middlewares/LVGL/GUI/lvgl/src/core/lv_obj_style_gen.h ****     return (lv_coord_t)v.num;
 887              		.loc 2 297 5 view .LVU319
 297:Middlewares/LVGL/GUI/lvgl/src/core/lv_obj_style_gen.h ****     return (lv_coord_t)v.num;
 888              		.loc 2 297 26 is_stmt 0 view .LVU320
 889 02ca 40F64102 		movw	r2, #2113
 890 02ce 2946     		mov	r1, r5
 891 02d0 3046     		mov	r0, r6
 892 02d2 FFF7FEFF 		bl	lv_obj_get_style_prop
 893              	.LVL90:
 298:Middlewares/LVGL/GUI/lvgl/src/core/lv_obj_style_gen.h **** }
 894              		.loc 2 298 5 is_stmt 1 view .LVU321
 298:Middlewares/LVGL/GUI/lvgl/src/core/lv_obj_style_gen.h **** }
 895              		.loc 2 298 5 is_stmt 0 view .LVU322
 896              	.LBE219:
 897              	.LBE218:
 124:Middlewares/LVGL/GUI/lvgl/src/core/lv_obj_draw.c ****                     draw_dsc->shadow_ofs_y = lv_obj_get_style_shadow_ofs_y(obj, part);
 898              		.loc 1 124 44 view .LVU323
 899 02d6 A063     		str	r0, [r4, #56]
 125:Middlewares/LVGL/GUI/lvgl/src/core/lv_obj_draw.c ****                     draw_dsc->shadow_spread = lv_obj_get_style_shadow_spread(obj, part);
 900              		.loc 1 125 21 is_stmt 1 view .LVU324
 901              	.LVL91:
 902              	.LBB220:
 903              	.LBI220:
 301:Middlewares/LVGL/GUI/lvgl/src/core/lv_obj_style_gen.h **** {
 904              		.loc 2 301 26 view .LVU325
 905              	.LBB221:
 303:Middlewares/LVGL/GUI/lvgl/src/core/lv_obj_style_gen.h ****     return (lv_coord_t)v.num;
 906              		.loc 2 303 5 view .LVU326
 303:Middlewares/LVGL/GUI/lvgl/src/core/lv_obj_style_gen.h ****     return (lv_coord_t)v.num;
 907              		.loc 2 303 26 is_stmt 0 view .LVU327
 908 02d8 40F64202 		movw	r2, #2114
 909 02dc 2946     		mov	r1, r5
 910 02de 3046     		mov	r0, r6
 911 02e0 FFF7FEFF 		bl	lv_obj_get_style_prop
 912              	.LVL92:
 304:Middlewares/LVGL/GUI/lvgl/src/core/lv_obj_style_gen.h **** }
 913              		.loc 2 304 5 is_stmt 1 view .LVU328
 304:Middlewares/LVGL/GUI/lvgl/src/core/lv_obj_style_gen.h **** }
 914              		.loc 2 304 5 is_stmt 0 view .LVU329
 915              	.LBE221:
 916              	.LBE220:
 125:Middlewares/LVGL/GUI/lvgl/src/core/lv_obj_draw.c ****                     draw_dsc->shadow_spread = lv_obj_get_style_shadow_spread(obj, part);
 917              		.loc 1 125 44 view .LVU330
 918 02e4 E063     		str	r0, [r4, #60]
 126:Middlewares/LVGL/GUI/lvgl/src/core/lv_obj_draw.c ****                     draw_dsc->shadow_color = lv_obj_get_style_shadow_color_filtered(obj, part);
 919              		.loc 1 126 21 is_stmt 1 view .LVU331
 920              	.LVL93:
 921              	.LBB222:
 922              	.LBI222:
ARM GAS  C:\Users\ADMINI~1\AppData\Local\Temp\cc386Zoq.s 			page 35


 307:Middlewares/LVGL/GUI/lvgl/src/core/lv_obj_style_gen.h **** {
 923              		.loc 2 307 26 view .LVU332
 924              	.LBB223:
 309:Middlewares/LVGL/GUI/lvgl/src/core/lv_obj_style_gen.h ****     return (lv_coord_t)v.num;
 925              		.loc 2 309 5 view .LVU333
 309:Middlewares/LVGL/GUI/lvgl/src/core/lv_obj_style_gen.h ****     return (lv_coord_t)v.num;
 926              		.loc 2 309 26 is_stmt 0 view .LVU334
 927 02e6 40F64302 		movw	r2, #2115
 928 02ea 2946     		mov	r1, r5
 929 02ec 3046     		mov	r0, r6
 930 02ee FFF7FEFF 		bl	lv_obj_get_style_prop
 931              	.LVL94:
 310:Middlewares/LVGL/GUI/lvgl/src/core/lv_obj_style_gen.h **** }
 932              		.loc 2 310 5 is_stmt 1 view .LVU335
 310:Middlewares/LVGL/GUI/lvgl/src/core/lv_obj_style_gen.h **** }
 933              		.loc 2 310 5 is_stmt 0 view .LVU336
 934              	.LBE223:
 935              	.LBE222:
 126:Middlewares/LVGL/GUI/lvgl/src/core/lv_obj_draw.c ****                     draw_dsc->shadow_color = lv_obj_get_style_shadow_color_filtered(obj, part);
 936              		.loc 1 126 45 view .LVU337
 937 02f2 2064     		str	r0, [r4, #64]
 127:Middlewares/LVGL/GUI/lvgl/src/core/lv_obj_draw.c ****                 }
 938              		.loc 1 127 21 is_stmt 1 view .LVU338
 939              	.LVL95:
 940              	.LBB224:
 941              	.LBI224:
 319:Middlewares/LVGL/GUI/lvgl/src/core/lv_obj_style_gen.h **** {
 942              		.loc 2 319 26 view .LVU339
 943              	.LBB225:
 321:Middlewares/LVGL/GUI/lvgl/src/core/lv_obj_style_gen.h ****     return v.color;
 944              		.loc 2 321 5 view .LVU340
 321:Middlewares/LVGL/GUI/lvgl/src/core/lv_obj_style_gen.h ****     return v.color;
 945              		.loc 2 321 26 is_stmt 0 view .LVU341
 946 02f4 44F24402 		movw	r2, #16452
 947 02f8 2946     		mov	r1, r5
 948 02fa 3046     		mov	r0, r6
 949 02fc FFF7FEFF 		bl	lv_obj_get_style_prop
 950              	.LVL96:
 322:Middlewares/LVGL/GUI/lvgl/src/core/lv_obj_style_gen.h **** }
 951              		.loc 2 322 5 is_stmt 1 view .LVU342
 322:Middlewares/LVGL/GUI/lvgl/src/core/lv_obj_style_gen.h **** }
 952              		.loc 2 322 5 is_stmt 0 view .LVU343
 953              	.LBE225:
 954              	.LBE224:
 127:Middlewares/LVGL/GUI/lvgl/src/core/lv_obj_draw.c ****                 }
 955              		.loc 1 127 46 view .LVU344
 956 0300 6086     		strh	r0, [r4, #50]	@ movhi
 957 0302 D4E6     		b	.L13
 958              		.cfi_endproc
 959              	.LFE159:
 961              		.section	.text.lv_obj_init_draw_label_dsc,"ax",%progbits
 962              		.align	1
 963              		.global	lv_obj_init_draw_label_dsc
 964              		.syntax unified
 965              		.thumb
 966              		.thumb_func
 968              	lv_obj_init_draw_label_dsc:
ARM GAS  C:\Users\ADMINI~1\AppData\Local\Temp\cc386Zoq.s 			page 36


 969              	.LVL97:
 970              	.LFB160:
 193:Middlewares/LVGL/GUI/lvgl/src/core/lv_obj_draw.c **** 
 194:Middlewares/LVGL/GUI/lvgl/src/core/lv_obj_draw.c **** void lv_obj_init_draw_label_dsc(lv_obj_t * obj, uint32_t part, lv_draw_label_dsc_t * draw_dsc)
 195:Middlewares/LVGL/GUI/lvgl/src/core/lv_obj_draw.c **** {
 971              		.loc 1 195 1 is_stmt 1 view -0
 972              		.cfi_startproc
 973              		@ args = 0, pretend = 0, frame = 0
 974              		@ frame_needed = 0, uses_anonymous_args = 0
 975              		.loc 1 195 1 is_stmt 0 view .LVU346
 976 0000 70B5     		push	{r4, r5, r6, lr}
 977              	.LCFI1:
 978              		.cfi_def_cfa_offset 16
 979              		.cfi_offset 4, -16
 980              		.cfi_offset 5, -12
 981              		.cfi_offset 6, -8
 982              		.cfi_offset 14, -4
 983 0002 0546     		mov	r5, r0
 984 0004 0E46     		mov	r6, r1
 985 0006 1446     		mov	r4, r2
 196:Middlewares/LVGL/GUI/lvgl/src/core/lv_obj_draw.c ****     draw_dsc->opa = lv_obj_get_style_text_opa(obj, part);
 986              		.loc 1 196 5 is_stmt 1 view .LVU347
 987              	.LVL98:
 988              	.LBB226:
 989              	.LBI226:
 445:Middlewares/LVGL/GUI/lvgl/src/core/lv_obj_style_gen.h **** {
 990              		.loc 2 445 24 view .LVU348
 991              	.LBB227:
 447:Middlewares/LVGL/GUI/lvgl/src/core/lv_obj_style_gen.h ****     return (lv_opa_t)v.num;
 992              		.loc 2 447 5 view .LVU349
 447:Middlewares/LVGL/GUI/lvgl/src/core/lv_obj_style_gen.h ****     return (lv_opa_t)v.num;
 993              		.loc 2 447 26 is_stmt 0 view .LVU350
 994 0008 4FF48B62 		mov	r2, #1112
 995              	.LVL99:
 447:Middlewares/LVGL/GUI/lvgl/src/core/lv_obj_style_gen.h ****     return (lv_opa_t)v.num;
 996              		.loc 2 447 26 view .LVU351
 997 000c FFF7FEFF 		bl	lv_obj_get_style_prop
 998              	.LVL100:
 448:Middlewares/LVGL/GUI/lvgl/src/core/lv_obj_style_gen.h **** }
 999              		.loc 2 448 5 is_stmt 1 view .LVU352
 448:Middlewares/LVGL/GUI/lvgl/src/core/lv_obj_style_gen.h **** }
 1000              		.loc 2 448 12 is_stmt 0 view .LVU353
 1001 0010 C3B2     		uxtb	r3, r0
 1002              	.LVL101:
 448:Middlewares/LVGL/GUI/lvgl/src/core/lv_obj_style_gen.h **** }
 1003              		.loc 2 448 12 view .LVU354
 1004              	.LBE227:
 1005              	.LBE226:
 1006              		.loc 1 196 19 view .LVU355
 1007 0012 84F82430 		strb	r3, [r4, #36]
 197:Middlewares/LVGL/GUI/lvgl/src/core/lv_obj_draw.c ****     if(draw_dsc->opa <= LV_OPA_MIN) return;
 1008              		.loc 1 197 5 is_stmt 1 view .LVU356
 1009              		.loc 1 197 7 is_stmt 0 view .LVU357
 1010 0016 022B     		cmp	r3, #2
 1011 0018 00D8     		bhi	.L30
 1012              	.L26:
 198:Middlewares/LVGL/GUI/lvgl/src/core/lv_obj_draw.c **** 
ARM GAS  C:\Users\ADMINI~1\AppData\Local\Temp\cc386Zoq.s 			page 37


 199:Middlewares/LVGL/GUI/lvgl/src/core/lv_obj_draw.c ****     lv_opa_t opa = lv_obj_get_style_opa(obj, part);
 200:Middlewares/LVGL/GUI/lvgl/src/core/lv_obj_draw.c ****     if(opa < LV_OPA_MAX) {
 201:Middlewares/LVGL/GUI/lvgl/src/core/lv_obj_draw.c ****         draw_dsc->opa = (uint16_t)((uint16_t)draw_dsc->opa * opa) >> 8;
 202:Middlewares/LVGL/GUI/lvgl/src/core/lv_obj_draw.c ****     }
 203:Middlewares/LVGL/GUI/lvgl/src/core/lv_obj_draw.c ****     if(draw_dsc->opa <= LV_OPA_MIN) return;
 204:Middlewares/LVGL/GUI/lvgl/src/core/lv_obj_draw.c **** 
 205:Middlewares/LVGL/GUI/lvgl/src/core/lv_obj_draw.c ****     draw_dsc->color = lv_obj_get_style_text_color_filtered(obj, part);
 206:Middlewares/LVGL/GUI/lvgl/src/core/lv_obj_draw.c ****     draw_dsc->letter_space = lv_obj_get_style_text_letter_space(obj, part);
 207:Middlewares/LVGL/GUI/lvgl/src/core/lv_obj_draw.c ****     draw_dsc->line_space = lv_obj_get_style_text_line_space(obj, part);
 208:Middlewares/LVGL/GUI/lvgl/src/core/lv_obj_draw.c ****     draw_dsc->decor = lv_obj_get_style_text_decor(obj, part);
 209:Middlewares/LVGL/GUI/lvgl/src/core/lv_obj_draw.c **** #if LV_DRAW_COMPLEX
 210:Middlewares/LVGL/GUI/lvgl/src/core/lv_obj_draw.c ****     draw_dsc->blend_mode = lv_obj_get_style_blend_mode(obj, part);
 211:Middlewares/LVGL/GUI/lvgl/src/core/lv_obj_draw.c **** #endif
 212:Middlewares/LVGL/GUI/lvgl/src/core/lv_obj_draw.c **** 
 213:Middlewares/LVGL/GUI/lvgl/src/core/lv_obj_draw.c ****     draw_dsc->font = lv_obj_get_style_text_font(obj, part);
 214:Middlewares/LVGL/GUI/lvgl/src/core/lv_obj_draw.c **** 
 215:Middlewares/LVGL/GUI/lvgl/src/core/lv_obj_draw.c **** #if LV_USE_BIDI
 216:Middlewares/LVGL/GUI/lvgl/src/core/lv_obj_draw.c ****     draw_dsc->bidi_dir = lv_obj_get_style_base_dir(obj, LV_PART_MAIN);
 217:Middlewares/LVGL/GUI/lvgl/src/core/lv_obj_draw.c **** #endif
 218:Middlewares/LVGL/GUI/lvgl/src/core/lv_obj_draw.c **** 
 219:Middlewares/LVGL/GUI/lvgl/src/core/lv_obj_draw.c ****     draw_dsc->align = lv_obj_get_style_text_align(obj, part);
 220:Middlewares/LVGL/GUI/lvgl/src/core/lv_obj_draw.c **** }
 1013              		.loc 1 220 1 view .LVU358
 1014 001a 70BD     		pop	{r4, r5, r6, pc}
 1015              	.LVL102:
 1016              	.L30:
 199:Middlewares/LVGL/GUI/lvgl/src/core/lv_obj_draw.c ****     if(opa < LV_OPA_MAX) {
 1017              		.loc 1 199 5 is_stmt 1 view .LVU359
 1018              	.LBB228:
 1019              	.LBI228:
 493:Middlewares/LVGL/GUI/lvgl/src/core/lv_obj_style_gen.h **** {
 1020              		.loc 2 493 24 view .LVU360
 1021              	.LBB229:
 495:Middlewares/LVGL/GUI/lvgl/src/core/lv_obj_style_gen.h ****     return (lv_opa_t)v.num;
 1022              		.loc 2 495 5 view .LVU361
 495:Middlewares/LVGL/GUI/lvgl/src/core/lv_obj_style_gen.h ****     return (lv_opa_t)v.num;
 1023              		.loc 2 495 26 is_stmt 0 view .LVU362
 1024 001c 40F26242 		movw	r2, #1122
 1025 0020 3146     		mov	r1, r6
 1026 0022 2846     		mov	r0, r5
 1027 0024 FFF7FEFF 		bl	lv_obj_get_style_prop
 1028              	.LVL103:
 496:Middlewares/LVGL/GUI/lvgl/src/core/lv_obj_style_gen.h **** }
 1029              		.loc 2 496 5 is_stmt 1 view .LVU363
 496:Middlewares/LVGL/GUI/lvgl/src/core/lv_obj_style_gen.h **** }
 1030              		.loc 2 496 12 is_stmt 0 view .LVU364
 1031 0028 C3B2     		uxtb	r3, r0
 1032              	.LVL104:
 496:Middlewares/LVGL/GUI/lvgl/src/core/lv_obj_style_gen.h **** }
 1033              		.loc 2 496 12 view .LVU365
 1034              	.LBE229:
 1035              	.LBE228:
 200:Middlewares/LVGL/GUI/lvgl/src/core/lv_obj_draw.c ****         draw_dsc->opa = (uint16_t)((uint16_t)draw_dsc->opa * opa) >> 8;
 1036              		.loc 1 200 5 is_stmt 1 view .LVU366
 200:Middlewares/LVGL/GUI/lvgl/src/core/lv_obj_draw.c ****         draw_dsc->opa = (uint16_t)((uint16_t)draw_dsc->opa * opa) >> 8;
 1037              		.loc 1 200 7 is_stmt 0 view .LVU367
 1038 002a FC2B     		cmp	r3, #252
ARM GAS  C:\Users\ADMINI~1\AppData\Local\Temp\cc386Zoq.s 			page 38


 1039 002c 06D8     		bhi	.L28
 201:Middlewares/LVGL/GUI/lvgl/src/core/lv_obj_draw.c ****     }
 1040              		.loc 1 201 9 is_stmt 1 view .LVU368
 201:Middlewares/LVGL/GUI/lvgl/src/core/lv_obj_draw.c ****     }
 1041              		.loc 1 201 54 is_stmt 0 view .LVU369
 1042 002e 94F82400 		ldrb	r0, [r4, #36]	@ zero_extendqisi2
 201:Middlewares/LVGL/GUI/lvgl/src/core/lv_obj_draw.c ****     }
 1043              		.loc 1 201 25 view .LVU370
 1044 0032 00FB03F3 		mul	r3, r0, r3
 1045              	.LVL105:
 201:Middlewares/LVGL/GUI/lvgl/src/core/lv_obj_draw.c ****     }
 1046              		.loc 1 201 23 view .LVU371
 1047 0036 1B0A     		lsrs	r3, r3, #8
 1048 0038 84F82430 		strb	r3, [r4, #36]
 1049              	.L28:
 203:Middlewares/LVGL/GUI/lvgl/src/core/lv_obj_draw.c **** 
 1050              		.loc 1 203 5 is_stmt 1 view .LVU372
 203:Middlewares/LVGL/GUI/lvgl/src/core/lv_obj_draw.c **** 
 1051              		.loc 1 203 16 is_stmt 0 view .LVU373
 1052 003c 94F82430 		ldrb	r3, [r4, #36]	@ zero_extendqisi2
 203:Middlewares/LVGL/GUI/lvgl/src/core/lv_obj_draw.c **** 
 1053              		.loc 1 203 7 view .LVU374
 1054 0040 022B     		cmp	r3, #2
 1055 0042 EAD9     		bls	.L26
 205:Middlewares/LVGL/GUI/lvgl/src/core/lv_obj_draw.c ****     draw_dsc->letter_space = lv_obj_get_style_text_letter_space(obj, part);
 1056              		.loc 1 205 5 is_stmt 1 view .LVU375
 1057              	.LVL106:
 1058              	.LBB230:
 1059              	.LBI230:
 439:Middlewares/LVGL/GUI/lvgl/src/core/lv_obj_style_gen.h **** {
 1060              		.loc 2 439 26 view .LVU376
 1061              	.LBB231:
 441:Middlewares/LVGL/GUI/lvgl/src/core/lv_obj_style_gen.h ****     return v.color;
 1062              		.loc 2 441 5 view .LVU377
 441:Middlewares/LVGL/GUI/lvgl/src/core/lv_obj_style_gen.h ****     return v.color;
 1063              		.loc 2 441 26 is_stmt 0 view .LVU378
 1064 0044 44F25742 		movw	r2, #17495
 1065 0048 3146     		mov	r1, r6
 1066 004a 2846     		mov	r0, r5
 1067 004c FFF7FEFF 		bl	lv_obj_get_style_prop
 1068              	.LVL107:
 442:Middlewares/LVGL/GUI/lvgl/src/core/lv_obj_style_gen.h **** }
 1069              		.loc 2 442 5 is_stmt 1 view .LVU379
 442:Middlewares/LVGL/GUI/lvgl/src/core/lv_obj_style_gen.h **** }
 1070              		.loc 2 442 5 is_stmt 0 view .LVU380
 1071              	.LBE231:
 1072              	.LBE230:
 205:Middlewares/LVGL/GUI/lvgl/src/core/lv_obj_draw.c ****     draw_dsc->letter_space = lv_obj_get_style_text_letter_space(obj, part);
 1073              		.loc 1 205 23 view .LVU381
 1074 0050 A081     		strh	r0, [r4, #12]	@ movhi
 206:Middlewares/LVGL/GUI/lvgl/src/core/lv_obj_draw.c ****     draw_dsc->line_space = lv_obj_get_style_text_line_space(obj, part);
 1075              		.loc 1 206 5 is_stmt 1 view .LVU382
 1076              	.LVL108:
 1077              	.LBB232:
 1078              	.LBI232:
 457:Middlewares/LVGL/GUI/lvgl/src/core/lv_obj_style_gen.h **** {
 1079              		.loc 2 457 26 view .LVU383
ARM GAS  C:\Users\ADMINI~1\AppData\Local\Temp\cc386Zoq.s 			page 39


 1080              	.LBB233:
 459:Middlewares/LVGL/GUI/lvgl/src/core/lv_obj_style_gen.h ****     return (lv_coord_t)v.num;
 1081              		.loc 2 459 5 view .LVU384
 459:Middlewares/LVGL/GUI/lvgl/src/core/lv_obj_style_gen.h ****     return (lv_coord_t)v.num;
 1082              		.loc 2 459 26 is_stmt 0 view .LVU385
 1083 0052 41F25A42 		movw	r2, #5210
 1084 0056 3146     		mov	r1, r6
 1085 0058 2846     		mov	r0, r5
 1086 005a FFF7FEFF 		bl	lv_obj_get_style_prop
 1087              	.LVL109:
 460:Middlewares/LVGL/GUI/lvgl/src/core/lv_obj_style_gen.h **** }
 1088              		.loc 2 460 5 is_stmt 1 view .LVU386
 460:Middlewares/LVGL/GUI/lvgl/src/core/lv_obj_style_gen.h **** }
 1089              		.loc 2 460 5 is_stmt 0 view .LVU387
 1090              	.LBE233:
 1091              	.LBE232:
 206:Middlewares/LVGL/GUI/lvgl/src/core/lv_obj_draw.c ****     draw_dsc->line_space = lv_obj_get_style_text_line_space(obj, part);
 1092              		.loc 1 206 28 view .LVU388
 1093 005e A061     		str	r0, [r4, #24]
 207:Middlewares/LVGL/GUI/lvgl/src/core/lv_obj_draw.c ****     draw_dsc->decor = lv_obj_get_style_text_decor(obj, part);
 1094              		.loc 1 207 5 is_stmt 1 view .LVU389
 1095              	.LVL110:
 1096              	.LBB234:
 1097              	.LBI234:
 463:Middlewares/LVGL/GUI/lvgl/src/core/lv_obj_style_gen.h **** {
 1098              		.loc 2 463 26 view .LVU390
 1099              	.LBB235:
 465:Middlewares/LVGL/GUI/lvgl/src/core/lv_obj_style_gen.h ****     return (lv_coord_t)v.num;
 1100              		.loc 2 465 5 view .LVU391
 465:Middlewares/LVGL/GUI/lvgl/src/core/lv_obj_style_gen.h ****     return (lv_coord_t)v.num;
 1101              		.loc 2 465 26 is_stmt 0 view .LVU392
 1102 0060 41F25B42 		movw	r2, #5211
 1103 0064 3146     		mov	r1, r6
 1104 0066 2846     		mov	r0, r5
 1105 0068 FFF7FEFF 		bl	lv_obj_get_style_prop
 1106              	.LVL111:
 466:Middlewares/LVGL/GUI/lvgl/src/core/lv_obj_style_gen.h **** }
 1107              		.loc 2 466 5 is_stmt 1 view .LVU393
 466:Middlewares/LVGL/GUI/lvgl/src/core/lv_obj_style_gen.h **** }
 1108              		.loc 2 466 5 is_stmt 0 view .LVU394
 1109              	.LBE235:
 1110              	.LBE234:
 207:Middlewares/LVGL/GUI/lvgl/src/core/lv_obj_draw.c ****     draw_dsc->decor = lv_obj_get_style_text_decor(obj, part);
 1111              		.loc 1 207 26 view .LVU395
 1112 006c 6061     		str	r0, [r4, #20]
 208:Middlewares/LVGL/GUI/lvgl/src/core/lv_obj_draw.c **** #if LV_DRAW_COMPLEX
 1113              		.loc 1 208 5 is_stmt 1 view .LVU396
 1114              	.LVL112:
 1115              	.LBB236:
 1116              	.LBI236:
 469:Middlewares/LVGL/GUI/lvgl/src/core/lv_obj_style_gen.h **** {
 1117              		.loc 2 469 31 view .LVU397
 1118              	.LBB237:
 471:Middlewares/LVGL/GUI/lvgl/src/core/lv_obj_style_gen.h ****     return (lv_text_decor_t)v.num;
 1119              		.loc 2 471 5 view .LVU398
 471:Middlewares/LVGL/GUI/lvgl/src/core/lv_obj_style_gen.h ****     return (lv_text_decor_t)v.num;
 1120              		.loc 2 471 26 is_stmt 0 view .LVU399
ARM GAS  C:\Users\ADMINI~1\AppData\Local\Temp\cc386Zoq.s 			page 40


 1121 006e 40F25C42 		movw	r2, #1116
 1122 0072 3146     		mov	r1, r6
 1123 0074 2846     		mov	r0, r5
 1124 0076 FFF7FEFF 		bl	lv_obj_get_style_prop
 1125              	.LVL113:
 472:Middlewares/LVGL/GUI/lvgl/src/core/lv_obj_style_gen.h **** }
 1126              		.loc 2 472 5 is_stmt 1 view .LVU400
 472:Middlewares/LVGL/GUI/lvgl/src/core/lv_obj_style_gen.h **** }
 1127              		.loc 2 472 5 is_stmt 0 view .LVU401
 1128              	.LBE237:
 1129              	.LBE236:
 208:Middlewares/LVGL/GUI/lvgl/src/core/lv_obj_draw.c **** #if LV_DRAW_COMPLEX
 1130              		.loc 1 208 21 view .LVU402
 1131 007a 94F82830 		ldrb	r3, [r4, #40]	@ zero_extendqisi2
 1132 007e 60F30203 		bfi	r3, r0, #0, #3
 1133 0082 84F82830 		strb	r3, [r4, #40]
 210:Middlewares/LVGL/GUI/lvgl/src/core/lv_obj_draw.c **** #endif
 1134              		.loc 1 210 5 is_stmt 1 view .LVU403
 1135              	.LVL114:
 1136              	.LBB238:
 1137              	.LBI238:
 530:Middlewares/LVGL/GUI/lvgl/src/core/lv_obj_style_gen.h **** {
 1138              		.loc 2 530 31 view .LVU404
 1139              	.LBB239:
 532:Middlewares/LVGL/GUI/lvgl/src/core/lv_obj_style_gen.h ****     return (lv_blend_mode_t)v.num;
 1140              		.loc 2 532 5 view .LVU405
 532:Middlewares/LVGL/GUI/lvgl/src/core/lv_obj_style_gen.h ****     return (lv_blend_mode_t)v.num;
 1141              		.loc 2 532 26 is_stmt 0 view .LVU406
 1142 0086 6822     		movs	r2, #104
 1143 0088 3146     		mov	r1, r6
 1144 008a 2846     		mov	r0, r5
 1145 008c FFF7FEFF 		bl	lv_obj_get_style_prop
 1146              	.LVL115:
 1147              		.loc 2 533 5 is_stmt 1 view .LVU407
 1148              		.loc 2 533 5 is_stmt 0 view .LVU408
 1149              	.LBE239:
 1150              	.LBE238:
 210:Middlewares/LVGL/GUI/lvgl/src/core/lv_obj_draw.c **** #endif
 1151              		.loc 1 210 26 view .LVU409
 1152 0090 94F82830 		ldrb	r3, [r4, #40]	@ zero_extendqisi2
 1153 0094 60F3C503 		bfi	r3, r0, #3, #3
 1154 0098 84F82830 		strb	r3, [r4, #40]
 213:Middlewares/LVGL/GUI/lvgl/src/core/lv_obj_draw.c **** 
 1155              		.loc 1 213 5 is_stmt 1 view .LVU410
 1156              	.LVL116:
 1157              	.LBB240:
 1158              	.LBI240:
 451:Middlewares/LVGL/GUI/lvgl/src/core/lv_obj_style_gen.h **** {
 1159              		.loc 2 451 33 view .LVU411
 1160              	.LBB241:
 453:Middlewares/LVGL/GUI/lvgl/src/core/lv_obj_style_gen.h ****     return (const lv_font_t *)v.ptr;
 1161              		.loc 2 453 5 view .LVU412
 453:Middlewares/LVGL/GUI/lvgl/src/core/lv_obj_style_gen.h ****     return (const lv_font_t *)v.ptr;
 1162              		.loc 2 453 26 is_stmt 0 view .LVU413
 1163 009c 41F25942 		movw	r2, #5209
 1164 00a0 3146     		mov	r1, r6
 1165 00a2 2846     		mov	r0, r5
ARM GAS  C:\Users\ADMINI~1\AppData\Local\Temp\cc386Zoq.s 			page 41


 1166 00a4 FFF7FEFF 		bl	lv_obj_get_style_prop
 1167              	.LVL117:
 454:Middlewares/LVGL/GUI/lvgl/src/core/lv_obj_style_gen.h **** }
 1168              		.loc 2 454 5 is_stmt 1 view .LVU414
 454:Middlewares/LVGL/GUI/lvgl/src/core/lv_obj_style_gen.h **** }
 1169              		.loc 2 454 5 is_stmt 0 view .LVU415
 1170              	.LBE241:
 1171              	.LBE240:
 213:Middlewares/LVGL/GUI/lvgl/src/core/lv_obj_draw.c **** 
 1172              		.loc 1 213 20 view .LVU416
 1173 00a8 2060     		str	r0, [r4]
 219:Middlewares/LVGL/GUI/lvgl/src/core/lv_obj_draw.c **** }
 1174              		.loc 1 219 5 is_stmt 1 view .LVU417
 1175              	.LVL118:
 1176              	.LBB242:
 1177              	.LBI242:
 475:Middlewares/LVGL/GUI/lvgl/src/core/lv_obj_style_gen.h **** {
 1178              		.loc 2 475 31 view .LVU418
 1179              	.LBB243:
 477:Middlewares/LVGL/GUI/lvgl/src/core/lv_obj_style_gen.h ****     return (lv_text_align_t)v.num;
 1180              		.loc 2 477 5 view .LVU419
 477:Middlewares/LVGL/GUI/lvgl/src/core/lv_obj_style_gen.h ****     return (lv_text_align_t)v.num;
 1181              		.loc 2 477 26 is_stmt 0 view .LVU420
 1182 00aa 41F25D42 		movw	r2, #5213
 1183 00ae 3146     		mov	r1, r6
 1184 00b0 2846     		mov	r0, r5
 1185 00b2 FFF7FEFF 		bl	lv_obj_get_style_prop
 1186              	.LVL119:
 478:Middlewares/LVGL/GUI/lvgl/src/core/lv_obj_style_gen.h **** }
 1187              		.loc 2 478 5 is_stmt 1 view .LVU421
 478:Middlewares/LVGL/GUI/lvgl/src/core/lv_obj_style_gen.h **** }
 1188              		.loc 2 478 5 is_stmt 0 view .LVU422
 1189              	.LBE243:
 1190              	.LBE242:
 219:Middlewares/LVGL/GUI/lvgl/src/core/lv_obj_draw.c **** }
 1191              		.loc 1 219 21 view .LVU423
 1192 00b6 84F82600 		strb	r0, [r4, #38]
 1193 00ba AEE7     		b	.L26
 1194              		.cfi_endproc
 1195              	.LFE160:
 1197              		.section	.text.lv_obj_init_draw_img_dsc,"ax",%progbits
 1198              		.align	1
 1199              		.global	lv_obj_init_draw_img_dsc
 1200              		.syntax unified
 1201              		.thumb
 1202              		.thumb_func
 1204              	lv_obj_init_draw_img_dsc:
 1205              	.LVL120:
 1206              	.LFB161:
 221:Middlewares/LVGL/GUI/lvgl/src/core/lv_obj_draw.c **** 
 222:Middlewares/LVGL/GUI/lvgl/src/core/lv_obj_draw.c **** void lv_obj_init_draw_img_dsc(lv_obj_t * obj, uint32_t part, lv_draw_img_dsc_t * draw_dsc)
 223:Middlewares/LVGL/GUI/lvgl/src/core/lv_obj_draw.c **** {
 1207              		.loc 1 223 1 is_stmt 1 view -0
 1208              		.cfi_startproc
 1209              		@ args = 0, pretend = 0, frame = 0
 1210              		@ frame_needed = 0, uses_anonymous_args = 0
 1211              		.loc 1 223 1 is_stmt 0 view .LVU425
ARM GAS  C:\Users\ADMINI~1\AppData\Local\Temp\cc386Zoq.s 			page 42


 1212 0000 70B5     		push	{r4, r5, r6, lr}
 1213              	.LCFI2:
 1214              		.cfi_def_cfa_offset 16
 1215              		.cfi_offset 4, -16
 1216              		.cfi_offset 5, -12
 1217              		.cfi_offset 6, -8
 1218              		.cfi_offset 14, -4
 1219 0002 0546     		mov	r5, r0
 1220 0004 0E46     		mov	r6, r1
 1221 0006 1446     		mov	r4, r2
 224:Middlewares/LVGL/GUI/lvgl/src/core/lv_obj_draw.c ****     draw_dsc->opa = lv_obj_get_style_img_opa(obj, part);
 1222              		.loc 1 224 5 is_stmt 1 view .LVU426
 1223              	.LVL121:
 1224              	.LBB244:
 1225              	.LBI244:
 331:Middlewares/LVGL/GUI/lvgl/src/core/lv_obj_style_gen.h **** {
 1226              		.loc 2 331 24 view .LVU427
 1227              	.LBB245:
 333:Middlewares/LVGL/GUI/lvgl/src/core/lv_obj_style_gen.h ****     return (lv_opa_t)v.num;
 1228              		.loc 2 333 5 view .LVU428
 333:Middlewares/LVGL/GUI/lvgl/src/core/lv_obj_style_gen.h ****     return (lv_opa_t)v.num;
 1229              		.loc 2 333 26 is_stmt 0 view .LVU429
 1230 0008 4622     		movs	r2, #70
 1231              	.LVL122:
 333:Middlewares/LVGL/GUI/lvgl/src/core/lv_obj_style_gen.h ****     return (lv_opa_t)v.num;
 1232              		.loc 2 333 26 view .LVU430
 1233 000a FFF7FEFF 		bl	lv_obj_get_style_prop
 1234              	.LVL123:
 334:Middlewares/LVGL/GUI/lvgl/src/core/lv_obj_style_gen.h **** }
 1235              		.loc 2 334 5 is_stmt 1 view .LVU431
 334:Middlewares/LVGL/GUI/lvgl/src/core/lv_obj_style_gen.h **** }
 1236              		.loc 2 334 12 is_stmt 0 view .LVU432
 1237 000e C3B2     		uxtb	r3, r0
 1238              	.LVL124:
 334:Middlewares/LVGL/GUI/lvgl/src/core/lv_obj_style_gen.h **** }
 1239              		.loc 2 334 12 view .LVU433
 1240              	.LBE245:
 1241              	.LBE244:
 1242              		.loc 1 224 19 view .LVU434
 1243 0010 E373     		strb	r3, [r4, #15]
 225:Middlewares/LVGL/GUI/lvgl/src/core/lv_obj_draw.c ****     if(draw_dsc->opa <= LV_OPA_MIN)  return;
 1244              		.loc 1 225 5 is_stmt 1 view .LVU435
 1245              		.loc 1 225 7 is_stmt 0 view .LVU436
 1246 0012 022B     		cmp	r3, #2
 1247 0014 00D8     		bhi	.L36
 1248              	.L31:
 226:Middlewares/LVGL/GUI/lvgl/src/core/lv_obj_draw.c **** 
 227:Middlewares/LVGL/GUI/lvgl/src/core/lv_obj_draw.c ****     lv_opa_t opa_scale = lv_obj_get_style_opa(obj, part);
 228:Middlewares/LVGL/GUI/lvgl/src/core/lv_obj_draw.c ****     if(opa_scale < LV_OPA_MAX) {
 229:Middlewares/LVGL/GUI/lvgl/src/core/lv_obj_draw.c ****         draw_dsc->opa = (uint16_t)((uint16_t)draw_dsc->opa * opa_scale) >> 8;
 230:Middlewares/LVGL/GUI/lvgl/src/core/lv_obj_draw.c ****     }
 231:Middlewares/LVGL/GUI/lvgl/src/core/lv_obj_draw.c ****     if(draw_dsc->opa <= LV_OPA_MIN)  return;
 232:Middlewares/LVGL/GUI/lvgl/src/core/lv_obj_draw.c **** 
 233:Middlewares/LVGL/GUI/lvgl/src/core/lv_obj_draw.c ****     draw_dsc->angle = 0;
 234:Middlewares/LVGL/GUI/lvgl/src/core/lv_obj_draw.c ****     draw_dsc->zoom = LV_IMG_ZOOM_NONE;
 235:Middlewares/LVGL/GUI/lvgl/src/core/lv_obj_draw.c ****     draw_dsc->pivot.x = lv_area_get_width(&obj->coords) / 2;
 236:Middlewares/LVGL/GUI/lvgl/src/core/lv_obj_draw.c ****     draw_dsc->pivot.y = lv_area_get_height(&obj->coords) / 2;
ARM GAS  C:\Users\ADMINI~1\AppData\Local\Temp\cc386Zoq.s 			page 43


 237:Middlewares/LVGL/GUI/lvgl/src/core/lv_obj_draw.c **** 
 238:Middlewares/LVGL/GUI/lvgl/src/core/lv_obj_draw.c ****     draw_dsc->recolor_opa = lv_obj_get_style_img_recolor_opa(obj, part);
 239:Middlewares/LVGL/GUI/lvgl/src/core/lv_obj_draw.c ****     if(draw_dsc->recolor_opa > 0) {
 240:Middlewares/LVGL/GUI/lvgl/src/core/lv_obj_draw.c ****         draw_dsc->recolor = lv_obj_get_style_img_recolor_filtered(obj, part);
 241:Middlewares/LVGL/GUI/lvgl/src/core/lv_obj_draw.c ****     }
 242:Middlewares/LVGL/GUI/lvgl/src/core/lv_obj_draw.c **** #if LV_DRAW_COMPLEX
 243:Middlewares/LVGL/GUI/lvgl/src/core/lv_obj_draw.c ****     draw_dsc->blend_mode = lv_obj_get_style_blend_mode(obj, part);
 244:Middlewares/LVGL/GUI/lvgl/src/core/lv_obj_draw.c **** #endif
 245:Middlewares/LVGL/GUI/lvgl/src/core/lv_obj_draw.c **** }
 1249              		.loc 1 245 1 view .LVU437
 1250 0016 70BD     		pop	{r4, r5, r6, pc}
 1251              	.LVL125:
 1252              	.L36:
 227:Middlewares/LVGL/GUI/lvgl/src/core/lv_obj_draw.c ****     if(opa_scale < LV_OPA_MAX) {
 1253              		.loc 1 227 5 is_stmt 1 view .LVU438
 1254              	.LBB246:
 1255              	.LBI246:
 493:Middlewares/LVGL/GUI/lvgl/src/core/lv_obj_style_gen.h **** {
 1256              		.loc 2 493 24 view .LVU439
 1257              	.LBB247:
 495:Middlewares/LVGL/GUI/lvgl/src/core/lv_obj_style_gen.h ****     return (lv_opa_t)v.num;
 1258              		.loc 2 495 5 view .LVU440
 495:Middlewares/LVGL/GUI/lvgl/src/core/lv_obj_style_gen.h ****     return (lv_opa_t)v.num;
 1259              		.loc 2 495 26 is_stmt 0 view .LVU441
 1260 0018 40F26242 		movw	r2, #1122
 1261 001c 3146     		mov	r1, r6
 1262 001e 2846     		mov	r0, r5
 1263 0020 FFF7FEFF 		bl	lv_obj_get_style_prop
 1264              	.LVL126:
 496:Middlewares/LVGL/GUI/lvgl/src/core/lv_obj_style_gen.h **** }
 1265              		.loc 2 496 5 is_stmt 1 view .LVU442
 496:Middlewares/LVGL/GUI/lvgl/src/core/lv_obj_style_gen.h **** }
 1266              		.loc 2 496 12 is_stmt 0 view .LVU443
 1267 0024 C0B2     		uxtb	r0, r0
 1268              	.LVL127:
 496:Middlewares/LVGL/GUI/lvgl/src/core/lv_obj_style_gen.h **** }
 1269              		.loc 2 496 12 view .LVU444
 1270              	.LBE247:
 1271              	.LBE246:
 228:Middlewares/LVGL/GUI/lvgl/src/core/lv_obj_draw.c ****         draw_dsc->opa = (uint16_t)((uint16_t)draw_dsc->opa * opa_scale) >> 8;
 1272              		.loc 1 228 5 is_stmt 1 view .LVU445
 228:Middlewares/LVGL/GUI/lvgl/src/core/lv_obj_draw.c ****         draw_dsc->opa = (uint16_t)((uint16_t)draw_dsc->opa * opa_scale) >> 8;
 1273              		.loc 1 228 7 is_stmt 0 view .LVU446
 1274 0026 FC28     		cmp	r0, #252
 1275 0028 04D8     		bhi	.L33
 229:Middlewares/LVGL/GUI/lvgl/src/core/lv_obj_draw.c ****     }
 1276              		.loc 1 229 9 is_stmt 1 view .LVU447
 229:Middlewares/LVGL/GUI/lvgl/src/core/lv_obj_draw.c ****     }
 1277              		.loc 1 229 54 is_stmt 0 view .LVU448
 1278 002a E37B     		ldrb	r3, [r4, #15]	@ zero_extendqisi2
 229:Middlewares/LVGL/GUI/lvgl/src/core/lv_obj_draw.c ****     }
 1279              		.loc 1 229 25 view .LVU449
 1280 002c 03FB00F0 		mul	r0, r3, r0
 1281              	.LVL128:
 229:Middlewares/LVGL/GUI/lvgl/src/core/lv_obj_draw.c ****     }
 1282              		.loc 1 229 23 view .LVU450
 1283 0030 000A     		lsrs	r0, r0, #8
ARM GAS  C:\Users\ADMINI~1\AppData\Local\Temp\cc386Zoq.s 			page 44


 1284 0032 E073     		strb	r0, [r4, #15]
 1285              	.L33:
 231:Middlewares/LVGL/GUI/lvgl/src/core/lv_obj_draw.c **** 
 1286              		.loc 1 231 5 is_stmt 1 view .LVU451
 231:Middlewares/LVGL/GUI/lvgl/src/core/lv_obj_draw.c **** 
 1287              		.loc 1 231 16 is_stmt 0 view .LVU452
 1288 0034 E37B     		ldrb	r3, [r4, #15]	@ zero_extendqisi2
 231:Middlewares/LVGL/GUI/lvgl/src/core/lv_obj_draw.c **** 
 1289              		.loc 1 231 7 view .LVU453
 1290 0036 022B     		cmp	r3, #2
 1291 0038 EDD9     		bls	.L31
 233:Middlewares/LVGL/GUI/lvgl/src/core/lv_obj_draw.c ****     draw_dsc->zoom = LV_IMG_ZOOM_NONE;
 1292              		.loc 1 233 5 is_stmt 1 view .LVU454
 233:Middlewares/LVGL/GUI/lvgl/src/core/lv_obj_draw.c ****     draw_dsc->zoom = LV_IMG_ZOOM_NONE;
 1293              		.loc 1 233 21 is_stmt 0 view .LVU455
 1294 003a 0023     		movs	r3, #0
 1295 003c 2380     		strh	r3, [r4]	@ movhi
 234:Middlewares/LVGL/GUI/lvgl/src/core/lv_obj_draw.c ****     draw_dsc->pivot.x = lv_area_get_width(&obj->coords) / 2;
 1296              		.loc 1 234 5 is_stmt 1 view .LVU456
 234:Middlewares/LVGL/GUI/lvgl/src/core/lv_obj_draw.c ****     draw_dsc->pivot.x = lv_area_get_width(&obj->coords) / 2;
 1297              		.loc 1 234 20 is_stmt 0 view .LVU457
 1298 003e 4FF48073 		mov	r3, #256
 1299 0042 6380     		strh	r3, [r4, #2]	@ movhi
 235:Middlewares/LVGL/GUI/lvgl/src/core/lv_obj_draw.c ****     draw_dsc->pivot.y = lv_area_get_height(&obj->coords) / 2;
 1300              		.loc 1 235 5 is_stmt 1 view .LVU458
 1301              	.LVL129:
 1302              	.LBB248:
 1303              	.LBI248:
 1304              		.file 3 "Middlewares/LVGL/GUI/lvgl/src/core/../draw/../misc/../font/../misc/lv_area.h"
   1:Middlewares/LVGL/GUI/lvgl/src/core/../draw/../misc/../font/../misc/lv_area.h **** /**
   2:Middlewares/LVGL/GUI/lvgl/src/core/../draw/../misc/../font/../misc/lv_area.h ****  * @file lv_area.h
   3:Middlewares/LVGL/GUI/lvgl/src/core/../draw/../misc/../font/../misc/lv_area.h ****  *
   4:Middlewares/LVGL/GUI/lvgl/src/core/../draw/../misc/../font/../misc/lv_area.h ****  */
   5:Middlewares/LVGL/GUI/lvgl/src/core/../draw/../misc/../font/../misc/lv_area.h **** 
   6:Middlewares/LVGL/GUI/lvgl/src/core/../draw/../misc/../font/../misc/lv_area.h **** #ifndef LV_AREA_H
   7:Middlewares/LVGL/GUI/lvgl/src/core/../draw/../misc/../font/../misc/lv_area.h **** #define LV_AREA_H
   8:Middlewares/LVGL/GUI/lvgl/src/core/../draw/../misc/../font/../misc/lv_area.h **** 
   9:Middlewares/LVGL/GUI/lvgl/src/core/../draw/../misc/../font/../misc/lv_area.h **** #ifdef __cplusplus
  10:Middlewares/LVGL/GUI/lvgl/src/core/../draw/../misc/../font/../misc/lv_area.h **** extern "C" {
  11:Middlewares/LVGL/GUI/lvgl/src/core/../draw/../misc/../font/../misc/lv_area.h **** #endif
  12:Middlewares/LVGL/GUI/lvgl/src/core/../draw/../misc/../font/../misc/lv_area.h **** 
  13:Middlewares/LVGL/GUI/lvgl/src/core/../draw/../misc/../font/../misc/lv_area.h **** /*********************
  14:Middlewares/LVGL/GUI/lvgl/src/core/../draw/../misc/../font/../misc/lv_area.h ****  *      INCLUDES
  15:Middlewares/LVGL/GUI/lvgl/src/core/../draw/../misc/../font/../misc/lv_area.h ****  *********************/
  16:Middlewares/LVGL/GUI/lvgl/src/core/../draw/../misc/../font/../misc/lv_area.h **** #include "../lv_conf_internal.h"
  17:Middlewares/LVGL/GUI/lvgl/src/core/../draw/../misc/../font/../misc/lv_area.h **** #include <stdbool.h>
  18:Middlewares/LVGL/GUI/lvgl/src/core/../draw/../misc/../font/../misc/lv_area.h **** #include <stdint.h>
  19:Middlewares/LVGL/GUI/lvgl/src/core/../draw/../misc/../font/../misc/lv_area.h **** 
  20:Middlewares/LVGL/GUI/lvgl/src/core/../draw/../misc/../font/../misc/lv_area.h **** /*********************
  21:Middlewares/LVGL/GUI/lvgl/src/core/../draw/../misc/../font/../misc/lv_area.h ****  *      DEFINES
  22:Middlewares/LVGL/GUI/lvgl/src/core/../draw/../misc/../font/../misc/lv_area.h ****  *********************/
  23:Middlewares/LVGL/GUI/lvgl/src/core/../draw/../misc/../font/../misc/lv_area.h **** 
  24:Middlewares/LVGL/GUI/lvgl/src/core/../draw/../misc/../font/../misc/lv_area.h **** #if LV_USE_LARGE_COORD
  25:Middlewares/LVGL/GUI/lvgl/src/core/../draw/../misc/../font/../misc/lv_area.h **** typedef int32_t lv_coord_t;
  26:Middlewares/LVGL/GUI/lvgl/src/core/../draw/../misc/../font/../misc/lv_area.h **** #else
  27:Middlewares/LVGL/GUI/lvgl/src/core/../draw/../misc/../font/../misc/lv_area.h **** typedef int16_t lv_coord_t;
  28:Middlewares/LVGL/GUI/lvgl/src/core/../draw/../misc/../font/../misc/lv_area.h **** #endif
ARM GAS  C:\Users\ADMINI~1\AppData\Local\Temp\cc386Zoq.s 			page 45


  29:Middlewares/LVGL/GUI/lvgl/src/core/../draw/../misc/../font/../misc/lv_area.h **** 
  30:Middlewares/LVGL/GUI/lvgl/src/core/../draw/../misc/../font/../misc/lv_area.h **** /**********************
  31:Middlewares/LVGL/GUI/lvgl/src/core/../draw/../misc/../font/../misc/lv_area.h ****  *      TYPEDEFS
  32:Middlewares/LVGL/GUI/lvgl/src/core/../draw/../misc/../font/../misc/lv_area.h ****  **********************/
  33:Middlewares/LVGL/GUI/lvgl/src/core/../draw/../misc/../font/../misc/lv_area.h **** 
  34:Middlewares/LVGL/GUI/lvgl/src/core/../draw/../misc/../font/../misc/lv_area.h **** /**
  35:Middlewares/LVGL/GUI/lvgl/src/core/../draw/../misc/../font/../misc/lv_area.h ****  * Represents a point on the screen.
  36:Middlewares/LVGL/GUI/lvgl/src/core/../draw/../misc/../font/../misc/lv_area.h ****  */
  37:Middlewares/LVGL/GUI/lvgl/src/core/../draw/../misc/../font/../misc/lv_area.h **** typedef struct {
  38:Middlewares/LVGL/GUI/lvgl/src/core/../draw/../misc/../font/../misc/lv_area.h ****     lv_coord_t x;
  39:Middlewares/LVGL/GUI/lvgl/src/core/../draw/../misc/../font/../misc/lv_area.h ****     lv_coord_t y;
  40:Middlewares/LVGL/GUI/lvgl/src/core/../draw/../misc/../font/../misc/lv_area.h **** } lv_point_t;
  41:Middlewares/LVGL/GUI/lvgl/src/core/../draw/../misc/../font/../misc/lv_area.h **** 
  42:Middlewares/LVGL/GUI/lvgl/src/core/../draw/../misc/../font/../misc/lv_area.h **** /** Represents an area of the screen.*/
  43:Middlewares/LVGL/GUI/lvgl/src/core/../draw/../misc/../font/../misc/lv_area.h **** typedef struct {
  44:Middlewares/LVGL/GUI/lvgl/src/core/../draw/../misc/../font/../misc/lv_area.h ****     lv_coord_t x1;
  45:Middlewares/LVGL/GUI/lvgl/src/core/../draw/../misc/../font/../misc/lv_area.h ****     lv_coord_t y1;
  46:Middlewares/LVGL/GUI/lvgl/src/core/../draw/../misc/../font/../misc/lv_area.h ****     lv_coord_t x2;
  47:Middlewares/LVGL/GUI/lvgl/src/core/../draw/../misc/../font/../misc/lv_area.h ****     lv_coord_t y2;
  48:Middlewares/LVGL/GUI/lvgl/src/core/../draw/../misc/../font/../misc/lv_area.h **** } lv_area_t;
  49:Middlewares/LVGL/GUI/lvgl/src/core/../draw/../misc/../font/../misc/lv_area.h **** 
  50:Middlewares/LVGL/GUI/lvgl/src/core/../draw/../misc/../font/../misc/lv_area.h **** /** Alignments*/
  51:Middlewares/LVGL/GUI/lvgl/src/core/../draw/../misc/../font/../misc/lv_area.h **** enum {
  52:Middlewares/LVGL/GUI/lvgl/src/core/../draw/../misc/../font/../misc/lv_area.h ****     LV_ALIGN_DEFAULT = 0,
  53:Middlewares/LVGL/GUI/lvgl/src/core/../draw/../misc/../font/../misc/lv_area.h ****     LV_ALIGN_TOP_LEFT,
  54:Middlewares/LVGL/GUI/lvgl/src/core/../draw/../misc/../font/../misc/lv_area.h ****     LV_ALIGN_TOP_MID,
  55:Middlewares/LVGL/GUI/lvgl/src/core/../draw/../misc/../font/../misc/lv_area.h ****     LV_ALIGN_TOP_RIGHT,
  56:Middlewares/LVGL/GUI/lvgl/src/core/../draw/../misc/../font/../misc/lv_area.h ****     LV_ALIGN_BOTTOM_LEFT,
  57:Middlewares/LVGL/GUI/lvgl/src/core/../draw/../misc/../font/../misc/lv_area.h ****     LV_ALIGN_BOTTOM_MID,
  58:Middlewares/LVGL/GUI/lvgl/src/core/../draw/../misc/../font/../misc/lv_area.h ****     LV_ALIGN_BOTTOM_RIGHT,
  59:Middlewares/LVGL/GUI/lvgl/src/core/../draw/../misc/../font/../misc/lv_area.h ****     LV_ALIGN_LEFT_MID,
  60:Middlewares/LVGL/GUI/lvgl/src/core/../draw/../misc/../font/../misc/lv_area.h ****     LV_ALIGN_RIGHT_MID,
  61:Middlewares/LVGL/GUI/lvgl/src/core/../draw/../misc/../font/../misc/lv_area.h ****     LV_ALIGN_CENTER,
  62:Middlewares/LVGL/GUI/lvgl/src/core/../draw/../misc/../font/../misc/lv_area.h **** 
  63:Middlewares/LVGL/GUI/lvgl/src/core/../draw/../misc/../font/../misc/lv_area.h ****     LV_ALIGN_OUT_TOP_LEFT,
  64:Middlewares/LVGL/GUI/lvgl/src/core/../draw/../misc/../font/../misc/lv_area.h ****     LV_ALIGN_OUT_TOP_MID,
  65:Middlewares/LVGL/GUI/lvgl/src/core/../draw/../misc/../font/../misc/lv_area.h ****     LV_ALIGN_OUT_TOP_RIGHT,
  66:Middlewares/LVGL/GUI/lvgl/src/core/../draw/../misc/../font/../misc/lv_area.h ****     LV_ALIGN_OUT_BOTTOM_LEFT,
  67:Middlewares/LVGL/GUI/lvgl/src/core/../draw/../misc/../font/../misc/lv_area.h ****     LV_ALIGN_OUT_BOTTOM_MID,
  68:Middlewares/LVGL/GUI/lvgl/src/core/../draw/../misc/../font/../misc/lv_area.h ****     LV_ALIGN_OUT_BOTTOM_RIGHT,
  69:Middlewares/LVGL/GUI/lvgl/src/core/../draw/../misc/../font/../misc/lv_area.h ****     LV_ALIGN_OUT_LEFT_TOP,
  70:Middlewares/LVGL/GUI/lvgl/src/core/../draw/../misc/../font/../misc/lv_area.h ****     LV_ALIGN_OUT_LEFT_MID,
  71:Middlewares/LVGL/GUI/lvgl/src/core/../draw/../misc/../font/../misc/lv_area.h ****     LV_ALIGN_OUT_LEFT_BOTTOM,
  72:Middlewares/LVGL/GUI/lvgl/src/core/../draw/../misc/../font/../misc/lv_area.h ****     LV_ALIGN_OUT_RIGHT_TOP,
  73:Middlewares/LVGL/GUI/lvgl/src/core/../draw/../misc/../font/../misc/lv_area.h ****     LV_ALIGN_OUT_RIGHT_MID,
  74:Middlewares/LVGL/GUI/lvgl/src/core/../draw/../misc/../font/../misc/lv_area.h ****     LV_ALIGN_OUT_RIGHT_BOTTOM,
  75:Middlewares/LVGL/GUI/lvgl/src/core/../draw/../misc/../font/../misc/lv_area.h **** };
  76:Middlewares/LVGL/GUI/lvgl/src/core/../draw/../misc/../font/../misc/lv_area.h **** typedef uint8_t lv_align_t;
  77:Middlewares/LVGL/GUI/lvgl/src/core/../draw/../misc/../font/../misc/lv_area.h **** 
  78:Middlewares/LVGL/GUI/lvgl/src/core/../draw/../misc/../font/../misc/lv_area.h **** enum {
  79:Middlewares/LVGL/GUI/lvgl/src/core/../draw/../misc/../font/../misc/lv_area.h ****     LV_DIR_NONE     = 0x00,
  80:Middlewares/LVGL/GUI/lvgl/src/core/../draw/../misc/../font/../misc/lv_area.h ****     LV_DIR_LEFT     = (1 << 0),
  81:Middlewares/LVGL/GUI/lvgl/src/core/../draw/../misc/../font/../misc/lv_area.h ****     LV_DIR_RIGHT    = (1 << 1),
  82:Middlewares/LVGL/GUI/lvgl/src/core/../draw/../misc/../font/../misc/lv_area.h ****     LV_DIR_TOP      = (1 << 2),
  83:Middlewares/LVGL/GUI/lvgl/src/core/../draw/../misc/../font/../misc/lv_area.h ****     LV_DIR_BOTTOM   = (1 << 3),
  84:Middlewares/LVGL/GUI/lvgl/src/core/../draw/../misc/../font/../misc/lv_area.h ****     LV_DIR_HOR      = LV_DIR_LEFT | LV_DIR_RIGHT,
  85:Middlewares/LVGL/GUI/lvgl/src/core/../draw/../misc/../font/../misc/lv_area.h ****     LV_DIR_VER      = LV_DIR_TOP | LV_DIR_BOTTOM,
ARM GAS  C:\Users\ADMINI~1\AppData\Local\Temp\cc386Zoq.s 			page 46


  86:Middlewares/LVGL/GUI/lvgl/src/core/../draw/../misc/../font/../misc/lv_area.h ****     LV_DIR_ALL      = LV_DIR_HOR | LV_DIR_VER,
  87:Middlewares/LVGL/GUI/lvgl/src/core/../draw/../misc/../font/../misc/lv_area.h **** };
  88:Middlewares/LVGL/GUI/lvgl/src/core/../draw/../misc/../font/../misc/lv_area.h **** 
  89:Middlewares/LVGL/GUI/lvgl/src/core/../draw/../misc/../font/../misc/lv_area.h **** typedef uint8_t lv_dir_t;
  90:Middlewares/LVGL/GUI/lvgl/src/core/../draw/../misc/../font/../misc/lv_area.h **** 
  91:Middlewares/LVGL/GUI/lvgl/src/core/../draw/../misc/../font/../misc/lv_area.h **** /**********************
  92:Middlewares/LVGL/GUI/lvgl/src/core/../draw/../misc/../font/../misc/lv_area.h ****  * GLOBAL PROTOTYPES
  93:Middlewares/LVGL/GUI/lvgl/src/core/../draw/../misc/../font/../misc/lv_area.h ****  **********************/
  94:Middlewares/LVGL/GUI/lvgl/src/core/../draw/../misc/../font/../misc/lv_area.h **** 
  95:Middlewares/LVGL/GUI/lvgl/src/core/../draw/../misc/../font/../misc/lv_area.h **** /**
  96:Middlewares/LVGL/GUI/lvgl/src/core/../draw/../misc/../font/../misc/lv_area.h ****  * Initialize an area
  97:Middlewares/LVGL/GUI/lvgl/src/core/../draw/../misc/../font/../misc/lv_area.h ****  * @param area_p pointer to an area
  98:Middlewares/LVGL/GUI/lvgl/src/core/../draw/../misc/../font/../misc/lv_area.h ****  * @param x1 left coordinate of the area
  99:Middlewares/LVGL/GUI/lvgl/src/core/../draw/../misc/../font/../misc/lv_area.h ****  * @param y1 top coordinate of the area
 100:Middlewares/LVGL/GUI/lvgl/src/core/../draw/../misc/../font/../misc/lv_area.h ****  * @param x2 right coordinate of the area
 101:Middlewares/LVGL/GUI/lvgl/src/core/../draw/../misc/../font/../misc/lv_area.h ****  * @param y2 bottom coordinate of the area
 102:Middlewares/LVGL/GUI/lvgl/src/core/../draw/../misc/../font/../misc/lv_area.h ****  */
 103:Middlewares/LVGL/GUI/lvgl/src/core/../draw/../misc/../font/../misc/lv_area.h **** void lv_area_set(lv_area_t * area_p, lv_coord_t x1, lv_coord_t y1, lv_coord_t x2, lv_coord_t y2);
 104:Middlewares/LVGL/GUI/lvgl/src/core/../draw/../misc/../font/../misc/lv_area.h **** 
 105:Middlewares/LVGL/GUI/lvgl/src/core/../draw/../misc/../font/../misc/lv_area.h **** /**
 106:Middlewares/LVGL/GUI/lvgl/src/core/../draw/../misc/../font/../misc/lv_area.h ****  * Copy an area
 107:Middlewares/LVGL/GUI/lvgl/src/core/../draw/../misc/../font/../misc/lv_area.h ****  * @param dest pointer to the destination area
 108:Middlewares/LVGL/GUI/lvgl/src/core/../draw/../misc/../font/../misc/lv_area.h ****  * @param src pointer to the source area
 109:Middlewares/LVGL/GUI/lvgl/src/core/../draw/../misc/../font/../misc/lv_area.h ****  */
 110:Middlewares/LVGL/GUI/lvgl/src/core/../draw/../misc/../font/../misc/lv_area.h **** inline static void lv_area_copy(lv_area_t * dest, const lv_area_t * src)
 111:Middlewares/LVGL/GUI/lvgl/src/core/../draw/../misc/../font/../misc/lv_area.h **** {
 112:Middlewares/LVGL/GUI/lvgl/src/core/../draw/../misc/../font/../misc/lv_area.h ****     dest->x1 = src->x1;
 113:Middlewares/LVGL/GUI/lvgl/src/core/../draw/../misc/../font/../misc/lv_area.h ****     dest->y1 = src->y1;
 114:Middlewares/LVGL/GUI/lvgl/src/core/../draw/../misc/../font/../misc/lv_area.h ****     dest->x2 = src->x2;
 115:Middlewares/LVGL/GUI/lvgl/src/core/../draw/../misc/../font/../misc/lv_area.h ****     dest->y2 = src->y2;
 116:Middlewares/LVGL/GUI/lvgl/src/core/../draw/../misc/../font/../misc/lv_area.h **** }
 117:Middlewares/LVGL/GUI/lvgl/src/core/../draw/../misc/../font/../misc/lv_area.h **** 
 118:Middlewares/LVGL/GUI/lvgl/src/core/../draw/../misc/../font/../misc/lv_area.h **** /**
 119:Middlewares/LVGL/GUI/lvgl/src/core/../draw/../misc/../font/../misc/lv_area.h ****  * Get the width of an area
 120:Middlewares/LVGL/GUI/lvgl/src/core/../draw/../misc/../font/../misc/lv_area.h ****  * @param area_p pointer to an area
 121:Middlewares/LVGL/GUI/lvgl/src/core/../draw/../misc/../font/../misc/lv_area.h ****  * @return the width of the area (if x1 == x2 -> width = 1)
 122:Middlewares/LVGL/GUI/lvgl/src/core/../draw/../misc/../font/../misc/lv_area.h ****  */
 123:Middlewares/LVGL/GUI/lvgl/src/core/../draw/../misc/../font/../misc/lv_area.h **** static inline lv_coord_t lv_area_get_width(const lv_area_t * area_p)
 1305              		.loc 3 123 26 view .LVU459
 1306              	.LBB249:
 124:Middlewares/LVGL/GUI/lvgl/src/core/../draw/../misc/../font/../misc/lv_area.h **** {
 125:Middlewares/LVGL/GUI/lvgl/src/core/../draw/../misc/../font/../misc/lv_area.h ****     return (lv_coord_t)(area_p->x2 - area_p->x1 + 1);
 1307              		.loc 3 125 5 view .LVU460
 1308              		.loc 3 125 31 is_stmt 0 view .LVU461
 1309 0044 EB69     		ldr	r3, [r5, #28]
 1310              		.loc 3 125 44 view .LVU462
 1311 0046 6A69     		ldr	r2, [r5, #20]
 1312              		.loc 3 125 36 view .LVU463
 1313 0048 9B1A     		subs	r3, r3, r2
 1314              		.loc 3 125 12 view .LVU464
 1315 004a 0133     		adds	r3, r3, #1
 1316              	.LVL130:
 1317              		.loc 3 125 12 view .LVU465
 1318              	.LBE249:
 1319              	.LBE248:
 235:Middlewares/LVGL/GUI/lvgl/src/core/lv_obj_draw.c ****     draw_dsc->pivot.y = lv_area_get_height(&obj->coords) / 2;
 1320              		.loc 1 235 57 view .LVU466
ARM GAS  C:\Users\ADMINI~1\AppData\Local\Temp\cc386Zoq.s 			page 47


 1321 004c 03EBD373 		add	r3, r3, r3, lsr #31
 1322 0050 5B10     		asrs	r3, r3, #1
 235:Middlewares/LVGL/GUI/lvgl/src/core/lv_obj_draw.c ****     draw_dsc->pivot.y = lv_area_get_height(&obj->coords) / 2;
 1323              		.loc 1 235 23 view .LVU467
 1324 0052 6360     		str	r3, [r4, #4]
 236:Middlewares/LVGL/GUI/lvgl/src/core/lv_obj_draw.c **** 
 1325              		.loc 1 236 5 is_stmt 1 view .LVU468
 1326              	.LVL131:
 1327              	.LBB250:
 1328              	.LBI250:
 126:Middlewares/LVGL/GUI/lvgl/src/core/../draw/../misc/../font/../misc/lv_area.h **** }
 127:Middlewares/LVGL/GUI/lvgl/src/core/../draw/../misc/../font/../misc/lv_area.h **** 
 128:Middlewares/LVGL/GUI/lvgl/src/core/../draw/../misc/../font/../misc/lv_area.h **** /**
 129:Middlewares/LVGL/GUI/lvgl/src/core/../draw/../misc/../font/../misc/lv_area.h ****  * Get the height of an area
 130:Middlewares/LVGL/GUI/lvgl/src/core/../draw/../misc/../font/../misc/lv_area.h ****  * @param area_p pointer to an area
 131:Middlewares/LVGL/GUI/lvgl/src/core/../draw/../misc/../font/../misc/lv_area.h ****  * @return the height of the area (if y1 == y2 -> height = 1)
 132:Middlewares/LVGL/GUI/lvgl/src/core/../draw/../misc/../font/../misc/lv_area.h ****  */
 133:Middlewares/LVGL/GUI/lvgl/src/core/../draw/../misc/../font/../misc/lv_area.h **** static inline lv_coord_t lv_area_get_height(const lv_area_t * area_p)
 1329              		.loc 3 133 26 view .LVU469
 1330              	.LBB251:
 134:Middlewares/LVGL/GUI/lvgl/src/core/../draw/../misc/../font/../misc/lv_area.h **** {
 135:Middlewares/LVGL/GUI/lvgl/src/core/../draw/../misc/../font/../misc/lv_area.h ****     return (lv_coord_t)(area_p->y2 - area_p->y1 + 1);
 1331              		.loc 3 135 5 view .LVU470
 1332              		.loc 3 135 31 is_stmt 0 view .LVU471
 1333 0054 2B6A     		ldr	r3, [r5, #32]
 1334              		.loc 3 135 44 view .LVU472
 1335 0056 AA69     		ldr	r2, [r5, #24]
 1336              		.loc 3 135 36 view .LVU473
 1337 0058 9B1A     		subs	r3, r3, r2
 1338              		.loc 3 135 12 view .LVU474
 1339 005a 0133     		adds	r3, r3, #1
 1340              	.LVL132:
 1341              		.loc 3 135 12 view .LVU475
 1342              	.LBE251:
 1343              	.LBE250:
 236:Middlewares/LVGL/GUI/lvgl/src/core/lv_obj_draw.c **** 
 1344              		.loc 1 236 58 view .LVU476
 1345 005c 03EBD373 		add	r3, r3, r3, lsr #31
 1346 0060 5B10     		asrs	r3, r3, #1
 236:Middlewares/LVGL/GUI/lvgl/src/core/lv_obj_draw.c **** 
 1347              		.loc 1 236 23 view .LVU477
 1348 0062 A360     		str	r3, [r4, #8]
 238:Middlewares/LVGL/GUI/lvgl/src/core/lv_obj_draw.c ****     if(draw_dsc->recolor_opa > 0) {
 1349              		.loc 1 238 5 is_stmt 1 view .LVU478
 1350              	.LVL133:
 1351              	.LBB252:
 1352              	.LBI252:
 349:Middlewares/LVGL/GUI/lvgl/src/core/lv_obj_style_gen.h **** {
 1353              		.loc 2 349 24 view .LVU479
 1354              	.LBB253:
 351:Middlewares/LVGL/GUI/lvgl/src/core/lv_obj_style_gen.h ****     return (lv_opa_t)v.num;
 1355              		.loc 2 351 5 view .LVU480
 351:Middlewares/LVGL/GUI/lvgl/src/core/lv_obj_style_gen.h ****     return (lv_opa_t)v.num;
 1356              		.loc 2 351 26 is_stmt 0 view .LVU481
 1357 0064 4822     		movs	r2, #72
 1358 0066 3146     		mov	r1, r6
 1359 0068 2846     		mov	r0, r5
ARM GAS  C:\Users\ADMINI~1\AppData\Local\Temp\cc386Zoq.s 			page 48


 1360 006a FFF7FEFF 		bl	lv_obj_get_style_prop
 1361              	.LVL134:
 352:Middlewares/LVGL/GUI/lvgl/src/core/lv_obj_style_gen.h **** }
 1362              		.loc 2 352 5 is_stmt 1 view .LVU482
 352:Middlewares/LVGL/GUI/lvgl/src/core/lv_obj_style_gen.h **** }
 1363              		.loc 2 352 12 is_stmt 0 view .LVU483
 1364 006e C0B2     		uxtb	r0, r0
 1365              	.LVL135:
 352:Middlewares/LVGL/GUI/lvgl/src/core/lv_obj_style_gen.h **** }
 1366              		.loc 2 352 12 view .LVU484
 1367              	.LBE253:
 1368              	.LBE252:
 238:Middlewares/LVGL/GUI/lvgl/src/core/lv_obj_draw.c ****     if(draw_dsc->recolor_opa > 0) {
 1369              		.loc 1 238 27 view .LVU485
 1370 0070 A073     		strb	r0, [r4, #14]
 239:Middlewares/LVGL/GUI/lvgl/src/core/lv_obj_draw.c ****         draw_dsc->recolor = lv_obj_get_style_img_recolor_filtered(obj, part);
 1371              		.loc 1 239 5 is_stmt 1 view .LVU486
 239:Middlewares/LVGL/GUI/lvgl/src/core/lv_obj_draw.c ****         draw_dsc->recolor = lv_obj_get_style_img_recolor_filtered(obj, part);
 1372              		.loc 1 239 7 is_stmt 0 view .LVU487
 1373 0072 48B9     		cbnz	r0, .L37
 1374              	.L34:
 243:Middlewares/LVGL/GUI/lvgl/src/core/lv_obj_draw.c **** #endif
 1375              		.loc 1 243 5 is_stmt 1 view .LVU488
 1376              	.LVL136:
 1377              	.LBB254:
 1378              	.LBI254:
 530:Middlewares/LVGL/GUI/lvgl/src/core/lv_obj_style_gen.h **** {
 1379              		.loc 2 530 31 view .LVU489
 1380              	.LBB255:
 532:Middlewares/LVGL/GUI/lvgl/src/core/lv_obj_style_gen.h ****     return (lv_blend_mode_t)v.num;
 1381              		.loc 2 532 5 view .LVU490
 532:Middlewares/LVGL/GUI/lvgl/src/core/lv_obj_style_gen.h ****     return (lv_blend_mode_t)v.num;
 1382              		.loc 2 532 26 is_stmt 0 view .LVU491
 1383 0074 6822     		movs	r2, #104
 1384 0076 3146     		mov	r1, r6
 1385 0078 2846     		mov	r0, r5
 1386 007a FFF7FEFF 		bl	lv_obj_get_style_prop
 1387              	.LVL137:
 1388              		.loc 2 533 5 is_stmt 1 view .LVU492
 1389              		.loc 2 533 5 is_stmt 0 view .LVU493
 1390              	.LBE255:
 1391              	.LBE254:
 243:Middlewares/LVGL/GUI/lvgl/src/core/lv_obj_draw.c **** #endif
 1392              		.loc 1 243 26 view .LVU494
 1393 007e 237C     		ldrb	r3, [r4, #16]	@ zero_extendqisi2
 1394 0080 60F30303 		bfi	r3, r0, #0, #4
 1395 0084 2374     		strb	r3, [r4, #16]
 1396 0086 C6E7     		b	.L31
 1397              	.L37:
 240:Middlewares/LVGL/GUI/lvgl/src/core/lv_obj_draw.c ****     }
 1398              		.loc 1 240 9 is_stmt 1 view .LVU495
 1399              	.LVL138:
 1400              	.LBB256:
 1401              	.LBI256:
 343:Middlewares/LVGL/GUI/lvgl/src/core/lv_obj_style_gen.h **** {
 1402              		.loc 2 343 26 view .LVU496
 1403              	.LBB257:
ARM GAS  C:\Users\ADMINI~1\AppData\Local\Temp\cc386Zoq.s 			page 49


 345:Middlewares/LVGL/GUI/lvgl/src/core/lv_obj_style_gen.h ****     return v.color;
 1404              		.loc 2 345 5 view .LVU497
 345:Middlewares/LVGL/GUI/lvgl/src/core/lv_obj_style_gen.h ****     return v.color;
 1405              		.loc 2 345 26 is_stmt 0 view .LVU498
 1406 0088 44F24702 		movw	r2, #16455
 1407 008c 3146     		mov	r1, r6
 1408 008e 2846     		mov	r0, r5
 1409 0090 FFF7FEFF 		bl	lv_obj_get_style_prop
 1410              	.LVL139:
 346:Middlewares/LVGL/GUI/lvgl/src/core/lv_obj_style_gen.h **** }
 1411              		.loc 2 346 5 is_stmt 1 view .LVU499
 346:Middlewares/LVGL/GUI/lvgl/src/core/lv_obj_style_gen.h **** }
 1412              		.loc 2 346 5 is_stmt 0 view .LVU500
 1413              	.LBE257:
 1414              	.LBE256:
 240:Middlewares/LVGL/GUI/lvgl/src/core/lv_obj_draw.c ****     }
 1415              		.loc 1 240 29 view .LVU501
 1416 0094 A081     		strh	r0, [r4, #12]	@ movhi
 1417 0096 EDE7     		b	.L34
 1418              		.cfi_endproc
 1419              	.LFE161:
 1421              		.section	.text.lv_obj_init_draw_line_dsc,"ax",%progbits
 1422              		.align	1
 1423              		.global	lv_obj_init_draw_line_dsc
 1424              		.syntax unified
 1425              		.thumb
 1426              		.thumb_func
 1428              	lv_obj_init_draw_line_dsc:
 1429              	.LVL140:
 1430              	.LFB162:
 246:Middlewares/LVGL/GUI/lvgl/src/core/lv_obj_draw.c **** 
 247:Middlewares/LVGL/GUI/lvgl/src/core/lv_obj_draw.c **** void lv_obj_init_draw_line_dsc(lv_obj_t * obj, uint32_t part, lv_draw_line_dsc_t * draw_dsc)
 248:Middlewares/LVGL/GUI/lvgl/src/core/lv_obj_draw.c **** {
 1431              		.loc 1 248 1 is_stmt 1 view -0
 1432              		.cfi_startproc
 1433              		@ args = 0, pretend = 0, frame = 0
 1434              		@ frame_needed = 0, uses_anonymous_args = 0
 1435              		.loc 1 248 1 is_stmt 0 view .LVU503
 1436 0000 70B5     		push	{r4, r5, r6, lr}
 1437              	.LCFI3:
 1438              		.cfi_def_cfa_offset 16
 1439              		.cfi_offset 4, -16
 1440              		.cfi_offset 5, -12
 1441              		.cfi_offset 6, -8
 1442              		.cfi_offset 14, -4
 1443 0002 0546     		mov	r5, r0
 1444 0004 0E46     		mov	r6, r1
 1445 0006 1446     		mov	r4, r2
 249:Middlewares/LVGL/GUI/lvgl/src/core/lv_obj_draw.c ****     draw_dsc->width = lv_obj_get_style_line_width(obj, part);
 1446              		.loc 1 249 5 is_stmt 1 view .LVU504
 1447              	.LVL141:
 1448              	.LBB258:
 1449              	.LBI258:
 355:Middlewares/LVGL/GUI/lvgl/src/core/lv_obj_style_gen.h **** {
 1450              		.loc 2 355 26 view .LVU505
 1451              	.LBB259:
 357:Middlewares/LVGL/GUI/lvgl/src/core/lv_obj_style_gen.h ****     return (lv_coord_t)v.num;
ARM GAS  C:\Users\ADMINI~1\AppData\Local\Temp\cc386Zoq.s 			page 50


 1452              		.loc 2 357 5 view .LVU506
 357:Middlewares/LVGL/GUI/lvgl/src/core/lv_obj_style_gen.h ****     return (lv_coord_t)v.num;
 1453              		.loc 2 357 26 is_stmt 0 view .LVU507
 1454 0008 40F64902 		movw	r2, #2121
 1455              	.LVL142:
 357:Middlewares/LVGL/GUI/lvgl/src/core/lv_obj_style_gen.h ****     return (lv_coord_t)v.num;
 1456              		.loc 2 357 26 view .LVU508
 1457 000c FFF7FEFF 		bl	lv_obj_get_style_prop
 1458              	.LVL143:
 358:Middlewares/LVGL/GUI/lvgl/src/core/lv_obj_style_gen.h **** }
 1459              		.loc 2 358 5 is_stmt 1 view .LVU509
 358:Middlewares/LVGL/GUI/lvgl/src/core/lv_obj_style_gen.h **** }
 1460              		.loc 2 358 5 is_stmt 0 view .LVU510
 1461              	.LBE259:
 1462              	.LBE258:
 1463              		.loc 1 249 21 view .LVU511
 1464 0010 6060     		str	r0, [r4, #4]
 250:Middlewares/LVGL/GUI/lvgl/src/core/lv_obj_draw.c ****     if(draw_dsc->width == 0) return;
 1465              		.loc 1 250 5 is_stmt 1 view .LVU512
 1466              		.loc 1 250 7 is_stmt 0 view .LVU513
 1467 0012 00B9     		cbnz	r0, .L43
 1468              	.L38:
 251:Middlewares/LVGL/GUI/lvgl/src/core/lv_obj_draw.c **** 
 252:Middlewares/LVGL/GUI/lvgl/src/core/lv_obj_draw.c ****     draw_dsc->opa = lv_obj_get_style_line_opa(obj, part);
 253:Middlewares/LVGL/GUI/lvgl/src/core/lv_obj_draw.c ****     if(draw_dsc->opa <= LV_OPA_MIN)  return;
 254:Middlewares/LVGL/GUI/lvgl/src/core/lv_obj_draw.c **** 
 255:Middlewares/LVGL/GUI/lvgl/src/core/lv_obj_draw.c ****     lv_opa_t opa = lv_obj_get_style_opa(obj, part);
 256:Middlewares/LVGL/GUI/lvgl/src/core/lv_obj_draw.c ****     if(opa < LV_OPA_MAX) {
 257:Middlewares/LVGL/GUI/lvgl/src/core/lv_obj_draw.c ****         draw_dsc->opa = (uint16_t)((uint16_t)draw_dsc->opa * opa) >> 8;
 258:Middlewares/LVGL/GUI/lvgl/src/core/lv_obj_draw.c ****     }
 259:Middlewares/LVGL/GUI/lvgl/src/core/lv_obj_draw.c ****     if(draw_dsc->opa <= LV_OPA_MIN)  return;
 260:Middlewares/LVGL/GUI/lvgl/src/core/lv_obj_draw.c **** 
 261:Middlewares/LVGL/GUI/lvgl/src/core/lv_obj_draw.c ****     draw_dsc->color = lv_obj_get_style_line_color_filtered(obj, part);
 262:Middlewares/LVGL/GUI/lvgl/src/core/lv_obj_draw.c **** 
 263:Middlewares/LVGL/GUI/lvgl/src/core/lv_obj_draw.c ****     draw_dsc->dash_width = lv_obj_get_style_line_dash_width(obj, part);
 264:Middlewares/LVGL/GUI/lvgl/src/core/lv_obj_draw.c ****     if(draw_dsc->dash_width) {
 265:Middlewares/LVGL/GUI/lvgl/src/core/lv_obj_draw.c ****         draw_dsc->dash_gap = lv_obj_get_style_line_dash_gap(obj, part);
 266:Middlewares/LVGL/GUI/lvgl/src/core/lv_obj_draw.c ****     }
 267:Middlewares/LVGL/GUI/lvgl/src/core/lv_obj_draw.c **** 
 268:Middlewares/LVGL/GUI/lvgl/src/core/lv_obj_draw.c ****     draw_dsc->round_start = lv_obj_get_style_line_rounded(obj, part);
 269:Middlewares/LVGL/GUI/lvgl/src/core/lv_obj_draw.c ****     draw_dsc->round_end = draw_dsc->round_start;
 270:Middlewares/LVGL/GUI/lvgl/src/core/lv_obj_draw.c **** 
 271:Middlewares/LVGL/GUI/lvgl/src/core/lv_obj_draw.c **** #if LV_DRAW_COMPLEX
 272:Middlewares/LVGL/GUI/lvgl/src/core/lv_obj_draw.c ****     draw_dsc->blend_mode = lv_obj_get_style_blend_mode(obj, part);
 273:Middlewares/LVGL/GUI/lvgl/src/core/lv_obj_draw.c **** #endif
 274:Middlewares/LVGL/GUI/lvgl/src/core/lv_obj_draw.c **** }
 1469              		.loc 1 274 1 view .LVU514
 1470 0014 70BD     		pop	{r4, r5, r6, pc}
 1471              	.LVL144:
 1472              	.L43:
 252:Middlewares/LVGL/GUI/lvgl/src/core/lv_obj_draw.c ****     if(draw_dsc->opa <= LV_OPA_MIN)  return;
 1473              		.loc 1 252 5 is_stmt 1 view .LVU515
 1474              	.LBB260:
 1475              	.LBI260:
 391:Middlewares/LVGL/GUI/lvgl/src/core/lv_obj_style_gen.h **** {
 1476              		.loc 2 391 24 view .LVU516
 1477              	.LBB261:
ARM GAS  C:\Users\ADMINI~1\AppData\Local\Temp\cc386Zoq.s 			page 51


 393:Middlewares/LVGL/GUI/lvgl/src/core/lv_obj_style_gen.h ****     return (lv_opa_t)v.num;
 1478              		.loc 2 393 5 view .LVU517
 393:Middlewares/LVGL/GUI/lvgl/src/core/lv_obj_style_gen.h ****     return (lv_opa_t)v.num;
 1479              		.loc 2 393 26 is_stmt 0 view .LVU518
 1480 0016 4E22     		movs	r2, #78
 1481 0018 3146     		mov	r1, r6
 1482 001a 2846     		mov	r0, r5
 1483              	.LVL145:
 393:Middlewares/LVGL/GUI/lvgl/src/core/lv_obj_style_gen.h ****     return (lv_opa_t)v.num;
 1484              		.loc 2 393 26 view .LVU519
 1485 001c FFF7FEFF 		bl	lv_obj_get_style_prop
 1486              	.LVL146:
 394:Middlewares/LVGL/GUI/lvgl/src/core/lv_obj_style_gen.h **** }
 1487              		.loc 2 394 5 is_stmt 1 view .LVU520
 394:Middlewares/LVGL/GUI/lvgl/src/core/lv_obj_style_gen.h **** }
 1488              		.loc 2 394 12 is_stmt 0 view .LVU521
 1489 0020 C3B2     		uxtb	r3, r0
 1490              	.LVL147:
 394:Middlewares/LVGL/GUI/lvgl/src/core/lv_obj_style_gen.h **** }
 1491              		.loc 2 394 12 view .LVU522
 1492              	.LBE261:
 1493              	.LBE260:
 252:Middlewares/LVGL/GUI/lvgl/src/core/lv_obj_draw.c ****     if(draw_dsc->opa <= LV_OPA_MIN)  return;
 1494              		.loc 1 252 19 view .LVU523
 1495 0022 2374     		strb	r3, [r4, #16]
 253:Middlewares/LVGL/GUI/lvgl/src/core/lv_obj_draw.c **** 
 1496              		.loc 1 253 5 is_stmt 1 view .LVU524
 253:Middlewares/LVGL/GUI/lvgl/src/core/lv_obj_draw.c **** 
 1497              		.loc 1 253 7 is_stmt 0 view .LVU525
 1498 0024 022B     		cmp	r3, #2
 1499 0026 F5D9     		bls	.L38
 255:Middlewares/LVGL/GUI/lvgl/src/core/lv_obj_draw.c ****     if(opa < LV_OPA_MAX) {
 1500              		.loc 1 255 5 is_stmt 1 view .LVU526
 1501              	.LVL148:
 1502              	.LBB262:
 1503              	.LBI262:
 493:Middlewares/LVGL/GUI/lvgl/src/core/lv_obj_style_gen.h **** {
 1504              		.loc 2 493 24 view .LVU527
 1505              	.LBB263:
 495:Middlewares/LVGL/GUI/lvgl/src/core/lv_obj_style_gen.h ****     return (lv_opa_t)v.num;
 1506              		.loc 2 495 5 view .LVU528
 495:Middlewares/LVGL/GUI/lvgl/src/core/lv_obj_style_gen.h ****     return (lv_opa_t)v.num;
 1507              		.loc 2 495 26 is_stmt 0 view .LVU529
 1508 0028 40F26242 		movw	r2, #1122
 1509 002c 3146     		mov	r1, r6
 1510 002e 2846     		mov	r0, r5
 1511 0030 FFF7FEFF 		bl	lv_obj_get_style_prop
 1512              	.LVL149:
 496:Middlewares/LVGL/GUI/lvgl/src/core/lv_obj_style_gen.h **** }
 1513              		.loc 2 496 5 is_stmt 1 view .LVU530
 496:Middlewares/LVGL/GUI/lvgl/src/core/lv_obj_style_gen.h **** }
 1514              		.loc 2 496 12 is_stmt 0 view .LVU531
 1515 0034 C0B2     		uxtb	r0, r0
 1516              	.LVL150:
 496:Middlewares/LVGL/GUI/lvgl/src/core/lv_obj_style_gen.h **** }
 1517              		.loc 2 496 12 view .LVU532
 1518              	.LBE263:
ARM GAS  C:\Users\ADMINI~1\AppData\Local\Temp\cc386Zoq.s 			page 52


 1519              	.LBE262:
 256:Middlewares/LVGL/GUI/lvgl/src/core/lv_obj_draw.c ****         draw_dsc->opa = (uint16_t)((uint16_t)draw_dsc->opa * opa) >> 8;
 1520              		.loc 1 256 5 is_stmt 1 view .LVU533
 256:Middlewares/LVGL/GUI/lvgl/src/core/lv_obj_draw.c ****         draw_dsc->opa = (uint16_t)((uint16_t)draw_dsc->opa * opa) >> 8;
 1521              		.loc 1 256 7 is_stmt 0 view .LVU534
 1522 0036 FC28     		cmp	r0, #252
 1523 0038 04D8     		bhi	.L40
 257:Middlewares/LVGL/GUI/lvgl/src/core/lv_obj_draw.c ****     }
 1524              		.loc 1 257 9 is_stmt 1 view .LVU535
 257:Middlewares/LVGL/GUI/lvgl/src/core/lv_obj_draw.c ****     }
 1525              		.loc 1 257 54 is_stmt 0 view .LVU536
 1526 003a 237C     		ldrb	r3, [r4, #16]	@ zero_extendqisi2
 257:Middlewares/LVGL/GUI/lvgl/src/core/lv_obj_draw.c ****     }
 1527              		.loc 1 257 25 view .LVU537
 1528 003c 03FB00F0 		mul	r0, r3, r0
 1529              	.LVL151:
 257:Middlewares/LVGL/GUI/lvgl/src/core/lv_obj_draw.c ****     }
 1530              		.loc 1 257 23 view .LVU538
 1531 0040 000A     		lsrs	r0, r0, #8
 1532 0042 2074     		strb	r0, [r4, #16]
 1533              	.L40:
 259:Middlewares/LVGL/GUI/lvgl/src/core/lv_obj_draw.c **** 
 1534              		.loc 1 259 5 is_stmt 1 view .LVU539
 259:Middlewares/LVGL/GUI/lvgl/src/core/lv_obj_draw.c **** 
 1535              		.loc 1 259 16 is_stmt 0 view .LVU540
 1536 0044 237C     		ldrb	r3, [r4, #16]	@ zero_extendqisi2
 259:Middlewares/LVGL/GUI/lvgl/src/core/lv_obj_draw.c **** 
 1537              		.loc 1 259 7 view .LVU541
 1538 0046 022B     		cmp	r3, #2
 1539 0048 E4D9     		bls	.L38
 261:Middlewares/LVGL/GUI/lvgl/src/core/lv_obj_draw.c **** 
 1540              		.loc 1 261 5 is_stmt 1 view .LVU542
 1541              	.LVL152:
 1542              	.LBB264:
 1543              	.LBI264:
 385:Middlewares/LVGL/GUI/lvgl/src/core/lv_obj_style_gen.h **** {
 1544              		.loc 2 385 26 view .LVU543
 1545              	.LBB265:
 387:Middlewares/LVGL/GUI/lvgl/src/core/lv_obj_style_gen.h ****     return v.color;
 1546              		.loc 2 387 5 view .LVU544
 387:Middlewares/LVGL/GUI/lvgl/src/core/lv_obj_style_gen.h ****     return v.color;
 1547              		.loc 2 387 26 is_stmt 0 view .LVU545
 1548 004a 44F24D02 		movw	r2, #16461
 1549 004e 3146     		mov	r1, r6
 1550 0050 2846     		mov	r0, r5
 1551 0052 FFF7FEFF 		bl	lv_obj_get_style_prop
 1552              	.LVL153:
 388:Middlewares/LVGL/GUI/lvgl/src/core/lv_obj_style_gen.h **** }
 1553              		.loc 2 388 5 is_stmt 1 view .LVU546
 388:Middlewares/LVGL/GUI/lvgl/src/core/lv_obj_style_gen.h **** }
 1554              		.loc 2 388 5 is_stmt 0 view .LVU547
 1555              	.LBE265:
 1556              	.LBE264:
 261:Middlewares/LVGL/GUI/lvgl/src/core/lv_obj_draw.c **** 
 1557              		.loc 1 261 23 view .LVU548
 1558 0056 2080     		strh	r0, [r4]	@ movhi
 263:Middlewares/LVGL/GUI/lvgl/src/core/lv_obj_draw.c ****     if(draw_dsc->dash_width) {
ARM GAS  C:\Users\ADMINI~1\AppData\Local\Temp\cc386Zoq.s 			page 53


 1559              		.loc 1 263 5 is_stmt 1 view .LVU549
 1560              	.LVL154:
 1561              	.LBB266:
 1562              	.LBI266:
 361:Middlewares/LVGL/GUI/lvgl/src/core/lv_obj_style_gen.h **** {
 1563              		.loc 2 361 26 view .LVU550
 1564              	.LBB267:
 363:Middlewares/LVGL/GUI/lvgl/src/core/lv_obj_style_gen.h ****     return (lv_coord_t)v.num;
 1565              		.loc 2 363 5 view .LVU551
 363:Middlewares/LVGL/GUI/lvgl/src/core/lv_obj_style_gen.h ****     return (lv_coord_t)v.num;
 1566              		.loc 2 363 26 is_stmt 0 view .LVU552
 1567 0058 4A22     		movs	r2, #74
 1568 005a 3146     		mov	r1, r6
 1569 005c 2846     		mov	r0, r5
 1570 005e FFF7FEFF 		bl	lv_obj_get_style_prop
 1571              	.LVL155:
 364:Middlewares/LVGL/GUI/lvgl/src/core/lv_obj_style_gen.h **** }
 1572              		.loc 2 364 5 is_stmt 1 view .LVU553
 364:Middlewares/LVGL/GUI/lvgl/src/core/lv_obj_style_gen.h **** }
 1573              		.loc 2 364 5 is_stmt 0 view .LVU554
 1574              	.LBE267:
 1575              	.LBE266:
 263:Middlewares/LVGL/GUI/lvgl/src/core/lv_obj_draw.c ****     if(draw_dsc->dash_width) {
 1576              		.loc 1 263 26 view .LVU555
 1577 0062 A060     		str	r0, [r4, #8]
 264:Middlewares/LVGL/GUI/lvgl/src/core/lv_obj_draw.c ****         draw_dsc->dash_gap = lv_obj_get_style_line_dash_gap(obj, part);
 1578              		.loc 1 264 5 is_stmt 1 view .LVU556
 264:Middlewares/LVGL/GUI/lvgl/src/core/lv_obj_draw.c ****         draw_dsc->dash_gap = lv_obj_get_style_line_dash_gap(obj, part);
 1579              		.loc 1 264 7 is_stmt 0 view .LVU557
 1580 0064 C8B9     		cbnz	r0, .L44
 1581              	.L41:
 268:Middlewares/LVGL/GUI/lvgl/src/core/lv_obj_draw.c ****     draw_dsc->round_end = draw_dsc->round_start;
 1582              		.loc 1 268 5 is_stmt 1 view .LVU558
 1583              	.LVL156:
 1584              	.LBB268:
 1585              	.LBI268:
 373:Middlewares/LVGL/GUI/lvgl/src/core/lv_obj_style_gen.h **** {
 1586              		.loc 2 373 20 view .LVU559
 1587              	.LBB269:
 375:Middlewares/LVGL/GUI/lvgl/src/core/lv_obj_style_gen.h ****     return (bool)v.num;
 1588              		.loc 2 375 5 view .LVU560
 375:Middlewares/LVGL/GUI/lvgl/src/core/lv_obj_style_gen.h ****     return (bool)v.num;
 1589              		.loc 2 375 26 is_stmt 0 view .LVU561
 1590 0066 4C22     		movs	r2, #76
 1591 0068 3146     		mov	r1, r6
 1592 006a 2846     		mov	r0, r5
 1593              	.LVL157:
 375:Middlewares/LVGL/GUI/lvgl/src/core/lv_obj_style_gen.h ****     return (bool)v.num;
 1594              		.loc 2 375 26 view .LVU562
 1595 006c FFF7FEFF 		bl	lv_obj_get_style_prop
 1596              	.LVL158:
 376:Middlewares/LVGL/GUI/lvgl/src/core/lv_obj_style_gen.h **** }
 1597              		.loc 2 376 5 is_stmt 1 view .LVU563
 376:Middlewares/LVGL/GUI/lvgl/src/core/lv_obj_style_gen.h **** }
 1598              		.loc 2 376 12 is_stmt 0 view .LVU564
 1599 0070 0038     		subs	r0, r0, #0
 1600 0072 18BF     		it	ne
ARM GAS  C:\Users\ADMINI~1\AppData\Local\Temp\cc386Zoq.s 			page 54


 1601 0074 0120     		movne	r0, #1
 1602              	.LVL159:
 376:Middlewares/LVGL/GUI/lvgl/src/core/lv_obj_style_gen.h **** }
 1603              		.loc 2 376 12 view .LVU565
 1604              	.LBE269:
 1605              	.LBE268:
 268:Middlewares/LVGL/GUI/lvgl/src/core/lv_obj_draw.c ****     draw_dsc->round_end = draw_dsc->round_start;
 1606              		.loc 1 268 27 view .LVU566
 1607 0076 637C     		ldrb	r3, [r4, #17]	@ zero_extendqisi2
 1608 0078 60F38203 		bfi	r3, r0, #2, #1
 1609 007c 6374     		strb	r3, [r4, #17]
 269:Middlewares/LVGL/GUI/lvgl/src/core/lv_obj_draw.c **** 
 1610              		.loc 1 269 5 is_stmt 1 view .LVU567
 269:Middlewares/LVGL/GUI/lvgl/src/core/lv_obj_draw.c **** 
 1611              		.loc 1 269 25 is_stmt 0 view .LVU568
 1612 007e DBB2     		uxtb	r3, r3
 1613 0080 60F3C303 		bfi	r3, r0, #3, #1
 1614 0084 6374     		strb	r3, [r4, #17]
 272:Middlewares/LVGL/GUI/lvgl/src/core/lv_obj_draw.c **** #endif
 1615              		.loc 1 272 5 is_stmt 1 view .LVU569
 1616              	.LVL160:
 1617              	.LBB270:
 1618              	.LBI270:
 530:Middlewares/LVGL/GUI/lvgl/src/core/lv_obj_style_gen.h **** {
 1619              		.loc 2 530 31 view .LVU570
 1620              	.LBB271:
 532:Middlewares/LVGL/GUI/lvgl/src/core/lv_obj_style_gen.h ****     return (lv_blend_mode_t)v.num;
 1621              		.loc 2 532 5 view .LVU571
 532:Middlewares/LVGL/GUI/lvgl/src/core/lv_obj_style_gen.h ****     return (lv_blend_mode_t)v.num;
 1622              		.loc 2 532 26 is_stmt 0 view .LVU572
 1623 0086 6822     		movs	r2, #104
 1624 0088 3146     		mov	r1, r6
 1625 008a 2846     		mov	r0, r5
 1626 008c FFF7FEFF 		bl	lv_obj_get_style_prop
 1627              	.LVL161:
 1628              		.loc 2 533 5 is_stmt 1 view .LVU573
 1629              		.loc 2 533 5 is_stmt 0 view .LVU574
 1630              	.LBE271:
 1631              	.LBE270:
 272:Middlewares/LVGL/GUI/lvgl/src/core/lv_obj_draw.c **** #endif
 1632              		.loc 1 272 26 view .LVU575
 1633 0090 637C     		ldrb	r3, [r4, #17]	@ zero_extendqisi2
 1634 0092 60F30103 		bfi	r3, r0, #0, #2
 1635 0096 6374     		strb	r3, [r4, #17]
 1636 0098 BCE7     		b	.L38
 1637              	.LVL162:
 1638              	.L44:
 265:Middlewares/LVGL/GUI/lvgl/src/core/lv_obj_draw.c ****     }
 1639              		.loc 1 265 9 is_stmt 1 view .LVU576
 1640              	.LBB272:
 1641              	.LBI272:
 367:Middlewares/LVGL/GUI/lvgl/src/core/lv_obj_style_gen.h **** {
 1642              		.loc 2 367 26 view .LVU577
 1643              	.LBB273:
 369:Middlewares/LVGL/GUI/lvgl/src/core/lv_obj_style_gen.h ****     return (lv_coord_t)v.num;
 1644              		.loc 2 369 5 view .LVU578
 369:Middlewares/LVGL/GUI/lvgl/src/core/lv_obj_style_gen.h ****     return (lv_coord_t)v.num;
ARM GAS  C:\Users\ADMINI~1\AppData\Local\Temp\cc386Zoq.s 			page 55


 1645              		.loc 2 369 26 is_stmt 0 view .LVU579
 1646 009a 4B22     		movs	r2, #75
 1647 009c 3146     		mov	r1, r6
 1648 009e 2846     		mov	r0, r5
 1649              	.LVL163:
 369:Middlewares/LVGL/GUI/lvgl/src/core/lv_obj_style_gen.h ****     return (lv_coord_t)v.num;
 1650              		.loc 2 369 26 view .LVU580
 1651 00a0 FFF7FEFF 		bl	lv_obj_get_style_prop
 1652              	.LVL164:
 370:Middlewares/LVGL/GUI/lvgl/src/core/lv_obj_style_gen.h **** }
 1653              		.loc 2 370 5 is_stmt 1 view .LVU581
 370:Middlewares/LVGL/GUI/lvgl/src/core/lv_obj_style_gen.h **** }
 1654              		.loc 2 370 5 is_stmt 0 view .LVU582
 1655              	.LBE273:
 1656              	.LBE272:
 265:Middlewares/LVGL/GUI/lvgl/src/core/lv_obj_draw.c ****     }
 1657              		.loc 1 265 28 view .LVU583
 1658 00a4 E060     		str	r0, [r4, #12]
 1659 00a6 DEE7     		b	.L41
 1660              		.cfi_endproc
 1661              	.LFE162:
 1663              		.section	.text.lv_obj_init_draw_arc_dsc,"ax",%progbits
 1664              		.align	1
 1665              		.global	lv_obj_init_draw_arc_dsc
 1666              		.syntax unified
 1667              		.thumb
 1668              		.thumb_func
 1670              	lv_obj_init_draw_arc_dsc:
 1671              	.LVL165:
 1672              	.LFB163:
 275:Middlewares/LVGL/GUI/lvgl/src/core/lv_obj_draw.c **** 
 276:Middlewares/LVGL/GUI/lvgl/src/core/lv_obj_draw.c **** void lv_obj_init_draw_arc_dsc(lv_obj_t * obj, uint32_t part, lv_draw_arc_dsc_t * draw_dsc)
 277:Middlewares/LVGL/GUI/lvgl/src/core/lv_obj_draw.c **** {
 1673              		.loc 1 277 1 is_stmt 1 view -0
 1674              		.cfi_startproc
 1675              		@ args = 0, pretend = 0, frame = 0
 1676              		@ frame_needed = 0, uses_anonymous_args = 0
 1677              		.loc 1 277 1 is_stmt 0 view .LVU585
 1678 0000 70B5     		push	{r4, r5, r6, lr}
 1679              	.LCFI4:
 1680              		.cfi_def_cfa_offset 16
 1681              		.cfi_offset 4, -16
 1682              		.cfi_offset 5, -12
 1683              		.cfi_offset 6, -8
 1684              		.cfi_offset 14, -4
 1685 0002 0546     		mov	r5, r0
 1686 0004 0E46     		mov	r6, r1
 1687 0006 1446     		mov	r4, r2
 278:Middlewares/LVGL/GUI/lvgl/src/core/lv_obj_draw.c ****     draw_dsc->width = lv_obj_get_style_arc_width(obj, part);
 1688              		.loc 1 278 5 is_stmt 1 view .LVU586
 1689              	.LVL166:
 1690              	.LBB274:
 1691              	.LBI274:
 397:Middlewares/LVGL/GUI/lvgl/src/core/lv_obj_style_gen.h **** {
 1692              		.loc 2 397 26 view .LVU587
 1693              	.LBB275:
 399:Middlewares/LVGL/GUI/lvgl/src/core/lv_obj_style_gen.h ****     return (lv_coord_t)v.num;
ARM GAS  C:\Users\ADMINI~1\AppData\Local\Temp\cc386Zoq.s 			page 56


 1694              		.loc 2 399 5 view .LVU588
 399:Middlewares/LVGL/GUI/lvgl/src/core/lv_obj_style_gen.h ****     return (lv_coord_t)v.num;
 1695              		.loc 2 399 26 is_stmt 0 view .LVU589
 1696 0008 4FF40562 		mov	r2, #2128
 1697              	.LVL167:
 399:Middlewares/LVGL/GUI/lvgl/src/core/lv_obj_style_gen.h ****     return (lv_coord_t)v.num;
 1698              		.loc 2 399 26 view .LVU590
 1699 000c FFF7FEFF 		bl	lv_obj_get_style_prop
 1700              	.LVL168:
 400:Middlewares/LVGL/GUI/lvgl/src/core/lv_obj_style_gen.h **** }
 1701              		.loc 2 400 5 is_stmt 1 view .LVU591
 400:Middlewares/LVGL/GUI/lvgl/src/core/lv_obj_style_gen.h **** }
 1702              		.loc 2 400 5 is_stmt 0 view .LVU592
 1703              	.LBE275:
 1704              	.LBE274:
 1705              		.loc 1 278 21 view .LVU593
 1706 0010 6060     		str	r0, [r4, #4]
 279:Middlewares/LVGL/GUI/lvgl/src/core/lv_obj_draw.c ****     if(draw_dsc->width == 0) return;
 1707              		.loc 1 279 5 is_stmt 1 view .LVU594
 1708              		.loc 1 279 7 is_stmt 0 view .LVU595
 1709 0012 00B9     		cbnz	r0, .L49
 1710              	.L45:
 280:Middlewares/LVGL/GUI/lvgl/src/core/lv_obj_draw.c **** 
 281:Middlewares/LVGL/GUI/lvgl/src/core/lv_obj_draw.c ****     draw_dsc->opa = lv_obj_get_style_arc_opa(obj, part);
 282:Middlewares/LVGL/GUI/lvgl/src/core/lv_obj_draw.c ****     if(draw_dsc->opa <= LV_OPA_MIN)  return;
 283:Middlewares/LVGL/GUI/lvgl/src/core/lv_obj_draw.c **** 
 284:Middlewares/LVGL/GUI/lvgl/src/core/lv_obj_draw.c ****     lv_opa_t opa = lv_obj_get_style_opa(obj, part);
 285:Middlewares/LVGL/GUI/lvgl/src/core/lv_obj_draw.c ****     if(opa < LV_OPA_MAX) {
 286:Middlewares/LVGL/GUI/lvgl/src/core/lv_obj_draw.c ****         draw_dsc->opa = (uint16_t)((uint16_t)draw_dsc->opa * opa) >> 8;
 287:Middlewares/LVGL/GUI/lvgl/src/core/lv_obj_draw.c ****     }
 288:Middlewares/LVGL/GUI/lvgl/src/core/lv_obj_draw.c ****     if(draw_dsc->opa <= LV_OPA_MIN)  return;
 289:Middlewares/LVGL/GUI/lvgl/src/core/lv_obj_draw.c **** 
 290:Middlewares/LVGL/GUI/lvgl/src/core/lv_obj_draw.c ****     draw_dsc->color = lv_obj_get_style_arc_color_filtered(obj, part);
 291:Middlewares/LVGL/GUI/lvgl/src/core/lv_obj_draw.c ****     draw_dsc->img_src = lv_obj_get_style_arc_img_src(obj, part);
 292:Middlewares/LVGL/GUI/lvgl/src/core/lv_obj_draw.c **** 
 293:Middlewares/LVGL/GUI/lvgl/src/core/lv_obj_draw.c ****     draw_dsc->rounded = lv_obj_get_style_arc_rounded(obj, part);
 294:Middlewares/LVGL/GUI/lvgl/src/core/lv_obj_draw.c **** 
 295:Middlewares/LVGL/GUI/lvgl/src/core/lv_obj_draw.c **** #if LV_DRAW_COMPLEX
 296:Middlewares/LVGL/GUI/lvgl/src/core/lv_obj_draw.c ****     draw_dsc->blend_mode = lv_obj_get_style_blend_mode(obj, part);
 297:Middlewares/LVGL/GUI/lvgl/src/core/lv_obj_draw.c **** #endif
 298:Middlewares/LVGL/GUI/lvgl/src/core/lv_obj_draw.c **** }
 1711              		.loc 1 298 1 view .LVU596
 1712 0014 70BD     		pop	{r4, r5, r6, pc}
 1713              	.LVL169:
 1714              	.L49:
 281:Middlewares/LVGL/GUI/lvgl/src/core/lv_obj_draw.c ****     if(draw_dsc->opa <= LV_OPA_MIN)  return;
 1715              		.loc 1 281 5 is_stmt 1 view .LVU597
 1716              	.LBB276:
 1717              	.LBI276:
 421:Middlewares/LVGL/GUI/lvgl/src/core/lv_obj_style_gen.h **** {
 1718              		.loc 2 421 24 view .LVU598
 1719              	.LBB277:
 423:Middlewares/LVGL/GUI/lvgl/src/core/lv_obj_style_gen.h ****     return (lv_opa_t)v.num;
 1720              		.loc 2 423 5 view .LVU599
 423:Middlewares/LVGL/GUI/lvgl/src/core/lv_obj_style_gen.h ****     return (lv_opa_t)v.num;
 1721              		.loc 2 423 26 is_stmt 0 view .LVU600
 1722 0016 5322     		movs	r2, #83
ARM GAS  C:\Users\ADMINI~1\AppData\Local\Temp\cc386Zoq.s 			page 57


 1723 0018 3146     		mov	r1, r6
 1724 001a 2846     		mov	r0, r5
 1725              	.LVL170:
 423:Middlewares/LVGL/GUI/lvgl/src/core/lv_obj_style_gen.h ****     return (lv_opa_t)v.num;
 1726              		.loc 2 423 26 view .LVU601
 1727 001c FFF7FEFF 		bl	lv_obj_get_style_prop
 1728              	.LVL171:
 424:Middlewares/LVGL/GUI/lvgl/src/core/lv_obj_style_gen.h **** }
 1729              		.loc 2 424 5 is_stmt 1 view .LVU602
 424:Middlewares/LVGL/GUI/lvgl/src/core/lv_obj_style_gen.h **** }
 1730              		.loc 2 424 12 is_stmt 0 view .LVU603
 1731 0020 C3B2     		uxtb	r3, r0
 1732              	.LVL172:
 424:Middlewares/LVGL/GUI/lvgl/src/core/lv_obj_style_gen.h **** }
 1733              		.loc 2 424 12 view .LVU604
 1734              	.LBE277:
 1735              	.LBE276:
 281:Middlewares/LVGL/GUI/lvgl/src/core/lv_obj_draw.c ****     if(draw_dsc->opa <= LV_OPA_MIN)  return;
 1736              		.loc 1 281 19 view .LVU605
 1737 0022 2374     		strb	r3, [r4, #16]
 282:Middlewares/LVGL/GUI/lvgl/src/core/lv_obj_draw.c **** 
 1738              		.loc 1 282 5 is_stmt 1 view .LVU606
 282:Middlewares/LVGL/GUI/lvgl/src/core/lv_obj_draw.c **** 
 1739              		.loc 1 282 7 is_stmt 0 view .LVU607
 1740 0024 022B     		cmp	r3, #2
 1741 0026 F5D9     		bls	.L45
 284:Middlewares/LVGL/GUI/lvgl/src/core/lv_obj_draw.c ****     if(opa < LV_OPA_MAX) {
 1742              		.loc 1 284 5 is_stmt 1 view .LVU608
 1743              	.LVL173:
 1744              	.LBB278:
 1745              	.LBI278:
 493:Middlewares/LVGL/GUI/lvgl/src/core/lv_obj_style_gen.h **** {
 1746              		.loc 2 493 24 view .LVU609
 1747              	.LBB279:
 495:Middlewares/LVGL/GUI/lvgl/src/core/lv_obj_style_gen.h ****     return (lv_opa_t)v.num;
 1748              		.loc 2 495 5 view .LVU610
 495:Middlewares/LVGL/GUI/lvgl/src/core/lv_obj_style_gen.h ****     return (lv_opa_t)v.num;
 1749              		.loc 2 495 26 is_stmt 0 view .LVU611
 1750 0028 40F26242 		movw	r2, #1122
 1751 002c 3146     		mov	r1, r6
 1752 002e 2846     		mov	r0, r5
 1753 0030 FFF7FEFF 		bl	lv_obj_get_style_prop
 1754              	.LVL174:
 496:Middlewares/LVGL/GUI/lvgl/src/core/lv_obj_style_gen.h **** }
 1755              		.loc 2 496 5 is_stmt 1 view .LVU612
 496:Middlewares/LVGL/GUI/lvgl/src/core/lv_obj_style_gen.h **** }
 1756              		.loc 2 496 12 is_stmt 0 view .LVU613
 1757 0034 C0B2     		uxtb	r0, r0
 1758              	.LVL175:
 496:Middlewares/LVGL/GUI/lvgl/src/core/lv_obj_style_gen.h **** }
 1759              		.loc 2 496 12 view .LVU614
 1760              	.LBE279:
 1761              	.LBE278:
 285:Middlewares/LVGL/GUI/lvgl/src/core/lv_obj_draw.c ****         draw_dsc->opa = (uint16_t)((uint16_t)draw_dsc->opa * opa) >> 8;
 1762              		.loc 1 285 5 is_stmt 1 view .LVU615
 285:Middlewares/LVGL/GUI/lvgl/src/core/lv_obj_draw.c ****         draw_dsc->opa = (uint16_t)((uint16_t)draw_dsc->opa * opa) >> 8;
 1763              		.loc 1 285 7 is_stmt 0 view .LVU616
ARM GAS  C:\Users\ADMINI~1\AppData\Local\Temp\cc386Zoq.s 			page 58


 1764 0036 FC28     		cmp	r0, #252
 1765 0038 04D8     		bhi	.L47
 286:Middlewares/LVGL/GUI/lvgl/src/core/lv_obj_draw.c ****     }
 1766              		.loc 1 286 9 is_stmt 1 view .LVU617
 286:Middlewares/LVGL/GUI/lvgl/src/core/lv_obj_draw.c ****     }
 1767              		.loc 1 286 54 is_stmt 0 view .LVU618
 1768 003a 237C     		ldrb	r3, [r4, #16]	@ zero_extendqisi2
 286:Middlewares/LVGL/GUI/lvgl/src/core/lv_obj_draw.c ****     }
 1769              		.loc 1 286 25 view .LVU619
 1770 003c 03FB00F0 		mul	r0, r3, r0
 1771              	.LVL176:
 286:Middlewares/LVGL/GUI/lvgl/src/core/lv_obj_draw.c ****     }
 1772              		.loc 1 286 23 view .LVU620
 1773 0040 000A     		lsrs	r0, r0, #8
 1774 0042 2074     		strb	r0, [r4, #16]
 1775              	.L47:
 288:Middlewares/LVGL/GUI/lvgl/src/core/lv_obj_draw.c **** 
 1776              		.loc 1 288 5 is_stmt 1 view .LVU621
 288:Middlewares/LVGL/GUI/lvgl/src/core/lv_obj_draw.c **** 
 1777              		.loc 1 288 16 is_stmt 0 view .LVU622
 1778 0044 237C     		ldrb	r3, [r4, #16]	@ zero_extendqisi2
 288:Middlewares/LVGL/GUI/lvgl/src/core/lv_obj_draw.c **** 
 1779              		.loc 1 288 7 view .LVU623
 1780 0046 022B     		cmp	r3, #2
 1781 0048 E4D9     		bls	.L45
 290:Middlewares/LVGL/GUI/lvgl/src/core/lv_obj_draw.c ****     draw_dsc->img_src = lv_obj_get_style_arc_img_src(obj, part);
 1782              		.loc 1 290 5 is_stmt 1 view .LVU624
 1783              	.LVL177:
 1784              	.LBB280:
 1785              	.LBI280:
 415:Middlewares/LVGL/GUI/lvgl/src/core/lv_obj_style_gen.h **** {
 1786              		.loc 2 415 26 view .LVU625
 1787              	.LBB281:
 417:Middlewares/LVGL/GUI/lvgl/src/core/lv_obj_style_gen.h ****     return v.color;
 1788              		.loc 2 417 5 view .LVU626
 417:Middlewares/LVGL/GUI/lvgl/src/core/lv_obj_style_gen.h ****     return v.color;
 1789              		.loc 2 417 26 is_stmt 0 view .LVU627
 1790 004a 44F25202 		movw	r2, #16466
 1791 004e 3146     		mov	r1, r6
 1792 0050 2846     		mov	r0, r5
 1793 0052 FFF7FEFF 		bl	lv_obj_get_style_prop
 1794              	.LVL178:
 418:Middlewares/LVGL/GUI/lvgl/src/core/lv_obj_style_gen.h **** }
 1795              		.loc 2 418 5 is_stmt 1 view .LVU628
 418:Middlewares/LVGL/GUI/lvgl/src/core/lv_obj_style_gen.h **** }
 1796              		.loc 2 418 5 is_stmt 0 view .LVU629
 1797              	.LBE281:
 1798              	.LBE280:
 290:Middlewares/LVGL/GUI/lvgl/src/core/lv_obj_draw.c ****     draw_dsc->img_src = lv_obj_get_style_arc_img_src(obj, part);
 1799              		.loc 1 290 23 view .LVU630
 1800 0056 2080     		strh	r0, [r4]	@ movhi
 291:Middlewares/LVGL/GUI/lvgl/src/core/lv_obj_draw.c **** 
 1801              		.loc 1 291 5 is_stmt 1 view .LVU631
 1802              	.LVL179:
 1803              	.LBB282:
 1804              	.LBI282:
 427:Middlewares/LVGL/GUI/lvgl/src/core/lv_obj_style_gen.h **** {
ARM GAS  C:\Users\ADMINI~1\AppData\Local\Temp\cc386Zoq.s 			page 59


 1805              		.loc 2 427 28 view .LVU632
 1806              	.LBB283:
 429:Middlewares/LVGL/GUI/lvgl/src/core/lv_obj_style_gen.h ****     return (const void *)v.ptr;
 1807              		.loc 2 429 5 view .LVU633
 429:Middlewares/LVGL/GUI/lvgl/src/core/lv_obj_style_gen.h ****     return (const void *)v.ptr;
 1808              		.loc 2 429 26 is_stmt 0 view .LVU634
 1809 0058 5422     		movs	r2, #84
 1810 005a 3146     		mov	r1, r6
 1811 005c 2846     		mov	r0, r5
 1812 005e FFF7FEFF 		bl	lv_obj_get_style_prop
 1813              	.LVL180:
 430:Middlewares/LVGL/GUI/lvgl/src/core/lv_obj_style_gen.h **** }
 1814              		.loc 2 430 5 is_stmt 1 view .LVU635
 430:Middlewares/LVGL/GUI/lvgl/src/core/lv_obj_style_gen.h **** }
 1815              		.loc 2 430 5 is_stmt 0 view .LVU636
 1816              	.LBE283:
 1817              	.LBE282:
 291:Middlewares/LVGL/GUI/lvgl/src/core/lv_obj_draw.c **** 
 1818              		.loc 1 291 23 view .LVU637
 1819 0062 E060     		str	r0, [r4, #12]
 293:Middlewares/LVGL/GUI/lvgl/src/core/lv_obj_draw.c **** 
 1820              		.loc 1 293 5 is_stmt 1 view .LVU638
 1821              	.LVL181:
 1822              	.LBB284:
 1823              	.LBI284:
 403:Middlewares/LVGL/GUI/lvgl/src/core/lv_obj_style_gen.h **** {
 1824              		.loc 2 403 20 view .LVU639
 1825              	.LBB285:
 405:Middlewares/LVGL/GUI/lvgl/src/core/lv_obj_style_gen.h ****     return (bool)v.num;
 1826              		.loc 2 405 5 view .LVU640
 405:Middlewares/LVGL/GUI/lvgl/src/core/lv_obj_style_gen.h ****     return (bool)v.num;
 1827              		.loc 2 405 26 is_stmt 0 view .LVU641
 1828 0064 5122     		movs	r2, #81
 1829 0066 3146     		mov	r1, r6
 1830 0068 2846     		mov	r0, r5
 1831 006a FFF7FEFF 		bl	lv_obj_get_style_prop
 1832              	.LVL182:
 406:Middlewares/LVGL/GUI/lvgl/src/core/lv_obj_style_gen.h **** }
 1833              		.loc 2 406 5 is_stmt 1 view .LVU642
 406:Middlewares/LVGL/GUI/lvgl/src/core/lv_obj_style_gen.h **** }
 1834              		.loc 2 406 12 is_stmt 0 view .LVU643
 1835 006e 0038     		subs	r0, r0, #0
 1836 0070 18BF     		it	ne
 1837 0072 0120     		movne	r0, #1
 1838              	.LVL183:
 406:Middlewares/LVGL/GUI/lvgl/src/core/lv_obj_style_gen.h **** }
 1839              		.loc 2 406 12 view .LVU644
 1840              	.LBE285:
 1841              	.LBE284:
 293:Middlewares/LVGL/GUI/lvgl/src/core/lv_obj_draw.c **** 
 1842              		.loc 1 293 23 view .LVU645
 1843 0074 637C     		ldrb	r3, [r4, #17]	@ zero_extendqisi2
 1844 0076 60F38203 		bfi	r3, r0, #2, #1
 1845 007a 6374     		strb	r3, [r4, #17]
 296:Middlewares/LVGL/GUI/lvgl/src/core/lv_obj_draw.c **** #endif
 1846              		.loc 1 296 5 is_stmt 1 view .LVU646
 1847              	.LVL184:
ARM GAS  C:\Users\ADMINI~1\AppData\Local\Temp\cc386Zoq.s 			page 60


 1848              	.LBB286:
 1849              	.LBI286:
 530:Middlewares/LVGL/GUI/lvgl/src/core/lv_obj_style_gen.h **** {
 1850              		.loc 2 530 31 view .LVU647
 1851              	.LBB287:
 532:Middlewares/LVGL/GUI/lvgl/src/core/lv_obj_style_gen.h ****     return (lv_blend_mode_t)v.num;
 1852              		.loc 2 532 5 view .LVU648
 532:Middlewares/LVGL/GUI/lvgl/src/core/lv_obj_style_gen.h ****     return (lv_blend_mode_t)v.num;
 1853              		.loc 2 532 26 is_stmt 0 view .LVU649
 1854 007c 6822     		movs	r2, #104
 1855 007e 3146     		mov	r1, r6
 1856 0080 2846     		mov	r0, r5
 1857 0082 FFF7FEFF 		bl	lv_obj_get_style_prop
 1858              	.LVL185:
 1859              		.loc 2 533 5 is_stmt 1 view .LVU650
 1860              		.loc 2 533 5 is_stmt 0 view .LVU651
 1861              	.LBE287:
 1862              	.LBE286:
 296:Middlewares/LVGL/GUI/lvgl/src/core/lv_obj_draw.c **** #endif
 1863              		.loc 1 296 26 view .LVU652
 1864 0086 637C     		ldrb	r3, [r4, #17]	@ zero_extendqisi2
 1865 0088 60F30103 		bfi	r3, r0, #0, #2
 1866 008c 6374     		strb	r3, [r4, #17]
 1867 008e C1E7     		b	.L45
 1868              		.cfi_endproc
 1869              	.LFE163:
 1871              		.section	.text.lv_obj_calculate_ext_draw_size,"ax",%progbits
 1872              		.align	1
 1873              		.global	lv_obj_calculate_ext_draw_size
 1874              		.syntax unified
 1875              		.thumb
 1876              		.thumb_func
 1878              	lv_obj_calculate_ext_draw_size:
 1879              	.LVL186:
 1880              	.LFB164:
 299:Middlewares/LVGL/GUI/lvgl/src/core/lv_obj_draw.c **** 
 300:Middlewares/LVGL/GUI/lvgl/src/core/lv_obj_draw.c **** lv_coord_t lv_obj_calculate_ext_draw_size(lv_obj_t * obj, uint32_t part)
 301:Middlewares/LVGL/GUI/lvgl/src/core/lv_obj_draw.c **** {
 1881              		.loc 1 301 1 is_stmt 1 view -0
 1882              		.cfi_startproc
 1883              		@ args = 0, pretend = 0, frame = 0
 1884              		@ frame_needed = 0, uses_anonymous_args = 0
 1885              		.loc 1 301 1 is_stmt 0 view .LVU654
 1886 0000 F8B5     		push	{r3, r4, r5, r6, r7, lr}
 1887              	.LCFI5:
 1888              		.cfi_def_cfa_offset 24
 1889              		.cfi_offset 3, -24
 1890              		.cfi_offset 4, -20
 1891              		.cfi_offset 5, -16
 1892              		.cfi_offset 6, -12
 1893              		.cfi_offset 7, -8
 1894              		.cfi_offset 14, -4
 1895 0002 0446     		mov	r4, r0
 1896 0004 0D46     		mov	r5, r1
 302:Middlewares/LVGL/GUI/lvgl/src/core/lv_obj_draw.c ****     lv_coord_t s = 0;
 1897              		.loc 1 302 5 is_stmt 1 view .LVU655
 1898              	.LVL187:
ARM GAS  C:\Users\ADMINI~1\AppData\Local\Temp\cc386Zoq.s 			page 61


 303:Middlewares/LVGL/GUI/lvgl/src/core/lv_obj_draw.c **** 
 304:Middlewares/LVGL/GUI/lvgl/src/core/lv_obj_draw.c ****     lv_coord_t sh_width = lv_obj_get_style_shadow_width(obj, part);
 1899              		.loc 1 304 5 view .LVU656
 1900              	.LBB288:
 1901              	.LBI288:
 289:Middlewares/LVGL/GUI/lvgl/src/core/lv_obj_style_gen.h **** {
 1902              		.loc 2 289 26 view .LVU657
 1903              	.LBB289:
 291:Middlewares/LVGL/GUI/lvgl/src/core/lv_obj_style_gen.h ****     return (lv_coord_t)v.num;
 1904              		.loc 2 291 5 view .LVU658
 291:Middlewares/LVGL/GUI/lvgl/src/core/lv_obj_style_gen.h ****     return (lv_coord_t)v.num;
 1905              		.loc 2 291 26 is_stmt 0 view .LVU659
 1906 0006 4FF40462 		mov	r2, #2112
 1907 000a FFF7FEFF 		bl	lv_obj_get_style_prop
 1908              	.LVL188:
 292:Middlewares/LVGL/GUI/lvgl/src/core/lv_obj_style_gen.h **** }
 1909              		.loc 2 292 5 is_stmt 1 view .LVU660
 292:Middlewares/LVGL/GUI/lvgl/src/core/lv_obj_style_gen.h **** }
 1910              		.loc 2 292 5 is_stmt 0 view .LVU661
 1911              	.LBE289:
 1912              	.LBE288:
 305:Middlewares/LVGL/GUI/lvgl/src/core/lv_obj_draw.c ****     if(sh_width) {
 1913              		.loc 1 305 5 is_stmt 1 view .LVU662
 1914              		.loc 1 305 7 is_stmt 0 view .LVU663
 1915 000e 0646     		mov	r6, r0
 1916 0010 E8B9     		cbnz	r0, .L56
 1917              	.LVL189:
 1918              	.L51:
 306:Middlewares/LVGL/GUI/lvgl/src/core/lv_obj_draw.c ****         lv_opa_t sh_opa = lv_obj_get_style_shadow_opa(obj, part);
 307:Middlewares/LVGL/GUI/lvgl/src/core/lv_obj_draw.c ****         if(sh_opa > LV_OPA_MIN) {
 308:Middlewares/LVGL/GUI/lvgl/src/core/lv_obj_draw.c ****             sh_width = sh_width / 2 + 1;    /*The blur adds only half width*/
 309:Middlewares/LVGL/GUI/lvgl/src/core/lv_obj_draw.c ****             sh_width += lv_obj_get_style_shadow_spread(obj, part);
 310:Middlewares/LVGL/GUI/lvgl/src/core/lv_obj_draw.c ****             lv_coord_t sh_ofs_x = lv_obj_get_style_shadow_ofs_x(obj, part);
 311:Middlewares/LVGL/GUI/lvgl/src/core/lv_obj_draw.c ****             lv_coord_t sh_ofs_y = lv_obj_get_style_shadow_ofs_y(obj, part);
 312:Middlewares/LVGL/GUI/lvgl/src/core/lv_obj_draw.c ****             sh_width += LV_MAX(LV_ABS(sh_ofs_x), LV_ABS(sh_ofs_y));
 313:Middlewares/LVGL/GUI/lvgl/src/core/lv_obj_draw.c ****             s = LV_MAX(s, sh_width);
 314:Middlewares/LVGL/GUI/lvgl/src/core/lv_obj_draw.c ****         }
 315:Middlewares/LVGL/GUI/lvgl/src/core/lv_obj_draw.c ****     }
 316:Middlewares/LVGL/GUI/lvgl/src/core/lv_obj_draw.c **** 
 317:Middlewares/LVGL/GUI/lvgl/src/core/lv_obj_draw.c ****     lv_coord_t outline_width = lv_obj_get_style_outline_width(obj, part);
 1919              		.loc 1 317 5 is_stmt 1 view .LVU664
 1920              	.LBB290:
 1921              	.LBI290:
 259:Middlewares/LVGL/GUI/lvgl/src/core/lv_obj_style_gen.h **** {
 1922              		.loc 2 259 26 view .LVU665
 1923              	.LBB291:
 261:Middlewares/LVGL/GUI/lvgl/src/core/lv_obj_style_gen.h ****     return (lv_coord_t)v.num;
 1924              		.loc 2 261 5 view .LVU666
 261:Middlewares/LVGL/GUI/lvgl/src/core/lv_obj_style_gen.h ****     return (lv_coord_t)v.num;
 1925              		.loc 2 261 26 is_stmt 0 view .LVU667
 1926 0012 40F63A02 		movw	r2, #2106
 1927 0016 2946     		mov	r1, r5
 1928 0018 2046     		mov	r0, r4
 1929 001a FFF7FEFF 		bl	lv_obj_get_style_prop
 1930              	.LVL190:
 262:Middlewares/LVGL/GUI/lvgl/src/core/lv_obj_style_gen.h **** }
 1931              		.loc 2 262 5 is_stmt 1 view .LVU668
ARM GAS  C:\Users\ADMINI~1\AppData\Local\Temp\cc386Zoq.s 			page 62


 262:Middlewares/LVGL/GUI/lvgl/src/core/lv_obj_style_gen.h **** }
 1932              		.loc 2 262 5 is_stmt 0 view .LVU669
 1933              	.LBE291:
 1934              	.LBE290:
 318:Middlewares/LVGL/GUI/lvgl/src/core/lv_obj_draw.c ****     if(outline_width) {
 1935              		.loc 1 318 5 is_stmt 1 view .LVU670
 1936              		.loc 1 318 7 is_stmt 0 view .LVU671
 1937 001e 0746     		mov	r7, r0
 1938 0020 0028     		cmp	r0, #0
 1939 0022 44D1     		bne	.L57
 1940              	.LVL191:
 1941              	.L52:
 319:Middlewares/LVGL/GUI/lvgl/src/core/lv_obj_draw.c ****         lv_opa_t outline_opa = lv_obj_get_style_outline_opa(obj, part);
 320:Middlewares/LVGL/GUI/lvgl/src/core/lv_obj_draw.c ****         if(outline_opa > LV_OPA_MIN) {
 321:Middlewares/LVGL/GUI/lvgl/src/core/lv_obj_draw.c ****             lv_coord_t outline_pad = lv_obj_get_style_outline_pad(obj, part);
 322:Middlewares/LVGL/GUI/lvgl/src/core/lv_obj_draw.c ****             s = LV_MAX(s, outline_pad + outline_width);
 323:Middlewares/LVGL/GUI/lvgl/src/core/lv_obj_draw.c ****         }
 324:Middlewares/LVGL/GUI/lvgl/src/core/lv_obj_draw.c ****     }
 325:Middlewares/LVGL/GUI/lvgl/src/core/lv_obj_draw.c **** 
 326:Middlewares/LVGL/GUI/lvgl/src/core/lv_obj_draw.c ****     lv_coord_t w = lv_obj_get_style_transform_width(obj, part);
 1942              		.loc 1 326 5 is_stmt 1 view .LVU672
 1943              	.LBB292:
 1944              	.LBI292:
  55:Middlewares/LVGL/GUI/lvgl/src/core/lv_obj_style_gen.h **** {
 1945              		.loc 2 55 26 view .LVU673
 1946              	.LBB293:
  57:Middlewares/LVGL/GUI/lvgl/src/core/lv_obj_style_gen.h ****     return (lv_coord_t)v.num;
 1947              		.loc 2 57 5 view .LVU674
  57:Middlewares/LVGL/GUI/lvgl/src/core/lv_obj_style_gen.h ****     return (lv_coord_t)v.num;
 1948              		.loc 2 57 26 is_stmt 0 view .LVU675
 1949 0024 40F60A02 		movw	r2, #2058
 1950 0028 2946     		mov	r1, r5
 1951 002a 2046     		mov	r0, r4
 1952 002c FFF7FEFF 		bl	lv_obj_get_style_prop
 1953              	.LVL192:
 1954 0030 0746     		mov	r7, r0
 1955              	.LVL193:
  58:Middlewares/LVGL/GUI/lvgl/src/core/lv_obj_style_gen.h **** }
 1956              		.loc 2 58 5 is_stmt 1 view .LVU676
  58:Middlewares/LVGL/GUI/lvgl/src/core/lv_obj_style_gen.h **** }
 1957              		.loc 2 58 5 is_stmt 0 view .LVU677
 1958              	.LBE293:
 1959              	.LBE292:
 327:Middlewares/LVGL/GUI/lvgl/src/core/lv_obj_draw.c ****     lv_coord_t h = lv_obj_get_style_transform_height(obj, part);
 1960              		.loc 1 327 5 is_stmt 1 view .LVU678
 1961              	.LBB294:
 1962              	.LBI294:
  61:Middlewares/LVGL/GUI/lvgl/src/core/lv_obj_style_gen.h **** {
 1963              		.loc 2 61 26 view .LVU679
 1964              	.LBB295:
  63:Middlewares/LVGL/GUI/lvgl/src/core/lv_obj_style_gen.h ****     return (lv_coord_t)v.num;
 1965              		.loc 2 63 5 view .LVU680
  63:Middlewares/LVGL/GUI/lvgl/src/core/lv_obj_style_gen.h ****     return (lv_coord_t)v.num;
 1966              		.loc 2 63 26 is_stmt 0 view .LVU681
 1967 0032 40F60B02 		movw	r2, #2059
 1968 0036 2946     		mov	r1, r5
 1969 0038 2046     		mov	r0, r4
ARM GAS  C:\Users\ADMINI~1\AppData\Local\Temp\cc386Zoq.s 			page 63


 1970              	.LVL194:
  63:Middlewares/LVGL/GUI/lvgl/src/core/lv_obj_style_gen.h ****     return (lv_coord_t)v.num;
 1971              		.loc 2 63 26 view .LVU682
 1972 003a FFF7FEFF 		bl	lv_obj_get_style_prop
 1973              	.LVL195:
  64:Middlewares/LVGL/GUI/lvgl/src/core/lv_obj_style_gen.h **** }
 1974              		.loc 2 64 5 is_stmt 1 view .LVU683
  64:Middlewares/LVGL/GUI/lvgl/src/core/lv_obj_style_gen.h **** }
 1975              		.loc 2 64 5 is_stmt 0 view .LVU684
 1976              	.LBE295:
 1977              	.LBE294:
 328:Middlewares/LVGL/GUI/lvgl/src/core/lv_obj_draw.c ****     lv_coord_t wh = LV_MAX(w, h);
 1978              		.loc 1 328 5 is_stmt 1 view .LVU685
 1979              		.loc 1 328 16 is_stmt 0 view .LVU686
 1980 003e B842     		cmp	r0, r7
 1981 0040 B8BF     		it	lt
 1982 0042 3846     		movlt	r0, r7
 1983              	.LVL196:
 329:Middlewares/LVGL/GUI/lvgl/src/core/lv_obj_draw.c ****     if(wh > 0) s += wh;
 1984              		.loc 1 329 5 is_stmt 1 view .LVU687
 1985              		.loc 1 329 7 is_stmt 0 view .LVU688
 1986 0044 0028     		cmp	r0, #0
 1987 0046 00DD     		ble	.L50
 1988              		.loc 1 329 16 is_stmt 1 discriminator 1 view .LVU689
 1989              		.loc 1 329 18 is_stmt 0 discriminator 1 view .LVU690
 1990 0048 0644     		add	r6, r6, r0
 1991              	.LVL197:
 330:Middlewares/LVGL/GUI/lvgl/src/core/lv_obj_draw.c **** 
 331:Middlewares/LVGL/GUI/lvgl/src/core/lv_obj_draw.c ****     return s;
 1992              		.loc 1 331 5 is_stmt 1 discriminator 1 view .LVU691
 1993              	.L50:
 332:Middlewares/LVGL/GUI/lvgl/src/core/lv_obj_draw.c **** }
 1994              		.loc 1 332 1 is_stmt 0 view .LVU692
 1995 004a 3046     		mov	r0, r6
 1996              	.LVL198:
 1997              		.loc 1 332 1 view .LVU693
 1998 004c F8BD     		pop	{r3, r4, r5, r6, r7, pc}
 1999              	.LVL199:
 2000              	.L56:
 2001              	.LBB296:
 306:Middlewares/LVGL/GUI/lvgl/src/core/lv_obj_draw.c ****         if(sh_opa > LV_OPA_MIN) {
 2002              		.loc 1 306 9 is_stmt 1 view .LVU694
 2003              	.LBB297:
 2004              	.LBI297:
 325:Middlewares/LVGL/GUI/lvgl/src/core/lv_obj_style_gen.h **** {
 2005              		.loc 2 325 24 view .LVU695
 2006              	.LBB298:
 327:Middlewares/LVGL/GUI/lvgl/src/core/lv_obj_style_gen.h ****     return (lv_opa_t)v.num;
 2007              		.loc 2 327 5 view .LVU696
 327:Middlewares/LVGL/GUI/lvgl/src/core/lv_obj_style_gen.h ****     return (lv_opa_t)v.num;
 2008              		.loc 2 327 26 is_stmt 0 view .LVU697
 2009 004e 40F64502 		movw	r2, #2117
 2010 0052 2946     		mov	r1, r5
 2011 0054 2046     		mov	r0, r4
 2012              	.LVL200:
 327:Middlewares/LVGL/GUI/lvgl/src/core/lv_obj_style_gen.h ****     return (lv_opa_t)v.num;
 2013              		.loc 2 327 26 view .LVU698
ARM GAS  C:\Users\ADMINI~1\AppData\Local\Temp\cc386Zoq.s 			page 64


 2014 0056 FFF7FEFF 		bl	lv_obj_get_style_prop
 2015              	.LVL201:
 328:Middlewares/LVGL/GUI/lvgl/src/core/lv_obj_style_gen.h **** }
 2016              		.loc 2 328 5 is_stmt 1 view .LVU699
 328:Middlewares/LVGL/GUI/lvgl/src/core/lv_obj_style_gen.h **** }
 2017              		.loc 2 328 12 is_stmt 0 view .LVU700
 2018 005a C0B2     		uxtb	r0, r0
 2019              	.LVL202:
 328:Middlewares/LVGL/GUI/lvgl/src/core/lv_obj_style_gen.h **** }
 2020              		.loc 2 328 12 view .LVU701
 2021              	.LBE298:
 2022              	.LBE297:
 307:Middlewares/LVGL/GUI/lvgl/src/core/lv_obj_draw.c ****             sh_width = sh_width / 2 + 1;    /*The blur adds only half width*/
 2023              		.loc 1 307 9 is_stmt 1 view .LVU702
 307:Middlewares/LVGL/GUI/lvgl/src/core/lv_obj_draw.c ****             sh_width = sh_width / 2 + 1;    /*The blur adds only half width*/
 2024              		.loc 1 307 11 is_stmt 0 view .LVU703
 2025 005c 0228     		cmp	r0, #2
 2026 005e 01D8     		bhi	.L58
 2027              	.LBE296:
 302:Middlewares/LVGL/GUI/lvgl/src/core/lv_obj_draw.c **** 
 2028              		.loc 1 302 16 view .LVU704
 2029 0060 0026     		movs	r6, #0
 2030              	.LVL203:
 302:Middlewares/LVGL/GUI/lvgl/src/core/lv_obj_draw.c **** 
 2031              		.loc 1 302 16 view .LVU705
 2032 0062 D6E7     		b	.L51
 2033              	.LVL204:
 2034              	.L58:
 2035              	.LBB306:
 2036              	.LBB299:
 308:Middlewares/LVGL/GUI/lvgl/src/core/lv_obj_draw.c ****             sh_width += lv_obj_get_style_shadow_spread(obj, part);
 2037              		.loc 1 308 13 is_stmt 1 view .LVU706
 308:Middlewares/LVGL/GUI/lvgl/src/core/lv_obj_draw.c ****             sh_width += lv_obj_get_style_shadow_spread(obj, part);
 2038              		.loc 1 308 33 is_stmt 0 view .LVU707
 2039 0064 06EBD676 		add	r6, r6, r6, lsr #31
 2040              	.LVL205:
 308:Middlewares/LVGL/GUI/lvgl/src/core/lv_obj_draw.c ****             sh_width += lv_obj_get_style_shadow_spread(obj, part);
 2041              		.loc 1 308 33 view .LVU708
 2042 0068 7610     		asrs	r6, r6, #1
 308:Middlewares/LVGL/GUI/lvgl/src/core/lv_obj_draw.c ****             sh_width += lv_obj_get_style_shadow_spread(obj, part);
 2043              		.loc 1 308 22 view .LVU709
 2044 006a 0136     		adds	r6, r6, #1
 2045              	.LVL206:
 309:Middlewares/LVGL/GUI/lvgl/src/core/lv_obj_draw.c ****             lv_coord_t sh_ofs_x = lv_obj_get_style_shadow_ofs_x(obj, part);
 2046              		.loc 1 309 13 is_stmt 1 view .LVU710
 2047              	.LBB300:
 2048              	.LBI300:
 307:Middlewares/LVGL/GUI/lvgl/src/core/lv_obj_style_gen.h **** {
 2049              		.loc 2 307 26 view .LVU711
 2050              	.LBB301:
 309:Middlewares/LVGL/GUI/lvgl/src/core/lv_obj_style_gen.h ****     return (lv_coord_t)v.num;
 2051              		.loc 2 309 5 view .LVU712
 309:Middlewares/LVGL/GUI/lvgl/src/core/lv_obj_style_gen.h ****     return (lv_coord_t)v.num;
 2052              		.loc 2 309 26 is_stmt 0 view .LVU713
 2053 006c 40F64302 		movw	r2, #2115
 2054 0070 2946     		mov	r1, r5
 2055 0072 2046     		mov	r0, r4
ARM GAS  C:\Users\ADMINI~1\AppData\Local\Temp\cc386Zoq.s 			page 65


 2056              	.LVL207:
 309:Middlewares/LVGL/GUI/lvgl/src/core/lv_obj_style_gen.h ****     return (lv_coord_t)v.num;
 2057              		.loc 2 309 26 view .LVU714
 2058 0074 FFF7FEFF 		bl	lv_obj_get_style_prop
 2059              	.LVL208:
 310:Middlewares/LVGL/GUI/lvgl/src/core/lv_obj_style_gen.h **** }
 2060              		.loc 2 310 5 is_stmt 1 view .LVU715
 310:Middlewares/LVGL/GUI/lvgl/src/core/lv_obj_style_gen.h **** }
 2061              		.loc 2 310 5 is_stmt 0 view .LVU716
 2062              	.LBE301:
 2063              	.LBE300:
 309:Middlewares/LVGL/GUI/lvgl/src/core/lv_obj_draw.c ****             lv_coord_t sh_ofs_x = lv_obj_get_style_shadow_ofs_x(obj, part);
 2064              		.loc 1 309 22 view .LVU717
 2065 0078 0644     		add	r6, r6, r0
 2066              	.LVL209:
 310:Middlewares/LVGL/GUI/lvgl/src/core/lv_obj_draw.c ****             lv_coord_t sh_ofs_y = lv_obj_get_style_shadow_ofs_y(obj, part);
 2067              		.loc 1 310 13 is_stmt 1 view .LVU718
 2068              	.LBB302:
 2069              	.LBI302:
 295:Middlewares/LVGL/GUI/lvgl/src/core/lv_obj_style_gen.h **** {
 2070              		.loc 2 295 26 view .LVU719
 2071              	.LBB303:
 297:Middlewares/LVGL/GUI/lvgl/src/core/lv_obj_style_gen.h ****     return (lv_coord_t)v.num;
 2072              		.loc 2 297 5 view .LVU720
 297:Middlewares/LVGL/GUI/lvgl/src/core/lv_obj_style_gen.h ****     return (lv_coord_t)v.num;
 2073              		.loc 2 297 26 is_stmt 0 view .LVU721
 2074 007a 40F64102 		movw	r2, #2113
 2075 007e 2946     		mov	r1, r5
 2076 0080 2046     		mov	r0, r4
 2077 0082 FFF7FEFF 		bl	lv_obj_get_style_prop
 2078              	.LVL210:
 2079 0086 0746     		mov	r7, r0
 2080              	.LVL211:
 298:Middlewares/LVGL/GUI/lvgl/src/core/lv_obj_style_gen.h **** }
 2081              		.loc 2 298 5 is_stmt 1 view .LVU722
 298:Middlewares/LVGL/GUI/lvgl/src/core/lv_obj_style_gen.h **** }
 2082              		.loc 2 298 5 is_stmt 0 view .LVU723
 2083              	.LBE303:
 2084              	.LBE302:
 311:Middlewares/LVGL/GUI/lvgl/src/core/lv_obj_draw.c ****             sh_width += LV_MAX(LV_ABS(sh_ofs_x), LV_ABS(sh_ofs_y));
 2085              		.loc 1 311 13 is_stmt 1 view .LVU724
 2086              	.LBB304:
 2087              	.LBI304:
 301:Middlewares/LVGL/GUI/lvgl/src/core/lv_obj_style_gen.h **** {
 2088              		.loc 2 301 26 view .LVU725
 2089              	.LBB305:
 303:Middlewares/LVGL/GUI/lvgl/src/core/lv_obj_style_gen.h ****     return (lv_coord_t)v.num;
 2090              		.loc 2 303 5 view .LVU726
 303:Middlewares/LVGL/GUI/lvgl/src/core/lv_obj_style_gen.h ****     return (lv_coord_t)v.num;
 2091              		.loc 2 303 26 is_stmt 0 view .LVU727
 2092 0088 40F64202 		movw	r2, #2114
 2093 008c 2946     		mov	r1, r5
 2094 008e 2046     		mov	r0, r4
 2095              	.LVL212:
 303:Middlewares/LVGL/GUI/lvgl/src/core/lv_obj_style_gen.h ****     return (lv_coord_t)v.num;
 2096              		.loc 2 303 26 view .LVU728
 2097 0090 FFF7FEFF 		bl	lv_obj_get_style_prop
ARM GAS  C:\Users\ADMINI~1\AppData\Local\Temp\cc386Zoq.s 			page 66


 2098              	.LVL213:
 304:Middlewares/LVGL/GUI/lvgl/src/core/lv_obj_style_gen.h **** }
 2099              		.loc 2 304 5 is_stmt 1 view .LVU729
 304:Middlewares/LVGL/GUI/lvgl/src/core/lv_obj_style_gen.h **** }
 2100              		.loc 2 304 5 is_stmt 0 view .LVU730
 2101              	.LBE305:
 2102              	.LBE304:
 312:Middlewares/LVGL/GUI/lvgl/src/core/lv_obj_draw.c ****             s = LV_MAX(s, sh_width);
 2103              		.loc 1 312 13 is_stmt 1 view .LVU731
 312:Middlewares/LVGL/GUI/lvgl/src/core/lv_obj_draw.c ****             s = LV_MAX(s, sh_width);
 2104              		.loc 1 312 25 is_stmt 0 view .LVU732
 2105 0094 0028     		cmp	r0, #0
 2106 0096 B8BF     		it	lt
 2107 0098 4042     		rsblt	r0, r0, #0
 2108              	.LVL214:
 312:Middlewares/LVGL/GUI/lvgl/src/core/lv_obj_draw.c ****             s = LV_MAX(s, sh_width);
 2109              		.loc 1 312 25 view .LVU733
 2110 009a 002F     		cmp	r7, #0
 2111              	.LVL215:
 312:Middlewares/LVGL/GUI/lvgl/src/core/lv_obj_draw.c ****             s = LV_MAX(s, sh_width);
 2112              		.loc 1 312 25 view .LVU734
 2113 009c B8BF     		it	lt
 2114 009e 7F42     		rsblt	r7, r7, #0
 2115              	.LVL216:
 312:Middlewares/LVGL/GUI/lvgl/src/core/lv_obj_draw.c ****             s = LV_MAX(s, sh_width);
 2116              		.loc 1 312 22 view .LVU735
 2117 00a0 B842     		cmp	r0, r7
 2118 00a2 ACBF     		ite	ge
 2119 00a4 3618     		addge	r6, r6, r0
 2120 00a6 F619     		addlt	r6, r6, r7
 2121              	.LVL217:
 313:Middlewares/LVGL/GUI/lvgl/src/core/lv_obj_draw.c ****         }
 2122              		.loc 1 313 13 is_stmt 1 view .LVU736
 313:Middlewares/LVGL/GUI/lvgl/src/core/lv_obj_draw.c ****         }
 2123              		.loc 1 313 15 is_stmt 0 view .LVU737
 2124 00a8 26EAE676 		bic	r6, r6, r6, asr #31
 2125              	.LVL218:
 313:Middlewares/LVGL/GUI/lvgl/src/core/lv_obj_draw.c ****         }
 2126              		.loc 1 313 15 view .LVU738
 2127 00ac B1E7     		b	.L51
 2128              	.LVL219:
 2129              	.L57:
 313:Middlewares/LVGL/GUI/lvgl/src/core/lv_obj_draw.c ****         }
 2130              		.loc 1 313 15 view .LVU739
 2131              	.LBE299:
 2132              	.LBE306:
 2133              	.LBB307:
 319:Middlewares/LVGL/GUI/lvgl/src/core/lv_obj_draw.c ****         if(outline_opa > LV_OPA_MIN) {
 2134              		.loc 1 319 9 is_stmt 1 view .LVU740
 2135              	.LBB308:
 2136              	.LBI308:
 277:Middlewares/LVGL/GUI/lvgl/src/core/lv_obj_style_gen.h **** {
 2137              		.loc 2 277 24 view .LVU741
 2138              	.LBB309:
 279:Middlewares/LVGL/GUI/lvgl/src/core/lv_obj_style_gen.h ****     return (lv_opa_t)v.num;
 2139              		.loc 2 279 5 view .LVU742
 279:Middlewares/LVGL/GUI/lvgl/src/core/lv_obj_style_gen.h ****     return (lv_opa_t)v.num;
ARM GAS  C:\Users\ADMINI~1\AppData\Local\Temp\cc386Zoq.s 			page 67


 2140              		.loc 2 279 26 is_stmt 0 view .LVU743
 2141 00ae 40F63C02 		movw	r2, #2108
 2142 00b2 2946     		mov	r1, r5
 2143 00b4 2046     		mov	r0, r4
 2144              	.LVL220:
 279:Middlewares/LVGL/GUI/lvgl/src/core/lv_obj_style_gen.h ****     return (lv_opa_t)v.num;
 2145              		.loc 2 279 26 view .LVU744
 2146 00b6 FFF7FEFF 		bl	lv_obj_get_style_prop
 2147              	.LVL221:
 280:Middlewares/LVGL/GUI/lvgl/src/core/lv_obj_style_gen.h **** }
 2148              		.loc 2 280 5 is_stmt 1 view .LVU745
 280:Middlewares/LVGL/GUI/lvgl/src/core/lv_obj_style_gen.h **** }
 2149              		.loc 2 280 12 is_stmt 0 view .LVU746
 2150 00ba C0B2     		uxtb	r0, r0
 2151              	.LVL222:
 280:Middlewares/LVGL/GUI/lvgl/src/core/lv_obj_style_gen.h **** }
 2152              		.loc 2 280 12 view .LVU747
 2153              	.LBE309:
 2154              	.LBE308:
 320:Middlewares/LVGL/GUI/lvgl/src/core/lv_obj_draw.c ****             lv_coord_t outline_pad = lv_obj_get_style_outline_pad(obj, part);
 2155              		.loc 1 320 9 is_stmt 1 view .LVU748
 320:Middlewares/LVGL/GUI/lvgl/src/core/lv_obj_draw.c ****             lv_coord_t outline_pad = lv_obj_get_style_outline_pad(obj, part);
 2156              		.loc 1 320 11 is_stmt 0 view .LVU749
 2157 00bc 0228     		cmp	r0, #2
 2158 00be B1D9     		bls	.L52
 2159              	.LBB310:
 321:Middlewares/LVGL/GUI/lvgl/src/core/lv_obj_draw.c ****             s = LV_MAX(s, outline_pad + outline_width);
 2160              		.loc 1 321 13 is_stmt 1 view .LVU750
 2161              	.LVL223:
 2162              	.LBB311:
 2163              	.LBI311:
 283:Middlewares/LVGL/GUI/lvgl/src/core/lv_obj_style_gen.h **** {
 2164              		.loc 2 283 26 view .LVU751
 2165              	.LBB312:
 285:Middlewares/LVGL/GUI/lvgl/src/core/lv_obj_style_gen.h ****     return (lv_coord_t)v.num;
 2166              		.loc 2 285 5 view .LVU752
 285:Middlewares/LVGL/GUI/lvgl/src/core/lv_obj_style_gen.h ****     return (lv_coord_t)v.num;
 2167              		.loc 2 285 26 is_stmt 0 view .LVU753
 2168 00c0 40F63D02 		movw	r2, #2109
 2169 00c4 2946     		mov	r1, r5
 2170 00c6 2046     		mov	r0, r4
 2171              	.LVL224:
 285:Middlewares/LVGL/GUI/lvgl/src/core/lv_obj_style_gen.h ****     return (lv_coord_t)v.num;
 2172              		.loc 2 285 26 view .LVU754
 2173 00c8 FFF7FEFF 		bl	lv_obj_get_style_prop
 2174              	.LVL225:
 286:Middlewares/LVGL/GUI/lvgl/src/core/lv_obj_style_gen.h **** }
 2175              		.loc 2 286 5 is_stmt 1 view .LVU755
 286:Middlewares/LVGL/GUI/lvgl/src/core/lv_obj_style_gen.h **** }
 2176              		.loc 2 286 5 is_stmt 0 view .LVU756
