ARM GAS  C:\Users\ADMINI~1\AppData\Local\Temp\ccvtjbeI.s 			page 1


   1              		.cpu cortex-m4
   2              		.arch armv7e-m
   3              		.fpu fpv4-sp-d16
   4              		.eabi_attribute 27, 1
   5              		.eabi_attribute 28, 1
   6              		.eabi_attribute 20, 1
   7              		.eabi_attribute 21, 1
   8              		.eabi_attribute 23, 3
   9              		.eabi_attribute 24, 1
  10              		.eabi_attribute 25, 1
  11              		.eabi_attribute 26, 1
  12              		.eabi_attribute 30, 1
  13              		.eabi_attribute 34, 1
  14              		.eabi_attribute 18, 4
  15              		.file	"lv_roller.c"
  16              		.text
  17              	.Ltext0:
  18              		.cfi_sections	.debug_frame
  19              		.section	.text.set_y_anim,"ax",%progbits
  20              		.align	1
  21              		.syntax unified
  22              		.thumb
  23              		.thumb_func
  25              	set_y_anim:
  26              	.LVL0:
  27              	.LFB173:
  28              		.file 1 "Middlewares/LVGL/GUI/lvgl/src/widgets/lv_roller.c"
   1:Middlewares/LVGL/GUI/lvgl/src/widgets/lv_roller.c **** /**
   2:Middlewares/LVGL/GUI/lvgl/src/widgets/lv_roller.c ****  * @file lv_roller.c
   3:Middlewares/LVGL/GUI/lvgl/src/widgets/lv_roller.c ****  *
   4:Middlewares/LVGL/GUI/lvgl/src/widgets/lv_roller.c ****  */
   5:Middlewares/LVGL/GUI/lvgl/src/widgets/lv_roller.c **** 
   6:Middlewares/LVGL/GUI/lvgl/src/widgets/lv_roller.c **** /*********************
   7:Middlewares/LVGL/GUI/lvgl/src/widgets/lv_roller.c ****  *      INCLUDES
   8:Middlewares/LVGL/GUI/lvgl/src/widgets/lv_roller.c ****  *********************/
   9:Middlewares/LVGL/GUI/lvgl/src/widgets/lv_roller.c **** #include "lv_roller.h"
  10:Middlewares/LVGL/GUI/lvgl/src/widgets/lv_roller.c **** #if LV_USE_ROLLER != 0
  11:Middlewares/LVGL/GUI/lvgl/src/widgets/lv_roller.c **** 
  12:Middlewares/LVGL/GUI/lvgl/src/widgets/lv_roller.c **** #include "../misc/lv_assert.h"
  13:Middlewares/LVGL/GUI/lvgl/src/widgets/lv_roller.c **** #include "../draw/lv_draw.h"
  14:Middlewares/LVGL/GUI/lvgl/src/widgets/lv_roller.c **** #include "../core/lv_group.h"
  15:Middlewares/LVGL/GUI/lvgl/src/widgets/lv_roller.c **** #include "../core/lv_indev.h"
  16:Middlewares/LVGL/GUI/lvgl/src/widgets/lv_roller.c **** #include "../core/lv_indev_scroll.h"
  17:Middlewares/LVGL/GUI/lvgl/src/widgets/lv_roller.c **** 
  18:Middlewares/LVGL/GUI/lvgl/src/widgets/lv_roller.c **** /*********************
  19:Middlewares/LVGL/GUI/lvgl/src/widgets/lv_roller.c ****  *      DEFINES
  20:Middlewares/LVGL/GUI/lvgl/src/widgets/lv_roller.c ****  *********************/
  21:Middlewares/LVGL/GUI/lvgl/src/widgets/lv_roller.c **** #define MY_CLASS &lv_roller_class
  22:Middlewares/LVGL/GUI/lvgl/src/widgets/lv_roller.c **** #define MY_CLASS_LABEL &lv_roller_label_class
  23:Middlewares/LVGL/GUI/lvgl/src/widgets/lv_roller.c **** 
  24:Middlewares/LVGL/GUI/lvgl/src/widgets/lv_roller.c **** /**********************
  25:Middlewares/LVGL/GUI/lvgl/src/widgets/lv_roller.c ****  *      TYPEDEFS
  26:Middlewares/LVGL/GUI/lvgl/src/widgets/lv_roller.c ****  **********************/
  27:Middlewares/LVGL/GUI/lvgl/src/widgets/lv_roller.c **** 
  28:Middlewares/LVGL/GUI/lvgl/src/widgets/lv_roller.c **** /**********************
  29:Middlewares/LVGL/GUI/lvgl/src/widgets/lv_roller.c ****  *  STATIC PROTOTYPES
  30:Middlewares/LVGL/GUI/lvgl/src/widgets/lv_roller.c ****  **********************/
ARM GAS  C:\Users\ADMINI~1\AppData\Local\Temp\ccvtjbeI.s 			page 2


  31:Middlewares/LVGL/GUI/lvgl/src/widgets/lv_roller.c **** static void lv_roller_constructor(const lv_obj_class_t * class_p, lv_obj_t * obj);
  32:Middlewares/LVGL/GUI/lvgl/src/widgets/lv_roller.c **** static void lv_roller_event(const lv_obj_class_t * class_p, lv_event_t * e);
  33:Middlewares/LVGL/GUI/lvgl/src/widgets/lv_roller.c **** static void lv_roller_label_event(const lv_obj_class_t * class_p, lv_event_t * e);
  34:Middlewares/LVGL/GUI/lvgl/src/widgets/lv_roller.c **** static void draw_main(lv_event_t * e);
  35:Middlewares/LVGL/GUI/lvgl/src/widgets/lv_roller.c **** static void draw_label(lv_event_t * e);
  36:Middlewares/LVGL/GUI/lvgl/src/widgets/lv_roller.c **** static void get_sel_area(lv_obj_t * obj, lv_area_t * sel_area);
  37:Middlewares/LVGL/GUI/lvgl/src/widgets/lv_roller.c **** static void refr_position(lv_obj_t * obj, lv_anim_enable_t animen);
  38:Middlewares/LVGL/GUI/lvgl/src/widgets/lv_roller.c **** static lv_res_t release_handler(lv_obj_t * obj);
  39:Middlewares/LVGL/GUI/lvgl/src/widgets/lv_roller.c **** static void inf_normalize(lv_obj_t * obj_scrl);
  40:Middlewares/LVGL/GUI/lvgl/src/widgets/lv_roller.c **** static lv_obj_t * get_label(const lv_obj_t * obj);
  41:Middlewares/LVGL/GUI/lvgl/src/widgets/lv_roller.c **** static lv_coord_t get_selected_label_width(const lv_obj_t * obj);
  42:Middlewares/LVGL/GUI/lvgl/src/widgets/lv_roller.c **** static void scroll_anim_ready_cb(lv_anim_t * a);
  43:Middlewares/LVGL/GUI/lvgl/src/widgets/lv_roller.c **** static void set_y_anim(void * obj, int32_t v);
  44:Middlewares/LVGL/GUI/lvgl/src/widgets/lv_roller.c **** 
  45:Middlewares/LVGL/GUI/lvgl/src/widgets/lv_roller.c **** /**********************
  46:Middlewares/LVGL/GUI/lvgl/src/widgets/lv_roller.c ****  *  STATIC VARIABLES
  47:Middlewares/LVGL/GUI/lvgl/src/widgets/lv_roller.c ****  **********************/
  48:Middlewares/LVGL/GUI/lvgl/src/widgets/lv_roller.c **** const lv_obj_class_t lv_roller_class = {
  49:Middlewares/LVGL/GUI/lvgl/src/widgets/lv_roller.c ****     .constructor_cb = lv_roller_constructor,
  50:Middlewares/LVGL/GUI/lvgl/src/widgets/lv_roller.c ****     .event_cb = lv_roller_event,
  51:Middlewares/LVGL/GUI/lvgl/src/widgets/lv_roller.c ****     .width_def = LV_SIZE_CONTENT,
  52:Middlewares/LVGL/GUI/lvgl/src/widgets/lv_roller.c ****     .height_def = LV_DPI_DEF,
  53:Middlewares/LVGL/GUI/lvgl/src/widgets/lv_roller.c ****     .instance_size = sizeof(lv_roller_t),
  54:Middlewares/LVGL/GUI/lvgl/src/widgets/lv_roller.c ****     .editable = LV_OBJ_CLASS_EDITABLE_TRUE,
  55:Middlewares/LVGL/GUI/lvgl/src/widgets/lv_roller.c ****     .group_def = LV_OBJ_CLASS_GROUP_DEF_TRUE,
  56:Middlewares/LVGL/GUI/lvgl/src/widgets/lv_roller.c ****     .base_class = &lv_obj_class
  57:Middlewares/LVGL/GUI/lvgl/src/widgets/lv_roller.c **** };
  58:Middlewares/LVGL/GUI/lvgl/src/widgets/lv_roller.c **** 
  59:Middlewares/LVGL/GUI/lvgl/src/widgets/lv_roller.c **** const lv_obj_class_t lv_roller_label_class  = {
  60:Middlewares/LVGL/GUI/lvgl/src/widgets/lv_roller.c ****     .event_cb = lv_roller_label_event,
  61:Middlewares/LVGL/GUI/lvgl/src/widgets/lv_roller.c ****     .instance_size = sizeof(lv_label_t),
  62:Middlewares/LVGL/GUI/lvgl/src/widgets/lv_roller.c ****     .base_class = &lv_label_class
  63:Middlewares/LVGL/GUI/lvgl/src/widgets/lv_roller.c **** };
  64:Middlewares/LVGL/GUI/lvgl/src/widgets/lv_roller.c **** 
  65:Middlewares/LVGL/GUI/lvgl/src/widgets/lv_roller.c **** /**********************
  66:Middlewares/LVGL/GUI/lvgl/src/widgets/lv_roller.c ****  *      MACROS
  67:Middlewares/LVGL/GUI/lvgl/src/widgets/lv_roller.c ****  **********************/
  68:Middlewares/LVGL/GUI/lvgl/src/widgets/lv_roller.c **** 
  69:Middlewares/LVGL/GUI/lvgl/src/widgets/lv_roller.c **** /**********************
  70:Middlewares/LVGL/GUI/lvgl/src/widgets/lv_roller.c ****  *   GLOBAL FUNCTIONS
  71:Middlewares/LVGL/GUI/lvgl/src/widgets/lv_roller.c ****  **********************/
  72:Middlewares/LVGL/GUI/lvgl/src/widgets/lv_roller.c **** 
  73:Middlewares/LVGL/GUI/lvgl/src/widgets/lv_roller.c **** /**
  74:Middlewares/LVGL/GUI/lvgl/src/widgets/lv_roller.c ****  * Create a roller object
  75:Middlewares/LVGL/GUI/lvgl/src/widgets/lv_roller.c ****  * @param parent pointer to an object, it will be the parent of the new roller
  76:Middlewares/LVGL/GUI/lvgl/src/widgets/lv_roller.c ****  * @return pointer to the created roller
  77:Middlewares/LVGL/GUI/lvgl/src/widgets/lv_roller.c ****  */
  78:Middlewares/LVGL/GUI/lvgl/src/widgets/lv_roller.c **** lv_obj_t * lv_roller_create(lv_obj_t * parent)
  79:Middlewares/LVGL/GUI/lvgl/src/widgets/lv_roller.c **** {
  80:Middlewares/LVGL/GUI/lvgl/src/widgets/lv_roller.c ****     LV_LOG_INFO("begin");
  81:Middlewares/LVGL/GUI/lvgl/src/widgets/lv_roller.c ****     lv_obj_t * obj = lv_obj_class_create_obj(MY_CLASS, parent);
  82:Middlewares/LVGL/GUI/lvgl/src/widgets/lv_roller.c ****     lv_obj_class_init_obj(obj);
  83:Middlewares/LVGL/GUI/lvgl/src/widgets/lv_roller.c ****     return obj;
  84:Middlewares/LVGL/GUI/lvgl/src/widgets/lv_roller.c **** }
  85:Middlewares/LVGL/GUI/lvgl/src/widgets/lv_roller.c **** 
  86:Middlewares/LVGL/GUI/lvgl/src/widgets/lv_roller.c **** /*=====================
  87:Middlewares/LVGL/GUI/lvgl/src/widgets/lv_roller.c ****  * Setter functions
ARM GAS  C:\Users\ADMINI~1\AppData\Local\Temp\ccvtjbeI.s 			page 3


  88:Middlewares/LVGL/GUI/lvgl/src/widgets/lv_roller.c ****  *====================*/
  89:Middlewares/LVGL/GUI/lvgl/src/widgets/lv_roller.c **** 
  90:Middlewares/LVGL/GUI/lvgl/src/widgets/lv_roller.c **** /**
  91:Middlewares/LVGL/GUI/lvgl/src/widgets/lv_roller.c ****  * Set the options on a roller
  92:Middlewares/LVGL/GUI/lvgl/src/widgets/lv_roller.c ****  * @param roller pointer to roller object
  93:Middlewares/LVGL/GUI/lvgl/src/widgets/lv_roller.c ****  * @param options a string with '\n' separated options. E.g. "One\nTwo\nThree"
  94:Middlewares/LVGL/GUI/lvgl/src/widgets/lv_roller.c ****  * @param mode `LV_ROLLER_MODE_NORMAL` or `LV_ROLLER_MODE_INFINITE`
  95:Middlewares/LVGL/GUI/lvgl/src/widgets/lv_roller.c ****  */
  96:Middlewares/LVGL/GUI/lvgl/src/widgets/lv_roller.c **** void lv_roller_set_options(lv_obj_t * obj, const char * options, lv_roller_mode_t mode)
  97:Middlewares/LVGL/GUI/lvgl/src/widgets/lv_roller.c **** {
  98:Middlewares/LVGL/GUI/lvgl/src/widgets/lv_roller.c ****     LV_ASSERT_OBJ(obj, MY_CLASS);
  99:Middlewares/LVGL/GUI/lvgl/src/widgets/lv_roller.c ****     LV_ASSERT_NULL(options);
 100:Middlewares/LVGL/GUI/lvgl/src/widgets/lv_roller.c **** 
 101:Middlewares/LVGL/GUI/lvgl/src/widgets/lv_roller.c ****     lv_roller_t * roller = (lv_roller_t *)obj;
 102:Middlewares/LVGL/GUI/lvgl/src/widgets/lv_roller.c ****     lv_obj_t * label = get_label(obj);
 103:Middlewares/LVGL/GUI/lvgl/src/widgets/lv_roller.c **** 
 104:Middlewares/LVGL/GUI/lvgl/src/widgets/lv_roller.c ****     roller->sel_opt_id     = 0;
 105:Middlewares/LVGL/GUI/lvgl/src/widgets/lv_roller.c ****     roller->sel_opt_id_ori = 0;
 106:Middlewares/LVGL/GUI/lvgl/src/widgets/lv_roller.c **** 
 107:Middlewares/LVGL/GUI/lvgl/src/widgets/lv_roller.c ****     /*Count the '\n'-s to determine the number of options*/
 108:Middlewares/LVGL/GUI/lvgl/src/widgets/lv_roller.c ****     roller->option_cnt = 0;
 109:Middlewares/LVGL/GUI/lvgl/src/widgets/lv_roller.c ****     uint32_t cnt;
 110:Middlewares/LVGL/GUI/lvgl/src/widgets/lv_roller.c ****     for(cnt = 0; options[cnt] != '\0'; cnt++) {
 111:Middlewares/LVGL/GUI/lvgl/src/widgets/lv_roller.c ****         if(options[cnt] == '\n') roller->option_cnt++;
 112:Middlewares/LVGL/GUI/lvgl/src/widgets/lv_roller.c ****     }
 113:Middlewares/LVGL/GUI/lvgl/src/widgets/lv_roller.c ****     roller->option_cnt++; /*Last option has no `\n`*/
 114:Middlewares/LVGL/GUI/lvgl/src/widgets/lv_roller.c **** 
 115:Middlewares/LVGL/GUI/lvgl/src/widgets/lv_roller.c ****     if(mode == LV_ROLLER_MODE_NORMAL) {
 116:Middlewares/LVGL/GUI/lvgl/src/widgets/lv_roller.c ****         roller->mode = LV_ROLLER_MODE_NORMAL;
 117:Middlewares/LVGL/GUI/lvgl/src/widgets/lv_roller.c ****         lv_label_set_text(label, options);
 118:Middlewares/LVGL/GUI/lvgl/src/widgets/lv_roller.c ****     }
 119:Middlewares/LVGL/GUI/lvgl/src/widgets/lv_roller.c ****     else {
 120:Middlewares/LVGL/GUI/lvgl/src/widgets/lv_roller.c ****         roller->mode = LV_ROLLER_MODE_INFINITE;
 121:Middlewares/LVGL/GUI/lvgl/src/widgets/lv_roller.c **** 
 122:Middlewares/LVGL/GUI/lvgl/src/widgets/lv_roller.c ****         size_t opt_len = strlen(options) + 1; /*+1 to add '\n' after option lists*/
 123:Middlewares/LVGL/GUI/lvgl/src/widgets/lv_roller.c ****         char * opt_extra = lv_mem_buf_get(opt_len * LV_ROLLER_INF_PAGES);
 124:Middlewares/LVGL/GUI/lvgl/src/widgets/lv_roller.c ****         uint8_t i;
 125:Middlewares/LVGL/GUI/lvgl/src/widgets/lv_roller.c ****         for(i = 0; i < LV_ROLLER_INF_PAGES; i++) {
 126:Middlewares/LVGL/GUI/lvgl/src/widgets/lv_roller.c ****             strcpy(&opt_extra[opt_len * i], options);
 127:Middlewares/LVGL/GUI/lvgl/src/widgets/lv_roller.c ****             opt_extra[opt_len * (i + 1) - 1] = '\n';
 128:Middlewares/LVGL/GUI/lvgl/src/widgets/lv_roller.c ****         }
 129:Middlewares/LVGL/GUI/lvgl/src/widgets/lv_roller.c ****         opt_extra[opt_len * LV_ROLLER_INF_PAGES - 1] = '\0';
 130:Middlewares/LVGL/GUI/lvgl/src/widgets/lv_roller.c ****         lv_label_set_text(label, opt_extra);
 131:Middlewares/LVGL/GUI/lvgl/src/widgets/lv_roller.c ****         lv_mem_buf_release(opt_extra);
 132:Middlewares/LVGL/GUI/lvgl/src/widgets/lv_roller.c **** 
 133:Middlewares/LVGL/GUI/lvgl/src/widgets/lv_roller.c ****         roller->sel_opt_id     = ((LV_ROLLER_INF_PAGES / 2) + 0) * roller->option_cnt;
 134:Middlewares/LVGL/GUI/lvgl/src/widgets/lv_roller.c **** 
 135:Middlewares/LVGL/GUI/lvgl/src/widgets/lv_roller.c ****         roller->option_cnt = roller->option_cnt * LV_ROLLER_INF_PAGES;
 136:Middlewares/LVGL/GUI/lvgl/src/widgets/lv_roller.c ****         inf_normalize(obj);
 137:Middlewares/LVGL/GUI/lvgl/src/widgets/lv_roller.c ****     }
 138:Middlewares/LVGL/GUI/lvgl/src/widgets/lv_roller.c **** 
 139:Middlewares/LVGL/GUI/lvgl/src/widgets/lv_roller.c ****     roller->sel_opt_id_ori = roller->sel_opt_id;
 140:Middlewares/LVGL/GUI/lvgl/src/widgets/lv_roller.c **** 
 141:Middlewares/LVGL/GUI/lvgl/src/widgets/lv_roller.c ****     /*If the selected text has larger font the label needs some extra draw padding to draw it.*/
 142:Middlewares/LVGL/GUI/lvgl/src/widgets/lv_roller.c ****     lv_obj_refresh_ext_draw_size(label);
 143:Middlewares/LVGL/GUI/lvgl/src/widgets/lv_roller.c **** 
 144:Middlewares/LVGL/GUI/lvgl/src/widgets/lv_roller.c **** }
ARM GAS  C:\Users\ADMINI~1\AppData\Local\Temp\ccvtjbeI.s 			page 4


 145:Middlewares/LVGL/GUI/lvgl/src/widgets/lv_roller.c **** 
 146:Middlewares/LVGL/GUI/lvgl/src/widgets/lv_roller.c **** /**
 147:Middlewares/LVGL/GUI/lvgl/src/widgets/lv_roller.c ****  * Set the selected option
 148:Middlewares/LVGL/GUI/lvgl/src/widgets/lv_roller.c ****  * @param roller pointer to a roller object
 149:Middlewares/LVGL/GUI/lvgl/src/widgets/lv_roller.c ****  * @param sel_opt id of the selected option (0 ... number of option - 1);
 150:Middlewares/LVGL/GUI/lvgl/src/widgets/lv_roller.c ****  * @param anim_en LV_ANIM_ON: set with animation; LV_ANOM_OFF set immediately
 151:Middlewares/LVGL/GUI/lvgl/src/widgets/lv_roller.c ****  */
 152:Middlewares/LVGL/GUI/lvgl/src/widgets/lv_roller.c **** void lv_roller_set_selected(lv_obj_t * obj, uint16_t sel_opt, lv_anim_enable_t anim)
 153:Middlewares/LVGL/GUI/lvgl/src/widgets/lv_roller.c **** {
 154:Middlewares/LVGL/GUI/lvgl/src/widgets/lv_roller.c ****     LV_ASSERT_OBJ(obj, MY_CLASS);
 155:Middlewares/LVGL/GUI/lvgl/src/widgets/lv_roller.c **** 
 156:Middlewares/LVGL/GUI/lvgl/src/widgets/lv_roller.c ****     /*Set the value even if it's the same as the current value because
 157:Middlewares/LVGL/GUI/lvgl/src/widgets/lv_roller.c ****      *if moving to the next option with an animation which was just deleted in the PRESS Call the a
 158:Middlewares/LVGL/GUI/lvgl/src/widgets/lv_roller.c ****      *nothing will continue the animation.*/
 159:Middlewares/LVGL/GUI/lvgl/src/widgets/lv_roller.c **** 
 160:Middlewares/LVGL/GUI/lvgl/src/widgets/lv_roller.c ****     lv_roller_t * roller = (lv_roller_t *)obj;
 161:Middlewares/LVGL/GUI/lvgl/src/widgets/lv_roller.c **** 
 162:Middlewares/LVGL/GUI/lvgl/src/widgets/lv_roller.c ****     /*In infinite mode interpret the new ID relative to the currently visible "page"*/
 163:Middlewares/LVGL/GUI/lvgl/src/widgets/lv_roller.c ****     if(roller->mode == LV_ROLLER_MODE_INFINITE) {
 164:Middlewares/LVGL/GUI/lvgl/src/widgets/lv_roller.c ****         int32_t sel_opt_signed = sel_opt;
 165:Middlewares/LVGL/GUI/lvgl/src/widgets/lv_roller.c ****         uint16_t page = roller->sel_opt_id / LV_ROLLER_INF_PAGES;
 166:Middlewares/LVGL/GUI/lvgl/src/widgets/lv_roller.c **** 
 167:Middlewares/LVGL/GUI/lvgl/src/widgets/lv_roller.c ****         /*`sel_opt` should be less than the number of options set by the user.
 168:Middlewares/LVGL/GUI/lvgl/src/widgets/lv_roller.c ****          *If it's more then probably it's a reference from not the first page
 169:Middlewares/LVGL/GUI/lvgl/src/widgets/lv_roller.c ****          *so normalize `sel_opt`*/
 170:Middlewares/LVGL/GUI/lvgl/src/widgets/lv_roller.c ****         if(page != 0) {
 171:Middlewares/LVGL/GUI/lvgl/src/widgets/lv_roller.c ****             sel_opt_signed -= page * LV_ROLLER_INF_PAGES;
 172:Middlewares/LVGL/GUI/lvgl/src/widgets/lv_roller.c ****         }
 173:Middlewares/LVGL/GUI/lvgl/src/widgets/lv_roller.c **** 
 174:Middlewares/LVGL/GUI/lvgl/src/widgets/lv_roller.c ****         sel_opt = page * LV_ROLLER_INF_PAGES + sel_opt_signed;
 175:Middlewares/LVGL/GUI/lvgl/src/widgets/lv_roller.c ****     }
 176:Middlewares/LVGL/GUI/lvgl/src/widgets/lv_roller.c **** 
 177:Middlewares/LVGL/GUI/lvgl/src/widgets/lv_roller.c ****     roller->sel_opt_id     = sel_opt < roller->option_cnt ? sel_opt : roller->option_cnt - 1;
 178:Middlewares/LVGL/GUI/lvgl/src/widgets/lv_roller.c ****     roller->sel_opt_id_ori = roller->sel_opt_id;
 179:Middlewares/LVGL/GUI/lvgl/src/widgets/lv_roller.c **** 
 180:Middlewares/LVGL/GUI/lvgl/src/widgets/lv_roller.c ****     refr_position(obj, anim);
 181:Middlewares/LVGL/GUI/lvgl/src/widgets/lv_roller.c **** }
 182:Middlewares/LVGL/GUI/lvgl/src/widgets/lv_roller.c **** 
 183:Middlewares/LVGL/GUI/lvgl/src/widgets/lv_roller.c **** /**
 184:Middlewares/LVGL/GUI/lvgl/src/widgets/lv_roller.c ****  * Set the height to show the given number of rows (options)
 185:Middlewares/LVGL/GUI/lvgl/src/widgets/lv_roller.c ****  * @param roller pointer to a roller object
 186:Middlewares/LVGL/GUI/lvgl/src/widgets/lv_roller.c ****  * @param row_cnt number of desired visible rows
 187:Middlewares/LVGL/GUI/lvgl/src/widgets/lv_roller.c ****  */
 188:Middlewares/LVGL/GUI/lvgl/src/widgets/lv_roller.c **** void lv_roller_set_visible_row_count(lv_obj_t * obj, uint8_t row_cnt)
 189:Middlewares/LVGL/GUI/lvgl/src/widgets/lv_roller.c **** {
 190:Middlewares/LVGL/GUI/lvgl/src/widgets/lv_roller.c ****     LV_ASSERT_OBJ(obj, MY_CLASS);
 191:Middlewares/LVGL/GUI/lvgl/src/widgets/lv_roller.c **** 
 192:Middlewares/LVGL/GUI/lvgl/src/widgets/lv_roller.c ****     const lv_font_t * font = lv_obj_get_style_text_font(obj, LV_PART_MAIN);
 193:Middlewares/LVGL/GUI/lvgl/src/widgets/lv_roller.c ****     lv_coord_t line_space = lv_obj_get_style_text_line_space(obj, LV_PART_MAIN);
 194:Middlewares/LVGL/GUI/lvgl/src/widgets/lv_roller.c ****     lv_coord_t border_width = lv_obj_get_style_border_width(obj, LV_PART_MAIN);
 195:Middlewares/LVGL/GUI/lvgl/src/widgets/lv_roller.c ****     lv_obj_set_height(obj, (lv_font_get_line_height(font) + line_space) * row_cnt + 2 * border_widt
 196:Middlewares/LVGL/GUI/lvgl/src/widgets/lv_roller.c **** }
 197:Middlewares/LVGL/GUI/lvgl/src/widgets/lv_roller.c **** 
 198:Middlewares/LVGL/GUI/lvgl/src/widgets/lv_roller.c **** /*=====================
 199:Middlewares/LVGL/GUI/lvgl/src/widgets/lv_roller.c ****  * Getter functions
 200:Middlewares/LVGL/GUI/lvgl/src/widgets/lv_roller.c ****  *====================*/
 201:Middlewares/LVGL/GUI/lvgl/src/widgets/lv_roller.c **** 
ARM GAS  C:\Users\ADMINI~1\AppData\Local\Temp\ccvtjbeI.s 			page 5


 202:Middlewares/LVGL/GUI/lvgl/src/widgets/lv_roller.c **** /**
 203:Middlewares/LVGL/GUI/lvgl/src/widgets/lv_roller.c ****  * Get the id of the selected option
 204:Middlewares/LVGL/GUI/lvgl/src/widgets/lv_roller.c ****  * @param roller pointer to a roller object
 205:Middlewares/LVGL/GUI/lvgl/src/widgets/lv_roller.c ****  * @return id of the selected option (0 ... number of option - 1);
 206:Middlewares/LVGL/GUI/lvgl/src/widgets/lv_roller.c ****  */
 207:Middlewares/LVGL/GUI/lvgl/src/widgets/lv_roller.c **** uint16_t lv_roller_get_selected(const lv_obj_t * obj)
 208:Middlewares/LVGL/GUI/lvgl/src/widgets/lv_roller.c **** {
 209:Middlewares/LVGL/GUI/lvgl/src/widgets/lv_roller.c ****     LV_ASSERT_OBJ(obj, MY_CLASS);
 210:Middlewares/LVGL/GUI/lvgl/src/widgets/lv_roller.c **** 
 211:Middlewares/LVGL/GUI/lvgl/src/widgets/lv_roller.c ****     lv_roller_t * roller = (lv_roller_t *)obj;
 212:Middlewares/LVGL/GUI/lvgl/src/widgets/lv_roller.c ****     if(roller->mode == LV_ROLLER_MODE_INFINITE) {
 213:Middlewares/LVGL/GUI/lvgl/src/widgets/lv_roller.c ****         uint16_t real_id_cnt = roller->option_cnt / LV_ROLLER_INF_PAGES;
 214:Middlewares/LVGL/GUI/lvgl/src/widgets/lv_roller.c ****         return roller->sel_opt_id % real_id_cnt;
 215:Middlewares/LVGL/GUI/lvgl/src/widgets/lv_roller.c ****     }
 216:Middlewares/LVGL/GUI/lvgl/src/widgets/lv_roller.c ****     else {
 217:Middlewares/LVGL/GUI/lvgl/src/widgets/lv_roller.c ****         return roller->sel_opt_id;
 218:Middlewares/LVGL/GUI/lvgl/src/widgets/lv_roller.c ****     }
 219:Middlewares/LVGL/GUI/lvgl/src/widgets/lv_roller.c **** }
 220:Middlewares/LVGL/GUI/lvgl/src/widgets/lv_roller.c **** 
 221:Middlewares/LVGL/GUI/lvgl/src/widgets/lv_roller.c **** /**
 222:Middlewares/LVGL/GUI/lvgl/src/widgets/lv_roller.c ****  * Get the current selected option as a string
 223:Middlewares/LVGL/GUI/lvgl/src/widgets/lv_roller.c ****  * @param ddlist pointer to ddlist object
 224:Middlewares/LVGL/GUI/lvgl/src/widgets/lv_roller.c ****  * @param buf pointer to an array to store the string
 225:Middlewares/LVGL/GUI/lvgl/src/widgets/lv_roller.c ****  * @param buf_size size of `buf` in bytes. 0: to ignore it.
 226:Middlewares/LVGL/GUI/lvgl/src/widgets/lv_roller.c ****  */
 227:Middlewares/LVGL/GUI/lvgl/src/widgets/lv_roller.c **** void lv_roller_get_selected_str(const lv_obj_t * obj, char * buf, uint32_t buf_size)
 228:Middlewares/LVGL/GUI/lvgl/src/widgets/lv_roller.c **** {
 229:Middlewares/LVGL/GUI/lvgl/src/widgets/lv_roller.c ****     LV_ASSERT_OBJ(obj, MY_CLASS);
 230:Middlewares/LVGL/GUI/lvgl/src/widgets/lv_roller.c **** 
 231:Middlewares/LVGL/GUI/lvgl/src/widgets/lv_roller.c ****     lv_roller_t * roller = (lv_roller_t *)obj;
 232:Middlewares/LVGL/GUI/lvgl/src/widgets/lv_roller.c ****     lv_obj_t * label = get_label(obj);
 233:Middlewares/LVGL/GUI/lvgl/src/widgets/lv_roller.c ****     uint32_t i;
 234:Middlewares/LVGL/GUI/lvgl/src/widgets/lv_roller.c ****     uint16_t line        = 0;
 235:Middlewares/LVGL/GUI/lvgl/src/widgets/lv_roller.c ****     const char * opt_txt = lv_label_get_text(label);
 236:Middlewares/LVGL/GUI/lvgl/src/widgets/lv_roller.c ****     size_t txt_len     = strlen(opt_txt);
 237:Middlewares/LVGL/GUI/lvgl/src/widgets/lv_roller.c **** 
 238:Middlewares/LVGL/GUI/lvgl/src/widgets/lv_roller.c ****     for(i = 0; i < txt_len && line != roller->sel_opt_id; i++) {
 239:Middlewares/LVGL/GUI/lvgl/src/widgets/lv_roller.c ****         if(opt_txt[i] == '\n') line++;
 240:Middlewares/LVGL/GUI/lvgl/src/widgets/lv_roller.c ****     }
 241:Middlewares/LVGL/GUI/lvgl/src/widgets/lv_roller.c **** 
 242:Middlewares/LVGL/GUI/lvgl/src/widgets/lv_roller.c ****     uint32_t c;
 243:Middlewares/LVGL/GUI/lvgl/src/widgets/lv_roller.c ****     for(c = 0; i < txt_len && opt_txt[i] != '\n'; c++, i++) {
 244:Middlewares/LVGL/GUI/lvgl/src/widgets/lv_roller.c ****         if(buf_size && c >= buf_size - 1) {
 245:Middlewares/LVGL/GUI/lvgl/src/widgets/lv_roller.c ****             LV_LOG_WARN("lv_dropdown_get_selected_str: the buffer was too small");
 246:Middlewares/LVGL/GUI/lvgl/src/widgets/lv_roller.c ****             break;
 247:Middlewares/LVGL/GUI/lvgl/src/widgets/lv_roller.c ****         }
 248:Middlewares/LVGL/GUI/lvgl/src/widgets/lv_roller.c ****         buf[c] = opt_txt[i];
 249:Middlewares/LVGL/GUI/lvgl/src/widgets/lv_roller.c ****     }
 250:Middlewares/LVGL/GUI/lvgl/src/widgets/lv_roller.c **** 
 251:Middlewares/LVGL/GUI/lvgl/src/widgets/lv_roller.c ****     buf[c] = '\0';
 252:Middlewares/LVGL/GUI/lvgl/src/widgets/lv_roller.c **** }
 253:Middlewares/LVGL/GUI/lvgl/src/widgets/lv_roller.c **** 
 254:Middlewares/LVGL/GUI/lvgl/src/widgets/lv_roller.c **** 
 255:Middlewares/LVGL/GUI/lvgl/src/widgets/lv_roller.c **** /**
 256:Middlewares/LVGL/GUI/lvgl/src/widgets/lv_roller.c ****  * Get the options of a roller
 257:Middlewares/LVGL/GUI/lvgl/src/widgets/lv_roller.c ****  * @param roller pointer to roller object
 258:Middlewares/LVGL/GUI/lvgl/src/widgets/lv_roller.c ****  * @return the options separated by '\n'-s (E.g. "Option1\nOption2\nOption3")
ARM GAS  C:\Users\ADMINI~1\AppData\Local\Temp\ccvtjbeI.s 			page 6


 259:Middlewares/LVGL/GUI/lvgl/src/widgets/lv_roller.c ****  */
 260:Middlewares/LVGL/GUI/lvgl/src/widgets/lv_roller.c **** const char * lv_roller_get_options(const lv_obj_t * obj)
 261:Middlewares/LVGL/GUI/lvgl/src/widgets/lv_roller.c **** {
 262:Middlewares/LVGL/GUI/lvgl/src/widgets/lv_roller.c ****     LV_ASSERT_OBJ(obj, MY_CLASS);
 263:Middlewares/LVGL/GUI/lvgl/src/widgets/lv_roller.c **** 
 264:Middlewares/LVGL/GUI/lvgl/src/widgets/lv_roller.c ****     return lv_label_get_text(get_label(obj));
 265:Middlewares/LVGL/GUI/lvgl/src/widgets/lv_roller.c **** }
 266:Middlewares/LVGL/GUI/lvgl/src/widgets/lv_roller.c **** 
 267:Middlewares/LVGL/GUI/lvgl/src/widgets/lv_roller.c **** 
 268:Middlewares/LVGL/GUI/lvgl/src/widgets/lv_roller.c **** /**
 269:Middlewares/LVGL/GUI/lvgl/src/widgets/lv_roller.c ****  * Get the total number of options
 270:Middlewares/LVGL/GUI/lvgl/src/widgets/lv_roller.c ****  * @param roller pointer to a roller object
 271:Middlewares/LVGL/GUI/lvgl/src/widgets/lv_roller.c ****  * @return the total number of options
 272:Middlewares/LVGL/GUI/lvgl/src/widgets/lv_roller.c ****  */
 273:Middlewares/LVGL/GUI/lvgl/src/widgets/lv_roller.c **** uint16_t lv_roller_get_option_cnt(const lv_obj_t * obj)
 274:Middlewares/LVGL/GUI/lvgl/src/widgets/lv_roller.c **** {
 275:Middlewares/LVGL/GUI/lvgl/src/widgets/lv_roller.c ****     LV_ASSERT_OBJ(obj, MY_CLASS);
 276:Middlewares/LVGL/GUI/lvgl/src/widgets/lv_roller.c **** 
 277:Middlewares/LVGL/GUI/lvgl/src/widgets/lv_roller.c ****     lv_roller_t * roller = (lv_roller_t *)obj;
 278:Middlewares/LVGL/GUI/lvgl/src/widgets/lv_roller.c ****     if(roller->mode == LV_ROLLER_MODE_INFINITE) {
 279:Middlewares/LVGL/GUI/lvgl/src/widgets/lv_roller.c ****         return roller->option_cnt / LV_ROLLER_INF_PAGES;
 280:Middlewares/LVGL/GUI/lvgl/src/widgets/lv_roller.c ****     }
 281:Middlewares/LVGL/GUI/lvgl/src/widgets/lv_roller.c ****     else {
 282:Middlewares/LVGL/GUI/lvgl/src/widgets/lv_roller.c ****         return roller->option_cnt;
 283:Middlewares/LVGL/GUI/lvgl/src/widgets/lv_roller.c ****     }
 284:Middlewares/LVGL/GUI/lvgl/src/widgets/lv_roller.c **** }
 285:Middlewares/LVGL/GUI/lvgl/src/widgets/lv_roller.c **** 
 286:Middlewares/LVGL/GUI/lvgl/src/widgets/lv_roller.c **** /**********************
 287:Middlewares/LVGL/GUI/lvgl/src/widgets/lv_roller.c ****  *   STATIC FUNCTIONS
 288:Middlewares/LVGL/GUI/lvgl/src/widgets/lv_roller.c ****  **********************/
 289:Middlewares/LVGL/GUI/lvgl/src/widgets/lv_roller.c **** 
 290:Middlewares/LVGL/GUI/lvgl/src/widgets/lv_roller.c **** 
 291:Middlewares/LVGL/GUI/lvgl/src/widgets/lv_roller.c **** static void lv_roller_constructor(const lv_obj_class_t * class_p, lv_obj_t * obj)
 292:Middlewares/LVGL/GUI/lvgl/src/widgets/lv_roller.c **** {
 293:Middlewares/LVGL/GUI/lvgl/src/widgets/lv_roller.c ****     LV_UNUSED(class_p);
 294:Middlewares/LVGL/GUI/lvgl/src/widgets/lv_roller.c ****     lv_roller_t * roller = (lv_roller_t *)obj;
 295:Middlewares/LVGL/GUI/lvgl/src/widgets/lv_roller.c **** 
 296:Middlewares/LVGL/GUI/lvgl/src/widgets/lv_roller.c ****     roller->mode = LV_ROLLER_MODE_NORMAL;
 297:Middlewares/LVGL/GUI/lvgl/src/widgets/lv_roller.c ****     roller->option_cnt = 0;
 298:Middlewares/LVGL/GUI/lvgl/src/widgets/lv_roller.c ****     roller->sel_opt_id = 0;
 299:Middlewares/LVGL/GUI/lvgl/src/widgets/lv_roller.c ****     roller->sel_opt_id_ori = 0;
 300:Middlewares/LVGL/GUI/lvgl/src/widgets/lv_roller.c **** 
 301:Middlewares/LVGL/GUI/lvgl/src/widgets/lv_roller.c ****     lv_obj_clear_flag(obj, LV_OBJ_FLAG_SCROLLABLE);
 302:Middlewares/LVGL/GUI/lvgl/src/widgets/lv_roller.c ****     lv_obj_clear_flag(obj, LV_OBJ_FLAG_SCROLL_CHAIN_VER);
 303:Middlewares/LVGL/GUI/lvgl/src/widgets/lv_roller.c **** 
 304:Middlewares/LVGL/GUI/lvgl/src/widgets/lv_roller.c ****     LV_LOG_INFO("begin");
 305:Middlewares/LVGL/GUI/lvgl/src/widgets/lv_roller.c ****     lv_obj_t * label = lv_obj_class_create_obj(&lv_roller_label_class, obj);
 306:Middlewares/LVGL/GUI/lvgl/src/widgets/lv_roller.c ****     lv_obj_class_init_obj(label);
 307:Middlewares/LVGL/GUI/lvgl/src/widgets/lv_roller.c ****     lv_roller_set_options(obj, "Option 1\nOption 2\nOption 3\nOption 4\nOption 5", LV_ROLLER_MODE_N
 308:Middlewares/LVGL/GUI/lvgl/src/widgets/lv_roller.c **** 
 309:Middlewares/LVGL/GUI/lvgl/src/widgets/lv_roller.c ****     LV_LOG_TRACE("finshed");
 310:Middlewares/LVGL/GUI/lvgl/src/widgets/lv_roller.c **** }
 311:Middlewares/LVGL/GUI/lvgl/src/widgets/lv_roller.c **** 
 312:Middlewares/LVGL/GUI/lvgl/src/widgets/lv_roller.c **** static void lv_roller_event(const lv_obj_class_t * class_p, lv_event_t * e)
 313:Middlewares/LVGL/GUI/lvgl/src/widgets/lv_roller.c **** {
 314:Middlewares/LVGL/GUI/lvgl/src/widgets/lv_roller.c ****     LV_UNUSED(class_p);
 315:Middlewares/LVGL/GUI/lvgl/src/widgets/lv_roller.c **** 
ARM GAS  C:\Users\ADMINI~1\AppData\Local\Temp\ccvtjbeI.s 			page 7


 316:Middlewares/LVGL/GUI/lvgl/src/widgets/lv_roller.c ****     lv_res_t res;
 317:Middlewares/LVGL/GUI/lvgl/src/widgets/lv_roller.c **** 
 318:Middlewares/LVGL/GUI/lvgl/src/widgets/lv_roller.c ****     /*Call the ancestor's event handler*/
 319:Middlewares/LVGL/GUI/lvgl/src/widgets/lv_roller.c ****     res = lv_obj_event_base(MY_CLASS, e);
 320:Middlewares/LVGL/GUI/lvgl/src/widgets/lv_roller.c ****     if(res != LV_RES_OK) return;
 321:Middlewares/LVGL/GUI/lvgl/src/widgets/lv_roller.c **** 
 322:Middlewares/LVGL/GUI/lvgl/src/widgets/lv_roller.c ****     lv_event_code_t code = lv_event_get_code(e);
 323:Middlewares/LVGL/GUI/lvgl/src/widgets/lv_roller.c ****     lv_obj_t * obj = lv_event_get_target(e);
 324:Middlewares/LVGL/GUI/lvgl/src/widgets/lv_roller.c ****     lv_roller_t * roller = (lv_roller_t *)obj;
 325:Middlewares/LVGL/GUI/lvgl/src/widgets/lv_roller.c **** 
 326:Middlewares/LVGL/GUI/lvgl/src/widgets/lv_roller.c ****     if(code == LV_EVENT_GET_SELF_SIZE) {
 327:Middlewares/LVGL/GUI/lvgl/src/widgets/lv_roller.c ****         lv_point_t * p = lv_event_get_param(e);
 328:Middlewares/LVGL/GUI/lvgl/src/widgets/lv_roller.c ****         p->x = get_selected_label_width(obj);
 329:Middlewares/LVGL/GUI/lvgl/src/widgets/lv_roller.c ****     }
 330:Middlewares/LVGL/GUI/lvgl/src/widgets/lv_roller.c ****     else if(code == LV_EVENT_STYLE_CHANGED) {
 331:Middlewares/LVGL/GUI/lvgl/src/widgets/lv_roller.c ****         lv_obj_t * label = get_label(obj);
 332:Middlewares/LVGL/GUI/lvgl/src/widgets/lv_roller.c ****         /*Be sure the label's style is updated before processing the roller*/
 333:Middlewares/LVGL/GUI/lvgl/src/widgets/lv_roller.c ****         if(label) lv_event_send(label, LV_EVENT_STYLE_CHANGED, NULL);
 334:Middlewares/LVGL/GUI/lvgl/src/widgets/lv_roller.c ****         lv_obj_refresh_self_size(obj);
 335:Middlewares/LVGL/GUI/lvgl/src/widgets/lv_roller.c ****         refr_position(obj, LV_ANIM_OFF);
 336:Middlewares/LVGL/GUI/lvgl/src/widgets/lv_roller.c ****     }
 337:Middlewares/LVGL/GUI/lvgl/src/widgets/lv_roller.c ****     else if(code == LV_EVENT_SIZE_CHANGED) {
 338:Middlewares/LVGL/GUI/lvgl/src/widgets/lv_roller.c ****         refr_position(obj, LV_ANIM_OFF);
 339:Middlewares/LVGL/GUI/lvgl/src/widgets/lv_roller.c ****     }
 340:Middlewares/LVGL/GUI/lvgl/src/widgets/lv_roller.c ****     else if(code == LV_EVENT_PRESSED) {
 341:Middlewares/LVGL/GUI/lvgl/src/widgets/lv_roller.c ****         roller->moved = 0;
 342:Middlewares/LVGL/GUI/lvgl/src/widgets/lv_roller.c ****         lv_anim_del(get_label(obj), set_y_anim);
 343:Middlewares/LVGL/GUI/lvgl/src/widgets/lv_roller.c ****     }
 344:Middlewares/LVGL/GUI/lvgl/src/widgets/lv_roller.c ****     else if(code == LV_EVENT_PRESSING) {
 345:Middlewares/LVGL/GUI/lvgl/src/widgets/lv_roller.c ****         lv_indev_t * indev = lv_indev_get_act();
 346:Middlewares/LVGL/GUI/lvgl/src/widgets/lv_roller.c ****         lv_point_t p;
 347:Middlewares/LVGL/GUI/lvgl/src/widgets/lv_roller.c ****         lv_indev_get_vect(indev, &p);
 348:Middlewares/LVGL/GUI/lvgl/src/widgets/lv_roller.c ****         if(p.y) {
 349:Middlewares/LVGL/GUI/lvgl/src/widgets/lv_roller.c ****             lv_obj_t * label = get_label(obj);
 350:Middlewares/LVGL/GUI/lvgl/src/widgets/lv_roller.c ****             lv_obj_set_y(label, lv_obj_get_y(label) + p.y);
 351:Middlewares/LVGL/GUI/lvgl/src/widgets/lv_roller.c ****             roller->moved = 1;
 352:Middlewares/LVGL/GUI/lvgl/src/widgets/lv_roller.c ****         }
 353:Middlewares/LVGL/GUI/lvgl/src/widgets/lv_roller.c ****     }
 354:Middlewares/LVGL/GUI/lvgl/src/widgets/lv_roller.c ****     else if(code == LV_EVENT_RELEASED || code == LV_EVENT_PRESS_LOST) {
 355:Middlewares/LVGL/GUI/lvgl/src/widgets/lv_roller.c ****         release_handler(obj);
 356:Middlewares/LVGL/GUI/lvgl/src/widgets/lv_roller.c ****     }
 357:Middlewares/LVGL/GUI/lvgl/src/widgets/lv_roller.c ****     else if(code == LV_EVENT_FOCUSED) {
 358:Middlewares/LVGL/GUI/lvgl/src/widgets/lv_roller.c ****         lv_group_t * g             = lv_obj_get_group(obj);
 359:Middlewares/LVGL/GUI/lvgl/src/widgets/lv_roller.c ****         bool editing               = lv_group_get_editing(g);
 360:Middlewares/LVGL/GUI/lvgl/src/widgets/lv_roller.c ****         lv_indev_type_t indev_type = lv_indev_get_type(lv_indev_get_act());
 361:Middlewares/LVGL/GUI/lvgl/src/widgets/lv_roller.c **** 
 362:Middlewares/LVGL/GUI/lvgl/src/widgets/lv_roller.c ****         /*Encoders need special handling*/
 363:Middlewares/LVGL/GUI/lvgl/src/widgets/lv_roller.c ****         if(indev_type == LV_INDEV_TYPE_ENCODER) {
 364:Middlewares/LVGL/GUI/lvgl/src/widgets/lv_roller.c ****             /*In navigate mode revert the original value*/
 365:Middlewares/LVGL/GUI/lvgl/src/widgets/lv_roller.c ****             if(!editing) {
 366:Middlewares/LVGL/GUI/lvgl/src/widgets/lv_roller.c ****                 if(roller->sel_opt_id != roller->sel_opt_id_ori) {
 367:Middlewares/LVGL/GUI/lvgl/src/widgets/lv_roller.c ****                     roller->sel_opt_id = roller->sel_opt_id_ori;
 368:Middlewares/LVGL/GUI/lvgl/src/widgets/lv_roller.c ****                     refr_position(obj, LV_ANIM_ON);
 369:Middlewares/LVGL/GUI/lvgl/src/widgets/lv_roller.c ****                 }
 370:Middlewares/LVGL/GUI/lvgl/src/widgets/lv_roller.c ****             }
 371:Middlewares/LVGL/GUI/lvgl/src/widgets/lv_roller.c ****             /*Save the current state when entered to edit mode*/
 372:Middlewares/LVGL/GUI/lvgl/src/widgets/lv_roller.c ****             else {
ARM GAS  C:\Users\ADMINI~1\AppData\Local\Temp\ccvtjbeI.s 			page 8


 373:Middlewares/LVGL/GUI/lvgl/src/widgets/lv_roller.c ****                 roller->sel_opt_id_ori = roller->sel_opt_id;
 374:Middlewares/LVGL/GUI/lvgl/src/widgets/lv_roller.c ****             }
 375:Middlewares/LVGL/GUI/lvgl/src/widgets/lv_roller.c ****         }
 376:Middlewares/LVGL/GUI/lvgl/src/widgets/lv_roller.c ****         else {
 377:Middlewares/LVGL/GUI/lvgl/src/widgets/lv_roller.c ****             roller->sel_opt_id_ori = roller->sel_opt_id; /*Save the current value. Used to revert t
 378:Middlewares/LVGL/GUI/lvgl/src/widgets/lv_roller.c ****                                                                     ENTER won't be pressed*/
 379:Middlewares/LVGL/GUI/lvgl/src/widgets/lv_roller.c ****         }
 380:Middlewares/LVGL/GUI/lvgl/src/widgets/lv_roller.c ****     }
 381:Middlewares/LVGL/GUI/lvgl/src/widgets/lv_roller.c ****     else if(code == LV_EVENT_DEFOCUSED) {
 382:Middlewares/LVGL/GUI/lvgl/src/widgets/lv_roller.c ****         /*Revert the original state*/
 383:Middlewares/LVGL/GUI/lvgl/src/widgets/lv_roller.c ****         if(roller->sel_opt_id != roller->sel_opt_id_ori) {
 384:Middlewares/LVGL/GUI/lvgl/src/widgets/lv_roller.c ****             roller->sel_opt_id = roller->sel_opt_id_ori;
 385:Middlewares/LVGL/GUI/lvgl/src/widgets/lv_roller.c ****             refr_position(obj, LV_ANIM_ON);
 386:Middlewares/LVGL/GUI/lvgl/src/widgets/lv_roller.c ****         }
 387:Middlewares/LVGL/GUI/lvgl/src/widgets/lv_roller.c ****     }
 388:Middlewares/LVGL/GUI/lvgl/src/widgets/lv_roller.c ****     else if(code == LV_EVENT_KEY) {
 389:Middlewares/LVGL/GUI/lvgl/src/widgets/lv_roller.c ****         char c = *((char *)lv_event_get_param(e));
 390:Middlewares/LVGL/GUI/lvgl/src/widgets/lv_roller.c ****         if(c == LV_KEY_RIGHT || c == LV_KEY_DOWN) {
 391:Middlewares/LVGL/GUI/lvgl/src/widgets/lv_roller.c ****             if(roller->sel_opt_id + 1 < roller->option_cnt) {
 392:Middlewares/LVGL/GUI/lvgl/src/widgets/lv_roller.c ****                 uint16_t ori_id = roller->sel_opt_id_ori; /*lv_roller_set_selected will overwrite t
 393:Middlewares/LVGL/GUI/lvgl/src/widgets/lv_roller.c ****                 lv_roller_set_selected(obj, roller->sel_opt_id + 1, LV_ANIM_ON);
 394:Middlewares/LVGL/GUI/lvgl/src/widgets/lv_roller.c ****                 roller->sel_opt_id_ori = ori_id;
 395:Middlewares/LVGL/GUI/lvgl/src/widgets/lv_roller.c ****             }
 396:Middlewares/LVGL/GUI/lvgl/src/widgets/lv_roller.c ****         }
 397:Middlewares/LVGL/GUI/lvgl/src/widgets/lv_roller.c ****         else if(c == LV_KEY_LEFT || c == LV_KEY_UP) {
 398:Middlewares/LVGL/GUI/lvgl/src/widgets/lv_roller.c ****             if(roller->sel_opt_id > 0) {
 399:Middlewares/LVGL/GUI/lvgl/src/widgets/lv_roller.c ****                 uint16_t ori_id = roller->sel_opt_id_ori; /*lv_roller_set_selected will overwrite t
 400:Middlewares/LVGL/GUI/lvgl/src/widgets/lv_roller.c **** 
 401:Middlewares/LVGL/GUI/lvgl/src/widgets/lv_roller.c ****                 lv_roller_set_selected(obj, roller->sel_opt_id - 1, LV_ANIM_ON);
 402:Middlewares/LVGL/GUI/lvgl/src/widgets/lv_roller.c ****                 roller->sel_opt_id_ori = ori_id;
 403:Middlewares/LVGL/GUI/lvgl/src/widgets/lv_roller.c ****             }
 404:Middlewares/LVGL/GUI/lvgl/src/widgets/lv_roller.c ****         }
 405:Middlewares/LVGL/GUI/lvgl/src/widgets/lv_roller.c ****     }
 406:Middlewares/LVGL/GUI/lvgl/src/widgets/lv_roller.c ****     else if(code == LV_EVENT_REFR_EXT_DRAW_SIZE) {
 407:Middlewares/LVGL/GUI/lvgl/src/widgets/lv_roller.c ****         lv_obj_t * label = get_label(obj);
 408:Middlewares/LVGL/GUI/lvgl/src/widgets/lv_roller.c ****         lv_obj_refresh_ext_draw_size(label);
 409:Middlewares/LVGL/GUI/lvgl/src/widgets/lv_roller.c ****     }
 410:Middlewares/LVGL/GUI/lvgl/src/widgets/lv_roller.c ****     else if(code == LV_EVENT_DRAW_MAIN || code == LV_EVENT_DRAW_POST) {
 411:Middlewares/LVGL/GUI/lvgl/src/widgets/lv_roller.c ****         draw_main(e);
 412:Middlewares/LVGL/GUI/lvgl/src/widgets/lv_roller.c ****     }
 413:Middlewares/LVGL/GUI/lvgl/src/widgets/lv_roller.c **** }
 414:Middlewares/LVGL/GUI/lvgl/src/widgets/lv_roller.c **** 
 415:Middlewares/LVGL/GUI/lvgl/src/widgets/lv_roller.c **** static void lv_roller_label_event(const lv_obj_class_t * class_p, lv_event_t * e)
 416:Middlewares/LVGL/GUI/lvgl/src/widgets/lv_roller.c **** {
 417:Middlewares/LVGL/GUI/lvgl/src/widgets/lv_roller.c ****     LV_UNUSED(class_p);
 418:Middlewares/LVGL/GUI/lvgl/src/widgets/lv_roller.c **** 
 419:Middlewares/LVGL/GUI/lvgl/src/widgets/lv_roller.c ****     lv_res_t res;
 420:Middlewares/LVGL/GUI/lvgl/src/widgets/lv_roller.c **** 
 421:Middlewares/LVGL/GUI/lvgl/src/widgets/lv_roller.c ****     lv_event_code_t code = lv_event_get_code(e);
 422:Middlewares/LVGL/GUI/lvgl/src/widgets/lv_roller.c ****     /*LV_EVENT_DRAW_MAIN will be called in the draw function*/
 423:Middlewares/LVGL/GUI/lvgl/src/widgets/lv_roller.c ****     if(code != LV_EVENT_DRAW_MAIN) {
 424:Middlewares/LVGL/GUI/lvgl/src/widgets/lv_roller.c ****         /* Call the ancestor's event handler */
 425:Middlewares/LVGL/GUI/lvgl/src/widgets/lv_roller.c ****         res = lv_obj_event_base(MY_CLASS_LABEL, e);
 426:Middlewares/LVGL/GUI/lvgl/src/widgets/lv_roller.c ****         if(res != LV_RES_OK) return;
 427:Middlewares/LVGL/GUI/lvgl/src/widgets/lv_roller.c ****     }
 428:Middlewares/LVGL/GUI/lvgl/src/widgets/lv_roller.c **** 
 429:Middlewares/LVGL/GUI/lvgl/src/widgets/lv_roller.c ****     lv_obj_t * label = lv_event_get_target(e);
ARM GAS  C:\Users\ADMINI~1\AppData\Local\Temp\ccvtjbeI.s 			page 9


 430:Middlewares/LVGL/GUI/lvgl/src/widgets/lv_roller.c ****     if(code == LV_EVENT_REFR_EXT_DRAW_SIZE) {
 431:Middlewares/LVGL/GUI/lvgl/src/widgets/lv_roller.c ****         /*If the selected text has a larger font it needs some extra space to draw it*/
 432:Middlewares/LVGL/GUI/lvgl/src/widgets/lv_roller.c ****         lv_coord_t * s = lv_event_get_param(e);
 433:Middlewares/LVGL/GUI/lvgl/src/widgets/lv_roller.c ****         lv_obj_t * obj = lv_obj_get_parent(label);
 434:Middlewares/LVGL/GUI/lvgl/src/widgets/lv_roller.c ****         lv_coord_t sel_w = get_selected_label_width(obj);
 435:Middlewares/LVGL/GUI/lvgl/src/widgets/lv_roller.c ****         lv_coord_t label_w = lv_obj_get_width(label);
 436:Middlewares/LVGL/GUI/lvgl/src/widgets/lv_roller.c ****         *s = LV_MAX(*s, sel_w - label_w);
 437:Middlewares/LVGL/GUI/lvgl/src/widgets/lv_roller.c ****     }
 438:Middlewares/LVGL/GUI/lvgl/src/widgets/lv_roller.c ****     else if(code == LV_EVENT_SIZE_CHANGED) {
 439:Middlewares/LVGL/GUI/lvgl/src/widgets/lv_roller.c ****         refr_position(lv_obj_get_parent(label), LV_ANIM_OFF);
 440:Middlewares/LVGL/GUI/lvgl/src/widgets/lv_roller.c ****     }
 441:Middlewares/LVGL/GUI/lvgl/src/widgets/lv_roller.c ****     else if(code == LV_EVENT_DRAW_MAIN) {
 442:Middlewares/LVGL/GUI/lvgl/src/widgets/lv_roller.c ****         draw_label(e);
 443:Middlewares/LVGL/GUI/lvgl/src/widgets/lv_roller.c ****     }
 444:Middlewares/LVGL/GUI/lvgl/src/widgets/lv_roller.c **** }
 445:Middlewares/LVGL/GUI/lvgl/src/widgets/lv_roller.c **** 
 446:Middlewares/LVGL/GUI/lvgl/src/widgets/lv_roller.c **** 
 447:Middlewares/LVGL/GUI/lvgl/src/widgets/lv_roller.c **** static void draw_main(lv_event_t * e)
 448:Middlewares/LVGL/GUI/lvgl/src/widgets/lv_roller.c **** {
 449:Middlewares/LVGL/GUI/lvgl/src/widgets/lv_roller.c ****     lv_event_code_t code = lv_event_get_code(e);
 450:Middlewares/LVGL/GUI/lvgl/src/widgets/lv_roller.c ****     lv_obj_t * obj = lv_event_get_target(e);
 451:Middlewares/LVGL/GUI/lvgl/src/widgets/lv_roller.c ****     if(code == LV_EVENT_DRAW_MAIN) {
 452:Middlewares/LVGL/GUI/lvgl/src/widgets/lv_roller.c ****         /*Draw the selected rectangle*/
 453:Middlewares/LVGL/GUI/lvgl/src/widgets/lv_roller.c ****         lv_draw_ctx_t * draw_ctx = lv_event_get_draw_ctx(e);
 454:Middlewares/LVGL/GUI/lvgl/src/widgets/lv_roller.c ****         lv_area_t sel_area;
 455:Middlewares/LVGL/GUI/lvgl/src/widgets/lv_roller.c ****         get_sel_area(obj, &sel_area);
 456:Middlewares/LVGL/GUI/lvgl/src/widgets/lv_roller.c ****         lv_draw_rect_dsc_t sel_dsc;
 457:Middlewares/LVGL/GUI/lvgl/src/widgets/lv_roller.c ****         lv_draw_rect_dsc_init(&sel_dsc);
 458:Middlewares/LVGL/GUI/lvgl/src/widgets/lv_roller.c ****         lv_obj_init_draw_rect_dsc(obj, LV_PART_SELECTED, &sel_dsc);
 459:Middlewares/LVGL/GUI/lvgl/src/widgets/lv_roller.c ****         lv_draw_rect(draw_ctx, &sel_dsc, &sel_area);
 460:Middlewares/LVGL/GUI/lvgl/src/widgets/lv_roller.c ****     }
 461:Middlewares/LVGL/GUI/lvgl/src/widgets/lv_roller.c ****     /*Post draw when the children are drawn*/
 462:Middlewares/LVGL/GUI/lvgl/src/widgets/lv_roller.c ****     else if(code == LV_EVENT_DRAW_POST) {
 463:Middlewares/LVGL/GUI/lvgl/src/widgets/lv_roller.c ****         lv_draw_ctx_t * draw_ctx = lv_event_get_draw_ctx(e);
 464:Middlewares/LVGL/GUI/lvgl/src/widgets/lv_roller.c **** 
 465:Middlewares/LVGL/GUI/lvgl/src/widgets/lv_roller.c ****         lv_draw_label_dsc_t label_dsc;
 466:Middlewares/LVGL/GUI/lvgl/src/widgets/lv_roller.c ****         lv_draw_label_dsc_init(&label_dsc);
 467:Middlewares/LVGL/GUI/lvgl/src/widgets/lv_roller.c ****         lv_obj_init_draw_label_dsc(obj, LV_PART_SELECTED, &label_dsc);
 468:Middlewares/LVGL/GUI/lvgl/src/widgets/lv_roller.c **** 
 469:Middlewares/LVGL/GUI/lvgl/src/widgets/lv_roller.c ****         /*Redraw the text on the selected area*/
 470:Middlewares/LVGL/GUI/lvgl/src/widgets/lv_roller.c ****         lv_area_t sel_area;
 471:Middlewares/LVGL/GUI/lvgl/src/widgets/lv_roller.c ****         get_sel_area(obj, &sel_area);
 472:Middlewares/LVGL/GUI/lvgl/src/widgets/lv_roller.c ****         lv_area_t mask_sel;
 473:Middlewares/LVGL/GUI/lvgl/src/widgets/lv_roller.c ****         bool area_ok;
 474:Middlewares/LVGL/GUI/lvgl/src/widgets/lv_roller.c ****         area_ok = _lv_area_intersect(&mask_sel, draw_ctx->clip_area, &sel_area);
 475:Middlewares/LVGL/GUI/lvgl/src/widgets/lv_roller.c ****         if(area_ok) {
 476:Middlewares/LVGL/GUI/lvgl/src/widgets/lv_roller.c ****             lv_obj_t * label = get_label(obj);
 477:Middlewares/LVGL/GUI/lvgl/src/widgets/lv_roller.c **** 
 478:Middlewares/LVGL/GUI/lvgl/src/widgets/lv_roller.c ****             /*Get the size of the "selected text"*/
 479:Middlewares/LVGL/GUI/lvgl/src/widgets/lv_roller.c ****             lv_point_t res_p;
 480:Middlewares/LVGL/GUI/lvgl/src/widgets/lv_roller.c ****             lv_txt_get_size(&res_p, lv_label_get_text(label), label_dsc.font, label_dsc.letter_spac
 481:Middlewares/LVGL/GUI/lvgl/src/widgets/lv_roller.c ****                             lv_obj_get_width(obj), LV_TEXT_FLAG_EXPAND);
 482:Middlewares/LVGL/GUI/lvgl/src/widgets/lv_roller.c **** 
 483:Middlewares/LVGL/GUI/lvgl/src/widgets/lv_roller.c ****             /*Move the selected label proportionally with the background label*/
 484:Middlewares/LVGL/GUI/lvgl/src/widgets/lv_roller.c ****             lv_coord_t roller_h = lv_obj_get_height(obj);
 485:Middlewares/LVGL/GUI/lvgl/src/widgets/lv_roller.c ****             int32_t label_y_prop = label->coords.y1 - (roller_h / 2 +
 486:Middlewares/LVGL/GUI/lvgl/src/widgets/lv_roller.c ****                                                        obj->coords.y1); /*label offset from the mid
ARM GAS  C:\Users\ADMINI~1\AppData\Local\Temp\ccvtjbeI.s 			page 10


 487:Middlewares/LVGL/GUI/lvgl/src/widgets/lv_roller.c ****             label_y_prop = (label_y_prop * 16384) / lv_obj_get_height(
 488:Middlewares/LVGL/GUI/lvgl/src/widgets/lv_roller.c ****                                label); /*Proportional position from the middle line (upscaled by <<
 489:Middlewares/LVGL/GUI/lvgl/src/widgets/lv_roller.c **** 
 490:Middlewares/LVGL/GUI/lvgl/src/widgets/lv_roller.c ****             /*Apply a correction with different line heights*/
 491:Middlewares/LVGL/GUI/lvgl/src/widgets/lv_roller.c ****             const lv_font_t * normal_label_font = lv_obj_get_style_text_font(obj, LV_PART_MAIN);
 492:Middlewares/LVGL/GUI/lvgl/src/widgets/lv_roller.c ****             lv_coord_t corr = (label_dsc.font->line_height - normal_label_font->line_height) / 2;
 493:Middlewares/LVGL/GUI/lvgl/src/widgets/lv_roller.c **** 
 494:Middlewares/LVGL/GUI/lvgl/src/widgets/lv_roller.c ****             /*Apply the proportional position to the selected text*/
 495:Middlewares/LVGL/GUI/lvgl/src/widgets/lv_roller.c ****             res_p.y -= corr;
 496:Middlewares/LVGL/GUI/lvgl/src/widgets/lv_roller.c ****             int32_t label_sel_y = roller_h / 2 + obj->coords.y1;
 497:Middlewares/LVGL/GUI/lvgl/src/widgets/lv_roller.c ****             label_sel_y += (label_y_prop * res_p.y) >> 14;
 498:Middlewares/LVGL/GUI/lvgl/src/widgets/lv_roller.c ****             label_sel_y -= corr;
 499:Middlewares/LVGL/GUI/lvgl/src/widgets/lv_roller.c **** 
 500:Middlewares/LVGL/GUI/lvgl/src/widgets/lv_roller.c ****             lv_coord_t bwidth = lv_obj_get_style_border_width(obj, LV_PART_MAIN);
 501:Middlewares/LVGL/GUI/lvgl/src/widgets/lv_roller.c ****             lv_coord_t pleft = lv_obj_get_style_pad_left(obj, LV_PART_MAIN);
 502:Middlewares/LVGL/GUI/lvgl/src/widgets/lv_roller.c ****             lv_coord_t pright = lv_obj_get_style_pad_right(obj, LV_PART_MAIN);
 503:Middlewares/LVGL/GUI/lvgl/src/widgets/lv_roller.c **** 
 504:Middlewares/LVGL/GUI/lvgl/src/widgets/lv_roller.c ****             /*Draw the selected text*/
 505:Middlewares/LVGL/GUI/lvgl/src/widgets/lv_roller.c ****             lv_area_t label_sel_area;
 506:Middlewares/LVGL/GUI/lvgl/src/widgets/lv_roller.c ****             label_sel_area.x1 = obj->coords.x1 + pleft + bwidth;
 507:Middlewares/LVGL/GUI/lvgl/src/widgets/lv_roller.c ****             label_sel_area.y1 = label_sel_y;
 508:Middlewares/LVGL/GUI/lvgl/src/widgets/lv_roller.c ****             label_sel_area.x2 = obj->coords.x2 - pright - bwidth;
 509:Middlewares/LVGL/GUI/lvgl/src/widgets/lv_roller.c ****             label_sel_area.y2 = label_sel_area.y1 + res_p.y;
 510:Middlewares/LVGL/GUI/lvgl/src/widgets/lv_roller.c **** 
 511:Middlewares/LVGL/GUI/lvgl/src/widgets/lv_roller.c ****             label_dsc.flag |= LV_TEXT_FLAG_EXPAND;
 512:Middlewares/LVGL/GUI/lvgl/src/widgets/lv_roller.c ****             const lv_area_t * clip_area_ori = draw_ctx->clip_area;
 513:Middlewares/LVGL/GUI/lvgl/src/widgets/lv_roller.c ****             draw_ctx->clip_area = &mask_sel;
 514:Middlewares/LVGL/GUI/lvgl/src/widgets/lv_roller.c ****             lv_draw_label(draw_ctx, &label_dsc, &label_sel_area, lv_label_get_text(label), NULL);
 515:Middlewares/LVGL/GUI/lvgl/src/widgets/lv_roller.c ****             draw_ctx->clip_area = clip_area_ori;
 516:Middlewares/LVGL/GUI/lvgl/src/widgets/lv_roller.c ****         }
 517:Middlewares/LVGL/GUI/lvgl/src/widgets/lv_roller.c ****     }
 518:Middlewares/LVGL/GUI/lvgl/src/widgets/lv_roller.c **** }
 519:Middlewares/LVGL/GUI/lvgl/src/widgets/lv_roller.c **** 
 520:Middlewares/LVGL/GUI/lvgl/src/widgets/lv_roller.c **** static void draw_label(lv_event_t * e)
 521:Middlewares/LVGL/GUI/lvgl/src/widgets/lv_roller.c **** {
 522:Middlewares/LVGL/GUI/lvgl/src/widgets/lv_roller.c ****     /* Split the drawing of the label into  an upper (above the selected area)
 523:Middlewares/LVGL/GUI/lvgl/src/widgets/lv_roller.c ****      * and a lower (below the selected area)*/
 524:Middlewares/LVGL/GUI/lvgl/src/widgets/lv_roller.c ****     lv_obj_t * label_obj = lv_event_get_target(e);
 525:Middlewares/LVGL/GUI/lvgl/src/widgets/lv_roller.c ****     lv_obj_t * roller = lv_obj_get_parent(label_obj);
 526:Middlewares/LVGL/GUI/lvgl/src/widgets/lv_roller.c ****     lv_draw_label_dsc_t label_draw_dsc;
 527:Middlewares/LVGL/GUI/lvgl/src/widgets/lv_roller.c ****     lv_draw_label_dsc_init(&label_draw_dsc);
 528:Middlewares/LVGL/GUI/lvgl/src/widgets/lv_roller.c ****     lv_obj_init_draw_label_dsc(roller, LV_PART_MAIN, &label_draw_dsc);
 529:Middlewares/LVGL/GUI/lvgl/src/widgets/lv_roller.c ****     lv_draw_ctx_t * draw_ctx = lv_event_get_draw_ctx(e);
 530:Middlewares/LVGL/GUI/lvgl/src/widgets/lv_roller.c **** 
 531:Middlewares/LVGL/GUI/lvgl/src/widgets/lv_roller.c ****     /*If the roller has shadow or outline it has some ext. draw size
 532:Middlewares/LVGL/GUI/lvgl/src/widgets/lv_roller.c ****      *therefore the label can overflow the roller's boundaries.
 533:Middlewares/LVGL/GUI/lvgl/src/widgets/lv_roller.c ****      *To solve this limit the clip area to the "plain" roller.*/
 534:Middlewares/LVGL/GUI/lvgl/src/widgets/lv_roller.c ****     const lv_area_t * clip_area_ori = draw_ctx->clip_area;
 535:Middlewares/LVGL/GUI/lvgl/src/widgets/lv_roller.c ****     lv_area_t roller_clip_area;
 536:Middlewares/LVGL/GUI/lvgl/src/widgets/lv_roller.c ****     if(!_lv_area_intersect(&roller_clip_area, draw_ctx->clip_area, &roller->coords)) return;
 537:Middlewares/LVGL/GUI/lvgl/src/widgets/lv_roller.c ****     draw_ctx->clip_area = &roller_clip_area;
 538:Middlewares/LVGL/GUI/lvgl/src/widgets/lv_roller.c **** 
 539:Middlewares/LVGL/GUI/lvgl/src/widgets/lv_roller.c ****     lv_area_t sel_area;
 540:Middlewares/LVGL/GUI/lvgl/src/widgets/lv_roller.c ****     get_sel_area(roller, &sel_area);
 541:Middlewares/LVGL/GUI/lvgl/src/widgets/lv_roller.c **** 
 542:Middlewares/LVGL/GUI/lvgl/src/widgets/lv_roller.c ****     lv_area_t clip2;
 543:Middlewares/LVGL/GUI/lvgl/src/widgets/lv_roller.c ****     clip2.x1 = label_obj->coords.x1;
ARM GAS  C:\Users\ADMINI~1\AppData\Local\Temp\ccvtjbeI.s 			page 11


 544:Middlewares/LVGL/GUI/lvgl/src/widgets/lv_roller.c ****     clip2.y1 = label_obj->coords.y1;
 545:Middlewares/LVGL/GUI/lvgl/src/widgets/lv_roller.c ****     clip2.x2 = label_obj->coords.x2;
 546:Middlewares/LVGL/GUI/lvgl/src/widgets/lv_roller.c ****     clip2.y2 = sel_area.y1;
 547:Middlewares/LVGL/GUI/lvgl/src/widgets/lv_roller.c ****     if(_lv_area_intersect(&clip2, draw_ctx->clip_area, &clip2)) {
 548:Middlewares/LVGL/GUI/lvgl/src/widgets/lv_roller.c ****         const lv_area_t * clip_area_ori2 = draw_ctx->clip_area;
 549:Middlewares/LVGL/GUI/lvgl/src/widgets/lv_roller.c ****         draw_ctx->clip_area = &clip2;
 550:Middlewares/LVGL/GUI/lvgl/src/widgets/lv_roller.c ****         lv_draw_label(draw_ctx, &label_draw_dsc, &label_obj->coords, lv_label_get_text(label_obj), 
 551:Middlewares/LVGL/GUI/lvgl/src/widgets/lv_roller.c ****         draw_ctx->clip_area = clip_area_ori2;
 552:Middlewares/LVGL/GUI/lvgl/src/widgets/lv_roller.c ****     }
 553:Middlewares/LVGL/GUI/lvgl/src/widgets/lv_roller.c **** 
 554:Middlewares/LVGL/GUI/lvgl/src/widgets/lv_roller.c ****     clip2.x1 = label_obj->coords.x1;
 555:Middlewares/LVGL/GUI/lvgl/src/widgets/lv_roller.c ****     clip2.y1 = sel_area.y2;
 556:Middlewares/LVGL/GUI/lvgl/src/widgets/lv_roller.c ****     clip2.x2 = label_obj->coords.x2;
 557:Middlewares/LVGL/GUI/lvgl/src/widgets/lv_roller.c ****     clip2.y2 = label_obj->coords.y2;
 558:Middlewares/LVGL/GUI/lvgl/src/widgets/lv_roller.c ****     if(_lv_area_intersect(&clip2, draw_ctx->clip_area, &clip2)) {
 559:Middlewares/LVGL/GUI/lvgl/src/widgets/lv_roller.c ****         const lv_area_t * clip_area_ori2 = draw_ctx->clip_area;
 560:Middlewares/LVGL/GUI/lvgl/src/widgets/lv_roller.c ****         draw_ctx->clip_area = &clip2;
 561:Middlewares/LVGL/GUI/lvgl/src/widgets/lv_roller.c ****         lv_draw_label(draw_ctx, &label_draw_dsc, &label_obj->coords, lv_label_get_text(label_obj), 
 562:Middlewares/LVGL/GUI/lvgl/src/widgets/lv_roller.c ****         draw_ctx->clip_area = clip_area_ori2;
 563:Middlewares/LVGL/GUI/lvgl/src/widgets/lv_roller.c ****     }
 564:Middlewares/LVGL/GUI/lvgl/src/widgets/lv_roller.c **** 
 565:Middlewares/LVGL/GUI/lvgl/src/widgets/lv_roller.c ****     draw_ctx->clip_area = clip_area_ori;
 566:Middlewares/LVGL/GUI/lvgl/src/widgets/lv_roller.c **** }
 567:Middlewares/LVGL/GUI/lvgl/src/widgets/lv_roller.c **** 
 568:Middlewares/LVGL/GUI/lvgl/src/widgets/lv_roller.c **** static void get_sel_area(lv_obj_t * obj, lv_area_t * sel_area)
 569:Middlewares/LVGL/GUI/lvgl/src/widgets/lv_roller.c **** {
 570:Middlewares/LVGL/GUI/lvgl/src/widgets/lv_roller.c **** 
 571:Middlewares/LVGL/GUI/lvgl/src/widgets/lv_roller.c ****     const lv_font_t * font_main = lv_obj_get_style_text_font(obj, LV_PART_MAIN);
 572:Middlewares/LVGL/GUI/lvgl/src/widgets/lv_roller.c ****     const lv_font_t * font_sel = lv_obj_get_style_text_font(obj, LV_PART_SELECTED);
 573:Middlewares/LVGL/GUI/lvgl/src/widgets/lv_roller.c ****     lv_coord_t font_main_h        = lv_font_get_line_height(font_main);
 574:Middlewares/LVGL/GUI/lvgl/src/widgets/lv_roller.c ****     lv_coord_t font_sel_h        = lv_font_get_line_height(font_sel);
 575:Middlewares/LVGL/GUI/lvgl/src/widgets/lv_roller.c ****     lv_coord_t line_space = lv_obj_get_style_text_line_space(obj, LV_PART_MAIN);
 576:Middlewares/LVGL/GUI/lvgl/src/widgets/lv_roller.c ****     lv_coord_t d = (font_sel_h + font_main_h) / 2 + line_space;
 577:Middlewares/LVGL/GUI/lvgl/src/widgets/lv_roller.c ****     sel_area->y1 = obj->coords.y1 + lv_obj_get_height(obj) / 2 - d / 2;
 578:Middlewares/LVGL/GUI/lvgl/src/widgets/lv_roller.c ****     sel_area->y2 = sel_area->y1 + d;
 579:Middlewares/LVGL/GUI/lvgl/src/widgets/lv_roller.c ****     lv_area_t roller_coords;
 580:Middlewares/LVGL/GUI/lvgl/src/widgets/lv_roller.c ****     lv_obj_get_coords(obj, &roller_coords);
 581:Middlewares/LVGL/GUI/lvgl/src/widgets/lv_roller.c **** 
 582:Middlewares/LVGL/GUI/lvgl/src/widgets/lv_roller.c ****     sel_area->x1 = roller_coords.x1;
 583:Middlewares/LVGL/GUI/lvgl/src/widgets/lv_roller.c ****     sel_area->x2 = roller_coords.x2;
 584:Middlewares/LVGL/GUI/lvgl/src/widgets/lv_roller.c **** 
 585:Middlewares/LVGL/GUI/lvgl/src/widgets/lv_roller.c **** }
 586:Middlewares/LVGL/GUI/lvgl/src/widgets/lv_roller.c **** 
 587:Middlewares/LVGL/GUI/lvgl/src/widgets/lv_roller.c **** /**
 588:Middlewares/LVGL/GUI/lvgl/src/widgets/lv_roller.c ****  * Refresh the position of the roller. It uses the id stored in: roller->ddlist.selected_option_id
 589:Middlewares/LVGL/GUI/lvgl/src/widgets/lv_roller.c ****  * @param roller pointer to a roller object
 590:Middlewares/LVGL/GUI/lvgl/src/widgets/lv_roller.c ****  * @param anim_en LV_ANIM_ON: refresh with animation; LV_ANOM_OFF: without animation
 591:Middlewares/LVGL/GUI/lvgl/src/widgets/lv_roller.c ****  */
 592:Middlewares/LVGL/GUI/lvgl/src/widgets/lv_roller.c **** static void refr_position(lv_obj_t * obj, lv_anim_enable_t anim_en)
 593:Middlewares/LVGL/GUI/lvgl/src/widgets/lv_roller.c **** {
 594:Middlewares/LVGL/GUI/lvgl/src/widgets/lv_roller.c ****     lv_obj_t * label = get_label(obj);
 595:Middlewares/LVGL/GUI/lvgl/src/widgets/lv_roller.c ****     if(label == NULL) return;
 596:Middlewares/LVGL/GUI/lvgl/src/widgets/lv_roller.c **** 
 597:Middlewares/LVGL/GUI/lvgl/src/widgets/lv_roller.c ****     lv_text_align_t align = lv_obj_calculate_style_text_align(label, LV_PART_MAIN, lv_label_get_tex
 598:Middlewares/LVGL/GUI/lvgl/src/widgets/lv_roller.c **** 
 599:Middlewares/LVGL/GUI/lvgl/src/widgets/lv_roller.c ****     switch(align) {
 600:Middlewares/LVGL/GUI/lvgl/src/widgets/lv_roller.c ****         case LV_TEXT_ALIGN_CENTER:
ARM GAS  C:\Users\ADMINI~1\AppData\Local\Temp\ccvtjbeI.s 			page 12


 601:Middlewares/LVGL/GUI/lvgl/src/widgets/lv_roller.c ****             lv_obj_set_x(label, (lv_obj_get_content_width(obj) - lv_obj_get_width(label)) / 2);
 602:Middlewares/LVGL/GUI/lvgl/src/widgets/lv_roller.c ****             break;
 603:Middlewares/LVGL/GUI/lvgl/src/widgets/lv_roller.c ****         case LV_TEXT_ALIGN_RIGHT:
 604:Middlewares/LVGL/GUI/lvgl/src/widgets/lv_roller.c ****             lv_obj_set_x(label, lv_obj_get_content_width(obj) - lv_obj_get_width(label));
 605:Middlewares/LVGL/GUI/lvgl/src/widgets/lv_roller.c ****             break;
 606:Middlewares/LVGL/GUI/lvgl/src/widgets/lv_roller.c ****         case LV_TEXT_ALIGN_LEFT:
 607:Middlewares/LVGL/GUI/lvgl/src/widgets/lv_roller.c ****             lv_obj_set_x(label, 0);
 608:Middlewares/LVGL/GUI/lvgl/src/widgets/lv_roller.c ****             break;
 609:Middlewares/LVGL/GUI/lvgl/src/widgets/lv_roller.c ****     }
 610:Middlewares/LVGL/GUI/lvgl/src/widgets/lv_roller.c **** 
 611:Middlewares/LVGL/GUI/lvgl/src/widgets/lv_roller.c ****     lv_roller_t * roller = (lv_roller_t *)obj;
 612:Middlewares/LVGL/GUI/lvgl/src/widgets/lv_roller.c ****     const lv_font_t * font = lv_obj_get_style_text_font(obj, LV_PART_MAIN);
 613:Middlewares/LVGL/GUI/lvgl/src/widgets/lv_roller.c ****     lv_coord_t line_space = lv_obj_get_style_text_line_space(obj, LV_PART_MAIN);
 614:Middlewares/LVGL/GUI/lvgl/src/widgets/lv_roller.c ****     lv_coord_t font_h              = lv_font_get_line_height(font);
 615:Middlewares/LVGL/GUI/lvgl/src/widgets/lv_roller.c ****     lv_coord_t h                   = lv_obj_get_content_height(obj);
 616:Middlewares/LVGL/GUI/lvgl/src/widgets/lv_roller.c ****     uint16_t anim_time             = lv_obj_get_style_anim_time(obj, LV_PART_MAIN);
 617:Middlewares/LVGL/GUI/lvgl/src/widgets/lv_roller.c **** 
 618:Middlewares/LVGL/GUI/lvgl/src/widgets/lv_roller.c ****     /*Normally the animation's `end_cb` sets correct position of the roller if infinite.
 619:Middlewares/LVGL/GUI/lvgl/src/widgets/lv_roller.c ****      *But without animations do it manually*/
 620:Middlewares/LVGL/GUI/lvgl/src/widgets/lv_roller.c ****     if(anim_en == LV_ANIM_OFF || anim_time == 0) {
 621:Middlewares/LVGL/GUI/lvgl/src/widgets/lv_roller.c ****         inf_normalize(obj);
 622:Middlewares/LVGL/GUI/lvgl/src/widgets/lv_roller.c ****     }
 623:Middlewares/LVGL/GUI/lvgl/src/widgets/lv_roller.c **** 
 624:Middlewares/LVGL/GUI/lvgl/src/widgets/lv_roller.c ****     int32_t id = roller->sel_opt_id;
 625:Middlewares/LVGL/GUI/lvgl/src/widgets/lv_roller.c ****     lv_coord_t sel_y1 = id * (font_h + line_space);
 626:Middlewares/LVGL/GUI/lvgl/src/widgets/lv_roller.c ****     lv_coord_t mid_y1 = h / 2 - font_h / 2;
 627:Middlewares/LVGL/GUI/lvgl/src/widgets/lv_roller.c **** 
 628:Middlewares/LVGL/GUI/lvgl/src/widgets/lv_roller.c ****     lv_coord_t new_y = mid_y1 - sel_y1;
 629:Middlewares/LVGL/GUI/lvgl/src/widgets/lv_roller.c **** 
 630:Middlewares/LVGL/GUI/lvgl/src/widgets/lv_roller.c ****     if(anim_en == LV_ANIM_OFF || anim_time == 0) {
 631:Middlewares/LVGL/GUI/lvgl/src/widgets/lv_roller.c ****         lv_anim_del(label, set_y_anim);
 632:Middlewares/LVGL/GUI/lvgl/src/widgets/lv_roller.c ****         lv_obj_set_y(label, new_y);
 633:Middlewares/LVGL/GUI/lvgl/src/widgets/lv_roller.c ****     }
 634:Middlewares/LVGL/GUI/lvgl/src/widgets/lv_roller.c ****     else {
 635:Middlewares/LVGL/GUI/lvgl/src/widgets/lv_roller.c ****         lv_anim_t a;
 636:Middlewares/LVGL/GUI/lvgl/src/widgets/lv_roller.c ****         lv_anim_init(&a);
 637:Middlewares/LVGL/GUI/lvgl/src/widgets/lv_roller.c ****         lv_anim_set_var(&a, label);
 638:Middlewares/LVGL/GUI/lvgl/src/widgets/lv_roller.c ****         lv_anim_set_exec_cb(&a, set_y_anim);
 639:Middlewares/LVGL/GUI/lvgl/src/widgets/lv_roller.c ****         lv_anim_set_values(&a, lv_obj_get_y(label), new_y);
 640:Middlewares/LVGL/GUI/lvgl/src/widgets/lv_roller.c ****         lv_anim_set_time(&a, anim_time);
 641:Middlewares/LVGL/GUI/lvgl/src/widgets/lv_roller.c ****         lv_anim_set_ready_cb(&a, scroll_anim_ready_cb);
 642:Middlewares/LVGL/GUI/lvgl/src/widgets/lv_roller.c ****         lv_anim_set_path_cb(&a, lv_anim_path_ease_out);
 643:Middlewares/LVGL/GUI/lvgl/src/widgets/lv_roller.c ****         lv_anim_start(&a);
 644:Middlewares/LVGL/GUI/lvgl/src/widgets/lv_roller.c ****     }
 645:Middlewares/LVGL/GUI/lvgl/src/widgets/lv_roller.c **** }
 646:Middlewares/LVGL/GUI/lvgl/src/widgets/lv_roller.c **** 
 647:Middlewares/LVGL/GUI/lvgl/src/widgets/lv_roller.c **** static lv_res_t release_handler(lv_obj_t * obj)
 648:Middlewares/LVGL/GUI/lvgl/src/widgets/lv_roller.c **** {
 649:Middlewares/LVGL/GUI/lvgl/src/widgets/lv_roller.c ****     lv_obj_t * label = get_label(obj);
 650:Middlewares/LVGL/GUI/lvgl/src/widgets/lv_roller.c ****     if(label == NULL) return LV_RES_OK;
 651:Middlewares/LVGL/GUI/lvgl/src/widgets/lv_roller.c **** 
 652:Middlewares/LVGL/GUI/lvgl/src/widgets/lv_roller.c ****     lv_indev_t * indev = lv_indev_get_act();
 653:Middlewares/LVGL/GUI/lvgl/src/widgets/lv_roller.c ****     lv_roller_t * roller = (lv_roller_t *)obj;
 654:Middlewares/LVGL/GUI/lvgl/src/widgets/lv_roller.c **** 
 655:Middlewares/LVGL/GUI/lvgl/src/widgets/lv_roller.c ****     /*Leave edit mode once a new option is selected*/
 656:Middlewares/LVGL/GUI/lvgl/src/widgets/lv_roller.c ****     lv_indev_type_t indev_type = lv_indev_get_type(indev);
 657:Middlewares/LVGL/GUI/lvgl/src/widgets/lv_roller.c ****     if(indev_type == LV_INDEV_TYPE_ENCODER || indev_type == LV_INDEV_TYPE_KEYPAD) {
ARM GAS  C:\Users\ADMINI~1\AppData\Local\Temp\ccvtjbeI.s 			page 13


 658:Middlewares/LVGL/GUI/lvgl/src/widgets/lv_roller.c ****         roller->sel_opt_id_ori = roller->sel_opt_id;
 659:Middlewares/LVGL/GUI/lvgl/src/widgets/lv_roller.c **** 
 660:Middlewares/LVGL/GUI/lvgl/src/widgets/lv_roller.c ****         if(indev_type == LV_INDEV_TYPE_ENCODER) {
 661:Middlewares/LVGL/GUI/lvgl/src/widgets/lv_roller.c ****             lv_group_t * g      = lv_obj_get_group(obj);
 662:Middlewares/LVGL/GUI/lvgl/src/widgets/lv_roller.c ****             if(lv_group_get_editing(g)) {
 663:Middlewares/LVGL/GUI/lvgl/src/widgets/lv_roller.c ****                 lv_group_set_editing(g, false);
 664:Middlewares/LVGL/GUI/lvgl/src/widgets/lv_roller.c ****             }
 665:Middlewares/LVGL/GUI/lvgl/src/widgets/lv_roller.c ****         }
 666:Middlewares/LVGL/GUI/lvgl/src/widgets/lv_roller.c ****     }
 667:Middlewares/LVGL/GUI/lvgl/src/widgets/lv_roller.c **** 
 668:Middlewares/LVGL/GUI/lvgl/src/widgets/lv_roller.c ****     if(lv_indev_get_type(indev) == LV_INDEV_TYPE_POINTER || lv_indev_get_type(indev) == LV_INDEV_TY
 669:Middlewares/LVGL/GUI/lvgl/src/widgets/lv_roller.c ****         /*Search the clicked option (For KEYPAD and ENCODER the new value should be already set)*/
 670:Middlewares/LVGL/GUI/lvgl/src/widgets/lv_roller.c ****         int16_t new_opt  = -1;
 671:Middlewares/LVGL/GUI/lvgl/src/widgets/lv_roller.c ****         if(roller->moved == 0) {
 672:Middlewares/LVGL/GUI/lvgl/src/widgets/lv_roller.c ****             new_opt = 0;
 673:Middlewares/LVGL/GUI/lvgl/src/widgets/lv_roller.c ****             lv_point_t p;
 674:Middlewares/LVGL/GUI/lvgl/src/widgets/lv_roller.c ****             lv_indev_get_point(indev, &p);
 675:Middlewares/LVGL/GUI/lvgl/src/widgets/lv_roller.c ****             p.y -= label->coords.y1;
 676:Middlewares/LVGL/GUI/lvgl/src/widgets/lv_roller.c ****             p.x -= label->coords.x1;
 677:Middlewares/LVGL/GUI/lvgl/src/widgets/lv_roller.c ****             uint32_t letter_i;
 678:Middlewares/LVGL/GUI/lvgl/src/widgets/lv_roller.c ****             letter_i = lv_label_get_letter_on(label, &p);
 679:Middlewares/LVGL/GUI/lvgl/src/widgets/lv_roller.c **** 
 680:Middlewares/LVGL/GUI/lvgl/src/widgets/lv_roller.c ****             const char * txt  = lv_label_get_text(label);
 681:Middlewares/LVGL/GUI/lvgl/src/widgets/lv_roller.c ****             uint32_t i        = 0;
 682:Middlewares/LVGL/GUI/lvgl/src/widgets/lv_roller.c ****             uint32_t i_prev   = 0;
 683:Middlewares/LVGL/GUI/lvgl/src/widgets/lv_roller.c **** 
 684:Middlewares/LVGL/GUI/lvgl/src/widgets/lv_roller.c ****             uint32_t letter_cnt = 0;
 685:Middlewares/LVGL/GUI/lvgl/src/widgets/lv_roller.c ****             for(letter_cnt = 0; letter_cnt < letter_i; letter_cnt++) {
 686:Middlewares/LVGL/GUI/lvgl/src/widgets/lv_roller.c ****                 uint32_t letter = _lv_txt_encoded_next(txt, &i);
 687:Middlewares/LVGL/GUI/lvgl/src/widgets/lv_roller.c ****                 /*Count he lines to reach the clicked letter. But ignore the last '\n' because it
 688:Middlewares/LVGL/GUI/lvgl/src/widgets/lv_roller.c ****                  * still belongs to the clicked line*/
 689:Middlewares/LVGL/GUI/lvgl/src/widgets/lv_roller.c ****                 if(letter == '\n' && i_prev != letter_i) new_opt++;
 690:Middlewares/LVGL/GUI/lvgl/src/widgets/lv_roller.c ****                 i_prev = i;
 691:Middlewares/LVGL/GUI/lvgl/src/widgets/lv_roller.c ****             }
 692:Middlewares/LVGL/GUI/lvgl/src/widgets/lv_roller.c ****         }
 693:Middlewares/LVGL/GUI/lvgl/src/widgets/lv_roller.c ****         else {
 694:Middlewares/LVGL/GUI/lvgl/src/widgets/lv_roller.c ****             /*If dragged then align the list to have an element in the middle*/
 695:Middlewares/LVGL/GUI/lvgl/src/widgets/lv_roller.c ****             const lv_font_t * font = lv_obj_get_style_text_font(obj, LV_PART_MAIN);
 696:Middlewares/LVGL/GUI/lvgl/src/widgets/lv_roller.c ****             lv_coord_t line_space = lv_obj_get_style_text_line_space(obj, LV_PART_MAIN);
 697:Middlewares/LVGL/GUI/lvgl/src/widgets/lv_roller.c ****             lv_coord_t font_h              = lv_font_get_line_height(font);
 698:Middlewares/LVGL/GUI/lvgl/src/widgets/lv_roller.c **** 
 699:Middlewares/LVGL/GUI/lvgl/src/widgets/lv_roller.c ****             lv_coord_t label_unit = font_h + line_space;
 700:Middlewares/LVGL/GUI/lvgl/src/widgets/lv_roller.c ****             lv_coord_t mid        = obj->coords.y1 + (obj->coords.y2 - obj->coords.y1) / 2;
 701:Middlewares/LVGL/GUI/lvgl/src/widgets/lv_roller.c ****             lv_coord_t label_y1 = label->coords.y1 + lv_indev_scroll_throw_predict(indev, LV_DIR_VE
 702:Middlewares/LVGL/GUI/lvgl/src/widgets/lv_roller.c ****             int32_t id = (mid - label_y1) / label_unit;
 703:Middlewares/LVGL/GUI/lvgl/src/widgets/lv_roller.c **** 
 704:Middlewares/LVGL/GUI/lvgl/src/widgets/lv_roller.c ****             if(id < 0) id = 0;
 705:Middlewares/LVGL/GUI/lvgl/src/widgets/lv_roller.c ****             if(id >= roller->option_cnt) id = roller->option_cnt - 1;
 706:Middlewares/LVGL/GUI/lvgl/src/widgets/lv_roller.c **** 
 707:Middlewares/LVGL/GUI/lvgl/src/widgets/lv_roller.c ****             new_opt = id;
 708:Middlewares/LVGL/GUI/lvgl/src/widgets/lv_roller.c ****         }
 709:Middlewares/LVGL/GUI/lvgl/src/widgets/lv_roller.c **** 
 710:Middlewares/LVGL/GUI/lvgl/src/widgets/lv_roller.c ****         if(new_opt >= 0) {
 711:Middlewares/LVGL/GUI/lvgl/src/widgets/lv_roller.c ****             lv_roller_set_selected(obj, new_opt, LV_ANIM_ON);
 712:Middlewares/LVGL/GUI/lvgl/src/widgets/lv_roller.c ****         }
 713:Middlewares/LVGL/GUI/lvgl/src/widgets/lv_roller.c ****     }
 714:Middlewares/LVGL/GUI/lvgl/src/widgets/lv_roller.c **** 
ARM GAS  C:\Users\ADMINI~1\AppData\Local\Temp\ccvtjbeI.s 			page 14


 715:Middlewares/LVGL/GUI/lvgl/src/widgets/lv_roller.c ****     uint32_t id  = roller->sel_opt_id; /*Just to use uint32_t in event data*/
 716:Middlewares/LVGL/GUI/lvgl/src/widgets/lv_roller.c ****     lv_res_t res = lv_event_send(obj, LV_EVENT_VALUE_CHANGED, &id);
 717:Middlewares/LVGL/GUI/lvgl/src/widgets/lv_roller.c ****     return res;
 718:Middlewares/LVGL/GUI/lvgl/src/widgets/lv_roller.c **** }
 719:Middlewares/LVGL/GUI/lvgl/src/widgets/lv_roller.c **** 
 720:Middlewares/LVGL/GUI/lvgl/src/widgets/lv_roller.c **** /**
 721:Middlewares/LVGL/GUI/lvgl/src/widgets/lv_roller.c ****  * Set the middle page for the roller if infinite is enabled
 722:Middlewares/LVGL/GUI/lvgl/src/widgets/lv_roller.c ****  * @param roller pointer to a roller object
 723:Middlewares/LVGL/GUI/lvgl/src/widgets/lv_roller.c ****  */
 724:Middlewares/LVGL/GUI/lvgl/src/widgets/lv_roller.c **** static void inf_normalize(lv_obj_t * obj)
 725:Middlewares/LVGL/GUI/lvgl/src/widgets/lv_roller.c **** {
 726:Middlewares/LVGL/GUI/lvgl/src/widgets/lv_roller.c ****     lv_roller_t * roller = (lv_roller_t *)obj;
 727:Middlewares/LVGL/GUI/lvgl/src/widgets/lv_roller.c **** 
 728:Middlewares/LVGL/GUI/lvgl/src/widgets/lv_roller.c ****     if(roller->mode == LV_ROLLER_MODE_INFINITE) {
 729:Middlewares/LVGL/GUI/lvgl/src/widgets/lv_roller.c ****         uint16_t real_id_cnt = roller->option_cnt / LV_ROLLER_INF_PAGES;
 730:Middlewares/LVGL/GUI/lvgl/src/widgets/lv_roller.c ****         roller->sel_opt_id = roller->sel_opt_id % real_id_cnt;
 731:Middlewares/LVGL/GUI/lvgl/src/widgets/lv_roller.c ****         roller->sel_opt_id += (LV_ROLLER_INF_PAGES / 2) * real_id_cnt; /*Select the middle page*/
 732:Middlewares/LVGL/GUI/lvgl/src/widgets/lv_roller.c **** 
 733:Middlewares/LVGL/GUI/lvgl/src/widgets/lv_roller.c ****         roller->sel_opt_id_ori = roller->sel_opt_id % real_id_cnt;
 734:Middlewares/LVGL/GUI/lvgl/src/widgets/lv_roller.c ****         roller->sel_opt_id_ori += (LV_ROLLER_INF_PAGES / 2) * real_id_cnt; /*Select the middle page
 735:Middlewares/LVGL/GUI/lvgl/src/widgets/lv_roller.c **** 
 736:Middlewares/LVGL/GUI/lvgl/src/widgets/lv_roller.c ****         /*Move to the new id*/
 737:Middlewares/LVGL/GUI/lvgl/src/widgets/lv_roller.c ****         const lv_font_t * font = lv_obj_get_style_text_font(obj, LV_PART_MAIN);
 738:Middlewares/LVGL/GUI/lvgl/src/widgets/lv_roller.c ****         lv_coord_t line_space = lv_obj_get_style_text_line_space(obj, LV_PART_MAIN);
 739:Middlewares/LVGL/GUI/lvgl/src/widgets/lv_roller.c ****         lv_coord_t font_h              = lv_font_get_line_height(font);
 740:Middlewares/LVGL/GUI/lvgl/src/widgets/lv_roller.c ****         lv_coord_t h                   = lv_obj_get_content_height(obj);
 741:Middlewares/LVGL/GUI/lvgl/src/widgets/lv_roller.c **** 
 742:Middlewares/LVGL/GUI/lvgl/src/widgets/lv_roller.c ****         lv_obj_t * label = get_label(obj);
 743:Middlewares/LVGL/GUI/lvgl/src/widgets/lv_roller.c **** 
 744:Middlewares/LVGL/GUI/lvgl/src/widgets/lv_roller.c **** 
 745:Middlewares/LVGL/GUI/lvgl/src/widgets/lv_roller.c ****         lv_coord_t sel_y1 = roller->sel_opt_id * (font_h + line_space);
 746:Middlewares/LVGL/GUI/lvgl/src/widgets/lv_roller.c ****         lv_coord_t mid_y1 = h / 2 - font_h / 2;
 747:Middlewares/LVGL/GUI/lvgl/src/widgets/lv_roller.c ****         lv_coord_t new_y = mid_y1 - sel_y1;
 748:Middlewares/LVGL/GUI/lvgl/src/widgets/lv_roller.c ****         lv_obj_set_y(label, new_y);
 749:Middlewares/LVGL/GUI/lvgl/src/widgets/lv_roller.c ****     }
 750:Middlewares/LVGL/GUI/lvgl/src/widgets/lv_roller.c **** }
 751:Middlewares/LVGL/GUI/lvgl/src/widgets/lv_roller.c **** 
 752:Middlewares/LVGL/GUI/lvgl/src/widgets/lv_roller.c **** static lv_obj_t * get_label(const lv_obj_t * obj)
 753:Middlewares/LVGL/GUI/lvgl/src/widgets/lv_roller.c **** {
 754:Middlewares/LVGL/GUI/lvgl/src/widgets/lv_roller.c ****     return lv_obj_get_child(obj, 0);
 755:Middlewares/LVGL/GUI/lvgl/src/widgets/lv_roller.c **** }
 756:Middlewares/LVGL/GUI/lvgl/src/widgets/lv_roller.c **** 
 757:Middlewares/LVGL/GUI/lvgl/src/widgets/lv_roller.c **** 
 758:Middlewares/LVGL/GUI/lvgl/src/widgets/lv_roller.c **** static lv_coord_t get_selected_label_width(const lv_obj_t * obj)
 759:Middlewares/LVGL/GUI/lvgl/src/widgets/lv_roller.c **** {
 760:Middlewares/LVGL/GUI/lvgl/src/widgets/lv_roller.c ****     lv_obj_t * label = get_label(obj);
 761:Middlewares/LVGL/GUI/lvgl/src/widgets/lv_roller.c ****     if(label == NULL) return 0;
 762:Middlewares/LVGL/GUI/lvgl/src/widgets/lv_roller.c **** 
 763:Middlewares/LVGL/GUI/lvgl/src/widgets/lv_roller.c ****     const lv_font_t * font = lv_obj_get_style_text_font(obj, LV_PART_SELECTED);
 764:Middlewares/LVGL/GUI/lvgl/src/widgets/lv_roller.c ****     lv_coord_t letter_space = lv_obj_get_style_text_letter_space(obj, LV_PART_SELECTED);
 765:Middlewares/LVGL/GUI/lvgl/src/widgets/lv_roller.c ****     const char * txt = lv_label_get_text(label);
 766:Middlewares/LVGL/GUI/lvgl/src/widgets/lv_roller.c ****     lv_point_t size;
 767:Middlewares/LVGL/GUI/lvgl/src/widgets/lv_roller.c ****     lv_txt_get_size(&size, txt, font, letter_space, 0, LV_COORD_MAX,  LV_TEXT_FLAG_NONE);
 768:Middlewares/LVGL/GUI/lvgl/src/widgets/lv_roller.c ****     return size.x;
 769:Middlewares/LVGL/GUI/lvgl/src/widgets/lv_roller.c **** }
 770:Middlewares/LVGL/GUI/lvgl/src/widgets/lv_roller.c **** 
 771:Middlewares/LVGL/GUI/lvgl/src/widgets/lv_roller.c **** static void scroll_anim_ready_cb(lv_anim_t * a)
ARM GAS  C:\Users\ADMINI~1\AppData\Local\Temp\ccvtjbeI.s 			page 15


 772:Middlewares/LVGL/GUI/lvgl/src/widgets/lv_roller.c **** {
 773:Middlewares/LVGL/GUI/lvgl/src/widgets/lv_roller.c ****     lv_obj_t * obj = lv_obj_get_parent(a->var); /*The label is animated*/
 774:Middlewares/LVGL/GUI/lvgl/src/widgets/lv_roller.c ****     inf_normalize(obj);
 775:Middlewares/LVGL/GUI/lvgl/src/widgets/lv_roller.c **** }
 776:Middlewares/LVGL/GUI/lvgl/src/widgets/lv_roller.c **** 
 777:Middlewares/LVGL/GUI/lvgl/src/widgets/lv_roller.c **** 
 778:Middlewares/LVGL/GUI/lvgl/src/widgets/lv_roller.c **** static void set_y_anim(void * obj, int32_t v)
 779:Middlewares/LVGL/GUI/lvgl/src/widgets/lv_roller.c **** {
  29              		.loc 1 779 1 view -0
  30              		.cfi_startproc
  31              		@ args = 0, pretend = 0, frame = 0
  32              		@ frame_needed = 0, uses_anonymous_args = 0
  33              		.loc 1 779 1 is_stmt 0 view .LVU1
  34 0000 08B5     		push	{r3, lr}
  35              	.LCFI0:
  36              		.cfi_def_cfa_offset 8
  37              		.cfi_offset 3, -8
  38              		.cfi_offset 14, -4
 780:Middlewares/LVGL/GUI/lvgl/src/widgets/lv_roller.c ****     lv_obj_set_y(obj, v);
  39              		.loc 1 780 5 is_stmt 1 view .LVU2
  40 0002 FFF7FEFF 		bl	lv_obj_set_y
  41              	.LVL1:
 781:Middlewares/LVGL/GUI/lvgl/src/widgets/lv_roller.c **** }
  42              		.loc 1 781 1 is_stmt 0 view .LVU3
  43 0006 08BD     		pop	{r3, pc}
  44              		.cfi_endproc
  45              	.LFE173:
  47              		.section	.text.get_label,"ax",%progbits
  48              		.align	1
  49              		.syntax unified
  50              		.thumb
  51              		.thumb_func
  53              	get_label:
  54              	.LVL2:
  55              	.LFB170:
 753:Middlewares/LVGL/GUI/lvgl/src/widgets/lv_roller.c ****     return lv_obj_get_child(obj, 0);
  56              		.loc 1 753 1 is_stmt 1 view -0
  57              		.cfi_startproc
  58              		@ args = 0, pretend = 0, frame = 0
  59              		@ frame_needed = 0, uses_anonymous_args = 0
 753:Middlewares/LVGL/GUI/lvgl/src/widgets/lv_roller.c ****     return lv_obj_get_child(obj, 0);
  60              		.loc 1 753 1 is_stmt 0 view .LVU5
  61 0000 08B5     		push	{r3, lr}
  62              	.LCFI1:
  63              		.cfi_def_cfa_offset 8
  64              		.cfi_offset 3, -8
  65              		.cfi_offset 14, -4
 754:Middlewares/LVGL/GUI/lvgl/src/widgets/lv_roller.c **** }
  66              		.loc 1 754 5 is_stmt 1 view .LVU6
 754:Middlewares/LVGL/GUI/lvgl/src/widgets/lv_roller.c **** }
  67              		.loc 1 754 12 is_stmt 0 view .LVU7
  68 0002 0021     		movs	r1, #0
  69 0004 FFF7FEFF 		bl	lv_obj_get_child
  70              	.LVL3:
 755:Middlewares/LVGL/GUI/lvgl/src/widgets/lv_roller.c **** 
  71              		.loc 1 755 1 view .LVU8
  72 0008 08BD     		pop	{r3, pc}
ARM GAS  C:\Users\ADMINI~1\AppData\Local\Temp\ccvtjbeI.s 			page 16


  73              		.cfi_endproc
  74              	.LFE170:
  76              		.section	.text.get_selected_label_width,"ax",%progbits
  77              		.align	1
  78              		.syntax unified
  79              		.thumb
  80              		.thumb_func
  82              	get_selected_label_width:
  83              	.LVL4:
  84              	.LFB171:
 759:Middlewares/LVGL/GUI/lvgl/src/widgets/lv_roller.c ****     lv_obj_t * label = get_label(obj);
  85              		.loc 1 759 1 is_stmt 1 view -0
  86              		.cfi_startproc
  87              		@ args = 0, pretend = 0, frame = 8
  88              		@ frame_needed = 0, uses_anonymous_args = 0
 759:Middlewares/LVGL/GUI/lvgl/src/widgets/lv_roller.c ****     lv_obj_t * label = get_label(obj);
  89              		.loc 1 759 1 is_stmt 0 view .LVU10
  90 0000 70B5     		push	{r4, r5, r6, lr}
  91              	.LCFI2:
  92              		.cfi_def_cfa_offset 16
  93              		.cfi_offset 4, -16
  94              		.cfi_offset 5, -12
  95              		.cfi_offset 6, -8
  96              		.cfi_offset 14, -4
  97 0002 86B0     		sub	sp, sp, #24
  98              	.LCFI3:
  99              		.cfi_def_cfa_offset 40
 100 0004 0446     		mov	r4, r0
 760:Middlewares/LVGL/GUI/lvgl/src/widgets/lv_roller.c ****     if(label == NULL) return 0;
 101              		.loc 1 760 5 is_stmt 1 view .LVU11
 760:Middlewares/LVGL/GUI/lvgl/src/widgets/lv_roller.c ****     if(label == NULL) return 0;
 102              		.loc 1 760 24 is_stmt 0 view .LVU12
 103 0006 FFF7FEFF 		bl	get_label
 104              	.LVL5:
 761:Middlewares/LVGL/GUI/lvgl/src/widgets/lv_roller.c **** 
 105              		.loc 1 761 5 is_stmt 1 view .LVU13
 761:Middlewares/LVGL/GUI/lvgl/src/widgets/lv_roller.c **** 
 106              		.loc 1 761 7 is_stmt 0 view .LVU14
 107 000a 10B3     		cbz	r0, .L7
 108 000c 0646     		mov	r6, r0
 763:Middlewares/LVGL/GUI/lvgl/src/widgets/lv_roller.c ****     lv_coord_t letter_space = lv_obj_get_style_text_letter_space(obj, LV_PART_SELECTED);
 109              		.loc 1 763 5 is_stmt 1 view .LVU15
 110              	.LVL6:
 111              	.LBB74:
 112              	.LBI74:
 113              		.file 2 "Middlewares/LVGL/GUI/lvgl/src/widgets/../core/lv_obj_style_gen.h"
   1:Middlewares/LVGL/GUI/lvgl/src/widgets/../core/lv_obj_style_gen.h **** static inline lv_coord_t lv_obj_get_style_width(const struct _lv_obj_t * obj, uint32_t part)
   2:Middlewares/LVGL/GUI/lvgl/src/widgets/../core/lv_obj_style_gen.h **** {
   3:Middlewares/LVGL/GUI/lvgl/src/widgets/../core/lv_obj_style_gen.h ****     lv_style_value_t v = lv_obj_get_style_prop(obj, part, LV_STYLE_WIDTH);
   4:Middlewares/LVGL/GUI/lvgl/src/widgets/../core/lv_obj_style_gen.h ****     return (lv_coord_t)v.num;
   5:Middlewares/LVGL/GUI/lvgl/src/widgets/../core/lv_obj_style_gen.h **** }
   6:Middlewares/LVGL/GUI/lvgl/src/widgets/../core/lv_obj_style_gen.h **** 
   7:Middlewares/LVGL/GUI/lvgl/src/widgets/../core/lv_obj_style_gen.h **** static inline lv_coord_t lv_obj_get_style_min_width(const struct _lv_obj_t * obj, uint32_t part)
   8:Middlewares/LVGL/GUI/lvgl/src/widgets/../core/lv_obj_style_gen.h **** {
   9:Middlewares/LVGL/GUI/lvgl/src/widgets/../core/lv_obj_style_gen.h ****     lv_style_value_t v = lv_obj_get_style_prop(obj, part, LV_STYLE_MIN_WIDTH);
  10:Middlewares/LVGL/GUI/lvgl/src/widgets/../core/lv_obj_style_gen.h ****     return (lv_coord_t)v.num;
  11:Middlewares/LVGL/GUI/lvgl/src/widgets/../core/lv_obj_style_gen.h **** }
ARM GAS  C:\Users\ADMINI~1\AppData\Local\Temp\ccvtjbeI.s 			page 17


  12:Middlewares/LVGL/GUI/lvgl/src/widgets/../core/lv_obj_style_gen.h **** 
  13:Middlewares/LVGL/GUI/lvgl/src/widgets/../core/lv_obj_style_gen.h **** static inline lv_coord_t lv_obj_get_style_max_width(const struct _lv_obj_t * obj, uint32_t part)
  14:Middlewares/LVGL/GUI/lvgl/src/widgets/../core/lv_obj_style_gen.h **** {
  15:Middlewares/LVGL/GUI/lvgl/src/widgets/../core/lv_obj_style_gen.h ****     lv_style_value_t v = lv_obj_get_style_prop(obj, part, LV_STYLE_MAX_WIDTH);
  16:Middlewares/LVGL/GUI/lvgl/src/widgets/../core/lv_obj_style_gen.h ****     return (lv_coord_t)v.num;
  17:Middlewares/LVGL/GUI/lvgl/src/widgets/../core/lv_obj_style_gen.h **** }
  18:Middlewares/LVGL/GUI/lvgl/src/widgets/../core/lv_obj_style_gen.h **** 
  19:Middlewares/LVGL/GUI/lvgl/src/widgets/../core/lv_obj_style_gen.h **** static inline lv_coord_t lv_obj_get_style_height(const struct _lv_obj_t * obj, uint32_t part)
  20:Middlewares/LVGL/GUI/lvgl/src/widgets/../core/lv_obj_style_gen.h **** {
  21:Middlewares/LVGL/GUI/lvgl/src/widgets/../core/lv_obj_style_gen.h ****     lv_style_value_t v = lv_obj_get_style_prop(obj, part, LV_STYLE_HEIGHT);
  22:Middlewares/LVGL/GUI/lvgl/src/widgets/../core/lv_obj_style_gen.h ****     return (lv_coord_t)v.num;
  23:Middlewares/LVGL/GUI/lvgl/src/widgets/../core/lv_obj_style_gen.h **** }
  24:Middlewares/LVGL/GUI/lvgl/src/widgets/../core/lv_obj_style_gen.h **** 
  25:Middlewares/LVGL/GUI/lvgl/src/widgets/../core/lv_obj_style_gen.h **** static inline lv_coord_t lv_obj_get_style_min_height(const struct _lv_obj_t * obj, uint32_t part)
  26:Middlewares/LVGL/GUI/lvgl/src/widgets/../core/lv_obj_style_gen.h **** {
  27:Middlewares/LVGL/GUI/lvgl/src/widgets/../core/lv_obj_style_gen.h ****     lv_style_value_t v = lv_obj_get_style_prop(obj, part, LV_STYLE_MIN_HEIGHT);
  28:Middlewares/LVGL/GUI/lvgl/src/widgets/../core/lv_obj_style_gen.h ****     return (lv_coord_t)v.num;
  29:Middlewares/LVGL/GUI/lvgl/src/widgets/../core/lv_obj_style_gen.h **** }
  30:Middlewares/LVGL/GUI/lvgl/src/widgets/../core/lv_obj_style_gen.h **** 
  31:Middlewares/LVGL/GUI/lvgl/src/widgets/../core/lv_obj_style_gen.h **** static inline lv_coord_t lv_obj_get_style_max_height(const struct _lv_obj_t * obj, uint32_t part)
  32:Middlewares/LVGL/GUI/lvgl/src/widgets/../core/lv_obj_style_gen.h **** {
  33:Middlewares/LVGL/GUI/lvgl/src/widgets/../core/lv_obj_style_gen.h ****     lv_style_value_t v = lv_obj_get_style_prop(obj, part, LV_STYLE_MAX_HEIGHT);
  34:Middlewares/LVGL/GUI/lvgl/src/widgets/../core/lv_obj_style_gen.h ****     return (lv_coord_t)v.num;
  35:Middlewares/LVGL/GUI/lvgl/src/widgets/../core/lv_obj_style_gen.h **** }
  36:Middlewares/LVGL/GUI/lvgl/src/widgets/../core/lv_obj_style_gen.h **** 
  37:Middlewares/LVGL/GUI/lvgl/src/widgets/../core/lv_obj_style_gen.h **** static inline lv_coord_t lv_obj_get_style_x(const struct _lv_obj_t * obj, uint32_t part)
  38:Middlewares/LVGL/GUI/lvgl/src/widgets/../core/lv_obj_style_gen.h **** {
  39:Middlewares/LVGL/GUI/lvgl/src/widgets/../core/lv_obj_style_gen.h ****     lv_style_value_t v = lv_obj_get_style_prop(obj, part, LV_STYLE_X);
  40:Middlewares/LVGL/GUI/lvgl/src/widgets/../core/lv_obj_style_gen.h ****     return (lv_coord_t)v.num;
  41:Middlewares/LVGL/GUI/lvgl/src/widgets/../core/lv_obj_style_gen.h **** }
  42:Middlewares/LVGL/GUI/lvgl/src/widgets/../core/lv_obj_style_gen.h **** 
  43:Middlewares/LVGL/GUI/lvgl/src/widgets/../core/lv_obj_style_gen.h **** static inline lv_coord_t lv_obj_get_style_y(const struct _lv_obj_t * obj, uint32_t part)
  44:Middlewares/LVGL/GUI/lvgl/src/widgets/../core/lv_obj_style_gen.h **** {
  45:Middlewares/LVGL/GUI/lvgl/src/widgets/../core/lv_obj_style_gen.h ****     lv_style_value_t v = lv_obj_get_style_prop(obj, part, LV_STYLE_Y);
  46:Middlewares/LVGL/GUI/lvgl/src/widgets/../core/lv_obj_style_gen.h ****     return (lv_coord_t)v.num;
  47:Middlewares/LVGL/GUI/lvgl/src/widgets/../core/lv_obj_style_gen.h **** }
  48:Middlewares/LVGL/GUI/lvgl/src/widgets/../core/lv_obj_style_gen.h **** 
  49:Middlewares/LVGL/GUI/lvgl/src/widgets/../core/lv_obj_style_gen.h **** static inline lv_align_t lv_obj_get_style_align(const struct _lv_obj_t * obj, uint32_t part)
  50:Middlewares/LVGL/GUI/lvgl/src/widgets/../core/lv_obj_style_gen.h **** {
  51:Middlewares/LVGL/GUI/lvgl/src/widgets/../core/lv_obj_style_gen.h ****     lv_style_value_t v = lv_obj_get_style_prop(obj, part, LV_STYLE_ALIGN);
  52:Middlewares/LVGL/GUI/lvgl/src/widgets/../core/lv_obj_style_gen.h ****     return (lv_align_t)v.num;
  53:Middlewares/LVGL/GUI/lvgl/src/widgets/../core/lv_obj_style_gen.h **** }
  54:Middlewares/LVGL/GUI/lvgl/src/widgets/../core/lv_obj_style_gen.h **** 
  55:Middlewares/LVGL/GUI/lvgl/src/widgets/../core/lv_obj_style_gen.h **** static inline lv_coord_t lv_obj_get_style_transform_width(const struct _lv_obj_t * obj, uint32_t pa
  56:Middlewares/LVGL/GUI/lvgl/src/widgets/../core/lv_obj_style_gen.h **** {
  57:Middlewares/LVGL/GUI/lvgl/src/widgets/../core/lv_obj_style_gen.h ****     lv_style_value_t v = lv_obj_get_style_prop(obj, part, LV_STYLE_TRANSFORM_WIDTH);
  58:Middlewares/LVGL/GUI/lvgl/src/widgets/../core/lv_obj_style_gen.h ****     return (lv_coord_t)v.num;
  59:Middlewares/LVGL/GUI/lvgl/src/widgets/../core/lv_obj_style_gen.h **** }
  60:Middlewares/LVGL/GUI/lvgl/src/widgets/../core/lv_obj_style_gen.h **** 
  61:Middlewares/LVGL/GUI/lvgl/src/widgets/../core/lv_obj_style_gen.h **** static inline lv_coord_t lv_obj_get_style_transform_height(const struct _lv_obj_t * obj, uint32_t p
  62:Middlewares/LVGL/GUI/lvgl/src/widgets/../core/lv_obj_style_gen.h **** {
  63:Middlewares/LVGL/GUI/lvgl/src/widgets/../core/lv_obj_style_gen.h ****     lv_style_value_t v = lv_obj_get_style_prop(obj, part, LV_STYLE_TRANSFORM_HEIGHT);
  64:Middlewares/LVGL/GUI/lvgl/src/widgets/../core/lv_obj_style_gen.h ****     return (lv_coord_t)v.num;
  65:Middlewares/LVGL/GUI/lvgl/src/widgets/../core/lv_obj_style_gen.h **** }
  66:Middlewares/LVGL/GUI/lvgl/src/widgets/../core/lv_obj_style_gen.h **** 
  67:Middlewares/LVGL/GUI/lvgl/src/widgets/../core/lv_obj_style_gen.h **** static inline lv_coord_t lv_obj_get_style_translate_x(const struct _lv_obj_t * obj, uint32_t part)
  68:Middlewares/LVGL/GUI/lvgl/src/widgets/../core/lv_obj_style_gen.h **** {
ARM GAS  C:\Users\ADMINI~1\AppData\Local\Temp\ccvtjbeI.s 			page 18


  69:Middlewares/LVGL/GUI/lvgl/src/widgets/../core/lv_obj_style_gen.h ****     lv_style_value_t v = lv_obj_get_style_prop(obj, part, LV_STYLE_TRANSLATE_X);
  70:Middlewares/LVGL/GUI/lvgl/src/widgets/../core/lv_obj_style_gen.h ****     return (lv_coord_t)v.num;
  71:Middlewares/LVGL/GUI/lvgl/src/widgets/../core/lv_obj_style_gen.h **** }
  72:Middlewares/LVGL/GUI/lvgl/src/widgets/../core/lv_obj_style_gen.h **** 
  73:Middlewares/LVGL/GUI/lvgl/src/widgets/../core/lv_obj_style_gen.h **** static inline lv_coord_t lv_obj_get_style_translate_y(const struct _lv_obj_t * obj, uint32_t part)
  74:Middlewares/LVGL/GUI/lvgl/src/widgets/../core/lv_obj_style_gen.h **** {
  75:Middlewares/LVGL/GUI/lvgl/src/widgets/../core/lv_obj_style_gen.h ****     lv_style_value_t v = lv_obj_get_style_prop(obj, part, LV_STYLE_TRANSLATE_Y);
  76:Middlewares/LVGL/GUI/lvgl/src/widgets/../core/lv_obj_style_gen.h ****     return (lv_coord_t)v.num;
  77:Middlewares/LVGL/GUI/lvgl/src/widgets/../core/lv_obj_style_gen.h **** }
  78:Middlewares/LVGL/GUI/lvgl/src/widgets/../core/lv_obj_style_gen.h **** 
  79:Middlewares/LVGL/GUI/lvgl/src/widgets/../core/lv_obj_style_gen.h **** static inline lv_coord_t lv_obj_get_style_transform_zoom(const struct _lv_obj_t * obj, uint32_t par
  80:Middlewares/LVGL/GUI/lvgl/src/widgets/../core/lv_obj_style_gen.h **** {
  81:Middlewares/LVGL/GUI/lvgl/src/widgets/../core/lv_obj_style_gen.h ****     lv_style_value_t v = lv_obj_get_style_prop(obj, part, LV_STYLE_TRANSFORM_ZOOM);
  82:Middlewares/LVGL/GUI/lvgl/src/widgets/../core/lv_obj_style_gen.h ****     return (lv_coord_t)v.num;
  83:Middlewares/LVGL/GUI/lvgl/src/widgets/../core/lv_obj_style_gen.h **** }
  84:Middlewares/LVGL/GUI/lvgl/src/widgets/../core/lv_obj_style_gen.h **** 
  85:Middlewares/LVGL/GUI/lvgl/src/widgets/../core/lv_obj_style_gen.h **** static inline lv_coord_t lv_obj_get_style_transform_angle(const struct _lv_obj_t * obj, uint32_t pa
  86:Middlewares/LVGL/GUI/lvgl/src/widgets/../core/lv_obj_style_gen.h **** {
  87:Middlewares/LVGL/GUI/lvgl/src/widgets/../core/lv_obj_style_gen.h ****     lv_style_value_t v = lv_obj_get_style_prop(obj, part, LV_STYLE_TRANSFORM_ANGLE);
  88:Middlewares/LVGL/GUI/lvgl/src/widgets/../core/lv_obj_style_gen.h ****     return (lv_coord_t)v.num;
  89:Middlewares/LVGL/GUI/lvgl/src/widgets/../core/lv_obj_style_gen.h **** }
  90:Middlewares/LVGL/GUI/lvgl/src/widgets/../core/lv_obj_style_gen.h **** 
  91:Middlewares/LVGL/GUI/lvgl/src/widgets/../core/lv_obj_style_gen.h **** static inline lv_coord_t lv_obj_get_style_pad_top(const struct _lv_obj_t * obj, uint32_t part)
  92:Middlewares/LVGL/GUI/lvgl/src/widgets/../core/lv_obj_style_gen.h **** {
  93:Middlewares/LVGL/GUI/lvgl/src/widgets/../core/lv_obj_style_gen.h ****     lv_style_value_t v = lv_obj_get_style_prop(obj, part, LV_STYLE_PAD_TOP);
  94:Middlewares/LVGL/GUI/lvgl/src/widgets/../core/lv_obj_style_gen.h ****     return (lv_coord_t)v.num;
  95:Middlewares/LVGL/GUI/lvgl/src/widgets/../core/lv_obj_style_gen.h **** }
  96:Middlewares/LVGL/GUI/lvgl/src/widgets/../core/lv_obj_style_gen.h **** 
  97:Middlewares/LVGL/GUI/lvgl/src/widgets/../core/lv_obj_style_gen.h **** static inline lv_coord_t lv_obj_get_style_pad_bottom(const struct _lv_obj_t * obj, uint32_t part)
  98:Middlewares/LVGL/GUI/lvgl/src/widgets/../core/lv_obj_style_gen.h **** {
  99:Middlewares/LVGL/GUI/lvgl/src/widgets/../core/lv_obj_style_gen.h ****     lv_style_value_t v = lv_obj_get_style_prop(obj, part, LV_STYLE_PAD_BOTTOM);
 100:Middlewares/LVGL/GUI/lvgl/src/widgets/../core/lv_obj_style_gen.h ****     return (lv_coord_t)v.num;
 101:Middlewares/LVGL/GUI/lvgl/src/widgets/../core/lv_obj_style_gen.h **** }
 102:Middlewares/LVGL/GUI/lvgl/src/widgets/../core/lv_obj_style_gen.h **** 
 103:Middlewares/LVGL/GUI/lvgl/src/widgets/../core/lv_obj_style_gen.h **** static inline lv_coord_t lv_obj_get_style_pad_left(const struct _lv_obj_t * obj, uint32_t part)
 104:Middlewares/LVGL/GUI/lvgl/src/widgets/../core/lv_obj_style_gen.h **** {
 105:Middlewares/LVGL/GUI/lvgl/src/widgets/../core/lv_obj_style_gen.h ****     lv_style_value_t v = lv_obj_get_style_prop(obj, part, LV_STYLE_PAD_LEFT);
 106:Middlewares/LVGL/GUI/lvgl/src/widgets/../core/lv_obj_style_gen.h ****     return (lv_coord_t)v.num;
 107:Middlewares/LVGL/GUI/lvgl/src/widgets/../core/lv_obj_style_gen.h **** }
 108:Middlewares/LVGL/GUI/lvgl/src/widgets/../core/lv_obj_style_gen.h **** 
 109:Middlewares/LVGL/GUI/lvgl/src/widgets/../core/lv_obj_style_gen.h **** static inline lv_coord_t lv_obj_get_style_pad_right(const struct _lv_obj_t * obj, uint32_t part)
 110:Middlewares/LVGL/GUI/lvgl/src/widgets/../core/lv_obj_style_gen.h **** {
 111:Middlewares/LVGL/GUI/lvgl/src/widgets/../core/lv_obj_style_gen.h ****     lv_style_value_t v = lv_obj_get_style_prop(obj, part, LV_STYLE_PAD_RIGHT);
 112:Middlewares/LVGL/GUI/lvgl/src/widgets/../core/lv_obj_style_gen.h ****     return (lv_coord_t)v.num;
 113:Middlewares/LVGL/GUI/lvgl/src/widgets/../core/lv_obj_style_gen.h **** }
 114:Middlewares/LVGL/GUI/lvgl/src/widgets/../core/lv_obj_style_gen.h **** 
 115:Middlewares/LVGL/GUI/lvgl/src/widgets/../core/lv_obj_style_gen.h **** static inline lv_coord_t lv_obj_get_style_pad_row(const struct _lv_obj_t * obj, uint32_t part)
 116:Middlewares/LVGL/GUI/lvgl/src/widgets/../core/lv_obj_style_gen.h **** {
 117:Middlewares/LVGL/GUI/lvgl/src/widgets/../core/lv_obj_style_gen.h ****     lv_style_value_t v = lv_obj_get_style_prop(obj, part, LV_STYLE_PAD_ROW);
 118:Middlewares/LVGL/GUI/lvgl/src/widgets/../core/lv_obj_style_gen.h ****     return (lv_coord_t)v.num;
 119:Middlewares/LVGL/GUI/lvgl/src/widgets/../core/lv_obj_style_gen.h **** }
 120:Middlewares/LVGL/GUI/lvgl/src/widgets/../core/lv_obj_style_gen.h **** 
 121:Middlewares/LVGL/GUI/lvgl/src/widgets/../core/lv_obj_style_gen.h **** static inline lv_coord_t lv_obj_get_style_pad_column(const struct _lv_obj_t * obj, uint32_t part)
 122:Middlewares/LVGL/GUI/lvgl/src/widgets/../core/lv_obj_style_gen.h **** {
 123:Middlewares/LVGL/GUI/lvgl/src/widgets/../core/lv_obj_style_gen.h ****     lv_style_value_t v = lv_obj_get_style_prop(obj, part, LV_STYLE_PAD_COLUMN);
 124:Middlewares/LVGL/GUI/lvgl/src/widgets/../core/lv_obj_style_gen.h ****     return (lv_coord_t)v.num;
 125:Middlewares/LVGL/GUI/lvgl/src/widgets/../core/lv_obj_style_gen.h **** }
ARM GAS  C:\Users\ADMINI~1\AppData\Local\Temp\ccvtjbeI.s 			page 19


 126:Middlewares/LVGL/GUI/lvgl/src/widgets/../core/lv_obj_style_gen.h **** 
 127:Middlewares/LVGL/GUI/lvgl/src/widgets/../core/lv_obj_style_gen.h **** static inline lv_color_t lv_obj_get_style_bg_color(const struct _lv_obj_t * obj, uint32_t part)
 128:Middlewares/LVGL/GUI/lvgl/src/widgets/../core/lv_obj_style_gen.h **** {
 129:Middlewares/LVGL/GUI/lvgl/src/widgets/../core/lv_obj_style_gen.h ****     lv_style_value_t v = lv_obj_get_style_prop(obj, part, LV_STYLE_BG_COLOR);
 130:Middlewares/LVGL/GUI/lvgl/src/widgets/../core/lv_obj_style_gen.h ****     return v.color;
 131:Middlewares/LVGL/GUI/lvgl/src/widgets/../core/lv_obj_style_gen.h **** }
 132:Middlewares/LVGL/GUI/lvgl/src/widgets/../core/lv_obj_style_gen.h **** 
 133:Middlewares/LVGL/GUI/lvgl/src/widgets/../core/lv_obj_style_gen.h **** static inline lv_color_t lv_obj_get_style_bg_color_filtered(const struct _lv_obj_t * obj, uint32_t 
 134:Middlewares/LVGL/GUI/lvgl/src/widgets/../core/lv_obj_style_gen.h **** {
 135:Middlewares/LVGL/GUI/lvgl/src/widgets/../core/lv_obj_style_gen.h ****     lv_style_value_t v = lv_obj_get_style_prop(obj, part, LV_STYLE_BG_COLOR_FILTERED);
 136:Middlewares/LVGL/GUI/lvgl/src/widgets/../core/lv_obj_style_gen.h ****     return v.color;
 137:Middlewares/LVGL/GUI/lvgl/src/widgets/../core/lv_obj_style_gen.h **** }
 138:Middlewares/LVGL/GUI/lvgl/src/widgets/../core/lv_obj_style_gen.h **** 
 139:Middlewares/LVGL/GUI/lvgl/src/widgets/../core/lv_obj_style_gen.h **** static inline lv_opa_t lv_obj_get_style_bg_opa(const struct _lv_obj_t * obj, uint32_t part)
 140:Middlewares/LVGL/GUI/lvgl/src/widgets/../core/lv_obj_style_gen.h **** {
 141:Middlewares/LVGL/GUI/lvgl/src/widgets/../core/lv_obj_style_gen.h ****     lv_style_value_t v = lv_obj_get_style_prop(obj, part, LV_STYLE_BG_OPA);
 142:Middlewares/LVGL/GUI/lvgl/src/widgets/../core/lv_obj_style_gen.h ****     return (lv_opa_t)v.num;
 143:Middlewares/LVGL/GUI/lvgl/src/widgets/../core/lv_obj_style_gen.h **** }
 144:Middlewares/LVGL/GUI/lvgl/src/widgets/../core/lv_obj_style_gen.h **** 
 145:Middlewares/LVGL/GUI/lvgl/src/widgets/../core/lv_obj_style_gen.h **** static inline lv_color_t lv_obj_get_style_bg_grad_color(const struct _lv_obj_t * obj, uint32_t part
 146:Middlewares/LVGL/GUI/lvgl/src/widgets/../core/lv_obj_style_gen.h **** {
 147:Middlewares/LVGL/GUI/lvgl/src/widgets/../core/lv_obj_style_gen.h ****     lv_style_value_t v = lv_obj_get_style_prop(obj, part, LV_STYLE_BG_GRAD_COLOR);
 148:Middlewares/LVGL/GUI/lvgl/src/widgets/../core/lv_obj_style_gen.h ****     return v.color;
 149:Middlewares/LVGL/GUI/lvgl/src/widgets/../core/lv_obj_style_gen.h **** }
 150:Middlewares/LVGL/GUI/lvgl/src/widgets/../core/lv_obj_style_gen.h **** 
 151:Middlewares/LVGL/GUI/lvgl/src/widgets/../core/lv_obj_style_gen.h **** static inline lv_color_t lv_obj_get_style_bg_grad_color_filtered(const struct _lv_obj_t * obj, uint
 152:Middlewares/LVGL/GUI/lvgl/src/widgets/../core/lv_obj_style_gen.h **** {
 153:Middlewares/LVGL/GUI/lvgl/src/widgets/../core/lv_obj_style_gen.h ****     lv_style_value_t v = lv_obj_get_style_prop(obj, part, LV_STYLE_BG_GRAD_COLOR_FILTERED);
 154:Middlewares/LVGL/GUI/lvgl/src/widgets/../core/lv_obj_style_gen.h ****     return v.color;
 155:Middlewares/LVGL/GUI/lvgl/src/widgets/../core/lv_obj_style_gen.h **** }
 156:Middlewares/LVGL/GUI/lvgl/src/widgets/../core/lv_obj_style_gen.h **** 
 157:Middlewares/LVGL/GUI/lvgl/src/widgets/../core/lv_obj_style_gen.h **** static inline lv_grad_dir_t lv_obj_get_style_bg_grad_dir(const struct _lv_obj_t * obj, uint32_t par
 158:Middlewares/LVGL/GUI/lvgl/src/widgets/../core/lv_obj_style_gen.h **** {
 159:Middlewares/LVGL/GUI/lvgl/src/widgets/../core/lv_obj_style_gen.h ****     lv_style_value_t v = lv_obj_get_style_prop(obj, part, LV_STYLE_BG_GRAD_DIR);
 160:Middlewares/LVGL/GUI/lvgl/src/widgets/../core/lv_obj_style_gen.h ****     return (lv_grad_dir_t)v.num;
 161:Middlewares/LVGL/GUI/lvgl/src/widgets/../core/lv_obj_style_gen.h **** }
 162:Middlewares/LVGL/GUI/lvgl/src/widgets/../core/lv_obj_style_gen.h **** 
 163:Middlewares/LVGL/GUI/lvgl/src/widgets/../core/lv_obj_style_gen.h **** static inline lv_coord_t lv_obj_get_style_bg_main_stop(const struct _lv_obj_t * obj, uint32_t part)
 164:Middlewares/LVGL/GUI/lvgl/src/widgets/../core/lv_obj_style_gen.h **** {
 165:Middlewares/LVGL/GUI/lvgl/src/widgets/../core/lv_obj_style_gen.h ****     lv_style_value_t v = lv_obj_get_style_prop(obj, part, LV_STYLE_BG_MAIN_STOP);
 166:Middlewares/LVGL/GUI/lvgl/src/widgets/../core/lv_obj_style_gen.h ****     return (lv_coord_t)v.num;
 167:Middlewares/LVGL/GUI/lvgl/src/widgets/../core/lv_obj_style_gen.h **** }
 168:Middlewares/LVGL/GUI/lvgl/src/widgets/../core/lv_obj_style_gen.h **** 
 169:Middlewares/LVGL/GUI/lvgl/src/widgets/../core/lv_obj_style_gen.h **** static inline lv_coord_t lv_obj_get_style_bg_grad_stop(const struct _lv_obj_t * obj, uint32_t part)
 170:Middlewares/LVGL/GUI/lvgl/src/widgets/../core/lv_obj_style_gen.h **** {
 171:Middlewares/LVGL/GUI/lvgl/src/widgets/../core/lv_obj_style_gen.h ****     lv_style_value_t v = lv_obj_get_style_prop(obj, part, LV_STYLE_BG_GRAD_STOP);
 172:Middlewares/LVGL/GUI/lvgl/src/widgets/../core/lv_obj_style_gen.h ****     return (lv_coord_t)v.num;
 173:Middlewares/LVGL/GUI/lvgl/src/widgets/../core/lv_obj_style_gen.h **** }
 174:Middlewares/LVGL/GUI/lvgl/src/widgets/../core/lv_obj_style_gen.h **** 
 175:Middlewares/LVGL/GUI/lvgl/src/widgets/../core/lv_obj_style_gen.h **** static inline const lv_grad_dsc_t * lv_obj_get_style_bg_grad(const struct _lv_obj_t * obj, uint32_t
 176:Middlewares/LVGL/GUI/lvgl/src/widgets/../core/lv_obj_style_gen.h **** {
 177:Middlewares/LVGL/GUI/lvgl/src/widgets/../core/lv_obj_style_gen.h ****     lv_style_value_t v = lv_obj_get_style_prop(obj, part, LV_STYLE_BG_GRAD);
 178:Middlewares/LVGL/GUI/lvgl/src/widgets/../core/lv_obj_style_gen.h ****     return (const lv_grad_dsc_t *)v.ptr;
 179:Middlewares/LVGL/GUI/lvgl/src/widgets/../core/lv_obj_style_gen.h **** }
 180:Middlewares/LVGL/GUI/lvgl/src/widgets/../core/lv_obj_style_gen.h **** 
 181:Middlewares/LVGL/GUI/lvgl/src/widgets/../core/lv_obj_style_gen.h **** static inline lv_dither_mode_t lv_obj_get_style_bg_dither_mode(const struct _lv_obj_t * obj, uint32
 182:Middlewares/LVGL/GUI/lvgl/src/widgets/../core/lv_obj_style_gen.h **** {
ARM GAS  C:\Users\ADMINI~1\AppData\Local\Temp\ccvtjbeI.s 			page 20


 183:Middlewares/LVGL/GUI/lvgl/src/widgets/../core/lv_obj_style_gen.h ****     lv_style_value_t v = lv_obj_get_style_prop(obj, part, LV_STYLE_BG_DITHER_MODE);
 184:Middlewares/LVGL/GUI/lvgl/src/widgets/../core/lv_obj_style_gen.h ****     return (lv_dither_mode_t)v.num;
 185:Middlewares/LVGL/GUI/lvgl/src/widgets/../core/lv_obj_style_gen.h **** }
 186:Middlewares/LVGL/GUI/lvgl/src/widgets/../core/lv_obj_style_gen.h **** 
 187:Middlewares/LVGL/GUI/lvgl/src/widgets/../core/lv_obj_style_gen.h **** static inline const void * lv_obj_get_style_bg_img_src(const struct _lv_obj_t * obj, uint32_t part)
 188:Middlewares/LVGL/GUI/lvgl/src/widgets/../core/lv_obj_style_gen.h **** {
 189:Middlewares/LVGL/GUI/lvgl/src/widgets/../core/lv_obj_style_gen.h ****     lv_style_value_t v = lv_obj_get_style_prop(obj, part, LV_STYLE_BG_IMG_SRC);
 190:Middlewares/LVGL/GUI/lvgl/src/widgets/../core/lv_obj_style_gen.h ****     return (const void *)v.ptr;
 191:Middlewares/LVGL/GUI/lvgl/src/widgets/../core/lv_obj_style_gen.h **** }
 192:Middlewares/LVGL/GUI/lvgl/src/widgets/../core/lv_obj_style_gen.h **** 
 193:Middlewares/LVGL/GUI/lvgl/src/widgets/../core/lv_obj_style_gen.h **** static inline lv_opa_t lv_obj_get_style_bg_img_opa(const struct _lv_obj_t * obj, uint32_t part)
 194:Middlewares/LVGL/GUI/lvgl/src/widgets/../core/lv_obj_style_gen.h **** {
 195:Middlewares/LVGL/GUI/lvgl/src/widgets/../core/lv_obj_style_gen.h ****     lv_style_value_t v = lv_obj_get_style_prop(obj, part, LV_STYLE_BG_IMG_OPA);
 196:Middlewares/LVGL/GUI/lvgl/src/widgets/../core/lv_obj_style_gen.h ****     return (lv_opa_t)v.num;
 197:Middlewares/LVGL/GUI/lvgl/src/widgets/../core/lv_obj_style_gen.h **** }
 198:Middlewares/LVGL/GUI/lvgl/src/widgets/../core/lv_obj_style_gen.h **** 
 199:Middlewares/LVGL/GUI/lvgl/src/widgets/../core/lv_obj_style_gen.h **** static inline lv_color_t lv_obj_get_style_bg_img_recolor(const struct _lv_obj_t * obj, uint32_t par
 200:Middlewares/LVGL/GUI/lvgl/src/widgets/../core/lv_obj_style_gen.h **** {
 201:Middlewares/LVGL/GUI/lvgl/src/widgets/../core/lv_obj_style_gen.h ****     lv_style_value_t v = lv_obj_get_style_prop(obj, part, LV_STYLE_BG_IMG_RECOLOR);
 202:Middlewares/LVGL/GUI/lvgl/src/widgets/../core/lv_obj_style_gen.h ****     return v.color;
 203:Middlewares/LVGL/GUI/lvgl/src/widgets/../core/lv_obj_style_gen.h **** }
 204:Middlewares/LVGL/GUI/lvgl/src/widgets/../core/lv_obj_style_gen.h **** 
 205:Middlewares/LVGL/GUI/lvgl/src/widgets/../core/lv_obj_style_gen.h **** static inline lv_color_t lv_obj_get_style_bg_img_recolor_filtered(const struct _lv_obj_t * obj, uin
 206:Middlewares/LVGL/GUI/lvgl/src/widgets/../core/lv_obj_style_gen.h **** {
 207:Middlewares/LVGL/GUI/lvgl/src/widgets/../core/lv_obj_style_gen.h ****     lv_style_value_t v = lv_obj_get_style_prop(obj, part, LV_STYLE_BG_IMG_RECOLOR_FILTERED);
 208:Middlewares/LVGL/GUI/lvgl/src/widgets/../core/lv_obj_style_gen.h ****     return v.color;
 209:Middlewares/LVGL/GUI/lvgl/src/widgets/../core/lv_obj_style_gen.h **** }
 210:Middlewares/LVGL/GUI/lvgl/src/widgets/../core/lv_obj_style_gen.h **** 
 211:Middlewares/LVGL/GUI/lvgl/src/widgets/../core/lv_obj_style_gen.h **** static inline lv_opa_t lv_obj_get_style_bg_img_recolor_opa(const struct _lv_obj_t * obj, uint32_t p
 212:Middlewares/LVGL/GUI/lvgl/src/widgets/../core/lv_obj_style_gen.h **** {
 213:Middlewares/LVGL/GUI/lvgl/src/widgets/../core/lv_obj_style_gen.h ****     lv_style_value_t v = lv_obj_get_style_prop(obj, part, LV_STYLE_BG_IMG_RECOLOR_OPA);
 214:Middlewares/LVGL/GUI/lvgl/src/widgets/../core/lv_obj_style_gen.h ****     return (lv_opa_t)v.num;
 215:Middlewares/LVGL/GUI/lvgl/src/widgets/../core/lv_obj_style_gen.h **** }
 216:Middlewares/LVGL/GUI/lvgl/src/widgets/../core/lv_obj_style_gen.h **** 
 217:Middlewares/LVGL/GUI/lvgl/src/widgets/../core/lv_obj_style_gen.h **** static inline bool lv_obj_get_style_bg_img_tiled(const struct _lv_obj_t * obj, uint32_t part)
 218:Middlewares/LVGL/GUI/lvgl/src/widgets/../core/lv_obj_style_gen.h **** {
 219:Middlewares/LVGL/GUI/lvgl/src/widgets/../core/lv_obj_style_gen.h ****     lv_style_value_t v = lv_obj_get_style_prop(obj, part, LV_STYLE_BG_IMG_TILED);
 220:Middlewares/LVGL/GUI/lvgl/src/widgets/../core/lv_obj_style_gen.h ****     return (bool)v.num;
 221:Middlewares/LVGL/GUI/lvgl/src/widgets/../core/lv_obj_style_gen.h **** }
 222:Middlewares/LVGL/GUI/lvgl/src/widgets/../core/lv_obj_style_gen.h **** 
 223:Middlewares/LVGL/GUI/lvgl/src/widgets/../core/lv_obj_style_gen.h **** static inline lv_color_t lv_obj_get_style_border_color(const struct _lv_obj_t * obj, uint32_t part)
 224:Middlewares/LVGL/GUI/lvgl/src/widgets/../core/lv_obj_style_gen.h **** {
 225:Middlewares/LVGL/GUI/lvgl/src/widgets/../core/lv_obj_style_gen.h ****     lv_style_value_t v = lv_obj_get_style_prop(obj, part, LV_STYLE_BORDER_COLOR);
 226:Middlewares/LVGL/GUI/lvgl/src/widgets/../core/lv_obj_style_gen.h ****     return v.color;
 227:Middlewares/LVGL/GUI/lvgl/src/widgets/../core/lv_obj_style_gen.h **** }
 228:Middlewares/LVGL/GUI/lvgl/src/widgets/../core/lv_obj_style_gen.h **** 
 229:Middlewares/LVGL/GUI/lvgl/src/widgets/../core/lv_obj_style_gen.h **** static inline lv_color_t lv_obj_get_style_border_color_filtered(const struct _lv_obj_t * obj, uint3
 230:Middlewares/LVGL/GUI/lvgl/src/widgets/../core/lv_obj_style_gen.h **** {
 231:Middlewares/LVGL/GUI/lvgl/src/widgets/../core/lv_obj_style_gen.h ****     lv_style_value_t v = lv_obj_get_style_prop(obj, part, LV_STYLE_BORDER_COLOR_FILTERED);
 232:Middlewares/LVGL/GUI/lvgl/src/widgets/../core/lv_obj_style_gen.h ****     return v.color;
 233:Middlewares/LVGL/GUI/lvgl/src/widgets/../core/lv_obj_style_gen.h **** }
 234:Middlewares/LVGL/GUI/lvgl/src/widgets/../core/lv_obj_style_gen.h **** 
 235:Middlewares/LVGL/GUI/lvgl/src/widgets/../core/lv_obj_style_gen.h **** static inline lv_opa_t lv_obj_get_style_border_opa(const struct _lv_obj_t * obj, uint32_t part)
 236:Middlewares/LVGL/GUI/lvgl/src/widgets/../core/lv_obj_style_gen.h **** {
 237:Middlewares/LVGL/GUI/lvgl/src/widgets/../core/lv_obj_style_gen.h ****     lv_style_value_t v = lv_obj_get_style_prop(obj, part, LV_STYLE_BORDER_OPA);
 238:Middlewares/LVGL/GUI/lvgl/src/widgets/../core/lv_obj_style_gen.h ****     return (lv_opa_t)v.num;
 239:Middlewares/LVGL/GUI/lvgl/src/widgets/../core/lv_obj_style_gen.h **** }
ARM GAS  C:\Users\ADMINI~1\AppData\Local\Temp\ccvtjbeI.s 			page 21


 240:Middlewares/LVGL/GUI/lvgl/src/widgets/../core/lv_obj_style_gen.h **** 
 241:Middlewares/LVGL/GUI/lvgl/src/widgets/../core/lv_obj_style_gen.h **** static inline lv_coord_t lv_obj_get_style_border_width(const struct _lv_obj_t * obj, uint32_t part)
 242:Middlewares/LVGL/GUI/lvgl/src/widgets/../core/lv_obj_style_gen.h **** {
 243:Middlewares/LVGL/GUI/lvgl/src/widgets/../core/lv_obj_style_gen.h ****     lv_style_value_t v = lv_obj_get_style_prop(obj, part, LV_STYLE_BORDER_WIDTH);
 244:Middlewares/LVGL/GUI/lvgl/src/widgets/../core/lv_obj_style_gen.h ****     return (lv_coord_t)v.num;
 245:Middlewares/LVGL/GUI/lvgl/src/widgets/../core/lv_obj_style_gen.h **** }
 246:Middlewares/LVGL/GUI/lvgl/src/widgets/../core/lv_obj_style_gen.h **** 
 247:Middlewares/LVGL/GUI/lvgl/src/widgets/../core/lv_obj_style_gen.h **** static inline lv_border_side_t lv_obj_get_style_border_side(const struct _lv_obj_t * obj, uint32_t 
 248:Middlewares/LVGL/GUI/lvgl/src/widgets/../core/lv_obj_style_gen.h **** {
 249:Middlewares/LVGL/GUI/lvgl/src/widgets/../core/lv_obj_style_gen.h ****     lv_style_value_t v = lv_obj_get_style_prop(obj, part, LV_STYLE_BORDER_SIDE);
 250:Middlewares/LVGL/GUI/lvgl/src/widgets/../core/lv_obj_style_gen.h ****     return (lv_border_side_t)v.num;
 251:Middlewares/LVGL/GUI/lvgl/src/widgets/../core/lv_obj_style_gen.h **** }
 252:Middlewares/LVGL/GUI/lvgl/src/widgets/../core/lv_obj_style_gen.h **** 
 253:Middlewares/LVGL/GUI/lvgl/src/widgets/../core/lv_obj_style_gen.h **** static inline bool lv_obj_get_style_border_post(const struct _lv_obj_t * obj, uint32_t part)
 254:Middlewares/LVGL/GUI/lvgl/src/widgets/../core/lv_obj_style_gen.h **** {
 255:Middlewares/LVGL/GUI/lvgl/src/widgets/../core/lv_obj_style_gen.h ****     lv_style_value_t v = lv_obj_get_style_prop(obj, part, LV_STYLE_BORDER_POST);
 256:Middlewares/LVGL/GUI/lvgl/src/widgets/../core/lv_obj_style_gen.h ****     return (bool)v.num;
 257:Middlewares/LVGL/GUI/lvgl/src/widgets/../core/lv_obj_style_gen.h **** }
 258:Middlewares/LVGL/GUI/lvgl/src/widgets/../core/lv_obj_style_gen.h **** 
 259:Middlewares/LVGL/GUI/lvgl/src/widgets/../core/lv_obj_style_gen.h **** static inline lv_coord_t lv_obj_get_style_outline_width(const struct _lv_obj_t * obj, uint32_t part
 260:Middlewares/LVGL/GUI/lvgl/src/widgets/../core/lv_obj_style_gen.h **** {
 261:Middlewares/LVGL/GUI/lvgl/src/widgets/../core/lv_obj_style_gen.h ****     lv_style_value_t v = lv_obj_get_style_prop(obj, part, LV_STYLE_OUTLINE_WIDTH);
 262:Middlewares/LVGL/GUI/lvgl/src/widgets/../core/lv_obj_style_gen.h ****     return (lv_coord_t)v.num;
 263:Middlewares/LVGL/GUI/lvgl/src/widgets/../core/lv_obj_style_gen.h **** }
 264:Middlewares/LVGL/GUI/lvgl/src/widgets/../core/lv_obj_style_gen.h **** 
 265:Middlewares/LVGL/GUI/lvgl/src/widgets/../core/lv_obj_style_gen.h **** static inline lv_color_t lv_obj_get_style_outline_color(const struct _lv_obj_t * obj, uint32_t part
 266:Middlewares/LVGL/GUI/lvgl/src/widgets/../core/lv_obj_style_gen.h **** {
 267:Middlewares/LVGL/GUI/lvgl/src/widgets/../core/lv_obj_style_gen.h ****     lv_style_value_t v = lv_obj_get_style_prop(obj, part, LV_STYLE_OUTLINE_COLOR);
 268:Middlewares/LVGL/GUI/lvgl/src/widgets/../core/lv_obj_style_gen.h ****     return v.color;
 269:Middlewares/LVGL/GUI/lvgl/src/widgets/../core/lv_obj_style_gen.h **** }
 270:Middlewares/LVGL/GUI/lvgl/src/widgets/../core/lv_obj_style_gen.h **** 
 271:Middlewares/LVGL/GUI/lvgl/src/widgets/../core/lv_obj_style_gen.h **** static inline lv_color_t lv_obj_get_style_outline_color_filtered(const struct _lv_obj_t * obj, uint
 272:Middlewares/LVGL/GUI/lvgl/src/widgets/../core/lv_obj_style_gen.h **** {
 273:Middlewares/LVGL/GUI/lvgl/src/widgets/../core/lv_obj_style_gen.h ****     lv_style_value_t v = lv_obj_get_style_prop(obj, part, LV_STYLE_OUTLINE_COLOR_FILTERED);
 274:Middlewares/LVGL/GUI/lvgl/src/widgets/../core/lv_obj_style_gen.h ****     return v.color;
 275:Middlewares/LVGL/GUI/lvgl/src/widgets/../core/lv_obj_style_gen.h **** }
 276:Middlewares/LVGL/GUI/lvgl/src/widgets/../core/lv_obj_style_gen.h **** 
 277:Middlewares/LVGL/GUI/lvgl/src/widgets/../core/lv_obj_style_gen.h **** static inline lv_opa_t lv_obj_get_style_outline_opa(const struct _lv_obj_t * obj, uint32_t part)
 278:Middlewares/LVGL/GUI/lvgl/src/widgets/../core/lv_obj_style_gen.h **** {
 279:Middlewares/LVGL/GUI/lvgl/src/widgets/../core/lv_obj_style_gen.h ****     lv_style_value_t v = lv_obj_get_style_prop(obj, part, LV_STYLE_OUTLINE_OPA);
 280:Middlewares/LVGL/GUI/lvgl/src/widgets/../core/lv_obj_style_gen.h ****     return (lv_opa_t)v.num;
 281:Middlewares/LVGL/GUI/lvgl/src/widgets/../core/lv_obj_style_gen.h **** }
 282:Middlewares/LVGL/GUI/lvgl/src/widgets/../core/lv_obj_style_gen.h **** 
 283:Middlewares/LVGL/GUI/lvgl/src/widgets/../core/lv_obj_style_gen.h **** static inline lv_coord_t lv_obj_get_style_outline_pad(const struct _lv_obj_t * obj, uint32_t part)
 284:Middlewares/LVGL/GUI/lvgl/src/widgets/../core/lv_obj_style_gen.h **** {
 285:Middlewares/LVGL/GUI/lvgl/src/widgets/../core/lv_obj_style_gen.h ****     lv_style_value_t v = lv_obj_get_style_prop(obj, part, LV_STYLE_OUTLINE_PAD);
 286:Middlewares/LVGL/GUI/lvgl/src/widgets/../core/lv_obj_style_gen.h ****     return (lv_coord_t)v.num;
 287:Middlewares/LVGL/GUI/lvgl/src/widgets/../core/lv_obj_style_gen.h **** }
 288:Middlewares/LVGL/GUI/lvgl/src/widgets/../core/lv_obj_style_gen.h **** 
 289:Middlewares/LVGL/GUI/lvgl/src/widgets/../core/lv_obj_style_gen.h **** static inline lv_coord_t lv_obj_get_style_shadow_width(const struct _lv_obj_t * obj, uint32_t part)
 290:Middlewares/LVGL/GUI/lvgl/src/widgets/../core/lv_obj_style_gen.h **** {
 291:Middlewares/LVGL/GUI/lvgl/src/widgets/../core/lv_obj_style_gen.h ****     lv_style_value_t v = lv_obj_get_style_prop(obj, part, LV_STYLE_SHADOW_WIDTH);
 292:Middlewares/LVGL/GUI/lvgl/src/widgets/../core/lv_obj_style_gen.h ****     return (lv_coord_t)v.num;
 293:Middlewares/LVGL/GUI/lvgl/src/widgets/../core/lv_obj_style_gen.h **** }
 294:Middlewares/LVGL/GUI/lvgl/src/widgets/../core/lv_obj_style_gen.h **** 
 295:Middlewares/LVGL/GUI/lvgl/src/widgets/../core/lv_obj_style_gen.h **** static inline lv_coord_t lv_obj_get_style_shadow_ofs_x(const struct _lv_obj_t * obj, uint32_t part)
 296:Middlewares/LVGL/GUI/lvgl/src/widgets/../core/lv_obj_style_gen.h **** {
ARM GAS  C:\Users\ADMINI~1\AppData\Local\Temp\ccvtjbeI.s 			page 22


 297:Middlewares/LVGL/GUI/lvgl/src/widgets/../core/lv_obj_style_gen.h ****     lv_style_value_t v = lv_obj_get_style_prop(obj, part, LV_STYLE_SHADOW_OFS_X);
 298:Middlewares/LVGL/GUI/lvgl/src/widgets/../core/lv_obj_style_gen.h ****     return (lv_coord_t)v.num;
 299:Middlewares/LVGL/GUI/lvgl/src/widgets/../core/lv_obj_style_gen.h **** }
 300:Middlewares/LVGL/GUI/lvgl/src/widgets/../core/lv_obj_style_gen.h **** 
 301:Middlewares/LVGL/GUI/lvgl/src/widgets/../core/lv_obj_style_gen.h **** static inline lv_coord_t lv_obj_get_style_shadow_ofs_y(const struct _lv_obj_t * obj, uint32_t part)
 302:Middlewares/LVGL/GUI/lvgl/src/widgets/../core/lv_obj_style_gen.h **** {
 303:Middlewares/LVGL/GUI/lvgl/src/widgets/../core/lv_obj_style_gen.h ****     lv_style_value_t v = lv_obj_get_style_prop(obj, part, LV_STYLE_SHADOW_OFS_Y);
 304:Middlewares/LVGL/GUI/lvgl/src/widgets/../core/lv_obj_style_gen.h ****     return (lv_coord_t)v.num;
 305:Middlewares/LVGL/GUI/lvgl/src/widgets/../core/lv_obj_style_gen.h **** }
 306:Middlewares/LVGL/GUI/lvgl/src/widgets/../core/lv_obj_style_gen.h **** 
 307:Middlewares/LVGL/GUI/lvgl/src/widgets/../core/lv_obj_style_gen.h **** static inline lv_coord_t lv_obj_get_style_shadow_spread(const struct _lv_obj_t * obj, uint32_t part
 308:Middlewares/LVGL/GUI/lvgl/src/widgets/../core/lv_obj_style_gen.h **** {
 309:Middlewares/LVGL/GUI/lvgl/src/widgets/../core/lv_obj_style_gen.h ****     lv_style_value_t v = lv_obj_get_style_prop(obj, part, LV_STYLE_SHADOW_SPREAD);
 310:Middlewares/LVGL/GUI/lvgl/src/widgets/../core/lv_obj_style_gen.h ****     return (lv_coord_t)v.num;
 311:Middlewares/LVGL/GUI/lvgl/src/widgets/../core/lv_obj_style_gen.h **** }
 312:Middlewares/LVGL/GUI/lvgl/src/widgets/../core/lv_obj_style_gen.h **** 
 313:Middlewares/LVGL/GUI/lvgl/src/widgets/../core/lv_obj_style_gen.h **** static inline lv_color_t lv_obj_get_style_shadow_color(const struct _lv_obj_t * obj, uint32_t part)
 314:Middlewares/LVGL/GUI/lvgl/src/widgets/../core/lv_obj_style_gen.h **** {
 315:Middlewares/LVGL/GUI/lvgl/src/widgets/../core/lv_obj_style_gen.h ****     lv_style_value_t v = lv_obj_get_style_prop(obj, part, LV_STYLE_SHADOW_COLOR);
 316:Middlewares/LVGL/GUI/lvgl/src/widgets/../core/lv_obj_style_gen.h ****     return v.color;
 317:Middlewares/LVGL/GUI/lvgl/src/widgets/../core/lv_obj_style_gen.h **** }
 318:Middlewares/LVGL/GUI/lvgl/src/widgets/../core/lv_obj_style_gen.h **** 
 319:Middlewares/LVGL/GUI/lvgl/src/widgets/../core/lv_obj_style_gen.h **** static inline lv_color_t lv_obj_get_style_shadow_color_filtered(const struct _lv_obj_t * obj, uint3
 320:Middlewares/LVGL/GUI/lvgl/src/widgets/../core/lv_obj_style_gen.h **** {
 321:Middlewares/LVGL/GUI/lvgl/src/widgets/../core/lv_obj_style_gen.h ****     lv_style_value_t v = lv_obj_get_style_prop(obj, part, LV_STYLE_SHADOW_COLOR_FILTERED);
 322:Middlewares/LVGL/GUI/lvgl/src/widgets/../core/lv_obj_style_gen.h ****     return v.color;
 323:Middlewares/LVGL/GUI/lvgl/src/widgets/../core/lv_obj_style_gen.h **** }
 324:Middlewares/LVGL/GUI/lvgl/src/widgets/../core/lv_obj_style_gen.h **** 
 325:Middlewares/LVGL/GUI/lvgl/src/widgets/../core/lv_obj_style_gen.h **** static inline lv_opa_t lv_obj_get_style_shadow_opa(const struct _lv_obj_t * obj, uint32_t part)
 326:Middlewares/LVGL/GUI/lvgl/src/widgets/../core/lv_obj_style_gen.h **** {
 327:Middlewares/LVGL/GUI/lvgl/src/widgets/../core/lv_obj_style_gen.h ****     lv_style_value_t v = lv_obj_get_style_prop(obj, part, LV_STYLE_SHADOW_OPA);
 328:Middlewares/LVGL/GUI/lvgl/src/widgets/../core/lv_obj_style_gen.h ****     return (lv_opa_t)v.num;
 329:Middlewares/LVGL/GUI/lvgl/src/widgets/../core/lv_obj_style_gen.h **** }
 330:Middlewares/LVGL/GUI/lvgl/src/widgets/../core/lv_obj_style_gen.h **** 
 331:Middlewares/LVGL/GUI/lvgl/src/widgets/../core/lv_obj_style_gen.h **** static inline lv_opa_t lv_obj_get_style_img_opa(const struct _lv_obj_t * obj, uint32_t part)
 332:Middlewares/LVGL/GUI/lvgl/src/widgets/../core/lv_obj_style_gen.h **** {
 333:Middlewares/LVGL/GUI/lvgl/src/widgets/../core/lv_obj_style_gen.h ****     lv_style_value_t v = lv_obj_get_style_prop(obj, part, LV_STYLE_IMG_OPA);
 334:Middlewares/LVGL/GUI/lvgl/src/widgets/../core/lv_obj_style_gen.h ****     return (lv_opa_t)v.num;
 335:Middlewares/LVGL/GUI/lvgl/src/widgets/../core/lv_obj_style_gen.h **** }
 336:Middlewares/LVGL/GUI/lvgl/src/widgets/../core/lv_obj_style_gen.h **** 
 337:Middlewares/LVGL/GUI/lvgl/src/widgets/../core/lv_obj_style_gen.h **** static inline lv_color_t lv_obj_get_style_img_recolor(const struct _lv_obj_t * obj, uint32_t part)
 338:Middlewares/LVGL/GUI/lvgl/src/widgets/../core/lv_obj_style_gen.h **** {
 339:Middlewares/LVGL/GUI/lvgl/src/widgets/../core/lv_obj_style_gen.h ****     lv_style_value_t v = lv_obj_get_style_prop(obj, part, LV_STYLE_IMG_RECOLOR);
 340:Middlewares/LVGL/GUI/lvgl/src/widgets/../core/lv_obj_style_gen.h ****     return v.color;
 341:Middlewares/LVGL/GUI/lvgl/src/widgets/../core/lv_obj_style_gen.h **** }
 342:Middlewares/LVGL/GUI/lvgl/src/widgets/../core/lv_obj_style_gen.h **** 
 343:Middlewares/LVGL/GUI/lvgl/src/widgets/../core/lv_obj_style_gen.h **** static inline lv_color_t lv_obj_get_style_img_recolor_filtered(const struct _lv_obj_t * obj, uint32
 344:Middlewares/LVGL/GUI/lvgl/src/widgets/../core/lv_obj_style_gen.h **** {
 345:Middlewares/LVGL/GUI/lvgl/src/widgets/../core/lv_obj_style_gen.h ****     lv_style_value_t v = lv_obj_get_style_prop(obj, part, LV_STYLE_IMG_RECOLOR_FILTERED);
 346:Middlewares/LVGL/GUI/lvgl/src/widgets/../core/lv_obj_style_gen.h ****     return v.color;
 347:Middlewares/LVGL/GUI/lvgl/src/widgets/../core/lv_obj_style_gen.h **** }
 348:Middlewares/LVGL/GUI/lvgl/src/widgets/../core/lv_obj_style_gen.h **** 
 349:Middlewares/LVGL/GUI/lvgl/src/widgets/../core/lv_obj_style_gen.h **** static inline lv_opa_t lv_obj_get_style_img_recolor_opa(const struct _lv_obj_t * obj, uint32_t part
 350:Middlewares/LVGL/GUI/lvgl/src/widgets/../core/lv_obj_style_gen.h **** {
 351:Middlewares/LVGL/GUI/lvgl/src/widgets/../core/lv_obj_style_gen.h ****     lv_style_value_t v = lv_obj_get_style_prop(obj, part, LV_STYLE_IMG_RECOLOR_OPA);
 352:Middlewares/LVGL/GUI/lvgl/src/widgets/../core/lv_obj_style_gen.h ****     return (lv_opa_t)v.num;
 353:Middlewares/LVGL/GUI/lvgl/src/widgets/../core/lv_obj_style_gen.h **** }
ARM GAS  C:\Users\ADMINI~1\AppData\Local\Temp\ccvtjbeI.s 			page 23


 354:Middlewares/LVGL/GUI/lvgl/src/widgets/../core/lv_obj_style_gen.h **** 
 355:Middlewares/LVGL/GUI/lvgl/src/widgets/../core/lv_obj_style_gen.h **** static inline lv_coord_t lv_obj_get_style_line_width(const struct _lv_obj_t * obj, uint32_t part)
 356:Middlewares/LVGL/GUI/lvgl/src/widgets/../core/lv_obj_style_gen.h **** {
 357:Middlewares/LVGL/GUI/lvgl/src/widgets/../core/lv_obj_style_gen.h ****     lv_style_value_t v = lv_obj_get_style_prop(obj, part, LV_STYLE_LINE_WIDTH);
 358:Middlewares/LVGL/GUI/lvgl/src/widgets/../core/lv_obj_style_gen.h ****     return (lv_coord_t)v.num;
 359:Middlewares/LVGL/GUI/lvgl/src/widgets/../core/lv_obj_style_gen.h **** }
 360:Middlewares/LVGL/GUI/lvgl/src/widgets/../core/lv_obj_style_gen.h **** 
 361:Middlewares/LVGL/GUI/lvgl/src/widgets/../core/lv_obj_style_gen.h **** static inline lv_coord_t lv_obj_get_style_line_dash_width(const struct _lv_obj_t * obj, uint32_t pa
 362:Middlewares/LVGL/GUI/lvgl/src/widgets/../core/lv_obj_style_gen.h **** {
 363:Middlewares/LVGL/GUI/lvgl/src/widgets/../core/lv_obj_style_gen.h ****     lv_style_value_t v = lv_obj_get_style_prop(obj, part, LV_STYLE_LINE_DASH_WIDTH);
 364:Middlewares/LVGL/GUI/lvgl/src/widgets/../core/lv_obj_style_gen.h ****     return (lv_coord_t)v.num;
 365:Middlewares/LVGL/GUI/lvgl/src/widgets/../core/lv_obj_style_gen.h **** }
 366:Middlewares/LVGL/GUI/lvgl/src/widgets/../core/lv_obj_style_gen.h **** 
 367:Middlewares/LVGL/GUI/lvgl/src/widgets/../core/lv_obj_style_gen.h **** static inline lv_coord_t lv_obj_get_style_line_dash_gap(const struct _lv_obj_t * obj, uint32_t part
 368:Middlewares/LVGL/GUI/lvgl/src/widgets/../core/lv_obj_style_gen.h **** {
 369:Middlewares/LVGL/GUI/lvgl/src/widgets/../core/lv_obj_style_gen.h ****     lv_style_value_t v = lv_obj_get_style_prop(obj, part, LV_STYLE_LINE_DASH_GAP);
 370:Middlewares/LVGL/GUI/lvgl/src/widgets/../core/lv_obj_style_gen.h ****     return (lv_coord_t)v.num;
 371:Middlewares/LVGL/GUI/lvgl/src/widgets/../core/lv_obj_style_gen.h **** }
 372:Middlewares/LVGL/GUI/lvgl/src/widgets/../core/lv_obj_style_gen.h **** 
 373:Middlewares/LVGL/GUI/lvgl/src/widgets/../core/lv_obj_style_gen.h **** static inline bool lv_obj_get_style_line_rounded(const struct _lv_obj_t * obj, uint32_t part)
 374:Middlewares/LVGL/GUI/lvgl/src/widgets/../core/lv_obj_style_gen.h **** {
 375:Middlewares/LVGL/GUI/lvgl/src/widgets/../core/lv_obj_style_gen.h ****     lv_style_value_t v = lv_obj_get_style_prop(obj, part, LV_STYLE_LINE_ROUNDED);
 376:Middlewares/LVGL/GUI/lvgl/src/widgets/../core/lv_obj_style_gen.h ****     return (bool)v.num;
 377:Middlewares/LVGL/GUI/lvgl/src/widgets/../core/lv_obj_style_gen.h **** }
 378:Middlewares/LVGL/GUI/lvgl/src/widgets/../core/lv_obj_style_gen.h **** 
 379:Middlewares/LVGL/GUI/lvgl/src/widgets/../core/lv_obj_style_gen.h **** static inline lv_color_t lv_obj_get_style_line_color(const struct _lv_obj_t * obj, uint32_t part)
 380:Middlewares/LVGL/GUI/lvgl/src/widgets/../core/lv_obj_style_gen.h **** {
 381:Middlewares/LVGL/GUI/lvgl/src/widgets/../core/lv_obj_style_gen.h ****     lv_style_value_t v = lv_obj_get_style_prop(obj, part, LV_STYLE_LINE_COLOR);
 382:Middlewares/LVGL/GUI/lvgl/src/widgets/../core/lv_obj_style_gen.h ****     return v.color;
 383:Middlewares/LVGL/GUI/lvgl/src/widgets/../core/lv_obj_style_gen.h **** }
 384:Middlewares/LVGL/GUI/lvgl/src/widgets/../core/lv_obj_style_gen.h **** 
 385:Middlewares/LVGL/GUI/lvgl/src/widgets/../core/lv_obj_style_gen.h **** static inline lv_color_t lv_obj_get_style_line_color_filtered(const struct _lv_obj_t * obj, uint32_
 386:Middlewares/LVGL/GUI/lvgl/src/widgets/../core/lv_obj_style_gen.h **** {
 387:Middlewares/LVGL/GUI/lvgl/src/widgets/../core/lv_obj_style_gen.h ****     lv_style_value_t v = lv_obj_get_style_prop(obj, part, LV_STYLE_LINE_COLOR_FILTERED);
 388:Middlewares/LVGL/GUI/lvgl/src/widgets/../core/lv_obj_style_gen.h ****     return v.color;
 389:Middlewares/LVGL/GUI/lvgl/src/widgets/../core/lv_obj_style_gen.h **** }
 390:Middlewares/LVGL/GUI/lvgl/src/widgets/../core/lv_obj_style_gen.h **** 
 391:Middlewares/LVGL/GUI/lvgl/src/widgets/../core/lv_obj_style_gen.h **** static inline lv_opa_t lv_obj_get_style_line_opa(const struct _lv_obj_t * obj, uint32_t part)
 392:Middlewares/LVGL/GUI/lvgl/src/widgets/../core/lv_obj_style_gen.h **** {
 393:Middlewares/LVGL/GUI/lvgl/src/widgets/../core/lv_obj_style_gen.h ****     lv_style_value_t v = lv_obj_get_style_prop(obj, part, LV_STYLE_LINE_OPA);
 394:Middlewares/LVGL/GUI/lvgl/src/widgets/../core/lv_obj_style_gen.h ****     return (lv_opa_t)v.num;
 395:Middlewares/LVGL/GUI/lvgl/src/widgets/../core/lv_obj_style_gen.h **** }
 396:Middlewares/LVGL/GUI/lvgl/src/widgets/../core/lv_obj_style_gen.h **** 
 397:Middlewares/LVGL/GUI/lvgl/src/widgets/../core/lv_obj_style_gen.h **** static inline lv_coord_t lv_obj_get_style_arc_width(const struct _lv_obj_t * obj, uint32_t part)
 398:Middlewares/LVGL/GUI/lvgl/src/widgets/../core/lv_obj_style_gen.h **** {
 399:Middlewares/LVGL/GUI/lvgl/src/widgets/../core/lv_obj_style_gen.h ****     lv_style_value_t v = lv_obj_get_style_prop(obj, part, LV_STYLE_ARC_WIDTH);
 400:Middlewares/LVGL/GUI/lvgl/src/widgets/../core/lv_obj_style_gen.h ****     return (lv_coord_t)v.num;
 401:Middlewares/LVGL/GUI/lvgl/src/widgets/../core/lv_obj_style_gen.h **** }
 402:Middlewares/LVGL/GUI/lvgl/src/widgets/../core/lv_obj_style_gen.h **** 
 403:Middlewares/LVGL/GUI/lvgl/src/widgets/../core/lv_obj_style_gen.h **** static inline bool lv_obj_get_style_arc_rounded(const struct _lv_obj_t * obj, uint32_t part)
 404:Middlewares/LVGL/GUI/lvgl/src/widgets/../core/lv_obj_style_gen.h **** {
 405:Middlewares/LVGL/GUI/lvgl/src/widgets/../core/lv_obj_style_gen.h ****     lv_style_value_t v = lv_obj_get_style_prop(obj, part, LV_STYLE_ARC_ROUNDED);
 406:Middlewares/LVGL/GUI/lvgl/src/widgets/../core/lv_obj_style_gen.h ****     return (bool)v.num;
 407:Middlewares/LVGL/GUI/lvgl/src/widgets/../core/lv_obj_style_gen.h **** }
 408:Middlewares/LVGL/GUI/lvgl/src/widgets/../core/lv_obj_style_gen.h **** 
 409:Middlewares/LVGL/GUI/lvgl/src/widgets/../core/lv_obj_style_gen.h **** static inline lv_color_t lv_obj_get_style_arc_color(const struct _lv_obj_t * obj, uint32_t part)
 410:Middlewares/LVGL/GUI/lvgl/src/widgets/../core/lv_obj_style_gen.h **** {
ARM GAS  C:\Users\ADMINI~1\AppData\Local\Temp\ccvtjbeI.s 			page 24


 411:Middlewares/LVGL/GUI/lvgl/src/widgets/../core/lv_obj_style_gen.h ****     lv_style_value_t v = lv_obj_get_style_prop(obj, part, LV_STYLE_ARC_COLOR);
 412:Middlewares/LVGL/GUI/lvgl/src/widgets/../core/lv_obj_style_gen.h ****     return v.color;
 413:Middlewares/LVGL/GUI/lvgl/src/widgets/../core/lv_obj_style_gen.h **** }
 414:Middlewares/LVGL/GUI/lvgl/src/widgets/../core/lv_obj_style_gen.h **** 
 415:Middlewares/LVGL/GUI/lvgl/src/widgets/../core/lv_obj_style_gen.h **** static inline lv_color_t lv_obj_get_style_arc_color_filtered(const struct _lv_obj_t * obj, uint32_t
 416:Middlewares/LVGL/GUI/lvgl/src/widgets/../core/lv_obj_style_gen.h **** {
 417:Middlewares/LVGL/GUI/lvgl/src/widgets/../core/lv_obj_style_gen.h ****     lv_style_value_t v = lv_obj_get_style_prop(obj, part, LV_STYLE_ARC_COLOR_FILTERED);
 418:Middlewares/LVGL/GUI/lvgl/src/widgets/../core/lv_obj_style_gen.h ****     return v.color;
 419:Middlewares/LVGL/GUI/lvgl/src/widgets/../core/lv_obj_style_gen.h **** }
 420:Middlewares/LVGL/GUI/lvgl/src/widgets/../core/lv_obj_style_gen.h **** 
 421:Middlewares/LVGL/GUI/lvgl/src/widgets/../core/lv_obj_style_gen.h **** static inline lv_opa_t lv_obj_get_style_arc_opa(const struct _lv_obj_t * obj, uint32_t part)
 422:Middlewares/LVGL/GUI/lvgl/src/widgets/../core/lv_obj_style_gen.h **** {
 423:Middlewares/LVGL/GUI/lvgl/src/widgets/../core/lv_obj_style_gen.h ****     lv_style_value_t v = lv_obj_get_style_prop(obj, part, LV_STYLE_ARC_OPA);
 424:Middlewares/LVGL/GUI/lvgl/src/widgets/../core/lv_obj_style_gen.h ****     return (lv_opa_t)v.num;
 425:Middlewares/LVGL/GUI/lvgl/src/widgets/../core/lv_obj_style_gen.h **** }
 426:Middlewares/LVGL/GUI/lvgl/src/widgets/../core/lv_obj_style_gen.h **** 
 427:Middlewares/LVGL/GUI/lvgl/src/widgets/../core/lv_obj_style_gen.h **** static inline const void * lv_obj_get_style_arc_img_src(const struct _lv_obj_t * obj, uint32_t part
 428:Middlewares/LVGL/GUI/lvgl/src/widgets/../core/lv_obj_style_gen.h **** {
 429:Middlewares/LVGL/GUI/lvgl/src/widgets/../core/lv_obj_style_gen.h ****     lv_style_value_t v = lv_obj_get_style_prop(obj, part, LV_STYLE_ARC_IMG_SRC);
 430:Middlewares/LVGL/GUI/lvgl/src/widgets/../core/lv_obj_style_gen.h ****     return (const void *)v.ptr;
 431:Middlewares/LVGL/GUI/lvgl/src/widgets/../core/lv_obj_style_gen.h **** }
 432:Middlewares/LVGL/GUI/lvgl/src/widgets/../core/lv_obj_style_gen.h **** 
 433:Middlewares/LVGL/GUI/lvgl/src/widgets/../core/lv_obj_style_gen.h **** static inline lv_color_t lv_obj_get_style_text_color(const struct _lv_obj_t * obj, uint32_t part)
 434:Middlewares/LVGL/GUI/lvgl/src/widgets/../core/lv_obj_style_gen.h **** {
 435:Middlewares/LVGL/GUI/lvgl/src/widgets/../core/lv_obj_style_gen.h ****     lv_style_value_t v = lv_obj_get_style_prop(obj, part, LV_STYLE_TEXT_COLOR);
 436:Middlewares/LVGL/GUI/lvgl/src/widgets/../core/lv_obj_style_gen.h ****     return v.color;
 437:Middlewares/LVGL/GUI/lvgl/src/widgets/../core/lv_obj_style_gen.h **** }
 438:Middlewares/LVGL/GUI/lvgl/src/widgets/../core/lv_obj_style_gen.h **** 
 439:Middlewares/LVGL/GUI/lvgl/src/widgets/../core/lv_obj_style_gen.h **** static inline lv_color_t lv_obj_get_style_text_color_filtered(const struct _lv_obj_t * obj, uint32_
 440:Middlewares/LVGL/GUI/lvgl/src/widgets/../core/lv_obj_style_gen.h **** {
 441:Middlewares/LVGL/GUI/lvgl/src/widgets/../core/lv_obj_style_gen.h ****     lv_style_value_t v = lv_obj_get_style_prop(obj, part, LV_STYLE_TEXT_COLOR_FILTERED);
 442:Middlewares/LVGL/GUI/lvgl/src/widgets/../core/lv_obj_style_gen.h ****     return v.color;
 443:Middlewares/LVGL/GUI/lvgl/src/widgets/../core/lv_obj_style_gen.h **** }
 444:Middlewares/LVGL/GUI/lvgl/src/widgets/../core/lv_obj_style_gen.h **** 
 445:Middlewares/LVGL/GUI/lvgl/src/widgets/../core/lv_obj_style_gen.h **** static inline lv_opa_t lv_obj_get_style_text_opa(const struct _lv_obj_t * obj, uint32_t part)
 446:Middlewares/LVGL/GUI/lvgl/src/widgets/../core/lv_obj_style_gen.h **** {
 447:Middlewares/LVGL/GUI/lvgl/src/widgets/../core/lv_obj_style_gen.h ****     lv_style_value_t v = lv_obj_get_style_prop(obj, part, LV_STYLE_TEXT_OPA);
 448:Middlewares/LVGL/GUI/lvgl/src/widgets/../core/lv_obj_style_gen.h ****     return (lv_opa_t)v.num;
 449:Middlewares/LVGL/GUI/lvgl/src/widgets/../core/lv_obj_style_gen.h **** }
 450:Middlewares/LVGL/GUI/lvgl/src/widgets/../core/lv_obj_style_gen.h **** 
 451:Middlewares/LVGL/GUI/lvgl/src/widgets/../core/lv_obj_style_gen.h **** static inline const lv_font_t * lv_obj_get_style_text_font(const struct _lv_obj_t * obj, uint32_t p
 114              		.loc 2 451 33 view .LVU16
 115              	.LBB75:
 452:Middlewares/LVGL/GUI/lvgl/src/widgets/../core/lv_obj_style_gen.h **** {
 453:Middlewares/LVGL/GUI/lvgl/src/widgets/../core/lv_obj_style_gen.h ****     lv_style_value_t v = lv_obj_get_style_prop(obj, part, LV_STYLE_TEXT_FONT);
 116              		.loc 2 453 5 view .LVU17
 117              		.loc 2 453 26 is_stmt 0 view .LVU18
 118 000e 41F25942 		movw	r2, #5209
 119 0012 4FF48021 		mov	r1, #262144
 120 0016 2046     		mov	r0, r4
 121              	.LVL7:
 122              		.loc 2 453 26 view .LVU19
 123 0018 FFF7FEFF 		bl	lv_obj_get_style_prop
 124              	.LVL8:
 125 001c 0546     		mov	r5, r0
 126              	.LVL9:
 454:Middlewares/LVGL/GUI/lvgl/src/widgets/../core/lv_obj_style_gen.h ****     return (const lv_font_t *)v.ptr;
ARM GAS  C:\Users\ADMINI~1\AppData\Local\Temp\ccvtjbeI.s 			page 25


 127              		.loc 2 454 5 is_stmt 1 view .LVU20
 128              		.loc 2 454 5 is_stmt 0 view .LVU21
 129              	.LBE75:
 130              	.LBE74:
 764:Middlewares/LVGL/GUI/lvgl/src/widgets/lv_roller.c ****     const char * txt = lv_label_get_text(label);
 131              		.loc 1 764 5 is_stmt 1 view .LVU22
 132              	.LBB76:
 133              	.LBI76:
 455:Middlewares/LVGL/GUI/lvgl/src/widgets/../core/lv_obj_style_gen.h **** }
 456:Middlewares/LVGL/GUI/lvgl/src/widgets/../core/lv_obj_style_gen.h **** 
 457:Middlewares/LVGL/GUI/lvgl/src/widgets/../core/lv_obj_style_gen.h **** static inline lv_coord_t lv_obj_get_style_text_letter_space(const struct _lv_obj_t * obj, uint32_t 
 134              		.loc 2 457 26 view .LVU23
 135              	.LBB77:
 458:Middlewares/LVGL/GUI/lvgl/src/widgets/../core/lv_obj_style_gen.h **** {
 459:Middlewares/LVGL/GUI/lvgl/src/widgets/../core/lv_obj_style_gen.h ****     lv_style_value_t v = lv_obj_get_style_prop(obj, part, LV_STYLE_TEXT_LETTER_SPACE);
 136              		.loc 2 459 5 view .LVU24
 137              		.loc 2 459 26 is_stmt 0 view .LVU25
 138 001e 41F25A42 		movw	r2, #5210
 139 0022 4FF48021 		mov	r1, #262144
 140 0026 2046     		mov	r0, r4
 141              	.LVL10:
 142              		.loc 2 459 26 view .LVU26
 143 0028 FFF7FEFF 		bl	lv_obj_get_style_prop
 144              	.LVL11:
 145 002c 0446     		mov	r4, r0
 146              	.LVL12:
 460:Middlewares/LVGL/GUI/lvgl/src/widgets/../core/lv_obj_style_gen.h ****     return (lv_coord_t)v.num;
 147              		.loc 2 460 5 is_stmt 1 view .LVU27
 148              		.loc 2 460 5 is_stmt 0 view .LVU28
 149              	.LBE77:
 150              	.LBE76:
 765:Middlewares/LVGL/GUI/lvgl/src/widgets/lv_roller.c ****     lv_point_t size;
 151              		.loc 1 765 5 is_stmt 1 view .LVU29
 765:Middlewares/LVGL/GUI/lvgl/src/widgets/lv_roller.c ****     lv_point_t size;
 152              		.loc 1 765 24 is_stmt 0 view .LVU30
 153 002e 3046     		mov	r0, r6
 154              	.LVL13:
 765:Middlewares/LVGL/GUI/lvgl/src/widgets/lv_roller.c ****     lv_point_t size;
 155              		.loc 1 765 24 view .LVU31
 156 0030 FFF7FEFF 		bl	lv_label_get_text
 157              	.LVL14:
 158 0034 0146     		mov	r1, r0
 159              	.LVL15:
 766:Middlewares/LVGL/GUI/lvgl/src/widgets/lv_roller.c ****     lv_txt_get_size(&size, txt, font, letter_space, 0, LV_COORD_MAX,  LV_TEXT_FLAG_NONE);
 160              		.loc 1 766 5 is_stmt 1 view .LVU32
 767:Middlewares/LVGL/GUI/lvgl/src/widgets/lv_roller.c ****     return size.x;
 161              		.loc 1 767 5 view .LVU33
 162 0036 0023     		movs	r3, #0
 163 0038 0293     		str	r3, [sp, #8]
 164 003a 6FF06042 		mvn	r2, #-536870912
 165 003e 0192     		str	r2, [sp, #4]
 166 0040 0093     		str	r3, [sp]
 167 0042 2346     		mov	r3, r4
 168 0044 2A46     		mov	r2, r5
 169 0046 04A8     		add	r0, sp, #16
 170              	.LVL16:
 767:Middlewares/LVGL/GUI/lvgl/src/widgets/lv_roller.c ****     return size.x;
ARM GAS  C:\Users\ADMINI~1\AppData\Local\Temp\ccvtjbeI.s 			page 26


 171              		.loc 1 767 5 is_stmt 0 view .LVU34
 172 0048 FFF7FEFF 		bl	lv_txt_get_size
 173              	.LVL17:
 768:Middlewares/LVGL/GUI/lvgl/src/widgets/lv_roller.c **** }
 174              		.loc 1 768 5 is_stmt 1 view .LVU35
 768:Middlewares/LVGL/GUI/lvgl/src/widgets/lv_roller.c **** }
 175              		.loc 1 768 16 is_stmt 0 view .LVU36
 176 004c 0498     		ldr	r0, [sp, #16]
 177              	.LVL18:
 178              	.L5:
 769:Middlewares/LVGL/GUI/lvgl/src/widgets/lv_roller.c **** 
 179              		.loc 1 769 1 view .LVU37
 180 004e 06B0     		add	sp, sp, #24
 181              	.LCFI4:
 182              		.cfi_remember_state
 183              		.cfi_def_cfa_offset 16
 184              		@ sp needed
 185 0050 70BD     		pop	{r4, r5, r6, pc}
 186              	.LVL19:
 187              	.L7:
 188              	.LCFI5:
 189              		.cfi_restore_state
 761:Middlewares/LVGL/GUI/lvgl/src/widgets/lv_roller.c **** 
 190              		.loc 1 761 30 view .LVU38
 191 0052 0020     		movs	r0, #0
 192              	.LVL20:
 761:Middlewares/LVGL/GUI/lvgl/src/widgets/lv_roller.c **** 
 193              		.loc 1 761 30 view .LVU39
 194 0054 FBE7     		b	.L5
 195              		.cfi_endproc
 196              	.LFE171:
 198              		.section	.text.inf_normalize,"ax",%progbits
 199              		.align	1
 200              		.syntax unified
 201              		.thumb
 202              		.thumb_func
 204              	inf_normalize:
 205              	.LVL21:
 206              	.LFB169:
 725:Middlewares/LVGL/GUI/lvgl/src/widgets/lv_roller.c ****     lv_roller_t * roller = (lv_roller_t *)obj;
 207              		.loc 1 725 1 is_stmt 1 view -0
 208              		.cfi_startproc
 209              		@ args = 0, pretend = 0, frame = 0
 210              		@ frame_needed = 0, uses_anonymous_args = 0
 725:Middlewares/LVGL/GUI/lvgl/src/widgets/lv_roller.c ****     lv_roller_t * roller = (lv_roller_t *)obj;
 211              		.loc 1 725 1 is_stmt 0 view .LVU41
 212 0000 F8B5     		push	{r3, r4, r5, r6, r7, lr}
 213              	.LCFI6:
 214              		.cfi_def_cfa_offset 24
 215              		.cfi_offset 3, -24
 216              		.cfi_offset 4, -20
 217              		.cfi_offset 5, -16
 218              		.cfi_offset 6, -12
 219              		.cfi_offset 7, -8
 220              		.cfi_offset 14, -4
 726:Middlewares/LVGL/GUI/lvgl/src/widgets/lv_roller.c **** 
 221              		.loc 1 726 5 is_stmt 1 view .LVU42
ARM GAS  C:\Users\ADMINI~1\AppData\Local\Temp\ccvtjbeI.s 			page 27


 222              	.LVL22:
 728:Middlewares/LVGL/GUI/lvgl/src/widgets/lv_roller.c ****         uint16_t real_id_cnt = roller->option_cnt / LV_ROLLER_INF_PAGES;
 223              		.loc 1 728 5 view .LVU43
 728:Middlewares/LVGL/GUI/lvgl/src/widgets/lv_roller.c ****         uint16_t real_id_cnt = roller->option_cnt / LV_ROLLER_INF_PAGES;
 224              		.loc 1 728 21 is_stmt 0 view .LVU44
 225 0002 90F83230 		ldrb	r3, [r0, #50]	@ zero_extendqisi2
 728:Middlewares/LVGL/GUI/lvgl/src/widgets/lv_roller.c ****         uint16_t real_id_cnt = roller->option_cnt / LV_ROLLER_INF_PAGES;
 226              		.loc 1 728 7 view .LVU45
 227 0006 13F0010F 		tst	r3, #1
 228 000a 00D1     		bne	.L12
 229              	.LVL23:
 230              	.L9:
 750:Middlewares/LVGL/GUI/lvgl/src/widgets/lv_roller.c **** 
 231              		.loc 1 750 1 view .LVU46
 232 000c F8BD     		pop	{r3, r4, r5, r6, r7, pc}
 233              	.LVL24:
 234              	.L12:
 750:Middlewares/LVGL/GUI/lvgl/src/widgets/lv_roller.c **** 
 235              		.loc 1 750 1 view .LVU47
 236 000e 0446     		mov	r4, r0
 237              	.LBB78:
 729:Middlewares/LVGL/GUI/lvgl/src/widgets/lv_roller.c ****         roller->sel_opt_id = roller->sel_opt_id % real_id_cnt;
 238              		.loc 1 729 9 is_stmt 1 view .LVU48
 729:Middlewares/LVGL/GUI/lvgl/src/widgets/lv_roller.c ****         roller->sel_opt_id = roller->sel_opt_id % real_id_cnt;
 239              		.loc 1 729 38 is_stmt 0 view .LVU49
 240 0010 828D     		ldrh	r2, [r0, #44]
 729:Middlewares/LVGL/GUI/lvgl/src/widgets/lv_roller.c ****         roller->sel_opt_id = roller->sel_opt_id % real_id_cnt;
 241              		.loc 1 729 18 view .LVU50
 242 0012 204B     		ldr	r3, .L13
 243 0014 A3FB0213 		umull	r1, r3, r3, r2
 244 0018 D21A     		subs	r2, r2, r3
 245 001a 03EB5203 		add	r3, r3, r2, lsr #1
 246 001e C3F38F02 		ubfx	r2, r3, #2, #16
 247              	.LVL25:
 730:Middlewares/LVGL/GUI/lvgl/src/widgets/lv_roller.c ****         roller->sel_opt_id += (LV_ROLLER_INF_PAGES / 2) * real_id_cnt; /*Select the middle page*/
 248              		.loc 1 730 9 is_stmt 1 view .LVU51
 730:Middlewares/LVGL/GUI/lvgl/src/widgets/lv_roller.c ****         roller->sel_opt_id += (LV_ROLLER_INF_PAGES / 2) * real_id_cnt; /*Select the middle page*/
 249              		.loc 1 730 36 is_stmt 0 view .LVU52
 250 0022 C38D     		ldrh	r3, [r0, #46]
 730:Middlewares/LVGL/GUI/lvgl/src/widgets/lv_roller.c ****         roller->sel_opt_id += (LV_ROLLER_INF_PAGES / 2) * real_id_cnt; /*Select the middle page*/
 251              		.loc 1 730 28 view .LVU53
 252 0024 B3FBF2F1 		udiv	r1, r3, r2
 253 0028 02FB1133 		mls	r3, r2, r1, r3
 254 002c 9BB2     		uxth	r3, r3
 255 002e C385     		strh	r3, [r0, #46]	@ movhi
 731:Middlewares/LVGL/GUI/lvgl/src/widgets/lv_roller.c **** 
 256              		.loc 1 731 9 is_stmt 1 view .LVU54
 731:Middlewares/LVGL/GUI/lvgl/src/widgets/lv_roller.c **** 
 257              		.loc 1 731 28 is_stmt 0 view .LVU55
 258 0030 02EB4201 		add	r1, r2, r2, lsl #1
 259 0034 89B2     		uxth	r1, r1
 260 0036 0B44     		add	r3, r3, r1
 261 0038 9BB2     		uxth	r3, r3
 262 003a C385     		strh	r3, [r0, #46]	@ movhi
 733:Middlewares/LVGL/GUI/lvgl/src/widgets/lv_roller.c ****         roller->sel_opt_id_ori += (LV_ROLLER_INF_PAGES / 2) * real_id_cnt; /*Select the middle page
 263              		.loc 1 733 9 is_stmt 1 view .LVU56
 733:Middlewares/LVGL/GUI/lvgl/src/widgets/lv_roller.c ****         roller->sel_opt_id_ori += (LV_ROLLER_INF_PAGES / 2) * real_id_cnt; /*Select the middle page
ARM GAS  C:\Users\ADMINI~1\AppData\Local\Temp\ccvtjbeI.s 			page 28


 264              		.loc 1 733 32 is_stmt 0 view .LVU57
 265 003c B3FBF2F0 		udiv	r0, r3, r2
 266              	.LVL26:
 733:Middlewares/LVGL/GUI/lvgl/src/widgets/lv_roller.c ****         roller->sel_opt_id_ori += (LV_ROLLER_INF_PAGES / 2) * real_id_cnt; /*Select the middle page
 267              		.loc 1 733 32 view .LVU58
 268 0040 02FB1033 		mls	r3, r2, r0, r3
 269 0044 9BB2     		uxth	r3, r3
 270 0046 2386     		strh	r3, [r4, #48]	@ movhi
 734:Middlewares/LVGL/GUI/lvgl/src/widgets/lv_roller.c **** 
 271              		.loc 1 734 9 is_stmt 1 view .LVU59
 734:Middlewares/LVGL/GUI/lvgl/src/widgets/lv_roller.c **** 
 272              		.loc 1 734 32 is_stmt 0 view .LVU60
 273 0048 0B44     		add	r3, r3, r1
 274 004a 2386     		strh	r3, [r4, #48]	@ movhi
 737:Middlewares/LVGL/GUI/lvgl/src/widgets/lv_roller.c ****         lv_coord_t line_space = lv_obj_get_style_text_line_space(obj, LV_PART_MAIN);
 275              		.loc 1 737 9 is_stmt 1 view .LVU61
 276              	.LVL27:
 277              	.LBB79:
 278              	.LBI79:
 451:Middlewares/LVGL/GUI/lvgl/src/widgets/../core/lv_obj_style_gen.h **** {
 279              		.loc 2 451 33 view .LVU62
 280              	.LBB80:
 453:Middlewares/LVGL/GUI/lvgl/src/widgets/../core/lv_obj_style_gen.h ****     return (const lv_font_t *)v.ptr;
 281              		.loc 2 453 5 view .LVU63
 453:Middlewares/LVGL/GUI/lvgl/src/widgets/../core/lv_obj_style_gen.h ****     return (const lv_font_t *)v.ptr;
 282              		.loc 2 453 26 is_stmt 0 view .LVU64
 283 004c 41F25942 		movw	r2, #5209
 284              	.LVL28:
 453:Middlewares/LVGL/GUI/lvgl/src/widgets/../core/lv_obj_style_gen.h ****     return (const lv_font_t *)v.ptr;
 285              		.loc 2 453 26 view .LVU65
 286 0050 0021     		movs	r1, #0
 287 0052 2046     		mov	r0, r4
 288 0054 FFF7FEFF 		bl	lv_obj_get_style_prop
 289              	.LVL29:
 453:Middlewares/LVGL/GUI/lvgl/src/widgets/../core/lv_obj_style_gen.h ****     return (const lv_font_t *)v.ptr;
 290              		.loc 2 453 26 view .LVU66
 291 0058 0546     		mov	r5, r0
 292              	.LVL30:
 454:Middlewares/LVGL/GUI/lvgl/src/widgets/../core/lv_obj_style_gen.h **** }
 293              		.loc 2 454 5 is_stmt 1 view .LVU67
 454:Middlewares/LVGL/GUI/lvgl/src/widgets/../core/lv_obj_style_gen.h **** }
 294              		.loc 2 454 5 is_stmt 0 view .LVU68
 295              	.LBE80:
 296              	.LBE79:
 738:Middlewares/LVGL/GUI/lvgl/src/widgets/lv_roller.c ****         lv_coord_t font_h              = lv_font_get_line_height(font);
 297              		.loc 1 738 9 is_stmt 1 view .LVU69
 298              	.LBB81:
 299              	.LBI81:
 461:Middlewares/LVGL/GUI/lvgl/src/widgets/../core/lv_obj_style_gen.h **** }
 462:Middlewares/LVGL/GUI/lvgl/src/widgets/../core/lv_obj_style_gen.h **** 
 463:Middlewares/LVGL/GUI/lvgl/src/widgets/../core/lv_obj_style_gen.h **** static inline lv_coord_t lv_obj_get_style_text_line_space(const struct _lv_obj_t * obj, uint32_t pa
 300              		.loc 2 463 26 view .LVU70
 301              	.LBB82:
 464:Middlewares/LVGL/GUI/lvgl/src/widgets/../core/lv_obj_style_gen.h **** {
 465:Middlewares/LVGL/GUI/lvgl/src/widgets/../core/lv_obj_style_gen.h ****     lv_style_value_t v = lv_obj_get_style_prop(obj, part, LV_STYLE_TEXT_LINE_SPACE);
 302              		.loc 2 465 5 view .LVU71
 303              		.loc 2 465 26 is_stmt 0 view .LVU72
ARM GAS  C:\Users\ADMINI~1\AppData\Local\Temp\ccvtjbeI.s 			page 29


 304 005a 41F25B42 		movw	r2, #5211
 305 005e 0021     		movs	r1, #0
 306 0060 2046     		mov	r0, r4
 307              	.LVL31:
 308              		.loc 2 465 26 view .LVU73
 309 0062 FFF7FEFF 		bl	lv_obj_get_style_prop
 310              	.LVL32:
 311 0066 0746     		mov	r7, r0
 312              	.LVL33:
 466:Middlewares/LVGL/GUI/lvgl/src/widgets/../core/lv_obj_style_gen.h ****     return (lv_coord_t)v.num;
 313              		.loc 2 466 5 is_stmt 1 view .LVU74
 314              		.loc 2 466 5 is_stmt 0 view .LVU75
 315              	.LBE82:
 316              	.LBE81:
 739:Middlewares/LVGL/GUI/lvgl/src/widgets/lv_roller.c ****         lv_coord_t h                   = lv_obj_get_content_height(obj);
 317              		.loc 1 739 9 is_stmt 1 view .LVU76
 318              	.LBB83:
 319              	.LBI83:
 320              		.file 3 "Middlewares/LVGL/GUI/lvgl/src/widgets/../core/../misc/../font/lv_font.h"
   1:Middlewares/LVGL/GUI/lvgl/src/widgets/../core/../misc/../font/lv_font.h **** /**
   2:Middlewares/LVGL/GUI/lvgl/src/widgets/../core/../misc/../font/lv_font.h ****  * @file lv_font.h
   3:Middlewares/LVGL/GUI/lvgl/src/widgets/../core/../misc/../font/lv_font.h ****  *
   4:Middlewares/LVGL/GUI/lvgl/src/widgets/../core/../misc/../font/lv_font.h ****  */
   5:Middlewares/LVGL/GUI/lvgl/src/widgets/../core/../misc/../font/lv_font.h **** 
   6:Middlewares/LVGL/GUI/lvgl/src/widgets/../core/../misc/../font/lv_font.h **** #ifndef LV_FONT_H
   7:Middlewares/LVGL/GUI/lvgl/src/widgets/../core/../misc/../font/lv_font.h **** #define LV_FONT_H
   8:Middlewares/LVGL/GUI/lvgl/src/widgets/../core/../misc/../font/lv_font.h **** 
   9:Middlewares/LVGL/GUI/lvgl/src/widgets/../core/../misc/../font/lv_font.h **** #ifdef __cplusplus
  10:Middlewares/LVGL/GUI/lvgl/src/widgets/../core/../misc/../font/lv_font.h **** extern "C" {
  11:Middlewares/LVGL/GUI/lvgl/src/widgets/../core/../misc/../font/lv_font.h **** #endif
  12:Middlewares/LVGL/GUI/lvgl/src/widgets/../core/../misc/../font/lv_font.h **** 
  13:Middlewares/LVGL/GUI/lvgl/src/widgets/../core/../misc/../font/lv_font.h **** /*********************
  14:Middlewares/LVGL/GUI/lvgl/src/widgets/../core/../misc/../font/lv_font.h ****  *      INCLUDES
  15:Middlewares/LVGL/GUI/lvgl/src/widgets/../core/../misc/../font/lv_font.h ****  *********************/
  16:Middlewares/LVGL/GUI/lvgl/src/widgets/../core/../misc/../font/lv_font.h **** #include "../lv_conf_internal.h"
  17:Middlewares/LVGL/GUI/lvgl/src/widgets/../core/../misc/../font/lv_font.h **** #include <stdint.h>
  18:Middlewares/LVGL/GUI/lvgl/src/widgets/../core/../misc/../font/lv_font.h **** #include <stddef.h>
  19:Middlewares/LVGL/GUI/lvgl/src/widgets/../core/../misc/../font/lv_font.h **** #include <stdbool.h>
  20:Middlewares/LVGL/GUI/lvgl/src/widgets/../core/../misc/../font/lv_font.h **** 
  21:Middlewares/LVGL/GUI/lvgl/src/widgets/../core/../misc/../font/lv_font.h **** #include "lv_symbol_def.h"
  22:Middlewares/LVGL/GUI/lvgl/src/widgets/../core/../misc/../font/lv_font.h **** #include "../misc/lv_area.h"
  23:Middlewares/LVGL/GUI/lvgl/src/widgets/../core/../misc/../font/lv_font.h **** 
  24:Middlewares/LVGL/GUI/lvgl/src/widgets/../core/../misc/../font/lv_font.h **** /*********************
  25:Middlewares/LVGL/GUI/lvgl/src/widgets/../core/../misc/../font/lv_font.h ****  *      DEFINES
  26:Middlewares/LVGL/GUI/lvgl/src/widgets/../core/../misc/../font/lv_font.h ****  *********************/
  27:Middlewares/LVGL/GUI/lvgl/src/widgets/../core/../misc/../font/lv_font.h **** 
  28:Middlewares/LVGL/GUI/lvgl/src/widgets/../core/../misc/../font/lv_font.h **** /**********************
  29:Middlewares/LVGL/GUI/lvgl/src/widgets/../core/../misc/../font/lv_font.h ****  *      TYPEDEFS
  30:Middlewares/LVGL/GUI/lvgl/src/widgets/../core/../misc/../font/lv_font.h ****  **********************/
  31:Middlewares/LVGL/GUI/lvgl/src/widgets/../core/../misc/../font/lv_font.h **** 
  32:Middlewares/LVGL/GUI/lvgl/src/widgets/../core/../misc/../font/lv_font.h **** /*------------------
  33:Middlewares/LVGL/GUI/lvgl/src/widgets/../core/../misc/../font/lv_font.h ****  * General types
  34:Middlewares/LVGL/GUI/lvgl/src/widgets/../core/../misc/../font/lv_font.h ****  *-----------------*/
  35:Middlewares/LVGL/GUI/lvgl/src/widgets/../core/../misc/../font/lv_font.h **** 
  36:Middlewares/LVGL/GUI/lvgl/src/widgets/../core/../misc/../font/lv_font.h **** struct _lv_font_t;
  37:Middlewares/LVGL/GUI/lvgl/src/widgets/../core/../misc/../font/lv_font.h **** /** Describes the properties of a glyph.*/
  38:Middlewares/LVGL/GUI/lvgl/src/widgets/../core/../misc/../font/lv_font.h **** typedef struct {
ARM GAS  C:\Users\ADMINI~1\AppData\Local\Temp\ccvtjbeI.s 			page 30


  39:Middlewares/LVGL/GUI/lvgl/src/widgets/../core/../misc/../font/lv_font.h ****     const struct _lv_font_t *
  40:Middlewares/LVGL/GUI/lvgl/src/widgets/../core/../misc/../font/lv_font.h ****         resolved_font; /**< Pointer to a font where the gylph was actually found after handling fal
  41:Middlewares/LVGL/GUI/lvgl/src/widgets/../core/../misc/../font/lv_font.h ****     uint16_t adv_w; /**< The glyph needs this space. Draw the next glyph after this width.*/
  42:Middlewares/LVGL/GUI/lvgl/src/widgets/../core/../misc/../font/lv_font.h ****     uint16_t box_w; /**< Width of the glyph's bounding box*/
  43:Middlewares/LVGL/GUI/lvgl/src/widgets/../core/../misc/../font/lv_font.h ****     uint16_t box_h; /**< Height of the glyph's bounding box*/
  44:Middlewares/LVGL/GUI/lvgl/src/widgets/../core/../misc/../font/lv_font.h ****     int16_t ofs_x;  /**< x offset of the bounding box*/
  45:Middlewares/LVGL/GUI/lvgl/src/widgets/../core/../misc/../font/lv_font.h ****     int16_t ofs_y;  /**< y offset of the bounding box*/
  46:Middlewares/LVGL/GUI/lvgl/src/widgets/../core/../misc/../font/lv_font.h ****     uint8_t bpp: 4;  /**< Bit-per-pixel: 1, 2, 4, 8*/
  47:Middlewares/LVGL/GUI/lvgl/src/widgets/../core/../misc/../font/lv_font.h ****     uint8_t is_placeholder: 1; /** Glyph is missing. But placeholder will still be displayed */
  48:Middlewares/LVGL/GUI/lvgl/src/widgets/../core/../misc/../font/lv_font.h **** } lv_font_glyph_dsc_t;
  49:Middlewares/LVGL/GUI/lvgl/src/widgets/../core/../misc/../font/lv_font.h **** 
  50:Middlewares/LVGL/GUI/lvgl/src/widgets/../core/../misc/../font/lv_font.h **** /** The bitmaps might be upscaled by 3 to achieve subpixel rendering.*/
  51:Middlewares/LVGL/GUI/lvgl/src/widgets/../core/../misc/../font/lv_font.h **** enum {
  52:Middlewares/LVGL/GUI/lvgl/src/widgets/../core/../misc/../font/lv_font.h ****     LV_FONT_SUBPX_NONE,
  53:Middlewares/LVGL/GUI/lvgl/src/widgets/../core/../misc/../font/lv_font.h ****     LV_FONT_SUBPX_HOR,
  54:Middlewares/LVGL/GUI/lvgl/src/widgets/../core/../misc/../font/lv_font.h ****     LV_FONT_SUBPX_VER,
  55:Middlewares/LVGL/GUI/lvgl/src/widgets/../core/../misc/../font/lv_font.h ****     LV_FONT_SUBPX_BOTH,
  56:Middlewares/LVGL/GUI/lvgl/src/widgets/../core/../misc/../font/lv_font.h **** };
  57:Middlewares/LVGL/GUI/lvgl/src/widgets/../core/../misc/../font/lv_font.h **** 
  58:Middlewares/LVGL/GUI/lvgl/src/widgets/../core/../misc/../font/lv_font.h **** typedef uint8_t lv_font_subpx_t;
  59:Middlewares/LVGL/GUI/lvgl/src/widgets/../core/../misc/../font/lv_font.h **** 
  60:Middlewares/LVGL/GUI/lvgl/src/widgets/../core/../misc/../font/lv_font.h **** /** Describe the properties of a font*/
  61:Middlewares/LVGL/GUI/lvgl/src/widgets/../core/../misc/../font/lv_font.h **** typedef struct _lv_font_t {
  62:Middlewares/LVGL/GUI/lvgl/src/widgets/../core/../misc/../font/lv_font.h ****     /** Get a glyph's descriptor from a font*/
  63:Middlewares/LVGL/GUI/lvgl/src/widgets/../core/../misc/../font/lv_font.h ****     bool (*get_glyph_dsc)(const struct _lv_font_t *, lv_font_glyph_dsc_t *, uint32_t letter, uint32
  64:Middlewares/LVGL/GUI/lvgl/src/widgets/../core/../misc/../font/lv_font.h **** 
  65:Middlewares/LVGL/GUI/lvgl/src/widgets/../core/../misc/../font/lv_font.h ****     /** Get a glyph's bitmap from a font*/
  66:Middlewares/LVGL/GUI/lvgl/src/widgets/../core/../misc/../font/lv_font.h ****     const uint8_t * (*get_glyph_bitmap)(const struct _lv_font_t *, uint32_t);
  67:Middlewares/LVGL/GUI/lvgl/src/widgets/../core/../misc/../font/lv_font.h **** 
  68:Middlewares/LVGL/GUI/lvgl/src/widgets/../core/../misc/../font/lv_font.h ****     /*Pointer to the font in a font pack (must have the same line height)*/
  69:Middlewares/LVGL/GUI/lvgl/src/widgets/../core/../misc/../font/lv_font.h ****     lv_coord_t line_height;         /**< The real line height where any text fits*/
  70:Middlewares/LVGL/GUI/lvgl/src/widgets/../core/../misc/../font/lv_font.h ****     lv_coord_t base_line;           /**< Base line measured from the top of the line_height*/
  71:Middlewares/LVGL/GUI/lvgl/src/widgets/../core/../misc/../font/lv_font.h ****     uint8_t subpx  : 2;             /**< An element of `lv_font_subpx_t`*/
  72:Middlewares/LVGL/GUI/lvgl/src/widgets/../core/../misc/../font/lv_font.h **** 
  73:Middlewares/LVGL/GUI/lvgl/src/widgets/../core/../misc/../font/lv_font.h ****     int8_t underline_position;      /**< Distance between the top of the underline and base line (<
  74:Middlewares/LVGL/GUI/lvgl/src/widgets/../core/../misc/../font/lv_font.h ****     int8_t underline_thickness;     /**< Thickness of the underline*/
  75:Middlewares/LVGL/GUI/lvgl/src/widgets/../core/../misc/../font/lv_font.h **** 
  76:Middlewares/LVGL/GUI/lvgl/src/widgets/../core/../misc/../font/lv_font.h ****     const void * dsc;               /**< Store implementation specific or run_time data or caching 
  77:Middlewares/LVGL/GUI/lvgl/src/widgets/../core/../misc/../font/lv_font.h ****     const struct _lv_font_t * fallback;   /**< Fallback font for missing glyph. Resolved recursivel
  78:Middlewares/LVGL/GUI/lvgl/src/widgets/../core/../misc/../font/lv_font.h **** #if LV_USE_USER_DATA
  79:Middlewares/LVGL/GUI/lvgl/src/widgets/../core/../misc/../font/lv_font.h ****     void * user_data;               /**< Custom user data for font.*/
  80:Middlewares/LVGL/GUI/lvgl/src/widgets/../core/../misc/../font/lv_font.h **** #endif
  81:Middlewares/LVGL/GUI/lvgl/src/widgets/../core/../misc/../font/lv_font.h **** } lv_font_t;
  82:Middlewares/LVGL/GUI/lvgl/src/widgets/../core/../misc/../font/lv_font.h **** 
  83:Middlewares/LVGL/GUI/lvgl/src/widgets/../core/../misc/../font/lv_font.h **** /**********************
  84:Middlewares/LVGL/GUI/lvgl/src/widgets/../core/../misc/../font/lv_font.h ****  * GLOBAL PROTOTYPES
  85:Middlewares/LVGL/GUI/lvgl/src/widgets/../core/../misc/../font/lv_font.h ****  **********************/
  86:Middlewares/LVGL/GUI/lvgl/src/widgets/../core/../misc/../font/lv_font.h **** 
  87:Middlewares/LVGL/GUI/lvgl/src/widgets/../core/../misc/../font/lv_font.h **** /**
  88:Middlewares/LVGL/GUI/lvgl/src/widgets/../core/../misc/../font/lv_font.h ****  * Return with the bitmap of a font.
  89:Middlewares/LVGL/GUI/lvgl/src/widgets/../core/../misc/../font/lv_font.h ****  * @param font_p pointer to a font
  90:Middlewares/LVGL/GUI/lvgl/src/widgets/../core/../misc/../font/lv_font.h ****  * @param letter an UNICODE character code
  91:Middlewares/LVGL/GUI/lvgl/src/widgets/../core/../misc/../font/lv_font.h ****  * @return pointer to the bitmap of the letter
  92:Middlewares/LVGL/GUI/lvgl/src/widgets/../core/../misc/../font/lv_font.h ****  */
  93:Middlewares/LVGL/GUI/lvgl/src/widgets/../core/../misc/../font/lv_font.h **** const uint8_t * lv_font_get_glyph_bitmap(const lv_font_t * font_p, uint32_t letter);
  94:Middlewares/LVGL/GUI/lvgl/src/widgets/../core/../misc/../font/lv_font.h **** 
  95:Middlewares/LVGL/GUI/lvgl/src/widgets/../core/../misc/../font/lv_font.h **** /**
ARM GAS  C:\Users\ADMINI~1\AppData\Local\Temp\ccvtjbeI.s 			page 31


  96:Middlewares/LVGL/GUI/lvgl/src/widgets/../core/../misc/../font/lv_font.h ****  * Get the descriptor of a glyph
  97:Middlewares/LVGL/GUI/lvgl/src/widgets/../core/../misc/../font/lv_font.h ****  * @param font_p pointer to font
  98:Middlewares/LVGL/GUI/lvgl/src/widgets/../core/../misc/../font/lv_font.h ****  * @param dsc_out store the result descriptor here
  99:Middlewares/LVGL/GUI/lvgl/src/widgets/../core/../misc/../font/lv_font.h ****  * @param letter an UNICODE letter code
 100:Middlewares/LVGL/GUI/lvgl/src/widgets/../core/../misc/../font/lv_font.h ****  * @param letter_next the next letter after `letter`. Used for kerning
 101:Middlewares/LVGL/GUI/lvgl/src/widgets/../core/../misc/../font/lv_font.h ****  * @return true: descriptor is successfully loaded into `dsc_out`.
 102:Middlewares/LVGL/GUI/lvgl/src/widgets/../core/../misc/../font/lv_font.h ****  *         false: the letter was not found, no data is loaded to `dsc_out`
 103:Middlewares/LVGL/GUI/lvgl/src/widgets/../core/../misc/../font/lv_font.h ****  */
 104:Middlewares/LVGL/GUI/lvgl/src/widgets/../core/../misc/../font/lv_font.h **** bool lv_font_get_glyph_dsc(const lv_font_t * font_p, lv_font_glyph_dsc_t * dsc_out, uint32_t letter
 105:Middlewares/LVGL/GUI/lvgl/src/widgets/../core/../misc/../font/lv_font.h ****                            uint32_t letter_next);
 106:Middlewares/LVGL/GUI/lvgl/src/widgets/../core/../misc/../font/lv_font.h **** 
 107:Middlewares/LVGL/GUI/lvgl/src/widgets/../core/../misc/../font/lv_font.h **** /**
 108:Middlewares/LVGL/GUI/lvgl/src/widgets/../core/../misc/../font/lv_font.h ****  * Get the width of a glyph with kerning
 109:Middlewares/LVGL/GUI/lvgl/src/widgets/../core/../misc/../font/lv_font.h ****  * @param font pointer to a font
 110:Middlewares/LVGL/GUI/lvgl/src/widgets/../core/../misc/../font/lv_font.h ****  * @param letter an UNICODE letter
 111:Middlewares/LVGL/GUI/lvgl/src/widgets/../core/../misc/../font/lv_font.h ****  * @param letter_next the next letter after `letter`. Used for kerning
 112:Middlewares/LVGL/GUI/lvgl/src/widgets/../core/../misc/../font/lv_font.h ****  * @return the width of the glyph
 113:Middlewares/LVGL/GUI/lvgl/src/widgets/../core/../misc/../font/lv_font.h ****  */
 114:Middlewares/LVGL/GUI/lvgl/src/widgets/../core/../misc/../font/lv_font.h **** uint16_t lv_font_get_glyph_width(const lv_font_t * font, uint32_t letter, uint32_t letter_next);
 115:Middlewares/LVGL/GUI/lvgl/src/widgets/../core/../misc/../font/lv_font.h **** 
 116:Middlewares/LVGL/GUI/lvgl/src/widgets/../core/../misc/../font/lv_font.h **** /**
 117:Middlewares/LVGL/GUI/lvgl/src/widgets/../core/../misc/../font/lv_font.h ****  * Get the line height of a font. All characters fit into this height
 118:Middlewares/LVGL/GUI/lvgl/src/widgets/../core/../misc/../font/lv_font.h ****  * @param font_p pointer to a font
 119:Middlewares/LVGL/GUI/lvgl/src/widgets/../core/../misc/../font/lv_font.h ****  * @return the height of a font
 120:Middlewares/LVGL/GUI/lvgl/src/widgets/../core/../misc/../font/lv_font.h ****  */
 121:Middlewares/LVGL/GUI/lvgl/src/widgets/../core/../misc/../font/lv_font.h **** static inline lv_coord_t lv_font_get_line_height(const lv_font_t * font_p)
 321              		.loc 3 121 26 view .LVU77
 322              	.LBB84:
 122:Middlewares/LVGL/GUI/lvgl/src/widgets/../core/../misc/../font/lv_font.h **** {
 123:Middlewares/LVGL/GUI/lvgl/src/widgets/../core/../misc/../font/lv_font.h ****     return font_p->line_height;
 323              		.loc 3 123 5 view .LVU78
 324              		.loc 3 123 18 is_stmt 0 view .LVU79
 325 0068 AD68     		ldr	r5, [r5, #8]
 326              	.LVL34:
 327              		.loc 3 123 18 view .LVU80
 328              	.LBE84:
 329              	.LBE83:
 740:Middlewares/LVGL/GUI/lvgl/src/widgets/lv_roller.c **** 
 330              		.loc 1 740 9 is_stmt 1 view .LVU81
 740:Middlewares/LVGL/GUI/lvgl/src/widgets/lv_roller.c **** 
 331              		.loc 1 740 42 is_stmt 0 view .LVU82
 332 006a 2046     		mov	r0, r4
 333              	.LVL35:
 740:Middlewares/LVGL/GUI/lvgl/src/widgets/lv_roller.c **** 
 334              		.loc 1 740 42 view .LVU83
 335 006c FFF7FEFF 		bl	lv_obj_get_content_height
 336              	.LVL36:
 337 0070 0646     		mov	r6, r0
 338              	.LVL37:
 742:Middlewares/LVGL/GUI/lvgl/src/widgets/lv_roller.c **** 
 339              		.loc 1 742 9 is_stmt 1 view .LVU84
 742:Middlewares/LVGL/GUI/lvgl/src/widgets/lv_roller.c **** 
 340              		.loc 1 742 28 is_stmt 0 view .LVU85
 341 0072 2046     		mov	r0, r4
 342              	.LVL38:
 742:Middlewares/LVGL/GUI/lvgl/src/widgets/lv_roller.c **** 
 343              		.loc 1 742 28 view .LVU86
ARM GAS  C:\Users\ADMINI~1\AppData\Local\Temp\ccvtjbeI.s 			page 32


 344 0074 FFF7FEFF 		bl	get_label
 345              	.LVL39:
 745:Middlewares/LVGL/GUI/lvgl/src/widgets/lv_roller.c ****         lv_coord_t mid_y1 = h / 2 - font_h / 2;
 346              		.loc 1 745 9 is_stmt 1 view .LVU87
 745:Middlewares/LVGL/GUI/lvgl/src/widgets/lv_roller.c ****         lv_coord_t mid_y1 = h / 2 - font_h / 2;
 347              		.loc 1 745 35 is_stmt 0 view .LVU88
 348 0078 E18D     		ldrh	r1, [r4, #46]
 745:Middlewares/LVGL/GUI/lvgl/src/widgets/lv_roller.c ****         lv_coord_t mid_y1 = h / 2 - font_h / 2;
 349              		.loc 1 745 58 view .LVU89
 350 007a 2F44     		add	r7, r7, r5
 351              	.LVL40:
 746:Middlewares/LVGL/GUI/lvgl/src/widgets/lv_roller.c ****         lv_coord_t new_y = mid_y1 - sel_y1;
 352              		.loc 1 746 9 is_stmt 1 view .LVU90
 746:Middlewares/LVGL/GUI/lvgl/src/widgets/lv_roller.c ****         lv_coord_t new_y = mid_y1 - sel_y1;
 353              		.loc 1 746 31 is_stmt 0 view .LVU91
 354 007c 06EBD676 		add	r6, r6, r6, lsr #31
 355              	.LVL41:
 746:Middlewares/LVGL/GUI/lvgl/src/widgets/lv_roller.c ****         lv_coord_t new_y = mid_y1 - sel_y1;
 356              		.loc 1 746 44 view .LVU92
 357 0080 05EBD575 		add	r5, r5, r5, lsr #31
 358              	.LVL42:
 746:Middlewares/LVGL/GUI/lvgl/src/widgets/lv_roller.c ****         lv_coord_t new_y = mid_y1 - sel_y1;
 359              		.loc 1 746 44 view .LVU93
 360 0084 6D10     		asrs	r5, r5, #1
 746:Middlewares/LVGL/GUI/lvgl/src/widgets/lv_roller.c ****         lv_coord_t new_y = mid_y1 - sel_y1;
 361              		.loc 1 746 20 view .LVU94
 362 0086 C5EB6605 		rsb	r5, r5, r6, asr #1
 363              	.LVL43:
 747:Middlewares/LVGL/GUI/lvgl/src/widgets/lv_roller.c ****         lv_obj_set_y(label, new_y);
 364              		.loc 1 747 9 is_stmt 1 view .LVU95
 748:Middlewares/LVGL/GUI/lvgl/src/widgets/lv_roller.c ****     }
 365              		.loc 1 748 9 view .LVU96
 366 008a 07FB1151 		mls	r1, r7, r1, r5
 367              	.LVL44:
 748:Middlewares/LVGL/GUI/lvgl/src/widgets/lv_roller.c ****     }
 368              		.loc 1 748 9 is_stmt 0 view .LVU97
 369 008e FFF7FEFF 		bl	lv_obj_set_y
 370              	.LVL45:
 748:Middlewares/LVGL/GUI/lvgl/src/widgets/lv_roller.c ****     }
 371              		.loc 1 748 9 view .LVU98
 372              	.LBE78:
 750:Middlewares/LVGL/GUI/lvgl/src/widgets/lv_roller.c **** 
 373              		.loc 1 750 1 view .LVU99
 374 0092 BBE7     		b	.L9
 375              	.L14:
 376              		.align	2
 377              	.L13:
 378 0094 25499224 		.word	613566757
 379              		.cfi_endproc
 380              	.LFE169:
 382              		.section	.text.scroll_anim_ready_cb,"ax",%progbits
 383              		.align	1
 384              		.syntax unified
 385              		.thumb
 386              		.thumb_func
 388              	scroll_anim_ready_cb:
 389              	.LVL46:
ARM GAS  C:\Users\ADMINI~1\AppData\Local\Temp\ccvtjbeI.s 			page 33


 390              	.LFB172:
 772:Middlewares/LVGL/GUI/lvgl/src/widgets/lv_roller.c ****     lv_obj_t * obj = lv_obj_get_parent(a->var); /*The label is animated*/
 391              		.loc 1 772 1 is_stmt 1 view -0
 392              		.cfi_startproc
 393              		@ args = 0, pretend = 0, frame = 0
 394              		@ frame_needed = 0, uses_anonymous_args = 0
 772:Middlewares/LVGL/GUI/lvgl/src/widgets/lv_roller.c ****     lv_obj_t * obj = lv_obj_get_parent(a->var); /*The label is animated*/
 395              		.loc 1 772 1 is_stmt 0 view .LVU101
 396 0000 08B5     		push	{r3, lr}
 397              	.LCFI7:
 398              		.cfi_def_cfa_offset 8
 399              		.cfi_offset 3, -8
 400              		.cfi_offset 14, -4
 773:Middlewares/LVGL/GUI/lvgl/src/widgets/lv_roller.c ****     inf_normalize(obj);
 401              		.loc 1 773 5 is_stmt 1 view .LVU102
 773:Middlewares/LVGL/GUI/lvgl/src/widgets/lv_roller.c ****     inf_normalize(obj);
 402              		.loc 1 773 22 is_stmt 0 view .LVU103
 403 0002 0068     		ldr	r0, [r0]
 404              	.LVL47:
 773:Middlewares/LVGL/GUI/lvgl/src/widgets/lv_roller.c ****     inf_normalize(obj);
 405              		.loc 1 773 22 view .LVU104
 406 0004 FFF7FEFF 		bl	lv_obj_get_parent
 407              	.LVL48:
 774:Middlewares/LVGL/GUI/lvgl/src/widgets/lv_roller.c **** }
 408              		.loc 1 774 5 is_stmt 1 view .LVU105
 409 0008 FFF7FEFF 		bl	inf_normalize
 410              	.LVL49:
 775:Middlewares/LVGL/GUI/lvgl/src/widgets/lv_roller.c **** 
 411              		.loc 1 775 1 is_stmt 0 view .LVU106
 412 000c 08BD     		pop	{r3, pc}
 413              		.cfi_endproc
 414              	.LFE172:
 416              		.section	.text.refr_position,"ax",%progbits
 417              		.align	1
 418              		.syntax unified
 419              		.thumb
 420              		.thumb_func
 422              	refr_position:
 423              	.LVL50:
 424              	.LFB167:
 593:Middlewares/LVGL/GUI/lvgl/src/widgets/lv_roller.c ****     lv_obj_t * label = get_label(obj);
 425              		.loc 1 593 1 is_stmt 1 view -0
 426              		.cfi_startproc
 427              		@ args = 0, pretend = 0, frame = 64
 428              		@ frame_needed = 0, uses_anonymous_args = 0
 593:Middlewares/LVGL/GUI/lvgl/src/widgets/lv_roller.c ****     lv_obj_t * label = get_label(obj);
 429              		.loc 1 593 1 is_stmt 0 view .LVU108
 430 0000 2DE9F04F 		push	{r4, r5, r6, r7, r8, r9, r10, fp, lr}
 431              	.LCFI8:
 432              		.cfi_def_cfa_offset 36
 433              		.cfi_offset 4, -36
 434              		.cfi_offset 5, -32
 435              		.cfi_offset 6, -28
 436              		.cfi_offset 7, -24
 437              		.cfi_offset 8, -20
 438              		.cfi_offset 9, -16
 439              		.cfi_offset 10, -12
ARM GAS  C:\Users\ADMINI~1\AppData\Local\Temp\ccvtjbeI.s 			page 34


 440              		.cfi_offset 11, -8
 441              		.cfi_offset 14, -4
 442 0004 91B0     		sub	sp, sp, #68
 443              	.LCFI9:
 444              		.cfi_def_cfa_offset 104
 445 0006 8146     		mov	r9, r0
 446 0008 0E46     		mov	r6, r1
 594:Middlewares/LVGL/GUI/lvgl/src/widgets/lv_roller.c ****     if(label == NULL) return;
 447              		.loc 1 594 5 is_stmt 1 view .LVU109
 594:Middlewares/LVGL/GUI/lvgl/src/widgets/lv_roller.c ****     if(label == NULL) return;
 448              		.loc 1 594 24 is_stmt 0 view .LVU110
 449 000a FFF7FEFF 		bl	get_label
 450              	.LVL51:
 595:Middlewares/LVGL/GUI/lvgl/src/widgets/lv_roller.c **** 
 451              		.loc 1 595 5 is_stmt 1 view .LVU111
 595:Middlewares/LVGL/GUI/lvgl/src/widgets/lv_roller.c **** 
 452              		.loc 1 595 7 is_stmt 0 view .LVU112
 453 000e 0028     		cmp	r0, #0
 454 0010 42D0     		beq	.L17
 455 0012 0546     		mov	r5, r0
 597:Middlewares/LVGL/GUI/lvgl/src/widgets/lv_roller.c **** 
 456              		.loc 1 597 5 is_stmt 1 view .LVU113
 597:Middlewares/LVGL/GUI/lvgl/src/widgets/lv_roller.c **** 
 457              		.loc 1 597 84 is_stmt 0 view .LVU114
 458 0014 FFF7FEFF 		bl	lv_label_get_text
 459              	.LVL52:
 597:Middlewares/LVGL/GUI/lvgl/src/widgets/lv_roller.c **** 
 460              		.loc 1 597 84 view .LVU115
 461 0018 0246     		mov	r2, r0
 597:Middlewares/LVGL/GUI/lvgl/src/widgets/lv_roller.c **** 
 462              		.loc 1 597 29 view .LVU116
 463 001a 0021     		movs	r1, #0
 464 001c 2846     		mov	r0, r5
 465 001e FFF7FEFF 		bl	lv_obj_calculate_style_text_align
 466              	.LVL53:
 599:Middlewares/LVGL/GUI/lvgl/src/widgets/lv_roller.c ****         case LV_TEXT_ALIGN_CENTER:
 467              		.loc 1 599 5 is_stmt 1 view .LVU117
 468 0022 0228     		cmp	r0, #2
 469 0024 3BD0     		beq	.L19
 470 0026 0328     		cmp	r0, #3
 471 0028 48D0     		beq	.L20
 472 002a 0128     		cmp	r0, #1
 473 002c 52D0     		beq	.L28
 474              	.LVL54:
 475              	.L22:
 611:Middlewares/LVGL/GUI/lvgl/src/widgets/lv_roller.c ****     const lv_font_t * font = lv_obj_get_style_text_font(obj, LV_PART_MAIN);
 476              		.loc 1 611 5 view .LVU118
 612:Middlewares/LVGL/GUI/lvgl/src/widgets/lv_roller.c ****     lv_coord_t line_space = lv_obj_get_style_text_line_space(obj, LV_PART_MAIN);
 477              		.loc 1 612 5 view .LVU119
 478              	.LBB85:
 479              	.LBI85:
 451:Middlewares/LVGL/GUI/lvgl/src/widgets/../core/lv_obj_style_gen.h **** {
 480              		.loc 2 451 33 view .LVU120
 481              	.LBB86:
 453:Middlewares/LVGL/GUI/lvgl/src/widgets/../core/lv_obj_style_gen.h ****     return (const lv_font_t *)v.ptr;
 482              		.loc 2 453 5 view .LVU121
 453:Middlewares/LVGL/GUI/lvgl/src/widgets/../core/lv_obj_style_gen.h ****     return (const lv_font_t *)v.ptr;
ARM GAS  C:\Users\ADMINI~1\AppData\Local\Temp\ccvtjbeI.s 			page 35


 483              		.loc 2 453 26 is_stmt 0 view .LVU122
 484 002e 41F25942 		movw	r2, #5209
 485 0032 0021     		movs	r1, #0
 486 0034 4846     		mov	r0, r9
 487 0036 FFF7FEFF 		bl	lv_obj_get_style_prop
 488              	.LVL55:
 489 003a 0746     		mov	r7, r0
 490              	.LVL56:
 454:Middlewares/LVGL/GUI/lvgl/src/widgets/../core/lv_obj_style_gen.h **** }
 491              		.loc 2 454 5 is_stmt 1 view .LVU123
 454:Middlewares/LVGL/GUI/lvgl/src/widgets/../core/lv_obj_style_gen.h **** }
 492              		.loc 2 454 5 is_stmt 0 view .LVU124
 493              	.LBE86:
 494              	.LBE85:
 613:Middlewares/LVGL/GUI/lvgl/src/widgets/lv_roller.c ****     lv_coord_t font_h              = lv_font_get_line_height(font);
 495              		.loc 1 613 5 is_stmt 1 view .LVU125
 496              	.LBB87:
 497              	.LBI87:
 463:Middlewares/LVGL/GUI/lvgl/src/widgets/../core/lv_obj_style_gen.h **** {
 498              		.loc 2 463 26 view .LVU126
 499              	.LBB88:
 465:Middlewares/LVGL/GUI/lvgl/src/widgets/../core/lv_obj_style_gen.h ****     return (lv_coord_t)v.num;
 500              		.loc 2 465 5 view .LVU127
 465:Middlewares/LVGL/GUI/lvgl/src/widgets/../core/lv_obj_style_gen.h ****     return (lv_coord_t)v.num;
 501              		.loc 2 465 26 is_stmt 0 view .LVU128
 502 003c 41F25B42 		movw	r2, #5211
 503 0040 0021     		movs	r1, #0
 504 0042 4846     		mov	r0, r9
 505              	.LVL57:
 465:Middlewares/LVGL/GUI/lvgl/src/widgets/../core/lv_obj_style_gen.h ****     return (lv_coord_t)v.num;
 506              		.loc 2 465 26 view .LVU129
 507 0044 FFF7FEFF 		bl	lv_obj_get_style_prop
 508              	.LVL58:
 509 0048 8346     		mov	fp, r0
 510              		.loc 2 466 5 is_stmt 1 view .LVU130
 511              	.LVL59:
 512              		.loc 2 466 5 is_stmt 0 view .LVU131
 513              	.LBE88:
 514              	.LBE87:
 614:Middlewares/LVGL/GUI/lvgl/src/widgets/lv_roller.c ****     lv_coord_t h                   = lv_obj_get_content_height(obj);
 515              		.loc 1 614 5 is_stmt 1 view .LVU132
 516              	.LBB89:
 517              	.LBI89:
 121:Middlewares/LVGL/GUI/lvgl/src/widgets/../core/../misc/../font/lv_font.h **** {
 518              		.loc 3 121 26 view .LVU133
 519              	.LBB90:
 520              		.loc 3 123 5 view .LVU134
 521              		.loc 3 123 18 is_stmt 0 view .LVU135
 522 004a BC68     		ldr	r4, [r7, #8]
 523              	.LVL60:
 524              		.loc 3 123 18 view .LVU136
 525              	.LBE90:
 526              	.LBE89:
 615:Middlewares/LVGL/GUI/lvgl/src/widgets/lv_roller.c ****     uint16_t anim_time             = lv_obj_get_style_anim_time(obj, LV_PART_MAIN);
 527              		.loc 1 615 5 is_stmt 1 view .LVU137
 615:Middlewares/LVGL/GUI/lvgl/src/widgets/lv_roller.c ****     uint16_t anim_time             = lv_obj_get_style_anim_time(obj, LV_PART_MAIN);
 528              		.loc 1 615 38 is_stmt 0 view .LVU138
ARM GAS  C:\Users\ADMINI~1\AppData\Local\Temp\ccvtjbeI.s 			page 36


 529 004c 4846     		mov	r0, r9
 530              	.LVL61:
 615:Middlewares/LVGL/GUI/lvgl/src/widgets/lv_roller.c ****     uint16_t anim_time             = lv_obj_get_style_anim_time(obj, LV_PART_MAIN);
 531              		.loc 1 615 38 view .LVU139
 532 004e FFF7FEFF 		bl	lv_obj_get_content_height
 533              	.LVL62:
 534 0052 8246     		mov	r10, r0
 535              	.LVL63:
 616:Middlewares/LVGL/GUI/lvgl/src/widgets/lv_roller.c **** 
 536              		.loc 1 616 5 is_stmt 1 view .LVU140
 537              	.LBB91:
 538              	.LBI91:
 467:Middlewares/LVGL/GUI/lvgl/src/widgets/../core/lv_obj_style_gen.h **** }
 468:Middlewares/LVGL/GUI/lvgl/src/widgets/../core/lv_obj_style_gen.h **** 
 469:Middlewares/LVGL/GUI/lvgl/src/widgets/../core/lv_obj_style_gen.h **** static inline lv_text_decor_t lv_obj_get_style_text_decor(const struct _lv_obj_t * obj, uint32_t pa
 470:Middlewares/LVGL/GUI/lvgl/src/widgets/../core/lv_obj_style_gen.h **** {
 471:Middlewares/LVGL/GUI/lvgl/src/widgets/../core/lv_obj_style_gen.h ****     lv_style_value_t v = lv_obj_get_style_prop(obj, part, LV_STYLE_TEXT_DECOR);
 472:Middlewares/LVGL/GUI/lvgl/src/widgets/../core/lv_obj_style_gen.h ****     return (lv_text_decor_t)v.num;
 473:Middlewares/LVGL/GUI/lvgl/src/widgets/../core/lv_obj_style_gen.h **** }
 474:Middlewares/LVGL/GUI/lvgl/src/widgets/../core/lv_obj_style_gen.h **** 
 475:Middlewares/LVGL/GUI/lvgl/src/widgets/../core/lv_obj_style_gen.h **** static inline lv_text_align_t lv_obj_get_style_text_align(const struct _lv_obj_t * obj, uint32_t pa
 476:Middlewares/LVGL/GUI/lvgl/src/widgets/../core/lv_obj_style_gen.h **** {
 477:Middlewares/LVGL/GUI/lvgl/src/widgets/../core/lv_obj_style_gen.h ****     lv_style_value_t v = lv_obj_get_style_prop(obj, part, LV_STYLE_TEXT_ALIGN);
 478:Middlewares/LVGL/GUI/lvgl/src/widgets/../core/lv_obj_style_gen.h ****     return (lv_text_align_t)v.num;
 479:Middlewares/LVGL/GUI/lvgl/src/widgets/../core/lv_obj_style_gen.h **** }
 480:Middlewares/LVGL/GUI/lvgl/src/widgets/../core/lv_obj_style_gen.h **** 
 481:Middlewares/LVGL/GUI/lvgl/src/widgets/../core/lv_obj_style_gen.h **** static inline lv_coord_t lv_obj_get_style_radius(const struct _lv_obj_t * obj, uint32_t part)
 482:Middlewares/LVGL/GUI/lvgl/src/widgets/../core/lv_obj_style_gen.h **** {
 483:Middlewares/LVGL/GUI/lvgl/src/widgets/../core/lv_obj_style_gen.h ****     lv_style_value_t v = lv_obj_get_style_prop(obj, part, LV_STYLE_RADIUS);
 484:Middlewares/LVGL/GUI/lvgl/src/widgets/../core/lv_obj_style_gen.h ****     return (lv_coord_t)v.num;
 485:Middlewares/LVGL/GUI/lvgl/src/widgets/../core/lv_obj_style_gen.h **** }
 486:Middlewares/LVGL/GUI/lvgl/src/widgets/../core/lv_obj_style_gen.h **** 
 487:Middlewares/LVGL/GUI/lvgl/src/widgets/../core/lv_obj_style_gen.h **** static inline bool lv_obj_get_style_clip_corner(const struct _lv_obj_t * obj, uint32_t part)
 488:Middlewares/LVGL/GUI/lvgl/src/widgets/../core/lv_obj_style_gen.h **** {
 489:Middlewares/LVGL/GUI/lvgl/src/widgets/../core/lv_obj_style_gen.h ****     lv_style_value_t v = lv_obj_get_style_prop(obj, part, LV_STYLE_CLIP_CORNER);
 490:Middlewares/LVGL/GUI/lvgl/src/widgets/../core/lv_obj_style_gen.h ****     return (bool)v.num;
 491:Middlewares/LVGL/GUI/lvgl/src/widgets/../core/lv_obj_style_gen.h **** }
 492:Middlewares/LVGL/GUI/lvgl/src/widgets/../core/lv_obj_style_gen.h **** 
 493:Middlewares/LVGL/GUI/lvgl/src/widgets/../core/lv_obj_style_gen.h **** static inline lv_opa_t lv_obj_get_style_opa(const struct _lv_obj_t * obj, uint32_t part)
 494:Middlewares/LVGL/GUI/lvgl/src/widgets/../core/lv_obj_style_gen.h **** {
 495:Middlewares/LVGL/GUI/lvgl/src/widgets/../core/lv_obj_style_gen.h ****     lv_style_value_t v = lv_obj_get_style_prop(obj, part, LV_STYLE_OPA);
 496:Middlewares/LVGL/GUI/lvgl/src/widgets/../core/lv_obj_style_gen.h ****     return (lv_opa_t)v.num;
 497:Middlewares/LVGL/GUI/lvgl/src/widgets/../core/lv_obj_style_gen.h **** }
 498:Middlewares/LVGL/GUI/lvgl/src/widgets/../core/lv_obj_style_gen.h **** 
 499:Middlewares/LVGL/GUI/lvgl/src/widgets/../core/lv_obj_style_gen.h **** static inline const lv_color_filter_dsc_t * lv_obj_get_style_color_filter_dsc(const struct _lv_obj_
 500:Middlewares/LVGL/GUI/lvgl/src/widgets/../core/lv_obj_style_gen.h ****                                                                               uint32_t part)
 501:Middlewares/LVGL/GUI/lvgl/src/widgets/../core/lv_obj_style_gen.h **** {
 502:Middlewares/LVGL/GUI/lvgl/src/widgets/../core/lv_obj_style_gen.h ****     lv_style_value_t v = lv_obj_get_style_prop(obj, part, LV_STYLE_COLOR_FILTER_DSC);
 503:Middlewares/LVGL/GUI/lvgl/src/widgets/../core/lv_obj_style_gen.h ****     return (const lv_color_filter_dsc_t *)v.ptr;
 504:Middlewares/LVGL/GUI/lvgl/src/widgets/../core/lv_obj_style_gen.h **** }
 505:Middlewares/LVGL/GUI/lvgl/src/widgets/../core/lv_obj_style_gen.h **** 
 506:Middlewares/LVGL/GUI/lvgl/src/widgets/../core/lv_obj_style_gen.h **** static inline lv_opa_t lv_obj_get_style_color_filter_opa(const struct _lv_obj_t * obj, uint32_t par
 507:Middlewares/LVGL/GUI/lvgl/src/widgets/../core/lv_obj_style_gen.h **** {
 508:Middlewares/LVGL/GUI/lvgl/src/widgets/../core/lv_obj_style_gen.h ****     lv_style_value_t v = lv_obj_get_style_prop(obj, part, LV_STYLE_COLOR_FILTER_OPA);
 509:Middlewares/LVGL/GUI/lvgl/src/widgets/../core/lv_obj_style_gen.h ****     return (lv_opa_t)v.num;
 510:Middlewares/LVGL/GUI/lvgl/src/widgets/../core/lv_obj_style_gen.h **** }
 511:Middlewares/LVGL/GUI/lvgl/src/widgets/../core/lv_obj_style_gen.h **** 
ARM GAS  C:\Users\ADMINI~1\AppData\Local\Temp\ccvtjbeI.s 			page 37


 512:Middlewares/LVGL/GUI/lvgl/src/widgets/../core/lv_obj_style_gen.h **** static inline uint32_t lv_obj_get_style_anim_time(const struct _lv_obj_t * obj, uint32_t part)
 539              		.loc 2 512 24 view .LVU141
 540              	.LBB92:
 513:Middlewares/LVGL/GUI/lvgl/src/widgets/../core/lv_obj_style_gen.h **** {
 514:Middlewares/LVGL/GUI/lvgl/src/widgets/../core/lv_obj_style_gen.h ****     lv_style_value_t v = lv_obj_get_style_prop(obj, part, LV_STYLE_ANIM_TIME);
 541              		.loc 2 514 5 view .LVU142
 542              		.loc 2 514 26 is_stmt 0 view .LVU143
 543 0054 6522     		movs	r2, #101
 544 0056 0021     		movs	r1, #0
 545 0058 4846     		mov	r0, r9
 546              	.LVL64:
 547              		.loc 2 514 26 view .LVU144
 548 005a FFF7FEFF 		bl	lv_obj_get_style_prop
 549              	.LVL65:
 550 005e 8046     		mov	r8, r0
 515:Middlewares/LVGL/GUI/lvgl/src/widgets/../core/lv_obj_style_gen.h ****     return (uint32_t)v.num;
 551              		.loc 2 515 5 is_stmt 1 view .LVU145
 552              	.LVL66:
 553              		.loc 2 515 5 is_stmt 0 view .LVU146
 554              	.LBE92:
 555              	.LBE91:
 616:Middlewares/LVGL/GUI/lvgl/src/widgets/lv_roller.c **** 
 556              		.loc 1 616 14 view .LVU147
 557 0060 87B2     		uxth	r7, r0
 558              	.LVL67:
 620:Middlewares/LVGL/GUI/lvgl/src/widgets/lv_roller.c ****         inf_normalize(obj);
 559              		.loc 1 620 5 is_stmt 1 view .LVU148
 620:Middlewares/LVGL/GUI/lvgl/src/widgets/lv_roller.c ****         inf_normalize(obj);
 560              		.loc 1 620 7 is_stmt 0 view .LVU149
 561 0062 06B1     		cbz	r6, .L23
 620:Middlewares/LVGL/GUI/lvgl/src/widgets/lv_roller.c ****         inf_normalize(obj);
 562              		.loc 1 620 31 discriminator 1 view .LVU150
 563 0064 17B9     		cbnz	r7, .L24
 564              	.L23:
 621:Middlewares/LVGL/GUI/lvgl/src/widgets/lv_roller.c ****     }
 565              		.loc 1 621 9 is_stmt 1 view .LVU151
 566 0066 4846     		mov	r0, r9
 567 0068 FFF7FEFF 		bl	inf_normalize
 568              	.LVL68:
 569              	.L24:
 624:Middlewares/LVGL/GUI/lvgl/src/widgets/lv_roller.c ****     lv_coord_t sel_y1 = id * (font_h + line_space);
 570              		.loc 1 624 5 view .LVU152
 624:Middlewares/LVGL/GUI/lvgl/src/widgets/lv_roller.c ****     lv_coord_t sel_y1 = id * (font_h + line_space);
 571              		.loc 1 624 24 is_stmt 0 view .LVU153
 572 006c B9F82E00 		ldrh	r0, [r9, #46]
 573              	.LVL69:
 625:Middlewares/LVGL/GUI/lvgl/src/widgets/lv_roller.c ****     lv_coord_t mid_y1 = h / 2 - font_h / 2;
 574              		.loc 1 625 5 is_stmt 1 view .LVU154
 625:Middlewares/LVGL/GUI/lvgl/src/widgets/lv_roller.c ****     lv_coord_t mid_y1 = h / 2 - font_h / 2;
 575              		.loc 1 625 38 is_stmt 0 view .LVU155
 576 0070 A344     		add	fp, fp, r4
 577              	.LVL70:
 626:Middlewares/LVGL/GUI/lvgl/src/widgets/lv_roller.c **** 
 578              		.loc 1 626 5 is_stmt 1 view .LVU156
 626:Middlewares/LVGL/GUI/lvgl/src/widgets/lv_roller.c **** 
 579              		.loc 1 626 27 is_stmt 0 view .LVU157
 580 0072 0AEBDA7A 		add	r10, r10, r10, lsr #31
ARM GAS  C:\Users\ADMINI~1\AppData\Local\Temp\ccvtjbeI.s 			page 38


 581              	.LVL71:
 626:Middlewares/LVGL/GUI/lvgl/src/widgets/lv_roller.c **** 
 582              		.loc 1 626 40 view .LVU158
 583 0076 04EBD474 		add	r4, r4, r4, lsr #31
 584              	.LVL72:
 626:Middlewares/LVGL/GUI/lvgl/src/widgets/lv_roller.c **** 
 585              		.loc 1 626 40 view .LVU159
 586 007a 6410     		asrs	r4, r4, #1
 626:Middlewares/LVGL/GUI/lvgl/src/widgets/lv_roller.c **** 
 587              		.loc 1 626 16 view .LVU160
 588 007c C4EB6A04 		rsb	r4, r4, r10, asr #1
 589              	.LVL73:
 628:Middlewares/LVGL/GUI/lvgl/src/widgets/lv_roller.c **** 
 590              		.loc 1 628 5 is_stmt 1 view .LVU161
 628:Middlewares/LVGL/GUI/lvgl/src/widgets/lv_roller.c **** 
 591              		.loc 1 628 16 is_stmt 0 view .LVU162
 592 0080 00FB1B44 		mls	r4, r0, fp, r4
 593              	.LVL74:
 630:Middlewares/LVGL/GUI/lvgl/src/widgets/lv_roller.c ****         lv_anim_del(label, set_y_anim);
 594              		.loc 1 630 5 is_stmt 1 view .LVU163
 630:Middlewares/LVGL/GUI/lvgl/src/widgets/lv_roller.c ****         lv_anim_del(label, set_y_anim);
 595              		.loc 1 630 7 is_stmt 0 view .LVU164
 596 0084 06B1     		cbz	r6, .L25
 630:Middlewares/LVGL/GUI/lvgl/src/widgets/lv_roller.c ****         lv_anim_del(label, set_y_anim);
 597              		.loc 1 630 31 discriminator 1 view .LVU165
 598 0086 57BB     		cbnz	r7, .L26
 599              	.L25:
 631:Middlewares/LVGL/GUI/lvgl/src/widgets/lv_roller.c ****         lv_obj_set_y(label, new_y);
 600              		.loc 1 631 9 is_stmt 1 view .LVU166
 601 0088 2049     		ldr	r1, .L29
 602 008a 2846     		mov	r0, r5
 603              	.LVL75:
 631:Middlewares/LVGL/GUI/lvgl/src/widgets/lv_roller.c ****         lv_obj_set_y(label, new_y);
 604              		.loc 1 631 9 is_stmt 0 view .LVU167
 605 008c FFF7FEFF 		bl	lv_anim_del
 606              	.LVL76:
 632:Middlewares/LVGL/GUI/lvgl/src/widgets/lv_roller.c ****     }
 607              		.loc 1 632 9 is_stmt 1 view .LVU168
 608 0090 2146     		mov	r1, r4
 609 0092 2846     		mov	r0, r5
 610 0094 FFF7FEFF 		bl	lv_obj_set_y
 611              	.LVL77:
 612              	.L17:
 645:Middlewares/LVGL/GUI/lvgl/src/widgets/lv_roller.c **** 
 613              		.loc 1 645 1 is_stmt 0 view .LVU169
 614 0098 11B0     		add	sp, sp, #68
 615              	.LCFI10:
 616              		.cfi_remember_state
 617              		.cfi_def_cfa_offset 36
 618              		@ sp needed
 619 009a BDE8F08F 		pop	{r4, r5, r6, r7, r8, r9, r10, fp, pc}
 620              	.LVL78:
 621              	.L19:
 622              	.LCFI11:
 623              		.cfi_restore_state
 601:Middlewares/LVGL/GUI/lvgl/src/widgets/lv_roller.c ****             break;
 624              		.loc 1 601 13 is_stmt 1 view .LVU170
ARM GAS  C:\Users\ADMINI~1\AppData\Local\Temp\ccvtjbeI.s 			page 39


 601:Middlewares/LVGL/GUI/lvgl/src/widgets/lv_roller.c ****             break;
 625              		.loc 1 601 34 is_stmt 0 view .LVU171
 626 009e 4846     		mov	r0, r9
 627              	.LVL79:
 601:Middlewares/LVGL/GUI/lvgl/src/widgets/lv_roller.c ****             break;
 628              		.loc 1 601 34 view .LVU172
 629 00a0 FFF7FEFF 		bl	lv_obj_get_content_width
 630              	.LVL80:
 631 00a4 0446     		mov	r4, r0
 601:Middlewares/LVGL/GUI/lvgl/src/widgets/lv_roller.c ****             break;
 632              		.loc 1 601 66 view .LVU173
 633 00a6 2846     		mov	r0, r5
 634 00a8 FFF7FEFF 		bl	lv_obj_get_width
 635              	.LVL81:
 601:Middlewares/LVGL/GUI/lvgl/src/widgets/lv_roller.c ****             break;
 636              		.loc 1 601 64 view .LVU174
 637 00ac 211A     		subs	r1, r4, r0
 601:Middlewares/LVGL/GUI/lvgl/src/widgets/lv_roller.c ****             break;
 638              		.loc 1 601 13 view .LVU175
 639 00ae 01EBD171 		add	r1, r1, r1, lsr #31
 640 00b2 4910     		asrs	r1, r1, #1
 641 00b4 2846     		mov	r0, r5
 642 00b6 FFF7FEFF 		bl	lv_obj_set_x
 643              	.LVL82:
 602:Middlewares/LVGL/GUI/lvgl/src/widgets/lv_roller.c ****         case LV_TEXT_ALIGN_RIGHT:
 644              		.loc 1 602 13 is_stmt 1 view .LVU176
 645 00ba B8E7     		b	.L22
 646              	.LVL83:
 647              	.L20:
 604:Middlewares/LVGL/GUI/lvgl/src/widgets/lv_roller.c ****             break;
 648              		.loc 1 604 13 view .LVU177
 604:Middlewares/LVGL/GUI/lvgl/src/widgets/lv_roller.c ****             break;
 649              		.loc 1 604 33 is_stmt 0 view .LVU178
 650 00bc 4846     		mov	r0, r9
 651              	.LVL84:
 604:Middlewares/LVGL/GUI/lvgl/src/widgets/lv_roller.c ****             break;
 652              		.loc 1 604 33 view .LVU179
 653 00be FFF7FEFF 		bl	lv_obj_get_content_width
 654              	.LVL85:
 655 00c2 0446     		mov	r4, r0
 604:Middlewares/LVGL/GUI/lvgl/src/widgets/lv_roller.c ****             break;
 656              		.loc 1 604 65 view .LVU180
 657 00c4 2846     		mov	r0, r5
 658 00c6 FFF7FEFF 		bl	lv_obj_get_width
 659              	.LVL86:
 604:Middlewares/LVGL/GUI/lvgl/src/widgets/lv_roller.c ****             break;
 660              		.loc 1 604 13 view .LVU181
 661 00ca 211A     		subs	r1, r4, r0
 662 00cc 2846     		mov	r0, r5
 663 00ce FFF7FEFF 		bl	lv_obj_set_x
 664              	.LVL87:
 605:Middlewares/LVGL/GUI/lvgl/src/widgets/lv_roller.c ****         case LV_TEXT_ALIGN_LEFT:
 665              		.loc 1 605 13 is_stmt 1 view .LVU182
 666 00d2 ACE7     		b	.L22
 667              	.LVL88:
 668              	.L28:
 607:Middlewares/LVGL/GUI/lvgl/src/widgets/lv_roller.c ****             break;
ARM GAS  C:\Users\ADMINI~1\AppData\Local\Temp\ccvtjbeI.s 			page 40


 669              		.loc 1 607 13 view .LVU183
 670 00d4 0021     		movs	r1, #0
 671 00d6 2846     		mov	r0, r5
 672              	.LVL89:
 607:Middlewares/LVGL/GUI/lvgl/src/widgets/lv_roller.c ****             break;
 673              		.loc 1 607 13 is_stmt 0 view .LVU184
 674 00d8 FFF7FEFF 		bl	lv_obj_set_x
 675              	.LVL90:
 608:Middlewares/LVGL/GUI/lvgl/src/widgets/lv_roller.c ****     }
 676              		.loc 1 608 13 is_stmt 1 view .LVU185
 677 00dc A7E7     		b	.L22
 678              	.LVL91:
 679              	.L26:
 680              	.LBB93:
 635:Middlewares/LVGL/GUI/lvgl/src/widgets/lv_roller.c ****         lv_anim_init(&a);
 681              		.loc 1 635 9 view .LVU186
 636:Middlewares/LVGL/GUI/lvgl/src/widgets/lv_roller.c ****         lv_anim_set_var(&a, label);
 682              		.loc 1 636 9 view .LVU187
 683 00de 6846     		mov	r0, sp
 684              	.LVL92:
 636:Middlewares/LVGL/GUI/lvgl/src/widgets/lv_roller.c ****         lv_anim_set_var(&a, label);
 685              		.loc 1 636 9 is_stmt 0 view .LVU188
 686 00e0 FFF7FEFF 		bl	lv_anim_init
 687              	.LVL93:
 637:Middlewares/LVGL/GUI/lvgl/src/widgets/lv_roller.c ****         lv_anim_set_exec_cb(&a, set_y_anim);
 688              		.loc 1 637 9 is_stmt 1 view .LVU189
 689              	.LBB94:
 690              	.LBI94:
 691              		.file 4 "Middlewares/LVGL/GUI/lvgl/src/widgets/../core/../misc/lv_anim.h"
   1:Middlewares/LVGL/GUI/lvgl/src/widgets/../core/../misc/lv_anim.h **** /**
   2:Middlewares/LVGL/GUI/lvgl/src/widgets/../core/../misc/lv_anim.h ****  * @file lv_anim.h
   3:Middlewares/LVGL/GUI/lvgl/src/widgets/../core/../misc/lv_anim.h ****  *
   4:Middlewares/LVGL/GUI/lvgl/src/widgets/../core/../misc/lv_anim.h ****  */
   5:Middlewares/LVGL/GUI/lvgl/src/widgets/../core/../misc/lv_anim.h **** 
   6:Middlewares/LVGL/GUI/lvgl/src/widgets/../core/../misc/lv_anim.h **** #ifndef LV_ANIM_H
   7:Middlewares/LVGL/GUI/lvgl/src/widgets/../core/../misc/lv_anim.h **** #define LV_ANIM_H
   8:Middlewares/LVGL/GUI/lvgl/src/widgets/../core/../misc/lv_anim.h **** 
   9:Middlewares/LVGL/GUI/lvgl/src/widgets/../core/../misc/lv_anim.h **** #ifdef __cplusplus
  10:Middlewares/LVGL/GUI/lvgl/src/widgets/../core/../misc/lv_anim.h **** extern "C" {
  11:Middlewares/LVGL/GUI/lvgl/src/widgets/../core/../misc/lv_anim.h **** #endif
  12:Middlewares/LVGL/GUI/lvgl/src/widgets/../core/../misc/lv_anim.h **** 
  13:Middlewares/LVGL/GUI/lvgl/src/widgets/../core/../misc/lv_anim.h **** /*********************
  14:Middlewares/LVGL/GUI/lvgl/src/widgets/../core/../misc/lv_anim.h ****  *      INCLUDES
  15:Middlewares/LVGL/GUI/lvgl/src/widgets/../core/../misc/lv_anim.h ****  *********************/
  16:Middlewares/LVGL/GUI/lvgl/src/widgets/../core/../misc/lv_anim.h **** #include "../lv_conf_internal.h"
  17:Middlewares/LVGL/GUI/lvgl/src/widgets/../core/../misc/lv_anim.h **** 
  18:Middlewares/LVGL/GUI/lvgl/src/widgets/../core/../misc/lv_anim.h **** #include <stdint.h>
  19:Middlewares/LVGL/GUI/lvgl/src/widgets/../core/../misc/lv_anim.h **** #include <stdbool.h>
  20:Middlewares/LVGL/GUI/lvgl/src/widgets/../core/../misc/lv_anim.h **** #include <stddef.h>
  21:Middlewares/LVGL/GUI/lvgl/src/widgets/../core/../misc/lv_anim.h **** 
  22:Middlewares/LVGL/GUI/lvgl/src/widgets/../core/../misc/lv_anim.h **** /*********************
  23:Middlewares/LVGL/GUI/lvgl/src/widgets/../core/../misc/lv_anim.h ****  *      DEFINES
  24:Middlewares/LVGL/GUI/lvgl/src/widgets/../core/../misc/lv_anim.h ****  *********************/
  25:Middlewares/LVGL/GUI/lvgl/src/widgets/../core/../misc/lv_anim.h **** 
  26:Middlewares/LVGL/GUI/lvgl/src/widgets/../core/../misc/lv_anim.h **** #define LV_ANIM_REPEAT_INFINITE      0xFFFF
  27:Middlewares/LVGL/GUI/lvgl/src/widgets/../core/../misc/lv_anim.h **** #define LV_ANIM_PLAYTIME_INFINITE    0xFFFFFFFF
  28:Middlewares/LVGL/GUI/lvgl/src/widgets/../core/../misc/lv_anim.h **** 
ARM GAS  C:\Users\ADMINI~1\AppData\Local\Temp\ccvtjbeI.s 			page 41


  29:Middlewares/LVGL/GUI/lvgl/src/widgets/../core/../misc/lv_anim.h **** LV_EXPORT_CONST_INT(LV_ANIM_REPEAT_INFINITE);
  30:Middlewares/LVGL/GUI/lvgl/src/widgets/../core/../misc/lv_anim.h **** LV_EXPORT_CONST_INT(LV_ANIM_PLAYTIME_INFINITE);
  31:Middlewares/LVGL/GUI/lvgl/src/widgets/../core/../misc/lv_anim.h **** 
  32:Middlewares/LVGL/GUI/lvgl/src/widgets/../core/../misc/lv_anim.h **** /**********************
  33:Middlewares/LVGL/GUI/lvgl/src/widgets/../core/../misc/lv_anim.h ****  *      TYPEDEFS
  34:Middlewares/LVGL/GUI/lvgl/src/widgets/../core/../misc/lv_anim.h ****  **********************/
  35:Middlewares/LVGL/GUI/lvgl/src/widgets/../core/../misc/lv_anim.h **** 
  36:Middlewares/LVGL/GUI/lvgl/src/widgets/../core/../misc/lv_anim.h **** /** Can be used to indicate if animations are enabled or disabled in a case*/
  37:Middlewares/LVGL/GUI/lvgl/src/widgets/../core/../misc/lv_anim.h **** typedef enum {
  38:Middlewares/LVGL/GUI/lvgl/src/widgets/../core/../misc/lv_anim.h ****     LV_ANIM_OFF,
  39:Middlewares/LVGL/GUI/lvgl/src/widgets/../core/../misc/lv_anim.h ****     LV_ANIM_ON,
  40:Middlewares/LVGL/GUI/lvgl/src/widgets/../core/../misc/lv_anim.h **** } lv_anim_enable_t;
  41:Middlewares/LVGL/GUI/lvgl/src/widgets/../core/../misc/lv_anim.h **** 
  42:Middlewares/LVGL/GUI/lvgl/src/widgets/../core/../misc/lv_anim.h **** struct _lv_anim_t;
  43:Middlewares/LVGL/GUI/lvgl/src/widgets/../core/../misc/lv_anim.h **** 
  44:Middlewares/LVGL/GUI/lvgl/src/widgets/../core/../misc/lv_anim.h **** /** Get the current value during an animation*/
  45:Middlewares/LVGL/GUI/lvgl/src/widgets/../core/../misc/lv_anim.h **** typedef int32_t (*lv_anim_path_cb_t)(const struct _lv_anim_t *);
  46:Middlewares/LVGL/GUI/lvgl/src/widgets/../core/../misc/lv_anim.h **** 
  47:Middlewares/LVGL/GUI/lvgl/src/widgets/../core/../misc/lv_anim.h **** /** Generic prototype of "animator" functions.
  48:Middlewares/LVGL/GUI/lvgl/src/widgets/../core/../misc/lv_anim.h ****  * First parameter is the variable to animate.
  49:Middlewares/LVGL/GUI/lvgl/src/widgets/../core/../misc/lv_anim.h ****  * Second parameter is the value to set.
  50:Middlewares/LVGL/GUI/lvgl/src/widgets/../core/../misc/lv_anim.h ****  * Compatible with `lv_xxx_set_yyy(obj, value)` functions
  51:Middlewares/LVGL/GUI/lvgl/src/widgets/../core/../misc/lv_anim.h ****  * The `x` in `_xcb_t` means it's not a fully generic prototype because
  52:Middlewares/LVGL/GUI/lvgl/src/widgets/../core/../misc/lv_anim.h ****  * it doesn't receive `lv_anim_t *` as its first argument*/
  53:Middlewares/LVGL/GUI/lvgl/src/widgets/../core/../misc/lv_anim.h **** typedef void (*lv_anim_exec_xcb_t)(void *, int32_t);
  54:Middlewares/LVGL/GUI/lvgl/src/widgets/../core/../misc/lv_anim.h **** 
  55:Middlewares/LVGL/GUI/lvgl/src/widgets/../core/../misc/lv_anim.h **** /** Same as `lv_anim_exec_xcb_t` but receives `lv_anim_t *` as the first parameter.
  56:Middlewares/LVGL/GUI/lvgl/src/widgets/../core/../misc/lv_anim.h ****  * It's more consistent but less convenient. Might be used by binding generator functions.*/
  57:Middlewares/LVGL/GUI/lvgl/src/widgets/../core/../misc/lv_anim.h **** typedef void (*lv_anim_custom_exec_cb_t)(struct _lv_anim_t *, int32_t);
  58:Middlewares/LVGL/GUI/lvgl/src/widgets/../core/../misc/lv_anim.h **** 
  59:Middlewares/LVGL/GUI/lvgl/src/widgets/../core/../misc/lv_anim.h **** /** Callback to call when the animation is ready*/
  60:Middlewares/LVGL/GUI/lvgl/src/widgets/../core/../misc/lv_anim.h **** typedef void (*lv_anim_ready_cb_t)(struct _lv_anim_t *);
  61:Middlewares/LVGL/GUI/lvgl/src/widgets/../core/../misc/lv_anim.h **** 
  62:Middlewares/LVGL/GUI/lvgl/src/widgets/../core/../misc/lv_anim.h **** /** Callback to call when the animation really stars (considering `delay`)*/
  63:Middlewares/LVGL/GUI/lvgl/src/widgets/../core/../misc/lv_anim.h **** typedef void (*lv_anim_start_cb_t)(struct _lv_anim_t *);
  64:Middlewares/LVGL/GUI/lvgl/src/widgets/../core/../misc/lv_anim.h **** 
  65:Middlewares/LVGL/GUI/lvgl/src/widgets/../core/../misc/lv_anim.h **** /** Callback used when the animation values are relative to get the current value*/
  66:Middlewares/LVGL/GUI/lvgl/src/widgets/../core/../misc/lv_anim.h **** typedef int32_t (*lv_anim_get_value_cb_t)(struct _lv_anim_t *);
  67:Middlewares/LVGL/GUI/lvgl/src/widgets/../core/../misc/lv_anim.h **** 
  68:Middlewares/LVGL/GUI/lvgl/src/widgets/../core/../misc/lv_anim.h **** /** Describes an animation*/
  69:Middlewares/LVGL/GUI/lvgl/src/widgets/../core/../misc/lv_anim.h **** typedef struct _lv_anim_t {
  70:Middlewares/LVGL/GUI/lvgl/src/widgets/../core/../misc/lv_anim.h ****     void * var;                          /**<Variable to animate*/
  71:Middlewares/LVGL/GUI/lvgl/src/widgets/../core/../misc/lv_anim.h ****     lv_anim_exec_xcb_t exec_cb;          /**< Function to execute to animate*/
  72:Middlewares/LVGL/GUI/lvgl/src/widgets/../core/../misc/lv_anim.h ****     lv_anim_start_cb_t start_cb;         /**< Call it when the animation is starts (considering `de
  73:Middlewares/LVGL/GUI/lvgl/src/widgets/../core/../misc/lv_anim.h ****     lv_anim_ready_cb_t ready_cb;         /**< Call it when the animation is ready*/
  74:Middlewares/LVGL/GUI/lvgl/src/widgets/../core/../misc/lv_anim.h ****     lv_anim_get_value_cb_t get_value_cb; /**< Get the current value in relative mode*/
  75:Middlewares/LVGL/GUI/lvgl/src/widgets/../core/../misc/lv_anim.h **** #if LV_USE_USER_DATA
  76:Middlewares/LVGL/GUI/lvgl/src/widgets/../core/../misc/lv_anim.h ****     void * user_data; /**< Custom user data*/
  77:Middlewares/LVGL/GUI/lvgl/src/widgets/../core/../misc/lv_anim.h **** #endif
  78:Middlewares/LVGL/GUI/lvgl/src/widgets/../core/../misc/lv_anim.h ****     lv_anim_path_cb_t path_cb;         /**< Describe the path (curve) of animations*/
  79:Middlewares/LVGL/GUI/lvgl/src/widgets/../core/../misc/lv_anim.h ****     int32_t start_value;               /**< Start value*/
  80:Middlewares/LVGL/GUI/lvgl/src/widgets/../core/../misc/lv_anim.h ****     int32_t current_value;             /**< Current value*/
  81:Middlewares/LVGL/GUI/lvgl/src/widgets/../core/../misc/lv_anim.h ****     int32_t end_value;                 /**< End value*/
  82:Middlewares/LVGL/GUI/lvgl/src/widgets/../core/../misc/lv_anim.h ****     int32_t time;                /**< Animation time in ms*/
  83:Middlewares/LVGL/GUI/lvgl/src/widgets/../core/../misc/lv_anim.h ****     int32_t act_time;            /**< Current time in animation. Set to negative to make delay.*/
  84:Middlewares/LVGL/GUI/lvgl/src/widgets/../core/../misc/lv_anim.h ****     uint32_t playback_delay;     /**< Wait before play back*/
  85:Middlewares/LVGL/GUI/lvgl/src/widgets/../core/../misc/lv_anim.h ****     uint32_t playback_time;      /**< Duration of playback animation*/
ARM GAS  C:\Users\ADMINI~1\AppData\Local\Temp\ccvtjbeI.s 			page 42


  86:Middlewares/LVGL/GUI/lvgl/src/widgets/../core/../misc/lv_anim.h ****     uint32_t repeat_delay;       /**< Wait before repeat*/
  87:Middlewares/LVGL/GUI/lvgl/src/widgets/../core/../misc/lv_anim.h ****     uint16_t repeat_cnt;         /**< Repeat count for the animation*/
  88:Middlewares/LVGL/GUI/lvgl/src/widgets/../core/../misc/lv_anim.h ****     uint8_t early_apply  : 1;    /**< 1: Apply start value immediately even is there is `delay`*/
  89:Middlewares/LVGL/GUI/lvgl/src/widgets/../core/../misc/lv_anim.h **** 
  90:Middlewares/LVGL/GUI/lvgl/src/widgets/../core/../misc/lv_anim.h ****     /*Animation system use these - user shouldn't set*/
  91:Middlewares/LVGL/GUI/lvgl/src/widgets/../core/../misc/lv_anim.h ****     uint8_t playback_now : 1; /**< Play back is in progress*/
  92:Middlewares/LVGL/GUI/lvgl/src/widgets/../core/../misc/lv_anim.h ****     uint8_t run_round : 1;    /**< Indicates the animation has run in this round*/
  93:Middlewares/LVGL/GUI/lvgl/src/widgets/../core/../misc/lv_anim.h ****     uint8_t start_cb_called : 1;    /**< Indicates that the `start_cb` was already called*/
  94:Middlewares/LVGL/GUI/lvgl/src/widgets/../core/../misc/lv_anim.h **** } lv_anim_t;
  95:Middlewares/LVGL/GUI/lvgl/src/widgets/../core/../misc/lv_anim.h **** 
  96:Middlewares/LVGL/GUI/lvgl/src/widgets/../core/../misc/lv_anim.h **** /**********************
  97:Middlewares/LVGL/GUI/lvgl/src/widgets/../core/../misc/lv_anim.h ****  * GLOBAL PROTOTYPES
  98:Middlewares/LVGL/GUI/lvgl/src/widgets/../core/../misc/lv_anim.h ****  **********************/
  99:Middlewares/LVGL/GUI/lvgl/src/widgets/../core/../misc/lv_anim.h **** 
 100:Middlewares/LVGL/GUI/lvgl/src/widgets/../core/../misc/lv_anim.h **** /**
 101:Middlewares/LVGL/GUI/lvgl/src/widgets/../core/../misc/lv_anim.h ****  * Init. the animation module
 102:Middlewares/LVGL/GUI/lvgl/src/widgets/../core/../misc/lv_anim.h ****  */
 103:Middlewares/LVGL/GUI/lvgl/src/widgets/../core/../misc/lv_anim.h **** void _lv_anim_core_init(void);
 104:Middlewares/LVGL/GUI/lvgl/src/widgets/../core/../misc/lv_anim.h **** 
 105:Middlewares/LVGL/GUI/lvgl/src/widgets/../core/../misc/lv_anim.h **** /**
 106:Middlewares/LVGL/GUI/lvgl/src/widgets/../core/../misc/lv_anim.h ****  * Initialize an animation variable.
 107:Middlewares/LVGL/GUI/lvgl/src/widgets/../core/../misc/lv_anim.h ****  * E.g.:
 108:Middlewares/LVGL/GUI/lvgl/src/widgets/../core/../misc/lv_anim.h ****  * lv_anim_t a;
 109:Middlewares/LVGL/GUI/lvgl/src/widgets/../core/../misc/lv_anim.h ****  * lv_anim_init(&a);
 110:Middlewares/LVGL/GUI/lvgl/src/widgets/../core/../misc/lv_anim.h ****  * lv_anim_set_...(&a);
 111:Middlewares/LVGL/GUI/lvgl/src/widgets/../core/../misc/lv_anim.h ****  * lv_anim_start(&a);
 112:Middlewares/LVGL/GUI/lvgl/src/widgets/../core/../misc/lv_anim.h ****  * @param a     pointer to an `lv_anim_t` variable to initialize
 113:Middlewares/LVGL/GUI/lvgl/src/widgets/../core/../misc/lv_anim.h ****  */
 114:Middlewares/LVGL/GUI/lvgl/src/widgets/../core/../misc/lv_anim.h **** void lv_anim_init(lv_anim_t * a);
 115:Middlewares/LVGL/GUI/lvgl/src/widgets/../core/../misc/lv_anim.h **** 
 116:Middlewares/LVGL/GUI/lvgl/src/widgets/../core/../misc/lv_anim.h **** /**
 117:Middlewares/LVGL/GUI/lvgl/src/widgets/../core/../misc/lv_anim.h ****  * Set a variable to animate
 118:Middlewares/LVGL/GUI/lvgl/src/widgets/../core/../misc/lv_anim.h ****  * @param a     pointer to an initialized `lv_anim_t` variable
 119:Middlewares/LVGL/GUI/lvgl/src/widgets/../core/../misc/lv_anim.h ****  * @param var   pointer to a variable to animate
 120:Middlewares/LVGL/GUI/lvgl/src/widgets/../core/../misc/lv_anim.h ****  */
 121:Middlewares/LVGL/GUI/lvgl/src/widgets/../core/../misc/lv_anim.h **** static inline void lv_anim_set_var(lv_anim_t * a, void * var)
 692              		.loc 4 121 20 view .LVU190
 693              	.LBB95:
 122:Middlewares/LVGL/GUI/lvgl/src/widgets/../core/../misc/lv_anim.h **** {
 123:Middlewares/LVGL/GUI/lvgl/src/widgets/../core/../misc/lv_anim.h ****     a->var = var;
 694              		.loc 4 123 5 view .LVU191
 695              		.loc 4 123 12 is_stmt 0 view .LVU192
 696 00e4 0095     		str	r5, [sp]
 697              	.LVL94:
 698              		.loc 4 123 12 view .LVU193
 699              	.LBE95:
 700              	.LBE94:
 638:Middlewares/LVGL/GUI/lvgl/src/widgets/lv_roller.c ****         lv_anim_set_values(&a, lv_obj_get_y(label), new_y);
 701              		.loc 1 638 9 is_stmt 1 view .LVU194
 702              	.LBB96:
 703              	.LBI96:
 124:Middlewares/LVGL/GUI/lvgl/src/widgets/../core/../misc/lv_anim.h **** }
 125:Middlewares/LVGL/GUI/lvgl/src/widgets/../core/../misc/lv_anim.h **** 
 126:Middlewares/LVGL/GUI/lvgl/src/widgets/../core/../misc/lv_anim.h **** /**
 127:Middlewares/LVGL/GUI/lvgl/src/widgets/../core/../misc/lv_anim.h ****  * Set a function to animate `var`
 128:Middlewares/LVGL/GUI/lvgl/src/widgets/../core/../misc/lv_anim.h ****  * @param a         pointer to an initialized `lv_anim_t` variable
 129:Middlewares/LVGL/GUI/lvgl/src/widgets/../core/../misc/lv_anim.h ****  * @param exec_cb   a function to execute during animation
ARM GAS  C:\Users\ADMINI~1\AppData\Local\Temp\ccvtjbeI.s 			page 43


 130:Middlewares/LVGL/GUI/lvgl/src/widgets/../core/../misc/lv_anim.h ****  *                  LVGL's built-in functions can be used.
 131:Middlewares/LVGL/GUI/lvgl/src/widgets/../core/../misc/lv_anim.h ****  *                  E.g. lv_obj_set_x
 132:Middlewares/LVGL/GUI/lvgl/src/widgets/../core/../misc/lv_anim.h ****  */
 133:Middlewares/LVGL/GUI/lvgl/src/widgets/../core/../misc/lv_anim.h **** static inline void lv_anim_set_exec_cb(lv_anim_t * a, lv_anim_exec_xcb_t exec_cb)
 704              		.loc 4 133 20 view .LVU195
 705              	.LBB97:
 134:Middlewares/LVGL/GUI/lvgl/src/widgets/../core/../misc/lv_anim.h **** {
 135:Middlewares/LVGL/GUI/lvgl/src/widgets/../core/../misc/lv_anim.h ****     a->exec_cb = exec_cb;
 706              		.loc 4 135 5 view .LVU196
 707              		.loc 4 135 16 is_stmt 0 view .LVU197
 708 00e6 094B     		ldr	r3, .L29
 709 00e8 0193     		str	r3, [sp, #4]
 710              	.LVL95:
 711              		.loc 4 135 16 view .LVU198
 712              	.LBE97:
 713              	.LBE96:
 639:Middlewares/LVGL/GUI/lvgl/src/widgets/lv_roller.c ****         lv_anim_set_time(&a, anim_time);
 714              		.loc 1 639 9 is_stmt 1 view .LVU199
 715 00ea 2846     		mov	r0, r5
 716 00ec FFF7FEFF 		bl	lv_obj_get_y
 717              	.LVL96:
 718              	.LBB98:
 719              	.LBI98:
 136:Middlewares/LVGL/GUI/lvgl/src/widgets/../core/../misc/lv_anim.h **** }
 137:Middlewares/LVGL/GUI/lvgl/src/widgets/../core/../misc/lv_anim.h **** 
 138:Middlewares/LVGL/GUI/lvgl/src/widgets/../core/../misc/lv_anim.h **** /**
 139:Middlewares/LVGL/GUI/lvgl/src/widgets/../core/../misc/lv_anim.h ****  * Set the duration of an animation
 140:Middlewares/LVGL/GUI/lvgl/src/widgets/../core/../misc/lv_anim.h ****  * @param a         pointer to an initialized `lv_anim_t` variable
 141:Middlewares/LVGL/GUI/lvgl/src/widgets/../core/../misc/lv_anim.h ****  * @param duration  duration of the animation in milliseconds
 142:Middlewares/LVGL/GUI/lvgl/src/widgets/../core/../misc/lv_anim.h ****  */
 143:Middlewares/LVGL/GUI/lvgl/src/widgets/../core/../misc/lv_anim.h **** static inline void lv_anim_set_time(lv_anim_t * a, uint32_t duration)
 144:Middlewares/LVGL/GUI/lvgl/src/widgets/../core/../misc/lv_anim.h **** {
 145:Middlewares/LVGL/GUI/lvgl/src/widgets/../core/../misc/lv_anim.h ****     a->time = duration;
 146:Middlewares/LVGL/GUI/lvgl/src/widgets/../core/../misc/lv_anim.h **** }
 147:Middlewares/LVGL/GUI/lvgl/src/widgets/../core/../misc/lv_anim.h **** 
 148:Middlewares/LVGL/GUI/lvgl/src/widgets/../core/../misc/lv_anim.h **** /**
 149:Middlewares/LVGL/GUI/lvgl/src/widgets/../core/../misc/lv_anim.h ****  * Set a delay before starting the animation
 150:Middlewares/LVGL/GUI/lvgl/src/widgets/../core/../misc/lv_anim.h ****  * @param a         pointer to an initialized `lv_anim_t` variable
 151:Middlewares/LVGL/GUI/lvgl/src/widgets/../core/../misc/lv_anim.h ****  * @param delay     delay before the animation in milliseconds
 152:Middlewares/LVGL/GUI/lvgl/src/widgets/../core/../misc/lv_anim.h ****  */
 153:Middlewares/LVGL/GUI/lvgl/src/widgets/../core/../misc/lv_anim.h **** static inline void lv_anim_set_delay(lv_anim_t * a, uint32_t delay)
 154:Middlewares/LVGL/GUI/lvgl/src/widgets/../core/../misc/lv_anim.h **** {
 155:Middlewares/LVGL/GUI/lvgl/src/widgets/../core/../misc/lv_anim.h ****     a->act_time = -(int32_t)(delay);
 156:Middlewares/LVGL/GUI/lvgl/src/widgets/../core/../misc/lv_anim.h **** }
 157:Middlewares/LVGL/GUI/lvgl/src/widgets/../core/../misc/lv_anim.h **** 
 158:Middlewares/LVGL/GUI/lvgl/src/widgets/../core/../misc/lv_anim.h **** /**
 159:Middlewares/LVGL/GUI/lvgl/src/widgets/../core/../misc/lv_anim.h ****  * Set the start and end values of an animation
 160:Middlewares/LVGL/GUI/lvgl/src/widgets/../core/../misc/lv_anim.h ****  * @param a         pointer to an initialized `lv_anim_t` variable
 161:Middlewares/LVGL/GUI/lvgl/src/widgets/../core/../misc/lv_anim.h ****  * @param start     the start value
 162:Middlewares/LVGL/GUI/lvgl/src/widgets/../core/../misc/lv_anim.h ****  * @param end       the end value
 163:Middlewares/LVGL/GUI/lvgl/src/widgets/../core/../misc/lv_anim.h ****  */
 164:Middlewares/LVGL/GUI/lvgl/src/widgets/../core/../misc/lv_anim.h **** static inline void lv_anim_set_values(lv_anim_t * a, int32_t start, int32_t end)
 720              		.loc 4 164 20 view .LVU200
 721              	.LBB99:
 165:Middlewares/LVGL/GUI/lvgl/src/widgets/../core/../misc/lv_anim.h **** {
 166:Middlewares/LVGL/GUI/lvgl/src/widgets/../core/../misc/lv_anim.h ****     a->start_value = start;
 722              		.loc 4 166 5 view .LVU201
ARM GAS  C:\Users\ADMINI~1\AppData\Local\Temp\ccvtjbeI.s 			page 44


 723              		.loc 4 166 20 is_stmt 0 view .LVU202
 724 00f0 0790     		str	r0, [sp, #28]
 167:Middlewares/LVGL/GUI/lvgl/src/widgets/../core/../misc/lv_anim.h ****     a->current_value = start;
 725              		.loc 4 167 5 is_stmt 1 view .LVU203
 726              		.loc 4 167 22 is_stmt 0 view .LVU204
 727 00f2 0890     		str	r0, [sp, #32]
 168:Middlewares/LVGL/GUI/lvgl/src/widgets/../core/../misc/lv_anim.h ****     a->end_value = end;
 728              		.loc 4 168 5 is_stmt 1 view .LVU205
 729              		.loc 4 168 18 is_stmt 0 view .LVU206
 730 00f4 0994     		str	r4, [sp, #36]
 731              	.LVL97:
 732              		.loc 4 168 18 view .LVU207
 733              	.LBE99:
 734              	.LBE98:
 640:Middlewares/LVGL/GUI/lvgl/src/widgets/lv_roller.c ****         lv_anim_set_ready_cb(&a, scroll_anim_ready_cb);
 735              		.loc 1 640 9 is_stmt 1 view .LVU208
 736              	.LBB100:
 737              	.LBI100:
 143:Middlewares/LVGL/GUI/lvgl/src/widgets/../core/../misc/lv_anim.h **** {
 738              		.loc 4 143 20 view .LVU209
 739              	.LBB101:
 145:Middlewares/LVGL/GUI/lvgl/src/widgets/../core/../misc/lv_anim.h **** }
 740              		.loc 4 145 5 view .LVU210
 145:Middlewares/LVGL/GUI/lvgl/src/widgets/../core/../misc/lv_anim.h **** }
 741              		.loc 4 145 13 is_stmt 0 view .LVU211
 742 00f6 1FFA88F7 		uxth	r7, r8
 743              	.LVL98:
 145:Middlewares/LVGL/GUI/lvgl/src/widgets/../core/../misc/lv_anim.h **** }
 744              		.loc 4 145 13 view .LVU212
 745 00fa 0A97     		str	r7, [sp, #40]
 746              	.LVL99:
 145:Middlewares/LVGL/GUI/lvgl/src/widgets/../core/../misc/lv_anim.h **** }
 747              		.loc 4 145 13 view .LVU213
 748              	.LBE101:
 749              	.LBE100:
 641:Middlewares/LVGL/GUI/lvgl/src/widgets/lv_roller.c ****         lv_anim_set_path_cb(&a, lv_anim_path_ease_out);
 750              		.loc 1 641 9 is_stmt 1 view .LVU214
 751              	.LBB102:
 752              	.LBI102:
 169:Middlewares/LVGL/GUI/lvgl/src/widgets/../core/../misc/lv_anim.h **** }
 170:Middlewares/LVGL/GUI/lvgl/src/widgets/../core/../misc/lv_anim.h **** 
 171:Middlewares/LVGL/GUI/lvgl/src/widgets/../core/../misc/lv_anim.h **** /**
 172:Middlewares/LVGL/GUI/lvgl/src/widgets/../core/../misc/lv_anim.h ****  * Similar to `lv_anim_set_exec_cb` but `lv_anim_custom_exec_cb_t` receives
 173:Middlewares/LVGL/GUI/lvgl/src/widgets/../core/../misc/lv_anim.h ****  * `lv_anim_t * ` as its first parameter instead of `void *`.
 174:Middlewares/LVGL/GUI/lvgl/src/widgets/../core/../misc/lv_anim.h ****  * This function might be used when LVGL is bound to other languages because
 175:Middlewares/LVGL/GUI/lvgl/src/widgets/../core/../misc/lv_anim.h ****  * it's more consistent to have `lv_anim_t *` as first parameter.
 176:Middlewares/LVGL/GUI/lvgl/src/widgets/../core/../misc/lv_anim.h ****  * The variable to animate can be stored in the animation's `user_data`
 177:Middlewares/LVGL/GUI/lvgl/src/widgets/../core/../misc/lv_anim.h ****  * @param a         pointer to an initialized `lv_anim_t` variable
 178:Middlewares/LVGL/GUI/lvgl/src/widgets/../core/../misc/lv_anim.h ****  * @param exec_cb   a function to execute.
 179:Middlewares/LVGL/GUI/lvgl/src/widgets/../core/../misc/lv_anim.h ****  */
 180:Middlewares/LVGL/GUI/lvgl/src/widgets/../core/../misc/lv_anim.h **** static inline void lv_anim_set_custom_exec_cb(lv_anim_t * a, lv_anim_custom_exec_cb_t exec_cb)
 181:Middlewares/LVGL/GUI/lvgl/src/widgets/../core/../misc/lv_anim.h **** {
 182:Middlewares/LVGL/GUI/lvgl/src/widgets/../core/../misc/lv_anim.h ****     a->var     = a;
 183:Middlewares/LVGL/GUI/lvgl/src/widgets/../core/../misc/lv_anim.h ****     a->exec_cb = (lv_anim_exec_xcb_t)exec_cb;
 184:Middlewares/LVGL/GUI/lvgl/src/widgets/../core/../misc/lv_anim.h **** }
 185:Middlewares/LVGL/GUI/lvgl/src/widgets/../core/../misc/lv_anim.h **** 
 186:Middlewares/LVGL/GUI/lvgl/src/widgets/../core/../misc/lv_anim.h **** /**
ARM GAS  C:\Users\ADMINI~1\AppData\Local\Temp\ccvtjbeI.s 			page 45


 187:Middlewares/LVGL/GUI/lvgl/src/widgets/../core/../misc/lv_anim.h ****  * Set the path (curve) of the animation.
 188:Middlewares/LVGL/GUI/lvgl/src/widgets/../core/../misc/lv_anim.h ****  * @param a         pointer to an initialized `lv_anim_t` variable
 189:Middlewares/LVGL/GUI/lvgl/src/widgets/../core/../misc/lv_anim.h ****  * @param path_cb a function to set the current value of the animation.
 190:Middlewares/LVGL/GUI/lvgl/src/widgets/../core/../misc/lv_anim.h ****  */
 191:Middlewares/LVGL/GUI/lvgl/src/widgets/../core/../misc/lv_anim.h **** static inline void lv_anim_set_path_cb(lv_anim_t * a, lv_anim_path_cb_t path_cb)
 192:Middlewares/LVGL/GUI/lvgl/src/widgets/../core/../misc/lv_anim.h **** {
 193:Middlewares/LVGL/GUI/lvgl/src/widgets/../core/../misc/lv_anim.h ****     a->path_cb = path_cb;
 194:Middlewares/LVGL/GUI/lvgl/src/widgets/../core/../misc/lv_anim.h **** }
 195:Middlewares/LVGL/GUI/lvgl/src/widgets/../core/../misc/lv_anim.h **** 
 196:Middlewares/LVGL/GUI/lvgl/src/widgets/../core/../misc/lv_anim.h **** /**
 197:Middlewares/LVGL/GUI/lvgl/src/widgets/../core/../misc/lv_anim.h ****  * Set a function call when the animation really starts (considering `delay`)
 198:Middlewares/LVGL/GUI/lvgl/src/widgets/../core/../misc/lv_anim.h ****  * @param a         pointer to an initialized `lv_anim_t` variable
 199:Middlewares/LVGL/GUI/lvgl/src/widgets/../core/../misc/lv_anim.h ****  * @param start_cb  a function call when the animation starts
 200:Middlewares/LVGL/GUI/lvgl/src/widgets/../core/../misc/lv_anim.h ****  */
 201:Middlewares/LVGL/GUI/lvgl/src/widgets/../core/../misc/lv_anim.h **** static inline void lv_anim_set_start_cb(lv_anim_t * a, lv_anim_start_cb_t start_cb)
 202:Middlewares/LVGL/GUI/lvgl/src/widgets/../core/../misc/lv_anim.h **** {
 203:Middlewares/LVGL/GUI/lvgl/src/widgets/../core/../misc/lv_anim.h ****     a->start_cb = start_cb;
 204:Middlewares/LVGL/GUI/lvgl/src/widgets/../core/../misc/lv_anim.h **** }
 205:Middlewares/LVGL/GUI/lvgl/src/widgets/../core/../misc/lv_anim.h **** 
 206:Middlewares/LVGL/GUI/lvgl/src/widgets/../core/../misc/lv_anim.h **** /**
 207:Middlewares/LVGL/GUI/lvgl/src/widgets/../core/../misc/lv_anim.h ****  * Set a function to use the current value of the variable and make start and end value
 208:Middlewares/LVGL/GUI/lvgl/src/widgets/../core/../misc/lv_anim.h ****  * relative to the returned current value.
 209:Middlewares/LVGL/GUI/lvgl/src/widgets/../core/../misc/lv_anim.h ****  * @param a             pointer to an initialized `lv_anim_t` variable
 210:Middlewares/LVGL/GUI/lvgl/src/widgets/../core/../misc/lv_anim.h ****  * @param get_value_cb  a function call when the animation starts
 211:Middlewares/LVGL/GUI/lvgl/src/widgets/../core/../misc/lv_anim.h ****  */
 212:Middlewares/LVGL/GUI/lvgl/src/widgets/../core/../misc/lv_anim.h **** static inline void lv_anim_set_get_value_cb(lv_anim_t * a, lv_anim_get_value_cb_t get_value_cb)
 213:Middlewares/LVGL/GUI/lvgl/src/widgets/../core/../misc/lv_anim.h **** {
 214:Middlewares/LVGL/GUI/lvgl/src/widgets/../core/../misc/lv_anim.h ****     a->get_value_cb = get_value_cb;
 215:Middlewares/LVGL/GUI/lvgl/src/widgets/../core/../misc/lv_anim.h **** }
 216:Middlewares/LVGL/GUI/lvgl/src/widgets/../core/../misc/lv_anim.h **** 
 217:Middlewares/LVGL/GUI/lvgl/src/widgets/../core/../misc/lv_anim.h **** /**
 218:Middlewares/LVGL/GUI/lvgl/src/widgets/../core/../misc/lv_anim.h ****  * Set a function call when the animation is ready
 219:Middlewares/LVGL/GUI/lvgl/src/widgets/../core/../misc/lv_anim.h ****  * @param a         pointer to an initialized `lv_anim_t` variable
 220:Middlewares/LVGL/GUI/lvgl/src/widgets/../core/../misc/lv_anim.h ****  * @param ready_cb  a function call when the animation is ready
 221:Middlewares/LVGL/GUI/lvgl/src/widgets/../core/../misc/lv_anim.h ****  */
 222:Middlewares/LVGL/GUI/lvgl/src/widgets/../core/../misc/lv_anim.h **** static inline void lv_anim_set_ready_cb(lv_anim_t * a, lv_anim_ready_cb_t ready_cb)
 753              		.loc 4 222 20 view .LVU215
 754              	.LBB103:
 223:Middlewares/LVGL/GUI/lvgl/src/widgets/../core/../misc/lv_anim.h **** {
 224:Middlewares/LVGL/GUI/lvgl/src/widgets/../core/../misc/lv_anim.h ****     a->ready_cb = ready_cb;
 755              		.loc 4 224 5 view .LVU216
 756              		.loc 4 224 17 is_stmt 0 view .LVU217
 757 00fc 044B     		ldr	r3, .L29+4
 758 00fe 0393     		str	r3, [sp, #12]
 759              	.LVL100:
 760              		.loc 4 224 17 view .LVU218
 761              	.LBE103:
 762              	.LBE102:
 642:Middlewares/LVGL/GUI/lvgl/src/widgets/lv_roller.c ****         lv_anim_start(&a);
 763              		.loc 1 642 9 is_stmt 1 view .LVU219
 764              	.LBB104:
 765              	.LBI104:
 191:Middlewares/LVGL/GUI/lvgl/src/widgets/../core/../misc/lv_anim.h **** {
 766              		.loc 4 191 20 view .LVU220
 767              	.LBB105:
 193:Middlewares/LVGL/GUI/lvgl/src/widgets/../core/../misc/lv_anim.h **** }
 768              		.loc 4 193 5 view .LVU221
ARM GAS  C:\Users\ADMINI~1\AppData\Local\Temp\ccvtjbeI.s 			page 46


 193:Middlewares/LVGL/GUI/lvgl/src/widgets/../core/../misc/lv_anim.h **** }
 769              		.loc 4 193 16 is_stmt 0 view .LVU222
 770 0100 044B     		ldr	r3, .L29+8
 771 0102 0693     		str	r3, [sp, #24]
 772              	.LVL101:
 193:Middlewares/LVGL/GUI/lvgl/src/widgets/../core/../misc/lv_anim.h **** }
 773              		.loc 4 193 16 view .LVU223
 774              	.LBE105:
 775              	.LBE104:
 643:Middlewares/LVGL/GUI/lvgl/src/widgets/lv_roller.c ****     }
 776              		.loc 1 643 9 is_stmt 1 view .LVU224
 777 0104 6846     		mov	r0, sp
 778 0106 FFF7FEFF 		bl	lv_anim_start
 779              	.LVL102:
 780 010a C5E7     		b	.L17
 781              	.L30:
 782              		.align	2
 783              	.L29:
 784 010c 00000000 		.word	set_y_anim
 785 0110 00000000 		.word	scroll_anim_ready_cb
 786 0114 00000000 		.word	lv_anim_path_ease_out
 787              	.LBE93:
 788              		.cfi_endproc
 789              	.LFE167:
 791              		.section	.text.get_sel_area,"ax",%progbits
 792              		.align	1
 793              		.syntax unified
 794              		.thumb
 795              		.thumb_func
 797              	get_sel_area:
 798              	.LVL103:
 799              	.LFB166:
 569:Middlewares/LVGL/GUI/lvgl/src/widgets/lv_roller.c **** 
 800              		.loc 1 569 1 view -0
 801              		.cfi_startproc
 802              		@ args = 0, pretend = 0, frame = 16
 803              		@ frame_needed = 0, uses_anonymous_args = 0
 569:Middlewares/LVGL/GUI/lvgl/src/widgets/lv_roller.c **** 
 804              		.loc 1 569 1 is_stmt 0 view .LVU226
 805 0000 F0B5     		push	{r4, r5, r6, r7, lr}
 806              	.LCFI12:
 807              		.cfi_def_cfa_offset 20
 808              		.cfi_offset 4, -20
 809              		.cfi_offset 5, -16
 810              		.cfi_offset 6, -12
 811              		.cfi_offset 7, -8
 812              		.cfi_offset 14, -4
 813 0002 85B0     		sub	sp, sp, #20
 814              	.LCFI13:
 815              		.cfi_def_cfa_offset 40
 816 0004 0546     		mov	r5, r0
 817 0006 0E46     		mov	r6, r1
 571:Middlewares/LVGL/GUI/lvgl/src/widgets/lv_roller.c ****     const lv_font_t * font_sel = lv_obj_get_style_text_font(obj, LV_PART_SELECTED);
 818              		.loc 1 571 5 is_stmt 1 view .LVU227
 819              	.LVL104:
 820              	.LBB106:
 821              	.LBI106:
ARM GAS  C:\Users\ADMINI~1\AppData\Local\Temp\ccvtjbeI.s 			page 47


 451:Middlewares/LVGL/GUI/lvgl/src/widgets/../core/lv_obj_style_gen.h **** {
 822              		.loc 2 451 33 view .LVU228
 823              	.LBB107:
 453:Middlewares/LVGL/GUI/lvgl/src/widgets/../core/lv_obj_style_gen.h ****     return (const lv_font_t *)v.ptr;
 824              		.loc 2 453 5 view .LVU229
 453:Middlewares/LVGL/GUI/lvgl/src/widgets/../core/lv_obj_style_gen.h ****     return (const lv_font_t *)v.ptr;
 825              		.loc 2 453 26 is_stmt 0 view .LVU230
 826 0008 41F25942 		movw	r2, #5209
 827 000c 0021     		movs	r1, #0
 828              	.LVL105:
 453:Middlewares/LVGL/GUI/lvgl/src/widgets/../core/lv_obj_style_gen.h ****     return (const lv_font_t *)v.ptr;
 829              		.loc 2 453 26 view .LVU231
 830 000e FFF7FEFF 		bl	lv_obj_get_style_prop
 831              	.LVL106:
 453:Middlewares/LVGL/GUI/lvgl/src/widgets/../core/lv_obj_style_gen.h ****     return (const lv_font_t *)v.ptr;
 832              		.loc 2 453 26 view .LVU232
 833 0012 0446     		mov	r4, r0
 834              	.LVL107:
 454:Middlewares/LVGL/GUI/lvgl/src/widgets/../core/lv_obj_style_gen.h **** }
 835              		.loc 2 454 5 is_stmt 1 view .LVU233
 454:Middlewares/LVGL/GUI/lvgl/src/widgets/../core/lv_obj_style_gen.h **** }
 836              		.loc 2 454 5 is_stmt 0 view .LVU234
 837              	.LBE107:
 838              	.LBE106:
 572:Middlewares/LVGL/GUI/lvgl/src/widgets/lv_roller.c ****     lv_coord_t font_main_h        = lv_font_get_line_height(font_main);
 839              		.loc 1 572 5 is_stmt 1 view .LVU235
 840              	.LBB108:
 841              	.LBI108:
 451:Middlewares/LVGL/GUI/lvgl/src/widgets/../core/lv_obj_style_gen.h **** {
 842              		.loc 2 451 33 view .LVU236
 843              	.LBB109:
 453:Middlewares/LVGL/GUI/lvgl/src/widgets/../core/lv_obj_style_gen.h ****     return (const lv_font_t *)v.ptr;
 844              		.loc 2 453 5 view .LVU237
 453:Middlewares/LVGL/GUI/lvgl/src/widgets/../core/lv_obj_style_gen.h ****     return (const lv_font_t *)v.ptr;
 845              		.loc 2 453 26 is_stmt 0 view .LVU238
 846 0014 41F25942 		movw	r2, #5209
 847 0018 4FF48021 		mov	r1, #262144
 848 001c 2846     		mov	r0, r5
 849              	.LVL108:
 453:Middlewares/LVGL/GUI/lvgl/src/widgets/../core/lv_obj_style_gen.h ****     return (const lv_font_t *)v.ptr;
 850              		.loc 2 453 26 view .LVU239
 851 001e FFF7FEFF 		bl	lv_obj_get_style_prop
 852              	.LVL109:
 454:Middlewares/LVGL/GUI/lvgl/src/widgets/../core/lv_obj_style_gen.h **** }
 853              		.loc 2 454 5 is_stmt 1 view .LVU240
 454:Middlewares/LVGL/GUI/lvgl/src/widgets/../core/lv_obj_style_gen.h **** }
 854              		.loc 2 454 5 is_stmt 0 view .LVU241
 855              	.LBE109:
 856              	.LBE108:
 573:Middlewares/LVGL/GUI/lvgl/src/widgets/lv_roller.c ****     lv_coord_t font_sel_h        = lv_font_get_line_height(font_sel);
 857              		.loc 1 573 5 is_stmt 1 view .LVU242
 858              	.LBB110:
 859              	.LBI110:
 121:Middlewares/LVGL/GUI/lvgl/src/widgets/../core/../misc/../font/lv_font.h **** {
 860              		.loc 3 121 26 view .LVU243
 861              	.LBB111:
 862              		.loc 3 123 5 view .LVU244
ARM GAS  C:\Users\ADMINI~1\AppData\Local\Temp\ccvtjbeI.s 			page 48


 863              		.loc 3 123 18 is_stmt 0 view .LVU245
 864 0022 A768     		ldr	r7, [r4, #8]
 865              	.LVL110:
 866              		.loc 3 123 18 view .LVU246
 867              	.LBE111:
 868              	.LBE110:
 574:Middlewares/LVGL/GUI/lvgl/src/widgets/lv_roller.c ****     lv_coord_t line_space = lv_obj_get_style_text_line_space(obj, LV_PART_MAIN);
 869              		.loc 1 574 5 is_stmt 1 view .LVU247
 870              	.LBB112:
 871              	.LBI112:
 121:Middlewares/LVGL/GUI/lvgl/src/widgets/../core/../misc/../font/lv_font.h **** {
 872              		.loc 3 121 26 view .LVU248
 873              	.LBB113:
 874              		.loc 3 123 5 view .LVU249
 875              		.loc 3 123 18 is_stmt 0 view .LVU250
 876 0024 8468     		ldr	r4, [r0, #8]
 877              	.LVL111:
 878              		.loc 3 123 18 view .LVU251
 879              	.LBE113:
 880              	.LBE112:
 575:Middlewares/LVGL/GUI/lvgl/src/widgets/lv_roller.c ****     lv_coord_t d = (font_sel_h + font_main_h) / 2 + line_space;
 881              		.loc 1 575 5 is_stmt 1 view .LVU252
 882              	.LBB114:
 883              	.LBI114:
 463:Middlewares/LVGL/GUI/lvgl/src/widgets/../core/lv_obj_style_gen.h **** {
 884              		.loc 2 463 26 view .LVU253
 885              	.LBB115:
 465:Middlewares/LVGL/GUI/lvgl/src/widgets/../core/lv_obj_style_gen.h ****     return (lv_coord_t)v.num;
 886              		.loc 2 465 5 view .LVU254
 465:Middlewares/LVGL/GUI/lvgl/src/widgets/../core/lv_obj_style_gen.h ****     return (lv_coord_t)v.num;
 887              		.loc 2 465 26 is_stmt 0 view .LVU255
 888 0026 41F25B42 		movw	r2, #5211
 889 002a 0021     		movs	r1, #0
 890 002c 2846     		mov	r0, r5
 891              	.LVL112:
 465:Middlewares/LVGL/GUI/lvgl/src/widgets/../core/lv_obj_style_gen.h ****     return (lv_coord_t)v.num;
 892              		.loc 2 465 26 view .LVU256
 893 002e FFF7FEFF 		bl	lv_obj_get_style_prop
 894              	.LVL113:
 466:Middlewares/LVGL/GUI/lvgl/src/widgets/../core/lv_obj_style_gen.h **** }
 895              		.loc 2 466 5 is_stmt 1 view .LVU257
 466:Middlewares/LVGL/GUI/lvgl/src/widgets/../core/lv_obj_style_gen.h **** }
 896              		.loc 2 466 5 is_stmt 0 view .LVU258
 897              	.LBE115:
 898              	.LBE114:
 576:Middlewares/LVGL/GUI/lvgl/src/widgets/lv_roller.c ****     sel_area->y1 = obj->coords.y1 + lv_obj_get_height(obj) / 2 - d / 2;
 899              		.loc 1 576 5 is_stmt 1 view .LVU259
 576:Middlewares/LVGL/GUI/lvgl/src/widgets/lv_roller.c ****     sel_area->y1 = obj->coords.y1 + lv_obj_get_height(obj) / 2 - d / 2;
 900              		.loc 1 576 32 is_stmt 0 view .LVU260
 901 0032 E219     		adds	r2, r4, r7
 576:Middlewares/LVGL/GUI/lvgl/src/widgets/lv_roller.c ****     sel_area->y1 = obj->coords.y1 + lv_obj_get_height(obj) / 2 - d / 2;
 902              		.loc 1 576 47 view .LVU261
 903 0034 02EBD272 		add	r2, r2, r2, lsr #31
 576:Middlewares/LVGL/GUI/lvgl/src/widgets/lv_roller.c ****     sel_area->y1 = obj->coords.y1 + lv_obj_get_height(obj) / 2 - d / 2;
 904              		.loc 1 576 16 view .LVU262
 905 0038 00EB6207 		add	r7, r0, r2, asr #1
 906              	.LVL114:
ARM GAS  C:\Users\ADMINI~1\AppData\Local\Temp\ccvtjbeI.s 			page 49


 577:Middlewares/LVGL/GUI/lvgl/src/widgets/lv_roller.c ****     sel_area->y2 = sel_area->y1 + d;
 907              		.loc 1 577 5 is_stmt 1 view .LVU263
 577:Middlewares/LVGL/GUI/lvgl/src/widgets/lv_roller.c ****     sel_area->y2 = sel_area->y1 + d;
 908              		.loc 1 577 31 is_stmt 0 view .LVU264
 909 003c AC69     		ldr	r4, [r5, #24]
 910              	.LVL115:
 577:Middlewares/LVGL/GUI/lvgl/src/widgets/lv_roller.c ****     sel_area->y2 = sel_area->y1 + d;
 911              		.loc 1 577 37 view .LVU265
 912 003e 2846     		mov	r0, r5
 913              	.LVL116:
 577:Middlewares/LVGL/GUI/lvgl/src/widgets/lv_roller.c ****     sel_area->y2 = sel_area->y1 + d;
 914              		.loc 1 577 37 view .LVU266
 915 0040 FFF7FEFF 		bl	lv_obj_get_height
 916              	.LVL117:
 577:Middlewares/LVGL/GUI/lvgl/src/widgets/lv_roller.c ****     sel_area->y2 = sel_area->y1 + d;
 917              		.loc 1 577 60 view .LVU267
 918 0044 00EBD070 		add	r0, r0, r0, lsr #31
 577:Middlewares/LVGL/GUI/lvgl/src/widgets/lv_roller.c ****     sel_area->y2 = sel_area->y1 + d;
 919              		.loc 1 577 35 view .LVU268
 920 0048 04EB6004 		add	r4, r4, r0, asr #1
 577:Middlewares/LVGL/GUI/lvgl/src/widgets/lv_roller.c ****     sel_area->y2 = sel_area->y1 + d;
 921              		.loc 1 577 68 view .LVU269
 922 004c 07EBD773 		add	r3, r7, r7, lsr #31
 577:Middlewares/LVGL/GUI/lvgl/src/widgets/lv_roller.c ****     sel_area->y2 = sel_area->y1 + d;
 923              		.loc 1 577 64 view .LVU270
 924 0050 A4EB6303 		sub	r3, r4, r3, asr #1
 577:Middlewares/LVGL/GUI/lvgl/src/widgets/lv_roller.c ****     sel_area->y2 = sel_area->y1 + d;
 925              		.loc 1 577 18 view .LVU271
 926 0054 7360     		str	r3, [r6, #4]
 578:Middlewares/LVGL/GUI/lvgl/src/widgets/lv_roller.c ****     lv_area_t roller_coords;
 927              		.loc 1 578 5 is_stmt 1 view .LVU272
 578:Middlewares/LVGL/GUI/lvgl/src/widgets/lv_roller.c ****     lv_area_t roller_coords;
 928              		.loc 1 578 33 is_stmt 0 view .LVU273
 929 0056 3B44     		add	r3, r3, r7
 578:Middlewares/LVGL/GUI/lvgl/src/widgets/lv_roller.c ****     lv_area_t roller_coords;
 930              		.loc 1 578 18 view .LVU274
 931 0058 F360     		str	r3, [r6, #12]
 579:Middlewares/LVGL/GUI/lvgl/src/widgets/lv_roller.c ****     lv_obj_get_coords(obj, &roller_coords);
 932              		.loc 1 579 5 is_stmt 1 view .LVU275
 580:Middlewares/LVGL/GUI/lvgl/src/widgets/lv_roller.c **** 
 933              		.loc 1 580 5 view .LVU276
 934 005a 6946     		mov	r1, sp
 935 005c 2846     		mov	r0, r5
 936 005e FFF7FEFF 		bl	lv_obj_get_coords
 937              	.LVL118:
 582:Middlewares/LVGL/GUI/lvgl/src/widgets/lv_roller.c ****     sel_area->x2 = roller_coords.x2;
 938              		.loc 1 582 5 view .LVU277
 582:Middlewares/LVGL/GUI/lvgl/src/widgets/lv_roller.c ****     sel_area->x2 = roller_coords.x2;
 939              		.loc 1 582 33 is_stmt 0 view .LVU278
 940 0062 009B     		ldr	r3, [sp]
 582:Middlewares/LVGL/GUI/lvgl/src/widgets/lv_roller.c ****     sel_area->x2 = roller_coords.x2;
 941              		.loc 1 582 18 view .LVU279
 942 0064 3360     		str	r3, [r6]
 583:Middlewares/LVGL/GUI/lvgl/src/widgets/lv_roller.c **** 
 943              		.loc 1 583 5 is_stmt 1 view .LVU280
 583:Middlewares/LVGL/GUI/lvgl/src/widgets/lv_roller.c **** 
 944              		.loc 1 583 33 is_stmt 0 view .LVU281
ARM GAS  C:\Users\ADMINI~1\AppData\Local\Temp\ccvtjbeI.s 			page 50


 945 0066 029B     		ldr	r3, [sp, #8]
 583:Middlewares/LVGL/GUI/lvgl/src/widgets/lv_roller.c **** 
 946              		.loc 1 583 18 view .LVU282
 947 0068 B360     		str	r3, [r6, #8]
 585:Middlewares/LVGL/GUI/lvgl/src/widgets/lv_roller.c **** 
 948              		.loc 1 585 1 view .LVU283
 949 006a 05B0     		add	sp, sp, #20
 950              	.LCFI14:
 951              		.cfi_def_cfa_offset 20
 952              		@ sp needed
 953 006c F0BD     		pop	{r4, r5, r6, r7, pc}
 585:Middlewares/LVGL/GUI/lvgl/src/widgets/lv_roller.c **** 
 954              		.loc 1 585 1 view .LVU284
 955              		.cfi_endproc
 956              	.LFE166:
 958              		.section	.text.draw_main,"ax",%progbits
 959              		.align	1
 960              		.syntax unified
 961              		.thumb
 962              		.thumb_func
 964              	draw_main:
 965              	.LVL119:
 966              	.LFB164:
 448:Middlewares/LVGL/GUI/lvgl/src/widgets/lv_roller.c ****     lv_event_code_t code = lv_event_get_code(e);
 967              		.loc 1 448 1 is_stmt 1 view -0
 968              		.cfi_startproc
 969              		@ args = 0, pretend = 0, frame = 128
 970              		@ frame_needed = 0, uses_anonymous_args = 0
 448:Middlewares/LVGL/GUI/lvgl/src/widgets/lv_roller.c ****     lv_event_code_t code = lv_event_get_code(e);
 971              		.loc 1 448 1 is_stmt 0 view .LVU286
 972 0000 2DE9F047 		push	{r4, r5, r6, r7, r8, r9, r10, lr}
 973              	.LCFI15:
 974              		.cfi_def_cfa_offset 32
 975              		.cfi_offset 4, -32
 976              		.cfi_offset 5, -28
 977              		.cfi_offset 6, -24
 978              		.cfi_offset 7, -20
 979              		.cfi_offset 8, -16
 980              		.cfi_offset 9, -12
 981              		.cfi_offset 10, -8
 982              		.cfi_offset 14, -4
 983 0004 A4B0     		sub	sp, sp, #144
 984              	.LCFI16:
 985              		.cfi_def_cfa_offset 176
 986 0006 0546     		mov	r5, r0
 449:Middlewares/LVGL/GUI/lvgl/src/widgets/lv_roller.c ****     lv_obj_t * obj = lv_event_get_target(e);
 987              		.loc 1 449 5 is_stmt 1 view .LVU287
 449:Middlewares/LVGL/GUI/lvgl/src/widgets/lv_roller.c ****     lv_obj_t * obj = lv_event_get_target(e);
 988              		.loc 1 449 28 is_stmt 0 view .LVU288
 989 0008 FFF7FEFF 		bl	lv_event_get_code
 990              	.LVL120:
 449:Middlewares/LVGL/GUI/lvgl/src/widgets/lv_roller.c ****     lv_obj_t * obj = lv_event_get_target(e);
 991              		.loc 1 449 28 view .LVU289
 992 000c 0446     		mov	r4, r0
 993              	.LVL121:
 450:Middlewares/LVGL/GUI/lvgl/src/widgets/lv_roller.c ****     if(code == LV_EVENT_DRAW_MAIN) {
 994              		.loc 1 450 5 is_stmt 1 view .LVU290
ARM GAS  C:\Users\ADMINI~1\AppData\Local\Temp\ccvtjbeI.s 			page 51


 450:Middlewares/LVGL/GUI/lvgl/src/widgets/lv_roller.c ****     if(code == LV_EVENT_DRAW_MAIN) {
 995              		.loc 1 450 22 is_stmt 0 view .LVU291
 996 000e 2846     		mov	r0, r5
 997 0010 FFF7FEFF 		bl	lv_event_get_target
 998              	.LVL122:
 999 0014 0646     		mov	r6, r0
 1000              	.LVL123:
 451:Middlewares/LVGL/GUI/lvgl/src/widgets/lv_roller.c ****         /*Draw the selected rectangle*/
 1001              		.loc 1 451 5 is_stmt 1 view .LVU292
 451:Middlewares/LVGL/GUI/lvgl/src/widgets/lv_roller.c ****         /*Draw the selected rectangle*/
 1002              		.loc 1 451 7 is_stmt 0 view .LVU293
 1003 0016 152C     		cmp	r4, #21
 1004 0018 04D0     		beq	.L38
 462:Middlewares/LVGL/GUI/lvgl/src/widgets/lv_roller.c ****         lv_draw_ctx_t * draw_ctx = lv_event_get_draw_ctx(e);
 1005              		.loc 1 462 10 is_stmt 1 view .LVU294
 462:Middlewares/LVGL/GUI/lvgl/src/widgets/lv_roller.c ****         lv_draw_ctx_t * draw_ctx = lv_event_get_draw_ctx(e);
 1006              		.loc 1 462 12 is_stmt 0 view .LVU295
 1007 001a 182C     		cmp	r4, #24
 1008 001c 19D0     		beq	.L39
 1009              	.LVL124:
 1010              	.L33:
 518:Middlewares/LVGL/GUI/lvgl/src/widgets/lv_roller.c **** 
 1011              		.loc 1 518 1 view .LVU296
 1012 001e 24B0     		add	sp, sp, #144
 1013              	.LCFI17:
 1014              		.cfi_remember_state
 1015              		.cfi_def_cfa_offset 32
 1016              		@ sp needed
 1017 0020 BDE8F087 		pop	{r4, r5, r6, r7, r8, r9, r10, pc}
 1018              	.LVL125:
 1019              	.L38:
 1020              	.LCFI18:
 1021              		.cfi_restore_state
 1022              	.LBB116:
 453:Middlewares/LVGL/GUI/lvgl/src/widgets/lv_roller.c ****         lv_area_t sel_area;
 1023              		.loc 1 453 9 is_stmt 1 view .LVU297
 453:Middlewares/LVGL/GUI/lvgl/src/widgets/lv_roller.c ****         lv_area_t sel_area;
 1024              		.loc 1 453 36 is_stmt 0 view .LVU298
 1025 0024 2846     		mov	r0, r5
 1026              	.LVL126:
 453:Middlewares/LVGL/GUI/lvgl/src/widgets/lv_roller.c ****         lv_area_t sel_area;
 1027              		.loc 1 453 36 view .LVU299
 1028 0026 FFF7FEFF 		bl	lv_event_get_draw_ctx
 1029              	.LVL127:
 1030 002a 0446     		mov	r4, r0
 1031              	.LVL128:
 454:Middlewares/LVGL/GUI/lvgl/src/widgets/lv_roller.c ****         get_sel_area(obj, &sel_area);
 1032              		.loc 1 454 9 is_stmt 1 view .LVU300
 455:Middlewares/LVGL/GUI/lvgl/src/widgets/lv_roller.c ****         lv_draw_rect_dsc_t sel_dsc;
 1033              		.loc 1 455 9 view .LVU301
 1034 002c 0EA9     		add	r1, sp, #56
 1035 002e 3046     		mov	r0, r6
 1036              	.LVL129:
 455:Middlewares/LVGL/GUI/lvgl/src/widgets/lv_roller.c ****         lv_draw_rect_dsc_t sel_dsc;
 1037              		.loc 1 455 9 is_stmt 0 view .LVU302
 1038 0030 FFF7FEFF 		bl	get_sel_area
 1039              	.LVL130:
ARM GAS  C:\Users\ADMINI~1\AppData\Local\Temp\ccvtjbeI.s 			page 52


 456:Middlewares/LVGL/GUI/lvgl/src/widgets/lv_roller.c ****         lv_draw_rect_dsc_init(&sel_dsc);
 1040              		.loc 1 456 9 is_stmt 1 view .LVU303
 457:Middlewares/LVGL/GUI/lvgl/src/widgets/lv_roller.c ****         lv_obj_init_draw_rect_dsc(obj, LV_PART_SELECTED, &sel_dsc);
 1041              		.loc 1 457 9 view .LVU304
 1042 0034 12A8     		add	r0, sp, #72
 1043 0036 FFF7FEFF 		bl	lv_draw_rect_dsc_init
 1044              	.LVL131:
 458:Middlewares/LVGL/GUI/lvgl/src/widgets/lv_roller.c ****         lv_draw_rect(draw_ctx, &sel_dsc, &sel_area);
 1045              		.loc 1 458 9 view .LVU305
 1046 003a 12AA     		add	r2, sp, #72
 1047 003c 4FF48021 		mov	r1, #262144
 1048 0040 3046     		mov	r0, r6
 1049 0042 FFF7FEFF 		bl	lv_obj_init_draw_rect_dsc
 1050              	.LVL132:
 459:Middlewares/LVGL/GUI/lvgl/src/widgets/lv_roller.c ****     }
 1051              		.loc 1 459 9 view .LVU306
 1052 0046 0EAA     		add	r2, sp, #56
 1053 0048 12A9     		add	r1, sp, #72
 1054 004a 2046     		mov	r0, r4
 1055 004c FFF7FEFF 		bl	lv_draw_rect
 1056              	.LVL133:
 1057              	.LBE116:
 1058 0050 E5E7     		b	.L33
 1059              	.LVL134:
 1060              	.L39:
 1061              	.LBB117:
 463:Middlewares/LVGL/GUI/lvgl/src/widgets/lv_roller.c **** 
 1062              		.loc 1 463 9 view .LVU307
 463:Middlewares/LVGL/GUI/lvgl/src/widgets/lv_roller.c **** 
 1063              		.loc 1 463 36 is_stmt 0 view .LVU308
 1064 0052 2846     		mov	r0, r5
 1065              	.LVL135:
 463:Middlewares/LVGL/GUI/lvgl/src/widgets/lv_roller.c **** 
 1066              		.loc 1 463 36 view .LVU309
 1067 0054 FFF7FEFF 		bl	lv_event_get_draw_ctx
 1068              	.LVL136:
 1069 0058 0446     		mov	r4, r0
 1070              	.LVL137:
 465:Middlewares/LVGL/GUI/lvgl/src/widgets/lv_roller.c ****         lv_draw_label_dsc_init(&label_dsc);
 1071              		.loc 1 465 9 is_stmt 1 view .LVU310
 466:Middlewares/LVGL/GUI/lvgl/src/widgets/lv_roller.c ****         lv_obj_init_draw_label_dsc(obj, LV_PART_SELECTED, &label_dsc);
 1072              		.loc 1 466 9 view .LVU311
 1073 005a 12A8     		add	r0, sp, #72
 1074              	.LVL138:
 466:Middlewares/LVGL/GUI/lvgl/src/widgets/lv_roller.c ****         lv_obj_init_draw_label_dsc(obj, LV_PART_SELECTED, &label_dsc);
 1075              		.loc 1 466 9 is_stmt 0 view .LVU312
 1076 005c FFF7FEFF 		bl	lv_draw_label_dsc_init
 1077              	.LVL139:
 467:Middlewares/LVGL/GUI/lvgl/src/widgets/lv_roller.c **** 
 1078              		.loc 1 467 9 is_stmt 1 view .LVU313
 1079 0060 12AA     		add	r2, sp, #72
 1080 0062 4FF48021 		mov	r1, #262144
 1081 0066 3046     		mov	r0, r6
 1082 0068 FFF7FEFF 		bl	lv_obj_init_draw_label_dsc
 1083              	.LVL140:
 470:Middlewares/LVGL/GUI/lvgl/src/widgets/lv_roller.c ****         get_sel_area(obj, &sel_area);
 1084              		.loc 1 470 9 view .LVU314
ARM GAS  C:\Users\ADMINI~1\AppData\Local\Temp\ccvtjbeI.s 			page 53


 471:Middlewares/LVGL/GUI/lvgl/src/widgets/lv_roller.c ****         lv_area_t mask_sel;
 1085              		.loc 1 471 9 view .LVU315
 1086 006c 06A9     		add	r1, sp, #24
 1087 006e 3046     		mov	r0, r6
 1088 0070 FFF7FEFF 		bl	get_sel_area
 1089              	.LVL141:
 472:Middlewares/LVGL/GUI/lvgl/src/widgets/lv_roller.c ****         bool area_ok;
 1090              		.loc 1 472 9 view .LVU316
 473:Middlewares/LVGL/GUI/lvgl/src/widgets/lv_roller.c ****         area_ok = _lv_area_intersect(&mask_sel, draw_ctx->clip_area, &sel_area);
 1091              		.loc 1 473 9 view .LVU317
 474:Middlewares/LVGL/GUI/lvgl/src/widgets/lv_roller.c ****         if(area_ok) {
 1092              		.loc 1 474 9 view .LVU318
 474:Middlewares/LVGL/GUI/lvgl/src/widgets/lv_roller.c ****         if(area_ok) {
 1093              		.loc 1 474 19 is_stmt 0 view .LVU319
 1094 0074 06AA     		add	r2, sp, #24
 1095 0076 A168     		ldr	r1, [r4, #8]
 1096 0078 0AA8     		add	r0, sp, #40
 1097 007a FFF7FEFF 		bl	_lv_area_intersect
 1098              	.LVL142:
 475:Middlewares/LVGL/GUI/lvgl/src/widgets/lv_roller.c ****             lv_obj_t * label = get_label(obj);
 1099              		.loc 1 475 9 is_stmt 1 view .LVU320
 475:Middlewares/LVGL/GUI/lvgl/src/widgets/lv_roller.c ****             lv_obj_t * label = get_label(obj);
 1100              		.loc 1 475 11 is_stmt 0 view .LVU321
 1101 007e 0028     		cmp	r0, #0
 1102 0080 CDD0     		beq	.L33
 1103              	.LBB118:
 476:Middlewares/LVGL/GUI/lvgl/src/widgets/lv_roller.c **** 
 1104              		.loc 1 476 13 is_stmt 1 view .LVU322
 476:Middlewares/LVGL/GUI/lvgl/src/widgets/lv_roller.c **** 
 1105              		.loc 1 476 32 is_stmt 0 view .LVU323
 1106 0082 3046     		mov	r0, r6
 1107              	.LVL143:
 476:Middlewares/LVGL/GUI/lvgl/src/widgets/lv_roller.c **** 
 1108              		.loc 1 476 32 view .LVU324
 1109 0084 FFF7FEFF 		bl	get_label
 1110              	.LVL144:
 1111 0088 0746     		mov	r7, r0
 1112              	.LVL145:
 479:Middlewares/LVGL/GUI/lvgl/src/widgets/lv_roller.c ****             lv_txt_get_size(&res_p, lv_label_get_text(label), label_dsc.font, label_dsc.letter_spac
 1113              		.loc 1 479 13 is_stmt 1 view .LVU325
 480:Middlewares/LVGL/GUI/lvgl/src/widgets/lv_roller.c ****                             lv_obj_get_width(obj), LV_TEXT_FLAG_EXPAND);
 1114              		.loc 1 480 13 view .LVU326
 480:Middlewares/LVGL/GUI/lvgl/src/widgets/lv_roller.c ****                             lv_obj_get_width(obj), LV_TEXT_FLAG_EXPAND);
 1115              		.loc 1 480 37 is_stmt 0 view .LVU327
 1116 008a FFF7FEFF 		bl	lv_label_get_text
 1117              	.LVL146:
 480:Middlewares/LVGL/GUI/lvgl/src/widgets/lv_roller.c ****                             lv_obj_get_width(obj), LV_TEXT_FLAG_EXPAND);
 1118              		.loc 1 480 37 view .LVU328
 1119 008e 0546     		mov	r5, r0
 1120              	.LVL147:
 480:Middlewares/LVGL/GUI/lvgl/src/widgets/lv_roller.c ****                             lv_obj_get_width(obj), LV_TEXT_FLAG_EXPAND);
 1121              		.loc 1 480 13 view .LVU329
 1122 0090 DDF84880 		ldr	r8, [sp, #72]
 1123 0094 DDF86090 		ldr	r9, [sp, #96]
 1124 0098 DDF85CA0 		ldr	r10, [sp, #92]
 1125 009c 3046     		mov	r0, r6
 1126 009e FFF7FEFF 		bl	lv_obj_get_width
ARM GAS  C:\Users\ADMINI~1\AppData\Local\Temp\ccvtjbeI.s 			page 54


 1127              	.LVL148:
 1128 00a2 0223     		movs	r3, #2
 1129 00a4 0293     		str	r3, [sp, #8]
 1130 00a6 0190     		str	r0, [sp, #4]
 1131 00a8 CDF800A0 		str	r10, [sp]
 1132 00ac 4B46     		mov	r3, r9
 1133 00ae 4246     		mov	r2, r8
 1134 00b0 2946     		mov	r1, r5
 1135 00b2 04A8     		add	r0, sp, #16
 1136 00b4 FFF7FEFF 		bl	lv_txt_get_size
 1137              	.LVL149:
 484:Middlewares/LVGL/GUI/lvgl/src/widgets/lv_roller.c ****             int32_t label_y_prop = label->coords.y1 - (roller_h / 2 +
 1138              		.loc 1 484 13 is_stmt 1 view .LVU330
 484:Middlewares/LVGL/GUI/lvgl/src/widgets/lv_roller.c ****             int32_t label_y_prop = label->coords.y1 - (roller_h / 2 +
 1139              		.loc 1 484 35 is_stmt 0 view .LVU331
 1140 00b8 3046     		mov	r0, r6
 1141 00ba FFF7FEFF 		bl	lv_obj_get_height
 1142              	.LVL150:
 485:Middlewares/LVGL/GUI/lvgl/src/widgets/lv_roller.c ****                                                        obj->coords.y1); /*label offset from the mid
 1143              		.loc 1 485 13 is_stmt 1 view .LVU332
 485:Middlewares/LVGL/GUI/lvgl/src/widgets/lv_roller.c ****                                                        obj->coords.y1); /*label offset from the mid
 1144              		.loc 1 485 49 is_stmt 0 view .LVU333
 1145 00be BB69     		ldr	r3, [r7, #24]
 485:Middlewares/LVGL/GUI/lvgl/src/widgets/lv_roller.c ****                                                        obj->coords.y1); /*label offset from the mid
 1146              		.loc 1 485 65 view .LVU334
 1147 00c0 00EBD070 		add	r0, r0, r0, lsr #31
 1148              	.LVL151:
 485:Middlewares/LVGL/GUI/lvgl/src/widgets/lv_roller.c ****                                                        obj->coords.y1); /*label offset from the mid
 1149              		.loc 1 485 65 view .LVU335
 1150 00c4 4510     		asrs	r5, r0, #1
 486:Middlewares/LVGL/GUI/lvgl/src/widgets/lv_roller.c ****             label_y_prop = (label_y_prop * 16384) / lv_obj_get_height(
 1151              		.loc 1 486 67 view .LVU336
 1152 00c6 B269     		ldr	r2, [r6, #24]
 485:Middlewares/LVGL/GUI/lvgl/src/widgets/lv_roller.c ****                                                        obj->coords.y1); /*label offset from the mid
 1153              		.loc 1 485 69 view .LVU337
 1154 00c8 02EB6008 		add	r8, r2, r0, asr #1
 485:Middlewares/LVGL/GUI/lvgl/src/widgets/lv_roller.c ****                                                        obj->coords.y1); /*label offset from the mid
 1155              		.loc 1 485 21 view .LVU338
 1156 00cc A3EB0808 		sub	r8, r3, r8
 1157              	.LVL152:
 487:Middlewares/LVGL/GUI/lvgl/src/widgets/lv_roller.c ****                                label); /*Proportional position from the middle line (upscaled by <<
 1158              		.loc 1 487 13 is_stmt 1 view .LVU339
 487:Middlewares/LVGL/GUI/lvgl/src/widgets/lv_roller.c ****                                label); /*Proportional position from the middle line (upscaled by <<
 1159              		.loc 1 487 42 is_stmt 0 view .LVU340
 1160 00d0 4FEA8838 		lsl	r8, r8, #14
 1161              	.LVL153:
 487:Middlewares/LVGL/GUI/lvgl/src/widgets/lv_roller.c ****                                label); /*Proportional position from the middle line (upscaled by <<
 1162              		.loc 1 487 53 view .LVU341
 1163 00d4 3846     		mov	r0, r7
 1164              	.LVL154:
 487:Middlewares/LVGL/GUI/lvgl/src/widgets/lv_roller.c ****                                label); /*Proportional position from the middle line (upscaled by <<
 1165              		.loc 1 487 53 view .LVU342
 1166 00d6 FFF7FEFF 		bl	lv_obj_get_height
 1167              	.LVL155:
 487:Middlewares/LVGL/GUI/lvgl/src/widgets/lv_roller.c ****                                label); /*Proportional position from the middle line (upscaled by <<
 1168              		.loc 1 487 26 view .LVU343
 1169 00da 98FBF0F8 		sdiv	r8, r8, r0
ARM GAS  C:\Users\ADMINI~1\AppData\Local\Temp\ccvtjbeI.s 			page 55


 1170              	.LVL156:
 491:Middlewares/LVGL/GUI/lvgl/src/widgets/lv_roller.c ****             lv_coord_t corr = (label_dsc.font->line_height - normal_label_font->line_height) / 2;
 1171              		.loc 1 491 13 is_stmt 1 view .LVU344
 1172              	.LBB119:
 1173              	.LBI119:
 451:Middlewares/LVGL/GUI/lvgl/src/widgets/../core/lv_obj_style_gen.h **** {
 1174              		.loc 2 451 33 view .LVU345
 1175              	.LBB120:
 453:Middlewares/LVGL/GUI/lvgl/src/widgets/../core/lv_obj_style_gen.h ****     return (const lv_font_t *)v.ptr;
 1176              		.loc 2 453 5 view .LVU346
 453:Middlewares/LVGL/GUI/lvgl/src/widgets/../core/lv_obj_style_gen.h ****     return (const lv_font_t *)v.ptr;
 1177              		.loc 2 453 26 is_stmt 0 view .LVU347
 1178 00de 41F25942 		movw	r2, #5209
 1179 00e2 0021     		movs	r1, #0
 1180 00e4 3046     		mov	r0, r6
 1181 00e6 FFF7FEFF 		bl	lv_obj_get_style_prop
 1182              	.LVL157:
 454:Middlewares/LVGL/GUI/lvgl/src/widgets/../core/lv_obj_style_gen.h **** }
 1183              		.loc 2 454 5 is_stmt 1 view .LVU348
 454:Middlewares/LVGL/GUI/lvgl/src/widgets/../core/lv_obj_style_gen.h **** }
 1184              		.loc 2 454 5 is_stmt 0 view .LVU349
 1185              	.LBE120:
 1186              	.LBE119:
 492:Middlewares/LVGL/GUI/lvgl/src/widgets/lv_roller.c **** 
 1187              		.loc 1 492 13 is_stmt 1 view .LVU350
 492:Middlewares/LVGL/GUI/lvgl/src/widgets/lv_roller.c **** 
 1188              		.loc 1 492 41 is_stmt 0 view .LVU351
 1189 00ea 129B     		ldr	r3, [sp, #72]
 492:Middlewares/LVGL/GUI/lvgl/src/widgets/lv_roller.c **** 
 1190              		.loc 1 492 46 view .LVU352
 1191 00ec 9B68     		ldr	r3, [r3, #8]
 492:Middlewares/LVGL/GUI/lvgl/src/widgets/lv_roller.c **** 
 1192              		.loc 1 492 79 view .LVU353
 1193 00ee 8268     		ldr	r2, [r0, #8]
 492:Middlewares/LVGL/GUI/lvgl/src/widgets/lv_roller.c **** 
 1194              		.loc 1 492 60 view .LVU354
 1195 00f0 9B1A     		subs	r3, r3, r2
 492:Middlewares/LVGL/GUI/lvgl/src/widgets/lv_roller.c **** 
 1196              		.loc 1 492 24 view .LVU355
 1197 00f2 03EBD373 		add	r3, r3, r3, lsr #31
 1198              	.LVL158:
 495:Middlewares/LVGL/GUI/lvgl/src/widgets/lv_roller.c ****             int32_t label_sel_y = roller_h / 2 + obj->coords.y1;
 1199              		.loc 1 495 13 is_stmt 1 view .LVU356
 495:Middlewares/LVGL/GUI/lvgl/src/widgets/lv_roller.c ****             int32_t label_sel_y = roller_h / 2 + obj->coords.y1;
 1200              		.loc 1 495 21 is_stmt 0 view .LVU357
 1201 00f6 059A     		ldr	r2, [sp, #20]
 1202 00f8 A2EB6302 		sub	r2, r2, r3, asr #1
 1203 00fc 0592     		str	r2, [sp, #20]
 496:Middlewares/LVGL/GUI/lvgl/src/widgets/lv_roller.c ****             label_sel_y += (label_y_prop * res_p.y) >> 14;
 1204              		.loc 1 496 13 is_stmt 1 view .LVU358
 496:Middlewares/LVGL/GUI/lvgl/src/widgets/lv_roller.c ****             label_sel_y += (label_y_prop * res_p.y) >> 14;
 1205              		.loc 1 496 61 is_stmt 0 view .LVU359
 1206 00fe B169     		ldr	r1, [r6, #24]
 496:Middlewares/LVGL/GUI/lvgl/src/widgets/lv_roller.c ****             label_sel_y += (label_y_prop * res_p.y) >> 14;
 1207              		.loc 1 496 21 view .LVU360
 1208 0100 0D44     		add	r5, r5, r1
 1209              	.LVL159:
ARM GAS  C:\Users\ADMINI~1\AppData\Local\Temp\ccvtjbeI.s 			page 56


 497:Middlewares/LVGL/GUI/lvgl/src/widgets/lv_roller.c ****             label_sel_y -= corr;
 1210              		.loc 1 497 13 is_stmt 1 view .LVU361
 497:Middlewares/LVGL/GUI/lvgl/src/widgets/lv_roller.c ****             label_sel_y -= corr;
 1211              		.loc 1 497 42 is_stmt 0 view .LVU362
 1212 0102 08FB02F2 		mul	r2, r8, r2
 497:Middlewares/LVGL/GUI/lvgl/src/widgets/lv_roller.c ****             label_sel_y -= corr;
 1213              		.loc 1 497 25 view .LVU363
 1214 0106 05EBA232 		add	r2, r5, r2, asr #14
 1215              	.LVL160:
