ARM GAS  C:\Users\ADMINI~1\AppData\Local\Temp\ccjxskpe.s 			page 1


   1              		.cpu cortex-m4
   2              		.arch armv7e-m
   3              		.fpu fpv4-sp-d16
   4              		.eabi_attribute 27, 1
   5              		.eabi_attribute 28, 1
   6              		.eabi_attribute 20, 1
   7              		.eabi_attribute 21, 1
   8              		.eabi_attribute 23, 3
   9              		.eabi_attribute 24, 1
  10              		.eabi_attribute 25, 1
  11              		.eabi_attribute 26, 1
  12              		.eabi_attribute 30, 1
  13              		.eabi_attribute 34, 1
  14              		.eabi_attribute 18, 4
  15              		.file	"lv_style.c"
  16              		.text
  17              	.Ltext0:
  18              		.cfi_sections	.debug_frame
  19              		.section	.text.lv_style_init,"ax",%progbits
  20              		.align	1
  21              		.global	lv_style_init
  22              		.syntax unified
  23              		.thumb
  24              		.thumb_func
  26              	lv_style_init:
  27              	.LVL0:
  28              	.LFB52:
  29              		.file 1 "Middlewares/LVGL/GUI/lvgl/src/misc/lv_style.c"
   1:Middlewares/LVGL/GUI/lvgl/src/misc/lv_style.c **** /**
   2:Middlewares/LVGL/GUI/lvgl/src/misc/lv_style.c ****  * @file lv_style.c
   3:Middlewares/LVGL/GUI/lvgl/src/misc/lv_style.c ****  *
   4:Middlewares/LVGL/GUI/lvgl/src/misc/lv_style.c ****  */
   5:Middlewares/LVGL/GUI/lvgl/src/misc/lv_style.c **** 
   6:Middlewares/LVGL/GUI/lvgl/src/misc/lv_style.c **** /*********************
   7:Middlewares/LVGL/GUI/lvgl/src/misc/lv_style.c ****  *      INCLUDES
   8:Middlewares/LVGL/GUI/lvgl/src/misc/lv_style.c ****  *********************/
   9:Middlewares/LVGL/GUI/lvgl/src/misc/lv_style.c **** #include "lv_style.h"
  10:Middlewares/LVGL/GUI/lvgl/src/misc/lv_style.c **** #include "../misc/lv_mem.h"
  11:Middlewares/LVGL/GUI/lvgl/src/misc/lv_style.c **** 
  12:Middlewares/LVGL/GUI/lvgl/src/misc/lv_style.c **** /*********************
  13:Middlewares/LVGL/GUI/lvgl/src/misc/lv_style.c ****  *      DEFINES
  14:Middlewares/LVGL/GUI/lvgl/src/misc/lv_style.c ****  *********************/
  15:Middlewares/LVGL/GUI/lvgl/src/misc/lv_style.c **** 
  16:Middlewares/LVGL/GUI/lvgl/src/misc/lv_style.c **** /**********************
  17:Middlewares/LVGL/GUI/lvgl/src/misc/lv_style.c ****  *      TYPEDEFS
  18:Middlewares/LVGL/GUI/lvgl/src/misc/lv_style.c ****  **********************/
  19:Middlewares/LVGL/GUI/lvgl/src/misc/lv_style.c **** 
  20:Middlewares/LVGL/GUI/lvgl/src/misc/lv_style.c **** /**********************
  21:Middlewares/LVGL/GUI/lvgl/src/misc/lv_style.c ****  *  STATIC PROTOTYPES
  22:Middlewares/LVGL/GUI/lvgl/src/misc/lv_style.c ****  **********************/
  23:Middlewares/LVGL/GUI/lvgl/src/misc/lv_style.c **** 
  24:Middlewares/LVGL/GUI/lvgl/src/misc/lv_style.c **** /**********************
  25:Middlewares/LVGL/GUI/lvgl/src/misc/lv_style.c ****  *  GLOBAL VARIABLES
  26:Middlewares/LVGL/GUI/lvgl/src/misc/lv_style.c ****  **********************/
  27:Middlewares/LVGL/GUI/lvgl/src/misc/lv_style.c **** 
  28:Middlewares/LVGL/GUI/lvgl/src/misc/lv_style.c **** /**********************
  29:Middlewares/LVGL/GUI/lvgl/src/misc/lv_style.c ****  *  STATIC VARIABLES
ARM GAS  C:\Users\ADMINI~1\AppData\Local\Temp\ccjxskpe.s 			page 2


  30:Middlewares/LVGL/GUI/lvgl/src/misc/lv_style.c ****  **********************/
  31:Middlewares/LVGL/GUI/lvgl/src/misc/lv_style.c **** 
  32:Middlewares/LVGL/GUI/lvgl/src/misc/lv_style.c **** /**********************
  33:Middlewares/LVGL/GUI/lvgl/src/misc/lv_style.c ****  *      MACROS
  34:Middlewares/LVGL/GUI/lvgl/src/misc/lv_style.c ****  **********************/
  35:Middlewares/LVGL/GUI/lvgl/src/misc/lv_style.c **** 
  36:Middlewares/LVGL/GUI/lvgl/src/misc/lv_style.c **** /**********************
  37:Middlewares/LVGL/GUI/lvgl/src/misc/lv_style.c ****  *   GLOBAL FUNCTIONS
  38:Middlewares/LVGL/GUI/lvgl/src/misc/lv_style.c ****  **********************/
  39:Middlewares/LVGL/GUI/lvgl/src/misc/lv_style.c **** 
  40:Middlewares/LVGL/GUI/lvgl/src/misc/lv_style.c **** void lv_style_init(lv_style_t * style)
  41:Middlewares/LVGL/GUI/lvgl/src/misc/lv_style.c **** {
  30              		.loc 1 41 1 view -0
  31              		.cfi_startproc
  32              		@ args = 0, pretend = 0, frame = 0
  33              		@ frame_needed = 0, uses_anonymous_args = 0
  34              		.loc 1 41 1 is_stmt 0 view .LVU1
  35 0000 08B5     		push	{r3, lr}
  36              	.LCFI0:
  37              		.cfi_def_cfa_offset 8
  38              		.cfi_offset 3, -8
  39              		.cfi_offset 14, -4
  42:Middlewares/LVGL/GUI/lvgl/src/misc/lv_style.c **** #if LV_USE_ASSERT_STYLE
  43:Middlewares/LVGL/GUI/lvgl/src/misc/lv_style.c ****     if(style->sentinel == LV_STYLE_SENTINEL_VALUE && style->prop_cnt > 1) {
  44:Middlewares/LVGL/GUI/lvgl/src/misc/lv_style.c ****         LV_LOG_WARN("Style might be already inited. (Potential memory leak)");
  45:Middlewares/LVGL/GUI/lvgl/src/misc/lv_style.c ****     }
  46:Middlewares/LVGL/GUI/lvgl/src/misc/lv_style.c **** #endif
  47:Middlewares/LVGL/GUI/lvgl/src/misc/lv_style.c **** 
  48:Middlewares/LVGL/GUI/lvgl/src/misc/lv_style.c ****     lv_memset_00(style, sizeof(lv_style_t));
  40              		.loc 1 48 5 is_stmt 1 view .LVU2
  41 0002 0821     		movs	r1, #8
  42 0004 FFF7FEFF 		bl	lv_memset_00
  43              	.LVL1:
  49:Middlewares/LVGL/GUI/lvgl/src/misc/lv_style.c **** #if LV_USE_ASSERT_STYLE
  50:Middlewares/LVGL/GUI/lvgl/src/misc/lv_style.c ****     style->sentinel = LV_STYLE_SENTINEL_VALUE;
  51:Middlewares/LVGL/GUI/lvgl/src/misc/lv_style.c **** #endif
  52:Middlewares/LVGL/GUI/lvgl/src/misc/lv_style.c **** }
  44              		.loc 1 52 1 is_stmt 0 view .LVU3
  45 0008 08BD     		pop	{r3, pc}
  46              		.cfi_endproc
  47              	.LFE52:
  49              		.section	.text.lv_style_reset,"ax",%progbits
  50              		.align	1
  51              		.global	lv_style_reset
  52              		.syntax unified
  53              		.thumb
  54              		.thumb_func
  56              	lv_style_reset:
  57              	.LVL2:
  58              	.LFB53:
  53:Middlewares/LVGL/GUI/lvgl/src/misc/lv_style.c **** 
  54:Middlewares/LVGL/GUI/lvgl/src/misc/lv_style.c **** void lv_style_reset(lv_style_t * style)
  55:Middlewares/LVGL/GUI/lvgl/src/misc/lv_style.c **** {
  59              		.loc 1 55 1 is_stmt 1 view -0
  60              		.cfi_startproc
  61              		@ args = 0, pretend = 0, frame = 0
  62              		@ frame_needed = 0, uses_anonymous_args = 0
ARM GAS  C:\Users\ADMINI~1\AppData\Local\Temp\ccjxskpe.s 			page 3


  56:Middlewares/LVGL/GUI/lvgl/src/misc/lv_style.c ****     LV_ASSERT_STYLE(style);
  63              		.loc 1 56 5 view .LVU5
  64              		.loc 1 56 5 view .LVU6
  65              		.loc 1 56 5 view .LVU7
  57:Middlewares/LVGL/GUI/lvgl/src/misc/lv_style.c **** 
  58:Middlewares/LVGL/GUI/lvgl/src/misc/lv_style.c ****     if(style->is_const) {
  66              		.loc 1 58 5 view .LVU8
  67              		.loc 1 58 7 is_stmt 0 view .LVU9
  68 0000 90F90530 		ldrsb	r3, [r0, #5]
  69 0004 002B     		cmp	r3, #0
  70 0006 0DDB     		blt	.L7
  55:Middlewares/LVGL/GUI/lvgl/src/misc/lv_style.c ****     LV_ASSERT_STYLE(style);
  71              		.loc 1 55 1 view .LVU10
  72 0008 10B5     		push	{r4, lr}
  73              	.LCFI1:
  74              		.cfi_def_cfa_offset 8
  75              		.cfi_offset 4, -8
  76              		.cfi_offset 14, -4
  77 000a 0446     		mov	r4, r0
  59:Middlewares/LVGL/GUI/lvgl/src/misc/lv_style.c ****         LV_LOG_ERROR("Cannot reset const style");
  60:Middlewares/LVGL/GUI/lvgl/src/misc/lv_style.c ****         return;
  61:Middlewares/LVGL/GUI/lvgl/src/misc/lv_style.c ****     }
  62:Middlewares/LVGL/GUI/lvgl/src/misc/lv_style.c **** 
  63:Middlewares/LVGL/GUI/lvgl/src/misc/lv_style.c ****     if(style->prop_cnt > 1) lv_mem_free(style->v_p.values_and_props);
  78              		.loc 1 63 5 is_stmt 1 view .LVU11
  79              		.loc 1 63 13 is_stmt 0 view .LVU12
  80 000c C379     		ldrb	r3, [r0, #7]	@ zero_extendqisi2
  81              		.loc 1 63 7 view .LVU13
  82 000e 012B     		cmp	r3, #1
  83 0010 04D8     		bhi	.L10
  84              	.LVL3:
  85              	.L5:
  64:Middlewares/LVGL/GUI/lvgl/src/misc/lv_style.c ****     lv_memset_00(style, sizeof(lv_style_t));
  86              		.loc 1 64 5 is_stmt 1 view .LVU14
  87 0012 0821     		movs	r1, #8
  88 0014 2046     		mov	r0, r4
  89 0016 FFF7FEFF 		bl	lv_memset_00
  90              	.LVL4:
  65:Middlewares/LVGL/GUI/lvgl/src/misc/lv_style.c **** #if LV_USE_ASSERT_STYLE
  66:Middlewares/LVGL/GUI/lvgl/src/misc/lv_style.c ****     style->sentinel = LV_STYLE_SENTINEL_VALUE;
  67:Middlewares/LVGL/GUI/lvgl/src/misc/lv_style.c **** #endif
  68:Middlewares/LVGL/GUI/lvgl/src/misc/lv_style.c **** }
  91              		.loc 1 68 1 is_stmt 0 view .LVU15
  92 001a 10BD     		pop	{r4, pc}
  93              	.LVL5:
  94              	.L10:
  63:Middlewares/LVGL/GUI/lvgl/src/misc/lv_style.c ****     lv_memset_00(style, sizeof(lv_style_t));
  95              		.loc 1 63 29 is_stmt 1 discriminator 1 view .LVU16
  96 001c 0068     		ldr	r0, [r0]
  97              	.LVL6:
  63:Middlewares/LVGL/GUI/lvgl/src/misc/lv_style.c ****     lv_memset_00(style, sizeof(lv_style_t));
  98              		.loc 1 63 29 is_stmt 0 discriminator 1 view .LVU17
  99 001e FFF7FEFF 		bl	lv_mem_free
 100              	.LVL7:
 101 0022 F6E7     		b	.L5
 102              	.LVL8:
 103              	.L7:
ARM GAS  C:\Users\ADMINI~1\AppData\Local\Temp\ccjxskpe.s 			page 4


 104              	.LCFI2:
 105              		.cfi_def_cfa_offset 0
 106              		.cfi_restore 4
 107              		.cfi_restore 14
  63:Middlewares/LVGL/GUI/lvgl/src/misc/lv_style.c ****     lv_memset_00(style, sizeof(lv_style_t));
 108              		.loc 1 63 29 discriminator 1 view .LVU18
 109 0024 7047     		bx	lr
 110              		.cfi_endproc
 111              	.LFE53:
 113              		.section	.text.lv_style_register_prop,"ax",%progbits
 114              		.align	1
 115              		.global	lv_style_register_prop
 116              		.syntax unified
 117              		.thumb
 118              		.thumb_func
 120              	lv_style_register_prop:
 121              	.LFB54:
  69:Middlewares/LVGL/GUI/lvgl/src/misc/lv_style.c **** 
  70:Middlewares/LVGL/GUI/lvgl/src/misc/lv_style.c **** lv_style_prop_t lv_style_register_prop(void)
  71:Middlewares/LVGL/GUI/lvgl/src/misc/lv_style.c **** {
 122              		.loc 1 71 1 is_stmt 1 view -0
 123              		.cfi_startproc
 124              		@ args = 0, pretend = 0, frame = 0
 125              		@ frame_needed = 0, uses_anonymous_args = 0
 126              		@ link register save eliminated.
  72:Middlewares/LVGL/GUI/lvgl/src/misc/lv_style.c ****     static uint16_t act_id = (uint16_t)_LV_STYLE_LAST_BUILT_IN_PROP;
 127              		.loc 1 72 5 view .LVU20
  73:Middlewares/LVGL/GUI/lvgl/src/misc/lv_style.c ****     act_id++;
 128              		.loc 1 73 5 view .LVU21
 129              		.loc 1 73 11 is_stmt 0 view .LVU22
 130 0000 024B     		ldr	r3, .L12
 131 0002 1888     		ldrh	r0, [r3]
 132 0004 0130     		adds	r0, r0, #1
 133 0006 80B2     		uxth	r0, r0
 134 0008 1880     		strh	r0, [r3]	@ movhi
  74:Middlewares/LVGL/GUI/lvgl/src/misc/lv_style.c ****     return act_id;
 135              		.loc 1 74 5 is_stmt 1 view .LVU23
  75:Middlewares/LVGL/GUI/lvgl/src/misc/lv_style.c **** }
 136              		.loc 1 75 1 is_stmt 0 view .LVU24
 137 000a 7047     		bx	lr
 138              	.L13:
 139              		.align	2
 140              	.L12:
 141 000c 00000000 		.word	.LANCHOR0
 142              		.cfi_endproc
 143              	.LFE54:
 145              		.section	.text.lv_style_remove_prop,"ax",%progbits
 146              		.align	1
 147              		.global	lv_style_remove_prop
 148              		.syntax unified
 149              		.thumb
 150              		.thumb_func
 152              	lv_style_remove_prop:
 153              	.LVL9:
 154              	.LFB55:
  76:Middlewares/LVGL/GUI/lvgl/src/misc/lv_style.c **** 
  77:Middlewares/LVGL/GUI/lvgl/src/misc/lv_style.c **** bool lv_style_remove_prop(lv_style_t * style, lv_style_prop_t prop)
ARM GAS  C:\Users\ADMINI~1\AppData\Local\Temp\ccjxskpe.s 			page 5


  78:Middlewares/LVGL/GUI/lvgl/src/misc/lv_style.c **** {
 155              		.loc 1 78 1 is_stmt 1 view -0
 156              		.cfi_startproc
 157              		@ args = 0, pretend = 0, frame = 0
 158              		@ frame_needed = 0, uses_anonymous_args = 0
 159              		.loc 1 78 1 is_stmt 0 view .LVU26
 160 0000 F8B5     		push	{r3, r4, r5, r6, r7, lr}
 161              	.LCFI3:
 162              		.cfi_def_cfa_offset 24
 163              		.cfi_offset 3, -24
 164              		.cfi_offset 4, -20
 165              		.cfi_offset 5, -16
 166              		.cfi_offset 6, -12
 167              		.cfi_offset 7, -8
 168              		.cfi_offset 14, -4
  79:Middlewares/LVGL/GUI/lvgl/src/misc/lv_style.c ****     LV_ASSERT_STYLE(style);
 169              		.loc 1 79 5 is_stmt 1 view .LVU27
 170              		.loc 1 79 5 view .LVU28
 171              		.loc 1 79 5 view .LVU29
  80:Middlewares/LVGL/GUI/lvgl/src/misc/lv_style.c **** 
  81:Middlewares/LVGL/GUI/lvgl/src/misc/lv_style.c ****     if(style->is_const) {
 172              		.loc 1 81 5 view .LVU30
 173              		.loc 1 81 7 is_stmt 0 view .LVU31
 174 0002 90F90530 		ldrsb	r3, [r0, #5]
 175 0006 002B     		cmp	r3, #0
 176 0008 65DB     		blt	.L28
 177 000a 0546     		mov	r5, r0
 178 000c 0C46     		mov	r4, r1
  82:Middlewares/LVGL/GUI/lvgl/src/misc/lv_style.c ****         LV_LOG_ERROR("Cannot remove prop from const style");
  83:Middlewares/LVGL/GUI/lvgl/src/misc/lv_style.c ****         return false;
  84:Middlewares/LVGL/GUI/lvgl/src/misc/lv_style.c ****     }
  85:Middlewares/LVGL/GUI/lvgl/src/misc/lv_style.c **** 
  86:Middlewares/LVGL/GUI/lvgl/src/misc/lv_style.c ****     if(style->prop_cnt == 0)  return false;
 179              		.loc 1 86 5 is_stmt 1 view .LVU32
 180              		.loc 1 86 13 is_stmt 0 view .LVU33
 181 000e C279     		ldrb	r2, [r0, #7]	@ zero_extendqisi2
 182              		.loc 1 86 7 view .LVU34
 183 0010 002A     		cmp	r2, #0
 184 0012 62D0     		beq	.L29
  87:Middlewares/LVGL/GUI/lvgl/src/misc/lv_style.c **** 
  88:Middlewares/LVGL/GUI/lvgl/src/misc/lv_style.c ****     if(style->prop_cnt == 1) {
 185              		.loc 1 88 5 is_stmt 1 view .LVU35
 186              		.loc 1 88 7 is_stmt 0 view .LVU36
 187 0014 012A     		cmp	r2, #1
 188 0016 0BD0     		beq	.L33
  89:Middlewares/LVGL/GUI/lvgl/src/misc/lv_style.c ****         if(style->prop1 == prop) {
  90:Middlewares/LVGL/GUI/lvgl/src/misc/lv_style.c ****             style->prop1 = LV_STYLE_PROP_INV;
  91:Middlewares/LVGL/GUI/lvgl/src/misc/lv_style.c ****             style->prop_cnt = 0;
  92:Middlewares/LVGL/GUI/lvgl/src/misc/lv_style.c ****             return true;
  93:Middlewares/LVGL/GUI/lvgl/src/misc/lv_style.c ****         }
  94:Middlewares/LVGL/GUI/lvgl/src/misc/lv_style.c ****         return false;
  95:Middlewares/LVGL/GUI/lvgl/src/misc/lv_style.c ****     }
  96:Middlewares/LVGL/GUI/lvgl/src/misc/lv_style.c **** 
  97:Middlewares/LVGL/GUI/lvgl/src/misc/lv_style.c ****     uint8_t * tmp = style->v_p.values_and_props + style->prop_cnt * sizeof(lv_style_value_t);
 189              		.loc 1 97 5 is_stmt 1 view .LVU37
 190              		.loc 1 97 31 is_stmt 0 view .LVU38
 191 0018 0768     		ldr	r7, [r0]
ARM GAS  C:\Users\ADMINI~1\AppData\Local\Temp\ccjxskpe.s 			page 6


 192              		.loc 1 97 15 view .LVU39
 193 001a 07EB8206 		add	r6, r7, r2, lsl #2
 194              	.LVL10:
  98:Middlewares/LVGL/GUI/lvgl/src/misc/lv_style.c ****     uint16_t * old_props = (uint16_t *)tmp;
 195              		.loc 1 98 5 is_stmt 1 view .LVU40
  99:Middlewares/LVGL/GUI/lvgl/src/misc/lv_style.c ****     uint32_t i;
 196              		.loc 1 99 5 view .LVU41
 100:Middlewares/LVGL/GUI/lvgl/src/misc/lv_style.c ****     for(i = 0; i < style->prop_cnt; i++) {
 197              		.loc 1 100 5 view .LVU42
 198              		.loc 1 100 11 is_stmt 0 view .LVU43
 199 001e 0023     		movs	r3, #0
 200              	.LVL11:
 201              	.L17:
 202              		.loc 1 100 16 is_stmt 1 discriminator 1 view .LVU44
 203              		.loc 1 100 5 is_stmt 0 discriminator 1 view .LVU45
 204 0020 9A42     		cmp	r2, r3
 205 0022 56D9     		bls	.L34
 101:Middlewares/LVGL/GUI/lvgl/src/misc/lv_style.c ****         if(old_props[i] == prop) {
 206              		.loc 1 101 9 is_stmt 1 view .LVU46
 207              		.loc 1 101 21 is_stmt 0 view .LVU47
 208 0024 36F81310 		ldrh	r1, [r6, r3, lsl #1]
 209              		.loc 1 101 11 view .LVU48
 210 0028 A142     		cmp	r1, r4
 211 002a 10D0     		beq	.L35
 100:Middlewares/LVGL/GUI/lvgl/src/misc/lv_style.c ****     for(i = 0; i < style->prop_cnt; i++) {
 212              		.loc 1 100 37 is_stmt 1 discriminator 2 view .LVU49
 100:Middlewares/LVGL/GUI/lvgl/src/misc/lv_style.c ****     for(i = 0; i < style->prop_cnt; i++) {
 213              		.loc 1 100 38 is_stmt 0 discriminator 2 view .LVU50
 214 002c 0133     		adds	r3, r3, #1
 215              	.LVL12:
 100:Middlewares/LVGL/GUI/lvgl/src/misc/lv_style.c ****     for(i = 0; i < style->prop_cnt; i++) {
 216              		.loc 1 100 38 discriminator 2 view .LVU51
 217 002e F7E7     		b	.L17
 218              	.LVL13:
 219              	.L33:
  89:Middlewares/LVGL/GUI/lvgl/src/misc/lv_style.c ****             style->prop1 = LV_STYLE_PROP_INV;
 220              		.loc 1 89 9 is_stmt 1 view .LVU52
  89:Middlewares/LVGL/GUI/lvgl/src/misc/lv_style.c ****             style->prop1 = LV_STYLE_PROP_INV;
 221              		.loc 1 89 17 is_stmt 0 view .LVU53
 222 0030 8388     		ldrh	r3, [r0, #4]
 223 0032 C3F30E03 		ubfx	r3, r3, #0, #15
  89:Middlewares/LVGL/GUI/lvgl/src/misc/lv_style.c ****             style->prop1 = LV_STYLE_PROP_INV;
 224              		.loc 1 89 11 view .LVU54
 225 0036 8B42     		cmp	r3, r1
 226 0038 01D0     		beq	.L36
  94:Middlewares/LVGL/GUI/lvgl/src/misc/lv_style.c ****     }
 227              		.loc 1 94 16 view .LVU55
 228 003a 0020     		movs	r0, #0
 229              	.LVL14:
  94:Middlewares/LVGL/GUI/lvgl/src/misc/lv_style.c ****     }
 230              		.loc 1 94 16 view .LVU56
 231 003c 4CE0     		b	.L15
 232              	.LVL15:
 233              	.L36:
  90:Middlewares/LVGL/GUI/lvgl/src/misc/lv_style.c ****             style->prop_cnt = 0;
 234              		.loc 1 90 13 is_stmt 1 view .LVU57
  90:Middlewares/LVGL/GUI/lvgl/src/misc/lv_style.c ****             style->prop_cnt = 0;
ARM GAS  C:\Users\ADMINI~1\AppData\Local\Temp\ccjxskpe.s 			page 7


 235              		.loc 1 90 26 is_stmt 0 view .LVU58
 236 003e 8388     		ldrh	r3, [r0, #4]
 237 0040 6FF30E03 		bfc	r3, #0, #15
 238 0044 8380     		strh	r3, [r0, #4]	@ movhi
  91:Middlewares/LVGL/GUI/lvgl/src/misc/lv_style.c ****             return true;
 239              		.loc 1 91 13 is_stmt 1 view .LVU59
  91:Middlewares/LVGL/GUI/lvgl/src/misc/lv_style.c ****             return true;
 240              		.loc 1 91 29 is_stmt 0 view .LVU60
 241 0046 0023     		movs	r3, #0
 242 0048 C371     		strb	r3, [r0, #7]
  92:Middlewares/LVGL/GUI/lvgl/src/misc/lv_style.c ****         }
 243              		.loc 1 92 13 is_stmt 1 view .LVU61
  92:Middlewares/LVGL/GUI/lvgl/src/misc/lv_style.c ****         }
 244              		.loc 1 92 20 is_stmt 0 view .LVU62
 245 004a 0120     		movs	r0, #1
 246              	.LVL16:
  92:Middlewares/LVGL/GUI/lvgl/src/misc/lv_style.c ****         }
 247              		.loc 1 92 20 view .LVU63
 248 004c 44E0     		b	.L15
 249              	.LVL17:
 250              	.L35:
 251              	.LBB14:
 102:Middlewares/LVGL/GUI/lvgl/src/misc/lv_style.c ****             lv_style_value_t * old_values = (lv_style_value_t *)style->v_p.values_and_props;
 252              		.loc 1 102 13 is_stmt 1 view .LVU64
 103:Middlewares/LVGL/GUI/lvgl/src/misc/lv_style.c **** 
 104:Middlewares/LVGL/GUI/lvgl/src/misc/lv_style.c ****             if(style->prop_cnt == 2) {
 253              		.loc 1 104 13 view .LVU65
 254              		.loc 1 104 15 is_stmt 0 view .LVU66
 255 004e 022A     		cmp	r2, #2
 256 0050 11D0     		beq	.L37
 257              	.LBB15:
 105:Middlewares/LVGL/GUI/lvgl/src/misc/lv_style.c ****                 style->prop_cnt = 1;
 106:Middlewares/LVGL/GUI/lvgl/src/misc/lv_style.c ****                 style->prop1 = i == 0 ? old_props[1] : old_props[0];
 107:Middlewares/LVGL/GUI/lvgl/src/misc/lv_style.c ****                 style->v_p.value1 = i == 0 ? old_values[1] : old_values[0];
 108:Middlewares/LVGL/GUI/lvgl/src/misc/lv_style.c ****             }
 109:Middlewares/LVGL/GUI/lvgl/src/misc/lv_style.c ****             else {
 110:Middlewares/LVGL/GUI/lvgl/src/misc/lv_style.c ****                 size_t size = (style->prop_cnt - 1) * (sizeof(lv_style_value_t) + sizeof(uint16_t))
 258              		.loc 1 110 17 is_stmt 1 view .LVU67
 259              		.loc 1 110 48 is_stmt 0 view .LVU68
 260 0052 013A     		subs	r2, r2, #1
 261              		.loc 1 110 24 view .LVU69
 262 0054 02EB4202 		add	r2, r2, r2, lsl #1
 263              	.LVL18:
 111:Middlewares/LVGL/GUI/lvgl/src/misc/lv_style.c ****                 uint8_t * new_values_and_props = lv_mem_alloc(size);
 264              		.loc 1 111 17 is_stmt 1 view .LVU70
 265              		.loc 1 111 50 is_stmt 0 view .LVU71
 266 0058 5000     		lsls	r0, r2, #1
 267              	.LVL19:
 268              		.loc 1 111 50 view .LVU72
 269 005a FFF7FEFF 		bl	lv_mem_alloc
 270              	.LVL20:
 112:Middlewares/LVGL/GUI/lvgl/src/misc/lv_style.c ****                 if(new_values_and_props == NULL) return false;
 271              		.loc 1 112 17 is_stmt 1 view .LVU73
 272              		.loc 1 112 19 is_stmt 0 view .LVU74
 273 005e 8446     		mov	ip, r0
 274 0060 0028     		cmp	r0, #0
 275 0062 3CD0     		beq	.L31
ARM GAS  C:\Users\ADMINI~1\AppData\Local\Temp\ccjxskpe.s 			page 8


 113:Middlewares/LVGL/GUI/lvgl/src/misc/lv_style.c ****                 style->v_p.values_and_props = new_values_and_props;
 276              		.loc 1 113 17 is_stmt 1 view .LVU75
 277              		.loc 1 113 45 is_stmt 0 view .LVU76
 278 0064 2860     		str	r0, [r5]
 114:Middlewares/LVGL/GUI/lvgl/src/misc/lv_style.c ****                 style->prop_cnt--;
 279              		.loc 1 114 17 is_stmt 1 view .LVU77
 280              		.loc 1 114 22 is_stmt 0 view .LVU78
 281 0066 E879     		ldrb	r0, [r5, #7]	@ zero_extendqisi2
 282              	.LVL21:
 283              		.loc 1 114 32 view .LVU79
 284 0068 0138     		subs	r0, r0, #1
 285 006a C0B2     		uxtb	r0, r0
 286 006c E871     		strb	r0, [r5, #7]
 115:Middlewares/LVGL/GUI/lvgl/src/misc/lv_style.c **** 
 116:Middlewares/LVGL/GUI/lvgl/src/misc/lv_style.c ****                 tmp = new_values_and_props + style->prop_cnt * sizeof(lv_style_value_t);
 287              		.loc 1 116 17 is_stmt 1 view .LVU80
 288              		.loc 1 116 62 is_stmt 0 view .LVU81
 289 006e 8000     		lsls	r0, r0, #2
 290              	.LVL22:
 117:Middlewares/LVGL/GUI/lvgl/src/misc/lv_style.c ****                 uint16_t * new_props = (uint16_t *)tmp;
 291              		.loc 1 117 17 is_stmt 1 view .LVU82
 118:Middlewares/LVGL/GUI/lvgl/src/misc/lv_style.c ****                 lv_style_value_t * new_values = (lv_style_value_t *)new_values_and_props;
 292              		.loc 1 118 17 view .LVU83
 119:Middlewares/LVGL/GUI/lvgl/src/misc/lv_style.c **** 
 120:Middlewares/LVGL/GUI/lvgl/src/misc/lv_style.c ****                 uint32_t j;
 293              		.loc 1 120 17 view .LVU84
 121:Middlewares/LVGL/GUI/lvgl/src/misc/lv_style.c ****                 for(i = j = 0; j <= style->prop_cnt;
 294              		.loc 1 121 17 view .LVU85
 295              		.loc 1 121 27 is_stmt 0 view .LVU86
 296 0070 0023     		movs	r3, #0
 297              		.loc 1 121 23 view .LVU87
 298 0072 1A46     		mov	r2, r3
 299              		.loc 1 121 17 view .LVU88
 300 0074 1AE0     		b	.L24
 301              	.LVL23:
 302              	.L37:
 303              		.loc 1 121 17 view .LVU89
 304              	.LBE15:
 105:Middlewares/LVGL/GUI/lvgl/src/misc/lv_style.c ****                 style->prop1 = i == 0 ? old_props[1] : old_props[0];
 305              		.loc 1 105 17 is_stmt 1 view .LVU90
 105:Middlewares/LVGL/GUI/lvgl/src/misc/lv_style.c ****                 style->prop1 = i == 0 ? old_props[1] : old_props[0];
 306              		.loc 1 105 33 is_stmt 0 view .LVU91
 307 0076 0121     		movs	r1, #1
 308 0078 E971     		strb	r1, [r5, #7]
 106:Middlewares/LVGL/GUI/lvgl/src/misc/lv_style.c ****                 style->v_p.value1 = i == 0 ? old_values[1] : old_values[0];
 309              		.loc 1 106 17 is_stmt 1 view .LVU92
 106:Middlewares/LVGL/GUI/lvgl/src/misc/lv_style.c ****                 style->v_p.value1 = i == 0 ? old_values[1] : old_values[0];
 310              		.loc 1 106 54 is_stmt 0 view .LVU93
 311 007a 73B9     		cbnz	r3, .L20
 106:Middlewares/LVGL/GUI/lvgl/src/misc/lv_style.c ****                 style->v_p.value1 = i == 0 ? old_values[1] : old_values[0];
 312              		.loc 1 106 50 discriminator 1 view .LVU94
 313 007c 7288     		ldrh	r2, [r6, #2]
 106:Middlewares/LVGL/GUI/lvgl/src/misc/lv_style.c ****                 style->v_p.value1 = i == 0 ? old_values[1] : old_values[0];
 314              		.loc 1 106 54 discriminator 1 view .LVU95
 315 007e C2F30E02 		ubfx	r2, r2, #0, #15
 316              	.L21:
 106:Middlewares/LVGL/GUI/lvgl/src/misc/lv_style.c ****                 style->v_p.value1 = i == 0 ? old_values[1] : old_values[0];
ARM GAS  C:\Users\ADMINI~1\AppData\Local\Temp\ccjxskpe.s 			page 9


 317              		.loc 1 106 30 discriminator 4 view .LVU96
 318 0082 A988     		ldrh	r1, [r5, #4]
 319 0084 62F30E01 		bfi	r1, r2, #0, #15
 320 0088 A980     		strh	r1, [r5, #4]	@ movhi
 107:Middlewares/LVGL/GUI/lvgl/src/misc/lv_style.c ****             }
 321              		.loc 1 107 17 is_stmt 1 discriminator 4 view .LVU97
 107:Middlewares/LVGL/GUI/lvgl/src/misc/lv_style.c ****             }
 322              		.loc 1 107 35 is_stmt 0 discriminator 4 view .LVU98
 323 008a 5BB9     		cbnz	r3, .L22
 107:Middlewares/LVGL/GUI/lvgl/src/misc/lv_style.c ****             }
 324              		.loc 1 107 35 discriminator 1 view .LVU99
 325 008c 7B68     		ldr	r3, [r7, #4]
 326              	.LVL24:
 107:Middlewares/LVGL/GUI/lvgl/src/misc/lv_style.c ****             }
 327              		.loc 1 107 35 discriminator 1 view .LVU100
 328 008e 2B60     		str	r3, [r5]
 329              	.LVL25:
 330              	.L23:
 122:Middlewares/LVGL/GUI/lvgl/src/misc/lv_style.c ****                     j++) { /*<=: because prop_cnt already reduced but all the old props. needs to b
 123:Middlewares/LVGL/GUI/lvgl/src/misc/lv_style.c ****                     if(old_props[j] != prop) {
 124:Middlewares/LVGL/GUI/lvgl/src/misc/lv_style.c ****                         new_values[i] = old_values[j];
 125:Middlewares/LVGL/GUI/lvgl/src/misc/lv_style.c ****                         new_props[i++] = old_props[j];
 126:Middlewares/LVGL/GUI/lvgl/src/misc/lv_style.c ****                     }
 127:Middlewares/LVGL/GUI/lvgl/src/misc/lv_style.c ****                 }
 128:Middlewares/LVGL/GUI/lvgl/src/misc/lv_style.c ****             }
 129:Middlewares/LVGL/GUI/lvgl/src/misc/lv_style.c **** 
 130:Middlewares/LVGL/GUI/lvgl/src/misc/lv_style.c ****             lv_mem_free(old_values);
 331              		.loc 1 130 13 is_stmt 1 view .LVU101
 332 0090 3846     		mov	r0, r7
 333 0092 FFF7FEFF 		bl	lv_mem_free
 334              	.LVL26:
 131:Middlewares/LVGL/GUI/lvgl/src/misc/lv_style.c ****             return true;
 335              		.loc 1 131 13 view .LVU102
 336              		.loc 1 131 20 is_stmt 0 view .LVU103
 337 0096 0120     		movs	r0, #1
 338 0098 1EE0     		b	.L15
 339              	.LVL27:
 340              	.L20:
 106:Middlewares/LVGL/GUI/lvgl/src/misc/lv_style.c ****                 style->v_p.value1 = i == 0 ? old_values[1] : old_values[0];
 341              		.loc 1 106 65 discriminator 2 view .LVU104
 342 009a 37F82220 		ldrh	r2, [r7, r2, lsl #2]
 106:Middlewares/LVGL/GUI/lvgl/src/misc/lv_style.c ****                 style->v_p.value1 = i == 0 ? old_values[1] : old_values[0];
 343              		.loc 1 106 54 discriminator 2 view .LVU105
 344 009e C2F30E02 		ubfx	r2, r2, #0, #15
 345 00a2 EEE7     		b	.L21
 346              	.L22:
 107:Middlewares/LVGL/GUI/lvgl/src/misc/lv_style.c ****             }
 347              		.loc 1 107 35 discriminator 2 view .LVU106
 348 00a4 3B68     		ldr	r3, [r7]
 349              	.LVL28:
 107:Middlewares/LVGL/GUI/lvgl/src/misc/lv_style.c ****             }
 350              		.loc 1 107 35 discriminator 2 view .LVU107
 351 00a6 2B60     		str	r3, [r5]
 352 00a8 F2E7     		b	.L23
 353              	.LVL29:
 354              	.L25:
 355              	.LBB16:
ARM GAS  C:\Users\ADMINI~1\AppData\Local\Temp\ccjxskpe.s 			page 10


 122:Middlewares/LVGL/GUI/lvgl/src/misc/lv_style.c ****                     if(old_props[j] != prop) {
 356              		.loc 1 122 21 is_stmt 1 view .LVU108
 122:Middlewares/LVGL/GUI/lvgl/src/misc/lv_style.c ****                     if(old_props[j] != prop) {
 357              		.loc 1 122 22 is_stmt 0 view .LVU109
 358 00aa 0133     		adds	r3, r3, #1
 359              	.LVL30:
 360              	.L24:
 121:Middlewares/LVGL/GUI/lvgl/src/misc/lv_style.c ****                     j++) { /*<=: because prop_cnt already reduced but all the old props. needs to b
 361              		.loc 1 121 32 is_stmt 1 discriminator 1 view .LVU110
 121:Middlewares/LVGL/GUI/lvgl/src/misc/lv_style.c ****                     j++) { /*<=: because prop_cnt already reduced but all the old props. needs to b
 362              		.loc 1 121 42 is_stmt 0 discriminator 1 view .LVU111
 363 00ac E979     		ldrb	r1, [r5, #7]	@ zero_extendqisi2
 121:Middlewares/LVGL/GUI/lvgl/src/misc/lv_style.c ****                     j++) { /*<=: because prop_cnt already reduced but all the old props. needs to b
 364              		.loc 1 121 17 discriminator 1 view .LVU112
 365 00ae 9942     		cmp	r1, r3
 366 00b0 EED3     		bcc	.L23
 123:Middlewares/LVGL/GUI/lvgl/src/misc/lv_style.c ****                         new_values[i] = old_values[j];
 367              		.loc 1 123 21 is_stmt 1 view .LVU113
 123:Middlewares/LVGL/GUI/lvgl/src/misc/lv_style.c ****                         new_values[i] = old_values[j];
 368              		.loc 1 123 33 is_stmt 0 view .LVU114
 369 00b2 36F81310 		ldrh	r1, [r6, r3, lsl #1]
 123:Middlewares/LVGL/GUI/lvgl/src/misc/lv_style.c ****                         new_values[i] = old_values[j];
 370              		.loc 1 123 23 view .LVU115
 371 00b6 A142     		cmp	r1, r4
 372 00b8 F7D0     		beq	.L25
 124:Middlewares/LVGL/GUI/lvgl/src/misc/lv_style.c ****                         new_props[i++] = old_props[j];
 373              		.loc 1 124 25 is_stmt 1 view .LVU116
 124:Middlewares/LVGL/GUI/lvgl/src/misc/lv_style.c ****                         new_props[i++] = old_props[j];
 374              		.loc 1 124 39 is_stmt 0 view .LVU117
 375 00ba 57F82310 		ldr	r1, [r7, r3, lsl #2]
 376 00be 4CF82210 		str	r1, [ip, r2, lsl #2]
 125:Middlewares/LVGL/GUI/lvgl/src/misc/lv_style.c ****                     }
 377              		.loc 1 125 25 is_stmt 1 view .LVU118
 378              	.LVL31:
 125:Middlewares/LVGL/GUI/lvgl/src/misc/lv_style.c ****                     }
 379              		.loc 1 125 34 is_stmt 0 view .LVU119
 380 00c2 00EB4201 		add	r1, r0, r2, lsl #1
 125:Middlewares/LVGL/GUI/lvgl/src/misc/lv_style.c ****                     }
 381              		.loc 1 125 51 view .LVU120
 382 00c6 36F813E0 		ldrh	lr, [r6, r3, lsl #1]
 125:Middlewares/LVGL/GUI/lvgl/src/misc/lv_style.c ****                     }
 383              		.loc 1 125 40 view .LVU121
 384 00ca 2CF801E0 		strh	lr, [ip, r1]	@ movhi
 125:Middlewares/LVGL/GUI/lvgl/src/misc/lv_style.c ****                     }
 385              		.loc 1 125 36 view .LVU122
 386 00ce 0132     		adds	r2, r2, #1
 387              	.LVL32:
 125:Middlewares/LVGL/GUI/lvgl/src/misc/lv_style.c ****                     }
 388              		.loc 1 125 36 view .LVU123
 389 00d0 EBE7     		b	.L25
 390              	.LVL33:
 391              	.L34:
 125:Middlewares/LVGL/GUI/lvgl/src/misc/lv_style.c ****                     }
 392              		.loc 1 125 36 view .LVU124
 393              	.LBE16:
 394              	.LBE14:
 132:Middlewares/LVGL/GUI/lvgl/src/misc/lv_style.c ****         }
ARM GAS  C:\Users\ADMINI~1\AppData\Local\Temp\ccjxskpe.s 			page 11


 133:Middlewares/LVGL/GUI/lvgl/src/misc/lv_style.c ****     }
 134:Middlewares/LVGL/GUI/lvgl/src/misc/lv_style.c **** 
 135:Middlewares/LVGL/GUI/lvgl/src/misc/lv_style.c ****     return false;
 395              		.loc 1 135 12 view .LVU125
 396 00d2 0020     		movs	r0, #0
 397              	.LVL34:
 398              		.loc 1 135 12 view .LVU126
 399 00d4 00E0     		b	.L15
 400              	.LVL35:
 401              	.L28:
  83:Middlewares/LVGL/GUI/lvgl/src/misc/lv_style.c ****     }
 402              		.loc 1 83 16 view .LVU127
 403 00d6 0020     		movs	r0, #0
 404              	.LVL36:
 405              	.L15:
 136:Middlewares/LVGL/GUI/lvgl/src/misc/lv_style.c **** }
 406              		.loc 1 136 1 view .LVU128
 407 00d8 F8BD     		pop	{r3, r4, r5, r6, r7, pc}
 408              	.LVL37:
 409              	.L29:
  86:Middlewares/LVGL/GUI/lvgl/src/misc/lv_style.c **** 
 410              		.loc 1 86 38 view .LVU129
 411 00da 0020     		movs	r0, #0
 412              	.LVL38:
  86:Middlewares/LVGL/GUI/lvgl/src/misc/lv_style.c **** 
 413              		.loc 1 86 38 view .LVU130
 414 00dc FCE7     		b	.L15
 415              	.LVL39:
 416              	.L31:
 417              	.LBB18:
 418              	.LBB17:
 112:Middlewares/LVGL/GUI/lvgl/src/misc/lv_style.c ****                 style->v_p.values_and_props = new_values_and_props;
 419              		.loc 1 112 57 view .LVU131
 420 00de 0020     		movs	r0, #0
 421              	.LVL40:
 112:Middlewares/LVGL/GUI/lvgl/src/misc/lv_style.c ****                 style->v_p.values_and_props = new_values_and_props;
 422              		.loc 1 112 57 view .LVU132
 423 00e0 FAE7     		b	.L15
 424              	.LBE17:
 425              	.LBE18:
 426              		.cfi_endproc
 427              	.LFE55:
 429              		.section	.text.lv_style_get_prop,"ax",%progbits
 430              		.align	1
 431              		.global	lv_style_get_prop
 432              		.syntax unified
 433              		.thumb
 434              		.thumb_func
 436              	lv_style_get_prop:
 437              	.LVL41:
 438              	.LFB57:
 137:Middlewares/LVGL/GUI/lvgl/src/misc/lv_style.c **** 
 138:Middlewares/LVGL/GUI/lvgl/src/misc/lv_style.c **** void lv_style_set_prop(lv_style_t * style, lv_style_prop_t prop, lv_style_value_t value)
 139:Middlewares/LVGL/GUI/lvgl/src/misc/lv_style.c **** {
 140:Middlewares/LVGL/GUI/lvgl/src/misc/lv_style.c ****     LV_ASSERT_STYLE(style);
 141:Middlewares/LVGL/GUI/lvgl/src/misc/lv_style.c **** 
 142:Middlewares/LVGL/GUI/lvgl/src/misc/lv_style.c ****     if(style->is_const) {
ARM GAS  C:\Users\ADMINI~1\AppData\Local\Temp\ccjxskpe.s 			page 12


 143:Middlewares/LVGL/GUI/lvgl/src/misc/lv_style.c ****         LV_LOG_ERROR("Cannot set property of constant style");
 144:Middlewares/LVGL/GUI/lvgl/src/misc/lv_style.c ****         return;
 145:Middlewares/LVGL/GUI/lvgl/src/misc/lv_style.c ****     }
 146:Middlewares/LVGL/GUI/lvgl/src/misc/lv_style.c **** 
 147:Middlewares/LVGL/GUI/lvgl/src/misc/lv_style.c ****     if(style->prop_cnt > 1) {
 148:Middlewares/LVGL/GUI/lvgl/src/misc/lv_style.c ****         uint8_t * tmp = style->v_p.values_and_props + style->prop_cnt * sizeof(lv_style_value_t);
 149:Middlewares/LVGL/GUI/lvgl/src/misc/lv_style.c ****         uint16_t * props = (uint16_t *)tmp;
 150:Middlewares/LVGL/GUI/lvgl/src/misc/lv_style.c ****         int32_t i;
 151:Middlewares/LVGL/GUI/lvgl/src/misc/lv_style.c ****         for(i = style->prop_cnt - 1; i >= 0; i--) {
 152:Middlewares/LVGL/GUI/lvgl/src/misc/lv_style.c ****             if(props[i] == prop) {
 153:Middlewares/LVGL/GUI/lvgl/src/misc/lv_style.c ****                 lv_style_value_t * values = (lv_style_value_t *)style->v_p.values_and_props;
 154:Middlewares/LVGL/GUI/lvgl/src/misc/lv_style.c ****                 values[i] = value;
 155:Middlewares/LVGL/GUI/lvgl/src/misc/lv_style.c ****                 return;
 156:Middlewares/LVGL/GUI/lvgl/src/misc/lv_style.c ****             }
 157:Middlewares/LVGL/GUI/lvgl/src/misc/lv_style.c ****         }
 158:Middlewares/LVGL/GUI/lvgl/src/misc/lv_style.c **** 
 159:Middlewares/LVGL/GUI/lvgl/src/misc/lv_style.c ****         size_t size = (style->prop_cnt + 1) * (sizeof(lv_style_value_t) + sizeof(uint16_t));
 160:Middlewares/LVGL/GUI/lvgl/src/misc/lv_style.c ****         uint8_t * values_and_props = lv_mem_realloc(style->v_p.values_and_props, size);
 161:Middlewares/LVGL/GUI/lvgl/src/misc/lv_style.c ****         if(values_and_props == NULL) return;
 162:Middlewares/LVGL/GUI/lvgl/src/misc/lv_style.c ****         style->v_p.values_and_props = values_and_props;
 163:Middlewares/LVGL/GUI/lvgl/src/misc/lv_style.c **** 
 164:Middlewares/LVGL/GUI/lvgl/src/misc/lv_style.c ****         tmp = values_and_props + style->prop_cnt * sizeof(lv_style_value_t);
 165:Middlewares/LVGL/GUI/lvgl/src/misc/lv_style.c ****         props = (uint16_t *)tmp;
 166:Middlewares/LVGL/GUI/lvgl/src/misc/lv_style.c ****         /*Shift all props to make place for the value before them*/
 167:Middlewares/LVGL/GUI/lvgl/src/misc/lv_style.c ****         for(i = style->prop_cnt - 1; i >= 0; i--) {
 168:Middlewares/LVGL/GUI/lvgl/src/misc/lv_style.c ****             props[i + sizeof(lv_style_value_t) / sizeof(uint16_t)] = props[i];
 169:Middlewares/LVGL/GUI/lvgl/src/misc/lv_style.c ****         }
 170:Middlewares/LVGL/GUI/lvgl/src/misc/lv_style.c ****         style->prop_cnt++;
 171:Middlewares/LVGL/GUI/lvgl/src/misc/lv_style.c **** 
 172:Middlewares/LVGL/GUI/lvgl/src/misc/lv_style.c ****         /*Go to the new position wit the props*/
 173:Middlewares/LVGL/GUI/lvgl/src/misc/lv_style.c ****         tmp = values_and_props + style->prop_cnt * sizeof(lv_style_value_t);
 174:Middlewares/LVGL/GUI/lvgl/src/misc/lv_style.c ****         props = (uint16_t *)tmp;
 175:Middlewares/LVGL/GUI/lvgl/src/misc/lv_style.c ****         lv_style_value_t * values = (lv_style_value_t *)values_and_props;
 176:Middlewares/LVGL/GUI/lvgl/src/misc/lv_style.c **** 
 177:Middlewares/LVGL/GUI/lvgl/src/misc/lv_style.c ****         /*Set the new property and value*/
 178:Middlewares/LVGL/GUI/lvgl/src/misc/lv_style.c ****         props[style->prop_cnt - 1] = prop;
 179:Middlewares/LVGL/GUI/lvgl/src/misc/lv_style.c ****         values[style->prop_cnt - 1] = value;
 180:Middlewares/LVGL/GUI/lvgl/src/misc/lv_style.c ****     }
 181:Middlewares/LVGL/GUI/lvgl/src/misc/lv_style.c ****     else if(style->prop_cnt == 1) {
 182:Middlewares/LVGL/GUI/lvgl/src/misc/lv_style.c ****         if(style->prop1 == prop) {
 183:Middlewares/LVGL/GUI/lvgl/src/misc/lv_style.c ****             style->v_p.value1 = value;
 184:Middlewares/LVGL/GUI/lvgl/src/misc/lv_style.c ****             return;
 185:Middlewares/LVGL/GUI/lvgl/src/misc/lv_style.c ****         }
 186:Middlewares/LVGL/GUI/lvgl/src/misc/lv_style.c ****         size_t size = (style->prop_cnt + 1) * (sizeof(lv_style_value_t) + sizeof(uint16_t));
 187:Middlewares/LVGL/GUI/lvgl/src/misc/lv_style.c ****         uint8_t * values_and_props = lv_mem_alloc(size);
 188:Middlewares/LVGL/GUI/lvgl/src/misc/lv_style.c ****         if(values_and_props == NULL) return;
 189:Middlewares/LVGL/GUI/lvgl/src/misc/lv_style.c ****         lv_style_value_t value_tmp = style->v_p.value1;
 190:Middlewares/LVGL/GUI/lvgl/src/misc/lv_style.c ****         style->v_p.values_and_props = values_and_props;
 191:Middlewares/LVGL/GUI/lvgl/src/misc/lv_style.c ****         style->prop_cnt++;
 192:Middlewares/LVGL/GUI/lvgl/src/misc/lv_style.c **** 
 193:Middlewares/LVGL/GUI/lvgl/src/misc/lv_style.c ****         uint8_t * tmp = values_and_props + style->prop_cnt * sizeof(lv_style_value_t);
 194:Middlewares/LVGL/GUI/lvgl/src/misc/lv_style.c ****         uint16_t * props = (uint16_t *)tmp;
 195:Middlewares/LVGL/GUI/lvgl/src/misc/lv_style.c ****         lv_style_value_t * values = (lv_style_value_t *)values_and_props;
 196:Middlewares/LVGL/GUI/lvgl/src/misc/lv_style.c ****         props[0] = style->prop1;
 197:Middlewares/LVGL/GUI/lvgl/src/misc/lv_style.c ****         props[1] = prop;
 198:Middlewares/LVGL/GUI/lvgl/src/misc/lv_style.c ****         values[0] = value_tmp;
 199:Middlewares/LVGL/GUI/lvgl/src/misc/lv_style.c ****         values[1] = value;
ARM GAS  C:\Users\ADMINI~1\AppData\Local\Temp\ccjxskpe.s 			page 13


 200:Middlewares/LVGL/GUI/lvgl/src/misc/lv_style.c ****     }
 201:Middlewares/LVGL/GUI/lvgl/src/misc/lv_style.c ****     else {
 202:Middlewares/LVGL/GUI/lvgl/src/misc/lv_style.c ****         style->prop_cnt = 1;
 203:Middlewares/LVGL/GUI/lvgl/src/misc/lv_style.c ****         style->prop1 = prop;
 204:Middlewares/LVGL/GUI/lvgl/src/misc/lv_style.c ****         style->v_p.value1 = value;
 205:Middlewares/LVGL/GUI/lvgl/src/misc/lv_style.c ****     }
 206:Middlewares/LVGL/GUI/lvgl/src/misc/lv_style.c **** 
 207:Middlewares/LVGL/GUI/lvgl/src/misc/lv_style.c ****     uint8_t group = _lv_style_get_prop_group(prop);
 208:Middlewares/LVGL/GUI/lvgl/src/misc/lv_style.c ****     style->has_group |= 1 << group;
 209:Middlewares/LVGL/GUI/lvgl/src/misc/lv_style.c **** }
 210:Middlewares/LVGL/GUI/lvgl/src/misc/lv_style.c **** 
 211:Middlewares/LVGL/GUI/lvgl/src/misc/lv_style.c **** lv_res_t lv_style_get_prop(const lv_style_t * style, lv_style_prop_t prop, lv_style_value_t * value
 212:Middlewares/LVGL/GUI/lvgl/src/misc/lv_style.c **** {
 439              		.loc 1 212 1 is_stmt 1 view -0
 440              		.cfi_startproc
 441              		@ args = 0, pretend = 0, frame = 0
 442              		@ frame_needed = 0, uses_anonymous_args = 0
 443              		.loc 1 212 1 is_stmt 0 view .LVU134
 444 0000 0346     		mov	r3, r0
 213:Middlewares/LVGL/GUI/lvgl/src/misc/lv_style.c ****     return lv_style_get_prop_inlined(style, prop, value);
 445              		.loc 1 213 5 is_stmt 1 view .LVU135
 446              	.LVL42:
 447              	.LBB24:
 448              	.LBI24:
 449              		.file 2 "Middlewares/LVGL/GUI/lvgl/src/misc/lv_style.h"
   1:Middlewares/LVGL/GUI/lvgl/src/misc/lv_style.h **** /**
   2:Middlewares/LVGL/GUI/lvgl/src/misc/lv_style.h ****  * @file lv_style.h
   3:Middlewares/LVGL/GUI/lvgl/src/misc/lv_style.h ****  *
   4:Middlewares/LVGL/GUI/lvgl/src/misc/lv_style.h ****  */
   5:Middlewares/LVGL/GUI/lvgl/src/misc/lv_style.h **** 
   6:Middlewares/LVGL/GUI/lvgl/src/misc/lv_style.h **** #ifndef LV_STYLE_H
   7:Middlewares/LVGL/GUI/lvgl/src/misc/lv_style.h **** #define LV_STYLE_H
   8:Middlewares/LVGL/GUI/lvgl/src/misc/lv_style.h **** 
   9:Middlewares/LVGL/GUI/lvgl/src/misc/lv_style.h **** #ifdef __cplusplus
  10:Middlewares/LVGL/GUI/lvgl/src/misc/lv_style.h **** extern "C" {
  11:Middlewares/LVGL/GUI/lvgl/src/misc/lv_style.h **** #endif
  12:Middlewares/LVGL/GUI/lvgl/src/misc/lv_style.h **** 
  13:Middlewares/LVGL/GUI/lvgl/src/misc/lv_style.h **** /*********************
  14:Middlewares/LVGL/GUI/lvgl/src/misc/lv_style.h ****  *      INCLUDES
  15:Middlewares/LVGL/GUI/lvgl/src/misc/lv_style.h ****  *********************/
  16:Middlewares/LVGL/GUI/lvgl/src/misc/lv_style.h **** #include <stdbool.h>
  17:Middlewares/LVGL/GUI/lvgl/src/misc/lv_style.h **** #include <stdint.h>
  18:Middlewares/LVGL/GUI/lvgl/src/misc/lv_style.h **** #include "../font/lv_font.h"
  19:Middlewares/LVGL/GUI/lvgl/src/misc/lv_style.h **** #include "lv_color.h"
  20:Middlewares/LVGL/GUI/lvgl/src/misc/lv_style.h **** #include "lv_area.h"
  21:Middlewares/LVGL/GUI/lvgl/src/misc/lv_style.h **** #include "lv_anim.h"
  22:Middlewares/LVGL/GUI/lvgl/src/misc/lv_style.h **** #include "lv_txt.h"
  23:Middlewares/LVGL/GUI/lvgl/src/misc/lv_style.h **** #include "lv_types.h"
  24:Middlewares/LVGL/GUI/lvgl/src/misc/lv_style.h **** #include "lv_assert.h"
  25:Middlewares/LVGL/GUI/lvgl/src/misc/lv_style.h **** #include "lv_bidi.h"
  26:Middlewares/LVGL/GUI/lvgl/src/misc/lv_style.h **** 
  27:Middlewares/LVGL/GUI/lvgl/src/misc/lv_style.h **** /*********************
  28:Middlewares/LVGL/GUI/lvgl/src/misc/lv_style.h ****  *      DEFINES
  29:Middlewares/LVGL/GUI/lvgl/src/misc/lv_style.h ****  *********************/
  30:Middlewares/LVGL/GUI/lvgl/src/misc/lv_style.h **** 
  31:Middlewares/LVGL/GUI/lvgl/src/misc/lv_style.h **** #define LV_STYLE_SENTINEL_VALUE     0xAABBCCDD
  32:Middlewares/LVGL/GUI/lvgl/src/misc/lv_style.h **** 
ARM GAS  C:\Users\ADMINI~1\AppData\Local\Temp\ccjxskpe.s 			page 14


  33:Middlewares/LVGL/GUI/lvgl/src/misc/lv_style.h **** /**
  34:Middlewares/LVGL/GUI/lvgl/src/misc/lv_style.h ****  * Flags for style properties
  35:Middlewares/LVGL/GUI/lvgl/src/misc/lv_style.h ****  */
  36:Middlewares/LVGL/GUI/lvgl/src/misc/lv_style.h **** #define LV_STYLE_PROP_INHERIT               (1 << 10)  /*Inherited*/
  37:Middlewares/LVGL/GUI/lvgl/src/misc/lv_style.h **** #define LV_STYLE_PROP_EXT_DRAW              (1 << 11)  /*Requires ext. draw size update when change
  38:Middlewares/LVGL/GUI/lvgl/src/misc/lv_style.h **** #define LV_STYLE_PROP_LAYOUT_REFR           (1 << 12)  /*Requires layout update when changed*/
  39:Middlewares/LVGL/GUI/lvgl/src/misc/lv_style.h **** #define LV_STYLE_PROP_PARENT_LAYOUT_REFR    (1 << 13)  /*Requires layout update on parent when chan
  40:Middlewares/LVGL/GUI/lvgl/src/misc/lv_style.h **** #define LV_STYLE_PROP_FILTER                (1 << 14)  /*Apply color filter*/
  41:Middlewares/LVGL/GUI/lvgl/src/misc/lv_style.h **** 
  42:Middlewares/LVGL/GUI/lvgl/src/misc/lv_style.h **** /**
  43:Middlewares/LVGL/GUI/lvgl/src/misc/lv_style.h ****  * Other constants
  44:Middlewares/LVGL/GUI/lvgl/src/misc/lv_style.h ****  */
  45:Middlewares/LVGL/GUI/lvgl/src/misc/lv_style.h **** #define LV_IMG_ZOOM_NONE            256        /*Value for not zooming the image*/
  46:Middlewares/LVGL/GUI/lvgl/src/misc/lv_style.h **** LV_EXPORT_CONST_INT(LV_IMG_ZOOM_NONE);
  47:Middlewares/LVGL/GUI/lvgl/src/misc/lv_style.h **** 
  48:Middlewares/LVGL/GUI/lvgl/src/misc/lv_style.h **** #if LV_USE_ASSERT_STYLE
  49:Middlewares/LVGL/GUI/lvgl/src/misc/lv_style.h **** #define LV_STYLE_CONST_INIT(var_name, prop_array) const lv_style_t var_name = { .sentinel = LV_STYL
  50:Middlewares/LVGL/GUI/lvgl/src/misc/lv_style.h **** #else
  51:Middlewares/LVGL/GUI/lvgl/src/misc/lv_style.h **** #define LV_STYLE_CONST_INIT(var_name, prop_array) const lv_style_t var_name = { .v_p = { .const_pro
  52:Middlewares/LVGL/GUI/lvgl/src/misc/lv_style.h **** #endif
  53:Middlewares/LVGL/GUI/lvgl/src/misc/lv_style.h **** 
  54:Middlewares/LVGL/GUI/lvgl/src/misc/lv_style.h **** /** On simple system, don't waste resources on gradients */
  55:Middlewares/LVGL/GUI/lvgl/src/misc/lv_style.h **** #if !defined(LV_DRAW_COMPLEX) || !defined(LV_GRADIENT_MAX_STOPS)
  56:Middlewares/LVGL/GUI/lvgl/src/misc/lv_style.h **** #define LV_GRADIENT_MAX_STOPS 2
  57:Middlewares/LVGL/GUI/lvgl/src/misc/lv_style.h **** #endif
  58:Middlewares/LVGL/GUI/lvgl/src/misc/lv_style.h **** 
  59:Middlewares/LVGL/GUI/lvgl/src/misc/lv_style.h **** 
  60:Middlewares/LVGL/GUI/lvgl/src/misc/lv_style.h **** /**********************
  61:Middlewares/LVGL/GUI/lvgl/src/misc/lv_style.h ****  *      TYPEDEFS
  62:Middlewares/LVGL/GUI/lvgl/src/misc/lv_style.h ****  **********************/
  63:Middlewares/LVGL/GUI/lvgl/src/misc/lv_style.h **** 
  64:Middlewares/LVGL/GUI/lvgl/src/misc/lv_style.h **** /**
  65:Middlewares/LVGL/GUI/lvgl/src/misc/lv_style.h ****  * Possible options how to blend opaque drawings
  66:Middlewares/LVGL/GUI/lvgl/src/misc/lv_style.h ****  */
  67:Middlewares/LVGL/GUI/lvgl/src/misc/lv_style.h **** enum {
  68:Middlewares/LVGL/GUI/lvgl/src/misc/lv_style.h ****     LV_BLEND_MODE_NORMAL,     /**< Simply mix according to the opacity value*/
  69:Middlewares/LVGL/GUI/lvgl/src/misc/lv_style.h ****     LV_BLEND_MODE_ADDITIVE,   /**< Add the respective color channels*/
  70:Middlewares/LVGL/GUI/lvgl/src/misc/lv_style.h ****     LV_BLEND_MODE_SUBTRACTIVE,/**< Subtract the foreground from the background*/
  71:Middlewares/LVGL/GUI/lvgl/src/misc/lv_style.h ****     LV_BLEND_MODE_MULTIPLY,   /**< Multiply the foreground and background*/
  72:Middlewares/LVGL/GUI/lvgl/src/misc/lv_style.h ****     LV_BLEND_MODE_REPLACE,    /**< Replace background with foreground in the area*/
  73:Middlewares/LVGL/GUI/lvgl/src/misc/lv_style.h **** };
  74:Middlewares/LVGL/GUI/lvgl/src/misc/lv_style.h **** 
  75:Middlewares/LVGL/GUI/lvgl/src/misc/lv_style.h **** typedef uint8_t lv_blend_mode_t;
  76:Middlewares/LVGL/GUI/lvgl/src/misc/lv_style.h **** 
  77:Middlewares/LVGL/GUI/lvgl/src/misc/lv_style.h **** /**
  78:Middlewares/LVGL/GUI/lvgl/src/misc/lv_style.h ****  * Some options to apply decorations on texts.
  79:Middlewares/LVGL/GUI/lvgl/src/misc/lv_style.h ****  * 'OR'ed values can be used.
  80:Middlewares/LVGL/GUI/lvgl/src/misc/lv_style.h ****  */
  81:Middlewares/LVGL/GUI/lvgl/src/misc/lv_style.h **** enum {
  82:Middlewares/LVGL/GUI/lvgl/src/misc/lv_style.h ****     LV_TEXT_DECOR_NONE          = 0x00,
  83:Middlewares/LVGL/GUI/lvgl/src/misc/lv_style.h ****     LV_TEXT_DECOR_UNDERLINE     = 0x01,
  84:Middlewares/LVGL/GUI/lvgl/src/misc/lv_style.h ****     LV_TEXT_DECOR_STRIKETHROUGH = 0x02,
  85:Middlewares/LVGL/GUI/lvgl/src/misc/lv_style.h **** };
  86:Middlewares/LVGL/GUI/lvgl/src/misc/lv_style.h **** 
  87:Middlewares/LVGL/GUI/lvgl/src/misc/lv_style.h **** typedef uint8_t lv_text_decor_t;
  88:Middlewares/LVGL/GUI/lvgl/src/misc/lv_style.h **** 
  89:Middlewares/LVGL/GUI/lvgl/src/misc/lv_style.h **** /**
ARM GAS  C:\Users\ADMINI~1\AppData\Local\Temp\ccjxskpe.s 			page 15


  90:Middlewares/LVGL/GUI/lvgl/src/misc/lv_style.h ****  * Selects on which sides border should be drawn
  91:Middlewares/LVGL/GUI/lvgl/src/misc/lv_style.h ****  * 'OR'ed values can be used.
  92:Middlewares/LVGL/GUI/lvgl/src/misc/lv_style.h ****  */
  93:Middlewares/LVGL/GUI/lvgl/src/misc/lv_style.h **** enum {
  94:Middlewares/LVGL/GUI/lvgl/src/misc/lv_style.h ****     LV_BORDER_SIDE_NONE     = 0x00,
  95:Middlewares/LVGL/GUI/lvgl/src/misc/lv_style.h ****     LV_BORDER_SIDE_BOTTOM   = 0x01,
  96:Middlewares/LVGL/GUI/lvgl/src/misc/lv_style.h ****     LV_BORDER_SIDE_TOP      = 0x02,
  97:Middlewares/LVGL/GUI/lvgl/src/misc/lv_style.h ****     LV_BORDER_SIDE_LEFT     = 0x04,
  98:Middlewares/LVGL/GUI/lvgl/src/misc/lv_style.h ****     LV_BORDER_SIDE_RIGHT    = 0x08,
  99:Middlewares/LVGL/GUI/lvgl/src/misc/lv_style.h ****     LV_BORDER_SIDE_FULL     = 0x0F,
 100:Middlewares/LVGL/GUI/lvgl/src/misc/lv_style.h ****     LV_BORDER_SIDE_INTERNAL = 0x10, /**< FOR matrix-like objects (e.g. Button matrix)*/
 101:Middlewares/LVGL/GUI/lvgl/src/misc/lv_style.h **** };
 102:Middlewares/LVGL/GUI/lvgl/src/misc/lv_style.h **** typedef uint8_t lv_border_side_t;
 103:Middlewares/LVGL/GUI/lvgl/src/misc/lv_style.h **** 
 104:Middlewares/LVGL/GUI/lvgl/src/misc/lv_style.h **** /**
 105:Middlewares/LVGL/GUI/lvgl/src/misc/lv_style.h ****  * The direction of the gradient.
 106:Middlewares/LVGL/GUI/lvgl/src/misc/lv_style.h ****  */
 107:Middlewares/LVGL/GUI/lvgl/src/misc/lv_style.h **** enum {
 108:Middlewares/LVGL/GUI/lvgl/src/misc/lv_style.h ****     LV_GRAD_DIR_NONE, /**< No gradient (the `grad_color` property is ignored)*/
 109:Middlewares/LVGL/GUI/lvgl/src/misc/lv_style.h ****     LV_GRAD_DIR_VER,  /**< Vertical (top to bottom) gradient*/
 110:Middlewares/LVGL/GUI/lvgl/src/misc/lv_style.h ****     LV_GRAD_DIR_HOR,  /**< Horizontal (left to right) gradient*/
 111:Middlewares/LVGL/GUI/lvgl/src/misc/lv_style.h **** };
 112:Middlewares/LVGL/GUI/lvgl/src/misc/lv_style.h **** 
 113:Middlewares/LVGL/GUI/lvgl/src/misc/lv_style.h **** typedef uint8_t lv_grad_dir_t;
 114:Middlewares/LVGL/GUI/lvgl/src/misc/lv_style.h **** 
 115:Middlewares/LVGL/GUI/lvgl/src/misc/lv_style.h **** /**
 116:Middlewares/LVGL/GUI/lvgl/src/misc/lv_style.h ****  * The dithering algorithm for the gradient
 117:Middlewares/LVGL/GUI/lvgl/src/misc/lv_style.h ****  * Depends on LV_DITHER_GRADIENT
 118:Middlewares/LVGL/GUI/lvgl/src/misc/lv_style.h ****  */
 119:Middlewares/LVGL/GUI/lvgl/src/misc/lv_style.h **** enum {
 120:Middlewares/LVGL/GUI/lvgl/src/misc/lv_style.h ****     LV_DITHER_NONE,     /**< No dithering, colors are just quantized to the output resolution*/
 121:Middlewares/LVGL/GUI/lvgl/src/misc/lv_style.h ****     LV_DITHER_ORDERED,  /**< Ordered dithering. Faster to compute and use less memory but lower qua
 122:Middlewares/LVGL/GUI/lvgl/src/misc/lv_style.h ****     LV_DITHER_ERR_DIFF, /**< Error diffusion mode. Slower to compute and use more memory but give h
 123:Middlewares/LVGL/GUI/lvgl/src/misc/lv_style.h **** };
 124:Middlewares/LVGL/GUI/lvgl/src/misc/lv_style.h **** 
 125:Middlewares/LVGL/GUI/lvgl/src/misc/lv_style.h **** typedef uint8_t lv_dither_mode_t;
 126:Middlewares/LVGL/GUI/lvgl/src/misc/lv_style.h **** 
 127:Middlewares/LVGL/GUI/lvgl/src/misc/lv_style.h **** /** A gradient stop definition.
 128:Middlewares/LVGL/GUI/lvgl/src/misc/lv_style.h ****  *  This matches a color and a position in a virtual 0-255 scale.
 129:Middlewares/LVGL/GUI/lvgl/src/misc/lv_style.h ****  */
 130:Middlewares/LVGL/GUI/lvgl/src/misc/lv_style.h **** typedef struct {
 131:Middlewares/LVGL/GUI/lvgl/src/misc/lv_style.h ****     lv_color_t color;   /**< The stop color */
 132:Middlewares/LVGL/GUI/lvgl/src/misc/lv_style.h ****     uint8_t    frac;    /**< The stop position in 1/255 unit */
 133:Middlewares/LVGL/GUI/lvgl/src/misc/lv_style.h **** } lv_gradient_stop_t;
 134:Middlewares/LVGL/GUI/lvgl/src/misc/lv_style.h **** 
 135:Middlewares/LVGL/GUI/lvgl/src/misc/lv_style.h **** /** A descriptor of a gradient. */
 136:Middlewares/LVGL/GUI/lvgl/src/misc/lv_style.h **** typedef struct {
 137:Middlewares/LVGL/GUI/lvgl/src/misc/lv_style.h ****     lv_gradient_stop_t   stops[LV_GRADIENT_MAX_STOPS]; /**< A gradient stop array */
 138:Middlewares/LVGL/GUI/lvgl/src/misc/lv_style.h ****     uint8_t              stops_count;                  /**< The number of used stops in the array *
 139:Middlewares/LVGL/GUI/lvgl/src/misc/lv_style.h ****     lv_grad_dir_t        dir : 3;                      /**< The gradient direction.
 140:Middlewares/LVGL/GUI/lvgl/src/misc/lv_style.h ****                                                         * Any of LV_GRAD_DIR_HOR, LV_GRAD_DIR_VER, 
 141:Middlewares/LVGL/GUI/lvgl/src/misc/lv_style.h ****     lv_dither_mode_t     dither : 3;                   /**< Whether to dither the gradient or not.
 142:Middlewares/LVGL/GUI/lvgl/src/misc/lv_style.h ****                                                         * Any of LV_DITHER_NONE, LV_DITHER_ORDERED,
 143:Middlewares/LVGL/GUI/lvgl/src/misc/lv_style.h **** } lv_grad_dsc_t;
 144:Middlewares/LVGL/GUI/lvgl/src/misc/lv_style.h **** 
 145:Middlewares/LVGL/GUI/lvgl/src/misc/lv_style.h **** /**
 146:Middlewares/LVGL/GUI/lvgl/src/misc/lv_style.h ****  * A common type to handle all the property types in the same way.
ARM GAS  C:\Users\ADMINI~1\AppData\Local\Temp\ccjxskpe.s 			page 16


 147:Middlewares/LVGL/GUI/lvgl/src/misc/lv_style.h ****  */
 148:Middlewares/LVGL/GUI/lvgl/src/misc/lv_style.h **** typedef union {
 149:Middlewares/LVGL/GUI/lvgl/src/misc/lv_style.h ****     int32_t num;         /**< Number integer number (opacity, enums, booleans or "normal" numbers)*
 150:Middlewares/LVGL/GUI/lvgl/src/misc/lv_style.h ****     const void * ptr;    /**< Constant pointers  (font, cone text, etc)*/
 151:Middlewares/LVGL/GUI/lvgl/src/misc/lv_style.h ****     lv_color_t color;    /**< Colors*/
 152:Middlewares/LVGL/GUI/lvgl/src/misc/lv_style.h **** } lv_style_value_t;
 153:Middlewares/LVGL/GUI/lvgl/src/misc/lv_style.h **** 
 154:Middlewares/LVGL/GUI/lvgl/src/misc/lv_style.h **** /**
 155:Middlewares/LVGL/GUI/lvgl/src/misc/lv_style.h ****  * Enumeration of all built in style properties
 156:Middlewares/LVGL/GUI/lvgl/src/misc/lv_style.h ****  */
 157:Middlewares/LVGL/GUI/lvgl/src/misc/lv_style.h **** typedef enum {
 158:Middlewares/LVGL/GUI/lvgl/src/misc/lv_style.h ****     LV_STYLE_PROP_INV                = 0,
 159:Middlewares/LVGL/GUI/lvgl/src/misc/lv_style.h **** 
 160:Middlewares/LVGL/GUI/lvgl/src/misc/lv_style.h ****     /*Group 0*/
 161:Middlewares/LVGL/GUI/lvgl/src/misc/lv_style.h ****     LV_STYLE_WIDTH                   = 1 | LV_STYLE_PROP_LAYOUT_REFR,
 162:Middlewares/LVGL/GUI/lvgl/src/misc/lv_style.h ****     LV_STYLE_MIN_WIDTH               = 2 | LV_STYLE_PROP_LAYOUT_REFR,
 163:Middlewares/LVGL/GUI/lvgl/src/misc/lv_style.h ****     LV_STYLE_MAX_WIDTH               = 3 | LV_STYLE_PROP_LAYOUT_REFR,
 164:Middlewares/LVGL/GUI/lvgl/src/misc/lv_style.h ****     LV_STYLE_HEIGHT                  = 4 | LV_STYLE_PROP_LAYOUT_REFR,
 165:Middlewares/LVGL/GUI/lvgl/src/misc/lv_style.h ****     LV_STYLE_MIN_HEIGHT              = 5 | LV_STYLE_PROP_LAYOUT_REFR,
 166:Middlewares/LVGL/GUI/lvgl/src/misc/lv_style.h ****     LV_STYLE_MAX_HEIGHT              = 6 | LV_STYLE_PROP_LAYOUT_REFR,
 167:Middlewares/LVGL/GUI/lvgl/src/misc/lv_style.h ****     LV_STYLE_X                       = 7 | LV_STYLE_PROP_LAYOUT_REFR,
 168:Middlewares/LVGL/GUI/lvgl/src/misc/lv_style.h ****     LV_STYLE_Y                       = 8 | LV_STYLE_PROP_LAYOUT_REFR,
 169:Middlewares/LVGL/GUI/lvgl/src/misc/lv_style.h ****     LV_STYLE_ALIGN                   = 9 | LV_STYLE_PROP_LAYOUT_REFR,
 170:Middlewares/LVGL/GUI/lvgl/src/misc/lv_style.h ****     LV_STYLE_TRANSFORM_WIDTH         = 10 | LV_STYLE_PROP_EXT_DRAW,
 171:Middlewares/LVGL/GUI/lvgl/src/misc/lv_style.h ****     LV_STYLE_TRANSFORM_HEIGHT        = 11 | LV_STYLE_PROP_EXT_DRAW,
 172:Middlewares/LVGL/GUI/lvgl/src/misc/lv_style.h ****     LV_STYLE_TRANSLATE_X             = 12 | LV_STYLE_PROP_LAYOUT_REFR | LV_STYLE_PROP_PARENT_LAYOUT
 173:Middlewares/LVGL/GUI/lvgl/src/misc/lv_style.h ****     LV_STYLE_TRANSLATE_Y             = 13 | LV_STYLE_PROP_LAYOUT_REFR | LV_STYLE_PROP_PARENT_LAYOUT
 174:Middlewares/LVGL/GUI/lvgl/src/misc/lv_style.h ****     LV_STYLE_TRANSFORM_ZOOM          = 14 | LV_STYLE_PROP_EXT_DRAW | LV_STYLE_PROP_LAYOUT_REFR | LV
 175:Middlewares/LVGL/GUI/lvgl/src/misc/lv_style.h ****     LV_STYLE_TRANSFORM_ANGLE         = 15 | LV_STYLE_PROP_EXT_DRAW | LV_STYLE_PROP_LAYOUT_REFR | LV
 176:Middlewares/LVGL/GUI/lvgl/src/misc/lv_style.h **** 
 177:Middlewares/LVGL/GUI/lvgl/src/misc/lv_style.h ****     /*Group 1*/
 178:Middlewares/LVGL/GUI/lvgl/src/misc/lv_style.h ****     LV_STYLE_PAD_TOP                 = 16 | LV_STYLE_PROP_EXT_DRAW | LV_STYLE_PROP_LAYOUT_REFR,
 179:Middlewares/LVGL/GUI/lvgl/src/misc/lv_style.h ****     LV_STYLE_PAD_BOTTOM              = 17 | LV_STYLE_PROP_EXT_DRAW | LV_STYLE_PROP_LAYOUT_REFR,
 180:Middlewares/LVGL/GUI/lvgl/src/misc/lv_style.h ****     LV_STYLE_PAD_LEFT                = 18 | LV_STYLE_PROP_EXT_DRAW | LV_STYLE_PROP_LAYOUT_REFR,
 181:Middlewares/LVGL/GUI/lvgl/src/misc/lv_style.h ****     LV_STYLE_PAD_RIGHT               = 19 | LV_STYLE_PROP_EXT_DRAW | LV_STYLE_PROP_LAYOUT_REFR,
 182:Middlewares/LVGL/GUI/lvgl/src/misc/lv_style.h ****     LV_STYLE_PAD_ROW                 = 20 | LV_STYLE_PROP_EXT_DRAW | LV_STYLE_PROP_LAYOUT_REFR,
 183:Middlewares/LVGL/GUI/lvgl/src/misc/lv_style.h ****     LV_STYLE_PAD_COLUMN              = 21 | LV_STYLE_PROP_EXT_DRAW | LV_STYLE_PROP_LAYOUT_REFR,
 184:Middlewares/LVGL/GUI/lvgl/src/misc/lv_style.h **** 
 185:Middlewares/LVGL/GUI/lvgl/src/misc/lv_style.h ****     /*Group 2*/
 186:Middlewares/LVGL/GUI/lvgl/src/misc/lv_style.h ****     LV_STYLE_BG_COLOR                = 32,
 187:Middlewares/LVGL/GUI/lvgl/src/misc/lv_style.h ****     LV_STYLE_BG_COLOR_FILTERED       = 32 | LV_STYLE_PROP_FILTER,
 188:Middlewares/LVGL/GUI/lvgl/src/misc/lv_style.h ****     LV_STYLE_BG_OPA                  = 33,
 189:Middlewares/LVGL/GUI/lvgl/src/misc/lv_style.h ****     LV_STYLE_BG_GRAD_COLOR           = 34,
 190:Middlewares/LVGL/GUI/lvgl/src/misc/lv_style.h ****     LV_STYLE_BG_GRAD_COLOR_FILTERED  = 34 | LV_STYLE_PROP_FILTER,
 191:Middlewares/LVGL/GUI/lvgl/src/misc/lv_style.h ****     LV_STYLE_BG_GRAD_DIR             = 35,
 192:Middlewares/LVGL/GUI/lvgl/src/misc/lv_style.h ****     LV_STYLE_BG_MAIN_STOP            = 36,
 193:Middlewares/LVGL/GUI/lvgl/src/misc/lv_style.h ****     LV_STYLE_BG_GRAD_STOP            = 37,
 194:Middlewares/LVGL/GUI/lvgl/src/misc/lv_style.h ****     LV_STYLE_BG_GRAD                 = 38,
 195:Middlewares/LVGL/GUI/lvgl/src/misc/lv_style.h ****     LV_STYLE_BG_DITHER_MODE          = 39,
 196:Middlewares/LVGL/GUI/lvgl/src/misc/lv_style.h **** 
 197:Middlewares/LVGL/GUI/lvgl/src/misc/lv_style.h **** 
 198:Middlewares/LVGL/GUI/lvgl/src/misc/lv_style.h ****     LV_STYLE_BG_IMG_SRC              = 40 | LV_STYLE_PROP_EXT_DRAW,
 199:Middlewares/LVGL/GUI/lvgl/src/misc/lv_style.h ****     LV_STYLE_BG_IMG_OPA              = 41,
 200:Middlewares/LVGL/GUI/lvgl/src/misc/lv_style.h ****     LV_STYLE_BG_IMG_RECOLOR          = 42,
 201:Middlewares/LVGL/GUI/lvgl/src/misc/lv_style.h ****     LV_STYLE_BG_IMG_RECOLOR_FILTERED = 42 | LV_STYLE_PROP_FILTER,
 202:Middlewares/LVGL/GUI/lvgl/src/misc/lv_style.h ****     LV_STYLE_BG_IMG_RECOLOR_OPA      = 43,
 203:Middlewares/LVGL/GUI/lvgl/src/misc/lv_style.h ****     LV_STYLE_BG_IMG_TILED            = 44,
ARM GAS  C:\Users\ADMINI~1\AppData\Local\Temp\ccjxskpe.s 			page 17


 204:Middlewares/LVGL/GUI/lvgl/src/misc/lv_style.h **** 
 205:Middlewares/LVGL/GUI/lvgl/src/misc/lv_style.h ****     /*Group 3*/
 206:Middlewares/LVGL/GUI/lvgl/src/misc/lv_style.h ****     LV_STYLE_BORDER_COLOR            = 48,
 207:Middlewares/LVGL/GUI/lvgl/src/misc/lv_style.h ****     LV_STYLE_BORDER_COLOR_FILTERED   = 48 | LV_STYLE_PROP_FILTER,
 208:Middlewares/LVGL/GUI/lvgl/src/misc/lv_style.h ****     LV_STYLE_BORDER_OPA              = 49,
 209:Middlewares/LVGL/GUI/lvgl/src/misc/lv_style.h ****     LV_STYLE_BORDER_WIDTH            = 50 | LV_STYLE_PROP_LAYOUT_REFR,
 210:Middlewares/LVGL/GUI/lvgl/src/misc/lv_style.h ****     LV_STYLE_BORDER_SIDE             = 51,
 211:Middlewares/LVGL/GUI/lvgl/src/misc/lv_style.h ****     LV_STYLE_BORDER_POST             = 52,
 212:Middlewares/LVGL/GUI/lvgl/src/misc/lv_style.h **** 
 213:Middlewares/LVGL/GUI/lvgl/src/misc/lv_style.h ****     LV_STYLE_OUTLINE_WIDTH           = 58 | LV_STYLE_PROP_EXT_DRAW,
 214:Middlewares/LVGL/GUI/lvgl/src/misc/lv_style.h ****     LV_STYLE_OUTLINE_COLOR           = 59,
 215:Middlewares/LVGL/GUI/lvgl/src/misc/lv_style.h ****     LV_STYLE_OUTLINE_COLOR_FILTERED  = 59 | LV_STYLE_PROP_FILTER,
 216:Middlewares/LVGL/GUI/lvgl/src/misc/lv_style.h ****     LV_STYLE_OUTLINE_OPA             = 60 | LV_STYLE_PROP_EXT_DRAW,
 217:Middlewares/LVGL/GUI/lvgl/src/misc/lv_style.h ****     LV_STYLE_OUTLINE_PAD             = 61 | LV_STYLE_PROP_EXT_DRAW,
 218:Middlewares/LVGL/GUI/lvgl/src/misc/lv_style.h **** 
 219:Middlewares/LVGL/GUI/lvgl/src/misc/lv_style.h ****     /*Group 4*/
 220:Middlewares/LVGL/GUI/lvgl/src/misc/lv_style.h ****     LV_STYLE_SHADOW_WIDTH            = 64 | LV_STYLE_PROP_EXT_DRAW,
 221:Middlewares/LVGL/GUI/lvgl/src/misc/lv_style.h ****     LV_STYLE_SHADOW_OFS_X            = 65 | LV_STYLE_PROP_EXT_DRAW,
 222:Middlewares/LVGL/GUI/lvgl/src/misc/lv_style.h ****     LV_STYLE_SHADOW_OFS_Y            = 66 | LV_STYLE_PROP_EXT_DRAW,
 223:Middlewares/LVGL/GUI/lvgl/src/misc/lv_style.h ****     LV_STYLE_SHADOW_SPREAD           = 67 | LV_STYLE_PROP_EXT_DRAW,
 224:Middlewares/LVGL/GUI/lvgl/src/misc/lv_style.h ****     LV_STYLE_SHADOW_COLOR            = 68,
 225:Middlewares/LVGL/GUI/lvgl/src/misc/lv_style.h ****     LV_STYLE_SHADOW_COLOR_FILTERED   = 68 | LV_STYLE_PROP_FILTER,
 226:Middlewares/LVGL/GUI/lvgl/src/misc/lv_style.h ****     LV_STYLE_SHADOW_OPA              = 69 | LV_STYLE_PROP_EXT_DRAW,
 227:Middlewares/LVGL/GUI/lvgl/src/misc/lv_style.h **** 
 228:Middlewares/LVGL/GUI/lvgl/src/misc/lv_style.h ****     LV_STYLE_IMG_OPA                 = 70,
 229:Middlewares/LVGL/GUI/lvgl/src/misc/lv_style.h ****     LV_STYLE_IMG_RECOLOR             = 71,
 230:Middlewares/LVGL/GUI/lvgl/src/misc/lv_style.h ****     LV_STYLE_IMG_RECOLOR_FILTERED    = 71 | LV_STYLE_PROP_FILTER,
 231:Middlewares/LVGL/GUI/lvgl/src/misc/lv_style.h ****     LV_STYLE_IMG_RECOLOR_OPA         = 72,
 232:Middlewares/LVGL/GUI/lvgl/src/misc/lv_style.h **** 
 233:Middlewares/LVGL/GUI/lvgl/src/misc/lv_style.h ****     LV_STYLE_LINE_WIDTH              = 73 | LV_STYLE_PROP_EXT_DRAW,
 234:Middlewares/LVGL/GUI/lvgl/src/misc/lv_style.h ****     LV_STYLE_LINE_DASH_WIDTH         = 74,
 235:Middlewares/LVGL/GUI/lvgl/src/misc/lv_style.h ****     LV_STYLE_LINE_DASH_GAP           = 75,
 236:Middlewares/LVGL/GUI/lvgl/src/misc/lv_style.h ****     LV_STYLE_LINE_ROUNDED            = 76,
 237:Middlewares/LVGL/GUI/lvgl/src/misc/lv_style.h ****     LV_STYLE_LINE_COLOR              = 77,
 238:Middlewares/LVGL/GUI/lvgl/src/misc/lv_style.h ****     LV_STYLE_LINE_COLOR_FILTERED     = 77 | LV_STYLE_PROP_FILTER,
 239:Middlewares/LVGL/GUI/lvgl/src/misc/lv_style.h ****     LV_STYLE_LINE_OPA                = 78,
 240:Middlewares/LVGL/GUI/lvgl/src/misc/lv_style.h **** 
 241:Middlewares/LVGL/GUI/lvgl/src/misc/lv_style.h ****     /*Group 5*/
 242:Middlewares/LVGL/GUI/lvgl/src/misc/lv_style.h ****     LV_STYLE_ARC_WIDTH               = 80 | LV_STYLE_PROP_EXT_DRAW,
 243:Middlewares/LVGL/GUI/lvgl/src/misc/lv_style.h ****     LV_STYLE_ARC_ROUNDED             = 81,
 244:Middlewares/LVGL/GUI/lvgl/src/misc/lv_style.h ****     LV_STYLE_ARC_COLOR               = 82,
 245:Middlewares/LVGL/GUI/lvgl/src/misc/lv_style.h ****     LV_STYLE_ARC_COLOR_FILTERED      = 82 | LV_STYLE_PROP_FILTER,
 246:Middlewares/LVGL/GUI/lvgl/src/misc/lv_style.h ****     LV_STYLE_ARC_OPA                 = 83,
 247:Middlewares/LVGL/GUI/lvgl/src/misc/lv_style.h ****     LV_STYLE_ARC_IMG_SRC             = 84,
 248:Middlewares/LVGL/GUI/lvgl/src/misc/lv_style.h **** 
 249:Middlewares/LVGL/GUI/lvgl/src/misc/lv_style.h ****     LV_STYLE_TEXT_COLOR              = 87 | LV_STYLE_PROP_INHERIT,
 250:Middlewares/LVGL/GUI/lvgl/src/misc/lv_style.h ****     LV_STYLE_TEXT_COLOR_FILTERED     = 87 | LV_STYLE_PROP_INHERIT | LV_STYLE_PROP_FILTER,
 251:Middlewares/LVGL/GUI/lvgl/src/misc/lv_style.h ****     LV_STYLE_TEXT_OPA                = 88 | LV_STYLE_PROP_INHERIT,
 252:Middlewares/LVGL/GUI/lvgl/src/misc/lv_style.h ****     LV_STYLE_TEXT_FONT               = 89 | LV_STYLE_PROP_INHERIT | LV_STYLE_PROP_LAYOUT_REFR,
 253:Middlewares/LVGL/GUI/lvgl/src/misc/lv_style.h ****     LV_STYLE_TEXT_LETTER_SPACE       = 90 | LV_STYLE_PROP_INHERIT | LV_STYLE_PROP_LAYOUT_REFR,
 254:Middlewares/LVGL/GUI/lvgl/src/misc/lv_style.h ****     LV_STYLE_TEXT_LINE_SPACE         = 91 | LV_STYLE_PROP_INHERIT | LV_STYLE_PROP_LAYOUT_REFR,
 255:Middlewares/LVGL/GUI/lvgl/src/misc/lv_style.h ****     LV_STYLE_TEXT_DECOR              = 92 | LV_STYLE_PROP_INHERIT,
 256:Middlewares/LVGL/GUI/lvgl/src/misc/lv_style.h ****     LV_STYLE_TEXT_ALIGN              = 93 | LV_STYLE_PROP_INHERIT | LV_STYLE_PROP_LAYOUT_REFR,
 257:Middlewares/LVGL/GUI/lvgl/src/misc/lv_style.h **** 
 258:Middlewares/LVGL/GUI/lvgl/src/misc/lv_style.h ****     /*Group 6*/
 259:Middlewares/LVGL/GUI/lvgl/src/misc/lv_style.h ****     LV_STYLE_RADIUS                  = 96,
 260:Middlewares/LVGL/GUI/lvgl/src/misc/lv_style.h ****     LV_STYLE_CLIP_CORNER             = 97,
ARM GAS  C:\Users\ADMINI~1\AppData\Local\Temp\ccjxskpe.s 			page 18


 261:Middlewares/LVGL/GUI/lvgl/src/misc/lv_style.h ****     LV_STYLE_OPA                     = 98 | LV_STYLE_PROP_INHERIT,
 262:Middlewares/LVGL/GUI/lvgl/src/misc/lv_style.h ****     LV_STYLE_COLOR_FILTER_DSC        = 99,
 263:Middlewares/LVGL/GUI/lvgl/src/misc/lv_style.h ****     LV_STYLE_COLOR_FILTER_OPA        = 100,
 264:Middlewares/LVGL/GUI/lvgl/src/misc/lv_style.h ****     LV_STYLE_ANIM_TIME               = 101,
 265:Middlewares/LVGL/GUI/lvgl/src/misc/lv_style.h ****     LV_STYLE_ANIM_SPEED              = 102,
 266:Middlewares/LVGL/GUI/lvgl/src/misc/lv_style.h ****     LV_STYLE_TRANSITION              = 103,
 267:Middlewares/LVGL/GUI/lvgl/src/misc/lv_style.h ****     LV_STYLE_BLEND_MODE              = 104,
 268:Middlewares/LVGL/GUI/lvgl/src/misc/lv_style.h ****     LV_STYLE_LAYOUT                  = 105 | LV_STYLE_PROP_LAYOUT_REFR,
 269:Middlewares/LVGL/GUI/lvgl/src/misc/lv_style.h ****     LV_STYLE_BASE_DIR                = 106 | LV_STYLE_PROP_INHERIT | LV_STYLE_PROP_LAYOUT_REFR,
 270:Middlewares/LVGL/GUI/lvgl/src/misc/lv_style.h **** 
 271:Middlewares/LVGL/GUI/lvgl/src/misc/lv_style.h ****     _LV_STYLE_LAST_BUILT_IN_PROP     = 111,
 272:Middlewares/LVGL/GUI/lvgl/src/misc/lv_style.h **** 
 273:Middlewares/LVGL/GUI/lvgl/src/misc/lv_style.h ****     LV_STYLE_PROP_ANY                = 0xFFFF
 274:Middlewares/LVGL/GUI/lvgl/src/misc/lv_style.h **** } lv_style_prop_t;
 275:Middlewares/LVGL/GUI/lvgl/src/misc/lv_style.h **** 
 276:Middlewares/LVGL/GUI/lvgl/src/misc/lv_style.h **** /**
 277:Middlewares/LVGL/GUI/lvgl/src/misc/lv_style.h ****  * Descriptor for style transitions
 278:Middlewares/LVGL/GUI/lvgl/src/misc/lv_style.h ****  */
 279:Middlewares/LVGL/GUI/lvgl/src/misc/lv_style.h **** typedef struct {
 280:Middlewares/LVGL/GUI/lvgl/src/misc/lv_style.h ****     const lv_style_prop_t * props; /**< An array with the properties to animate.*/
 281:Middlewares/LVGL/GUI/lvgl/src/misc/lv_style.h **** #if LV_USE_USER_DATA
 282:Middlewares/LVGL/GUI/lvgl/src/misc/lv_style.h ****     void * user_data;              /**< A custom user data that will be passed to the animation's u
 283:Middlewares/LVGL/GUI/lvgl/src/misc/lv_style.h **** #endif
 284:Middlewares/LVGL/GUI/lvgl/src/misc/lv_style.h ****     lv_anim_path_cb_t path_xcb;     /**< A path for the animation.*/
 285:Middlewares/LVGL/GUI/lvgl/src/misc/lv_style.h ****     uint32_t time;                 /**< Duration of the transition in [ms]*/
 286:Middlewares/LVGL/GUI/lvgl/src/misc/lv_style.h ****     uint32_t delay;                /**< Delay before the transition in [ms]*/
 287:Middlewares/LVGL/GUI/lvgl/src/misc/lv_style.h **** } lv_style_transition_dsc_t;
 288:Middlewares/LVGL/GUI/lvgl/src/misc/lv_style.h **** 
 289:Middlewares/LVGL/GUI/lvgl/src/misc/lv_style.h **** /**
 290:Middlewares/LVGL/GUI/lvgl/src/misc/lv_style.h ****  * Descriptor of a constant style property.
 291:Middlewares/LVGL/GUI/lvgl/src/misc/lv_style.h ****  */
 292:Middlewares/LVGL/GUI/lvgl/src/misc/lv_style.h **** typedef struct {
 293:Middlewares/LVGL/GUI/lvgl/src/misc/lv_style.h ****     lv_style_prop_t prop;
 294:Middlewares/LVGL/GUI/lvgl/src/misc/lv_style.h ****     lv_style_value_t value;
 295:Middlewares/LVGL/GUI/lvgl/src/misc/lv_style.h **** } lv_style_const_prop_t;
 296:Middlewares/LVGL/GUI/lvgl/src/misc/lv_style.h **** 
 297:Middlewares/LVGL/GUI/lvgl/src/misc/lv_style.h **** /**
 298:Middlewares/LVGL/GUI/lvgl/src/misc/lv_style.h ****  * Descriptor of a style (a collection of properties and values).
 299:Middlewares/LVGL/GUI/lvgl/src/misc/lv_style.h ****  */
 300:Middlewares/LVGL/GUI/lvgl/src/misc/lv_style.h **** typedef struct {
 301:Middlewares/LVGL/GUI/lvgl/src/misc/lv_style.h **** 
 302:Middlewares/LVGL/GUI/lvgl/src/misc/lv_style.h **** #if LV_USE_ASSERT_STYLE
 303:Middlewares/LVGL/GUI/lvgl/src/misc/lv_style.h ****     uint32_t sentinel;
 304:Middlewares/LVGL/GUI/lvgl/src/misc/lv_style.h **** #endif
 305:Middlewares/LVGL/GUI/lvgl/src/misc/lv_style.h **** 
 306:Middlewares/LVGL/GUI/lvgl/src/misc/lv_style.h ****     /*If there is only one property store it directly.
 307:Middlewares/LVGL/GUI/lvgl/src/misc/lv_style.h ****      *For more properties allocate an array*/
 308:Middlewares/LVGL/GUI/lvgl/src/misc/lv_style.h ****     union {
 309:Middlewares/LVGL/GUI/lvgl/src/misc/lv_style.h ****         lv_style_value_t value1;
 310:Middlewares/LVGL/GUI/lvgl/src/misc/lv_style.h ****         uint8_t * values_and_props;
 311:Middlewares/LVGL/GUI/lvgl/src/misc/lv_style.h ****         const lv_style_const_prop_t * const_props;
 312:Middlewares/LVGL/GUI/lvgl/src/misc/lv_style.h ****     } v_p;
 313:Middlewares/LVGL/GUI/lvgl/src/misc/lv_style.h **** 
 314:Middlewares/LVGL/GUI/lvgl/src/misc/lv_style.h ****     uint16_t prop1 : 15;
 315:Middlewares/LVGL/GUI/lvgl/src/misc/lv_style.h ****     uint16_t is_const : 1;
 316:Middlewares/LVGL/GUI/lvgl/src/misc/lv_style.h ****     uint8_t has_group;
 317:Middlewares/LVGL/GUI/lvgl/src/misc/lv_style.h ****     uint8_t prop_cnt;
ARM GAS  C:\Users\ADMINI~1\AppData\Local\Temp\ccjxskpe.s 			page 19


 318:Middlewares/LVGL/GUI/lvgl/src/misc/lv_style.h **** } lv_style_t;
 319:Middlewares/LVGL/GUI/lvgl/src/misc/lv_style.h **** 
 320:Middlewares/LVGL/GUI/lvgl/src/misc/lv_style.h **** /**********************
 321:Middlewares/LVGL/GUI/lvgl/src/misc/lv_style.h ****  * GLOBAL PROTOTYPES
 322:Middlewares/LVGL/GUI/lvgl/src/misc/lv_style.h ****  **********************/
 323:Middlewares/LVGL/GUI/lvgl/src/misc/lv_style.h **** 
 324:Middlewares/LVGL/GUI/lvgl/src/misc/lv_style.h **** 
 325:Middlewares/LVGL/GUI/lvgl/src/misc/lv_style.h **** /**
 326:Middlewares/LVGL/GUI/lvgl/src/misc/lv_style.h ****  * Initialize a style
 327:Middlewares/LVGL/GUI/lvgl/src/misc/lv_style.h ****  * @param style pointer to a style to initialize
 328:Middlewares/LVGL/GUI/lvgl/src/misc/lv_style.h ****  * @note Do not call `lv_style_init` on styles that already have some properties
 329:Middlewares/LVGL/GUI/lvgl/src/misc/lv_style.h ****  *       because this function won't free the used memory, just sets a default state for the style.
 330:Middlewares/LVGL/GUI/lvgl/src/misc/lv_style.h ****  *       In other words be sure to initialize styles only once!
 331:Middlewares/LVGL/GUI/lvgl/src/misc/lv_style.h ****  */
 332:Middlewares/LVGL/GUI/lvgl/src/misc/lv_style.h **** void lv_style_init(lv_style_t * style);
 333:Middlewares/LVGL/GUI/lvgl/src/misc/lv_style.h **** 
 334:Middlewares/LVGL/GUI/lvgl/src/misc/lv_style.h **** /**
 335:Middlewares/LVGL/GUI/lvgl/src/misc/lv_style.h ****  * Clear all properties from a style and free all allocated memories.
 336:Middlewares/LVGL/GUI/lvgl/src/misc/lv_style.h ****  * @param style pointer to a style
 337:Middlewares/LVGL/GUI/lvgl/src/misc/lv_style.h ****  */
 338:Middlewares/LVGL/GUI/lvgl/src/misc/lv_style.h **** void lv_style_reset(lv_style_t * style);
 339:Middlewares/LVGL/GUI/lvgl/src/misc/lv_style.h **** 
 340:Middlewares/LVGL/GUI/lvgl/src/misc/lv_style.h **** /**
 341:Middlewares/LVGL/GUI/lvgl/src/misc/lv_style.h ****  * Register a new style property for custom usage
 342:Middlewares/LVGL/GUI/lvgl/src/misc/lv_style.h ****  * @return a new property ID.
 343:Middlewares/LVGL/GUI/lvgl/src/misc/lv_style.h ****  * @example
 344:Middlewares/LVGL/GUI/lvgl/src/misc/lv_style.h ****  * lv_style_prop_t MY_PROP;
 345:Middlewares/LVGL/GUI/lvgl/src/misc/lv_style.h ****  * static inline void lv_style_set_my_prop(lv_style_t * style, lv_color_t value) {
 346:Middlewares/LVGL/GUI/lvgl/src/misc/lv_style.h ****  * lv_style_value_t v = {.color = value}; lv_style_set_prop(style, MY_PROP, v); }
 347:Middlewares/LVGL/GUI/lvgl/src/misc/lv_style.h ****  *
 348:Middlewares/LVGL/GUI/lvgl/src/misc/lv_style.h ****  * ...
 349:Middlewares/LVGL/GUI/lvgl/src/misc/lv_style.h ****  * MY_PROP = lv_style_register_prop();
 350:Middlewares/LVGL/GUI/lvgl/src/misc/lv_style.h ****  * ...
 351:Middlewares/LVGL/GUI/lvgl/src/misc/lv_style.h ****  * lv_style_set_my_prop(&style1, lv_palette_main(LV_PALETTE_RED));
 352:Middlewares/LVGL/GUI/lvgl/src/misc/lv_style.h ****  */
 353:Middlewares/LVGL/GUI/lvgl/src/misc/lv_style.h **** lv_style_prop_t lv_style_register_prop(void);
 354:Middlewares/LVGL/GUI/lvgl/src/misc/lv_style.h **** 
 355:Middlewares/LVGL/GUI/lvgl/src/misc/lv_style.h **** /**
 356:Middlewares/LVGL/GUI/lvgl/src/misc/lv_style.h ****  * Remove a property from a style
 357:Middlewares/LVGL/GUI/lvgl/src/misc/lv_style.h ****  * @param style pointer to a style
 358:Middlewares/LVGL/GUI/lvgl/src/misc/lv_style.h ****  * @param prop  a style property ORed with a state.
 359:Middlewares/LVGL/GUI/lvgl/src/misc/lv_style.h ****  * @return true: the property was found and removed; false: the property wasn't found
 360:Middlewares/LVGL/GUI/lvgl/src/misc/lv_style.h ****  */
 361:Middlewares/LVGL/GUI/lvgl/src/misc/lv_style.h **** bool lv_style_remove_prop(lv_style_t * style, lv_style_prop_t prop);
 362:Middlewares/LVGL/GUI/lvgl/src/misc/lv_style.h **** 
 363:Middlewares/LVGL/GUI/lvgl/src/misc/lv_style.h **** /**
 364:Middlewares/LVGL/GUI/lvgl/src/misc/lv_style.h ****  * Set the value of property in a style.
 365:Middlewares/LVGL/GUI/lvgl/src/misc/lv_style.h ****  * This function shouldn't be used directly by the user.
 366:Middlewares/LVGL/GUI/lvgl/src/misc/lv_style.h ****  * Instead use `lv_style_set_<prop_name>()`. E.g. `lv_style_set_bg_color()`
 367:Middlewares/LVGL/GUI/lvgl/src/misc/lv_style.h ****  * @param style pointer to style
 368:Middlewares/LVGL/GUI/lvgl/src/misc/lv_style.h ****  * @param prop the ID of a property (e.g. `LV_STYLE_BG_COLOR`)
 369:Middlewares/LVGL/GUI/lvgl/src/misc/lv_style.h ****  * @param value `lv_style_value_t` variable in which a field is set according to the type of `prop`
 370:Middlewares/LVGL/GUI/lvgl/src/misc/lv_style.h ****  */
 371:Middlewares/LVGL/GUI/lvgl/src/misc/lv_style.h **** void lv_style_set_prop(lv_style_t * style, lv_style_prop_t prop, lv_style_value_t value);
 372:Middlewares/LVGL/GUI/lvgl/src/misc/lv_style.h **** 
 373:Middlewares/LVGL/GUI/lvgl/src/misc/lv_style.h **** /**
 374:Middlewares/LVGL/GUI/lvgl/src/misc/lv_style.h ****  * Get the value of a property
ARM GAS  C:\Users\ADMINI~1\AppData\Local\Temp\ccjxskpe.s 			page 20


 375:Middlewares/LVGL/GUI/lvgl/src/misc/lv_style.h ****  * @param style pointer to a style
 376:Middlewares/LVGL/GUI/lvgl/src/misc/lv_style.h ****  * @param prop  the ID of a property
 377:Middlewares/LVGL/GUI/lvgl/src/misc/lv_style.h ****  * @param value pointer to a `lv_style_value_t` variable to store the value
 378:Middlewares/LVGL/GUI/lvgl/src/misc/lv_style.h ****  * @return LV_RES_INV: the property wasn't found in the style (`value` is unchanged)
 379:Middlewares/LVGL/GUI/lvgl/src/misc/lv_style.h ****  *         LV_RES_OK: the property was fond, and `value` is set accordingly
 380:Middlewares/LVGL/GUI/lvgl/src/misc/lv_style.h ****  * @note For performance reasons there are no sanity check on `style`
 381:Middlewares/LVGL/GUI/lvgl/src/misc/lv_style.h ****  */
 382:Middlewares/LVGL/GUI/lvgl/src/misc/lv_style.h **** lv_res_t lv_style_get_prop(const lv_style_t * style, lv_style_prop_t prop, lv_style_value_t * value
 383:Middlewares/LVGL/GUI/lvgl/src/misc/lv_style.h **** 
 384:Middlewares/LVGL/GUI/lvgl/src/misc/lv_style.h **** 
 385:Middlewares/LVGL/GUI/lvgl/src/misc/lv_style.h **** /**
 386:Middlewares/LVGL/GUI/lvgl/src/misc/lv_style.h ****  * Get the value of a property
 387:Middlewares/LVGL/GUI/lvgl/src/misc/lv_style.h ****  * @param style pointer to a style
 388:Middlewares/LVGL/GUI/lvgl/src/misc/lv_style.h ****  * @param prop  the ID of a property
 389:Middlewares/LVGL/GUI/lvgl/src/misc/lv_style.h ****  * @param value pointer to a `lv_style_value_t` variable to store the value
 390:Middlewares/LVGL/GUI/lvgl/src/misc/lv_style.h ****  * @return LV_RES_INV: the property wasn't found in the style (`value` is unchanged)
 391:Middlewares/LVGL/GUI/lvgl/src/misc/lv_style.h ****  *         LV_RES_OK: the property was fond, and `value` is set accordingly
 392:Middlewares/LVGL/GUI/lvgl/src/misc/lv_style.h ****  * @note For performance reasons there are no sanity check on `style`
 393:Middlewares/LVGL/GUI/lvgl/src/misc/lv_style.h ****  * @note This function is the same as ::lv_style_get_prop but inlined. Use it only on performance c
 394:Middlewares/LVGL/GUI/lvgl/src/misc/lv_style.h ****  */
 395:Middlewares/LVGL/GUI/lvgl/src/misc/lv_style.h **** static inline lv_res_t lv_style_get_prop_inlined(const lv_style_t * style, lv_style_prop_t prop,
 450              		.loc 2 395 24 view .LVU136
 451              	.LBB25:
 396:Middlewares/LVGL/GUI/lvgl/src/misc/lv_style.h ****                                                  lv_style_value_t * value)
 397:Middlewares/LVGL/GUI/lvgl/src/misc/lv_style.h **** {
 398:Middlewares/LVGL/GUI/lvgl/src/misc/lv_style.h ****     if(style->is_const) {
 452              		.loc 2 398 5 view .LVU137
 453              		.loc 2 398 7 is_stmt 0 view .LVU138
 454 0002 90F90500 		ldrsb	r0, [r0, #5]
 455              	.LVL43:
 456              		.loc 2 398 7 view .LVU139
 457 0006 0028     		cmp	r0, #0
 458 0008 12DB     		blt	.L53
 399:Middlewares/LVGL/GUI/lvgl/src/misc/lv_style.h ****         const lv_style_const_prop_t * const_prop;
 400:Middlewares/LVGL/GUI/lvgl/src/misc/lv_style.h ****         for(const_prop = style->v_p.const_props; const_prop->prop != LV_STYLE_PROP_INV; const_prop+
 401:Middlewares/LVGL/GUI/lvgl/src/misc/lv_style.h ****             if(const_prop->prop == prop) {
 402:Middlewares/LVGL/GUI/lvgl/src/misc/lv_style.h ****                 *value = const_prop->value;
 403:Middlewares/LVGL/GUI/lvgl/src/misc/lv_style.h ****                 return LV_RES_OK;
 404:Middlewares/LVGL/GUI/lvgl/src/misc/lv_style.h ****             }
 405:Middlewares/LVGL/GUI/lvgl/src/misc/lv_style.h ****         }
 406:Middlewares/LVGL/GUI/lvgl/src/misc/lv_style.h ****         return LV_RES_INV;
 407:Middlewares/LVGL/GUI/lvgl/src/misc/lv_style.h ****     }
 408:Middlewares/LVGL/GUI/lvgl/src/misc/lv_style.h **** 
 409:Middlewares/LVGL/GUI/lvgl/src/misc/lv_style.h ****     if(style->prop_cnt == 0) return LV_RES_INV;
 459              		.loc 2 409 5 is_stmt 1 view .LVU140
 460              		.loc 2 409 13 is_stmt 0 view .LVU141
 461 000a D879     		ldrb	r0, [r3, #7]	@ zero_extendqisi2
 462              		.loc 2 409 7 view .LVU142
 463 000c 70B3     		cbz	r0, .L50
 410:Middlewares/LVGL/GUI/lvgl/src/misc/lv_style.h **** 
 411:Middlewares/LVGL/GUI/lvgl/src/misc/lv_style.h ****     if(style->prop_cnt > 1) {
 464              		.loc 2 411 5 is_stmt 1 view .LVU143
 465              		.loc 2 411 7 is_stmt 0 view .LVU144
 466 000e 0128     		cmp	r0, #1
 467 0010 21D9     		bls	.L44
 468              	.LBE25:
 469              	.LBE24:
ARM GAS  C:\Users\ADMINI~1\AppData\Local\Temp\ccjxskpe.s 			page 21


 212:Middlewares/LVGL/GUI/lvgl/src/misc/lv_style.c ****     return lv_style_get_prop_inlined(style, prop, value);
 470              		.loc 1 212 1 view .LVU145
 471 0012 10B5     		push	{r4, lr}
 472              	.LCFI4:
 473              		.cfi_def_cfa_offset 8
 474              		.cfi_offset 4, -8
 475              		.cfi_offset 14, -4
 476              	.LBB32:
 477              	.LBB30:
 478              	.LBB26:
 412:Middlewares/LVGL/GUI/lvgl/src/misc/lv_style.h ****         uint8_t * tmp = style->v_p.values_and_props + style->prop_cnt * sizeof(lv_style_value_t);
 479              		.loc 2 412 9 is_stmt 1 view .LVU146
 480              		.loc 2 412 35 is_stmt 0 view .LVU147
 481 0014 1C68     		ldr	r4, [r3]
 482              		.loc 2 412 60 view .LVU148
 483 0016 8646     		mov	lr, r0
 484              		.loc 2 412 71 view .LVU149
 485 0018 8000     		lsls	r0, r0, #2
 486              	.LVL44:
 413:Middlewares/LVGL/GUI/lvgl/src/misc/lv_style.h ****         uint16_t * props = (uint16_t *)tmp;
 487              		.loc 2 413 9 is_stmt 1 view .LVU150
 414:Middlewares/LVGL/GUI/lvgl/src/misc/lv_style.h ****         uint32_t i;
 488              		.loc 2 414 9 view .LVU151
 415:Middlewares/LVGL/GUI/lvgl/src/misc/lv_style.h ****         for(i = 0; i < style->prop_cnt; i++) {
 489              		.loc 2 415 9 view .LVU152
 490              		.loc 2 415 15 is_stmt 0 view .LVU153
 491 001a 0023     		movs	r3, #0
 492              	.LVL45:
 493              	.L45:
 494              		.loc 2 415 20 is_stmt 1 view .LVU154
 495              		.loc 2 415 9 is_stmt 0 view .LVU155
 496 001c 9E45     		cmp	lr, r3
 497 001e 18D9     		bls	.L54
 416:Middlewares/LVGL/GUI/lvgl/src/misc/lv_style.h ****             if(props[i] == prop) {
 498              		.loc 2 416 13 is_stmt 1 view .LVU156
 499              		.loc 2 416 21 is_stmt 0 view .LVU157
 500 0020 04EB000C 		add	ip, r4, r0
 501 0024 3CF813C0 		ldrh	ip, [ip, r3, lsl #1]
 502              		.loc 2 416 15 view .LVU158
 503 0028 6145     		cmp	r1, ip
 504 002a 0DD0     		beq	.L55
 415:Middlewares/LVGL/GUI/lvgl/src/misc/lv_style.h ****         for(i = 0; i < style->prop_cnt; i++) {
 505              		.loc 2 415 41 is_stmt 1 view .LVU159
 415:Middlewares/LVGL/GUI/lvgl/src/misc/lv_style.h ****         for(i = 0; i < style->prop_cnt; i++) {
 506              		.loc 2 415 42 is_stmt 0 view .LVU160
 507 002c 0133     		adds	r3, r3, #1
 508              	.LVL46:
 415:Middlewares/LVGL/GUI/lvgl/src/misc/lv_style.h ****         for(i = 0; i < style->prop_cnt; i++) {
 509              		.loc 2 415 42 view .LVU161
 510 002e F5E7     		b	.L45
 511              	.LVL47:
 512              	.L53:
 513              	.LCFI5:
 514              		.cfi_def_cfa_offset 0
 515              		.cfi_restore 4
 516              		.cfi_restore 14
 415:Middlewares/LVGL/GUI/lvgl/src/misc/lv_style.h ****         for(i = 0; i < style->prop_cnt; i++) {
ARM GAS  C:\Users\ADMINI~1\AppData\Local\Temp\ccjxskpe.s 			page 22


 517              		.loc 2 415 42 view .LVU162
 518              	.LBE26:
 519              	.LBB28:
 399:Middlewares/LVGL/GUI/lvgl/src/misc/lv_style.h ****         for(const_prop = style->v_p.const_props; const_prop->prop != LV_STYLE_PROP_INV; const_prop+
 520              		.loc 2 399 9 is_stmt 1 view .LVU163
 400:Middlewares/LVGL/GUI/lvgl/src/misc/lv_style.h ****             if(const_prop->prop == prop) {
 521              		.loc 2 400 9 view .LVU164
 400:Middlewares/LVGL/GUI/lvgl/src/misc/lv_style.h ****             if(const_prop->prop == prop) {
 522              		.loc 2 400 24 is_stmt 0 view .LVU165
 523 0030 1B68     		ldr	r3, [r3]
 524              	.LVL48:
 400:Middlewares/LVGL/GUI/lvgl/src/misc/lv_style.h ****             if(const_prop->prop == prop) {
 525              		.loc 2 400 9 view .LVU166
 526 0032 00E0     		b	.L40
 527              	.L41:
 400:Middlewares/LVGL/GUI/lvgl/src/misc/lv_style.h ****             if(const_prop->prop == prop) {
 528              		.loc 2 400 89 is_stmt 1 view .LVU167
 400:Middlewares/LVGL/GUI/lvgl/src/misc/lv_style.h ****             if(const_prop->prop == prop) {
 529              		.loc 2 400 99 is_stmt 0 view .LVU168
 530 0034 0833     		adds	r3, r3, #8
 531              	.LVL49:
 532              	.L40:
 400:Middlewares/LVGL/GUI/lvgl/src/misc/lv_style.h ****             if(const_prop->prop == prop) {
 533              		.loc 2 400 50 is_stmt 1 view .LVU169
 400:Middlewares/LVGL/GUI/lvgl/src/misc/lv_style.h ****             if(const_prop->prop == prop) {
 534              		.loc 2 400 60 is_stmt 0 view .LVU170
 535 0036 1888     		ldrh	r0, [r3]
 400:Middlewares/LVGL/GUI/lvgl/src/misc/lv_style.h ****             if(const_prop->prop == prop) {
 536              		.loc 2 400 9 view .LVU171
 537 0038 28B1     		cbz	r0, .L56
 401:Middlewares/LVGL/GUI/lvgl/src/misc/lv_style.h ****                 *value = const_prop->value;
 538              		.loc 2 401 13 is_stmt 1 view .LVU172
 401:Middlewares/LVGL/GUI/lvgl/src/misc/lv_style.h ****                 *value = const_prop->value;
 539              		.loc 2 401 15 is_stmt 0 view .LVU173
 540 003a 8142     		cmp	r1, r0
 541 003c FAD1     		bne	.L41
 402:Middlewares/LVGL/GUI/lvgl/src/misc/lv_style.h ****                 return LV_RES_OK;
 542              		.loc 2 402 17 is_stmt 1 view .LVU174
 402:Middlewares/LVGL/GUI/lvgl/src/misc/lv_style.h ****                 return LV_RES_OK;
 543              		.loc 2 402 24 is_stmt 0 view .LVU175
 544 003e 5B68     		ldr	r3, [r3, #4]
 545              	.LVL50:
 402:Middlewares/LVGL/GUI/lvgl/src/misc/lv_style.h ****                 return LV_RES_OK;
 546              		.loc 2 402 24 view .LVU176
 547 0040 1360     		str	r3, [r2]
 403:Middlewares/LVGL/GUI/lvgl/src/misc/lv_style.h ****             }
 548              		.loc 2 403 17 is_stmt 1 view .LVU177
 403:Middlewares/LVGL/GUI/lvgl/src/misc/lv_style.h ****             }
 549              		.loc 2 403 24 is_stmt 0 view .LVU178
 550 0042 0120     		movs	r0, #1
 551 0044 7047     		bx	lr
 552              	.LVL51:
 553              	.L56:
 403:Middlewares/LVGL/GUI/lvgl/src/misc/lv_style.h ****             }
 554              		.loc 2 403 24 view .LVU179
 555 0046 7047     		bx	lr
 556              	.LVL52:
ARM GAS  C:\Users\ADMINI~1\AppData\Local\Temp\ccjxskpe.s 			page 23


 557              	.L55:
 558              	.LCFI6:
 559              		.cfi_def_cfa_offset 8
 560              		.cfi_offset 4, -8
 561              		.cfi_offset 14, -4
 403:Middlewares/LVGL/GUI/lvgl/src/misc/lv_style.h ****             }
 562              		.loc 2 403 24 view .LVU180
 563              	.LBE28:
 564              	.LBB29:
 565              	.LBB27:
 417:Middlewares/LVGL/GUI/lvgl/src/misc/lv_style.h ****                 lv_style_value_t * values = (lv_style_value_t *)style->v_p.values_and_props;
 566              		.loc 2 417 17 is_stmt 1 view .LVU181
 418:Middlewares/LVGL/GUI/lvgl/src/misc/lv_style.h ****                 *value = values[i];
 567              		.loc 2 418 17 view .LVU182
 568              		.loc 2 418 24 is_stmt 0 view .LVU183
 569 0048 54F82330 		ldr	r3, [r4, r3, lsl #2]
 570              	.LVL53:
 571              		.loc 2 418 24 view .LVU184
 572 004c 1360     		str	r3, [r2]
 419:Middlewares/LVGL/GUI/lvgl/src/misc/lv_style.h ****                 return LV_RES_OK;
 573              		.loc 2 419 17 is_stmt 1 view .LVU185
 574              		.loc 2 419 24 is_stmt 0 view .LVU186
 575 004e 0120     		movs	r0, #1
 576              	.LVL54:
 577              		.loc 2 419 24 view .LVU187
 578 0050 00E0     		b	.L42
 579              	.LVL55:
 580              	.L54:
 581              		.loc 2 419 24 view .LVU188
 582              	.LBE27:
 583              	.LBE29:
 420:Middlewares/LVGL/GUI/lvgl/src/misc/lv_style.h ****             }
 421:Middlewares/LVGL/GUI/lvgl/src/misc/lv_style.h ****         }
 422:Middlewares/LVGL/GUI/lvgl/src/misc/lv_style.h ****     }
 423:Middlewares/LVGL/GUI/lvgl/src/misc/lv_style.h ****     else if(style->prop1 == prop) {
 424:Middlewares/LVGL/GUI/lvgl/src/misc/lv_style.h ****         *value = style->v_p.value1;
 425:Middlewares/LVGL/GUI/lvgl/src/misc/lv_style.h ****         return LV_RES_OK;
 426:Middlewares/LVGL/GUI/lvgl/src/misc/lv_style.h ****     }
 427:Middlewares/LVGL/GUI/lvgl/src/misc/lv_style.h ****     return LV_RES_INV;
 584              		.loc 2 427 12 view .LVU189
 585 0052 0020     		movs	r0, #0
 586              	.LVL56:
 587              	.L42:
 588              		.loc 2 427 12 view .LVU190
 589              	.LBE30:
 590              	.LBE32:
 214:Middlewares/LVGL/GUI/lvgl/src/misc/lv_style.c **** }
 591              		.loc 1 214 1 view .LVU191
 592 0054 10BD     		pop	{r4, pc}
 593              	.LVL57:
 594              	.L44:
 595              	.LCFI7:
 596              		.cfi_def_cfa_offset 0
 597              		.cfi_restore 4
 598              		.cfi_restore 14
 599              	.LBB33:
 600              	.LBB31:
ARM GAS  C:\Users\ADMINI~1\AppData\Local\Temp\ccjxskpe.s 			page 24


 423:Middlewares/LVGL/GUI/lvgl/src/misc/lv_style.h ****         *value = style->v_p.value1;
 601              		.loc 2 423 10 is_stmt 1 view .LVU192
 423:Middlewares/LVGL/GUI/lvgl/src/misc/lv_style.h ****         *value = style->v_p.value1;
 602              		.loc 2 423 18 is_stmt 0 view .LVU193
 603 0056 9888     		ldrh	r0, [r3, #4]
 604 0058 C0F30E00 		ubfx	r0, r0, #0, #15
 423:Middlewares/LVGL/GUI/lvgl/src/misc/lv_style.h ****         *value = style->v_p.value1;
 605              		.loc 2 423 12 view .LVU194
 606 005c 8842     		cmp	r0, r1
 607 005e 01D0     		beq	.L57
 608              		.loc 2 427 12 view .LVU195
 609 0060 0020     		movs	r0, #0
 610 0062 7047     		bx	lr
 611              	.L57:
 424:Middlewares/LVGL/GUI/lvgl/src/misc/lv_style.h ****         return LV_RES_OK;
 612              		.loc 2 424 9 is_stmt 1 view .LVU196
 424:Middlewares/LVGL/GUI/lvgl/src/misc/lv_style.h ****         return LV_RES_OK;
 613              		.loc 2 424 16 is_stmt 0 view .LVU197
 614 0064 1B68     		ldr	r3, [r3]
 615              	.LVL58:
 424:Middlewares/LVGL/GUI/lvgl/src/misc/lv_style.h ****         return LV_RES_OK;
 616              		.loc 2 424 16 view .LVU198
 617 0066 1360     		str	r3, [r2]
 425:Middlewares/LVGL/GUI/lvgl/src/misc/lv_style.h ****     }
 618              		.loc 2 425 9 is_stmt 1 view .LVU199
 425:Middlewares/LVGL/GUI/lvgl/src/misc/lv_style.h ****     }
 619              		.loc 2 425 16 is_stmt 0 view .LVU200
 620 0068 0120     		movs	r0, #1
 621 006a 7047     		bx	lr
 622              	.LVL59:
 623              	.L50:
 425:Middlewares/LVGL/GUI/lvgl/src/misc/lv_style.h ****     }
 624              		.loc 2 425 16 view .LVU201
 625              	.LBE31:
 626              	.LBE33:
 627              		.loc 1 214 1 view .LVU202
 628 006c 7047     		bx	lr
 629              		.cfi_endproc
 630              	.LFE57:
 632              		.section	.text.lv_style_transition_dsc_init,"ax",%progbits
 633              		.align	1
 634              		.global	lv_style_transition_dsc_init
 635              		.syntax unified
 636              		.thumb
 637              		.thumb_func
 639              	lv_style_transition_dsc_init:
 640              	.LVL60:
 641              	.LFB58:
 215:Middlewares/LVGL/GUI/lvgl/src/misc/lv_style.c **** 
 216:Middlewares/LVGL/GUI/lvgl/src/misc/lv_style.c **** void lv_style_transition_dsc_init(lv_style_transition_dsc_t * tr, const lv_style_prop_t props[],
 217:Middlewares/LVGL/GUI/lvgl/src/misc/lv_style.c ****                                   lv_anim_path_cb_t path_cb, uint32_t time, uint32_t delay, void * 
 218:Middlewares/LVGL/GUI/lvgl/src/misc/lv_style.c **** {
 642              		.loc 1 218 1 is_stmt 1 view -0
 643              		.cfi_startproc
 644              		@ args = 8, pretend = 0, frame = 0
 645              		@ frame_needed = 0, uses_anonymous_args = 0
 646              		.loc 1 218 1 is_stmt 0 view .LVU204
ARM GAS  C:\Users\ADMINI~1\AppData\Local\Temp\ccjxskpe.s 			page 25


 647 0000 F8B5     		push	{r3, r4, r5, r6, r7, lr}
 648              	.LCFI8:
 649              		.cfi_def_cfa_offset 24
 650              		.cfi_offset 3, -24
 651              		.cfi_offset 4, -20
 652              		.cfi_offset 5, -16
 653              		.cfi_offset 6, -12
 654              		.cfi_offset 7, -8
 655              		.cfi_offset 14, -4
 656 0002 0446     		mov	r4, r0
 657 0004 0F46     		mov	r7, r1
 658 0006 1546     		mov	r5, r2
 659 0008 1E46     		mov	r6, r3
 219:Middlewares/LVGL/GUI/lvgl/src/misc/lv_style.c ****     lv_memset_00(tr, sizeof(lv_style_transition_dsc_t));
 660              		.loc 1 219 5 is_stmt 1 view .LVU205
 661 000a 1421     		movs	r1, #20
 662              	.LVL61:
 663              		.loc 1 219 5 is_stmt 0 view .LVU206
 664 000c FFF7FEFF 		bl	lv_memset_00
 665              	.LVL62:
 220:Middlewares/LVGL/GUI/lvgl/src/misc/lv_style.c ****     tr->props = props;
 666              		.loc 1 220 5 is_stmt 1 view .LVU207
 667              		.loc 1 220 15 is_stmt 0 view .LVU208
 668 0010 2760     		str	r7, [r4]
 221:Middlewares/LVGL/GUI/lvgl/src/misc/lv_style.c ****     tr->path_xcb = path_cb == NULL ? lv_anim_path_linear : path_cb;
 669              		.loc 1 221 5 is_stmt 1 view .LVU209
 670              		.loc 1 221 58 is_stmt 0 view .LVU210
 671 0012 35B1     		cbz	r5, .L62
 672              	.LVL63:
 673              	.L59:
 674              		.loc 1 221 18 discriminator 4 view .LVU211
 675 0014 A560     		str	r5, [r4, #8]
 222:Middlewares/LVGL/GUI/lvgl/src/misc/lv_style.c ****     tr->time = time;
 676              		.loc 1 222 5 is_stmt 1 discriminator 4 view .LVU212
 677              		.loc 1 222 14 is_stmt 0 discriminator 4 view .LVU213
 678 0016 E660     		str	r6, [r4, #12]
 223:Middlewares/LVGL/GUI/lvgl/src/misc/lv_style.c ****     tr->delay = delay;
 679              		.loc 1 223 5 is_stmt 1 discriminator 4 view .LVU214
 680              		.loc 1 223 15 is_stmt 0 discriminator 4 view .LVU215
 681 0018 069B     		ldr	r3, [sp, #24]
 682 001a 2361     		str	r3, [r4, #16]
 224:Middlewares/LVGL/GUI/lvgl/src/misc/lv_style.c **** #if LV_USE_USER_DATA
 225:Middlewares/LVGL/GUI/lvgl/src/misc/lv_style.c ****     tr->user_data = user_data;
 683              		.loc 1 225 5 is_stmt 1 discriminator 4 view .LVU216
 684              		.loc 1 225 19 is_stmt 0 discriminator 4 view .LVU217
 685 001c 079B     		ldr	r3, [sp, #28]
 686 001e 6360     		str	r3, [r4, #4]
 226:Middlewares/LVGL/GUI/lvgl/src/misc/lv_style.c **** #else
 227:Middlewares/LVGL/GUI/lvgl/src/misc/lv_style.c ****     LV_UNUSED(user_data);
 228:Middlewares/LVGL/GUI/lvgl/src/misc/lv_style.c **** #endif
 229:Middlewares/LVGL/GUI/lvgl/src/misc/lv_style.c **** }
 687              		.loc 1 229 1 discriminator 4 view .LVU218
 688 0020 F8BD     		pop	{r3, r4, r5, r6, r7, pc}
 689              	.LVL64:
 690              	.L62:
 221:Middlewares/LVGL/GUI/lvgl/src/misc/lv_style.c ****     tr->time = time;
 691              		.loc 1 221 58 view .LVU219
ARM GAS  C:\Users\ADMINI~1\AppData\Local\Temp\ccjxskpe.s 			page 26


 692 0022 014D     		ldr	r5, .L63
 693              	.LVL65:
 221:Middlewares/LVGL/GUI/lvgl/src/misc/lv_style.c ****     tr->time = time;
 694              		.loc 1 221 58 view .LVU220
 695 0024 F6E7     		b	.L59
 696              	.L64:
 697 0026 00BF     		.align	2
 698              	.L63:
 699 0028 00000000 		.word	lv_anim_path_linear
 700              		.cfi_endproc
 701              	.LFE58:
 703              		.section	.text.lv_style_prop_get_default,"ax",%progbits
 704              		.align	1
 705              		.global	lv_style_prop_get_default
 706              		.syntax unified
 707              		.thumb
 708              		.thumb_func
 710              	lv_style_prop_get_default:
 711              	.LVL66:
 712              	.LFB59:
 230:Middlewares/LVGL/GUI/lvgl/src/misc/lv_style.c **** 
 231:Middlewares/LVGL/GUI/lvgl/src/misc/lv_style.c **** lv_style_value_t lv_style_prop_get_default(lv_style_prop_t prop)
 232:Middlewares/LVGL/GUI/lvgl/src/misc/lv_style.c **** {
 713              		.loc 1 232 1 is_stmt 1 view -0
 714              		.cfi_startproc
 715              		@ args = 0, pretend = 0, frame = 0
 716              		@ frame_needed = 0, uses_anonymous_args = 0
 717              		@ link register save eliminated.
 233:Middlewares/LVGL/GUI/lvgl/src/misc/lv_style.c ****     lv_style_value_t value;
 718              		.loc 1 233 5 view .LVU222
 234:Middlewares/LVGL/GUI/lvgl/src/misc/lv_style.c ****     switch(prop) {
 719              		.loc 1 234 5 view .LVU223
 720 0000 5328     		cmp	r0, #83
 721 0002 20D8     		bhi	.L66
 722 0004 2028     		cmp	r0, #32
 723 0006 43D3     		bcc	.L67
 724 0008 2038     		subs	r0, r0, #32
 725              	.LVL67:
 726              		.loc 1 234 5 is_stmt 0 view .LVU224
 727 000a 3328     		cmp	r0, #51
 728 000c 40D8     		bhi	.L67
 729 000e DFE800F0 		tbb	[pc, r0]
 730              	.L69:
 731 0012 4A       		.byte	(.L73-.L69)/2
 732 0013 3F       		.byte	(.L67-.L69)/2
 733 0014 50       		.byte	(.L70-.L69)/2
 734 0015 3F       		.byte	(.L67-.L69)/2
 735 0016 3F       		.byte	(.L67-.L69)/2
 736 0017 54       		.byte	(.L72-.L69)/2
 737 0018 3F       		.byte	(.L67-.L69)/2
 738 0019 3F       		.byte	(.L67-.L69)/2
 739 001a 3F       		.byte	(.L67-.L69)/2
 740 001b 48       		.byte	(.L68-.L69)/2
 741 001c 3F       		.byte	(.L67-.L69)/2
 742 001d 3F       		.byte	(.L67-.L69)/2
 743 001e 3F       		.byte	(.L67-.L69)/2
 744 001f 3F       		.byte	(.L67-.L69)/2
ARM GAS  C:\Users\ADMINI~1\AppData\Local\Temp\ccjxskpe.s 			page 27


 745 0020 3F       		.byte	(.L67-.L69)/2
 746 0021 3F       		.byte	(.L67-.L69)/2
 747 0022 50       		.byte	(.L70-.L69)/2
 748 0023 48       		.byte	(.L68-.L69)/2
 749 0024 3F       		.byte	(.L67-.L69)/2
 750 0025 56       		.byte	(.L71-.L69)/2
 751 0026 3F       		.byte	(.L67-.L69)/2
 752 0027 3F       		.byte	(.L67-.L69)/2
 753 0028 3F       		.byte	(.L67-.L69)/2
 754 0029 3F       		.byte	(.L67-.L69)/2
 755 002a 3F       		.byte	(.L67-.L69)/2
 756 002b 3F       		.byte	(.L67-.L69)/2
 757 002c 3F       		.byte	(.L67-.L69)/2
 758 002d 50       		.byte	(.L70-.L69)/2
 759 002e 3F       		.byte	(.L67-.L69)/2
 760 002f 3F       		.byte	(.L67-.L69)/2
 761 0030 3F       		.byte	(.L67-.L69)/2
 762 0031 3F       		.byte	(.L67-.L69)/2
 763 0032 3F       		.byte	(.L67-.L69)/2
 764 0033 3F       		.byte	(.L67-.L69)/2
 765 0034 3F       		.byte	(.L67-.L69)/2
 766 0035 3F       		.byte	(.L67-.L69)/2
 767 0036 50       		.byte	(.L70-.L69)/2
 768 0037 3F       		.byte	(.L67-.L69)/2
 769 0038 48       		.byte	(.L68-.L69)/2
 770 0039 50       		.byte	(.L70-.L69)/2
 771 003a 3F       		.byte	(.L67-.L69)/2
 772 003b 3F       		.byte	(.L67-.L69)/2
 773 003c 3F       		.byte	(.L67-.L69)/2
 774 003d 3F       		.byte	(.L67-.L69)/2
 775 003e 3F       		.byte	(.L67-.L69)/2
 776 003f 50       		.byte	(.L70-.L69)/2
 777 0040 48       		.byte	(.L68-.L69)/2
 778 0041 3F       		.byte	(.L67-.L69)/2
 779 0042 3F       		.byte	(.L67-.L69)/2
 780 0043 3F       		.byte	(.L67-.L69)/2
 781 0044 50       		.byte	(.L70-.L69)/2
 782 0045 48       		.byte	(.L68-.L69)/2
 783              	.LVL68:
 784              		.p2align 1
 785              	.L66:
 786              		.loc 1 234 5 view .LVU225
 787 0046 41F25943 		movw	r3, #5209
 788 004a 9842     		cmp	r0, r3
 789 004c 39D0     		beq	.L74
 790 004e 06D9     		bls	.L80
 791 0050 43F60E03 		movw	r3, #14350
 792 0054 9842     		cmp	r0, r3
 793 0056 1BD1     		bne	.L67
 235:Middlewares/LVGL/GUI/lvgl/src/misc/lv_style.c ****         case LV_STYLE_TRANSFORM_ZOOM:
 236:Middlewares/LVGL/GUI/lvgl/src/misc/lv_style.c ****             value.num = LV_IMG_ZOOM_NONE;
 794              		.loc 1 236 13 is_stmt 1 view .LVU226
 795              		.loc 1 236 23 is_stmt 0 view .LVU227
 796 0058 4FF48070 		mov	r0, #256
 797              	.LVL69:
 237:Middlewares/LVGL/GUI/lvgl/src/misc/lv_style.c ****             break;
 798              		.loc 1 237 13 is_stmt 1 view .LVU228
ARM GAS  C:\Users\ADMINI~1\AppData\Local\Temp\ccjxskpe.s 			page 28


 799 005c 7047     		bx	lr
 800              	.LVL70:
 801              	.L80:
 234:Middlewares/LVGL/GUI/lvgl/src/misc/lv_style.c ****     switch(prop) {
 802              		.loc 1 234 5 is_stmt 0 view .LVU229
 803 005e 41F20303 		movw	r3, #4099
 804 0062 9842     		cmp	r0, r3
 805 0064 04D0     		beq	.L76
 806 0066 06D9     		bls	.L81
 807 0068 41F20603 		movw	r3, #4102
 808 006c 9842     		cmp	r0, r3
 809 006e 0FD1     		bne	.L67
 810              	.L76:
 238:Middlewares/LVGL/GUI/lvgl/src/misc/lv_style.c ****         case LV_STYLE_BG_COLOR:
 239:Middlewares/LVGL/GUI/lvgl/src/misc/lv_style.c ****             value.color = lv_color_white();
 240:Middlewares/LVGL/GUI/lvgl/src/misc/lv_style.c ****             break;
 241:Middlewares/LVGL/GUI/lvgl/src/misc/lv_style.c ****         case LV_STYLE_BG_GRAD_COLOR:
 242:Middlewares/LVGL/GUI/lvgl/src/misc/lv_style.c ****         case LV_STYLE_BORDER_COLOR:
 243:Middlewares/LVGL/GUI/lvgl/src/misc/lv_style.c ****         case LV_STYLE_SHADOW_COLOR:
 244:Middlewares/LVGL/GUI/lvgl/src/misc/lv_style.c ****         case LV_STYLE_OUTLINE_COLOR:
 245:Middlewares/LVGL/GUI/lvgl/src/misc/lv_style.c ****         case LV_STYLE_ARC_COLOR:
 246:Middlewares/LVGL/GUI/lvgl/src/misc/lv_style.c ****         case LV_STYLE_LINE_COLOR:
 247:Middlewares/LVGL/GUI/lvgl/src/misc/lv_style.c ****         case LV_STYLE_TEXT_COLOR:
 248:Middlewares/LVGL/GUI/lvgl/src/misc/lv_style.c ****         case LV_STYLE_IMG_RECOLOR:
 249:Middlewares/LVGL/GUI/lvgl/src/misc/lv_style.c ****             value.color = lv_color_black();
 250:Middlewares/LVGL/GUI/lvgl/src/misc/lv_style.c ****             break;
 251:Middlewares/LVGL/GUI/lvgl/src/misc/lv_style.c ****         case LV_STYLE_OPA:
 252:Middlewares/LVGL/GUI/lvgl/src/misc/lv_style.c ****         case LV_STYLE_BORDER_OPA:
 253:Middlewares/LVGL/GUI/lvgl/src/misc/lv_style.c ****         case LV_STYLE_TEXT_OPA:
 254:Middlewares/LVGL/GUI/lvgl/src/misc/lv_style.c ****         case LV_STYLE_IMG_OPA:
 255:Middlewares/LVGL/GUI/lvgl/src/misc/lv_style.c ****         case LV_STYLE_BG_IMG_OPA:
 256:Middlewares/LVGL/GUI/lvgl/src/misc/lv_style.c ****         case LV_STYLE_OUTLINE_OPA:
 257:Middlewares/LVGL/GUI/lvgl/src/misc/lv_style.c ****         case LV_STYLE_SHADOW_OPA:
 258:Middlewares/LVGL/GUI/lvgl/src/misc/lv_style.c ****         case LV_STYLE_LINE_OPA:
 259:Middlewares/LVGL/GUI/lvgl/src/misc/lv_style.c ****         case LV_STYLE_ARC_OPA:
 260:Middlewares/LVGL/GUI/lvgl/src/misc/lv_style.c ****             value.num = LV_OPA_COVER;
 261:Middlewares/LVGL/GUI/lvgl/src/misc/lv_style.c ****             break;
 262:Middlewares/LVGL/GUI/lvgl/src/misc/lv_style.c ****         case LV_STYLE_BG_GRAD_STOP:
 263:Middlewares/LVGL/GUI/lvgl/src/misc/lv_style.c ****             value.num = 255;
 264:Middlewares/LVGL/GUI/lvgl/src/misc/lv_style.c ****             break;
 265:Middlewares/LVGL/GUI/lvgl/src/misc/lv_style.c ****         case LV_STYLE_BORDER_SIDE:
 266:Middlewares/LVGL/GUI/lvgl/src/misc/lv_style.c ****             value.num = LV_BORDER_SIDE_FULL;
 267:Middlewares/LVGL/GUI/lvgl/src/misc/lv_style.c ****             break;
 268:Middlewares/LVGL/GUI/lvgl/src/misc/lv_style.c ****         case LV_STYLE_TEXT_FONT:
 269:Middlewares/LVGL/GUI/lvgl/src/misc/lv_style.c ****             value.ptr = LV_FONT_DEFAULT;
 270:Middlewares/LVGL/GUI/lvgl/src/misc/lv_style.c ****             break;
 271:Middlewares/LVGL/GUI/lvgl/src/misc/lv_style.c ****         case LV_STYLE_MAX_WIDTH:
 272:Middlewares/LVGL/GUI/lvgl/src/misc/lv_style.c ****         case LV_STYLE_MAX_HEIGHT:
 273:Middlewares/LVGL/GUI/lvgl/src/misc/lv_style.c ****             value.num = LV_COORD_MAX;
 811              		.loc 1 273 13 is_stmt 1 view .LVU230
 812              		.loc 1 273 23 is_stmt 0 view .LVU231
 813 0070 6FF06040 		mvn	r0, #-536870912
 814              	.LVL71:
 274:Middlewares/LVGL/GUI/lvgl/src/misc/lv_style.c ****             break;
 815              		.loc 1 274 13 is_stmt 1 view .LVU232
 816 0074 7047     		bx	lr
 817              	.LVL72:
ARM GAS  C:\Users\ADMINI~1\AppData\Local\Temp\ccjxskpe.s 			page 29


 818              	.L81:
 234:Middlewares/LVGL/GUI/lvgl/src/misc/lv_style.c ****         case LV_STYLE_TRANSFORM_ZOOM:
 819              		.loc 1 234 5 is_stmt 0 view .LVU233
 820 0076 40F26243 		movw	r3, #1122
 821 007a 9842     		cmp	r0, r3
 822 007c 11D0     		beq	.L68
 823 007e 09D9     		bls	.L82
 824 0080 40F63C03 		movw	r3, #2108
 825 0084 9842     		cmp	r0, r3
 826 0086 0CD0     		beq	.L68
 827 0088 40F64503 		movw	r3, #2117
 828 008c 9842     		cmp	r0, r3
 829 008e 08D0     		beq	.L68
 830              	.LVL73:
 831              	.L67:
 275:Middlewares/LVGL/GUI/lvgl/src/misc/lv_style.c ****         default:
 276:Middlewares/LVGL/GUI/lvgl/src/misc/lv_style.c ****             value.ptr = NULL;
 832              		.loc 1 276 13 is_stmt 1 view .LVU234
 833              		.loc 1 276 23 is_stmt 0 view .LVU235
 834 0090 0020     		movs	r0, #0
 277:Middlewares/LVGL/GUI/lvgl/src/misc/lv_style.c ****             value.num = 0;
 835              		.loc 1 277 13 is_stmt 1 view .LVU236
 278:Middlewares/LVGL/GUI/lvgl/src/misc/lv_style.c ****             break;
 836              		.loc 1 278 13 view .LVU237
 279:Middlewares/LVGL/GUI/lvgl/src/misc/lv_style.c ****     }
 280:Middlewares/LVGL/GUI/lvgl/src/misc/lv_style.c **** 
 281:Middlewares/LVGL/GUI/lvgl/src/misc/lv_style.c ****     return value;
 837              		.loc 1 281 5 view .LVU238
 282:Middlewares/LVGL/GUI/lvgl/src/misc/lv_style.c **** }
 838              		.loc 1 282 1 is_stmt 0 view .LVU239
 839 0092 7047     		bx	lr
 840              	.LVL74:
 841              	.L82:
 234:Middlewares/LVGL/GUI/lvgl/src/misc/lv_style.c ****         case LV_STYLE_TRANSFORM_ZOOM:
 842              		.loc 1 234 5 view .LVU240
 843 0094 40F25743 		movw	r3, #1111
 844 0098 9842     		cmp	r0, r3
 845 009a 0AD0     		beq	.L70
 846 009c B0F58B6F 		cmp	r0, #1112
 847 00a0 F6D1     		bne	.L67
 848              	.LVL75:
 849              	.L68:
 260:Middlewares/LVGL/GUI/lvgl/src/misc/lv_style.c ****             break;
 850              		.loc 1 260 13 is_stmt 1 view .LVU241
 260:Middlewares/LVGL/GUI/lvgl/src/misc/lv_style.c ****             break;
 851              		.loc 1 260 23 is_stmt 0 view .LVU242
 852 00a2 FF20     		movs	r0, #255
 261:Middlewares/LVGL/GUI/lvgl/src/misc/lv_style.c ****         case LV_STYLE_BG_GRAD_STOP:
 853              		.loc 1 261 13 is_stmt 1 view .LVU243
 854 00a4 7047     		bx	lr
 855              	.L73:
 239:Middlewares/LVGL/GUI/lvgl/src/misc/lv_style.c ****             break;
 856              		.loc 1 239 13 view .LVU244
 857              	.LBB34:
 858              	.LBI34:
 859              		.file 3 "Middlewares/LVGL/GUI/lvgl/src/misc/lv_color.h"
   1:Middlewares/LVGL/GUI/lvgl/src/misc/lv_color.h **** /**
ARM GAS  C:\Users\ADMINI~1\AppData\Local\Temp\ccjxskpe.s 			page 30


   2:Middlewares/LVGL/GUI/lvgl/src/misc/lv_color.h ****  * @file lv_color.h
   3:Middlewares/LVGL/GUI/lvgl/src/misc/lv_color.h ****  *
   4:Middlewares/LVGL/GUI/lvgl/src/misc/lv_color.h ****  */
   5:Middlewares/LVGL/GUI/lvgl/src/misc/lv_color.h **** 
   6:Middlewares/LVGL/GUI/lvgl/src/misc/lv_color.h **** #ifndef LV_COLOR_H
   7:Middlewares/LVGL/GUI/lvgl/src/misc/lv_color.h **** #define LV_COLOR_H
   8:Middlewares/LVGL/GUI/lvgl/src/misc/lv_color.h **** 
   9:Middlewares/LVGL/GUI/lvgl/src/misc/lv_color.h **** #ifdef __cplusplus
  10:Middlewares/LVGL/GUI/lvgl/src/misc/lv_color.h **** extern "C" {
  11:Middlewares/LVGL/GUI/lvgl/src/misc/lv_color.h **** #endif
  12:Middlewares/LVGL/GUI/lvgl/src/misc/lv_color.h **** 
  13:Middlewares/LVGL/GUI/lvgl/src/misc/lv_color.h **** /*********************
  14:Middlewares/LVGL/GUI/lvgl/src/misc/lv_color.h ****  *      INCLUDES
  15:Middlewares/LVGL/GUI/lvgl/src/misc/lv_color.h ****  *********************/
  16:Middlewares/LVGL/GUI/lvgl/src/misc/lv_color.h **** #include "../lv_conf_internal.h"
  17:Middlewares/LVGL/GUI/lvgl/src/misc/lv_color.h **** #include "lv_assert.h"
  18:Middlewares/LVGL/GUI/lvgl/src/misc/lv_color.h **** #include "lv_math.h"
  19:Middlewares/LVGL/GUI/lvgl/src/misc/lv_color.h **** #include "lv_types.h"
  20:Middlewares/LVGL/GUI/lvgl/src/misc/lv_color.h **** 
  21:Middlewares/LVGL/GUI/lvgl/src/misc/lv_color.h **** /*Error checking*/
  22:Middlewares/LVGL/GUI/lvgl/src/misc/lv_color.h **** #if LV_COLOR_DEPTH == 24
  23:Middlewares/LVGL/GUI/lvgl/src/misc/lv_color.h **** #error "LV_COLOR_DEPTH 24 is deprecated. Use LV_COLOR_DEPTH 32 instead (lv_conf.h)"
  24:Middlewares/LVGL/GUI/lvgl/src/misc/lv_color.h **** #endif
  25:Middlewares/LVGL/GUI/lvgl/src/misc/lv_color.h **** 
  26:Middlewares/LVGL/GUI/lvgl/src/misc/lv_color.h **** #if LV_COLOR_DEPTH != 32 && LV_COLOR_SCREEN_TRANSP != 0
  27:Middlewares/LVGL/GUI/lvgl/src/misc/lv_color.h **** #error "LV_COLOR_SCREEN_TRANSP requires LV_COLOR_DEPTH == 32. Set it in lv_conf.h"
  28:Middlewares/LVGL/GUI/lvgl/src/misc/lv_color.h **** #endif
  29:Middlewares/LVGL/GUI/lvgl/src/misc/lv_color.h **** 
  30:Middlewares/LVGL/GUI/lvgl/src/misc/lv_color.h **** #if LV_COLOR_DEPTH != 16 && LV_COLOR_16_SWAP != 0
  31:Middlewares/LVGL/GUI/lvgl/src/misc/lv_color.h **** #error "LV_COLOR_16_SWAP requires LV_COLOR_DEPTH == 16. Set it in lv_conf.h"
  32:Middlewares/LVGL/GUI/lvgl/src/misc/lv_color.h **** #endif
  33:Middlewares/LVGL/GUI/lvgl/src/misc/lv_color.h **** 
  34:Middlewares/LVGL/GUI/lvgl/src/misc/lv_color.h **** #include <stdint.h>
  35:Middlewares/LVGL/GUI/lvgl/src/misc/lv_color.h **** 
  36:Middlewares/LVGL/GUI/lvgl/src/misc/lv_color.h **** /*********************
  37:Middlewares/LVGL/GUI/lvgl/src/misc/lv_color.h ****  *      DEFINES
  38:Middlewares/LVGL/GUI/lvgl/src/misc/lv_color.h ****  *********************/
  39:Middlewares/LVGL/GUI/lvgl/src/misc/lv_color.h **** LV_EXPORT_CONST_INT(LV_COLOR_DEPTH);
  40:Middlewares/LVGL/GUI/lvgl/src/misc/lv_color.h **** LV_EXPORT_CONST_INT(LV_COLOR_16_SWAP);
  41:Middlewares/LVGL/GUI/lvgl/src/misc/lv_color.h **** 
  42:Middlewares/LVGL/GUI/lvgl/src/misc/lv_color.h **** /**
  43:Middlewares/LVGL/GUI/lvgl/src/misc/lv_color.h ****  * Opacity percentages.
  44:Middlewares/LVGL/GUI/lvgl/src/misc/lv_color.h ****  */
  45:Middlewares/LVGL/GUI/lvgl/src/misc/lv_color.h **** enum {
  46:Middlewares/LVGL/GUI/lvgl/src/misc/lv_color.h ****     LV_OPA_TRANSP = 0,
  47:Middlewares/LVGL/GUI/lvgl/src/misc/lv_color.h ****     LV_OPA_0      = 0,
  48:Middlewares/LVGL/GUI/lvgl/src/misc/lv_color.h ****     LV_OPA_10     = 25,
  49:Middlewares/LVGL/GUI/lvgl/src/misc/lv_color.h ****     LV_OPA_20     = 51,
  50:Middlewares/LVGL/GUI/lvgl/src/misc/lv_color.h ****     LV_OPA_30     = 76,
  51:Middlewares/LVGL/GUI/lvgl/src/misc/lv_color.h ****     LV_OPA_40     = 102,
  52:Middlewares/LVGL/GUI/lvgl/src/misc/lv_color.h ****     LV_OPA_50     = 127,
  53:Middlewares/LVGL/GUI/lvgl/src/misc/lv_color.h ****     LV_OPA_60     = 153,
  54:Middlewares/LVGL/GUI/lvgl/src/misc/lv_color.h ****     LV_OPA_70     = 178,
  55:Middlewares/LVGL/GUI/lvgl/src/misc/lv_color.h ****     LV_OPA_80     = 204,
  56:Middlewares/LVGL/GUI/lvgl/src/misc/lv_color.h ****     LV_OPA_90     = 229,
  57:Middlewares/LVGL/GUI/lvgl/src/misc/lv_color.h ****     LV_OPA_100    = 255,
  58:Middlewares/LVGL/GUI/lvgl/src/misc/lv_color.h ****     LV_OPA_COVER  = 255,
ARM GAS  C:\Users\ADMINI~1\AppData\Local\Temp\ccjxskpe.s 			page 31


  59:Middlewares/LVGL/GUI/lvgl/src/misc/lv_color.h **** };
  60:Middlewares/LVGL/GUI/lvgl/src/misc/lv_color.h **** 
  61:Middlewares/LVGL/GUI/lvgl/src/misc/lv_color.h **** #define LV_OPA_MIN 2    /*Opacities below this will be transparent*/
  62:Middlewares/LVGL/GUI/lvgl/src/misc/lv_color.h **** #define LV_OPA_MAX 253  /*Opacities above this will fully cover*/
  63:Middlewares/LVGL/GUI/lvgl/src/misc/lv_color.h **** 
  64:Middlewares/LVGL/GUI/lvgl/src/misc/lv_color.h **** #if LV_COLOR_DEPTH == 1
  65:Middlewares/LVGL/GUI/lvgl/src/misc/lv_color.h **** #define LV_COLOR_SIZE 8
  66:Middlewares/LVGL/GUI/lvgl/src/misc/lv_color.h **** #elif LV_COLOR_DEPTH == 8
  67:Middlewares/LVGL/GUI/lvgl/src/misc/lv_color.h **** #define LV_COLOR_SIZE 8
  68:Middlewares/LVGL/GUI/lvgl/src/misc/lv_color.h **** #elif LV_COLOR_DEPTH == 16
  69:Middlewares/LVGL/GUI/lvgl/src/misc/lv_color.h **** #define LV_COLOR_SIZE 16
  70:Middlewares/LVGL/GUI/lvgl/src/misc/lv_color.h **** #elif LV_COLOR_DEPTH == 32
  71:Middlewares/LVGL/GUI/lvgl/src/misc/lv_color.h **** #define LV_COLOR_SIZE 32
  72:Middlewares/LVGL/GUI/lvgl/src/misc/lv_color.h **** #else
  73:Middlewares/LVGL/GUI/lvgl/src/misc/lv_color.h **** #error "Invalid LV_COLOR_DEPTH in lv_conf.h! Set it to 1, 8, 16 or 32!"
  74:Middlewares/LVGL/GUI/lvgl/src/misc/lv_color.h **** #endif
  75:Middlewares/LVGL/GUI/lvgl/src/misc/lv_color.h **** 
  76:Middlewares/LVGL/GUI/lvgl/src/misc/lv_color.h **** #if defined(__cplusplus) && !defined(_LV_COLOR_HAS_MODERN_CPP)
  77:Middlewares/LVGL/GUI/lvgl/src/misc/lv_color.h **** /**
  78:Middlewares/LVGL/GUI/lvgl/src/misc/lv_color.h **** * MSVC compiler's definition of the __cplusplus indicating 199711L regardless to C++ standard versi
  79:Middlewares/LVGL/GUI/lvgl/src/misc/lv_color.h **** * see https://devblogs.microsoft.com/cppblog/msvc-now-correctly-reports-cplusplus
  80:Middlewares/LVGL/GUI/lvgl/src/misc/lv_color.h **** * so we use _MSC_VER macro instead of __cplusplus
  81:Middlewares/LVGL/GUI/lvgl/src/misc/lv_color.h **** */
  82:Middlewares/LVGL/GUI/lvgl/src/misc/lv_color.h **** #ifdef _MSC_VER
  83:Middlewares/LVGL/GUI/lvgl/src/misc/lv_color.h **** #if _MSC_VER >= 1900 /*Visual Studio 2015*/
  84:Middlewares/LVGL/GUI/lvgl/src/misc/lv_color.h **** #define _LV_COLOR_HAS_MODERN_CPP 1
  85:Middlewares/LVGL/GUI/lvgl/src/misc/lv_color.h **** #endif
  86:Middlewares/LVGL/GUI/lvgl/src/misc/lv_color.h **** #else
  87:Middlewares/LVGL/GUI/lvgl/src/misc/lv_color.h **** #if __cplusplus >= 201103L
  88:Middlewares/LVGL/GUI/lvgl/src/misc/lv_color.h **** #define _LV_COLOR_HAS_MODERN_CPP 1
  89:Middlewares/LVGL/GUI/lvgl/src/misc/lv_color.h **** #endif
  90:Middlewares/LVGL/GUI/lvgl/src/misc/lv_color.h **** #endif
  91:Middlewares/LVGL/GUI/lvgl/src/misc/lv_color.h **** #endif /*__cplusplus*/
  92:Middlewares/LVGL/GUI/lvgl/src/misc/lv_color.h **** 
  93:Middlewares/LVGL/GUI/lvgl/src/misc/lv_color.h **** #ifndef _LV_COLOR_HAS_MODERN_CPP
  94:Middlewares/LVGL/GUI/lvgl/src/misc/lv_color.h **** #define _LV_COLOR_HAS_MODERN_CPP 0
  95:Middlewares/LVGL/GUI/lvgl/src/misc/lv_color.h **** #endif
  96:Middlewares/LVGL/GUI/lvgl/src/misc/lv_color.h **** 
  97:Middlewares/LVGL/GUI/lvgl/src/misc/lv_color.h **** #if _LV_COLOR_HAS_MODERN_CPP
  98:Middlewares/LVGL/GUI/lvgl/src/misc/lv_color.h **** /*Fix msvc compiler error C4576 inside C++ code*/
  99:Middlewares/LVGL/GUI/lvgl/src/misc/lv_color.h **** #define _LV_COLOR_MAKE_TYPE_HELPER lv_color_t
 100:Middlewares/LVGL/GUI/lvgl/src/misc/lv_color.h **** #else
 101:Middlewares/LVGL/GUI/lvgl/src/misc/lv_color.h **** #define _LV_COLOR_MAKE_TYPE_HELPER (lv_color_t)
 102:Middlewares/LVGL/GUI/lvgl/src/misc/lv_color.h **** #endif
 103:Middlewares/LVGL/GUI/lvgl/src/misc/lv_color.h **** 
 104:Middlewares/LVGL/GUI/lvgl/src/misc/lv_color.h **** /*---------------------------------------
 105:Middlewares/LVGL/GUI/lvgl/src/misc/lv_color.h ****  * Macros for all existing color depths
 106:Middlewares/LVGL/GUI/lvgl/src/misc/lv_color.h ****  * to set/get values of the color channels
 107:Middlewares/LVGL/GUI/lvgl/src/misc/lv_color.h ****  *------------------------------------------*/
 108:Middlewares/LVGL/GUI/lvgl/src/misc/lv_color.h **** # define LV_COLOR_SET_R1(c, v) (c).ch.red = (uint8_t)((v) & 0x1)
 109:Middlewares/LVGL/GUI/lvgl/src/misc/lv_color.h **** # define LV_COLOR_SET_G1(c, v) (c).ch.green = (uint8_t)((v) & 0x1)
 110:Middlewares/LVGL/GUI/lvgl/src/misc/lv_color.h **** # define LV_COLOR_SET_B1(c, v) (c).ch.blue = (uint8_t)((v) & 0x1)
 111:Middlewares/LVGL/GUI/lvgl/src/misc/lv_color.h **** # define LV_COLOR_SET_A1(c, v) do {} while(0)
 112:Middlewares/LVGL/GUI/lvgl/src/misc/lv_color.h **** 
 113:Middlewares/LVGL/GUI/lvgl/src/misc/lv_color.h **** # define LV_COLOR_GET_R1(c) (c).ch.red
 114:Middlewares/LVGL/GUI/lvgl/src/misc/lv_color.h **** # define LV_COLOR_GET_G1(c) (c).ch.green
 115:Middlewares/LVGL/GUI/lvgl/src/misc/lv_color.h **** # define LV_COLOR_GET_B1(c) (c).ch.blue
ARM GAS  C:\Users\ADMINI~1\AppData\Local\Temp\ccjxskpe.s 			page 32


 116:Middlewares/LVGL/GUI/lvgl/src/misc/lv_color.h **** # define LV_COLOR_GET_A1(c) 0xFF
 117:Middlewares/LVGL/GUI/lvgl/src/misc/lv_color.h **** 
 118:Middlewares/LVGL/GUI/lvgl/src/misc/lv_color.h **** # define _LV_COLOR_ZERO_INITIALIZER1 {0x00}
 119:Middlewares/LVGL/GUI/lvgl/src/misc/lv_color.h **** # define LV_COLOR_MAKE1(r8, g8, b8)  {(uint8_t)((b8 >> 7) | (g8 >> 7) | (r8 >> 7))}
 120:Middlewares/LVGL/GUI/lvgl/src/misc/lv_color.h **** 
 121:Middlewares/LVGL/GUI/lvgl/src/misc/lv_color.h **** # define LV_COLOR_SET_R8(c, v) (c).ch.red = (uint8_t)((v) & 0x7U)
 122:Middlewares/LVGL/GUI/lvgl/src/misc/lv_color.h **** # define LV_COLOR_SET_G8(c, v) (c).ch.green = (uint8_t)((v) & 0x7U)
 123:Middlewares/LVGL/GUI/lvgl/src/misc/lv_color.h **** # define LV_COLOR_SET_B8(c, v) (c).ch.blue = (uint8_t)((v) & 0x3U)
 124:Middlewares/LVGL/GUI/lvgl/src/misc/lv_color.h **** # define LV_COLOR_SET_A8(c, v) do {} while(0)
 125:Middlewares/LVGL/GUI/lvgl/src/misc/lv_color.h **** 
 126:Middlewares/LVGL/GUI/lvgl/src/misc/lv_color.h **** # define LV_COLOR_GET_R8(c) (c).ch.red
 127:Middlewares/LVGL/GUI/lvgl/src/misc/lv_color.h **** # define LV_COLOR_GET_G8(c) (c).ch.green
 128:Middlewares/LVGL/GUI/lvgl/src/misc/lv_color.h **** # define LV_COLOR_GET_B8(c) (c).ch.blue
 129:Middlewares/LVGL/GUI/lvgl/src/misc/lv_color.h **** # define LV_COLOR_GET_A8(c) 0xFF
 130:Middlewares/LVGL/GUI/lvgl/src/misc/lv_color.h **** 
 131:Middlewares/LVGL/GUI/lvgl/src/misc/lv_color.h **** # define _LV_COLOR_ZERO_INITIALIZER8 {{0x00, 0x00, 0x00}}
 132:Middlewares/LVGL/GUI/lvgl/src/misc/lv_color.h **** # define LV_COLOR_MAKE8(r8, g8, b8) {{(uint8_t)((b8 >> 6) & 0x3U), (uint8_t)((g8 >> 5) & 0x7U), (ui
 133:Middlewares/LVGL/GUI/lvgl/src/misc/lv_color.h **** 
 134:Middlewares/LVGL/GUI/lvgl/src/misc/lv_color.h **** # define LV_COLOR_SET_R16(c, v) (c).ch.red = (uint8_t)((v) & 0x1FU)
 135:Middlewares/LVGL/GUI/lvgl/src/misc/lv_color.h **** #if LV_COLOR_16_SWAP == 0
 136:Middlewares/LVGL/GUI/lvgl/src/misc/lv_color.h **** # define LV_COLOR_SET_G16(c, v) (c).ch.green = (uint8_t)((v) & 0x3FU)
 137:Middlewares/LVGL/GUI/lvgl/src/misc/lv_color.h **** #else
 138:Middlewares/LVGL/GUI/lvgl/src/misc/lv_color.h **** # define LV_COLOR_SET_G16(c, v) {(c).ch.green_h = (uint8_t)(((v) >> 3) & 0x7); (c).ch.green_l = (ui
 139:Middlewares/LVGL/GUI/lvgl/src/misc/lv_color.h **** #endif
 140:Middlewares/LVGL/GUI/lvgl/src/misc/lv_color.h **** # define LV_COLOR_SET_B16(c, v) (c).ch.blue = (uint8_t)((v) & 0x1FU)
 141:Middlewares/LVGL/GUI/lvgl/src/misc/lv_color.h **** # define LV_COLOR_SET_A16(c, v) do {} while(0)
 142:Middlewares/LVGL/GUI/lvgl/src/misc/lv_color.h **** 
 143:Middlewares/LVGL/GUI/lvgl/src/misc/lv_color.h **** # define LV_COLOR_GET_R16(c) (c).ch.red
 144:Middlewares/LVGL/GUI/lvgl/src/misc/lv_color.h **** #if LV_COLOR_16_SWAP == 0
 145:Middlewares/LVGL/GUI/lvgl/src/misc/lv_color.h **** # define LV_COLOR_GET_G16(c) (c).ch.green
 146:Middlewares/LVGL/GUI/lvgl/src/misc/lv_color.h **** #else
 147:Middlewares/LVGL/GUI/lvgl/src/misc/lv_color.h **** # define LV_COLOR_GET_G16(c) (((c).ch.green_h << 3) + (c).ch.green_l)
 148:Middlewares/LVGL/GUI/lvgl/src/misc/lv_color.h **** #endif
 149:Middlewares/LVGL/GUI/lvgl/src/misc/lv_color.h **** # define LV_COLOR_GET_B16(c) (c).ch.blue
 150:Middlewares/LVGL/GUI/lvgl/src/misc/lv_color.h **** # define LV_COLOR_GET_A16(c) 0xFF
 151:Middlewares/LVGL/GUI/lvgl/src/misc/lv_color.h **** 
 152:Middlewares/LVGL/GUI/lvgl/src/misc/lv_color.h **** #if LV_COLOR_16_SWAP == 0
 153:Middlewares/LVGL/GUI/lvgl/src/misc/lv_color.h **** # define _LV_COLOR_ZERO_INITIALIZER16  {{0x00, 0x00, 0x00}}
 154:Middlewares/LVGL/GUI/lvgl/src/misc/lv_color.h **** # define LV_COLOR_MAKE16(r8, g8, b8) {{(uint8_t)((b8 >> 3) & 0x1FU), (uint8_t)((g8 >> 2) & 0x3FU), 
 155:Middlewares/LVGL/GUI/lvgl/src/misc/lv_color.h **** #else
 156:Middlewares/LVGL/GUI/lvgl/src/misc/lv_color.h **** # define _LV_COLOR_ZERO_INITIALIZER16 {{0x00, 0x00, 0x00, 0x00}}
 157:Middlewares/LVGL/GUI/lvgl/src/misc/lv_color.h **** # define LV_COLOR_MAKE16(r8, g8, b8) {{(uint8_t)((g8 >> 5) & 0x7U), (uint8_t)((r8 >> 3) & 0x1FU), (
 158:Middlewares/LVGL/GUI/lvgl/src/misc/lv_color.h **** #endif
 159:Middlewares/LVGL/GUI/lvgl/src/misc/lv_color.h **** 
 160:Middlewares/LVGL/GUI/lvgl/src/misc/lv_color.h **** # define LV_COLOR_SET_R32(c, v) (c).ch.red = (uint8_t)((v) & 0xFF)
 161:Middlewares/LVGL/GUI/lvgl/src/misc/lv_color.h **** # define LV_COLOR_SET_G32(c, v) (c).ch.green = (uint8_t)((v) & 0xFF)
 162:Middlewares/LVGL/GUI/lvgl/src/misc/lv_color.h **** # define LV_COLOR_SET_B32(c, v) (c).ch.blue = (uint8_t)((v) & 0xFF)
 163:Middlewares/LVGL/GUI/lvgl/src/misc/lv_color.h **** # define LV_COLOR_SET_A32(c, v) (c).ch.alpha = (uint8_t)((v) & 0xFF)
 164:Middlewares/LVGL/GUI/lvgl/src/misc/lv_color.h **** 
 165:Middlewares/LVGL/GUI/lvgl/src/misc/lv_color.h **** # define LV_COLOR_GET_R32(c) (c).ch.red
 166:Middlewares/LVGL/GUI/lvgl/src/misc/lv_color.h **** # define LV_COLOR_GET_G32(c) (c).ch.green
 167:Middlewares/LVGL/GUI/lvgl/src/misc/lv_color.h **** # define LV_COLOR_GET_B32(c) (c).ch.blue
 168:Middlewares/LVGL/GUI/lvgl/src/misc/lv_color.h **** # define LV_COLOR_GET_A32(c) (c).ch.alpha
 169:Middlewares/LVGL/GUI/lvgl/src/misc/lv_color.h **** 
 170:Middlewares/LVGL/GUI/lvgl/src/misc/lv_color.h **** # define _LV_COLOR_ZERO_INITIALIZER32  {{0x00, 0x00, 0x00, 0x00}}
 171:Middlewares/LVGL/GUI/lvgl/src/misc/lv_color.h **** # define LV_COLOR_MAKE32(r8, g8, b8) {{b8, g8, r8, 0xff}} /*Fix 0xff alpha*/
 172:Middlewares/LVGL/GUI/lvgl/src/misc/lv_color.h **** 
ARM GAS  C:\Users\ADMINI~1\AppData\Local\Temp\ccjxskpe.s 			page 33


 173:Middlewares/LVGL/GUI/lvgl/src/misc/lv_color.h **** /*---------------------------------------
 174:Middlewares/LVGL/GUI/lvgl/src/misc/lv_color.h ****  * Macros for the current color depth
 175:Middlewares/LVGL/GUI/lvgl/src/misc/lv_color.h ****  * to set/get values of the color channels
 176:Middlewares/LVGL/GUI/lvgl/src/misc/lv_color.h ****  *------------------------------------------*/
 177:Middlewares/LVGL/GUI/lvgl/src/misc/lv_color.h **** #define LV_COLOR_SET_R(c, v) LV_CONCAT(LV_COLOR_SET_R, LV_COLOR_DEPTH)(c, v)
 178:Middlewares/LVGL/GUI/lvgl/src/misc/lv_color.h **** #define LV_COLOR_SET_G(c, v) LV_CONCAT(LV_COLOR_SET_G, LV_COLOR_DEPTH)(c, v)
 179:Middlewares/LVGL/GUI/lvgl/src/misc/lv_color.h **** #define LV_COLOR_SET_B(c, v) LV_CONCAT(LV_COLOR_SET_B, LV_COLOR_DEPTH)(c, v)
 180:Middlewares/LVGL/GUI/lvgl/src/misc/lv_color.h **** #define LV_COLOR_SET_A(c, v) LV_CONCAT(LV_COLOR_SET_A, LV_COLOR_DEPTH)(c, v)
 181:Middlewares/LVGL/GUI/lvgl/src/misc/lv_color.h **** 
 182:Middlewares/LVGL/GUI/lvgl/src/misc/lv_color.h **** #define LV_COLOR_GET_R(c) LV_CONCAT(LV_COLOR_GET_R, LV_COLOR_DEPTH)(c)
 183:Middlewares/LVGL/GUI/lvgl/src/misc/lv_color.h **** #define LV_COLOR_GET_G(c) LV_CONCAT(LV_COLOR_GET_G, LV_COLOR_DEPTH)(c)
 184:Middlewares/LVGL/GUI/lvgl/src/misc/lv_color.h **** #define LV_COLOR_GET_B(c) LV_CONCAT(LV_COLOR_GET_B, LV_COLOR_DEPTH)(c)
 185:Middlewares/LVGL/GUI/lvgl/src/misc/lv_color.h **** #define LV_COLOR_GET_A(c) LV_CONCAT(LV_COLOR_GET_A, LV_COLOR_DEPTH)(c)
 186:Middlewares/LVGL/GUI/lvgl/src/misc/lv_color.h **** 
 187:Middlewares/LVGL/GUI/lvgl/src/misc/lv_color.h **** #define _LV_COLOR_ZERO_INITIALIZER LV_CONCAT(_LV_COLOR_ZERO_INITIALIZER, LV_COLOR_DEPTH)
 188:Middlewares/LVGL/GUI/lvgl/src/misc/lv_color.h **** #define LV_COLOR_MAKE(r8, g8, b8) LV_CONCAT(LV_COLOR_MAKE, LV_COLOR_DEPTH)(r8, g8, b8)
 189:Middlewares/LVGL/GUI/lvgl/src/misc/lv_color.h **** 
 190:Middlewares/LVGL/GUI/lvgl/src/misc/lv_color.h **** /**********************
 191:Middlewares/LVGL/GUI/lvgl/src/misc/lv_color.h ****  *      TYPEDEFS
 192:Middlewares/LVGL/GUI/lvgl/src/misc/lv_color.h ****  **********************/
 193:Middlewares/LVGL/GUI/lvgl/src/misc/lv_color.h **** 
 194:Middlewares/LVGL/GUI/lvgl/src/misc/lv_color.h **** typedef union {
 195:Middlewares/LVGL/GUI/lvgl/src/misc/lv_color.h ****     uint8_t full; /*must be declared first to set all bits of byte via initializer list*/
 196:Middlewares/LVGL/GUI/lvgl/src/misc/lv_color.h ****     union {
 197:Middlewares/LVGL/GUI/lvgl/src/misc/lv_color.h ****         uint8_t blue : 1;
 198:Middlewares/LVGL/GUI/lvgl/src/misc/lv_color.h ****         uint8_t green : 1;
 199:Middlewares/LVGL/GUI/lvgl/src/misc/lv_color.h ****         uint8_t red : 1;
 200:Middlewares/LVGL/GUI/lvgl/src/misc/lv_color.h ****     } ch;
 201:Middlewares/LVGL/GUI/lvgl/src/misc/lv_color.h **** } lv_color1_t;
 202:Middlewares/LVGL/GUI/lvgl/src/misc/lv_color.h **** 
 203:Middlewares/LVGL/GUI/lvgl/src/misc/lv_color.h **** typedef union {
 204:Middlewares/LVGL/GUI/lvgl/src/misc/lv_color.h ****     struct {
 205:Middlewares/LVGL/GUI/lvgl/src/misc/lv_color.h ****         uint8_t blue : 2;
 206:Middlewares/LVGL/GUI/lvgl/src/misc/lv_color.h ****         uint8_t green : 3;
 207:Middlewares/LVGL/GUI/lvgl/src/misc/lv_color.h ****         uint8_t red : 3;
 208:Middlewares/LVGL/GUI/lvgl/src/misc/lv_color.h ****     } ch;
 209:Middlewares/LVGL/GUI/lvgl/src/misc/lv_color.h ****     uint8_t full;
 210:Middlewares/LVGL/GUI/lvgl/src/misc/lv_color.h **** } lv_color8_t;
 211:Middlewares/LVGL/GUI/lvgl/src/misc/lv_color.h **** 
 212:Middlewares/LVGL/GUI/lvgl/src/misc/lv_color.h **** typedef union {
 213:Middlewares/LVGL/GUI/lvgl/src/misc/lv_color.h ****     struct {
 214:Middlewares/LVGL/GUI/lvgl/src/misc/lv_color.h **** #if LV_COLOR_16_SWAP == 0
 215:Middlewares/LVGL/GUI/lvgl/src/misc/lv_color.h ****         uint16_t blue : 5;
 216:Middlewares/LVGL/GUI/lvgl/src/misc/lv_color.h ****         uint16_t green : 6;
 217:Middlewares/LVGL/GUI/lvgl/src/misc/lv_color.h ****         uint16_t red : 5;
 218:Middlewares/LVGL/GUI/lvgl/src/misc/lv_color.h **** #else
 219:Middlewares/LVGL/GUI/lvgl/src/misc/lv_color.h ****         uint16_t green_h : 3;
 220:Middlewares/LVGL/GUI/lvgl/src/misc/lv_color.h ****         uint16_t red : 5;
 221:Middlewares/LVGL/GUI/lvgl/src/misc/lv_color.h ****         uint16_t blue : 5;
 222:Middlewares/LVGL/GUI/lvgl/src/misc/lv_color.h ****         uint16_t green_l : 3;
 223:Middlewares/LVGL/GUI/lvgl/src/misc/lv_color.h **** #endif
 224:Middlewares/LVGL/GUI/lvgl/src/misc/lv_color.h ****     } ch;
 225:Middlewares/LVGL/GUI/lvgl/src/misc/lv_color.h ****     uint16_t full;
 226:Middlewares/LVGL/GUI/lvgl/src/misc/lv_color.h **** } lv_color16_t;
 227:Middlewares/LVGL/GUI/lvgl/src/misc/lv_color.h **** 
 228:Middlewares/LVGL/GUI/lvgl/src/misc/lv_color.h **** typedef union {
 229:Middlewares/LVGL/GUI/lvgl/src/misc/lv_color.h ****     struct {
ARM GAS  C:\Users\ADMINI~1\AppData\Local\Temp\ccjxskpe.s 			page 34


 230:Middlewares/LVGL/GUI/lvgl/src/misc/lv_color.h ****         uint8_t blue;
 231:Middlewares/LVGL/GUI/lvgl/src/misc/lv_color.h ****         uint8_t green;
 232:Middlewares/LVGL/GUI/lvgl/src/misc/lv_color.h ****         uint8_t red;
 233:Middlewares/LVGL/GUI/lvgl/src/misc/lv_color.h ****         uint8_t alpha;
 234:Middlewares/LVGL/GUI/lvgl/src/misc/lv_color.h ****     } ch;
 235:Middlewares/LVGL/GUI/lvgl/src/misc/lv_color.h ****     uint32_t full;
 236:Middlewares/LVGL/GUI/lvgl/src/misc/lv_color.h **** } lv_color32_t;
 237:Middlewares/LVGL/GUI/lvgl/src/misc/lv_color.h **** 
 238:Middlewares/LVGL/GUI/lvgl/src/misc/lv_color.h **** typedef LV_CONCAT3(uint, LV_COLOR_SIZE, _t) lv_color_int_t;
 239:Middlewares/LVGL/GUI/lvgl/src/misc/lv_color.h **** typedef LV_CONCAT3(lv_color, LV_COLOR_DEPTH, _t) lv_color_t;
 240:Middlewares/LVGL/GUI/lvgl/src/misc/lv_color.h **** 
 241:Middlewares/LVGL/GUI/lvgl/src/misc/lv_color.h **** typedef struct {
 242:Middlewares/LVGL/GUI/lvgl/src/misc/lv_color.h ****     uint16_t h;
 243:Middlewares/LVGL/GUI/lvgl/src/misc/lv_color.h ****     uint8_t s;
 244:Middlewares/LVGL/GUI/lvgl/src/misc/lv_color.h ****     uint8_t v;
 245:Middlewares/LVGL/GUI/lvgl/src/misc/lv_color.h **** } lv_color_hsv_t;
 246:Middlewares/LVGL/GUI/lvgl/src/misc/lv_color.h **** 
 247:Middlewares/LVGL/GUI/lvgl/src/misc/lv_color.h **** //! @cond Doxygen_Suppress
 248:Middlewares/LVGL/GUI/lvgl/src/misc/lv_color.h **** /*No idea where the guard is required but else throws warnings in the docs*/
 249:Middlewares/LVGL/GUI/lvgl/src/misc/lv_color.h **** typedef uint8_t lv_opa_t;
 250:Middlewares/LVGL/GUI/lvgl/src/misc/lv_color.h **** //! @endcond
 251:Middlewares/LVGL/GUI/lvgl/src/misc/lv_color.h **** 
 252:Middlewares/LVGL/GUI/lvgl/src/misc/lv_color.h **** struct _lv_color_filter_dsc_t;
 253:Middlewares/LVGL/GUI/lvgl/src/misc/lv_color.h **** 
 254:Middlewares/LVGL/GUI/lvgl/src/misc/lv_color.h **** typedef lv_color_t (*lv_color_filter_cb_t)(const struct _lv_color_filter_dsc_t *, lv_color_t, lv_op
 255:Middlewares/LVGL/GUI/lvgl/src/misc/lv_color.h **** 
 256:Middlewares/LVGL/GUI/lvgl/src/misc/lv_color.h **** typedef struct _lv_color_filter_dsc_t {
 257:Middlewares/LVGL/GUI/lvgl/src/misc/lv_color.h ****     lv_color_filter_cb_t filter_cb;
 258:Middlewares/LVGL/GUI/lvgl/src/misc/lv_color.h ****     void * user_data;
 259:Middlewares/LVGL/GUI/lvgl/src/misc/lv_color.h **** } lv_color_filter_dsc_t;
 260:Middlewares/LVGL/GUI/lvgl/src/misc/lv_color.h **** 
 261:Middlewares/LVGL/GUI/lvgl/src/misc/lv_color.h **** 
 262:Middlewares/LVGL/GUI/lvgl/src/misc/lv_color.h **** typedef enum {
 263:Middlewares/LVGL/GUI/lvgl/src/misc/lv_color.h ****     LV_PALETTE_RED,
 264:Middlewares/LVGL/GUI/lvgl/src/misc/lv_color.h ****     LV_PALETTE_PINK,
 265:Middlewares/LVGL/GUI/lvgl/src/misc/lv_color.h ****     LV_PALETTE_PURPLE,
 266:Middlewares/LVGL/GUI/lvgl/src/misc/lv_color.h ****     LV_PALETTE_DEEP_PURPLE,
 267:Middlewares/LVGL/GUI/lvgl/src/misc/lv_color.h ****     LV_PALETTE_INDIGO,
 268:Middlewares/LVGL/GUI/lvgl/src/misc/lv_color.h ****     LV_PALETTE_BLUE,
 269:Middlewares/LVGL/GUI/lvgl/src/misc/lv_color.h ****     LV_PALETTE_LIGHT_BLUE,
 270:Middlewares/LVGL/GUI/lvgl/src/misc/lv_color.h ****     LV_PALETTE_CYAN,
 271:Middlewares/LVGL/GUI/lvgl/src/misc/lv_color.h ****     LV_PALETTE_TEAL,
 272:Middlewares/LVGL/GUI/lvgl/src/misc/lv_color.h ****     LV_PALETTE_GREEN,
 273:Middlewares/LVGL/GUI/lvgl/src/misc/lv_color.h ****     LV_PALETTE_LIGHT_GREEN,
 274:Middlewares/LVGL/GUI/lvgl/src/misc/lv_color.h ****     LV_PALETTE_LIME,
 275:Middlewares/LVGL/GUI/lvgl/src/misc/lv_color.h ****     LV_PALETTE_YELLOW,
 276:Middlewares/LVGL/GUI/lvgl/src/misc/lv_color.h ****     LV_PALETTE_AMBER,
 277:Middlewares/LVGL/GUI/lvgl/src/misc/lv_color.h ****     LV_PALETTE_ORANGE,
 278:Middlewares/LVGL/GUI/lvgl/src/misc/lv_color.h ****     LV_PALETTE_DEEP_ORANGE,
 279:Middlewares/LVGL/GUI/lvgl/src/misc/lv_color.h ****     LV_PALETTE_BROWN,
 280:Middlewares/LVGL/GUI/lvgl/src/misc/lv_color.h ****     LV_PALETTE_BLUE_GREY,
 281:Middlewares/LVGL/GUI/lvgl/src/misc/lv_color.h ****     LV_PALETTE_GREY,
 282:Middlewares/LVGL/GUI/lvgl/src/misc/lv_color.h ****     _LV_PALETTE_LAST,
 283:Middlewares/LVGL/GUI/lvgl/src/misc/lv_color.h ****     LV_PALETTE_NONE = 0xff,
 284:Middlewares/LVGL/GUI/lvgl/src/misc/lv_color.h **** } lv_palette_t;
 285:Middlewares/LVGL/GUI/lvgl/src/misc/lv_color.h **** 
 286:Middlewares/LVGL/GUI/lvgl/src/misc/lv_color.h **** /**********************
ARM GAS  C:\Users\ADMINI~1\AppData\Local\Temp\ccjxskpe.s 			page 35


 287:Middlewares/LVGL/GUI/lvgl/src/misc/lv_color.h ****  * GLOBAL PROTOTYPES
 288:Middlewares/LVGL/GUI/lvgl/src/misc/lv_color.h ****  **********************/
 289:Middlewares/LVGL/GUI/lvgl/src/misc/lv_color.h **** 
 290:Middlewares/LVGL/GUI/lvgl/src/misc/lv_color.h **** /*In color conversations:
 291:Middlewares/LVGL/GUI/lvgl/src/misc/lv_color.h ****  * - When converting to bigger color type the LSB weight of 1 LSB is calculated
 292:Middlewares/LVGL/GUI/lvgl/src/misc/lv_color.h ****  *   E.g. 16 bit Red has 5 bits
 293:Middlewares/LVGL/GUI/lvgl/src/misc/lv_color.h ****  *         8 bit Red has 3 bits
 294:Middlewares/LVGL/GUI/lvgl/src/misc/lv_color.h ****  *        ----------------------
 295:Middlewares/LVGL/GUI/lvgl/src/misc/lv_color.h ****  *        8 bit red LSB = (2^5 - 1) / (2^3 - 1) = 31 / 7 = 4
 296:Middlewares/LVGL/GUI/lvgl/src/misc/lv_color.h ****  *
 297:Middlewares/LVGL/GUI/lvgl/src/misc/lv_color.h ****  * - When calculating to smaller color type simply shift out the LSBs
 298:Middlewares/LVGL/GUI/lvgl/src/misc/lv_color.h ****  *   E.g.  8 bit Red has 3 bits
 299:Middlewares/LVGL/GUI/lvgl/src/misc/lv_color.h ****  *        16 bit Red has 5 bits
 300:Middlewares/LVGL/GUI/lvgl/src/misc/lv_color.h ****  *        ----------------------
 301:Middlewares/LVGL/GUI/lvgl/src/misc/lv_color.h ****  *         Shift right with 5 - 3 = 2
 302:Middlewares/LVGL/GUI/lvgl/src/misc/lv_color.h ****  */
 303:Middlewares/LVGL/GUI/lvgl/src/misc/lv_color.h **** static inline uint8_t lv_color_to1(lv_color_t color)
 304:Middlewares/LVGL/GUI/lvgl/src/misc/lv_color.h **** {
 305:Middlewares/LVGL/GUI/lvgl/src/misc/lv_color.h **** #if LV_COLOR_DEPTH == 1
 306:Middlewares/LVGL/GUI/lvgl/src/misc/lv_color.h ****     return color.full;
 307:Middlewares/LVGL/GUI/lvgl/src/misc/lv_color.h **** #elif LV_COLOR_DEPTH == 8
 308:Middlewares/LVGL/GUI/lvgl/src/misc/lv_color.h ****     if((LV_COLOR_GET_R(color) & 0x4) || (LV_COLOR_GET_G(color) & 0x4) || (LV_COLOR_GET_B(color) & 0
 309:Middlewares/LVGL/GUI/lvgl/src/misc/lv_color.h ****         return 1;
 310:Middlewares/LVGL/GUI/lvgl/src/misc/lv_color.h ****     }
 311:Middlewares/LVGL/GUI/lvgl/src/misc/lv_color.h ****     else {
 312:Middlewares/LVGL/GUI/lvgl/src/misc/lv_color.h ****         return 0;
 313:Middlewares/LVGL/GUI/lvgl/src/misc/lv_color.h ****     }
 314:Middlewares/LVGL/GUI/lvgl/src/misc/lv_color.h **** #elif LV_COLOR_DEPTH == 16
 315:Middlewares/LVGL/GUI/lvgl/src/misc/lv_color.h ****     if((LV_COLOR_GET_R(color) & 0x10) || (LV_COLOR_GET_G(color) & 0x20) || (LV_COLOR_GET_B(color) &
 316:Middlewares/LVGL/GUI/lvgl/src/misc/lv_color.h ****         return 1;
 317:Middlewares/LVGL/GUI/lvgl/src/misc/lv_color.h ****     }
 318:Middlewares/LVGL/GUI/lvgl/src/misc/lv_color.h ****     else {
 319:Middlewares/LVGL/GUI/lvgl/src/misc/lv_color.h ****         return 0;
 320:Middlewares/LVGL/GUI/lvgl/src/misc/lv_color.h ****     }
 321:Middlewares/LVGL/GUI/lvgl/src/misc/lv_color.h **** #elif LV_COLOR_DEPTH == 32
 322:Middlewares/LVGL/GUI/lvgl/src/misc/lv_color.h ****     if((LV_COLOR_GET_R(color) & 0x80) || (LV_COLOR_GET_G(color) & 0x80) || (LV_COLOR_GET_B(color) &
 323:Middlewares/LVGL/GUI/lvgl/src/misc/lv_color.h ****         return 1;
 324:Middlewares/LVGL/GUI/lvgl/src/misc/lv_color.h ****     }
 325:Middlewares/LVGL/GUI/lvgl/src/misc/lv_color.h ****     else {
 326:Middlewares/LVGL/GUI/lvgl/src/misc/lv_color.h ****         return 0;
 327:Middlewares/LVGL/GUI/lvgl/src/misc/lv_color.h ****     }
 328:Middlewares/LVGL/GUI/lvgl/src/misc/lv_color.h **** #endif
 329:Middlewares/LVGL/GUI/lvgl/src/misc/lv_color.h **** }
 330:Middlewares/LVGL/GUI/lvgl/src/misc/lv_color.h **** 
 331:Middlewares/LVGL/GUI/lvgl/src/misc/lv_color.h **** static inline uint8_t lv_color_to8(lv_color_t color)
 332:Middlewares/LVGL/GUI/lvgl/src/misc/lv_color.h **** {
 333:Middlewares/LVGL/GUI/lvgl/src/misc/lv_color.h **** #if LV_COLOR_DEPTH == 1
 334:Middlewares/LVGL/GUI/lvgl/src/misc/lv_color.h ****     if(color.full == 0)
 335:Middlewares/LVGL/GUI/lvgl/src/misc/lv_color.h ****         return 0;
 336:Middlewares/LVGL/GUI/lvgl/src/misc/lv_color.h ****     else
 337:Middlewares/LVGL/GUI/lvgl/src/misc/lv_color.h ****         return 0xFF;
 338:Middlewares/LVGL/GUI/lvgl/src/misc/lv_color.h **** #elif LV_COLOR_DEPTH == 8
 339:Middlewares/LVGL/GUI/lvgl/src/misc/lv_color.h ****     return color.full;
 340:Middlewares/LVGL/GUI/lvgl/src/misc/lv_color.h **** #elif LV_COLOR_DEPTH == 16
 341:Middlewares/LVGL/GUI/lvgl/src/misc/lv_color.h ****     lv_color8_t ret;
 342:Middlewares/LVGL/GUI/lvgl/src/misc/lv_color.h ****     LV_COLOR_SET_R8(ret, LV_COLOR_GET_R(color) >> 2); /*5 - 3  = 2*/
 343:Middlewares/LVGL/GUI/lvgl/src/misc/lv_color.h ****     LV_COLOR_SET_G8(ret, LV_COLOR_GET_G(color) >> 3); /*6 - 3  = 3*/
ARM GAS  C:\Users\ADMINI~1\AppData\Local\Temp\ccjxskpe.s 			page 36


 344:Middlewares/LVGL/GUI/lvgl/src/misc/lv_color.h ****     LV_COLOR_SET_B8(ret, LV_COLOR_GET_B(color) >> 3); /*5 - 2  = 3*/
 345:Middlewares/LVGL/GUI/lvgl/src/misc/lv_color.h ****     return ret.full;
 346:Middlewares/LVGL/GUI/lvgl/src/misc/lv_color.h **** #elif LV_COLOR_DEPTH == 32
 347:Middlewares/LVGL/GUI/lvgl/src/misc/lv_color.h ****     lv_color8_t ret;
 348:Middlewares/LVGL/GUI/lvgl/src/misc/lv_color.h ****     LV_COLOR_SET_R8(ret, LV_COLOR_GET_R(color) >> 5); /*8 - 3  = 5*/
 349:Middlewares/LVGL/GUI/lvgl/src/misc/lv_color.h ****     LV_COLOR_SET_G8(ret, LV_COLOR_GET_G(color) >> 5); /*8 - 3  = 5*/
 350:Middlewares/LVGL/GUI/lvgl/src/misc/lv_color.h ****     LV_COLOR_SET_B8(ret, LV_COLOR_GET_B(color) >> 6); /*8 - 2  = 6*/
 351:Middlewares/LVGL/GUI/lvgl/src/misc/lv_color.h ****     return ret.full;
 352:Middlewares/LVGL/GUI/lvgl/src/misc/lv_color.h **** #endif
 353:Middlewares/LVGL/GUI/lvgl/src/misc/lv_color.h **** }
 354:Middlewares/LVGL/GUI/lvgl/src/misc/lv_color.h **** 
 355:Middlewares/LVGL/GUI/lvgl/src/misc/lv_color.h **** static inline uint16_t lv_color_to16(lv_color_t color)
 356:Middlewares/LVGL/GUI/lvgl/src/misc/lv_color.h **** {
 357:Middlewares/LVGL/GUI/lvgl/src/misc/lv_color.h **** #if LV_COLOR_DEPTH == 1
 358:Middlewares/LVGL/GUI/lvgl/src/misc/lv_color.h ****     if(color.full == 0)
 359:Middlewares/LVGL/GUI/lvgl/src/misc/lv_color.h ****         return 0;
 360:Middlewares/LVGL/GUI/lvgl/src/misc/lv_color.h ****     else
 361:Middlewares/LVGL/GUI/lvgl/src/misc/lv_color.h ****         return 0xFFFF;
 362:Middlewares/LVGL/GUI/lvgl/src/misc/lv_color.h **** #elif LV_COLOR_DEPTH == 8
 363:Middlewares/LVGL/GUI/lvgl/src/misc/lv_color.h ****     lv_color16_t ret;
 364:Middlewares/LVGL/GUI/lvgl/src/misc/lv_color.h ****     LV_COLOR_SET_R16(ret, LV_COLOR_GET_R(color) * 4);  /*(2^5 - 1)/(2^3 - 1) = 31/7 = 4*/
 365:Middlewares/LVGL/GUI/lvgl/src/misc/lv_color.h ****     LV_COLOR_SET_G16(ret, LV_COLOR_GET_G(color) * 9);  /*(2^6 - 1)/(2^3 - 1) = 63/7 = 9*/
 366:Middlewares/LVGL/GUI/lvgl/src/misc/lv_color.h ****     LV_COLOR_SET_B16(ret, LV_COLOR_GET_B(color) * 10); /*(2^5 - 1)/(2^2 - 1) = 31/3 = 10*/
 367:Middlewares/LVGL/GUI/lvgl/src/misc/lv_color.h ****     return ret.full;
 368:Middlewares/LVGL/GUI/lvgl/src/misc/lv_color.h **** #elif LV_COLOR_DEPTH == 16
 369:Middlewares/LVGL/GUI/lvgl/src/misc/lv_color.h ****     return color.full;
 370:Middlewares/LVGL/GUI/lvgl/src/misc/lv_color.h **** #elif LV_COLOR_DEPTH == 32
 371:Middlewares/LVGL/GUI/lvgl/src/misc/lv_color.h ****     lv_color16_t ret;
 372:Middlewares/LVGL/GUI/lvgl/src/misc/lv_color.h ****     LV_COLOR_SET_R16(ret, LV_COLOR_GET_R(color) >> 3); /*8 - 5  = 3*/
 373:Middlewares/LVGL/GUI/lvgl/src/misc/lv_color.h ****     LV_COLOR_SET_G16(ret, LV_COLOR_GET_G(color) >> 2); /*8 - 6  = 2*/
 374:Middlewares/LVGL/GUI/lvgl/src/misc/lv_color.h ****     LV_COLOR_SET_B16(ret, LV_COLOR_GET_B(color) >> 3); /*8 - 5  = 3*/
 375:Middlewares/LVGL/GUI/lvgl/src/misc/lv_color.h ****     return ret.full;
 376:Middlewares/LVGL/GUI/lvgl/src/misc/lv_color.h **** #endif
 377:Middlewares/LVGL/GUI/lvgl/src/misc/lv_color.h **** }
 378:Middlewares/LVGL/GUI/lvgl/src/misc/lv_color.h **** 
 379:Middlewares/LVGL/GUI/lvgl/src/misc/lv_color.h **** static inline uint32_t lv_color_to32(lv_color_t color)
 380:Middlewares/LVGL/GUI/lvgl/src/misc/lv_color.h **** {
 381:Middlewares/LVGL/GUI/lvgl/src/misc/lv_color.h **** #if LV_COLOR_DEPTH == 1
 382:Middlewares/LVGL/GUI/lvgl/src/misc/lv_color.h ****     if(color.full == 0)
 383:Middlewares/LVGL/GUI/lvgl/src/misc/lv_color.h ****         return 0xFF000000;
 384:Middlewares/LVGL/GUI/lvgl/src/misc/lv_color.h ****     else
 385:Middlewares/LVGL/GUI/lvgl/src/misc/lv_color.h ****         return 0xFFFFFFFF;
 386:Middlewares/LVGL/GUI/lvgl/src/misc/lv_color.h **** #elif LV_COLOR_DEPTH == 8
 387:Middlewares/LVGL/GUI/lvgl/src/misc/lv_color.h ****     lv_color32_t ret;
 388:Middlewares/LVGL/GUI/lvgl/src/misc/lv_color.h ****     LV_COLOR_SET_R32(ret, LV_COLOR_GET_R(color) * 36); /*(2^8 - 1)/(2^3 - 1) = 255/7 = 36*/
 389:Middlewares/LVGL/GUI/lvgl/src/misc/lv_color.h ****     LV_COLOR_SET_G32(ret, LV_COLOR_GET_G(color) * 36); /*(2^8 - 1)/(2^3 - 1) = 255/7 = 36*/
 390:Middlewares/LVGL/GUI/lvgl/src/misc/lv_color.h ****     LV_COLOR_SET_B32(ret, LV_COLOR_GET_B(color) * 85); /*(2^8 - 1)/(2^2 - 1) = 255/3 = 85*/
 391:Middlewares/LVGL/GUI/lvgl/src/misc/lv_color.h ****     LV_COLOR_SET_A32(ret, 0xFF);
 392:Middlewares/LVGL/GUI/lvgl/src/misc/lv_color.h ****     return ret.full;
 393:Middlewares/LVGL/GUI/lvgl/src/misc/lv_color.h **** #elif LV_COLOR_DEPTH == 16
 394:Middlewares/LVGL/GUI/lvgl/src/misc/lv_color.h ****     /**
 395:Middlewares/LVGL/GUI/lvgl/src/misc/lv_color.h ****      * The floating point math for conversion is:
 396:Middlewares/LVGL/GUI/lvgl/src/misc/lv_color.h ****      *  valueto = valuefrom * ( (2^bitsto - 1) / (float)(2^bitsfrom - 1) )
 397:Middlewares/LVGL/GUI/lvgl/src/misc/lv_color.h ****      * The faster integer math for conversion is:
 398:Middlewares/LVGL/GUI/lvgl/src/misc/lv_color.h ****      *  valueto = ( valuefrom * multiplier + adder ) >> divisor
 399:Middlewares/LVGL/GUI/lvgl/src/misc/lv_color.h ****      *   multiplier = FLOOR( ( (2^bitsto - 1) << divisor ) / (float)(2^bitsfrom - 1) )
 400:Middlewares/LVGL/GUI/lvgl/src/misc/lv_color.h ****      *
ARM GAS  C:\Users\ADMINI~1\AppData\Local\Temp\ccjxskpe.s 			page 37


 401:Middlewares/LVGL/GUI/lvgl/src/misc/lv_color.h ****      * Find the first divisor where ( adder >> divisor ) <= 0
 402:Middlewares/LVGL/GUI/lvgl/src/misc/lv_color.h ****      *
 403:Middlewares/LVGL/GUI/lvgl/src/misc/lv_color.h ****      * 5-bit to 8-bit: ( 31 * multiplier + adder ) >> divisor = 255
 404:Middlewares/LVGL/GUI/lvgl/src/misc/lv_color.h ****      * divisor  multiplier  adder  min (0)  max (31)
 405:Middlewares/LVGL/GUI/lvgl/src/misc/lv_color.h ****      *       0           8      7        7       255
 406:Middlewares/LVGL/GUI/lvgl/src/misc/lv_color.h ****      *       1          16     14        7       255
 407:Middlewares/LVGL/GUI/lvgl/src/misc/lv_color.h ****      *       2          32     28        7       255
 408:Middlewares/LVGL/GUI/lvgl/src/misc/lv_color.h ****      *       3          65     25        3       255
 409:Middlewares/LVGL/GUI/lvgl/src/misc/lv_color.h ****      *       4         131     19        1       255
 410:Middlewares/LVGL/GUI/lvgl/src/misc/lv_color.h ****      *       5         263      7        0       255
 411:Middlewares/LVGL/GUI/lvgl/src/misc/lv_color.h ****      *
 412:Middlewares/LVGL/GUI/lvgl/src/misc/lv_color.h ****      * 6-bit to 8-bit: 255 = ( 63 * multiplier + adder ) >> divisor
 413:Middlewares/LVGL/GUI/lvgl/src/misc/lv_color.h ****      * divisor  multiplier  adder  min (0)  max (63)
 414:Middlewares/LVGL/GUI/lvgl/src/misc/lv_color.h ****      *       0           4      3        3       255
 415:Middlewares/LVGL/GUI/lvgl/src/misc/lv_color.h ****      *       1           8      6        3       255
 416:Middlewares/LVGL/GUI/lvgl/src/misc/lv_color.h ****      *       2          16     12        3       255
 417:Middlewares/LVGL/GUI/lvgl/src/misc/lv_color.h ****      *       3          32     24        3       255
 418:Middlewares/LVGL/GUI/lvgl/src/misc/lv_color.h ****      *       4          64     48        3       255
 419:Middlewares/LVGL/GUI/lvgl/src/misc/lv_color.h ****      *       5         129     33        1       255
 420:Middlewares/LVGL/GUI/lvgl/src/misc/lv_color.h ****      *       6         259      3        0       255
 421:Middlewares/LVGL/GUI/lvgl/src/misc/lv_color.h ****      */
 422:Middlewares/LVGL/GUI/lvgl/src/misc/lv_color.h **** 
 423:Middlewares/LVGL/GUI/lvgl/src/misc/lv_color.h ****     lv_color32_t ret;
 424:Middlewares/LVGL/GUI/lvgl/src/misc/lv_color.h ****     LV_COLOR_SET_R32(ret, (LV_COLOR_GET_R(color) * 263 + 7) >> 5);
 425:Middlewares/LVGL/GUI/lvgl/src/misc/lv_color.h ****     LV_COLOR_SET_G32(ret, (LV_COLOR_GET_G(color) * 259 + 3) >> 6);
 426:Middlewares/LVGL/GUI/lvgl/src/misc/lv_color.h ****     LV_COLOR_SET_B32(ret, (LV_COLOR_GET_B(color) * 263 + 7) >> 5);
 427:Middlewares/LVGL/GUI/lvgl/src/misc/lv_color.h ****     LV_COLOR_SET_A32(ret, 0xFF);
 428:Middlewares/LVGL/GUI/lvgl/src/misc/lv_color.h ****     return ret.full;
 429:Middlewares/LVGL/GUI/lvgl/src/misc/lv_color.h **** #elif LV_COLOR_DEPTH == 32
 430:Middlewares/LVGL/GUI/lvgl/src/misc/lv_color.h ****     return color.full;
 431:Middlewares/LVGL/GUI/lvgl/src/misc/lv_color.h **** #endif
 432:Middlewares/LVGL/GUI/lvgl/src/misc/lv_color.h **** }
 433:Middlewares/LVGL/GUI/lvgl/src/misc/lv_color.h **** 
 434:Middlewares/LVGL/GUI/lvgl/src/misc/lv_color.h **** //! @cond Doxygen_Suppress
 435:Middlewares/LVGL/GUI/lvgl/src/misc/lv_color.h **** 
 436:Middlewares/LVGL/GUI/lvgl/src/misc/lv_color.h **** /**
 437:Middlewares/LVGL/GUI/lvgl/src/misc/lv_color.h ****  * Mix two colors with a given ratio.
 438:Middlewares/LVGL/GUI/lvgl/src/misc/lv_color.h ****  * @param c1 the first color to mix (usually the foreground)
 439:Middlewares/LVGL/GUI/lvgl/src/misc/lv_color.h ****  * @param c2 the second color to mix (usually the background)
 440:Middlewares/LVGL/GUI/lvgl/src/misc/lv_color.h ****  * @param mix The ratio of the colors. 0: full `c2`, 255: full `c1`, 127: half `c1` and half`c2`
 441:Middlewares/LVGL/GUI/lvgl/src/misc/lv_color.h ****  * @return the mixed color
 442:Middlewares/LVGL/GUI/lvgl/src/misc/lv_color.h ****  */
 443:Middlewares/LVGL/GUI/lvgl/src/misc/lv_color.h **** LV_ATTRIBUTE_FAST_MEM static inline lv_color_t lv_color_mix(lv_color_t c1, lv_color_t c2, uint8_t m
 444:Middlewares/LVGL/GUI/lvgl/src/misc/lv_color.h **** {
 445:Middlewares/LVGL/GUI/lvgl/src/misc/lv_color.h ****     lv_color_t ret;
 446:Middlewares/LVGL/GUI/lvgl/src/misc/lv_color.h **** 
 447:Middlewares/LVGL/GUI/lvgl/src/misc/lv_color.h **** #if LV_COLOR_DEPTH == 16 && LV_COLOR_16_SWAP == 0
 448:Middlewares/LVGL/GUI/lvgl/src/misc/lv_color.h ****     /*Source: https://stackoverflow.com/a/50012418/1999969*/
 449:Middlewares/LVGL/GUI/lvgl/src/misc/lv_color.h ****     mix = (mix + 4) >> 3;
 450:Middlewares/LVGL/GUI/lvgl/src/misc/lv_color.h ****     uint32_t bg = (uint32_t)((uint32_t)c2.full | ((uint32_t)c2.full << 16)) &
 451:Middlewares/LVGL/GUI/lvgl/src/misc/lv_color.h ****                   0x7E0F81F; /*0b00000111111000001111100000011111*/
 452:Middlewares/LVGL/GUI/lvgl/src/misc/lv_color.h ****     uint32_t fg = (uint32_t)((uint32_t)c1.full | ((uint32_t)c1.full << 16)) & 0x7E0F81F;
 453:Middlewares/LVGL/GUI/lvgl/src/misc/lv_color.h ****     uint32_t result = ((((fg - bg) * mix) >> 5) + bg) & 0x7E0F81F;
 454:Middlewares/LVGL/GUI/lvgl/src/misc/lv_color.h ****     ret.full = (uint16_t)((result >> 16) | result);
 455:Middlewares/LVGL/GUI/lvgl/src/misc/lv_color.h **** #elif LV_COLOR_DEPTH != 1
 456:Middlewares/LVGL/GUI/lvgl/src/misc/lv_color.h ****     /*LV_COLOR_DEPTH == 8, 16 or 32*/
 457:Middlewares/LVGL/GUI/lvgl/src/misc/lv_color.h ****     LV_COLOR_SET_R(ret, LV_UDIV255((uint16_t)LV_COLOR_GET_R(c1) * mix + LV_COLOR_GET_R(c2) *
ARM GAS  C:\Users\ADMINI~1\AppData\Local\Temp\ccjxskpe.s 			page 38


 458:Middlewares/LVGL/GUI/lvgl/src/misc/lv_color.h ****                                    (255 - mix) + LV_COLOR_MIX_ROUND_OFS));
 459:Middlewares/LVGL/GUI/lvgl/src/misc/lv_color.h ****     LV_COLOR_SET_G(ret, LV_UDIV255((uint16_t)LV_COLOR_GET_G(c1) * mix + LV_COLOR_GET_G(c2) *
 460:Middlewares/LVGL/GUI/lvgl/src/misc/lv_color.h ****                                    (255 - mix) + LV_COLOR_MIX_ROUND_OFS));
 461:Middlewares/LVGL/GUI/lvgl/src/misc/lv_color.h ****     LV_COLOR_SET_B(ret, LV_UDIV255((uint16_t)LV_COLOR_GET_B(c1) * mix + LV_COLOR_GET_B(c2) *
 462:Middlewares/LVGL/GUI/lvgl/src/misc/lv_color.h ****                                    (255 - mix) + LV_COLOR_MIX_ROUND_OFS));
 463:Middlewares/LVGL/GUI/lvgl/src/misc/lv_color.h ****     LV_COLOR_SET_A(ret, 0xFF);
 464:Middlewares/LVGL/GUI/lvgl/src/misc/lv_color.h **** #else
 465:Middlewares/LVGL/GUI/lvgl/src/misc/lv_color.h ****     /*LV_COLOR_DEPTH == 1*/
 466:Middlewares/LVGL/GUI/lvgl/src/misc/lv_color.h ****     ret.full = mix > LV_OPA_50 ? c1.full : c2.full;
 467:Middlewares/LVGL/GUI/lvgl/src/misc/lv_color.h **** #endif
 468:Middlewares/LVGL/GUI/lvgl/src/misc/lv_color.h **** 
 469:Middlewares/LVGL/GUI/lvgl/src/misc/lv_color.h ****     return ret;
 470:Middlewares/LVGL/GUI/lvgl/src/misc/lv_color.h **** }
 471:Middlewares/LVGL/GUI/lvgl/src/misc/lv_color.h **** 
 472:Middlewares/LVGL/GUI/lvgl/src/misc/lv_color.h **** LV_ATTRIBUTE_FAST_MEM static inline void lv_color_premult(lv_color_t c, uint8_t mix, uint16_t * out
 473:Middlewares/LVGL/GUI/lvgl/src/misc/lv_color.h **** {
 474:Middlewares/LVGL/GUI/lvgl/src/misc/lv_color.h **** #if LV_COLOR_DEPTH != 1
 475:Middlewares/LVGL/GUI/lvgl/src/misc/lv_color.h ****     out[0] = (uint16_t)LV_COLOR_GET_R(c) * mix;
 476:Middlewares/LVGL/GUI/lvgl/src/misc/lv_color.h ****     out[1] = (uint16_t)LV_COLOR_GET_G(c) * mix;
 477:Middlewares/LVGL/GUI/lvgl/src/misc/lv_color.h ****     out[2] = (uint16_t)LV_COLOR_GET_B(c) * mix;
 478:Middlewares/LVGL/GUI/lvgl/src/misc/lv_color.h **** #else
 479:Middlewares/LVGL/GUI/lvgl/src/misc/lv_color.h ****     (void) mix;
 480:Middlewares/LVGL/GUI/lvgl/src/misc/lv_color.h ****     /*Pre-multiplication can't be used with 1 bpp*/
 481:Middlewares/LVGL/GUI/lvgl/src/misc/lv_color.h ****     out[0] = LV_COLOR_GET_R(c);
 482:Middlewares/LVGL/GUI/lvgl/src/misc/lv_color.h ****     out[1] = LV_COLOR_GET_G(c);
 483:Middlewares/LVGL/GUI/lvgl/src/misc/lv_color.h ****     out[2] = LV_COLOR_GET_B(c);
 484:Middlewares/LVGL/GUI/lvgl/src/misc/lv_color.h **** #endif
 485:Middlewares/LVGL/GUI/lvgl/src/misc/lv_color.h **** 
 486:Middlewares/LVGL/GUI/lvgl/src/misc/lv_color.h **** }
 487:Middlewares/LVGL/GUI/lvgl/src/misc/lv_color.h **** 
 488:Middlewares/LVGL/GUI/lvgl/src/misc/lv_color.h **** /**
 489:Middlewares/LVGL/GUI/lvgl/src/misc/lv_color.h ****  * Mix two colors with a given ratio. It runs faster then `lv_color_mix` but requires some pre comp
 490:Middlewares/LVGL/GUI/lvgl/src/misc/lv_color.h ****  * @param premult_c1 The first color. Should be preprocessed with `lv_color_premult(c1)`
 491:Middlewares/LVGL/GUI/lvgl/src/misc/lv_color.h ****  * @param c2 The second color. As it is no pre computation required on it
 492:Middlewares/LVGL/GUI/lvgl/src/misc/lv_color.h ****  * @param mix The ratio of the colors. 0: full `c1`, 255: full `c2`, 127: half `c1` and half `c2`.
 493:Middlewares/LVGL/GUI/lvgl/src/misc/lv_color.h ****  *            Should be modified like mix = `255 - mix`
 494:Middlewares/LVGL/GUI/lvgl/src/misc/lv_color.h ****  * @return the mixed color
 495:Middlewares/LVGL/GUI/lvgl/src/misc/lv_color.h ****  * @note 255 won't give clearly `c1`.
 496:Middlewares/LVGL/GUI/lvgl/src/misc/lv_color.h ****  */
 497:Middlewares/LVGL/GUI/lvgl/src/misc/lv_color.h **** LV_ATTRIBUTE_FAST_MEM static inline lv_color_t lv_color_mix_premult(uint16_t * premult_c1, lv_color
 498:Middlewares/LVGL/GUI/lvgl/src/misc/lv_color.h **** {
 499:Middlewares/LVGL/GUI/lvgl/src/misc/lv_color.h ****     lv_color_t ret;
 500:Middlewares/LVGL/GUI/lvgl/src/misc/lv_color.h **** #if LV_COLOR_DEPTH != 1
 501:Middlewares/LVGL/GUI/lvgl/src/misc/lv_color.h ****     /*LV_COLOR_DEPTH == 8 or 32*/
 502:Middlewares/LVGL/GUI/lvgl/src/misc/lv_color.h ****     LV_COLOR_SET_R(ret, LV_UDIV255(premult_c1[0] + LV_COLOR_GET_R(c2) * mix + LV_COLOR_MIX_ROUND_OF
 503:Middlewares/LVGL/GUI/lvgl/src/misc/lv_color.h ****     LV_COLOR_SET_G(ret, LV_UDIV255(premult_c1[1] + LV_COLOR_GET_G(c2) * mix + LV_COLOR_MIX_ROUND_OF
 504:Middlewares/LVGL/GUI/lvgl/src/misc/lv_color.h ****     LV_COLOR_SET_B(ret, LV_UDIV255(premult_c1[2] + LV_COLOR_GET_B(c2) * mix + LV_COLOR_MIX_ROUND_OF
 505:Middlewares/LVGL/GUI/lvgl/src/misc/lv_color.h ****     LV_COLOR_SET_A(ret, 0xFF);
 506:Middlewares/LVGL/GUI/lvgl/src/misc/lv_color.h **** #else
 507:Middlewares/LVGL/GUI/lvgl/src/misc/lv_color.h ****     /*LV_COLOR_DEPTH == 1*/
 508:Middlewares/LVGL/GUI/lvgl/src/misc/lv_color.h ****     /*Restore color1*/
 509:Middlewares/LVGL/GUI/lvgl/src/misc/lv_color.h ****     lv_color_t c1;
 510:Middlewares/LVGL/GUI/lvgl/src/misc/lv_color.h ****     LV_COLOR_SET_R(c1, premult_c1[0]);
 511:Middlewares/LVGL/GUI/lvgl/src/misc/lv_color.h ****     LV_COLOR_SET_G(c1, premult_c1[1]);
 512:Middlewares/LVGL/GUI/lvgl/src/misc/lv_color.h ****     LV_COLOR_SET_B(c1, premult_c1[2]);
 513:Middlewares/LVGL/GUI/lvgl/src/misc/lv_color.h ****     ret.full = mix > LV_OPA_50 ? c2.full : c1.full;
 514:Middlewares/LVGL/GUI/lvgl/src/misc/lv_color.h **** #endif
ARM GAS  C:\Users\ADMINI~1\AppData\Local\Temp\ccjxskpe.s 			page 39


 515:Middlewares/LVGL/GUI/lvgl/src/misc/lv_color.h **** 
 516:Middlewares/LVGL/GUI/lvgl/src/misc/lv_color.h ****     return ret;
 517:Middlewares/LVGL/GUI/lvgl/src/misc/lv_color.h **** }
 518:Middlewares/LVGL/GUI/lvgl/src/misc/lv_color.h **** 
 519:Middlewares/LVGL/GUI/lvgl/src/misc/lv_color.h **** /**
 520:Middlewares/LVGL/GUI/lvgl/src/misc/lv_color.h ****  * Mix two colors. Both color can have alpha value.
 521:Middlewares/LVGL/GUI/lvgl/src/misc/lv_color.h ****  * @param bg_color background color
 522:Middlewares/LVGL/GUI/lvgl/src/misc/lv_color.h ****  * @param bg_opa alpha of the background color
 523:Middlewares/LVGL/GUI/lvgl/src/misc/lv_color.h ****  * @param fg_color foreground color
 524:Middlewares/LVGL/GUI/lvgl/src/misc/lv_color.h ****  * @param fg_opa alpha of the foreground color
 525:Middlewares/LVGL/GUI/lvgl/src/misc/lv_color.h ****  * @param res_color the result color
 526:Middlewares/LVGL/GUI/lvgl/src/misc/lv_color.h ****  * @param res_opa the result opacity
 527:Middlewares/LVGL/GUI/lvgl/src/misc/lv_color.h ****  */
 528:Middlewares/LVGL/GUI/lvgl/src/misc/lv_color.h **** LV_ATTRIBUTE_FAST_MEM static inline void lv_color_mix_with_alpha(lv_color_t bg_color, lv_opa_t bg_o
 529:Middlewares/LVGL/GUI/lvgl/src/misc/lv_color.h ****                                                                  lv_color_t fg_color, lv_opa_t fg_o
 530:Middlewares/LVGL/GUI/lvgl/src/misc/lv_color.h ****                                                                  lv_color_t * res_color, lv_opa_t *
 531:Middlewares/LVGL/GUI/lvgl/src/misc/lv_color.h **** {
 532:Middlewares/LVGL/GUI/lvgl/src/misc/lv_color.h ****     /*Pick the foreground if it's fully opaque or the Background is fully transparent*/
 533:Middlewares/LVGL/GUI/lvgl/src/misc/lv_color.h ****     if(fg_opa >= LV_OPA_MAX || bg_opa <= LV_OPA_MIN) {
 534:Middlewares/LVGL/GUI/lvgl/src/misc/lv_color.h ****         res_color->full = fg_color.full;
 535:Middlewares/LVGL/GUI/lvgl/src/misc/lv_color.h ****         *res_opa = fg_opa;
 536:Middlewares/LVGL/GUI/lvgl/src/misc/lv_color.h ****     }
 537:Middlewares/LVGL/GUI/lvgl/src/misc/lv_color.h ****     /*Transparent foreground: use the Background*/
 538:Middlewares/LVGL/GUI/lvgl/src/misc/lv_color.h ****     else if(fg_opa <= LV_OPA_MIN) {
 539:Middlewares/LVGL/GUI/lvgl/src/misc/lv_color.h ****         res_color->full = bg_color.full;
 540:Middlewares/LVGL/GUI/lvgl/src/misc/lv_color.h ****         *res_opa = bg_opa;
 541:Middlewares/LVGL/GUI/lvgl/src/misc/lv_color.h ****     }
 542:Middlewares/LVGL/GUI/lvgl/src/misc/lv_color.h ****     /*Opaque background: use simple mix*/
 543:Middlewares/LVGL/GUI/lvgl/src/misc/lv_color.h ****     else if(bg_opa >= LV_OPA_MAX) {
 544:Middlewares/LVGL/GUI/lvgl/src/misc/lv_color.h ****         *res_color = lv_color_mix(fg_color, bg_color, fg_opa);
 545:Middlewares/LVGL/GUI/lvgl/src/misc/lv_color.h ****         *res_opa = LV_OPA_COVER;
 546:Middlewares/LVGL/GUI/lvgl/src/misc/lv_color.h ****     }
 547:Middlewares/LVGL/GUI/lvgl/src/misc/lv_color.h ****     /*Both colors have alpha. Expensive calculation need to be applied*/
 548:Middlewares/LVGL/GUI/lvgl/src/misc/lv_color.h ****     else {
 549:Middlewares/LVGL/GUI/lvgl/src/misc/lv_color.h ****         /*Save the parameters and the result. If they will be asked again don't compute again*/
 550:Middlewares/LVGL/GUI/lvgl/src/misc/lv_color.h ****         static lv_opa_t fg_opa_save     = 0;
 551:Middlewares/LVGL/GUI/lvgl/src/misc/lv_color.h ****         static lv_opa_t bg_opa_save     = 0;
 552:Middlewares/LVGL/GUI/lvgl/src/misc/lv_color.h ****         static lv_color_t fg_color_save = _LV_COLOR_ZERO_INITIALIZER;
 553:Middlewares/LVGL/GUI/lvgl/src/misc/lv_color.h ****         static lv_color_t bg_color_save = _LV_COLOR_ZERO_INITIALIZER;
 554:Middlewares/LVGL/GUI/lvgl/src/misc/lv_color.h ****         static lv_color_t res_color_saved = _LV_COLOR_ZERO_INITIALIZER;
 555:Middlewares/LVGL/GUI/lvgl/src/misc/lv_color.h ****         static lv_opa_t res_opa_saved = 0;
 556:Middlewares/LVGL/GUI/lvgl/src/misc/lv_color.h **** 
 557:Middlewares/LVGL/GUI/lvgl/src/misc/lv_color.h ****         if(fg_opa != fg_opa_save || bg_opa != bg_opa_save || fg_color.full != fg_color_save.full ||
 558:Middlewares/LVGL/GUI/lvgl/src/misc/lv_color.h ****            bg_color.full != bg_color_save.full) {
 559:Middlewares/LVGL/GUI/lvgl/src/misc/lv_color.h ****             fg_opa_save        = fg_opa;
 560:Middlewares/LVGL/GUI/lvgl/src/misc/lv_color.h ****             bg_opa_save        = bg_opa;
 561:Middlewares/LVGL/GUI/lvgl/src/misc/lv_color.h ****             fg_color_save.full = fg_color.full;
 562:Middlewares/LVGL/GUI/lvgl/src/misc/lv_color.h ****             bg_color_save.full = bg_color.full;
 563:Middlewares/LVGL/GUI/lvgl/src/misc/lv_color.h ****             /*Info:
 564:Middlewares/LVGL/GUI/lvgl/src/misc/lv_color.h ****              * https://en.wikipedia.org/wiki/Alpha_compositing#Analytical_derivation_of_the_over_op
 565:Middlewares/LVGL/GUI/lvgl/src/misc/lv_color.h ****             res_opa_saved = 255 - ((uint16_t)((uint16_t)(255 - fg_opa) * (255 - bg_opa)) >> 8);
 566:Middlewares/LVGL/GUI/lvgl/src/misc/lv_color.h ****             LV_ASSERT(res_opa_saved != 0);
 567:Middlewares/LVGL/GUI/lvgl/src/misc/lv_color.h ****             lv_opa_t ratio = (uint16_t)((uint16_t)fg_opa * 255) / res_opa_saved;
 568:Middlewares/LVGL/GUI/lvgl/src/misc/lv_color.h ****             res_color_saved = lv_color_mix(fg_color, bg_color, ratio);
 569:Middlewares/LVGL/GUI/lvgl/src/misc/lv_color.h **** 
 570:Middlewares/LVGL/GUI/lvgl/src/misc/lv_color.h ****         }
 571:Middlewares/LVGL/GUI/lvgl/src/misc/lv_color.h **** 
ARM GAS  C:\Users\ADMINI~1\AppData\Local\Temp\ccjxskpe.s 			page 40


 572:Middlewares/LVGL/GUI/lvgl/src/misc/lv_color.h ****         res_color->full = res_color_saved.full;
 573:Middlewares/LVGL/GUI/lvgl/src/misc/lv_color.h ****         *res_opa = res_opa_saved;
 574:Middlewares/LVGL/GUI/lvgl/src/misc/lv_color.h ****     }
 575:Middlewares/LVGL/GUI/lvgl/src/misc/lv_color.h **** }
 576:Middlewares/LVGL/GUI/lvgl/src/misc/lv_color.h **** 
 577:Middlewares/LVGL/GUI/lvgl/src/misc/lv_color.h **** //! @endcond
 578:Middlewares/LVGL/GUI/lvgl/src/misc/lv_color.h **** 
 579:Middlewares/LVGL/GUI/lvgl/src/misc/lv_color.h **** /**
 580:Middlewares/LVGL/GUI/lvgl/src/misc/lv_color.h ****  * Get the brightness of a color
 581:Middlewares/LVGL/GUI/lvgl/src/misc/lv_color.h ****  * @param color a color
 582:Middlewares/LVGL/GUI/lvgl/src/misc/lv_color.h ****  * @return the brightness [0..255]
 583:Middlewares/LVGL/GUI/lvgl/src/misc/lv_color.h ****  */
 584:Middlewares/LVGL/GUI/lvgl/src/misc/lv_color.h **** static inline uint8_t lv_color_brightness(lv_color_t color)
 585:Middlewares/LVGL/GUI/lvgl/src/misc/lv_color.h **** {
 586:Middlewares/LVGL/GUI/lvgl/src/misc/lv_color.h ****     lv_color32_t c32;
 587:Middlewares/LVGL/GUI/lvgl/src/misc/lv_color.h ****     c32.full        = lv_color_to32(color);
 588:Middlewares/LVGL/GUI/lvgl/src/misc/lv_color.h ****     uint16_t bright = (uint16_t)(3u * LV_COLOR_GET_R32(c32) + LV_COLOR_GET_B32(c32) + 4u * LV_COLOR
 589:Middlewares/LVGL/GUI/lvgl/src/misc/lv_color.h ****     return (uint8_t)(bright >> 3);
 590:Middlewares/LVGL/GUI/lvgl/src/misc/lv_color.h **** }
 591:Middlewares/LVGL/GUI/lvgl/src/misc/lv_color.h **** 
 592:Middlewares/LVGL/GUI/lvgl/src/misc/lv_color.h **** static inline lv_color_t lv_color_make(uint8_t r, uint8_t g, uint8_t b)
 593:Middlewares/LVGL/GUI/lvgl/src/misc/lv_color.h **** {
 594:Middlewares/LVGL/GUI/lvgl/src/misc/lv_color.h ****     return _LV_COLOR_MAKE_TYPE_HELPER LV_COLOR_MAKE(r, g, b);
 595:Middlewares/LVGL/GUI/lvgl/src/misc/lv_color.h **** }
 596:Middlewares/LVGL/GUI/lvgl/src/misc/lv_color.h **** 
 597:Middlewares/LVGL/GUI/lvgl/src/misc/lv_color.h **** static inline lv_color_t lv_color_hex(uint32_t c)
 598:Middlewares/LVGL/GUI/lvgl/src/misc/lv_color.h **** {
 599:Middlewares/LVGL/GUI/lvgl/src/misc/lv_color.h **** #if LV_COLOR_DEPTH == 16
 600:Middlewares/LVGL/GUI/lvgl/src/misc/lv_color.h ****     lv_color_t r;
 601:Middlewares/LVGL/GUI/lvgl/src/misc/lv_color.h **** #if LV_COLOR_16_SWAP == 0
 602:Middlewares/LVGL/GUI/lvgl/src/misc/lv_color.h ****     /* Convert a 4 bytes per pixel in format ARGB32 to R5G6B5 format
 603:Middlewares/LVGL/GUI/lvgl/src/misc/lv_color.h ****         naive way (by calling lv_color_make with components):
 604:Middlewares/LVGL/GUI/lvgl/src/misc/lv_color.h ****                     r = ((c & 0xFF0000) >> 19)
 605:Middlewares/LVGL/GUI/lvgl/src/misc/lv_color.h ****                     g = ((c & 0xFF00) >> 10)
 606:Middlewares/LVGL/GUI/lvgl/src/misc/lv_color.h ****                     b = ((c & 0xFF) >> 3)
 607:Middlewares/LVGL/GUI/lvgl/src/misc/lv_color.h ****                     rgb565 = (r << 11) | (g << 5) | b
 608:Middlewares/LVGL/GUI/lvgl/src/misc/lv_color.h ****         That's 3 mask, 5 bitshift and 2 or operations
 609:Middlewares/LVGL/GUI/lvgl/src/misc/lv_color.h **** 
 610:Middlewares/LVGL/GUI/lvgl/src/misc/lv_color.h ****         A bit better:
 611:Middlewares/LVGL/GUI/lvgl/src/misc/lv_color.h ****                     r = ((c & 0xF80000) >> 8)
 612:Middlewares/LVGL/GUI/lvgl/src/misc/lv_color.h ****                     g = ((c & 0xFC00) >> 5)
 613:Middlewares/LVGL/GUI/lvgl/src/misc/lv_color.h ****                     b = ((c & 0xFF) >> 3)
 614:Middlewares/LVGL/GUI/lvgl/src/misc/lv_color.h ****                     rgb565 = r | g | b
 615:Middlewares/LVGL/GUI/lvgl/src/misc/lv_color.h ****         That's 3 mask, 3 bitshifts and 2 or operations */
 616:Middlewares/LVGL/GUI/lvgl/src/misc/lv_color.h ****     r.full = (uint16_t)(((c & 0xF80000) >> 8) | ((c & 0xFC00) >> 5) | ((c & 0xFF) >> 3));
 617:Middlewares/LVGL/GUI/lvgl/src/misc/lv_color.h **** #else
 618:Middlewares/LVGL/GUI/lvgl/src/misc/lv_color.h ****     /* We want: rrrr rrrr GGGg gggg bbbb bbbb => gggb bbbb rrrr rGGG */
 619:Middlewares/LVGL/GUI/lvgl/src/misc/lv_color.h ****     r.full = (uint16_t)(((c & 0xF80000) >> 16) | ((c & 0xFC00) >> 13) | ((c & 0x1C00) << 3) | ((c &
 620:Middlewares/LVGL/GUI/lvgl/src/misc/lv_color.h **** #endif
 621:Middlewares/LVGL/GUI/lvgl/src/misc/lv_color.h ****     return r;
 622:Middlewares/LVGL/GUI/lvgl/src/misc/lv_color.h **** #elif LV_COLOR_DEPTH == 32
 623:Middlewares/LVGL/GUI/lvgl/src/misc/lv_color.h ****     lv_color_t r;
 624:Middlewares/LVGL/GUI/lvgl/src/misc/lv_color.h ****     r.full = c | 0xFF000000;
 625:Middlewares/LVGL/GUI/lvgl/src/misc/lv_color.h ****     return r;
 626:Middlewares/LVGL/GUI/lvgl/src/misc/lv_color.h **** #else /*LV_COLOR_DEPTH == 8*/
 627:Middlewares/LVGL/GUI/lvgl/src/misc/lv_color.h ****     return lv_color_make((uint8_t)((c >> 16) & 0xFF), (uint8_t)((c >> 8) & 0xFF), (uint8_t)(c & 0xF
 628:Middlewares/LVGL/GUI/lvgl/src/misc/lv_color.h **** #endif
ARM GAS  C:\Users\ADMINI~1\AppData\Local\Temp\ccjxskpe.s 			page 41


 629:Middlewares/LVGL/GUI/lvgl/src/misc/lv_color.h **** }
 630:Middlewares/LVGL/GUI/lvgl/src/misc/lv_color.h **** 
 631:Middlewares/LVGL/GUI/lvgl/src/misc/lv_color.h **** static inline lv_color_t lv_color_hex3(uint32_t c)
 632:Middlewares/LVGL/GUI/lvgl/src/misc/lv_color.h **** {
 633:Middlewares/LVGL/GUI/lvgl/src/misc/lv_color.h ****     return lv_color_make((uint8_t)(((c >> 4) & 0xF0) | ((c >> 8) & 0xF)), (uint8_t)((c & 0xF0) | ((
 634:Middlewares/LVGL/GUI/lvgl/src/misc/lv_color.h ****                          (uint8_t)((c & 0xF) | ((c & 0xF) << 4)));
 635:Middlewares/LVGL/GUI/lvgl/src/misc/lv_color.h **** }
 636:Middlewares/LVGL/GUI/lvgl/src/misc/lv_color.h **** 
 637:Middlewares/LVGL/GUI/lvgl/src/misc/lv_color.h **** static inline void lv_color_filter_dsc_init(lv_color_filter_dsc_t * dsc, lv_color_filter_cb_t cb)
 638:Middlewares/LVGL/GUI/lvgl/src/misc/lv_color.h **** {
 639:Middlewares/LVGL/GUI/lvgl/src/misc/lv_color.h ****     dsc->filter_cb = cb;
 640:Middlewares/LVGL/GUI/lvgl/src/misc/lv_color.h **** }
 641:Middlewares/LVGL/GUI/lvgl/src/misc/lv_color.h **** 
 642:Middlewares/LVGL/GUI/lvgl/src/misc/lv_color.h **** //! @cond Doxygen_Suppress
 643:Middlewares/LVGL/GUI/lvgl/src/misc/lv_color.h **** //!
 644:Middlewares/LVGL/GUI/lvgl/src/misc/lv_color.h **** LV_ATTRIBUTE_FAST_MEM void lv_color_fill(lv_color_t * buf, lv_color_t color, uint32_t px_num);
 645:Middlewares/LVGL/GUI/lvgl/src/misc/lv_color.h **** 
 646:Middlewares/LVGL/GUI/lvgl/src/misc/lv_color.h **** //! @endcond
 647:Middlewares/LVGL/GUI/lvgl/src/misc/lv_color.h **** lv_color_t lv_color_lighten(lv_color_t c, lv_opa_t lvl);
 648:Middlewares/LVGL/GUI/lvgl/src/misc/lv_color.h **** 
 649:Middlewares/LVGL/GUI/lvgl/src/misc/lv_color.h **** lv_color_t lv_color_darken(lv_color_t c, lv_opa_t lvl);
 650:Middlewares/LVGL/GUI/lvgl/src/misc/lv_color.h **** 
 651:Middlewares/LVGL/GUI/lvgl/src/misc/lv_color.h **** lv_color_t lv_color_change_lightness(lv_color_t c, lv_opa_t lvl);
 652:Middlewares/LVGL/GUI/lvgl/src/misc/lv_color.h **** 
 653:Middlewares/LVGL/GUI/lvgl/src/misc/lv_color.h **** /**
 654:Middlewares/LVGL/GUI/lvgl/src/misc/lv_color.h ****  * Convert a HSV color to RGB
 655:Middlewares/LVGL/GUI/lvgl/src/misc/lv_color.h ****  * @param h hue [0..359]
 656:Middlewares/LVGL/GUI/lvgl/src/misc/lv_color.h ****  * @param s saturation [0..100]
 657:Middlewares/LVGL/GUI/lvgl/src/misc/lv_color.h ****  * @param v value [0..100]
 658:Middlewares/LVGL/GUI/lvgl/src/misc/lv_color.h ****  * @return the given RGB color in RGB (with LV_COLOR_DEPTH depth)
 659:Middlewares/LVGL/GUI/lvgl/src/misc/lv_color.h ****  */
 660:Middlewares/LVGL/GUI/lvgl/src/misc/lv_color.h **** lv_color_t lv_color_hsv_to_rgb(uint16_t h, uint8_t s, uint8_t v);
 661:Middlewares/LVGL/GUI/lvgl/src/misc/lv_color.h **** 
 662:Middlewares/LVGL/GUI/lvgl/src/misc/lv_color.h **** /**
 663:Middlewares/LVGL/GUI/lvgl/src/misc/lv_color.h ****  * Convert a 32-bit RGB color to HSV
 664:Middlewares/LVGL/GUI/lvgl/src/misc/lv_color.h ****  * @param r8 8-bit red
 665:Middlewares/LVGL/GUI/lvgl/src/misc/lv_color.h ****  * @param g8 8-bit green
 666:Middlewares/LVGL/GUI/lvgl/src/misc/lv_color.h ****  * @param b8 8-bit blue
 667:Middlewares/LVGL/GUI/lvgl/src/misc/lv_color.h ****  * @return the given RGB color in HSV
 668:Middlewares/LVGL/GUI/lvgl/src/misc/lv_color.h ****  */
 669:Middlewares/LVGL/GUI/lvgl/src/misc/lv_color.h **** lv_color_hsv_t lv_color_rgb_to_hsv(uint8_t r8, uint8_t g8, uint8_t b8);
 670:Middlewares/LVGL/GUI/lvgl/src/misc/lv_color.h **** 
 671:Middlewares/LVGL/GUI/lvgl/src/misc/lv_color.h **** /**
 672:Middlewares/LVGL/GUI/lvgl/src/misc/lv_color.h ****  * Convert a color to HSV
 673:Middlewares/LVGL/GUI/lvgl/src/misc/lv_color.h ****  * @param color color
 674:Middlewares/LVGL/GUI/lvgl/src/misc/lv_color.h ****  * @return the given color in HSV
 675:Middlewares/LVGL/GUI/lvgl/src/misc/lv_color.h ****  */
 676:Middlewares/LVGL/GUI/lvgl/src/misc/lv_color.h **** lv_color_hsv_t lv_color_to_hsv(lv_color_t color);
 677:Middlewares/LVGL/GUI/lvgl/src/misc/lv_color.h **** 
 678:Middlewares/LVGL/GUI/lvgl/src/misc/lv_color.h **** /**
 679:Middlewares/LVGL/GUI/lvgl/src/misc/lv_color.h ****  * Just a wrapper around LV_COLOR_CHROMA_KEY because it might be more convenient to use a function 
 680:Middlewares/LVGL/GUI/lvgl/src/misc/lv_color.h ****  * @return LV_COLOR_CHROMA_KEY
 681:Middlewares/LVGL/GUI/lvgl/src/misc/lv_color.h ****  */
 682:Middlewares/LVGL/GUI/lvgl/src/misc/lv_color.h **** static inline lv_color_t lv_color_chroma_key(void)
 683:Middlewares/LVGL/GUI/lvgl/src/misc/lv_color.h **** {
 684:Middlewares/LVGL/GUI/lvgl/src/misc/lv_color.h ****     return LV_COLOR_CHROMA_KEY;
 685:Middlewares/LVGL/GUI/lvgl/src/misc/lv_color.h **** }
ARM GAS  C:\Users\ADMINI~1\AppData\Local\Temp\ccjxskpe.s 			page 42


 686:Middlewares/LVGL/GUI/lvgl/src/misc/lv_color.h **** 
 687:Middlewares/LVGL/GUI/lvgl/src/misc/lv_color.h **** /**********************
 688:Middlewares/LVGL/GUI/lvgl/src/misc/lv_color.h ****  *  PREDEFINED COLORS
 689:Middlewares/LVGL/GUI/lvgl/src/misc/lv_color.h ****  **********************/
 690:Middlewares/LVGL/GUI/lvgl/src/misc/lv_color.h **** /*Source: https://vuetifyjs.com/en/styles/colors/#material-colors*/
 691:Middlewares/LVGL/GUI/lvgl/src/misc/lv_color.h **** 
 692:Middlewares/LVGL/GUI/lvgl/src/misc/lv_color.h **** lv_color_t lv_palette_main(lv_palette_t p);
 693:Middlewares/LVGL/GUI/lvgl/src/misc/lv_color.h **** static inline lv_color_t lv_color_white(void)
 860              		.loc 3 693 26 view .LVU245
 861              	.LBB35:
 694:Middlewares/LVGL/GUI/lvgl/src/misc/lv_color.h **** {
 695:Middlewares/LVGL/GUI/lvgl/src/misc/lv_color.h ****     return lv_color_make(0xff, 0xff, 0xff);
 862              		.loc 3 695 5 view .LVU246
 863              	.LVL76:
 864              	.LBB36:
 865              	.LBI36:
 592:Middlewares/LVGL/GUI/lvgl/src/misc/lv_color.h **** {
 866              		.loc 3 592 26 view .LVU247
 867              	.LBB37:
 594:Middlewares/LVGL/GUI/lvgl/src/misc/lv_color.h **** }
 868              		.loc 3 594 5 view .LVU248
 594:Middlewares/LVGL/GUI/lvgl/src/misc/lv_color.h **** }
 869              		.loc 3 594 5 is_stmt 0 view .LVU249
 870 00a6 0020     		movs	r0, #0
 594:Middlewares/LVGL/GUI/lvgl/src/misc/lv_color.h **** }
 871              		.loc 3 594 5 view .LVU250
 872 00a8 4FF6FF73 		movw	r3, #65535
 873 00ac 63F30F00 		bfi	r0, r3, #0, #16
 874              	.LVL77:
 875              	.LVL78:
 594:Middlewares/LVGL/GUI/lvgl/src/misc/lv_color.h **** }
 876              		.loc 3 594 5 view .LVU251
 877              	.LBE37:
 878              	.LBE36:
 879              		.loc 3 695 12 view .LVU252
 880 00b0 7047     		bx	lr
 881              	.L70:
 882              	.LBE35:
 883              	.LBE34:
 249:Middlewares/LVGL/GUI/lvgl/src/misc/lv_style.c ****             break;
 884              		.loc 1 249 13 is_stmt 1 view .LVU253
 885              	.LBB38:
 886              	.LBI38:
 696:Middlewares/LVGL/GUI/lvgl/src/misc/lv_color.h **** }
 697:Middlewares/LVGL/GUI/lvgl/src/misc/lv_color.h **** static inline lv_color_t lv_color_black(void)
 887              		.loc 3 697 26 view .LVU254
 888              	.LBB39:
 698:Middlewares/LVGL/GUI/lvgl/src/misc/lv_color.h **** {
 699:Middlewares/LVGL/GUI/lvgl/src/misc/lv_color.h ****     return lv_color_make(0x00, 0x0, 0x00);
 889              		.loc 3 699 5 view .LVU255
 890              	.LVL79:
 891              	.LBB40:
 892              	.LBI40:
 592:Middlewares/LVGL/GUI/lvgl/src/misc/lv_color.h **** {
 893              		.loc 3 592 26 view .LVU256
 894              	.LBB41:
 594:Middlewares/LVGL/GUI/lvgl/src/misc/lv_color.h **** }
ARM GAS  C:\Users\ADMINI~1\AppData\Local\Temp\ccjxskpe.s 			page 43


 895              		.loc 3 594 5 view .LVU257
 594:Middlewares/LVGL/GUI/lvgl/src/misc/lv_color.h **** }
 896              		.loc 3 594 5 is_stmt 0 view .LVU258
 897 00b2 0020     		movs	r0, #0
 594:Middlewares/LVGL/GUI/lvgl/src/misc/lv_color.h **** }
 898              		.loc 3 594 5 view .LVU259
 899 00b4 6FF30F00 		bfc	r0, #0, #16
 900              	.LVL80:
 901              	.LVL81:
 594:Middlewares/LVGL/GUI/lvgl/src/misc/lv_color.h **** }
 902              		.loc 3 594 5 view .LVU260
 903              	.LBE41:
 904              	.LBE40:
 905              		.loc 3 699 12 view .LVU261
 906 00b8 7047     		bx	lr
 907              	.L72:
 908              	.LBE39:
 909              	.LBE38:
 263:Middlewares/LVGL/GUI/lvgl/src/misc/lv_style.c ****             break;
 910              		.loc 1 263 13 is_stmt 1 view .LVU262
 263:Middlewares/LVGL/GUI/lvgl/src/misc/lv_style.c ****             break;
 911              		.loc 1 263 23 is_stmt 0 view .LVU263
 912 00ba FF20     		movs	r0, #255
 264:Middlewares/LVGL/GUI/lvgl/src/misc/lv_style.c ****         case LV_STYLE_BORDER_SIDE:
 913              		.loc 1 264 13 is_stmt 1 view .LVU264
 914 00bc 7047     		bx	lr
 915              	.L71:
 266:Middlewares/LVGL/GUI/lvgl/src/misc/lv_style.c ****             break;
 916              		.loc 1 266 13 view .LVU265
 266:Middlewares/LVGL/GUI/lvgl/src/misc/lv_style.c ****             break;
 917              		.loc 1 266 23 is_stmt 0 view .LVU266
 918 00be 0F20     		movs	r0, #15
 267:Middlewares/LVGL/GUI/lvgl/src/misc/lv_style.c ****         case LV_STYLE_TEXT_FONT:
 919              		.loc 1 267 13 is_stmt 1 view .LVU267
 920 00c0 7047     		bx	lr
 921              	.LVL82:
 922              	.L74:
 269:Middlewares/LVGL/GUI/lvgl/src/misc/lv_style.c ****             break;
 923              		.loc 1 269 13 view .LVU268
 269:Middlewares/LVGL/GUI/lvgl/src/misc/lv_style.c ****             break;
 924              		.loc 1 269 23 is_stmt 0 view .LVU269
 925 00c2 0148     		ldr	r0, .L83
 926              	.LVL83:
 270:Middlewares/LVGL/GUI/lvgl/src/misc/lv_style.c ****         case LV_STYLE_MAX_WIDTH:
 927              		.loc 1 270 13 is_stmt 1 view .LVU270
 928 00c4 7047     		bx	lr
 929              	.L84:
 930 00c6 00BF     		.align	2
 931              	.L83:
 932 00c8 00000000 		.word	lv_font_montserrat_14
 933              		.cfi_endproc
 934              	.LFE59:
 936              		.section	.text.lv_style_is_empty,"ax",%progbits
 937              		.align	1
 938              		.global	lv_style_is_empty
 939              		.syntax unified
 940              		.thumb
ARM GAS  C:\Users\ADMINI~1\AppData\Local\Temp\ccjxskpe.s 			page 44


 941              		.thumb_func
 943              	lv_style_is_empty:
 944              	.LVL84:
 945              	.LFB60:
 283:Middlewares/LVGL/GUI/lvgl/src/misc/lv_style.c **** 
 284:Middlewares/LVGL/GUI/lvgl/src/misc/lv_style.c **** bool lv_style_is_empty(const lv_style_t * style)
 285:Middlewares/LVGL/GUI/lvgl/src/misc/lv_style.c **** {
 946              		.loc 1 285 1 view -0
 947              		.cfi_startproc
 948              		@ args = 0, pretend = 0, frame = 0
 949              		@ frame_needed = 0, uses_anonymous_args = 0
 950              		@ link register save eliminated.
 286:Middlewares/LVGL/GUI/lvgl/src/misc/lv_style.c ****     LV_ASSERT_STYLE(style);
 951              		.loc 1 286 5 view .LVU272
 952              		.loc 1 286 5 view .LVU273
 953              		.loc 1 286 5 view .LVU274
 287:Middlewares/LVGL/GUI/lvgl/src/misc/lv_style.c **** 
 288:Middlewares/LVGL/GUI/lvgl/src/misc/lv_style.c ****     return style->prop_cnt == 0 ? true : false;
 954              		.loc 1 288 5 view .LVU275
 955              		.loc 1 288 17 is_stmt 0 view .LVU276
 956 0000 C079     		ldrb	r0, [r0, #7]	@ zero_extendqisi2
 957              	.LVL85:
 289:Middlewares/LVGL/GUI/lvgl/src/misc/lv_style.c **** }
 958              		.loc 1 289 1 view .LVU277
 959 0002 B0FA80F0 		clz	r0, r0
 960 0006 4009     		lsrs	r0, r0, #5
 961 0008 7047     		bx	lr
 962              		.cfi_endproc
 963              	.LFE60:
 965              		.section	.text._lv_style_get_prop_group,"ax",%progbits
 966              		.align	1
 967              		.global	_lv_style_get_prop_group
 968              		.syntax unified
 969              		.thumb
 970              		.thumb_func
 972              	_lv_style_get_prop_group:
 973              	.LVL86:
 974              	.LFB61:
 290:Middlewares/LVGL/GUI/lvgl/src/misc/lv_style.c **** 
 291:Middlewares/LVGL/GUI/lvgl/src/misc/lv_style.c **** uint8_t _lv_style_get_prop_group(lv_style_prop_t prop)
 292:Middlewares/LVGL/GUI/lvgl/src/misc/lv_style.c **** {
 975              		.loc 1 292 1 is_stmt 1 view -0
 976              		.cfi_startproc
 977              		@ args = 0, pretend = 0, frame = 0
 978              		@ frame_needed = 0, uses_anonymous_args = 0
 979              		@ link register save eliminated.
 293:Middlewares/LVGL/GUI/lvgl/src/misc/lv_style.c ****     uint16_t group = (prop & 0x1FF) >> 4;
 980              		.loc 1 293 5 view .LVU279
 981              		.loc 1 293 37 is_stmt 0 view .LVU280
 982 0000 0309     		lsrs	r3, r0, #4
 983              		.loc 1 293 14 view .LVU281
 984 0002 C0F30410 		ubfx	r0, r0, #4, #5
 985              	.LVL87:
 294:Middlewares/LVGL/GUI/lvgl/src/misc/lv_style.c ****     if(group > 7) group = 7;    /*The MSB marks all the custom properties*/
 986              		.loc 1 294 5 is_stmt 1 view .LVU282
 987              		.loc 1 294 7 is_stmt 0 view .LVU283
 988 0006 13F0180F 		tst	r3, #24
ARM GAS  C:\Users\ADMINI~1\AppData\Local\Temp\ccjxskpe.s 			page 45


 989 000a 00D0     		beq	.L87
 990              		.loc 1 294 25 view .LVU284
 991 000c 0720     		movs	r0, #7
 992              	.LVL88:
 993              	.L87:
 295:Middlewares/LVGL/GUI/lvgl/src/misc/lv_style.c ****     return (uint8_t)group;
 994              		.loc 1 295 5 is_stmt 1 view .LVU285
 296:Middlewares/LVGL/GUI/lvgl/src/misc/lv_style.c **** }
 995              		.loc 1 296 1 is_stmt 0 view .LVU286
 996 000e 7047     		bx	lr
 997              		.cfi_endproc
 998              	.LFE61:
 1000              		.section	.text.lv_style_set_prop,"ax",%progbits
 1001              		.align	1
 1002              		.global	lv_style_set_prop
 1003              		.syntax unified
 1004              		.thumb
 1005              		.thumb_func
 1007              	lv_style_set_prop:
 1008              	.LVL89:
 1009              	.LFB56:
 139:Middlewares/LVGL/GUI/lvgl/src/misc/lv_style.c ****     LV_ASSERT_STYLE(style);
 1010              		.loc 1 139 1 is_stmt 1 view -0
 1011              		.cfi_startproc
 1012              		@ args = 0, pretend = 0, frame = 0
 1013              		@ frame_needed = 0, uses_anonymous_args = 0
 139:Middlewares/LVGL/GUI/lvgl/src/misc/lv_style.c ****     LV_ASSERT_STYLE(style);
 1014              		.loc 1 139 1 is_stmt 0 view .LVU288
 1015 0000 F8B5     		push	{r3, r4, r5, r6, r7, lr}
 1016              	.LCFI9:
 1017              		.cfi_def_cfa_offset 24
 1018              		.cfi_offset 3, -24
 1019              		.cfi_offset 4, -20
 1020              		.cfi_offset 5, -16
 1021              		.cfi_offset 6, -12
 1022              		.cfi_offset 7, -8
 1023              		.cfi_offset 14, -4
 140:Middlewares/LVGL/GUI/lvgl/src/misc/lv_style.c **** 
 1024              		.loc 1 140 5 is_stmt 1 view .LVU289
 140:Middlewares/LVGL/GUI/lvgl/src/misc/lv_style.c **** 
 1025              		.loc 1 140 5 view .LVU290
 140:Middlewares/LVGL/GUI/lvgl/src/misc/lv_style.c **** 
 1026              		.loc 1 140 5 view .LVU291
 142:Middlewares/LVGL/GUI/lvgl/src/misc/lv_style.c ****         LV_LOG_ERROR("Cannot set property of constant style");
 1027              		.loc 1 142 5 view .LVU292
 142:Middlewares/LVGL/GUI/lvgl/src/misc/lv_style.c ****         LV_LOG_ERROR("Cannot set property of constant style");
 1028              		.loc 1 142 7 is_stmt 0 view .LVU293
 1029 0002 90F90530 		ldrsb	r3, [r0, #5]
 1030 0006 002B     		cmp	r3, #0
 1031 0008 50DB     		blt	.L89
 1032 000a 0446     		mov	r4, r0
 1033 000c 0D46     		mov	r5, r1
 1034 000e 1646     		mov	r6, r2
 1035              	.LVL90:
 147:Middlewares/LVGL/GUI/lvgl/src/misc/lv_style.c ****         uint8_t * tmp = style->v_p.values_and_props + style->prop_cnt * sizeof(lv_style_value_t);
 1036              		.loc 1 147 5 is_stmt 1 view .LVU294
 147:Middlewares/LVGL/GUI/lvgl/src/misc/lv_style.c ****         uint8_t * tmp = style->v_p.values_and_props + style->prop_cnt * sizeof(lv_style_value_t);
ARM GAS  C:\Users\ADMINI~1\AppData\Local\Temp\ccjxskpe.s 			page 46


 1037              		.loc 1 147 13 is_stmt 0 view .LVU295
 1038 0010 C279     		ldrb	r2, [r0, #7]	@ zero_extendqisi2
 147:Middlewares/LVGL/GUI/lvgl/src/misc/lv_style.c ****         uint8_t * tmp = style->v_p.values_and_props + style->prop_cnt * sizeof(lv_style_value_t);
 1039              		.loc 1 147 7 view .LVU296
 1040 0012 012A     		cmp	r2, #1
 1041 0014 39D9     		bls	.L91
 1042              	.LBB42:
 148:Middlewares/LVGL/GUI/lvgl/src/misc/lv_style.c ****         uint16_t * props = (uint16_t *)tmp;
 1043              		.loc 1 148 9 is_stmt 1 view .LVU297
 148:Middlewares/LVGL/GUI/lvgl/src/misc/lv_style.c ****         uint16_t * props = (uint16_t *)tmp;
 1044              		.loc 1 148 35 is_stmt 0 view .LVU298
 1045 0016 0068     		ldr	r0, [r0]
 1046              	.LVL91:
 148:Middlewares/LVGL/GUI/lvgl/src/misc/lv_style.c ****         uint16_t * props = (uint16_t *)tmp;
 1047              		.loc 1 148 71 view .LVU299
 1048 0018 4FEA820C 		lsl	ip, r2, #2
 1049              	.LVL92:
 149:Middlewares/LVGL/GUI/lvgl/src/misc/lv_style.c ****         int32_t i;
 1050              		.loc 1 149 9 is_stmt 1 view .LVU300
 150:Middlewares/LVGL/GUI/lvgl/src/misc/lv_style.c ****         for(i = style->prop_cnt - 1; i >= 0; i--) {
 1051              		.loc 1 150 9 view .LVU301
 151:Middlewares/LVGL/GUI/lvgl/src/misc/lv_style.c ****             if(props[i] == prop) {
 1052              		.loc 1 151 9 view .LVU302
 151:Middlewares/LVGL/GUI/lvgl/src/misc/lv_style.c ****             if(props[i] == prop) {
 1053              		.loc 1 151 15 is_stmt 0 view .LVU303
 1054 001c 531E     		subs	r3, r2, #1
 1055              	.LVL93:
 1056              	.L92:
 151:Middlewares/LVGL/GUI/lvgl/src/misc/lv_style.c ****             if(props[i] == prop) {
 1057              		.loc 1 151 38 is_stmt 1 discriminator 1 view .LVU304
 151:Middlewares/LVGL/GUI/lvgl/src/misc/lv_style.c ****             if(props[i] == prop) {
 1058              		.loc 1 151 9 is_stmt 0 discriminator 1 view .LVU305
 1059 001e 002B     		cmp	r3, #0
 1060 0020 0BDB     		blt	.L102
 152:Middlewares/LVGL/GUI/lvgl/src/misc/lv_style.c ****                 lv_style_value_t * values = (lv_style_value_t *)style->v_p.values_and_props;
 1061              		.loc 1 152 13 is_stmt 1 view .LVU306
 152:Middlewares/LVGL/GUI/lvgl/src/misc/lv_style.c ****                 lv_style_value_t * values = (lv_style_value_t *)style->v_p.values_and_props;
 1062              		.loc 1 152 21 is_stmt 0 view .LVU307
 1063 0022 9E46     		mov	lr, r3
 1064 0024 00EB0C01 		add	r1, r0, ip
 1065 0028 31F81310 		ldrh	r1, [r1, r3, lsl #1]
 152:Middlewares/LVGL/GUI/lvgl/src/misc/lv_style.c ****                 lv_style_value_t * values = (lv_style_value_t *)style->v_p.values_and_props;
 1066              		.loc 1 152 15 view .LVU308
 1067 002c A942     		cmp	r1, r5
 1068 002e 01D0     		beq	.L103
 151:Middlewares/LVGL/GUI/lvgl/src/misc/lv_style.c ****             if(props[i] == prop) {
 1069              		.loc 1 151 46 is_stmt 1 discriminator 2 view .LVU309
 151:Middlewares/LVGL/GUI/lvgl/src/misc/lv_style.c ****             if(props[i] == prop) {
 1070              		.loc 1 151 47 is_stmt 0 discriminator 2 view .LVU310
 1071 0030 013B     		subs	r3, r3, #1
 1072              	.LVL94:
 151:Middlewares/LVGL/GUI/lvgl/src/misc/lv_style.c ****             if(props[i] == prop) {
 1073              		.loc 1 151 47 discriminator 2 view .LVU311
 1074 0032 F4E7     		b	.L92
 1075              	.L103:
 1076              	.LBB43:
 153:Middlewares/LVGL/GUI/lvgl/src/misc/lv_style.c ****                 values[i] = value;
ARM GAS  C:\Users\ADMINI~1\AppData\Local\Temp\ccjxskpe.s 			page 47


 1077              		.loc 1 153 17 is_stmt 1 view .LVU312
 1078              	.LVL95:
 154:Middlewares/LVGL/GUI/lvgl/src/misc/lv_style.c ****                 return;
 1079              		.loc 1 154 17 view .LVU313
 154:Middlewares/LVGL/GUI/lvgl/src/misc/lv_style.c ****                 return;
 1080              		.loc 1 154 27 is_stmt 0 view .LVU314
 1081 0034 40F82360 		str	r6, [r0, r3, lsl #2]
 155:Middlewares/LVGL/GUI/lvgl/src/misc/lv_style.c ****             }
 1082              		.loc 1 155 17 is_stmt 1 view .LVU315
 1083 0038 38E0     		b	.L89
 1084              	.LVL96:
 1085              	.L102:
 155:Middlewares/LVGL/GUI/lvgl/src/misc/lv_style.c ****             }
 1086              		.loc 1 155 17 is_stmt 0 view .LVU316
 1087              	.LBE43:
 159:Middlewares/LVGL/GUI/lvgl/src/misc/lv_style.c ****         uint8_t * values_and_props = lv_mem_realloc(style->v_p.values_and_props, size);
 1088              		.loc 1 159 9 is_stmt 1 view .LVU317
 159:Middlewares/LVGL/GUI/lvgl/src/misc/lv_style.c ****         uint8_t * values_and_props = lv_mem_realloc(style->v_p.values_and_props, size);
 1089              		.loc 1 159 40 is_stmt 0 view .LVU318
 1090 003a 0132     		adds	r2, r2, #1
 159:Middlewares/LVGL/GUI/lvgl/src/misc/lv_style.c ****         uint8_t * values_and_props = lv_mem_realloc(style->v_p.values_and_props, size);
 1091              		.loc 1 159 16 view .LVU319
 1092 003c 02EB4202 		add	r2, r2, r2, lsl #1
 1093              	.LVL97:
 160:Middlewares/LVGL/GUI/lvgl/src/misc/lv_style.c ****         if(values_and_props == NULL) return;
 1094              		.loc 1 160 9 is_stmt 1 view .LVU320
 160:Middlewares/LVGL/GUI/lvgl/src/misc/lv_style.c ****         if(values_and_props == NULL) return;
 1095              		.loc 1 160 38 is_stmt 0 view .LVU321
 1096 0040 5100     		lsls	r1, r2, #1
 1097              	.LVL98:
 160:Middlewares/LVGL/GUI/lvgl/src/misc/lv_style.c ****         if(values_and_props == NULL) return;
 1098              		.loc 1 160 38 view .LVU322
 1099 0042 FFF7FEFF 		bl	lv_mem_realloc
 1100              	.LVL99:
 161:Middlewares/LVGL/GUI/lvgl/src/misc/lv_style.c ****         style->v_p.values_and_props = values_and_props;
 1101              		.loc 1 161 9 is_stmt 1 view .LVU323
 161:Middlewares/LVGL/GUI/lvgl/src/misc/lv_style.c ****         style->v_p.values_and_props = values_and_props;
 1102              		.loc 1 161 11 is_stmt 0 view .LVU324
 1103 0046 0746     		mov	r7, r0
 1104 0048 80B3     		cbz	r0, .L89
 162:Middlewares/LVGL/GUI/lvgl/src/misc/lv_style.c **** 
 1105              		.loc 1 162 9 is_stmt 1 view .LVU325
 162:Middlewares/LVGL/GUI/lvgl/src/misc/lv_style.c **** 
 1106              		.loc 1 162 37 is_stmt 0 view .LVU326
 1107 004a 2060     		str	r0, [r4]
 164:Middlewares/LVGL/GUI/lvgl/src/misc/lv_style.c ****         props = (uint16_t *)tmp;
 1108              		.loc 1 164 9 is_stmt 1 view .LVU327
 164:Middlewares/LVGL/GUI/lvgl/src/misc/lv_style.c ****         props = (uint16_t *)tmp;
 1109              		.loc 1 164 39 is_stmt 0 view .LVU328
 1110 004c E379     		ldrb	r3, [r4, #7]	@ zero_extendqisi2
 164:Middlewares/LVGL/GUI/lvgl/src/misc/lv_style.c ****         props = (uint16_t *)tmp;
 1111              		.loc 1 164 13 view .LVU329
 1112 004e 00EB8302 		add	r2, r0, r3, lsl #2
 1113              	.LVL100:
 165:Middlewares/LVGL/GUI/lvgl/src/misc/lv_style.c ****         /*Shift all props to make place for the value before them*/
 1114              		.loc 1 165 9 is_stmt 1 view .LVU330
 167:Middlewares/LVGL/GUI/lvgl/src/misc/lv_style.c ****             props[i + sizeof(lv_style_value_t) / sizeof(uint16_t)] = props[i];
ARM GAS  C:\Users\ADMINI~1\AppData\Local\Temp\ccjxskpe.s 			page 48


 1115              		.loc 1 167 9 view .LVU331
 167:Middlewares/LVGL/GUI/lvgl/src/misc/lv_style.c ****             props[i + sizeof(lv_style_value_t) / sizeof(uint16_t)] = props[i];
 1116              		.loc 1 167 15 is_stmt 0 view .LVU332
 1117 0052 013B     		subs	r3, r3, #1
 1118              	.LVL101:
 167:Middlewares/LVGL/GUI/lvgl/src/misc/lv_style.c ****             props[i + sizeof(lv_style_value_t) / sizeof(uint16_t)] = props[i];
 1119              		.loc 1 167 9 view .LVU333
 1120 0054 05E0     		b	.L95
 1121              	.LVL102:
 1122              	.L96:
 168:Middlewares/LVGL/GUI/lvgl/src/misc/lv_style.c ****         }
 1123              		.loc 1 168 13 is_stmt 1 discriminator 3 view .LVU334
 168:Middlewares/LVGL/GUI/lvgl/src/misc/lv_style.c ****         }
 1124              		.loc 1 168 18 is_stmt 0 discriminator 3 view .LVU335
 1125 0056 991C     		adds	r1, r3, #2
 168:Middlewares/LVGL/GUI/lvgl/src/misc/lv_style.c ****         }
 1126              		.loc 1 168 75 discriminator 3 view .LVU336
 1127 0058 32F81300 		ldrh	r0, [r2, r3, lsl #1]
 168:Middlewares/LVGL/GUI/lvgl/src/misc/lv_style.c ****         }
 1128              		.loc 1 168 68 discriminator 3 view .LVU337
 1129 005c 22F81100 		strh	r0, [r2, r1, lsl #1]	@ movhi
 167:Middlewares/LVGL/GUI/lvgl/src/misc/lv_style.c ****             props[i + sizeof(lv_style_value_t) / sizeof(uint16_t)] = props[i];
 1130              		.loc 1 167 46 is_stmt 1 discriminator 3 view .LVU338
 167:Middlewares/LVGL/GUI/lvgl/src/misc/lv_style.c ****             props[i + sizeof(lv_style_value_t) / sizeof(uint16_t)] = props[i];
 1131              		.loc 1 167 47 is_stmt 0 discriminator 3 view .LVU339
 1132 0060 013B     		subs	r3, r3, #1
 1133              	.LVL103:
 1134              	.L95:
 167:Middlewares/LVGL/GUI/lvgl/src/misc/lv_style.c ****             props[i + sizeof(lv_style_value_t) / sizeof(uint16_t)] = props[i];
 1135              		.loc 1 167 38 is_stmt 1 discriminator 1 view .LVU340
 167:Middlewares/LVGL/GUI/lvgl/src/misc/lv_style.c ****             props[i + sizeof(lv_style_value_t) / sizeof(uint16_t)] = props[i];
 1136              		.loc 1 167 9 is_stmt 0 discriminator 1 view .LVU341
 1137 0062 002B     		cmp	r3, #0
 1138 0064 F7DA     		bge	.L96
 170:Middlewares/LVGL/GUI/lvgl/src/misc/lv_style.c **** 
 1139              		.loc 1 170 9 is_stmt 1 view .LVU342
 170:Middlewares/LVGL/GUI/lvgl/src/misc/lv_style.c **** 
 1140              		.loc 1 170 14 is_stmt 0 view .LVU343
 1141 0066 E379     		ldrb	r3, [r4, #7]	@ zero_extendqisi2
 1142              	.LVL104:
 170:Middlewares/LVGL/GUI/lvgl/src/misc/lv_style.c **** 
 1143              		.loc 1 170 24 view .LVU344
 1144 0068 0133     		adds	r3, r3, #1
 1145 006a DAB2     		uxtb	r2, r3
 1146              	.LVL105:
 170:Middlewares/LVGL/GUI/lvgl/src/misc/lv_style.c **** 
 1147              		.loc 1 170 24 view .LVU345
 1148 006c E271     		strb	r2, [r4, #7]
 173:Middlewares/LVGL/GUI/lvgl/src/misc/lv_style.c ****         props = (uint16_t *)tmp;
 1149              		.loc 1 173 9 is_stmt 1 view .LVU346
 1150              	.LVL106:
 174:Middlewares/LVGL/GUI/lvgl/src/misc/lv_style.c ****         lv_style_value_t * values = (lv_style_value_t *)values_and_props;
 1151              		.loc 1 174 9 view .LVU347
 175:Middlewares/LVGL/GUI/lvgl/src/misc/lv_style.c **** 
 1152              		.loc 1 175 9 view .LVU348
 178:Middlewares/LVGL/GUI/lvgl/src/misc/lv_style.c ****         values[style->prop_cnt - 1] = value;
 1153              		.loc 1 178 9 view .LVU349
ARM GAS  C:\Users\ADMINI~1\AppData\Local\Temp\ccjxskpe.s 			page 49


 178:Middlewares/LVGL/GUI/lvgl/src/misc/lv_style.c ****         values[style->prop_cnt - 1] = value;
 1154              		.loc 1 178 14 is_stmt 0 view .LVU350
 1155 006e 02F10043 		add	r3, r2, #-2147483648
 1156 0072 013B     		subs	r3, r3, #1
 1157 0074 5B00     		lsls	r3, r3, #1
 1158 0076 03EB8203 		add	r3, r3, r2, lsl #2
 178:Middlewares/LVGL/GUI/lvgl/src/misc/lv_style.c ****         values[style->prop_cnt - 1] = value;
 1159              		.loc 1 178 36 view .LVU351
 1160 007a FD52     		strh	r5, [r7, r3]	@ movhi
 179:Middlewares/LVGL/GUI/lvgl/src/misc/lv_style.c ****     }
 1161              		.loc 1 179 9 is_stmt 1 view .LVU352
 179:Middlewares/LVGL/GUI/lvgl/src/misc/lv_style.c ****     }
 1162              		.loc 1 179 21 is_stmt 0 view .LVU353
 1163 007c E379     		ldrb	r3, [r4, #7]	@ zero_extendqisi2
 179:Middlewares/LVGL/GUI/lvgl/src/misc/lv_style.c ****     }
 1164              		.loc 1 179 15 view .LVU354
 1165 007e 03F18043 		add	r3, r3, #1073741824
 1166 0082 013B     		subs	r3, r3, #1
 1167              	.LVL107:
 179:Middlewares/LVGL/GUI/lvgl/src/misc/lv_style.c ****     }
 1168              		.loc 1 179 37 view .LVU355
 1169 0084 47F82360 		str	r6, [r7, r3, lsl #2]
 1170              	.LBE42:
 1171 0088 08E0     		b	.L97
 1172              	.LVL108:
 1173              	.L91:
 181:Middlewares/LVGL/GUI/lvgl/src/misc/lv_style.c ****         if(style->prop1 == prop) {
 1174              		.loc 1 181 10 is_stmt 1 view .LVU356
 181:Middlewares/LVGL/GUI/lvgl/src/misc/lv_style.c ****         if(style->prop1 == prop) {
 1175              		.loc 1 181 12 is_stmt 0 view .LVU357
 1176 008a 012A     		cmp	r2, #1
 1177 008c 0FD0     		beq	.L104
 202:Middlewares/LVGL/GUI/lvgl/src/misc/lv_style.c ****         style->prop1 = prop;
 1178              		.loc 1 202 9 is_stmt 1 view .LVU358
 202:Middlewares/LVGL/GUI/lvgl/src/misc/lv_style.c ****         style->prop1 = prop;
 1179              		.loc 1 202 25 is_stmt 0 view .LVU359
 1180 008e 0123     		movs	r3, #1
 1181 0090 C371     		strb	r3, [r0, #7]
 203:Middlewares/LVGL/GUI/lvgl/src/misc/lv_style.c ****         style->v_p.value1 = value;
 1182              		.loc 1 203 9 is_stmt 1 view .LVU360
 203:Middlewares/LVGL/GUI/lvgl/src/misc/lv_style.c ****         style->v_p.value1 = value;
 1183              		.loc 1 203 22 is_stmt 0 view .LVU361
 1184 0092 8388     		ldrh	r3, [r0, #4]
 1185 0094 61F30E03 		bfi	r3, r1, #0, #15
 1186 0098 8380     		strh	r3, [r0, #4]	@ movhi
 204:Middlewares/LVGL/GUI/lvgl/src/misc/lv_style.c ****     }
 1187              		.loc 1 204 9 is_stmt 1 view .LVU362
 1188              	.LVL109:
 204:Middlewares/LVGL/GUI/lvgl/src/misc/lv_style.c ****     }
 1189              		.loc 1 204 27 is_stmt 0 view .LVU363
 1190 009a 0660     		str	r6, [r0]
 1191              	.LVL110:
 1192              	.L97:
 207:Middlewares/LVGL/GUI/lvgl/src/misc/lv_style.c ****     style->has_group |= 1 << group;
 1193              		.loc 1 207 5 is_stmt 1 view .LVU364
 207:Middlewares/LVGL/GUI/lvgl/src/misc/lv_style.c ****     style->has_group |= 1 << group;
 1194              		.loc 1 207 21 is_stmt 0 view .LVU365
ARM GAS  C:\Users\ADMINI~1\AppData\Local\Temp\ccjxskpe.s 			page 50


 1195 009c 2846     		mov	r0, r5
 1196              	.LVL111:
 207:Middlewares/LVGL/GUI/lvgl/src/misc/lv_style.c ****     style->has_group |= 1 << group;
 1197              		.loc 1 207 21 view .LVU366
 1198 009e FFF7FEFF 		bl	_lv_style_get_prop_group
 1199              	.LVL112:
 208:Middlewares/LVGL/GUI/lvgl/src/misc/lv_style.c **** }
 1200              		.loc 1 208 5 is_stmt 1 view .LVU367
 208:Middlewares/LVGL/GUI/lvgl/src/misc/lv_style.c **** }
 1201              		.loc 1 208 27 is_stmt 0 view .LVU368
 1202 00a2 0123     		movs	r3, #1
 1203 00a4 8340     		lsls	r3, r3, r0
 208:Middlewares/LVGL/GUI/lvgl/src/misc/lv_style.c **** }
 1204              		.loc 1 208 22 view .LVU369
 1205 00a6 A079     		ldrb	r0, [r4, #6]	@ zero_extendqisi2
 1206              	.LVL113:
 208:Middlewares/LVGL/GUI/lvgl/src/misc/lv_style.c **** }
 1207              		.loc 1 208 22 view .LVU370
 1208 00a8 1843     		orrs	r0, r0, r3
 1209 00aa A071     		strb	r0, [r4, #6]
 1210              	.LVL114:
 1211              	.L89:
 209:Middlewares/LVGL/GUI/lvgl/src/misc/lv_style.c **** 
 1212              		.loc 1 209 1 view .LVU371
 1213 00ac F8BD     		pop	{r3, r4, r5, r6, r7, pc}
 1214              	.LVL115:
 1215              	.L104:
 1216              	.LBB44:
 182:Middlewares/LVGL/GUI/lvgl/src/misc/lv_style.c ****             style->v_p.value1 = value;
 1217              		.loc 1 182 9 is_stmt 1 view .LVU372
 182:Middlewares/LVGL/GUI/lvgl/src/misc/lv_style.c ****             style->v_p.value1 = value;
 1218              		.loc 1 182 17 is_stmt 0 view .LVU373
 1219 00ae 8388     		ldrh	r3, [r0, #4]
 1220 00b0 C3F30E03 		ubfx	r3, r3, #0, #15
 182:Middlewares/LVGL/GUI/lvgl/src/misc/lv_style.c ****             style->v_p.value1 = value;
 1221              		.loc 1 182 11 view .LVU374
 1222 00b4 8B42     		cmp	r3, r1
 1223 00b6 19D0     		beq	.L105
 186:Middlewares/LVGL/GUI/lvgl/src/misc/lv_style.c ****         uint8_t * values_and_props = lv_mem_alloc(size);
 1224              		.loc 1 186 9 is_stmt 1 view .LVU375
 186:Middlewares/LVGL/GUI/lvgl/src/misc/lv_style.c ****         uint8_t * values_and_props = lv_mem_alloc(size);
 1225              		.loc 1 186 40 is_stmt 0 view .LVU376
 1226 00b8 0132     		adds	r2, r2, #1
 186:Middlewares/LVGL/GUI/lvgl/src/misc/lv_style.c ****         uint8_t * values_and_props = lv_mem_alloc(size);
 1227              		.loc 1 186 16 view .LVU377
 1228 00ba 02EB4202 		add	r2, r2, r2, lsl #1
 1229              	.LVL116:
 187:Middlewares/LVGL/GUI/lvgl/src/misc/lv_style.c ****         if(values_and_props == NULL) return;
 1230              		.loc 1 187 9 is_stmt 1 view .LVU378
 187:Middlewares/LVGL/GUI/lvgl/src/misc/lv_style.c ****         if(values_and_props == NULL) return;
 1231              		.loc 1 187 38 is_stmt 0 view .LVU379
 1232 00be 5000     		lsls	r0, r2, #1
 1233              	.LVL117:
 187:Middlewares/LVGL/GUI/lvgl/src/misc/lv_style.c ****         if(values_and_props == NULL) return;
 1234              		.loc 1 187 38 view .LVU380
 1235 00c0 FFF7FEFF 		bl	lv_mem_alloc
 1236              	.LVL118:
ARM GAS  C:\Users\ADMINI~1\AppData\Local\Temp\ccjxskpe.s 			page 51


 188:Middlewares/LVGL/GUI/lvgl/src/misc/lv_style.c ****         lv_style_value_t value_tmp = style->v_p.value1;
 1237              		.loc 1 188 9 is_stmt 1 view .LVU381
 188:Middlewares/LVGL/GUI/lvgl/src/misc/lv_style.c ****         lv_style_value_t value_tmp = style->v_p.value1;
 1238              		.loc 1 188 11 is_stmt 0 view .LVU382
 1239 00c4 0246     		mov	r2, r0
 1240 00c6 0028     		cmp	r0, #0
 1241 00c8 F0D0     		beq	.L89
 189:Middlewares/LVGL/GUI/lvgl/src/misc/lv_style.c ****         style->v_p.values_and_props = values_and_props;
 1242              		.loc 1 189 9 is_stmt 1 view .LVU383
 189:Middlewares/LVGL/GUI/lvgl/src/misc/lv_style.c ****         style->v_p.values_and_props = values_and_props;
 1243              		.loc 1 189 26 is_stmt 0 view .LVU384
 1244 00ca 2068     		ldr	r0, [r4]
 1245              	.LVL119:
 190:Middlewares/LVGL/GUI/lvgl/src/misc/lv_style.c ****         style->prop_cnt++;
 1246              		.loc 1 190 9 is_stmt 1 view .LVU385
 190:Middlewares/LVGL/GUI/lvgl/src/misc/lv_style.c ****         style->prop_cnt++;
 1247              		.loc 1 190 37 is_stmt 0 view .LVU386
 1248 00cc 2260     		str	r2, [r4]
 191:Middlewares/LVGL/GUI/lvgl/src/misc/lv_style.c **** 
 1249              		.loc 1 191 9 is_stmt 1 view .LVU387
 191:Middlewares/LVGL/GUI/lvgl/src/misc/lv_style.c **** 
 1250              		.loc 1 191 14 is_stmt 0 view .LVU388
 1251 00ce E379     		ldrb	r3, [r4, #7]	@ zero_extendqisi2
 191:Middlewares/LVGL/GUI/lvgl/src/misc/lv_style.c **** 
 1252              		.loc 1 191 24 view .LVU389
 1253 00d0 0133     		adds	r3, r3, #1
 1254 00d2 DBB2     		uxtb	r3, r3
 1255 00d4 E371     		strb	r3, [r4, #7]
 193:Middlewares/LVGL/GUI/lvgl/src/misc/lv_style.c ****         uint16_t * props = (uint16_t *)tmp;
 1256              		.loc 1 193 9 is_stmt 1 view .LVU390
 193:Middlewares/LVGL/GUI/lvgl/src/misc/lv_style.c ****         uint16_t * props = (uint16_t *)tmp;
 1257              		.loc 1 193 19 is_stmt 0 view .LVU391
 1258 00d6 02EB8307 		add	r7, r2, r3, lsl #2
 1259              	.LVL120:
 194:Middlewares/LVGL/GUI/lvgl/src/misc/lv_style.c ****         lv_style_value_t * values = (lv_style_value_t *)values_and_props;
 1260              		.loc 1 194 9 is_stmt 1 view .LVU392
 195:Middlewares/LVGL/GUI/lvgl/src/misc/lv_style.c ****         props[0] = style->prop1;
 1261              		.loc 1 195 9 view .LVU393
 196:Middlewares/LVGL/GUI/lvgl/src/misc/lv_style.c ****         props[1] = prop;
 1262              		.loc 1 196 9 view .LVU394
 196:Middlewares/LVGL/GUI/lvgl/src/misc/lv_style.c ****         props[1] = prop;
 1263              		.loc 1 196 25 is_stmt 0 view .LVU395
 1264 00da A188     		ldrh	r1, [r4, #4]
 1265 00dc C1F30E01 		ubfx	r1, r1, #0, #15
 196:Middlewares/LVGL/GUI/lvgl/src/misc/lv_style.c ****         props[1] = prop;
 1266              		.loc 1 196 18 view .LVU396
 1267 00e0 22F82310 		strh	r1, [r2, r3, lsl #2]	@ movhi
 197:Middlewares/LVGL/GUI/lvgl/src/misc/lv_style.c ****         values[0] = value_tmp;
 1268              		.loc 1 197 9 is_stmt 1 view .LVU397
 197:Middlewares/LVGL/GUI/lvgl/src/misc/lv_style.c ****         values[0] = value_tmp;
 1269              		.loc 1 197 18 is_stmt 0 view .LVU398
 1270 00e4 7D80     		strh	r5, [r7, #2]	@ movhi
 198:Middlewares/LVGL/GUI/lvgl/src/misc/lv_style.c ****         values[1] = value;
 1271              		.loc 1 198 9 is_stmt 1 view .LVU399
 1272              	.LVL121:
 198:Middlewares/LVGL/GUI/lvgl/src/misc/lv_style.c ****         values[1] = value;
 1273              		.loc 1 198 19 is_stmt 0 view .LVU400
ARM GAS  C:\Users\ADMINI~1\AppData\Local\Temp\ccjxskpe.s 			page 52


 1274 00e6 1060     		str	r0, [r2]
 199:Middlewares/LVGL/GUI/lvgl/src/misc/lv_style.c ****     }
 1275              		.loc 1 199 9 is_stmt 1 view .LVU401
 1276              	.LVL122:
 199:Middlewares/LVGL/GUI/lvgl/src/misc/lv_style.c ****     }
 1277              		.loc 1 199 19 is_stmt 0 view .LVU402
 1278 00e8 5660     		str	r6, [r2, #4]
 1279              	.LBE44:
 1280 00ea D7E7     		b	.L97
 1281              	.LVL123:
 1282              	.L105:
 1283              	.LBB45:
 183:Middlewares/LVGL/GUI/lvgl/src/misc/lv_style.c ****             return;
 1284              		.loc 1 183 13 is_stmt 1 view .LVU403
 183:Middlewares/LVGL/GUI/lvgl/src/misc/lv_style.c ****             return;
 1285              		.loc 1 183 31 is_stmt 0 view .LVU404
 1286 00ec 0660     		str	r6, [r0]
 184:Middlewares/LVGL/GUI/lvgl/src/misc/lv_style.c ****         }
 1287              		.loc 1 184 13 is_stmt 1 view .LVU405
 1288 00ee DDE7     		b	.L89
 1289              	.LBE45:
 1290              		.cfi_endproc
 1291              	.LFE56:
 1293              		.section	.data.act_id.0,"aw"
 1294              		.align	1
 1295              		.set	.LANCHOR0,. + 0
 1298              	act_id.0:
 1299 0000 6F00     		.short	111
 1300              		.text
 1301              	.Letext0:
 1302              		.file 4 "c:\\gnu arm embedded toolchain\\10 2021.10\\arm-none-eabi\\include\\machine\\_default_typ
 1303              		.file 5 "c:\\gnu arm embedded toolchain\\10 2021.10\\arm-none-eabi\\include\\sys\\_stdint.h"
 1304              		.file 6 "c:\\gnu arm embedded toolchain\\10 2021.10\\lib\\gcc\\arm-none-eabi\\10.3.1\\include\\std
 1305              		.file 7 "Middlewares/LVGL/GUI/lvgl/src/misc/../font/../misc/lv_area.h"
 1306              		.file 8 "Middlewares/LVGL/GUI/lvgl/src/misc/../font/lv_font.h"
 1307              		.file 9 "Middlewares/LVGL/GUI/lvgl/src/misc/lv_types.h"
 1308              		.file 10 "Middlewares/LVGL/GUI/lvgl/src/misc/lv_anim.h"
 1309              		.file 11 "Middlewares/LVGL/GUI/lvgl/src/misc/lv_mem.h"
ARM GAS  C:\Users\ADMINI~1\AppData\Local\Temp\ccjxskpe.s 			page 53

