ARM GAS  C:\Users\ADMINI~1\AppData\Local\Temp\ccH3Y31L.s 			page 1


   1              		.cpu cortex-m4
   2              		.arch armv7e-m
   3              		.fpu fpv4-sp-d16
   4              		.eabi_attribute 27, 1
   5              		.eabi_attribute 28, 1
   6              		.eabi_attribute 20, 1
   7              		.eabi_attribute 21, 1
   8              		.eabi_attribute 23, 3
   9              		.eabi_attribute 24, 1
  10              		.eabi_attribute 25, 1
  11              		.eabi_attribute 26, 1
  12              		.eabi_attribute 30, 1
  13              		.eabi_attribute 34, 1
  14              		.eabi_attribute 18, 4
  15              		.file	"lv_switch.c"
  16              		.text
  17              	.Ltext0:
  18              		.cfi_sections	.debug_frame
  19              		.section	.text.lv_switch_anim_ready,"ax",%progbits
  20              		.align	1
  21              		.syntax unified
  22              		.thumb
  23              		.thumb_func
  25              	lv_switch_anim_ready:
  26              	.LVL0:
  27              	.LFB165:
  28              		.file 1 "Middlewares/LVGL/GUI/lvgl/src/widgets/lv_switch.c"
   1:Middlewares/LVGL/GUI/lvgl/src/widgets/lv_switch.c **** /**
   2:Middlewares/LVGL/GUI/lvgl/src/widgets/lv_switch.c ****  * @file lv_sw.c
   3:Middlewares/LVGL/GUI/lvgl/src/widgets/lv_switch.c ****  *
   4:Middlewares/LVGL/GUI/lvgl/src/widgets/lv_switch.c ****  */
   5:Middlewares/LVGL/GUI/lvgl/src/widgets/lv_switch.c **** 
   6:Middlewares/LVGL/GUI/lvgl/src/widgets/lv_switch.c **** /*********************
   7:Middlewares/LVGL/GUI/lvgl/src/widgets/lv_switch.c ****  *      INCLUDES
   8:Middlewares/LVGL/GUI/lvgl/src/widgets/lv_switch.c ****  *********************/
   9:Middlewares/LVGL/GUI/lvgl/src/widgets/lv_switch.c **** #include "lv_switch.h"
  10:Middlewares/LVGL/GUI/lvgl/src/widgets/lv_switch.c **** 
  11:Middlewares/LVGL/GUI/lvgl/src/widgets/lv_switch.c **** #if LV_USE_SWITCH != 0
  12:Middlewares/LVGL/GUI/lvgl/src/widgets/lv_switch.c **** 
  13:Middlewares/LVGL/GUI/lvgl/src/widgets/lv_switch.c **** #include "../misc/lv_assert.h"
  14:Middlewares/LVGL/GUI/lvgl/src/widgets/lv_switch.c **** #include "../misc/lv_math.h"
  15:Middlewares/LVGL/GUI/lvgl/src/widgets/lv_switch.c **** #include "../misc/lv_anim.h"
  16:Middlewares/LVGL/GUI/lvgl/src/widgets/lv_switch.c **** #include "../core/lv_indev.h"
  17:Middlewares/LVGL/GUI/lvgl/src/widgets/lv_switch.c **** #include "../core/lv_disp.h"
  18:Middlewares/LVGL/GUI/lvgl/src/widgets/lv_switch.c **** #include "lv_img.h"
  19:Middlewares/LVGL/GUI/lvgl/src/widgets/lv_switch.c **** 
  20:Middlewares/LVGL/GUI/lvgl/src/widgets/lv_switch.c **** /*********************
  21:Middlewares/LVGL/GUI/lvgl/src/widgets/lv_switch.c ****  *      DEFINES
  22:Middlewares/LVGL/GUI/lvgl/src/widgets/lv_switch.c ****  *********************/
  23:Middlewares/LVGL/GUI/lvgl/src/widgets/lv_switch.c **** #define MY_CLASS &lv_switch_class
  24:Middlewares/LVGL/GUI/lvgl/src/widgets/lv_switch.c **** 
  25:Middlewares/LVGL/GUI/lvgl/src/widgets/lv_switch.c **** #define LV_SWITCH_IS_ANIMATING(sw) (((sw)->anim_state) != LV_SWITCH_ANIM_STATE_INV)
  26:Middlewares/LVGL/GUI/lvgl/src/widgets/lv_switch.c **** 
  27:Middlewares/LVGL/GUI/lvgl/src/widgets/lv_switch.c **** /** Switch animation start value. (Not the real value of the switch just indicates process animatio
  28:Middlewares/LVGL/GUI/lvgl/src/widgets/lv_switch.c **** #define LV_SWITCH_ANIM_STATE_START 0
  29:Middlewares/LVGL/GUI/lvgl/src/widgets/lv_switch.c **** 
  30:Middlewares/LVGL/GUI/lvgl/src/widgets/lv_switch.c **** /** Switch animation end value.  (Not the real value of the switch just indicates process animation
ARM GAS  C:\Users\ADMINI~1\AppData\Local\Temp\ccH3Y31L.s 			page 2


  31:Middlewares/LVGL/GUI/lvgl/src/widgets/lv_switch.c **** #define LV_SWITCH_ANIM_STATE_END   256
  32:Middlewares/LVGL/GUI/lvgl/src/widgets/lv_switch.c **** 
  33:Middlewares/LVGL/GUI/lvgl/src/widgets/lv_switch.c **** /** Mark no animation is in progress*/
  34:Middlewares/LVGL/GUI/lvgl/src/widgets/lv_switch.c **** #define LV_SWITCH_ANIM_STATE_INV   -1
  35:Middlewares/LVGL/GUI/lvgl/src/widgets/lv_switch.c **** 
  36:Middlewares/LVGL/GUI/lvgl/src/widgets/lv_switch.c **** /**********************
  37:Middlewares/LVGL/GUI/lvgl/src/widgets/lv_switch.c ****  *      TYPEDEFS
  38:Middlewares/LVGL/GUI/lvgl/src/widgets/lv_switch.c ****  **********************/
  39:Middlewares/LVGL/GUI/lvgl/src/widgets/lv_switch.c **** 
  40:Middlewares/LVGL/GUI/lvgl/src/widgets/lv_switch.c **** /**********************
  41:Middlewares/LVGL/GUI/lvgl/src/widgets/lv_switch.c ****  *  STATIC PROTOTYPES
  42:Middlewares/LVGL/GUI/lvgl/src/widgets/lv_switch.c ****  **********************/
  43:Middlewares/LVGL/GUI/lvgl/src/widgets/lv_switch.c **** static void lv_switch_constructor(const lv_obj_class_t * class_p, lv_obj_t * obj);
  44:Middlewares/LVGL/GUI/lvgl/src/widgets/lv_switch.c **** static void lv_switch_destructor(const lv_obj_class_t * class_p, lv_obj_t * obj);
  45:Middlewares/LVGL/GUI/lvgl/src/widgets/lv_switch.c **** static void lv_switch_event(const lv_obj_class_t * class_p, lv_event_t * e);
  46:Middlewares/LVGL/GUI/lvgl/src/widgets/lv_switch.c **** static void draw_main(lv_event_t * e);
  47:Middlewares/LVGL/GUI/lvgl/src/widgets/lv_switch.c **** 
  48:Middlewares/LVGL/GUI/lvgl/src/widgets/lv_switch.c **** static void lv_switch_anim_exec_cb(void * sw, int32_t value);
  49:Middlewares/LVGL/GUI/lvgl/src/widgets/lv_switch.c **** static void lv_switch_trigger_anim(lv_obj_t * obj);
  50:Middlewares/LVGL/GUI/lvgl/src/widgets/lv_switch.c **** static void lv_switch_anim_ready(lv_anim_t * a);
  51:Middlewares/LVGL/GUI/lvgl/src/widgets/lv_switch.c **** /**********************
  52:Middlewares/LVGL/GUI/lvgl/src/widgets/lv_switch.c ****  *  STATIC VARIABLES
  53:Middlewares/LVGL/GUI/lvgl/src/widgets/lv_switch.c ****  **********************/
  54:Middlewares/LVGL/GUI/lvgl/src/widgets/lv_switch.c **** const lv_obj_class_t lv_switch_class = {
  55:Middlewares/LVGL/GUI/lvgl/src/widgets/lv_switch.c ****     .constructor_cb = lv_switch_constructor,
  56:Middlewares/LVGL/GUI/lvgl/src/widgets/lv_switch.c ****     .destructor_cb = lv_switch_destructor,
  57:Middlewares/LVGL/GUI/lvgl/src/widgets/lv_switch.c ****     .event_cb = lv_switch_event,
  58:Middlewares/LVGL/GUI/lvgl/src/widgets/lv_switch.c ****     .width_def = (4 * LV_DPI_DEF) / 10,
  59:Middlewares/LVGL/GUI/lvgl/src/widgets/lv_switch.c ****     .height_def = (4 * LV_DPI_DEF) / 17,
  60:Middlewares/LVGL/GUI/lvgl/src/widgets/lv_switch.c ****     .group_def = LV_OBJ_CLASS_GROUP_DEF_TRUE,
  61:Middlewares/LVGL/GUI/lvgl/src/widgets/lv_switch.c ****     .instance_size = sizeof(lv_switch_t),
  62:Middlewares/LVGL/GUI/lvgl/src/widgets/lv_switch.c ****     .base_class = &lv_obj_class
  63:Middlewares/LVGL/GUI/lvgl/src/widgets/lv_switch.c **** };
  64:Middlewares/LVGL/GUI/lvgl/src/widgets/lv_switch.c **** 
  65:Middlewares/LVGL/GUI/lvgl/src/widgets/lv_switch.c **** /**********************
  66:Middlewares/LVGL/GUI/lvgl/src/widgets/lv_switch.c ****  *      MACROS
  67:Middlewares/LVGL/GUI/lvgl/src/widgets/lv_switch.c ****  **********************/
  68:Middlewares/LVGL/GUI/lvgl/src/widgets/lv_switch.c **** 
  69:Middlewares/LVGL/GUI/lvgl/src/widgets/lv_switch.c **** /**********************
  70:Middlewares/LVGL/GUI/lvgl/src/widgets/lv_switch.c ****  *   GLOBAL FUNCTIONS
  71:Middlewares/LVGL/GUI/lvgl/src/widgets/lv_switch.c ****  **********************/
  72:Middlewares/LVGL/GUI/lvgl/src/widgets/lv_switch.c **** 
  73:Middlewares/LVGL/GUI/lvgl/src/widgets/lv_switch.c **** lv_obj_t * lv_switch_create(lv_obj_t * parent)
  74:Middlewares/LVGL/GUI/lvgl/src/widgets/lv_switch.c **** {
  75:Middlewares/LVGL/GUI/lvgl/src/widgets/lv_switch.c ****     LV_LOG_INFO("begin");
  76:Middlewares/LVGL/GUI/lvgl/src/widgets/lv_switch.c ****     lv_obj_t * obj = lv_obj_class_create_obj(MY_CLASS, parent);
  77:Middlewares/LVGL/GUI/lvgl/src/widgets/lv_switch.c ****     lv_obj_class_init_obj(obj);
  78:Middlewares/LVGL/GUI/lvgl/src/widgets/lv_switch.c ****     return obj;
  79:Middlewares/LVGL/GUI/lvgl/src/widgets/lv_switch.c **** }
  80:Middlewares/LVGL/GUI/lvgl/src/widgets/lv_switch.c **** 
  81:Middlewares/LVGL/GUI/lvgl/src/widgets/lv_switch.c **** /**********************
  82:Middlewares/LVGL/GUI/lvgl/src/widgets/lv_switch.c ****  *   STATIC FUNCTIONS
  83:Middlewares/LVGL/GUI/lvgl/src/widgets/lv_switch.c ****  **********************/
  84:Middlewares/LVGL/GUI/lvgl/src/widgets/lv_switch.c **** 
  85:Middlewares/LVGL/GUI/lvgl/src/widgets/lv_switch.c **** static void lv_switch_constructor(const lv_obj_class_t * class_p, lv_obj_t * obj)
  86:Middlewares/LVGL/GUI/lvgl/src/widgets/lv_switch.c **** {
  87:Middlewares/LVGL/GUI/lvgl/src/widgets/lv_switch.c ****     LV_UNUSED(class_p);
ARM GAS  C:\Users\ADMINI~1\AppData\Local\Temp\ccH3Y31L.s 			page 3


  88:Middlewares/LVGL/GUI/lvgl/src/widgets/lv_switch.c ****     LV_TRACE_OBJ_CREATE("begin");
  89:Middlewares/LVGL/GUI/lvgl/src/widgets/lv_switch.c **** 
  90:Middlewares/LVGL/GUI/lvgl/src/widgets/lv_switch.c ****     lv_switch_t * sw = (lv_switch_t *)obj;
  91:Middlewares/LVGL/GUI/lvgl/src/widgets/lv_switch.c **** 
  92:Middlewares/LVGL/GUI/lvgl/src/widgets/lv_switch.c ****     sw->anim_state = LV_SWITCH_ANIM_STATE_INV;
  93:Middlewares/LVGL/GUI/lvgl/src/widgets/lv_switch.c **** 
  94:Middlewares/LVGL/GUI/lvgl/src/widgets/lv_switch.c ****     lv_obj_clear_flag(obj, LV_OBJ_FLAG_SCROLLABLE);
  95:Middlewares/LVGL/GUI/lvgl/src/widgets/lv_switch.c ****     lv_obj_add_flag(obj, LV_OBJ_FLAG_CHECKABLE);
  96:Middlewares/LVGL/GUI/lvgl/src/widgets/lv_switch.c ****     lv_obj_add_flag(obj, LV_OBJ_FLAG_SCROLL_ON_FOCUS);
  97:Middlewares/LVGL/GUI/lvgl/src/widgets/lv_switch.c **** 
  98:Middlewares/LVGL/GUI/lvgl/src/widgets/lv_switch.c ****     LV_TRACE_OBJ_CREATE("finished");
  99:Middlewares/LVGL/GUI/lvgl/src/widgets/lv_switch.c **** }
 100:Middlewares/LVGL/GUI/lvgl/src/widgets/lv_switch.c **** 
 101:Middlewares/LVGL/GUI/lvgl/src/widgets/lv_switch.c **** static void lv_switch_destructor(const lv_obj_class_t * class_p, lv_obj_t * obj)
 102:Middlewares/LVGL/GUI/lvgl/src/widgets/lv_switch.c **** {
 103:Middlewares/LVGL/GUI/lvgl/src/widgets/lv_switch.c ****     LV_UNUSED(class_p);
 104:Middlewares/LVGL/GUI/lvgl/src/widgets/lv_switch.c ****     lv_switch_t * sw = (lv_switch_t *)obj;
 105:Middlewares/LVGL/GUI/lvgl/src/widgets/lv_switch.c **** 
 106:Middlewares/LVGL/GUI/lvgl/src/widgets/lv_switch.c ****     lv_anim_del(sw, NULL);
 107:Middlewares/LVGL/GUI/lvgl/src/widgets/lv_switch.c **** }
 108:Middlewares/LVGL/GUI/lvgl/src/widgets/lv_switch.c **** 
 109:Middlewares/LVGL/GUI/lvgl/src/widgets/lv_switch.c **** static void lv_switch_event(const lv_obj_class_t * class_p, lv_event_t * e)
 110:Middlewares/LVGL/GUI/lvgl/src/widgets/lv_switch.c **** {
 111:Middlewares/LVGL/GUI/lvgl/src/widgets/lv_switch.c ****     LV_UNUSED(class_p);
 112:Middlewares/LVGL/GUI/lvgl/src/widgets/lv_switch.c **** 
 113:Middlewares/LVGL/GUI/lvgl/src/widgets/lv_switch.c ****     lv_res_t res;
 114:Middlewares/LVGL/GUI/lvgl/src/widgets/lv_switch.c **** 
 115:Middlewares/LVGL/GUI/lvgl/src/widgets/lv_switch.c ****     /*Call the ancestor's event handler*/
 116:Middlewares/LVGL/GUI/lvgl/src/widgets/lv_switch.c ****     res = lv_obj_event_base(MY_CLASS, e);
 117:Middlewares/LVGL/GUI/lvgl/src/widgets/lv_switch.c ****     if(res != LV_RES_OK) return;
 118:Middlewares/LVGL/GUI/lvgl/src/widgets/lv_switch.c **** 
 119:Middlewares/LVGL/GUI/lvgl/src/widgets/lv_switch.c ****     lv_event_code_t code = lv_event_get_code(e);
 120:Middlewares/LVGL/GUI/lvgl/src/widgets/lv_switch.c ****     lv_obj_t * obj = lv_event_get_target(e);
 121:Middlewares/LVGL/GUI/lvgl/src/widgets/lv_switch.c **** 
 122:Middlewares/LVGL/GUI/lvgl/src/widgets/lv_switch.c ****     if(code == LV_EVENT_REFR_EXT_DRAW_SIZE) {
 123:Middlewares/LVGL/GUI/lvgl/src/widgets/lv_switch.c ****         lv_coord_t knob_left = lv_obj_get_style_pad_left(obj,   LV_PART_KNOB);
 124:Middlewares/LVGL/GUI/lvgl/src/widgets/lv_switch.c ****         lv_coord_t knob_right = lv_obj_get_style_pad_right(obj,  LV_PART_KNOB);
 125:Middlewares/LVGL/GUI/lvgl/src/widgets/lv_switch.c ****         lv_coord_t knob_top = lv_obj_get_style_pad_top(obj,    LV_PART_KNOB);
 126:Middlewares/LVGL/GUI/lvgl/src/widgets/lv_switch.c ****         lv_coord_t knob_bottom = lv_obj_get_style_pad_bottom(obj, LV_PART_KNOB);
 127:Middlewares/LVGL/GUI/lvgl/src/widgets/lv_switch.c **** 
 128:Middlewares/LVGL/GUI/lvgl/src/widgets/lv_switch.c ****         /*The smaller size is the knob diameter*/
 129:Middlewares/LVGL/GUI/lvgl/src/widgets/lv_switch.c ****         lv_coord_t knob_size = LV_MAX4(knob_left, knob_right, knob_bottom, knob_top);
 130:Middlewares/LVGL/GUI/lvgl/src/widgets/lv_switch.c ****         knob_size += _LV_SWITCH_KNOB_EXT_AREA_CORRECTION;
 131:Middlewares/LVGL/GUI/lvgl/src/widgets/lv_switch.c ****         knob_size += lv_obj_calculate_ext_draw_size(obj, LV_PART_KNOB);
 132:Middlewares/LVGL/GUI/lvgl/src/widgets/lv_switch.c **** 
 133:Middlewares/LVGL/GUI/lvgl/src/widgets/lv_switch.c ****         lv_coord_t * s = lv_event_get_param(e);
 134:Middlewares/LVGL/GUI/lvgl/src/widgets/lv_switch.c ****         *s = LV_MAX(*s, knob_size);
 135:Middlewares/LVGL/GUI/lvgl/src/widgets/lv_switch.c ****         *s = LV_MAX(*s, lv_obj_calculate_ext_draw_size(obj, LV_PART_INDICATOR));
 136:Middlewares/LVGL/GUI/lvgl/src/widgets/lv_switch.c ****     }
 137:Middlewares/LVGL/GUI/lvgl/src/widgets/lv_switch.c ****     else if(code == LV_EVENT_VALUE_CHANGED) {
 138:Middlewares/LVGL/GUI/lvgl/src/widgets/lv_switch.c ****         lv_switch_trigger_anim(obj);
 139:Middlewares/LVGL/GUI/lvgl/src/widgets/lv_switch.c ****         lv_obj_invalidate(obj);
 140:Middlewares/LVGL/GUI/lvgl/src/widgets/lv_switch.c ****     }
 141:Middlewares/LVGL/GUI/lvgl/src/widgets/lv_switch.c ****     else if(code == LV_EVENT_DRAW_MAIN) {
 142:Middlewares/LVGL/GUI/lvgl/src/widgets/lv_switch.c ****         draw_main(e);
 143:Middlewares/LVGL/GUI/lvgl/src/widgets/lv_switch.c ****     }
 144:Middlewares/LVGL/GUI/lvgl/src/widgets/lv_switch.c **** }
ARM GAS  C:\Users\ADMINI~1\AppData\Local\Temp\ccH3Y31L.s 			page 4


 145:Middlewares/LVGL/GUI/lvgl/src/widgets/lv_switch.c **** 
 146:Middlewares/LVGL/GUI/lvgl/src/widgets/lv_switch.c **** static void draw_main(lv_event_t * e)
 147:Middlewares/LVGL/GUI/lvgl/src/widgets/lv_switch.c **** {
 148:Middlewares/LVGL/GUI/lvgl/src/widgets/lv_switch.c ****     lv_obj_t * obj = lv_event_get_target(e);
 149:Middlewares/LVGL/GUI/lvgl/src/widgets/lv_switch.c ****     lv_switch_t * sw = (lv_switch_t *)obj;
 150:Middlewares/LVGL/GUI/lvgl/src/widgets/lv_switch.c **** 
 151:Middlewares/LVGL/GUI/lvgl/src/widgets/lv_switch.c ****     lv_draw_ctx_t * draw_ctx = lv_event_get_draw_ctx(e);
 152:Middlewares/LVGL/GUI/lvgl/src/widgets/lv_switch.c **** 
 153:Middlewares/LVGL/GUI/lvgl/src/widgets/lv_switch.c ****     /*Calculate the indicator area*/
 154:Middlewares/LVGL/GUI/lvgl/src/widgets/lv_switch.c ****     lv_coord_t bg_left = lv_obj_get_style_pad_left(obj,     LV_PART_MAIN);
 155:Middlewares/LVGL/GUI/lvgl/src/widgets/lv_switch.c ****     lv_coord_t bg_right = lv_obj_get_style_pad_right(obj,   LV_PART_MAIN);
 156:Middlewares/LVGL/GUI/lvgl/src/widgets/lv_switch.c ****     lv_coord_t bg_top = lv_obj_get_style_pad_top(obj,       LV_PART_MAIN);
 157:Middlewares/LVGL/GUI/lvgl/src/widgets/lv_switch.c ****     lv_coord_t bg_bottom = lv_obj_get_style_pad_bottom(obj, LV_PART_MAIN);
 158:Middlewares/LVGL/GUI/lvgl/src/widgets/lv_switch.c **** 
 159:Middlewares/LVGL/GUI/lvgl/src/widgets/lv_switch.c ****     /*Draw the indicator*/
 160:Middlewares/LVGL/GUI/lvgl/src/widgets/lv_switch.c ****     /*Respect the background's padding*/
 161:Middlewares/LVGL/GUI/lvgl/src/widgets/lv_switch.c ****     lv_area_t indic_area;
 162:Middlewares/LVGL/GUI/lvgl/src/widgets/lv_switch.c ****     lv_area_copy(&indic_area, &obj->coords);
 163:Middlewares/LVGL/GUI/lvgl/src/widgets/lv_switch.c ****     indic_area.x1 += bg_left;
 164:Middlewares/LVGL/GUI/lvgl/src/widgets/lv_switch.c ****     indic_area.x2 -= bg_right;
 165:Middlewares/LVGL/GUI/lvgl/src/widgets/lv_switch.c ****     indic_area.y1 += bg_top;
 166:Middlewares/LVGL/GUI/lvgl/src/widgets/lv_switch.c ****     indic_area.y2 -= bg_bottom;
 167:Middlewares/LVGL/GUI/lvgl/src/widgets/lv_switch.c **** 
 168:Middlewares/LVGL/GUI/lvgl/src/widgets/lv_switch.c ****     lv_draw_rect_dsc_t draw_indic_dsc;
 169:Middlewares/LVGL/GUI/lvgl/src/widgets/lv_switch.c ****     lv_draw_rect_dsc_init(&draw_indic_dsc);
 170:Middlewares/LVGL/GUI/lvgl/src/widgets/lv_switch.c ****     lv_obj_init_draw_rect_dsc(obj, LV_PART_INDICATOR, &draw_indic_dsc);
 171:Middlewares/LVGL/GUI/lvgl/src/widgets/lv_switch.c ****     lv_draw_rect(draw_ctx, &draw_indic_dsc, &indic_area);
 172:Middlewares/LVGL/GUI/lvgl/src/widgets/lv_switch.c **** 
 173:Middlewares/LVGL/GUI/lvgl/src/widgets/lv_switch.c ****     /*Draw the knob*/
 174:Middlewares/LVGL/GUI/lvgl/src/widgets/lv_switch.c ****     lv_coord_t anim_value_x = 0;
 175:Middlewares/LVGL/GUI/lvgl/src/widgets/lv_switch.c ****     lv_coord_t knob_size = lv_obj_get_height(obj);
 176:Middlewares/LVGL/GUI/lvgl/src/widgets/lv_switch.c ****     lv_coord_t anim_length = lv_area_get_width(&obj->coords) - knob_size;
 177:Middlewares/LVGL/GUI/lvgl/src/widgets/lv_switch.c **** 
 178:Middlewares/LVGL/GUI/lvgl/src/widgets/lv_switch.c ****     if(LV_SWITCH_IS_ANIMATING(sw)) {
 179:Middlewares/LVGL/GUI/lvgl/src/widgets/lv_switch.c ****         /* Use the animation's coordinate */
 180:Middlewares/LVGL/GUI/lvgl/src/widgets/lv_switch.c ****         anim_value_x = (anim_length * sw->anim_state) / LV_SWITCH_ANIM_STATE_END;
 181:Middlewares/LVGL/GUI/lvgl/src/widgets/lv_switch.c ****     }
 182:Middlewares/LVGL/GUI/lvgl/src/widgets/lv_switch.c ****     else {
 183:Middlewares/LVGL/GUI/lvgl/src/widgets/lv_switch.c ****         /* Use LV_STATE_CHECKED to decide the coordinate */
 184:Middlewares/LVGL/GUI/lvgl/src/widgets/lv_switch.c ****         bool chk = lv_obj_get_state(obj) & LV_STATE_CHECKED;
 185:Middlewares/LVGL/GUI/lvgl/src/widgets/lv_switch.c ****         anim_value_x = chk ? anim_length : 0;
 186:Middlewares/LVGL/GUI/lvgl/src/widgets/lv_switch.c ****     }
 187:Middlewares/LVGL/GUI/lvgl/src/widgets/lv_switch.c **** 
 188:Middlewares/LVGL/GUI/lvgl/src/widgets/lv_switch.c ****     if(LV_BASE_DIR_RTL == lv_obj_get_style_base_dir(obj, LV_PART_MAIN)) {
 189:Middlewares/LVGL/GUI/lvgl/src/widgets/lv_switch.c ****         anim_value_x = anim_length - anim_value_x;
 190:Middlewares/LVGL/GUI/lvgl/src/widgets/lv_switch.c ****     }
 191:Middlewares/LVGL/GUI/lvgl/src/widgets/lv_switch.c **** 
 192:Middlewares/LVGL/GUI/lvgl/src/widgets/lv_switch.c ****     lv_area_t knob_area;
 193:Middlewares/LVGL/GUI/lvgl/src/widgets/lv_switch.c ****     knob_area.x1 = obj->coords.x1 + anim_value_x;
 194:Middlewares/LVGL/GUI/lvgl/src/widgets/lv_switch.c ****     knob_area.x2 = knob_area.x1 + knob_size;
 195:Middlewares/LVGL/GUI/lvgl/src/widgets/lv_switch.c **** 
 196:Middlewares/LVGL/GUI/lvgl/src/widgets/lv_switch.c ****     knob_area.y1 = obj->coords.y1;
 197:Middlewares/LVGL/GUI/lvgl/src/widgets/lv_switch.c ****     knob_area.y2 = obj->coords.y2;
 198:Middlewares/LVGL/GUI/lvgl/src/widgets/lv_switch.c **** 
 199:Middlewares/LVGL/GUI/lvgl/src/widgets/lv_switch.c ****     lv_coord_t knob_left = lv_obj_get_style_pad_left(obj, LV_PART_KNOB);
 200:Middlewares/LVGL/GUI/lvgl/src/widgets/lv_switch.c ****     lv_coord_t knob_right = lv_obj_get_style_pad_right(obj, LV_PART_KNOB);
 201:Middlewares/LVGL/GUI/lvgl/src/widgets/lv_switch.c ****     lv_coord_t knob_top = lv_obj_get_style_pad_top(obj, LV_PART_KNOB);
ARM GAS  C:\Users\ADMINI~1\AppData\Local\Temp\ccH3Y31L.s 			page 5


 202:Middlewares/LVGL/GUI/lvgl/src/widgets/lv_switch.c ****     lv_coord_t knob_bottom = lv_obj_get_style_pad_bottom(obj, LV_PART_KNOB);
 203:Middlewares/LVGL/GUI/lvgl/src/widgets/lv_switch.c **** 
 204:Middlewares/LVGL/GUI/lvgl/src/widgets/lv_switch.c ****     /*Apply the paddings on the knob area*/
 205:Middlewares/LVGL/GUI/lvgl/src/widgets/lv_switch.c ****     knob_area.x1 -= knob_left;
 206:Middlewares/LVGL/GUI/lvgl/src/widgets/lv_switch.c ****     knob_area.x2 += knob_right;
 207:Middlewares/LVGL/GUI/lvgl/src/widgets/lv_switch.c ****     knob_area.y1 -= knob_top;
 208:Middlewares/LVGL/GUI/lvgl/src/widgets/lv_switch.c ****     knob_area.y2 += knob_bottom;
 209:Middlewares/LVGL/GUI/lvgl/src/widgets/lv_switch.c **** 
 210:Middlewares/LVGL/GUI/lvgl/src/widgets/lv_switch.c ****     lv_draw_rect_dsc_t knob_rect_dsc;
 211:Middlewares/LVGL/GUI/lvgl/src/widgets/lv_switch.c ****     lv_draw_rect_dsc_init(&knob_rect_dsc);
 212:Middlewares/LVGL/GUI/lvgl/src/widgets/lv_switch.c ****     lv_obj_init_draw_rect_dsc(obj, LV_PART_KNOB, &knob_rect_dsc);
 213:Middlewares/LVGL/GUI/lvgl/src/widgets/lv_switch.c **** 
 214:Middlewares/LVGL/GUI/lvgl/src/widgets/lv_switch.c ****     lv_draw_rect(draw_ctx, &knob_rect_dsc, &knob_area);
 215:Middlewares/LVGL/GUI/lvgl/src/widgets/lv_switch.c **** }
 216:Middlewares/LVGL/GUI/lvgl/src/widgets/lv_switch.c **** 
 217:Middlewares/LVGL/GUI/lvgl/src/widgets/lv_switch.c **** static void lv_switch_anim_exec_cb(void * var, int32_t value)
 218:Middlewares/LVGL/GUI/lvgl/src/widgets/lv_switch.c **** {
 219:Middlewares/LVGL/GUI/lvgl/src/widgets/lv_switch.c ****     lv_switch_t * sw = var;
 220:Middlewares/LVGL/GUI/lvgl/src/widgets/lv_switch.c ****     sw->anim_state = value;
 221:Middlewares/LVGL/GUI/lvgl/src/widgets/lv_switch.c ****     lv_obj_invalidate((lv_obj_t *)sw);
 222:Middlewares/LVGL/GUI/lvgl/src/widgets/lv_switch.c **** }
 223:Middlewares/LVGL/GUI/lvgl/src/widgets/lv_switch.c **** 
 224:Middlewares/LVGL/GUI/lvgl/src/widgets/lv_switch.c **** /**
 225:Middlewares/LVGL/GUI/lvgl/src/widgets/lv_switch.c ****  * Resets the switch's animation state to "no animation in progress".
 226:Middlewares/LVGL/GUI/lvgl/src/widgets/lv_switch.c ****  */
 227:Middlewares/LVGL/GUI/lvgl/src/widgets/lv_switch.c **** static void lv_switch_anim_ready(lv_anim_t * a)
 228:Middlewares/LVGL/GUI/lvgl/src/widgets/lv_switch.c **** {
  29              		.loc 1 228 1 view -0
  30              		.cfi_startproc
  31              		@ args = 0, pretend = 0, frame = 0
  32              		@ frame_needed = 0, uses_anonymous_args = 0
  33              		.loc 1 228 1 is_stmt 0 view .LVU1
  34 0000 08B5     		push	{r3, lr}
  35              	.LCFI0:
  36              		.cfi_def_cfa_offset 8
  37              		.cfi_offset 3, -8
  38              		.cfi_offset 14, -4
 229:Middlewares/LVGL/GUI/lvgl/src/widgets/lv_switch.c ****     lv_switch_t * sw = a->var;
  39              		.loc 1 229 5 is_stmt 1 view .LVU2
  40              		.loc 1 229 19 is_stmt 0 view .LVU3
  41 0002 0068     		ldr	r0, [r0]
  42              	.LVL1:
 230:Middlewares/LVGL/GUI/lvgl/src/widgets/lv_switch.c ****     sw->anim_state = LV_SWITCH_ANIM_STATE_INV;
  43              		.loc 1 230 5 is_stmt 1 view .LVU4
  44              		.loc 1 230 20 is_stmt 0 view .LVU5
  45 0004 4FF0FF33 		mov	r3, #-1
  46 0008 C362     		str	r3, [r0, #44]
 231:Middlewares/LVGL/GUI/lvgl/src/widgets/lv_switch.c ****     lv_obj_invalidate((lv_obj_t *)sw);
  47              		.loc 1 231 5 is_stmt 1 view .LVU6
  48 000a FFF7FEFF 		bl	lv_obj_invalidate
  49              	.LVL2:
 232:Middlewares/LVGL/GUI/lvgl/src/widgets/lv_switch.c **** }
  50              		.loc 1 232 1 is_stmt 0 view .LVU7
  51 000e 08BD     		pop	{r3, pc}
  52              		.cfi_endproc
  53              	.LFE165:
  55              		.section	.text.lv_switch_anim_exec_cb,"ax",%progbits
ARM GAS  C:\Users\ADMINI~1\AppData\Local\Temp\ccH3Y31L.s 			page 6


  56              		.align	1
  57              		.syntax unified
  58              		.thumb
  59              		.thumb_func
  61              	lv_switch_anim_exec_cb:
  62              	.LVL3:
  63              	.LFB164:
 218:Middlewares/LVGL/GUI/lvgl/src/widgets/lv_switch.c ****     lv_switch_t * sw = var;
  64              		.loc 1 218 1 is_stmt 1 view -0
  65              		.cfi_startproc
  66              		@ args = 0, pretend = 0, frame = 0
  67              		@ frame_needed = 0, uses_anonymous_args = 0
 218:Middlewares/LVGL/GUI/lvgl/src/widgets/lv_switch.c ****     lv_switch_t * sw = var;
  68              		.loc 1 218 1 is_stmt 0 view .LVU9
  69 0000 08B5     		push	{r3, lr}
  70              	.LCFI1:
  71              		.cfi_def_cfa_offset 8
  72              		.cfi_offset 3, -8
  73              		.cfi_offset 14, -4
 219:Middlewares/LVGL/GUI/lvgl/src/widgets/lv_switch.c ****     sw->anim_state = value;
  74              		.loc 1 219 5 is_stmt 1 view .LVU10
  75              	.LVL4:
 220:Middlewares/LVGL/GUI/lvgl/src/widgets/lv_switch.c ****     lv_obj_invalidate((lv_obj_t *)sw);
  76              		.loc 1 220 5 view .LVU11
 220:Middlewares/LVGL/GUI/lvgl/src/widgets/lv_switch.c ****     lv_obj_invalidate((lv_obj_t *)sw);
  77              		.loc 1 220 20 is_stmt 0 view .LVU12
  78 0002 C162     		str	r1, [r0, #44]
 221:Middlewares/LVGL/GUI/lvgl/src/widgets/lv_switch.c **** }
  79              		.loc 1 221 5 is_stmt 1 view .LVU13
  80 0004 FFF7FEFF 		bl	lv_obj_invalidate
  81              	.LVL5:
 222:Middlewares/LVGL/GUI/lvgl/src/widgets/lv_switch.c **** 
  82              		.loc 1 222 1 is_stmt 0 view .LVU14
  83 0008 08BD     		pop	{r3, pc}
  84              		.cfi_endproc
  85              	.LFE164:
  87              		.section	.text.lv_switch_destructor,"ax",%progbits
  88              		.align	1
  89              		.syntax unified
  90              		.thumb
  91              		.thumb_func
  93              	lv_switch_destructor:
  94              	.LVL6:
  95              	.LFB161:
 102:Middlewares/LVGL/GUI/lvgl/src/widgets/lv_switch.c ****     LV_UNUSED(class_p);
  96              		.loc 1 102 1 is_stmt 1 view -0
  97              		.cfi_startproc
  98              		@ args = 0, pretend = 0, frame = 0
  99              		@ frame_needed = 0, uses_anonymous_args = 0
 102:Middlewares/LVGL/GUI/lvgl/src/widgets/lv_switch.c ****     LV_UNUSED(class_p);
 100              		.loc 1 102 1 is_stmt 0 view .LVU16
 101 0000 08B5     		push	{r3, lr}
 102              	.LCFI2:
 103              		.cfi_def_cfa_offset 8
 104              		.cfi_offset 3, -8
 105              		.cfi_offset 14, -4
 106 0002 0846     		mov	r0, r1
ARM GAS  C:\Users\ADMINI~1\AppData\Local\Temp\ccH3Y31L.s 			page 7


 107              	.LVL7:
 103:Middlewares/LVGL/GUI/lvgl/src/widgets/lv_switch.c ****     lv_switch_t * sw = (lv_switch_t *)obj;
 108              		.loc 1 103 5 is_stmt 1 view .LVU17
 104:Middlewares/LVGL/GUI/lvgl/src/widgets/lv_switch.c **** 
 109              		.loc 1 104 5 view .LVU18
 106:Middlewares/LVGL/GUI/lvgl/src/widgets/lv_switch.c **** }
 110              		.loc 1 106 5 view .LVU19
 111 0004 0021     		movs	r1, #0
 112              	.LVL8:
 106:Middlewares/LVGL/GUI/lvgl/src/widgets/lv_switch.c **** }
 113              		.loc 1 106 5 is_stmt 0 view .LVU20
 114 0006 FFF7FEFF 		bl	lv_anim_del
 115              	.LVL9:
 107:Middlewares/LVGL/GUI/lvgl/src/widgets/lv_switch.c **** 
 116              		.loc 1 107 1 view .LVU21
 117 000a 08BD     		pop	{r3, pc}
 118              		.cfi_endproc
 119              	.LFE161:
 121              		.section	.text.lv_switch_trigger_anim,"ax",%progbits
 122              		.align	1
 123              		.syntax unified
 124              		.thumb
 125              		.thumb_func
 127              	lv_switch_trigger_anim:
 128              	.LVL10:
 129              	.LFB166:
 233:Middlewares/LVGL/GUI/lvgl/src/widgets/lv_switch.c **** 
 234:Middlewares/LVGL/GUI/lvgl/src/widgets/lv_switch.c **** /**
 235:Middlewares/LVGL/GUI/lvgl/src/widgets/lv_switch.c ****  * Starts an animation for the switch knob. if the anim_time style property is greater than 0
 236:Middlewares/LVGL/GUI/lvgl/src/widgets/lv_switch.c ****  * @param obj the switch to animate
 237:Middlewares/LVGL/GUI/lvgl/src/widgets/lv_switch.c ****  */
 238:Middlewares/LVGL/GUI/lvgl/src/widgets/lv_switch.c **** static void lv_switch_trigger_anim(lv_obj_t * obj)
 239:Middlewares/LVGL/GUI/lvgl/src/widgets/lv_switch.c **** {
 130              		.loc 1 239 1 is_stmt 1 view -0
 131              		.cfi_startproc
 132              		@ args = 0, pretend = 0, frame = 64
 133              		@ frame_needed = 0, uses_anonymous_args = 0
 134              		.loc 1 239 1 is_stmt 0 view .LVU23
 135 0000 2DE9F041 		push	{r4, r5, r6, r7, r8, lr}
 136              	.LCFI3:
 137              		.cfi_def_cfa_offset 24
 138              		.cfi_offset 4, -24
 139              		.cfi_offset 5, -20
 140              		.cfi_offset 6, -16
 141              		.cfi_offset 7, -12
 142              		.cfi_offset 8, -8
 143              		.cfi_offset 14, -4
 144 0004 90B0     		sub	sp, sp, #64
 145              	.LCFI4:
 146              		.cfi_def_cfa_offset 88
 147 0006 0446     		mov	r4, r0
 240:Middlewares/LVGL/GUI/lvgl/src/widgets/lv_switch.c ****     LV_ASSERT_OBJ(obj, MY_CLASS);
 148              		.loc 1 240 5 is_stmt 1 view .LVU24
 149              		.loc 1 240 5 view .LVU25
 150              		.loc 1 240 5 view .LVU26
 241:Middlewares/LVGL/GUI/lvgl/src/widgets/lv_switch.c ****     lv_switch_t * sw = (lv_switch_t *)obj;
 151              		.loc 1 241 5 view .LVU27
ARM GAS  C:\Users\ADMINI~1\AppData\Local\Temp\ccH3Y31L.s 			page 8


 152              	.LVL11:
 242:Middlewares/LVGL/GUI/lvgl/src/widgets/lv_switch.c **** 
 243:Middlewares/LVGL/GUI/lvgl/src/widgets/lv_switch.c ****     uint32_t anim_dur_full = lv_obj_get_style_anim_time(obj, LV_PART_MAIN);
 153              		.loc 1 243 5 view .LVU28
 154              	.LBB47:
 155              	.LBI47:
 156              		.file 2 "Middlewares/LVGL/GUI/lvgl/src/widgets/../core/lv_obj_style_gen.h"
   1:Middlewares/LVGL/GUI/lvgl/src/widgets/../core/lv_obj_style_gen.h **** static inline lv_coord_t lv_obj_get_style_width(const struct _lv_obj_t * obj, uint32_t part)
   2:Middlewares/LVGL/GUI/lvgl/src/widgets/../core/lv_obj_style_gen.h **** {
   3:Middlewares/LVGL/GUI/lvgl/src/widgets/../core/lv_obj_style_gen.h ****     lv_style_value_t v = lv_obj_get_style_prop(obj, part, LV_STYLE_WIDTH);
   4:Middlewares/LVGL/GUI/lvgl/src/widgets/../core/lv_obj_style_gen.h ****     return (lv_coord_t)v.num;
   5:Middlewares/LVGL/GUI/lvgl/src/widgets/../core/lv_obj_style_gen.h **** }
   6:Middlewares/LVGL/GUI/lvgl/src/widgets/../core/lv_obj_style_gen.h **** 
   7:Middlewares/LVGL/GUI/lvgl/src/widgets/../core/lv_obj_style_gen.h **** static inline lv_coord_t lv_obj_get_style_min_width(const struct _lv_obj_t * obj, uint32_t part)
   8:Middlewares/LVGL/GUI/lvgl/src/widgets/../core/lv_obj_style_gen.h **** {
   9:Middlewares/LVGL/GUI/lvgl/src/widgets/../core/lv_obj_style_gen.h ****     lv_style_value_t v = lv_obj_get_style_prop(obj, part, LV_STYLE_MIN_WIDTH);
  10:Middlewares/LVGL/GUI/lvgl/src/widgets/../core/lv_obj_style_gen.h ****     return (lv_coord_t)v.num;
  11:Middlewares/LVGL/GUI/lvgl/src/widgets/../core/lv_obj_style_gen.h **** }
  12:Middlewares/LVGL/GUI/lvgl/src/widgets/../core/lv_obj_style_gen.h **** 
  13:Middlewares/LVGL/GUI/lvgl/src/widgets/../core/lv_obj_style_gen.h **** static inline lv_coord_t lv_obj_get_style_max_width(const struct _lv_obj_t * obj, uint32_t part)
  14:Middlewares/LVGL/GUI/lvgl/src/widgets/../core/lv_obj_style_gen.h **** {
  15:Middlewares/LVGL/GUI/lvgl/src/widgets/../core/lv_obj_style_gen.h ****     lv_style_value_t v = lv_obj_get_style_prop(obj, part, LV_STYLE_MAX_WIDTH);
  16:Middlewares/LVGL/GUI/lvgl/src/widgets/../core/lv_obj_style_gen.h ****     return (lv_coord_t)v.num;
  17:Middlewares/LVGL/GUI/lvgl/src/widgets/../core/lv_obj_style_gen.h **** }
  18:Middlewares/LVGL/GUI/lvgl/src/widgets/../core/lv_obj_style_gen.h **** 
  19:Middlewares/LVGL/GUI/lvgl/src/widgets/../core/lv_obj_style_gen.h **** static inline lv_coord_t lv_obj_get_style_height(const struct _lv_obj_t * obj, uint32_t part)
  20:Middlewares/LVGL/GUI/lvgl/src/widgets/../core/lv_obj_style_gen.h **** {
  21:Middlewares/LVGL/GUI/lvgl/src/widgets/../core/lv_obj_style_gen.h ****     lv_style_value_t v = lv_obj_get_style_prop(obj, part, LV_STYLE_HEIGHT);
  22:Middlewares/LVGL/GUI/lvgl/src/widgets/../core/lv_obj_style_gen.h ****     return (lv_coord_t)v.num;
  23:Middlewares/LVGL/GUI/lvgl/src/widgets/../core/lv_obj_style_gen.h **** }
  24:Middlewares/LVGL/GUI/lvgl/src/widgets/../core/lv_obj_style_gen.h **** 
  25:Middlewares/LVGL/GUI/lvgl/src/widgets/../core/lv_obj_style_gen.h **** static inline lv_coord_t lv_obj_get_style_min_height(const struct _lv_obj_t * obj, uint32_t part)
  26:Middlewares/LVGL/GUI/lvgl/src/widgets/../core/lv_obj_style_gen.h **** {
  27:Middlewares/LVGL/GUI/lvgl/src/widgets/../core/lv_obj_style_gen.h ****     lv_style_value_t v = lv_obj_get_style_prop(obj, part, LV_STYLE_MIN_HEIGHT);
  28:Middlewares/LVGL/GUI/lvgl/src/widgets/../core/lv_obj_style_gen.h ****     return (lv_coord_t)v.num;
  29:Middlewares/LVGL/GUI/lvgl/src/widgets/../core/lv_obj_style_gen.h **** }
  30:Middlewares/LVGL/GUI/lvgl/src/widgets/../core/lv_obj_style_gen.h **** 
  31:Middlewares/LVGL/GUI/lvgl/src/widgets/../core/lv_obj_style_gen.h **** static inline lv_coord_t lv_obj_get_style_max_height(const struct _lv_obj_t * obj, uint32_t part)
  32:Middlewares/LVGL/GUI/lvgl/src/widgets/../core/lv_obj_style_gen.h **** {
  33:Middlewares/LVGL/GUI/lvgl/src/widgets/../core/lv_obj_style_gen.h ****     lv_style_value_t v = lv_obj_get_style_prop(obj, part, LV_STYLE_MAX_HEIGHT);
  34:Middlewares/LVGL/GUI/lvgl/src/widgets/../core/lv_obj_style_gen.h ****     return (lv_coord_t)v.num;
  35:Middlewares/LVGL/GUI/lvgl/src/widgets/../core/lv_obj_style_gen.h **** }
  36:Middlewares/LVGL/GUI/lvgl/src/widgets/../core/lv_obj_style_gen.h **** 
  37:Middlewares/LVGL/GUI/lvgl/src/widgets/../core/lv_obj_style_gen.h **** static inline lv_coord_t lv_obj_get_style_x(const struct _lv_obj_t * obj, uint32_t part)
  38:Middlewares/LVGL/GUI/lvgl/src/widgets/../core/lv_obj_style_gen.h **** {
  39:Middlewares/LVGL/GUI/lvgl/src/widgets/../core/lv_obj_style_gen.h ****     lv_style_value_t v = lv_obj_get_style_prop(obj, part, LV_STYLE_X);
  40:Middlewares/LVGL/GUI/lvgl/src/widgets/../core/lv_obj_style_gen.h ****     return (lv_coord_t)v.num;
  41:Middlewares/LVGL/GUI/lvgl/src/widgets/../core/lv_obj_style_gen.h **** }
  42:Middlewares/LVGL/GUI/lvgl/src/widgets/../core/lv_obj_style_gen.h **** 
  43:Middlewares/LVGL/GUI/lvgl/src/widgets/../core/lv_obj_style_gen.h **** static inline lv_coord_t lv_obj_get_style_y(const struct _lv_obj_t * obj, uint32_t part)
  44:Middlewares/LVGL/GUI/lvgl/src/widgets/../core/lv_obj_style_gen.h **** {
  45:Middlewares/LVGL/GUI/lvgl/src/widgets/../core/lv_obj_style_gen.h ****     lv_style_value_t v = lv_obj_get_style_prop(obj, part, LV_STYLE_Y);
  46:Middlewares/LVGL/GUI/lvgl/src/widgets/../core/lv_obj_style_gen.h ****     return (lv_coord_t)v.num;
  47:Middlewares/LVGL/GUI/lvgl/src/widgets/../core/lv_obj_style_gen.h **** }
  48:Middlewares/LVGL/GUI/lvgl/src/widgets/../core/lv_obj_style_gen.h **** 
  49:Middlewares/LVGL/GUI/lvgl/src/widgets/../core/lv_obj_style_gen.h **** static inline lv_align_t lv_obj_get_style_align(const struct _lv_obj_t * obj, uint32_t part)
  50:Middlewares/LVGL/GUI/lvgl/src/widgets/../core/lv_obj_style_gen.h **** {
ARM GAS  C:\Users\ADMINI~1\AppData\Local\Temp\ccH3Y31L.s 			page 9


  51:Middlewares/LVGL/GUI/lvgl/src/widgets/../core/lv_obj_style_gen.h ****     lv_style_value_t v = lv_obj_get_style_prop(obj, part, LV_STYLE_ALIGN);
  52:Middlewares/LVGL/GUI/lvgl/src/widgets/../core/lv_obj_style_gen.h ****     return (lv_align_t)v.num;
  53:Middlewares/LVGL/GUI/lvgl/src/widgets/../core/lv_obj_style_gen.h **** }
  54:Middlewares/LVGL/GUI/lvgl/src/widgets/../core/lv_obj_style_gen.h **** 
  55:Middlewares/LVGL/GUI/lvgl/src/widgets/../core/lv_obj_style_gen.h **** static inline lv_coord_t lv_obj_get_style_transform_width(const struct _lv_obj_t * obj, uint32_t pa
  56:Middlewares/LVGL/GUI/lvgl/src/widgets/../core/lv_obj_style_gen.h **** {
  57:Middlewares/LVGL/GUI/lvgl/src/widgets/../core/lv_obj_style_gen.h ****     lv_style_value_t v = lv_obj_get_style_prop(obj, part, LV_STYLE_TRANSFORM_WIDTH);
  58:Middlewares/LVGL/GUI/lvgl/src/widgets/../core/lv_obj_style_gen.h ****     return (lv_coord_t)v.num;
  59:Middlewares/LVGL/GUI/lvgl/src/widgets/../core/lv_obj_style_gen.h **** }
  60:Middlewares/LVGL/GUI/lvgl/src/widgets/../core/lv_obj_style_gen.h **** 
  61:Middlewares/LVGL/GUI/lvgl/src/widgets/../core/lv_obj_style_gen.h **** static inline lv_coord_t lv_obj_get_style_transform_height(const struct _lv_obj_t * obj, uint32_t p
  62:Middlewares/LVGL/GUI/lvgl/src/widgets/../core/lv_obj_style_gen.h **** {
  63:Middlewares/LVGL/GUI/lvgl/src/widgets/../core/lv_obj_style_gen.h ****     lv_style_value_t v = lv_obj_get_style_prop(obj, part, LV_STYLE_TRANSFORM_HEIGHT);
  64:Middlewares/LVGL/GUI/lvgl/src/widgets/../core/lv_obj_style_gen.h ****     return (lv_coord_t)v.num;
  65:Middlewares/LVGL/GUI/lvgl/src/widgets/../core/lv_obj_style_gen.h **** }
  66:Middlewares/LVGL/GUI/lvgl/src/widgets/../core/lv_obj_style_gen.h **** 
  67:Middlewares/LVGL/GUI/lvgl/src/widgets/../core/lv_obj_style_gen.h **** static inline lv_coord_t lv_obj_get_style_translate_x(const struct _lv_obj_t * obj, uint32_t part)
  68:Middlewares/LVGL/GUI/lvgl/src/widgets/../core/lv_obj_style_gen.h **** {
  69:Middlewares/LVGL/GUI/lvgl/src/widgets/../core/lv_obj_style_gen.h ****     lv_style_value_t v = lv_obj_get_style_prop(obj, part, LV_STYLE_TRANSLATE_X);
  70:Middlewares/LVGL/GUI/lvgl/src/widgets/../core/lv_obj_style_gen.h ****     return (lv_coord_t)v.num;
  71:Middlewares/LVGL/GUI/lvgl/src/widgets/../core/lv_obj_style_gen.h **** }
  72:Middlewares/LVGL/GUI/lvgl/src/widgets/../core/lv_obj_style_gen.h **** 
  73:Middlewares/LVGL/GUI/lvgl/src/widgets/../core/lv_obj_style_gen.h **** static inline lv_coord_t lv_obj_get_style_translate_y(const struct _lv_obj_t * obj, uint32_t part)
  74:Middlewares/LVGL/GUI/lvgl/src/widgets/../core/lv_obj_style_gen.h **** {
  75:Middlewares/LVGL/GUI/lvgl/src/widgets/../core/lv_obj_style_gen.h ****     lv_style_value_t v = lv_obj_get_style_prop(obj, part, LV_STYLE_TRANSLATE_Y);
  76:Middlewares/LVGL/GUI/lvgl/src/widgets/../core/lv_obj_style_gen.h ****     return (lv_coord_t)v.num;
  77:Middlewares/LVGL/GUI/lvgl/src/widgets/../core/lv_obj_style_gen.h **** }
  78:Middlewares/LVGL/GUI/lvgl/src/widgets/../core/lv_obj_style_gen.h **** 
  79:Middlewares/LVGL/GUI/lvgl/src/widgets/../core/lv_obj_style_gen.h **** static inline lv_coord_t lv_obj_get_style_transform_zoom(const struct _lv_obj_t * obj, uint32_t par
  80:Middlewares/LVGL/GUI/lvgl/src/widgets/../core/lv_obj_style_gen.h **** {
  81:Middlewares/LVGL/GUI/lvgl/src/widgets/../core/lv_obj_style_gen.h ****     lv_style_value_t v = lv_obj_get_style_prop(obj, part, LV_STYLE_TRANSFORM_ZOOM);
  82:Middlewares/LVGL/GUI/lvgl/src/widgets/../core/lv_obj_style_gen.h ****     return (lv_coord_t)v.num;
  83:Middlewares/LVGL/GUI/lvgl/src/widgets/../core/lv_obj_style_gen.h **** }
  84:Middlewares/LVGL/GUI/lvgl/src/widgets/../core/lv_obj_style_gen.h **** 
  85:Middlewares/LVGL/GUI/lvgl/src/widgets/../core/lv_obj_style_gen.h **** static inline lv_coord_t lv_obj_get_style_transform_angle(const struct _lv_obj_t * obj, uint32_t pa
  86:Middlewares/LVGL/GUI/lvgl/src/widgets/../core/lv_obj_style_gen.h **** {
  87:Middlewares/LVGL/GUI/lvgl/src/widgets/../core/lv_obj_style_gen.h ****     lv_style_value_t v = lv_obj_get_style_prop(obj, part, LV_STYLE_TRANSFORM_ANGLE);
  88:Middlewares/LVGL/GUI/lvgl/src/widgets/../core/lv_obj_style_gen.h ****     return (lv_coord_t)v.num;
  89:Middlewares/LVGL/GUI/lvgl/src/widgets/../core/lv_obj_style_gen.h **** }
  90:Middlewares/LVGL/GUI/lvgl/src/widgets/../core/lv_obj_style_gen.h **** 
  91:Middlewares/LVGL/GUI/lvgl/src/widgets/../core/lv_obj_style_gen.h **** static inline lv_coord_t lv_obj_get_style_pad_top(const struct _lv_obj_t * obj, uint32_t part)
  92:Middlewares/LVGL/GUI/lvgl/src/widgets/../core/lv_obj_style_gen.h **** {
  93:Middlewares/LVGL/GUI/lvgl/src/widgets/../core/lv_obj_style_gen.h ****     lv_style_value_t v = lv_obj_get_style_prop(obj, part, LV_STYLE_PAD_TOP);
  94:Middlewares/LVGL/GUI/lvgl/src/widgets/../core/lv_obj_style_gen.h ****     return (lv_coord_t)v.num;
  95:Middlewares/LVGL/GUI/lvgl/src/widgets/../core/lv_obj_style_gen.h **** }
  96:Middlewares/LVGL/GUI/lvgl/src/widgets/../core/lv_obj_style_gen.h **** 
  97:Middlewares/LVGL/GUI/lvgl/src/widgets/../core/lv_obj_style_gen.h **** static inline lv_coord_t lv_obj_get_style_pad_bottom(const struct _lv_obj_t * obj, uint32_t part)
  98:Middlewares/LVGL/GUI/lvgl/src/widgets/../core/lv_obj_style_gen.h **** {
  99:Middlewares/LVGL/GUI/lvgl/src/widgets/../core/lv_obj_style_gen.h ****     lv_style_value_t v = lv_obj_get_style_prop(obj, part, LV_STYLE_PAD_BOTTOM);
 100:Middlewares/LVGL/GUI/lvgl/src/widgets/../core/lv_obj_style_gen.h ****     return (lv_coord_t)v.num;
 101:Middlewares/LVGL/GUI/lvgl/src/widgets/../core/lv_obj_style_gen.h **** }
 102:Middlewares/LVGL/GUI/lvgl/src/widgets/../core/lv_obj_style_gen.h **** 
 103:Middlewares/LVGL/GUI/lvgl/src/widgets/../core/lv_obj_style_gen.h **** static inline lv_coord_t lv_obj_get_style_pad_left(const struct _lv_obj_t * obj, uint32_t part)
 104:Middlewares/LVGL/GUI/lvgl/src/widgets/../core/lv_obj_style_gen.h **** {
 105:Middlewares/LVGL/GUI/lvgl/src/widgets/../core/lv_obj_style_gen.h ****     lv_style_value_t v = lv_obj_get_style_prop(obj, part, LV_STYLE_PAD_LEFT);
 106:Middlewares/LVGL/GUI/lvgl/src/widgets/../core/lv_obj_style_gen.h ****     return (lv_coord_t)v.num;
 107:Middlewares/LVGL/GUI/lvgl/src/widgets/../core/lv_obj_style_gen.h **** }
ARM GAS  C:\Users\ADMINI~1\AppData\Local\Temp\ccH3Y31L.s 			page 10


 108:Middlewares/LVGL/GUI/lvgl/src/widgets/../core/lv_obj_style_gen.h **** 
 109:Middlewares/LVGL/GUI/lvgl/src/widgets/../core/lv_obj_style_gen.h **** static inline lv_coord_t lv_obj_get_style_pad_right(const struct _lv_obj_t * obj, uint32_t part)
 110:Middlewares/LVGL/GUI/lvgl/src/widgets/../core/lv_obj_style_gen.h **** {
 111:Middlewares/LVGL/GUI/lvgl/src/widgets/../core/lv_obj_style_gen.h ****     lv_style_value_t v = lv_obj_get_style_prop(obj, part, LV_STYLE_PAD_RIGHT);
 112:Middlewares/LVGL/GUI/lvgl/src/widgets/../core/lv_obj_style_gen.h ****     return (lv_coord_t)v.num;
 113:Middlewares/LVGL/GUI/lvgl/src/widgets/../core/lv_obj_style_gen.h **** }
 114:Middlewares/LVGL/GUI/lvgl/src/widgets/../core/lv_obj_style_gen.h **** 
 115:Middlewares/LVGL/GUI/lvgl/src/widgets/../core/lv_obj_style_gen.h **** static inline lv_coord_t lv_obj_get_style_pad_row(const struct _lv_obj_t * obj, uint32_t part)
 116:Middlewares/LVGL/GUI/lvgl/src/widgets/../core/lv_obj_style_gen.h **** {
 117:Middlewares/LVGL/GUI/lvgl/src/widgets/../core/lv_obj_style_gen.h ****     lv_style_value_t v = lv_obj_get_style_prop(obj, part, LV_STYLE_PAD_ROW);
 118:Middlewares/LVGL/GUI/lvgl/src/widgets/../core/lv_obj_style_gen.h ****     return (lv_coord_t)v.num;
 119:Middlewares/LVGL/GUI/lvgl/src/widgets/../core/lv_obj_style_gen.h **** }
 120:Middlewares/LVGL/GUI/lvgl/src/widgets/../core/lv_obj_style_gen.h **** 
 121:Middlewares/LVGL/GUI/lvgl/src/widgets/../core/lv_obj_style_gen.h **** static inline lv_coord_t lv_obj_get_style_pad_column(const struct _lv_obj_t * obj, uint32_t part)
 122:Middlewares/LVGL/GUI/lvgl/src/widgets/../core/lv_obj_style_gen.h **** {
 123:Middlewares/LVGL/GUI/lvgl/src/widgets/../core/lv_obj_style_gen.h ****     lv_style_value_t v = lv_obj_get_style_prop(obj, part, LV_STYLE_PAD_COLUMN);
 124:Middlewares/LVGL/GUI/lvgl/src/widgets/../core/lv_obj_style_gen.h ****     return (lv_coord_t)v.num;
 125:Middlewares/LVGL/GUI/lvgl/src/widgets/../core/lv_obj_style_gen.h **** }
 126:Middlewares/LVGL/GUI/lvgl/src/widgets/../core/lv_obj_style_gen.h **** 
 127:Middlewares/LVGL/GUI/lvgl/src/widgets/../core/lv_obj_style_gen.h **** static inline lv_color_t lv_obj_get_style_bg_color(const struct _lv_obj_t * obj, uint32_t part)
 128:Middlewares/LVGL/GUI/lvgl/src/widgets/../core/lv_obj_style_gen.h **** {
 129:Middlewares/LVGL/GUI/lvgl/src/widgets/../core/lv_obj_style_gen.h ****     lv_style_value_t v = lv_obj_get_style_prop(obj, part, LV_STYLE_BG_COLOR);
 130:Middlewares/LVGL/GUI/lvgl/src/widgets/../core/lv_obj_style_gen.h ****     return v.color;
 131:Middlewares/LVGL/GUI/lvgl/src/widgets/../core/lv_obj_style_gen.h **** }
 132:Middlewares/LVGL/GUI/lvgl/src/widgets/../core/lv_obj_style_gen.h **** 
 133:Middlewares/LVGL/GUI/lvgl/src/widgets/../core/lv_obj_style_gen.h **** static inline lv_color_t lv_obj_get_style_bg_color_filtered(const struct _lv_obj_t * obj, uint32_t 
 134:Middlewares/LVGL/GUI/lvgl/src/widgets/../core/lv_obj_style_gen.h **** {
 135:Middlewares/LVGL/GUI/lvgl/src/widgets/../core/lv_obj_style_gen.h ****     lv_style_value_t v = lv_obj_get_style_prop(obj, part, LV_STYLE_BG_COLOR_FILTERED);
 136:Middlewares/LVGL/GUI/lvgl/src/widgets/../core/lv_obj_style_gen.h ****     return v.color;
 137:Middlewares/LVGL/GUI/lvgl/src/widgets/../core/lv_obj_style_gen.h **** }
 138:Middlewares/LVGL/GUI/lvgl/src/widgets/../core/lv_obj_style_gen.h **** 
 139:Middlewares/LVGL/GUI/lvgl/src/widgets/../core/lv_obj_style_gen.h **** static inline lv_opa_t lv_obj_get_style_bg_opa(const struct _lv_obj_t * obj, uint32_t part)
 140:Middlewares/LVGL/GUI/lvgl/src/widgets/../core/lv_obj_style_gen.h **** {
 141:Middlewares/LVGL/GUI/lvgl/src/widgets/../core/lv_obj_style_gen.h ****     lv_style_value_t v = lv_obj_get_style_prop(obj, part, LV_STYLE_BG_OPA);
 142:Middlewares/LVGL/GUI/lvgl/src/widgets/../core/lv_obj_style_gen.h ****     return (lv_opa_t)v.num;
 143:Middlewares/LVGL/GUI/lvgl/src/widgets/../core/lv_obj_style_gen.h **** }
 144:Middlewares/LVGL/GUI/lvgl/src/widgets/../core/lv_obj_style_gen.h **** 
 145:Middlewares/LVGL/GUI/lvgl/src/widgets/../core/lv_obj_style_gen.h **** static inline lv_color_t lv_obj_get_style_bg_grad_color(const struct _lv_obj_t * obj, uint32_t part
 146:Middlewares/LVGL/GUI/lvgl/src/widgets/../core/lv_obj_style_gen.h **** {
 147:Middlewares/LVGL/GUI/lvgl/src/widgets/../core/lv_obj_style_gen.h ****     lv_style_value_t v = lv_obj_get_style_prop(obj, part, LV_STYLE_BG_GRAD_COLOR);
 148:Middlewares/LVGL/GUI/lvgl/src/widgets/../core/lv_obj_style_gen.h ****     return v.color;
 149:Middlewares/LVGL/GUI/lvgl/src/widgets/../core/lv_obj_style_gen.h **** }
 150:Middlewares/LVGL/GUI/lvgl/src/widgets/../core/lv_obj_style_gen.h **** 
 151:Middlewares/LVGL/GUI/lvgl/src/widgets/../core/lv_obj_style_gen.h **** static inline lv_color_t lv_obj_get_style_bg_grad_color_filtered(const struct _lv_obj_t * obj, uint
 152:Middlewares/LVGL/GUI/lvgl/src/widgets/../core/lv_obj_style_gen.h **** {
 153:Middlewares/LVGL/GUI/lvgl/src/widgets/../core/lv_obj_style_gen.h ****     lv_style_value_t v = lv_obj_get_style_prop(obj, part, LV_STYLE_BG_GRAD_COLOR_FILTERED);
 154:Middlewares/LVGL/GUI/lvgl/src/widgets/../core/lv_obj_style_gen.h ****     return v.color;
 155:Middlewares/LVGL/GUI/lvgl/src/widgets/../core/lv_obj_style_gen.h **** }
 156:Middlewares/LVGL/GUI/lvgl/src/widgets/../core/lv_obj_style_gen.h **** 
 157:Middlewares/LVGL/GUI/lvgl/src/widgets/../core/lv_obj_style_gen.h **** static inline lv_grad_dir_t lv_obj_get_style_bg_grad_dir(const struct _lv_obj_t * obj, uint32_t par
 158:Middlewares/LVGL/GUI/lvgl/src/widgets/../core/lv_obj_style_gen.h **** {
 159:Middlewares/LVGL/GUI/lvgl/src/widgets/../core/lv_obj_style_gen.h ****     lv_style_value_t v = lv_obj_get_style_prop(obj, part, LV_STYLE_BG_GRAD_DIR);
 160:Middlewares/LVGL/GUI/lvgl/src/widgets/../core/lv_obj_style_gen.h ****     return (lv_grad_dir_t)v.num;
 161:Middlewares/LVGL/GUI/lvgl/src/widgets/../core/lv_obj_style_gen.h **** }
 162:Middlewares/LVGL/GUI/lvgl/src/widgets/../core/lv_obj_style_gen.h **** 
 163:Middlewares/LVGL/GUI/lvgl/src/widgets/../core/lv_obj_style_gen.h **** static inline lv_coord_t lv_obj_get_style_bg_main_stop(const struct _lv_obj_t * obj, uint32_t part)
 164:Middlewares/LVGL/GUI/lvgl/src/widgets/../core/lv_obj_style_gen.h **** {
ARM GAS  C:\Users\ADMINI~1\AppData\Local\Temp\ccH3Y31L.s 			page 11


 165:Middlewares/LVGL/GUI/lvgl/src/widgets/../core/lv_obj_style_gen.h ****     lv_style_value_t v = lv_obj_get_style_prop(obj, part, LV_STYLE_BG_MAIN_STOP);
 166:Middlewares/LVGL/GUI/lvgl/src/widgets/../core/lv_obj_style_gen.h ****     return (lv_coord_t)v.num;
 167:Middlewares/LVGL/GUI/lvgl/src/widgets/../core/lv_obj_style_gen.h **** }
 168:Middlewares/LVGL/GUI/lvgl/src/widgets/../core/lv_obj_style_gen.h **** 
 169:Middlewares/LVGL/GUI/lvgl/src/widgets/../core/lv_obj_style_gen.h **** static inline lv_coord_t lv_obj_get_style_bg_grad_stop(const struct _lv_obj_t * obj, uint32_t part)
 170:Middlewares/LVGL/GUI/lvgl/src/widgets/../core/lv_obj_style_gen.h **** {
 171:Middlewares/LVGL/GUI/lvgl/src/widgets/../core/lv_obj_style_gen.h ****     lv_style_value_t v = lv_obj_get_style_prop(obj, part, LV_STYLE_BG_GRAD_STOP);
 172:Middlewares/LVGL/GUI/lvgl/src/widgets/../core/lv_obj_style_gen.h ****     return (lv_coord_t)v.num;
 173:Middlewares/LVGL/GUI/lvgl/src/widgets/../core/lv_obj_style_gen.h **** }
 174:Middlewares/LVGL/GUI/lvgl/src/widgets/../core/lv_obj_style_gen.h **** 
 175:Middlewares/LVGL/GUI/lvgl/src/widgets/../core/lv_obj_style_gen.h **** static inline const lv_grad_dsc_t * lv_obj_get_style_bg_grad(const struct _lv_obj_t * obj, uint32_t
 176:Middlewares/LVGL/GUI/lvgl/src/widgets/../core/lv_obj_style_gen.h **** {
 177:Middlewares/LVGL/GUI/lvgl/src/widgets/../core/lv_obj_style_gen.h ****     lv_style_value_t v = lv_obj_get_style_prop(obj, part, LV_STYLE_BG_GRAD);
 178:Middlewares/LVGL/GUI/lvgl/src/widgets/../core/lv_obj_style_gen.h ****     return (const lv_grad_dsc_t *)v.ptr;
 179:Middlewares/LVGL/GUI/lvgl/src/widgets/../core/lv_obj_style_gen.h **** }
 180:Middlewares/LVGL/GUI/lvgl/src/widgets/../core/lv_obj_style_gen.h **** 
 181:Middlewares/LVGL/GUI/lvgl/src/widgets/../core/lv_obj_style_gen.h **** static inline lv_dither_mode_t lv_obj_get_style_bg_dither_mode(const struct _lv_obj_t * obj, uint32
 182:Middlewares/LVGL/GUI/lvgl/src/widgets/../core/lv_obj_style_gen.h **** {
 183:Middlewares/LVGL/GUI/lvgl/src/widgets/../core/lv_obj_style_gen.h ****     lv_style_value_t v = lv_obj_get_style_prop(obj, part, LV_STYLE_BG_DITHER_MODE);
 184:Middlewares/LVGL/GUI/lvgl/src/widgets/../core/lv_obj_style_gen.h ****     return (lv_dither_mode_t)v.num;
 185:Middlewares/LVGL/GUI/lvgl/src/widgets/../core/lv_obj_style_gen.h **** }
 186:Middlewares/LVGL/GUI/lvgl/src/widgets/../core/lv_obj_style_gen.h **** 
 187:Middlewares/LVGL/GUI/lvgl/src/widgets/../core/lv_obj_style_gen.h **** static inline const void * lv_obj_get_style_bg_img_src(const struct _lv_obj_t * obj, uint32_t part)
 188:Middlewares/LVGL/GUI/lvgl/src/widgets/../core/lv_obj_style_gen.h **** {
 189:Middlewares/LVGL/GUI/lvgl/src/widgets/../core/lv_obj_style_gen.h ****     lv_style_value_t v = lv_obj_get_style_prop(obj, part, LV_STYLE_BG_IMG_SRC);
 190:Middlewares/LVGL/GUI/lvgl/src/widgets/../core/lv_obj_style_gen.h ****     return (const void *)v.ptr;
 191:Middlewares/LVGL/GUI/lvgl/src/widgets/../core/lv_obj_style_gen.h **** }
 192:Middlewares/LVGL/GUI/lvgl/src/widgets/../core/lv_obj_style_gen.h **** 
 193:Middlewares/LVGL/GUI/lvgl/src/widgets/../core/lv_obj_style_gen.h **** static inline lv_opa_t lv_obj_get_style_bg_img_opa(const struct _lv_obj_t * obj, uint32_t part)
 194:Middlewares/LVGL/GUI/lvgl/src/widgets/../core/lv_obj_style_gen.h **** {
 195:Middlewares/LVGL/GUI/lvgl/src/widgets/../core/lv_obj_style_gen.h ****     lv_style_value_t v = lv_obj_get_style_prop(obj, part, LV_STYLE_BG_IMG_OPA);
 196:Middlewares/LVGL/GUI/lvgl/src/widgets/../core/lv_obj_style_gen.h ****     return (lv_opa_t)v.num;
 197:Middlewares/LVGL/GUI/lvgl/src/widgets/../core/lv_obj_style_gen.h **** }
 198:Middlewares/LVGL/GUI/lvgl/src/widgets/../core/lv_obj_style_gen.h **** 
 199:Middlewares/LVGL/GUI/lvgl/src/widgets/../core/lv_obj_style_gen.h **** static inline lv_color_t lv_obj_get_style_bg_img_recolor(const struct _lv_obj_t * obj, uint32_t par
 200:Middlewares/LVGL/GUI/lvgl/src/widgets/../core/lv_obj_style_gen.h **** {
 201:Middlewares/LVGL/GUI/lvgl/src/widgets/../core/lv_obj_style_gen.h ****     lv_style_value_t v = lv_obj_get_style_prop(obj, part, LV_STYLE_BG_IMG_RECOLOR);
 202:Middlewares/LVGL/GUI/lvgl/src/widgets/../core/lv_obj_style_gen.h ****     return v.color;
 203:Middlewares/LVGL/GUI/lvgl/src/widgets/../core/lv_obj_style_gen.h **** }
 204:Middlewares/LVGL/GUI/lvgl/src/widgets/../core/lv_obj_style_gen.h **** 
 205:Middlewares/LVGL/GUI/lvgl/src/widgets/../core/lv_obj_style_gen.h **** static inline lv_color_t lv_obj_get_style_bg_img_recolor_filtered(const struct _lv_obj_t * obj, uin
 206:Middlewares/LVGL/GUI/lvgl/src/widgets/../core/lv_obj_style_gen.h **** {
 207:Middlewares/LVGL/GUI/lvgl/src/widgets/../core/lv_obj_style_gen.h ****     lv_style_value_t v = lv_obj_get_style_prop(obj, part, LV_STYLE_BG_IMG_RECOLOR_FILTERED);
 208:Middlewares/LVGL/GUI/lvgl/src/widgets/../core/lv_obj_style_gen.h ****     return v.color;
 209:Middlewares/LVGL/GUI/lvgl/src/widgets/../core/lv_obj_style_gen.h **** }
 210:Middlewares/LVGL/GUI/lvgl/src/widgets/../core/lv_obj_style_gen.h **** 
 211:Middlewares/LVGL/GUI/lvgl/src/widgets/../core/lv_obj_style_gen.h **** static inline lv_opa_t lv_obj_get_style_bg_img_recolor_opa(const struct _lv_obj_t * obj, uint32_t p
 212:Middlewares/LVGL/GUI/lvgl/src/widgets/../core/lv_obj_style_gen.h **** {
 213:Middlewares/LVGL/GUI/lvgl/src/widgets/../core/lv_obj_style_gen.h ****     lv_style_value_t v = lv_obj_get_style_prop(obj, part, LV_STYLE_BG_IMG_RECOLOR_OPA);
 214:Middlewares/LVGL/GUI/lvgl/src/widgets/../core/lv_obj_style_gen.h ****     return (lv_opa_t)v.num;
 215:Middlewares/LVGL/GUI/lvgl/src/widgets/../core/lv_obj_style_gen.h **** }
 216:Middlewares/LVGL/GUI/lvgl/src/widgets/../core/lv_obj_style_gen.h **** 
 217:Middlewares/LVGL/GUI/lvgl/src/widgets/../core/lv_obj_style_gen.h **** static inline bool lv_obj_get_style_bg_img_tiled(const struct _lv_obj_t * obj, uint32_t part)
 218:Middlewares/LVGL/GUI/lvgl/src/widgets/../core/lv_obj_style_gen.h **** {
 219:Middlewares/LVGL/GUI/lvgl/src/widgets/../core/lv_obj_style_gen.h ****     lv_style_value_t v = lv_obj_get_style_prop(obj, part, LV_STYLE_BG_IMG_TILED);
 220:Middlewares/LVGL/GUI/lvgl/src/widgets/../core/lv_obj_style_gen.h ****     return (bool)v.num;
 221:Middlewares/LVGL/GUI/lvgl/src/widgets/../core/lv_obj_style_gen.h **** }
ARM GAS  C:\Users\ADMINI~1\AppData\Local\Temp\ccH3Y31L.s 			page 12


 222:Middlewares/LVGL/GUI/lvgl/src/widgets/../core/lv_obj_style_gen.h **** 
 223:Middlewares/LVGL/GUI/lvgl/src/widgets/../core/lv_obj_style_gen.h **** static inline lv_color_t lv_obj_get_style_border_color(const struct _lv_obj_t * obj, uint32_t part)
 224:Middlewares/LVGL/GUI/lvgl/src/widgets/../core/lv_obj_style_gen.h **** {
 225:Middlewares/LVGL/GUI/lvgl/src/widgets/../core/lv_obj_style_gen.h ****     lv_style_value_t v = lv_obj_get_style_prop(obj, part, LV_STYLE_BORDER_COLOR);
 226:Middlewares/LVGL/GUI/lvgl/src/widgets/../core/lv_obj_style_gen.h ****     return v.color;
 227:Middlewares/LVGL/GUI/lvgl/src/widgets/../core/lv_obj_style_gen.h **** }
 228:Middlewares/LVGL/GUI/lvgl/src/widgets/../core/lv_obj_style_gen.h **** 
 229:Middlewares/LVGL/GUI/lvgl/src/widgets/../core/lv_obj_style_gen.h **** static inline lv_color_t lv_obj_get_style_border_color_filtered(const struct _lv_obj_t * obj, uint3
 230:Middlewares/LVGL/GUI/lvgl/src/widgets/../core/lv_obj_style_gen.h **** {
 231:Middlewares/LVGL/GUI/lvgl/src/widgets/../core/lv_obj_style_gen.h ****     lv_style_value_t v = lv_obj_get_style_prop(obj, part, LV_STYLE_BORDER_COLOR_FILTERED);
 232:Middlewares/LVGL/GUI/lvgl/src/widgets/../core/lv_obj_style_gen.h ****     return v.color;
 233:Middlewares/LVGL/GUI/lvgl/src/widgets/../core/lv_obj_style_gen.h **** }
 234:Middlewares/LVGL/GUI/lvgl/src/widgets/../core/lv_obj_style_gen.h **** 
 235:Middlewares/LVGL/GUI/lvgl/src/widgets/../core/lv_obj_style_gen.h **** static inline lv_opa_t lv_obj_get_style_border_opa(const struct _lv_obj_t * obj, uint32_t part)
 236:Middlewares/LVGL/GUI/lvgl/src/widgets/../core/lv_obj_style_gen.h **** {
 237:Middlewares/LVGL/GUI/lvgl/src/widgets/../core/lv_obj_style_gen.h ****     lv_style_value_t v = lv_obj_get_style_prop(obj, part, LV_STYLE_BORDER_OPA);
 238:Middlewares/LVGL/GUI/lvgl/src/widgets/../core/lv_obj_style_gen.h ****     return (lv_opa_t)v.num;
 239:Middlewares/LVGL/GUI/lvgl/src/widgets/../core/lv_obj_style_gen.h **** }
 240:Middlewares/LVGL/GUI/lvgl/src/widgets/../core/lv_obj_style_gen.h **** 
 241:Middlewares/LVGL/GUI/lvgl/src/widgets/../core/lv_obj_style_gen.h **** static inline lv_coord_t lv_obj_get_style_border_width(const struct _lv_obj_t * obj, uint32_t part)
 242:Middlewares/LVGL/GUI/lvgl/src/widgets/../core/lv_obj_style_gen.h **** {
 243:Middlewares/LVGL/GUI/lvgl/src/widgets/../core/lv_obj_style_gen.h ****     lv_style_value_t v = lv_obj_get_style_prop(obj, part, LV_STYLE_BORDER_WIDTH);
 244:Middlewares/LVGL/GUI/lvgl/src/widgets/../core/lv_obj_style_gen.h ****     return (lv_coord_t)v.num;
 245:Middlewares/LVGL/GUI/lvgl/src/widgets/../core/lv_obj_style_gen.h **** }
 246:Middlewares/LVGL/GUI/lvgl/src/widgets/../core/lv_obj_style_gen.h **** 
 247:Middlewares/LVGL/GUI/lvgl/src/widgets/../core/lv_obj_style_gen.h **** static inline lv_border_side_t lv_obj_get_style_border_side(const struct _lv_obj_t * obj, uint32_t 
 248:Middlewares/LVGL/GUI/lvgl/src/widgets/../core/lv_obj_style_gen.h **** {
 249:Middlewares/LVGL/GUI/lvgl/src/widgets/../core/lv_obj_style_gen.h ****     lv_style_value_t v = lv_obj_get_style_prop(obj, part, LV_STYLE_BORDER_SIDE);
 250:Middlewares/LVGL/GUI/lvgl/src/widgets/../core/lv_obj_style_gen.h ****     return (lv_border_side_t)v.num;
 251:Middlewares/LVGL/GUI/lvgl/src/widgets/../core/lv_obj_style_gen.h **** }
 252:Middlewares/LVGL/GUI/lvgl/src/widgets/../core/lv_obj_style_gen.h **** 
 253:Middlewares/LVGL/GUI/lvgl/src/widgets/../core/lv_obj_style_gen.h **** static inline bool lv_obj_get_style_border_post(const struct _lv_obj_t * obj, uint32_t part)
 254:Middlewares/LVGL/GUI/lvgl/src/widgets/../core/lv_obj_style_gen.h **** {
 255:Middlewares/LVGL/GUI/lvgl/src/widgets/../core/lv_obj_style_gen.h ****     lv_style_value_t v = lv_obj_get_style_prop(obj, part, LV_STYLE_BORDER_POST);
 256:Middlewares/LVGL/GUI/lvgl/src/widgets/../core/lv_obj_style_gen.h ****     return (bool)v.num;
 257:Middlewares/LVGL/GUI/lvgl/src/widgets/../core/lv_obj_style_gen.h **** }
 258:Middlewares/LVGL/GUI/lvgl/src/widgets/../core/lv_obj_style_gen.h **** 
 259:Middlewares/LVGL/GUI/lvgl/src/widgets/../core/lv_obj_style_gen.h **** static inline lv_coord_t lv_obj_get_style_outline_width(const struct _lv_obj_t * obj, uint32_t part
 260:Middlewares/LVGL/GUI/lvgl/src/widgets/../core/lv_obj_style_gen.h **** {
 261:Middlewares/LVGL/GUI/lvgl/src/widgets/../core/lv_obj_style_gen.h ****     lv_style_value_t v = lv_obj_get_style_prop(obj, part, LV_STYLE_OUTLINE_WIDTH);
 262:Middlewares/LVGL/GUI/lvgl/src/widgets/../core/lv_obj_style_gen.h ****     return (lv_coord_t)v.num;
 263:Middlewares/LVGL/GUI/lvgl/src/widgets/../core/lv_obj_style_gen.h **** }
 264:Middlewares/LVGL/GUI/lvgl/src/widgets/../core/lv_obj_style_gen.h **** 
 265:Middlewares/LVGL/GUI/lvgl/src/widgets/../core/lv_obj_style_gen.h **** static inline lv_color_t lv_obj_get_style_outline_color(const struct _lv_obj_t * obj, uint32_t part
 266:Middlewares/LVGL/GUI/lvgl/src/widgets/../core/lv_obj_style_gen.h **** {
 267:Middlewares/LVGL/GUI/lvgl/src/widgets/../core/lv_obj_style_gen.h ****     lv_style_value_t v = lv_obj_get_style_prop(obj, part, LV_STYLE_OUTLINE_COLOR);
 268:Middlewares/LVGL/GUI/lvgl/src/widgets/../core/lv_obj_style_gen.h ****     return v.color;
 269:Middlewares/LVGL/GUI/lvgl/src/widgets/../core/lv_obj_style_gen.h **** }
 270:Middlewares/LVGL/GUI/lvgl/src/widgets/../core/lv_obj_style_gen.h **** 
 271:Middlewares/LVGL/GUI/lvgl/src/widgets/../core/lv_obj_style_gen.h **** static inline lv_color_t lv_obj_get_style_outline_color_filtered(const struct _lv_obj_t * obj, uint
 272:Middlewares/LVGL/GUI/lvgl/src/widgets/../core/lv_obj_style_gen.h **** {
 273:Middlewares/LVGL/GUI/lvgl/src/widgets/../core/lv_obj_style_gen.h ****     lv_style_value_t v = lv_obj_get_style_prop(obj, part, LV_STYLE_OUTLINE_COLOR_FILTERED);
 274:Middlewares/LVGL/GUI/lvgl/src/widgets/../core/lv_obj_style_gen.h ****     return v.color;
 275:Middlewares/LVGL/GUI/lvgl/src/widgets/../core/lv_obj_style_gen.h **** }
 276:Middlewares/LVGL/GUI/lvgl/src/widgets/../core/lv_obj_style_gen.h **** 
 277:Middlewares/LVGL/GUI/lvgl/src/widgets/../core/lv_obj_style_gen.h **** static inline lv_opa_t lv_obj_get_style_outline_opa(const struct _lv_obj_t * obj, uint32_t part)
 278:Middlewares/LVGL/GUI/lvgl/src/widgets/../core/lv_obj_style_gen.h **** {
ARM GAS  C:\Users\ADMINI~1\AppData\Local\Temp\ccH3Y31L.s 			page 13


 279:Middlewares/LVGL/GUI/lvgl/src/widgets/../core/lv_obj_style_gen.h ****     lv_style_value_t v = lv_obj_get_style_prop(obj, part, LV_STYLE_OUTLINE_OPA);
 280:Middlewares/LVGL/GUI/lvgl/src/widgets/../core/lv_obj_style_gen.h ****     return (lv_opa_t)v.num;
 281:Middlewares/LVGL/GUI/lvgl/src/widgets/../core/lv_obj_style_gen.h **** }
 282:Middlewares/LVGL/GUI/lvgl/src/widgets/../core/lv_obj_style_gen.h **** 
 283:Middlewares/LVGL/GUI/lvgl/src/widgets/../core/lv_obj_style_gen.h **** static inline lv_coord_t lv_obj_get_style_outline_pad(const struct _lv_obj_t * obj, uint32_t part)
 284:Middlewares/LVGL/GUI/lvgl/src/widgets/../core/lv_obj_style_gen.h **** {
 285:Middlewares/LVGL/GUI/lvgl/src/widgets/../core/lv_obj_style_gen.h ****     lv_style_value_t v = lv_obj_get_style_prop(obj, part, LV_STYLE_OUTLINE_PAD);
 286:Middlewares/LVGL/GUI/lvgl/src/widgets/../core/lv_obj_style_gen.h ****     return (lv_coord_t)v.num;
 287:Middlewares/LVGL/GUI/lvgl/src/widgets/../core/lv_obj_style_gen.h **** }
 288:Middlewares/LVGL/GUI/lvgl/src/widgets/../core/lv_obj_style_gen.h **** 
 289:Middlewares/LVGL/GUI/lvgl/src/widgets/../core/lv_obj_style_gen.h **** static inline lv_coord_t lv_obj_get_style_shadow_width(const struct _lv_obj_t * obj, uint32_t part)
 290:Middlewares/LVGL/GUI/lvgl/src/widgets/../core/lv_obj_style_gen.h **** {
 291:Middlewares/LVGL/GUI/lvgl/src/widgets/../core/lv_obj_style_gen.h ****     lv_style_value_t v = lv_obj_get_style_prop(obj, part, LV_STYLE_SHADOW_WIDTH);
 292:Middlewares/LVGL/GUI/lvgl/src/widgets/../core/lv_obj_style_gen.h ****     return (lv_coord_t)v.num;
 293:Middlewares/LVGL/GUI/lvgl/src/widgets/../core/lv_obj_style_gen.h **** }
 294:Middlewares/LVGL/GUI/lvgl/src/widgets/../core/lv_obj_style_gen.h **** 
 295:Middlewares/LVGL/GUI/lvgl/src/widgets/../core/lv_obj_style_gen.h **** static inline lv_coord_t lv_obj_get_style_shadow_ofs_x(const struct _lv_obj_t * obj, uint32_t part)
 296:Middlewares/LVGL/GUI/lvgl/src/widgets/../core/lv_obj_style_gen.h **** {
 297:Middlewares/LVGL/GUI/lvgl/src/widgets/../core/lv_obj_style_gen.h ****     lv_style_value_t v = lv_obj_get_style_prop(obj, part, LV_STYLE_SHADOW_OFS_X);
 298:Middlewares/LVGL/GUI/lvgl/src/widgets/../core/lv_obj_style_gen.h ****     return (lv_coord_t)v.num;
 299:Middlewares/LVGL/GUI/lvgl/src/widgets/../core/lv_obj_style_gen.h **** }
 300:Middlewares/LVGL/GUI/lvgl/src/widgets/../core/lv_obj_style_gen.h **** 
 301:Middlewares/LVGL/GUI/lvgl/src/widgets/../core/lv_obj_style_gen.h **** static inline lv_coord_t lv_obj_get_style_shadow_ofs_y(const struct _lv_obj_t * obj, uint32_t part)
 302:Middlewares/LVGL/GUI/lvgl/src/widgets/../core/lv_obj_style_gen.h **** {
 303:Middlewares/LVGL/GUI/lvgl/src/widgets/../core/lv_obj_style_gen.h ****     lv_style_value_t v = lv_obj_get_style_prop(obj, part, LV_STYLE_SHADOW_OFS_Y);
 304:Middlewares/LVGL/GUI/lvgl/src/widgets/../core/lv_obj_style_gen.h ****     return (lv_coord_t)v.num;
 305:Middlewares/LVGL/GUI/lvgl/src/widgets/../core/lv_obj_style_gen.h **** }
 306:Middlewares/LVGL/GUI/lvgl/src/widgets/../core/lv_obj_style_gen.h **** 
 307:Middlewares/LVGL/GUI/lvgl/src/widgets/../core/lv_obj_style_gen.h **** static inline lv_coord_t lv_obj_get_style_shadow_spread(const struct _lv_obj_t * obj, uint32_t part
 308:Middlewares/LVGL/GUI/lvgl/src/widgets/../core/lv_obj_style_gen.h **** {
 309:Middlewares/LVGL/GUI/lvgl/src/widgets/../core/lv_obj_style_gen.h ****     lv_style_value_t v = lv_obj_get_style_prop(obj, part, LV_STYLE_SHADOW_SPREAD);
 310:Middlewares/LVGL/GUI/lvgl/src/widgets/../core/lv_obj_style_gen.h ****     return (lv_coord_t)v.num;
 311:Middlewares/LVGL/GUI/lvgl/src/widgets/../core/lv_obj_style_gen.h **** }
 312:Middlewares/LVGL/GUI/lvgl/src/widgets/../core/lv_obj_style_gen.h **** 
 313:Middlewares/LVGL/GUI/lvgl/src/widgets/../core/lv_obj_style_gen.h **** static inline lv_color_t lv_obj_get_style_shadow_color(const struct _lv_obj_t * obj, uint32_t part)
 314:Middlewares/LVGL/GUI/lvgl/src/widgets/../core/lv_obj_style_gen.h **** {
 315:Middlewares/LVGL/GUI/lvgl/src/widgets/../core/lv_obj_style_gen.h ****     lv_style_value_t v = lv_obj_get_style_prop(obj, part, LV_STYLE_SHADOW_COLOR);
 316:Middlewares/LVGL/GUI/lvgl/src/widgets/../core/lv_obj_style_gen.h ****     return v.color;
 317:Middlewares/LVGL/GUI/lvgl/src/widgets/../core/lv_obj_style_gen.h **** }
 318:Middlewares/LVGL/GUI/lvgl/src/widgets/../core/lv_obj_style_gen.h **** 
 319:Middlewares/LVGL/GUI/lvgl/src/widgets/../core/lv_obj_style_gen.h **** static inline lv_color_t lv_obj_get_style_shadow_color_filtered(const struct _lv_obj_t * obj, uint3
 320:Middlewares/LVGL/GUI/lvgl/src/widgets/../core/lv_obj_style_gen.h **** {
 321:Middlewares/LVGL/GUI/lvgl/src/widgets/../core/lv_obj_style_gen.h ****     lv_style_value_t v = lv_obj_get_style_prop(obj, part, LV_STYLE_SHADOW_COLOR_FILTERED);
 322:Middlewares/LVGL/GUI/lvgl/src/widgets/../core/lv_obj_style_gen.h ****     return v.color;
 323:Middlewares/LVGL/GUI/lvgl/src/widgets/../core/lv_obj_style_gen.h **** }
 324:Middlewares/LVGL/GUI/lvgl/src/widgets/../core/lv_obj_style_gen.h **** 
 325:Middlewares/LVGL/GUI/lvgl/src/widgets/../core/lv_obj_style_gen.h **** static inline lv_opa_t lv_obj_get_style_shadow_opa(const struct _lv_obj_t * obj, uint32_t part)
 326:Middlewares/LVGL/GUI/lvgl/src/widgets/../core/lv_obj_style_gen.h **** {
 327:Middlewares/LVGL/GUI/lvgl/src/widgets/../core/lv_obj_style_gen.h ****     lv_style_value_t v = lv_obj_get_style_prop(obj, part, LV_STYLE_SHADOW_OPA);
 328:Middlewares/LVGL/GUI/lvgl/src/widgets/../core/lv_obj_style_gen.h ****     return (lv_opa_t)v.num;
 329:Middlewares/LVGL/GUI/lvgl/src/widgets/../core/lv_obj_style_gen.h **** }
 330:Middlewares/LVGL/GUI/lvgl/src/widgets/../core/lv_obj_style_gen.h **** 
 331:Middlewares/LVGL/GUI/lvgl/src/widgets/../core/lv_obj_style_gen.h **** static inline lv_opa_t lv_obj_get_style_img_opa(const struct _lv_obj_t * obj, uint32_t part)
 332:Middlewares/LVGL/GUI/lvgl/src/widgets/../core/lv_obj_style_gen.h **** {
 333:Middlewares/LVGL/GUI/lvgl/src/widgets/../core/lv_obj_style_gen.h ****     lv_style_value_t v = lv_obj_get_style_prop(obj, part, LV_STYLE_IMG_OPA);
 334:Middlewares/LVGL/GUI/lvgl/src/widgets/../core/lv_obj_style_gen.h ****     return (lv_opa_t)v.num;
 335:Middlewares/LVGL/GUI/lvgl/src/widgets/../core/lv_obj_style_gen.h **** }
ARM GAS  C:\Users\ADMINI~1\AppData\Local\Temp\ccH3Y31L.s 			page 14


 336:Middlewares/LVGL/GUI/lvgl/src/widgets/../core/lv_obj_style_gen.h **** 
 337:Middlewares/LVGL/GUI/lvgl/src/widgets/../core/lv_obj_style_gen.h **** static inline lv_color_t lv_obj_get_style_img_recolor(const struct _lv_obj_t * obj, uint32_t part)
 338:Middlewares/LVGL/GUI/lvgl/src/widgets/../core/lv_obj_style_gen.h **** {
 339:Middlewares/LVGL/GUI/lvgl/src/widgets/../core/lv_obj_style_gen.h ****     lv_style_value_t v = lv_obj_get_style_prop(obj, part, LV_STYLE_IMG_RECOLOR);
 340:Middlewares/LVGL/GUI/lvgl/src/widgets/../core/lv_obj_style_gen.h ****     return v.color;
 341:Middlewares/LVGL/GUI/lvgl/src/widgets/../core/lv_obj_style_gen.h **** }
 342:Middlewares/LVGL/GUI/lvgl/src/widgets/../core/lv_obj_style_gen.h **** 
 343:Middlewares/LVGL/GUI/lvgl/src/widgets/../core/lv_obj_style_gen.h **** static inline lv_color_t lv_obj_get_style_img_recolor_filtered(const struct _lv_obj_t * obj, uint32
 344:Middlewares/LVGL/GUI/lvgl/src/widgets/../core/lv_obj_style_gen.h **** {
 345:Middlewares/LVGL/GUI/lvgl/src/widgets/../core/lv_obj_style_gen.h ****     lv_style_value_t v = lv_obj_get_style_prop(obj, part, LV_STYLE_IMG_RECOLOR_FILTERED);
 346:Middlewares/LVGL/GUI/lvgl/src/widgets/../core/lv_obj_style_gen.h ****     return v.color;
 347:Middlewares/LVGL/GUI/lvgl/src/widgets/../core/lv_obj_style_gen.h **** }
 348:Middlewares/LVGL/GUI/lvgl/src/widgets/../core/lv_obj_style_gen.h **** 
 349:Middlewares/LVGL/GUI/lvgl/src/widgets/../core/lv_obj_style_gen.h **** static inline lv_opa_t lv_obj_get_style_img_recolor_opa(const struct _lv_obj_t * obj, uint32_t part
 350:Middlewares/LVGL/GUI/lvgl/src/widgets/../core/lv_obj_style_gen.h **** {
 351:Middlewares/LVGL/GUI/lvgl/src/widgets/../core/lv_obj_style_gen.h ****     lv_style_value_t v = lv_obj_get_style_prop(obj, part, LV_STYLE_IMG_RECOLOR_OPA);
 352:Middlewares/LVGL/GUI/lvgl/src/widgets/../core/lv_obj_style_gen.h ****     return (lv_opa_t)v.num;
 353:Middlewares/LVGL/GUI/lvgl/src/widgets/../core/lv_obj_style_gen.h **** }
 354:Middlewares/LVGL/GUI/lvgl/src/widgets/../core/lv_obj_style_gen.h **** 
 355:Middlewares/LVGL/GUI/lvgl/src/widgets/../core/lv_obj_style_gen.h **** static inline lv_coord_t lv_obj_get_style_line_width(const struct _lv_obj_t * obj, uint32_t part)
 356:Middlewares/LVGL/GUI/lvgl/src/widgets/../core/lv_obj_style_gen.h **** {
 357:Middlewares/LVGL/GUI/lvgl/src/widgets/../core/lv_obj_style_gen.h ****     lv_style_value_t v = lv_obj_get_style_prop(obj, part, LV_STYLE_LINE_WIDTH);
 358:Middlewares/LVGL/GUI/lvgl/src/widgets/../core/lv_obj_style_gen.h ****     return (lv_coord_t)v.num;
 359:Middlewares/LVGL/GUI/lvgl/src/widgets/../core/lv_obj_style_gen.h **** }
 360:Middlewares/LVGL/GUI/lvgl/src/widgets/../core/lv_obj_style_gen.h **** 
 361:Middlewares/LVGL/GUI/lvgl/src/widgets/../core/lv_obj_style_gen.h **** static inline lv_coord_t lv_obj_get_style_line_dash_width(const struct _lv_obj_t * obj, uint32_t pa
 362:Middlewares/LVGL/GUI/lvgl/src/widgets/../core/lv_obj_style_gen.h **** {
 363:Middlewares/LVGL/GUI/lvgl/src/widgets/../core/lv_obj_style_gen.h ****     lv_style_value_t v = lv_obj_get_style_prop(obj, part, LV_STYLE_LINE_DASH_WIDTH);
 364:Middlewares/LVGL/GUI/lvgl/src/widgets/../core/lv_obj_style_gen.h ****     return (lv_coord_t)v.num;
 365:Middlewares/LVGL/GUI/lvgl/src/widgets/../core/lv_obj_style_gen.h **** }
 366:Middlewares/LVGL/GUI/lvgl/src/widgets/../core/lv_obj_style_gen.h **** 
 367:Middlewares/LVGL/GUI/lvgl/src/widgets/../core/lv_obj_style_gen.h **** static inline lv_coord_t lv_obj_get_style_line_dash_gap(const struct _lv_obj_t * obj, uint32_t part
 368:Middlewares/LVGL/GUI/lvgl/src/widgets/../core/lv_obj_style_gen.h **** {
 369:Middlewares/LVGL/GUI/lvgl/src/widgets/../core/lv_obj_style_gen.h ****     lv_style_value_t v = lv_obj_get_style_prop(obj, part, LV_STYLE_LINE_DASH_GAP);
 370:Middlewares/LVGL/GUI/lvgl/src/widgets/../core/lv_obj_style_gen.h ****     return (lv_coord_t)v.num;
 371:Middlewares/LVGL/GUI/lvgl/src/widgets/../core/lv_obj_style_gen.h **** }
 372:Middlewares/LVGL/GUI/lvgl/src/widgets/../core/lv_obj_style_gen.h **** 
 373:Middlewares/LVGL/GUI/lvgl/src/widgets/../core/lv_obj_style_gen.h **** static inline bool lv_obj_get_style_line_rounded(const struct _lv_obj_t * obj, uint32_t part)
 374:Middlewares/LVGL/GUI/lvgl/src/widgets/../core/lv_obj_style_gen.h **** {
 375:Middlewares/LVGL/GUI/lvgl/src/widgets/../core/lv_obj_style_gen.h ****     lv_style_value_t v = lv_obj_get_style_prop(obj, part, LV_STYLE_LINE_ROUNDED);
 376:Middlewares/LVGL/GUI/lvgl/src/widgets/../core/lv_obj_style_gen.h ****     return (bool)v.num;
 377:Middlewares/LVGL/GUI/lvgl/src/widgets/../core/lv_obj_style_gen.h **** }
 378:Middlewares/LVGL/GUI/lvgl/src/widgets/../core/lv_obj_style_gen.h **** 
 379:Middlewares/LVGL/GUI/lvgl/src/widgets/../core/lv_obj_style_gen.h **** static inline lv_color_t lv_obj_get_style_line_color(const struct _lv_obj_t * obj, uint32_t part)
 380:Middlewares/LVGL/GUI/lvgl/src/widgets/../core/lv_obj_style_gen.h **** {
 381:Middlewares/LVGL/GUI/lvgl/src/widgets/../core/lv_obj_style_gen.h ****     lv_style_value_t v = lv_obj_get_style_prop(obj, part, LV_STYLE_LINE_COLOR);
 382:Middlewares/LVGL/GUI/lvgl/src/widgets/../core/lv_obj_style_gen.h ****     return v.color;
 383:Middlewares/LVGL/GUI/lvgl/src/widgets/../core/lv_obj_style_gen.h **** }
 384:Middlewares/LVGL/GUI/lvgl/src/widgets/../core/lv_obj_style_gen.h **** 
 385:Middlewares/LVGL/GUI/lvgl/src/widgets/../core/lv_obj_style_gen.h **** static inline lv_color_t lv_obj_get_style_line_color_filtered(const struct _lv_obj_t * obj, uint32_
 386:Middlewares/LVGL/GUI/lvgl/src/widgets/../core/lv_obj_style_gen.h **** {
 387:Middlewares/LVGL/GUI/lvgl/src/widgets/../core/lv_obj_style_gen.h ****     lv_style_value_t v = lv_obj_get_style_prop(obj, part, LV_STYLE_LINE_COLOR_FILTERED);
 388:Middlewares/LVGL/GUI/lvgl/src/widgets/../core/lv_obj_style_gen.h ****     return v.color;
 389:Middlewares/LVGL/GUI/lvgl/src/widgets/../core/lv_obj_style_gen.h **** }
 390:Middlewares/LVGL/GUI/lvgl/src/widgets/../core/lv_obj_style_gen.h **** 
 391:Middlewares/LVGL/GUI/lvgl/src/widgets/../core/lv_obj_style_gen.h **** static inline lv_opa_t lv_obj_get_style_line_opa(const struct _lv_obj_t * obj, uint32_t part)
 392:Middlewares/LVGL/GUI/lvgl/src/widgets/../core/lv_obj_style_gen.h **** {
ARM GAS  C:\Users\ADMINI~1\AppData\Local\Temp\ccH3Y31L.s 			page 15


 393:Middlewares/LVGL/GUI/lvgl/src/widgets/../core/lv_obj_style_gen.h ****     lv_style_value_t v = lv_obj_get_style_prop(obj, part, LV_STYLE_LINE_OPA);
 394:Middlewares/LVGL/GUI/lvgl/src/widgets/../core/lv_obj_style_gen.h ****     return (lv_opa_t)v.num;
 395:Middlewares/LVGL/GUI/lvgl/src/widgets/../core/lv_obj_style_gen.h **** }
 396:Middlewares/LVGL/GUI/lvgl/src/widgets/../core/lv_obj_style_gen.h **** 
 397:Middlewares/LVGL/GUI/lvgl/src/widgets/../core/lv_obj_style_gen.h **** static inline lv_coord_t lv_obj_get_style_arc_width(const struct _lv_obj_t * obj, uint32_t part)
 398:Middlewares/LVGL/GUI/lvgl/src/widgets/../core/lv_obj_style_gen.h **** {
 399:Middlewares/LVGL/GUI/lvgl/src/widgets/../core/lv_obj_style_gen.h ****     lv_style_value_t v = lv_obj_get_style_prop(obj, part, LV_STYLE_ARC_WIDTH);
 400:Middlewares/LVGL/GUI/lvgl/src/widgets/../core/lv_obj_style_gen.h ****     return (lv_coord_t)v.num;
 401:Middlewares/LVGL/GUI/lvgl/src/widgets/../core/lv_obj_style_gen.h **** }
 402:Middlewares/LVGL/GUI/lvgl/src/widgets/../core/lv_obj_style_gen.h **** 
 403:Middlewares/LVGL/GUI/lvgl/src/widgets/../core/lv_obj_style_gen.h **** static inline bool lv_obj_get_style_arc_rounded(const struct _lv_obj_t * obj, uint32_t part)
 404:Middlewares/LVGL/GUI/lvgl/src/widgets/../core/lv_obj_style_gen.h **** {
 405:Middlewares/LVGL/GUI/lvgl/src/widgets/../core/lv_obj_style_gen.h ****     lv_style_value_t v = lv_obj_get_style_prop(obj, part, LV_STYLE_ARC_ROUNDED);
 406:Middlewares/LVGL/GUI/lvgl/src/widgets/../core/lv_obj_style_gen.h ****     return (bool)v.num;
 407:Middlewares/LVGL/GUI/lvgl/src/widgets/../core/lv_obj_style_gen.h **** }
 408:Middlewares/LVGL/GUI/lvgl/src/widgets/../core/lv_obj_style_gen.h **** 
 409:Middlewares/LVGL/GUI/lvgl/src/widgets/../core/lv_obj_style_gen.h **** static inline lv_color_t lv_obj_get_style_arc_color(const struct _lv_obj_t * obj, uint32_t part)
 410:Middlewares/LVGL/GUI/lvgl/src/widgets/../core/lv_obj_style_gen.h **** {
 411:Middlewares/LVGL/GUI/lvgl/src/widgets/../core/lv_obj_style_gen.h ****     lv_style_value_t v = lv_obj_get_style_prop(obj, part, LV_STYLE_ARC_COLOR);
 412:Middlewares/LVGL/GUI/lvgl/src/widgets/../core/lv_obj_style_gen.h ****     return v.color;
 413:Middlewares/LVGL/GUI/lvgl/src/widgets/../core/lv_obj_style_gen.h **** }
 414:Middlewares/LVGL/GUI/lvgl/src/widgets/../core/lv_obj_style_gen.h **** 
 415:Middlewares/LVGL/GUI/lvgl/src/widgets/../core/lv_obj_style_gen.h **** static inline lv_color_t lv_obj_get_style_arc_color_filtered(const struct _lv_obj_t * obj, uint32_t
 416:Middlewares/LVGL/GUI/lvgl/src/widgets/../core/lv_obj_style_gen.h **** {
 417:Middlewares/LVGL/GUI/lvgl/src/widgets/../core/lv_obj_style_gen.h ****     lv_style_value_t v = lv_obj_get_style_prop(obj, part, LV_STYLE_ARC_COLOR_FILTERED);
 418:Middlewares/LVGL/GUI/lvgl/src/widgets/../core/lv_obj_style_gen.h ****     return v.color;
 419:Middlewares/LVGL/GUI/lvgl/src/widgets/../core/lv_obj_style_gen.h **** }
 420:Middlewares/LVGL/GUI/lvgl/src/widgets/../core/lv_obj_style_gen.h **** 
 421:Middlewares/LVGL/GUI/lvgl/src/widgets/../core/lv_obj_style_gen.h **** static inline lv_opa_t lv_obj_get_style_arc_opa(const struct _lv_obj_t * obj, uint32_t part)
 422:Middlewares/LVGL/GUI/lvgl/src/widgets/../core/lv_obj_style_gen.h **** {
 423:Middlewares/LVGL/GUI/lvgl/src/widgets/../core/lv_obj_style_gen.h ****     lv_style_value_t v = lv_obj_get_style_prop(obj, part, LV_STYLE_ARC_OPA);
 424:Middlewares/LVGL/GUI/lvgl/src/widgets/../core/lv_obj_style_gen.h ****     return (lv_opa_t)v.num;
 425:Middlewares/LVGL/GUI/lvgl/src/widgets/../core/lv_obj_style_gen.h **** }
 426:Middlewares/LVGL/GUI/lvgl/src/widgets/../core/lv_obj_style_gen.h **** 
 427:Middlewares/LVGL/GUI/lvgl/src/widgets/../core/lv_obj_style_gen.h **** static inline const void * lv_obj_get_style_arc_img_src(const struct _lv_obj_t * obj, uint32_t part
 428:Middlewares/LVGL/GUI/lvgl/src/widgets/../core/lv_obj_style_gen.h **** {
 429:Middlewares/LVGL/GUI/lvgl/src/widgets/../core/lv_obj_style_gen.h ****     lv_style_value_t v = lv_obj_get_style_prop(obj, part, LV_STYLE_ARC_IMG_SRC);
 430:Middlewares/LVGL/GUI/lvgl/src/widgets/../core/lv_obj_style_gen.h ****     return (const void *)v.ptr;
 431:Middlewares/LVGL/GUI/lvgl/src/widgets/../core/lv_obj_style_gen.h **** }
 432:Middlewares/LVGL/GUI/lvgl/src/widgets/../core/lv_obj_style_gen.h **** 
 433:Middlewares/LVGL/GUI/lvgl/src/widgets/../core/lv_obj_style_gen.h **** static inline lv_color_t lv_obj_get_style_text_color(const struct _lv_obj_t * obj, uint32_t part)
 434:Middlewares/LVGL/GUI/lvgl/src/widgets/../core/lv_obj_style_gen.h **** {
 435:Middlewares/LVGL/GUI/lvgl/src/widgets/../core/lv_obj_style_gen.h ****     lv_style_value_t v = lv_obj_get_style_prop(obj, part, LV_STYLE_TEXT_COLOR);
 436:Middlewares/LVGL/GUI/lvgl/src/widgets/../core/lv_obj_style_gen.h ****     return v.color;
 437:Middlewares/LVGL/GUI/lvgl/src/widgets/../core/lv_obj_style_gen.h **** }
 438:Middlewares/LVGL/GUI/lvgl/src/widgets/../core/lv_obj_style_gen.h **** 
 439:Middlewares/LVGL/GUI/lvgl/src/widgets/../core/lv_obj_style_gen.h **** static inline lv_color_t lv_obj_get_style_text_color_filtered(const struct _lv_obj_t * obj, uint32_
 440:Middlewares/LVGL/GUI/lvgl/src/widgets/../core/lv_obj_style_gen.h **** {
 441:Middlewares/LVGL/GUI/lvgl/src/widgets/../core/lv_obj_style_gen.h ****     lv_style_value_t v = lv_obj_get_style_prop(obj, part, LV_STYLE_TEXT_COLOR_FILTERED);
 442:Middlewares/LVGL/GUI/lvgl/src/widgets/../core/lv_obj_style_gen.h ****     return v.color;
 443:Middlewares/LVGL/GUI/lvgl/src/widgets/../core/lv_obj_style_gen.h **** }
 444:Middlewares/LVGL/GUI/lvgl/src/widgets/../core/lv_obj_style_gen.h **** 
 445:Middlewares/LVGL/GUI/lvgl/src/widgets/../core/lv_obj_style_gen.h **** static inline lv_opa_t lv_obj_get_style_text_opa(const struct _lv_obj_t * obj, uint32_t part)
 446:Middlewares/LVGL/GUI/lvgl/src/widgets/../core/lv_obj_style_gen.h **** {
 447:Middlewares/LVGL/GUI/lvgl/src/widgets/../core/lv_obj_style_gen.h ****     lv_style_value_t v = lv_obj_get_style_prop(obj, part, LV_STYLE_TEXT_OPA);
 448:Middlewares/LVGL/GUI/lvgl/src/widgets/../core/lv_obj_style_gen.h ****     return (lv_opa_t)v.num;
 449:Middlewares/LVGL/GUI/lvgl/src/widgets/../core/lv_obj_style_gen.h **** }
ARM GAS  C:\Users\ADMINI~1\AppData\Local\Temp\ccH3Y31L.s 			page 16


 450:Middlewares/LVGL/GUI/lvgl/src/widgets/../core/lv_obj_style_gen.h **** 
 451:Middlewares/LVGL/GUI/lvgl/src/widgets/../core/lv_obj_style_gen.h **** static inline const lv_font_t * lv_obj_get_style_text_font(const struct _lv_obj_t * obj, uint32_t p
 452:Middlewares/LVGL/GUI/lvgl/src/widgets/../core/lv_obj_style_gen.h **** {
 453:Middlewares/LVGL/GUI/lvgl/src/widgets/../core/lv_obj_style_gen.h ****     lv_style_value_t v = lv_obj_get_style_prop(obj, part, LV_STYLE_TEXT_FONT);
 454:Middlewares/LVGL/GUI/lvgl/src/widgets/../core/lv_obj_style_gen.h ****     return (const lv_font_t *)v.ptr;
 455:Middlewares/LVGL/GUI/lvgl/src/widgets/../core/lv_obj_style_gen.h **** }
 456:Middlewares/LVGL/GUI/lvgl/src/widgets/../core/lv_obj_style_gen.h **** 
 457:Middlewares/LVGL/GUI/lvgl/src/widgets/../core/lv_obj_style_gen.h **** static inline lv_coord_t lv_obj_get_style_text_letter_space(const struct _lv_obj_t * obj, uint32_t 
 458:Middlewares/LVGL/GUI/lvgl/src/widgets/../core/lv_obj_style_gen.h **** {
 459:Middlewares/LVGL/GUI/lvgl/src/widgets/../core/lv_obj_style_gen.h ****     lv_style_value_t v = lv_obj_get_style_prop(obj, part, LV_STYLE_TEXT_LETTER_SPACE);
 460:Middlewares/LVGL/GUI/lvgl/src/widgets/../core/lv_obj_style_gen.h ****     return (lv_coord_t)v.num;
 461:Middlewares/LVGL/GUI/lvgl/src/widgets/../core/lv_obj_style_gen.h **** }
 462:Middlewares/LVGL/GUI/lvgl/src/widgets/../core/lv_obj_style_gen.h **** 
 463:Middlewares/LVGL/GUI/lvgl/src/widgets/../core/lv_obj_style_gen.h **** static inline lv_coord_t lv_obj_get_style_text_line_space(const struct _lv_obj_t * obj, uint32_t pa
 464:Middlewares/LVGL/GUI/lvgl/src/widgets/../core/lv_obj_style_gen.h **** {
 465:Middlewares/LVGL/GUI/lvgl/src/widgets/../core/lv_obj_style_gen.h ****     lv_style_value_t v = lv_obj_get_style_prop(obj, part, LV_STYLE_TEXT_LINE_SPACE);
 466:Middlewares/LVGL/GUI/lvgl/src/widgets/../core/lv_obj_style_gen.h ****     return (lv_coord_t)v.num;
 467:Middlewares/LVGL/GUI/lvgl/src/widgets/../core/lv_obj_style_gen.h **** }
 468:Middlewares/LVGL/GUI/lvgl/src/widgets/../core/lv_obj_style_gen.h **** 
 469:Middlewares/LVGL/GUI/lvgl/src/widgets/../core/lv_obj_style_gen.h **** static inline lv_text_decor_t lv_obj_get_style_text_decor(const struct _lv_obj_t * obj, uint32_t pa
 470:Middlewares/LVGL/GUI/lvgl/src/widgets/../core/lv_obj_style_gen.h **** {
 471:Middlewares/LVGL/GUI/lvgl/src/widgets/../core/lv_obj_style_gen.h ****     lv_style_value_t v = lv_obj_get_style_prop(obj, part, LV_STYLE_TEXT_DECOR);
 472:Middlewares/LVGL/GUI/lvgl/src/widgets/../core/lv_obj_style_gen.h ****     return (lv_text_decor_t)v.num;
 473:Middlewares/LVGL/GUI/lvgl/src/widgets/../core/lv_obj_style_gen.h **** }
 474:Middlewares/LVGL/GUI/lvgl/src/widgets/../core/lv_obj_style_gen.h **** 
 475:Middlewares/LVGL/GUI/lvgl/src/widgets/../core/lv_obj_style_gen.h **** static inline lv_text_align_t lv_obj_get_style_text_align(const struct _lv_obj_t * obj, uint32_t pa
 476:Middlewares/LVGL/GUI/lvgl/src/widgets/../core/lv_obj_style_gen.h **** {
 477:Middlewares/LVGL/GUI/lvgl/src/widgets/../core/lv_obj_style_gen.h ****     lv_style_value_t v = lv_obj_get_style_prop(obj, part, LV_STYLE_TEXT_ALIGN);
 478:Middlewares/LVGL/GUI/lvgl/src/widgets/../core/lv_obj_style_gen.h ****     return (lv_text_align_t)v.num;
 479:Middlewares/LVGL/GUI/lvgl/src/widgets/../core/lv_obj_style_gen.h **** }
 480:Middlewares/LVGL/GUI/lvgl/src/widgets/../core/lv_obj_style_gen.h **** 
 481:Middlewares/LVGL/GUI/lvgl/src/widgets/../core/lv_obj_style_gen.h **** static inline lv_coord_t lv_obj_get_style_radius(const struct _lv_obj_t * obj, uint32_t part)
 482:Middlewares/LVGL/GUI/lvgl/src/widgets/../core/lv_obj_style_gen.h **** {
 483:Middlewares/LVGL/GUI/lvgl/src/widgets/../core/lv_obj_style_gen.h ****     lv_style_value_t v = lv_obj_get_style_prop(obj, part, LV_STYLE_RADIUS);
 484:Middlewares/LVGL/GUI/lvgl/src/widgets/../core/lv_obj_style_gen.h ****     return (lv_coord_t)v.num;
 485:Middlewares/LVGL/GUI/lvgl/src/widgets/../core/lv_obj_style_gen.h **** }
 486:Middlewares/LVGL/GUI/lvgl/src/widgets/../core/lv_obj_style_gen.h **** 
 487:Middlewares/LVGL/GUI/lvgl/src/widgets/../core/lv_obj_style_gen.h **** static inline bool lv_obj_get_style_clip_corner(const struct _lv_obj_t * obj, uint32_t part)
 488:Middlewares/LVGL/GUI/lvgl/src/widgets/../core/lv_obj_style_gen.h **** {
 489:Middlewares/LVGL/GUI/lvgl/src/widgets/../core/lv_obj_style_gen.h ****     lv_style_value_t v = lv_obj_get_style_prop(obj, part, LV_STYLE_CLIP_CORNER);
 490:Middlewares/LVGL/GUI/lvgl/src/widgets/../core/lv_obj_style_gen.h ****     return (bool)v.num;
 491:Middlewares/LVGL/GUI/lvgl/src/widgets/../core/lv_obj_style_gen.h **** }
 492:Middlewares/LVGL/GUI/lvgl/src/widgets/../core/lv_obj_style_gen.h **** 
 493:Middlewares/LVGL/GUI/lvgl/src/widgets/../core/lv_obj_style_gen.h **** static inline lv_opa_t lv_obj_get_style_opa(const struct _lv_obj_t * obj, uint32_t part)
 494:Middlewares/LVGL/GUI/lvgl/src/widgets/../core/lv_obj_style_gen.h **** {
 495:Middlewares/LVGL/GUI/lvgl/src/widgets/../core/lv_obj_style_gen.h ****     lv_style_value_t v = lv_obj_get_style_prop(obj, part, LV_STYLE_OPA);
 496:Middlewares/LVGL/GUI/lvgl/src/widgets/../core/lv_obj_style_gen.h ****     return (lv_opa_t)v.num;
 497:Middlewares/LVGL/GUI/lvgl/src/widgets/../core/lv_obj_style_gen.h **** }
 498:Middlewares/LVGL/GUI/lvgl/src/widgets/../core/lv_obj_style_gen.h **** 
 499:Middlewares/LVGL/GUI/lvgl/src/widgets/../core/lv_obj_style_gen.h **** static inline const lv_color_filter_dsc_t * lv_obj_get_style_color_filter_dsc(const struct _lv_obj_
 500:Middlewares/LVGL/GUI/lvgl/src/widgets/../core/lv_obj_style_gen.h ****                                                                               uint32_t part)
 501:Middlewares/LVGL/GUI/lvgl/src/widgets/../core/lv_obj_style_gen.h **** {
 502:Middlewares/LVGL/GUI/lvgl/src/widgets/../core/lv_obj_style_gen.h ****     lv_style_value_t v = lv_obj_get_style_prop(obj, part, LV_STYLE_COLOR_FILTER_DSC);
 503:Middlewares/LVGL/GUI/lvgl/src/widgets/../core/lv_obj_style_gen.h ****     return (const lv_color_filter_dsc_t *)v.ptr;
 504:Middlewares/LVGL/GUI/lvgl/src/widgets/../core/lv_obj_style_gen.h **** }
 505:Middlewares/LVGL/GUI/lvgl/src/widgets/../core/lv_obj_style_gen.h **** 
 506:Middlewares/LVGL/GUI/lvgl/src/widgets/../core/lv_obj_style_gen.h **** static inline lv_opa_t lv_obj_get_style_color_filter_opa(const struct _lv_obj_t * obj, uint32_t par
ARM GAS  C:\Users\ADMINI~1\AppData\Local\Temp\ccH3Y31L.s 			page 17


 507:Middlewares/LVGL/GUI/lvgl/src/widgets/../core/lv_obj_style_gen.h **** {
 508:Middlewares/LVGL/GUI/lvgl/src/widgets/../core/lv_obj_style_gen.h ****     lv_style_value_t v = lv_obj_get_style_prop(obj, part, LV_STYLE_COLOR_FILTER_OPA);
 509:Middlewares/LVGL/GUI/lvgl/src/widgets/../core/lv_obj_style_gen.h ****     return (lv_opa_t)v.num;
 510:Middlewares/LVGL/GUI/lvgl/src/widgets/../core/lv_obj_style_gen.h **** }
 511:Middlewares/LVGL/GUI/lvgl/src/widgets/../core/lv_obj_style_gen.h **** 
 512:Middlewares/LVGL/GUI/lvgl/src/widgets/../core/lv_obj_style_gen.h **** static inline uint32_t lv_obj_get_style_anim_time(const struct _lv_obj_t * obj, uint32_t part)
 157              		.loc 2 512 24 view .LVU29
 158              	.LBB48:
 513:Middlewares/LVGL/GUI/lvgl/src/widgets/../core/lv_obj_style_gen.h **** {
 514:Middlewares/LVGL/GUI/lvgl/src/widgets/../core/lv_obj_style_gen.h ****     lv_style_value_t v = lv_obj_get_style_prop(obj, part, LV_STYLE_ANIM_TIME);
 159              		.loc 2 514 5 view .LVU30
 160              		.loc 2 514 26 is_stmt 0 view .LVU31
 161 0008 6522     		movs	r2, #101
 162 000a 0021     		movs	r1, #0
 163 000c FFF7FEFF 		bl	lv_obj_get_style_prop
 164              	.LVL12:
 515:Middlewares/LVGL/GUI/lvgl/src/widgets/../core/lv_obj_style_gen.h ****     return (uint32_t)v.num;
 165              		.loc 2 515 5 is_stmt 1 view .LVU32
 166              		.loc 2 515 5 is_stmt 0 view .LVU33
 167              	.LBE48:
 168              	.LBE47:
 244:Middlewares/LVGL/GUI/lvgl/src/widgets/lv_switch.c **** 
 245:Middlewares/LVGL/GUI/lvgl/src/widgets/lv_switch.c ****     if(anim_dur_full > 0) {
 169              		.loc 1 245 5 is_stmt 1 view .LVU34
 170              		.loc 1 245 7 is_stmt 0 view .LVU35
 171 0010 10B9     		cbnz	r0, .L16
 172              	.LVL13:
 173              	.L7:
 246:Middlewares/LVGL/GUI/lvgl/src/widgets/lv_switch.c ****         bool chk = lv_obj_get_state(obj) & LV_STATE_CHECKED;
 247:Middlewares/LVGL/GUI/lvgl/src/widgets/lv_switch.c ****         int32_t anim_start;
 248:Middlewares/LVGL/GUI/lvgl/src/widgets/lv_switch.c ****         int32_t anim_end;
 249:Middlewares/LVGL/GUI/lvgl/src/widgets/lv_switch.c ****         /*No animation in progress -> simply set the values*/
 250:Middlewares/LVGL/GUI/lvgl/src/widgets/lv_switch.c ****         if(sw->anim_state == LV_SWITCH_ANIM_STATE_INV) {
 251:Middlewares/LVGL/GUI/lvgl/src/widgets/lv_switch.c ****             anim_start = chk ? LV_SWITCH_ANIM_STATE_START : LV_SWITCH_ANIM_STATE_END;
 252:Middlewares/LVGL/GUI/lvgl/src/widgets/lv_switch.c ****             anim_end   = chk ? LV_SWITCH_ANIM_STATE_END : LV_SWITCH_ANIM_STATE_START;
 253:Middlewares/LVGL/GUI/lvgl/src/widgets/lv_switch.c ****         }
 254:Middlewares/LVGL/GUI/lvgl/src/widgets/lv_switch.c ****         /*Animation in progress. Start from the animation end value*/
 255:Middlewares/LVGL/GUI/lvgl/src/widgets/lv_switch.c ****         else {
 256:Middlewares/LVGL/GUI/lvgl/src/widgets/lv_switch.c ****             anim_start = sw->anim_state;
 257:Middlewares/LVGL/GUI/lvgl/src/widgets/lv_switch.c ****             anim_end   = chk ? LV_SWITCH_ANIM_STATE_END : LV_SWITCH_ANIM_STATE_START;
 258:Middlewares/LVGL/GUI/lvgl/src/widgets/lv_switch.c ****         }
 259:Middlewares/LVGL/GUI/lvgl/src/widgets/lv_switch.c ****         /*Calculate actual animation duration*/
 260:Middlewares/LVGL/GUI/lvgl/src/widgets/lv_switch.c ****         uint32_t anim_dur = (anim_dur_full * LV_ABS(anim_start - anim_end)) / LV_SWITCH_ANIM_STATE_
 261:Middlewares/LVGL/GUI/lvgl/src/widgets/lv_switch.c **** 
 262:Middlewares/LVGL/GUI/lvgl/src/widgets/lv_switch.c ****         /*Stop the previous animation if it exists*/
 263:Middlewares/LVGL/GUI/lvgl/src/widgets/lv_switch.c ****         lv_anim_del(sw, NULL);
 264:Middlewares/LVGL/GUI/lvgl/src/widgets/lv_switch.c **** 
 265:Middlewares/LVGL/GUI/lvgl/src/widgets/lv_switch.c ****         lv_anim_t a;
 266:Middlewares/LVGL/GUI/lvgl/src/widgets/lv_switch.c ****         lv_anim_init(&a);
 267:Middlewares/LVGL/GUI/lvgl/src/widgets/lv_switch.c ****         lv_anim_set_var(&a, sw);
 268:Middlewares/LVGL/GUI/lvgl/src/widgets/lv_switch.c ****         lv_anim_set_exec_cb(&a, lv_switch_anim_exec_cb);
 269:Middlewares/LVGL/GUI/lvgl/src/widgets/lv_switch.c ****         lv_anim_set_values(&a, anim_start, anim_end);
 270:Middlewares/LVGL/GUI/lvgl/src/widgets/lv_switch.c ****         lv_anim_set_ready_cb(&a, lv_switch_anim_ready);
 271:Middlewares/LVGL/GUI/lvgl/src/widgets/lv_switch.c ****         lv_anim_set_time(&a, anim_dur);
 272:Middlewares/LVGL/GUI/lvgl/src/widgets/lv_switch.c ****         lv_anim_start(&a);
 273:Middlewares/LVGL/GUI/lvgl/src/widgets/lv_switch.c ****     }
 274:Middlewares/LVGL/GUI/lvgl/src/widgets/lv_switch.c **** }
ARM GAS  C:\Users\ADMINI~1\AppData\Local\Temp\ccH3Y31L.s 			page 18


 174              		.loc 1 274 1 view .LVU36
 175 0012 10B0     		add	sp, sp, #64
 176              	.LCFI5:
 177              		.cfi_remember_state
 178              		.cfi_def_cfa_offset 24
 179              		@ sp needed
 180 0014 BDE8F081 		pop	{r4, r5, r6, r7, r8, pc}
 181              	.LVL14:
 182              	.L16:
 183              	.LCFI6:
 184              		.cfi_restore_state
 185              		.loc 1 274 1 view .LVU37
 186 0018 0746     		mov	r7, r0
 187              	.LBB49:
 246:Middlewares/LVGL/GUI/lvgl/src/widgets/lv_switch.c ****         bool chk = lv_obj_get_state(obj) & LV_STATE_CHECKED;
 188              		.loc 1 246 9 is_stmt 1 view .LVU38
 246:Middlewares/LVGL/GUI/lvgl/src/widgets/lv_switch.c ****         bool chk = lv_obj_get_state(obj) & LV_STATE_CHECKED;
 189              		.loc 1 246 20 is_stmt 0 view .LVU39
 190 001a 2046     		mov	r0, r4
 191              	.LVL15:
 246:Middlewares/LVGL/GUI/lvgl/src/widgets/lv_switch.c ****         bool chk = lv_obj_get_state(obj) & LV_STATE_CHECKED;
 192              		.loc 1 246 20 view .LVU40
 193 001c FFF7FEFF 		bl	lv_obj_get_state
 194              	.LVL16:
 195 0020 00F00100 		and	r0, r0, #1
 196              	.LVL17:
 247:Middlewares/LVGL/GUI/lvgl/src/widgets/lv_switch.c ****         int32_t anim_end;
 197              		.loc 1 247 9 is_stmt 1 view .LVU41
 248:Middlewares/LVGL/GUI/lvgl/src/widgets/lv_switch.c ****         /*No animation in progress -> simply set the values*/
 198              		.loc 1 248 9 view .LVU42
 250:Middlewares/LVGL/GUI/lvgl/src/widgets/lv_switch.c ****             anim_start = chk ? LV_SWITCH_ANIM_STATE_START : LV_SWITCH_ANIM_STATE_END;
 199              		.loc 1 250 9 view .LVU43
 250:Middlewares/LVGL/GUI/lvgl/src/widgets/lv_switch.c ****             anim_start = chk ? LV_SWITCH_ANIM_STATE_START : LV_SWITCH_ANIM_STATE_END;
 200              		.loc 1 250 14 is_stmt 0 view .LVU44
 201 0024 E66A     		ldr	r6, [r4, #44]
 250:Middlewares/LVGL/GUI/lvgl/src/widgets/lv_switch.c ****             anim_start = chk ? LV_SWITCH_ANIM_STATE_START : LV_SWITCH_ANIM_STATE_END;
 202              		.loc 1 250 11 view .LVU45
 203 0026 B6F1FF3F 		cmp	r6, #-1
 204 002a 1FD0     		beq	.L17
 256:Middlewares/LVGL/GUI/lvgl/src/widgets/lv_switch.c ****             anim_end   = chk ? LV_SWITCH_ANIM_STATE_END : LV_SWITCH_ANIM_STATE_START;
 205              		.loc 1 256 13 is_stmt 1 view .LVU46
 206              	.LVL18:
 257:Middlewares/LVGL/GUI/lvgl/src/widgets/lv_switch.c ****         }
 207              		.loc 1 257 13 view .LVU47
 257:Middlewares/LVGL/GUI/lvgl/src/widgets/lv_switch.c ****         }
 208              		.loc 1 257 57 is_stmt 0 view .LVU48
 209 002c 50B3     		cbz	r0, .L14
 210 002e 4FF48078 		mov	r8, #256
 211              	.L11:
 212              	.LVL19:
 260:Middlewares/LVGL/GUI/lvgl/src/widgets/lv_switch.c **** 
 213              		.loc 1 260 9 is_stmt 1 view .LVU49
 260:Middlewares/LVGL/GUI/lvgl/src/widgets/lv_switch.c **** 
 214              		.loc 1 260 46 is_stmt 0 view .LVU50
 215 0032 A6EB0805 		sub	r5, r6, r8
 216 0036 002D     		cmp	r5, #0
 217 0038 B8BF     		it	lt
ARM GAS  C:\Users\ADMINI~1\AppData\Local\Temp\ccH3Y31L.s 			page 19


 218 003a 6D42     		rsblt	r5, r5, #0
 219              	.LVL20:
 260:Middlewares/LVGL/GUI/lvgl/src/widgets/lv_switch.c **** 
 220              		.loc 1 260 44 view .LVU51
 221 003c 07FB05F5 		mul	r5, r7, r5
 260:Middlewares/LVGL/GUI/lvgl/src/widgets/lv_switch.c **** 
 222              		.loc 1 260 18 view .LVU52
 223 0040 2D0A     		lsrs	r5, r5, #8
 224              	.LVL21:
 263:Middlewares/LVGL/GUI/lvgl/src/widgets/lv_switch.c **** 
 225              		.loc 1 263 9 is_stmt 1 view .LVU53
 226 0042 0021     		movs	r1, #0
 227 0044 2046     		mov	r0, r4
 228              	.LVL22:
 263:Middlewares/LVGL/GUI/lvgl/src/widgets/lv_switch.c **** 
 229              		.loc 1 263 9 is_stmt 0 view .LVU54
 230 0046 FFF7FEFF 		bl	lv_anim_del
 231              	.LVL23:
 265:Middlewares/LVGL/GUI/lvgl/src/widgets/lv_switch.c ****         lv_anim_init(&a);
 232              		.loc 1 265 9 is_stmt 1 view .LVU55
 266:Middlewares/LVGL/GUI/lvgl/src/widgets/lv_switch.c ****         lv_anim_set_var(&a, sw);
 233              		.loc 1 266 9 view .LVU56
 234 004a 6846     		mov	r0, sp
 235 004c FFF7FEFF 		bl	lv_anim_init
 236              	.LVL24:
 267:Middlewares/LVGL/GUI/lvgl/src/widgets/lv_switch.c ****         lv_anim_set_exec_cb(&a, lv_switch_anim_exec_cb);
 237              		.loc 1 267 9 view .LVU57
 238              	.LBB50:
 239              	.LBI50:
 240              		.file 3 "Middlewares/LVGL/GUI/lvgl/src/widgets/../core/../misc/lv_anim.h"
   1:Middlewares/LVGL/GUI/lvgl/src/widgets/../core/../misc/lv_anim.h **** /**
   2:Middlewares/LVGL/GUI/lvgl/src/widgets/../core/../misc/lv_anim.h ****  * @file lv_anim.h
   3:Middlewares/LVGL/GUI/lvgl/src/widgets/../core/../misc/lv_anim.h ****  *
   4:Middlewares/LVGL/GUI/lvgl/src/widgets/../core/../misc/lv_anim.h ****  */
   5:Middlewares/LVGL/GUI/lvgl/src/widgets/../core/../misc/lv_anim.h **** 
   6:Middlewares/LVGL/GUI/lvgl/src/widgets/../core/../misc/lv_anim.h **** #ifndef LV_ANIM_H
   7:Middlewares/LVGL/GUI/lvgl/src/widgets/../core/../misc/lv_anim.h **** #define LV_ANIM_H
   8:Middlewares/LVGL/GUI/lvgl/src/widgets/../core/../misc/lv_anim.h **** 
   9:Middlewares/LVGL/GUI/lvgl/src/widgets/../core/../misc/lv_anim.h **** #ifdef __cplusplus
  10:Middlewares/LVGL/GUI/lvgl/src/widgets/../core/../misc/lv_anim.h **** extern "C" {
  11:Middlewares/LVGL/GUI/lvgl/src/widgets/../core/../misc/lv_anim.h **** #endif
  12:Middlewares/LVGL/GUI/lvgl/src/widgets/../core/../misc/lv_anim.h **** 
  13:Middlewares/LVGL/GUI/lvgl/src/widgets/../core/../misc/lv_anim.h **** /*********************
  14:Middlewares/LVGL/GUI/lvgl/src/widgets/../core/../misc/lv_anim.h ****  *      INCLUDES
  15:Middlewares/LVGL/GUI/lvgl/src/widgets/../core/../misc/lv_anim.h ****  *********************/
  16:Middlewares/LVGL/GUI/lvgl/src/widgets/../core/../misc/lv_anim.h **** #include "../lv_conf_internal.h"
  17:Middlewares/LVGL/GUI/lvgl/src/widgets/../core/../misc/lv_anim.h **** 
  18:Middlewares/LVGL/GUI/lvgl/src/widgets/../core/../misc/lv_anim.h **** #include <stdint.h>
  19:Middlewares/LVGL/GUI/lvgl/src/widgets/../core/../misc/lv_anim.h **** #include <stdbool.h>
  20:Middlewares/LVGL/GUI/lvgl/src/widgets/../core/../misc/lv_anim.h **** #include <stddef.h>
  21:Middlewares/LVGL/GUI/lvgl/src/widgets/../core/../misc/lv_anim.h **** 
  22:Middlewares/LVGL/GUI/lvgl/src/widgets/../core/../misc/lv_anim.h **** /*********************
  23:Middlewares/LVGL/GUI/lvgl/src/widgets/../core/../misc/lv_anim.h ****  *      DEFINES
  24:Middlewares/LVGL/GUI/lvgl/src/widgets/../core/../misc/lv_anim.h ****  *********************/
  25:Middlewares/LVGL/GUI/lvgl/src/widgets/../core/../misc/lv_anim.h **** 
  26:Middlewares/LVGL/GUI/lvgl/src/widgets/../core/../misc/lv_anim.h **** #define LV_ANIM_REPEAT_INFINITE      0xFFFF
  27:Middlewares/LVGL/GUI/lvgl/src/widgets/../core/../misc/lv_anim.h **** #define LV_ANIM_PLAYTIME_INFINITE    0xFFFFFFFF
ARM GAS  C:\Users\ADMINI~1\AppData\Local\Temp\ccH3Y31L.s 			page 20


  28:Middlewares/LVGL/GUI/lvgl/src/widgets/../core/../misc/lv_anim.h **** 
  29:Middlewares/LVGL/GUI/lvgl/src/widgets/../core/../misc/lv_anim.h **** LV_EXPORT_CONST_INT(LV_ANIM_REPEAT_INFINITE);
  30:Middlewares/LVGL/GUI/lvgl/src/widgets/../core/../misc/lv_anim.h **** LV_EXPORT_CONST_INT(LV_ANIM_PLAYTIME_INFINITE);
  31:Middlewares/LVGL/GUI/lvgl/src/widgets/../core/../misc/lv_anim.h **** 
  32:Middlewares/LVGL/GUI/lvgl/src/widgets/../core/../misc/lv_anim.h **** /**********************
  33:Middlewares/LVGL/GUI/lvgl/src/widgets/../core/../misc/lv_anim.h ****  *      TYPEDEFS
  34:Middlewares/LVGL/GUI/lvgl/src/widgets/../core/../misc/lv_anim.h ****  **********************/
  35:Middlewares/LVGL/GUI/lvgl/src/widgets/../core/../misc/lv_anim.h **** 
  36:Middlewares/LVGL/GUI/lvgl/src/widgets/../core/../misc/lv_anim.h **** /** Can be used to indicate if animations are enabled or disabled in a case*/
  37:Middlewares/LVGL/GUI/lvgl/src/widgets/../core/../misc/lv_anim.h **** typedef enum {
  38:Middlewares/LVGL/GUI/lvgl/src/widgets/../core/../misc/lv_anim.h ****     LV_ANIM_OFF,
  39:Middlewares/LVGL/GUI/lvgl/src/widgets/../core/../misc/lv_anim.h ****     LV_ANIM_ON,
  40:Middlewares/LVGL/GUI/lvgl/src/widgets/../core/../misc/lv_anim.h **** } lv_anim_enable_t;
  41:Middlewares/LVGL/GUI/lvgl/src/widgets/../core/../misc/lv_anim.h **** 
  42:Middlewares/LVGL/GUI/lvgl/src/widgets/../core/../misc/lv_anim.h **** struct _lv_anim_t;
  43:Middlewares/LVGL/GUI/lvgl/src/widgets/../core/../misc/lv_anim.h **** 
  44:Middlewares/LVGL/GUI/lvgl/src/widgets/../core/../misc/lv_anim.h **** /** Get the current value during an animation*/
  45:Middlewares/LVGL/GUI/lvgl/src/widgets/../core/../misc/lv_anim.h **** typedef int32_t (*lv_anim_path_cb_t)(const struct _lv_anim_t *);
  46:Middlewares/LVGL/GUI/lvgl/src/widgets/../core/../misc/lv_anim.h **** 
  47:Middlewares/LVGL/GUI/lvgl/src/widgets/../core/../misc/lv_anim.h **** /** Generic prototype of "animator" functions.
  48:Middlewares/LVGL/GUI/lvgl/src/widgets/../core/../misc/lv_anim.h ****  * First parameter is the variable to animate.
  49:Middlewares/LVGL/GUI/lvgl/src/widgets/../core/../misc/lv_anim.h ****  * Second parameter is the value to set.
  50:Middlewares/LVGL/GUI/lvgl/src/widgets/../core/../misc/lv_anim.h ****  * Compatible with `lv_xxx_set_yyy(obj, value)` functions
  51:Middlewares/LVGL/GUI/lvgl/src/widgets/../core/../misc/lv_anim.h ****  * The `x` in `_xcb_t` means it's not a fully generic prototype because
  52:Middlewares/LVGL/GUI/lvgl/src/widgets/../core/../misc/lv_anim.h ****  * it doesn't receive `lv_anim_t *` as its first argument*/
  53:Middlewares/LVGL/GUI/lvgl/src/widgets/../core/../misc/lv_anim.h **** typedef void (*lv_anim_exec_xcb_t)(void *, int32_t);
  54:Middlewares/LVGL/GUI/lvgl/src/widgets/../core/../misc/lv_anim.h **** 
  55:Middlewares/LVGL/GUI/lvgl/src/widgets/../core/../misc/lv_anim.h **** /** Same as `lv_anim_exec_xcb_t` but receives `lv_anim_t *` as the first parameter.
  56:Middlewares/LVGL/GUI/lvgl/src/widgets/../core/../misc/lv_anim.h ****  * It's more consistent but less convenient. Might be used by binding generator functions.*/
  57:Middlewares/LVGL/GUI/lvgl/src/widgets/../core/../misc/lv_anim.h **** typedef void (*lv_anim_custom_exec_cb_t)(struct _lv_anim_t *, int32_t);
  58:Middlewares/LVGL/GUI/lvgl/src/widgets/../core/../misc/lv_anim.h **** 
  59:Middlewares/LVGL/GUI/lvgl/src/widgets/../core/../misc/lv_anim.h **** /** Callback to call when the animation is ready*/
  60:Middlewares/LVGL/GUI/lvgl/src/widgets/../core/../misc/lv_anim.h **** typedef void (*lv_anim_ready_cb_t)(struct _lv_anim_t *);
  61:Middlewares/LVGL/GUI/lvgl/src/widgets/../core/../misc/lv_anim.h **** 
  62:Middlewares/LVGL/GUI/lvgl/src/widgets/../core/../misc/lv_anim.h **** /** Callback to call when the animation really stars (considering `delay`)*/
  63:Middlewares/LVGL/GUI/lvgl/src/widgets/../core/../misc/lv_anim.h **** typedef void (*lv_anim_start_cb_t)(struct _lv_anim_t *);
  64:Middlewares/LVGL/GUI/lvgl/src/widgets/../core/../misc/lv_anim.h **** 
  65:Middlewares/LVGL/GUI/lvgl/src/widgets/../core/../misc/lv_anim.h **** /** Callback used when the animation values are relative to get the current value*/
  66:Middlewares/LVGL/GUI/lvgl/src/widgets/../core/../misc/lv_anim.h **** typedef int32_t (*lv_anim_get_value_cb_t)(struct _lv_anim_t *);
  67:Middlewares/LVGL/GUI/lvgl/src/widgets/../core/../misc/lv_anim.h **** 
  68:Middlewares/LVGL/GUI/lvgl/src/widgets/../core/../misc/lv_anim.h **** /** Describes an animation*/
  69:Middlewares/LVGL/GUI/lvgl/src/widgets/../core/../misc/lv_anim.h **** typedef struct _lv_anim_t {
  70:Middlewares/LVGL/GUI/lvgl/src/widgets/../core/../misc/lv_anim.h ****     void * var;                          /**<Variable to animate*/
  71:Middlewares/LVGL/GUI/lvgl/src/widgets/../core/../misc/lv_anim.h ****     lv_anim_exec_xcb_t exec_cb;          /**< Function to execute to animate*/
  72:Middlewares/LVGL/GUI/lvgl/src/widgets/../core/../misc/lv_anim.h ****     lv_anim_start_cb_t start_cb;         /**< Call it when the animation is starts (considering `de
  73:Middlewares/LVGL/GUI/lvgl/src/widgets/../core/../misc/lv_anim.h ****     lv_anim_ready_cb_t ready_cb;         /**< Call it when the animation is ready*/
  74:Middlewares/LVGL/GUI/lvgl/src/widgets/../core/../misc/lv_anim.h ****     lv_anim_get_value_cb_t get_value_cb; /**< Get the current value in relative mode*/
  75:Middlewares/LVGL/GUI/lvgl/src/widgets/../core/../misc/lv_anim.h **** #if LV_USE_USER_DATA
  76:Middlewares/LVGL/GUI/lvgl/src/widgets/../core/../misc/lv_anim.h ****     void * user_data; /**< Custom user data*/
  77:Middlewares/LVGL/GUI/lvgl/src/widgets/../core/../misc/lv_anim.h **** #endif
  78:Middlewares/LVGL/GUI/lvgl/src/widgets/../core/../misc/lv_anim.h ****     lv_anim_path_cb_t path_cb;         /**< Describe the path (curve) of animations*/
  79:Middlewares/LVGL/GUI/lvgl/src/widgets/../core/../misc/lv_anim.h ****     int32_t start_value;               /**< Start value*/
  80:Middlewares/LVGL/GUI/lvgl/src/widgets/../core/../misc/lv_anim.h ****     int32_t current_value;             /**< Current value*/
  81:Middlewares/LVGL/GUI/lvgl/src/widgets/../core/../misc/lv_anim.h ****     int32_t end_value;                 /**< End value*/
  82:Middlewares/LVGL/GUI/lvgl/src/widgets/../core/../misc/lv_anim.h ****     int32_t time;                /**< Animation time in ms*/
  83:Middlewares/LVGL/GUI/lvgl/src/widgets/../core/../misc/lv_anim.h ****     int32_t act_time;            /**< Current time in animation. Set to negative to make delay.*/
  84:Middlewares/LVGL/GUI/lvgl/src/widgets/../core/../misc/lv_anim.h ****     uint32_t playback_delay;     /**< Wait before play back*/
ARM GAS  C:\Users\ADMINI~1\AppData\Local\Temp\ccH3Y31L.s 			page 21


  85:Middlewares/LVGL/GUI/lvgl/src/widgets/../core/../misc/lv_anim.h ****     uint32_t playback_time;      /**< Duration of playback animation*/
  86:Middlewares/LVGL/GUI/lvgl/src/widgets/../core/../misc/lv_anim.h ****     uint32_t repeat_delay;       /**< Wait before repeat*/
  87:Middlewares/LVGL/GUI/lvgl/src/widgets/../core/../misc/lv_anim.h ****     uint16_t repeat_cnt;         /**< Repeat count for the animation*/
  88:Middlewares/LVGL/GUI/lvgl/src/widgets/../core/../misc/lv_anim.h ****     uint8_t early_apply  : 1;    /**< 1: Apply start value immediately even is there is `delay`*/
  89:Middlewares/LVGL/GUI/lvgl/src/widgets/../core/../misc/lv_anim.h **** 
  90:Middlewares/LVGL/GUI/lvgl/src/widgets/../core/../misc/lv_anim.h ****     /*Animation system use these - user shouldn't set*/
  91:Middlewares/LVGL/GUI/lvgl/src/widgets/../core/../misc/lv_anim.h ****     uint8_t playback_now : 1; /**< Play back is in progress*/
  92:Middlewares/LVGL/GUI/lvgl/src/widgets/../core/../misc/lv_anim.h ****     uint8_t run_round : 1;    /**< Indicates the animation has run in this round*/
  93:Middlewares/LVGL/GUI/lvgl/src/widgets/../core/../misc/lv_anim.h ****     uint8_t start_cb_called : 1;    /**< Indicates that the `start_cb` was already called*/
  94:Middlewares/LVGL/GUI/lvgl/src/widgets/../core/../misc/lv_anim.h **** } lv_anim_t;
  95:Middlewares/LVGL/GUI/lvgl/src/widgets/../core/../misc/lv_anim.h **** 
  96:Middlewares/LVGL/GUI/lvgl/src/widgets/../core/../misc/lv_anim.h **** /**********************
  97:Middlewares/LVGL/GUI/lvgl/src/widgets/../core/../misc/lv_anim.h ****  * GLOBAL PROTOTYPES
  98:Middlewares/LVGL/GUI/lvgl/src/widgets/../core/../misc/lv_anim.h ****  **********************/
  99:Middlewares/LVGL/GUI/lvgl/src/widgets/../core/../misc/lv_anim.h **** 
 100:Middlewares/LVGL/GUI/lvgl/src/widgets/../core/../misc/lv_anim.h **** /**
 101:Middlewares/LVGL/GUI/lvgl/src/widgets/../core/../misc/lv_anim.h ****  * Init. the animation module
 102:Middlewares/LVGL/GUI/lvgl/src/widgets/../core/../misc/lv_anim.h ****  */
 103:Middlewares/LVGL/GUI/lvgl/src/widgets/../core/../misc/lv_anim.h **** void _lv_anim_core_init(void);
 104:Middlewares/LVGL/GUI/lvgl/src/widgets/../core/../misc/lv_anim.h **** 
 105:Middlewares/LVGL/GUI/lvgl/src/widgets/../core/../misc/lv_anim.h **** /**
 106:Middlewares/LVGL/GUI/lvgl/src/widgets/../core/../misc/lv_anim.h ****  * Initialize an animation variable.
 107:Middlewares/LVGL/GUI/lvgl/src/widgets/../core/../misc/lv_anim.h ****  * E.g.:
 108:Middlewares/LVGL/GUI/lvgl/src/widgets/../core/../misc/lv_anim.h ****  * lv_anim_t a;
 109:Middlewares/LVGL/GUI/lvgl/src/widgets/../core/../misc/lv_anim.h ****  * lv_anim_init(&a);
 110:Middlewares/LVGL/GUI/lvgl/src/widgets/../core/../misc/lv_anim.h ****  * lv_anim_set_...(&a);
 111:Middlewares/LVGL/GUI/lvgl/src/widgets/../core/../misc/lv_anim.h ****  * lv_anim_start(&a);
 112:Middlewares/LVGL/GUI/lvgl/src/widgets/../core/../misc/lv_anim.h ****  * @param a     pointer to an `lv_anim_t` variable to initialize
 113:Middlewares/LVGL/GUI/lvgl/src/widgets/../core/../misc/lv_anim.h ****  */
 114:Middlewares/LVGL/GUI/lvgl/src/widgets/../core/../misc/lv_anim.h **** void lv_anim_init(lv_anim_t * a);
 115:Middlewares/LVGL/GUI/lvgl/src/widgets/../core/../misc/lv_anim.h **** 
 116:Middlewares/LVGL/GUI/lvgl/src/widgets/../core/../misc/lv_anim.h **** /**
 117:Middlewares/LVGL/GUI/lvgl/src/widgets/../core/../misc/lv_anim.h ****  * Set a variable to animate
 118:Middlewares/LVGL/GUI/lvgl/src/widgets/../core/../misc/lv_anim.h ****  * @param a     pointer to an initialized `lv_anim_t` variable
 119:Middlewares/LVGL/GUI/lvgl/src/widgets/../core/../misc/lv_anim.h ****  * @param var   pointer to a variable to animate
 120:Middlewares/LVGL/GUI/lvgl/src/widgets/../core/../misc/lv_anim.h ****  */
 121:Middlewares/LVGL/GUI/lvgl/src/widgets/../core/../misc/lv_anim.h **** static inline void lv_anim_set_var(lv_anim_t * a, void * var)
 241              		.loc 3 121 20 view .LVU58
 242              	.LBB51:
 122:Middlewares/LVGL/GUI/lvgl/src/widgets/../core/../misc/lv_anim.h **** {
 123:Middlewares/LVGL/GUI/lvgl/src/widgets/../core/../misc/lv_anim.h ****     a->var = var;
 243              		.loc 3 123 5 view .LVU59
 244              		.loc 3 123 12 is_stmt 0 view .LVU60
 245 0050 0094     		str	r4, [sp]
 246              	.LVL25:
 247              		.loc 3 123 12 view .LVU61
 248              	.LBE51:
 249              	.LBE50:
 268:Middlewares/LVGL/GUI/lvgl/src/widgets/lv_switch.c ****         lv_anim_set_values(&a, anim_start, anim_end);
 250              		.loc 1 268 9 is_stmt 1 view .LVU62
 251              	.LBB52:
 252              	.LBI52:
 124:Middlewares/LVGL/GUI/lvgl/src/widgets/../core/../misc/lv_anim.h **** }
 125:Middlewares/LVGL/GUI/lvgl/src/widgets/../core/../misc/lv_anim.h **** 
 126:Middlewares/LVGL/GUI/lvgl/src/widgets/../core/../misc/lv_anim.h **** /**
 127:Middlewares/LVGL/GUI/lvgl/src/widgets/../core/../misc/lv_anim.h ****  * Set a function to animate `var`
 128:Middlewares/LVGL/GUI/lvgl/src/widgets/../core/../misc/lv_anim.h ****  * @param a         pointer to an initialized `lv_anim_t` variable
ARM GAS  C:\Users\ADMINI~1\AppData\Local\Temp\ccH3Y31L.s 			page 22


 129:Middlewares/LVGL/GUI/lvgl/src/widgets/../core/../misc/lv_anim.h ****  * @param exec_cb   a function to execute during animation
 130:Middlewares/LVGL/GUI/lvgl/src/widgets/../core/../misc/lv_anim.h ****  *                  LVGL's built-in functions can be used.
 131:Middlewares/LVGL/GUI/lvgl/src/widgets/../core/../misc/lv_anim.h ****  *                  E.g. lv_obj_set_x
 132:Middlewares/LVGL/GUI/lvgl/src/widgets/../core/../misc/lv_anim.h ****  */
 133:Middlewares/LVGL/GUI/lvgl/src/widgets/../core/../misc/lv_anim.h **** static inline void lv_anim_set_exec_cb(lv_anim_t * a, lv_anim_exec_xcb_t exec_cb)
 253              		.loc 3 133 20 view .LVU63
 254              	.LBB53:
 134:Middlewares/LVGL/GUI/lvgl/src/widgets/../core/../misc/lv_anim.h **** {
 135:Middlewares/LVGL/GUI/lvgl/src/widgets/../core/../misc/lv_anim.h ****     a->exec_cb = exec_cb;
 255              		.loc 3 135 5 view .LVU64
 256              		.loc 3 135 16 is_stmt 0 view .LVU65
 257 0052 0E4B     		ldr	r3, .L18
 258 0054 0193     		str	r3, [sp, #4]
 259              	.LVL26:
 260              		.loc 3 135 16 view .LVU66
 261              	.LBE53:
 262              	.LBE52:
 269:Middlewares/LVGL/GUI/lvgl/src/widgets/lv_switch.c ****         lv_anim_set_ready_cb(&a, lv_switch_anim_ready);
 263              		.loc 1 269 9 is_stmt 1 view .LVU67
 264              	.LBB54:
 265              	.LBI54:
 136:Middlewares/LVGL/GUI/lvgl/src/widgets/../core/../misc/lv_anim.h **** }
 137:Middlewares/LVGL/GUI/lvgl/src/widgets/../core/../misc/lv_anim.h **** 
 138:Middlewares/LVGL/GUI/lvgl/src/widgets/../core/../misc/lv_anim.h **** /**
 139:Middlewares/LVGL/GUI/lvgl/src/widgets/../core/../misc/lv_anim.h ****  * Set the duration of an animation
 140:Middlewares/LVGL/GUI/lvgl/src/widgets/../core/../misc/lv_anim.h ****  * @param a         pointer to an initialized `lv_anim_t` variable
 141:Middlewares/LVGL/GUI/lvgl/src/widgets/../core/../misc/lv_anim.h ****  * @param duration  duration of the animation in milliseconds
 142:Middlewares/LVGL/GUI/lvgl/src/widgets/../core/../misc/lv_anim.h ****  */
 143:Middlewares/LVGL/GUI/lvgl/src/widgets/../core/../misc/lv_anim.h **** static inline void lv_anim_set_time(lv_anim_t * a, uint32_t duration)
 144:Middlewares/LVGL/GUI/lvgl/src/widgets/../core/../misc/lv_anim.h **** {
 145:Middlewares/LVGL/GUI/lvgl/src/widgets/../core/../misc/lv_anim.h ****     a->time = duration;
 146:Middlewares/LVGL/GUI/lvgl/src/widgets/../core/../misc/lv_anim.h **** }
 147:Middlewares/LVGL/GUI/lvgl/src/widgets/../core/../misc/lv_anim.h **** 
 148:Middlewares/LVGL/GUI/lvgl/src/widgets/../core/../misc/lv_anim.h **** /**
 149:Middlewares/LVGL/GUI/lvgl/src/widgets/../core/../misc/lv_anim.h ****  * Set a delay before starting the animation
 150:Middlewares/LVGL/GUI/lvgl/src/widgets/../core/../misc/lv_anim.h ****  * @param a         pointer to an initialized `lv_anim_t` variable
 151:Middlewares/LVGL/GUI/lvgl/src/widgets/../core/../misc/lv_anim.h ****  * @param delay     delay before the animation in milliseconds
 152:Middlewares/LVGL/GUI/lvgl/src/widgets/../core/../misc/lv_anim.h ****  */
 153:Middlewares/LVGL/GUI/lvgl/src/widgets/../core/../misc/lv_anim.h **** static inline void lv_anim_set_delay(lv_anim_t * a, uint32_t delay)
 154:Middlewares/LVGL/GUI/lvgl/src/widgets/../core/../misc/lv_anim.h **** {
 155:Middlewares/LVGL/GUI/lvgl/src/widgets/../core/../misc/lv_anim.h ****     a->act_time = -(int32_t)(delay);
 156:Middlewares/LVGL/GUI/lvgl/src/widgets/../core/../misc/lv_anim.h **** }
 157:Middlewares/LVGL/GUI/lvgl/src/widgets/../core/../misc/lv_anim.h **** 
 158:Middlewares/LVGL/GUI/lvgl/src/widgets/../core/../misc/lv_anim.h **** /**
 159:Middlewares/LVGL/GUI/lvgl/src/widgets/../core/../misc/lv_anim.h ****  * Set the start and end values of an animation
 160:Middlewares/LVGL/GUI/lvgl/src/widgets/../core/../misc/lv_anim.h ****  * @param a         pointer to an initialized `lv_anim_t` variable
 161:Middlewares/LVGL/GUI/lvgl/src/widgets/../core/../misc/lv_anim.h ****  * @param start     the start value
 162:Middlewares/LVGL/GUI/lvgl/src/widgets/../core/../misc/lv_anim.h ****  * @param end       the end value
 163:Middlewares/LVGL/GUI/lvgl/src/widgets/../core/../misc/lv_anim.h ****  */
 164:Middlewares/LVGL/GUI/lvgl/src/widgets/../core/../misc/lv_anim.h **** static inline void lv_anim_set_values(lv_anim_t * a, int32_t start, int32_t end)
 266              		.loc 3 164 20 view .LVU68
 267              	.LBB55:
 165:Middlewares/LVGL/GUI/lvgl/src/widgets/../core/../misc/lv_anim.h **** {
 166:Middlewares/LVGL/GUI/lvgl/src/widgets/../core/../misc/lv_anim.h ****     a->start_value = start;
 268              		.loc 3 166 5 view .LVU69
 269              		.loc 3 166 20 is_stmt 0 view .LVU70
 270 0056 0796     		str	r6, [sp, #28]
ARM GAS  C:\Users\ADMINI~1\AppData\Local\Temp\ccH3Y31L.s 			page 23


 167:Middlewares/LVGL/GUI/lvgl/src/widgets/../core/../misc/lv_anim.h ****     a->current_value = start;
 271              		.loc 3 167 5 is_stmt 1 view .LVU71
 272              		.loc 3 167 22 is_stmt 0 view .LVU72
 273 0058 0896     		str	r6, [sp, #32]
 168:Middlewares/LVGL/GUI/lvgl/src/widgets/../core/../misc/lv_anim.h ****     a->end_value = end;
 274              		.loc 3 168 5 is_stmt 1 view .LVU73
 275              		.loc 3 168 18 is_stmt 0 view .LVU74
 276 005a CDF82480 		str	r8, [sp, #36]
 277              	.LVL27:
 278              		.loc 3 168 18 view .LVU75
 279              	.LBE55:
 280              	.LBE54:
 270:Middlewares/LVGL/GUI/lvgl/src/widgets/lv_switch.c ****         lv_anim_set_time(&a, anim_dur);
 281              		.loc 1 270 9 is_stmt 1 view .LVU76
 282              	.LBB56:
 283              	.LBI56:
 169:Middlewares/LVGL/GUI/lvgl/src/widgets/../core/../misc/lv_anim.h **** }
 170:Middlewares/LVGL/GUI/lvgl/src/widgets/../core/../misc/lv_anim.h **** 
 171:Middlewares/LVGL/GUI/lvgl/src/widgets/../core/../misc/lv_anim.h **** /**
 172:Middlewares/LVGL/GUI/lvgl/src/widgets/../core/../misc/lv_anim.h ****  * Similar to `lv_anim_set_exec_cb` but `lv_anim_custom_exec_cb_t` receives
 173:Middlewares/LVGL/GUI/lvgl/src/widgets/../core/../misc/lv_anim.h ****  * `lv_anim_t * ` as its first parameter instead of `void *`.
 174:Middlewares/LVGL/GUI/lvgl/src/widgets/../core/../misc/lv_anim.h ****  * This function might be used when LVGL is bound to other languages because
 175:Middlewares/LVGL/GUI/lvgl/src/widgets/../core/../misc/lv_anim.h ****  * it's more consistent to have `lv_anim_t *` as first parameter.
 176:Middlewares/LVGL/GUI/lvgl/src/widgets/../core/../misc/lv_anim.h ****  * The variable to animate can be stored in the animation's `user_data`
 177:Middlewares/LVGL/GUI/lvgl/src/widgets/../core/../misc/lv_anim.h ****  * @param a         pointer to an initialized `lv_anim_t` variable
 178:Middlewares/LVGL/GUI/lvgl/src/widgets/../core/../misc/lv_anim.h ****  * @param exec_cb   a function to execute.
 179:Middlewares/LVGL/GUI/lvgl/src/widgets/../core/../misc/lv_anim.h ****  */
 180:Middlewares/LVGL/GUI/lvgl/src/widgets/../core/../misc/lv_anim.h **** static inline void lv_anim_set_custom_exec_cb(lv_anim_t * a, lv_anim_custom_exec_cb_t exec_cb)
 181:Middlewares/LVGL/GUI/lvgl/src/widgets/../core/../misc/lv_anim.h **** {
 182:Middlewares/LVGL/GUI/lvgl/src/widgets/../core/../misc/lv_anim.h ****     a->var     = a;
 183:Middlewares/LVGL/GUI/lvgl/src/widgets/../core/../misc/lv_anim.h ****     a->exec_cb = (lv_anim_exec_xcb_t)exec_cb;
 184:Middlewares/LVGL/GUI/lvgl/src/widgets/../core/../misc/lv_anim.h **** }
 185:Middlewares/LVGL/GUI/lvgl/src/widgets/../core/../misc/lv_anim.h **** 
 186:Middlewares/LVGL/GUI/lvgl/src/widgets/../core/../misc/lv_anim.h **** /**
 187:Middlewares/LVGL/GUI/lvgl/src/widgets/../core/../misc/lv_anim.h ****  * Set the path (curve) of the animation.
 188:Middlewares/LVGL/GUI/lvgl/src/widgets/../core/../misc/lv_anim.h ****  * @param a         pointer to an initialized `lv_anim_t` variable
 189:Middlewares/LVGL/GUI/lvgl/src/widgets/../core/../misc/lv_anim.h ****  * @param path_cb a function to set the current value of the animation.
 190:Middlewares/LVGL/GUI/lvgl/src/widgets/../core/../misc/lv_anim.h ****  */
 191:Middlewares/LVGL/GUI/lvgl/src/widgets/../core/../misc/lv_anim.h **** static inline void lv_anim_set_path_cb(lv_anim_t * a, lv_anim_path_cb_t path_cb)
 192:Middlewares/LVGL/GUI/lvgl/src/widgets/../core/../misc/lv_anim.h **** {
 193:Middlewares/LVGL/GUI/lvgl/src/widgets/../core/../misc/lv_anim.h ****     a->path_cb = path_cb;
 194:Middlewares/LVGL/GUI/lvgl/src/widgets/../core/../misc/lv_anim.h **** }
 195:Middlewares/LVGL/GUI/lvgl/src/widgets/../core/../misc/lv_anim.h **** 
 196:Middlewares/LVGL/GUI/lvgl/src/widgets/../core/../misc/lv_anim.h **** /**
 197:Middlewares/LVGL/GUI/lvgl/src/widgets/../core/../misc/lv_anim.h ****  * Set a function call when the animation really starts (considering `delay`)
 198:Middlewares/LVGL/GUI/lvgl/src/widgets/../core/../misc/lv_anim.h ****  * @param a         pointer to an initialized `lv_anim_t` variable
 199:Middlewares/LVGL/GUI/lvgl/src/widgets/../core/../misc/lv_anim.h ****  * @param start_cb  a function call when the animation starts
 200:Middlewares/LVGL/GUI/lvgl/src/widgets/../core/../misc/lv_anim.h ****  */
 201:Middlewares/LVGL/GUI/lvgl/src/widgets/../core/../misc/lv_anim.h **** static inline void lv_anim_set_start_cb(lv_anim_t * a, lv_anim_start_cb_t start_cb)
 202:Middlewares/LVGL/GUI/lvgl/src/widgets/../core/../misc/lv_anim.h **** {
 203:Middlewares/LVGL/GUI/lvgl/src/widgets/../core/../misc/lv_anim.h ****     a->start_cb = start_cb;
 204:Middlewares/LVGL/GUI/lvgl/src/widgets/../core/../misc/lv_anim.h **** }
 205:Middlewares/LVGL/GUI/lvgl/src/widgets/../core/../misc/lv_anim.h **** 
 206:Middlewares/LVGL/GUI/lvgl/src/widgets/../core/../misc/lv_anim.h **** /**
 207:Middlewares/LVGL/GUI/lvgl/src/widgets/../core/../misc/lv_anim.h ****  * Set a function to use the current value of the variable and make start and end value
 208:Middlewares/LVGL/GUI/lvgl/src/widgets/../core/../misc/lv_anim.h ****  * relative to the returned current value.
 209:Middlewares/LVGL/GUI/lvgl/src/widgets/../core/../misc/lv_anim.h ****  * @param a             pointer to an initialized `lv_anim_t` variable
ARM GAS  C:\Users\ADMINI~1\AppData\Local\Temp\ccH3Y31L.s 			page 24


 210:Middlewares/LVGL/GUI/lvgl/src/widgets/../core/../misc/lv_anim.h ****  * @param get_value_cb  a function call when the animation starts
 211:Middlewares/LVGL/GUI/lvgl/src/widgets/../core/../misc/lv_anim.h ****  */
 212:Middlewares/LVGL/GUI/lvgl/src/widgets/../core/../misc/lv_anim.h **** static inline void lv_anim_set_get_value_cb(lv_anim_t * a, lv_anim_get_value_cb_t get_value_cb)
 213:Middlewares/LVGL/GUI/lvgl/src/widgets/../core/../misc/lv_anim.h **** {
 214:Middlewares/LVGL/GUI/lvgl/src/widgets/../core/../misc/lv_anim.h ****     a->get_value_cb = get_value_cb;
 215:Middlewares/LVGL/GUI/lvgl/src/widgets/../core/../misc/lv_anim.h **** }
 216:Middlewares/LVGL/GUI/lvgl/src/widgets/../core/../misc/lv_anim.h **** 
 217:Middlewares/LVGL/GUI/lvgl/src/widgets/../core/../misc/lv_anim.h **** /**
 218:Middlewares/LVGL/GUI/lvgl/src/widgets/../core/../misc/lv_anim.h ****  * Set a function call when the animation is ready
 219:Middlewares/LVGL/GUI/lvgl/src/widgets/../core/../misc/lv_anim.h ****  * @param a         pointer to an initialized `lv_anim_t` variable
 220:Middlewares/LVGL/GUI/lvgl/src/widgets/../core/../misc/lv_anim.h ****  * @param ready_cb  a function call when the animation is ready
 221:Middlewares/LVGL/GUI/lvgl/src/widgets/../core/../misc/lv_anim.h ****  */
 222:Middlewares/LVGL/GUI/lvgl/src/widgets/../core/../misc/lv_anim.h **** static inline void lv_anim_set_ready_cb(lv_anim_t * a, lv_anim_ready_cb_t ready_cb)
 284              		.loc 3 222 20 view .LVU77
 285              	.LBB57:
 223:Middlewares/LVGL/GUI/lvgl/src/widgets/../core/../misc/lv_anim.h **** {
 224:Middlewares/LVGL/GUI/lvgl/src/widgets/../core/../misc/lv_anim.h ****     a->ready_cb = ready_cb;
 286              		.loc 3 224 5 view .LVU78
 287              		.loc 3 224 17 is_stmt 0 view .LVU79
 288 005e 0C4B     		ldr	r3, .L18+4
 289 0060 0393     		str	r3, [sp, #12]
 290              	.LVL28:
 291              		.loc 3 224 17 view .LVU80
 292              	.LBE57:
 293              	.LBE56:
 271:Middlewares/LVGL/GUI/lvgl/src/widgets/lv_switch.c ****         lv_anim_start(&a);
 294              		.loc 1 271 9 is_stmt 1 view .LVU81
 295              	.LBB58:
 296              	.LBI58:
 143:Middlewares/LVGL/GUI/lvgl/src/widgets/../core/../misc/lv_anim.h **** {
 297              		.loc 3 143 20 view .LVU82
 298              	.LBB59:
 145:Middlewares/LVGL/GUI/lvgl/src/widgets/../core/../misc/lv_anim.h **** }
 299              		.loc 3 145 5 view .LVU83
 145:Middlewares/LVGL/GUI/lvgl/src/widgets/../core/../misc/lv_anim.h **** }
 300              		.loc 3 145 13 is_stmt 0 view .LVU84
 301 0062 0A95     		str	r5, [sp, #40]
 302              	.LVL29:
 145:Middlewares/LVGL/GUI/lvgl/src/widgets/../core/../misc/lv_anim.h **** }
 303              		.loc 3 145 13 view .LVU85
 304              	.LBE59:
 305              	.LBE58:
 272:Middlewares/LVGL/GUI/lvgl/src/widgets/lv_switch.c ****     }
 306              		.loc 1 272 9 is_stmt 1 view .LVU86
 307 0064 6846     		mov	r0, sp
 308 0066 FFF7FEFF 		bl	lv_anim_start
 309              	.LVL30:
 310              	.LBE49:
 311              		.loc 1 274 1 is_stmt 0 view .LVU87
 312 006a D2E7     		b	.L7
 313              	.LVL31:
 314              	.L17:
 315              	.LBB60:
 251:Middlewares/LVGL/GUI/lvgl/src/widgets/lv_switch.c ****             anim_end   = chk ? LV_SWITCH_ANIM_STATE_END : LV_SWITCH_ANIM_STATE_START;
 316              		.loc 1 251 13 is_stmt 1 view .LVU88
 251:Middlewares/LVGL/GUI/lvgl/src/widgets/lv_switch.c ****             anim_end   = chk ? LV_SWITCH_ANIM_STATE_END : LV_SWITCH_ANIM_STATE_START;
 317              		.loc 1 251 59 is_stmt 0 view .LVU89
ARM GAS  C:\Users\ADMINI~1\AppData\Local\Temp\ccH3Y31L.s 			page 25


 318 006c 20B1     		cbz	r0, .L12
 319 006e 0026     		movs	r6, #0
 320              	.L10:
 321              	.LVL32:
 252:Middlewares/LVGL/GUI/lvgl/src/widgets/lv_switch.c ****         }
 322              		.loc 1 252 13 is_stmt 1 discriminator 4 view .LVU90
 252:Middlewares/LVGL/GUI/lvgl/src/widgets/lv_switch.c ****         }
 323              		.loc 1 252 57 is_stmt 0 discriminator 4 view .LVU91
 324 0070 28B1     		cbz	r0, .L13
 252:Middlewares/LVGL/GUI/lvgl/src/widgets/lv_switch.c ****         }
 325              		.loc 1 252 57 view .LVU92
 326 0072 4FF48078 		mov	r8, #256
 327 0076 DCE7     		b	.L11
 328              	.LVL33:
 329              	.L12:
 251:Middlewares/LVGL/GUI/lvgl/src/widgets/lv_switch.c ****             anim_end   = chk ? LV_SWITCH_ANIM_STATE_END : LV_SWITCH_ANIM_STATE_START;
 330              		.loc 1 251 59 view .LVU93
 331 0078 4FF48076 		mov	r6, #256
 332 007c F8E7     		b	.L10
 333              	.LVL34:
 334              	.L13:
 252:Middlewares/LVGL/GUI/lvgl/src/widgets/lv_switch.c ****         }
 335              		.loc 1 252 57 view .LVU94
 336 007e 4FF00008 		mov	r8, #0
 337 0082 D6E7     		b	.L11
 338              	.L14:
 257:Middlewares/LVGL/GUI/lvgl/src/widgets/lv_switch.c ****         }
 339              		.loc 1 257 57 view .LVU95
 340 0084 4FF00008 		mov	r8, #0
 341 0088 D3E7     		b	.L11
 342              	.L19:
 343 008a 00BF     		.align	2
 344              	.L18:
 345 008c 00000000 		.word	lv_switch_anim_exec_cb
 346 0090 00000000 		.word	lv_switch_anim_ready
 347              	.LBE60:
 348              		.cfi_endproc
 349              	.LFE166:
 351              		.section	.text.draw_main,"ax",%progbits
 352              		.align	1
 353              		.syntax unified
 354              		.thumb
 355              		.thumb_func
 357              	draw_main:
 358              	.LVL35:
 359              	.LFB163:
 147:Middlewares/LVGL/GUI/lvgl/src/widgets/lv_switch.c ****     lv_obj_t * obj = lv_event_get_target(e);
 360              		.loc 1 147 1 is_stmt 1 view -0
 361              		.cfi_startproc
 362              		@ args = 0, pretend = 0, frame = 176
 363              		@ frame_needed = 0, uses_anonymous_args = 0
 147:Middlewares/LVGL/GUI/lvgl/src/widgets/lv_switch.c ****     lv_obj_t * obj = lv_event_get_target(e);
 364              		.loc 1 147 1 is_stmt 0 view .LVU97
 365 0000 2DE9F041 		push	{r4, r5, r6, r7, r8, lr}
 366              	.LCFI7:
 367              		.cfi_def_cfa_offset 24
 368              		.cfi_offset 4, -24
ARM GAS  C:\Users\ADMINI~1\AppData\Local\Temp\ccH3Y31L.s 			page 26


 369              		.cfi_offset 5, -20
 370              		.cfi_offset 6, -16
 371              		.cfi_offset 7, -12
 372              		.cfi_offset 8, -8
 373              		.cfi_offset 14, -4
 374 0004 ACB0     		sub	sp, sp, #176
 375              	.LCFI8:
 376              		.cfi_def_cfa_offset 200
 377 0006 0546     		mov	r5, r0
 148:Middlewares/LVGL/GUI/lvgl/src/widgets/lv_switch.c ****     lv_switch_t * sw = (lv_switch_t *)obj;
 378              		.loc 1 148 5 is_stmt 1 view .LVU98
 148:Middlewares/LVGL/GUI/lvgl/src/widgets/lv_switch.c ****     lv_switch_t * sw = (lv_switch_t *)obj;
 379              		.loc 1 148 22 is_stmt 0 view .LVU99
 380 0008 FFF7FEFF 		bl	lv_event_get_target
 381              	.LVL36:
 148:Middlewares/LVGL/GUI/lvgl/src/widgets/lv_switch.c ****     lv_switch_t * sw = (lv_switch_t *)obj;
 382              		.loc 1 148 22 view .LVU100
 383 000c 0446     		mov	r4, r0
 384              	.LVL37:
 149:Middlewares/LVGL/GUI/lvgl/src/widgets/lv_switch.c **** 
 385              		.loc 1 149 5 is_stmt 1 view .LVU101
 151:Middlewares/LVGL/GUI/lvgl/src/widgets/lv_switch.c **** 
 386              		.loc 1 151 5 view .LVU102
 151:Middlewares/LVGL/GUI/lvgl/src/widgets/lv_switch.c **** 
 387              		.loc 1 151 32 is_stmt 0 view .LVU103
 388 000e 2846     		mov	r0, r5
 389              	.LVL38:
 151:Middlewares/LVGL/GUI/lvgl/src/widgets/lv_switch.c **** 
 390              		.loc 1 151 32 view .LVU104
 391 0010 FFF7FEFF 		bl	lv_event_get_draw_ctx
 392              	.LVL39:
 393 0014 0746     		mov	r7, r0
 394              	.LVL40:
 154:Middlewares/LVGL/GUI/lvgl/src/widgets/lv_switch.c ****     lv_coord_t bg_right = lv_obj_get_style_pad_right(obj,   LV_PART_MAIN);
 395              		.loc 1 154 5 is_stmt 1 view .LVU105
 396              	.LBB61:
 397              	.LBI61:
 103:Middlewares/LVGL/GUI/lvgl/src/widgets/../core/lv_obj_style_gen.h **** {
 398              		.loc 2 103 26 view .LVU106
 399              	.LBB62:
 105:Middlewares/LVGL/GUI/lvgl/src/widgets/../core/lv_obj_style_gen.h ****     return (lv_coord_t)v.num;
 400              		.loc 2 105 5 view .LVU107
 105:Middlewares/LVGL/GUI/lvgl/src/widgets/../core/lv_obj_style_gen.h ****     return (lv_coord_t)v.num;
 401              		.loc 2 105 26 is_stmt 0 view .LVU108
 402 0016 41F61202 		movw	r2, #6162
 403 001a 0021     		movs	r1, #0
 404 001c 2046     		mov	r0, r4
 405              	.LVL41:
 105:Middlewares/LVGL/GUI/lvgl/src/widgets/../core/lv_obj_style_gen.h ****     return (lv_coord_t)v.num;
 406              		.loc 2 105 26 view .LVU109
 407 001e FFF7FEFF 		bl	lv_obj_get_style_prop
 408              	.LVL42:
 409 0022 8046     		mov	r8, r0
 410              	.LVL43:
 106:Middlewares/LVGL/GUI/lvgl/src/widgets/../core/lv_obj_style_gen.h **** }
 411              		.loc 2 106 5 is_stmt 1 view .LVU110
 106:Middlewares/LVGL/GUI/lvgl/src/widgets/../core/lv_obj_style_gen.h **** }
ARM GAS  C:\Users\ADMINI~1\AppData\Local\Temp\ccH3Y31L.s 			page 27


 412              		.loc 2 106 5 is_stmt 0 view .LVU111
 413              	.LBE62:
 414              	.LBE61:
 155:Middlewares/LVGL/GUI/lvgl/src/widgets/lv_switch.c ****     lv_coord_t bg_top = lv_obj_get_style_pad_top(obj,       LV_PART_MAIN);
 415              		.loc 1 155 5 is_stmt 1 view .LVU112
 416              	.LBB63:
 417              	.LBI63:
 109:Middlewares/LVGL/GUI/lvgl/src/widgets/../core/lv_obj_style_gen.h **** {
 418              		.loc 2 109 26 view .LVU113
 419              	.LBB64:
 111:Middlewares/LVGL/GUI/lvgl/src/widgets/../core/lv_obj_style_gen.h ****     return (lv_coord_t)v.num;
 420              		.loc 2 111 5 view .LVU114
 111:Middlewares/LVGL/GUI/lvgl/src/widgets/../core/lv_obj_style_gen.h ****     return (lv_coord_t)v.num;
 421              		.loc 2 111 26 is_stmt 0 view .LVU115
 422 0024 41F61302 		movw	r2, #6163
 423 0028 0021     		movs	r1, #0
 424 002a 2046     		mov	r0, r4
 425              	.LVL44:
 111:Middlewares/LVGL/GUI/lvgl/src/widgets/../core/lv_obj_style_gen.h ****     return (lv_coord_t)v.num;
 426              		.loc 2 111 26 view .LVU116
 427 002c FFF7FEFF 		bl	lv_obj_get_style_prop
 428              	.LVL45:
 429 0030 0646     		mov	r6, r0
 430              	.LVL46:
 112:Middlewares/LVGL/GUI/lvgl/src/widgets/../core/lv_obj_style_gen.h **** }
 431              		.loc 2 112 5 is_stmt 1 view .LVU117
 112:Middlewares/LVGL/GUI/lvgl/src/widgets/../core/lv_obj_style_gen.h **** }
 432              		.loc 2 112 5 is_stmt 0 view .LVU118
 433              	.LBE64:
 434              	.LBE63:
 156:Middlewares/LVGL/GUI/lvgl/src/widgets/lv_switch.c ****     lv_coord_t bg_bottom = lv_obj_get_style_pad_bottom(obj, LV_PART_MAIN);
 435              		.loc 1 156 5 is_stmt 1 view .LVU119
 436              	.LBB65:
 437              	.LBI65:
  91:Middlewares/LVGL/GUI/lvgl/src/widgets/../core/lv_obj_style_gen.h **** {
 438              		.loc 2 91 26 view .LVU120
 439              	.LBB66:
  93:Middlewares/LVGL/GUI/lvgl/src/widgets/../core/lv_obj_style_gen.h ****     return (lv_coord_t)v.num;
 440              		.loc 2 93 5 view .LVU121
  93:Middlewares/LVGL/GUI/lvgl/src/widgets/../core/lv_obj_style_gen.h ****     return (lv_coord_t)v.num;
 441              		.loc 2 93 26 is_stmt 0 view .LVU122
 442 0032 41F61002 		movw	r2, #6160
 443 0036 0021     		movs	r1, #0
 444 0038 2046     		mov	r0, r4
 445              	.LVL47:
  93:Middlewares/LVGL/GUI/lvgl/src/widgets/../core/lv_obj_style_gen.h ****     return (lv_coord_t)v.num;
 446              		.loc 2 93 26 view .LVU123
 447 003a FFF7FEFF 		bl	lv_obj_get_style_prop
 448              	.LVL48:
 449 003e 0546     		mov	r5, r0
 450              	.LVL49:
  94:Middlewares/LVGL/GUI/lvgl/src/widgets/../core/lv_obj_style_gen.h **** }
 451              		.loc 2 94 5 is_stmt 1 view .LVU124
  94:Middlewares/LVGL/GUI/lvgl/src/widgets/../core/lv_obj_style_gen.h **** }
 452              		.loc 2 94 5 is_stmt 0 view .LVU125
 453              	.LBE66:
 454              	.LBE65:
ARM GAS  C:\Users\ADMINI~1\AppData\Local\Temp\ccH3Y31L.s 			page 28


 157:Middlewares/LVGL/GUI/lvgl/src/widgets/lv_switch.c **** 
 455              		.loc 1 157 5 is_stmt 1 view .LVU126
 456              	.LBB67:
 457              	.LBI67:
  97:Middlewares/LVGL/GUI/lvgl/src/widgets/../core/lv_obj_style_gen.h **** {
 458              		.loc 2 97 26 view .LVU127
 459              	.LBB68:
  99:Middlewares/LVGL/GUI/lvgl/src/widgets/../core/lv_obj_style_gen.h ****     return (lv_coord_t)v.num;
 460              		.loc 2 99 5 view .LVU128
  99:Middlewares/LVGL/GUI/lvgl/src/widgets/../core/lv_obj_style_gen.h ****     return (lv_coord_t)v.num;
 461              		.loc 2 99 26 is_stmt 0 view .LVU129
 462 0040 41F61102 		movw	r2, #6161
 463 0044 0021     		movs	r1, #0
 464 0046 2046     		mov	r0, r4
 465              	.LVL50:
  99:Middlewares/LVGL/GUI/lvgl/src/widgets/../core/lv_obj_style_gen.h ****     return (lv_coord_t)v.num;
 466              		.loc 2 99 26 view .LVU130
 467 0048 FFF7FEFF 		bl	lv_obj_get_style_prop
 468              	.LVL51:
 100:Middlewares/LVGL/GUI/lvgl/src/widgets/../core/lv_obj_style_gen.h **** }
 469              		.loc 2 100 5 is_stmt 1 view .LVU131
 100:Middlewares/LVGL/GUI/lvgl/src/widgets/../core/lv_obj_style_gen.h **** }
 470              		.loc 2 100 5 is_stmt 0 view .LVU132
 471              	.LBE68:
 472              	.LBE67:
 161:Middlewares/LVGL/GUI/lvgl/src/widgets/lv_switch.c ****     lv_area_copy(&indic_area, &obj->coords);
 473              		.loc 1 161 5 is_stmt 1 view .LVU133
 162:Middlewares/LVGL/GUI/lvgl/src/widgets/lv_switch.c ****     indic_area.x1 += bg_left;
 474              		.loc 1 162 5 view .LVU134
 475              	.LBB69:
 476              	.LBI69:
 477              		.file 4 "Middlewares/LVGL/GUI/lvgl/src/widgets/../core/../misc/../font/../misc/lv_area.h"
   1:Middlewares/LVGL/GUI/lvgl/src/widgets/../core/../misc/../font/../misc/lv_area.h **** /**
   2:Middlewares/LVGL/GUI/lvgl/src/widgets/../core/../misc/../font/../misc/lv_area.h ****  * @file lv_area.h
   3:Middlewares/LVGL/GUI/lvgl/src/widgets/../core/../misc/../font/../misc/lv_area.h ****  *
   4:Middlewares/LVGL/GUI/lvgl/src/widgets/../core/../misc/../font/../misc/lv_area.h ****  */
   5:Middlewares/LVGL/GUI/lvgl/src/widgets/../core/../misc/../font/../misc/lv_area.h **** 
   6:Middlewares/LVGL/GUI/lvgl/src/widgets/../core/../misc/../font/../misc/lv_area.h **** #ifndef LV_AREA_H
   7:Middlewares/LVGL/GUI/lvgl/src/widgets/../core/../misc/../font/../misc/lv_area.h **** #define LV_AREA_H
   8:Middlewares/LVGL/GUI/lvgl/src/widgets/../core/../misc/../font/../misc/lv_area.h **** 
   9:Middlewares/LVGL/GUI/lvgl/src/widgets/../core/../misc/../font/../misc/lv_area.h **** #ifdef __cplusplus
  10:Middlewares/LVGL/GUI/lvgl/src/widgets/../core/../misc/../font/../misc/lv_area.h **** extern "C" {
  11:Middlewares/LVGL/GUI/lvgl/src/widgets/../core/../misc/../font/../misc/lv_area.h **** #endif
  12:Middlewares/LVGL/GUI/lvgl/src/widgets/../core/../misc/../font/../misc/lv_area.h **** 
  13:Middlewares/LVGL/GUI/lvgl/src/widgets/../core/../misc/../font/../misc/lv_area.h **** /*********************
  14:Middlewares/LVGL/GUI/lvgl/src/widgets/../core/../misc/../font/../misc/lv_area.h ****  *      INCLUDES
  15:Middlewares/LVGL/GUI/lvgl/src/widgets/../core/../misc/../font/../misc/lv_area.h ****  *********************/
  16:Middlewares/LVGL/GUI/lvgl/src/widgets/../core/../misc/../font/../misc/lv_area.h **** #include "../lv_conf_internal.h"
  17:Middlewares/LVGL/GUI/lvgl/src/widgets/../core/../misc/../font/../misc/lv_area.h **** #include <stdbool.h>
  18:Middlewares/LVGL/GUI/lvgl/src/widgets/../core/../misc/../font/../misc/lv_area.h **** #include <stdint.h>
  19:Middlewares/LVGL/GUI/lvgl/src/widgets/../core/../misc/../font/../misc/lv_area.h **** 
  20:Middlewares/LVGL/GUI/lvgl/src/widgets/../core/../misc/../font/../misc/lv_area.h **** /*********************
  21:Middlewares/LVGL/GUI/lvgl/src/widgets/../core/../misc/../font/../misc/lv_area.h ****  *      DEFINES
  22:Middlewares/LVGL/GUI/lvgl/src/widgets/../core/../misc/../font/../misc/lv_area.h ****  *********************/
  23:Middlewares/LVGL/GUI/lvgl/src/widgets/../core/../misc/../font/../misc/lv_area.h **** 
  24:Middlewares/LVGL/GUI/lvgl/src/widgets/../core/../misc/../font/../misc/lv_area.h **** #if LV_USE_LARGE_COORD
  25:Middlewares/LVGL/GUI/lvgl/src/widgets/../core/../misc/../font/../misc/lv_area.h **** typedef int32_t lv_coord_t;
ARM GAS  C:\Users\ADMINI~1\AppData\Local\Temp\ccH3Y31L.s 			page 29


  26:Middlewares/LVGL/GUI/lvgl/src/widgets/../core/../misc/../font/../misc/lv_area.h **** #else
  27:Middlewares/LVGL/GUI/lvgl/src/widgets/../core/../misc/../font/../misc/lv_area.h **** typedef int16_t lv_coord_t;
  28:Middlewares/LVGL/GUI/lvgl/src/widgets/../core/../misc/../font/../misc/lv_area.h **** #endif
  29:Middlewares/LVGL/GUI/lvgl/src/widgets/../core/../misc/../font/../misc/lv_area.h **** 
  30:Middlewares/LVGL/GUI/lvgl/src/widgets/../core/../misc/../font/../misc/lv_area.h **** /**********************
  31:Middlewares/LVGL/GUI/lvgl/src/widgets/../core/../misc/../font/../misc/lv_area.h ****  *      TYPEDEFS
  32:Middlewares/LVGL/GUI/lvgl/src/widgets/../core/../misc/../font/../misc/lv_area.h ****  **********************/
  33:Middlewares/LVGL/GUI/lvgl/src/widgets/../core/../misc/../font/../misc/lv_area.h **** 
  34:Middlewares/LVGL/GUI/lvgl/src/widgets/../core/../misc/../font/../misc/lv_area.h **** /**
  35:Middlewares/LVGL/GUI/lvgl/src/widgets/../core/../misc/../font/../misc/lv_area.h ****  * Represents a point on the screen.
  36:Middlewares/LVGL/GUI/lvgl/src/widgets/../core/../misc/../font/../misc/lv_area.h ****  */
  37:Middlewares/LVGL/GUI/lvgl/src/widgets/../core/../misc/../font/../misc/lv_area.h **** typedef struct {
  38:Middlewares/LVGL/GUI/lvgl/src/widgets/../core/../misc/../font/../misc/lv_area.h ****     lv_coord_t x;
  39:Middlewares/LVGL/GUI/lvgl/src/widgets/../core/../misc/../font/../misc/lv_area.h ****     lv_coord_t y;
  40:Middlewares/LVGL/GUI/lvgl/src/widgets/../core/../misc/../font/../misc/lv_area.h **** } lv_point_t;
  41:Middlewares/LVGL/GUI/lvgl/src/widgets/../core/../misc/../font/../misc/lv_area.h **** 
  42:Middlewares/LVGL/GUI/lvgl/src/widgets/../core/../misc/../font/../misc/lv_area.h **** /** Represents an area of the screen.*/
  43:Middlewares/LVGL/GUI/lvgl/src/widgets/../core/../misc/../font/../misc/lv_area.h **** typedef struct {
  44:Middlewares/LVGL/GUI/lvgl/src/widgets/../core/../misc/../font/../misc/lv_area.h ****     lv_coord_t x1;
  45:Middlewares/LVGL/GUI/lvgl/src/widgets/../core/../misc/../font/../misc/lv_area.h ****     lv_coord_t y1;
  46:Middlewares/LVGL/GUI/lvgl/src/widgets/../core/../misc/../font/../misc/lv_area.h ****     lv_coord_t x2;
  47:Middlewares/LVGL/GUI/lvgl/src/widgets/../core/../misc/../font/../misc/lv_area.h ****     lv_coord_t y2;
  48:Middlewares/LVGL/GUI/lvgl/src/widgets/../core/../misc/../font/../misc/lv_area.h **** } lv_area_t;
  49:Middlewares/LVGL/GUI/lvgl/src/widgets/../core/../misc/../font/../misc/lv_area.h **** 
  50:Middlewares/LVGL/GUI/lvgl/src/widgets/../core/../misc/../font/../misc/lv_area.h **** /** Alignments*/
  51:Middlewares/LVGL/GUI/lvgl/src/widgets/../core/../misc/../font/../misc/lv_area.h **** enum {
  52:Middlewares/LVGL/GUI/lvgl/src/widgets/../core/../misc/../font/../misc/lv_area.h ****     LV_ALIGN_DEFAULT = 0,
  53:Middlewares/LVGL/GUI/lvgl/src/widgets/../core/../misc/../font/../misc/lv_area.h ****     LV_ALIGN_TOP_LEFT,
  54:Middlewares/LVGL/GUI/lvgl/src/widgets/../core/../misc/../font/../misc/lv_area.h ****     LV_ALIGN_TOP_MID,
  55:Middlewares/LVGL/GUI/lvgl/src/widgets/../core/../misc/../font/../misc/lv_area.h ****     LV_ALIGN_TOP_RIGHT,
  56:Middlewares/LVGL/GUI/lvgl/src/widgets/../core/../misc/../font/../misc/lv_area.h ****     LV_ALIGN_BOTTOM_LEFT,
  57:Middlewares/LVGL/GUI/lvgl/src/widgets/../core/../misc/../font/../misc/lv_area.h ****     LV_ALIGN_BOTTOM_MID,
  58:Middlewares/LVGL/GUI/lvgl/src/widgets/../core/../misc/../font/../misc/lv_area.h ****     LV_ALIGN_BOTTOM_RIGHT,
  59:Middlewares/LVGL/GUI/lvgl/src/widgets/../core/../misc/../font/../misc/lv_area.h ****     LV_ALIGN_LEFT_MID,
  60:Middlewares/LVGL/GUI/lvgl/src/widgets/../core/../misc/../font/../misc/lv_area.h ****     LV_ALIGN_RIGHT_MID,
  61:Middlewares/LVGL/GUI/lvgl/src/widgets/../core/../misc/../font/../misc/lv_area.h ****     LV_ALIGN_CENTER,
  62:Middlewares/LVGL/GUI/lvgl/src/widgets/../core/../misc/../font/../misc/lv_area.h **** 
  63:Middlewares/LVGL/GUI/lvgl/src/widgets/../core/../misc/../font/../misc/lv_area.h ****     LV_ALIGN_OUT_TOP_LEFT,
  64:Middlewares/LVGL/GUI/lvgl/src/widgets/../core/../misc/../font/../misc/lv_area.h ****     LV_ALIGN_OUT_TOP_MID,
  65:Middlewares/LVGL/GUI/lvgl/src/widgets/../core/../misc/../font/../misc/lv_area.h ****     LV_ALIGN_OUT_TOP_RIGHT,
  66:Middlewares/LVGL/GUI/lvgl/src/widgets/../core/../misc/../font/../misc/lv_area.h ****     LV_ALIGN_OUT_BOTTOM_LEFT,
  67:Middlewares/LVGL/GUI/lvgl/src/widgets/../core/../misc/../font/../misc/lv_area.h ****     LV_ALIGN_OUT_BOTTOM_MID,
  68:Middlewares/LVGL/GUI/lvgl/src/widgets/../core/../misc/../font/../misc/lv_area.h ****     LV_ALIGN_OUT_BOTTOM_RIGHT,
  69:Middlewares/LVGL/GUI/lvgl/src/widgets/../core/../misc/../font/../misc/lv_area.h ****     LV_ALIGN_OUT_LEFT_TOP,
  70:Middlewares/LVGL/GUI/lvgl/src/widgets/../core/../misc/../font/../misc/lv_area.h ****     LV_ALIGN_OUT_LEFT_MID,
  71:Middlewares/LVGL/GUI/lvgl/src/widgets/../core/../misc/../font/../misc/lv_area.h ****     LV_ALIGN_OUT_LEFT_BOTTOM,
  72:Middlewares/LVGL/GUI/lvgl/src/widgets/../core/../misc/../font/../misc/lv_area.h ****     LV_ALIGN_OUT_RIGHT_TOP,
  73:Middlewares/LVGL/GUI/lvgl/src/widgets/../core/../misc/../font/../misc/lv_area.h ****     LV_ALIGN_OUT_RIGHT_MID,
  74:Middlewares/LVGL/GUI/lvgl/src/widgets/../core/../misc/../font/../misc/lv_area.h ****     LV_ALIGN_OUT_RIGHT_BOTTOM,
  75:Middlewares/LVGL/GUI/lvgl/src/widgets/../core/../misc/../font/../misc/lv_area.h **** };
  76:Middlewares/LVGL/GUI/lvgl/src/widgets/../core/../misc/../font/../misc/lv_area.h **** typedef uint8_t lv_align_t;
  77:Middlewares/LVGL/GUI/lvgl/src/widgets/../core/../misc/../font/../misc/lv_area.h **** 
  78:Middlewares/LVGL/GUI/lvgl/src/widgets/../core/../misc/../font/../misc/lv_area.h **** enum {
  79:Middlewares/LVGL/GUI/lvgl/src/widgets/../core/../misc/../font/../misc/lv_area.h ****     LV_DIR_NONE     = 0x00,
  80:Middlewares/LVGL/GUI/lvgl/src/widgets/../core/../misc/../font/../misc/lv_area.h ****     LV_DIR_LEFT     = (1 << 0),
  81:Middlewares/LVGL/GUI/lvgl/src/widgets/../core/../misc/../font/../misc/lv_area.h ****     LV_DIR_RIGHT    = (1 << 1),
  82:Middlewares/LVGL/GUI/lvgl/src/widgets/../core/../misc/../font/../misc/lv_area.h ****     LV_DIR_TOP      = (1 << 2),
ARM GAS  C:\Users\ADMINI~1\AppData\Local\Temp\ccH3Y31L.s 			page 30


  83:Middlewares/LVGL/GUI/lvgl/src/widgets/../core/../misc/../font/../misc/lv_area.h ****     LV_DIR_BOTTOM   = (1 << 3),
  84:Middlewares/LVGL/GUI/lvgl/src/widgets/../core/../misc/../font/../misc/lv_area.h ****     LV_DIR_HOR      = LV_DIR_LEFT | LV_DIR_RIGHT,
  85:Middlewares/LVGL/GUI/lvgl/src/widgets/../core/../misc/../font/../misc/lv_area.h ****     LV_DIR_VER      = LV_DIR_TOP | LV_DIR_BOTTOM,
  86:Middlewares/LVGL/GUI/lvgl/src/widgets/../core/../misc/../font/../misc/lv_area.h ****     LV_DIR_ALL      = LV_DIR_HOR | LV_DIR_VER,
  87:Middlewares/LVGL/GUI/lvgl/src/widgets/../core/../misc/../font/../misc/lv_area.h **** };
  88:Middlewares/LVGL/GUI/lvgl/src/widgets/../core/../misc/../font/../misc/lv_area.h **** 
  89:Middlewares/LVGL/GUI/lvgl/src/widgets/../core/../misc/../font/../misc/lv_area.h **** typedef uint8_t lv_dir_t;
  90:Middlewares/LVGL/GUI/lvgl/src/widgets/../core/../misc/../font/../misc/lv_area.h **** 
  91:Middlewares/LVGL/GUI/lvgl/src/widgets/../core/../misc/../font/../misc/lv_area.h **** /**********************
  92:Middlewares/LVGL/GUI/lvgl/src/widgets/../core/../misc/../font/../misc/lv_area.h ****  * GLOBAL PROTOTYPES
  93:Middlewares/LVGL/GUI/lvgl/src/widgets/../core/../misc/../font/../misc/lv_area.h ****  **********************/
  94:Middlewares/LVGL/GUI/lvgl/src/widgets/../core/../misc/../font/../misc/lv_area.h **** 
  95:Middlewares/LVGL/GUI/lvgl/src/widgets/../core/../misc/../font/../misc/lv_area.h **** /**
  96:Middlewares/LVGL/GUI/lvgl/src/widgets/../core/../misc/../font/../misc/lv_area.h ****  * Initialize an area
  97:Middlewares/LVGL/GUI/lvgl/src/widgets/../core/../misc/../font/../misc/lv_area.h ****  * @param area_p pointer to an area
  98:Middlewares/LVGL/GUI/lvgl/src/widgets/../core/../misc/../font/../misc/lv_area.h ****  * @param x1 left coordinate of the area
  99:Middlewares/LVGL/GUI/lvgl/src/widgets/../core/../misc/../font/../misc/lv_area.h ****  * @param y1 top coordinate of the area
 100:Middlewares/LVGL/GUI/lvgl/src/widgets/../core/../misc/../font/../misc/lv_area.h ****  * @param x2 right coordinate of the area
 101:Middlewares/LVGL/GUI/lvgl/src/widgets/../core/../misc/../font/../misc/lv_area.h ****  * @param y2 bottom coordinate of the area
 102:Middlewares/LVGL/GUI/lvgl/src/widgets/../core/../misc/../font/../misc/lv_area.h ****  */
 103:Middlewares/LVGL/GUI/lvgl/src/widgets/../core/../misc/../font/../misc/lv_area.h **** void lv_area_set(lv_area_t * area_p, lv_coord_t x1, lv_coord_t y1, lv_coord_t x2, lv_coord_t y2);
 104:Middlewares/LVGL/GUI/lvgl/src/widgets/../core/../misc/../font/../misc/lv_area.h **** 
 105:Middlewares/LVGL/GUI/lvgl/src/widgets/../core/../misc/../font/../misc/lv_area.h **** /**
 106:Middlewares/LVGL/GUI/lvgl/src/widgets/../core/../misc/../font/../misc/lv_area.h ****  * Copy an area
 107:Middlewares/LVGL/GUI/lvgl/src/widgets/../core/../misc/../font/../misc/lv_area.h ****  * @param dest pointer to the destination area
 108:Middlewares/LVGL/GUI/lvgl/src/widgets/../core/../misc/../font/../misc/lv_area.h ****  * @param src pointer to the source area
 109:Middlewares/LVGL/GUI/lvgl/src/widgets/../core/../misc/../font/../misc/lv_area.h ****  */
 110:Middlewares/LVGL/GUI/lvgl/src/widgets/../core/../misc/../font/../misc/lv_area.h **** inline static void lv_area_copy(lv_area_t * dest, const lv_area_t * src)
 478              		.loc 4 110 20 view .LVU135
 479              	.LBB70:
 111:Middlewares/LVGL/GUI/lvgl/src/widgets/../core/../misc/../font/../misc/lv_area.h **** {
 112:Middlewares/LVGL/GUI/lvgl/src/widgets/../core/../misc/../font/../misc/lv_area.h ****     dest->x1 = src->x1;
 480              		.loc 4 112 5 view .LVU136
 481              		.loc 4 112 19 is_stmt 0 view .LVU137
 482 004c D4F814C0 		ldr	ip, [r4, #20]
 483              		.loc 4 112 14 view .LVU138
 484 0050 CDF8A0C0 		str	ip, [sp, #160]
 113:Middlewares/LVGL/GUI/lvgl/src/widgets/../core/../misc/../font/../misc/lv_area.h ****     dest->y1 = src->y1;
 485              		.loc 4 113 5 is_stmt 1 view .LVU139
 486              		.loc 4 113 19 is_stmt 0 view .LVU140
 487 0054 A269     		ldr	r2, [r4, #24]
 488              		.loc 4 113 14 view .LVU141
 489 0056 2992     		str	r2, [sp, #164]
 114:Middlewares/LVGL/GUI/lvgl/src/widgets/../core/../misc/../font/../misc/lv_area.h ****     dest->x2 = src->x2;
 490              		.loc 4 114 5 is_stmt 1 view .LVU142
 491              		.loc 4 114 19 is_stmt 0 view .LVU143
 492 0058 E169     		ldr	r1, [r4, #28]
 493              		.loc 4 114 14 view .LVU144
 494 005a 2A91     		str	r1, [sp, #168]
 115:Middlewares/LVGL/GUI/lvgl/src/widgets/../core/../misc/../font/../misc/lv_area.h ****     dest->y2 = src->y2;
 495              		.loc 4 115 5 is_stmt 1 view .LVU145
 496              		.loc 4 115 19 is_stmt 0 view .LVU146
 497 005c 236A     		ldr	r3, [r4, #32]
 498              		.loc 4 115 14 view .LVU147
 499 005e 2B93     		str	r3, [sp, #172]
 500              	.LVL52:
 501              		.loc 4 115 14 view .LVU148
ARM GAS  C:\Users\ADMINI~1\AppData\Local\Temp\ccH3Y31L.s 			page 31


 502              	.LBE70:
 503              	.LBE69:
 163:Middlewares/LVGL/GUI/lvgl/src/widgets/lv_switch.c ****     indic_area.x2 -= bg_right;
 504              		.loc 1 163 5 is_stmt 1 view .LVU149
 163:Middlewares/LVGL/GUI/lvgl/src/widgets/lv_switch.c ****     indic_area.x2 -= bg_right;
 505              		.loc 1 163 19 is_stmt 0 view .LVU150
 506 0060 C444     		add	ip, ip, r8
 507 0062 CDF8A0C0 		str	ip, [sp, #160]
 164:Middlewares/LVGL/GUI/lvgl/src/widgets/lv_switch.c ****     indic_area.y1 += bg_top;
 508              		.loc 1 164 5 is_stmt 1 view .LVU151
 164:Middlewares/LVGL/GUI/lvgl/src/widgets/lv_switch.c ****     indic_area.y1 += bg_top;
 509              		.loc 1 164 19 is_stmt 0 view .LVU152
 510 0066 891B     		subs	r1, r1, r6
 511 0068 2A91     		str	r1, [sp, #168]
 165:Middlewares/LVGL/GUI/lvgl/src/widgets/lv_switch.c ****     indic_area.y2 -= bg_bottom;
 512              		.loc 1 165 5 is_stmt 1 view .LVU153
 165:Middlewares/LVGL/GUI/lvgl/src/widgets/lv_switch.c ****     indic_area.y2 -= bg_bottom;
 513              		.loc 1 165 19 is_stmt 0 view .LVU154
 514 006a 2A44     		add	r2, r2, r5
 515 006c 2992     		str	r2, [sp, #164]
 166:Middlewares/LVGL/GUI/lvgl/src/widgets/lv_switch.c **** 
 516              		.loc 1 166 5 is_stmt 1 view .LVU155
 166:Middlewares/LVGL/GUI/lvgl/src/widgets/lv_switch.c **** 
 517              		.loc 1 166 19 is_stmt 0 view .LVU156
 518 006e 1B1A     		subs	r3, r3, r0
 519 0070 2B93     		str	r3, [sp, #172]
 168:Middlewares/LVGL/GUI/lvgl/src/widgets/lv_switch.c ****     lv_draw_rect_dsc_init(&draw_indic_dsc);
 520              		.loc 1 168 5 is_stmt 1 view .LVU157
 169:Middlewares/LVGL/GUI/lvgl/src/widgets/lv_switch.c ****     lv_obj_init_draw_rect_dsc(obj, LV_PART_INDICATOR, &draw_indic_dsc);
 521              		.loc 1 169 5 view .LVU158
 522 0072 16A8     		add	r0, sp, #88
 523              	.LVL53:
 169:Middlewares/LVGL/GUI/lvgl/src/widgets/lv_switch.c ****     lv_obj_init_draw_rect_dsc(obj, LV_PART_INDICATOR, &draw_indic_dsc);
 524              		.loc 1 169 5 is_stmt 0 view .LVU159
 525 0074 FFF7FEFF 		bl	lv_draw_rect_dsc_init
 526              	.LVL54:
 170:Middlewares/LVGL/GUI/lvgl/src/widgets/lv_switch.c ****     lv_draw_rect(draw_ctx, &draw_indic_dsc, &indic_area);
 527              		.loc 1 170 5 is_stmt 1 view .LVU160
 528 0078 16AA     		add	r2, sp, #88
 529 007a 4FF40031 		mov	r1, #131072
 530 007e 2046     		mov	r0, r4
 531 0080 FFF7FEFF 		bl	lv_obj_init_draw_rect_dsc
 532              	.LVL55:
 171:Middlewares/LVGL/GUI/lvgl/src/widgets/lv_switch.c **** 
 533              		.loc 1 171 5 view .LVU161
 534 0084 28AA     		add	r2, sp, #160
 535 0086 16A9     		add	r1, sp, #88
 536 0088 3846     		mov	r0, r7
 537 008a FFF7FEFF 		bl	lv_draw_rect
 538              	.LVL56:
 174:Middlewares/LVGL/GUI/lvgl/src/widgets/lv_switch.c ****     lv_coord_t knob_size = lv_obj_get_height(obj);
 539              		.loc 1 174 5 view .LVU162
 175:Middlewares/LVGL/GUI/lvgl/src/widgets/lv_switch.c ****     lv_coord_t anim_length = lv_area_get_width(&obj->coords) - knob_size;
 540              		.loc 1 175 5 view .LVU163
 175:Middlewares/LVGL/GUI/lvgl/src/widgets/lv_switch.c ****     lv_coord_t anim_length = lv_area_get_width(&obj->coords) - knob_size;
 541              		.loc 1 175 28 is_stmt 0 view .LVU164
 542 008e 2046     		mov	r0, r4
ARM GAS  C:\Users\ADMINI~1\AppData\Local\Temp\ccH3Y31L.s 			page 32


 543 0090 FFF7FEFF 		bl	lv_obj_get_height
 544              	.LVL57:
 545 0094 8046     		mov	r8, r0
 546              	.LVL58:
 176:Middlewares/LVGL/GUI/lvgl/src/widgets/lv_switch.c **** 
 547              		.loc 1 176 5 is_stmt 1 view .LVU165
 548              	.LBB71:
 549              	.LBI71:
 116:Middlewares/LVGL/GUI/lvgl/src/widgets/../core/../misc/../font/../misc/lv_area.h **** }
 117:Middlewares/LVGL/GUI/lvgl/src/widgets/../core/../misc/../font/../misc/lv_area.h **** 
 118:Middlewares/LVGL/GUI/lvgl/src/widgets/../core/../misc/../font/../misc/lv_area.h **** /**
 119:Middlewares/LVGL/GUI/lvgl/src/widgets/../core/../misc/../font/../misc/lv_area.h ****  * Get the width of an area
 120:Middlewares/LVGL/GUI/lvgl/src/widgets/../core/../misc/../font/../misc/lv_area.h ****  * @param area_p pointer to an area
 121:Middlewares/LVGL/GUI/lvgl/src/widgets/../core/../misc/../font/../misc/lv_area.h ****  * @return the width of the area (if x1 == x2 -> width = 1)
 122:Middlewares/LVGL/GUI/lvgl/src/widgets/../core/../misc/../font/../misc/lv_area.h ****  */
 123:Middlewares/LVGL/GUI/lvgl/src/widgets/../core/../misc/../font/../misc/lv_area.h **** static inline lv_coord_t lv_area_get_width(const lv_area_t * area_p)
 550              		.loc 4 123 26 view .LVU166
 551              	.LBB72:
 124:Middlewares/LVGL/GUI/lvgl/src/widgets/../core/../misc/../font/../misc/lv_area.h **** {
 125:Middlewares/LVGL/GUI/lvgl/src/widgets/../core/../misc/../font/../misc/lv_area.h ****     return (lv_coord_t)(area_p->x2 - area_p->x1 + 1);
 552              		.loc 4 125 5 view .LVU167
 553              		.loc 4 125 31 is_stmt 0 view .LVU168
 554 0096 E669     		ldr	r6, [r4, #28]
 555              	.LVL59:
 556              		.loc 4 125 44 view .LVU169
 557 0098 6369     		ldr	r3, [r4, #20]
 558              		.loc 4 125 36 view .LVU170
 559 009a F61A     		subs	r6, r6, r3
 560              		.loc 4 125 12 view .LVU171
 561 009c 0136     		adds	r6, r6, #1
 562              	.LVL60:
 563              		.loc 4 125 12 view .LVU172
 564              	.LBE72:
 565              	.LBE71:
 176:Middlewares/LVGL/GUI/lvgl/src/widgets/lv_switch.c **** 
 566              		.loc 1 176 16 view .LVU173
 567 009e 361A     		subs	r6, r6, r0
 568              	.LVL61:
 178:Middlewares/LVGL/GUI/lvgl/src/widgets/lv_switch.c ****         /* Use the animation's coordinate */
 569              		.loc 1 178 5 is_stmt 1 view .LVU174
 178:Middlewares/LVGL/GUI/lvgl/src/widgets/lv_switch.c ****         /* Use the animation's coordinate */
 570              		.loc 1 178 8 is_stmt 0 view .LVU175
 571 00a0 E36A     		ldr	r3, [r4, #44]
 178:Middlewares/LVGL/GUI/lvgl/src/widgets/lv_switch.c ****         /* Use the animation's coordinate */
 572              		.loc 1 178 7 view .LVU176
 573 00a2 B3F1FF3F 		cmp	r3, #-1
 574 00a6 55D0     		beq	.L21
 180:Middlewares/LVGL/GUI/lvgl/src/widgets/lv_switch.c ****     }
 575              		.loc 1 180 9 is_stmt 1 view .LVU177
 180:Middlewares/LVGL/GUI/lvgl/src/widgets/lv_switch.c ****     }
 576              		.loc 1 180 37 is_stmt 0 view .LVU178
 577 00a8 06FB03F3 		mul	r3, r6, r3
 180:Middlewares/LVGL/GUI/lvgl/src/widgets/lv_switch.c ****     }
 578              		.loc 1 180 22 view .LVU179
 579 00ac 002B     		cmp	r3, #0
 580 00ae 4FDB     		blt	.L27
 581              	.L22:
ARM GAS  C:\Users\ADMINI~1\AppData\Local\Temp\ccH3Y31L.s 			page 33


 582 00b0 1D12     		asrs	r5, r3, #8
 583              	.LVL62:
 584              	.L23:
 188:Middlewares/LVGL/GUI/lvgl/src/widgets/lv_switch.c ****         anim_value_x = anim_length - anim_value_x;
 585              		.loc 1 188 5 is_stmt 1 view .LVU180
 586              	.LBB73:
 587              	.LBI73:
 516:Middlewares/LVGL/GUI/lvgl/src/widgets/../core/lv_obj_style_gen.h **** }
 517:Middlewares/LVGL/GUI/lvgl/src/widgets/../core/lv_obj_style_gen.h **** 
 518:Middlewares/LVGL/GUI/lvgl/src/widgets/../core/lv_obj_style_gen.h **** static inline uint32_t lv_obj_get_style_anim_speed(const struct _lv_obj_t * obj, uint32_t part)
 519:Middlewares/LVGL/GUI/lvgl/src/widgets/../core/lv_obj_style_gen.h **** {
 520:Middlewares/LVGL/GUI/lvgl/src/widgets/../core/lv_obj_style_gen.h ****     lv_style_value_t v = lv_obj_get_style_prop(obj, part, LV_STYLE_ANIM_SPEED);
 521:Middlewares/LVGL/GUI/lvgl/src/widgets/../core/lv_obj_style_gen.h ****     return (uint32_t)v.num;
 522:Middlewares/LVGL/GUI/lvgl/src/widgets/../core/lv_obj_style_gen.h **** }
 523:Middlewares/LVGL/GUI/lvgl/src/widgets/../core/lv_obj_style_gen.h **** 
 524:Middlewares/LVGL/GUI/lvgl/src/widgets/../core/lv_obj_style_gen.h **** static inline const lv_style_transition_dsc_t * lv_obj_get_style_transition(const struct _lv_obj_t 
 525:Middlewares/LVGL/GUI/lvgl/src/widgets/../core/lv_obj_style_gen.h **** {
 526:Middlewares/LVGL/GUI/lvgl/src/widgets/../core/lv_obj_style_gen.h ****     lv_style_value_t v = lv_obj_get_style_prop(obj, part, LV_STYLE_TRANSITION);
 527:Middlewares/LVGL/GUI/lvgl/src/widgets/../core/lv_obj_style_gen.h ****     return (const lv_style_transition_dsc_t *)v.ptr;
 528:Middlewares/LVGL/GUI/lvgl/src/widgets/../core/lv_obj_style_gen.h **** }
 529:Middlewares/LVGL/GUI/lvgl/src/widgets/../core/lv_obj_style_gen.h **** 
 530:Middlewares/LVGL/GUI/lvgl/src/widgets/../core/lv_obj_style_gen.h **** static inline lv_blend_mode_t lv_obj_get_style_blend_mode(const struct _lv_obj_t * obj, uint32_t pa
 531:Middlewares/LVGL/GUI/lvgl/src/widgets/../core/lv_obj_style_gen.h **** {
 532:Middlewares/LVGL/GUI/lvgl/src/widgets/../core/lv_obj_style_gen.h ****     lv_style_value_t v = lv_obj_get_style_prop(obj, part, LV_STYLE_BLEND_MODE);
 533:Middlewares/LVGL/GUI/lvgl/src/widgets/../core/lv_obj_style_gen.h ****     return (lv_blend_mode_t)v.num;
 534:Middlewares/LVGL/GUI/lvgl/src/widgets/../core/lv_obj_style_gen.h **** }
 535:Middlewares/LVGL/GUI/lvgl/src/widgets/../core/lv_obj_style_gen.h **** 
 536:Middlewares/LVGL/GUI/lvgl/src/widgets/../core/lv_obj_style_gen.h **** static inline uint16_t lv_obj_get_style_layout(const struct _lv_obj_t * obj, uint32_t part)
 537:Middlewares/LVGL/GUI/lvgl/src/widgets/../core/lv_obj_style_gen.h **** {
 538:Middlewares/LVGL/GUI/lvgl/src/widgets/../core/lv_obj_style_gen.h ****     lv_style_value_t v = lv_obj_get_style_prop(obj, part, LV_STYLE_LAYOUT);
 539:Middlewares/LVGL/GUI/lvgl/src/widgets/../core/lv_obj_style_gen.h ****     return (uint16_t)v.num;
 540:Middlewares/LVGL/GUI/lvgl/src/widgets/../core/lv_obj_style_gen.h **** }
 541:Middlewares/LVGL/GUI/lvgl/src/widgets/../core/lv_obj_style_gen.h **** 
 542:Middlewares/LVGL/GUI/lvgl/src/widgets/../core/lv_obj_style_gen.h **** static inline lv_base_dir_t lv_obj_get_style_base_dir(const struct _lv_obj_t * obj, uint32_t part)
 588              		.loc 2 542 29 view .LVU181
 589              	.LBB74:
 543:Middlewares/LVGL/GUI/lvgl/src/widgets/../core/lv_obj_style_gen.h **** {
 544:Middlewares/LVGL/GUI/lvgl/src/widgets/../core/lv_obj_style_gen.h ****     lv_style_value_t v = lv_obj_get_style_prop(obj, part, LV_STYLE_BASE_DIR);
 590              		.loc 2 544 5 view .LVU182
 591              		.loc 2 544 26 is_stmt 0 view .LVU183
 592 00b2 41F26A42 		movw	r2, #5226
 593 00b6 0021     		movs	r1, #0
 594 00b8 2046     		mov	r0, r4
 595 00ba FFF7FEFF 		bl	lv_obj_get_style_prop
 596              	.LVL63:
 545:Middlewares/LVGL/GUI/lvgl/src/widgets/../core/lv_obj_style_gen.h ****     return (lv_base_dir_t)v.num;
 597              		.loc 2 545 5 is_stmt 1 view .LVU184
 598              		.loc 2 545 12 is_stmt 0 view .LVU185
 599 00be C0B2     		uxtb	r0, r0
 600              	.LVL64:
 601              		.loc 2 545 12 view .LVU186
 602              	.LBE74:
 603              	.LBE73:
 188:Middlewares/LVGL/GUI/lvgl/src/widgets/lv_switch.c ****         anim_value_x = anim_length - anim_value_x;
 604              		.loc 1 188 7 view .LVU187
 605 00c0 0128     		cmp	r0, #1
 606 00c2 51D0     		beq	.L28
ARM GAS  C:\Users\ADMINI~1\AppData\Local\Temp\ccH3Y31L.s 			page 34


 607              	.L24:
 192:Middlewares/LVGL/GUI/lvgl/src/widgets/lv_switch.c ****     knob_area.x1 = obj->coords.x1 + anim_value_x;
 608              		.loc 1 192 5 is_stmt 1 view .LVU188
 193:Middlewares/LVGL/GUI/lvgl/src/widgets/lv_switch.c ****     knob_area.x2 = knob_area.x1 + knob_size;
 609              		.loc 1 193 5 view .LVU189
 193:Middlewares/LVGL/GUI/lvgl/src/widgets/lv_switch.c ****     knob_area.x2 = knob_area.x1 + knob_size;
 610              		.loc 1 193 31 is_stmt 0 view .LVU190
 611 00c4 6369     		ldr	r3, [r4, #20]
 193:Middlewares/LVGL/GUI/lvgl/src/widgets/lv_switch.c ****     knob_area.x2 = knob_area.x1 + knob_size;
 612              		.loc 1 193 35 view .LVU191
 613 00c6 2B44     		add	r3, r3, r5
 193:Middlewares/LVGL/GUI/lvgl/src/widgets/lv_switch.c ****     knob_area.x2 = knob_area.x1 + knob_size;
 614              		.loc 1 193 18 view .LVU192
 615 00c8 1293     		str	r3, [sp, #72]
 194:Middlewares/LVGL/GUI/lvgl/src/widgets/lv_switch.c **** 
 616              		.loc 1 194 5 is_stmt 1 view .LVU193
 194:Middlewares/LVGL/GUI/lvgl/src/widgets/lv_switch.c **** 
 617              		.loc 1 194 33 is_stmt 0 view .LVU194
 618 00ca 4344     		add	r3, r3, r8
 194:Middlewares/LVGL/GUI/lvgl/src/widgets/lv_switch.c **** 
 619              		.loc 1 194 18 view .LVU195
 620 00cc 1493     		str	r3, [sp, #80]
 196:Middlewares/LVGL/GUI/lvgl/src/widgets/lv_switch.c ****     knob_area.y2 = obj->coords.y2;
 621              		.loc 1 196 5 is_stmt 1 view .LVU196
 196:Middlewares/LVGL/GUI/lvgl/src/widgets/lv_switch.c ****     knob_area.y2 = obj->coords.y2;
 622              		.loc 1 196 31 is_stmt 0 view .LVU197
 623 00ce A369     		ldr	r3, [r4, #24]
 196:Middlewares/LVGL/GUI/lvgl/src/widgets/lv_switch.c ****     knob_area.y2 = obj->coords.y2;
 624              		.loc 1 196 18 view .LVU198
 625 00d0 1393     		str	r3, [sp, #76]
 197:Middlewares/LVGL/GUI/lvgl/src/widgets/lv_switch.c **** 
 626              		.loc 1 197 5 is_stmt 1 view .LVU199
 197:Middlewares/LVGL/GUI/lvgl/src/widgets/lv_switch.c **** 
 627              		.loc 1 197 31 is_stmt 0 view .LVU200
 628 00d2 236A     		ldr	r3, [r4, #32]
 197:Middlewares/LVGL/GUI/lvgl/src/widgets/lv_switch.c **** 
 629              		.loc 1 197 18 view .LVU201
 630 00d4 1593     		str	r3, [sp, #84]
 199:Middlewares/LVGL/GUI/lvgl/src/widgets/lv_switch.c ****     lv_coord_t knob_right = lv_obj_get_style_pad_right(obj, LV_PART_KNOB);
 631              		.loc 1 199 5 is_stmt 1 view .LVU202
 632              	.LVL65:
 633              	.LBB75:
 634              	.LBI75:
 103:Middlewares/LVGL/GUI/lvgl/src/widgets/../core/lv_obj_style_gen.h **** {
 635              		.loc 2 103 26 view .LVU203
 636              	.LBB76:
 105:Middlewares/LVGL/GUI/lvgl/src/widgets/../core/lv_obj_style_gen.h ****     return (lv_coord_t)v.num;
 637              		.loc 2 105 5 view .LVU204
 105:Middlewares/LVGL/GUI/lvgl/src/widgets/../core/lv_obj_style_gen.h ****     return (lv_coord_t)v.num;
 638              		.loc 2 105 26 is_stmt 0 view .LVU205
 639 00d6 41F61202 		movw	r2, #6162
 640 00da 4FF44031 		mov	r1, #196608
 641 00de 2046     		mov	r0, r4
 642 00e0 FFF7FEFF 		bl	lv_obj_get_style_prop
 643              	.LVL66:
 644 00e4 8046     		mov	r8, r0
 645              	.LVL67:
ARM GAS  C:\Users\ADMINI~1\AppData\Local\Temp\ccH3Y31L.s 			page 35


 106:Middlewares/LVGL/GUI/lvgl/src/widgets/../core/lv_obj_style_gen.h **** }
 646              		.loc 2 106 5 is_stmt 1 view .LVU206
 106:Middlewares/LVGL/GUI/lvgl/src/widgets/../core/lv_obj_style_gen.h **** }
 647              		.loc 2 106 5 is_stmt 0 view .LVU207
 648              	.LBE76:
 649              	.LBE75:
 200:Middlewares/LVGL/GUI/lvgl/src/widgets/lv_switch.c ****     lv_coord_t knob_top = lv_obj_get_style_pad_top(obj, LV_PART_KNOB);
 650              		.loc 1 200 5 is_stmt 1 view .LVU208
 651              	.LBB77:
 652              	.LBI77:
 109:Middlewares/LVGL/GUI/lvgl/src/widgets/../core/lv_obj_style_gen.h **** {
 653              		.loc 2 109 26 view .LVU209
 654              	.LBB78:
 111:Middlewares/LVGL/GUI/lvgl/src/widgets/../core/lv_obj_style_gen.h ****     return (lv_coord_t)v.num;
 655              		.loc 2 111 5 view .LVU210
 111:Middlewares/LVGL/GUI/lvgl/src/widgets/../core/lv_obj_style_gen.h ****     return (lv_coord_t)v.num;
 656              		.loc 2 111 26 is_stmt 0 view .LVU211
 657 00e6 41F61302 		movw	r2, #6163
 658 00ea 4FF44031 		mov	r1, #196608
 659 00ee 2046     		mov	r0, r4
 660              	.LVL68:
 111:Middlewares/LVGL/GUI/lvgl/src/widgets/../core/lv_obj_style_gen.h ****     return (lv_coord_t)v.num;
 661              		.loc 2 111 26 view .LVU212
 662 00f0 FFF7FEFF 		bl	lv_obj_get_style_prop
 663              	.LVL69:
 664 00f4 0646     		mov	r6, r0
 665              	.LVL70:
 112:Middlewares/LVGL/GUI/lvgl/src/widgets/../core/lv_obj_style_gen.h **** }
 666              		.loc 2 112 5 is_stmt 1 view .LVU213
 112:Middlewares/LVGL/GUI/lvgl/src/widgets/../core/lv_obj_style_gen.h **** }
 667              		.loc 2 112 5 is_stmt 0 view .LVU214
 668              	.LBE78:
 669              	.LBE77:
 201:Middlewares/LVGL/GUI/lvgl/src/widgets/lv_switch.c ****     lv_coord_t knob_bottom = lv_obj_get_style_pad_bottom(obj, LV_PART_KNOB);
 670              		.loc 1 201 5 is_stmt 1 view .LVU215
 671              	.LBB79:
 672              	.LBI79:
  91:Middlewares/LVGL/GUI/lvgl/src/widgets/../core/lv_obj_style_gen.h **** {
 673              		.loc 2 91 26 view .LVU216
 674              	.LBB80:
  93:Middlewares/LVGL/GUI/lvgl/src/widgets/../core/lv_obj_style_gen.h ****     return (lv_coord_t)v.num;
 675              		.loc 2 93 5 view .LVU217
  93:Middlewares/LVGL/GUI/lvgl/src/widgets/../core/lv_obj_style_gen.h ****     return (lv_coord_t)v.num;
 676              		.loc 2 93 26 is_stmt 0 view .LVU218
 677 00f6 41F61002 		movw	r2, #6160
 678 00fa 4FF44031 		mov	r1, #196608
 679 00fe 2046     		mov	r0, r4
 680              	.LVL71:
  93:Middlewares/LVGL/GUI/lvgl/src/widgets/../core/lv_obj_style_gen.h ****     return (lv_coord_t)v.num;
 681              		.loc 2 93 26 view .LVU219
 682 0100 FFF7FEFF 		bl	lv_obj_get_style_prop
 683              	.LVL72:
 684 0104 0546     		mov	r5, r0
 685              	.LVL73:
  94:Middlewares/LVGL/GUI/lvgl/src/widgets/../core/lv_obj_style_gen.h **** }
 686              		.loc 2 94 5 is_stmt 1 view .LVU220
  94:Middlewares/LVGL/GUI/lvgl/src/widgets/../core/lv_obj_style_gen.h **** }
ARM GAS  C:\Users\ADMINI~1\AppData\Local\Temp\ccH3Y31L.s 			page 36


 687              		.loc 2 94 5 is_stmt 0 view .LVU221
 688              	.LBE80:
 689              	.LBE79:
 202:Middlewares/LVGL/GUI/lvgl/src/widgets/lv_switch.c **** 
 690              		.loc 1 202 5 is_stmt 1 view .LVU222
 691              	.LBB81:
 692              	.LBI81:
  97:Middlewares/LVGL/GUI/lvgl/src/widgets/../core/lv_obj_style_gen.h **** {
 693              		.loc 2 97 26 view .LVU223
 694              	.LBB82:
  99:Middlewares/LVGL/GUI/lvgl/src/widgets/../core/lv_obj_style_gen.h ****     return (lv_coord_t)v.num;
 695              		.loc 2 99 5 view .LVU224
  99:Middlewares/LVGL/GUI/lvgl/src/widgets/../core/lv_obj_style_gen.h ****     return (lv_coord_t)v.num;
 696              		.loc 2 99 26 is_stmt 0 view .LVU225
 697 0106 41F61102 		movw	r2, #6161
 698 010a 4FF44031 		mov	r1, #196608
 699 010e 2046     		mov	r0, r4
 700              	.LVL74:
  99:Middlewares/LVGL/GUI/lvgl/src/widgets/../core/lv_obj_style_gen.h ****     return (lv_coord_t)v.num;
 701              		.loc 2 99 26 view .LVU226
 702 0110 FFF7FEFF 		bl	lv_obj_get_style_prop
 703              	.LVL75:
 100:Middlewares/LVGL/GUI/lvgl/src/widgets/../core/lv_obj_style_gen.h **** }
 704              		.loc 2 100 5 is_stmt 1 view .LVU227
 100:Middlewares/LVGL/GUI/lvgl/src/widgets/../core/lv_obj_style_gen.h **** }
 705              		.loc 2 100 5 is_stmt 0 view .LVU228
 706              	.LBE82:
 707              	.LBE81:
 205:Middlewares/LVGL/GUI/lvgl/src/widgets/lv_switch.c ****     knob_area.x2 += knob_right;
 708              		.loc 1 205 5 is_stmt 1 view .LVU229
 205:Middlewares/LVGL/GUI/lvgl/src/widgets/lv_switch.c ****     knob_area.x2 += knob_right;
 709              		.loc 1 205 18 is_stmt 0 view .LVU230
 710 0114 129A     		ldr	r2, [sp, #72]
 711 0116 A2EB0802 		sub	r2, r2, r8
 712 011a 1292     		str	r2, [sp, #72]
 206:Middlewares/LVGL/GUI/lvgl/src/widgets/lv_switch.c ****     knob_area.y1 -= knob_top;
 713              		.loc 1 206 5 is_stmt 1 view .LVU231
 206:Middlewares/LVGL/GUI/lvgl/src/widgets/lv_switch.c ****     knob_area.y1 -= knob_top;
 714              		.loc 1 206 18 is_stmt 0 view .LVU232
 715 011c 149A     		ldr	r2, [sp, #80]
 716 011e 3244     		add	r2, r2, r6
 717 0120 1492     		str	r2, [sp, #80]
 207:Middlewares/LVGL/GUI/lvgl/src/widgets/lv_switch.c ****     knob_area.y2 += knob_bottom;
 718              		.loc 1 207 5 is_stmt 1 view .LVU233
 207:Middlewares/LVGL/GUI/lvgl/src/widgets/lv_switch.c ****     knob_area.y2 += knob_bottom;
 719              		.loc 1 207 18 is_stmt 0 view .LVU234
 720 0122 139A     		ldr	r2, [sp, #76]
 721 0124 521B     		subs	r2, r2, r5
 722 0126 1392     		str	r2, [sp, #76]
 208:Middlewares/LVGL/GUI/lvgl/src/widgets/lv_switch.c **** 
 723              		.loc 1 208 5 is_stmt 1 view .LVU235
 208:Middlewares/LVGL/GUI/lvgl/src/widgets/lv_switch.c **** 
 724              		.loc 1 208 18 is_stmt 0 view .LVU236
 725 0128 159B     		ldr	r3, [sp, #84]
 726 012a 0344     		add	r3, r3, r0
 727 012c 1593     		str	r3, [sp, #84]
 210:Middlewares/LVGL/GUI/lvgl/src/widgets/lv_switch.c ****     lv_draw_rect_dsc_init(&knob_rect_dsc);
ARM GAS  C:\Users\ADMINI~1\AppData\Local\Temp\ccH3Y31L.s 			page 37


 728              		.loc 1 210 5 is_stmt 1 view .LVU237
 211:Middlewares/LVGL/GUI/lvgl/src/widgets/lv_switch.c ****     lv_obj_init_draw_rect_dsc(obj, LV_PART_KNOB, &knob_rect_dsc);
 729              		.loc 1 211 5 view .LVU238
 730 012e 6846     		mov	r0, sp
 731              	.LVL76:
 211:Middlewares/LVGL/GUI/lvgl/src/widgets/lv_switch.c ****     lv_obj_init_draw_rect_dsc(obj, LV_PART_KNOB, &knob_rect_dsc);
 732              		.loc 1 211 5 is_stmt 0 view .LVU239
 733 0130 FFF7FEFF 		bl	lv_draw_rect_dsc_init
 734              	.LVL77:
 212:Middlewares/LVGL/GUI/lvgl/src/widgets/lv_switch.c **** 
 735              		.loc 1 212 5 is_stmt 1 view .LVU240
 736 0134 6A46     		mov	r2, sp
 737 0136 4FF44031 		mov	r1, #196608
 738 013a 2046     		mov	r0, r4
 739 013c FFF7FEFF 		bl	lv_obj_init_draw_rect_dsc
 740              	.LVL78:
 214:Middlewares/LVGL/GUI/lvgl/src/widgets/lv_switch.c **** }
 741              		.loc 1 214 5 view .LVU241
 742 0140 12AA     		add	r2, sp, #72
 743 0142 6946     		mov	r1, sp
 744 0144 3846     		mov	r0, r7
 745 0146 FFF7FEFF 		bl	lv_draw_rect
 746              	.LVL79:
 215:Middlewares/LVGL/GUI/lvgl/src/widgets/lv_switch.c **** 
 747              		.loc 1 215 1 is_stmt 0 view .LVU242
 748 014a 2CB0     		add	sp, sp, #176
 749              	.LCFI9:
 750              		.cfi_remember_state
 751              		.cfi_def_cfa_offset 24
 752              		@ sp needed
 753 014c BDE8F081 		pop	{r4, r5, r6, r7, r8, pc}
 754              	.LVL80:
 755              	.L27:
 756              	.LCFI10:
 757              		.cfi_restore_state
 180:Middlewares/LVGL/GUI/lvgl/src/widgets/lv_switch.c ****     }
 758              		.loc 1 180 22 view .LVU243
 759 0150 FF33     		adds	r3, r3, #255
 760 0152 ADE7     		b	.L22
 761              	.L21:
 762              	.LBB83:
 184:Middlewares/LVGL/GUI/lvgl/src/widgets/lv_switch.c ****         anim_value_x = chk ? anim_length : 0;
 763              		.loc 1 184 9 is_stmt 1 view .LVU244
 184:Middlewares/LVGL/GUI/lvgl/src/widgets/lv_switch.c ****         anim_value_x = chk ? anim_length : 0;
 764              		.loc 1 184 20 is_stmt 0 view .LVU245
 765 0154 2046     		mov	r0, r4
 766              	.LVL81:
 184:Middlewares/LVGL/GUI/lvgl/src/widgets/lv_switch.c ****         anim_value_x = chk ? anim_length : 0;
 767              		.loc 1 184 20 view .LVU246
 768 0156 FFF7FEFF 		bl	lv_obj_get_state
 769              	.LVL82:
 185:Middlewares/LVGL/GUI/lvgl/src/widgets/lv_switch.c ****     }
 770              		.loc 1 185 9 is_stmt 1 view .LVU247
 185:Middlewares/LVGL/GUI/lvgl/src/widgets/lv_switch.c ****     }
 771              		.loc 1 185 42 is_stmt 0 view .LVU248
 772 015a 10F0010F 		tst	r0, #1
 773 015e 01D0     		beq	.L25
ARM GAS  C:\Users\ADMINI~1\AppData\Local\Temp\ccH3Y31L.s 			page 38


 774 0160 3546     		mov	r5, r6
 775              	.LVL83:
 185:Middlewares/LVGL/GUI/lvgl/src/widgets/lv_switch.c ****     }
 776              		.loc 1 185 42 view .LVU249
 777 0162 A6E7     		b	.L23
 778              	.LVL84:
 779              	.L25:
 185:Middlewares/LVGL/GUI/lvgl/src/widgets/lv_switch.c ****     }
 780              		.loc 1 185 42 view .LVU250
 781 0164 0025     		movs	r5, #0
 782              	.LVL85:
 185:Middlewares/LVGL/GUI/lvgl/src/widgets/lv_switch.c ****     }
 783              		.loc 1 185 42 view .LVU251
 784 0166 A4E7     		b	.L23
 785              	.LVL86:
 786              	.L28:
 185:Middlewares/LVGL/GUI/lvgl/src/widgets/lv_switch.c ****     }
 787              		.loc 1 185 42 view .LVU252
 788              	.LBE83:
 189:Middlewares/LVGL/GUI/lvgl/src/widgets/lv_switch.c ****     }
 789              		.loc 1 189 9 is_stmt 1 view .LVU253
 189:Middlewares/LVGL/GUI/lvgl/src/widgets/lv_switch.c ****     }
 790              		.loc 1 189 22 is_stmt 0 view .LVU254
 791 0168 751B     		subs	r5, r6, r5
 792              	.LVL87:
 189:Middlewares/LVGL/GUI/lvgl/src/widgets/lv_switch.c ****     }
 793              		.loc 1 189 22 view .LVU255
 794 016a ABE7     		b	.L24
 795              		.cfi_endproc
 796              	.LFE163:
 798              		.section	.text.lv_switch_event,"ax",%progbits
 799              		.align	1
 800              		.syntax unified
 801              		.thumb
 802              		.thumb_func
 804              	lv_switch_event:
 805              	.LVL88:
 806              	.LFB162:
 110:Middlewares/LVGL/GUI/lvgl/src/widgets/lv_switch.c ****     LV_UNUSED(class_p);
 807              		.loc 1 110 1 is_stmt 1 view -0
 808              		.cfi_startproc
 809              		@ args = 0, pretend = 0, frame = 0
 810              		@ frame_needed = 0, uses_anonymous_args = 0
 110:Middlewares/LVGL/GUI/lvgl/src/widgets/lv_switch.c ****     LV_UNUSED(class_p);
 811              		.loc 1 110 1 is_stmt 0 view .LVU257
 812 0000 2DE9F041 		push	{r4, r5, r6, r7, r8, lr}
 813              	.LCFI11:
 814              		.cfi_def_cfa_offset 24
 815              		.cfi_offset 4, -24
 816              		.cfi_offset 5, -20
 817              		.cfi_offset 6, -16
 818              		.cfi_offset 7, -12
 819              		.cfi_offset 8, -8
 820              		.cfi_offset 14, -4
 821 0004 0C46     		mov	r4, r1
 111:Middlewares/LVGL/GUI/lvgl/src/widgets/lv_switch.c **** 
 822              		.loc 1 111 5 is_stmt 1 view .LVU258
ARM GAS  C:\Users\ADMINI~1\AppData\Local\Temp\ccH3Y31L.s 			page 39


 113:Middlewares/LVGL/GUI/lvgl/src/widgets/lv_switch.c **** 
 823              		.loc 1 113 5 view .LVU259
 116:Middlewares/LVGL/GUI/lvgl/src/widgets/lv_switch.c ****     if(res != LV_RES_OK) return;
 824              		.loc 1 116 5 view .LVU260
 116:Middlewares/LVGL/GUI/lvgl/src/widgets/lv_switch.c ****     if(res != LV_RES_OK) return;
 825              		.loc 1 116 11 is_stmt 0 view .LVU261
 826 0006 3348     		ldr	r0, .L39
 827              	.LVL89:
 116:Middlewares/LVGL/GUI/lvgl/src/widgets/lv_switch.c ****     if(res != LV_RES_OK) return;
 828              		.loc 1 116 11 view .LVU262
 829 0008 FFF7FEFF 		bl	lv_obj_event_base
 830              	.LVL90:
 117:Middlewares/LVGL/GUI/lvgl/src/widgets/lv_switch.c **** 
 831              		.loc 1 117 5 is_stmt 1 view .LVU263
 117:Middlewares/LVGL/GUI/lvgl/src/widgets/lv_switch.c **** 
 832              		.loc 1 117 7 is_stmt 0 view .LVU264
 833 000c 0128     		cmp	r0, #1
 834 000e 01D0     		beq	.L36
 835              	.LVL91:
 836              	.L29:
 144:Middlewares/LVGL/GUI/lvgl/src/widgets/lv_switch.c **** 
 837              		.loc 1 144 1 view .LVU265
 838 0010 BDE8F081 		pop	{r4, r5, r6, r7, r8, pc}
 839              	.LVL92:
 840              	.L36:
 119:Middlewares/LVGL/GUI/lvgl/src/widgets/lv_switch.c ****     lv_obj_t * obj = lv_event_get_target(e);
 841              		.loc 1 119 5 is_stmt 1 view .LVU266
 119:Middlewares/LVGL/GUI/lvgl/src/widgets/lv_switch.c ****     lv_obj_t * obj = lv_event_get_target(e);
 842              		.loc 1 119 28 is_stmt 0 view .LVU267
 843 0014 2046     		mov	r0, r4
 844              	.LVL93:
 119:Middlewares/LVGL/GUI/lvgl/src/widgets/lv_switch.c ****     lv_obj_t * obj = lv_event_get_target(e);
 845              		.loc 1 119 28 view .LVU268
 846 0016 FFF7FEFF 		bl	lv_event_get_code
 847              	.LVL94:
 848 001a 0546     		mov	r5, r0
 849              	.LVL95:
 120:Middlewares/LVGL/GUI/lvgl/src/widgets/lv_switch.c **** 
 850              		.loc 1 120 5 is_stmt 1 view .LVU269
 120:Middlewares/LVGL/GUI/lvgl/src/widgets/lv_switch.c **** 
 851              		.loc 1 120 22 is_stmt 0 view .LVU270
 852 001c 2046     		mov	r0, r4
 853 001e FFF7FEFF 		bl	lv_event_get_target
 854              	.LVL96:
 855 0022 0646     		mov	r6, r0
 856              	.LVL97:
 122:Middlewares/LVGL/GUI/lvgl/src/widgets/lv_switch.c ****         lv_coord_t knob_left = lv_obj_get_style_pad_left(obj,   LV_PART_KNOB);
 857              		.loc 1 122 5 is_stmt 1 view .LVU271
 122:Middlewares/LVGL/GUI/lvgl/src/widgets/lv_switch.c ****         lv_coord_t knob_left = lv_obj_get_style_pad_left(obj,   LV_PART_KNOB);
 858              		.loc 1 122 7 is_stmt 0 view .LVU272
 859 0024 132D     		cmp	r5, #19
 860 0026 07D0     		beq	.L37
 137:Middlewares/LVGL/GUI/lvgl/src/widgets/lv_switch.c ****         lv_switch_trigger_anim(obj);
 861              		.loc 1 137 10 is_stmt 1 view .LVU273
 137:Middlewares/LVGL/GUI/lvgl/src/widgets/lv_switch.c ****         lv_switch_trigger_anim(obj);
 862              		.loc 1 137 12 is_stmt 0 view .LVU274
 863 0028 1C2D     		cmp	r5, #28
ARM GAS  C:\Users\ADMINI~1\AppData\Local\Temp\ccH3Y31L.s 			page 40


 864 002a 4CD0     		beq	.L38
 141:Middlewares/LVGL/GUI/lvgl/src/widgets/lv_switch.c ****         draw_main(e);
 865              		.loc 1 141 10 is_stmt 1 view .LVU275
 141:Middlewares/LVGL/GUI/lvgl/src/widgets/lv_switch.c ****         draw_main(e);
 866              		.loc 1 141 12 is_stmt 0 view .LVU276
 867 002c 152D     		cmp	r5, #21
 868 002e EFD1     		bne	.L29
 142:Middlewares/LVGL/GUI/lvgl/src/widgets/lv_switch.c ****     }
 869              		.loc 1 142 9 is_stmt 1 view .LVU277
 870 0030 2046     		mov	r0, r4
 871              	.LVL98:
 142:Middlewares/LVGL/GUI/lvgl/src/widgets/lv_switch.c ****     }
 872              		.loc 1 142 9 is_stmt 0 view .LVU278
 873 0032 FFF7FEFF 		bl	draw_main
 874              	.LVL99:
 875 0036 EBE7     		b	.L29
 876              	.LVL100:
 877              	.L37:
 878              	.LBB84:
 123:Middlewares/LVGL/GUI/lvgl/src/widgets/lv_switch.c ****         lv_coord_t knob_right = lv_obj_get_style_pad_right(obj,  LV_PART_KNOB);
 879              		.loc 1 123 9 is_stmt 1 view .LVU279
 880              	.LBB85:
 881              	.LBI85:
 103:Middlewares/LVGL/GUI/lvgl/src/widgets/../core/lv_obj_style_gen.h **** {
 882              		.loc 2 103 26 view .LVU280
 883              	.LBB86:
 105:Middlewares/LVGL/GUI/lvgl/src/widgets/../core/lv_obj_style_gen.h ****     return (lv_coord_t)v.num;
 884              		.loc 2 105 5 view .LVU281
 105:Middlewares/LVGL/GUI/lvgl/src/widgets/../core/lv_obj_style_gen.h ****     return (lv_coord_t)v.num;
 885              		.loc 2 105 26 is_stmt 0 view .LVU282
 886 0038 41F61202 		movw	r2, #6162
 887 003c 4FF44031 		mov	r1, #196608
 888 0040 FFF7FEFF 		bl	lv_obj_get_style_prop
 889              	.LVL101:
 105:Middlewares/LVGL/GUI/lvgl/src/widgets/../core/lv_obj_style_gen.h ****     return (lv_coord_t)v.num;
 890              		.loc 2 105 26 view .LVU283
 891 0044 8046     		mov	r8, r0
 106:Middlewares/LVGL/GUI/lvgl/src/widgets/../core/lv_obj_style_gen.h **** }
 892              		.loc 2 106 5 is_stmt 1 view .LVU284
 893              	.LVL102:
 106:Middlewares/LVGL/GUI/lvgl/src/widgets/../core/lv_obj_style_gen.h **** }
 894              		.loc 2 106 5 is_stmt 0 view .LVU285
 895              	.LBE86:
 896              	.LBE85:
 124:Middlewares/LVGL/GUI/lvgl/src/widgets/lv_switch.c ****         lv_coord_t knob_top = lv_obj_get_style_pad_top(obj,    LV_PART_KNOB);
 897              		.loc 1 124 9 is_stmt 1 view .LVU286
 898              	.LBB87:
 899              	.LBI87:
 109:Middlewares/LVGL/GUI/lvgl/src/widgets/../core/lv_obj_style_gen.h **** {
 900              		.loc 2 109 26 view .LVU287
 901              	.LBB88:
 111:Middlewares/LVGL/GUI/lvgl/src/widgets/../core/lv_obj_style_gen.h ****     return (lv_coord_t)v.num;
 902              		.loc 2 111 5 view .LVU288
 111:Middlewares/LVGL/GUI/lvgl/src/widgets/../core/lv_obj_style_gen.h ****     return (lv_coord_t)v.num;
 903              		.loc 2 111 26 is_stmt 0 view .LVU289
 904 0046 41F61302 		movw	r2, #6163
 905 004a 4FF44031 		mov	r1, #196608
ARM GAS  C:\Users\ADMINI~1\AppData\Local\Temp\ccH3Y31L.s 			page 41


 906 004e 3046     		mov	r0, r6
 907              	.LVL103:
 111:Middlewares/LVGL/GUI/lvgl/src/widgets/../core/lv_obj_style_gen.h ****     return (lv_coord_t)v.num;
 908              		.loc 2 111 26 view .LVU290
 909 0050 FFF7FEFF 		bl	lv_obj_get_style_prop
 910              	.LVL104:
 911 0054 0746     		mov	r7, r0
 912              	.LVL105:
 112:Middlewares/LVGL/GUI/lvgl/src/widgets/../core/lv_obj_style_gen.h **** }
 913              		.loc 2 112 5 is_stmt 1 view .LVU291
 112:Middlewares/LVGL/GUI/lvgl/src/widgets/../core/lv_obj_style_gen.h **** }
 914              		.loc 2 112 5 is_stmt 0 view .LVU292
 915              	.LBE88:
 916              	.LBE87:
 125:Middlewares/LVGL/GUI/lvgl/src/widgets/lv_switch.c ****         lv_coord_t knob_bottom = lv_obj_get_style_pad_bottom(obj, LV_PART_KNOB);
 917              		.loc 1 125 9 is_stmt 1 view .LVU293
 918              	.LBB89:
 919              	.LBI89:
  91:Middlewares/LVGL/GUI/lvgl/src/widgets/../core/lv_obj_style_gen.h **** {
 920              		.loc 2 91 26 view .LVU294
 921              	.LBB90:
  93:Middlewares/LVGL/GUI/lvgl/src/widgets/../core/lv_obj_style_gen.h ****     return (lv_coord_t)v.num;
 922              		.loc 2 93 5 view .LVU295
  93:Middlewares/LVGL/GUI/lvgl/src/widgets/../core/lv_obj_style_gen.h ****     return (lv_coord_t)v.num;
 923              		.loc 2 93 26 is_stmt 0 view .LVU296
 924 0056 41F61002 		movw	r2, #6160
 925 005a 4FF44031 		mov	r1, #196608
 926 005e 3046     		mov	r0, r6
 927              	.LVL106:
  93:Middlewares/LVGL/GUI/lvgl/src/widgets/../core/lv_obj_style_gen.h ****     return (lv_coord_t)v.num;
 928              		.loc 2 93 26 view .LVU297
 929 0060 FFF7FEFF 		bl	lv_obj_get_style_prop
 930              	.LVL107:
 931 0064 0546     		mov	r5, r0
 932              	.LVL108:
  94:Middlewares/LVGL/GUI/lvgl/src/widgets/../core/lv_obj_style_gen.h **** }
 933              		.loc 2 94 5 is_stmt 1 view .LVU298
  94:Middlewares/LVGL/GUI/lvgl/src/widgets/../core/lv_obj_style_gen.h **** }
 934              		.loc 2 94 5 is_stmt 0 view .LVU299
 935              	.LBE90:
 936              	.LBE89:
 126:Middlewares/LVGL/GUI/lvgl/src/widgets/lv_switch.c **** 
 937              		.loc 1 126 9 is_stmt 1 view .LVU300
 938              	.LBB91:
 939              	.LBI91:
  97:Middlewares/LVGL/GUI/lvgl/src/widgets/../core/lv_obj_style_gen.h **** {
 940              		.loc 2 97 26 view .LVU301
 941              	.LBB92:
  99:Middlewares/LVGL/GUI/lvgl/src/widgets/../core/lv_obj_style_gen.h ****     return (lv_coord_t)v.num;
 942              		.loc 2 99 5 view .LVU302
  99:Middlewares/LVGL/GUI/lvgl/src/widgets/../core/lv_obj_style_gen.h ****     return (lv_coord_t)v.num;
 943              		.loc 2 99 26 is_stmt 0 view .LVU303
 944 0066 41F61102 		movw	r2, #6161
 945 006a 4FF44031 		mov	r1, #196608
 946 006e 3046     		mov	r0, r6
 947              	.LVL109:
  99:Middlewares/LVGL/GUI/lvgl/src/widgets/../core/lv_obj_style_gen.h ****     return (lv_coord_t)v.num;
ARM GAS  C:\Users\ADMINI~1\AppData\Local\Temp\ccH3Y31L.s 			page 42


 948              		.loc 2 99 26 view .LVU304
 949 0070 FFF7FEFF 		bl	lv_obj_get_style_prop
 950              	.LVL110:
 100:Middlewares/LVGL/GUI/lvgl/src/widgets/../core/lv_obj_style_gen.h **** }
 951              		.loc 2 100 5 is_stmt 1 view .LVU305
 100:Middlewares/LVGL/GUI/lvgl/src/widgets/../core/lv_obj_style_gen.h **** }
 952              		.loc 2 100 5 is_stmt 0 view .LVU306
 953              	.LBE92:
 954              	.LBE91:
 129:Middlewares/LVGL/GUI/lvgl/src/widgets/lv_switch.c ****         knob_size += _LV_SWITCH_KNOB_EXT_AREA_CORRECTION;
 955              		.loc 1 129 9 is_stmt 1 view .LVU307
 129:Middlewares/LVGL/GUI/lvgl/src/widgets/lv_switch.c ****         knob_size += _LV_SWITCH_KNOB_EXT_AREA_CORRECTION;
 956              		.loc 1 129 32 is_stmt 0 view .LVU308
 957 0074 8542     		cmp	r5, r0
 958 0076 B8BF     		it	lt
 959 0078 0546     		movlt	r5, r0
 960              	.LVL111:
 129:Middlewares/LVGL/GUI/lvgl/src/widgets/lv_switch.c ****         knob_size += _LV_SWITCH_KNOB_EXT_AREA_CORRECTION;
 961              		.loc 1 129 32 view .LVU309
 962 007a 4745     		cmp	r7, r8
 963 007c B8BF     		it	lt
 964 007e 4746     		movlt	r7, r8
 965              	.LVL112:
 129:Middlewares/LVGL/GUI/lvgl/src/widgets/lv_switch.c ****         knob_size += _LV_SWITCH_KNOB_EXT_AREA_CORRECTION;
 966              		.loc 1 129 20 view .LVU310
 967 0080 BD42     		cmp	r5, r7
 968 0082 B8BF     		it	lt
 969 0084 3D46     		movlt	r5, r7
 970              	.LVL113:
 130:Middlewares/LVGL/GUI/lvgl/src/widgets/lv_switch.c ****         knob_size += lv_obj_calculate_ext_draw_size(obj, LV_PART_KNOB);
 971              		.loc 1 130 9 is_stmt 1 view .LVU311
 130:Middlewares/LVGL/GUI/lvgl/src/widgets/lv_switch.c ****         knob_size += lv_obj_calculate_ext_draw_size(obj, LV_PART_KNOB);
 972              		.loc 1 130 19 is_stmt 0 view .LVU312
 973 0086 0235     		adds	r5, r5, #2
 974              	.LVL114:
 131:Middlewares/LVGL/GUI/lvgl/src/widgets/lv_switch.c **** 
 975              		.loc 1 131 9 is_stmt 1 view .LVU313
 131:Middlewares/LVGL/GUI/lvgl/src/widgets/lv_switch.c **** 
 976              		.loc 1 131 22 is_stmt 0 view .LVU314
 977 0088 4FF44031 		mov	r1, #196608
 978 008c 3046     		mov	r0, r6
 979              	.LVL115:
 131:Middlewares/LVGL/GUI/lvgl/src/widgets/lv_switch.c **** 
 980              		.loc 1 131 22 view .LVU315
 981 008e FFF7FEFF 		bl	lv_obj_calculate_ext_draw_size
 982              	.LVL116:
 131:Middlewares/LVGL/GUI/lvgl/src/widgets/lv_switch.c **** 
 983              		.loc 1 131 19 view .LVU316
 984 0092 0544     		add	r5, r5, r0
 985              	.LVL117:
 133:Middlewares/LVGL/GUI/lvgl/src/widgets/lv_switch.c ****         *s = LV_MAX(*s, knob_size);
 986              		.loc 1 133 9 is_stmt 1 view .LVU317
 133:Middlewares/LVGL/GUI/lvgl/src/widgets/lv_switch.c ****         *s = LV_MAX(*s, knob_size);
 987              		.loc 1 133 26 is_stmt 0 view .LVU318
 988 0094 2046     		mov	r0, r4
 989 0096 FFF7FEFF 		bl	lv_event_get_param
 990              	.LVL118:
ARM GAS  C:\Users\ADMINI~1\AppData\Local\Temp\ccH3Y31L.s 			page 43


 991 009a 0446     		mov	r4, r0
 992              	.LVL119:
 134:Middlewares/LVGL/GUI/lvgl/src/widgets/lv_switch.c ****         *s = LV_MAX(*s, lv_obj_calculate_ext_draw_size(obj, LV_PART_INDICATOR));
 993              		.loc 1 134 9 is_stmt 1 view .LVU319
 134:Middlewares/LVGL/GUI/lvgl/src/widgets/lv_switch.c ****         *s = LV_MAX(*s, lv_obj_calculate_ext_draw_size(obj, LV_PART_INDICATOR));
 994              		.loc 1 134 14 is_stmt 0 view .LVU320
 995 009c 0068     		ldr	r0, [r0]
 996              	.LVL120:
 134:Middlewares/LVGL/GUI/lvgl/src/widgets/lv_switch.c ****         *s = LV_MAX(*s, lv_obj_calculate_ext_draw_size(obj, LV_PART_INDICATOR));
 997              		.loc 1 134 14 view .LVU321
 998 009e 8542     		cmp	r5, r0
 999 00a0 B8BF     		it	lt
 1000 00a2 0546     		movlt	r5, r0
 1001              	.LVL121:
 134:Middlewares/LVGL/GUI/lvgl/src/widgets/lv_switch.c ****         *s = LV_MAX(*s, lv_obj_calculate_ext_draw_size(obj, LV_PART_INDICATOR));
 1002              		.loc 1 134 12 view .LVU322
 1003 00a4 2560     		str	r5, [r4]
 135:Middlewares/LVGL/GUI/lvgl/src/widgets/lv_switch.c ****     }
 1004              		.loc 1 135 9 is_stmt 1 view .LVU323
 135:Middlewares/LVGL/GUI/lvgl/src/widgets/lv_switch.c ****     }
 1005              		.loc 1 135 14 is_stmt 0 view .LVU324
 1006 00a6 4FF40031 		mov	r1, #131072
 1007 00aa 3046     		mov	r0, r6
 1008 00ac FFF7FEFF 		bl	lv_obj_calculate_ext_draw_size
 1009              	.LVL122:
 1010 00b0 8542     		cmp	r5, r0
 1011 00b2 02DD     		ble	.L32
 135:Middlewares/LVGL/GUI/lvgl/src/widgets/lv_switch.c ****     }
 1012              		.loc 1 135 14 discriminator 1 view .LVU325
 1013 00b4 2068     		ldr	r0, [r4]
 1014              	.L33:
 135:Middlewares/LVGL/GUI/lvgl/src/widgets/lv_switch.c ****     }
 1015              		.loc 1 135 12 discriminator 4 view .LVU326
 1016 00b6 2060     		str	r0, [r4]
 1017              	.LBE84:
 1018 00b8 AAE7     		b	.L29
 1019              	.L32:
 1020              	.LBB93:
 135:Middlewares/LVGL/GUI/lvgl/src/widgets/lv_switch.c ****     }
 1021              		.loc 1 135 14 discriminator 2 view .LVU327
 1022 00ba 4FF40031 		mov	r1, #131072
 1023 00be 3046     		mov	r0, r6
 1024 00c0 FFF7FEFF 		bl	lv_obj_calculate_ext_draw_size
 1025              	.LVL123:
 1026 00c4 F7E7     		b	.L33
 1027              	.LVL124:
 1028              	.L38:
 135:Middlewares/LVGL/GUI/lvgl/src/widgets/lv_switch.c ****     }
 1029              		.loc 1 135 14 discriminator 2 view .LVU328
 1030              	.LBE93:
 138:Middlewares/LVGL/GUI/lvgl/src/widgets/lv_switch.c ****         lv_obj_invalidate(obj);
 1031              		.loc 1 138 9 is_stmt 1 view .LVU329
 1032 00c6 FFF7FEFF 		bl	lv_switch_trigger_anim
 1033              	.LVL125:
 139:Middlewares/LVGL/GUI/lvgl/src/widgets/lv_switch.c ****     }
 1034              		.loc 1 139 9 view .LVU330
 1035 00ca 3046     		mov	r0, r6
ARM GAS  C:\Users\ADMINI~1\AppData\Local\Temp\ccH3Y31L.s 			page 44


 1036 00cc FFF7FEFF 		bl	lv_obj_invalidate
 1037              	.LVL126:
 1038 00d0 9EE7     		b	.L29
 1039              	.L40:
 1040 00d2 00BF     		.align	2
 1041              	.L39:
 1042 00d4 00000000 		.word	.LANCHOR0
 1043              		.cfi_endproc
 1044              	.LFE162:
 1046              		.section	.text.lv_switch_constructor,"ax",%progbits
 1047              		.align	1
 1048              		.syntax unified
 1049              		.thumb
 1050              		.thumb_func
 1052              	lv_switch_constructor:
 1053              	.LVL127:
 1054              	.LFB160:
  86:Middlewares/LVGL/GUI/lvgl/src/widgets/lv_switch.c ****     LV_UNUSED(class_p);
 1055              		.loc 1 86 1 view -0
 1056              		.cfi_startproc
 1057              		@ args = 0, pretend = 0, frame = 0
 1058              		@ frame_needed = 0, uses_anonymous_args = 0
  86:Middlewares/LVGL/GUI/lvgl/src/widgets/lv_switch.c ****     LV_UNUSED(class_p);
 1059              		.loc 1 86 1 is_stmt 0 view .LVU332
 1060 0000 10B5     		push	{r4, lr}
 1061              	.LCFI12:
 1062              		.cfi_def_cfa_offset 8
 1063              		.cfi_offset 4, -8
 1064              		.cfi_offset 14, -4
 1065 0002 0C46     		mov	r4, r1
  87:Middlewares/LVGL/GUI/lvgl/src/widgets/lv_switch.c ****     LV_TRACE_OBJ_CREATE("begin");
 1066              		.loc 1 87 5 is_stmt 1 view .LVU333
  88:Middlewares/LVGL/GUI/lvgl/src/widgets/lv_switch.c **** 
 1067              		.loc 1 88 33 view .LVU334
  90:Middlewares/LVGL/GUI/lvgl/src/widgets/lv_switch.c **** 
 1068              		.loc 1 90 5 view .LVU335
 1069              	.LVL128:
  92:Middlewares/LVGL/GUI/lvgl/src/widgets/lv_switch.c **** 
 1070              		.loc 1 92 5 view .LVU336
  92:Middlewares/LVGL/GUI/lvgl/src/widgets/lv_switch.c **** 
 1071              		.loc 1 92 20 is_stmt 0 view .LVU337
 1072 0004 4FF0FF33 		mov	r3, #-1
 1073 0008 CB62     		str	r3, [r1, #44]
  94:Middlewares/LVGL/GUI/lvgl/src/widgets/lv_switch.c ****     lv_obj_add_flag(obj, LV_OBJ_FLAG_CHECKABLE);
 1074              		.loc 1 94 5 is_stmt 1 view .LVU338
 1075 000a 1021     		movs	r1, #16
 1076              	.LVL129:
  94:Middlewares/LVGL/GUI/lvgl/src/widgets/lv_switch.c ****     lv_obj_add_flag(obj, LV_OBJ_FLAG_CHECKABLE);
 1077              		.loc 1 94 5 is_stmt 0 view .LVU339
 1078 000c 2046     		mov	r0, r4
 1079              	.LVL130:
  94:Middlewares/LVGL/GUI/lvgl/src/widgets/lv_switch.c ****     lv_obj_add_flag(obj, LV_OBJ_FLAG_CHECKABLE);
 1080              		.loc 1 94 5 view .LVU340
 1081 000e FFF7FEFF 		bl	lv_obj_clear_flag
 1082              	.LVL131:
  95:Middlewares/LVGL/GUI/lvgl/src/widgets/lv_switch.c ****     lv_obj_add_flag(obj, LV_OBJ_FLAG_SCROLL_ON_FOCUS);
 1083              		.loc 1 95 5 is_stmt 1 view .LVU341
ARM GAS  C:\Users\ADMINI~1\AppData\Local\Temp\ccH3Y31L.s 			page 45


 1084 0012 0821     		movs	r1, #8
 1085 0014 2046     		mov	r0, r4
 1086 0016 FFF7FEFF 		bl	lv_obj_add_flag
 1087              	.LVL132:
  96:Middlewares/LVGL/GUI/lvgl/src/widgets/lv_switch.c **** 
 1088              		.loc 1 96 5 view .LVU342
 1089 001a 4FF48061 		mov	r1, #1024
 1090 001e 2046     		mov	r0, r4
 1091 0020 FFF7FEFF 		bl	lv_obj_add_flag
 1092              	.LVL133:
  98:Middlewares/LVGL/GUI/lvgl/src/widgets/lv_switch.c **** }
 1093              		.loc 1 98 36 view .LVU343
  99:Middlewares/LVGL/GUI/lvgl/src/widgets/lv_switch.c **** 
 1094              		.loc 1 99 1 is_stmt 0 view .LVU344
 1095 0024 10BD     		pop	{r4, pc}
  99:Middlewares/LVGL/GUI/lvgl/src/widgets/lv_switch.c **** 
 1096              		.loc 1 99 1 view .LVU345
 1097              		.cfi_endproc
 1098              	.LFE160:
 1100              		.section	.text.lv_switch_create,"ax",%progbits
 1101              		.align	1
 1102              		.global	lv_switch_create
 1103              		.syntax unified
 1104              		.thumb
 1105              		.thumb_func
 1107              	lv_switch_create:
 1108              	.LVL134:
 1109              	.LFB159:
  74:Middlewares/LVGL/GUI/lvgl/src/widgets/lv_switch.c ****     LV_LOG_INFO("begin");
 1110              		.loc 1 74 1 is_stmt 1 view -0
 1111              		.cfi_startproc
 1112              		@ args = 0, pretend = 0, frame = 0
 1113              		@ frame_needed = 0, uses_anonymous_args = 0
  74:Middlewares/LVGL/GUI/lvgl/src/widgets/lv_switch.c ****     LV_LOG_INFO("begin");
 1114              		.loc 1 74 1 is_stmt 0 view .LVU347
 1115 0000 10B5     		push	{r4, lr}
 1116              	.LCFI13:
 1117              		.cfi_def_cfa_offset 8
 1118              		.cfi_offset 4, -8
 1119              		.cfi_offset 14, -4
 1120 0002 0146     		mov	r1, r0
  75:Middlewares/LVGL/GUI/lvgl/src/widgets/lv_switch.c ****     lv_obj_t * obj = lv_obj_class_create_obj(MY_CLASS, parent);
 1121              		.loc 1 75 5 is_stmt 1 view .LVU348
  75:Middlewares/LVGL/GUI/lvgl/src/widgets/lv_switch.c ****     lv_obj_t * obj = lv_obj_class_create_obj(MY_CLASS, parent);
 1122              		.loc 1 75 5 view .LVU349
  75:Middlewares/LVGL/GUI/lvgl/src/widgets/lv_switch.c ****     lv_obj_t * obj = lv_obj_class_create_obj(MY_CLASS, parent);
 1123              		.loc 1 75 5 view .LVU350
  76:Middlewares/LVGL/GUI/lvgl/src/widgets/lv_switch.c ****     lv_obj_class_init_obj(obj);
 1124              		.loc 1 76 5 view .LVU351
  76:Middlewares/LVGL/GUI/lvgl/src/widgets/lv_switch.c ****     lv_obj_class_init_obj(obj);
 1125              		.loc 1 76 22 is_stmt 0 view .LVU352
 1126 0004 0348     		ldr	r0, .L45
 1127              	.LVL135:
  76:Middlewares/LVGL/GUI/lvgl/src/widgets/lv_switch.c ****     lv_obj_class_init_obj(obj);
 1128              		.loc 1 76 22 view .LVU353
 1129 0006 FFF7FEFF 		bl	lv_obj_class_create_obj
 1130              	.LVL136:
ARM GAS  C:\Users\ADMINI~1\AppData\Local\Temp\ccH3Y31L.s 			page 46


  76:Middlewares/LVGL/GUI/lvgl/src/widgets/lv_switch.c ****     lv_obj_class_init_obj(obj);
 1131              		.loc 1 76 22 view .LVU354
 1132 000a 0446     		mov	r4, r0
 1133              	.LVL137:
  77:Middlewares/LVGL/GUI/lvgl/src/widgets/lv_switch.c ****     return obj;
 1134              		.loc 1 77 5 is_stmt 1 view .LVU355
 1135 000c FFF7FEFF 		bl	lv_obj_class_init_obj
 1136              	.LVL138:
  78:Middlewares/LVGL/GUI/lvgl/src/widgets/lv_switch.c **** }
 1137              		.loc 1 78 5 view .LVU356
  79:Middlewares/LVGL/GUI/lvgl/src/widgets/lv_switch.c **** 
 1138              		.loc 1 79 1 is_stmt 0 view .LVU357
 1139 0010 2046     		mov	r0, r4
 1140 0012 10BD     		pop	{r4, pc}
 1141              	.LVL139:
 1142              	.L46:
  79:Middlewares/LVGL/GUI/lvgl/src/widgets/lv_switch.c **** 
 1143              		.loc 1 79 1 view .LVU358
 1144              		.align	2
 1145              	.L45:
 1146 0014 00000000 		.word	.LANCHOR0
 1147              		.cfi_endproc
 1148              	.LFE159:
 1150              		.global	lv_switch_class
 1151              		.section	.rodata.lv_switch_class,"a"
 1152              		.align	2
 1153              		.set	.LANCHOR0,. + 0
 1156              	lv_switch_class:
 1157 0000 00000000 		.word	lv_obj_class
 1158 0004 00000000 		.word	lv_switch_constructor
 1159 0008 00000000 		.word	lv_switch_destructor
 1160 000c 00000000 		.space	4
 1161 0010 00000000 		.word	lv_switch_event
 1162 0014 34000000 		.word	52
 1163 0018 1E000000 		.word	30
 1164 001c 04       		.byte	4
 1165 001d 03       		.byte	3
 1166 001e 00       		.byte	0
 1167 001f 00       		.space	1
 1168              		.text
 1169              	.Letext0:
 1170              		.file 5 "c:\\gnu arm embedded toolchain\\10 2021.10\\arm-none-eabi\\include\\machine\\_default_typ
 1171              		.file 6 "c:\\gnu arm embedded toolchain\\10 2021.10\\arm-none-eabi\\include\\sys\\_stdint.h"
 1172              		.file 7 "Middlewares/LVGL/GUI/lvgl/src/widgets/../core/../misc/../font/lv_font.h"
 1173              		.file 8 "Middlewares/LVGL/GUI/lvgl/src/widgets/../core/../misc/lv_types.h"
 1174              		.file 9 "Middlewares/LVGL/GUI/lvgl/src/widgets/../core/../misc/lv_color.h"
 1175              		.file 10 "Middlewares/LVGL/GUI/lvgl/src/widgets/../core/../misc/lv_txt.h"
 1176              		.file 11 "Middlewares/LVGL/GUI/lvgl/src/widgets/../core/../misc/lv_bidi.h"
 1177              		.file 12 "Middlewares/LVGL/GUI/lvgl/src/widgets/../core/../misc/lv_style.h"
 1178              		.file 13 "Middlewares/LVGL/GUI/lvgl/src/widgets/../core/../hal/../draw/lv_img_buf.h"
 1179              		.file 14 "Middlewares/LVGL/GUI/lvgl/src/widgets/../core/lv_obj.h"
 1180              		.file 15 "Middlewares/LVGL/GUI/lvgl/src/widgets/../core/../hal/../draw/lv_draw_rect.h"
 1181              		.file 16 "Middlewares/LVGL/GUI/lvgl/src/widgets/../core/../hal/../draw/lv_draw_label.h"
 1182              		.file 17 "Middlewares/LVGL/GUI/lvgl/src/widgets/../core/../hal/../draw/lv_draw_img.h"
 1183              		.file 18 "Middlewares/LVGL/GUI/lvgl/src/widgets/../core/../hal/../draw/lv_draw_line.h"
 1184              		.file 19 "Middlewares/LVGL/GUI/lvgl/src/widgets/../core/../hal/../draw/lv_draw_arc.h"
 1185              		.file 20 "Middlewares/LVGL/GUI/lvgl/src/widgets/../core/../hal/../draw/lv_draw.h"
ARM GAS  C:\Users\ADMINI~1\AppData\Local\Temp\ccH3Y31L.s 			page 47


 1186              		.file 21 "Middlewares/LVGL/GUI/lvgl/src/widgets/../core/../hal/../misc/lv_ll.h"
 1187              		.file 22 "Middlewares/LVGL/GUI/lvgl/src/widgets/../core/lv_group.h"
 1188              		.file 23 "Middlewares/LVGL/GUI/lvgl/src/widgets/../core/lv_obj_scroll.h"
 1189              		.file 24 "Middlewares/LVGL/GUI/lvgl/src/widgets/../core/lv_obj_style.h"
 1190              		.file 25 "Middlewares/LVGL/GUI/lvgl/src/widgets/../core/lv_obj_class.h"
 1191              		.file 26 "Middlewares/LVGL/GUI/lvgl/src/widgets/../core/lv_event.h"
 1192              		.file 27 "Middlewares/LVGL/GUI/lvgl/src/widgets/lv_switch.h"
 1193              		.file 28 "Middlewares/LVGL/GUI/lvgl/src/widgets/../core/../hal/../draw/sw/../../core/lv_obj_pos.h"
 1194              		.file 29 "Middlewares/LVGL/GUI/lvgl/src/widgets/../core/lv_obj_draw.h"
ARM GAS  C:\Users\ADMINI~1\AppData\Local\Temp\ccH3Y31L.s 			page 48

