ARM GAS  C:\Users\ADMINI~1\AppData\Local\Temp\cchwJBFL.s 			page 1


   1              		.cpu cortex-m4
   2              		.arch armv7e-m
   3              		.fpu fpv4-sp-d16
   4              		.eabi_attribute 27, 1
   5              		.eabi_attribute 28, 1
   6              		.eabi_attribute 20, 1
   7              		.eabi_attribute 21, 1
   8              		.eabi_attribute 23, 3
   9              		.eabi_attribute 24, 1
  10              		.eabi_attribute 25, 1
  11              		.eabi_attribute 26, 1
  12              		.eabi_attribute 30, 1
  13              		.eabi_attribute 34, 1
  14              		.eabi_attribute 18, 4
  15              		.file	"lv_slider.c"
  16              		.text
  17              	.Ltext0:
  18              		.cfi_sections	.debug_frame
  19              		.section	.text.position_knob,"ax",%progbits
  20              		.align	1
  21              		.syntax unified
  22              		.thumb
  23              		.thumb_func
  25              	position_knob:
  26              	.LVL0:
  27              	.LFB173:
  28              		.file 1 "Middlewares/LVGL/GUI/lvgl/src/widgets/lv_slider.c"
   1:Middlewares/LVGL/GUI/lvgl/src/widgets/lv_slider.c **** /**
   2:Middlewares/LVGL/GUI/lvgl/src/widgets/lv_slider.c ****  * @file lv_slider.c
   3:Middlewares/LVGL/GUI/lvgl/src/widgets/lv_slider.c ****  *
   4:Middlewares/LVGL/GUI/lvgl/src/widgets/lv_slider.c ****  */
   5:Middlewares/LVGL/GUI/lvgl/src/widgets/lv_slider.c **** 
   6:Middlewares/LVGL/GUI/lvgl/src/widgets/lv_slider.c **** /*********************
   7:Middlewares/LVGL/GUI/lvgl/src/widgets/lv_slider.c ****  *      INCLUDES
   8:Middlewares/LVGL/GUI/lvgl/src/widgets/lv_slider.c ****  *********************/
   9:Middlewares/LVGL/GUI/lvgl/src/widgets/lv_slider.c **** #include "lv_slider.h"
  10:Middlewares/LVGL/GUI/lvgl/src/widgets/lv_slider.c **** #if LV_USE_SLIDER != 0
  11:Middlewares/LVGL/GUI/lvgl/src/widgets/lv_slider.c **** 
  12:Middlewares/LVGL/GUI/lvgl/src/widgets/lv_slider.c **** #include "../misc/lv_assert.h"
  13:Middlewares/LVGL/GUI/lvgl/src/widgets/lv_slider.c **** #include "../core/lv_group.h"
  14:Middlewares/LVGL/GUI/lvgl/src/widgets/lv_slider.c **** #include "../core/lv_indev.h"
  15:Middlewares/LVGL/GUI/lvgl/src/widgets/lv_slider.c **** #include "../draw/lv_draw.h"
  16:Middlewares/LVGL/GUI/lvgl/src/widgets/lv_slider.c **** #include "../misc/lv_math.h"
  17:Middlewares/LVGL/GUI/lvgl/src/widgets/lv_slider.c **** #include "../core/lv_disp.h"
  18:Middlewares/LVGL/GUI/lvgl/src/widgets/lv_slider.c **** #include "lv_img.h"
  19:Middlewares/LVGL/GUI/lvgl/src/widgets/lv_slider.c **** 
  20:Middlewares/LVGL/GUI/lvgl/src/widgets/lv_slider.c **** /*********************
  21:Middlewares/LVGL/GUI/lvgl/src/widgets/lv_slider.c ****  *      DEFINES
  22:Middlewares/LVGL/GUI/lvgl/src/widgets/lv_slider.c ****  *********************/
  23:Middlewares/LVGL/GUI/lvgl/src/widgets/lv_slider.c **** #define MY_CLASS &lv_slider_class
  24:Middlewares/LVGL/GUI/lvgl/src/widgets/lv_slider.c **** 
  25:Middlewares/LVGL/GUI/lvgl/src/widgets/lv_slider.c **** #define LV_SLIDER_KNOB_COORD(hor, is_rtl, area) (hor ? (is_rtl ? area.x1 : area.x2) : (is_rtl ? are
  26:Middlewares/LVGL/GUI/lvgl/src/widgets/lv_slider.c **** 
  27:Middlewares/LVGL/GUI/lvgl/src/widgets/lv_slider.c **** /**********************
  28:Middlewares/LVGL/GUI/lvgl/src/widgets/lv_slider.c ****  *      TYPEDEFS
  29:Middlewares/LVGL/GUI/lvgl/src/widgets/lv_slider.c ****  **********************/
  30:Middlewares/LVGL/GUI/lvgl/src/widgets/lv_slider.c **** 
ARM GAS  C:\Users\ADMINI~1\AppData\Local\Temp\cchwJBFL.s 			page 2


  31:Middlewares/LVGL/GUI/lvgl/src/widgets/lv_slider.c **** /**********************
  32:Middlewares/LVGL/GUI/lvgl/src/widgets/lv_slider.c ****  *  STATIC PROTOTYPES
  33:Middlewares/LVGL/GUI/lvgl/src/widgets/lv_slider.c ****  **********************/
  34:Middlewares/LVGL/GUI/lvgl/src/widgets/lv_slider.c **** static void lv_slider_constructor(const lv_obj_class_t * class_p, lv_obj_t * obj);
  35:Middlewares/LVGL/GUI/lvgl/src/widgets/lv_slider.c **** static void lv_slider_event(const lv_obj_class_t * class_p, lv_event_t * e);
  36:Middlewares/LVGL/GUI/lvgl/src/widgets/lv_slider.c **** static void position_knob(lv_obj_t * obj, lv_area_t * knob_area, lv_coord_t knob_size, bool hor);
  37:Middlewares/LVGL/GUI/lvgl/src/widgets/lv_slider.c **** static void draw_knob(lv_event_t * e);
  38:Middlewares/LVGL/GUI/lvgl/src/widgets/lv_slider.c **** 
  39:Middlewares/LVGL/GUI/lvgl/src/widgets/lv_slider.c **** /**********************
  40:Middlewares/LVGL/GUI/lvgl/src/widgets/lv_slider.c ****  *  STATIC VARIABLES
  41:Middlewares/LVGL/GUI/lvgl/src/widgets/lv_slider.c ****  **********************/
  42:Middlewares/LVGL/GUI/lvgl/src/widgets/lv_slider.c **** const lv_obj_class_t lv_slider_class = {
  43:Middlewares/LVGL/GUI/lvgl/src/widgets/lv_slider.c ****     .constructor_cb = lv_slider_constructor,
  44:Middlewares/LVGL/GUI/lvgl/src/widgets/lv_slider.c ****     .event_cb = lv_slider_event,
  45:Middlewares/LVGL/GUI/lvgl/src/widgets/lv_slider.c ****     .editable = LV_OBJ_CLASS_EDITABLE_TRUE,
  46:Middlewares/LVGL/GUI/lvgl/src/widgets/lv_slider.c ****     .group_def = LV_OBJ_CLASS_GROUP_DEF_TRUE,
  47:Middlewares/LVGL/GUI/lvgl/src/widgets/lv_slider.c ****     .instance_size = sizeof(lv_slider_t),
  48:Middlewares/LVGL/GUI/lvgl/src/widgets/lv_slider.c ****     .base_class = &lv_bar_class
  49:Middlewares/LVGL/GUI/lvgl/src/widgets/lv_slider.c **** };
  50:Middlewares/LVGL/GUI/lvgl/src/widgets/lv_slider.c **** 
  51:Middlewares/LVGL/GUI/lvgl/src/widgets/lv_slider.c **** /**********************
  52:Middlewares/LVGL/GUI/lvgl/src/widgets/lv_slider.c ****  *      MACROS
  53:Middlewares/LVGL/GUI/lvgl/src/widgets/lv_slider.c ****  **********************/
  54:Middlewares/LVGL/GUI/lvgl/src/widgets/lv_slider.c **** 
  55:Middlewares/LVGL/GUI/lvgl/src/widgets/lv_slider.c **** /**********************
  56:Middlewares/LVGL/GUI/lvgl/src/widgets/lv_slider.c ****  *   GLOBAL FUNCTIONS
  57:Middlewares/LVGL/GUI/lvgl/src/widgets/lv_slider.c ****  **********************/
  58:Middlewares/LVGL/GUI/lvgl/src/widgets/lv_slider.c **** 
  59:Middlewares/LVGL/GUI/lvgl/src/widgets/lv_slider.c **** lv_obj_t * lv_slider_create(lv_obj_t * parent)
  60:Middlewares/LVGL/GUI/lvgl/src/widgets/lv_slider.c **** {
  61:Middlewares/LVGL/GUI/lvgl/src/widgets/lv_slider.c ****     LV_LOG_INFO("begin");
  62:Middlewares/LVGL/GUI/lvgl/src/widgets/lv_slider.c ****     lv_obj_t * obj = lv_obj_class_create_obj(MY_CLASS, parent);
  63:Middlewares/LVGL/GUI/lvgl/src/widgets/lv_slider.c ****     lv_obj_class_init_obj(obj);
  64:Middlewares/LVGL/GUI/lvgl/src/widgets/lv_slider.c ****     return obj;
  65:Middlewares/LVGL/GUI/lvgl/src/widgets/lv_slider.c **** }
  66:Middlewares/LVGL/GUI/lvgl/src/widgets/lv_slider.c **** 
  67:Middlewares/LVGL/GUI/lvgl/src/widgets/lv_slider.c **** bool lv_slider_is_dragged(const lv_obj_t * obj)
  68:Middlewares/LVGL/GUI/lvgl/src/widgets/lv_slider.c **** {
  69:Middlewares/LVGL/GUI/lvgl/src/widgets/lv_slider.c ****     LV_ASSERT_OBJ(obj, MY_CLASS);
  70:Middlewares/LVGL/GUI/lvgl/src/widgets/lv_slider.c ****     lv_slider_t * slider = (lv_slider_t *)obj;
  71:Middlewares/LVGL/GUI/lvgl/src/widgets/lv_slider.c **** 
  72:Middlewares/LVGL/GUI/lvgl/src/widgets/lv_slider.c ****     return slider->dragging ? true : false;
  73:Middlewares/LVGL/GUI/lvgl/src/widgets/lv_slider.c **** }
  74:Middlewares/LVGL/GUI/lvgl/src/widgets/lv_slider.c **** 
  75:Middlewares/LVGL/GUI/lvgl/src/widgets/lv_slider.c **** /**********************
  76:Middlewares/LVGL/GUI/lvgl/src/widgets/lv_slider.c ****  *   STATIC FUNCTIONS
  77:Middlewares/LVGL/GUI/lvgl/src/widgets/lv_slider.c ****  **********************/
  78:Middlewares/LVGL/GUI/lvgl/src/widgets/lv_slider.c **** 
  79:Middlewares/LVGL/GUI/lvgl/src/widgets/lv_slider.c **** static void lv_slider_constructor(const lv_obj_class_t * class_p, lv_obj_t * obj)
  80:Middlewares/LVGL/GUI/lvgl/src/widgets/lv_slider.c **** {
  81:Middlewares/LVGL/GUI/lvgl/src/widgets/lv_slider.c ****     LV_UNUSED(class_p);
  82:Middlewares/LVGL/GUI/lvgl/src/widgets/lv_slider.c ****     lv_slider_t * slider = (lv_slider_t *)obj;
  83:Middlewares/LVGL/GUI/lvgl/src/widgets/lv_slider.c **** 
  84:Middlewares/LVGL/GUI/lvgl/src/widgets/lv_slider.c ****     /*Initialize the allocated 'slider'*/
  85:Middlewares/LVGL/GUI/lvgl/src/widgets/lv_slider.c ****     slider->value_to_set = NULL;
  86:Middlewares/LVGL/GUI/lvgl/src/widgets/lv_slider.c ****     slider->dragging = 0;
  87:Middlewares/LVGL/GUI/lvgl/src/widgets/lv_slider.c ****     slider->left_knob_focus = 0;
ARM GAS  C:\Users\ADMINI~1\AppData\Local\Temp\cchwJBFL.s 			page 3


  88:Middlewares/LVGL/GUI/lvgl/src/widgets/lv_slider.c **** 
  89:Middlewares/LVGL/GUI/lvgl/src/widgets/lv_slider.c ****     lv_obj_clear_flag(obj, LV_OBJ_FLAG_SCROLL_CHAIN);
  90:Middlewares/LVGL/GUI/lvgl/src/widgets/lv_slider.c ****     lv_obj_clear_flag(obj, LV_OBJ_FLAG_SCROLLABLE);
  91:Middlewares/LVGL/GUI/lvgl/src/widgets/lv_slider.c ****     lv_obj_set_ext_click_area(obj, LV_DPX(8));
  92:Middlewares/LVGL/GUI/lvgl/src/widgets/lv_slider.c **** }
  93:Middlewares/LVGL/GUI/lvgl/src/widgets/lv_slider.c **** 
  94:Middlewares/LVGL/GUI/lvgl/src/widgets/lv_slider.c **** static void lv_slider_event(const lv_obj_class_t * class_p, lv_event_t * e)
  95:Middlewares/LVGL/GUI/lvgl/src/widgets/lv_slider.c **** {
  96:Middlewares/LVGL/GUI/lvgl/src/widgets/lv_slider.c ****     LV_UNUSED(class_p);
  97:Middlewares/LVGL/GUI/lvgl/src/widgets/lv_slider.c **** 
  98:Middlewares/LVGL/GUI/lvgl/src/widgets/lv_slider.c ****     lv_res_t res;
  99:Middlewares/LVGL/GUI/lvgl/src/widgets/lv_slider.c **** 
 100:Middlewares/LVGL/GUI/lvgl/src/widgets/lv_slider.c ****     /*Call the ancestor's event handler*/
 101:Middlewares/LVGL/GUI/lvgl/src/widgets/lv_slider.c ****     res = lv_obj_event_base(MY_CLASS, e);
 102:Middlewares/LVGL/GUI/lvgl/src/widgets/lv_slider.c ****     if(res != LV_RES_OK) return;
 103:Middlewares/LVGL/GUI/lvgl/src/widgets/lv_slider.c **** 
 104:Middlewares/LVGL/GUI/lvgl/src/widgets/lv_slider.c ****     lv_event_code_t code = lv_event_get_code(e);
 105:Middlewares/LVGL/GUI/lvgl/src/widgets/lv_slider.c ****     lv_obj_t * obj = lv_event_get_target(e);
 106:Middlewares/LVGL/GUI/lvgl/src/widgets/lv_slider.c ****     lv_slider_t * slider = (lv_slider_t *)obj;
 107:Middlewares/LVGL/GUI/lvgl/src/widgets/lv_slider.c ****     lv_slider_mode_t type = lv_slider_get_mode(obj);
 108:Middlewares/LVGL/GUI/lvgl/src/widgets/lv_slider.c **** 
 109:Middlewares/LVGL/GUI/lvgl/src/widgets/lv_slider.c ****     /*Advanced hit testing: react only on dragging the knob(s)*/
 110:Middlewares/LVGL/GUI/lvgl/src/widgets/lv_slider.c ****     if(code == LV_EVENT_HIT_TEST) {
 111:Middlewares/LVGL/GUI/lvgl/src/widgets/lv_slider.c ****         lv_hit_test_info_t * info = lv_event_get_param(e);
 112:Middlewares/LVGL/GUI/lvgl/src/widgets/lv_slider.c ****         lv_coord_t ext_click_area = obj->spec_attr ? obj->spec_attr->ext_click_pad : 0;
 113:Middlewares/LVGL/GUI/lvgl/src/widgets/lv_slider.c **** 
 114:Middlewares/LVGL/GUI/lvgl/src/widgets/lv_slider.c ****         /*Ordinary slider: was the knob area hit?*/
 115:Middlewares/LVGL/GUI/lvgl/src/widgets/lv_slider.c ****         lv_area_t a;
 116:Middlewares/LVGL/GUI/lvgl/src/widgets/lv_slider.c ****         lv_area_copy(&a, &slider->right_knob_area);
 117:Middlewares/LVGL/GUI/lvgl/src/widgets/lv_slider.c ****         lv_area_increase(&a, ext_click_area, ext_click_area);
 118:Middlewares/LVGL/GUI/lvgl/src/widgets/lv_slider.c ****         info->res = _lv_area_is_point_on(&a, info->point, 0);
 119:Middlewares/LVGL/GUI/lvgl/src/widgets/lv_slider.c **** 
 120:Middlewares/LVGL/GUI/lvgl/src/widgets/lv_slider.c ****         /*There's still a chance that there is a hit if there is another knob*/
 121:Middlewares/LVGL/GUI/lvgl/src/widgets/lv_slider.c ****         if((info->res == false) && (type == LV_SLIDER_MODE_RANGE)) {
 122:Middlewares/LVGL/GUI/lvgl/src/widgets/lv_slider.c ****             lv_area_copy(&a, &slider->left_knob_area);
 123:Middlewares/LVGL/GUI/lvgl/src/widgets/lv_slider.c ****             lv_area_increase(&a, ext_click_area, ext_click_area);
 124:Middlewares/LVGL/GUI/lvgl/src/widgets/lv_slider.c ****             info->res = _lv_area_is_point_on(&a, info->point, 0);
 125:Middlewares/LVGL/GUI/lvgl/src/widgets/lv_slider.c ****         }
 126:Middlewares/LVGL/GUI/lvgl/src/widgets/lv_slider.c ****     }
 127:Middlewares/LVGL/GUI/lvgl/src/widgets/lv_slider.c ****     else if(code == LV_EVENT_PRESSED) {
 128:Middlewares/LVGL/GUI/lvgl/src/widgets/lv_slider.c ****         lv_obj_invalidate(obj);
 129:Middlewares/LVGL/GUI/lvgl/src/widgets/lv_slider.c **** 
 130:Middlewares/LVGL/GUI/lvgl/src/widgets/lv_slider.c ****         lv_point_t p;
 131:Middlewares/LVGL/GUI/lvgl/src/widgets/lv_slider.c ****         slider->dragging = true;
 132:Middlewares/LVGL/GUI/lvgl/src/widgets/lv_slider.c ****         if(type == LV_SLIDER_MODE_NORMAL || type == LV_SLIDER_MODE_SYMMETRICAL) {
 133:Middlewares/LVGL/GUI/lvgl/src/widgets/lv_slider.c ****             slider->value_to_set = &slider->bar.cur_value;
 134:Middlewares/LVGL/GUI/lvgl/src/widgets/lv_slider.c ****         }
 135:Middlewares/LVGL/GUI/lvgl/src/widgets/lv_slider.c ****         else if(type == LV_SLIDER_MODE_RANGE) {
 136:Middlewares/LVGL/GUI/lvgl/src/widgets/lv_slider.c ****             lv_indev_get_point(lv_indev_get_act(), &p);
 137:Middlewares/LVGL/GUI/lvgl/src/widgets/lv_slider.c ****             bool hor = lv_obj_get_width(obj) >= lv_obj_get_height(obj);
 138:Middlewares/LVGL/GUI/lvgl/src/widgets/lv_slider.c ****             lv_base_dir_t base_dir = lv_obj_get_style_base_dir(obj, LV_PART_MAIN);
 139:Middlewares/LVGL/GUI/lvgl/src/widgets/lv_slider.c **** 
 140:Middlewares/LVGL/GUI/lvgl/src/widgets/lv_slider.c ****             lv_coord_t dist_left, dist_right;
 141:Middlewares/LVGL/GUI/lvgl/src/widgets/lv_slider.c ****             if(hor) {
 142:Middlewares/LVGL/GUI/lvgl/src/widgets/lv_slider.c ****                 if((base_dir != LV_BASE_DIR_RTL && p.x > slider->right_knob_area.x2) || (base_dir =
 143:Middlewares/LVGL/GUI/lvgl/src/widgets/lv_slider.c ****                                                                                          p.x < slid
 144:Middlewares/LVGL/GUI/lvgl/src/widgets/lv_slider.c ****                     slider->value_to_set = &slider->bar.cur_value;
ARM GAS  C:\Users\ADMINI~1\AppData\Local\Temp\cchwJBFL.s 			page 4


 145:Middlewares/LVGL/GUI/lvgl/src/widgets/lv_slider.c ****                 }
 146:Middlewares/LVGL/GUI/lvgl/src/widgets/lv_slider.c ****                 else if((base_dir != LV_BASE_DIR_RTL && p.x < slider->left_knob_area.x1) || (base_d
 147:Middlewares/LVGL/GUI/lvgl/src/widgets/lv_slider.c ****                                                                                              p.x > 
 148:Middlewares/LVGL/GUI/lvgl/src/widgets/lv_slider.c ****                     slider->value_to_set = &slider->bar.start_value;
 149:Middlewares/LVGL/GUI/lvgl/src/widgets/lv_slider.c ****                 }
 150:Middlewares/LVGL/GUI/lvgl/src/widgets/lv_slider.c ****                 else {
 151:Middlewares/LVGL/GUI/lvgl/src/widgets/lv_slider.c ****                     /*Calculate the distance from each knob*/
 152:Middlewares/LVGL/GUI/lvgl/src/widgets/lv_slider.c ****                     dist_left = LV_ABS((slider->left_knob_area.x1 + (slider->left_knob_area.x2 - sl
 153:Middlewares/LVGL/GUI/lvgl/src/widgets/lv_slider.c ****                     dist_right = LV_ABS((slider->right_knob_area.x1 + (slider->right_knob_area.x2 -
 154:Middlewares/LVGL/GUI/lvgl/src/widgets/lv_slider.c **** 
 155:Middlewares/LVGL/GUI/lvgl/src/widgets/lv_slider.c ****                     /*Use whichever one is closer*/
 156:Middlewares/LVGL/GUI/lvgl/src/widgets/lv_slider.c ****                     if(dist_right < dist_left) {
 157:Middlewares/LVGL/GUI/lvgl/src/widgets/lv_slider.c ****                         slider->value_to_set = &slider->bar.cur_value;
 158:Middlewares/LVGL/GUI/lvgl/src/widgets/lv_slider.c ****                         slider->left_knob_focus = 0;
 159:Middlewares/LVGL/GUI/lvgl/src/widgets/lv_slider.c ****                     }
 160:Middlewares/LVGL/GUI/lvgl/src/widgets/lv_slider.c ****                     else {
 161:Middlewares/LVGL/GUI/lvgl/src/widgets/lv_slider.c ****                         slider->value_to_set = &slider->bar.start_value;
 162:Middlewares/LVGL/GUI/lvgl/src/widgets/lv_slider.c ****                         slider->left_knob_focus = 1;
 163:Middlewares/LVGL/GUI/lvgl/src/widgets/lv_slider.c ****                     }
 164:Middlewares/LVGL/GUI/lvgl/src/widgets/lv_slider.c ****                 }
 165:Middlewares/LVGL/GUI/lvgl/src/widgets/lv_slider.c ****             }
 166:Middlewares/LVGL/GUI/lvgl/src/widgets/lv_slider.c ****             else {
 167:Middlewares/LVGL/GUI/lvgl/src/widgets/lv_slider.c ****                 if(p.y < slider->right_knob_area.y1) {
 168:Middlewares/LVGL/GUI/lvgl/src/widgets/lv_slider.c ****                     slider->value_to_set = &slider->bar.cur_value;
 169:Middlewares/LVGL/GUI/lvgl/src/widgets/lv_slider.c ****                 }
 170:Middlewares/LVGL/GUI/lvgl/src/widgets/lv_slider.c ****                 else if(p.y > slider->left_knob_area.y2) {
 171:Middlewares/LVGL/GUI/lvgl/src/widgets/lv_slider.c ****                     slider->value_to_set = &slider->bar.start_value;
 172:Middlewares/LVGL/GUI/lvgl/src/widgets/lv_slider.c ****                 }
 173:Middlewares/LVGL/GUI/lvgl/src/widgets/lv_slider.c ****                 else {
 174:Middlewares/LVGL/GUI/lvgl/src/widgets/lv_slider.c ****                     /*Calculate the distance from each knob*/
 175:Middlewares/LVGL/GUI/lvgl/src/widgets/lv_slider.c ****                     dist_left = LV_ABS((slider->left_knob_area.y1 + (slider->left_knob_area.y2 - sl
 176:Middlewares/LVGL/GUI/lvgl/src/widgets/lv_slider.c ****                     dist_right = LV_ABS((slider->right_knob_area.y1 + (slider->right_knob_area.y2 -
 177:Middlewares/LVGL/GUI/lvgl/src/widgets/lv_slider.c **** 
 178:Middlewares/LVGL/GUI/lvgl/src/widgets/lv_slider.c ****                     /*Use whichever one is closer*/
 179:Middlewares/LVGL/GUI/lvgl/src/widgets/lv_slider.c ****                     if(dist_right < dist_left) {
 180:Middlewares/LVGL/GUI/lvgl/src/widgets/lv_slider.c ****                         slider->value_to_set = &slider->bar.cur_value;
 181:Middlewares/LVGL/GUI/lvgl/src/widgets/lv_slider.c ****                         slider->left_knob_focus = 0;
 182:Middlewares/LVGL/GUI/lvgl/src/widgets/lv_slider.c ****                     }
 183:Middlewares/LVGL/GUI/lvgl/src/widgets/lv_slider.c ****                     else {
 184:Middlewares/LVGL/GUI/lvgl/src/widgets/lv_slider.c ****                         slider->value_to_set = &slider->bar.start_value;
 185:Middlewares/LVGL/GUI/lvgl/src/widgets/lv_slider.c ****                         slider->left_knob_focus = 1;
 186:Middlewares/LVGL/GUI/lvgl/src/widgets/lv_slider.c ****                     }
 187:Middlewares/LVGL/GUI/lvgl/src/widgets/lv_slider.c ****                 }
 188:Middlewares/LVGL/GUI/lvgl/src/widgets/lv_slider.c ****             }
 189:Middlewares/LVGL/GUI/lvgl/src/widgets/lv_slider.c ****         }
 190:Middlewares/LVGL/GUI/lvgl/src/widgets/lv_slider.c ****     }
 191:Middlewares/LVGL/GUI/lvgl/src/widgets/lv_slider.c ****     else if(code == LV_EVENT_PRESSING && slider->value_to_set != NULL) {
 192:Middlewares/LVGL/GUI/lvgl/src/widgets/lv_slider.c ****         lv_indev_t * indev = lv_indev_get_act();
 193:Middlewares/LVGL/GUI/lvgl/src/widgets/lv_slider.c ****         if(lv_indev_get_type(indev) != LV_INDEV_TYPE_POINTER) return;
 194:Middlewares/LVGL/GUI/lvgl/src/widgets/lv_slider.c **** 
 195:Middlewares/LVGL/GUI/lvgl/src/widgets/lv_slider.c ****         lv_point_t p;
 196:Middlewares/LVGL/GUI/lvgl/src/widgets/lv_slider.c ****         lv_indev_get_point(indev, &p);
 197:Middlewares/LVGL/GUI/lvgl/src/widgets/lv_slider.c ****         lv_base_dir_t base_dir = lv_obj_get_style_base_dir(obj, LV_PART_MAIN);
 198:Middlewares/LVGL/GUI/lvgl/src/widgets/lv_slider.c **** 
 199:Middlewares/LVGL/GUI/lvgl/src/widgets/lv_slider.c ****         lv_coord_t w = lv_obj_get_width(obj);
 200:Middlewares/LVGL/GUI/lvgl/src/widgets/lv_slider.c ****         lv_coord_t h = lv_obj_get_height(obj);
 201:Middlewares/LVGL/GUI/lvgl/src/widgets/lv_slider.c **** 
ARM GAS  C:\Users\ADMINI~1\AppData\Local\Temp\cchwJBFL.s 			page 5


 202:Middlewares/LVGL/GUI/lvgl/src/widgets/lv_slider.c ****         lv_coord_t bg_left = lv_obj_get_style_pad_left(obj,   LV_PART_MAIN);
 203:Middlewares/LVGL/GUI/lvgl/src/widgets/lv_slider.c ****         lv_coord_t bg_right = lv_obj_get_style_pad_right(obj,  LV_PART_MAIN);
 204:Middlewares/LVGL/GUI/lvgl/src/widgets/lv_slider.c ****         lv_coord_t bg_top = lv_obj_get_style_pad_top(obj,    LV_PART_MAIN);
 205:Middlewares/LVGL/GUI/lvgl/src/widgets/lv_slider.c ****         lv_coord_t bg_bottom = lv_obj_get_style_pad_bottom(obj, LV_PART_MAIN);
 206:Middlewares/LVGL/GUI/lvgl/src/widgets/lv_slider.c **** 
 207:Middlewares/LVGL/GUI/lvgl/src/widgets/lv_slider.c ****         int32_t range = slider->bar.max_value - slider->bar.min_value;
 208:Middlewares/LVGL/GUI/lvgl/src/widgets/lv_slider.c ****         int32_t new_value = 0;
 209:Middlewares/LVGL/GUI/lvgl/src/widgets/lv_slider.c ****         int32_t real_max_value = slider->bar.max_value;
 210:Middlewares/LVGL/GUI/lvgl/src/widgets/lv_slider.c ****         int32_t real_min_value = slider->bar.min_value;
 211:Middlewares/LVGL/GUI/lvgl/src/widgets/lv_slider.c **** 
 212:Middlewares/LVGL/GUI/lvgl/src/widgets/lv_slider.c ****         if(w >= h) {
 213:Middlewares/LVGL/GUI/lvgl/src/widgets/lv_slider.c ****             lv_coord_t indic_w = w - bg_left - bg_right;
 214:Middlewares/LVGL/GUI/lvgl/src/widgets/lv_slider.c ****             if(base_dir == LV_BASE_DIR_RTL) {
 215:Middlewares/LVGL/GUI/lvgl/src/widgets/lv_slider.c ****                 new_value = (obj->coords.x2 - bg_right) - p.x; /*Make the point relative to the ind
 216:Middlewares/LVGL/GUI/lvgl/src/widgets/lv_slider.c ****             }
 217:Middlewares/LVGL/GUI/lvgl/src/widgets/lv_slider.c ****             else {
 218:Middlewares/LVGL/GUI/lvgl/src/widgets/lv_slider.c ****                 new_value = p.x - (obj->coords.x1 + bg_left); /*Make the point relative to the indi
 219:Middlewares/LVGL/GUI/lvgl/src/widgets/lv_slider.c ****             }
 220:Middlewares/LVGL/GUI/lvgl/src/widgets/lv_slider.c ****             new_value = (new_value * range) / indic_w;
 221:Middlewares/LVGL/GUI/lvgl/src/widgets/lv_slider.c ****             new_value += slider->bar.min_value;
 222:Middlewares/LVGL/GUI/lvgl/src/widgets/lv_slider.c ****         }
 223:Middlewares/LVGL/GUI/lvgl/src/widgets/lv_slider.c ****         else {
 224:Middlewares/LVGL/GUI/lvgl/src/widgets/lv_slider.c ****             lv_coord_t indic_h = h - bg_bottom - bg_top;
 225:Middlewares/LVGL/GUI/lvgl/src/widgets/lv_slider.c ****             new_value = p.y - (obj->coords.y2 + bg_bottom); /*Make the point relative to the indica
 226:Middlewares/LVGL/GUI/lvgl/src/widgets/lv_slider.c ****             new_value = (-new_value * range) / indic_h;
 227:Middlewares/LVGL/GUI/lvgl/src/widgets/lv_slider.c ****             new_value += slider->bar.min_value;
 228:Middlewares/LVGL/GUI/lvgl/src/widgets/lv_slider.c **** 
 229:Middlewares/LVGL/GUI/lvgl/src/widgets/lv_slider.c ****         }
 230:Middlewares/LVGL/GUI/lvgl/src/widgets/lv_slider.c **** 
 231:Middlewares/LVGL/GUI/lvgl/src/widgets/lv_slider.c ****         /*Figure out the min. and max. for this mode*/
 232:Middlewares/LVGL/GUI/lvgl/src/widgets/lv_slider.c ****         if(slider->value_to_set == &slider->bar.start_value) {
 233:Middlewares/LVGL/GUI/lvgl/src/widgets/lv_slider.c ****             real_max_value = slider->bar.cur_value;
 234:Middlewares/LVGL/GUI/lvgl/src/widgets/lv_slider.c ****         }
 235:Middlewares/LVGL/GUI/lvgl/src/widgets/lv_slider.c ****         else {
 236:Middlewares/LVGL/GUI/lvgl/src/widgets/lv_slider.c ****             real_min_value = slider->bar.start_value;
 237:Middlewares/LVGL/GUI/lvgl/src/widgets/lv_slider.c ****         }
 238:Middlewares/LVGL/GUI/lvgl/src/widgets/lv_slider.c **** 
 239:Middlewares/LVGL/GUI/lvgl/src/widgets/lv_slider.c ****         if(new_value < real_min_value) new_value = real_min_value;
 240:Middlewares/LVGL/GUI/lvgl/src/widgets/lv_slider.c ****         else if(new_value > real_max_value) new_value = real_max_value;
 241:Middlewares/LVGL/GUI/lvgl/src/widgets/lv_slider.c ****         if(*slider->value_to_set != new_value) {
 242:Middlewares/LVGL/GUI/lvgl/src/widgets/lv_slider.c ****             *slider->value_to_set = new_value;
 243:Middlewares/LVGL/GUI/lvgl/src/widgets/lv_slider.c ****             lv_obj_invalidate(obj);
 244:Middlewares/LVGL/GUI/lvgl/src/widgets/lv_slider.c ****             res = lv_event_send(obj, LV_EVENT_VALUE_CHANGED, NULL);
 245:Middlewares/LVGL/GUI/lvgl/src/widgets/lv_slider.c ****             if(res != LV_RES_OK) return;
 246:Middlewares/LVGL/GUI/lvgl/src/widgets/lv_slider.c ****         }
 247:Middlewares/LVGL/GUI/lvgl/src/widgets/lv_slider.c **** 
 248:Middlewares/LVGL/GUI/lvgl/src/widgets/lv_slider.c ****     }
 249:Middlewares/LVGL/GUI/lvgl/src/widgets/lv_slider.c ****     else if(code == LV_EVENT_RELEASED || code == LV_EVENT_PRESS_LOST) {
 250:Middlewares/LVGL/GUI/lvgl/src/widgets/lv_slider.c ****         slider->dragging = false;
 251:Middlewares/LVGL/GUI/lvgl/src/widgets/lv_slider.c ****         slider->value_to_set = NULL;
 252:Middlewares/LVGL/GUI/lvgl/src/widgets/lv_slider.c **** 
 253:Middlewares/LVGL/GUI/lvgl/src/widgets/lv_slider.c ****         lv_obj_invalidate(obj);
 254:Middlewares/LVGL/GUI/lvgl/src/widgets/lv_slider.c **** 
 255:Middlewares/LVGL/GUI/lvgl/src/widgets/lv_slider.c ****         /*Leave edit mode if released. (No need to wait for LONG_PRESS)*/
 256:Middlewares/LVGL/GUI/lvgl/src/widgets/lv_slider.c ****         lv_group_t * g   = lv_obj_get_group(obj);
 257:Middlewares/LVGL/GUI/lvgl/src/widgets/lv_slider.c ****         bool editing     = lv_group_get_editing(g);
 258:Middlewares/LVGL/GUI/lvgl/src/widgets/lv_slider.c ****         lv_indev_type_t indev_type = lv_indev_get_type(lv_indev_get_act());
ARM GAS  C:\Users\ADMINI~1\AppData\Local\Temp\cchwJBFL.s 			page 6


 259:Middlewares/LVGL/GUI/lvgl/src/widgets/lv_slider.c ****         if(indev_type == LV_INDEV_TYPE_ENCODER) {
 260:Middlewares/LVGL/GUI/lvgl/src/widgets/lv_slider.c ****             if(editing) {
 261:Middlewares/LVGL/GUI/lvgl/src/widgets/lv_slider.c ****                 if(lv_slider_get_mode(obj) == LV_SLIDER_MODE_RANGE) {
 262:Middlewares/LVGL/GUI/lvgl/src/widgets/lv_slider.c ****                     if(slider->left_knob_focus == 0) slider->left_knob_focus = 1;
 263:Middlewares/LVGL/GUI/lvgl/src/widgets/lv_slider.c ****                     else {
 264:Middlewares/LVGL/GUI/lvgl/src/widgets/lv_slider.c ****                         slider->left_knob_focus = 0;
 265:Middlewares/LVGL/GUI/lvgl/src/widgets/lv_slider.c ****                         lv_group_set_editing(g, false);
 266:Middlewares/LVGL/GUI/lvgl/src/widgets/lv_slider.c ****                     }
 267:Middlewares/LVGL/GUI/lvgl/src/widgets/lv_slider.c ****                 }
 268:Middlewares/LVGL/GUI/lvgl/src/widgets/lv_slider.c ****                 else {
 269:Middlewares/LVGL/GUI/lvgl/src/widgets/lv_slider.c ****                     lv_group_set_editing(g, false);
 270:Middlewares/LVGL/GUI/lvgl/src/widgets/lv_slider.c ****                 }
 271:Middlewares/LVGL/GUI/lvgl/src/widgets/lv_slider.c ****             }
 272:Middlewares/LVGL/GUI/lvgl/src/widgets/lv_slider.c ****         }
 273:Middlewares/LVGL/GUI/lvgl/src/widgets/lv_slider.c **** 
 274:Middlewares/LVGL/GUI/lvgl/src/widgets/lv_slider.c ****     }
 275:Middlewares/LVGL/GUI/lvgl/src/widgets/lv_slider.c ****     else if(code == LV_EVENT_FOCUSED) {
 276:Middlewares/LVGL/GUI/lvgl/src/widgets/lv_slider.c ****         lv_indev_type_t indev_type = lv_indev_get_type(lv_indev_get_act());
 277:Middlewares/LVGL/GUI/lvgl/src/widgets/lv_slider.c ****         if(indev_type == LV_INDEV_TYPE_ENCODER || indev_type == LV_INDEV_TYPE_KEYPAD) {
 278:Middlewares/LVGL/GUI/lvgl/src/widgets/lv_slider.c ****             slider->left_knob_focus = 0;
 279:Middlewares/LVGL/GUI/lvgl/src/widgets/lv_slider.c ****         }
 280:Middlewares/LVGL/GUI/lvgl/src/widgets/lv_slider.c ****     }
 281:Middlewares/LVGL/GUI/lvgl/src/widgets/lv_slider.c ****     else if(code == LV_EVENT_SIZE_CHANGED) {
 282:Middlewares/LVGL/GUI/lvgl/src/widgets/lv_slider.c ****         lv_obj_refresh_ext_draw_size(obj);
 283:Middlewares/LVGL/GUI/lvgl/src/widgets/lv_slider.c ****     }
 284:Middlewares/LVGL/GUI/lvgl/src/widgets/lv_slider.c ****     else if(code == LV_EVENT_REFR_EXT_DRAW_SIZE) {
 285:Middlewares/LVGL/GUI/lvgl/src/widgets/lv_slider.c ****         lv_coord_t knob_left = lv_obj_get_style_pad_left(obj, LV_PART_KNOB);
 286:Middlewares/LVGL/GUI/lvgl/src/widgets/lv_slider.c ****         lv_coord_t knob_right = lv_obj_get_style_pad_right(obj, LV_PART_KNOB);
 287:Middlewares/LVGL/GUI/lvgl/src/widgets/lv_slider.c ****         lv_coord_t knob_top = lv_obj_get_style_pad_top(obj, LV_PART_KNOB);
 288:Middlewares/LVGL/GUI/lvgl/src/widgets/lv_slider.c ****         lv_coord_t knob_bottom = lv_obj_get_style_pad_bottom(obj, LV_PART_KNOB);
 289:Middlewares/LVGL/GUI/lvgl/src/widgets/lv_slider.c **** 
 290:Middlewares/LVGL/GUI/lvgl/src/widgets/lv_slider.c ****         /*The smaller size is the knob diameter*/
 291:Middlewares/LVGL/GUI/lvgl/src/widgets/lv_slider.c ****         lv_coord_t zoom = lv_obj_get_style_transform_zoom(obj, LV_PART_KNOB);
 292:Middlewares/LVGL/GUI/lvgl/src/widgets/lv_slider.c ****         lv_coord_t trans_w = lv_obj_get_style_transform_width(obj, LV_PART_KNOB);
 293:Middlewares/LVGL/GUI/lvgl/src/widgets/lv_slider.c ****         lv_coord_t trans_h = lv_obj_get_style_transform_height(obj, LV_PART_KNOB);
 294:Middlewares/LVGL/GUI/lvgl/src/widgets/lv_slider.c ****         lv_coord_t knob_size = LV_MIN(lv_obj_get_width(obj) + 2 * trans_w, lv_obj_get_height(obj) +
 295:Middlewares/LVGL/GUI/lvgl/src/widgets/lv_slider.c ****         knob_size = (knob_size * zoom) >> 8;
 296:Middlewares/LVGL/GUI/lvgl/src/widgets/lv_slider.c ****         knob_size += LV_MAX(LV_MAX(knob_left, knob_right), LV_MAX(knob_bottom, knob_top));
 297:Middlewares/LVGL/GUI/lvgl/src/widgets/lv_slider.c ****         knob_size += 2;         /*For rounding error*/
 298:Middlewares/LVGL/GUI/lvgl/src/widgets/lv_slider.c ****         knob_size += lv_obj_calculate_ext_draw_size(obj, LV_PART_KNOB);
 299:Middlewares/LVGL/GUI/lvgl/src/widgets/lv_slider.c **** 
 300:Middlewares/LVGL/GUI/lvgl/src/widgets/lv_slider.c ****         /*Indic. size is handled by bar*/
 301:Middlewares/LVGL/GUI/lvgl/src/widgets/lv_slider.c ****         lv_coord_t * s = lv_event_get_param(e);
 302:Middlewares/LVGL/GUI/lvgl/src/widgets/lv_slider.c ****         *s  = LV_MAX(*s, knob_size);
 303:Middlewares/LVGL/GUI/lvgl/src/widgets/lv_slider.c **** 
 304:Middlewares/LVGL/GUI/lvgl/src/widgets/lv_slider.c ****     }
 305:Middlewares/LVGL/GUI/lvgl/src/widgets/lv_slider.c ****     else if(code == LV_EVENT_KEY) {
 306:Middlewares/LVGL/GUI/lvgl/src/widgets/lv_slider.c ****         char c = *((char *)lv_event_get_param(e));
 307:Middlewares/LVGL/GUI/lvgl/src/widgets/lv_slider.c **** 
 308:Middlewares/LVGL/GUI/lvgl/src/widgets/lv_slider.c ****         if(c == LV_KEY_RIGHT || c == LV_KEY_UP) {
 309:Middlewares/LVGL/GUI/lvgl/src/widgets/lv_slider.c ****             if(!slider->left_knob_focus) lv_slider_set_value(obj, lv_slider_get_value(obj) + 1, LV_
 310:Middlewares/LVGL/GUI/lvgl/src/widgets/lv_slider.c ****             else lv_slider_set_left_value(obj, lv_slider_get_left_value(obj) + 1, LV_ANIM_ON);
 311:Middlewares/LVGL/GUI/lvgl/src/widgets/lv_slider.c **** 
 312:Middlewares/LVGL/GUI/lvgl/src/widgets/lv_slider.c ****             res = lv_event_send(obj, LV_EVENT_VALUE_CHANGED, NULL);
 313:Middlewares/LVGL/GUI/lvgl/src/widgets/lv_slider.c ****             if(res != LV_RES_OK) return;
 314:Middlewares/LVGL/GUI/lvgl/src/widgets/lv_slider.c ****         }
 315:Middlewares/LVGL/GUI/lvgl/src/widgets/lv_slider.c ****         else if(c == LV_KEY_LEFT || c == LV_KEY_DOWN) {
ARM GAS  C:\Users\ADMINI~1\AppData\Local\Temp\cchwJBFL.s 			page 7


 316:Middlewares/LVGL/GUI/lvgl/src/widgets/lv_slider.c ****             if(!slider->left_knob_focus) lv_slider_set_value(obj, lv_slider_get_value(obj) - 1, LV_
 317:Middlewares/LVGL/GUI/lvgl/src/widgets/lv_slider.c ****             else lv_slider_set_left_value(obj, lv_slider_get_left_value(obj) - 1, LV_ANIM_ON);
 318:Middlewares/LVGL/GUI/lvgl/src/widgets/lv_slider.c **** 
 319:Middlewares/LVGL/GUI/lvgl/src/widgets/lv_slider.c ****             res = lv_event_send(obj, LV_EVENT_VALUE_CHANGED, NULL);
 320:Middlewares/LVGL/GUI/lvgl/src/widgets/lv_slider.c ****             if(res != LV_RES_OK) return;
 321:Middlewares/LVGL/GUI/lvgl/src/widgets/lv_slider.c ****         }
 322:Middlewares/LVGL/GUI/lvgl/src/widgets/lv_slider.c ****     }
 323:Middlewares/LVGL/GUI/lvgl/src/widgets/lv_slider.c ****     else if(code == LV_EVENT_DRAW_MAIN) {
 324:Middlewares/LVGL/GUI/lvgl/src/widgets/lv_slider.c ****         draw_knob(e);
 325:Middlewares/LVGL/GUI/lvgl/src/widgets/lv_slider.c ****     }
 326:Middlewares/LVGL/GUI/lvgl/src/widgets/lv_slider.c **** }
 327:Middlewares/LVGL/GUI/lvgl/src/widgets/lv_slider.c **** 
 328:Middlewares/LVGL/GUI/lvgl/src/widgets/lv_slider.c **** static void draw_knob(lv_event_t * e)
 329:Middlewares/LVGL/GUI/lvgl/src/widgets/lv_slider.c **** {
 330:Middlewares/LVGL/GUI/lvgl/src/widgets/lv_slider.c ****     lv_obj_t * obj = lv_event_get_target(e);
 331:Middlewares/LVGL/GUI/lvgl/src/widgets/lv_slider.c ****     lv_slider_t * slider = (lv_slider_t *)obj;
 332:Middlewares/LVGL/GUI/lvgl/src/widgets/lv_slider.c ****     lv_draw_ctx_t * draw_ctx = lv_event_get_draw_ctx(e);
 333:Middlewares/LVGL/GUI/lvgl/src/widgets/lv_slider.c ****     lv_base_dir_t base_dir = lv_obj_get_style_base_dir(obj, LV_PART_MAIN);
 334:Middlewares/LVGL/GUI/lvgl/src/widgets/lv_slider.c **** 
 335:Middlewares/LVGL/GUI/lvgl/src/widgets/lv_slider.c ****     lv_coord_t objw = lv_obj_get_width(obj);
 336:Middlewares/LVGL/GUI/lvgl/src/widgets/lv_slider.c ****     lv_coord_t objh = lv_obj_get_height(obj);
 337:Middlewares/LVGL/GUI/lvgl/src/widgets/lv_slider.c ****     bool hor = objw >= objh ? true : false;
 338:Middlewares/LVGL/GUI/lvgl/src/widgets/lv_slider.c ****     lv_coord_t knob_size = hor ? objh : objw;
 339:Middlewares/LVGL/GUI/lvgl/src/widgets/lv_slider.c ****     bool sym = false;
 340:Middlewares/LVGL/GUI/lvgl/src/widgets/lv_slider.c ****     if(slider->bar.mode == LV_BAR_MODE_SYMMETRICAL && slider->bar.min_value < 0 && slider->bar.max_
 341:Middlewares/LVGL/GUI/lvgl/src/widgets/lv_slider.c **** 
 342:Middlewares/LVGL/GUI/lvgl/src/widgets/lv_slider.c ****     lv_area_t knob_area;
 343:Middlewares/LVGL/GUI/lvgl/src/widgets/lv_slider.c **** 
 344:Middlewares/LVGL/GUI/lvgl/src/widgets/lv_slider.c ****     /*Horizontal*/
 345:Middlewares/LVGL/GUI/lvgl/src/widgets/lv_slider.c ****     if(hor) {
 346:Middlewares/LVGL/GUI/lvgl/src/widgets/lv_slider.c ****         if(!sym) {
 347:Middlewares/LVGL/GUI/lvgl/src/widgets/lv_slider.c ****             knob_area.x1 = LV_SLIDER_KNOB_COORD(hor, base_dir == LV_BASE_DIR_RTL, slider->bar.indic
 348:Middlewares/LVGL/GUI/lvgl/src/widgets/lv_slider.c ****         }
 349:Middlewares/LVGL/GUI/lvgl/src/widgets/lv_slider.c ****         else {
 350:Middlewares/LVGL/GUI/lvgl/src/widgets/lv_slider.c ****             if(slider->bar.cur_value >= 0) {
 351:Middlewares/LVGL/GUI/lvgl/src/widgets/lv_slider.c ****                 knob_area.x1 = LV_SLIDER_KNOB_COORD(hor, base_dir == LV_BASE_DIR_RTL, slider->bar.i
 352:Middlewares/LVGL/GUI/lvgl/src/widgets/lv_slider.c ****             }
 353:Middlewares/LVGL/GUI/lvgl/src/widgets/lv_slider.c ****             else {
 354:Middlewares/LVGL/GUI/lvgl/src/widgets/lv_slider.c ****                 knob_area.x1 = LV_SLIDER_KNOB_COORD(hor, base_dir != LV_BASE_DIR_RTL, slider->bar.i
 355:Middlewares/LVGL/GUI/lvgl/src/widgets/lv_slider.c ****             }
 356:Middlewares/LVGL/GUI/lvgl/src/widgets/lv_slider.c ****         }
 357:Middlewares/LVGL/GUI/lvgl/src/widgets/lv_slider.c ****     }
 358:Middlewares/LVGL/GUI/lvgl/src/widgets/lv_slider.c ****     /*Vertical*/
 359:Middlewares/LVGL/GUI/lvgl/src/widgets/lv_slider.c ****     else {
 360:Middlewares/LVGL/GUI/lvgl/src/widgets/lv_slider.c ****         if(!sym) {
 361:Middlewares/LVGL/GUI/lvgl/src/widgets/lv_slider.c ****             knob_area.y1 = slider->bar.indic_area.y1;
 362:Middlewares/LVGL/GUI/lvgl/src/widgets/lv_slider.c ****         }
 363:Middlewares/LVGL/GUI/lvgl/src/widgets/lv_slider.c ****         else {
 364:Middlewares/LVGL/GUI/lvgl/src/widgets/lv_slider.c ****             if(slider->bar.cur_value >= 0) {
 365:Middlewares/LVGL/GUI/lvgl/src/widgets/lv_slider.c ****                 knob_area.y1 = slider->bar.indic_area.y1;
 366:Middlewares/LVGL/GUI/lvgl/src/widgets/lv_slider.c ****             }
 367:Middlewares/LVGL/GUI/lvgl/src/widgets/lv_slider.c ****             else {
 368:Middlewares/LVGL/GUI/lvgl/src/widgets/lv_slider.c ****                 knob_area.y1 = slider->bar.indic_area.y2;
 369:Middlewares/LVGL/GUI/lvgl/src/widgets/lv_slider.c ****             }
 370:Middlewares/LVGL/GUI/lvgl/src/widgets/lv_slider.c ****         }
 371:Middlewares/LVGL/GUI/lvgl/src/widgets/lv_slider.c ****     }
 372:Middlewares/LVGL/GUI/lvgl/src/widgets/lv_slider.c **** 
ARM GAS  C:\Users\ADMINI~1\AppData\Local\Temp\cchwJBFL.s 			page 8


 373:Middlewares/LVGL/GUI/lvgl/src/widgets/lv_slider.c ****     lv_draw_rect_dsc_t knob_rect_dsc;
 374:Middlewares/LVGL/GUI/lvgl/src/widgets/lv_slider.c ****     lv_draw_rect_dsc_init(&knob_rect_dsc);
 375:Middlewares/LVGL/GUI/lvgl/src/widgets/lv_slider.c ****     lv_obj_init_draw_rect_dsc(obj, LV_PART_KNOB, &knob_rect_dsc);
 376:Middlewares/LVGL/GUI/lvgl/src/widgets/lv_slider.c **** 
 377:Middlewares/LVGL/GUI/lvgl/src/widgets/lv_slider.c ****     position_knob(obj, &knob_area, knob_size, hor);
 378:Middlewares/LVGL/GUI/lvgl/src/widgets/lv_slider.c ****     lv_area_copy(&slider->right_knob_area, &knob_area);
 379:Middlewares/LVGL/GUI/lvgl/src/widgets/lv_slider.c **** 
 380:Middlewares/LVGL/GUI/lvgl/src/widgets/lv_slider.c ****     lv_obj_draw_part_dsc_t part_draw_dsc;
 381:Middlewares/LVGL/GUI/lvgl/src/widgets/lv_slider.c ****     lv_obj_draw_dsc_init(&part_draw_dsc, draw_ctx);
 382:Middlewares/LVGL/GUI/lvgl/src/widgets/lv_slider.c ****     part_draw_dsc.part = LV_PART_KNOB;
 383:Middlewares/LVGL/GUI/lvgl/src/widgets/lv_slider.c ****     part_draw_dsc.class_p = MY_CLASS;
 384:Middlewares/LVGL/GUI/lvgl/src/widgets/lv_slider.c ****     part_draw_dsc.type = LV_SLIDER_DRAW_PART_KNOB;
 385:Middlewares/LVGL/GUI/lvgl/src/widgets/lv_slider.c ****     part_draw_dsc.id = 0;
 386:Middlewares/LVGL/GUI/lvgl/src/widgets/lv_slider.c ****     part_draw_dsc.draw_area = &slider->right_knob_area;
 387:Middlewares/LVGL/GUI/lvgl/src/widgets/lv_slider.c ****     part_draw_dsc.rect_dsc = &knob_rect_dsc;
 388:Middlewares/LVGL/GUI/lvgl/src/widgets/lv_slider.c **** 
 389:Middlewares/LVGL/GUI/lvgl/src/widgets/lv_slider.c ****     if(lv_slider_get_mode(obj) != LV_SLIDER_MODE_RANGE) {
 390:Middlewares/LVGL/GUI/lvgl/src/widgets/lv_slider.c ****         lv_event_send(obj, LV_EVENT_DRAW_PART_BEGIN, &part_draw_dsc);
 391:Middlewares/LVGL/GUI/lvgl/src/widgets/lv_slider.c ****         lv_draw_rect(draw_ctx, &knob_rect_dsc, &slider->right_knob_area);
 392:Middlewares/LVGL/GUI/lvgl/src/widgets/lv_slider.c ****         lv_event_send(obj, LV_EVENT_DRAW_PART_END, &part_draw_dsc);
 393:Middlewares/LVGL/GUI/lvgl/src/widgets/lv_slider.c ****     }
 394:Middlewares/LVGL/GUI/lvgl/src/widgets/lv_slider.c ****     else {
 395:Middlewares/LVGL/GUI/lvgl/src/widgets/lv_slider.c ****         /*Save the draw part_draw_dsc. because it can be modified in the event*/
 396:Middlewares/LVGL/GUI/lvgl/src/widgets/lv_slider.c ****         lv_draw_rect_dsc_t knob_rect_dsc_tmp;
 397:Middlewares/LVGL/GUI/lvgl/src/widgets/lv_slider.c ****         lv_memcpy(&knob_rect_dsc_tmp, &knob_rect_dsc, sizeof(lv_draw_rect_dsc_t));
 398:Middlewares/LVGL/GUI/lvgl/src/widgets/lv_slider.c **** 
 399:Middlewares/LVGL/GUI/lvgl/src/widgets/lv_slider.c ****         lv_event_send(obj, LV_EVENT_DRAW_PART_BEGIN, &part_draw_dsc);
 400:Middlewares/LVGL/GUI/lvgl/src/widgets/lv_slider.c ****         lv_draw_rect(draw_ctx, &knob_rect_dsc, &slider->right_knob_area);
 401:Middlewares/LVGL/GUI/lvgl/src/widgets/lv_slider.c ****         lv_event_send(obj, LV_EVENT_DRAW_PART_END, &part_draw_dsc);
 402:Middlewares/LVGL/GUI/lvgl/src/widgets/lv_slider.c **** 
 403:Middlewares/LVGL/GUI/lvgl/src/widgets/lv_slider.c ****         /*Draw a second knob for the start_value side*/
 404:Middlewares/LVGL/GUI/lvgl/src/widgets/lv_slider.c ****         if(hor) {
 405:Middlewares/LVGL/GUI/lvgl/src/widgets/lv_slider.c ****             knob_area.x1 = LV_SLIDER_KNOB_COORD(hor, base_dir != LV_BASE_DIR_RTL, slider->bar.indic
 406:Middlewares/LVGL/GUI/lvgl/src/widgets/lv_slider.c ****         }
 407:Middlewares/LVGL/GUI/lvgl/src/widgets/lv_slider.c ****         else {
 408:Middlewares/LVGL/GUI/lvgl/src/widgets/lv_slider.c ****             knob_area.y1 = slider->bar.indic_area.y2;
 409:Middlewares/LVGL/GUI/lvgl/src/widgets/lv_slider.c ****         }
 410:Middlewares/LVGL/GUI/lvgl/src/widgets/lv_slider.c ****         position_knob(obj, &knob_area, knob_size, hor);
 411:Middlewares/LVGL/GUI/lvgl/src/widgets/lv_slider.c ****         lv_area_copy(&slider->left_knob_area, &knob_area);
 412:Middlewares/LVGL/GUI/lvgl/src/widgets/lv_slider.c **** 
 413:Middlewares/LVGL/GUI/lvgl/src/widgets/lv_slider.c ****         lv_memcpy(&knob_rect_dsc, &knob_rect_dsc_tmp, sizeof(lv_draw_rect_dsc_t));
 414:Middlewares/LVGL/GUI/lvgl/src/widgets/lv_slider.c ****         part_draw_dsc.type = LV_SLIDER_DRAW_PART_KNOB_LEFT;
 415:Middlewares/LVGL/GUI/lvgl/src/widgets/lv_slider.c ****         part_draw_dsc.draw_area = &slider->left_knob_area;
 416:Middlewares/LVGL/GUI/lvgl/src/widgets/lv_slider.c ****         part_draw_dsc.rect_dsc = &knob_rect_dsc;
 417:Middlewares/LVGL/GUI/lvgl/src/widgets/lv_slider.c ****         part_draw_dsc.id = 1;
 418:Middlewares/LVGL/GUI/lvgl/src/widgets/lv_slider.c **** 
 419:Middlewares/LVGL/GUI/lvgl/src/widgets/lv_slider.c ****         lv_event_send(obj, LV_EVENT_DRAW_PART_BEGIN, &part_draw_dsc);
 420:Middlewares/LVGL/GUI/lvgl/src/widgets/lv_slider.c ****         lv_draw_rect(draw_ctx, &knob_rect_dsc, &slider->left_knob_area);
 421:Middlewares/LVGL/GUI/lvgl/src/widgets/lv_slider.c ****         lv_event_send(obj, LV_EVENT_DRAW_PART_END, &part_draw_dsc);
 422:Middlewares/LVGL/GUI/lvgl/src/widgets/lv_slider.c ****     }
 423:Middlewares/LVGL/GUI/lvgl/src/widgets/lv_slider.c **** }
 424:Middlewares/LVGL/GUI/lvgl/src/widgets/lv_slider.c **** 
 425:Middlewares/LVGL/GUI/lvgl/src/widgets/lv_slider.c **** static void position_knob(lv_obj_t * obj, lv_area_t * knob_area, lv_coord_t knob_size, bool hor)
 426:Middlewares/LVGL/GUI/lvgl/src/widgets/lv_slider.c **** {
  29              		.loc 1 426 1 view -0
  30              		.cfi_startproc
  31              		@ args = 0, pretend = 0, frame = 0
ARM GAS  C:\Users\ADMINI~1\AppData\Local\Temp\cchwJBFL.s 			page 9


  32              		@ frame_needed = 0, uses_anonymous_args = 0
  33              		.loc 1 426 1 is_stmt 0 view .LVU1
  34 0000 2DE9F047 		push	{r4, r5, r6, r7, r8, r9, r10, lr}
  35              	.LCFI0:
  36              		.cfi_def_cfa_offset 32
  37              		.cfi_offset 4, -32
  38              		.cfi_offset 5, -28
  39              		.cfi_offset 6, -24
  40              		.cfi_offset 7, -20
  41              		.cfi_offset 8, -16
  42              		.cfi_offset 9, -12
  43              		.cfi_offset 10, -8
  44              		.cfi_offset 14, -4
  45 0004 0546     		mov	r5, r0
  46 0006 0C46     		mov	r4, r1
 427:Middlewares/LVGL/GUI/lvgl/src/widgets/lv_slider.c **** 
 428:Middlewares/LVGL/GUI/lvgl/src/widgets/lv_slider.c ****     if(hor) {
  47              		.loc 1 428 5 is_stmt 1 view .LVU2
  48              		.loc 1 428 7 is_stmt 0 view .LVU3
  49 0008 002B     		cmp	r3, #0
  50 000a 4DD0     		beq	.L2
 429:Middlewares/LVGL/GUI/lvgl/src/widgets/lv_slider.c ****         knob_area->x1 -= (knob_size >> 1);
  51              		.loc 1 429 9 is_stmt 1 view .LVU4
  52              		.loc 1 429 23 is_stmt 0 view .LVU5
  53 000c 0B68     		ldr	r3, [r1]
  54              	.LVL1:
  55              		.loc 1 429 23 view .LVU6
  56 000e A3EB6203 		sub	r3, r3, r2, asr #1
  57 0012 0B60     		str	r3, [r1]
 430:Middlewares/LVGL/GUI/lvgl/src/widgets/lv_slider.c ****         knob_area->x2 = knob_area->x1 + knob_size - 1;
  58              		.loc 1 430 9 is_stmt 1 view .LVU7
  59              		.loc 1 430 39 is_stmt 0 view .LVU8
  60 0014 1A44     		add	r2, r2, r3
  61              	.LVL2:
  62              		.loc 1 430 51 view .LVU9
  63 0016 013A     		subs	r2, r2, #1
  64              		.loc 1 430 23 view .LVU10
  65 0018 8A60     		str	r2, [r1, #8]
 431:Middlewares/LVGL/GUI/lvgl/src/widgets/lv_slider.c ****         knob_area->y1 = obj->coords.y1;
  66              		.loc 1 431 9 is_stmt 1 view .LVU11
  67              		.loc 1 431 36 is_stmt 0 view .LVU12
  68 001a 8369     		ldr	r3, [r0, #24]
  69              		.loc 1 431 23 view .LVU13
  70 001c 4B60     		str	r3, [r1, #4]
 432:Middlewares/LVGL/GUI/lvgl/src/widgets/lv_slider.c ****         knob_area->y2 = obj->coords.y2;
  71              		.loc 1 432 9 is_stmt 1 view .LVU14
  72              		.loc 1 432 36 is_stmt 0 view .LVU15
  73 001e 036A     		ldr	r3, [r0, #32]
  74              		.loc 1 432 23 view .LVU16
  75 0020 CB60     		str	r3, [r1, #12]
  76              	.L3:
 433:Middlewares/LVGL/GUI/lvgl/src/widgets/lv_slider.c ****     }
 434:Middlewares/LVGL/GUI/lvgl/src/widgets/lv_slider.c ****     else {
 435:Middlewares/LVGL/GUI/lvgl/src/widgets/lv_slider.c ****         knob_area->y1 -= (knob_size >> 1);
 436:Middlewares/LVGL/GUI/lvgl/src/widgets/lv_slider.c ****         knob_area->y2 = knob_area->y1 + knob_size - 1;
 437:Middlewares/LVGL/GUI/lvgl/src/widgets/lv_slider.c ****         knob_area->x1 = obj->coords.x1;
 438:Middlewares/LVGL/GUI/lvgl/src/widgets/lv_slider.c ****         knob_area->x2 = obj->coords.x2;
ARM GAS  C:\Users\ADMINI~1\AppData\Local\Temp\cchwJBFL.s 			page 10


 439:Middlewares/LVGL/GUI/lvgl/src/widgets/lv_slider.c ****     }
 440:Middlewares/LVGL/GUI/lvgl/src/widgets/lv_slider.c **** 
 441:Middlewares/LVGL/GUI/lvgl/src/widgets/lv_slider.c ****     lv_coord_t knob_left = lv_obj_get_style_pad_left(obj,   LV_PART_KNOB);
  77              		.loc 1 441 5 is_stmt 1 view .LVU17
  78              	.LVL3:
  79              	.LBB77:
  80              	.LBI77:
  81              		.file 2 "Middlewares/LVGL/GUI/lvgl/src/widgets/../core/lv_obj_style_gen.h"
   1:Middlewares/LVGL/GUI/lvgl/src/widgets/../core/lv_obj_style_gen.h **** static inline lv_coord_t lv_obj_get_style_width(const struct _lv_obj_t * obj, uint32_t part)
   2:Middlewares/LVGL/GUI/lvgl/src/widgets/../core/lv_obj_style_gen.h **** {
   3:Middlewares/LVGL/GUI/lvgl/src/widgets/../core/lv_obj_style_gen.h ****     lv_style_value_t v = lv_obj_get_style_prop(obj, part, LV_STYLE_WIDTH);
   4:Middlewares/LVGL/GUI/lvgl/src/widgets/../core/lv_obj_style_gen.h ****     return (lv_coord_t)v.num;
   5:Middlewares/LVGL/GUI/lvgl/src/widgets/../core/lv_obj_style_gen.h **** }
   6:Middlewares/LVGL/GUI/lvgl/src/widgets/../core/lv_obj_style_gen.h **** 
   7:Middlewares/LVGL/GUI/lvgl/src/widgets/../core/lv_obj_style_gen.h **** static inline lv_coord_t lv_obj_get_style_min_width(const struct _lv_obj_t * obj, uint32_t part)
   8:Middlewares/LVGL/GUI/lvgl/src/widgets/../core/lv_obj_style_gen.h **** {
   9:Middlewares/LVGL/GUI/lvgl/src/widgets/../core/lv_obj_style_gen.h ****     lv_style_value_t v = lv_obj_get_style_prop(obj, part, LV_STYLE_MIN_WIDTH);
  10:Middlewares/LVGL/GUI/lvgl/src/widgets/../core/lv_obj_style_gen.h ****     return (lv_coord_t)v.num;
  11:Middlewares/LVGL/GUI/lvgl/src/widgets/../core/lv_obj_style_gen.h **** }
  12:Middlewares/LVGL/GUI/lvgl/src/widgets/../core/lv_obj_style_gen.h **** 
  13:Middlewares/LVGL/GUI/lvgl/src/widgets/../core/lv_obj_style_gen.h **** static inline lv_coord_t lv_obj_get_style_max_width(const struct _lv_obj_t * obj, uint32_t part)
  14:Middlewares/LVGL/GUI/lvgl/src/widgets/../core/lv_obj_style_gen.h **** {
  15:Middlewares/LVGL/GUI/lvgl/src/widgets/../core/lv_obj_style_gen.h ****     lv_style_value_t v = lv_obj_get_style_prop(obj, part, LV_STYLE_MAX_WIDTH);
  16:Middlewares/LVGL/GUI/lvgl/src/widgets/../core/lv_obj_style_gen.h ****     return (lv_coord_t)v.num;
  17:Middlewares/LVGL/GUI/lvgl/src/widgets/../core/lv_obj_style_gen.h **** }
  18:Middlewares/LVGL/GUI/lvgl/src/widgets/../core/lv_obj_style_gen.h **** 
  19:Middlewares/LVGL/GUI/lvgl/src/widgets/../core/lv_obj_style_gen.h **** static inline lv_coord_t lv_obj_get_style_height(const struct _lv_obj_t * obj, uint32_t part)
  20:Middlewares/LVGL/GUI/lvgl/src/widgets/../core/lv_obj_style_gen.h **** {
  21:Middlewares/LVGL/GUI/lvgl/src/widgets/../core/lv_obj_style_gen.h ****     lv_style_value_t v = lv_obj_get_style_prop(obj, part, LV_STYLE_HEIGHT);
  22:Middlewares/LVGL/GUI/lvgl/src/widgets/../core/lv_obj_style_gen.h ****     return (lv_coord_t)v.num;
  23:Middlewares/LVGL/GUI/lvgl/src/widgets/../core/lv_obj_style_gen.h **** }
  24:Middlewares/LVGL/GUI/lvgl/src/widgets/../core/lv_obj_style_gen.h **** 
  25:Middlewares/LVGL/GUI/lvgl/src/widgets/../core/lv_obj_style_gen.h **** static inline lv_coord_t lv_obj_get_style_min_height(const struct _lv_obj_t * obj, uint32_t part)
  26:Middlewares/LVGL/GUI/lvgl/src/widgets/../core/lv_obj_style_gen.h **** {
  27:Middlewares/LVGL/GUI/lvgl/src/widgets/../core/lv_obj_style_gen.h ****     lv_style_value_t v = lv_obj_get_style_prop(obj, part, LV_STYLE_MIN_HEIGHT);
  28:Middlewares/LVGL/GUI/lvgl/src/widgets/../core/lv_obj_style_gen.h ****     return (lv_coord_t)v.num;
  29:Middlewares/LVGL/GUI/lvgl/src/widgets/../core/lv_obj_style_gen.h **** }
  30:Middlewares/LVGL/GUI/lvgl/src/widgets/../core/lv_obj_style_gen.h **** 
  31:Middlewares/LVGL/GUI/lvgl/src/widgets/../core/lv_obj_style_gen.h **** static inline lv_coord_t lv_obj_get_style_max_height(const struct _lv_obj_t * obj, uint32_t part)
  32:Middlewares/LVGL/GUI/lvgl/src/widgets/../core/lv_obj_style_gen.h **** {
  33:Middlewares/LVGL/GUI/lvgl/src/widgets/../core/lv_obj_style_gen.h ****     lv_style_value_t v = lv_obj_get_style_prop(obj, part, LV_STYLE_MAX_HEIGHT);
  34:Middlewares/LVGL/GUI/lvgl/src/widgets/../core/lv_obj_style_gen.h ****     return (lv_coord_t)v.num;
  35:Middlewares/LVGL/GUI/lvgl/src/widgets/../core/lv_obj_style_gen.h **** }
  36:Middlewares/LVGL/GUI/lvgl/src/widgets/../core/lv_obj_style_gen.h **** 
  37:Middlewares/LVGL/GUI/lvgl/src/widgets/../core/lv_obj_style_gen.h **** static inline lv_coord_t lv_obj_get_style_x(const struct _lv_obj_t * obj, uint32_t part)
  38:Middlewares/LVGL/GUI/lvgl/src/widgets/../core/lv_obj_style_gen.h **** {
  39:Middlewares/LVGL/GUI/lvgl/src/widgets/../core/lv_obj_style_gen.h ****     lv_style_value_t v = lv_obj_get_style_prop(obj, part, LV_STYLE_X);
  40:Middlewares/LVGL/GUI/lvgl/src/widgets/../core/lv_obj_style_gen.h ****     return (lv_coord_t)v.num;
  41:Middlewares/LVGL/GUI/lvgl/src/widgets/../core/lv_obj_style_gen.h **** }
  42:Middlewares/LVGL/GUI/lvgl/src/widgets/../core/lv_obj_style_gen.h **** 
  43:Middlewares/LVGL/GUI/lvgl/src/widgets/../core/lv_obj_style_gen.h **** static inline lv_coord_t lv_obj_get_style_y(const struct _lv_obj_t * obj, uint32_t part)
  44:Middlewares/LVGL/GUI/lvgl/src/widgets/../core/lv_obj_style_gen.h **** {
  45:Middlewares/LVGL/GUI/lvgl/src/widgets/../core/lv_obj_style_gen.h ****     lv_style_value_t v = lv_obj_get_style_prop(obj, part, LV_STYLE_Y);
  46:Middlewares/LVGL/GUI/lvgl/src/widgets/../core/lv_obj_style_gen.h ****     return (lv_coord_t)v.num;
  47:Middlewares/LVGL/GUI/lvgl/src/widgets/../core/lv_obj_style_gen.h **** }
  48:Middlewares/LVGL/GUI/lvgl/src/widgets/../core/lv_obj_style_gen.h **** 
  49:Middlewares/LVGL/GUI/lvgl/src/widgets/../core/lv_obj_style_gen.h **** static inline lv_align_t lv_obj_get_style_align(const struct _lv_obj_t * obj, uint32_t part)
ARM GAS  C:\Users\ADMINI~1\AppData\Local\Temp\cchwJBFL.s 			page 11


  50:Middlewares/LVGL/GUI/lvgl/src/widgets/../core/lv_obj_style_gen.h **** {
  51:Middlewares/LVGL/GUI/lvgl/src/widgets/../core/lv_obj_style_gen.h ****     lv_style_value_t v = lv_obj_get_style_prop(obj, part, LV_STYLE_ALIGN);
  52:Middlewares/LVGL/GUI/lvgl/src/widgets/../core/lv_obj_style_gen.h ****     return (lv_align_t)v.num;
  53:Middlewares/LVGL/GUI/lvgl/src/widgets/../core/lv_obj_style_gen.h **** }
  54:Middlewares/LVGL/GUI/lvgl/src/widgets/../core/lv_obj_style_gen.h **** 
  55:Middlewares/LVGL/GUI/lvgl/src/widgets/../core/lv_obj_style_gen.h **** static inline lv_coord_t lv_obj_get_style_transform_width(const struct _lv_obj_t * obj, uint32_t pa
  56:Middlewares/LVGL/GUI/lvgl/src/widgets/../core/lv_obj_style_gen.h **** {
  57:Middlewares/LVGL/GUI/lvgl/src/widgets/../core/lv_obj_style_gen.h ****     lv_style_value_t v = lv_obj_get_style_prop(obj, part, LV_STYLE_TRANSFORM_WIDTH);
  58:Middlewares/LVGL/GUI/lvgl/src/widgets/../core/lv_obj_style_gen.h ****     return (lv_coord_t)v.num;
  59:Middlewares/LVGL/GUI/lvgl/src/widgets/../core/lv_obj_style_gen.h **** }
  60:Middlewares/LVGL/GUI/lvgl/src/widgets/../core/lv_obj_style_gen.h **** 
  61:Middlewares/LVGL/GUI/lvgl/src/widgets/../core/lv_obj_style_gen.h **** static inline lv_coord_t lv_obj_get_style_transform_height(const struct _lv_obj_t * obj, uint32_t p
  62:Middlewares/LVGL/GUI/lvgl/src/widgets/../core/lv_obj_style_gen.h **** {
  63:Middlewares/LVGL/GUI/lvgl/src/widgets/../core/lv_obj_style_gen.h ****     lv_style_value_t v = lv_obj_get_style_prop(obj, part, LV_STYLE_TRANSFORM_HEIGHT);
  64:Middlewares/LVGL/GUI/lvgl/src/widgets/../core/lv_obj_style_gen.h ****     return (lv_coord_t)v.num;
  65:Middlewares/LVGL/GUI/lvgl/src/widgets/../core/lv_obj_style_gen.h **** }
  66:Middlewares/LVGL/GUI/lvgl/src/widgets/../core/lv_obj_style_gen.h **** 
  67:Middlewares/LVGL/GUI/lvgl/src/widgets/../core/lv_obj_style_gen.h **** static inline lv_coord_t lv_obj_get_style_translate_x(const struct _lv_obj_t * obj, uint32_t part)
  68:Middlewares/LVGL/GUI/lvgl/src/widgets/../core/lv_obj_style_gen.h **** {
  69:Middlewares/LVGL/GUI/lvgl/src/widgets/../core/lv_obj_style_gen.h ****     lv_style_value_t v = lv_obj_get_style_prop(obj, part, LV_STYLE_TRANSLATE_X);
  70:Middlewares/LVGL/GUI/lvgl/src/widgets/../core/lv_obj_style_gen.h ****     return (lv_coord_t)v.num;
  71:Middlewares/LVGL/GUI/lvgl/src/widgets/../core/lv_obj_style_gen.h **** }
  72:Middlewares/LVGL/GUI/lvgl/src/widgets/../core/lv_obj_style_gen.h **** 
  73:Middlewares/LVGL/GUI/lvgl/src/widgets/../core/lv_obj_style_gen.h **** static inline lv_coord_t lv_obj_get_style_translate_y(const struct _lv_obj_t * obj, uint32_t part)
  74:Middlewares/LVGL/GUI/lvgl/src/widgets/../core/lv_obj_style_gen.h **** {
  75:Middlewares/LVGL/GUI/lvgl/src/widgets/../core/lv_obj_style_gen.h ****     lv_style_value_t v = lv_obj_get_style_prop(obj, part, LV_STYLE_TRANSLATE_Y);
  76:Middlewares/LVGL/GUI/lvgl/src/widgets/../core/lv_obj_style_gen.h ****     return (lv_coord_t)v.num;
  77:Middlewares/LVGL/GUI/lvgl/src/widgets/../core/lv_obj_style_gen.h **** }
  78:Middlewares/LVGL/GUI/lvgl/src/widgets/../core/lv_obj_style_gen.h **** 
  79:Middlewares/LVGL/GUI/lvgl/src/widgets/../core/lv_obj_style_gen.h **** static inline lv_coord_t lv_obj_get_style_transform_zoom(const struct _lv_obj_t * obj, uint32_t par
  80:Middlewares/LVGL/GUI/lvgl/src/widgets/../core/lv_obj_style_gen.h **** {
  81:Middlewares/LVGL/GUI/lvgl/src/widgets/../core/lv_obj_style_gen.h ****     lv_style_value_t v = lv_obj_get_style_prop(obj, part, LV_STYLE_TRANSFORM_ZOOM);
  82:Middlewares/LVGL/GUI/lvgl/src/widgets/../core/lv_obj_style_gen.h ****     return (lv_coord_t)v.num;
  83:Middlewares/LVGL/GUI/lvgl/src/widgets/../core/lv_obj_style_gen.h **** }
  84:Middlewares/LVGL/GUI/lvgl/src/widgets/../core/lv_obj_style_gen.h **** 
  85:Middlewares/LVGL/GUI/lvgl/src/widgets/../core/lv_obj_style_gen.h **** static inline lv_coord_t lv_obj_get_style_transform_angle(const struct _lv_obj_t * obj, uint32_t pa
  86:Middlewares/LVGL/GUI/lvgl/src/widgets/../core/lv_obj_style_gen.h **** {
  87:Middlewares/LVGL/GUI/lvgl/src/widgets/../core/lv_obj_style_gen.h ****     lv_style_value_t v = lv_obj_get_style_prop(obj, part, LV_STYLE_TRANSFORM_ANGLE);
  88:Middlewares/LVGL/GUI/lvgl/src/widgets/../core/lv_obj_style_gen.h ****     return (lv_coord_t)v.num;
  89:Middlewares/LVGL/GUI/lvgl/src/widgets/../core/lv_obj_style_gen.h **** }
  90:Middlewares/LVGL/GUI/lvgl/src/widgets/../core/lv_obj_style_gen.h **** 
  91:Middlewares/LVGL/GUI/lvgl/src/widgets/../core/lv_obj_style_gen.h **** static inline lv_coord_t lv_obj_get_style_pad_top(const struct _lv_obj_t * obj, uint32_t part)
  92:Middlewares/LVGL/GUI/lvgl/src/widgets/../core/lv_obj_style_gen.h **** {
  93:Middlewares/LVGL/GUI/lvgl/src/widgets/../core/lv_obj_style_gen.h ****     lv_style_value_t v = lv_obj_get_style_prop(obj, part, LV_STYLE_PAD_TOP);
  94:Middlewares/LVGL/GUI/lvgl/src/widgets/../core/lv_obj_style_gen.h ****     return (lv_coord_t)v.num;
  95:Middlewares/LVGL/GUI/lvgl/src/widgets/../core/lv_obj_style_gen.h **** }
  96:Middlewares/LVGL/GUI/lvgl/src/widgets/../core/lv_obj_style_gen.h **** 
  97:Middlewares/LVGL/GUI/lvgl/src/widgets/../core/lv_obj_style_gen.h **** static inline lv_coord_t lv_obj_get_style_pad_bottom(const struct _lv_obj_t * obj, uint32_t part)
  98:Middlewares/LVGL/GUI/lvgl/src/widgets/../core/lv_obj_style_gen.h **** {
  99:Middlewares/LVGL/GUI/lvgl/src/widgets/../core/lv_obj_style_gen.h ****     lv_style_value_t v = lv_obj_get_style_prop(obj, part, LV_STYLE_PAD_BOTTOM);
 100:Middlewares/LVGL/GUI/lvgl/src/widgets/../core/lv_obj_style_gen.h ****     return (lv_coord_t)v.num;
 101:Middlewares/LVGL/GUI/lvgl/src/widgets/../core/lv_obj_style_gen.h **** }
 102:Middlewares/LVGL/GUI/lvgl/src/widgets/../core/lv_obj_style_gen.h **** 
 103:Middlewares/LVGL/GUI/lvgl/src/widgets/../core/lv_obj_style_gen.h **** static inline lv_coord_t lv_obj_get_style_pad_left(const struct _lv_obj_t * obj, uint32_t part)
  82              		.loc 2 103 26 view .LVU18
  83              	.LBB78:
 104:Middlewares/LVGL/GUI/lvgl/src/widgets/../core/lv_obj_style_gen.h **** {
ARM GAS  C:\Users\ADMINI~1\AppData\Local\Temp\cchwJBFL.s 			page 12


 105:Middlewares/LVGL/GUI/lvgl/src/widgets/../core/lv_obj_style_gen.h ****     lv_style_value_t v = lv_obj_get_style_prop(obj, part, LV_STYLE_PAD_LEFT);
  84              		.loc 2 105 5 view .LVU19
  85              		.loc 2 105 26 is_stmt 0 view .LVU20
  86 0022 41F61202 		movw	r2, #6162
  87 0026 4FF44031 		mov	r1, #196608
  88              	.LVL4:
  89              		.loc 2 105 26 view .LVU21
  90 002a 2846     		mov	r0, r5
  91              	.LVL5:
  92              		.loc 2 105 26 view .LVU22
  93 002c FFF7FEFF 		bl	lv_obj_get_style_prop
  94              	.LVL6:
  95              		.loc 2 105 26 view .LVU23
  96 0030 0646     		mov	r6, r0
  97              	.LVL7:
 106:Middlewares/LVGL/GUI/lvgl/src/widgets/../core/lv_obj_style_gen.h ****     return (lv_coord_t)v.num;
  98              		.loc 2 106 5 is_stmt 1 view .LVU24
  99              		.loc 2 106 5 is_stmt 0 view .LVU25
 100              	.LBE78:
 101              	.LBE77:
 442:Middlewares/LVGL/GUI/lvgl/src/widgets/lv_slider.c ****     lv_coord_t knob_right = lv_obj_get_style_pad_right(obj,  LV_PART_KNOB);
 102              		.loc 1 442 5 is_stmt 1 view .LVU26
 103              	.LBB79:
 104              	.LBI79:
 107:Middlewares/LVGL/GUI/lvgl/src/widgets/../core/lv_obj_style_gen.h **** }
 108:Middlewares/LVGL/GUI/lvgl/src/widgets/../core/lv_obj_style_gen.h **** 
 109:Middlewares/LVGL/GUI/lvgl/src/widgets/../core/lv_obj_style_gen.h **** static inline lv_coord_t lv_obj_get_style_pad_right(const struct _lv_obj_t * obj, uint32_t part)
 105              		.loc 2 109 26 view .LVU27
 106              	.LBB80:
 110:Middlewares/LVGL/GUI/lvgl/src/widgets/../core/lv_obj_style_gen.h **** {
 111:Middlewares/LVGL/GUI/lvgl/src/widgets/../core/lv_obj_style_gen.h ****     lv_style_value_t v = lv_obj_get_style_prop(obj, part, LV_STYLE_PAD_RIGHT);
 107              		.loc 2 111 5 view .LVU28
 108              		.loc 2 111 26 is_stmt 0 view .LVU29
 109 0032 41F61302 		movw	r2, #6163
 110 0036 4FF44031 		mov	r1, #196608
 111 003a 2846     		mov	r0, r5
 112              	.LVL8:
 113              		.loc 2 111 26 view .LVU30
 114 003c FFF7FEFF 		bl	lv_obj_get_style_prop
 115              	.LVL9:
 116 0040 8246     		mov	r10, r0
 117              	.LVL10:
 112:Middlewares/LVGL/GUI/lvgl/src/widgets/../core/lv_obj_style_gen.h ****     return (lv_coord_t)v.num;
 118              		.loc 2 112 5 is_stmt 1 view .LVU31
 119              		.loc 2 112 5 is_stmt 0 view .LVU32
 120              	.LBE80:
 121              	.LBE79:
 443:Middlewares/LVGL/GUI/lvgl/src/widgets/lv_slider.c ****     lv_coord_t knob_top = lv_obj_get_style_pad_top(obj,    LV_PART_KNOB);
 122              		.loc 1 443 5 is_stmt 1 view .LVU33
 123              	.LBB81:
 124              	.LBI81:
  91:Middlewares/LVGL/GUI/lvgl/src/widgets/../core/lv_obj_style_gen.h **** {
 125              		.loc 2 91 26 view .LVU34
 126              	.LBB82:
  93:Middlewares/LVGL/GUI/lvgl/src/widgets/../core/lv_obj_style_gen.h ****     return (lv_coord_t)v.num;
 127              		.loc 2 93 5 view .LVU35
  93:Middlewares/LVGL/GUI/lvgl/src/widgets/../core/lv_obj_style_gen.h ****     return (lv_coord_t)v.num;
ARM GAS  C:\Users\ADMINI~1\AppData\Local\Temp\cchwJBFL.s 			page 13


 128              		.loc 2 93 26 is_stmt 0 view .LVU36
 129 0042 41F61002 		movw	r2, #6160
 130 0046 4FF44031 		mov	r1, #196608
 131 004a 2846     		mov	r0, r5
 132              	.LVL11:
  93:Middlewares/LVGL/GUI/lvgl/src/widgets/../core/lv_obj_style_gen.h ****     return (lv_coord_t)v.num;
 133              		.loc 2 93 26 view .LVU37
 134 004c FFF7FEFF 		bl	lv_obj_get_style_prop
 135              	.LVL12:
 136 0050 8046     		mov	r8, r0
 137              	.LVL13:
  94:Middlewares/LVGL/GUI/lvgl/src/widgets/../core/lv_obj_style_gen.h **** }
 138              		.loc 2 94 5 is_stmt 1 view .LVU38
  94:Middlewares/LVGL/GUI/lvgl/src/widgets/../core/lv_obj_style_gen.h **** }
 139              		.loc 2 94 5 is_stmt 0 view .LVU39
 140              	.LBE82:
 141              	.LBE81:
 444:Middlewares/LVGL/GUI/lvgl/src/widgets/lv_slider.c ****     lv_coord_t knob_bottom = lv_obj_get_style_pad_bottom(obj, LV_PART_KNOB);
 142              		.loc 1 444 5 is_stmt 1 view .LVU40
 143              	.LBB83:
 144              	.LBI83:
  97:Middlewares/LVGL/GUI/lvgl/src/widgets/../core/lv_obj_style_gen.h **** {
 145              		.loc 2 97 26 view .LVU41
 146              	.LBB84:
  99:Middlewares/LVGL/GUI/lvgl/src/widgets/../core/lv_obj_style_gen.h ****     return (lv_coord_t)v.num;
 147              		.loc 2 99 5 view .LVU42
  99:Middlewares/LVGL/GUI/lvgl/src/widgets/../core/lv_obj_style_gen.h ****     return (lv_coord_t)v.num;
 148              		.loc 2 99 26 is_stmt 0 view .LVU43
 149 0052 41F61102 		movw	r2, #6161
 150 0056 4FF44031 		mov	r1, #196608
 151 005a 2846     		mov	r0, r5
 152              	.LVL14:
  99:Middlewares/LVGL/GUI/lvgl/src/widgets/../core/lv_obj_style_gen.h ****     return (lv_coord_t)v.num;
 153              		.loc 2 99 26 view .LVU44
 154 005c FFF7FEFF 		bl	lv_obj_get_style_prop
 155              	.LVL15:
 156 0060 8146     		mov	r9, r0
 157              	.LVL16:
 100:Middlewares/LVGL/GUI/lvgl/src/widgets/../core/lv_obj_style_gen.h **** }
 158              		.loc 2 100 5 is_stmt 1 view .LVU45
 100:Middlewares/LVGL/GUI/lvgl/src/widgets/../core/lv_obj_style_gen.h **** }
 159              		.loc 2 100 5 is_stmt 0 view .LVU46
 160              	.LBE84:
 161              	.LBE83:
 445:Middlewares/LVGL/GUI/lvgl/src/widgets/lv_slider.c **** 
 446:Middlewares/LVGL/GUI/lvgl/src/widgets/lv_slider.c ****     lv_coord_t transf_w = lv_obj_get_style_transform_width(obj, LV_PART_KNOB);
 162              		.loc 1 446 5 is_stmt 1 view .LVU47
 163              	.LBB85:
 164              	.LBI85:
  55:Middlewares/LVGL/GUI/lvgl/src/widgets/../core/lv_obj_style_gen.h **** {
 165              		.loc 2 55 26 view .LVU48
 166              	.LBB86:
  57:Middlewares/LVGL/GUI/lvgl/src/widgets/../core/lv_obj_style_gen.h ****     return (lv_coord_t)v.num;
 167              		.loc 2 57 5 view .LVU49
  57:Middlewares/LVGL/GUI/lvgl/src/widgets/../core/lv_obj_style_gen.h ****     return (lv_coord_t)v.num;
 168              		.loc 2 57 26 is_stmt 0 view .LVU50
 169 0062 40F60A02 		movw	r2, #2058
ARM GAS  C:\Users\ADMINI~1\AppData\Local\Temp\cchwJBFL.s 			page 14


 170 0066 4FF44031 		mov	r1, #196608
 171 006a 2846     		mov	r0, r5
 172              	.LVL17:
  57:Middlewares/LVGL/GUI/lvgl/src/widgets/../core/lv_obj_style_gen.h ****     return (lv_coord_t)v.num;
 173              		.loc 2 57 26 view .LVU51
 174 006c FFF7FEFF 		bl	lv_obj_get_style_prop
 175              	.LVL18:
 176 0070 0746     		mov	r7, r0
 177              	.LVL19:
  58:Middlewares/LVGL/GUI/lvgl/src/widgets/../core/lv_obj_style_gen.h **** }
 178              		.loc 2 58 5 is_stmt 1 view .LVU52
  58:Middlewares/LVGL/GUI/lvgl/src/widgets/../core/lv_obj_style_gen.h **** }
 179              		.loc 2 58 5 is_stmt 0 view .LVU53
 180              	.LBE86:
 181              	.LBE85:
 447:Middlewares/LVGL/GUI/lvgl/src/widgets/lv_slider.c ****     lv_coord_t transf_h = lv_obj_get_style_transform_height(obj, LV_PART_KNOB);
 182              		.loc 1 447 5 is_stmt 1 view .LVU54
 183              	.LBB87:
 184              	.LBI87:
  61:Middlewares/LVGL/GUI/lvgl/src/widgets/../core/lv_obj_style_gen.h **** {
 185              		.loc 2 61 26 view .LVU55
 186              	.LBB88:
  63:Middlewares/LVGL/GUI/lvgl/src/widgets/../core/lv_obj_style_gen.h ****     return (lv_coord_t)v.num;
 187              		.loc 2 63 5 view .LVU56
  63:Middlewares/LVGL/GUI/lvgl/src/widgets/../core/lv_obj_style_gen.h ****     return (lv_coord_t)v.num;
 188              		.loc 2 63 26 is_stmt 0 view .LVU57
 189 0072 40F60B02 		movw	r2, #2059
 190 0076 4FF44031 		mov	r1, #196608
 191 007a 2846     		mov	r0, r5
 192              	.LVL20:
  63:Middlewares/LVGL/GUI/lvgl/src/widgets/../core/lv_obj_style_gen.h ****     return (lv_coord_t)v.num;
 193              		.loc 2 63 26 view .LVU58
 194 007c FFF7FEFF 		bl	lv_obj_get_style_prop
 195              	.LVL21:
 196 0080 0346     		mov	r3, r0
 197              	.LVL22:
  64:Middlewares/LVGL/GUI/lvgl/src/widgets/../core/lv_obj_style_gen.h **** }
 198              		.loc 2 64 5 is_stmt 1 view .LVU59
  64:Middlewares/LVGL/GUI/lvgl/src/widgets/../core/lv_obj_style_gen.h **** }
 199              		.loc 2 64 5 is_stmt 0 view .LVU60
 200              	.LBE88:
 201              	.LBE87:
 448:Middlewares/LVGL/GUI/lvgl/src/widgets/lv_slider.c **** 
 449:Middlewares/LVGL/GUI/lvgl/src/widgets/lv_slider.c ****     /*Apply the paddings on the knob area*/
 450:Middlewares/LVGL/GUI/lvgl/src/widgets/lv_slider.c ****     knob_area->x1 -= knob_left + transf_w;
 202              		.loc 1 450 5 is_stmt 1 view .LVU61
 203              		.loc 1 450 32 is_stmt 0 view .LVU62
 204 0082 3E44     		add	r6, r6, r7
 205              	.LVL23:
 206              		.loc 1 450 19 view .LVU63
 207 0084 2268     		ldr	r2, [r4]
 208 0086 921B     		subs	r2, r2, r6
 209 0088 2260     		str	r2, [r4]
 451:Middlewares/LVGL/GUI/lvgl/src/widgets/lv_slider.c ****     knob_area->x2 += knob_right + transf_w;
 210              		.loc 1 451 5 is_stmt 1 view .LVU64
 211              		.loc 1 451 33 is_stmt 0 view .LVU65
 212 008a 5744     		add	r7, r7, r10
ARM GAS  C:\Users\ADMINI~1\AppData\Local\Temp\cchwJBFL.s 			page 15


 213              	.LVL24:
 214              		.loc 1 451 19 view .LVU66
 215 008c A268     		ldr	r2, [r4, #8]
 216 008e 1744     		add	r7, r7, r2
 217 0090 A760     		str	r7, [r4, #8]
 452:Middlewares/LVGL/GUI/lvgl/src/widgets/lv_slider.c ****     knob_area->y1 -= knob_top + transf_h;
 218              		.loc 1 452 5 is_stmt 1 view .LVU67
 219              		.loc 1 452 31 is_stmt 0 view .LVU68
 220 0092 8044     		add	r8, r8, r0
 221              	.LVL25:
 222              		.loc 1 452 19 view .LVU69
 223 0094 6268     		ldr	r2, [r4, #4]
 224 0096 A2EB0802 		sub	r2, r2, r8
 225 009a 6260     		str	r2, [r4, #4]
 453:Middlewares/LVGL/GUI/lvgl/src/widgets/lv_slider.c ****     knob_area->y2 += knob_bottom + transf_h;
 226              		.loc 1 453 5 is_stmt 1 view .LVU70
 227              		.loc 1 453 34 is_stmt 0 view .LVU71
 228 009c 4B44     		add	r3, r3, r9
 229              		.loc 1 453 19 view .LVU72
 230 009e E268     		ldr	r2, [r4, #12]
 231 00a0 1344     		add	r3, r3, r2
 232 00a2 E360     		str	r3, [r4, #12]
 454:Middlewares/LVGL/GUI/lvgl/src/widgets/lv_slider.c **** }
 233              		.loc 1 454 1 view .LVU73
 234 00a4 BDE8F087 		pop	{r4, r5, r6, r7, r8, r9, r10, pc}
 235              	.LVL26:
 236              	.L2:
 435:Middlewares/LVGL/GUI/lvgl/src/widgets/lv_slider.c ****         knob_area->y2 = knob_area->y1 + knob_size - 1;
 237              		.loc 1 435 9 is_stmt 1 view .LVU74
 435:Middlewares/LVGL/GUI/lvgl/src/widgets/lv_slider.c ****         knob_area->y2 = knob_area->y1 + knob_size - 1;
 238              		.loc 1 435 23 is_stmt 0 view .LVU75
 239 00a8 4B68     		ldr	r3, [r1, #4]
 240              	.LVL27:
 435:Middlewares/LVGL/GUI/lvgl/src/widgets/lv_slider.c ****         knob_area->y2 = knob_area->y1 + knob_size - 1;
 241              		.loc 1 435 23 view .LVU76
 242 00aa A3EB6203 		sub	r3, r3, r2, asr #1
 243 00ae 4B60     		str	r3, [r1, #4]
 436:Middlewares/LVGL/GUI/lvgl/src/widgets/lv_slider.c ****         knob_area->x1 = obj->coords.x1;
 244              		.loc 1 436 9 is_stmt 1 view .LVU77
 436:Middlewares/LVGL/GUI/lvgl/src/widgets/lv_slider.c ****         knob_area->x1 = obj->coords.x1;
 245              		.loc 1 436 39 is_stmt 0 view .LVU78
 246 00b0 1A44     		add	r2, r2, r3
 247              	.LVL28:
 436:Middlewares/LVGL/GUI/lvgl/src/widgets/lv_slider.c ****         knob_area->x1 = obj->coords.x1;
 248              		.loc 1 436 51 view .LVU79
 249 00b2 013A     		subs	r2, r2, #1
 436:Middlewares/LVGL/GUI/lvgl/src/widgets/lv_slider.c ****         knob_area->x1 = obj->coords.x1;
 250              		.loc 1 436 23 view .LVU80
 251 00b4 CA60     		str	r2, [r1, #12]
 437:Middlewares/LVGL/GUI/lvgl/src/widgets/lv_slider.c ****         knob_area->x2 = obj->coords.x2;
 252              		.loc 1 437 9 is_stmt 1 view .LVU81
 437:Middlewares/LVGL/GUI/lvgl/src/widgets/lv_slider.c ****         knob_area->x2 = obj->coords.x2;
 253              		.loc 1 437 36 is_stmt 0 view .LVU82
 254 00b6 4369     		ldr	r3, [r0, #20]
 437:Middlewares/LVGL/GUI/lvgl/src/widgets/lv_slider.c ****         knob_area->x2 = obj->coords.x2;
 255              		.loc 1 437 23 view .LVU83
 256 00b8 0B60     		str	r3, [r1]
ARM GAS  C:\Users\ADMINI~1\AppData\Local\Temp\cchwJBFL.s 			page 16


 438:Middlewares/LVGL/GUI/lvgl/src/widgets/lv_slider.c ****     }
 257              		.loc 1 438 9 is_stmt 1 view .LVU84
 438:Middlewares/LVGL/GUI/lvgl/src/widgets/lv_slider.c ****     }
 258              		.loc 1 438 36 is_stmt 0 view .LVU85
 259 00ba C369     		ldr	r3, [r0, #28]
 438:Middlewares/LVGL/GUI/lvgl/src/widgets/lv_slider.c ****     }
 260              		.loc 1 438 23 view .LVU86
 261 00bc 8B60     		str	r3, [r1, #8]
 262 00be B0E7     		b	.L3
 263              		.cfi_endproc
 264              	.LFE173:
 266              		.section	.text.lv_slider_constructor,"ax",%progbits
 267              		.align	1
 268              		.syntax unified
 269              		.thumb
 270              		.thumb_func
 272              	lv_slider_constructor:
 273              	.LVL29:
 274              	.LFB170:
  80:Middlewares/LVGL/GUI/lvgl/src/widgets/lv_slider.c ****     LV_UNUSED(class_p);
 275              		.loc 1 80 1 is_stmt 1 view -0
 276              		.cfi_startproc
 277              		@ args = 0, pretend = 0, frame = 0
 278              		@ frame_needed = 0, uses_anonymous_args = 0
  80:Middlewares/LVGL/GUI/lvgl/src/widgets/lv_slider.c ****     LV_UNUSED(class_p);
 279              		.loc 1 80 1 is_stmt 0 view .LVU88
 280 0000 38B5     		push	{r3, r4, r5, lr}
 281              	.LCFI1:
 282              		.cfi_def_cfa_offset 16
 283              		.cfi_offset 3, -16
 284              		.cfi_offset 4, -12
 285              		.cfi_offset 5, -8
 286              		.cfi_offset 14, -4
 287 0002 0C46     		mov	r4, r1
  81:Middlewares/LVGL/GUI/lvgl/src/widgets/lv_slider.c ****     lv_slider_t * slider = (lv_slider_t *)obj;
 288              		.loc 1 81 5 is_stmt 1 view .LVU89
  82:Middlewares/LVGL/GUI/lvgl/src/widgets/lv_slider.c **** 
 289              		.loc 1 82 5 view .LVU90
 290              	.LVL30:
  85:Middlewares/LVGL/GUI/lvgl/src/widgets/lv_slider.c ****     slider->dragging = 0;
 291              		.loc 1 85 5 view .LVU91
  85:Middlewares/LVGL/GUI/lvgl/src/widgets/lv_slider.c ****     slider->dragging = 0;
 292              		.loc 1 85 26 is_stmt 0 view .LVU92
 293 0004 0025     		movs	r5, #0
 294 0006 C1F89050 		str	r5, [r1, #144]
  86:Middlewares/LVGL/GUI/lvgl/src/widgets/lv_slider.c ****     slider->left_knob_focus = 0;
 295              		.loc 1 86 5 is_stmt 1 view .LVU93
  86:Middlewares/LVGL/GUI/lvgl/src/widgets/lv_slider.c ****     slider->left_knob_focus = 0;
 296              		.loc 1 86 22 is_stmt 0 view .LVU94
 297 000a 91F89430 		ldrb	r3, [r1, #148]	@ zero_extendqisi2
 298 000e 65F30003 		bfi	r3, r5, #0, #1
 299 0012 81F89430 		strb	r3, [r1, #148]
  87:Middlewares/LVGL/GUI/lvgl/src/widgets/lv_slider.c **** 
 300              		.loc 1 87 5 is_stmt 1 view .LVU95
  87:Middlewares/LVGL/GUI/lvgl/src/widgets/lv_slider.c **** 
 301              		.loc 1 87 29 is_stmt 0 view .LVU96
 302 0016 DBB2     		uxtb	r3, r3
ARM GAS  C:\Users\ADMINI~1\AppData\Local\Temp\cchwJBFL.s 			page 17


 303 0018 65F34103 		bfi	r3, r5, #1, #1
 304 001c 81F89430 		strb	r3, [r1, #148]
  89:Middlewares/LVGL/GUI/lvgl/src/widgets/lv_slider.c ****     lv_obj_clear_flag(obj, LV_OBJ_FLAG_SCROLLABLE);
 305              		.loc 1 89 5 is_stmt 1 view .LVU97
 306 0020 4FF44071 		mov	r1, #768
 307              	.LVL31:
  89:Middlewares/LVGL/GUI/lvgl/src/widgets/lv_slider.c ****     lv_obj_clear_flag(obj, LV_OBJ_FLAG_SCROLLABLE);
 308              		.loc 1 89 5 is_stmt 0 view .LVU98
 309 0024 2046     		mov	r0, r4
 310              	.LVL32:
  89:Middlewares/LVGL/GUI/lvgl/src/widgets/lv_slider.c ****     lv_obj_clear_flag(obj, LV_OBJ_FLAG_SCROLLABLE);
 311              		.loc 1 89 5 view .LVU99
 312 0026 FFF7FEFF 		bl	lv_obj_clear_flag
 313              	.LVL33:
  90:Middlewares/LVGL/GUI/lvgl/src/widgets/lv_slider.c ****     lv_obj_set_ext_click_area(obj, LV_DPX(8));
 314              		.loc 1 90 5 is_stmt 1 view .LVU100
 315 002a 1021     		movs	r1, #16
 316 002c 2046     		mov	r0, r4
 317 002e FFF7FEFF 		bl	lv_obj_clear_flag
 318              	.LVL34:
  91:Middlewares/LVGL/GUI/lvgl/src/widgets/lv_slider.c **** }
 319              		.loc 1 91 5 view .LVU101
  91:Middlewares/LVGL/GUI/lvgl/src/widgets/lv_slider.c **** }
 320              		.loc 1 91 36 is_stmt 0 view .LVU102
 321 0032 2846     		mov	r0, r5
 322 0034 FFF7FEFF 		bl	lv_disp_get_dpi
 323              	.LVL35:
  91:Middlewares/LVGL/GUI/lvgl/src/widgets/lv_slider.c **** }
 324              		.loc 1 91 5 view .LVU103
 325 0038 1D28     		cmp	r0, #29
 326 003a 04DC     		bgt	.L9
 327 003c 0121     		movs	r1, #1
 328              	.L6:
  91:Middlewares/LVGL/GUI/lvgl/src/widgets/lv_slider.c **** }
 329              		.loc 1 91 5 discriminator 4 view .LVU104
 330 003e 2046     		mov	r0, r4
 331 0040 FFF7FEFF 		bl	lv_obj_set_ext_click_area
 332              	.LVL36:
  92:Middlewares/LVGL/GUI/lvgl/src/widgets/lv_slider.c **** 
 333              		.loc 1 92 1 discriminator 4 view .LVU105
 334 0044 38BD     		pop	{r3, r4, r5, pc}
 335              	.LVL37:
 336              	.L9:
  91:Middlewares/LVGL/GUI/lvgl/src/widgets/lv_slider.c **** }
 337              		.loc 1 91 36 discriminator 1 view .LVU106
 338 0046 2846     		mov	r0, r5
 339 0048 FFF7FEFF 		bl	lv_disp_get_dpi
 340              	.LVL38:
 341 004c 0A30     		adds	r0, r0, #10
  91:Middlewares/LVGL/GUI/lvgl/src/widgets/lv_slider.c **** }
 342              		.loc 1 91 5 discriminator 1 view .LVU107
 343 004e 0349     		ldr	r1, .L10
 344 0050 81FB0031 		smull	r3, r1, r1, r0
 345 0054 C017     		asrs	r0, r0, #31
 346 0056 C0EBE101 		rsb	r1, r0, r1, asr #3
 347 005a F0E7     		b	.L6
 348              	.L11:
ARM GAS  C:\Users\ADMINI~1\AppData\Local\Temp\cchwJBFL.s 			page 18


 349              		.align	2
 350              	.L10:
 351 005c 67666666 		.word	1717986919
 352              		.cfi_endproc
 353              	.LFE170:
 355              		.section	.text.draw_knob,"ax",%progbits
 356              		.align	1
 357              		.syntax unified
 358              		.thumb
 359              		.thumb_func
 361              	draw_knob:
 362              	.LVL39:
 363              	.LFB172:
 329:Middlewares/LVGL/GUI/lvgl/src/widgets/lv_slider.c ****     lv_obj_t * obj = lv_event_get_target(e);
 364              		.loc 1 329 1 is_stmt 1 view -0
 365              		.cfi_startproc
 366              		@ args = 0, pretend = 0, frame = 240
 367              		@ frame_needed = 0, uses_anonymous_args = 0
 329:Middlewares/LVGL/GUI/lvgl/src/widgets/lv_slider.c ****     lv_obj_t * obj = lv_event_get_target(e);
 368              		.loc 1 329 1 is_stmt 0 view .LVU109
 369 0000 2DE9F04F 		push	{r4, r5, r6, r7, r8, r9, r10, fp, lr}
 370              	.LCFI2:
 371              		.cfi_def_cfa_offset 36
 372              		.cfi_offset 4, -36
 373              		.cfi_offset 5, -32
 374              		.cfi_offset 6, -28
 375              		.cfi_offset 7, -24
 376              		.cfi_offset 8, -20
 377              		.cfi_offset 9, -16
 378              		.cfi_offset 10, -12
 379              		.cfi_offset 11, -8
 380              		.cfi_offset 14, -4
 381 0004 BDB0     		sub	sp, sp, #244
 382              	.LCFI3:
 383              		.cfi_def_cfa_offset 280
 384 0006 0546     		mov	r5, r0
 330:Middlewares/LVGL/GUI/lvgl/src/widgets/lv_slider.c ****     lv_slider_t * slider = (lv_slider_t *)obj;
 385              		.loc 1 330 5 is_stmt 1 view .LVU110
 330:Middlewares/LVGL/GUI/lvgl/src/widgets/lv_slider.c ****     lv_slider_t * slider = (lv_slider_t *)obj;
 386              		.loc 1 330 22 is_stmt 0 view .LVU111
 387 0008 FFF7FEFF 		bl	lv_event_get_target
 388              	.LVL40:
 330:Middlewares/LVGL/GUI/lvgl/src/widgets/lv_slider.c ****     lv_slider_t * slider = (lv_slider_t *)obj;
 389              		.loc 1 330 22 view .LVU112
 390 000c 0446     		mov	r4, r0
 391              	.LVL41:
 331:Middlewares/LVGL/GUI/lvgl/src/widgets/lv_slider.c ****     lv_draw_ctx_t * draw_ctx = lv_event_get_draw_ctx(e);
 392              		.loc 1 331 5 is_stmt 1 view .LVU113
 332:Middlewares/LVGL/GUI/lvgl/src/widgets/lv_slider.c ****     lv_base_dir_t base_dir = lv_obj_get_style_base_dir(obj, LV_PART_MAIN);
 393              		.loc 1 332 5 view .LVU114
 332:Middlewares/LVGL/GUI/lvgl/src/widgets/lv_slider.c ****     lv_base_dir_t base_dir = lv_obj_get_style_base_dir(obj, LV_PART_MAIN);
 394              		.loc 1 332 32 is_stmt 0 view .LVU115
 395 000e 2846     		mov	r0, r5
 396              	.LVL42:
 332:Middlewares/LVGL/GUI/lvgl/src/widgets/lv_slider.c ****     lv_base_dir_t base_dir = lv_obj_get_style_base_dir(obj, LV_PART_MAIN);
 397              		.loc 1 332 32 view .LVU116
 398 0010 FFF7FEFF 		bl	lv_event_get_draw_ctx
ARM GAS  C:\Users\ADMINI~1\AppData\Local\Temp\cchwJBFL.s 			page 19


 399              	.LVL43:
 400 0014 0746     		mov	r7, r0
 401              	.LVL44:
 333:Middlewares/LVGL/GUI/lvgl/src/widgets/lv_slider.c **** 
 402              		.loc 1 333 5 is_stmt 1 view .LVU117
 403              	.LBB98:
 404              	.LBI98:
 113:Middlewares/LVGL/GUI/lvgl/src/widgets/../core/lv_obj_style_gen.h **** }
 114:Middlewares/LVGL/GUI/lvgl/src/widgets/../core/lv_obj_style_gen.h **** 
 115:Middlewares/LVGL/GUI/lvgl/src/widgets/../core/lv_obj_style_gen.h **** static inline lv_coord_t lv_obj_get_style_pad_row(const struct _lv_obj_t * obj, uint32_t part)
 116:Middlewares/LVGL/GUI/lvgl/src/widgets/../core/lv_obj_style_gen.h **** {
 117:Middlewares/LVGL/GUI/lvgl/src/widgets/../core/lv_obj_style_gen.h ****     lv_style_value_t v = lv_obj_get_style_prop(obj, part, LV_STYLE_PAD_ROW);
 118:Middlewares/LVGL/GUI/lvgl/src/widgets/../core/lv_obj_style_gen.h ****     return (lv_coord_t)v.num;
 119:Middlewares/LVGL/GUI/lvgl/src/widgets/../core/lv_obj_style_gen.h **** }
 120:Middlewares/LVGL/GUI/lvgl/src/widgets/../core/lv_obj_style_gen.h **** 
 121:Middlewares/LVGL/GUI/lvgl/src/widgets/../core/lv_obj_style_gen.h **** static inline lv_coord_t lv_obj_get_style_pad_column(const struct _lv_obj_t * obj, uint32_t part)
 122:Middlewares/LVGL/GUI/lvgl/src/widgets/../core/lv_obj_style_gen.h **** {
 123:Middlewares/LVGL/GUI/lvgl/src/widgets/../core/lv_obj_style_gen.h ****     lv_style_value_t v = lv_obj_get_style_prop(obj, part, LV_STYLE_PAD_COLUMN);
 124:Middlewares/LVGL/GUI/lvgl/src/widgets/../core/lv_obj_style_gen.h ****     return (lv_coord_t)v.num;
 125:Middlewares/LVGL/GUI/lvgl/src/widgets/../core/lv_obj_style_gen.h **** }
 126:Middlewares/LVGL/GUI/lvgl/src/widgets/../core/lv_obj_style_gen.h **** 
 127:Middlewares/LVGL/GUI/lvgl/src/widgets/../core/lv_obj_style_gen.h **** static inline lv_color_t lv_obj_get_style_bg_color(const struct _lv_obj_t * obj, uint32_t part)
 128:Middlewares/LVGL/GUI/lvgl/src/widgets/../core/lv_obj_style_gen.h **** {
 129:Middlewares/LVGL/GUI/lvgl/src/widgets/../core/lv_obj_style_gen.h ****     lv_style_value_t v = lv_obj_get_style_prop(obj, part, LV_STYLE_BG_COLOR);
 130:Middlewares/LVGL/GUI/lvgl/src/widgets/../core/lv_obj_style_gen.h ****     return v.color;
 131:Middlewares/LVGL/GUI/lvgl/src/widgets/../core/lv_obj_style_gen.h **** }
 132:Middlewares/LVGL/GUI/lvgl/src/widgets/../core/lv_obj_style_gen.h **** 
 133:Middlewares/LVGL/GUI/lvgl/src/widgets/../core/lv_obj_style_gen.h **** static inline lv_color_t lv_obj_get_style_bg_color_filtered(const struct _lv_obj_t * obj, uint32_t 
 134:Middlewares/LVGL/GUI/lvgl/src/widgets/../core/lv_obj_style_gen.h **** {
 135:Middlewares/LVGL/GUI/lvgl/src/widgets/../core/lv_obj_style_gen.h ****     lv_style_value_t v = lv_obj_get_style_prop(obj, part, LV_STYLE_BG_COLOR_FILTERED);
 136:Middlewares/LVGL/GUI/lvgl/src/widgets/../core/lv_obj_style_gen.h ****     return v.color;
 137:Middlewares/LVGL/GUI/lvgl/src/widgets/../core/lv_obj_style_gen.h **** }
 138:Middlewares/LVGL/GUI/lvgl/src/widgets/../core/lv_obj_style_gen.h **** 
 139:Middlewares/LVGL/GUI/lvgl/src/widgets/../core/lv_obj_style_gen.h **** static inline lv_opa_t lv_obj_get_style_bg_opa(const struct _lv_obj_t * obj, uint32_t part)
 140:Middlewares/LVGL/GUI/lvgl/src/widgets/../core/lv_obj_style_gen.h **** {
 141:Middlewares/LVGL/GUI/lvgl/src/widgets/../core/lv_obj_style_gen.h ****     lv_style_value_t v = lv_obj_get_style_prop(obj, part, LV_STYLE_BG_OPA);
 142:Middlewares/LVGL/GUI/lvgl/src/widgets/../core/lv_obj_style_gen.h ****     return (lv_opa_t)v.num;
 143:Middlewares/LVGL/GUI/lvgl/src/widgets/../core/lv_obj_style_gen.h **** }
 144:Middlewares/LVGL/GUI/lvgl/src/widgets/../core/lv_obj_style_gen.h **** 
 145:Middlewares/LVGL/GUI/lvgl/src/widgets/../core/lv_obj_style_gen.h **** static inline lv_color_t lv_obj_get_style_bg_grad_color(const struct _lv_obj_t * obj, uint32_t part
 146:Middlewares/LVGL/GUI/lvgl/src/widgets/../core/lv_obj_style_gen.h **** {
 147:Middlewares/LVGL/GUI/lvgl/src/widgets/../core/lv_obj_style_gen.h ****     lv_style_value_t v = lv_obj_get_style_prop(obj, part, LV_STYLE_BG_GRAD_COLOR);
 148:Middlewares/LVGL/GUI/lvgl/src/widgets/../core/lv_obj_style_gen.h ****     return v.color;
 149:Middlewares/LVGL/GUI/lvgl/src/widgets/../core/lv_obj_style_gen.h **** }
 150:Middlewares/LVGL/GUI/lvgl/src/widgets/../core/lv_obj_style_gen.h **** 
 151:Middlewares/LVGL/GUI/lvgl/src/widgets/../core/lv_obj_style_gen.h **** static inline lv_color_t lv_obj_get_style_bg_grad_color_filtered(const struct _lv_obj_t * obj, uint
 152:Middlewares/LVGL/GUI/lvgl/src/widgets/../core/lv_obj_style_gen.h **** {
 153:Middlewares/LVGL/GUI/lvgl/src/widgets/../core/lv_obj_style_gen.h ****     lv_style_value_t v = lv_obj_get_style_prop(obj, part, LV_STYLE_BG_GRAD_COLOR_FILTERED);
 154:Middlewares/LVGL/GUI/lvgl/src/widgets/../core/lv_obj_style_gen.h ****     return v.color;
 155:Middlewares/LVGL/GUI/lvgl/src/widgets/../core/lv_obj_style_gen.h **** }
 156:Middlewares/LVGL/GUI/lvgl/src/widgets/../core/lv_obj_style_gen.h **** 
 157:Middlewares/LVGL/GUI/lvgl/src/widgets/../core/lv_obj_style_gen.h **** static inline lv_grad_dir_t lv_obj_get_style_bg_grad_dir(const struct _lv_obj_t * obj, uint32_t par
 158:Middlewares/LVGL/GUI/lvgl/src/widgets/../core/lv_obj_style_gen.h **** {
 159:Middlewares/LVGL/GUI/lvgl/src/widgets/../core/lv_obj_style_gen.h ****     lv_style_value_t v = lv_obj_get_style_prop(obj, part, LV_STYLE_BG_GRAD_DIR);
 160:Middlewares/LVGL/GUI/lvgl/src/widgets/../core/lv_obj_style_gen.h ****     return (lv_grad_dir_t)v.num;
 161:Middlewares/LVGL/GUI/lvgl/src/widgets/../core/lv_obj_style_gen.h **** }
 162:Middlewares/LVGL/GUI/lvgl/src/widgets/../core/lv_obj_style_gen.h **** 
ARM GAS  C:\Users\ADMINI~1\AppData\Local\Temp\cchwJBFL.s 			page 20


 163:Middlewares/LVGL/GUI/lvgl/src/widgets/../core/lv_obj_style_gen.h **** static inline lv_coord_t lv_obj_get_style_bg_main_stop(const struct _lv_obj_t * obj, uint32_t part)
 164:Middlewares/LVGL/GUI/lvgl/src/widgets/../core/lv_obj_style_gen.h **** {
 165:Middlewares/LVGL/GUI/lvgl/src/widgets/../core/lv_obj_style_gen.h ****     lv_style_value_t v = lv_obj_get_style_prop(obj, part, LV_STYLE_BG_MAIN_STOP);
 166:Middlewares/LVGL/GUI/lvgl/src/widgets/../core/lv_obj_style_gen.h ****     return (lv_coord_t)v.num;
 167:Middlewares/LVGL/GUI/lvgl/src/widgets/../core/lv_obj_style_gen.h **** }
 168:Middlewares/LVGL/GUI/lvgl/src/widgets/../core/lv_obj_style_gen.h **** 
 169:Middlewares/LVGL/GUI/lvgl/src/widgets/../core/lv_obj_style_gen.h **** static inline lv_coord_t lv_obj_get_style_bg_grad_stop(const struct _lv_obj_t * obj, uint32_t part)
 170:Middlewares/LVGL/GUI/lvgl/src/widgets/../core/lv_obj_style_gen.h **** {
 171:Middlewares/LVGL/GUI/lvgl/src/widgets/../core/lv_obj_style_gen.h ****     lv_style_value_t v = lv_obj_get_style_prop(obj, part, LV_STYLE_BG_GRAD_STOP);
 172:Middlewares/LVGL/GUI/lvgl/src/widgets/../core/lv_obj_style_gen.h ****     return (lv_coord_t)v.num;
 173:Middlewares/LVGL/GUI/lvgl/src/widgets/../core/lv_obj_style_gen.h **** }
 174:Middlewares/LVGL/GUI/lvgl/src/widgets/../core/lv_obj_style_gen.h **** 
 175:Middlewares/LVGL/GUI/lvgl/src/widgets/../core/lv_obj_style_gen.h **** static inline const lv_grad_dsc_t * lv_obj_get_style_bg_grad(const struct _lv_obj_t * obj, uint32_t
 176:Middlewares/LVGL/GUI/lvgl/src/widgets/../core/lv_obj_style_gen.h **** {
 177:Middlewares/LVGL/GUI/lvgl/src/widgets/../core/lv_obj_style_gen.h ****     lv_style_value_t v = lv_obj_get_style_prop(obj, part, LV_STYLE_BG_GRAD);
 178:Middlewares/LVGL/GUI/lvgl/src/widgets/../core/lv_obj_style_gen.h ****     return (const lv_grad_dsc_t *)v.ptr;
 179:Middlewares/LVGL/GUI/lvgl/src/widgets/../core/lv_obj_style_gen.h **** }
 180:Middlewares/LVGL/GUI/lvgl/src/widgets/../core/lv_obj_style_gen.h **** 
 181:Middlewares/LVGL/GUI/lvgl/src/widgets/../core/lv_obj_style_gen.h **** static inline lv_dither_mode_t lv_obj_get_style_bg_dither_mode(const struct _lv_obj_t * obj, uint32
 182:Middlewares/LVGL/GUI/lvgl/src/widgets/../core/lv_obj_style_gen.h **** {
 183:Middlewares/LVGL/GUI/lvgl/src/widgets/../core/lv_obj_style_gen.h ****     lv_style_value_t v = lv_obj_get_style_prop(obj, part, LV_STYLE_BG_DITHER_MODE);
 184:Middlewares/LVGL/GUI/lvgl/src/widgets/../core/lv_obj_style_gen.h ****     return (lv_dither_mode_t)v.num;
 185:Middlewares/LVGL/GUI/lvgl/src/widgets/../core/lv_obj_style_gen.h **** }
 186:Middlewares/LVGL/GUI/lvgl/src/widgets/../core/lv_obj_style_gen.h **** 
 187:Middlewares/LVGL/GUI/lvgl/src/widgets/../core/lv_obj_style_gen.h **** static inline const void * lv_obj_get_style_bg_img_src(const struct _lv_obj_t * obj, uint32_t part)
 188:Middlewares/LVGL/GUI/lvgl/src/widgets/../core/lv_obj_style_gen.h **** {
 189:Middlewares/LVGL/GUI/lvgl/src/widgets/../core/lv_obj_style_gen.h ****     lv_style_value_t v = lv_obj_get_style_prop(obj, part, LV_STYLE_BG_IMG_SRC);
 190:Middlewares/LVGL/GUI/lvgl/src/widgets/../core/lv_obj_style_gen.h ****     return (const void *)v.ptr;
 191:Middlewares/LVGL/GUI/lvgl/src/widgets/../core/lv_obj_style_gen.h **** }
 192:Middlewares/LVGL/GUI/lvgl/src/widgets/../core/lv_obj_style_gen.h **** 
 193:Middlewares/LVGL/GUI/lvgl/src/widgets/../core/lv_obj_style_gen.h **** static inline lv_opa_t lv_obj_get_style_bg_img_opa(const struct _lv_obj_t * obj, uint32_t part)
 194:Middlewares/LVGL/GUI/lvgl/src/widgets/../core/lv_obj_style_gen.h **** {
 195:Middlewares/LVGL/GUI/lvgl/src/widgets/../core/lv_obj_style_gen.h ****     lv_style_value_t v = lv_obj_get_style_prop(obj, part, LV_STYLE_BG_IMG_OPA);
 196:Middlewares/LVGL/GUI/lvgl/src/widgets/../core/lv_obj_style_gen.h ****     return (lv_opa_t)v.num;
 197:Middlewares/LVGL/GUI/lvgl/src/widgets/../core/lv_obj_style_gen.h **** }
 198:Middlewares/LVGL/GUI/lvgl/src/widgets/../core/lv_obj_style_gen.h **** 
 199:Middlewares/LVGL/GUI/lvgl/src/widgets/../core/lv_obj_style_gen.h **** static inline lv_color_t lv_obj_get_style_bg_img_recolor(const struct _lv_obj_t * obj, uint32_t par
 200:Middlewares/LVGL/GUI/lvgl/src/widgets/../core/lv_obj_style_gen.h **** {
 201:Middlewares/LVGL/GUI/lvgl/src/widgets/../core/lv_obj_style_gen.h ****     lv_style_value_t v = lv_obj_get_style_prop(obj, part, LV_STYLE_BG_IMG_RECOLOR);
 202:Middlewares/LVGL/GUI/lvgl/src/widgets/../core/lv_obj_style_gen.h ****     return v.color;
 203:Middlewares/LVGL/GUI/lvgl/src/widgets/../core/lv_obj_style_gen.h **** }
 204:Middlewares/LVGL/GUI/lvgl/src/widgets/../core/lv_obj_style_gen.h **** 
 205:Middlewares/LVGL/GUI/lvgl/src/widgets/../core/lv_obj_style_gen.h **** static inline lv_color_t lv_obj_get_style_bg_img_recolor_filtered(const struct _lv_obj_t * obj, uin
 206:Middlewares/LVGL/GUI/lvgl/src/widgets/../core/lv_obj_style_gen.h **** {
 207:Middlewares/LVGL/GUI/lvgl/src/widgets/../core/lv_obj_style_gen.h ****     lv_style_value_t v = lv_obj_get_style_prop(obj, part, LV_STYLE_BG_IMG_RECOLOR_FILTERED);
 208:Middlewares/LVGL/GUI/lvgl/src/widgets/../core/lv_obj_style_gen.h ****     return v.color;
 209:Middlewares/LVGL/GUI/lvgl/src/widgets/../core/lv_obj_style_gen.h **** }
 210:Middlewares/LVGL/GUI/lvgl/src/widgets/../core/lv_obj_style_gen.h **** 
 211:Middlewares/LVGL/GUI/lvgl/src/widgets/../core/lv_obj_style_gen.h **** static inline lv_opa_t lv_obj_get_style_bg_img_recolor_opa(const struct _lv_obj_t * obj, uint32_t p
 212:Middlewares/LVGL/GUI/lvgl/src/widgets/../core/lv_obj_style_gen.h **** {
 213:Middlewares/LVGL/GUI/lvgl/src/widgets/../core/lv_obj_style_gen.h ****     lv_style_value_t v = lv_obj_get_style_prop(obj, part, LV_STYLE_BG_IMG_RECOLOR_OPA);
 214:Middlewares/LVGL/GUI/lvgl/src/widgets/../core/lv_obj_style_gen.h ****     return (lv_opa_t)v.num;
 215:Middlewares/LVGL/GUI/lvgl/src/widgets/../core/lv_obj_style_gen.h **** }
 216:Middlewares/LVGL/GUI/lvgl/src/widgets/../core/lv_obj_style_gen.h **** 
 217:Middlewares/LVGL/GUI/lvgl/src/widgets/../core/lv_obj_style_gen.h **** static inline bool lv_obj_get_style_bg_img_tiled(const struct _lv_obj_t * obj, uint32_t part)
 218:Middlewares/LVGL/GUI/lvgl/src/widgets/../core/lv_obj_style_gen.h **** {
 219:Middlewares/LVGL/GUI/lvgl/src/widgets/../core/lv_obj_style_gen.h ****     lv_style_value_t v = lv_obj_get_style_prop(obj, part, LV_STYLE_BG_IMG_TILED);
ARM GAS  C:\Users\ADMINI~1\AppData\Local\Temp\cchwJBFL.s 			page 21


 220:Middlewares/LVGL/GUI/lvgl/src/widgets/../core/lv_obj_style_gen.h ****     return (bool)v.num;
 221:Middlewares/LVGL/GUI/lvgl/src/widgets/../core/lv_obj_style_gen.h **** }
 222:Middlewares/LVGL/GUI/lvgl/src/widgets/../core/lv_obj_style_gen.h **** 
 223:Middlewares/LVGL/GUI/lvgl/src/widgets/../core/lv_obj_style_gen.h **** static inline lv_color_t lv_obj_get_style_border_color(const struct _lv_obj_t * obj, uint32_t part)
 224:Middlewares/LVGL/GUI/lvgl/src/widgets/../core/lv_obj_style_gen.h **** {
 225:Middlewares/LVGL/GUI/lvgl/src/widgets/../core/lv_obj_style_gen.h ****     lv_style_value_t v = lv_obj_get_style_prop(obj, part, LV_STYLE_BORDER_COLOR);
 226:Middlewares/LVGL/GUI/lvgl/src/widgets/../core/lv_obj_style_gen.h ****     return v.color;
 227:Middlewares/LVGL/GUI/lvgl/src/widgets/../core/lv_obj_style_gen.h **** }
 228:Middlewares/LVGL/GUI/lvgl/src/widgets/../core/lv_obj_style_gen.h **** 
 229:Middlewares/LVGL/GUI/lvgl/src/widgets/../core/lv_obj_style_gen.h **** static inline lv_color_t lv_obj_get_style_border_color_filtered(const struct _lv_obj_t * obj, uint3
 230:Middlewares/LVGL/GUI/lvgl/src/widgets/../core/lv_obj_style_gen.h **** {
 231:Middlewares/LVGL/GUI/lvgl/src/widgets/../core/lv_obj_style_gen.h ****     lv_style_value_t v = lv_obj_get_style_prop(obj, part, LV_STYLE_BORDER_COLOR_FILTERED);
 232:Middlewares/LVGL/GUI/lvgl/src/widgets/../core/lv_obj_style_gen.h ****     return v.color;
 233:Middlewares/LVGL/GUI/lvgl/src/widgets/../core/lv_obj_style_gen.h **** }
 234:Middlewares/LVGL/GUI/lvgl/src/widgets/../core/lv_obj_style_gen.h **** 
 235:Middlewares/LVGL/GUI/lvgl/src/widgets/../core/lv_obj_style_gen.h **** static inline lv_opa_t lv_obj_get_style_border_opa(const struct _lv_obj_t * obj, uint32_t part)
 236:Middlewares/LVGL/GUI/lvgl/src/widgets/../core/lv_obj_style_gen.h **** {
 237:Middlewares/LVGL/GUI/lvgl/src/widgets/../core/lv_obj_style_gen.h ****     lv_style_value_t v = lv_obj_get_style_prop(obj, part, LV_STYLE_BORDER_OPA);
 238:Middlewares/LVGL/GUI/lvgl/src/widgets/../core/lv_obj_style_gen.h ****     return (lv_opa_t)v.num;
 239:Middlewares/LVGL/GUI/lvgl/src/widgets/../core/lv_obj_style_gen.h **** }
 240:Middlewares/LVGL/GUI/lvgl/src/widgets/../core/lv_obj_style_gen.h **** 
 241:Middlewares/LVGL/GUI/lvgl/src/widgets/../core/lv_obj_style_gen.h **** static inline lv_coord_t lv_obj_get_style_border_width(const struct _lv_obj_t * obj, uint32_t part)
 242:Middlewares/LVGL/GUI/lvgl/src/widgets/../core/lv_obj_style_gen.h **** {
 243:Middlewares/LVGL/GUI/lvgl/src/widgets/../core/lv_obj_style_gen.h ****     lv_style_value_t v = lv_obj_get_style_prop(obj, part, LV_STYLE_BORDER_WIDTH);
 244:Middlewares/LVGL/GUI/lvgl/src/widgets/../core/lv_obj_style_gen.h ****     return (lv_coord_t)v.num;
 245:Middlewares/LVGL/GUI/lvgl/src/widgets/../core/lv_obj_style_gen.h **** }
 246:Middlewares/LVGL/GUI/lvgl/src/widgets/../core/lv_obj_style_gen.h **** 
 247:Middlewares/LVGL/GUI/lvgl/src/widgets/../core/lv_obj_style_gen.h **** static inline lv_border_side_t lv_obj_get_style_border_side(const struct _lv_obj_t * obj, uint32_t 
 248:Middlewares/LVGL/GUI/lvgl/src/widgets/../core/lv_obj_style_gen.h **** {
 249:Middlewares/LVGL/GUI/lvgl/src/widgets/../core/lv_obj_style_gen.h ****     lv_style_value_t v = lv_obj_get_style_prop(obj, part, LV_STYLE_BORDER_SIDE);
 250:Middlewares/LVGL/GUI/lvgl/src/widgets/../core/lv_obj_style_gen.h ****     return (lv_border_side_t)v.num;
 251:Middlewares/LVGL/GUI/lvgl/src/widgets/../core/lv_obj_style_gen.h **** }
 252:Middlewares/LVGL/GUI/lvgl/src/widgets/../core/lv_obj_style_gen.h **** 
 253:Middlewares/LVGL/GUI/lvgl/src/widgets/../core/lv_obj_style_gen.h **** static inline bool lv_obj_get_style_border_post(const struct _lv_obj_t * obj, uint32_t part)
 254:Middlewares/LVGL/GUI/lvgl/src/widgets/../core/lv_obj_style_gen.h **** {
 255:Middlewares/LVGL/GUI/lvgl/src/widgets/../core/lv_obj_style_gen.h ****     lv_style_value_t v = lv_obj_get_style_prop(obj, part, LV_STYLE_BORDER_POST);
 256:Middlewares/LVGL/GUI/lvgl/src/widgets/../core/lv_obj_style_gen.h ****     return (bool)v.num;
 257:Middlewares/LVGL/GUI/lvgl/src/widgets/../core/lv_obj_style_gen.h **** }
 258:Middlewares/LVGL/GUI/lvgl/src/widgets/../core/lv_obj_style_gen.h **** 
 259:Middlewares/LVGL/GUI/lvgl/src/widgets/../core/lv_obj_style_gen.h **** static inline lv_coord_t lv_obj_get_style_outline_width(const struct _lv_obj_t * obj, uint32_t part
 260:Middlewares/LVGL/GUI/lvgl/src/widgets/../core/lv_obj_style_gen.h **** {
 261:Middlewares/LVGL/GUI/lvgl/src/widgets/../core/lv_obj_style_gen.h ****     lv_style_value_t v = lv_obj_get_style_prop(obj, part, LV_STYLE_OUTLINE_WIDTH);
 262:Middlewares/LVGL/GUI/lvgl/src/widgets/../core/lv_obj_style_gen.h ****     return (lv_coord_t)v.num;
 263:Middlewares/LVGL/GUI/lvgl/src/widgets/../core/lv_obj_style_gen.h **** }
 264:Middlewares/LVGL/GUI/lvgl/src/widgets/../core/lv_obj_style_gen.h **** 
 265:Middlewares/LVGL/GUI/lvgl/src/widgets/../core/lv_obj_style_gen.h **** static inline lv_color_t lv_obj_get_style_outline_color(const struct _lv_obj_t * obj, uint32_t part
 266:Middlewares/LVGL/GUI/lvgl/src/widgets/../core/lv_obj_style_gen.h **** {
 267:Middlewares/LVGL/GUI/lvgl/src/widgets/../core/lv_obj_style_gen.h ****     lv_style_value_t v = lv_obj_get_style_prop(obj, part, LV_STYLE_OUTLINE_COLOR);
 268:Middlewares/LVGL/GUI/lvgl/src/widgets/../core/lv_obj_style_gen.h ****     return v.color;
 269:Middlewares/LVGL/GUI/lvgl/src/widgets/../core/lv_obj_style_gen.h **** }
 270:Middlewares/LVGL/GUI/lvgl/src/widgets/../core/lv_obj_style_gen.h **** 
 271:Middlewares/LVGL/GUI/lvgl/src/widgets/../core/lv_obj_style_gen.h **** static inline lv_color_t lv_obj_get_style_outline_color_filtered(const struct _lv_obj_t * obj, uint
 272:Middlewares/LVGL/GUI/lvgl/src/widgets/../core/lv_obj_style_gen.h **** {
 273:Middlewares/LVGL/GUI/lvgl/src/widgets/../core/lv_obj_style_gen.h ****     lv_style_value_t v = lv_obj_get_style_prop(obj, part, LV_STYLE_OUTLINE_COLOR_FILTERED);
 274:Middlewares/LVGL/GUI/lvgl/src/widgets/../core/lv_obj_style_gen.h ****     return v.color;
 275:Middlewares/LVGL/GUI/lvgl/src/widgets/../core/lv_obj_style_gen.h **** }
 276:Middlewares/LVGL/GUI/lvgl/src/widgets/../core/lv_obj_style_gen.h **** 
ARM GAS  C:\Users\ADMINI~1\AppData\Local\Temp\cchwJBFL.s 			page 22


 277:Middlewares/LVGL/GUI/lvgl/src/widgets/../core/lv_obj_style_gen.h **** static inline lv_opa_t lv_obj_get_style_outline_opa(const struct _lv_obj_t * obj, uint32_t part)
 278:Middlewares/LVGL/GUI/lvgl/src/widgets/../core/lv_obj_style_gen.h **** {
 279:Middlewares/LVGL/GUI/lvgl/src/widgets/../core/lv_obj_style_gen.h ****     lv_style_value_t v = lv_obj_get_style_prop(obj, part, LV_STYLE_OUTLINE_OPA);
 280:Middlewares/LVGL/GUI/lvgl/src/widgets/../core/lv_obj_style_gen.h ****     return (lv_opa_t)v.num;
 281:Middlewares/LVGL/GUI/lvgl/src/widgets/../core/lv_obj_style_gen.h **** }
 282:Middlewares/LVGL/GUI/lvgl/src/widgets/../core/lv_obj_style_gen.h **** 
 283:Middlewares/LVGL/GUI/lvgl/src/widgets/../core/lv_obj_style_gen.h **** static inline lv_coord_t lv_obj_get_style_outline_pad(const struct _lv_obj_t * obj, uint32_t part)
 284:Middlewares/LVGL/GUI/lvgl/src/widgets/../core/lv_obj_style_gen.h **** {
 285:Middlewares/LVGL/GUI/lvgl/src/widgets/../core/lv_obj_style_gen.h ****     lv_style_value_t v = lv_obj_get_style_prop(obj, part, LV_STYLE_OUTLINE_PAD);
 286:Middlewares/LVGL/GUI/lvgl/src/widgets/../core/lv_obj_style_gen.h ****     return (lv_coord_t)v.num;
 287:Middlewares/LVGL/GUI/lvgl/src/widgets/../core/lv_obj_style_gen.h **** }
 288:Middlewares/LVGL/GUI/lvgl/src/widgets/../core/lv_obj_style_gen.h **** 
 289:Middlewares/LVGL/GUI/lvgl/src/widgets/../core/lv_obj_style_gen.h **** static inline lv_coord_t lv_obj_get_style_shadow_width(const struct _lv_obj_t * obj, uint32_t part)
 290:Middlewares/LVGL/GUI/lvgl/src/widgets/../core/lv_obj_style_gen.h **** {
 291:Middlewares/LVGL/GUI/lvgl/src/widgets/../core/lv_obj_style_gen.h ****     lv_style_value_t v = lv_obj_get_style_prop(obj, part, LV_STYLE_SHADOW_WIDTH);
 292:Middlewares/LVGL/GUI/lvgl/src/widgets/../core/lv_obj_style_gen.h ****     return (lv_coord_t)v.num;
 293:Middlewares/LVGL/GUI/lvgl/src/widgets/../core/lv_obj_style_gen.h **** }
 294:Middlewares/LVGL/GUI/lvgl/src/widgets/../core/lv_obj_style_gen.h **** 
 295:Middlewares/LVGL/GUI/lvgl/src/widgets/../core/lv_obj_style_gen.h **** static inline lv_coord_t lv_obj_get_style_shadow_ofs_x(const struct _lv_obj_t * obj, uint32_t part)
 296:Middlewares/LVGL/GUI/lvgl/src/widgets/../core/lv_obj_style_gen.h **** {
 297:Middlewares/LVGL/GUI/lvgl/src/widgets/../core/lv_obj_style_gen.h ****     lv_style_value_t v = lv_obj_get_style_prop(obj, part, LV_STYLE_SHADOW_OFS_X);
 298:Middlewares/LVGL/GUI/lvgl/src/widgets/../core/lv_obj_style_gen.h ****     return (lv_coord_t)v.num;
 299:Middlewares/LVGL/GUI/lvgl/src/widgets/../core/lv_obj_style_gen.h **** }
 300:Middlewares/LVGL/GUI/lvgl/src/widgets/../core/lv_obj_style_gen.h **** 
 301:Middlewares/LVGL/GUI/lvgl/src/widgets/../core/lv_obj_style_gen.h **** static inline lv_coord_t lv_obj_get_style_shadow_ofs_y(const struct _lv_obj_t * obj, uint32_t part)
 302:Middlewares/LVGL/GUI/lvgl/src/widgets/../core/lv_obj_style_gen.h **** {
 303:Middlewares/LVGL/GUI/lvgl/src/widgets/../core/lv_obj_style_gen.h ****     lv_style_value_t v = lv_obj_get_style_prop(obj, part, LV_STYLE_SHADOW_OFS_Y);
 304:Middlewares/LVGL/GUI/lvgl/src/widgets/../core/lv_obj_style_gen.h ****     return (lv_coord_t)v.num;
 305:Middlewares/LVGL/GUI/lvgl/src/widgets/../core/lv_obj_style_gen.h **** }
 306:Middlewares/LVGL/GUI/lvgl/src/widgets/../core/lv_obj_style_gen.h **** 
 307:Middlewares/LVGL/GUI/lvgl/src/widgets/../core/lv_obj_style_gen.h **** static inline lv_coord_t lv_obj_get_style_shadow_spread(const struct _lv_obj_t * obj, uint32_t part
 308:Middlewares/LVGL/GUI/lvgl/src/widgets/../core/lv_obj_style_gen.h **** {
 309:Middlewares/LVGL/GUI/lvgl/src/widgets/../core/lv_obj_style_gen.h ****     lv_style_value_t v = lv_obj_get_style_prop(obj, part, LV_STYLE_SHADOW_SPREAD);
 310:Middlewares/LVGL/GUI/lvgl/src/widgets/../core/lv_obj_style_gen.h ****     return (lv_coord_t)v.num;
 311:Middlewares/LVGL/GUI/lvgl/src/widgets/../core/lv_obj_style_gen.h **** }
 312:Middlewares/LVGL/GUI/lvgl/src/widgets/../core/lv_obj_style_gen.h **** 
 313:Middlewares/LVGL/GUI/lvgl/src/widgets/../core/lv_obj_style_gen.h **** static inline lv_color_t lv_obj_get_style_shadow_color(const struct _lv_obj_t * obj, uint32_t part)
 314:Middlewares/LVGL/GUI/lvgl/src/widgets/../core/lv_obj_style_gen.h **** {
 315:Middlewares/LVGL/GUI/lvgl/src/widgets/../core/lv_obj_style_gen.h ****     lv_style_value_t v = lv_obj_get_style_prop(obj, part, LV_STYLE_SHADOW_COLOR);
 316:Middlewares/LVGL/GUI/lvgl/src/widgets/../core/lv_obj_style_gen.h ****     return v.color;
 317:Middlewares/LVGL/GUI/lvgl/src/widgets/../core/lv_obj_style_gen.h **** }
 318:Middlewares/LVGL/GUI/lvgl/src/widgets/../core/lv_obj_style_gen.h **** 
 319:Middlewares/LVGL/GUI/lvgl/src/widgets/../core/lv_obj_style_gen.h **** static inline lv_color_t lv_obj_get_style_shadow_color_filtered(const struct _lv_obj_t * obj, uint3
 320:Middlewares/LVGL/GUI/lvgl/src/widgets/../core/lv_obj_style_gen.h **** {
 321:Middlewares/LVGL/GUI/lvgl/src/widgets/../core/lv_obj_style_gen.h ****     lv_style_value_t v = lv_obj_get_style_prop(obj, part, LV_STYLE_SHADOW_COLOR_FILTERED);
 322:Middlewares/LVGL/GUI/lvgl/src/widgets/../core/lv_obj_style_gen.h ****     return v.color;
 323:Middlewares/LVGL/GUI/lvgl/src/widgets/../core/lv_obj_style_gen.h **** }
 324:Middlewares/LVGL/GUI/lvgl/src/widgets/../core/lv_obj_style_gen.h **** 
 325:Middlewares/LVGL/GUI/lvgl/src/widgets/../core/lv_obj_style_gen.h **** static inline lv_opa_t lv_obj_get_style_shadow_opa(const struct _lv_obj_t * obj, uint32_t part)
 326:Middlewares/LVGL/GUI/lvgl/src/widgets/../core/lv_obj_style_gen.h **** {
 327:Middlewares/LVGL/GUI/lvgl/src/widgets/../core/lv_obj_style_gen.h ****     lv_style_value_t v = lv_obj_get_style_prop(obj, part, LV_STYLE_SHADOW_OPA);
 328:Middlewares/LVGL/GUI/lvgl/src/widgets/../core/lv_obj_style_gen.h ****     return (lv_opa_t)v.num;
 329:Middlewares/LVGL/GUI/lvgl/src/widgets/../core/lv_obj_style_gen.h **** }
 330:Middlewares/LVGL/GUI/lvgl/src/widgets/../core/lv_obj_style_gen.h **** 
 331:Middlewares/LVGL/GUI/lvgl/src/widgets/../core/lv_obj_style_gen.h **** static inline lv_opa_t lv_obj_get_style_img_opa(const struct _lv_obj_t * obj, uint32_t part)
 332:Middlewares/LVGL/GUI/lvgl/src/widgets/../core/lv_obj_style_gen.h **** {
 333:Middlewares/LVGL/GUI/lvgl/src/widgets/../core/lv_obj_style_gen.h ****     lv_style_value_t v = lv_obj_get_style_prop(obj, part, LV_STYLE_IMG_OPA);
ARM GAS  C:\Users\ADMINI~1\AppData\Local\Temp\cchwJBFL.s 			page 23


 334:Middlewares/LVGL/GUI/lvgl/src/widgets/../core/lv_obj_style_gen.h ****     return (lv_opa_t)v.num;
 335:Middlewares/LVGL/GUI/lvgl/src/widgets/../core/lv_obj_style_gen.h **** }
 336:Middlewares/LVGL/GUI/lvgl/src/widgets/../core/lv_obj_style_gen.h **** 
 337:Middlewares/LVGL/GUI/lvgl/src/widgets/../core/lv_obj_style_gen.h **** static inline lv_color_t lv_obj_get_style_img_recolor(const struct _lv_obj_t * obj, uint32_t part)
 338:Middlewares/LVGL/GUI/lvgl/src/widgets/../core/lv_obj_style_gen.h **** {
 339:Middlewares/LVGL/GUI/lvgl/src/widgets/../core/lv_obj_style_gen.h ****     lv_style_value_t v = lv_obj_get_style_prop(obj, part, LV_STYLE_IMG_RECOLOR);
 340:Middlewares/LVGL/GUI/lvgl/src/widgets/../core/lv_obj_style_gen.h ****     return v.color;
 341:Middlewares/LVGL/GUI/lvgl/src/widgets/../core/lv_obj_style_gen.h **** }
 342:Middlewares/LVGL/GUI/lvgl/src/widgets/../core/lv_obj_style_gen.h **** 
 343:Middlewares/LVGL/GUI/lvgl/src/widgets/../core/lv_obj_style_gen.h **** static inline lv_color_t lv_obj_get_style_img_recolor_filtered(const struct _lv_obj_t * obj, uint32
 344:Middlewares/LVGL/GUI/lvgl/src/widgets/../core/lv_obj_style_gen.h **** {
 345:Middlewares/LVGL/GUI/lvgl/src/widgets/../core/lv_obj_style_gen.h ****     lv_style_value_t v = lv_obj_get_style_prop(obj, part, LV_STYLE_IMG_RECOLOR_FILTERED);
 346:Middlewares/LVGL/GUI/lvgl/src/widgets/../core/lv_obj_style_gen.h ****     return v.color;
 347:Middlewares/LVGL/GUI/lvgl/src/widgets/../core/lv_obj_style_gen.h **** }
 348:Middlewares/LVGL/GUI/lvgl/src/widgets/../core/lv_obj_style_gen.h **** 
 349:Middlewares/LVGL/GUI/lvgl/src/widgets/../core/lv_obj_style_gen.h **** static inline lv_opa_t lv_obj_get_style_img_recolor_opa(const struct _lv_obj_t * obj, uint32_t part
 350:Middlewares/LVGL/GUI/lvgl/src/widgets/../core/lv_obj_style_gen.h **** {
 351:Middlewares/LVGL/GUI/lvgl/src/widgets/../core/lv_obj_style_gen.h ****     lv_style_value_t v = lv_obj_get_style_prop(obj, part, LV_STYLE_IMG_RECOLOR_OPA);
 352:Middlewares/LVGL/GUI/lvgl/src/widgets/../core/lv_obj_style_gen.h ****     return (lv_opa_t)v.num;
 353:Middlewares/LVGL/GUI/lvgl/src/widgets/../core/lv_obj_style_gen.h **** }
 354:Middlewares/LVGL/GUI/lvgl/src/widgets/../core/lv_obj_style_gen.h **** 
 355:Middlewares/LVGL/GUI/lvgl/src/widgets/../core/lv_obj_style_gen.h **** static inline lv_coord_t lv_obj_get_style_line_width(const struct _lv_obj_t * obj, uint32_t part)
 356:Middlewares/LVGL/GUI/lvgl/src/widgets/../core/lv_obj_style_gen.h **** {
 357:Middlewares/LVGL/GUI/lvgl/src/widgets/../core/lv_obj_style_gen.h ****     lv_style_value_t v = lv_obj_get_style_prop(obj, part, LV_STYLE_LINE_WIDTH);
 358:Middlewares/LVGL/GUI/lvgl/src/widgets/../core/lv_obj_style_gen.h ****     return (lv_coord_t)v.num;
 359:Middlewares/LVGL/GUI/lvgl/src/widgets/../core/lv_obj_style_gen.h **** }
 360:Middlewares/LVGL/GUI/lvgl/src/widgets/../core/lv_obj_style_gen.h **** 
 361:Middlewares/LVGL/GUI/lvgl/src/widgets/../core/lv_obj_style_gen.h **** static inline lv_coord_t lv_obj_get_style_line_dash_width(const struct _lv_obj_t * obj, uint32_t pa
 362:Middlewares/LVGL/GUI/lvgl/src/widgets/../core/lv_obj_style_gen.h **** {
 363:Middlewares/LVGL/GUI/lvgl/src/widgets/../core/lv_obj_style_gen.h ****     lv_style_value_t v = lv_obj_get_style_prop(obj, part, LV_STYLE_LINE_DASH_WIDTH);
 364:Middlewares/LVGL/GUI/lvgl/src/widgets/../core/lv_obj_style_gen.h ****     return (lv_coord_t)v.num;
 365:Middlewares/LVGL/GUI/lvgl/src/widgets/../core/lv_obj_style_gen.h **** }
 366:Middlewares/LVGL/GUI/lvgl/src/widgets/../core/lv_obj_style_gen.h **** 
 367:Middlewares/LVGL/GUI/lvgl/src/widgets/../core/lv_obj_style_gen.h **** static inline lv_coord_t lv_obj_get_style_line_dash_gap(const struct _lv_obj_t * obj, uint32_t part
 368:Middlewares/LVGL/GUI/lvgl/src/widgets/../core/lv_obj_style_gen.h **** {
 369:Middlewares/LVGL/GUI/lvgl/src/widgets/../core/lv_obj_style_gen.h ****     lv_style_value_t v = lv_obj_get_style_prop(obj, part, LV_STYLE_LINE_DASH_GAP);
 370:Middlewares/LVGL/GUI/lvgl/src/widgets/../core/lv_obj_style_gen.h ****     return (lv_coord_t)v.num;
 371:Middlewares/LVGL/GUI/lvgl/src/widgets/../core/lv_obj_style_gen.h **** }
 372:Middlewares/LVGL/GUI/lvgl/src/widgets/../core/lv_obj_style_gen.h **** 
 373:Middlewares/LVGL/GUI/lvgl/src/widgets/../core/lv_obj_style_gen.h **** static inline bool lv_obj_get_style_line_rounded(const struct _lv_obj_t * obj, uint32_t part)
 374:Middlewares/LVGL/GUI/lvgl/src/widgets/../core/lv_obj_style_gen.h **** {
 375:Middlewares/LVGL/GUI/lvgl/src/widgets/../core/lv_obj_style_gen.h ****     lv_style_value_t v = lv_obj_get_style_prop(obj, part, LV_STYLE_LINE_ROUNDED);
 376:Middlewares/LVGL/GUI/lvgl/src/widgets/../core/lv_obj_style_gen.h ****     return (bool)v.num;
 377:Middlewares/LVGL/GUI/lvgl/src/widgets/../core/lv_obj_style_gen.h **** }
 378:Middlewares/LVGL/GUI/lvgl/src/widgets/../core/lv_obj_style_gen.h **** 
 379:Middlewares/LVGL/GUI/lvgl/src/widgets/../core/lv_obj_style_gen.h **** static inline lv_color_t lv_obj_get_style_line_color(const struct _lv_obj_t * obj, uint32_t part)
 380:Middlewares/LVGL/GUI/lvgl/src/widgets/../core/lv_obj_style_gen.h **** {
 381:Middlewares/LVGL/GUI/lvgl/src/widgets/../core/lv_obj_style_gen.h ****     lv_style_value_t v = lv_obj_get_style_prop(obj, part, LV_STYLE_LINE_COLOR);
 382:Middlewares/LVGL/GUI/lvgl/src/widgets/../core/lv_obj_style_gen.h ****     return v.color;
 383:Middlewares/LVGL/GUI/lvgl/src/widgets/../core/lv_obj_style_gen.h **** }
 384:Middlewares/LVGL/GUI/lvgl/src/widgets/../core/lv_obj_style_gen.h **** 
 385:Middlewares/LVGL/GUI/lvgl/src/widgets/../core/lv_obj_style_gen.h **** static inline lv_color_t lv_obj_get_style_line_color_filtered(const struct _lv_obj_t * obj, uint32_
 386:Middlewares/LVGL/GUI/lvgl/src/widgets/../core/lv_obj_style_gen.h **** {
 387:Middlewares/LVGL/GUI/lvgl/src/widgets/../core/lv_obj_style_gen.h ****     lv_style_value_t v = lv_obj_get_style_prop(obj, part, LV_STYLE_LINE_COLOR_FILTERED);
 388:Middlewares/LVGL/GUI/lvgl/src/widgets/../core/lv_obj_style_gen.h ****     return v.color;
 389:Middlewares/LVGL/GUI/lvgl/src/widgets/../core/lv_obj_style_gen.h **** }
 390:Middlewares/LVGL/GUI/lvgl/src/widgets/../core/lv_obj_style_gen.h **** 
ARM GAS  C:\Users\ADMINI~1\AppData\Local\Temp\cchwJBFL.s 			page 24


 391:Middlewares/LVGL/GUI/lvgl/src/widgets/../core/lv_obj_style_gen.h **** static inline lv_opa_t lv_obj_get_style_line_opa(const struct _lv_obj_t * obj, uint32_t part)
 392:Middlewares/LVGL/GUI/lvgl/src/widgets/../core/lv_obj_style_gen.h **** {
 393:Middlewares/LVGL/GUI/lvgl/src/widgets/../core/lv_obj_style_gen.h ****     lv_style_value_t v = lv_obj_get_style_prop(obj, part, LV_STYLE_LINE_OPA);
 394:Middlewares/LVGL/GUI/lvgl/src/widgets/../core/lv_obj_style_gen.h ****     return (lv_opa_t)v.num;
 395:Middlewares/LVGL/GUI/lvgl/src/widgets/../core/lv_obj_style_gen.h **** }
 396:Middlewares/LVGL/GUI/lvgl/src/widgets/../core/lv_obj_style_gen.h **** 
 397:Middlewares/LVGL/GUI/lvgl/src/widgets/../core/lv_obj_style_gen.h **** static inline lv_coord_t lv_obj_get_style_arc_width(const struct _lv_obj_t * obj, uint32_t part)
 398:Middlewares/LVGL/GUI/lvgl/src/widgets/../core/lv_obj_style_gen.h **** {
 399:Middlewares/LVGL/GUI/lvgl/src/widgets/../core/lv_obj_style_gen.h ****     lv_style_value_t v = lv_obj_get_style_prop(obj, part, LV_STYLE_ARC_WIDTH);
 400:Middlewares/LVGL/GUI/lvgl/src/widgets/../core/lv_obj_style_gen.h ****     return (lv_coord_t)v.num;
 401:Middlewares/LVGL/GUI/lvgl/src/widgets/../core/lv_obj_style_gen.h **** }
 402:Middlewares/LVGL/GUI/lvgl/src/widgets/../core/lv_obj_style_gen.h **** 
 403:Middlewares/LVGL/GUI/lvgl/src/widgets/../core/lv_obj_style_gen.h **** static inline bool lv_obj_get_style_arc_rounded(const struct _lv_obj_t * obj, uint32_t part)
 404:Middlewares/LVGL/GUI/lvgl/src/widgets/../core/lv_obj_style_gen.h **** {
 405:Middlewares/LVGL/GUI/lvgl/src/widgets/../core/lv_obj_style_gen.h ****     lv_style_value_t v = lv_obj_get_style_prop(obj, part, LV_STYLE_ARC_ROUNDED);
 406:Middlewares/LVGL/GUI/lvgl/src/widgets/../core/lv_obj_style_gen.h ****     return (bool)v.num;
 407:Middlewares/LVGL/GUI/lvgl/src/widgets/../core/lv_obj_style_gen.h **** }
 408:Middlewares/LVGL/GUI/lvgl/src/widgets/../core/lv_obj_style_gen.h **** 
 409:Middlewares/LVGL/GUI/lvgl/src/widgets/../core/lv_obj_style_gen.h **** static inline lv_color_t lv_obj_get_style_arc_color(const struct _lv_obj_t * obj, uint32_t part)
 410:Middlewares/LVGL/GUI/lvgl/src/widgets/../core/lv_obj_style_gen.h **** {
 411:Middlewares/LVGL/GUI/lvgl/src/widgets/../core/lv_obj_style_gen.h ****     lv_style_value_t v = lv_obj_get_style_prop(obj, part, LV_STYLE_ARC_COLOR);
 412:Middlewares/LVGL/GUI/lvgl/src/widgets/../core/lv_obj_style_gen.h ****     return v.color;
 413:Middlewares/LVGL/GUI/lvgl/src/widgets/../core/lv_obj_style_gen.h **** }
 414:Middlewares/LVGL/GUI/lvgl/src/widgets/../core/lv_obj_style_gen.h **** 
 415:Middlewares/LVGL/GUI/lvgl/src/widgets/../core/lv_obj_style_gen.h **** static inline lv_color_t lv_obj_get_style_arc_color_filtered(const struct _lv_obj_t * obj, uint32_t
 416:Middlewares/LVGL/GUI/lvgl/src/widgets/../core/lv_obj_style_gen.h **** {
 417:Middlewares/LVGL/GUI/lvgl/src/widgets/../core/lv_obj_style_gen.h ****     lv_style_value_t v = lv_obj_get_style_prop(obj, part, LV_STYLE_ARC_COLOR_FILTERED);
 418:Middlewares/LVGL/GUI/lvgl/src/widgets/../core/lv_obj_style_gen.h ****     return v.color;
 419:Middlewares/LVGL/GUI/lvgl/src/widgets/../core/lv_obj_style_gen.h **** }
 420:Middlewares/LVGL/GUI/lvgl/src/widgets/../core/lv_obj_style_gen.h **** 
 421:Middlewares/LVGL/GUI/lvgl/src/widgets/../core/lv_obj_style_gen.h **** static inline lv_opa_t lv_obj_get_style_arc_opa(const struct _lv_obj_t * obj, uint32_t part)
 422:Middlewares/LVGL/GUI/lvgl/src/widgets/../core/lv_obj_style_gen.h **** {
 423:Middlewares/LVGL/GUI/lvgl/src/widgets/../core/lv_obj_style_gen.h ****     lv_style_value_t v = lv_obj_get_style_prop(obj, part, LV_STYLE_ARC_OPA);
 424:Middlewares/LVGL/GUI/lvgl/src/widgets/../core/lv_obj_style_gen.h ****     return (lv_opa_t)v.num;
 425:Middlewares/LVGL/GUI/lvgl/src/widgets/../core/lv_obj_style_gen.h **** }
 426:Middlewares/LVGL/GUI/lvgl/src/widgets/../core/lv_obj_style_gen.h **** 
 427:Middlewares/LVGL/GUI/lvgl/src/widgets/../core/lv_obj_style_gen.h **** static inline const void * lv_obj_get_style_arc_img_src(const struct _lv_obj_t * obj, uint32_t part
 428:Middlewares/LVGL/GUI/lvgl/src/widgets/../core/lv_obj_style_gen.h **** {
 429:Middlewares/LVGL/GUI/lvgl/src/widgets/../core/lv_obj_style_gen.h ****     lv_style_value_t v = lv_obj_get_style_prop(obj, part, LV_STYLE_ARC_IMG_SRC);
 430:Middlewares/LVGL/GUI/lvgl/src/widgets/../core/lv_obj_style_gen.h ****     return (const void *)v.ptr;
 431:Middlewares/LVGL/GUI/lvgl/src/widgets/../core/lv_obj_style_gen.h **** }
 432:Middlewares/LVGL/GUI/lvgl/src/widgets/../core/lv_obj_style_gen.h **** 
 433:Middlewares/LVGL/GUI/lvgl/src/widgets/../core/lv_obj_style_gen.h **** static inline lv_color_t lv_obj_get_style_text_color(const struct _lv_obj_t * obj, uint32_t part)
 434:Middlewares/LVGL/GUI/lvgl/src/widgets/../core/lv_obj_style_gen.h **** {
 435:Middlewares/LVGL/GUI/lvgl/src/widgets/../core/lv_obj_style_gen.h ****     lv_style_value_t v = lv_obj_get_style_prop(obj, part, LV_STYLE_TEXT_COLOR);
 436:Middlewares/LVGL/GUI/lvgl/src/widgets/../core/lv_obj_style_gen.h ****     return v.color;
 437:Middlewares/LVGL/GUI/lvgl/src/widgets/../core/lv_obj_style_gen.h **** }
 438:Middlewares/LVGL/GUI/lvgl/src/widgets/../core/lv_obj_style_gen.h **** 
 439:Middlewares/LVGL/GUI/lvgl/src/widgets/../core/lv_obj_style_gen.h **** static inline lv_color_t lv_obj_get_style_text_color_filtered(const struct _lv_obj_t * obj, uint32_
 440:Middlewares/LVGL/GUI/lvgl/src/widgets/../core/lv_obj_style_gen.h **** {
 441:Middlewares/LVGL/GUI/lvgl/src/widgets/../core/lv_obj_style_gen.h ****     lv_style_value_t v = lv_obj_get_style_prop(obj, part, LV_STYLE_TEXT_COLOR_FILTERED);
 442:Middlewares/LVGL/GUI/lvgl/src/widgets/../core/lv_obj_style_gen.h ****     return v.color;
 443:Middlewares/LVGL/GUI/lvgl/src/widgets/../core/lv_obj_style_gen.h **** }
 444:Middlewares/LVGL/GUI/lvgl/src/widgets/../core/lv_obj_style_gen.h **** 
 445:Middlewares/LVGL/GUI/lvgl/src/widgets/../core/lv_obj_style_gen.h **** static inline lv_opa_t lv_obj_get_style_text_opa(const struct _lv_obj_t * obj, uint32_t part)
 446:Middlewares/LVGL/GUI/lvgl/src/widgets/../core/lv_obj_style_gen.h **** {
 447:Middlewares/LVGL/GUI/lvgl/src/widgets/../core/lv_obj_style_gen.h ****     lv_style_value_t v = lv_obj_get_style_prop(obj, part, LV_STYLE_TEXT_OPA);
ARM GAS  C:\Users\ADMINI~1\AppData\Local\Temp\cchwJBFL.s 			page 25


 448:Middlewares/LVGL/GUI/lvgl/src/widgets/../core/lv_obj_style_gen.h ****     return (lv_opa_t)v.num;
 449:Middlewares/LVGL/GUI/lvgl/src/widgets/../core/lv_obj_style_gen.h **** }
 450:Middlewares/LVGL/GUI/lvgl/src/widgets/../core/lv_obj_style_gen.h **** 
 451:Middlewares/LVGL/GUI/lvgl/src/widgets/../core/lv_obj_style_gen.h **** static inline const lv_font_t * lv_obj_get_style_text_font(const struct _lv_obj_t * obj, uint32_t p
 452:Middlewares/LVGL/GUI/lvgl/src/widgets/../core/lv_obj_style_gen.h **** {
 453:Middlewares/LVGL/GUI/lvgl/src/widgets/../core/lv_obj_style_gen.h ****     lv_style_value_t v = lv_obj_get_style_prop(obj, part, LV_STYLE_TEXT_FONT);
 454:Middlewares/LVGL/GUI/lvgl/src/widgets/../core/lv_obj_style_gen.h ****     return (const lv_font_t *)v.ptr;
 455:Middlewares/LVGL/GUI/lvgl/src/widgets/../core/lv_obj_style_gen.h **** }
 456:Middlewares/LVGL/GUI/lvgl/src/widgets/../core/lv_obj_style_gen.h **** 
 457:Middlewares/LVGL/GUI/lvgl/src/widgets/../core/lv_obj_style_gen.h **** static inline lv_coord_t lv_obj_get_style_text_letter_space(const struct _lv_obj_t * obj, uint32_t 
 458:Middlewares/LVGL/GUI/lvgl/src/widgets/../core/lv_obj_style_gen.h **** {
 459:Middlewares/LVGL/GUI/lvgl/src/widgets/../core/lv_obj_style_gen.h ****     lv_style_value_t v = lv_obj_get_style_prop(obj, part, LV_STYLE_TEXT_LETTER_SPACE);
 460:Middlewares/LVGL/GUI/lvgl/src/widgets/../core/lv_obj_style_gen.h ****     return (lv_coord_t)v.num;
 461:Middlewares/LVGL/GUI/lvgl/src/widgets/../core/lv_obj_style_gen.h **** }
 462:Middlewares/LVGL/GUI/lvgl/src/widgets/../core/lv_obj_style_gen.h **** 
 463:Middlewares/LVGL/GUI/lvgl/src/widgets/../core/lv_obj_style_gen.h **** static inline lv_coord_t lv_obj_get_style_text_line_space(const struct _lv_obj_t * obj, uint32_t pa
 464:Middlewares/LVGL/GUI/lvgl/src/widgets/../core/lv_obj_style_gen.h **** {
 465:Middlewares/LVGL/GUI/lvgl/src/widgets/../core/lv_obj_style_gen.h ****     lv_style_value_t v = lv_obj_get_style_prop(obj, part, LV_STYLE_TEXT_LINE_SPACE);
 466:Middlewares/LVGL/GUI/lvgl/src/widgets/../core/lv_obj_style_gen.h ****     return (lv_coord_t)v.num;
 467:Middlewares/LVGL/GUI/lvgl/src/widgets/../core/lv_obj_style_gen.h **** }
 468:Middlewares/LVGL/GUI/lvgl/src/widgets/../core/lv_obj_style_gen.h **** 
 469:Middlewares/LVGL/GUI/lvgl/src/widgets/../core/lv_obj_style_gen.h **** static inline lv_text_decor_t lv_obj_get_style_text_decor(const struct _lv_obj_t * obj, uint32_t pa
 470:Middlewares/LVGL/GUI/lvgl/src/widgets/../core/lv_obj_style_gen.h **** {
 471:Middlewares/LVGL/GUI/lvgl/src/widgets/../core/lv_obj_style_gen.h ****     lv_style_value_t v = lv_obj_get_style_prop(obj, part, LV_STYLE_TEXT_DECOR);
 472:Middlewares/LVGL/GUI/lvgl/src/widgets/../core/lv_obj_style_gen.h ****     return (lv_text_decor_t)v.num;
 473:Middlewares/LVGL/GUI/lvgl/src/widgets/../core/lv_obj_style_gen.h **** }
 474:Middlewares/LVGL/GUI/lvgl/src/widgets/../core/lv_obj_style_gen.h **** 
 475:Middlewares/LVGL/GUI/lvgl/src/widgets/../core/lv_obj_style_gen.h **** static inline lv_text_align_t lv_obj_get_style_text_align(const struct _lv_obj_t * obj, uint32_t pa
 476:Middlewares/LVGL/GUI/lvgl/src/widgets/../core/lv_obj_style_gen.h **** {
 477:Middlewares/LVGL/GUI/lvgl/src/widgets/../core/lv_obj_style_gen.h ****     lv_style_value_t v = lv_obj_get_style_prop(obj, part, LV_STYLE_TEXT_ALIGN);
 478:Middlewares/LVGL/GUI/lvgl/src/widgets/../core/lv_obj_style_gen.h ****     return (lv_text_align_t)v.num;
 479:Middlewares/LVGL/GUI/lvgl/src/widgets/../core/lv_obj_style_gen.h **** }
 480:Middlewares/LVGL/GUI/lvgl/src/widgets/../core/lv_obj_style_gen.h **** 
 481:Middlewares/LVGL/GUI/lvgl/src/widgets/../core/lv_obj_style_gen.h **** static inline lv_coord_t lv_obj_get_style_radius(const struct _lv_obj_t * obj, uint32_t part)
 482:Middlewares/LVGL/GUI/lvgl/src/widgets/../core/lv_obj_style_gen.h **** {
 483:Middlewares/LVGL/GUI/lvgl/src/widgets/../core/lv_obj_style_gen.h ****     lv_style_value_t v = lv_obj_get_style_prop(obj, part, LV_STYLE_RADIUS);
 484:Middlewares/LVGL/GUI/lvgl/src/widgets/../core/lv_obj_style_gen.h ****     return (lv_coord_t)v.num;
 485:Middlewares/LVGL/GUI/lvgl/src/widgets/../core/lv_obj_style_gen.h **** }
 486:Middlewares/LVGL/GUI/lvgl/src/widgets/../core/lv_obj_style_gen.h **** 
 487:Middlewares/LVGL/GUI/lvgl/src/widgets/../core/lv_obj_style_gen.h **** static inline bool lv_obj_get_style_clip_corner(const struct _lv_obj_t * obj, uint32_t part)
 488:Middlewares/LVGL/GUI/lvgl/src/widgets/../core/lv_obj_style_gen.h **** {
 489:Middlewares/LVGL/GUI/lvgl/src/widgets/../core/lv_obj_style_gen.h ****     lv_style_value_t v = lv_obj_get_style_prop(obj, part, LV_STYLE_CLIP_CORNER);
 490:Middlewares/LVGL/GUI/lvgl/src/widgets/../core/lv_obj_style_gen.h ****     return (bool)v.num;
 491:Middlewares/LVGL/GUI/lvgl/src/widgets/../core/lv_obj_style_gen.h **** }
 492:Middlewares/LVGL/GUI/lvgl/src/widgets/../core/lv_obj_style_gen.h **** 
 493:Middlewares/LVGL/GUI/lvgl/src/widgets/../core/lv_obj_style_gen.h **** static inline lv_opa_t lv_obj_get_style_opa(const struct _lv_obj_t * obj, uint32_t part)
 494:Middlewares/LVGL/GUI/lvgl/src/widgets/../core/lv_obj_style_gen.h **** {
 495:Middlewares/LVGL/GUI/lvgl/src/widgets/../core/lv_obj_style_gen.h ****     lv_style_value_t v = lv_obj_get_style_prop(obj, part, LV_STYLE_OPA);
 496:Middlewares/LVGL/GUI/lvgl/src/widgets/../core/lv_obj_style_gen.h ****     return (lv_opa_t)v.num;
 497:Middlewares/LVGL/GUI/lvgl/src/widgets/../core/lv_obj_style_gen.h **** }
 498:Middlewares/LVGL/GUI/lvgl/src/widgets/../core/lv_obj_style_gen.h **** 
 499:Middlewares/LVGL/GUI/lvgl/src/widgets/../core/lv_obj_style_gen.h **** static inline const lv_color_filter_dsc_t * lv_obj_get_style_color_filter_dsc(const struct _lv_obj_
 500:Middlewares/LVGL/GUI/lvgl/src/widgets/../core/lv_obj_style_gen.h ****                                                                               uint32_t part)
 501:Middlewares/LVGL/GUI/lvgl/src/widgets/../core/lv_obj_style_gen.h **** {
 502:Middlewares/LVGL/GUI/lvgl/src/widgets/../core/lv_obj_style_gen.h ****     lv_style_value_t v = lv_obj_get_style_prop(obj, part, LV_STYLE_COLOR_FILTER_DSC);
 503:Middlewares/LVGL/GUI/lvgl/src/widgets/../core/lv_obj_style_gen.h ****     return (const lv_color_filter_dsc_t *)v.ptr;
 504:Middlewares/LVGL/GUI/lvgl/src/widgets/../core/lv_obj_style_gen.h **** }
ARM GAS  C:\Users\ADMINI~1\AppData\Local\Temp\cchwJBFL.s 			page 26


 505:Middlewares/LVGL/GUI/lvgl/src/widgets/../core/lv_obj_style_gen.h **** 
 506:Middlewares/LVGL/GUI/lvgl/src/widgets/../core/lv_obj_style_gen.h **** static inline lv_opa_t lv_obj_get_style_color_filter_opa(const struct _lv_obj_t * obj, uint32_t par
 507:Middlewares/LVGL/GUI/lvgl/src/widgets/../core/lv_obj_style_gen.h **** {
 508:Middlewares/LVGL/GUI/lvgl/src/widgets/../core/lv_obj_style_gen.h ****     lv_style_value_t v = lv_obj_get_style_prop(obj, part, LV_STYLE_COLOR_FILTER_OPA);
 509:Middlewares/LVGL/GUI/lvgl/src/widgets/../core/lv_obj_style_gen.h ****     return (lv_opa_t)v.num;
 510:Middlewares/LVGL/GUI/lvgl/src/widgets/../core/lv_obj_style_gen.h **** }
 511:Middlewares/LVGL/GUI/lvgl/src/widgets/../core/lv_obj_style_gen.h **** 
 512:Middlewares/LVGL/GUI/lvgl/src/widgets/../core/lv_obj_style_gen.h **** static inline uint32_t lv_obj_get_style_anim_time(const struct _lv_obj_t * obj, uint32_t part)
 513:Middlewares/LVGL/GUI/lvgl/src/widgets/../core/lv_obj_style_gen.h **** {
 514:Middlewares/LVGL/GUI/lvgl/src/widgets/../core/lv_obj_style_gen.h ****     lv_style_value_t v = lv_obj_get_style_prop(obj, part, LV_STYLE_ANIM_TIME);
 515:Middlewares/LVGL/GUI/lvgl/src/widgets/../core/lv_obj_style_gen.h ****     return (uint32_t)v.num;
 516:Middlewares/LVGL/GUI/lvgl/src/widgets/../core/lv_obj_style_gen.h **** }
 517:Middlewares/LVGL/GUI/lvgl/src/widgets/../core/lv_obj_style_gen.h **** 
 518:Middlewares/LVGL/GUI/lvgl/src/widgets/../core/lv_obj_style_gen.h **** static inline uint32_t lv_obj_get_style_anim_speed(const struct _lv_obj_t * obj, uint32_t part)
 519:Middlewares/LVGL/GUI/lvgl/src/widgets/../core/lv_obj_style_gen.h **** {
 520:Middlewares/LVGL/GUI/lvgl/src/widgets/../core/lv_obj_style_gen.h ****     lv_style_value_t v = lv_obj_get_style_prop(obj, part, LV_STYLE_ANIM_SPEED);
 521:Middlewares/LVGL/GUI/lvgl/src/widgets/../core/lv_obj_style_gen.h ****     return (uint32_t)v.num;
 522:Middlewares/LVGL/GUI/lvgl/src/widgets/../core/lv_obj_style_gen.h **** }
 523:Middlewares/LVGL/GUI/lvgl/src/widgets/../core/lv_obj_style_gen.h **** 
 524:Middlewares/LVGL/GUI/lvgl/src/widgets/../core/lv_obj_style_gen.h **** static inline const lv_style_transition_dsc_t * lv_obj_get_style_transition(const struct _lv_obj_t 
 525:Middlewares/LVGL/GUI/lvgl/src/widgets/../core/lv_obj_style_gen.h **** {
 526:Middlewares/LVGL/GUI/lvgl/src/widgets/../core/lv_obj_style_gen.h ****     lv_style_value_t v = lv_obj_get_style_prop(obj, part, LV_STYLE_TRANSITION);
 527:Middlewares/LVGL/GUI/lvgl/src/widgets/../core/lv_obj_style_gen.h ****     return (const lv_style_transition_dsc_t *)v.ptr;
 528:Middlewares/LVGL/GUI/lvgl/src/widgets/../core/lv_obj_style_gen.h **** }
 529:Middlewares/LVGL/GUI/lvgl/src/widgets/../core/lv_obj_style_gen.h **** 
 530:Middlewares/LVGL/GUI/lvgl/src/widgets/../core/lv_obj_style_gen.h **** static inline lv_blend_mode_t lv_obj_get_style_blend_mode(const struct _lv_obj_t * obj, uint32_t pa
 531:Middlewares/LVGL/GUI/lvgl/src/widgets/../core/lv_obj_style_gen.h **** {
 532:Middlewares/LVGL/GUI/lvgl/src/widgets/../core/lv_obj_style_gen.h ****     lv_style_value_t v = lv_obj_get_style_prop(obj, part, LV_STYLE_BLEND_MODE);
 533:Middlewares/LVGL/GUI/lvgl/src/widgets/../core/lv_obj_style_gen.h ****     return (lv_blend_mode_t)v.num;
 534:Middlewares/LVGL/GUI/lvgl/src/widgets/../core/lv_obj_style_gen.h **** }
 535:Middlewares/LVGL/GUI/lvgl/src/widgets/../core/lv_obj_style_gen.h **** 
 536:Middlewares/LVGL/GUI/lvgl/src/widgets/../core/lv_obj_style_gen.h **** static inline uint16_t lv_obj_get_style_layout(const struct _lv_obj_t * obj, uint32_t part)
 537:Middlewares/LVGL/GUI/lvgl/src/widgets/../core/lv_obj_style_gen.h **** {
 538:Middlewares/LVGL/GUI/lvgl/src/widgets/../core/lv_obj_style_gen.h ****     lv_style_value_t v = lv_obj_get_style_prop(obj, part, LV_STYLE_LAYOUT);
 539:Middlewares/LVGL/GUI/lvgl/src/widgets/../core/lv_obj_style_gen.h ****     return (uint16_t)v.num;
 540:Middlewares/LVGL/GUI/lvgl/src/widgets/../core/lv_obj_style_gen.h **** }
 541:Middlewares/LVGL/GUI/lvgl/src/widgets/../core/lv_obj_style_gen.h **** 
 542:Middlewares/LVGL/GUI/lvgl/src/widgets/../core/lv_obj_style_gen.h **** static inline lv_base_dir_t lv_obj_get_style_base_dir(const struct _lv_obj_t * obj, uint32_t part)
 405              		.loc 2 542 29 view .LVU118
 406              	.LBB99:
 543:Middlewares/LVGL/GUI/lvgl/src/widgets/../core/lv_obj_style_gen.h **** {
 544:Middlewares/LVGL/GUI/lvgl/src/widgets/../core/lv_obj_style_gen.h ****     lv_style_value_t v = lv_obj_get_style_prop(obj, part, LV_STYLE_BASE_DIR);
 407              		.loc 2 544 5 view .LVU119
 408              		.loc 2 544 26 is_stmt 0 view .LVU120
 409 0016 41F26A42 		movw	r2, #5226
 410 001a 0021     		movs	r1, #0
 411 001c 2046     		mov	r0, r4
 412              	.LVL45:
 413              		.loc 2 544 26 view .LVU121
 414 001e FFF7FEFF 		bl	lv_obj_get_style_prop
 415              	.LVL46:
 545:Middlewares/LVGL/GUI/lvgl/src/widgets/../core/lv_obj_style_gen.h ****     return (lv_base_dir_t)v.num;
 416              		.loc 2 545 5 is_stmt 1 view .LVU122
 417              		.loc 2 545 12 is_stmt 0 view .LVU123
 418 0022 5FFA80F9 		uxtb	r9, r0
 419              	.LVL47:
 420              		.loc 2 545 12 view .LVU124
ARM GAS  C:\Users\ADMINI~1\AppData\Local\Temp\cchwJBFL.s 			page 27


 421              	.LBE99:
 422              	.LBE98:
 335:Middlewares/LVGL/GUI/lvgl/src/widgets/lv_slider.c ****     lv_coord_t objh = lv_obj_get_height(obj);
 423              		.loc 1 335 5 is_stmt 1 view .LVU125
 335:Middlewares/LVGL/GUI/lvgl/src/widgets/lv_slider.c ****     lv_coord_t objh = lv_obj_get_height(obj);
 424              		.loc 1 335 23 is_stmt 0 view .LVU126
 425 0026 2046     		mov	r0, r4
 426 0028 FFF7FEFF 		bl	lv_obj_get_width
 427              	.LVL48:
 428 002c 0646     		mov	r6, r0
 429              	.LVL49:
 336:Middlewares/LVGL/GUI/lvgl/src/widgets/lv_slider.c ****     bool hor = objw >= objh ? true : false;
 430              		.loc 1 336 5 is_stmt 1 view .LVU127
 336:Middlewares/LVGL/GUI/lvgl/src/widgets/lv_slider.c ****     bool hor = objw >= objh ? true : false;
 431              		.loc 1 336 23 is_stmt 0 view .LVU128
 432 002e 2046     		mov	r0, r4
 433              	.LVL50:
 336:Middlewares/LVGL/GUI/lvgl/src/widgets/lv_slider.c ****     bool hor = objw >= objh ? true : false;
 434              		.loc 1 336 23 view .LVU129
 435 0030 FFF7FEFF 		bl	lv_obj_get_height
 436              	.LVL51:
 437 0034 0546     		mov	r5, r0
 438              	.LVL52:
 337:Middlewares/LVGL/GUI/lvgl/src/widgets/lv_slider.c ****     lv_coord_t knob_size = hor ? objh : objw;
 439              		.loc 1 337 5 is_stmt 1 view .LVU130
 337:Middlewares/LVGL/GUI/lvgl/src/widgets/lv_slider.c ****     lv_coord_t knob_size = hor ? objh : objw;
 440              		.loc 1 337 10 is_stmt 0 view .LVU131
 441 0036 8642     		cmp	r6, r0
 442 0038 ACBF     		ite	ge
 443 003a 4FF0010B 		movge	fp, #1
 444 003e 4FF0000B 		movlt	fp, #0
 445              	.LVL53:
 338:Middlewares/LVGL/GUI/lvgl/src/widgets/lv_slider.c ****     bool sym = false;
 446              		.loc 1 338 5 is_stmt 1 view .LVU132
 338:Middlewares/LVGL/GUI/lvgl/src/widgets/lv_slider.c ****     bool sym = false;
 447              		.loc 1 338 39 is_stmt 0 view .LVU133
 448 0042 5EDB     		blt	.L42
 449 0044 0190     		str	r0, [sp, #4]
 450              	.L13:
 451              	.LVL54:
 339:Middlewares/LVGL/GUI/lvgl/src/widgets/lv_slider.c ****     if(slider->bar.mode == LV_BAR_MODE_SYMMETRICAL && slider->bar.min_value < 0 && slider->bar.max_
 452              		.loc 1 339 5 is_stmt 1 discriminator 4 view .LVU134
 340:Middlewares/LVGL/GUI/lvgl/src/widgets/lv_slider.c **** 
 453              		.loc 1 340 5 discriminator 4 view .LVU135
 340:Middlewares/LVGL/GUI/lvgl/src/widgets/lv_slider.c **** 
 454              		.loc 1 340 25 is_stmt 0 discriminator 4 view .LVU136
 455 0046 94F86C30 		ldrb	r3, [r4, #108]	@ zero_extendqisi2
 456 004a 03F00303 		and	r3, r3, #3
 340:Middlewares/LVGL/GUI/lvgl/src/widgets/lv_slider.c **** 
 457              		.loc 1 340 7 discriminator 4 view .LVU137
 458 004e 012B     		cmp	r3, #1
 459 0050 59D0     		beq	.L48
 339:Middlewares/LVGL/GUI/lvgl/src/widgets/lv_slider.c ****     if(slider->bar.mode == LV_BAR_MODE_SYMMETRICAL && slider->bar.min_value < 0 && slider->bar.max_
 460              		.loc 1 339 10 view .LVU138
 461 0052 0023     		movs	r3, #0
 462              	.L14:
 463              	.LVL55:
ARM GAS  C:\Users\ADMINI~1\AppData\Local\Temp\cchwJBFL.s 			page 28


 342:Middlewares/LVGL/GUI/lvgl/src/widgets/lv_slider.c **** 
 464              		.loc 1 342 5 is_stmt 1 view .LVU139
 345:Middlewares/LVGL/GUI/lvgl/src/widgets/lv_slider.c ****         if(!sym) {
 465              		.loc 1 345 5 view .LVU140
 345:Middlewares/LVGL/GUI/lvgl/src/widgets/lv_slider.c ****         if(!sym) {
 466              		.loc 1 345 7 is_stmt 0 view .LVU141
 467 0054 AE42     		cmp	r6, r5
 468 0056 C0F29080 		blt	.L15
 346:Middlewares/LVGL/GUI/lvgl/src/widgets/lv_slider.c ****             knob_area.x1 = LV_SLIDER_KNOB_COORD(hor, base_dir == LV_BASE_DIR_RTL, slider->bar.indic
 469              		.loc 1 346 9 is_stmt 1 view .LVU142
 346:Middlewares/LVGL/GUI/lvgl/src/widgets/lv_slider.c ****             knob_area.x1 = LV_SLIDER_KNOB_COORD(hor, base_dir == LV_BASE_DIR_RTL, slider->bar.indic
 470              		.loc 1 346 11 is_stmt 0 view .LVU143
 471 005a 002B     		cmp	r3, #0
 472 005c 68D1     		bne	.L16
 347:Middlewares/LVGL/GUI/lvgl/src/widgets/lv_slider.c ****         }
 473              		.loc 1 347 13 is_stmt 1 view .LVU144
 347:Middlewares/LVGL/GUI/lvgl/src/widgets/lv_slider.c ****         }
 474              		.loc 1 347 28 is_stmt 0 view .LVU145
 475 005e AE42     		cmp	r6, r5
 476 0060 5FDB     		blt	.L17
 347:Middlewares/LVGL/GUI/lvgl/src/widgets/lv_slider.c ****         }
 477              		.loc 1 347 28 discriminator 1 view .LVU146
 478 0062 B9F1010F 		cmp	r9, #1
 479 0066 5AD0     		beq	.L49
 347:Middlewares/LVGL/GUI/lvgl/src/widgets/lv_slider.c ****         }
 480              		.loc 1 347 28 discriminator 4 view .LVU147
 481 0068 636C     		ldr	r3, [r4, #68]
 482              	.LVL56:
 483              	.L19:
 347:Middlewares/LVGL/GUI/lvgl/src/widgets/lv_slider.c ****         }
 484              		.loc 1 347 26 discriminator 12 view .LVU148
 485 006a 3893     		str	r3, [sp, #224]
 486              	.L21:
 373:Middlewares/LVGL/GUI/lvgl/src/widgets/lv_slider.c ****     lv_draw_rect_dsc_init(&knob_rect_dsc);
 487              		.loc 1 373 5 is_stmt 1 view .LVU149
 374:Middlewares/LVGL/GUI/lvgl/src/widgets/lv_slider.c ****     lv_obj_init_draw_rect_dsc(obj, LV_PART_KNOB, &knob_rect_dsc);
 488              		.loc 1 374 5 view .LVU150
 489 006c 0DF19808 		add	r8, sp, #152
 490 0070 4046     		mov	r0, r8
 491              	.LVL57:
 374:Middlewares/LVGL/GUI/lvgl/src/widgets/lv_slider.c ****     lv_obj_init_draw_rect_dsc(obj, LV_PART_KNOB, &knob_rect_dsc);
 492              		.loc 1 374 5 is_stmt 0 view .LVU151
 493 0072 FFF7FEFF 		bl	lv_draw_rect_dsc_init
 494              	.LVL58:
 375:Middlewares/LVGL/GUI/lvgl/src/widgets/lv_slider.c **** 
 495              		.loc 1 375 5 is_stmt 1 view .LVU152
 496 0076 4246     		mov	r2, r8
 497 0078 4FF44031 		mov	r1, #196608
 498 007c 2046     		mov	r0, r4
 499 007e FFF7FEFF 		bl	lv_obj_init_draw_rect_dsc
 500              	.LVL59:
 377:Middlewares/LVGL/GUI/lvgl/src/widgets/lv_slider.c ****     lv_area_copy(&slider->right_knob_area, &knob_area);
 501              		.loc 1 377 5 view .LVU153
 502 0082 5B46     		mov	r3, fp
 503 0084 019A     		ldr	r2, [sp, #4]
 504 0086 38A9     		add	r1, sp, #224
 505 0088 2046     		mov	r0, r4
ARM GAS  C:\Users\ADMINI~1\AppData\Local\Temp\cchwJBFL.s 			page 29


 506 008a FFF7FEFF 		bl	position_knob
 507              	.LVL60:
 378:Middlewares/LVGL/GUI/lvgl/src/widgets/lv_slider.c **** 
 508              		.loc 1 378 5 view .LVU154
 509 008e 04F1800A 		add	r10, r4, #128
 510              	.LVL61:
 511              	.LBB100:
 512              	.LBI100:
 513              		.file 3 "Middlewares/LVGL/GUI/lvgl/src/widgets/../core/../misc/../font/../misc/lv_area.h"
   1:Middlewares/LVGL/GUI/lvgl/src/widgets/../core/../misc/../font/../misc/lv_area.h **** /**
   2:Middlewares/LVGL/GUI/lvgl/src/widgets/../core/../misc/../font/../misc/lv_area.h ****  * @file lv_area.h
   3:Middlewares/LVGL/GUI/lvgl/src/widgets/../core/../misc/../font/../misc/lv_area.h ****  *
   4:Middlewares/LVGL/GUI/lvgl/src/widgets/../core/../misc/../font/../misc/lv_area.h ****  */
   5:Middlewares/LVGL/GUI/lvgl/src/widgets/../core/../misc/../font/../misc/lv_area.h **** 
   6:Middlewares/LVGL/GUI/lvgl/src/widgets/../core/../misc/../font/../misc/lv_area.h **** #ifndef LV_AREA_H
   7:Middlewares/LVGL/GUI/lvgl/src/widgets/../core/../misc/../font/../misc/lv_area.h **** #define LV_AREA_H
   8:Middlewares/LVGL/GUI/lvgl/src/widgets/../core/../misc/../font/../misc/lv_area.h **** 
   9:Middlewares/LVGL/GUI/lvgl/src/widgets/../core/../misc/../font/../misc/lv_area.h **** #ifdef __cplusplus
  10:Middlewares/LVGL/GUI/lvgl/src/widgets/../core/../misc/../font/../misc/lv_area.h **** extern "C" {
  11:Middlewares/LVGL/GUI/lvgl/src/widgets/../core/../misc/../font/../misc/lv_area.h **** #endif
  12:Middlewares/LVGL/GUI/lvgl/src/widgets/../core/../misc/../font/../misc/lv_area.h **** 
  13:Middlewares/LVGL/GUI/lvgl/src/widgets/../core/../misc/../font/../misc/lv_area.h **** /*********************
  14:Middlewares/LVGL/GUI/lvgl/src/widgets/../core/../misc/../font/../misc/lv_area.h ****  *      INCLUDES
  15:Middlewares/LVGL/GUI/lvgl/src/widgets/../core/../misc/../font/../misc/lv_area.h ****  *********************/
  16:Middlewares/LVGL/GUI/lvgl/src/widgets/../core/../misc/../font/../misc/lv_area.h **** #include "../lv_conf_internal.h"
  17:Middlewares/LVGL/GUI/lvgl/src/widgets/../core/../misc/../font/../misc/lv_area.h **** #include <stdbool.h>
  18:Middlewares/LVGL/GUI/lvgl/src/widgets/../core/../misc/../font/../misc/lv_area.h **** #include <stdint.h>
  19:Middlewares/LVGL/GUI/lvgl/src/widgets/../core/../misc/../font/../misc/lv_area.h **** 
  20:Middlewares/LVGL/GUI/lvgl/src/widgets/../core/../misc/../font/../misc/lv_area.h **** /*********************
  21:Middlewares/LVGL/GUI/lvgl/src/widgets/../core/../misc/../font/../misc/lv_area.h ****  *      DEFINES
  22:Middlewares/LVGL/GUI/lvgl/src/widgets/../core/../misc/../font/../misc/lv_area.h ****  *********************/
  23:Middlewares/LVGL/GUI/lvgl/src/widgets/../core/../misc/../font/../misc/lv_area.h **** 
  24:Middlewares/LVGL/GUI/lvgl/src/widgets/../core/../misc/../font/../misc/lv_area.h **** #if LV_USE_LARGE_COORD
  25:Middlewares/LVGL/GUI/lvgl/src/widgets/../core/../misc/../font/../misc/lv_area.h **** typedef int32_t lv_coord_t;
  26:Middlewares/LVGL/GUI/lvgl/src/widgets/../core/../misc/../font/../misc/lv_area.h **** #else
  27:Middlewares/LVGL/GUI/lvgl/src/widgets/../core/../misc/../font/../misc/lv_area.h **** typedef int16_t lv_coord_t;
  28:Middlewares/LVGL/GUI/lvgl/src/widgets/../core/../misc/../font/../misc/lv_area.h **** #endif
  29:Middlewares/LVGL/GUI/lvgl/src/widgets/../core/../misc/../font/../misc/lv_area.h **** 
  30:Middlewares/LVGL/GUI/lvgl/src/widgets/../core/../misc/../font/../misc/lv_area.h **** /**********************
  31:Middlewares/LVGL/GUI/lvgl/src/widgets/../core/../misc/../font/../misc/lv_area.h ****  *      TYPEDEFS
  32:Middlewares/LVGL/GUI/lvgl/src/widgets/../core/../misc/../font/../misc/lv_area.h ****  **********************/
  33:Middlewares/LVGL/GUI/lvgl/src/widgets/../core/../misc/../font/../misc/lv_area.h **** 
  34:Middlewares/LVGL/GUI/lvgl/src/widgets/../core/../misc/../font/../misc/lv_area.h **** /**
  35:Middlewares/LVGL/GUI/lvgl/src/widgets/../core/../misc/../font/../misc/lv_area.h ****  * Represents a point on the screen.
  36:Middlewares/LVGL/GUI/lvgl/src/widgets/../core/../misc/../font/../misc/lv_area.h ****  */
  37:Middlewares/LVGL/GUI/lvgl/src/widgets/../core/../misc/../font/../misc/lv_area.h **** typedef struct {
  38:Middlewares/LVGL/GUI/lvgl/src/widgets/../core/../misc/../font/../misc/lv_area.h ****     lv_coord_t x;
  39:Middlewares/LVGL/GUI/lvgl/src/widgets/../core/../misc/../font/../misc/lv_area.h ****     lv_coord_t y;
  40:Middlewares/LVGL/GUI/lvgl/src/widgets/../core/../misc/../font/../misc/lv_area.h **** } lv_point_t;
  41:Middlewares/LVGL/GUI/lvgl/src/widgets/../core/../misc/../font/../misc/lv_area.h **** 
  42:Middlewares/LVGL/GUI/lvgl/src/widgets/../core/../misc/../font/../misc/lv_area.h **** /** Represents an area of the screen.*/
  43:Middlewares/LVGL/GUI/lvgl/src/widgets/../core/../misc/../font/../misc/lv_area.h **** typedef struct {
  44:Middlewares/LVGL/GUI/lvgl/src/widgets/../core/../misc/../font/../misc/lv_area.h ****     lv_coord_t x1;
  45:Middlewares/LVGL/GUI/lvgl/src/widgets/../core/../misc/../font/../misc/lv_area.h ****     lv_coord_t y1;
  46:Middlewares/LVGL/GUI/lvgl/src/widgets/../core/../misc/../font/../misc/lv_area.h ****     lv_coord_t x2;
  47:Middlewares/LVGL/GUI/lvgl/src/widgets/../core/../misc/../font/../misc/lv_area.h ****     lv_coord_t y2;
  48:Middlewares/LVGL/GUI/lvgl/src/widgets/../core/../misc/../font/../misc/lv_area.h **** } lv_area_t;
ARM GAS  C:\Users\ADMINI~1\AppData\Local\Temp\cchwJBFL.s 			page 30


  49:Middlewares/LVGL/GUI/lvgl/src/widgets/../core/../misc/../font/../misc/lv_area.h **** 
  50:Middlewares/LVGL/GUI/lvgl/src/widgets/../core/../misc/../font/../misc/lv_area.h **** /** Alignments*/
  51:Middlewares/LVGL/GUI/lvgl/src/widgets/../core/../misc/../font/../misc/lv_area.h **** enum {
  52:Middlewares/LVGL/GUI/lvgl/src/widgets/../core/../misc/../font/../misc/lv_area.h ****     LV_ALIGN_DEFAULT = 0,
  53:Middlewares/LVGL/GUI/lvgl/src/widgets/../core/../misc/../font/../misc/lv_area.h ****     LV_ALIGN_TOP_LEFT,
  54:Middlewares/LVGL/GUI/lvgl/src/widgets/../core/../misc/../font/../misc/lv_area.h ****     LV_ALIGN_TOP_MID,
  55:Middlewares/LVGL/GUI/lvgl/src/widgets/../core/../misc/../font/../misc/lv_area.h ****     LV_ALIGN_TOP_RIGHT,
  56:Middlewares/LVGL/GUI/lvgl/src/widgets/../core/../misc/../font/../misc/lv_area.h ****     LV_ALIGN_BOTTOM_LEFT,
  57:Middlewares/LVGL/GUI/lvgl/src/widgets/../core/../misc/../font/../misc/lv_area.h ****     LV_ALIGN_BOTTOM_MID,
  58:Middlewares/LVGL/GUI/lvgl/src/widgets/../core/../misc/../font/../misc/lv_area.h ****     LV_ALIGN_BOTTOM_RIGHT,
  59:Middlewares/LVGL/GUI/lvgl/src/widgets/../core/../misc/../font/../misc/lv_area.h ****     LV_ALIGN_LEFT_MID,
  60:Middlewares/LVGL/GUI/lvgl/src/widgets/../core/../misc/../font/../misc/lv_area.h ****     LV_ALIGN_RIGHT_MID,
  61:Middlewares/LVGL/GUI/lvgl/src/widgets/../core/../misc/../font/../misc/lv_area.h ****     LV_ALIGN_CENTER,
  62:Middlewares/LVGL/GUI/lvgl/src/widgets/../core/../misc/../font/../misc/lv_area.h **** 
  63:Middlewares/LVGL/GUI/lvgl/src/widgets/../core/../misc/../font/../misc/lv_area.h ****     LV_ALIGN_OUT_TOP_LEFT,
  64:Middlewares/LVGL/GUI/lvgl/src/widgets/../core/../misc/../font/../misc/lv_area.h ****     LV_ALIGN_OUT_TOP_MID,
  65:Middlewares/LVGL/GUI/lvgl/src/widgets/../core/../misc/../font/../misc/lv_area.h ****     LV_ALIGN_OUT_TOP_RIGHT,
  66:Middlewares/LVGL/GUI/lvgl/src/widgets/../core/../misc/../font/../misc/lv_area.h ****     LV_ALIGN_OUT_BOTTOM_LEFT,
  67:Middlewares/LVGL/GUI/lvgl/src/widgets/../core/../misc/../font/../misc/lv_area.h ****     LV_ALIGN_OUT_BOTTOM_MID,
  68:Middlewares/LVGL/GUI/lvgl/src/widgets/../core/../misc/../font/../misc/lv_area.h ****     LV_ALIGN_OUT_BOTTOM_RIGHT,
  69:Middlewares/LVGL/GUI/lvgl/src/widgets/../core/../misc/../font/../misc/lv_area.h ****     LV_ALIGN_OUT_LEFT_TOP,
  70:Middlewares/LVGL/GUI/lvgl/src/widgets/../core/../misc/../font/../misc/lv_area.h ****     LV_ALIGN_OUT_LEFT_MID,
  71:Middlewares/LVGL/GUI/lvgl/src/widgets/../core/../misc/../font/../misc/lv_area.h ****     LV_ALIGN_OUT_LEFT_BOTTOM,
  72:Middlewares/LVGL/GUI/lvgl/src/widgets/../core/../misc/../font/../misc/lv_area.h ****     LV_ALIGN_OUT_RIGHT_TOP,
  73:Middlewares/LVGL/GUI/lvgl/src/widgets/../core/../misc/../font/../misc/lv_area.h ****     LV_ALIGN_OUT_RIGHT_MID,
  74:Middlewares/LVGL/GUI/lvgl/src/widgets/../core/../misc/../font/../misc/lv_area.h ****     LV_ALIGN_OUT_RIGHT_BOTTOM,
  75:Middlewares/LVGL/GUI/lvgl/src/widgets/../core/../misc/../font/../misc/lv_area.h **** };
  76:Middlewares/LVGL/GUI/lvgl/src/widgets/../core/../misc/../font/../misc/lv_area.h **** typedef uint8_t lv_align_t;
  77:Middlewares/LVGL/GUI/lvgl/src/widgets/../core/../misc/../font/../misc/lv_area.h **** 
  78:Middlewares/LVGL/GUI/lvgl/src/widgets/../core/../misc/../font/../misc/lv_area.h **** enum {
  79:Middlewares/LVGL/GUI/lvgl/src/widgets/../core/../misc/../font/../misc/lv_area.h ****     LV_DIR_NONE     = 0x00,
  80:Middlewares/LVGL/GUI/lvgl/src/widgets/../core/../misc/../font/../misc/lv_area.h ****     LV_DIR_LEFT     = (1 << 0),
  81:Middlewares/LVGL/GUI/lvgl/src/widgets/../core/../misc/../font/../misc/lv_area.h ****     LV_DIR_RIGHT    = (1 << 1),
  82:Middlewares/LVGL/GUI/lvgl/src/widgets/../core/../misc/../font/../misc/lv_area.h ****     LV_DIR_TOP      = (1 << 2),
  83:Middlewares/LVGL/GUI/lvgl/src/widgets/../core/../misc/../font/../misc/lv_area.h ****     LV_DIR_BOTTOM   = (1 << 3),
  84:Middlewares/LVGL/GUI/lvgl/src/widgets/../core/../misc/../font/../misc/lv_area.h ****     LV_DIR_HOR      = LV_DIR_LEFT | LV_DIR_RIGHT,
  85:Middlewares/LVGL/GUI/lvgl/src/widgets/../core/../misc/../font/../misc/lv_area.h ****     LV_DIR_VER      = LV_DIR_TOP | LV_DIR_BOTTOM,
  86:Middlewares/LVGL/GUI/lvgl/src/widgets/../core/../misc/../font/../misc/lv_area.h ****     LV_DIR_ALL      = LV_DIR_HOR | LV_DIR_VER,
  87:Middlewares/LVGL/GUI/lvgl/src/widgets/../core/../misc/../font/../misc/lv_area.h **** };
  88:Middlewares/LVGL/GUI/lvgl/src/widgets/../core/../misc/../font/../misc/lv_area.h **** 
  89:Middlewares/LVGL/GUI/lvgl/src/widgets/../core/../misc/../font/../misc/lv_area.h **** typedef uint8_t lv_dir_t;
  90:Middlewares/LVGL/GUI/lvgl/src/widgets/../core/../misc/../font/../misc/lv_area.h **** 
  91:Middlewares/LVGL/GUI/lvgl/src/widgets/../core/../misc/../font/../misc/lv_area.h **** /**********************
  92:Middlewares/LVGL/GUI/lvgl/src/widgets/../core/../misc/../font/../misc/lv_area.h ****  * GLOBAL PROTOTYPES
  93:Middlewares/LVGL/GUI/lvgl/src/widgets/../core/../misc/../font/../misc/lv_area.h ****  **********************/
  94:Middlewares/LVGL/GUI/lvgl/src/widgets/../core/../misc/../font/../misc/lv_area.h **** 
  95:Middlewares/LVGL/GUI/lvgl/src/widgets/../core/../misc/../font/../misc/lv_area.h **** /**
  96:Middlewares/LVGL/GUI/lvgl/src/widgets/../core/../misc/../font/../misc/lv_area.h ****  * Initialize an area
  97:Middlewares/LVGL/GUI/lvgl/src/widgets/../core/../misc/../font/../misc/lv_area.h ****  * @param area_p pointer to an area
  98:Middlewares/LVGL/GUI/lvgl/src/widgets/../core/../misc/../font/../misc/lv_area.h ****  * @param x1 left coordinate of the area
  99:Middlewares/LVGL/GUI/lvgl/src/widgets/../core/../misc/../font/../misc/lv_area.h ****  * @param y1 top coordinate of the area
 100:Middlewares/LVGL/GUI/lvgl/src/widgets/../core/../misc/../font/../misc/lv_area.h ****  * @param x2 right coordinate of the area
 101:Middlewares/LVGL/GUI/lvgl/src/widgets/../core/../misc/../font/../misc/lv_area.h ****  * @param y2 bottom coordinate of the area
 102:Middlewares/LVGL/GUI/lvgl/src/widgets/../core/../misc/../font/../misc/lv_area.h ****  */
 103:Middlewares/LVGL/GUI/lvgl/src/widgets/../core/../misc/../font/../misc/lv_area.h **** void lv_area_set(lv_area_t * area_p, lv_coord_t x1, lv_coord_t y1, lv_coord_t x2, lv_coord_t y2);
 104:Middlewares/LVGL/GUI/lvgl/src/widgets/../core/../misc/../font/../misc/lv_area.h **** 
 105:Middlewares/LVGL/GUI/lvgl/src/widgets/../core/../misc/../font/../misc/lv_area.h **** /**
ARM GAS  C:\Users\ADMINI~1\AppData\Local\Temp\cchwJBFL.s 			page 31


 106:Middlewares/LVGL/GUI/lvgl/src/widgets/../core/../misc/../font/../misc/lv_area.h ****  * Copy an area
 107:Middlewares/LVGL/GUI/lvgl/src/widgets/../core/../misc/../font/../misc/lv_area.h ****  * @param dest pointer to the destination area
 108:Middlewares/LVGL/GUI/lvgl/src/widgets/../core/../misc/../font/../misc/lv_area.h ****  * @param src pointer to the source area
 109:Middlewares/LVGL/GUI/lvgl/src/widgets/../core/../misc/../font/../misc/lv_area.h ****  */
 110:Middlewares/LVGL/GUI/lvgl/src/widgets/../core/../misc/../font/../misc/lv_area.h **** inline static void lv_area_copy(lv_area_t * dest, const lv_area_t * src)
 514              		.loc 3 110 20 view .LVU155
 515              	.LBB101:
 111:Middlewares/LVGL/GUI/lvgl/src/widgets/../core/../misc/../font/../misc/lv_area.h **** {
 112:Middlewares/LVGL/GUI/lvgl/src/widgets/../core/../misc/../font/../misc/lv_area.h ****     dest->x1 = src->x1;
 516              		.loc 3 112 5 view .LVU156
 517              		.loc 3 112 19 is_stmt 0 view .LVU157
 518 0092 389B     		ldr	r3, [sp, #224]
 519              		.loc 3 112 14 view .LVU158
 520 0094 C4F88030 		str	r3, [r4, #128]
 113:Middlewares/LVGL/GUI/lvgl/src/widgets/../core/../misc/../font/../misc/lv_area.h ****     dest->y1 = src->y1;
 521              		.loc 3 113 5 is_stmt 1 view .LVU159
 522              		.loc 3 113 19 is_stmt 0 view .LVU160
 523 0098 399B     		ldr	r3, [sp, #228]
 524              		.loc 3 113 14 view .LVU161
 525 009a C4F88430 		str	r3, [r4, #132]
 114:Middlewares/LVGL/GUI/lvgl/src/widgets/../core/../misc/../font/../misc/lv_area.h ****     dest->x2 = src->x2;
 526              		.loc 3 114 5 is_stmt 1 view .LVU162
 527              		.loc 3 114 19 is_stmt 0 view .LVU163
 528 009e 3A9B     		ldr	r3, [sp, #232]
 529              		.loc 3 114 14 view .LVU164
 530 00a0 C4F88830 		str	r3, [r4, #136]
 115:Middlewares/LVGL/GUI/lvgl/src/widgets/../core/../misc/../font/../misc/lv_area.h ****     dest->y2 = src->y2;
 531              		.loc 3 115 5 is_stmt 1 view .LVU165
 532              		.loc 3 115 19 is_stmt 0 view .LVU166
 533 00a4 3B9B     		ldr	r3, [sp, #236]
 534              		.loc 3 115 14 view .LVU167
 535 00a6 C4F88C30 		str	r3, [r4, #140]
 536              	.LVL62:
 537              		.loc 3 115 14 view .LVU168
 538              	.LBE101:
 539              	.LBE100:
 380:Middlewares/LVGL/GUI/lvgl/src/widgets/lv_slider.c ****     lv_obj_draw_dsc_init(&part_draw_dsc, draw_ctx);
 540              		.loc 1 380 5 is_stmt 1 view .LVU169
 381:Middlewares/LVGL/GUI/lvgl/src/widgets/lv_slider.c ****     part_draw_dsc.part = LV_PART_KNOB;
 541              		.loc 1 381 5 view .LVU170
 542 00aa 3946     		mov	r1, r7
 543 00ac 14A8     		add	r0, sp, #80
 544 00ae FFF7FEFF 		bl	lv_obj_draw_dsc_init
 545              	.LVL63:
 382:Middlewares/LVGL/GUI/lvgl/src/widgets/lv_slider.c ****     part_draw_dsc.class_p = MY_CLASS;
 546              		.loc 1 382 5 view .LVU171
 382:Middlewares/LVGL/GUI/lvgl/src/widgets/lv_slider.c ****     part_draw_dsc.class_p = MY_CLASS;
 547              		.loc 1 382 24 is_stmt 0 view .LVU172
 548 00b2 4FF44033 		mov	r3, #196608
 549 00b6 2193     		str	r3, [sp, #132]
 383:Middlewares/LVGL/GUI/lvgl/src/widgets/lv_slider.c ****     part_draw_dsc.type = LV_SLIDER_DRAW_PART_KNOB;
 550              		.loc 1 383 5 is_stmt 1 view .LVU173
 383:Middlewares/LVGL/GUI/lvgl/src/widgets/lv_slider.c ****     part_draw_dsc.type = LV_SLIDER_DRAW_PART_KNOB;
 551              		.loc 1 383 27 is_stmt 0 view .LVU174
 552 00b8 604B     		ldr	r3, .L55
 553 00ba 1593     		str	r3, [sp, #84]
 384:Middlewares/LVGL/GUI/lvgl/src/widgets/lv_slider.c ****     part_draw_dsc.id = 0;
ARM GAS  C:\Users\ADMINI~1\AppData\Local\Temp\cchwJBFL.s 			page 32


 554              		.loc 1 384 5 is_stmt 1 view .LVU175
 384:Middlewares/LVGL/GUI/lvgl/src/widgets/lv_slider.c ****     part_draw_dsc.id = 0;
 555              		.loc 1 384 24 is_stmt 0 view .LVU176
 556 00bc 0023     		movs	r3, #0
 557 00be 1693     		str	r3, [sp, #88]
 385:Middlewares/LVGL/GUI/lvgl/src/widgets/lv_slider.c ****     part_draw_dsc.draw_area = &slider->right_knob_area;
 558              		.loc 1 385 5 is_stmt 1 view .LVU177
 385:Middlewares/LVGL/GUI/lvgl/src/widgets/lv_slider.c ****     part_draw_dsc.draw_area = &slider->right_knob_area;
 559              		.loc 1 385 22 is_stmt 0 view .LVU178
 560 00c0 2293     		str	r3, [sp, #136]
 386:Middlewares/LVGL/GUI/lvgl/src/widgets/lv_slider.c ****     part_draw_dsc.rect_dsc = &knob_rect_dsc;
 561              		.loc 1 386 5 is_stmt 1 view .LVU179
 386:Middlewares/LVGL/GUI/lvgl/src/widgets/lv_slider.c ****     part_draw_dsc.rect_dsc = &knob_rect_dsc;
 562              		.loc 1 386 29 is_stmt 0 view .LVU180
 563 00c2 CDF85CA0 		str	r10, [sp, #92]
 387:Middlewares/LVGL/GUI/lvgl/src/widgets/lv_slider.c **** 
 564              		.loc 1 387 5 is_stmt 1 view .LVU181
 387:Middlewares/LVGL/GUI/lvgl/src/widgets/lv_slider.c **** 
 565              		.loc 1 387 28 is_stmt 0 view .LVU182
 566 00c6 CDF86080 		str	r8, [sp, #96]
 389:Middlewares/LVGL/GUI/lvgl/src/widgets/lv_slider.c ****         lv_event_send(obj, LV_EVENT_DRAW_PART_BEGIN, &part_draw_dsc);
 567              		.loc 1 389 5 is_stmt 1 view .LVU183
 568              	.LVL64:
 569              	.LBB102:
 570              	.LBI102:
 571              		.file 4 "Middlewares/LVGL/GUI/lvgl/src/widgets/lv_slider.h"
   1:Middlewares/LVGL/GUI/lvgl/src/widgets/lv_slider.h **** /**
   2:Middlewares/LVGL/GUI/lvgl/src/widgets/lv_slider.h ****  * @file lv_slider.h
   3:Middlewares/LVGL/GUI/lvgl/src/widgets/lv_slider.h ****  *
   4:Middlewares/LVGL/GUI/lvgl/src/widgets/lv_slider.h ****  */
   5:Middlewares/LVGL/GUI/lvgl/src/widgets/lv_slider.h **** 
   6:Middlewares/LVGL/GUI/lvgl/src/widgets/lv_slider.h **** #ifndef LV_SLIDER_H
   7:Middlewares/LVGL/GUI/lvgl/src/widgets/lv_slider.h **** #define LV_SLIDER_H
   8:Middlewares/LVGL/GUI/lvgl/src/widgets/lv_slider.h **** 
   9:Middlewares/LVGL/GUI/lvgl/src/widgets/lv_slider.h **** #ifdef __cplusplus
  10:Middlewares/LVGL/GUI/lvgl/src/widgets/lv_slider.h **** extern "C" {
  11:Middlewares/LVGL/GUI/lvgl/src/widgets/lv_slider.h **** #endif
  12:Middlewares/LVGL/GUI/lvgl/src/widgets/lv_slider.h **** 
  13:Middlewares/LVGL/GUI/lvgl/src/widgets/lv_slider.h **** /*********************
  14:Middlewares/LVGL/GUI/lvgl/src/widgets/lv_slider.h ****  *      INCLUDES
  15:Middlewares/LVGL/GUI/lvgl/src/widgets/lv_slider.h ****  *********************/
  16:Middlewares/LVGL/GUI/lvgl/src/widgets/lv_slider.h **** #include "../lv_conf_internal.h"
  17:Middlewares/LVGL/GUI/lvgl/src/widgets/lv_slider.h **** 
  18:Middlewares/LVGL/GUI/lvgl/src/widgets/lv_slider.h **** #if LV_USE_SLIDER != 0
  19:Middlewares/LVGL/GUI/lvgl/src/widgets/lv_slider.h **** 
  20:Middlewares/LVGL/GUI/lvgl/src/widgets/lv_slider.h **** /*Testing of dependencies*/
  21:Middlewares/LVGL/GUI/lvgl/src/widgets/lv_slider.h **** #if LV_USE_BAR == 0
  22:Middlewares/LVGL/GUI/lvgl/src/widgets/lv_slider.h **** #error "lv_slider: lv_bar is required. Enable it in lv_conf.h (LV_USE_BAR 1)"
  23:Middlewares/LVGL/GUI/lvgl/src/widgets/lv_slider.h **** #endif
  24:Middlewares/LVGL/GUI/lvgl/src/widgets/lv_slider.h **** 
  25:Middlewares/LVGL/GUI/lvgl/src/widgets/lv_slider.h **** #include "../core/lv_obj.h"
  26:Middlewares/LVGL/GUI/lvgl/src/widgets/lv_slider.h **** #include "lv_bar.h"
  27:Middlewares/LVGL/GUI/lvgl/src/widgets/lv_slider.h **** 
  28:Middlewares/LVGL/GUI/lvgl/src/widgets/lv_slider.h **** /*********************
  29:Middlewares/LVGL/GUI/lvgl/src/widgets/lv_slider.h ****  *      DEFINES
  30:Middlewares/LVGL/GUI/lvgl/src/widgets/lv_slider.h ****  *********************/
  31:Middlewares/LVGL/GUI/lvgl/src/widgets/lv_slider.h **** 
ARM GAS  C:\Users\ADMINI~1\AppData\Local\Temp\cchwJBFL.s 			page 33


  32:Middlewares/LVGL/GUI/lvgl/src/widgets/lv_slider.h **** /**********************
  33:Middlewares/LVGL/GUI/lvgl/src/widgets/lv_slider.h ****  *      TYPEDEFS
  34:Middlewares/LVGL/GUI/lvgl/src/widgets/lv_slider.h ****  **********************/
  35:Middlewares/LVGL/GUI/lvgl/src/widgets/lv_slider.h **** 
  36:Middlewares/LVGL/GUI/lvgl/src/widgets/lv_slider.h **** enum {
  37:Middlewares/LVGL/GUI/lvgl/src/widgets/lv_slider.h ****     LV_SLIDER_MODE_NORMAL = LV_BAR_MODE_NORMAL,
  38:Middlewares/LVGL/GUI/lvgl/src/widgets/lv_slider.h ****     LV_SLIDER_MODE_SYMMETRICAL = LV_BAR_MODE_SYMMETRICAL,
  39:Middlewares/LVGL/GUI/lvgl/src/widgets/lv_slider.h ****     LV_SLIDER_MODE_RANGE = LV_BAR_MODE_RANGE
  40:Middlewares/LVGL/GUI/lvgl/src/widgets/lv_slider.h **** };
  41:Middlewares/LVGL/GUI/lvgl/src/widgets/lv_slider.h **** typedef uint8_t lv_slider_mode_t;
  42:Middlewares/LVGL/GUI/lvgl/src/widgets/lv_slider.h **** 
  43:Middlewares/LVGL/GUI/lvgl/src/widgets/lv_slider.h **** typedef struct {
  44:Middlewares/LVGL/GUI/lvgl/src/widgets/lv_slider.h ****     lv_bar_t bar;       /*Add the ancestor's type first*/
  45:Middlewares/LVGL/GUI/lvgl/src/widgets/lv_slider.h ****     lv_area_t left_knob_area;
  46:Middlewares/LVGL/GUI/lvgl/src/widgets/lv_slider.h ****     lv_area_t right_knob_area;
  47:Middlewares/LVGL/GUI/lvgl/src/widgets/lv_slider.h ****     int32_t * value_to_set; /*Which bar value to set*/
  48:Middlewares/LVGL/GUI/lvgl/src/widgets/lv_slider.h ****     uint8_t dragging : 1;       /*1: the slider is being dragged*/
  49:Middlewares/LVGL/GUI/lvgl/src/widgets/lv_slider.h ****     uint8_t left_knob_focus : 1; /*1: with encoder now the right knob can be adjusted*/
  50:Middlewares/LVGL/GUI/lvgl/src/widgets/lv_slider.h **** } lv_slider_t;
  51:Middlewares/LVGL/GUI/lvgl/src/widgets/lv_slider.h **** 
  52:Middlewares/LVGL/GUI/lvgl/src/widgets/lv_slider.h **** extern const lv_obj_class_t lv_slider_class;
  53:Middlewares/LVGL/GUI/lvgl/src/widgets/lv_slider.h **** 
  54:Middlewares/LVGL/GUI/lvgl/src/widgets/lv_slider.h **** /**
  55:Middlewares/LVGL/GUI/lvgl/src/widgets/lv_slider.h ****  * `type` field in `lv_obj_draw_part_dsc_t` if `class_p = lv_slider_class`
  56:Middlewares/LVGL/GUI/lvgl/src/widgets/lv_slider.h ****  * Used in `LV_EVENT_DRAW_PART_BEGIN` and `LV_EVENT_DRAW_PART_END`
  57:Middlewares/LVGL/GUI/lvgl/src/widgets/lv_slider.h ****  */
  58:Middlewares/LVGL/GUI/lvgl/src/widgets/lv_slider.h **** typedef enum {
  59:Middlewares/LVGL/GUI/lvgl/src/widgets/lv_slider.h ****     LV_SLIDER_DRAW_PART_KNOB,           /**< The main (right) knob's rectangle*/
  60:Middlewares/LVGL/GUI/lvgl/src/widgets/lv_slider.h ****     LV_SLIDER_DRAW_PART_KNOB_LEFT,      /**< The left knob's rectangle*/
  61:Middlewares/LVGL/GUI/lvgl/src/widgets/lv_slider.h **** } lv_slider_draw_part_type_t;
  62:Middlewares/LVGL/GUI/lvgl/src/widgets/lv_slider.h **** 
  63:Middlewares/LVGL/GUI/lvgl/src/widgets/lv_slider.h **** /**********************
  64:Middlewares/LVGL/GUI/lvgl/src/widgets/lv_slider.h ****  * GLOBAL PROTOTYPES
  65:Middlewares/LVGL/GUI/lvgl/src/widgets/lv_slider.h ****  **********************/
  66:Middlewares/LVGL/GUI/lvgl/src/widgets/lv_slider.h **** 
  67:Middlewares/LVGL/GUI/lvgl/src/widgets/lv_slider.h **** /**
  68:Middlewares/LVGL/GUI/lvgl/src/widgets/lv_slider.h ****  * Create a slider object
  69:Middlewares/LVGL/GUI/lvgl/src/widgets/lv_slider.h ****  * @param parent    pointer to an object, it will be the parent of the new slider.
  70:Middlewares/LVGL/GUI/lvgl/src/widgets/lv_slider.h ****  * @return          pointer to the created slider
  71:Middlewares/LVGL/GUI/lvgl/src/widgets/lv_slider.h ****  */
  72:Middlewares/LVGL/GUI/lvgl/src/widgets/lv_slider.h **** lv_obj_t * lv_slider_create(lv_obj_t * parent);
  73:Middlewares/LVGL/GUI/lvgl/src/widgets/lv_slider.h **** 
  74:Middlewares/LVGL/GUI/lvgl/src/widgets/lv_slider.h **** /*=====================
  75:Middlewares/LVGL/GUI/lvgl/src/widgets/lv_slider.h ****  * Setter functions
  76:Middlewares/LVGL/GUI/lvgl/src/widgets/lv_slider.h ****  *====================*/
  77:Middlewares/LVGL/GUI/lvgl/src/widgets/lv_slider.h **** 
  78:Middlewares/LVGL/GUI/lvgl/src/widgets/lv_slider.h **** /**
  79:Middlewares/LVGL/GUI/lvgl/src/widgets/lv_slider.h ****  * Set a new value on the slider
  80:Middlewares/LVGL/GUI/lvgl/src/widgets/lv_slider.h ****  * @param obj       pointer to a slider object
  81:Middlewares/LVGL/GUI/lvgl/src/widgets/lv_slider.h ****  * @param value     the new value
  82:Middlewares/LVGL/GUI/lvgl/src/widgets/lv_slider.h ****  * @param anim      LV_ANIM_ON: set the value with an animation; LV_ANIM_OFF: change the value imme
  83:Middlewares/LVGL/GUI/lvgl/src/widgets/lv_slider.h ****  */
  84:Middlewares/LVGL/GUI/lvgl/src/widgets/lv_slider.h **** static inline void lv_slider_set_value(lv_obj_t * obj, int32_t value, lv_anim_enable_t anim)
  85:Middlewares/LVGL/GUI/lvgl/src/widgets/lv_slider.h **** {
  86:Middlewares/LVGL/GUI/lvgl/src/widgets/lv_slider.h ****     lv_bar_set_value(obj, value, anim);
  87:Middlewares/LVGL/GUI/lvgl/src/widgets/lv_slider.h **** }
  88:Middlewares/LVGL/GUI/lvgl/src/widgets/lv_slider.h **** 
ARM GAS  C:\Users\ADMINI~1\AppData\Local\Temp\cchwJBFL.s 			page 34


  89:Middlewares/LVGL/GUI/lvgl/src/widgets/lv_slider.h **** /**
  90:Middlewares/LVGL/GUI/lvgl/src/widgets/lv_slider.h ****  * Set a new value for the left knob of a slider
  91:Middlewares/LVGL/GUI/lvgl/src/widgets/lv_slider.h ****  * @param obj       pointer to a slider object
  92:Middlewares/LVGL/GUI/lvgl/src/widgets/lv_slider.h ****  * @param value     new value
  93:Middlewares/LVGL/GUI/lvgl/src/widgets/lv_slider.h ****  * @param anim      LV_ANIM_ON: set the value with an animation; LV_ANIM_OFF: change the value imme
  94:Middlewares/LVGL/GUI/lvgl/src/widgets/lv_slider.h ****  */
  95:Middlewares/LVGL/GUI/lvgl/src/widgets/lv_slider.h **** static inline void lv_slider_set_left_value(lv_obj_t * obj, int32_t value, lv_anim_enable_t anim)
  96:Middlewares/LVGL/GUI/lvgl/src/widgets/lv_slider.h **** {
  97:Middlewares/LVGL/GUI/lvgl/src/widgets/lv_slider.h ****     lv_bar_set_start_value(obj, value, anim);
  98:Middlewares/LVGL/GUI/lvgl/src/widgets/lv_slider.h **** }
  99:Middlewares/LVGL/GUI/lvgl/src/widgets/lv_slider.h **** 
 100:Middlewares/LVGL/GUI/lvgl/src/widgets/lv_slider.h **** /**
 101:Middlewares/LVGL/GUI/lvgl/src/widgets/lv_slider.h ****  * Set minimum and the maximum values of a bar
 102:Middlewares/LVGL/GUI/lvgl/src/widgets/lv_slider.h ****  * @param obj       pointer to the slider object
 103:Middlewares/LVGL/GUI/lvgl/src/widgets/lv_slider.h ****  * @param min       minimum value
 104:Middlewares/LVGL/GUI/lvgl/src/widgets/lv_slider.h ****  * @param max       maximum value
 105:Middlewares/LVGL/GUI/lvgl/src/widgets/lv_slider.h ****  */
 106:Middlewares/LVGL/GUI/lvgl/src/widgets/lv_slider.h **** static inline void lv_slider_set_range(lv_obj_t * obj, int32_t min, int32_t max)
 107:Middlewares/LVGL/GUI/lvgl/src/widgets/lv_slider.h **** {
 108:Middlewares/LVGL/GUI/lvgl/src/widgets/lv_slider.h ****     lv_bar_set_range(obj, min, max);
 109:Middlewares/LVGL/GUI/lvgl/src/widgets/lv_slider.h **** }
 110:Middlewares/LVGL/GUI/lvgl/src/widgets/lv_slider.h **** 
 111:Middlewares/LVGL/GUI/lvgl/src/widgets/lv_slider.h **** /**
 112:Middlewares/LVGL/GUI/lvgl/src/widgets/lv_slider.h ****  * Set the mode of slider.
 113:Middlewares/LVGL/GUI/lvgl/src/widgets/lv_slider.h ****  * @param obj       pointer to a slider object
 114:Middlewares/LVGL/GUI/lvgl/src/widgets/lv_slider.h ****  * @param mode      the mode of the slider. See ::lv_slider_mode_t
 115:Middlewares/LVGL/GUI/lvgl/src/widgets/lv_slider.h ****  */
 116:Middlewares/LVGL/GUI/lvgl/src/widgets/lv_slider.h **** static inline void lv_slider_set_mode(lv_obj_t * obj, lv_slider_mode_t mode)
 117:Middlewares/LVGL/GUI/lvgl/src/widgets/lv_slider.h **** {
 118:Middlewares/LVGL/GUI/lvgl/src/widgets/lv_slider.h ****     lv_bar_set_mode(obj, (lv_bar_mode_t)mode);
 119:Middlewares/LVGL/GUI/lvgl/src/widgets/lv_slider.h **** }
 120:Middlewares/LVGL/GUI/lvgl/src/widgets/lv_slider.h **** 
 121:Middlewares/LVGL/GUI/lvgl/src/widgets/lv_slider.h **** /*=====================
 122:Middlewares/LVGL/GUI/lvgl/src/widgets/lv_slider.h ****  * Getter functions
 123:Middlewares/LVGL/GUI/lvgl/src/widgets/lv_slider.h ****  *====================*/
 124:Middlewares/LVGL/GUI/lvgl/src/widgets/lv_slider.h **** 
 125:Middlewares/LVGL/GUI/lvgl/src/widgets/lv_slider.h **** /**
 126:Middlewares/LVGL/GUI/lvgl/src/widgets/lv_slider.h ****  * Get the value of the main knob of a slider
 127:Middlewares/LVGL/GUI/lvgl/src/widgets/lv_slider.h ****  * @param obj       pointer to a slider object
 128:Middlewares/LVGL/GUI/lvgl/src/widgets/lv_slider.h ****  * @return          the value of the main knob of the slider
 129:Middlewares/LVGL/GUI/lvgl/src/widgets/lv_slider.h ****  */
 130:Middlewares/LVGL/GUI/lvgl/src/widgets/lv_slider.h **** static inline int32_t lv_slider_get_value(const lv_obj_t * obj)
 131:Middlewares/LVGL/GUI/lvgl/src/widgets/lv_slider.h **** {
 132:Middlewares/LVGL/GUI/lvgl/src/widgets/lv_slider.h ****     return lv_bar_get_value(obj);
 133:Middlewares/LVGL/GUI/lvgl/src/widgets/lv_slider.h **** }
 134:Middlewares/LVGL/GUI/lvgl/src/widgets/lv_slider.h **** 
 135:Middlewares/LVGL/GUI/lvgl/src/widgets/lv_slider.h **** /**
 136:Middlewares/LVGL/GUI/lvgl/src/widgets/lv_slider.h ****  * Get the value of the left knob of a slider
 137:Middlewares/LVGL/GUI/lvgl/src/widgets/lv_slider.h ****  * @param obj       pointer to a slider object
 138:Middlewares/LVGL/GUI/lvgl/src/widgets/lv_slider.h ****  * @return          the value of the left knob of the slider
 139:Middlewares/LVGL/GUI/lvgl/src/widgets/lv_slider.h ****  */
 140:Middlewares/LVGL/GUI/lvgl/src/widgets/lv_slider.h **** static inline int32_t lv_slider_get_left_value(const lv_obj_t * obj)
 141:Middlewares/LVGL/GUI/lvgl/src/widgets/lv_slider.h **** {
 142:Middlewares/LVGL/GUI/lvgl/src/widgets/lv_slider.h ****     return lv_bar_get_start_value(obj);
 143:Middlewares/LVGL/GUI/lvgl/src/widgets/lv_slider.h **** }
 144:Middlewares/LVGL/GUI/lvgl/src/widgets/lv_slider.h **** 
 145:Middlewares/LVGL/GUI/lvgl/src/widgets/lv_slider.h **** /**
ARM GAS  C:\Users\ADMINI~1\AppData\Local\Temp\cchwJBFL.s 			page 35


 146:Middlewares/LVGL/GUI/lvgl/src/widgets/lv_slider.h ****  * Get the minimum value of a slider
 147:Middlewares/LVGL/GUI/lvgl/src/widgets/lv_slider.h ****  * @param obj       pointer to a slider object
 148:Middlewares/LVGL/GUI/lvgl/src/widgets/lv_slider.h ****  * @return          the minimum value of the slider
 149:Middlewares/LVGL/GUI/lvgl/src/widgets/lv_slider.h ****  */
 150:Middlewares/LVGL/GUI/lvgl/src/widgets/lv_slider.h **** static inline int32_t lv_slider_get_min_value(const lv_obj_t * obj)
 151:Middlewares/LVGL/GUI/lvgl/src/widgets/lv_slider.h **** {
 152:Middlewares/LVGL/GUI/lvgl/src/widgets/lv_slider.h ****     return lv_bar_get_min_value(obj);
 153:Middlewares/LVGL/GUI/lvgl/src/widgets/lv_slider.h **** }
 154:Middlewares/LVGL/GUI/lvgl/src/widgets/lv_slider.h **** 
 155:Middlewares/LVGL/GUI/lvgl/src/widgets/lv_slider.h **** /**
 156:Middlewares/LVGL/GUI/lvgl/src/widgets/lv_slider.h ****  * Get the maximum value of a slider
 157:Middlewares/LVGL/GUI/lvgl/src/widgets/lv_slider.h ****  * @param obj       pointer to a slider object
 158:Middlewares/LVGL/GUI/lvgl/src/widgets/lv_slider.h ****  * @return          the maximum value of the slider
 159:Middlewares/LVGL/GUI/lvgl/src/widgets/lv_slider.h ****  */
 160:Middlewares/LVGL/GUI/lvgl/src/widgets/lv_slider.h **** static inline int32_t lv_slider_get_max_value(const lv_obj_t * obj)
 161:Middlewares/LVGL/GUI/lvgl/src/widgets/lv_slider.h **** {
 162:Middlewares/LVGL/GUI/lvgl/src/widgets/lv_slider.h ****     return lv_bar_get_max_value(obj);
 163:Middlewares/LVGL/GUI/lvgl/src/widgets/lv_slider.h **** }
 164:Middlewares/LVGL/GUI/lvgl/src/widgets/lv_slider.h **** 
 165:Middlewares/LVGL/GUI/lvgl/src/widgets/lv_slider.h **** /**
 166:Middlewares/LVGL/GUI/lvgl/src/widgets/lv_slider.h ****  * Give the slider is being dragged or not
 167:Middlewares/LVGL/GUI/lvgl/src/widgets/lv_slider.h ****  * @param obj       pointer to a slider object
 168:Middlewares/LVGL/GUI/lvgl/src/widgets/lv_slider.h ****  * @return          true: drag in progress false: not dragged
 169:Middlewares/LVGL/GUI/lvgl/src/widgets/lv_slider.h ****  */
 170:Middlewares/LVGL/GUI/lvgl/src/widgets/lv_slider.h **** bool lv_slider_is_dragged(const lv_obj_t * obj);
 171:Middlewares/LVGL/GUI/lvgl/src/widgets/lv_slider.h **** 
 172:Middlewares/LVGL/GUI/lvgl/src/widgets/lv_slider.h **** /**
 173:Middlewares/LVGL/GUI/lvgl/src/widgets/lv_slider.h ****  * Get the mode of the slider.
 174:Middlewares/LVGL/GUI/lvgl/src/widgets/lv_slider.h ****  * @param obj       pointer to a bar object
 175:Middlewares/LVGL/GUI/lvgl/src/widgets/lv_slider.h ****  * @return          see ::lv_slider_mode_t
 176:Middlewares/LVGL/GUI/lvgl/src/widgets/lv_slider.h ****  */
 177:Middlewares/LVGL/GUI/lvgl/src/widgets/lv_slider.h **** static inline lv_slider_mode_t lv_slider_get_mode(lv_obj_t * slider)
 572              		.loc 4 177 32 view .LVU184
 573              	.LBB103:
 178:Middlewares/LVGL/GUI/lvgl/src/widgets/lv_slider.h **** {
 179:Middlewares/LVGL/GUI/lvgl/src/widgets/lv_slider.h ****     lv_bar_mode_t mode = lv_bar_get_mode(slider);
 574              		.loc 4 179 5 view .LVU185
 575              		.loc 4 179 26 is_stmt 0 view .LVU186
 576 00ca 2046     		mov	r0, r4
 577 00cc FFF7FEFF 		bl	lv_bar_get_mode
 578              	.LVL65:
 180:Middlewares/LVGL/GUI/lvgl/src/widgets/lv_slider.h ****     if(mode == LV_BAR_MODE_SYMMETRICAL) return LV_SLIDER_MODE_SYMMETRICAL;
 579              		.loc 4 180 5 is_stmt 1 view .LVU187
 580              		.loc 4 180 7 is_stmt 0 view .LVU188
 581 00d0 0128     		cmp	r0, #1
 582 00d2 02D0     		beq	.L33
 181:Middlewares/LVGL/GUI/lvgl/src/widgets/lv_slider.h ****     else if(mode == LV_BAR_MODE_RANGE) return LV_SLIDER_MODE_RANGE;
 583              		.loc 4 181 10 is_stmt 1 view .LVU189
 584              		.loc 4 181 12 is_stmt 0 view .LVU190
 585 00d4 0228     		cmp	r0, #2
 586 00d6 00D0     		beq	.L33
 182:Middlewares/LVGL/GUI/lvgl/src/widgets/lv_slider.h ****     else return LV_SLIDER_MODE_NORMAL;
 587              		.loc 4 182 17 view .LVU191
 588 00d8 0020     		movs	r0, #0
 589              	.LVL66:
 590              	.L33:
 591              		.loc 4 182 17 view .LVU192
ARM GAS  C:\Users\ADMINI~1\AppData\Local\Temp\cchwJBFL.s 			page 36


 592              	.LBE103:
 593              	.LBE102:
 389:Middlewares/LVGL/GUI/lvgl/src/widgets/lv_slider.c ****         lv_event_send(obj, LV_EVENT_DRAW_PART_BEGIN, &part_draw_dsc);
 594              		.loc 1 389 7 view .LVU193
 595 00da 0228     		cmp	r0, #2
 596 00dc 5AD0     		beq	.L34
 390:Middlewares/LVGL/GUI/lvgl/src/widgets/lv_slider.c ****         lv_draw_rect(draw_ctx, &knob_rect_dsc, &slider->right_knob_area);
 597              		.loc 1 390 9 is_stmt 1 view .LVU194
 598 00de 14AA     		add	r2, sp, #80
 599 00e0 1A21     		movs	r1, #26
 600 00e2 2046     		mov	r0, r4
 601 00e4 FFF7FEFF 		bl	lv_event_send
 602              	.LVL67:
 391:Middlewares/LVGL/GUI/lvgl/src/widgets/lv_slider.c ****         lv_event_send(obj, LV_EVENT_DRAW_PART_END, &part_draw_dsc);
 603              		.loc 1 391 9 view .LVU195
 604 00e8 5246     		mov	r2, r10
 605 00ea 26A9     		add	r1, sp, #152
 606 00ec 3846     		mov	r0, r7
 607 00ee FFF7FEFF 		bl	lv_draw_rect
 608              	.LVL68:
 392:Middlewares/LVGL/GUI/lvgl/src/widgets/lv_slider.c ****     }
 609              		.loc 1 392 9 view .LVU196
 610 00f2 14AA     		add	r2, sp, #80
 611 00f4 1B21     		movs	r1, #27
 612 00f6 2046     		mov	r0, r4
 613 00f8 FFF7FEFF 		bl	lv_event_send
 614              	.LVL69:
 615              	.L12:
 423:Middlewares/LVGL/GUI/lvgl/src/widgets/lv_slider.c **** 
 616              		.loc 1 423 1 is_stmt 0 view .LVU197
 617 00fc 3DB0     		add	sp, sp, #244
 618              	.LCFI4:
 619              		.cfi_remember_state
 620              		.cfi_def_cfa_offset 36
 621              		@ sp needed
 622 00fe BDE8F08F 		pop	{r4, r5, r6, r7, r8, r9, r10, fp, pc}
 623              	.LVL70:
 624              	.L42:
 625              	.LCFI5:
 626              		.cfi_restore_state
 338:Middlewares/LVGL/GUI/lvgl/src/widgets/lv_slider.c ****     bool sym = false;
 627              		.loc 1 338 39 view .LVU198
 628 0102 0196     		str	r6, [sp, #4]
 629 0104 9FE7     		b	.L13
 630              	.LVL71:
 631              	.L48:
 340:Middlewares/LVGL/GUI/lvgl/src/widgets/lv_slider.c **** 
 632              		.loc 1 340 66 discriminator 1 view .LVU199
 633 0106 236B     		ldr	r3, [r4, #48]
 340:Middlewares/LVGL/GUI/lvgl/src/widgets/lv_slider.c **** 
 634              		.loc 1 340 52 discriminator 1 view .LVU200
 635 0108 002B     		cmp	r3, #0
 636 010a 01DB     		blt	.L50
 339:Middlewares/LVGL/GUI/lvgl/src/widgets/lv_slider.c ****     if(slider->bar.mode == LV_BAR_MODE_SYMMETRICAL && slider->bar.min_value < 0 && slider->bar.max_
 637              		.loc 1 339 10 view .LVU201
 638 010c 0023     		movs	r3, #0
 639 010e A1E7     		b	.L14
ARM GAS  C:\Users\ADMINI~1\AppData\Local\Temp\cchwJBFL.s 			page 37


 640              	.L50:
 340:Middlewares/LVGL/GUI/lvgl/src/widgets/lv_slider.c **** 
 641              		.loc 1 340 95 discriminator 2 view .LVU202
 642 0110 636B     		ldr	r3, [r4, #52]
 340:Middlewares/LVGL/GUI/lvgl/src/widgets/lv_slider.c **** 
 643              		.loc 1 340 81 discriminator 2 view .LVU203
 644 0112 002B     		cmp	r3, #0
 645 0114 01DD     		ble	.L51
 340:Middlewares/LVGL/GUI/lvgl/src/widgets/lv_slider.c **** 
 646              		.loc 1 340 115 view .LVU204
 647 0116 0123     		movs	r3, #1
 648 0118 9CE7     		b	.L14
 649              	.L51:
 339:Middlewares/LVGL/GUI/lvgl/src/widgets/lv_slider.c ****     if(slider->bar.mode == LV_BAR_MODE_SYMMETRICAL && slider->bar.min_value < 0 && slider->bar.max_
 650              		.loc 1 339 10 view .LVU205
 651 011a 0023     		movs	r3, #0
 652 011c 9AE7     		b	.L14
 653              	.LVL72:
 654              	.L49:
 347:Middlewares/LVGL/GUI/lvgl/src/widgets/lv_slider.c ****         }
 655              		.loc 1 347 28 discriminator 3 view .LVU206
 656 011e E36B     		ldr	r3, [r4, #60]
 657              	.LVL73:
 347:Middlewares/LVGL/GUI/lvgl/src/widgets/lv_slider.c ****         }
 658              		.loc 1 347 28 discriminator 3 view .LVU207
 659 0120 A3E7     		b	.L19
 660              	.LVL74:
 661              	.L17:
 347:Middlewares/LVGL/GUI/lvgl/src/widgets/lv_slider.c ****         }
 662              		.loc 1 347 28 discriminator 2 view .LVU208
 663 0122 B9F1010F 		cmp	r9, #1
 664 0126 01D0     		beq	.L52
 347:Middlewares/LVGL/GUI/lvgl/src/widgets/lv_slider.c ****         }
 665              		.loc 1 347 28 discriminator 9 view .LVU209
 666 0128 A36C     		ldr	r3, [r4, #72]
 667              	.LVL75:
 347:Middlewares/LVGL/GUI/lvgl/src/widgets/lv_slider.c ****         }
 668              		.loc 1 347 28 discriminator 9 view .LVU210
 669 012a 9EE7     		b	.L19
 670              	.LVL76:
 671              	.L52:
 347:Middlewares/LVGL/GUI/lvgl/src/widgets/lv_slider.c ****         }
 672              		.loc 1 347 28 discriminator 8 view .LVU211
 673 012c 236C     		ldr	r3, [r4, #64]
 674              	.LVL77:
 347:Middlewares/LVGL/GUI/lvgl/src/widgets/lv_slider.c ****         }
 675              		.loc 1 347 28 discriminator 8 view .LVU212
 676 012e 9CE7     		b	.L19
 677              	.LVL78:
 678              	.L16:
 350:Middlewares/LVGL/GUI/lvgl/src/widgets/lv_slider.c ****                 knob_area.x1 = LV_SLIDER_KNOB_COORD(hor, base_dir == LV_BASE_DIR_RTL, slider->bar.i
 679              		.loc 1 350 13 is_stmt 1 view .LVU213
 350:Middlewares/LVGL/GUI/lvgl/src/widgets/lv_slider.c ****                 knob_area.x1 = LV_SLIDER_KNOB_COORD(hor, base_dir == LV_BASE_DIR_RTL, slider->bar.i
 680              		.loc 1 350 27 is_stmt 0 view .LVU214
 681 0130 E36A     		ldr	r3, [r4, #44]
 682              	.LVL79:
 350:Middlewares/LVGL/GUI/lvgl/src/widgets/lv_slider.c ****                 knob_area.x1 = LV_SLIDER_KNOB_COORD(hor, base_dir == LV_BASE_DIR_RTL, slider->bar.i
ARM GAS  C:\Users\ADMINI~1\AppData\Local\Temp\cchwJBFL.s 			page 38


 683              		.loc 1 350 15 view .LVU215
 684 0132 002B     		cmp	r3, #0
 685 0134 10DB     		blt	.L22
 351:Middlewares/LVGL/GUI/lvgl/src/widgets/lv_slider.c ****             }
 686              		.loc 1 351 17 is_stmt 1 view .LVU216
 351:Middlewares/LVGL/GUI/lvgl/src/widgets/lv_slider.c ****             }
 687              		.loc 1 351 32 is_stmt 0 view .LVU217
 688 0136 AE42     		cmp	r6, r5
 689 0138 07DB     		blt	.L23
 351:Middlewares/LVGL/GUI/lvgl/src/widgets/lv_slider.c ****             }
 690              		.loc 1 351 32 discriminator 1 view .LVU218
 691 013a B9F1010F 		cmp	r9, #1
 692 013e 02D0     		beq	.L53
 351:Middlewares/LVGL/GUI/lvgl/src/widgets/lv_slider.c ****             }
 693              		.loc 1 351 32 discriminator 4 view .LVU219
 694 0140 636C     		ldr	r3, [r4, #68]
 695              	.L25:
 351:Middlewares/LVGL/GUI/lvgl/src/widgets/lv_slider.c ****             }
 696              		.loc 1 351 30 discriminator 12 view .LVU220
 697 0142 3893     		str	r3, [sp, #224]
 698 0144 92E7     		b	.L21
 699              	.L53:
 351:Middlewares/LVGL/GUI/lvgl/src/widgets/lv_slider.c ****             }
 700              		.loc 1 351 32 discriminator 3 view .LVU221
 701 0146 E36B     		ldr	r3, [r4, #60]
 702 0148 FBE7     		b	.L25
 703              	.L23:
 351:Middlewares/LVGL/GUI/lvgl/src/widgets/lv_slider.c ****             }
 704              		.loc 1 351 32 discriminator 2 view .LVU222
 705 014a B9F1010F 		cmp	r9, #1
 706 014e 01D0     		beq	.L54
 351:Middlewares/LVGL/GUI/lvgl/src/widgets/lv_slider.c ****             }
 707              		.loc 1 351 32 discriminator 9 view .LVU223
 708 0150 A36C     		ldr	r3, [r4, #72]
 709 0152 F6E7     		b	.L25
 710              	.L54:
 351:Middlewares/LVGL/GUI/lvgl/src/widgets/lv_slider.c ****             }
 711              		.loc 1 351 32 discriminator 8 view .LVU224
 712 0154 236C     		ldr	r3, [r4, #64]
 713 0156 F4E7     		b	.L25
 714              	.L22:
 354:Middlewares/LVGL/GUI/lvgl/src/widgets/lv_slider.c ****             }
 715              		.loc 1 354 17 is_stmt 1 view .LVU225
 354:Middlewares/LVGL/GUI/lvgl/src/widgets/lv_slider.c ****             }
 716              		.loc 1 354 32 is_stmt 0 view .LVU226
 717 0158 AE42     		cmp	r6, r5
 718 015a 07DB     		blt	.L27
 354:Middlewares/LVGL/GUI/lvgl/src/widgets/lv_slider.c ****             }
 719              		.loc 1 354 32 discriminator 1 view .LVU227
 720 015c B9F1010F 		cmp	r9, #1
 721 0160 02D0     		beq	.L28
 354:Middlewares/LVGL/GUI/lvgl/src/widgets/lv_slider.c ****             }
 722              		.loc 1 354 32 discriminator 3 view .LVU228
 723 0162 E36B     		ldr	r3, [r4, #60]
 724              	.L29:
 354:Middlewares/LVGL/GUI/lvgl/src/widgets/lv_slider.c ****             }
 725              		.loc 1 354 30 discriminator 12 view .LVU229
ARM GAS  C:\Users\ADMINI~1\AppData\Local\Temp\cchwJBFL.s 			page 39


 726 0164 3893     		str	r3, [sp, #224]
 727 0166 81E7     		b	.L21
 728              	.L28:
 354:Middlewares/LVGL/GUI/lvgl/src/widgets/lv_slider.c ****             }
 729              		.loc 1 354 32 discriminator 4 view .LVU230
 730 0168 636C     		ldr	r3, [r4, #68]
 731 016a FBE7     		b	.L29
 732              	.L27:
 354:Middlewares/LVGL/GUI/lvgl/src/widgets/lv_slider.c ****             }
 733              		.loc 1 354 32 discriminator 2 view .LVU231
 734 016c B9F1010F 		cmp	r9, #1
 735 0170 01D0     		beq	.L30
 354:Middlewares/LVGL/GUI/lvgl/src/widgets/lv_slider.c ****             }
 736              		.loc 1 354 32 discriminator 8 view .LVU232
 737 0172 236C     		ldr	r3, [r4, #64]
 738 0174 F6E7     		b	.L29
 739              	.L30:
 354:Middlewares/LVGL/GUI/lvgl/src/widgets/lv_slider.c ****             }
 740              		.loc 1 354 32 discriminator 9 view .LVU233
 741 0176 A36C     		ldr	r3, [r4, #72]
 742 0178 F4E7     		b	.L29
 743              	.LVL80:
 744              	.L15:
 360:Middlewares/LVGL/GUI/lvgl/src/widgets/lv_slider.c ****             knob_area.y1 = slider->bar.indic_area.y1;
 745              		.loc 1 360 9 is_stmt 1 view .LVU234
 360:Middlewares/LVGL/GUI/lvgl/src/widgets/lv_slider.c ****             knob_area.y1 = slider->bar.indic_area.y1;
 746              		.loc 1 360 11 is_stmt 0 view .LVU235
 747 017a 13B9     		cbnz	r3, .L31
 361:Middlewares/LVGL/GUI/lvgl/src/widgets/lv_slider.c ****         }
 748              		.loc 1 361 13 is_stmt 1 view .LVU236
 361:Middlewares/LVGL/GUI/lvgl/src/widgets/lv_slider.c ****         }
 749              		.loc 1 361 50 is_stmt 0 view .LVU237
 750 017c 236C     		ldr	r3, [r4, #64]
 751              	.LVL81:
 361:Middlewares/LVGL/GUI/lvgl/src/widgets/lv_slider.c ****         }
 752              		.loc 1 361 26 view .LVU238
 753 017e 3993     		str	r3, [sp, #228]
 754 0180 74E7     		b	.L21
 755              	.LVL82:
 756              	.L31:
 364:Middlewares/LVGL/GUI/lvgl/src/widgets/lv_slider.c ****                 knob_area.y1 = slider->bar.indic_area.y1;
 757              		.loc 1 364 13 is_stmt 1 view .LVU239
 364:Middlewares/LVGL/GUI/lvgl/src/widgets/lv_slider.c ****                 knob_area.y1 = slider->bar.indic_area.y1;
 758              		.loc 1 364 27 is_stmt 0 view .LVU240
 759 0182 E36A     		ldr	r3, [r4, #44]
 760              	.LVL83:
 364:Middlewares/LVGL/GUI/lvgl/src/widgets/lv_slider.c ****                 knob_area.y1 = slider->bar.indic_area.y1;
 761              		.loc 1 364 15 view .LVU241
 762 0184 002B     		cmp	r3, #0
 763 0186 02DB     		blt	.L32
 365:Middlewares/LVGL/GUI/lvgl/src/widgets/lv_slider.c ****             }
 764              		.loc 1 365 17 is_stmt 1 view .LVU242
 365:Middlewares/LVGL/GUI/lvgl/src/widgets/lv_slider.c ****             }
 765              		.loc 1 365 54 is_stmt 0 view .LVU243
 766 0188 236C     		ldr	r3, [r4, #64]
 365:Middlewares/LVGL/GUI/lvgl/src/widgets/lv_slider.c ****             }
 767              		.loc 1 365 30 view .LVU244
ARM GAS  C:\Users\ADMINI~1\AppData\Local\Temp\cchwJBFL.s 			page 40


 768 018a 3993     		str	r3, [sp, #228]
 769 018c 6EE7     		b	.L21
 770              	.L32:
 368:Middlewares/LVGL/GUI/lvgl/src/widgets/lv_slider.c ****             }
 771              		.loc 1 368 17 is_stmt 1 view .LVU245
 368:Middlewares/LVGL/GUI/lvgl/src/widgets/lv_slider.c ****             }
 772              		.loc 1 368 54 is_stmt 0 view .LVU246
 773 018e A36C     		ldr	r3, [r4, #72]
 368:Middlewares/LVGL/GUI/lvgl/src/widgets/lv_slider.c ****             }
 774              		.loc 1 368 30 view .LVU247
 775 0190 3993     		str	r3, [sp, #228]
 776 0192 6BE7     		b	.L21
 777              	.LVL84:
 778              	.L34:
 779              	.LBB104:
 396:Middlewares/LVGL/GUI/lvgl/src/widgets/lv_slider.c ****         lv_memcpy(&knob_rect_dsc_tmp, &knob_rect_dsc, sizeof(lv_draw_rect_dsc_t));
 780              		.loc 1 396 9 is_stmt 1 view .LVU248
 397:Middlewares/LVGL/GUI/lvgl/src/widgets/lv_slider.c **** 
 781              		.loc 1 397 9 view .LVU249
 782 0194 4822     		movs	r2, #72
 783 0196 26A9     		add	r1, sp, #152
 784 0198 02A8     		add	r0, sp, #8
 785 019a FFF7FEFF 		bl	lv_memcpy
 786              	.LVL85:
 399:Middlewares/LVGL/GUI/lvgl/src/widgets/lv_slider.c ****         lv_draw_rect(draw_ctx, &knob_rect_dsc, &slider->right_knob_area);
 787              		.loc 1 399 9 view .LVU250
 788 019e 14AA     		add	r2, sp, #80
 789 01a0 1A21     		movs	r1, #26
 790 01a2 2046     		mov	r0, r4
 791 01a4 FFF7FEFF 		bl	lv_event_send
 792              	.LVL86:
 400:Middlewares/LVGL/GUI/lvgl/src/widgets/lv_slider.c ****         lv_event_send(obj, LV_EVENT_DRAW_PART_END, &part_draw_dsc);
 793              		.loc 1 400 9 view .LVU251
 794 01a8 5246     		mov	r2, r10
 795 01aa 26A9     		add	r1, sp, #152
 796 01ac 3846     		mov	r0, r7
 797 01ae FFF7FEFF 		bl	lv_draw_rect
 798              	.LVL87:
 401:Middlewares/LVGL/GUI/lvgl/src/widgets/lv_slider.c **** 
 799              		.loc 1 401 9 view .LVU252
 800 01b2 14AA     		add	r2, sp, #80
 801 01b4 1B21     		movs	r1, #27
 802 01b6 2046     		mov	r0, r4
 803 01b8 FFF7FEFF 		bl	lv_event_send
 804              	.LVL88:
 404:Middlewares/LVGL/GUI/lvgl/src/widgets/lv_slider.c ****             knob_area.x1 = LV_SLIDER_KNOB_COORD(hor, base_dir != LV_BASE_DIR_RTL, slider->bar.indic
 805              		.loc 1 404 9 view .LVU253
 404:Middlewares/LVGL/GUI/lvgl/src/widgets/lv_slider.c ****             knob_area.x1 = LV_SLIDER_KNOB_COORD(hor, base_dir != LV_BASE_DIR_RTL, slider->bar.indic
 806              		.loc 1 404 11 is_stmt 0 view .LVU254
 807 01bc AE42     		cmp	r6, r5
 808 01be 39DB     		blt	.L36
 405:Middlewares/LVGL/GUI/lvgl/src/widgets/lv_slider.c ****         }
 809              		.loc 1 405 13 is_stmt 1 view .LVU255
 405:Middlewares/LVGL/GUI/lvgl/src/widgets/lv_slider.c ****         }
 810              		.loc 1 405 28 is_stmt 0 view .LVU256
 811 01c0 31DB     		blt	.L37
 405:Middlewares/LVGL/GUI/lvgl/src/widgets/lv_slider.c ****         }
ARM GAS  C:\Users\ADMINI~1\AppData\Local\Temp\cchwJBFL.s 			page 41


 812              		.loc 1 405 28 discriminator 1 view .LVU257
 813 01c2 B9F1010F 		cmp	r9, #1
 814 01c6 2CD0     		beq	.L38
 405:Middlewares/LVGL/GUI/lvgl/src/widgets/lv_slider.c ****         }
 815              		.loc 1 405 28 discriminator 3 view .LVU258
 816 01c8 E36B     		ldr	r3, [r4, #60]
 817              	.L39:
 405:Middlewares/LVGL/GUI/lvgl/src/widgets/lv_slider.c ****         }
 818              		.loc 1 405 26 discriminator 12 view .LVU259
 819 01ca 3893     		str	r3, [sp, #224]
 820              	.L41:
 410:Middlewares/LVGL/GUI/lvgl/src/widgets/lv_slider.c ****         lv_area_copy(&slider->left_knob_area, &knob_area);
 821              		.loc 1 410 9 is_stmt 1 view .LVU260
 822 01cc 5B46     		mov	r3, fp
 823 01ce 019A     		ldr	r2, [sp, #4]
 824 01d0 38A9     		add	r1, sp, #224
 825 01d2 2046     		mov	r0, r4
 826 01d4 FFF7FEFF 		bl	position_knob
 827              	.LVL89:
 411:Middlewares/LVGL/GUI/lvgl/src/widgets/lv_slider.c **** 
 828              		.loc 1 411 9 view .LVU261
 829 01d8 04F17006 		add	r6, r4, #112
 830              	.LVL90:
 831              	.LBB105:
 832              	.LBI105:
 110:Middlewares/LVGL/GUI/lvgl/src/widgets/../core/../misc/../font/../misc/lv_area.h **** {
 833              		.loc 3 110 20 view .LVU262
 834              	.LBB106:
 112:Middlewares/LVGL/GUI/lvgl/src/widgets/../core/../misc/../font/../misc/lv_area.h ****     dest->y1 = src->y1;
 835              		.loc 3 112 5 view .LVU263
 112:Middlewares/LVGL/GUI/lvgl/src/widgets/../core/../misc/../font/../misc/lv_area.h ****     dest->y1 = src->y1;
 836              		.loc 3 112 19 is_stmt 0 view .LVU264
 837 01dc 389B     		ldr	r3, [sp, #224]
 112:Middlewares/LVGL/GUI/lvgl/src/widgets/../core/../misc/../font/../misc/lv_area.h ****     dest->y1 = src->y1;
 838              		.loc 3 112 14 view .LVU265
 839 01de 2367     		str	r3, [r4, #112]
 113:Middlewares/LVGL/GUI/lvgl/src/widgets/../core/../misc/../font/../misc/lv_area.h ****     dest->x2 = src->x2;
 840              		.loc 3 113 5 is_stmt 1 view .LVU266
 113:Middlewares/LVGL/GUI/lvgl/src/widgets/../core/../misc/../font/../misc/lv_area.h ****     dest->x2 = src->x2;
 841              		.loc 3 113 19 is_stmt 0 view .LVU267
 842 01e0 399B     		ldr	r3, [sp, #228]
 113:Middlewares/LVGL/GUI/lvgl/src/widgets/../core/../misc/../font/../misc/lv_area.h ****     dest->x2 = src->x2;
 843              		.loc 3 113 14 view .LVU268
 844 01e2 6367     		str	r3, [r4, #116]
 114:Middlewares/LVGL/GUI/lvgl/src/widgets/../core/../misc/../font/../misc/lv_area.h ****     dest->y2 = src->y2;
 845              		.loc 3 114 5 is_stmt 1 view .LVU269
 114:Middlewares/LVGL/GUI/lvgl/src/widgets/../core/../misc/../font/../misc/lv_area.h ****     dest->y2 = src->y2;
 846              		.loc 3 114 19 is_stmt 0 view .LVU270
 847 01e4 3A9B     		ldr	r3, [sp, #232]
 114:Middlewares/LVGL/GUI/lvgl/src/widgets/../core/../misc/../font/../misc/lv_area.h ****     dest->y2 = src->y2;
 848              		.loc 3 114 14 view .LVU271
 849 01e6 A367     		str	r3, [r4, #120]
 850              		.loc 3 115 5 is_stmt 1 view .LVU272
 851              		.loc 3 115 19 is_stmt 0 view .LVU273
 852 01e8 3B9B     		ldr	r3, [sp, #236]
 853              		.loc 3 115 14 view .LVU274
 854 01ea E367     		str	r3, [r4, #124]
ARM GAS  C:\Users\ADMINI~1\AppData\Local\Temp\cchwJBFL.s 			page 42


 855              	.LVL91:
 856              		.loc 3 115 14 view .LVU275
 857              	.LBE106:
 858              	.LBE105:
 413:Middlewares/LVGL/GUI/lvgl/src/widgets/lv_slider.c ****         part_draw_dsc.type = LV_SLIDER_DRAW_PART_KNOB_LEFT;
 859              		.loc 1 413 9 is_stmt 1 view .LVU276
 860 01ec 26AD     		add	r5, sp, #152
 861              	.LVL92:
 413:Middlewares/LVGL/GUI/lvgl/src/widgets/lv_slider.c ****         part_draw_dsc.type = LV_SLIDER_DRAW_PART_KNOB_LEFT;
 862              		.loc 1 413 9 is_stmt 0 view .LVU277
 863 01ee 4822     		movs	r2, #72
 864 01f0 02A9     		add	r1, sp, #8
 865 01f2 2846     		mov	r0, r5
 866 01f4 FFF7FEFF 		bl	lv_memcpy
 867              	.LVL93:
 414:Middlewares/LVGL/GUI/lvgl/src/widgets/lv_slider.c ****         part_draw_dsc.draw_area = &slider->left_knob_area;
 868              		.loc 1 414 9 is_stmt 1 view .LVU278
 414:Middlewares/LVGL/GUI/lvgl/src/widgets/lv_slider.c ****         part_draw_dsc.draw_area = &slider->left_knob_area;
 869              		.loc 1 414 28 is_stmt 0 view .LVU279
 870 01f8 0123     		movs	r3, #1
 871 01fa 1693     		str	r3, [sp, #88]
 415:Middlewares/LVGL/GUI/lvgl/src/widgets/lv_slider.c ****         part_draw_dsc.rect_dsc = &knob_rect_dsc;
 872              		.loc 1 415 9 is_stmt 1 view .LVU280
 415:Middlewares/LVGL/GUI/lvgl/src/widgets/lv_slider.c ****         part_draw_dsc.rect_dsc = &knob_rect_dsc;
 873              		.loc 1 415 33 is_stmt 0 view .LVU281
 874 01fc 1796     		str	r6, [sp, #92]
 416:Middlewares/LVGL/GUI/lvgl/src/widgets/lv_slider.c ****         part_draw_dsc.id = 1;
 875              		.loc 1 416 9 is_stmt 1 view .LVU282
 416:Middlewares/LVGL/GUI/lvgl/src/widgets/lv_slider.c ****         part_draw_dsc.id = 1;
 876              		.loc 1 416 32 is_stmt 0 view .LVU283
 877 01fe 1895     		str	r5, [sp, #96]
 417:Middlewares/LVGL/GUI/lvgl/src/widgets/lv_slider.c **** 
 878              		.loc 1 417 9 is_stmt 1 view .LVU284
 417:Middlewares/LVGL/GUI/lvgl/src/widgets/lv_slider.c **** 
 879              		.loc 1 417 26 is_stmt 0 view .LVU285
 880 0200 2293     		str	r3, [sp, #136]
 419:Middlewares/LVGL/GUI/lvgl/src/widgets/lv_slider.c ****         lv_draw_rect(draw_ctx, &knob_rect_dsc, &slider->left_knob_area);
 881              		.loc 1 419 9 is_stmt 1 view .LVU286
 882 0202 14AA     		add	r2, sp, #80
 883 0204 1A21     		movs	r1, #26
 884 0206 2046     		mov	r0, r4
 885 0208 FFF7FEFF 		bl	lv_event_send
 886              	.LVL94:
 420:Middlewares/LVGL/GUI/lvgl/src/widgets/lv_slider.c ****         lv_event_send(obj, LV_EVENT_DRAW_PART_END, &part_draw_dsc);
 887              		.loc 1 420 9 view .LVU287
 888 020c 3246     		mov	r2, r6
 889 020e 2946     		mov	r1, r5
 890 0210 3846     		mov	r0, r7
 891 0212 FFF7FEFF 		bl	lv_draw_rect
 892              	.LVL95:
 421:Middlewares/LVGL/GUI/lvgl/src/widgets/lv_slider.c ****     }
 893              		.loc 1 421 9 view .LVU288
 894 0216 14AA     		add	r2, sp, #80
 895 0218 1B21     		movs	r1, #27
 896 021a 2046     		mov	r0, r4
 897 021c FFF7FEFF 		bl	lv_event_send
 898              	.LVL96:
ARM GAS  C:\Users\ADMINI~1\AppData\Local\Temp\cchwJBFL.s 			page 43


 899              	.LBE104:
 423:Middlewares/LVGL/GUI/lvgl/src/widgets/lv_slider.c **** 
 900              		.loc 1 423 1 is_stmt 0 view .LVU289
 901 0220 6CE7     		b	.L12
 902              	.LVL97:
 903              	.L38:
 904              	.LBB107:
 405:Middlewares/LVGL/GUI/lvgl/src/widgets/lv_slider.c ****         }
 905              		.loc 1 405 28 discriminator 4 view .LVU290
 906 0222 636C     		ldr	r3, [r4, #68]
 907 0224 D1E7     		b	.L39
 908              	.L37:
 405:Middlewares/LVGL/GUI/lvgl/src/widgets/lv_slider.c ****         }
 909              		.loc 1 405 28 discriminator 2 view .LVU291
 910 0226 B9F1010F 		cmp	r9, #1
 911 022a 01D0     		beq	.L40
 405:Middlewares/LVGL/GUI/lvgl/src/widgets/lv_slider.c ****         }
 912              		.loc 1 405 28 discriminator 8 view .LVU292
 913 022c 236C     		ldr	r3, [r4, #64]
 914 022e CCE7     		b	.L39
 915              	.L40:
 405:Middlewares/LVGL/GUI/lvgl/src/widgets/lv_slider.c ****         }
 916              		.loc 1 405 28 discriminator 9 view .LVU293
 917 0230 A36C     		ldr	r3, [r4, #72]
 918 0232 CAE7     		b	.L39
 919              	.L36:
 408:Middlewares/LVGL/GUI/lvgl/src/widgets/lv_slider.c ****         }
 920              		.loc 1 408 13 is_stmt 1 view .LVU294
 408:Middlewares/LVGL/GUI/lvgl/src/widgets/lv_slider.c ****         }
 921              		.loc 1 408 50 is_stmt 0 view .LVU295
 922 0234 A36C     		ldr	r3, [r4, #72]
 408:Middlewares/LVGL/GUI/lvgl/src/widgets/lv_slider.c ****         }
 923              		.loc 1 408 26 view .LVU296
 924 0236 3993     		str	r3, [sp, #228]
 925 0238 C8E7     		b	.L41
 926              	.L56:
 927 023a 00BF     		.align	2
 928              	.L55:
 929 023c 00000000 		.word	.LANCHOR0
 930              	.LBE107:
 931              		.cfi_endproc
 932              	.LFE172:
 934              		.section	.text.lv_slider_event,"ax",%progbits
 935              		.align	1
 936              		.syntax unified
 937              		.thumb
 938              		.thumb_func
 940              	lv_slider_event:
 941              	.LVL98:
 942              	.LFB171:
  95:Middlewares/LVGL/GUI/lvgl/src/widgets/lv_slider.c ****     LV_UNUSED(class_p);
 943              		.loc 1 95 1 is_stmt 1 view -0
 944              		.cfi_startproc
 945              		@ args = 0, pretend = 0, frame = 32
 946              		@ frame_needed = 0, uses_anonymous_args = 0
  95:Middlewares/LVGL/GUI/lvgl/src/widgets/lv_slider.c ****     LV_UNUSED(class_p);
 947              		.loc 1 95 1 is_stmt 0 view .LVU298
ARM GAS  C:\Users\ADMINI~1\AppData\Local\Temp\cchwJBFL.s 			page 44


 948 0000 2DE9F04F 		push	{r4, r5, r6, r7, r8, r9, r10, fp, lr}
 949              	.LCFI6:
 950              		.cfi_def_cfa_offset 36
 951              		.cfi_offset 4, -36
 952              		.cfi_offset 5, -32
 953              		.cfi_offset 6, -28
 954              		.cfi_offset 7, -24
 955              		.cfi_offset 8, -20
 956              		.cfi_offset 9, -16
 957              		.cfi_offset 10, -12
 958              		.cfi_offset 11, -8
 959              		.cfi_offset 14, -4
 960 0004 89B0     		sub	sp, sp, #36
 961              	.LCFI7:
 962              		.cfi_def_cfa_offset 72
 963 0006 0C46     		mov	r4, r1
  96:Middlewares/LVGL/GUI/lvgl/src/widgets/lv_slider.c **** 
 964              		.loc 1 96 5 is_stmt 1 view .LVU299
  98:Middlewares/LVGL/GUI/lvgl/src/widgets/lv_slider.c **** 
 965              		.loc 1 98 5 view .LVU300
 101:Middlewares/LVGL/GUI/lvgl/src/widgets/lv_slider.c ****     if(res != LV_RES_OK) return;
 966              		.loc 1 101 5 view .LVU301
 101:Middlewares/LVGL/GUI/lvgl/src/widgets/lv_slider.c ****     if(res != LV_RES_OK) return;
 967              		.loc 1 101 11 is_stmt 0 view .LVU302
 968 0008 9548     		ldr	r0, .L124
 969              	.LVL99:
 101:Middlewares/LVGL/GUI/lvgl/src/widgets/lv_slider.c ****     if(res != LV_RES_OK) return;
 970              		.loc 1 101 11 view .LVU303
 971 000a FFF7FEFF 		bl	lv_obj_event_base
 972              	.LVL100:
 102:Middlewares/LVGL/GUI/lvgl/src/widgets/lv_slider.c **** 
 973              		.loc 1 102 5 is_stmt 1 view .LVU304
 102:Middlewares/LVGL/GUI/lvgl/src/widgets/lv_slider.c **** 
 974              		.loc 1 102 7 is_stmt 0 view .LVU305
 975 000e 0128     		cmp	r0, #1
 976 0010 02D0     		beq	.L111
 977              	.LVL101:
 978              	.L57:
 326:Middlewares/LVGL/GUI/lvgl/src/widgets/lv_slider.c **** 
 979              		.loc 1 326 1 view .LVU306
 980 0012 09B0     		add	sp, sp, #36
 981              	.LCFI8:
 982              		.cfi_remember_state
 983              		.cfi_def_cfa_offset 36
 984              		@ sp needed
 985 0014 BDE8F08F 		pop	{r4, r5, r6, r7, r8, r9, r10, fp, pc}
 986              	.LVL102:
 987              	.L111:
 988              	.LCFI9:
 989              		.cfi_restore_state
 104:Middlewares/LVGL/GUI/lvgl/src/widgets/lv_slider.c ****     lv_obj_t * obj = lv_event_get_target(e);
 990              		.loc 1 104 5 is_stmt 1 view .LVU307
 104:Middlewares/LVGL/GUI/lvgl/src/widgets/lv_slider.c ****     lv_obj_t * obj = lv_event_get_target(e);
 991              		.loc 1 104 28 is_stmt 0 view .LVU308
 992 0018 2046     		mov	r0, r4
 993              	.LVL103:
 104:Middlewares/LVGL/GUI/lvgl/src/widgets/lv_slider.c ****     lv_obj_t * obj = lv_event_get_target(e);
ARM GAS  C:\Users\ADMINI~1\AppData\Local\Temp\cchwJBFL.s 			page 45


 994              		.loc 1 104 28 view .LVU309
 995 001a FFF7FEFF 		bl	lv_event_get_code
 996              	.LVL104:
 997 001e 0646     		mov	r6, r0
 998              	.LVL105:
 105:Middlewares/LVGL/GUI/lvgl/src/widgets/lv_slider.c ****     lv_slider_t * slider = (lv_slider_t *)obj;
 999              		.loc 1 105 5 is_stmt 1 view .LVU310
 105:Middlewares/LVGL/GUI/lvgl/src/widgets/lv_slider.c ****     lv_slider_t * slider = (lv_slider_t *)obj;
 1000              		.loc 1 105 22 is_stmt 0 view .LVU311
 1001 0020 2046     		mov	r0, r4
 1002 0022 FFF7FEFF 		bl	lv_event_get_target
 1003              	.LVL106:
 1004 0026 0546     		mov	r5, r0
 1005              	.LVL107:
 106:Middlewares/LVGL/GUI/lvgl/src/widgets/lv_slider.c ****     lv_slider_mode_t type = lv_slider_get_mode(obj);
 1006              		.loc 1 106 5 is_stmt 1 view .LVU312
 107:Middlewares/LVGL/GUI/lvgl/src/widgets/lv_slider.c **** 
 1007              		.loc 1 107 5 view .LVU313
 1008              	.LBB168:
 1009              	.LBI168:
 177:Middlewares/LVGL/GUI/lvgl/src/widgets/lv_slider.h **** {
 1010              		.loc 4 177 32 view .LVU314
 1011              	.LBB169:
 179:Middlewares/LVGL/GUI/lvgl/src/widgets/lv_slider.h ****     if(mode == LV_BAR_MODE_SYMMETRICAL) return LV_SLIDER_MODE_SYMMETRICAL;
 1012              		.loc 4 179 5 view .LVU315
 179:Middlewares/LVGL/GUI/lvgl/src/widgets/lv_slider.h ****     if(mode == LV_BAR_MODE_SYMMETRICAL) return LV_SLIDER_MODE_SYMMETRICAL;
 1013              		.loc 4 179 26 is_stmt 0 view .LVU316
 1014 0028 FFF7FEFF 		bl	lv_bar_get_mode
 1015              	.LVL108:
 179:Middlewares/LVGL/GUI/lvgl/src/widgets/lv_slider.h ****     if(mode == LV_BAR_MODE_SYMMETRICAL) return LV_SLIDER_MODE_SYMMETRICAL;
 1016              		.loc 4 179 26 view .LVU317
 1017 002c 0746     		mov	r7, r0
 1018              	.LVL109:
 180:Middlewares/LVGL/GUI/lvgl/src/widgets/lv_slider.h ****     else if(mode == LV_BAR_MODE_RANGE) return LV_SLIDER_MODE_RANGE;
 1019              		.loc 4 180 5 is_stmt 1 view .LVU318
 180:Middlewares/LVGL/GUI/lvgl/src/widgets/lv_slider.h ****     else if(mode == LV_BAR_MODE_RANGE) return LV_SLIDER_MODE_RANGE;
 1020              		.loc 4 180 7 is_stmt 0 view .LVU319
 1021 002e 0128     		cmp	r0, #1
 1022 0030 02D0     		beq	.L59
 181:Middlewares/LVGL/GUI/lvgl/src/widgets/lv_slider.h ****     else return LV_SLIDER_MODE_NORMAL;
 1023              		.loc 4 181 10 is_stmt 1 view .LVU320
 181:Middlewares/LVGL/GUI/lvgl/src/widgets/lv_slider.h ****     else return LV_SLIDER_MODE_NORMAL;
 1024              		.loc 4 181 12 is_stmt 0 view .LVU321
 1025 0032 0228     		cmp	r0, #2
 1026 0034 00D0     		beq	.L59
 1027              		.loc 4 182 17 view .LVU322
 1028 0036 0027     		movs	r7, #0
 1029              	.L59:
 1030              	.LVL110:
 1031              		.loc 4 182 17 view .LVU323
 1032              	.LBE169:
 1033              	.LBE168:
 110:Middlewares/LVGL/GUI/lvgl/src/widgets/lv_slider.c ****         lv_hit_test_info_t * info = lv_event_get_param(e);
 1034              		.loc 1 110 5 is_stmt 1 view .LVU324
 110:Middlewares/LVGL/GUI/lvgl/src/widgets/lv_slider.c ****         lv_hit_test_info_t * info = lv_event_get_param(e);
 1035              		.loc 1 110 7 is_stmt 0 view .LVU325
 1036 0038 112E     		cmp	r6, #17
ARM GAS  C:\Users\ADMINI~1\AppData\Local\Temp\cchwJBFL.s 			page 46


 1037 003a 1CD0     		beq	.L112
 127:Middlewares/LVGL/GUI/lvgl/src/widgets/lv_slider.c ****         lv_obj_invalidate(obj);
 1038              		.loc 1 127 10 is_stmt 1 view .LVU326
 127:Middlewares/LVGL/GUI/lvgl/src/widgets/lv_slider.c ****         lv_obj_invalidate(obj);
 1039              		.loc 1 127 12 is_stmt 0 view .LVU327
 1040 003c 012E     		cmp	r6, #1
 1041 003e 53D0     		beq	.L113
 191:Middlewares/LVGL/GUI/lvgl/src/widgets/lv_slider.c ****         lv_indev_t * indev = lv_indev_get_act();
 1042              		.loc 1 191 10 is_stmt 1 view .LVU328
 191:Middlewares/LVGL/GUI/lvgl/src/widgets/lv_slider.c ****         lv_indev_t * indev = lv_indev_get_act();
 1043              		.loc 1 191 12 is_stmt 0 view .LVU329
 1044 0040 022E     		cmp	r6, #2
 1045 0042 00F00F81 		beq	.L114
 1046              	.L77:
 249:Middlewares/LVGL/GUI/lvgl/src/widgets/lv_slider.c ****         slider->dragging = false;
 1047              		.loc 1 249 10 is_stmt 1 view .LVU330
 249:Middlewares/LVGL/GUI/lvgl/src/widgets/lv_slider.c ****         slider->dragging = false;
 1048              		.loc 1 249 12 is_stmt 0 view .LVU331
 1049 0046 082E     		cmp	r6, #8
 1050 0048 00F08E81 		beq	.L87
 249:Middlewares/LVGL/GUI/lvgl/src/widgets/lv_slider.c ****         slider->dragging = false;
 1051              		.loc 1 249 39 discriminator 1 view .LVU332
 1052 004c 032E     		cmp	r6, #3
 1053 004e 00F08B81 		beq	.L87
 275:Middlewares/LVGL/GUI/lvgl/src/widgets/lv_slider.c ****         lv_indev_type_t indev_type = lv_indev_get_type(lv_indev_get_act());
 1054              		.loc 1 275 10 is_stmt 1 view .LVU333
 275:Middlewares/LVGL/GUI/lvgl/src/widgets/lv_slider.c ****         lv_indev_type_t indev_type = lv_indev_get_type(lv_indev_get_act());
 1055              		.loc 1 275 12 is_stmt 0 view .LVU334
 1056 0052 0E2E     		cmp	r6, #14
 1057 0054 00F0C981 		beq	.L115
 281:Middlewares/LVGL/GUI/lvgl/src/widgets/lv_slider.c ****         lv_obj_refresh_ext_draw_size(obj);
 1058              		.loc 1 281 10 is_stmt 1 view .LVU335
 281:Middlewares/LVGL/GUI/lvgl/src/widgets/lv_slider.c ****         lv_obj_refresh_ext_draw_size(obj);
 1059              		.loc 1 281 12 is_stmt 0 view .LVU336
 1060 0058 292E     		cmp	r6, #41
 1061 005a 00F0D681 		beq	.L116
 284:Middlewares/LVGL/GUI/lvgl/src/widgets/lv_slider.c ****         lv_coord_t knob_left = lv_obj_get_style_pad_left(obj, LV_PART_KNOB);
 1062              		.loc 1 284 10 is_stmt 1 view .LVU337
 284:Middlewares/LVGL/GUI/lvgl/src/widgets/lv_slider.c ****         lv_coord_t knob_left = lv_obj_get_style_pad_left(obj, LV_PART_KNOB);
 1063              		.loc 1 284 12 is_stmt 0 view .LVU338
 1064 005e 132E     		cmp	r6, #19
 1065 0060 00F0D781 		beq	.L117
 305:Middlewares/LVGL/GUI/lvgl/src/widgets/lv_slider.c ****         char c = *((char *)lv_event_get_param(e));
 1066              		.loc 1 305 10 is_stmt 1 view .LVU339
 305:Middlewares/LVGL/GUI/lvgl/src/widgets/lv_slider.c ****         char c = *((char *)lv_event_get_param(e));
 1067              		.loc 1 305 12 is_stmt 0 view .LVU340
 1068 0064 0D2E     		cmp	r6, #13
 1069 0066 00F04882 		beq	.L118
 323:Middlewares/LVGL/GUI/lvgl/src/widgets/lv_slider.c ****         draw_knob(e);
 1070              		.loc 1 323 10 is_stmt 1 view .LVU341
 323:Middlewares/LVGL/GUI/lvgl/src/widgets/lv_slider.c ****         draw_knob(e);
 1071              		.loc 1 323 12 is_stmt 0 view .LVU342
 1072 006a 152E     		cmp	r6, #21
 1073 006c D1D1     		bne	.L57
 324:Middlewares/LVGL/GUI/lvgl/src/widgets/lv_slider.c ****     }
 1074              		.loc 1 324 9 is_stmt 1 view .LVU343
 1075 006e 2046     		mov	r0, r4
ARM GAS  C:\Users\ADMINI~1\AppData\Local\Temp\cchwJBFL.s 			page 47


 1076 0070 FFF7FEFF 		bl	draw_knob
 1077              	.LVL111:
 1078 0074 CDE7     		b	.L57
 1079              	.L112:
 1080              	.LBB170:
 111:Middlewares/LVGL/GUI/lvgl/src/widgets/lv_slider.c ****         lv_coord_t ext_click_area = obj->spec_attr ? obj->spec_attr->ext_click_pad : 0;
 1081              		.loc 1 111 9 view .LVU344
 111:Middlewares/LVGL/GUI/lvgl/src/widgets/lv_slider.c ****         lv_coord_t ext_click_area = obj->spec_attr ? obj->spec_attr->ext_click_pad : 0;
 1082              		.loc 1 111 37 is_stmt 0 view .LVU345
 1083 0076 2046     		mov	r0, r4
 1084 0078 FFF7FEFF 		bl	lv_event_get_param
 1085              	.LVL112:
 1086 007c 0446     		mov	r4, r0
 1087              	.LVL113:
 112:Middlewares/LVGL/GUI/lvgl/src/widgets/lv_slider.c **** 
 1088              		.loc 1 112 9 is_stmt 1 view .LVU346
 112:Middlewares/LVGL/GUI/lvgl/src/widgets/lv_slider.c **** 
 1089              		.loc 1 112 40 is_stmt 0 view .LVU347
 1090 007e AB68     		ldr	r3, [r5, #8]
 112:Middlewares/LVGL/GUI/lvgl/src/widgets/lv_slider.c **** 
 1091              		.loc 1 112 84 view .LVU348
 1092 0080 002B     		cmp	r3, #0
 1093 0082 2FD0     		beq	.L107
 112:Middlewares/LVGL/GUI/lvgl/src/widgets/lv_slider.c **** 
 1094              		.loc 1 112 84 discriminator 1 view .LVU349
 1095 0084 9E69     		ldr	r6, [r3, #24]
 1096              	.LVL114:
 1097              	.L61:
 115:Middlewares/LVGL/GUI/lvgl/src/widgets/lv_slider.c ****         lv_area_copy(&a, &slider->right_knob_area);
 1098              		.loc 1 115 9 is_stmt 1 discriminator 4 view .LVU350
 116:Middlewares/LVGL/GUI/lvgl/src/widgets/lv_slider.c ****         lv_area_increase(&a, ext_click_area, ext_click_area);
 1099              		.loc 1 116 9 discriminator 4 view .LVU351
 1100              	.LBB171:
 1101              	.LBI171:
 110:Middlewares/LVGL/GUI/lvgl/src/widgets/../core/../misc/../font/../misc/lv_area.h **** {
 1102              		.loc 3 110 20 discriminator 4 view .LVU352
 1103              	.LBB172:
 112:Middlewares/LVGL/GUI/lvgl/src/widgets/../core/../misc/../font/../misc/lv_area.h ****     dest->y1 = src->y1;
 1104              		.loc 3 112 5 discriminator 4 view .LVU353
 112:Middlewares/LVGL/GUI/lvgl/src/widgets/../core/../misc/../font/../misc/lv_area.h ****     dest->y1 = src->y1;
 1105              		.loc 3 112 19 is_stmt 0 discriminator 4 view .LVU354
 1106 0086 D5F88030 		ldr	r3, [r5, #128]
 112:Middlewares/LVGL/GUI/lvgl/src/widgets/../core/../misc/../font/../misc/lv_area.h ****     dest->y1 = src->y1;
 1107              		.loc 3 112 14 discriminator 4 view .LVU355
 1108 008a 0493     		str	r3, [sp, #16]
 113:Middlewares/LVGL/GUI/lvgl/src/widgets/../core/../misc/../font/../misc/lv_area.h ****     dest->x2 = src->x2;
 1109              		.loc 3 113 5 is_stmt 1 discriminator 4 view .LVU356
 113:Middlewares/LVGL/GUI/lvgl/src/widgets/../core/../misc/../font/../misc/lv_area.h ****     dest->x2 = src->x2;
 1110              		.loc 3 113 19 is_stmt 0 discriminator 4 view .LVU357
 1111 008c D5F88430 		ldr	r3, [r5, #132]
 113:Middlewares/LVGL/GUI/lvgl/src/widgets/../core/../misc/../font/../misc/lv_area.h ****     dest->x2 = src->x2;
 1112              		.loc 3 113 14 discriminator 4 view .LVU358
 1113 0090 0593     		str	r3, [sp, #20]
 114:Middlewares/LVGL/GUI/lvgl/src/widgets/../core/../misc/../font/../misc/lv_area.h ****     dest->y2 = src->y2;
 1114              		.loc 3 114 5 is_stmt 1 discriminator 4 view .LVU359
 114:Middlewares/LVGL/GUI/lvgl/src/widgets/../core/../misc/../font/../misc/lv_area.h ****     dest->y2 = src->y2;
 1115              		.loc 3 114 19 is_stmt 0 discriminator 4 view .LVU360
ARM GAS  C:\Users\ADMINI~1\AppData\Local\Temp\cchwJBFL.s 			page 48


 1116 0092 D5F88830 		ldr	r3, [r5, #136]
 114:Middlewares/LVGL/GUI/lvgl/src/widgets/../core/../misc/../font/../misc/lv_area.h ****     dest->y2 = src->y2;
 1117              		.loc 3 114 14 discriminator 4 view .LVU361
 1118 0096 0693     		str	r3, [sp, #24]
 1119              		.loc 3 115 5 is_stmt 1 discriminator 4 view .LVU362
 1120              		.loc 3 115 19 is_stmt 0 discriminator 4 view .LVU363
 1121 0098 D5F88C30 		ldr	r3, [r5, #140]
 1122              		.loc 3 115 14 discriminator 4 view .LVU364
 1123 009c 0793     		str	r3, [sp, #28]
 1124              	.LVL115:
 1125              		.loc 3 115 14 discriminator 4 view .LVU365
 1126              	.LBE172:
 1127              	.LBE171:
 117:Middlewares/LVGL/GUI/lvgl/src/widgets/lv_slider.c ****         info->res = _lv_area_is_point_on(&a, info->point, 0);
 1128              		.loc 1 117 9 is_stmt 1 discriminator 4 view .LVU366
 1129 009e 3246     		mov	r2, r6
 1130 00a0 3146     		mov	r1, r6
 1131 00a2 04A8     		add	r0, sp, #16
 1132              	.LVL116:
 117:Middlewares/LVGL/GUI/lvgl/src/widgets/lv_slider.c ****         info->res = _lv_area_is_point_on(&a, info->point, 0);
 1133              		.loc 1 117 9 is_stmt 0 discriminator 4 view .LVU367
 1134 00a4 FFF7FEFF 		bl	lv_area_increase
 1135              	.LVL117:
 118:Middlewares/LVGL/GUI/lvgl/src/widgets/lv_slider.c **** 
 1136              		.loc 1 118 9 is_stmt 1 discriminator 4 view .LVU368
 118:Middlewares/LVGL/GUI/lvgl/src/widgets/lv_slider.c **** 
 1137              		.loc 1 118 21 is_stmt 0 discriminator 4 view .LVU369
 1138 00a8 0022     		movs	r2, #0
 1139 00aa 2168     		ldr	r1, [r4]
 1140 00ac 04A8     		add	r0, sp, #16
 1141 00ae FFF7FEFF 		bl	_lv_area_is_point_on
 1142              	.LVL118:
 118:Middlewares/LVGL/GUI/lvgl/src/widgets/lv_slider.c **** 
 1143              		.loc 1 118 19 discriminator 4 view .LVU370
 1144 00b2 2071     		strb	r0, [r4, #4]
 121:Middlewares/LVGL/GUI/lvgl/src/widgets/lv_slider.c ****             lv_area_copy(&a, &slider->left_knob_area);
 1145              		.loc 1 121 9 is_stmt 1 discriminator 4 view .LVU371
 121:Middlewares/LVGL/GUI/lvgl/src/widgets/lv_slider.c ****             lv_area_copy(&a, &slider->left_knob_area);
 1146              		.loc 1 121 11 is_stmt 0 discriminator 4 view .LVU372
 1147 00b4 0028     		cmp	r0, #0
 1148 00b6 ACD1     		bne	.L57
 121:Middlewares/LVGL/GUI/lvgl/src/widgets/lv_slider.c ****             lv_area_copy(&a, &slider->left_knob_area);
 1149              		.loc 1 121 33 discriminator 1 view .LVU373
 1150 00b8 022F     		cmp	r7, #2
 1151 00ba AAD1     		bne	.L57
 122:Middlewares/LVGL/GUI/lvgl/src/widgets/lv_slider.c ****             lv_area_increase(&a, ext_click_area, ext_click_area);
 1152              		.loc 1 122 13 is_stmt 1 view .LVU374
 1153              	.LVL119:
 1154              	.LBB173:
 1155              	.LBI173:
 110:Middlewares/LVGL/GUI/lvgl/src/widgets/../core/../misc/../font/../misc/lv_area.h **** {
 1156              		.loc 3 110 20 view .LVU375
 1157              	.LBB174:
 112:Middlewares/LVGL/GUI/lvgl/src/widgets/../core/../misc/../font/../misc/lv_area.h ****     dest->y1 = src->y1;
 1158              		.loc 3 112 5 view .LVU376
 112:Middlewares/LVGL/GUI/lvgl/src/widgets/../core/../misc/../font/../misc/lv_area.h ****     dest->y1 = src->y1;
 1159              		.loc 3 112 19 is_stmt 0 view .LVU377
ARM GAS  C:\Users\ADMINI~1\AppData\Local\Temp\cchwJBFL.s 			page 49


 1160 00bc 2B6F     		ldr	r3, [r5, #112]
 112:Middlewares/LVGL/GUI/lvgl/src/widgets/../core/../misc/../font/../misc/lv_area.h ****     dest->y1 = src->y1;
 1161              		.loc 3 112 14 view .LVU378
 1162 00be 0493     		str	r3, [sp, #16]
 113:Middlewares/LVGL/GUI/lvgl/src/widgets/../core/../misc/../font/../misc/lv_area.h ****     dest->x2 = src->x2;
 1163              		.loc 3 113 5 is_stmt 1 view .LVU379
 113:Middlewares/LVGL/GUI/lvgl/src/widgets/../core/../misc/../font/../misc/lv_area.h ****     dest->x2 = src->x2;
 1164              		.loc 3 113 19 is_stmt 0 view .LVU380
 1165 00c0 6B6F     		ldr	r3, [r5, #116]
 113:Middlewares/LVGL/GUI/lvgl/src/widgets/../core/../misc/../font/../misc/lv_area.h ****     dest->x2 = src->x2;
 1166              		.loc 3 113 14 view .LVU381
 1167 00c2 0593     		str	r3, [sp, #20]
 114:Middlewares/LVGL/GUI/lvgl/src/widgets/../core/../misc/../font/../misc/lv_area.h ****     dest->y2 = src->y2;
 1168              		.loc 3 114 5 is_stmt 1 view .LVU382
 114:Middlewares/LVGL/GUI/lvgl/src/widgets/../core/../misc/../font/../misc/lv_area.h ****     dest->y2 = src->y2;
 1169              		.loc 3 114 19 is_stmt 0 view .LVU383
 1170 00c4 AB6F     		ldr	r3, [r5, #120]
 114:Middlewares/LVGL/GUI/lvgl/src/widgets/../core/../misc/../font/../misc/lv_area.h ****     dest->y2 = src->y2;
 1171              		.loc 3 114 14 view .LVU384
 1172 00c6 0693     		str	r3, [sp, #24]
 1173              		.loc 3 115 5 is_stmt 1 view .LVU385
 1174              		.loc 3 115 19 is_stmt 0 view .LVU386
 1175 00c8 EB6F     		ldr	r3, [r5, #124]
 1176              		.loc 3 115 14 view .LVU387
 1177 00ca 0793     		str	r3, [sp, #28]
 1178              	.LVL120:
 1179              		.loc 3 115 14 view .LVU388
 1180              	.LBE174:
 1181              	.LBE173:
 123:Middlewares/LVGL/GUI/lvgl/src/widgets/lv_slider.c ****             info->res = _lv_area_is_point_on(&a, info->point, 0);
 1182              		.loc 1 123 13 is_stmt 1 view .LVU389
 1183 00cc 3246     		mov	r2, r6
 1184 00ce 3146     		mov	r1, r6
 1185 00d0 04A8     		add	r0, sp, #16
 1186 00d2 FFF7FEFF 		bl	lv_area_increase
 1187              	.LVL121:
 124:Middlewares/LVGL/GUI/lvgl/src/widgets/lv_slider.c ****         }
 1188              		.loc 1 124 13 view .LVU390
 124:Middlewares/LVGL/GUI/lvgl/src/widgets/lv_slider.c ****         }
 1189              		.loc 1 124 25 is_stmt 0 view .LVU391
 1190 00d6 0022     		movs	r2, #0
 1191 00d8 2168     		ldr	r1, [r4]
 1192 00da 04A8     		add	r0, sp, #16
 1193 00dc FFF7FEFF 		bl	_lv_area_is_point_on
 1194              	.LVL122:
 124:Middlewares/LVGL/GUI/lvgl/src/widgets/lv_slider.c ****         }
 1195              		.loc 1 124 23 view .LVU392
 1196 00e0 2071     		strb	r0, [r4, #4]
 1197 00e2 96E7     		b	.L57
 1198              	.LVL123:
 1199              	.L107:
 112:Middlewares/LVGL/GUI/lvgl/src/widgets/lv_slider.c **** 
 1200              		.loc 1 112 84 view .LVU393
 1201 00e4 0026     		movs	r6, #0
 1202              	.LVL124:
 112:Middlewares/LVGL/GUI/lvgl/src/widgets/lv_slider.c **** 
 1203              		.loc 1 112 84 view .LVU394
ARM GAS  C:\Users\ADMINI~1\AppData\Local\Temp\cchwJBFL.s 			page 50


 1204 00e6 CEE7     		b	.L61
 1205              	.LVL125:
 1206              	.L113:
 112:Middlewares/LVGL/GUI/lvgl/src/widgets/lv_slider.c **** 
 1207              		.loc 1 112 84 view .LVU395
 1208              	.LBE170:
 1209              	.LBB175:
 128:Middlewares/LVGL/GUI/lvgl/src/widgets/lv_slider.c **** 
 1210              		.loc 1 128 9 is_stmt 1 view .LVU396
 1211 00e8 2846     		mov	r0, r5
 1212 00ea FFF7FEFF 		bl	lv_obj_invalidate
 1213              	.LVL126:
 130:Middlewares/LVGL/GUI/lvgl/src/widgets/lv_slider.c ****         slider->dragging = true;
 1214              		.loc 1 130 9 view .LVU397
 131:Middlewares/LVGL/GUI/lvgl/src/widgets/lv_slider.c ****         if(type == LV_SLIDER_MODE_NORMAL || type == LV_SLIDER_MODE_SYMMETRICAL) {
 1215              		.loc 1 131 9 view .LVU398
 131:Middlewares/LVGL/GUI/lvgl/src/widgets/lv_slider.c ****         if(type == LV_SLIDER_MODE_NORMAL || type == LV_SLIDER_MODE_SYMMETRICAL) {
 1216              		.loc 1 131 26 is_stmt 0 view .LVU399
 1217 00ee 95F89430 		ldrb	r3, [r5, #148]	@ zero_extendqisi2
 1218 00f2 43F00103 		orr	r3, r3, #1
 1219 00f6 85F89430 		strb	r3, [r5, #148]
 132:Middlewares/LVGL/GUI/lvgl/src/widgets/lv_slider.c ****             slider->value_to_set = &slider->bar.cur_value;
 1220              		.loc 1 132 9 is_stmt 1 view .LVU400
 132:Middlewares/LVGL/GUI/lvgl/src/widgets/lv_slider.c ****             slider->value_to_set = &slider->bar.cur_value;
 1221              		.loc 1 132 11 is_stmt 0 view .LVU401
 1222 00fa 012F     		cmp	r7, #1
 1223 00fc 4ED9     		bls	.L119
 135:Middlewares/LVGL/GUI/lvgl/src/widgets/lv_slider.c ****             lv_indev_get_point(lv_indev_get_act(), &p);
 1224              		.loc 1 135 14 is_stmt 1 view .LVU402
 135:Middlewares/LVGL/GUI/lvgl/src/widgets/lv_slider.c ****             lv_indev_get_point(lv_indev_get_act(), &p);
 1225              		.loc 1 135 16 is_stmt 0 view .LVU403
 1226 00fe 022F     		cmp	r7, #2
 1227 0100 87D1     		bne	.L57
 1228              	.LBB176:
 136:Middlewares/LVGL/GUI/lvgl/src/widgets/lv_slider.c ****             bool hor = lv_obj_get_width(obj) >= lv_obj_get_height(obj);
 1229              		.loc 1 136 13 is_stmt 1 view .LVU404
 136:Middlewares/LVGL/GUI/lvgl/src/widgets/lv_slider.c ****             bool hor = lv_obj_get_width(obj) >= lv_obj_get_height(obj);
 1230              		.loc 1 136 32 is_stmt 0 view .LVU405
 1231 0102 FFF7FEFF 		bl	lv_indev_get_act
 1232              	.LVL127:
 136:Middlewares/LVGL/GUI/lvgl/src/widgets/lv_slider.c ****             bool hor = lv_obj_get_width(obj) >= lv_obj_get_height(obj);
 1233              		.loc 1 136 13 view .LVU406
 1234 0106 04A9     		add	r1, sp, #16
 1235 0108 FFF7FEFF 		bl	lv_indev_get_point
 1236              	.LVL128:
 137:Middlewares/LVGL/GUI/lvgl/src/widgets/lv_slider.c ****             lv_base_dir_t base_dir = lv_obj_get_style_base_dir(obj, LV_PART_MAIN);
 1237              		.loc 1 137 13 is_stmt 1 view .LVU407
 137:Middlewares/LVGL/GUI/lvgl/src/widgets/lv_slider.c ****             lv_base_dir_t base_dir = lv_obj_get_style_base_dir(obj, LV_PART_MAIN);
 1238              		.loc 1 137 24 is_stmt 0 view .LVU408
 1239 010c 2846     		mov	r0, r5
 1240 010e FFF7FEFF 		bl	lv_obj_get_width
 1241              	.LVL129:
 1242 0112 0646     		mov	r6, r0
 1243              	.LVL130:
 137:Middlewares/LVGL/GUI/lvgl/src/widgets/lv_slider.c ****             lv_base_dir_t base_dir = lv_obj_get_style_base_dir(obj, LV_PART_MAIN);
 1244              		.loc 1 137 49 view .LVU409
 1245 0114 2846     		mov	r0, r5
ARM GAS  C:\Users\ADMINI~1\AppData\Local\Temp\cchwJBFL.s 			page 51


 1246 0116 FFF7FEFF 		bl	lv_obj_get_height
 1247              	.LVL131:
 1248 011a 0446     		mov	r4, r0
 1249              	.LVL132:
 138:Middlewares/LVGL/GUI/lvgl/src/widgets/lv_slider.c **** 
 1250              		.loc 1 138 13 is_stmt 1 view .LVU410
 1251              	.LBB177:
 1252              	.LBI177:
 542:Middlewares/LVGL/GUI/lvgl/src/widgets/../core/lv_obj_style_gen.h **** {
 1253              		.loc 2 542 29 view .LVU411
 1254              	.LBB178:
 544:Middlewares/LVGL/GUI/lvgl/src/widgets/../core/lv_obj_style_gen.h ****     return (lv_base_dir_t)v.num;
 1255              		.loc 2 544 5 view .LVU412
 544:Middlewares/LVGL/GUI/lvgl/src/widgets/../core/lv_obj_style_gen.h ****     return (lv_base_dir_t)v.num;
 1256              		.loc 2 544 26 is_stmt 0 view .LVU413
 1257 011c 41F26A42 		movw	r2, #5226
 1258 0120 0021     		movs	r1, #0
 1259 0122 2846     		mov	r0, r5
 1260              	.LVL133:
 544:Middlewares/LVGL/GUI/lvgl/src/widgets/../core/lv_obj_style_gen.h ****     return (lv_base_dir_t)v.num;
 1261              		.loc 2 544 26 view .LVU414
 1262 0124 FFF7FEFF 		bl	lv_obj_get_style_prop
 1263              	.LVL134:
 1264              		.loc 2 545 5 is_stmt 1 view .LVU415
 1265              		.loc 2 545 12 is_stmt 0 view .LVU416
 1266 0128 C3B2     		uxtb	r3, r0
 1267              	.LVL135:
 1268              		.loc 2 545 12 view .LVU417
 1269              	.LBE178:
 1270              	.LBE177:
 140:Middlewares/LVGL/GUI/lvgl/src/widgets/lv_slider.c ****             if(hor) {
 1271              		.loc 1 140 13 is_stmt 1 view .LVU418
 141:Middlewares/LVGL/GUI/lvgl/src/widgets/lv_slider.c ****                 if((base_dir != LV_BASE_DIR_RTL && p.x > slider->right_knob_area.x2) || (base_dir =
 1272              		.loc 1 141 13 view .LVU419
 141:Middlewares/LVGL/GUI/lvgl/src/widgets/lv_slider.c ****                 if((base_dir != LV_BASE_DIR_RTL && p.x > slider->right_knob_area.x2) || (base_dir =
 1273              		.loc 1 141 15 is_stmt 0 view .LVU420
 1274 012a A642     		cmp	r6, r4
 1275 012c 59DB     		blt	.L66
 142:Middlewares/LVGL/GUI/lvgl/src/widgets/lv_slider.c ****                                                                                          p.x < slid
 1276              		.loc 1 142 17 is_stmt 1 view .LVU421
 142:Middlewares/LVGL/GUI/lvgl/src/widgets/lv_slider.c ****                                                                                          p.x < slid
 1277              		.loc 1 142 19 is_stmt 0 view .LVU422
 1278 012e 012B     		cmp	r3, #1
 1279 0130 04D0     		beq	.L67
 142:Middlewares/LVGL/GUI/lvgl/src/widgets/lv_slider.c ****                                                                                          p.x < slid
 1280              		.loc 1 142 81 discriminator 1 view .LVU423
 1281 0132 D5F88820 		ldr	r2, [r5, #136]
 142:Middlewares/LVGL/GUI/lvgl/src/widgets/lv_slider.c ****                                                                                          p.x < slid
 1282              		.loc 1 142 49 discriminator 1 view .LVU424
 1283 0136 0499     		ldr	r1, [sp, #16]
 1284 0138 9142     		cmp	r1, r2
 1285 013a 39DC     		bgt	.L68
 1286              	.L67:
 142:Middlewares/LVGL/GUI/lvgl/src/widgets/lv_slider.c ****                                                                                          p.x < slid
 1287              		.loc 1 142 86 discriminator 3 view .LVU425
 1288 013c 012B     		cmp	r3, #1
 1289 013e 32D0     		beq	.L120
ARM GAS  C:\Users\ADMINI~1\AppData\Local\Temp\cchwJBFL.s 			page 52


 1290              	.L69:
 146:Middlewares/LVGL/GUI/lvgl/src/widgets/lv_slider.c ****                                                                                              p.x > 
 1291              		.loc 1 146 22 is_stmt 1 view .LVU426
 146:Middlewares/LVGL/GUI/lvgl/src/widgets/lv_slider.c ****                                                                                              p.x > 
 1292              		.loc 1 146 24 is_stmt 0 view .LVU427
 1293 0140 012B     		cmp	r3, #1
 1294 0142 03D0     		beq	.L70
 146:Middlewares/LVGL/GUI/lvgl/src/widgets/lv_slider.c ****                                                                                              p.x > 
 1295              		.loc 1 146 85 discriminator 1 view .LVU428
 1296 0144 2A6F     		ldr	r2, [r5, #112]
 146:Middlewares/LVGL/GUI/lvgl/src/widgets/lv_slider.c ****                                                                                              p.x > 
 1297              		.loc 1 146 54 discriminator 1 view .LVU429
 1298 0146 0499     		ldr	r1, [sp, #16]
 1299 0148 9142     		cmp	r1, r2
 1300 014a 3ADB     		blt	.L71
 1301              	.L70:
 146:Middlewares/LVGL/GUI/lvgl/src/widgets/lv_slider.c ****                                                                                              p.x > 
 1302              		.loc 1 146 90 discriminator 3 view .LVU430
 1303 014c 012B     		cmp	r3, #1
 1304 014e 34D0     		beq	.L121
 1305              	.LVL136:
 1306              	.L72:
 152:Middlewares/LVGL/GUI/lvgl/src/widgets/lv_slider.c ****                     dist_right = LV_ABS((slider->right_knob_area.x1 + (slider->right_knob_area.x2 -
 1307              		.loc 1 152 21 is_stmt 1 view .LVU431
 152:Middlewares/LVGL/GUI/lvgl/src/widgets/lv_slider.c ****                     dist_right = LV_ABS((slider->right_knob_area.x1 + (slider->right_knob_area.x2 -
 1308              		.loc 1 152 33 is_stmt 0 view .LVU432
 1309 0150 2B6F     		ldr	r3, [r5, #112]
 1310 0152 AA6F     		ldr	r2, [r5, #120]
 1311 0154 D21A     		subs	r2, r2, r3
 1312 0156 02EBD272 		add	r2, r2, r2, lsr #31
 1313 015a 03EB6202 		add	r2, r3, r2, asr #1
 1314 015e 0498     		ldr	r0, [sp, #16]
 1315              	.LVL137:
 152:Middlewares/LVGL/GUI/lvgl/src/widgets/lv_slider.c ****                     dist_right = LV_ABS((slider->right_knob_area.x1 + (slider->right_knob_area.x2 -
 1316              		.loc 1 152 33 view .LVU433
 1317 0160 121A     		subs	r2, r2, r0
 152:Middlewares/LVGL/GUI/lvgl/src/widgets/lv_slider.c ****                     dist_right = LV_ABS((slider->right_knob_area.x1 + (slider->right_knob_area.x2 -
 1318              		.loc 1 152 31 view .LVU434
 1319 0162 002A     		cmp	r2, #0
 1320 0164 B8BF     		it	lt
 1321 0166 5242     		rsblt	r2, r2, #0
 1322              	.LVL138:
 153:Middlewares/LVGL/GUI/lvgl/src/widgets/lv_slider.c **** 
 1323              		.loc 1 153 21 is_stmt 1 view .LVU435
 153:Middlewares/LVGL/GUI/lvgl/src/widgets/lv_slider.c **** 
 1324              		.loc 1 153 34 is_stmt 0 view .LVU436
 1325 0168 D5F88030 		ldr	r3, [r5, #128]
 1326 016c D5F88810 		ldr	r1, [r5, #136]
 1327 0170 C91A     		subs	r1, r1, r3
 1328 0172 01EBD171 		add	r1, r1, r1, lsr #31
 1329 0176 03EB6103 		add	r3, r3, r1, asr #1
 1330 017a 1B1A     		subs	r3, r3, r0
 153:Middlewares/LVGL/GUI/lvgl/src/widgets/lv_slider.c **** 
 1331              		.loc 1 153 32 view .LVU437
 1332 017c 002B     		cmp	r3, #0
 1333 017e B8BF     		it	lt
 1334 0180 5B42     		rsblt	r3, r3, #0
ARM GAS  C:\Users\ADMINI~1\AppData\Local\Temp\cchwJBFL.s 			page 53


 1335              	.LVL139:
 156:Middlewares/LVGL/GUI/lvgl/src/widgets/lv_slider.c ****                         slider->value_to_set = &slider->bar.cur_value;
 1336              		.loc 1 156 21 is_stmt 1 view .LVU438
 156:Middlewares/LVGL/GUI/lvgl/src/widgets/lv_slider.c ****                         slider->value_to_set = &slider->bar.cur_value;
 1337              		.loc 1 156 23 is_stmt 0 view .LVU439
 1338 0182 9A42     		cmp	r2, r3
 1339 0184 22DD     		ble	.L73
 157:Middlewares/LVGL/GUI/lvgl/src/widgets/lv_slider.c ****                         slider->left_knob_focus = 0;
 1340              		.loc 1 157 25 is_stmt 1 view .LVU440
 157:Middlewares/LVGL/GUI/lvgl/src/widgets/lv_slider.c ****                         slider->left_knob_focus = 0;
 1341              		.loc 1 157 48 is_stmt 0 view .LVU441
 1342 0186 05F12C03 		add	r3, r5, #44
 1343              	.LVL140:
 157:Middlewares/LVGL/GUI/lvgl/src/widgets/lv_slider.c ****                         slider->left_knob_focus = 0;
 1344              		.loc 1 157 46 view .LVU442
 1345 018a C5F89030 		str	r3, [r5, #144]
 158:Middlewares/LVGL/GUI/lvgl/src/widgets/lv_slider.c ****                     }
 1346              		.loc 1 158 25 is_stmt 1 view .LVU443
 158:Middlewares/LVGL/GUI/lvgl/src/widgets/lv_slider.c ****                     }
 1347              		.loc 1 158 49 is_stmt 0 view .LVU444
 1348 018e 95F89430 		ldrb	r3, [r5, #148]	@ zero_extendqisi2
 1349 0192 6FF34103 		bfc	r3, #1, #1
 1350 0196 85F89430 		strb	r3, [r5, #148]
 1351 019a 3AE7     		b	.L57
 1352              	.LVL141:
 1353              	.L119:
 158:Middlewares/LVGL/GUI/lvgl/src/widgets/lv_slider.c ****                     }
 1354              		.loc 1 158 49 view .LVU445
 1355              	.LBE176:
 133:Middlewares/LVGL/GUI/lvgl/src/widgets/lv_slider.c ****         }
 1356              		.loc 1 133 13 is_stmt 1 view .LVU446
 133:Middlewares/LVGL/GUI/lvgl/src/widgets/lv_slider.c ****         }
 1357              		.loc 1 133 36 is_stmt 0 view .LVU447
 1358 019c 05F12C03 		add	r3, r5, #44
 133:Middlewares/LVGL/GUI/lvgl/src/widgets/lv_slider.c ****         }
 1359              		.loc 1 133 34 view .LVU448
 1360 01a0 C5F89030 		str	r3, [r5, #144]
 1361 01a4 35E7     		b	.L57
 1362              	.LVL142:
 1363              	.L120:
 1364              	.LBB179:
 143:Middlewares/LVGL/GUI/lvgl/src/widgets/lv_slider.c ****                     slider->value_to_set = &slider->bar.cur_value;
 1365              		.loc 1 143 119 discriminator 4 view .LVU449
 1366 01a6 D5F88020 		ldr	r2, [r5, #128]
 142:Middlewares/LVGL/GUI/lvgl/src/widgets/lv_slider.c ****                                                                                          p.x < slid
 1367              		.loc 1 142 118 discriminator 4 view .LVU450
 1368 01aa 0499     		ldr	r1, [sp, #16]
 1369 01ac 9142     		cmp	r1, r2
 1370 01ae C7DA     		bge	.L69
 1371              	.L68:
 144:Middlewares/LVGL/GUI/lvgl/src/widgets/lv_slider.c ****                 }
 1372              		.loc 1 144 21 is_stmt 1 view .LVU451
 144:Middlewares/LVGL/GUI/lvgl/src/widgets/lv_slider.c ****                 }
 1373              		.loc 1 144 44 is_stmt 0 view .LVU452
 1374 01b0 05F12C03 		add	r3, r5, #44
 1375              	.LVL143:
 144:Middlewares/LVGL/GUI/lvgl/src/widgets/lv_slider.c ****                 }
ARM GAS  C:\Users\ADMINI~1\AppData\Local\Temp\cchwJBFL.s 			page 54


 1376              		.loc 1 144 42 view .LVU453
 1377 01b4 C5F89030 		str	r3, [r5, #144]
 1378 01b8 2BE7     		b	.L57
 1379              	.LVL144:
 1380              	.L121:
 147:Middlewares/LVGL/GUI/lvgl/src/widgets/lv_slider.c ****                     slider->value_to_set = &slider->bar.start_value;
 1381              		.loc 1 147 122 discriminator 4 view .LVU454
 1382 01ba AB6F     		ldr	r3, [r5, #120]
 1383              	.LVL145:
 146:Middlewares/LVGL/GUI/lvgl/src/widgets/lv_slider.c ****                                                                                              p.x > 
 1384              		.loc 1 146 122 discriminator 4 view .LVU455
 1385 01bc 049A     		ldr	r2, [sp, #16]
 1386 01be 9A42     		cmp	r2, r3
 1387 01c0 C6DD     		ble	.L72
 1388              	.L71:
 148:Middlewares/LVGL/GUI/lvgl/src/widgets/lv_slider.c ****                 }
 1389              		.loc 1 148 21 is_stmt 1 view .LVU456
 148:Middlewares/LVGL/GUI/lvgl/src/widgets/lv_slider.c ****                 }
 1390              		.loc 1 148 44 is_stmt 0 view .LVU457
 1391 01c2 05F13803 		add	r3, r5, #56
 148:Middlewares/LVGL/GUI/lvgl/src/widgets/lv_slider.c ****                 }
 1392              		.loc 1 148 42 view .LVU458
 1393 01c6 C5F89030 		str	r3, [r5, #144]
 1394 01ca 22E7     		b	.L57
 1395              	.LVL146:
 1396              	.L73:
 161:Middlewares/LVGL/GUI/lvgl/src/widgets/lv_slider.c ****                         slider->left_knob_focus = 1;
 1397              		.loc 1 161 25 is_stmt 1 view .LVU459
 161:Middlewares/LVGL/GUI/lvgl/src/widgets/lv_slider.c ****                         slider->left_knob_focus = 1;
 1398              		.loc 1 161 48 is_stmt 0 view .LVU460
 1399 01cc 05F13803 		add	r3, r5, #56
 1400              	.LVL147:
 161:Middlewares/LVGL/GUI/lvgl/src/widgets/lv_slider.c ****                         slider->left_knob_focus = 1;
 1401              		.loc 1 161 46 view .LVU461
 1402 01d0 C5F89030 		str	r3, [r5, #144]
 162:Middlewares/LVGL/GUI/lvgl/src/widgets/lv_slider.c ****                     }
 1403              		.loc 1 162 25 is_stmt 1 view .LVU462
 162:Middlewares/LVGL/GUI/lvgl/src/widgets/lv_slider.c ****                     }
 1404              		.loc 1 162 49 is_stmt 0 view .LVU463
 1405 01d4 95F89430 		ldrb	r3, [r5, #148]	@ zero_extendqisi2
 1406 01d8 43F00203 		orr	r3, r3, #2
 1407 01dc 85F89430 		strb	r3, [r5, #148]
 1408 01e0 17E7     		b	.L57
 1409              	.LVL148:
 1410              	.L66:
 167:Middlewares/LVGL/GUI/lvgl/src/widgets/lv_slider.c ****                     slider->value_to_set = &slider->bar.cur_value;
 1411              		.loc 1 167 17 is_stmt 1 view .LVU464
 167:Middlewares/LVGL/GUI/lvgl/src/widgets/lv_slider.c ****                     slider->value_to_set = &slider->bar.cur_value;
 1412              		.loc 1 167 21 is_stmt 0 view .LVU465
 1413 01e2 0599     		ldr	r1, [sp, #20]
 167:Middlewares/LVGL/GUI/lvgl/src/widgets/lv_slider.c ****                     slider->value_to_set = &slider->bar.cur_value;
 1414              		.loc 1 167 49 view .LVU466
 1415 01e4 D5F88430 		ldr	r3, [r5, #132]
 1416              	.LVL149:
 167:Middlewares/LVGL/GUI/lvgl/src/widgets/lv_slider.c ****                     slider->value_to_set = &slider->bar.cur_value;
 1417              		.loc 1 167 19 view .LVU467
 1418 01e8 9942     		cmp	r1, r3
ARM GAS  C:\Users\ADMINI~1\AppData\Local\Temp\cchwJBFL.s 			page 55


 1419 01ea 04DA     		bge	.L74
 168:Middlewares/LVGL/GUI/lvgl/src/widgets/lv_slider.c ****                 }
 1420              		.loc 1 168 21 is_stmt 1 view .LVU468
 168:Middlewares/LVGL/GUI/lvgl/src/widgets/lv_slider.c ****                 }
 1421              		.loc 1 168 44 is_stmt 0 view .LVU469
 1422 01ec 05F12C03 		add	r3, r5, #44
 168:Middlewares/LVGL/GUI/lvgl/src/widgets/lv_slider.c ****                 }
 1423              		.loc 1 168 42 view .LVU470
 1424 01f0 C5F89030 		str	r3, [r5, #144]
 1425 01f4 0DE7     		b	.L57
 1426              	.L74:
 170:Middlewares/LVGL/GUI/lvgl/src/widgets/lv_slider.c ****                     slider->value_to_set = &slider->bar.start_value;
 1427              		.loc 1 170 22 is_stmt 1 view .LVU471
 170:Middlewares/LVGL/GUI/lvgl/src/widgets/lv_slider.c ****                     slider->value_to_set = &slider->bar.start_value;
 1428              		.loc 1 170 53 is_stmt 0 view .LVU472
 1429 01f6 E86F     		ldr	r0, [r5, #124]
 1430              	.LVL150:
 170:Middlewares/LVGL/GUI/lvgl/src/widgets/lv_slider.c ****                     slider->value_to_set = &slider->bar.start_value;
 1431              		.loc 1 170 24 view .LVU473
 1432 01f8 8142     		cmp	r1, r0
 1433 01fa 04DD     		ble	.L75
 171:Middlewares/LVGL/GUI/lvgl/src/widgets/lv_slider.c ****                 }
 1434              		.loc 1 171 21 is_stmt 1 view .LVU474
 171:Middlewares/LVGL/GUI/lvgl/src/widgets/lv_slider.c ****                 }
 1435              		.loc 1 171 44 is_stmt 0 view .LVU475
 1436 01fc 05F13803 		add	r3, r5, #56
 171:Middlewares/LVGL/GUI/lvgl/src/widgets/lv_slider.c ****                 }
 1437              		.loc 1 171 42 view .LVU476
 1438 0200 C5F89030 		str	r3, [r5, #144]
 1439 0204 05E7     		b	.L57
 1440              	.L75:
 175:Middlewares/LVGL/GUI/lvgl/src/widgets/lv_slider.c ****                     dist_right = LV_ABS((slider->right_knob_area.y1 + (slider->right_knob_area.y2 -
 1441              		.loc 1 175 21 is_stmt 1 view .LVU477
 175:Middlewares/LVGL/GUI/lvgl/src/widgets/lv_slider.c ****                     dist_right = LV_ABS((slider->right_knob_area.y1 + (slider->right_knob_area.y2 -
 1442              		.loc 1 175 33 is_stmt 0 view .LVU478
 1443 0206 6A6F     		ldr	r2, [r5, #116]
 1444 0208 801A     		subs	r0, r0, r2
 1445 020a 00EBD070 		add	r0, r0, r0, lsr #31
 1446 020e 02EB6002 		add	r2, r2, r0, asr #1
 1447 0212 521A     		subs	r2, r2, r1
 175:Middlewares/LVGL/GUI/lvgl/src/widgets/lv_slider.c ****                     dist_right = LV_ABS((slider->right_knob_area.y1 + (slider->right_knob_area.y2 -
 1448              		.loc 1 175 31 view .LVU479
 1449 0214 002A     		cmp	r2, #0
 1450 0216 B8BF     		it	lt
 1451 0218 5242     		rsblt	r2, r2, #0
 1452              	.LVL151:
 176:Middlewares/LVGL/GUI/lvgl/src/widgets/lv_slider.c **** 
 1453              		.loc 1 176 21 is_stmt 1 view .LVU480
 176:Middlewares/LVGL/GUI/lvgl/src/widgets/lv_slider.c **** 
 1454              		.loc 1 176 34 is_stmt 0 view .LVU481
 1455 021a D5F88C00 		ldr	r0, [r5, #140]
 1456 021e C01A     		subs	r0, r0, r3
 1457 0220 00EBD070 		add	r0, r0, r0, lsr #31
 1458 0224 03EB6003 		add	r3, r3, r0, asr #1
 1459 0228 5B1A     		subs	r3, r3, r1
 176:Middlewares/LVGL/GUI/lvgl/src/widgets/lv_slider.c **** 
 1460              		.loc 1 176 32 view .LVU482
ARM GAS  C:\Users\ADMINI~1\AppData\Local\Temp\cchwJBFL.s 			page 56


 1461 022a 002B     		cmp	r3, #0
 1462 022c B8BF     		it	lt
 1463 022e 5B42     		rsblt	r3, r3, #0
 1464              	.LVL152:
 179:Middlewares/LVGL/GUI/lvgl/src/widgets/lv_slider.c ****                         slider->value_to_set = &slider->bar.cur_value;
 1465              		.loc 1 179 21 is_stmt 1 view .LVU483
 179:Middlewares/LVGL/GUI/lvgl/src/widgets/lv_slider.c ****                         slider->value_to_set = &slider->bar.cur_value;
 1466              		.loc 1 179 23 is_stmt 0 view .LVU484
 1467 0230 9A42     		cmp	r2, r3
 1468 0232 0ADD     		ble	.L76
 180:Middlewares/LVGL/GUI/lvgl/src/widgets/lv_slider.c ****                         slider->left_knob_focus = 0;
 1469              		.loc 1 180 25 is_stmt 1 view .LVU485
 180:Middlewares/LVGL/GUI/lvgl/src/widgets/lv_slider.c ****                         slider->left_knob_focus = 0;
 1470              		.loc 1 180 48 is_stmt 0 view .LVU486
 1471 0234 05F12C03 		add	r3, r5, #44
 1472              	.LVL153:
 180:Middlewares/LVGL/GUI/lvgl/src/widgets/lv_slider.c ****                         slider->left_knob_focus = 0;
 1473              		.loc 1 180 46 view .LVU487
 1474 0238 C5F89030 		str	r3, [r5, #144]
 181:Middlewares/LVGL/GUI/lvgl/src/widgets/lv_slider.c ****                     }
 1475              		.loc 1 181 25 is_stmt 1 view .LVU488
 181:Middlewares/LVGL/GUI/lvgl/src/widgets/lv_slider.c ****                     }
 1476              		.loc 1 181 49 is_stmt 0 view .LVU489
 1477 023c 95F89430 		ldrb	r3, [r5, #148]	@ zero_extendqisi2
 1478 0240 6FF34103 		bfc	r3, #1, #1
 1479 0244 85F89430 		strb	r3, [r5, #148]
 1480 0248 E3E6     		b	.L57
 1481              	.LVL154:
 1482              	.L76:
 184:Middlewares/LVGL/GUI/lvgl/src/widgets/lv_slider.c ****                         slider->left_knob_focus = 1;
 1483              		.loc 1 184 25 is_stmt 1 view .LVU490
 184:Middlewares/LVGL/GUI/lvgl/src/widgets/lv_slider.c ****                         slider->left_knob_focus = 1;
 1484              		.loc 1 184 48 is_stmt 0 view .LVU491
 1485 024a 05F13803 		add	r3, r5, #56
 1486              	.LVL155:
 184:Middlewares/LVGL/GUI/lvgl/src/widgets/lv_slider.c ****                         slider->left_knob_focus = 1;
 1487              		.loc 1 184 46 view .LVU492
 1488 024e C5F89030 		str	r3, [r5, #144]
 185:Middlewares/LVGL/GUI/lvgl/src/widgets/lv_slider.c ****                     }
 1489              		.loc 1 185 25 is_stmt 1 view .LVU493
 185:Middlewares/LVGL/GUI/lvgl/src/widgets/lv_slider.c ****                     }
 1490              		.loc 1 185 49 is_stmt 0 view .LVU494
 1491 0252 95F89430 		ldrb	r3, [r5, #148]	@ zero_extendqisi2
 1492 0256 43F00203 		orr	r3, r3, #2
 1493 025a 85F89430 		strb	r3, [r5, #148]
 1494 025e D8E6     		b	.L57
 1495              	.L125:
 1496              		.align	2
 1497              	.L124:
 1498 0260 00000000 		.word	.LANCHOR0
 1499              	.LVL156:
 1500              	.L114:
 185:Middlewares/LVGL/GUI/lvgl/src/widgets/lv_slider.c ****                     }
 1501              		.loc 1 185 49 view .LVU495
 1502              	.LBE179:
 1503              	.LBE175:
 191:Middlewares/LVGL/GUI/lvgl/src/widgets/lv_slider.c ****         lv_indev_t * indev = lv_indev_get_act();
ARM GAS  C:\Users\ADMINI~1\AppData\Local\Temp\cchwJBFL.s 			page 57


 1504              		.loc 1 191 48 discriminator 1 view .LVU496
 1505 0264 D5F89030 		ldr	r3, [r5, #144]
 191:Middlewares/LVGL/GUI/lvgl/src/widgets/lv_slider.c ****         lv_indev_t * indev = lv_indev_get_act();
 1506              		.loc 1 191 39 discriminator 1 view .LVU497
 1507 0268 002B     		cmp	r3, #0
 1508 026a 3FF4ECAE 		beq	.L77
 1509              	.LBB180:
 192:Middlewares/LVGL/GUI/lvgl/src/widgets/lv_slider.c ****         if(lv_indev_get_type(indev) != LV_INDEV_TYPE_POINTER) return;
 1510              		.loc 1 192 9 is_stmt 1 view .LVU498
 192:Middlewares/LVGL/GUI/lvgl/src/widgets/lv_slider.c ****         if(lv_indev_get_type(indev) != LV_INDEV_TYPE_POINTER) return;
 1511              		.loc 1 192 30 is_stmt 0 view .LVU499
 1512 026e FFF7FEFF 		bl	lv_indev_get_act
 1513              	.LVL157:
 1514 0272 0446     		mov	r4, r0
 1515              	.LVL158:
 193:Middlewares/LVGL/GUI/lvgl/src/widgets/lv_slider.c **** 
 1516              		.loc 1 193 9 is_stmt 1 view .LVU500
 193:Middlewares/LVGL/GUI/lvgl/src/widgets/lv_slider.c **** 
 1517              		.loc 1 193 12 is_stmt 0 view .LVU501
 1518 0274 FFF7FEFF 		bl	lv_indev_get_type
 1519              	.LVL159:
 193:Middlewares/LVGL/GUI/lvgl/src/widgets/lv_slider.c **** 
 1520              		.loc 1 193 11 view .LVU502
 1521 0278 0128     		cmp	r0, #1
 1522 027a 7FF4CAAE 		bne	.L57
 195:Middlewares/LVGL/GUI/lvgl/src/widgets/lv_slider.c ****         lv_indev_get_point(indev, &p);
 1523              		.loc 1 195 9 is_stmt 1 view .LVU503
 196:Middlewares/LVGL/GUI/lvgl/src/widgets/lv_slider.c ****         lv_base_dir_t base_dir = lv_obj_get_style_base_dir(obj, LV_PART_MAIN);
 1524              		.loc 1 196 9 view .LVU504
 1525 027e 04A9     		add	r1, sp, #16
 1526 0280 2046     		mov	r0, r4
 1527 0282 FFF7FEFF 		bl	lv_indev_get_point
 1528              	.LVL160:
 197:Middlewares/LVGL/GUI/lvgl/src/widgets/lv_slider.c **** 
 1529              		.loc 1 197 9 view .LVU505
 1530              	.LBB181:
 1531              	.LBI181:
 542:Middlewares/LVGL/GUI/lvgl/src/widgets/../core/lv_obj_style_gen.h **** {
 1532              		.loc 2 542 29 view .LVU506
 1533              	.LBB182:
 544:Middlewares/LVGL/GUI/lvgl/src/widgets/../core/lv_obj_style_gen.h ****     return (lv_base_dir_t)v.num;
 1534              		.loc 2 544 5 view .LVU507
 544:Middlewares/LVGL/GUI/lvgl/src/widgets/../core/lv_obj_style_gen.h ****     return (lv_base_dir_t)v.num;
 1535              		.loc 2 544 26 is_stmt 0 view .LVU508
 1536 0286 41F26A42 		movw	r2, #5226
 1537 028a 0021     		movs	r1, #0
 1538 028c 2846     		mov	r0, r5
 1539 028e FFF7FEFF 		bl	lv_obj_get_style_prop
 1540              	.LVL161:
 1541              		.loc 2 545 5 is_stmt 1 view .LVU509
 1542              		.loc 2 545 12 is_stmt 0 view .LVU510
 1543 0292 5FFA80FA 		uxtb	r10, r0
 1544              	.LVL162:
 1545              		.loc 2 545 12 view .LVU511
 1546              	.LBE182:
 1547              	.LBE181:
 199:Middlewares/LVGL/GUI/lvgl/src/widgets/lv_slider.c ****         lv_coord_t h = lv_obj_get_height(obj);
ARM GAS  C:\Users\ADMINI~1\AppData\Local\Temp\cchwJBFL.s 			page 58


 1548              		.loc 1 199 9 is_stmt 1 view .LVU512
 199:Middlewares/LVGL/GUI/lvgl/src/widgets/lv_slider.c ****         lv_coord_t h = lv_obj_get_height(obj);
 1549              		.loc 1 199 24 is_stmt 0 view .LVU513
 1550 0296 2846     		mov	r0, r5
 1551 0298 FFF7FEFF 		bl	lv_obj_get_width
 1552              	.LVL163:
 1553 029c 0646     		mov	r6, r0
 1554              	.LVL164:
 200:Middlewares/LVGL/GUI/lvgl/src/widgets/lv_slider.c **** 
 1555              		.loc 1 200 9 is_stmt 1 view .LVU514
 200:Middlewares/LVGL/GUI/lvgl/src/widgets/lv_slider.c **** 
 1556              		.loc 1 200 24 is_stmt 0 view .LVU515
 1557 029e 2846     		mov	r0, r5
 1558              	.LVL165:
 200:Middlewares/LVGL/GUI/lvgl/src/widgets/lv_slider.c **** 
 1559              		.loc 1 200 24 view .LVU516
 1560 02a0 FFF7FEFF 		bl	lv_obj_get_height
 1561              	.LVL166:
 1562 02a4 0446     		mov	r4, r0
 1563              	.LVL167:
 202:Middlewares/LVGL/GUI/lvgl/src/widgets/lv_slider.c ****         lv_coord_t bg_right = lv_obj_get_style_pad_right(obj,  LV_PART_MAIN);
 1564              		.loc 1 202 9 is_stmt 1 view .LVU517
 1565              	.LBB183:
 1566              	.LBI183:
 103:Middlewares/LVGL/GUI/lvgl/src/widgets/../core/lv_obj_style_gen.h **** {
 1567              		.loc 2 103 26 view .LVU518
 1568              	.LBB184:
 105:Middlewares/LVGL/GUI/lvgl/src/widgets/../core/lv_obj_style_gen.h ****     return (lv_coord_t)v.num;
 1569              		.loc 2 105 5 view .LVU519
 105:Middlewares/LVGL/GUI/lvgl/src/widgets/../core/lv_obj_style_gen.h ****     return (lv_coord_t)v.num;
 1570              		.loc 2 105 26 is_stmt 0 view .LVU520
 1571 02a6 41F61202 		movw	r2, #6162
 1572 02aa 0021     		movs	r1, #0
 1573 02ac 2846     		mov	r0, r5
 1574              	.LVL168:
 105:Middlewares/LVGL/GUI/lvgl/src/widgets/../core/lv_obj_style_gen.h ****     return (lv_coord_t)v.num;
 1575              		.loc 2 105 26 view .LVU521
 1576 02ae FFF7FEFF 		bl	lv_obj_get_style_prop
 1577              	.LVL169:
 1578 02b2 0746     		mov	r7, r0
 1579              	.LVL170:
 106:Middlewares/LVGL/GUI/lvgl/src/widgets/../core/lv_obj_style_gen.h **** }
 1580              		.loc 2 106 5 is_stmt 1 view .LVU522
 106:Middlewares/LVGL/GUI/lvgl/src/widgets/../core/lv_obj_style_gen.h **** }
 1581              		.loc 2 106 5 is_stmt 0 view .LVU523
 1582              	.LBE184:
 1583              	.LBE183:
 203:Middlewares/LVGL/GUI/lvgl/src/widgets/lv_slider.c ****         lv_coord_t bg_top = lv_obj_get_style_pad_top(obj,    LV_PART_MAIN);
 1584              		.loc 1 203 9 is_stmt 1 view .LVU524
 1585              	.LBB185:
 1586              	.LBI185:
 109:Middlewares/LVGL/GUI/lvgl/src/widgets/../core/lv_obj_style_gen.h **** {
 1587              		.loc 2 109 26 view .LVU525
 1588              	.LBB186:
 111:Middlewares/LVGL/GUI/lvgl/src/widgets/../core/lv_obj_style_gen.h ****     return (lv_coord_t)v.num;
 1589              		.loc 2 111 5 view .LVU526
 111:Middlewares/LVGL/GUI/lvgl/src/widgets/../core/lv_obj_style_gen.h ****     return (lv_coord_t)v.num;
ARM GAS  C:\Users\ADMINI~1\AppData\Local\Temp\cchwJBFL.s 			page 59


 1590              		.loc 2 111 26 is_stmt 0 view .LVU527
 1591 02b4 41F61302 		movw	r2, #6163
 1592 02b8 0021     		movs	r1, #0
 1593 02ba 2846     		mov	r0, r5
 1594              	.LVL171:
 111:Middlewares/LVGL/GUI/lvgl/src/widgets/../core/lv_obj_style_gen.h ****     return (lv_coord_t)v.num;
 1595              		.loc 2 111 26 view .LVU528
 1596 02bc FFF7FEFF 		bl	lv_obj_get_style_prop
 1597              	.LVL172:
 1598 02c0 8046     		mov	r8, r0
 112:Middlewares/LVGL/GUI/lvgl/src/widgets/../core/lv_obj_style_gen.h **** }
 1599              		.loc 2 112 5 is_stmt 1 view .LVU529
 1600              	.LVL173:
 112:Middlewares/LVGL/GUI/lvgl/src/widgets/../core/lv_obj_style_gen.h **** }
 1601              		.loc 2 112 5 is_stmt 0 view .LVU530
 1602              	.LBE186:
 1603              	.LBE185:
 204:Middlewares/LVGL/GUI/lvgl/src/widgets/lv_slider.c ****         lv_coord_t bg_bottom = lv_obj_get_style_pad_bottom(obj, LV_PART_MAIN);
 1604              		.loc 1 204 9 is_stmt 1 view .LVU531
 1605              	.LBB187:
 1606              	.LBI187:
  91:Middlewares/LVGL/GUI/lvgl/src/widgets/../core/lv_obj_style_gen.h **** {
 1607              		.loc 2 91 26 view .LVU532
 1608              	.LBB188:
  93:Middlewares/LVGL/GUI/lvgl/src/widgets/../core/lv_obj_style_gen.h ****     return (lv_coord_t)v.num;
 1609              		.loc 2 93 5 view .LVU533
  93:Middlewares/LVGL/GUI/lvgl/src/widgets/../core/lv_obj_style_gen.h ****     return (lv_coord_t)v.num;
 1610              		.loc 2 93 26 is_stmt 0 view .LVU534
 1611 02c2 41F61002 		movw	r2, #6160
 1612 02c6 0021     		movs	r1, #0
 1613 02c8 2846     		mov	r0, r5
 1614              	.LVL174:
  93:Middlewares/LVGL/GUI/lvgl/src/widgets/../core/lv_obj_style_gen.h ****     return (lv_coord_t)v.num;
 1615              		.loc 2 93 26 view .LVU535
 1616 02ca FFF7FEFF 		bl	lv_obj_get_style_prop
 1617              	.LVL175:
 1618 02ce 8146     		mov	r9, r0
  94:Middlewares/LVGL/GUI/lvgl/src/widgets/../core/lv_obj_style_gen.h **** }
 1619              		.loc 2 94 5 is_stmt 1 view .LVU536
 1620              	.LVL176:
  94:Middlewares/LVGL/GUI/lvgl/src/widgets/../core/lv_obj_style_gen.h **** }
 1621              		.loc 2 94 5 is_stmt 0 view .LVU537
 1622              	.LBE188:
 1623              	.LBE187:
 205:Middlewares/LVGL/GUI/lvgl/src/widgets/lv_slider.c **** 
 1624              		.loc 1 205 9 is_stmt 1 view .LVU538
 1625              	.LBB189:
 1626              	.LBI189:
  97:Middlewares/LVGL/GUI/lvgl/src/widgets/../core/lv_obj_style_gen.h **** {
 1627              		.loc 2 97 26 view .LVU539
 1628              	.LBB190:
  99:Middlewares/LVGL/GUI/lvgl/src/widgets/../core/lv_obj_style_gen.h ****     return (lv_coord_t)v.num;
 1629              		.loc 2 99 5 view .LVU540
  99:Middlewares/LVGL/GUI/lvgl/src/widgets/../core/lv_obj_style_gen.h ****     return (lv_coord_t)v.num;
 1630              		.loc 2 99 26 is_stmt 0 view .LVU541
 1631 02d0 41F61102 		movw	r2, #6161
 1632 02d4 0021     		movs	r1, #0
ARM GAS  C:\Users\ADMINI~1\AppData\Local\Temp\cchwJBFL.s 			page 60


 1633 02d6 2846     		mov	r0, r5
 1634              	.LVL177:
  99:Middlewares/LVGL/GUI/lvgl/src/widgets/../core/lv_obj_style_gen.h ****     return (lv_coord_t)v.num;
 1635              		.loc 2 99 26 view .LVU542
 1636 02d8 FFF7FEFF 		bl	lv_obj_get_style_prop
 1637              	.LVL178:
 100:Middlewares/LVGL/GUI/lvgl/src/widgets/../core/lv_obj_style_gen.h **** }
 1638              		.loc 2 100 5 is_stmt 1 view .LVU543
 100:Middlewares/LVGL/GUI/lvgl/src/widgets/../core/lv_obj_style_gen.h **** }
 1639              		.loc 2 100 5 is_stmt 0 view .LVU544
 1640              	.LBE190:
 1641              	.LBE189:
 207:Middlewares/LVGL/GUI/lvgl/src/widgets/lv_slider.c ****         int32_t new_value = 0;
 1642              		.loc 1 207 9 is_stmt 1 view .LVU545
 207:Middlewares/LVGL/GUI/lvgl/src/widgets/lv_slider.c ****         int32_t new_value = 0;
 1643              		.loc 1 207 36 is_stmt 0 view .LVU546
 1644 02dc 696B     		ldr	r1, [r5, #52]
 207:Middlewares/LVGL/GUI/lvgl/src/widgets/lv_slider.c ****         int32_t new_value = 0;
 1645              		.loc 1 207 60 view .LVU547
 1646 02de 2A6B     		ldr	r2, [r5, #48]
 207:Middlewares/LVGL/GUI/lvgl/src/widgets/lv_slider.c ****         int32_t new_value = 0;
 1647              		.loc 1 207 17 view .LVU548
 1648 02e0 A1EB020C 		sub	ip, r1, r2
 1649              	.LVL179:
 208:Middlewares/LVGL/GUI/lvgl/src/widgets/lv_slider.c ****         int32_t real_max_value = slider->bar.max_value;
 1650              		.loc 1 208 9 is_stmt 1 view .LVU549
 209:Middlewares/LVGL/GUI/lvgl/src/widgets/lv_slider.c ****         int32_t real_min_value = slider->bar.min_value;
 1651              		.loc 1 209 9 view .LVU550
 210:Middlewares/LVGL/GUI/lvgl/src/widgets/lv_slider.c **** 
 1652              		.loc 1 210 9 view .LVU551
 212:Middlewares/LVGL/GUI/lvgl/src/widgets/lv_slider.c ****             lv_coord_t indic_w = w - bg_left - bg_right;
 1653              		.loc 1 212 9 view .LVU552
 212:Middlewares/LVGL/GUI/lvgl/src/widgets/lv_slider.c ****             lv_coord_t indic_w = w - bg_left - bg_right;
 1654              		.loc 1 212 11 is_stmt 0 view .LVU553
 1655 02e4 A642     		cmp	r6, r4
 1656 02e6 2EDB     		blt	.L79
 1657              	.LBB191:
 213:Middlewares/LVGL/GUI/lvgl/src/widgets/lv_slider.c ****             if(base_dir == LV_BASE_DIR_RTL) {
 1658              		.loc 1 213 13 is_stmt 1 view .LVU554
 213:Middlewares/LVGL/GUI/lvgl/src/widgets/lv_slider.c ****             if(base_dir == LV_BASE_DIR_RTL) {
 1659              		.loc 1 213 36 is_stmt 0 view .LVU555
 1660 02e8 F31B     		subs	r3, r6, r7
 213:Middlewares/LVGL/GUI/lvgl/src/widgets/lv_slider.c ****             if(base_dir == LV_BASE_DIR_RTL) {
 1661              		.loc 1 213 24 view .LVU556
 1662 02ea A3EB0800 		sub	r0, r3, r8
 1663              	.LVL180:
 214:Middlewares/LVGL/GUI/lvgl/src/widgets/lv_slider.c ****                 new_value = (obj->coords.x2 - bg_right) - p.x; /*Make the point relative to the ind
 1664              		.loc 1 214 13 is_stmt 1 view .LVU557
 214:Middlewares/LVGL/GUI/lvgl/src/widgets/lv_slider.c ****                 new_value = (obj->coords.x2 - bg_right) - p.x; /*Make the point relative to the ind
 1665              		.loc 1 214 15 is_stmt 0 view .LVU558
 1666 02ee BAF1010F 		cmp	r10, #1
 1667 02f2 22D0     		beq	.L122
 218:Middlewares/LVGL/GUI/lvgl/src/widgets/lv_slider.c ****             }
 1668              		.loc 1 218 17 is_stmt 1 view .LVU559
 218:Middlewares/LVGL/GUI/lvgl/src/widgets/lv_slider.c ****             }
 1669              		.loc 1 218 47 is_stmt 0 view .LVU560
 1670 02f4 6B69     		ldr	r3, [r5, #20]
ARM GAS  C:\Users\ADMINI~1\AppData\Local\Temp\cchwJBFL.s 			page 61


 218:Middlewares/LVGL/GUI/lvgl/src/widgets/lv_slider.c ****             }
 1671              		.loc 1 218 51 view .LVU561
 1672 02f6 1F44     		add	r7, r7, r3
 1673              	.LVL181:
 218:Middlewares/LVGL/GUI/lvgl/src/widgets/lv_slider.c ****             }
 1674              		.loc 1 218 27 view .LVU562
 1675 02f8 049B     		ldr	r3, [sp, #16]
 1676 02fa DB1B     		subs	r3, r3, r7
 1677              	.LVL182:
 1678              	.L81:
 220:Middlewares/LVGL/GUI/lvgl/src/widgets/lv_slider.c ****             new_value += slider->bar.min_value;
 1679              		.loc 1 220 13 is_stmt 1 view .LVU563
 220:Middlewares/LVGL/GUI/lvgl/src/widgets/lv_slider.c ****             new_value += slider->bar.min_value;
 1680              		.loc 1 220 36 is_stmt 0 view .LVU564
 1681 02fc 0CFB03F3 		mul	r3, ip, r3
 1682              	.LVL183:
 220:Middlewares/LVGL/GUI/lvgl/src/widgets/lv_slider.c ****             new_value += slider->bar.min_value;
 1683              		.loc 1 220 23 view .LVU565
 1684 0300 93FBF0F3 		sdiv	r3, r3, r0
 1685              	.LVL184:
 221:Middlewares/LVGL/GUI/lvgl/src/widgets/lv_slider.c ****         }
 1686              		.loc 1 221 13 is_stmt 1 view .LVU566
 221:Middlewares/LVGL/GUI/lvgl/src/widgets/lv_slider.c ****         }
 1687              		.loc 1 221 23 is_stmt 0 view .LVU567
 1688 0304 1344     		add	r3, r3, r2
 1689              	.LVL185:
 1690              	.L82:
 221:Middlewares/LVGL/GUI/lvgl/src/widgets/lv_slider.c ****         }
 1691              		.loc 1 221 23 view .LVU568
 1692              	.LBE191:
 232:Middlewares/LVGL/GUI/lvgl/src/widgets/lv_slider.c ****             real_max_value = slider->bar.cur_value;
 1693              		.loc 1 232 9 is_stmt 1 view .LVU569
 232:Middlewares/LVGL/GUI/lvgl/src/widgets/lv_slider.c ****             real_max_value = slider->bar.cur_value;
 1694              		.loc 1 232 18 is_stmt 0 view .LVU570
 1695 0306 D5F89000 		ldr	r0, [r5, #144]
 232:Middlewares/LVGL/GUI/lvgl/src/widgets/lv_slider.c ****             real_max_value = slider->bar.cur_value;
 1696              		.loc 1 232 36 view .LVU571
 1697 030a 05F13804 		add	r4, r5, #56
 232:Middlewares/LVGL/GUI/lvgl/src/widgets/lv_slider.c ****             real_max_value = slider->bar.cur_value;
 1698              		.loc 1 232 11 view .LVU572
 1699 030e A042     		cmp	r0, r4
 1700 0310 26D0     		beq	.L123
 236:Middlewares/LVGL/GUI/lvgl/src/widgets/lv_slider.c ****         }
 1701              		.loc 1 236 13 is_stmt 1 view .LVU573
 236:Middlewares/LVGL/GUI/lvgl/src/widgets/lv_slider.c ****         }
 1702              		.loc 1 236 28 is_stmt 0 view .LVU574
 1703 0312 AA6B     		ldr	r2, [r5, #56]
 1704              	.LVL186:
 1705              	.L84:
 239:Middlewares/LVGL/GUI/lvgl/src/widgets/lv_slider.c ****         else if(new_value > real_max_value) new_value = real_max_value;
 1706              		.loc 1 239 9 is_stmt 1 view .LVU575
 239:Middlewares/LVGL/GUI/lvgl/src/widgets/lv_slider.c ****         else if(new_value > real_max_value) new_value = real_max_value;
 1707              		.loc 1 239 11 is_stmt 0 view .LVU576
 1708 0314 9342     		cmp	r3, r2
 1709 0316 02DB     		blt	.L85
 240:Middlewares/LVGL/GUI/lvgl/src/widgets/lv_slider.c ****         if(*slider->value_to_set != new_value) {
 1710              		.loc 1 240 14 is_stmt 1 view .LVU577
ARM GAS  C:\Users\ADMINI~1\AppData\Local\Temp\cchwJBFL.s 			page 62


 240:Middlewares/LVGL/GUI/lvgl/src/widgets/lv_slider.c ****         if(*slider->value_to_set != new_value) {
 1711              		.loc 1 240 16 is_stmt 0 view .LVU578
 1712 0318 8B42     		cmp	r3, r1
 1713 031a 23DC     		bgt	.L108
 1714 031c 1A46     		mov	r2, r3
 1715              	.LVL187:
 1716              	.L85:
 241:Middlewares/LVGL/GUI/lvgl/src/widgets/lv_slider.c ****             *slider->value_to_set = new_value;
 1717              		.loc 1 241 9 is_stmt 1 view .LVU579
 241:Middlewares/LVGL/GUI/lvgl/src/widgets/lv_slider.c ****             *slider->value_to_set = new_value;
 1718              		.loc 1 241 12 is_stmt 0 view .LVU580
 1719 031e 0368     		ldr	r3, [r0]
 241:Middlewares/LVGL/GUI/lvgl/src/widgets/lv_slider.c ****             *slider->value_to_set = new_value;
 1720              		.loc 1 241 11 view .LVU581
 1721 0320 9342     		cmp	r3, r2
 1722 0322 3FF476AE 		beq	.L57
 242:Middlewares/LVGL/GUI/lvgl/src/widgets/lv_slider.c ****             lv_obj_invalidate(obj);
 1723              		.loc 1 242 13 is_stmt 1 view .LVU582
 242:Middlewares/LVGL/GUI/lvgl/src/widgets/lv_slider.c ****             lv_obj_invalidate(obj);
 1724              		.loc 1 242 35 is_stmt 0 view .LVU583
 1725 0326 0260     		str	r2, [r0]
 243:Middlewares/LVGL/GUI/lvgl/src/widgets/lv_slider.c ****             res = lv_event_send(obj, LV_EVENT_VALUE_CHANGED, NULL);
 1726              		.loc 1 243 13 is_stmt 1 view .LVU584
 1727 0328 2846     		mov	r0, r5
 1728 032a FFF7FEFF 		bl	lv_obj_invalidate
 1729              	.LVL188:
 244:Middlewares/LVGL/GUI/lvgl/src/widgets/lv_slider.c ****             if(res != LV_RES_OK) return;
 1730              		.loc 1 244 13 view .LVU585
 244:Middlewares/LVGL/GUI/lvgl/src/widgets/lv_slider.c ****             if(res != LV_RES_OK) return;
 1731              		.loc 1 244 19 is_stmt 0 view .LVU586
 1732 032e 0022     		movs	r2, #0
 1733 0330 1C21     		movs	r1, #28
 1734 0332 2846     		mov	r0, r5
 1735 0334 FFF7FEFF 		bl	lv_event_send
 1736              	.LVL189:
 245:Middlewares/LVGL/GUI/lvgl/src/widgets/lv_slider.c ****         }
 1737              		.loc 1 245 13 is_stmt 1 view .LVU587
 1738 0338 6BE6     		b	.L57
 1739              	.LVL190:
 1740              	.L122:
 1741              	.LBB192:
 215:Middlewares/LVGL/GUI/lvgl/src/widgets/lv_slider.c ****             }
 1742              		.loc 1 215 17 view .LVU588
 215:Middlewares/LVGL/GUI/lvgl/src/widgets/lv_slider.c ****             }
 1743              		.loc 1 215 41 is_stmt 0 view .LVU589
 1744 033a EB69     		ldr	r3, [r5, #28]
 215:Middlewares/LVGL/GUI/lvgl/src/widgets/lv_slider.c ****             }
 1745              		.loc 1 215 45 view .LVU590
 1746 033c A3EB0803 		sub	r3, r3, r8
 215:Middlewares/LVGL/GUI/lvgl/src/widgets/lv_slider.c ****             }
 1747              		.loc 1 215 60 view .LVU591
 1748 0340 049C     		ldr	r4, [sp, #16]
 1749              	.LVL191:
 215:Middlewares/LVGL/GUI/lvgl/src/widgets/lv_slider.c ****             }
 1750              		.loc 1 215 27 view .LVU592
 1751 0342 1B1B     		subs	r3, r3, r4
 1752              	.LVL192:
ARM GAS  C:\Users\ADMINI~1\AppData\Local\Temp\cchwJBFL.s 			page 63


 215:Middlewares/LVGL/GUI/lvgl/src/widgets/lv_slider.c ****             }
 1753              		.loc 1 215 27 view .LVU593
 1754 0344 DAE7     		b	.L81
 1755              	.LVL193:
 1756              	.L79:
 215:Middlewares/LVGL/GUI/lvgl/src/widgets/lv_slider.c ****             }
 1757              		.loc 1 215 27 view .LVU594
 1758              	.LBE192:
 1759              	.LBB193:
 224:Middlewares/LVGL/GUI/lvgl/src/widgets/lv_slider.c ****             new_value = p.y - (obj->coords.y2 + bg_bottom); /*Make the point relative to the indica
 1760              		.loc 1 224 13 is_stmt 1 view .LVU595
 224:Middlewares/LVGL/GUI/lvgl/src/widgets/lv_slider.c ****             new_value = p.y - (obj->coords.y2 + bg_bottom); /*Make the point relative to the indica
 1761              		.loc 1 224 36 is_stmt 0 view .LVU596
 1762 0346 241A     		subs	r4, r4, r0
 1763              	.LVL194:
 224:Middlewares/LVGL/GUI/lvgl/src/widgets/lv_slider.c ****             new_value = p.y - (obj->coords.y2 + bg_bottom); /*Make the point relative to the indica
 1764              		.loc 1 224 24 view .LVU597
 1765 0348 A4EB0909 		sub	r9, r4, r9
 1766              	.LVL195:
 225:Middlewares/LVGL/GUI/lvgl/src/widgets/lv_slider.c ****             new_value = (-new_value * range) / indic_h;
 1767              		.loc 1 225 13 is_stmt 1 view .LVU598
 225:Middlewares/LVGL/GUI/lvgl/src/widgets/lv_slider.c ****             new_value = (-new_value * range) / indic_h;
 1768              		.loc 1 225 43 is_stmt 0 view .LVU599
 1769 034c 2B6A     		ldr	r3, [r5, #32]
 225:Middlewares/LVGL/GUI/lvgl/src/widgets/lv_slider.c ****             new_value = (-new_value * range) / indic_h;
 1770              		.loc 1 225 47 view .LVU600
 1771 034e 0344     		add	r3, r3, r0
 1772              	.LVL196:
 226:Middlewares/LVGL/GUI/lvgl/src/widgets/lv_slider.c ****             new_value += slider->bar.min_value;
 1773              		.loc 1 226 13 is_stmt 1 view .LVU601
 226:Middlewares/LVGL/GUI/lvgl/src/widgets/lv_slider.c ****             new_value += slider->bar.min_value;
 1774              		.loc 1 226 26 is_stmt 0 view .LVU602
 1775 0350 0598     		ldr	r0, [sp, #20]
 1776              	.LVL197:
 226:Middlewares/LVGL/GUI/lvgl/src/widgets/lv_slider.c ****             new_value += slider->bar.min_value;
 1777              		.loc 1 226 26 view .LVU603
 1778 0352 1B1A     		subs	r3, r3, r0
 1779              	.LVL198:
 226:Middlewares/LVGL/GUI/lvgl/src/widgets/lv_slider.c ****             new_value += slider->bar.min_value;
 1780              		.loc 1 226 37 view .LVU604
 1781 0354 0CFB03F3 		mul	r3, ip, r3
 226:Middlewares/LVGL/GUI/lvgl/src/widgets/lv_slider.c ****             new_value += slider->bar.min_value;
 1782              		.loc 1 226 23 view .LVU605
 1783 0358 93FBF9F3 		sdiv	r3, r3, r9
 1784              	.LVL199:
 227:Middlewares/LVGL/GUI/lvgl/src/widgets/lv_slider.c **** 
 1785              		.loc 1 227 13 is_stmt 1 view .LVU606
 227:Middlewares/LVGL/GUI/lvgl/src/widgets/lv_slider.c **** 
 1786              		.loc 1 227 23 is_stmt 0 view .LVU607
 1787 035c 1344     		add	r3, r3, r2
 1788              	.LVL200:
 227:Middlewares/LVGL/GUI/lvgl/src/widgets/lv_slider.c **** 
 1789              		.loc 1 227 23 view .LVU608
 1790 035e D2E7     		b	.L82
 1791              	.LVL201:
 1792              	.L123:
 227:Middlewares/LVGL/GUI/lvgl/src/widgets/lv_slider.c **** 
ARM GAS  C:\Users\ADMINI~1\AppData\Local\Temp\cchwJBFL.s 			page 64


 1793              		.loc 1 227 23 view .LVU609
 1794              	.LBE193:
 233:Middlewares/LVGL/GUI/lvgl/src/widgets/lv_slider.c ****         }
 1795              		.loc 1 233 13 is_stmt 1 view .LVU610
 233:Middlewares/LVGL/GUI/lvgl/src/widgets/lv_slider.c ****         }
 1796              		.loc 1 233 28 is_stmt 0 view .LVU611
 1797 0360 E96A     		ldr	r1, [r5, #44]
 1798              	.LVL202:
 233:Middlewares/LVGL/GUI/lvgl/src/widgets/lv_slider.c ****         }
 1799              		.loc 1 233 28 view .LVU612
 1800 0362 D7E7     		b	.L84
 1801              	.L108:
 240:Middlewares/LVGL/GUI/lvgl/src/widgets/lv_slider.c ****         if(*slider->value_to_set != new_value) {
 1802              		.loc 1 240 55 view .LVU613
 1803 0364 0A46     		mov	r2, r1
 1804              	.LVL203:
 240:Middlewares/LVGL/GUI/lvgl/src/widgets/lv_slider.c ****         if(*slider->value_to_set != new_value) {
 1805              		.loc 1 240 55 view .LVU614
 1806 0366 DAE7     		b	.L85
 1807              	.LVL204:
 1808              	.L87:
 240:Middlewares/LVGL/GUI/lvgl/src/widgets/lv_slider.c ****         if(*slider->value_to_set != new_value) {
 1809              		.loc 1 240 55 view .LVU615
 1810              	.LBE180:
 1811              	.LBB194:
 250:Middlewares/LVGL/GUI/lvgl/src/widgets/lv_slider.c ****         slider->value_to_set = NULL;
 1812              		.loc 1 250 9 is_stmt 1 view .LVU616
 250:Middlewares/LVGL/GUI/lvgl/src/widgets/lv_slider.c ****         slider->value_to_set = NULL;
 1813              		.loc 1 250 26 is_stmt 0 view .LVU617
 1814 0368 95F89430 		ldrb	r3, [r5, #148]	@ zero_extendqisi2
 1815 036c 6FF30003 		bfc	r3, #0, #1
 1816 0370 85F89430 		strb	r3, [r5, #148]
 251:Middlewares/LVGL/GUI/lvgl/src/widgets/lv_slider.c **** 
 1817              		.loc 1 251 9 is_stmt 1 view .LVU618
 251:Middlewares/LVGL/GUI/lvgl/src/widgets/lv_slider.c **** 
 1818              		.loc 1 251 30 is_stmt 0 view .LVU619
 1819 0374 0023     		movs	r3, #0
 1820 0376 C5F89030 		str	r3, [r5, #144]
 253:Middlewares/LVGL/GUI/lvgl/src/widgets/lv_slider.c **** 
 1821              		.loc 1 253 9 is_stmt 1 view .LVU620
 1822 037a 2846     		mov	r0, r5
 1823 037c FFF7FEFF 		bl	lv_obj_invalidate
 1824              	.LVL205:
 256:Middlewares/LVGL/GUI/lvgl/src/widgets/lv_slider.c ****         bool editing     = lv_group_get_editing(g);
 1825              		.loc 1 256 9 view .LVU621
 256:Middlewares/LVGL/GUI/lvgl/src/widgets/lv_slider.c ****         bool editing     = lv_group_get_editing(g);
 1826              		.loc 1 256 28 is_stmt 0 view .LVU622
 1827 0380 2846     		mov	r0, r5
 1828 0382 FFF7FEFF 		bl	lv_obj_get_group
 1829              	.LVL206:
 1830 0386 0646     		mov	r6, r0
 1831              	.LVL207:
 257:Middlewares/LVGL/GUI/lvgl/src/widgets/lv_slider.c ****         lv_indev_type_t indev_type = lv_indev_get_type(lv_indev_get_act());
 1832              		.loc 1 257 9 is_stmt 1 view .LVU623
 257:Middlewares/LVGL/GUI/lvgl/src/widgets/lv_slider.c ****         lv_indev_type_t indev_type = lv_indev_get_type(lv_indev_get_act());
 1833              		.loc 1 257 28 is_stmt 0 view .LVU624
 1834 0388 FFF7FEFF 		bl	lv_group_get_editing
ARM GAS  C:\Users\ADMINI~1\AppData\Local\Temp\cchwJBFL.s 			page 65


 1835              	.LVL208:
 257:Middlewares/LVGL/GUI/lvgl/src/widgets/lv_slider.c ****         lv_indev_type_t indev_type = lv_indev_get_type(lv_indev_get_act());
 1836              		.loc 1 257 28 view .LVU625
 1837 038c 0446     		mov	r4, r0
 1838              	.LVL209:
 258:Middlewares/LVGL/GUI/lvgl/src/widgets/lv_slider.c ****         if(indev_type == LV_INDEV_TYPE_ENCODER) {
 1839              		.loc 1 258 9 is_stmt 1 view .LVU626
 258:Middlewares/LVGL/GUI/lvgl/src/widgets/lv_slider.c ****         if(indev_type == LV_INDEV_TYPE_ENCODER) {
 1840              		.loc 1 258 56 is_stmt 0 view .LVU627
 1841 038e FFF7FEFF 		bl	lv_indev_get_act
 1842              	.LVL210:
 258:Middlewares/LVGL/GUI/lvgl/src/widgets/lv_slider.c ****         if(indev_type == LV_INDEV_TYPE_ENCODER) {
 1843              		.loc 1 258 38 view .LVU628
 1844 0392 FFF7FEFF 		bl	lv_indev_get_type
 1845              	.LVL211:
 259:Middlewares/LVGL/GUI/lvgl/src/widgets/lv_slider.c ****             if(editing) {
 1846              		.loc 1 259 9 is_stmt 1 view .LVU629
 259:Middlewares/LVGL/GUI/lvgl/src/widgets/lv_slider.c ****             if(editing) {
 1847              		.loc 1 259 11 is_stmt 0 view .LVU630
 1848 0396 0428     		cmp	r0, #4
 1849 0398 7FF43BAE 		bne	.L57
 260:Middlewares/LVGL/GUI/lvgl/src/widgets/lv_slider.c ****                 if(lv_slider_get_mode(obj) == LV_SLIDER_MODE_RANGE) {
 1850              		.loc 1 260 13 is_stmt 1 view .LVU631
 260:Middlewares/LVGL/GUI/lvgl/src/widgets/lv_slider.c ****                 if(lv_slider_get_mode(obj) == LV_SLIDER_MODE_RANGE) {
 1851              		.loc 1 260 15 is_stmt 0 view .LVU632
 1852 039c 002C     		cmp	r4, #0
 1853 039e 3FF438AE 		beq	.L57
 261:Middlewares/LVGL/GUI/lvgl/src/widgets/lv_slider.c ****                     if(slider->left_knob_focus == 0) slider->left_knob_focus = 1;
 1854              		.loc 1 261 17 is_stmt 1 view .LVU633
 1855              	.LVL212:
 1856              	.LBB195:
 1857              	.LBI195:
 177:Middlewares/LVGL/GUI/lvgl/src/widgets/lv_slider.h **** {
 1858              		.loc 4 177 32 view .LVU634
 1859              	.LBB196:
 179:Middlewares/LVGL/GUI/lvgl/src/widgets/lv_slider.h ****     if(mode == LV_BAR_MODE_SYMMETRICAL) return LV_SLIDER_MODE_SYMMETRICAL;
 1860              		.loc 4 179 5 view .LVU635
 179:Middlewares/LVGL/GUI/lvgl/src/widgets/lv_slider.h ****     if(mode == LV_BAR_MODE_SYMMETRICAL) return LV_SLIDER_MODE_SYMMETRICAL;
 1861              		.loc 4 179 26 is_stmt 0 view .LVU636
 1862 03a2 2846     		mov	r0, r5
 1863              	.LVL213:
 179:Middlewares/LVGL/GUI/lvgl/src/widgets/lv_slider.h ****     if(mode == LV_BAR_MODE_SYMMETRICAL) return LV_SLIDER_MODE_SYMMETRICAL;
 1864              		.loc 4 179 26 view .LVU637
 1865 03a4 FFF7FEFF 		bl	lv_bar_get_mode
 1866              	.LVL214:
 180:Middlewares/LVGL/GUI/lvgl/src/widgets/lv_slider.h ****     else if(mode == LV_BAR_MODE_RANGE) return LV_SLIDER_MODE_RANGE;
 1867              		.loc 4 180 5 is_stmt 1 view .LVU638
 180:Middlewares/LVGL/GUI/lvgl/src/widgets/lv_slider.h ****     else if(mode == LV_BAR_MODE_RANGE) return LV_SLIDER_MODE_RANGE;
 1868              		.loc 4 180 7 is_stmt 0 view .LVU639
 1869 03a8 0128     		cmp	r0, #1
 1870 03aa 02D0     		beq	.L89
 181:Middlewares/LVGL/GUI/lvgl/src/widgets/lv_slider.h ****     else return LV_SLIDER_MODE_NORMAL;
 1871              		.loc 4 181 10 is_stmt 1 view .LVU640
 181:Middlewares/LVGL/GUI/lvgl/src/widgets/lv_slider.h ****     else return LV_SLIDER_MODE_NORMAL;
 1872              		.loc 4 181 12 is_stmt 0 view .LVU641
 1873 03ac 0228     		cmp	r0, #2
 1874 03ae 00D0     		beq	.L89
ARM GAS  C:\Users\ADMINI~1\AppData\Local\Temp\cchwJBFL.s 			page 66


 1875              		.loc 4 182 17 view .LVU642
 1876 03b0 0020     		movs	r0, #0
 1877              	.LVL215:
 1878              	.L89:
 1879              		.loc 4 182 17 view .LVU643
 1880              	.LBE196:
 1881              	.LBE195:
 261:Middlewares/LVGL/GUI/lvgl/src/widgets/lv_slider.c ****                     if(slider->left_knob_focus == 0) slider->left_knob_focus = 1;
 1882              		.loc 1 261 19 view .LVU644
 1883 03b2 0228     		cmp	r0, #2
 1884 03b4 14D1     		bne	.L90
 262:Middlewares/LVGL/GUI/lvgl/src/widgets/lv_slider.c ****                     else {
 1885              		.loc 1 262 21 is_stmt 1 view .LVU645
 262:Middlewares/LVGL/GUI/lvgl/src/widgets/lv_slider.c ****                     else {
 1886              		.loc 1 262 48 is_stmt 0 view .LVU646
 1887 03b6 95F89430 		ldrb	r3, [r5, #148]	@ zero_extendqisi2
 262:Middlewares/LVGL/GUI/lvgl/src/widgets/lv_slider.c ****                     else {
 1888              		.loc 1 262 23 view .LVU647
 1889 03ba 13F0020F 		tst	r3, #2
 1890 03be 04D1     		bne	.L91
 262:Middlewares/LVGL/GUI/lvgl/src/widgets/lv_slider.c ****                     else {
 1891              		.loc 1 262 54 is_stmt 1 discriminator 1 view .LVU648
 262:Middlewares/LVGL/GUI/lvgl/src/widgets/lv_slider.c ****                     else {
 1892              		.loc 1 262 78 is_stmt 0 discriminator 1 view .LVU649
 1893 03c0 43F00203 		orr	r3, r3, #2
 1894 03c4 85F89430 		strb	r3, [r5, #148]
 1895 03c8 23E6     		b	.L57
 1896              	.L91:
 264:Middlewares/LVGL/GUI/lvgl/src/widgets/lv_slider.c ****                         lv_group_set_editing(g, false);
 1897              		.loc 1 264 25 is_stmt 1 view .LVU650
 264:Middlewares/LVGL/GUI/lvgl/src/widgets/lv_slider.c ****                         lv_group_set_editing(g, false);
 1898              		.loc 1 264 49 is_stmt 0 view .LVU651
 1899 03ca 95F89430 		ldrb	r3, [r5, #148]	@ zero_extendqisi2
 1900 03ce 6FF34103 		bfc	r3, #1, #1
 1901 03d2 85F89430 		strb	r3, [r5, #148]
 265:Middlewares/LVGL/GUI/lvgl/src/widgets/lv_slider.c ****                     }
 1902              		.loc 1 265 25 is_stmt 1 view .LVU652
 1903 03d6 0021     		movs	r1, #0
 1904 03d8 3046     		mov	r0, r6
 1905 03da FFF7FEFF 		bl	lv_group_set_editing
 1906              	.LVL216:
 1907 03de 18E6     		b	.L57
 1908              	.L90:
 269:Middlewares/LVGL/GUI/lvgl/src/widgets/lv_slider.c ****                 }
 1909              		.loc 1 269 21 view .LVU653
 1910 03e0 0021     		movs	r1, #0
 1911 03e2 3046     		mov	r0, r6
 1912 03e4 FFF7FEFF 		bl	lv_group_set_editing
 1913              	.LVL217:
 1914 03e8 13E6     		b	.L57
 1915              	.LVL218:
 1916              	.L115:
 269:Middlewares/LVGL/GUI/lvgl/src/widgets/lv_slider.c ****                 }
 1917              		.loc 1 269 21 is_stmt 0 view .LVU654
 1918              	.LBE194:
 1919              	.LBB197:
 276:Middlewares/LVGL/GUI/lvgl/src/widgets/lv_slider.c ****         if(indev_type == LV_INDEV_TYPE_ENCODER || indev_type == LV_INDEV_TYPE_KEYPAD) {
ARM GAS  C:\Users\ADMINI~1\AppData\Local\Temp\cchwJBFL.s 			page 67


 1920              		.loc 1 276 9 is_stmt 1 view .LVU655
 276:Middlewares/LVGL/GUI/lvgl/src/widgets/lv_slider.c ****         if(indev_type == LV_INDEV_TYPE_ENCODER || indev_type == LV_INDEV_TYPE_KEYPAD) {
 1921              		.loc 1 276 56 is_stmt 0 view .LVU656
 1922 03ea FFF7FEFF 		bl	lv_indev_get_act
 1923              	.LVL219:
 276:Middlewares/LVGL/GUI/lvgl/src/widgets/lv_slider.c ****         if(indev_type == LV_INDEV_TYPE_ENCODER || indev_type == LV_INDEV_TYPE_KEYPAD) {
 1924              		.loc 1 276 38 view .LVU657
 1925 03ee FFF7FEFF 		bl	lv_indev_get_type
 1926              	.LVL220:
 277:Middlewares/LVGL/GUI/lvgl/src/widgets/lv_slider.c ****             slider->left_knob_focus = 0;
 1927              		.loc 1 277 9 is_stmt 1 view .LVU658
 277:Middlewares/LVGL/GUI/lvgl/src/widgets/lv_slider.c ****             slider->left_knob_focus = 0;
 1928              		.loc 1 277 11 is_stmt 0 view .LVU659
 1929 03f2 0428     		cmp	r0, #4
 1930 03f4 02D0     		beq	.L93
 277:Middlewares/LVGL/GUI/lvgl/src/widgets/lv_slider.c ****             slider->left_knob_focus = 0;
 1931              		.loc 1 277 48 discriminator 1 view .LVU660
 1932 03f6 0228     		cmp	r0, #2
 1933 03f8 7FF40BAE 		bne	.L57
 1934              	.L93:
 278:Middlewares/LVGL/GUI/lvgl/src/widgets/lv_slider.c ****         }
 1935              		.loc 1 278 13 is_stmt 1 view .LVU661
 278:Middlewares/LVGL/GUI/lvgl/src/widgets/lv_slider.c ****         }
 1936              		.loc 1 278 37 is_stmt 0 view .LVU662
 1937 03fc 95F89430 		ldrb	r3, [r5, #148]	@ zero_extendqisi2
 1938 0400 6FF34103 		bfc	r3, #1, #1
 1939 0404 85F89430 		strb	r3, [r5, #148]
 1940 0408 03E6     		b	.L57
 1941              	.LVL221:
 1942              	.L116:
 278:Middlewares/LVGL/GUI/lvgl/src/widgets/lv_slider.c ****         }
 1943              		.loc 1 278 37 view .LVU663
 1944              	.LBE197:
 282:Middlewares/LVGL/GUI/lvgl/src/widgets/lv_slider.c ****     }
 1945              		.loc 1 282 9 is_stmt 1 view .LVU664
 1946 040a 2846     		mov	r0, r5
 1947 040c FFF7FEFF 		bl	lv_obj_refresh_ext_draw_size
 1948              	.LVL222:
 1949 0410 FFE5     		b	.L57
 1950              	.L117:
 1951              	.LBB198:
 285:Middlewares/LVGL/GUI/lvgl/src/widgets/lv_slider.c ****         lv_coord_t knob_right = lv_obj_get_style_pad_right(obj, LV_PART_KNOB);
 1952              		.loc 1 285 9 view .LVU665
 1953              	.LVL223:
 1954              	.LBB199:
 1955              	.LBI199:
 103:Middlewares/LVGL/GUI/lvgl/src/widgets/../core/lv_obj_style_gen.h **** {
 1956              		.loc 2 103 26 view .LVU666
 1957              	.LBB200:
 105:Middlewares/LVGL/GUI/lvgl/src/widgets/../core/lv_obj_style_gen.h ****     return (lv_coord_t)v.num;
 1958              		.loc 2 105 5 view .LVU667
 105:Middlewares/LVGL/GUI/lvgl/src/widgets/../core/lv_obj_style_gen.h ****     return (lv_coord_t)v.num;
 1959              		.loc 2 105 26 is_stmt 0 view .LVU668
 1960 0412 41F61202 		movw	r2, #6162
 1961 0416 4FF44031 		mov	r1, #196608
 1962 041a 2846     		mov	r0, r5
 1963 041c FFF7FEFF 		bl	lv_obj_get_style_prop
ARM GAS  C:\Users\ADMINI~1\AppData\Local\Temp\cchwJBFL.s 			page 68


 1964              	.LVL224:
 1965 0420 0390     		str	r0, [sp, #12]
 106:Middlewares/LVGL/GUI/lvgl/src/widgets/../core/lv_obj_style_gen.h **** }
 1966              		.loc 2 106 5 is_stmt 1 view .LVU669
 1967              	.LVL225:
 106:Middlewares/LVGL/GUI/lvgl/src/widgets/../core/lv_obj_style_gen.h **** }
 1968              		.loc 2 106 5 is_stmt 0 view .LVU670
 1969              	.LBE200:
 1970              	.LBE199:
 286:Middlewares/LVGL/GUI/lvgl/src/widgets/lv_slider.c ****         lv_coord_t knob_top = lv_obj_get_style_pad_top(obj, LV_PART_KNOB);
 1971              		.loc 1 286 9 is_stmt 1 view .LVU671
 1972              	.LBB201:
 1973              	.LBI201:
 109:Middlewares/LVGL/GUI/lvgl/src/widgets/../core/lv_obj_style_gen.h **** {
 1974              		.loc 2 109 26 view .LVU672
 1975              	.LBB202:
 111:Middlewares/LVGL/GUI/lvgl/src/widgets/../core/lv_obj_style_gen.h ****     return (lv_coord_t)v.num;
 1976              		.loc 2 111 5 view .LVU673
 111:Middlewares/LVGL/GUI/lvgl/src/widgets/../core/lv_obj_style_gen.h ****     return (lv_coord_t)v.num;
 1977              		.loc 2 111 26 is_stmt 0 view .LVU674
 1978 0422 41F61302 		movw	r2, #6163
 1979 0426 4FF44031 		mov	r1, #196608
 1980 042a 2846     		mov	r0, r5
 1981              	.LVL226:
 111:Middlewares/LVGL/GUI/lvgl/src/widgets/../core/lv_obj_style_gen.h ****     return (lv_coord_t)v.num;
 1982              		.loc 2 111 26 view .LVU675
 1983 042c FFF7FEFF 		bl	lv_obj_get_style_prop
 1984              	.LVL227:
 1985 0430 0290     		str	r0, [sp, #8]
 112:Middlewares/LVGL/GUI/lvgl/src/widgets/../core/lv_obj_style_gen.h **** }
 1986              		.loc 2 112 5 is_stmt 1 view .LVU676
 1987              	.LVL228:
 112:Middlewares/LVGL/GUI/lvgl/src/widgets/../core/lv_obj_style_gen.h **** }
 1988              		.loc 2 112 5 is_stmt 0 view .LVU677
 1989              	.LBE202:
 1990              	.LBE201:
 287:Middlewares/LVGL/GUI/lvgl/src/widgets/lv_slider.c ****         lv_coord_t knob_bottom = lv_obj_get_style_pad_bottom(obj, LV_PART_KNOB);
 1991              		.loc 1 287 9 is_stmt 1 view .LVU678
 1992              	.LBB203:
 1993              	.LBI203:
  91:Middlewares/LVGL/GUI/lvgl/src/widgets/../core/lv_obj_style_gen.h **** {
 1994              		.loc 2 91 26 view .LVU679
 1995              	.LBB204:
  93:Middlewares/LVGL/GUI/lvgl/src/widgets/../core/lv_obj_style_gen.h ****     return (lv_coord_t)v.num;
 1996              		.loc 2 93 5 view .LVU680
  93:Middlewares/LVGL/GUI/lvgl/src/widgets/../core/lv_obj_style_gen.h ****     return (lv_coord_t)v.num;
 1997              		.loc 2 93 26 is_stmt 0 view .LVU681
 1998 0432 41F61002 		movw	r2, #6160
 1999 0436 4FF44031 		mov	r1, #196608
 2000 043a 2846     		mov	r0, r5
 2001              	.LVL229:
  93:Middlewares/LVGL/GUI/lvgl/src/widgets/../core/lv_obj_style_gen.h ****     return (lv_coord_t)v.num;
 2002              		.loc 2 93 26 view .LVU682
 2003 043c FFF7FEFF 		bl	lv_obj_get_style_prop
 2004              	.LVL230:
 2005 0440 0190     		str	r0, [sp, #4]
  94:Middlewares/LVGL/GUI/lvgl/src/widgets/../core/lv_obj_style_gen.h **** }
ARM GAS  C:\Users\ADMINI~1\AppData\Local\Temp\cchwJBFL.s 			page 69


 2006              		.loc 2 94 5 is_stmt 1 view .LVU683
 2007              	.LVL231:
  94:Middlewares/LVGL/GUI/lvgl/src/widgets/../core/lv_obj_style_gen.h **** }
 2008              		.loc 2 94 5 is_stmt 0 view .LVU684
 2009              	.LBE204:
 2010              	.LBE203:
 288:Middlewares/LVGL/GUI/lvgl/src/widgets/lv_slider.c **** 
 2011              		.loc 1 288 9 is_stmt 1 view .LVU685
 2012              	.LBB205:
 2013              	.LBI205:
  97:Middlewares/LVGL/GUI/lvgl/src/widgets/../core/lv_obj_style_gen.h **** {
 2014              		.loc 2 97 26 view .LVU686
 2015              	.LBB206:
  99:Middlewares/LVGL/GUI/lvgl/src/widgets/../core/lv_obj_style_gen.h ****     return (lv_coord_t)v.num;
 2016              		.loc 2 99 5 view .LVU687
  99:Middlewares/LVGL/GUI/lvgl/src/widgets/../core/lv_obj_style_gen.h ****     return (lv_coord_t)v.num;
 2017              		.loc 2 99 26 is_stmt 0 view .LVU688
 2018 0442 41F61102 		movw	r2, #6161
 2019 0446 4FF44031 		mov	r1, #196608
 2020 044a 2846     		mov	r0, r5
 2021              	.LVL232:
  99:Middlewares/LVGL/GUI/lvgl/src/widgets/../core/lv_obj_style_gen.h ****     return (lv_coord_t)v.num;
 2022              		.loc 2 99 26 view .LVU689
 2023 044c FFF7FEFF 		bl	lv_obj_get_style_prop
 2024              	.LVL233:
 2025 0450 0646     		mov	r6, r0
 2026              	.LVL234:
 100:Middlewares/LVGL/GUI/lvgl/src/widgets/../core/lv_obj_style_gen.h **** }
 2027              		.loc 2 100 5 is_stmt 1 view .LVU690
 100:Middlewares/LVGL/GUI/lvgl/src/widgets/../core/lv_obj_style_gen.h **** }
 2028              		.loc 2 100 5 is_stmt 0 view .LVU691
 2029              	.LBE206:
 2030              	.LBE205:
 291:Middlewares/LVGL/GUI/lvgl/src/widgets/lv_slider.c ****         lv_coord_t trans_w = lv_obj_get_style_transform_width(obj, LV_PART_KNOB);
 2031              		.loc 1 291 9 is_stmt 1 view .LVU692
 2032              	.LBB207:
 2033              	.LBI207:
  79:Middlewares/LVGL/GUI/lvgl/src/widgets/../core/lv_obj_style_gen.h **** {
 2034              		.loc 2 79 26 view .LVU693
 2035              	.LBB208:
  81:Middlewares/LVGL/GUI/lvgl/src/widgets/../core/lv_obj_style_gen.h ****     return (lv_coord_t)v.num;
 2036              		.loc 2 81 5 view .LVU694
  81:Middlewares/LVGL/GUI/lvgl/src/widgets/../core/lv_obj_style_gen.h ****     return (lv_coord_t)v.num;
 2037              		.loc 2 81 26 is_stmt 0 view .LVU695
 2038 0452 43F60E02 		movw	r2, #14350
 2039 0456 4FF44031 		mov	r1, #196608
 2040 045a 2846     		mov	r0, r5
 2041              	.LVL235:
  81:Middlewares/LVGL/GUI/lvgl/src/widgets/../core/lv_obj_style_gen.h ****     return (lv_coord_t)v.num;
 2042              		.loc 2 81 26 view .LVU696
 2043 045c FFF7FEFF 		bl	lv_obj_get_style_prop
 2044              	.LVL236:
 2045 0460 8146     		mov	r9, r0
  82:Middlewares/LVGL/GUI/lvgl/src/widgets/../core/lv_obj_style_gen.h **** }
 2046              		.loc 2 82 5 is_stmt 1 view .LVU697
 2047              	.LVL237:
  82:Middlewares/LVGL/GUI/lvgl/src/widgets/../core/lv_obj_style_gen.h **** }
ARM GAS  C:\Users\ADMINI~1\AppData\Local\Temp\cchwJBFL.s 			page 70


 2048              		.loc 2 82 5 is_stmt 0 view .LVU698
 2049              	.LBE208:
 2050              	.LBE207:
 292:Middlewares/LVGL/GUI/lvgl/src/widgets/lv_slider.c ****         lv_coord_t trans_h = lv_obj_get_style_transform_height(obj, LV_PART_KNOB);
 2051              		.loc 1 292 9 is_stmt 1 view .LVU699
 2052              	.LBB209:
 2053              	.LBI209:
  55:Middlewares/LVGL/GUI/lvgl/src/widgets/../core/lv_obj_style_gen.h **** {
 2054              		.loc 2 55 26 view .LVU700
 2055              	.LBB210:
  57:Middlewares/LVGL/GUI/lvgl/src/widgets/../core/lv_obj_style_gen.h ****     return (lv_coord_t)v.num;
 2056              		.loc 2 57 5 view .LVU701
  57:Middlewares/LVGL/GUI/lvgl/src/widgets/../core/lv_obj_style_gen.h ****     return (lv_coord_t)v.num;
 2057              		.loc 2 57 26 is_stmt 0 view .LVU702
 2058 0462 40F60A02 		movw	r2, #2058
 2059 0466 4FF44031 		mov	r1, #196608
 2060 046a 2846     		mov	r0, r5
 2061              	.LVL238:
  57:Middlewares/LVGL/GUI/lvgl/src/widgets/../core/lv_obj_style_gen.h ****     return (lv_coord_t)v.num;
 2062              		.loc 2 57 26 view .LVU703
 2063 046c FFF7FEFF 		bl	lv_obj_get_style_prop
 2064              	.LVL239:
 2065 0470 8246     		mov	r10, r0
 2066              	.LVL240:
  58:Middlewares/LVGL/GUI/lvgl/src/widgets/../core/lv_obj_style_gen.h **** }
 2067              		.loc 2 58 5 is_stmt 1 view .LVU704
  58:Middlewares/LVGL/GUI/lvgl/src/widgets/../core/lv_obj_style_gen.h **** }
 2068              		.loc 2 58 5 is_stmt 0 view .LVU705
 2069              	.LBE210:
 2070              	.LBE209:
 293:Middlewares/LVGL/GUI/lvgl/src/widgets/lv_slider.c ****         lv_coord_t knob_size = LV_MIN(lv_obj_get_width(obj) + 2 * trans_w, lv_obj_get_height(obj) +
 2071              		.loc 1 293 9 is_stmt 1 view .LVU706
 2072              	.LBB211:
 2073              	.LBI211:
  61:Middlewares/LVGL/GUI/lvgl/src/widgets/../core/lv_obj_style_gen.h **** {
 2074              		.loc 2 61 26 view .LVU707
 2075              	.LBB212:
  63:Middlewares/LVGL/GUI/lvgl/src/widgets/../core/lv_obj_style_gen.h ****     return (lv_coord_t)v.num;
 2076              		.loc 2 63 5 view .LVU708
  63:Middlewares/LVGL/GUI/lvgl/src/widgets/../core/lv_obj_style_gen.h ****     return (lv_coord_t)v.num;
 2077              		.loc 2 63 26 is_stmt 0 view .LVU709
 2078 0472 40F60B02 		movw	r2, #2059
 2079 0476 4FF44031 		mov	r1, #196608
 2080 047a 2846     		mov	r0, r5
 2081              	.LVL241:
  63:Middlewares/LVGL/GUI/lvgl/src/widgets/../core/lv_obj_style_gen.h ****     return (lv_coord_t)v.num;
 2082              		.loc 2 63 26 view .LVU710
 2083 047c FFF7FEFF 		bl	lv_obj_get_style_prop
 2084              	.LVL242:
 2085 0480 8046     		mov	r8, r0
 2086              	.LVL243:
  64:Middlewares/LVGL/GUI/lvgl/src/widgets/../core/lv_obj_style_gen.h **** }
 2087              		.loc 2 64 5 is_stmt 1 view .LVU711
  64:Middlewares/LVGL/GUI/lvgl/src/widgets/../core/lv_obj_style_gen.h **** }
 2088              		.loc 2 64 5 is_stmt 0 view .LVU712
 2089              	.LBE212:
 2090              	.LBE211:
ARM GAS  C:\Users\ADMINI~1\AppData\Local\Temp\cchwJBFL.s 			page 71


 294:Middlewares/LVGL/GUI/lvgl/src/widgets/lv_slider.c ****         knob_size = (knob_size * zoom) >> 8;
 2091              		.loc 1 294 9 is_stmt 1 view .LVU713
 294:Middlewares/LVGL/GUI/lvgl/src/widgets/lv_slider.c ****         knob_size = (knob_size * zoom) >> 8;
 2092              		.loc 1 294 32 is_stmt 0 view .LVU714
 2093 0482 2846     		mov	r0, r5
 2094              	.LVL244:
 294:Middlewares/LVGL/GUI/lvgl/src/widgets/lv_slider.c ****         knob_size = (knob_size * zoom) >> 8;
 2095              		.loc 1 294 32 view .LVU715
 2096 0484 FFF7FEFF 		bl	lv_obj_get_width
 2097              	.LVL245:
 2098 0488 4FEA4A0B 		lsl	fp, r10, #1
 2099 048c 00EB4A0A 		add	r10, r0, r10, lsl #1
 2100              	.LVL246:
 294:Middlewares/LVGL/GUI/lvgl/src/widgets/lv_slider.c ****         knob_size = (knob_size * zoom) >> 8;
 2101              		.loc 1 294 32 view .LVU716
 2102 0490 2846     		mov	r0, r5
 2103 0492 FFF7FEFF 		bl	lv_obj_get_height
 2104              	.LVL247:
 2105 0496 4FEA4807 		lsl	r7, r8, #1
 2106              	.LVL248:
 294:Middlewares/LVGL/GUI/lvgl/src/widgets/lv_slider.c ****         knob_size = (knob_size * zoom) >> 8;
 2107              		.loc 1 294 32 view .LVU717
 2108 049a 00EB4808 		add	r8, r0, r8, lsl #1
 2109              	.LVL249:
 294:Middlewares/LVGL/GUI/lvgl/src/widgets/lv_slider.c ****         knob_size = (knob_size * zoom) >> 8;
 2110              		.loc 1 294 114 view .LVU718
 2111 049e C245     		cmp	r10, r8
 2112 04a0 25DA     		bge	.L96
 294:Middlewares/LVGL/GUI/lvgl/src/widgets/lv_slider.c ****         knob_size = (knob_size * zoom) >> 8;
 2113              		.loc 1 294 32 discriminator 1 view .LVU719
 2114 04a2 2846     		mov	r0, r5
 2115 04a4 FFF7FEFF 		bl	lv_obj_get_width
 2116              	.LVL250:
 2117 04a8 0BEB0003 		add	r3, fp, r0
 294:Middlewares/LVGL/GUI/lvgl/src/widgets/lv_slider.c ****         knob_size = (knob_size * zoom) >> 8;
 2118              		.loc 1 294 114 discriminator 1 view .LVU720
 2119 04ac 5B10     		asrs	r3, r3, #1
 2120              	.L97:
 2121              	.LVL251:
 295:Middlewares/LVGL/GUI/lvgl/src/widgets/lv_slider.c ****         knob_size += LV_MAX(LV_MAX(knob_left, knob_right), LV_MAX(knob_bottom, knob_top));
 2122              		.loc 1 295 9 is_stmt 1 discriminator 4 view .LVU721
 295:Middlewares/LVGL/GUI/lvgl/src/widgets/lv_slider.c ****         knob_size += LV_MAX(LV_MAX(knob_left, knob_right), LV_MAX(knob_bottom, knob_top));
 2123              		.loc 1 295 32 is_stmt 0 discriminator 4 view .LVU722
 2124 04ae 09FB03F9 		mul	r9, r9, r3
 2125              	.LVL252:
 296:Middlewares/LVGL/GUI/lvgl/src/widgets/lv_slider.c ****         knob_size += 2;         /*For rounding error*/
 2126              		.loc 1 296 9 is_stmt 1 discriminator 4 view .LVU723
 296:Middlewares/LVGL/GUI/lvgl/src/widgets/lv_slider.c ****         knob_size += 2;         /*For rounding error*/
 2127              		.loc 1 296 22 is_stmt 0 discriminator 4 view .LVU724
 2128 04b2 019B     		ldr	r3, [sp, #4]
 2129 04b4 9E42     		cmp	r6, r3
 2130 04b6 B8BF     		it	lt
 2131 04b8 1E46     		movlt	r6, r3
 2132              	.LVL253:
 296:Middlewares/LVGL/GUI/lvgl/src/widgets/lv_slider.c ****         knob_size += 2;         /*For rounding error*/
 2133              		.loc 1 296 22 discriminator 4 view .LVU725
 2134 04ba 0298     		ldr	r0, [sp, #8]
ARM GAS  C:\Users\ADMINI~1\AppData\Local\Temp\cchwJBFL.s 			page 72


 2135 04bc 039B     		ldr	r3, [sp, #12]
 2136 04be 9842     		cmp	r0, r3
 2137 04c0 B8BF     		it	lt
 2138 04c2 1846     		movlt	r0, r3
 2139 04c4 8642     		cmp	r6, r0
 2140 04c6 B8BF     		it	lt
 2141 04c8 0646     		movlt	r6, r0
 296:Middlewares/LVGL/GUI/lvgl/src/widgets/lv_slider.c ****         knob_size += 2;         /*For rounding error*/
 2142              		.loc 1 296 19 discriminator 4 view .LVU726
 2143 04ca 06EB2926 		add	r6, r6, r9, asr #8
 2144              	.LVL254:
 297:Middlewares/LVGL/GUI/lvgl/src/widgets/lv_slider.c ****         knob_size += lv_obj_calculate_ext_draw_size(obj, LV_PART_KNOB);
 2145              		.loc 1 297 9 is_stmt 1 discriminator 4 view .LVU727
 297:Middlewares/LVGL/GUI/lvgl/src/widgets/lv_slider.c ****         knob_size += lv_obj_calculate_ext_draw_size(obj, LV_PART_KNOB);
 2146              		.loc 1 297 19 is_stmt 0 discriminator 4 view .LVU728
 2147 04ce 0236     		adds	r6, r6, #2
 2148              	.LVL255:
 298:Middlewares/LVGL/GUI/lvgl/src/widgets/lv_slider.c **** 
 2149              		.loc 1 298 9 is_stmt 1 discriminator 4 view .LVU729
 298:Middlewares/LVGL/GUI/lvgl/src/widgets/lv_slider.c **** 
 2150              		.loc 1 298 22 is_stmt 0 discriminator 4 view .LVU730
 2151 04d0 4FF44031 		mov	r1, #196608
 2152 04d4 2846     		mov	r0, r5
 2153 04d6 FFF7FEFF 		bl	lv_obj_calculate_ext_draw_size
 2154              	.LVL256:
 298:Middlewares/LVGL/GUI/lvgl/src/widgets/lv_slider.c **** 
 2155              		.loc 1 298 19 discriminator 4 view .LVU731
 2156 04da 0644     		add	r6, r6, r0
 2157              	.LVL257:
 301:Middlewares/LVGL/GUI/lvgl/src/widgets/lv_slider.c ****         *s  = LV_MAX(*s, knob_size);
 2158              		.loc 1 301 9 is_stmt 1 discriminator 4 view .LVU732
 301:Middlewares/LVGL/GUI/lvgl/src/widgets/lv_slider.c ****         *s  = LV_MAX(*s, knob_size);
 2159              		.loc 1 301 26 is_stmt 0 discriminator 4 view .LVU733
 2160 04dc 2046     		mov	r0, r4
 2161 04de FFF7FEFF 		bl	lv_event_get_param
 2162              	.LVL258:
 302:Middlewares/LVGL/GUI/lvgl/src/widgets/lv_slider.c **** 
 2163              		.loc 1 302 9 is_stmt 1 discriminator 4 view .LVU734
 302:Middlewares/LVGL/GUI/lvgl/src/widgets/lv_slider.c **** 
 2164              		.loc 1 302 15 is_stmt 0 discriminator 4 view .LVU735
 2165 04e2 0368     		ldr	r3, [r0]
 2166 04e4 B342     		cmp	r3, r6
 2167 04e6 B8BF     		it	lt
 2168 04e8 3346     		movlt	r3, r6
 302:Middlewares/LVGL/GUI/lvgl/src/widgets/lv_slider.c **** 
 2169              		.loc 1 302 13 discriminator 4 view .LVU736
 2170 04ea 0360     		str	r3, [r0]
 2171              	.LBE198:
 2172 04ec 91E5     		b	.L57
 2173              	.LVL259:
 2174              	.L96:
 2175              	.LBB213:
 294:Middlewares/LVGL/GUI/lvgl/src/widgets/lv_slider.c ****         knob_size = (knob_size * zoom) >> 8;
 2176              		.loc 1 294 32 discriminator 2 view .LVU737
 2177 04ee 2846     		mov	r0, r5
 2178 04f0 FFF7FEFF 		bl	lv_obj_get_height
 2179              	.LVL260:
ARM GAS  C:\Users\ADMINI~1\AppData\Local\Temp\cchwJBFL.s 			page 73


 2180 04f4 3B18     		adds	r3, r7, r0
 294:Middlewares/LVGL/GUI/lvgl/src/widgets/lv_slider.c ****         knob_size = (knob_size * zoom) >> 8;
 2181              		.loc 1 294 114 discriminator 2 view .LVU738
 2182 04f6 5B10     		asrs	r3, r3, #1
 2183 04f8 D9E7     		b	.L97
 2184              	.LVL261:
 2185              	.L118:
 294:Middlewares/LVGL/GUI/lvgl/src/widgets/lv_slider.c ****         knob_size = (knob_size * zoom) >> 8;
 2186              		.loc 1 294 114 discriminator 2 view .LVU739
 2187              	.LBE213:
 2188              	.LBB214:
 306:Middlewares/LVGL/GUI/lvgl/src/widgets/lv_slider.c **** 
 2189              		.loc 1 306 9 is_stmt 1 view .LVU740
 306:Middlewares/LVGL/GUI/lvgl/src/widgets/lv_slider.c **** 
 2190              		.loc 1 306 28 is_stmt 0 view .LVU741
 2191 04fa 2046     		mov	r0, r4
 2192 04fc FFF7FEFF 		bl	lv_event_get_param
 2193              	.LVL262:
 306:Middlewares/LVGL/GUI/lvgl/src/widgets/lv_slider.c **** 
 2194              		.loc 1 306 14 view .LVU742
 2195 0500 0378     		ldrb	r3, [r0]	@ zero_extendqisi2
 2196              	.LVL263:
 308:Middlewares/LVGL/GUI/lvgl/src/widgets/lv_slider.c ****             if(!slider->left_knob_focus) lv_slider_set_value(obj, lv_slider_get_value(obj) + 1, LV_
 2197              		.loc 1 308 9 is_stmt 1 view .LVU743
 308:Middlewares/LVGL/GUI/lvgl/src/widgets/lv_slider.c ****             if(!slider->left_knob_focus) lv_slider_set_value(obj, lv_slider_get_value(obj) + 1, LV_
 2198              		.loc 1 308 11 is_stmt 0 view .LVU744
 2199 0502 132B     		cmp	r3, #19
 2200 0504 19D0     		beq	.L99
 308:Middlewares/LVGL/GUI/lvgl/src/widgets/lv_slider.c ****             if(!slider->left_knob_focus) lv_slider_set_value(obj, lv_slider_get_value(obj) + 1, LV_
 2201              		.loc 1 308 30 discriminator 1 view .LVU745
 2202 0506 112B     		cmp	r3, #17
 2203 0508 17D0     		beq	.L99
 315:Middlewares/LVGL/GUI/lvgl/src/widgets/lv_slider.c ****             if(!slider->left_knob_focus) lv_slider_set_value(obj, lv_slider_get_value(obj) - 1, LV_
 2204              		.loc 1 315 14 is_stmt 1 view .LVU746
 315:Middlewares/LVGL/GUI/lvgl/src/widgets/lv_slider.c ****             if(!slider->left_knob_focus) lv_slider_set_value(obj, lv_slider_get_value(obj) - 1, LV_
 2205              		.loc 1 315 16 is_stmt 0 view .LVU747
 2206 050a 142B     		cmp	r3, #20
 2207 050c 02D0     		beq	.L103
 315:Middlewares/LVGL/GUI/lvgl/src/widgets/lv_slider.c ****             if(!slider->left_knob_focus) lv_slider_set_value(obj, lv_slider_get_value(obj) - 1, LV_
 2208              		.loc 1 315 34 discriminator 1 view .LVU748
 2209 050e 122B     		cmp	r3, #18
 2210 0510 7FF47FAD 		bne	.L57
 2211              	.L103:
 316:Middlewares/LVGL/GUI/lvgl/src/widgets/lv_slider.c ****             else lv_slider_set_left_value(obj, lv_slider_get_left_value(obj) - 1, LV_ANIM_ON);
 2212              		.loc 1 316 13 is_stmt 1 view .LVU749
 316:Middlewares/LVGL/GUI/lvgl/src/widgets/lv_slider.c ****             else lv_slider_set_left_value(obj, lv_slider_get_left_value(obj) - 1, LV_ANIM_ON);
 2213              		.loc 1 316 16 is_stmt 0 view .LVU750
 2214 0514 95F89430 		ldrb	r3, [r5, #148]	@ zero_extendqisi2
 2215              	.LVL264:
 316:Middlewares/LVGL/GUI/lvgl/src/widgets/lv_slider.c ****             else lv_slider_set_left_value(obj, lv_slider_get_left_value(obj) - 1, LV_ANIM_ON);
 2216              		.loc 1 316 15 view .LVU751
 2217 0518 13F0020F 		tst	r3, #2
 2218 051c 29D1     		bne	.L104
 316:Middlewares/LVGL/GUI/lvgl/src/widgets/lv_slider.c ****             else lv_slider_set_left_value(obj, lv_slider_get_left_value(obj) - 1, LV_ANIM_ON);
 2219              		.loc 1 316 42 is_stmt 1 view .LVU752
 2220              	.LVL265:
 2221              	.LBB215:
ARM GAS  C:\Users\ADMINI~1\AppData\Local\Temp\cchwJBFL.s 			page 74


 2222              	.LBI215:
 130:Middlewares/LVGL/GUI/lvgl/src/widgets/lv_slider.h **** {
 2223              		.loc 4 130 23 view .LVU753
 2224              	.LBB216:
 132:Middlewares/LVGL/GUI/lvgl/src/widgets/lv_slider.h **** }
 2225              		.loc 4 132 5 view .LVU754
 132:Middlewares/LVGL/GUI/lvgl/src/widgets/lv_slider.h **** }
 2226              		.loc 4 132 12 is_stmt 0 view .LVU755
 2227 051e 2846     		mov	r0, r5
 2228              	.LVL266:
 132:Middlewares/LVGL/GUI/lvgl/src/widgets/lv_slider.h **** }
 2229              		.loc 4 132 12 view .LVU756
 2230 0520 FFF7FEFF 		bl	lv_bar_get_value
 2231              	.LVL267:
 132:Middlewares/LVGL/GUI/lvgl/src/widgets/lv_slider.h **** }
 2232              		.loc 4 132 12 view .LVU757
 2233              	.LBE216:
 2234              	.LBE215:
 2235              	.LBB217:
 2236              	.LBI217:
  84:Middlewares/LVGL/GUI/lvgl/src/widgets/lv_slider.h **** {
 2237              		.loc 4 84 20 is_stmt 1 view .LVU758
 2238              	.LBB218:
  86:Middlewares/LVGL/GUI/lvgl/src/widgets/lv_slider.h **** }
 2239              		.loc 4 86 5 view .LVU759
 2240 0524 0122     		movs	r2, #1
 2241 0526 411E     		subs	r1, r0, #1
 2242              	.LVL268:
  86:Middlewares/LVGL/GUI/lvgl/src/widgets/lv_slider.h **** }
 2243              		.loc 4 86 5 is_stmt 0 view .LVU760
 2244 0528 2846     		mov	r0, r5
 2245 052a FFF7FEFF 		bl	lv_bar_set_value
 2246              	.LVL269:
 2247              	.L105:
  86:Middlewares/LVGL/GUI/lvgl/src/widgets/lv_slider.h **** }
 2248              		.loc 4 86 5 view .LVU761
 2249              	.LBE218:
 2250              	.LBE217:
 319:Middlewares/LVGL/GUI/lvgl/src/widgets/lv_slider.c ****             if(res != LV_RES_OK) return;
 2251              		.loc 1 319 13 is_stmt 1 view .LVU762
 319:Middlewares/LVGL/GUI/lvgl/src/widgets/lv_slider.c ****             if(res != LV_RES_OK) return;
 2252              		.loc 1 319 19 is_stmt 0 view .LVU763
 2253 052e 0022     		movs	r2, #0
 2254 0530 1C21     		movs	r1, #28
 2255 0532 2846     		mov	r0, r5
 2256 0534 FFF7FEFF 		bl	lv_event_send
 2257              	.LVL270:
 320:Middlewares/LVGL/GUI/lvgl/src/widgets/lv_slider.c ****         }
 2258              		.loc 1 320 13 is_stmt 1 view .LVU764
 2259 0538 6BE5     		b	.L57
 2260              	.LVL271:
 2261              	.L99:
 309:Middlewares/LVGL/GUI/lvgl/src/widgets/lv_slider.c ****             else lv_slider_set_left_value(obj, lv_slider_get_left_value(obj) + 1, LV_ANIM_ON);
 2262              		.loc 1 309 13 view .LVU765
 309:Middlewares/LVGL/GUI/lvgl/src/widgets/lv_slider.c ****             else lv_slider_set_left_value(obj, lv_slider_get_left_value(obj) + 1, LV_ANIM_ON);
 2263              		.loc 1 309 16 is_stmt 0 view .LVU766
 2264 053a 95F89430 		ldrb	r3, [r5, #148]	@ zero_extendqisi2
ARM GAS  C:\Users\ADMINI~1\AppData\Local\Temp\cchwJBFL.s 			page 75


 2265              	.LVL272:
 309:Middlewares/LVGL/GUI/lvgl/src/widgets/lv_slider.c ****             else lv_slider_set_left_value(obj, lv_slider_get_left_value(obj) + 1, LV_ANIM_ON);
 2266              		.loc 1 309 15 view .LVU767
 2267 053e 13F0020F 		tst	r3, #2
 2268 0542 0DD1     		bne	.L101
 309:Middlewares/LVGL/GUI/lvgl/src/widgets/lv_slider.c ****             else lv_slider_set_left_value(obj, lv_slider_get_left_value(obj) + 1, LV_ANIM_ON);
 2269              		.loc 1 309 42 is_stmt 1 view .LVU768
 2270              	.LVL273:
 2271              	.LBB219:
 2272              	.LBI219:
 130:Middlewares/LVGL/GUI/lvgl/src/widgets/lv_slider.h **** {
 2273              		.loc 4 130 23 view .LVU769
 2274              	.LBB220:
 132:Middlewares/LVGL/GUI/lvgl/src/widgets/lv_slider.h **** }
 2275              		.loc 4 132 5 view .LVU770
 132:Middlewares/LVGL/GUI/lvgl/src/widgets/lv_slider.h **** }
 2276              		.loc 4 132 12 is_stmt 0 view .LVU771
 2277 0544 2846     		mov	r0, r5
 2278              	.LVL274:
 132:Middlewares/LVGL/GUI/lvgl/src/widgets/lv_slider.h **** }
 2279              		.loc 4 132 12 view .LVU772
 2280 0546 FFF7FEFF 		bl	lv_bar_get_value
 2281              	.LVL275:
 132:Middlewares/LVGL/GUI/lvgl/src/widgets/lv_slider.h **** }
 2282              		.loc 4 132 12 view .LVU773
 2283              	.LBE220:
 2284              	.LBE219:
 2285              	.LBB221:
 2286              	.LBI221:
  84:Middlewares/LVGL/GUI/lvgl/src/widgets/lv_slider.h **** {
 2287              		.loc 4 84 20 is_stmt 1 view .LVU774
 2288              	.LBB222:
  86:Middlewares/LVGL/GUI/lvgl/src/widgets/lv_slider.h **** }
 2289              		.loc 4 86 5 view .LVU775
 2290 054a 0122     		movs	r2, #1
 2291 054c 8118     		adds	r1, r0, r2
 2292              	.LVL276:
  86:Middlewares/LVGL/GUI/lvgl/src/widgets/lv_slider.h **** }
 2293              		.loc 4 86 5 is_stmt 0 view .LVU776
 2294 054e 2846     		mov	r0, r5
 2295 0550 FFF7FEFF 		bl	lv_bar_set_value
 2296              	.LVL277:
 2297              	.L102:
  86:Middlewares/LVGL/GUI/lvgl/src/widgets/lv_slider.h **** }
 2298              		.loc 4 86 5 view .LVU777
 2299              	.LBE222:
 2300              	.LBE221:
 312:Middlewares/LVGL/GUI/lvgl/src/widgets/lv_slider.c ****             if(res != LV_RES_OK) return;
 2301              		.loc 1 312 13 is_stmt 1 view .LVU778
 312:Middlewares/LVGL/GUI/lvgl/src/widgets/lv_slider.c ****             if(res != LV_RES_OK) return;
 2302              		.loc 1 312 19 is_stmt 0 view .LVU779
 2303 0554 0022     		movs	r2, #0
 2304 0556 1C21     		movs	r1, #28
 2305 0558 2846     		mov	r0, r5
 2306 055a FFF7FEFF 		bl	lv_event_send
 2307              	.LVL278:
 313:Middlewares/LVGL/GUI/lvgl/src/widgets/lv_slider.c ****         }
ARM GAS  C:\Users\ADMINI~1\AppData\Local\Temp\cchwJBFL.s 			page 76


 2308              		.loc 1 313 13 is_stmt 1 view .LVU780
 2309 055e 58E5     		b	.L57
 2310              	.LVL279:
 2311              	.L101:
 310:Middlewares/LVGL/GUI/lvgl/src/widgets/lv_slider.c **** 
 2312              		.loc 1 310 18 view .LVU781
 2313              	.LBB223:
 2314              	.LBI223:
 140:Middlewares/LVGL/GUI/lvgl/src/widgets/lv_slider.h **** {
 2315              		.loc 4 140 23 view .LVU782
 2316              	.LBB224:
 142:Middlewares/LVGL/GUI/lvgl/src/widgets/lv_slider.h **** }
 2317              		.loc 4 142 5 view .LVU783
 142:Middlewares/LVGL/GUI/lvgl/src/widgets/lv_slider.h **** }
 2318              		.loc 4 142 12 is_stmt 0 view .LVU784
 2319 0560 2846     		mov	r0, r5
 2320              	.LVL280:
 142:Middlewares/LVGL/GUI/lvgl/src/widgets/lv_slider.h **** }
 2321              		.loc 4 142 12 view .LVU785
 2322 0562 FFF7FEFF 		bl	lv_bar_get_start_value
 2323              	.LVL281:
 142:Middlewares/LVGL/GUI/lvgl/src/widgets/lv_slider.h **** }
 2324              		.loc 4 142 12 view .LVU786
 2325              	.LBE224:
 2326              	.LBE223:
 2327              	.LBB225:
 2328              	.LBI225:
  95:Middlewares/LVGL/GUI/lvgl/src/widgets/lv_slider.h **** {
 2329              		.loc 4 95 20 is_stmt 1 view .LVU787
 2330              	.LBB226:
  97:Middlewares/LVGL/GUI/lvgl/src/widgets/lv_slider.h **** }
 2331              		.loc 4 97 5 view .LVU788
 2332 0566 0122     		movs	r2, #1
 2333 0568 8118     		adds	r1, r0, r2
 2334              	.LVL282:
  97:Middlewares/LVGL/GUI/lvgl/src/widgets/lv_slider.h **** }
 2335              		.loc 4 97 5 is_stmt 0 view .LVU789
 2336 056a 2846     		mov	r0, r5
 2337 056c FFF7FEFF 		bl	lv_bar_set_start_value
 2338              	.LVL283:
  98:Middlewares/LVGL/GUI/lvgl/src/widgets/lv_slider.h **** 
 2339              		.loc 4 98 1 view .LVU790
 2340 0570 F0E7     		b	.L102
 2341              	.LVL284:
 2342              	.L104:
  98:Middlewares/LVGL/GUI/lvgl/src/widgets/lv_slider.h **** 
 2343              		.loc 4 98 1 view .LVU791
 2344              	.LBE226:
 2345              	.LBE225:
 317:Middlewares/LVGL/GUI/lvgl/src/widgets/lv_slider.c **** 
 2346              		.loc 1 317 18 is_stmt 1 view .LVU792
 2347              	.LBB227:
 2348              	.LBI227:
 140:Middlewares/LVGL/GUI/lvgl/src/widgets/lv_slider.h **** {
 2349              		.loc 4 140 23 view .LVU793
 2350              	.LBB228:
 142:Middlewares/LVGL/GUI/lvgl/src/widgets/lv_slider.h **** }
ARM GAS  C:\Users\ADMINI~1\AppData\Local\Temp\cchwJBFL.s 			page 77


 2351              		.loc 4 142 5 view .LVU794
 142:Middlewares/LVGL/GUI/lvgl/src/widgets/lv_slider.h **** }
 2352              		.loc 4 142 12 is_stmt 0 view .LVU795
 2353 0572 2846     		mov	r0, r5
 2354              	.LVL285:
 142:Middlewares/LVGL/GUI/lvgl/src/widgets/lv_slider.h **** }
 2355              		.loc 4 142 12 view .LVU796
 2356 0574 FFF7FEFF 		bl	lv_bar_get_start_value
 2357              	.LVL286:
 142:Middlewares/LVGL/GUI/lvgl/src/widgets/lv_slider.h **** }
 2358              		.loc 4 142 12 view .LVU797
 2359              	.LBE228:
 2360              	.LBE227:
 2361              	.LBB229:
 2362              	.LBI229:
  95:Middlewares/LVGL/GUI/lvgl/src/widgets/lv_slider.h **** {
 2363              		.loc 4 95 20 is_stmt 1 view .LVU798
 2364              	.LBB230:
  97:Middlewares/LVGL/GUI/lvgl/src/widgets/lv_slider.h **** }
 2365              		.loc 4 97 5 view .LVU799
 2366 0578 0122     		movs	r2, #1
 2367 057a 411E     		subs	r1, r0, #1
 2368              	.LVL287:
  97:Middlewares/LVGL/GUI/lvgl/src/widgets/lv_slider.h **** }
 2369              		.loc 4 97 5 is_stmt 0 view .LVU800
 2370 057c 2846     		mov	r0, r5
 2371 057e FFF7FEFF 		bl	lv_bar_set_start_value
 2372              	.LVL288:
  98:Middlewares/LVGL/GUI/lvgl/src/widgets/lv_slider.h **** 
 2373              		.loc 4 98 1 view .LVU801
 2374 0582 D4E7     		b	.L105
 2375              	.LBE230:
 2376              	.LBE229:
 2377              	.LBE214:
 2378              		.cfi_endproc
 2379              	.LFE171:
 2381              		.section	.text.lv_slider_create,"ax",%progbits
 2382              		.align	1
 2383              		.global	lv_slider_create
 2384              		.syntax unified
 2385              		.thumb
 2386              		.thumb_func
 2388              	lv_slider_create:
 2389              	.LVL289:
 2390              	.LFB168:
  60:Middlewares/LVGL/GUI/lvgl/src/widgets/lv_slider.c ****     LV_LOG_INFO("begin");
 2391              		.loc 1 60 1 is_stmt 1 view -0
 2392              		.cfi_startproc
 2393              		@ args = 0, pretend = 0, frame = 0
 2394              		@ frame_needed = 0, uses_anonymous_args = 0
  60:Middlewares/LVGL/GUI/lvgl/src/widgets/lv_slider.c ****     LV_LOG_INFO("begin");
 2395              		.loc 1 60 1 is_stmt 0 view .LVU803
 2396 0000 10B5     		push	{r4, lr}
 2397              	.LCFI10:
 2398              		.cfi_def_cfa_offset 8
 2399              		.cfi_offset 4, -8
 2400              		.cfi_offset 14, -4
ARM GAS  C:\Users\ADMINI~1\AppData\Local\Temp\cchwJBFL.s 			page 78


 2401 0002 0146     		mov	r1, r0
  61:Middlewares/LVGL/GUI/lvgl/src/widgets/lv_slider.c ****     lv_obj_t * obj = lv_obj_class_create_obj(MY_CLASS, parent);
 2402              		.loc 1 61 5 is_stmt 1 view .LVU804
  61:Middlewares/LVGL/GUI/lvgl/src/widgets/lv_slider.c ****     lv_obj_t * obj = lv_obj_class_create_obj(MY_CLASS, parent);
 2403              		.loc 1 61 5 view .LVU805
  61:Middlewares/LVGL/GUI/lvgl/src/widgets/lv_slider.c ****     lv_obj_t * obj = lv_obj_class_create_obj(MY_CLASS, parent);
 2404              		.loc 1 61 5 view .LVU806
  62:Middlewares/LVGL/GUI/lvgl/src/widgets/lv_slider.c ****     lv_obj_class_init_obj(obj);
 2405              		.loc 1 62 5 view .LVU807
  62:Middlewares/LVGL/GUI/lvgl/src/widgets/lv_slider.c ****     lv_obj_class_init_obj(obj);
 2406              		.loc 1 62 22 is_stmt 0 view .LVU808
 2407 0004 0348     		ldr	r0, .L128
 2408              	.LVL290:
  62:Middlewares/LVGL/GUI/lvgl/src/widgets/lv_slider.c ****     lv_obj_class_init_obj(obj);
 2409              		.loc 1 62 22 view .LVU809
 2410 0006 FFF7FEFF 		bl	lv_obj_class_create_obj
 2411              	.LVL291:
  62:Middlewares/LVGL/GUI/lvgl/src/widgets/lv_slider.c ****     lv_obj_class_init_obj(obj);
 2412              		.loc 1 62 22 view .LVU810
 2413 000a 0446     		mov	r4, r0
 2414              	.LVL292:
  63:Middlewares/LVGL/GUI/lvgl/src/widgets/lv_slider.c ****     return obj;
 2415              		.loc 1 63 5 is_stmt 1 view .LVU811
 2416 000c FFF7FEFF 		bl	lv_obj_class_init_obj
 2417              	.LVL293:
  64:Middlewares/LVGL/GUI/lvgl/src/widgets/lv_slider.c **** }
 2418              		.loc 1 64 5 view .LVU812
  65:Middlewares/LVGL/GUI/lvgl/src/widgets/lv_slider.c **** 
 2419              		.loc 1 65 1 is_stmt 0 view .LVU813
 2420 0010 2046     		mov	r0, r4
 2421 0012 10BD     		pop	{r4, pc}
 2422              	.LVL294:
 2423              	.L129:
  65:Middlewares/LVGL/GUI/lvgl/src/widgets/lv_slider.c **** 
 2424              		.loc 1 65 1 view .LVU814
 2425              		.align	2
 2426              	.L128:
 2427 0014 00000000 		.word	.LANCHOR0
 2428              		.cfi_endproc
 2429              	.LFE168:
 2431              		.section	.text.lv_slider_is_dragged,"ax",%progbits
 2432              		.align	1
 2433              		.global	lv_slider_is_dragged
 2434              		.syntax unified
 2435              		.thumb
 2436              		.thumb_func
 2438              	lv_slider_is_dragged:
 2439              	.LVL295:
 2440              	.LFB169:
  68:Middlewares/LVGL/GUI/lvgl/src/widgets/lv_slider.c ****     LV_ASSERT_OBJ(obj, MY_CLASS);
 2441              		.loc 1 68 1 is_stmt 1 view -0
 2442              		.cfi_startproc
 2443              		@ args = 0, pretend = 0, frame = 0
 2444              		@ frame_needed = 0, uses_anonymous_args = 0
 2445              		@ link register save eliminated.
  69:Middlewares/LVGL/GUI/lvgl/src/widgets/lv_slider.c ****     lv_slider_t * slider = (lv_slider_t *)obj;
 2446              		.loc 1 69 5 view .LVU816
ARM GAS  C:\Users\ADMINI~1\AppData\Local\Temp\cchwJBFL.s 			page 79


  69:Middlewares/LVGL/GUI/lvgl/src/widgets/lv_slider.c ****     lv_slider_t * slider = (lv_slider_t *)obj;
 2447              		.loc 1 69 5 view .LVU817
  69:Middlewares/LVGL/GUI/lvgl/src/widgets/lv_slider.c ****     lv_slider_t * slider = (lv_slider_t *)obj;
 2448              		.loc 1 69 5 view .LVU818
  70:Middlewares/LVGL/GUI/lvgl/src/widgets/lv_slider.c **** 
 2449              		.loc 1 70 5 view .LVU819
  72:Middlewares/LVGL/GUI/lvgl/src/widgets/lv_slider.c **** }
 2450              		.loc 1 72 5 view .LVU820
  72:Middlewares/LVGL/GUI/lvgl/src/widgets/lv_slider.c **** }
 2451              		.loc 1 72 29 is_stmt 0 view .LVU821
 2452 0000 90F89400 		ldrb	r0, [r0, #148]	@ zero_extendqisi2
 2453              	.LVL296:
  73:Middlewares/LVGL/GUI/lvgl/src/widgets/lv_slider.c **** 
 2454              		.loc 1 73 1 view .LVU822
 2455 0004 00F00100 		and	r0, r0, #1
 2456 0008 7047     		bx	lr
 2457              		.cfi_endproc
 2458              	.LFE169:
 2460              		.global	lv_slider_class
 2461              		.section	.rodata.lv_slider_class,"a"
 2462              		.align	2
 2463              		.set	.LANCHOR0,. + 0
 2466              	lv_slider_class:
 2467 0000 00000000 		.word	lv_bar_class
 2468 0004 00000000 		.word	lv_slider_constructor
 2469 0008 00000000 		.space	8
 2469      00000000 
 2470 0010 00000000 		.word	lv_slider_event
 2471 0014 00000000 		.space	8
 2471      00000000 
 2472 001c 85       		.byte	133
 2473 001d 09       		.byte	9
 2474 001e 00       		.byte	0
 2475 001f 00       		.space	1
 2476              		.text
 2477              	.Letext0:
 2478              		.file 5 "c:\\gnu arm embedded toolchain\\10 2021.10\\arm-none-eabi\\include\\machine\\_default_typ
 2479              		.file 6 "c:\\gnu arm embedded toolchain\\10 2021.10\\arm-none-eabi\\include\\sys\\_stdint.h"
 2480              		.file 7 "c:\\gnu arm embedded toolchain\\10 2021.10\\lib\\gcc\\arm-none-eabi\\10.3.1\\include\\std
 2481              		.file 8 "Middlewares/LVGL/GUI/lvgl/src/widgets/../core/../misc/../font/lv_font.h"
 2482              		.file 9 "Middlewares/LVGL/GUI/lvgl/src/widgets/../core/../misc/lv_types.h"
 2483              		.file 10 "Middlewares/LVGL/GUI/lvgl/src/widgets/../core/../misc/lv_color.h"
 2484              		.file 11 "Middlewares/LVGL/GUI/lvgl/src/widgets/../core/../misc/lv_anim.h"
 2485              		.file 12 "Middlewares/LVGL/GUI/lvgl/src/widgets/../core/../misc/lv_txt.h"
 2486              		.file 13 "Middlewares/LVGL/GUI/lvgl/src/widgets/../core/../misc/lv_bidi.h"
 2487              		.file 14 "Middlewares/LVGL/GUI/lvgl/src/widgets/../core/../misc/lv_style.h"
 2488              		.file 15 "Middlewares/LVGL/GUI/lvgl/src/widgets/../core/../hal/../draw/lv_img_buf.h"
 2489              		.file 16 "Middlewares/LVGL/GUI/lvgl/src/widgets/../core/lv_obj.h"
 2490              		.file 17 "Middlewares/LVGL/GUI/lvgl/src/widgets/../core/../hal/../draw/lv_draw_rect.h"
 2491              		.file 18 "Middlewares/LVGL/GUI/lvgl/src/widgets/../core/../hal/../draw/lv_draw_label.h"
 2492              		.file 19 "Middlewares/LVGL/GUI/lvgl/src/widgets/../core/../hal/../draw/lv_draw_img.h"
 2493              		.file 20 "Middlewares/LVGL/GUI/lvgl/src/widgets/../core/../hal/../draw/lv_draw_line.h"
 2494              		.file 21 "Middlewares/LVGL/GUI/lvgl/src/widgets/../core/../hal/../draw/lv_draw_arc.h"
 2495              		.file 22 "Middlewares/LVGL/GUI/lvgl/src/widgets/../core/../hal/../draw/lv_draw.h"
 2496              		.file 23 "Middlewares/LVGL/GUI/lvgl/src/widgets/../core/../hal/../misc/lv_ll.h"
 2497              		.file 24 "Middlewares/LVGL/GUI/lvgl/src/widgets/../core/../hal/../misc/lv_timer.h"
 2498              		.file 25 "Middlewares/LVGL/GUI/lvgl/src/widgets/../core/../hal/lv_hal_disp.h"
ARM GAS  C:\Users\ADMINI~1\AppData\Local\Temp\cchwJBFL.s 			page 80


 2499              		.file 26 "Middlewares/LVGL/GUI/lvgl/src/widgets/../core/lv_theme.h"
 2500              		.file 27 "Middlewares/LVGL/GUI/lvgl/src/widgets/../core/../hal/lv_hal_indev.h"
 2501              		.file 28 "Middlewares/LVGL/GUI/lvgl/src/widgets/../core/lv_group.h"
 2502              		.file 29 "Middlewares/LVGL/GUI/lvgl/src/widgets/../core/lv_obj_scroll.h"
 2503              		.file 30 "Middlewares/LVGL/GUI/lvgl/src/widgets/../core/lv_obj_style.h"
 2504              		.file 31 "Middlewares/LVGL/GUI/lvgl/src/widgets/../core/lv_obj_draw.h"
 2505              		.file 32 "Middlewares/LVGL/GUI/lvgl/src/widgets/../core/lv_obj_class.h"
 2506              		.file 33 "Middlewares/LVGL/GUI/lvgl/src/widgets/../core/lv_event.h"
 2507              		.file 34 "Middlewares/LVGL/GUI/lvgl/src/widgets/lv_bar.h"
 2508              		.file 35 "Middlewares/LVGL/GUI/lvgl/src/widgets/../core/../misc/lv_mem.h"
 2509              		.file 36 "Middlewares/LVGL/GUI/lvgl/src/widgets/../core/../hal/../draw/sw/../../core/lv_obj_pos.h"
 2510              		.file 37 "Middlewares/LVGL/GUI/lvgl/src/widgets/../core/lv_indev.h"
ARM GAS  C:\Users\ADMINI~1\AppData\Local\Temp\cchwJBFL.s 			page 81


DEFINED SYMBOLS
                            *ABS*:00000000 lv_slider.c
C:\Users\ADMINI~1\AppData\Local\Temp\cchwJBFL.s:20     .text.position_knob:00000000 $t
C:\Users\ADMINI~1\AppData\Local\Temp\cchwJBFL.s:25     .text.position_knob:00000000 position_knob
C:\Users\ADMINI~1\AppData\Local\Temp\cchwJBFL.s:267    .text.lv_slider_constructor:00000000 $t
C:\Users\ADMINI~1\AppData\Local\Temp\cchwJBFL.s:272    .text.lv_slider_constructor:00000000 lv_slider_constructor
C:\Users\ADMINI~1\AppData\Local\Temp\cchwJBFL.s:351    .text.lv_slider_constructor:0000005c $d
C:\Users\ADMINI~1\AppData\Local\Temp\cchwJBFL.s:356    .text.draw_knob:00000000 $t
C:\Users\ADMINI~1\AppData\Local\Temp\cchwJBFL.s:361    .text.draw_knob:00000000 draw_knob
C:\Users\ADMINI~1\AppData\Local\Temp\cchwJBFL.s:929    .text.draw_knob:0000023c $d
C:\Users\ADMINI~1\AppData\Local\Temp\cchwJBFL.s:935    .text.lv_slider_event:00000000 $t
C:\Users\ADMINI~1\AppData\Local\Temp\cchwJBFL.s:940    .text.lv_slider_event:00000000 lv_slider_event
C:\Users\ADMINI~1\AppData\Local\Temp\cchwJBFL.s:1498   .text.lv_slider_event:00000260 $d
C:\Users\ADMINI~1\AppData\Local\Temp\cchwJBFL.s:1505   .text.lv_slider_event:00000264 $t
C:\Users\ADMINI~1\AppData\Local\Temp\cchwJBFL.s:2382   .text.lv_slider_create:00000000 $t
C:\Users\ADMINI~1\AppData\Local\Temp\cchwJBFL.s:2388   .text.lv_slider_create:00000000 lv_slider_create
C:\Users\ADMINI~1\AppData\Local\Temp\cchwJBFL.s:2427   .text.lv_slider_create:00000014 $d
C:\Users\ADMINI~1\AppData\Local\Temp\cchwJBFL.s:2432   .text.lv_slider_is_dragged:00000000 $t
C:\Users\ADMINI~1\AppData\Local\Temp\cchwJBFL.s:2438   .text.lv_slider_is_dragged:00000000 lv_slider_is_dragged
C:\Users\ADMINI~1\AppData\Local\Temp\cchwJBFL.s:2466   .rodata.lv_slider_class:00000000 lv_slider_class
C:\Users\ADMINI~1\AppData\Local\Temp\cchwJBFL.s:2462   .rodata.lv_slider_class:00000000 $d

UNDEFINED SYMBOLS
lv_obj_get_style_prop
lv_obj_clear_flag
lv_disp_get_dpi
lv_obj_set_ext_click_area
lv_event_get_target
lv_event_get_draw_ctx
lv_obj_get_width
lv_obj_get_height
lv_draw_rect_dsc_init
lv_obj_init_draw_rect_dsc
lv_obj_draw_dsc_init
lv_bar_get_mode
lv_event_send
lv_draw_rect
lv_memcpy
lv_obj_event_base
lv_event_get_code
lv_event_get_param
lv_area_increase
_lv_area_is_point_on
lv_obj_invalidate
lv_indev_get_act
lv_indev_get_point
lv_indev_get_type
lv_obj_get_group
lv_group_get_editing
lv_group_set_editing
lv_obj_refresh_ext_draw_size
lv_obj_calculate_ext_draw_size
lv_bar_get_value
lv_bar_set_value
lv_bar_get_start_value
lv_bar_set_start_value
lv_obj_class_create_obj
ARM GAS  C:\Users\ADMINI~1\AppData\Local\Temp\cchwJBFL.s 			page 82


lv_obj_class_init_obj
lv_bar_class
