ARM GAS  C:\Users\ADMINI~1\AppData\Local\Temp\ccPT3swg.s 			page 1


   1              		.cpu cortex-m4
   2              		.arch armv7e-m
   3              		.fpu fpv4-sp-d16
   4              		.eabi_attribute 27, 1
   5              		.eabi_attribute 28, 1
   6              		.eabi_attribute 20, 1
   7              		.eabi_attribute 21, 1
   8              		.eabi_attribute 23, 3
   9              		.eabi_attribute 24, 1
  10              		.eabi_attribute 25, 1
  11              		.eabi_attribute 26, 1
  12              		.eabi_attribute 30, 1
  13              		.eabi_attribute 34, 1
  14              		.eabi_attribute 18, 4
  15              		.file	"lv_txt.c"
  16              		.text
  17              	.Ltext0:
  18              		.cfi_sections	.debug_frame
  19              		.section	.text.lv_txt_utf8_size,"ax",%progbits
  20              		.align	1
  21              		.syntax unified
  22              		.thumb
  23              		.thumb_func
  25              	lv_txt_utf8_size:
  26              	.LVL0:
  27              	.LFB62:
  28              		.file 1 "Middlewares/LVGL/GUI/lvgl/src/misc/lv_txt.c"
   1:Middlewares/LVGL/GUI/lvgl/src/misc/lv_txt.c **** /**
   2:Middlewares/LVGL/GUI/lvgl/src/misc/lv_txt.c ****  * @file lv_txt.c
   3:Middlewares/LVGL/GUI/lvgl/src/misc/lv_txt.c ****  *
   4:Middlewares/LVGL/GUI/lvgl/src/misc/lv_txt.c ****  */
   5:Middlewares/LVGL/GUI/lvgl/src/misc/lv_txt.c **** 
   6:Middlewares/LVGL/GUI/lvgl/src/misc/lv_txt.c **** /*********************
   7:Middlewares/LVGL/GUI/lvgl/src/misc/lv_txt.c ****  *      INCLUDES
   8:Middlewares/LVGL/GUI/lvgl/src/misc/lv_txt.c ****  *********************/
   9:Middlewares/LVGL/GUI/lvgl/src/misc/lv_txt.c **** #include <stdarg.h>
  10:Middlewares/LVGL/GUI/lvgl/src/misc/lv_txt.c **** #include "lv_txt.h"
  11:Middlewares/LVGL/GUI/lvgl/src/misc/lv_txt.c **** #include "lv_txt_ap.h"
  12:Middlewares/LVGL/GUI/lvgl/src/misc/lv_txt.c **** #include "lv_math.h"
  13:Middlewares/LVGL/GUI/lvgl/src/misc/lv_txt.c **** #include "lv_log.h"
  14:Middlewares/LVGL/GUI/lvgl/src/misc/lv_txt.c **** #include "lv_mem.h"
  15:Middlewares/LVGL/GUI/lvgl/src/misc/lv_txt.c **** #include "lv_assert.h"
  16:Middlewares/LVGL/GUI/lvgl/src/misc/lv_txt.c **** 
  17:Middlewares/LVGL/GUI/lvgl/src/misc/lv_txt.c **** /*********************
  18:Middlewares/LVGL/GUI/lvgl/src/misc/lv_txt.c ****  *      DEFINES
  19:Middlewares/LVGL/GUI/lvgl/src/misc/lv_txt.c ****  *********************/
  20:Middlewares/LVGL/GUI/lvgl/src/misc/lv_txt.c **** #define NO_BREAK_FOUND UINT32_MAX
  21:Middlewares/LVGL/GUI/lvgl/src/misc/lv_txt.c **** 
  22:Middlewares/LVGL/GUI/lvgl/src/misc/lv_txt.c **** /**********************
  23:Middlewares/LVGL/GUI/lvgl/src/misc/lv_txt.c ****  *      TYPEDEFS
  24:Middlewares/LVGL/GUI/lvgl/src/misc/lv_txt.c ****  **********************/
  25:Middlewares/LVGL/GUI/lvgl/src/misc/lv_txt.c **** 
  26:Middlewares/LVGL/GUI/lvgl/src/misc/lv_txt.c **** /**********************
  27:Middlewares/LVGL/GUI/lvgl/src/misc/lv_txt.c ****  *  STATIC PROTOTYPES
  28:Middlewares/LVGL/GUI/lvgl/src/misc/lv_txt.c ****  **********************/
  29:Middlewares/LVGL/GUI/lvgl/src/misc/lv_txt.c **** 
  30:Middlewares/LVGL/GUI/lvgl/src/misc/lv_txt.c **** #if LV_TXT_ENC == LV_TXT_ENC_UTF8
ARM GAS  C:\Users\ADMINI~1\AppData\Local\Temp\ccPT3swg.s 			page 2


  31:Middlewares/LVGL/GUI/lvgl/src/misc/lv_txt.c ****     static uint8_t lv_txt_utf8_size(const char * str);
  32:Middlewares/LVGL/GUI/lvgl/src/misc/lv_txt.c ****     static uint32_t lv_txt_unicode_to_utf8(uint32_t letter_uni);
  33:Middlewares/LVGL/GUI/lvgl/src/misc/lv_txt.c ****     static uint32_t lv_txt_utf8_conv_wc(uint32_t c);
  34:Middlewares/LVGL/GUI/lvgl/src/misc/lv_txt.c ****     static uint32_t lv_txt_utf8_next(const char * txt, uint32_t * i);
  35:Middlewares/LVGL/GUI/lvgl/src/misc/lv_txt.c ****     static uint32_t lv_txt_utf8_prev(const char * txt, uint32_t * i_start);
  36:Middlewares/LVGL/GUI/lvgl/src/misc/lv_txt.c ****     static uint32_t lv_txt_utf8_get_byte_id(const char * txt, uint32_t utf8_id);
  37:Middlewares/LVGL/GUI/lvgl/src/misc/lv_txt.c ****     static uint32_t lv_txt_utf8_get_char_id(const char * txt, uint32_t byte_id);
  38:Middlewares/LVGL/GUI/lvgl/src/misc/lv_txt.c ****     static uint32_t lv_txt_utf8_get_length(const char * txt);
  39:Middlewares/LVGL/GUI/lvgl/src/misc/lv_txt.c **** #elif LV_TXT_ENC == LV_TXT_ENC_ASCII
  40:Middlewares/LVGL/GUI/lvgl/src/misc/lv_txt.c ****     static uint8_t lv_txt_iso8859_1_size(const char * str);
  41:Middlewares/LVGL/GUI/lvgl/src/misc/lv_txt.c ****     static uint32_t lv_txt_unicode_to_iso8859_1(uint32_t letter_uni);
  42:Middlewares/LVGL/GUI/lvgl/src/misc/lv_txt.c ****     static uint32_t lv_txt_iso8859_1_conv_wc(uint32_t c);
  43:Middlewares/LVGL/GUI/lvgl/src/misc/lv_txt.c ****     static uint32_t lv_txt_iso8859_1_next(const char * txt, uint32_t * i);
  44:Middlewares/LVGL/GUI/lvgl/src/misc/lv_txt.c ****     static uint32_t lv_txt_iso8859_1_prev(const char * txt, uint32_t * i_start);
  45:Middlewares/LVGL/GUI/lvgl/src/misc/lv_txt.c ****     static uint32_t lv_txt_iso8859_1_get_byte_id(const char * txt, uint32_t utf8_id);
  46:Middlewares/LVGL/GUI/lvgl/src/misc/lv_txt.c ****     static uint32_t lv_txt_iso8859_1_get_char_id(const char * txt, uint32_t byte_id);
  47:Middlewares/LVGL/GUI/lvgl/src/misc/lv_txt.c ****     static uint32_t lv_txt_iso8859_1_get_length(const char * txt);
  48:Middlewares/LVGL/GUI/lvgl/src/misc/lv_txt.c **** #endif
  49:Middlewares/LVGL/GUI/lvgl/src/misc/lv_txt.c **** /**********************
  50:Middlewares/LVGL/GUI/lvgl/src/misc/lv_txt.c ****  *  STATIC VARIABLES
  51:Middlewares/LVGL/GUI/lvgl/src/misc/lv_txt.c ****  **********************/
  52:Middlewares/LVGL/GUI/lvgl/src/misc/lv_txt.c **** 
  53:Middlewares/LVGL/GUI/lvgl/src/misc/lv_txt.c **** /**********************
  54:Middlewares/LVGL/GUI/lvgl/src/misc/lv_txt.c ****  *  GLOBAL VARIABLES
  55:Middlewares/LVGL/GUI/lvgl/src/misc/lv_txt.c ****  **********************/
  56:Middlewares/LVGL/GUI/lvgl/src/misc/lv_txt.c **** #if LV_TXT_ENC == LV_TXT_ENC_UTF8
  57:Middlewares/LVGL/GUI/lvgl/src/misc/lv_txt.c ****     uint8_t (*_lv_txt_encoded_size)(const char *)                   = lv_txt_utf8_size;
  58:Middlewares/LVGL/GUI/lvgl/src/misc/lv_txt.c ****     uint32_t (*_lv_txt_unicode_to_encoded)(uint32_t)                = lv_txt_unicode_to_utf8;
  59:Middlewares/LVGL/GUI/lvgl/src/misc/lv_txt.c ****     uint32_t (*_lv_txt_encoded_conv_wc)(uint32_t)                   = lv_txt_utf8_conv_wc;
  60:Middlewares/LVGL/GUI/lvgl/src/misc/lv_txt.c ****     uint32_t (*_lv_txt_encoded_next)(const char *, uint32_t *)      = lv_txt_utf8_next;
  61:Middlewares/LVGL/GUI/lvgl/src/misc/lv_txt.c ****     uint32_t (*_lv_txt_encoded_prev)(const char *, uint32_t *)      = lv_txt_utf8_prev;
  62:Middlewares/LVGL/GUI/lvgl/src/misc/lv_txt.c ****     uint32_t (*_lv_txt_encoded_get_byte_id)(const char *, uint32_t) = lv_txt_utf8_get_byte_id;
  63:Middlewares/LVGL/GUI/lvgl/src/misc/lv_txt.c ****     uint32_t (*_lv_txt_encoded_get_char_id)(const char *, uint32_t) = lv_txt_utf8_get_char_id;
  64:Middlewares/LVGL/GUI/lvgl/src/misc/lv_txt.c ****     uint32_t (*_lv_txt_get_encoded_length)(const char *)            = lv_txt_utf8_get_length;
  65:Middlewares/LVGL/GUI/lvgl/src/misc/lv_txt.c **** #elif LV_TXT_ENC == LV_TXT_ENC_ASCII
  66:Middlewares/LVGL/GUI/lvgl/src/misc/lv_txt.c ****     uint8_t (*_lv_txt_encoded_size)(const char *)                   = lv_txt_iso8859_1_size;
  67:Middlewares/LVGL/GUI/lvgl/src/misc/lv_txt.c ****     uint32_t (*_lv_txt_unicode_to_encoded)(uint32_t)                = lv_txt_unicode_to_iso8859_1;
  68:Middlewares/LVGL/GUI/lvgl/src/misc/lv_txt.c ****     uint32_t (*_lv_txt_encoded_conv_wc)(uint32_t)                   = lv_txt_iso8859_1_conv_wc;
  69:Middlewares/LVGL/GUI/lvgl/src/misc/lv_txt.c ****     uint32_t (*_lv_txt_encoded_next)(const char *, uint32_t *)      = lv_txt_iso8859_1_next;
  70:Middlewares/LVGL/GUI/lvgl/src/misc/lv_txt.c ****     uint32_t (*_lv_txt_encoded_prev)(const char *, uint32_t *)      = lv_txt_iso8859_1_prev;
  71:Middlewares/LVGL/GUI/lvgl/src/misc/lv_txt.c ****     uint32_t (*_lv_txt_encoded_get_byte_id)(const char *, uint32_t) = lv_txt_iso8859_1_get_byte_id;
  72:Middlewares/LVGL/GUI/lvgl/src/misc/lv_txt.c ****     uint32_t (*_lv_txt_encoded_get_char_id)(const char *, uint32_t)     = lv_txt_iso8859_1_get_char
  73:Middlewares/LVGL/GUI/lvgl/src/misc/lv_txt.c ****     uint32_t (*_lv_txt_get_encoded_length)(const char *)            = lv_txt_iso8859_1_get_length;
  74:Middlewares/LVGL/GUI/lvgl/src/misc/lv_txt.c **** 
  75:Middlewares/LVGL/GUI/lvgl/src/misc/lv_txt.c **** #endif
  76:Middlewares/LVGL/GUI/lvgl/src/misc/lv_txt.c **** 
  77:Middlewares/LVGL/GUI/lvgl/src/misc/lv_txt.c **** /**********************
  78:Middlewares/LVGL/GUI/lvgl/src/misc/lv_txt.c ****  *      MACROS
  79:Middlewares/LVGL/GUI/lvgl/src/misc/lv_txt.c ****  **********************/
  80:Middlewares/LVGL/GUI/lvgl/src/misc/lv_txt.c **** 
  81:Middlewares/LVGL/GUI/lvgl/src/misc/lv_txt.c **** #define LV_IS_ASCII(value)              ((value & 0x80U) == 0x00U)
  82:Middlewares/LVGL/GUI/lvgl/src/misc/lv_txt.c **** #define LV_IS_2BYTES_UTF8_CODE(value)   ((value & 0xE0U) == 0xC0U)
  83:Middlewares/LVGL/GUI/lvgl/src/misc/lv_txt.c **** #define LV_IS_3BYTES_UTF8_CODE(value)   ((value & 0xF0U) == 0xE0U)
  84:Middlewares/LVGL/GUI/lvgl/src/misc/lv_txt.c **** #define LV_IS_4BYTES_UTF8_CODE(value)   ((value & 0xF8U) == 0xF0U)
  85:Middlewares/LVGL/GUI/lvgl/src/misc/lv_txt.c **** #define LV_IS_INVALID_UTF8_CODE(value)  ((value & 0xC0U) != 0x80U)
  86:Middlewares/LVGL/GUI/lvgl/src/misc/lv_txt.c **** 
  87:Middlewares/LVGL/GUI/lvgl/src/misc/lv_txt.c **** /**********************
ARM GAS  C:\Users\ADMINI~1\AppData\Local\Temp\ccPT3swg.s 			page 3


  88:Middlewares/LVGL/GUI/lvgl/src/misc/lv_txt.c ****  *   GLOBAL FUNCTIONS
  89:Middlewares/LVGL/GUI/lvgl/src/misc/lv_txt.c ****  **********************/
  90:Middlewares/LVGL/GUI/lvgl/src/misc/lv_txt.c **** 
  91:Middlewares/LVGL/GUI/lvgl/src/misc/lv_txt.c **** void lv_txt_get_size(lv_point_t * size_res, const char * text, const lv_font_t * font, lv_coord_t l
  92:Middlewares/LVGL/GUI/lvgl/src/misc/lv_txt.c ****                      lv_coord_t line_space, lv_coord_t max_width, lv_text_flag_t flag)
  93:Middlewares/LVGL/GUI/lvgl/src/misc/lv_txt.c **** {
  94:Middlewares/LVGL/GUI/lvgl/src/misc/lv_txt.c ****     size_res->x = 0;
  95:Middlewares/LVGL/GUI/lvgl/src/misc/lv_txt.c ****     size_res->y = 0;
  96:Middlewares/LVGL/GUI/lvgl/src/misc/lv_txt.c **** 
  97:Middlewares/LVGL/GUI/lvgl/src/misc/lv_txt.c ****     if(text == NULL) return;
  98:Middlewares/LVGL/GUI/lvgl/src/misc/lv_txt.c ****     if(font == NULL) return;
  99:Middlewares/LVGL/GUI/lvgl/src/misc/lv_txt.c **** 
 100:Middlewares/LVGL/GUI/lvgl/src/misc/lv_txt.c ****     if(flag & LV_TEXT_FLAG_EXPAND) max_width = LV_COORD_MAX;
 101:Middlewares/LVGL/GUI/lvgl/src/misc/lv_txt.c **** 
 102:Middlewares/LVGL/GUI/lvgl/src/misc/lv_txt.c ****     uint32_t line_start     = 0;
 103:Middlewares/LVGL/GUI/lvgl/src/misc/lv_txt.c ****     uint32_t new_line_start = 0;
 104:Middlewares/LVGL/GUI/lvgl/src/misc/lv_txt.c ****     uint16_t letter_height = lv_font_get_line_height(font);
 105:Middlewares/LVGL/GUI/lvgl/src/misc/lv_txt.c **** 
 106:Middlewares/LVGL/GUI/lvgl/src/misc/lv_txt.c ****     /*Calc. the height and longest line*/
 107:Middlewares/LVGL/GUI/lvgl/src/misc/lv_txt.c ****     while(text[line_start] != '\0') {
 108:Middlewares/LVGL/GUI/lvgl/src/misc/lv_txt.c ****         new_line_start += _lv_txt_get_next_line(&text[line_start], font, letter_space, max_width, N
 109:Middlewares/LVGL/GUI/lvgl/src/misc/lv_txt.c **** 
 110:Middlewares/LVGL/GUI/lvgl/src/misc/lv_txt.c ****         if((unsigned long)size_res->y + (unsigned long)letter_height + (unsigned long)line_space > 
 111:Middlewares/LVGL/GUI/lvgl/src/misc/lv_txt.c ****             LV_LOG_WARN("lv_txt_get_size: integer overflow while calculating text height");
 112:Middlewares/LVGL/GUI/lvgl/src/misc/lv_txt.c ****             return;
 113:Middlewares/LVGL/GUI/lvgl/src/misc/lv_txt.c ****         }
 114:Middlewares/LVGL/GUI/lvgl/src/misc/lv_txt.c ****         else {
 115:Middlewares/LVGL/GUI/lvgl/src/misc/lv_txt.c ****             size_res->y += letter_height;
 116:Middlewares/LVGL/GUI/lvgl/src/misc/lv_txt.c ****             size_res->y += line_space;
 117:Middlewares/LVGL/GUI/lvgl/src/misc/lv_txt.c ****         }
 118:Middlewares/LVGL/GUI/lvgl/src/misc/lv_txt.c **** 
 119:Middlewares/LVGL/GUI/lvgl/src/misc/lv_txt.c ****         /*Calculate the longest line*/
 120:Middlewares/LVGL/GUI/lvgl/src/misc/lv_txt.c ****         lv_coord_t act_line_length = lv_txt_get_width(&text[line_start], new_line_start - line_star
 121:Middlewares/LVGL/GUI/lvgl/src/misc/lv_txt.c ****                                                       flag);
 122:Middlewares/LVGL/GUI/lvgl/src/misc/lv_txt.c **** 
 123:Middlewares/LVGL/GUI/lvgl/src/misc/lv_txt.c ****         size_res->x = LV_MAX(act_line_length, size_res->x);
 124:Middlewares/LVGL/GUI/lvgl/src/misc/lv_txt.c ****         line_start  = new_line_start;
 125:Middlewares/LVGL/GUI/lvgl/src/misc/lv_txt.c ****     }
 126:Middlewares/LVGL/GUI/lvgl/src/misc/lv_txt.c **** 
 127:Middlewares/LVGL/GUI/lvgl/src/misc/lv_txt.c ****     /*Make the text one line taller if the last character is '\n' or '\r'*/
 128:Middlewares/LVGL/GUI/lvgl/src/misc/lv_txt.c ****     if((line_start != 0) && (text[line_start - 1] == '\n' || text[line_start - 1] == '\r')) {
 129:Middlewares/LVGL/GUI/lvgl/src/misc/lv_txt.c ****         size_res->y += letter_height + line_space;
 130:Middlewares/LVGL/GUI/lvgl/src/misc/lv_txt.c ****     }
 131:Middlewares/LVGL/GUI/lvgl/src/misc/lv_txt.c **** 
 132:Middlewares/LVGL/GUI/lvgl/src/misc/lv_txt.c ****     /*Correction with the last line space or set the height manually if the text is empty*/
 133:Middlewares/LVGL/GUI/lvgl/src/misc/lv_txt.c ****     if(size_res->y == 0)
 134:Middlewares/LVGL/GUI/lvgl/src/misc/lv_txt.c ****         size_res->y = letter_height;
 135:Middlewares/LVGL/GUI/lvgl/src/misc/lv_txt.c ****     else
 136:Middlewares/LVGL/GUI/lvgl/src/misc/lv_txt.c ****         size_res->y -= line_space;
 137:Middlewares/LVGL/GUI/lvgl/src/misc/lv_txt.c **** }
 138:Middlewares/LVGL/GUI/lvgl/src/misc/lv_txt.c **** 
 139:Middlewares/LVGL/GUI/lvgl/src/misc/lv_txt.c **** /**
 140:Middlewares/LVGL/GUI/lvgl/src/misc/lv_txt.c ****  * Get the next word of text. A word is delimited by break characters.
 141:Middlewares/LVGL/GUI/lvgl/src/misc/lv_txt.c ****  *
 142:Middlewares/LVGL/GUI/lvgl/src/misc/lv_txt.c ****  * If the word cannot fit in the max_width space, obey LV_TXT_LINE_BREAK_LONG_* rules.
 143:Middlewares/LVGL/GUI/lvgl/src/misc/lv_txt.c ****  *
 144:Middlewares/LVGL/GUI/lvgl/src/misc/lv_txt.c ****  * If the next word cannot fit anything, return 0.
ARM GAS  C:\Users\ADMINI~1\AppData\Local\Temp\ccPT3swg.s 			page 4


 145:Middlewares/LVGL/GUI/lvgl/src/misc/lv_txt.c ****  *
 146:Middlewares/LVGL/GUI/lvgl/src/misc/lv_txt.c ****  * If the first character is a break character, returns the next index.
 147:Middlewares/LVGL/GUI/lvgl/src/misc/lv_txt.c ****  *
 148:Middlewares/LVGL/GUI/lvgl/src/misc/lv_txt.c ****  * Example calls from lv_txt_get_next_line() assuming sufficient max_width and
 149:Middlewares/LVGL/GUI/lvgl/src/misc/lv_txt.c ****  * txt = "Test text\n"
 150:Middlewares/LVGL/GUI/lvgl/src/misc/lv_txt.c ****  *        0123456789
 151:Middlewares/LVGL/GUI/lvgl/src/misc/lv_txt.c ****  *
 152:Middlewares/LVGL/GUI/lvgl/src/misc/lv_txt.c ****  * Calls would be as follows:
 153:Middlewares/LVGL/GUI/lvgl/src/misc/lv_txt.c ****  *     1. Return i=4, pointing at breakchar ' ', for the string "Test"
 154:Middlewares/LVGL/GUI/lvgl/src/misc/lv_txt.c ****  *     2. Return i=5, since i=4 was a breakchar.
 155:Middlewares/LVGL/GUI/lvgl/src/misc/lv_txt.c ****  *     3. Return i=9, pointing at breakchar '\n'
 156:Middlewares/LVGL/GUI/lvgl/src/misc/lv_txt.c ****  *     4. Parenting lv_txt_get_next_line() would detect subsequent '\0'
 157:Middlewares/LVGL/GUI/lvgl/src/misc/lv_txt.c ****  *
 158:Middlewares/LVGL/GUI/lvgl/src/misc/lv_txt.c ****  * TODO: Returned word_w_ptr may overestimate the returned word's width when
 159:Middlewares/LVGL/GUI/lvgl/src/misc/lv_txt.c ****  * max_width is reached. In current usage, this has no impact.
 160:Middlewares/LVGL/GUI/lvgl/src/misc/lv_txt.c ****  *
 161:Middlewares/LVGL/GUI/lvgl/src/misc/lv_txt.c ****  * @param txt a '\0' terminated string
 162:Middlewares/LVGL/GUI/lvgl/src/misc/lv_txt.c ****  * @param font pointer to a font
 163:Middlewares/LVGL/GUI/lvgl/src/misc/lv_txt.c ****  * @param letter_space letter space
 164:Middlewares/LVGL/GUI/lvgl/src/misc/lv_txt.c ****  * @param max_width max with of the text (break the lines to fit this size) Set CORD_MAX to avoid l
 165:Middlewares/LVGL/GUI/lvgl/src/misc/lv_txt.c ****  * @param flags settings for the text from 'txt_flag_type' enum
 166:Middlewares/LVGL/GUI/lvgl/src/misc/lv_txt.c ****  * @param[out] word_w_ptr width (in pixels) of the parsed word. May be NULL.
 167:Middlewares/LVGL/GUI/lvgl/src/misc/lv_txt.c ****  * @param force Force return the fraction of the word that can fit in the provided space.
 168:Middlewares/LVGL/GUI/lvgl/src/misc/lv_txt.c ****  * @return the index of the first char of the next word (in byte index not letter index. With UTF-8
 169:Middlewares/LVGL/GUI/lvgl/src/misc/lv_txt.c ****  */
 170:Middlewares/LVGL/GUI/lvgl/src/misc/lv_txt.c **** static uint32_t lv_txt_get_next_word(const char * txt, const lv_font_t * font,
 171:Middlewares/LVGL/GUI/lvgl/src/misc/lv_txt.c ****                                      lv_coord_t letter_space, lv_coord_t max_width,
 172:Middlewares/LVGL/GUI/lvgl/src/misc/lv_txt.c ****                                      lv_text_flag_t flag, uint32_t * word_w_ptr, lv_text_cmd_state_
 173:Middlewares/LVGL/GUI/lvgl/src/misc/lv_txt.c **** {
 174:Middlewares/LVGL/GUI/lvgl/src/misc/lv_txt.c ****     if(txt == NULL || txt[0] == '\0') return 0;
 175:Middlewares/LVGL/GUI/lvgl/src/misc/lv_txt.c ****     if(font == NULL) return 0;
 176:Middlewares/LVGL/GUI/lvgl/src/misc/lv_txt.c **** 
 177:Middlewares/LVGL/GUI/lvgl/src/misc/lv_txt.c ****     if(flag & LV_TEXT_FLAG_EXPAND) max_width = LV_COORD_MAX;
 178:Middlewares/LVGL/GUI/lvgl/src/misc/lv_txt.c **** 
 179:Middlewares/LVGL/GUI/lvgl/src/misc/lv_txt.c ****     uint32_t i = 0, i_next = 0, i_next_next = 0;  /*Iterating index into txt*/
 180:Middlewares/LVGL/GUI/lvgl/src/misc/lv_txt.c ****     uint32_t letter = 0;      /*Letter at i*/
 181:Middlewares/LVGL/GUI/lvgl/src/misc/lv_txt.c ****     uint32_t letter_next = 0; /*Letter at i_next*/
 182:Middlewares/LVGL/GUI/lvgl/src/misc/lv_txt.c ****     lv_coord_t letter_w;
 183:Middlewares/LVGL/GUI/lvgl/src/misc/lv_txt.c ****     lv_coord_t cur_w = 0;  /*Pixel Width of transversed string*/
 184:Middlewares/LVGL/GUI/lvgl/src/misc/lv_txt.c ****     uint32_t word_len = 0;   /*Number of characters in the transversed word*/
 185:Middlewares/LVGL/GUI/lvgl/src/misc/lv_txt.c ****     uint32_t break_index = NO_BREAK_FOUND; /*only used for "long" words*/
 186:Middlewares/LVGL/GUI/lvgl/src/misc/lv_txt.c ****     uint32_t break_letter_count = 0; /*Number of characters up to the long word break point*/
 187:Middlewares/LVGL/GUI/lvgl/src/misc/lv_txt.c **** 
 188:Middlewares/LVGL/GUI/lvgl/src/misc/lv_txt.c ****     letter = _lv_txt_encoded_next(txt, &i_next);
 189:Middlewares/LVGL/GUI/lvgl/src/misc/lv_txt.c ****     i_next_next = i_next;
 190:Middlewares/LVGL/GUI/lvgl/src/misc/lv_txt.c **** 
 191:Middlewares/LVGL/GUI/lvgl/src/misc/lv_txt.c ****     /*Obtain the full word, regardless if it fits or not in max_width*/
 192:Middlewares/LVGL/GUI/lvgl/src/misc/lv_txt.c ****     while(txt[i] != '\0') {
 193:Middlewares/LVGL/GUI/lvgl/src/misc/lv_txt.c ****         letter_next = _lv_txt_encoded_next(txt, &i_next_next);
 194:Middlewares/LVGL/GUI/lvgl/src/misc/lv_txt.c ****         word_len++;
 195:Middlewares/LVGL/GUI/lvgl/src/misc/lv_txt.c **** 
 196:Middlewares/LVGL/GUI/lvgl/src/misc/lv_txt.c ****         /*Handle the recolor command*/
 197:Middlewares/LVGL/GUI/lvgl/src/misc/lv_txt.c ****         if((flag & LV_TEXT_FLAG_RECOLOR) != 0) {
 198:Middlewares/LVGL/GUI/lvgl/src/misc/lv_txt.c ****             if(_lv_txt_is_cmd(cmd_state, letter) != false) {
 199:Middlewares/LVGL/GUI/lvgl/src/misc/lv_txt.c ****                 i = i_next;
 200:Middlewares/LVGL/GUI/lvgl/src/misc/lv_txt.c ****                 i_next = i_next_next;
 201:Middlewares/LVGL/GUI/lvgl/src/misc/lv_txt.c ****                 letter = letter_next;
ARM GAS  C:\Users\ADMINI~1\AppData\Local\Temp\ccPT3swg.s 			page 5


 202:Middlewares/LVGL/GUI/lvgl/src/misc/lv_txt.c ****                 continue;   /*Skip the letter if it is part of a command*/
 203:Middlewares/LVGL/GUI/lvgl/src/misc/lv_txt.c ****             }
 204:Middlewares/LVGL/GUI/lvgl/src/misc/lv_txt.c ****         }
 205:Middlewares/LVGL/GUI/lvgl/src/misc/lv_txt.c **** 
 206:Middlewares/LVGL/GUI/lvgl/src/misc/lv_txt.c ****         letter_w = lv_font_get_glyph_width(font, letter, letter_next);
 207:Middlewares/LVGL/GUI/lvgl/src/misc/lv_txt.c ****         cur_w += letter_w;
 208:Middlewares/LVGL/GUI/lvgl/src/misc/lv_txt.c **** 
 209:Middlewares/LVGL/GUI/lvgl/src/misc/lv_txt.c ****         if(letter_w > 0) {
 210:Middlewares/LVGL/GUI/lvgl/src/misc/lv_txt.c ****             cur_w += letter_space;
 211:Middlewares/LVGL/GUI/lvgl/src/misc/lv_txt.c ****         }
 212:Middlewares/LVGL/GUI/lvgl/src/misc/lv_txt.c **** 
 213:Middlewares/LVGL/GUI/lvgl/src/misc/lv_txt.c ****         /*Test if this character fits within max_width*/
 214:Middlewares/LVGL/GUI/lvgl/src/misc/lv_txt.c ****         if(break_index == NO_BREAK_FOUND && (cur_w - letter_space) > max_width) {
 215:Middlewares/LVGL/GUI/lvgl/src/misc/lv_txt.c ****             break_index = i;
 216:Middlewares/LVGL/GUI/lvgl/src/misc/lv_txt.c ****             break_letter_count = word_len - 1;
 217:Middlewares/LVGL/GUI/lvgl/src/misc/lv_txt.c ****             /*break_index is now pointing at the character that doesn't fit*/
 218:Middlewares/LVGL/GUI/lvgl/src/misc/lv_txt.c ****         }
 219:Middlewares/LVGL/GUI/lvgl/src/misc/lv_txt.c **** 
 220:Middlewares/LVGL/GUI/lvgl/src/misc/lv_txt.c ****         /*Check for new line chars and breakchars*/
 221:Middlewares/LVGL/GUI/lvgl/src/misc/lv_txt.c ****         if(letter == '\n' || letter == '\r' || _lv_txt_is_break_char(letter)) {
 222:Middlewares/LVGL/GUI/lvgl/src/misc/lv_txt.c ****             /*Update the output width on the first character if it fits.
 223:Middlewares/LVGL/GUI/lvgl/src/misc/lv_txt.c ****              *Must do this here in case first letter is a break character.*/
 224:Middlewares/LVGL/GUI/lvgl/src/misc/lv_txt.c ****             if(i == 0 && break_index == NO_BREAK_FOUND && word_w_ptr != NULL) *word_w_ptr = cur_w;
 225:Middlewares/LVGL/GUI/lvgl/src/misc/lv_txt.c ****             word_len--;
 226:Middlewares/LVGL/GUI/lvgl/src/misc/lv_txt.c ****             break;
 227:Middlewares/LVGL/GUI/lvgl/src/misc/lv_txt.c ****         }
 228:Middlewares/LVGL/GUI/lvgl/src/misc/lv_txt.c **** 
 229:Middlewares/LVGL/GUI/lvgl/src/misc/lv_txt.c ****         /*Update the output width*/
 230:Middlewares/LVGL/GUI/lvgl/src/misc/lv_txt.c ****         if(word_w_ptr != NULL && break_index == NO_BREAK_FOUND) *word_w_ptr = cur_w;
 231:Middlewares/LVGL/GUI/lvgl/src/misc/lv_txt.c **** 
 232:Middlewares/LVGL/GUI/lvgl/src/misc/lv_txt.c ****         i = i_next;
 233:Middlewares/LVGL/GUI/lvgl/src/misc/lv_txt.c ****         i_next = i_next_next;
 234:Middlewares/LVGL/GUI/lvgl/src/misc/lv_txt.c ****         letter = letter_next;
 235:Middlewares/LVGL/GUI/lvgl/src/misc/lv_txt.c ****     }
 236:Middlewares/LVGL/GUI/lvgl/src/misc/lv_txt.c **** 
 237:Middlewares/LVGL/GUI/lvgl/src/misc/lv_txt.c ****     /*Entire Word fits in the provided space*/
 238:Middlewares/LVGL/GUI/lvgl/src/misc/lv_txt.c ****     if(break_index == NO_BREAK_FOUND) {
 239:Middlewares/LVGL/GUI/lvgl/src/misc/lv_txt.c ****         if(word_len == 0 || (letter == '\r' && letter_next == '\n')) i = i_next;
 240:Middlewares/LVGL/GUI/lvgl/src/misc/lv_txt.c ****         return i;
 241:Middlewares/LVGL/GUI/lvgl/src/misc/lv_txt.c ****     }
 242:Middlewares/LVGL/GUI/lvgl/src/misc/lv_txt.c **** 
 243:Middlewares/LVGL/GUI/lvgl/src/misc/lv_txt.c **** #if LV_TXT_LINE_BREAK_LONG_LEN > 0
 244:Middlewares/LVGL/GUI/lvgl/src/misc/lv_txt.c ****     /*Word doesn't fit in provided space, but isn't "long"*/
 245:Middlewares/LVGL/GUI/lvgl/src/misc/lv_txt.c ****     if(word_len < LV_TXT_LINE_BREAK_LONG_LEN) {
 246:Middlewares/LVGL/GUI/lvgl/src/misc/lv_txt.c ****         if(force) return break_index;
 247:Middlewares/LVGL/GUI/lvgl/src/misc/lv_txt.c ****         if(word_w_ptr != NULL) *word_w_ptr = 0; /*Return no word*/
 248:Middlewares/LVGL/GUI/lvgl/src/misc/lv_txt.c ****         return 0;
 249:Middlewares/LVGL/GUI/lvgl/src/misc/lv_txt.c ****     }
 250:Middlewares/LVGL/GUI/lvgl/src/misc/lv_txt.c **** 
 251:Middlewares/LVGL/GUI/lvgl/src/misc/lv_txt.c ****     /*Word is "long," but insufficient amounts can fit in provided space*/
 252:Middlewares/LVGL/GUI/lvgl/src/misc/lv_txt.c ****     if(break_letter_count < LV_TXT_LINE_BREAK_LONG_PRE_MIN_LEN) {
 253:Middlewares/LVGL/GUI/lvgl/src/misc/lv_txt.c ****         if(force) return break_index;
 254:Middlewares/LVGL/GUI/lvgl/src/misc/lv_txt.c ****         if(word_w_ptr != NULL) *word_w_ptr = 0;
 255:Middlewares/LVGL/GUI/lvgl/src/misc/lv_txt.c ****         return 0;
 256:Middlewares/LVGL/GUI/lvgl/src/misc/lv_txt.c ****     }
 257:Middlewares/LVGL/GUI/lvgl/src/misc/lv_txt.c **** 
 258:Middlewares/LVGL/GUI/lvgl/src/misc/lv_txt.c ****     /*Word is a "long", but letters may need to be better distributed*/
ARM GAS  C:\Users\ADMINI~1\AppData\Local\Temp\ccPT3swg.s 			page 6


 259:Middlewares/LVGL/GUI/lvgl/src/misc/lv_txt.c ****     {
 260:Middlewares/LVGL/GUI/lvgl/src/misc/lv_txt.c ****         i = break_index;
 261:Middlewares/LVGL/GUI/lvgl/src/misc/lv_txt.c ****         int32_t n_move = LV_TXT_LINE_BREAK_LONG_POST_MIN_LEN - (word_len - break_letter_count);
 262:Middlewares/LVGL/GUI/lvgl/src/misc/lv_txt.c ****         /*Move pointer "i" backwards*/
 263:Middlewares/LVGL/GUI/lvgl/src/misc/lv_txt.c ****         for(; n_move > 0; n_move--) {
 264:Middlewares/LVGL/GUI/lvgl/src/misc/lv_txt.c ****             _lv_txt_encoded_prev(txt, &i);
 265:Middlewares/LVGL/GUI/lvgl/src/misc/lv_txt.c ****             // TODO: it would be appropriate to update the returned word width here
 266:Middlewares/LVGL/GUI/lvgl/src/misc/lv_txt.c ****             // However, in current usage, this doesn't impact anything.
 267:Middlewares/LVGL/GUI/lvgl/src/misc/lv_txt.c ****         }
 268:Middlewares/LVGL/GUI/lvgl/src/misc/lv_txt.c ****     }
 269:Middlewares/LVGL/GUI/lvgl/src/misc/lv_txt.c ****     return i;
 270:Middlewares/LVGL/GUI/lvgl/src/misc/lv_txt.c **** #else
 271:Middlewares/LVGL/GUI/lvgl/src/misc/lv_txt.c ****     if(force) return break_index;
 272:Middlewares/LVGL/GUI/lvgl/src/misc/lv_txt.c ****     if(word_w_ptr != NULL) *word_w_ptr = 0; /*Return no word*/
 273:Middlewares/LVGL/GUI/lvgl/src/misc/lv_txt.c ****     (void) break_letter_count;
 274:Middlewares/LVGL/GUI/lvgl/src/misc/lv_txt.c ****     return 0;
 275:Middlewares/LVGL/GUI/lvgl/src/misc/lv_txt.c **** #endif
 276:Middlewares/LVGL/GUI/lvgl/src/misc/lv_txt.c **** }
 277:Middlewares/LVGL/GUI/lvgl/src/misc/lv_txt.c **** 
 278:Middlewares/LVGL/GUI/lvgl/src/misc/lv_txt.c **** uint32_t _lv_txt_get_next_line(const char * txt, const lv_font_t * font,
 279:Middlewares/LVGL/GUI/lvgl/src/misc/lv_txt.c ****                                lv_coord_t letter_space, lv_coord_t max_width,
 280:Middlewares/LVGL/GUI/lvgl/src/misc/lv_txt.c ****                                lv_coord_t * used_width, lv_text_flag_t flag)
 281:Middlewares/LVGL/GUI/lvgl/src/misc/lv_txt.c **** {
 282:Middlewares/LVGL/GUI/lvgl/src/misc/lv_txt.c ****     if(used_width) *used_width = 0;
 283:Middlewares/LVGL/GUI/lvgl/src/misc/lv_txt.c **** 
 284:Middlewares/LVGL/GUI/lvgl/src/misc/lv_txt.c ****     if(txt == NULL) return 0;
 285:Middlewares/LVGL/GUI/lvgl/src/misc/lv_txt.c ****     if(txt[0] == '\0') return 0;
 286:Middlewares/LVGL/GUI/lvgl/src/misc/lv_txt.c ****     if(font == NULL) return 0;
 287:Middlewares/LVGL/GUI/lvgl/src/misc/lv_txt.c **** 
 288:Middlewares/LVGL/GUI/lvgl/src/misc/lv_txt.c ****     lv_coord_t line_w = 0;
 289:Middlewares/LVGL/GUI/lvgl/src/misc/lv_txt.c **** 
 290:Middlewares/LVGL/GUI/lvgl/src/misc/lv_txt.c ****     /*If max_width doesn't mater simply find the new line character
 291:Middlewares/LVGL/GUI/lvgl/src/misc/lv_txt.c ****      *without thinking about word wrapping*/
 292:Middlewares/LVGL/GUI/lvgl/src/misc/lv_txt.c ****     if((flag & LV_TEXT_FLAG_EXPAND) || (flag & LV_TEXT_FLAG_FIT)) {
 293:Middlewares/LVGL/GUI/lvgl/src/misc/lv_txt.c ****         uint32_t i;
 294:Middlewares/LVGL/GUI/lvgl/src/misc/lv_txt.c ****         for(i = 0; txt[i] != '\n' && txt[i] != '\r' && txt[i] != '\0'; i++) {
 295:Middlewares/LVGL/GUI/lvgl/src/misc/lv_txt.c ****             /*Just find the new line chars or string ends by incrementing `i`*/
 296:Middlewares/LVGL/GUI/lvgl/src/misc/lv_txt.c ****         }
 297:Middlewares/LVGL/GUI/lvgl/src/misc/lv_txt.c ****         if(txt[i] != '\0') i++;    /*To go beyond `\n`*/
 298:Middlewares/LVGL/GUI/lvgl/src/misc/lv_txt.c ****         if(used_width) *used_width = -1;
 299:Middlewares/LVGL/GUI/lvgl/src/misc/lv_txt.c ****         return i;
 300:Middlewares/LVGL/GUI/lvgl/src/misc/lv_txt.c ****     }
 301:Middlewares/LVGL/GUI/lvgl/src/misc/lv_txt.c **** 
 302:Middlewares/LVGL/GUI/lvgl/src/misc/lv_txt.c ****     if(flag & LV_TEXT_FLAG_EXPAND) max_width = LV_COORD_MAX;
 303:Middlewares/LVGL/GUI/lvgl/src/misc/lv_txt.c ****     lv_text_cmd_state_t cmd_state = LV_TEXT_CMD_STATE_WAIT;
 304:Middlewares/LVGL/GUI/lvgl/src/misc/lv_txt.c ****     uint32_t i = 0;                                        /*Iterating index into txt*/
 305:Middlewares/LVGL/GUI/lvgl/src/misc/lv_txt.c **** 
 306:Middlewares/LVGL/GUI/lvgl/src/misc/lv_txt.c ****     while(txt[i] != '\0' && max_width > 0) {
 307:Middlewares/LVGL/GUI/lvgl/src/misc/lv_txt.c ****         uint32_t word_w = 0;
 308:Middlewares/LVGL/GUI/lvgl/src/misc/lv_txt.c ****         uint32_t advance = lv_txt_get_next_word(&txt[i], font, letter_space, max_width, flag, &word
 309:Middlewares/LVGL/GUI/lvgl/src/misc/lv_txt.c ****         max_width -= word_w;
 310:Middlewares/LVGL/GUI/lvgl/src/misc/lv_txt.c ****         line_w += word_w;
 311:Middlewares/LVGL/GUI/lvgl/src/misc/lv_txt.c **** 
 312:Middlewares/LVGL/GUI/lvgl/src/misc/lv_txt.c ****         if(advance == 0) {
 313:Middlewares/LVGL/GUI/lvgl/src/misc/lv_txt.c ****             break;
 314:Middlewares/LVGL/GUI/lvgl/src/misc/lv_txt.c ****         }
 315:Middlewares/LVGL/GUI/lvgl/src/misc/lv_txt.c **** 
ARM GAS  C:\Users\ADMINI~1\AppData\Local\Temp\ccPT3swg.s 			page 7


 316:Middlewares/LVGL/GUI/lvgl/src/misc/lv_txt.c ****         i += advance;
 317:Middlewares/LVGL/GUI/lvgl/src/misc/lv_txt.c **** 
 318:Middlewares/LVGL/GUI/lvgl/src/misc/lv_txt.c ****         if(txt[0] == '\n' || txt[0] == '\r') break;
 319:Middlewares/LVGL/GUI/lvgl/src/misc/lv_txt.c **** 
 320:Middlewares/LVGL/GUI/lvgl/src/misc/lv_txt.c ****         if(txt[i] == '\n' || txt[i] == '\r') {
 321:Middlewares/LVGL/GUI/lvgl/src/misc/lv_txt.c ****             i++;  /*Include the following newline in the current line*/
 322:Middlewares/LVGL/GUI/lvgl/src/misc/lv_txt.c ****             break;
 323:Middlewares/LVGL/GUI/lvgl/src/misc/lv_txt.c ****         }
 324:Middlewares/LVGL/GUI/lvgl/src/misc/lv_txt.c **** 
 325:Middlewares/LVGL/GUI/lvgl/src/misc/lv_txt.c ****     }
 326:Middlewares/LVGL/GUI/lvgl/src/misc/lv_txt.c **** 
 327:Middlewares/LVGL/GUI/lvgl/src/misc/lv_txt.c ****     /*Always step at least one to avoid infinite loops*/
 328:Middlewares/LVGL/GUI/lvgl/src/misc/lv_txt.c ****     if(i == 0) {
 329:Middlewares/LVGL/GUI/lvgl/src/misc/lv_txt.c ****         uint32_t letter = _lv_txt_encoded_next(txt, &i);
 330:Middlewares/LVGL/GUI/lvgl/src/misc/lv_txt.c ****         if(used_width != NULL) {
 331:Middlewares/LVGL/GUI/lvgl/src/misc/lv_txt.c ****             line_w = lv_font_get_glyph_width(font, letter, '\0');
 332:Middlewares/LVGL/GUI/lvgl/src/misc/lv_txt.c ****         }
 333:Middlewares/LVGL/GUI/lvgl/src/misc/lv_txt.c ****     }
 334:Middlewares/LVGL/GUI/lvgl/src/misc/lv_txt.c **** 
 335:Middlewares/LVGL/GUI/lvgl/src/misc/lv_txt.c ****     if(used_width != NULL) {
 336:Middlewares/LVGL/GUI/lvgl/src/misc/lv_txt.c ****         *used_width = line_w;
 337:Middlewares/LVGL/GUI/lvgl/src/misc/lv_txt.c ****     }
 338:Middlewares/LVGL/GUI/lvgl/src/misc/lv_txt.c **** 
 339:Middlewares/LVGL/GUI/lvgl/src/misc/lv_txt.c ****     return i;
 340:Middlewares/LVGL/GUI/lvgl/src/misc/lv_txt.c **** }
 341:Middlewares/LVGL/GUI/lvgl/src/misc/lv_txt.c **** 
 342:Middlewares/LVGL/GUI/lvgl/src/misc/lv_txt.c **** lv_coord_t lv_txt_get_width(const char * txt, uint32_t length, const lv_font_t * font, lv_coord_t l
 343:Middlewares/LVGL/GUI/lvgl/src/misc/lv_txt.c ****                             lv_text_flag_t flag)
 344:Middlewares/LVGL/GUI/lvgl/src/misc/lv_txt.c **** {
 345:Middlewares/LVGL/GUI/lvgl/src/misc/lv_txt.c ****     if(txt == NULL) return 0;
 346:Middlewares/LVGL/GUI/lvgl/src/misc/lv_txt.c ****     if(font == NULL) return 0;
 347:Middlewares/LVGL/GUI/lvgl/src/misc/lv_txt.c ****     if(txt[0] == '\0') return 0;
 348:Middlewares/LVGL/GUI/lvgl/src/misc/lv_txt.c **** 
 349:Middlewares/LVGL/GUI/lvgl/src/misc/lv_txt.c ****     uint32_t i                   = 0;
 350:Middlewares/LVGL/GUI/lvgl/src/misc/lv_txt.c ****     lv_coord_t width             = 0;
 351:Middlewares/LVGL/GUI/lvgl/src/misc/lv_txt.c ****     lv_text_cmd_state_t cmd_state = LV_TEXT_CMD_STATE_WAIT;
 352:Middlewares/LVGL/GUI/lvgl/src/misc/lv_txt.c **** 
 353:Middlewares/LVGL/GUI/lvgl/src/misc/lv_txt.c ****     if(length != 0) {
 354:Middlewares/LVGL/GUI/lvgl/src/misc/lv_txt.c ****         while(i < length) {
 355:Middlewares/LVGL/GUI/lvgl/src/misc/lv_txt.c ****             uint32_t letter;
 356:Middlewares/LVGL/GUI/lvgl/src/misc/lv_txt.c ****             uint32_t letter_next;
 357:Middlewares/LVGL/GUI/lvgl/src/misc/lv_txt.c ****             _lv_txt_encoded_letter_next_2(txt, &letter, &letter_next, &i);
 358:Middlewares/LVGL/GUI/lvgl/src/misc/lv_txt.c **** 
 359:Middlewares/LVGL/GUI/lvgl/src/misc/lv_txt.c ****             if((flag & LV_TEXT_FLAG_RECOLOR) != 0) {
 360:Middlewares/LVGL/GUI/lvgl/src/misc/lv_txt.c ****                 if(_lv_txt_is_cmd(&cmd_state, letter) != false) {
 361:Middlewares/LVGL/GUI/lvgl/src/misc/lv_txt.c ****                     continue;
 362:Middlewares/LVGL/GUI/lvgl/src/misc/lv_txt.c ****                 }
 363:Middlewares/LVGL/GUI/lvgl/src/misc/lv_txt.c ****             }
 364:Middlewares/LVGL/GUI/lvgl/src/misc/lv_txt.c **** 
 365:Middlewares/LVGL/GUI/lvgl/src/misc/lv_txt.c ****             lv_coord_t char_width = lv_font_get_glyph_width(font, letter, letter_next);
 366:Middlewares/LVGL/GUI/lvgl/src/misc/lv_txt.c ****             if(char_width > 0) {
 367:Middlewares/LVGL/GUI/lvgl/src/misc/lv_txt.c ****                 width += char_width;
 368:Middlewares/LVGL/GUI/lvgl/src/misc/lv_txt.c ****                 width += letter_space;
 369:Middlewares/LVGL/GUI/lvgl/src/misc/lv_txt.c ****             }
 370:Middlewares/LVGL/GUI/lvgl/src/misc/lv_txt.c ****         }
 371:Middlewares/LVGL/GUI/lvgl/src/misc/lv_txt.c **** 
 372:Middlewares/LVGL/GUI/lvgl/src/misc/lv_txt.c ****         if(width > 0) {
ARM GAS  C:\Users\ADMINI~1\AppData\Local\Temp\ccPT3swg.s 			page 8


 373:Middlewares/LVGL/GUI/lvgl/src/misc/lv_txt.c ****             width -= letter_space; /*Trim the last letter space. Important if the text is center
 374:Middlewares/LVGL/GUI/lvgl/src/misc/lv_txt.c ****                                       aligned*/
 375:Middlewares/LVGL/GUI/lvgl/src/misc/lv_txt.c ****         }
 376:Middlewares/LVGL/GUI/lvgl/src/misc/lv_txt.c ****     }
 377:Middlewares/LVGL/GUI/lvgl/src/misc/lv_txt.c **** 
 378:Middlewares/LVGL/GUI/lvgl/src/misc/lv_txt.c ****     return width;
 379:Middlewares/LVGL/GUI/lvgl/src/misc/lv_txt.c **** }
 380:Middlewares/LVGL/GUI/lvgl/src/misc/lv_txt.c **** 
 381:Middlewares/LVGL/GUI/lvgl/src/misc/lv_txt.c **** bool _lv_txt_is_cmd(lv_text_cmd_state_t * state, uint32_t c)
 382:Middlewares/LVGL/GUI/lvgl/src/misc/lv_txt.c **** {
 383:Middlewares/LVGL/GUI/lvgl/src/misc/lv_txt.c ****     bool ret = false;
 384:Middlewares/LVGL/GUI/lvgl/src/misc/lv_txt.c **** 
 385:Middlewares/LVGL/GUI/lvgl/src/misc/lv_txt.c ****     if(c == (uint32_t)LV_TXT_COLOR_CMD[0]) {
 386:Middlewares/LVGL/GUI/lvgl/src/misc/lv_txt.c ****         if(*state == LV_TEXT_CMD_STATE_WAIT) { /*Start char*/
 387:Middlewares/LVGL/GUI/lvgl/src/misc/lv_txt.c ****             *state = LV_TEXT_CMD_STATE_PAR;
 388:Middlewares/LVGL/GUI/lvgl/src/misc/lv_txt.c ****             ret    = true;
 389:Middlewares/LVGL/GUI/lvgl/src/misc/lv_txt.c ****         }
 390:Middlewares/LVGL/GUI/lvgl/src/misc/lv_txt.c ****         /*Other start char in parameter is escaped cmd. char*/
 391:Middlewares/LVGL/GUI/lvgl/src/misc/lv_txt.c ****         else if(*state == LV_TEXT_CMD_STATE_PAR) {
 392:Middlewares/LVGL/GUI/lvgl/src/misc/lv_txt.c ****             *state = LV_TEXT_CMD_STATE_WAIT;
 393:Middlewares/LVGL/GUI/lvgl/src/misc/lv_txt.c ****         }
 394:Middlewares/LVGL/GUI/lvgl/src/misc/lv_txt.c ****         /*Command end*/
 395:Middlewares/LVGL/GUI/lvgl/src/misc/lv_txt.c ****         else if(*state == LV_TEXT_CMD_STATE_IN) {
 396:Middlewares/LVGL/GUI/lvgl/src/misc/lv_txt.c ****             *state = LV_TEXT_CMD_STATE_WAIT;
 397:Middlewares/LVGL/GUI/lvgl/src/misc/lv_txt.c ****             ret    = true;
 398:Middlewares/LVGL/GUI/lvgl/src/misc/lv_txt.c ****         }
 399:Middlewares/LVGL/GUI/lvgl/src/misc/lv_txt.c ****     }
 400:Middlewares/LVGL/GUI/lvgl/src/misc/lv_txt.c **** 
 401:Middlewares/LVGL/GUI/lvgl/src/misc/lv_txt.c ****     /*Skip the color parameter and wait the space after it*/
 402:Middlewares/LVGL/GUI/lvgl/src/misc/lv_txt.c ****     if(*state == LV_TEXT_CMD_STATE_PAR) {
 403:Middlewares/LVGL/GUI/lvgl/src/misc/lv_txt.c ****         if(c == ' ') {
 404:Middlewares/LVGL/GUI/lvgl/src/misc/lv_txt.c ****             *state = LV_TEXT_CMD_STATE_IN; /*After the parameter the text is in the command*/
 405:Middlewares/LVGL/GUI/lvgl/src/misc/lv_txt.c ****         }
 406:Middlewares/LVGL/GUI/lvgl/src/misc/lv_txt.c ****         ret = true;
 407:Middlewares/LVGL/GUI/lvgl/src/misc/lv_txt.c ****     }
 408:Middlewares/LVGL/GUI/lvgl/src/misc/lv_txt.c **** 
 409:Middlewares/LVGL/GUI/lvgl/src/misc/lv_txt.c ****     return ret;
 410:Middlewares/LVGL/GUI/lvgl/src/misc/lv_txt.c **** }
 411:Middlewares/LVGL/GUI/lvgl/src/misc/lv_txt.c **** 
 412:Middlewares/LVGL/GUI/lvgl/src/misc/lv_txt.c **** void _lv_txt_ins(char * txt_buf, uint32_t pos, const char * ins_txt)
 413:Middlewares/LVGL/GUI/lvgl/src/misc/lv_txt.c **** {
 414:Middlewares/LVGL/GUI/lvgl/src/misc/lv_txt.c ****     if(txt_buf == NULL || ins_txt == NULL) return;
 415:Middlewares/LVGL/GUI/lvgl/src/misc/lv_txt.c **** 
 416:Middlewares/LVGL/GUI/lvgl/src/misc/lv_txt.c ****     size_t old_len = strlen(txt_buf);
 417:Middlewares/LVGL/GUI/lvgl/src/misc/lv_txt.c ****     size_t ins_len = strlen(ins_txt);
 418:Middlewares/LVGL/GUI/lvgl/src/misc/lv_txt.c ****     if(ins_len == 0) return;
 419:Middlewares/LVGL/GUI/lvgl/src/misc/lv_txt.c **** 
 420:Middlewares/LVGL/GUI/lvgl/src/misc/lv_txt.c ****     size_t new_len = ins_len + old_len;
 421:Middlewares/LVGL/GUI/lvgl/src/misc/lv_txt.c ****     pos              = _lv_txt_encoded_get_byte_id(txt_buf, pos); /*Convert to byte index instead o
 422:Middlewares/LVGL/GUI/lvgl/src/misc/lv_txt.c **** 
 423:Middlewares/LVGL/GUI/lvgl/src/misc/lv_txt.c ****     /*Copy the second part into the end to make place to text to insert*/
 424:Middlewares/LVGL/GUI/lvgl/src/misc/lv_txt.c ****     size_t i;
 425:Middlewares/LVGL/GUI/lvgl/src/misc/lv_txt.c ****     for(i = new_len; i >= pos + ins_len; i--) {
 426:Middlewares/LVGL/GUI/lvgl/src/misc/lv_txt.c ****         txt_buf[i] = txt_buf[i - ins_len];
 427:Middlewares/LVGL/GUI/lvgl/src/misc/lv_txt.c ****     }
 428:Middlewares/LVGL/GUI/lvgl/src/misc/lv_txt.c **** 
 429:Middlewares/LVGL/GUI/lvgl/src/misc/lv_txt.c ****     /*Copy the text into the new space*/
ARM GAS  C:\Users\ADMINI~1\AppData\Local\Temp\ccPT3swg.s 			page 9


 430:Middlewares/LVGL/GUI/lvgl/src/misc/lv_txt.c ****     lv_memcpy_small(txt_buf + pos, ins_txt, ins_len);
 431:Middlewares/LVGL/GUI/lvgl/src/misc/lv_txt.c **** }
 432:Middlewares/LVGL/GUI/lvgl/src/misc/lv_txt.c **** 
 433:Middlewares/LVGL/GUI/lvgl/src/misc/lv_txt.c **** void _lv_txt_cut(char * txt, uint32_t pos, uint32_t len)
 434:Middlewares/LVGL/GUI/lvgl/src/misc/lv_txt.c **** {
 435:Middlewares/LVGL/GUI/lvgl/src/misc/lv_txt.c ****     if(txt == NULL) return;
 436:Middlewares/LVGL/GUI/lvgl/src/misc/lv_txt.c **** 
 437:Middlewares/LVGL/GUI/lvgl/src/misc/lv_txt.c ****     size_t old_len = strlen(txt);
 438:Middlewares/LVGL/GUI/lvgl/src/misc/lv_txt.c **** 
 439:Middlewares/LVGL/GUI/lvgl/src/misc/lv_txt.c ****     pos = _lv_txt_encoded_get_byte_id(txt, pos); /*Convert to byte index instead of letter index*/
 440:Middlewares/LVGL/GUI/lvgl/src/misc/lv_txt.c ****     len = _lv_txt_encoded_get_byte_id(&txt[pos], len);
 441:Middlewares/LVGL/GUI/lvgl/src/misc/lv_txt.c **** 
 442:Middlewares/LVGL/GUI/lvgl/src/misc/lv_txt.c ****     /*Copy the second part into the end to make place to text to insert*/
 443:Middlewares/LVGL/GUI/lvgl/src/misc/lv_txt.c ****     uint32_t i;
 444:Middlewares/LVGL/GUI/lvgl/src/misc/lv_txt.c ****     for(i = pos; i <= old_len - len; i++) {
 445:Middlewares/LVGL/GUI/lvgl/src/misc/lv_txt.c ****         txt[i] = txt[i + len];
 446:Middlewares/LVGL/GUI/lvgl/src/misc/lv_txt.c ****     }
 447:Middlewares/LVGL/GUI/lvgl/src/misc/lv_txt.c **** }
 448:Middlewares/LVGL/GUI/lvgl/src/misc/lv_txt.c **** 
 449:Middlewares/LVGL/GUI/lvgl/src/misc/lv_txt.c **** char * _lv_txt_set_text_vfmt(const char * fmt, va_list ap)
 450:Middlewares/LVGL/GUI/lvgl/src/misc/lv_txt.c **** {
 451:Middlewares/LVGL/GUI/lvgl/src/misc/lv_txt.c ****     /*Allocate space for the new text by using trick from C99 standard section 7.19.6.12*/
 452:Middlewares/LVGL/GUI/lvgl/src/misc/lv_txt.c ****     va_list ap_copy;
 453:Middlewares/LVGL/GUI/lvgl/src/misc/lv_txt.c ****     va_copy(ap_copy, ap);
 454:Middlewares/LVGL/GUI/lvgl/src/misc/lv_txt.c ****     uint32_t len = lv_vsnprintf(NULL, 0, fmt, ap_copy);
 455:Middlewares/LVGL/GUI/lvgl/src/misc/lv_txt.c ****     va_end(ap_copy);
 456:Middlewares/LVGL/GUI/lvgl/src/misc/lv_txt.c **** 
 457:Middlewares/LVGL/GUI/lvgl/src/misc/lv_txt.c ****     char * text = 0;
 458:Middlewares/LVGL/GUI/lvgl/src/misc/lv_txt.c **** #if LV_USE_ARABIC_PERSIAN_CHARS
 459:Middlewares/LVGL/GUI/lvgl/src/misc/lv_txt.c ****     /*Put together the text according to the format string*/
 460:Middlewares/LVGL/GUI/lvgl/src/misc/lv_txt.c ****     char * raw_txt = lv_mem_buf_get(len + 1);
 461:Middlewares/LVGL/GUI/lvgl/src/misc/lv_txt.c ****     LV_ASSERT_MALLOC(raw_txt);
 462:Middlewares/LVGL/GUI/lvgl/src/misc/lv_txt.c ****     if(raw_txt == NULL) {
 463:Middlewares/LVGL/GUI/lvgl/src/misc/lv_txt.c ****         return NULL;
 464:Middlewares/LVGL/GUI/lvgl/src/misc/lv_txt.c ****     }
 465:Middlewares/LVGL/GUI/lvgl/src/misc/lv_txt.c **** 
 466:Middlewares/LVGL/GUI/lvgl/src/misc/lv_txt.c ****     lv_vsnprintf(raw_txt, len + 1, fmt, ap);
 467:Middlewares/LVGL/GUI/lvgl/src/misc/lv_txt.c **** 
 468:Middlewares/LVGL/GUI/lvgl/src/misc/lv_txt.c ****     /*Get the size of the Arabic text and process it*/
 469:Middlewares/LVGL/GUI/lvgl/src/misc/lv_txt.c ****     size_t len_ap = _lv_txt_ap_calc_bytes_cnt(raw_txt);
 470:Middlewares/LVGL/GUI/lvgl/src/misc/lv_txt.c ****     text = lv_mem_alloc(len_ap + 1);
 471:Middlewares/LVGL/GUI/lvgl/src/misc/lv_txt.c ****     LV_ASSERT_MALLOC(text);
 472:Middlewares/LVGL/GUI/lvgl/src/misc/lv_txt.c ****     if(text == NULL) {
 473:Middlewares/LVGL/GUI/lvgl/src/misc/lv_txt.c ****         return NULL;
 474:Middlewares/LVGL/GUI/lvgl/src/misc/lv_txt.c ****     }
 475:Middlewares/LVGL/GUI/lvgl/src/misc/lv_txt.c ****     _lv_txt_ap_proc(raw_txt, text);
 476:Middlewares/LVGL/GUI/lvgl/src/misc/lv_txt.c **** 
 477:Middlewares/LVGL/GUI/lvgl/src/misc/lv_txt.c ****     lv_mem_buf_release(raw_txt);
 478:Middlewares/LVGL/GUI/lvgl/src/misc/lv_txt.c **** #else
 479:Middlewares/LVGL/GUI/lvgl/src/misc/lv_txt.c ****     text = lv_mem_alloc(len + 1);
 480:Middlewares/LVGL/GUI/lvgl/src/misc/lv_txt.c ****     LV_ASSERT_MALLOC(text);
 481:Middlewares/LVGL/GUI/lvgl/src/misc/lv_txt.c ****     if(text == NULL) {
 482:Middlewares/LVGL/GUI/lvgl/src/misc/lv_txt.c ****         return NULL;
 483:Middlewares/LVGL/GUI/lvgl/src/misc/lv_txt.c ****     }
 484:Middlewares/LVGL/GUI/lvgl/src/misc/lv_txt.c ****     text[len] = 0; /*Ensure NULL termination*/
 485:Middlewares/LVGL/GUI/lvgl/src/misc/lv_txt.c **** 
 486:Middlewares/LVGL/GUI/lvgl/src/misc/lv_txt.c ****     lv_vsnprintf(text, len + 1, fmt, ap);
ARM GAS  C:\Users\ADMINI~1\AppData\Local\Temp\ccPT3swg.s 			page 10


 487:Middlewares/LVGL/GUI/lvgl/src/misc/lv_txt.c **** #endif
 488:Middlewares/LVGL/GUI/lvgl/src/misc/lv_txt.c **** 
 489:Middlewares/LVGL/GUI/lvgl/src/misc/lv_txt.c ****     return text;
 490:Middlewares/LVGL/GUI/lvgl/src/misc/lv_txt.c **** }
 491:Middlewares/LVGL/GUI/lvgl/src/misc/lv_txt.c **** 
 492:Middlewares/LVGL/GUI/lvgl/src/misc/lv_txt.c **** void _lv_txt_encoded_letter_next_2(const char * txt, uint32_t * letter, uint32_t * letter_next, uin
 493:Middlewares/LVGL/GUI/lvgl/src/misc/lv_txt.c **** {
 494:Middlewares/LVGL/GUI/lvgl/src/misc/lv_txt.c ****     *letter = _lv_txt_encoded_next(txt, ofs);
 495:Middlewares/LVGL/GUI/lvgl/src/misc/lv_txt.c ****     *letter_next = *letter != '\0' ? _lv_txt_encoded_next(&txt[*ofs], NULL) : 0;
 496:Middlewares/LVGL/GUI/lvgl/src/misc/lv_txt.c **** }
 497:Middlewares/LVGL/GUI/lvgl/src/misc/lv_txt.c **** 
 498:Middlewares/LVGL/GUI/lvgl/src/misc/lv_txt.c **** #if LV_TXT_ENC == LV_TXT_ENC_UTF8
 499:Middlewares/LVGL/GUI/lvgl/src/misc/lv_txt.c **** /*******************************
 500:Middlewares/LVGL/GUI/lvgl/src/misc/lv_txt.c ****  *   UTF-8 ENCODER/DECODER
 501:Middlewares/LVGL/GUI/lvgl/src/misc/lv_txt.c ****  ******************************/
 502:Middlewares/LVGL/GUI/lvgl/src/misc/lv_txt.c **** 
 503:Middlewares/LVGL/GUI/lvgl/src/misc/lv_txt.c **** /**
 504:Middlewares/LVGL/GUI/lvgl/src/misc/lv_txt.c ****  * Give the size of an UTF-8 coded character
 505:Middlewares/LVGL/GUI/lvgl/src/misc/lv_txt.c ****  * @param str pointer to a character in a string
 506:Middlewares/LVGL/GUI/lvgl/src/misc/lv_txt.c ****  * @return length of the UTF-8 character (1,2,3 or 4), 0 on invalid code.
 507:Middlewares/LVGL/GUI/lvgl/src/misc/lv_txt.c ****  */
 508:Middlewares/LVGL/GUI/lvgl/src/misc/lv_txt.c **** static uint8_t lv_txt_utf8_size(const char * str)
 509:Middlewares/LVGL/GUI/lvgl/src/misc/lv_txt.c **** {
  29              		.loc 1 509 1 view -0
  30              		.cfi_startproc
  31              		@ args = 0, pretend = 0, frame = 0
  32              		@ frame_needed = 0, uses_anonymous_args = 0
  33              		@ link register save eliminated.
 510:Middlewares/LVGL/GUI/lvgl/src/misc/lv_txt.c ****     if(LV_IS_ASCII(str[0]))
  34              		.loc 1 510 5 view .LVU1
  35              		.loc 1 510 8 is_stmt 0 view .LVU2
  36 0000 0378     		ldrb	r3, [r0]	@ zero_extendqisi2
  37 0002 90F90020 		ldrsb	r2, [r0]
  38              		.loc 1 510 7 view .LVU3
  39 0006 002A     		cmp	r2, #0
  40 0008 0DDA     		bge	.L3
 511:Middlewares/LVGL/GUI/lvgl/src/misc/lv_txt.c ****         return 1;
 512:Middlewares/LVGL/GUI/lvgl/src/misc/lv_txt.c ****     else if(LV_IS_2BYTES_UTF8_CODE(str[0]))
  41              		.loc 1 512 10 is_stmt 1 view .LVU4
  42              		.loc 1 512 12 is_stmt 0 view .LVU5
  43 000a 03F0E002 		and	r2, r3, #224
  44 000e C02A     		cmp	r2, #192
  45 0010 0BD0     		beq	.L4
 513:Middlewares/LVGL/GUI/lvgl/src/misc/lv_txt.c ****         return 2;
 514:Middlewares/LVGL/GUI/lvgl/src/misc/lv_txt.c ****     else if(LV_IS_3BYTES_UTF8_CODE(str[0]))
  46              		.loc 1 514 10 is_stmt 1 view .LVU6
  47              		.loc 1 514 12 is_stmt 0 view .LVU7
  48 0012 03F0F002 		and	r2, r3, #240
  49 0016 E02A     		cmp	r2, #224
  50 0018 09D0     		beq	.L5
 515:Middlewares/LVGL/GUI/lvgl/src/misc/lv_txt.c ****         return 3;
 516:Middlewares/LVGL/GUI/lvgl/src/misc/lv_txt.c ****     else if(LV_IS_4BYTES_UTF8_CODE(str[0]))
  51              		.loc 1 516 10 is_stmt 1 view .LVU8
  52              		.loc 1 516 12 is_stmt 0 view .LVU9
  53 001a 03F0F803 		and	r3, r3, #248
  54 001e F02B     		cmp	r3, #240
  55 0020 07D0     		beq	.L6
ARM GAS  C:\Users\ADMINI~1\AppData\Local\Temp\ccPT3swg.s 			page 11


 517:Middlewares/LVGL/GUI/lvgl/src/misc/lv_txt.c ****         return 4;
 518:Middlewares/LVGL/GUI/lvgl/src/misc/lv_txt.c ****     return 0;
  56              		.loc 1 518 12 view .LVU10
  57 0022 0020     		movs	r0, #0
  58              	.LVL1:
  59              		.loc 1 518 12 view .LVU11
  60 0024 7047     		bx	lr
  61              	.LVL2:
  62              	.L3:
 511:Middlewares/LVGL/GUI/lvgl/src/misc/lv_txt.c ****     else if(LV_IS_2BYTES_UTF8_CODE(str[0]))
  63              		.loc 1 511 16 view .LVU12
  64 0026 0120     		movs	r0, #1
  65              	.LVL3:
 511:Middlewares/LVGL/GUI/lvgl/src/misc/lv_txt.c ****     else if(LV_IS_2BYTES_UTF8_CODE(str[0]))
  66              		.loc 1 511 16 view .LVU13
  67 0028 7047     		bx	lr
  68              	.LVL4:
  69              	.L4:
 513:Middlewares/LVGL/GUI/lvgl/src/misc/lv_txt.c ****     else if(LV_IS_3BYTES_UTF8_CODE(str[0]))
  70              		.loc 1 513 16 view .LVU14
  71 002a 0220     		movs	r0, #2
  72              	.LVL5:
 513:Middlewares/LVGL/GUI/lvgl/src/misc/lv_txt.c ****     else if(LV_IS_3BYTES_UTF8_CODE(str[0]))
  73              		.loc 1 513 16 view .LVU15
  74 002c 7047     		bx	lr
  75              	.LVL6:
  76              	.L5:
 515:Middlewares/LVGL/GUI/lvgl/src/misc/lv_txt.c ****     else if(LV_IS_4BYTES_UTF8_CODE(str[0]))
  77              		.loc 1 515 16 view .LVU16
  78 002e 0320     		movs	r0, #3
  79              	.LVL7:
 515:Middlewares/LVGL/GUI/lvgl/src/misc/lv_txt.c ****     else if(LV_IS_4BYTES_UTF8_CODE(str[0]))
  80              		.loc 1 515 16 view .LVU17
  81 0030 7047     		bx	lr
  82              	.LVL8:
  83              	.L6:
 517:Middlewares/LVGL/GUI/lvgl/src/misc/lv_txt.c ****     return 0;
  84              		.loc 1 517 16 view .LVU18
  85 0032 0420     		movs	r0, #4
  86              	.LVL9:
 519:Middlewares/LVGL/GUI/lvgl/src/misc/lv_txt.c **** }
  87              		.loc 1 519 1 view .LVU19
  88 0034 7047     		bx	lr
  89              		.cfi_endproc
  90              	.LFE62:
  92              		.section	.text.lv_txt_unicode_to_utf8,"ax",%progbits
  93              		.align	1
  94              		.syntax unified
  95              		.thumb
  96              		.thumb_func
  98              	lv_txt_unicode_to_utf8:
  99              	.LVL10:
 100              	.LFB63:
 520:Middlewares/LVGL/GUI/lvgl/src/misc/lv_txt.c **** 
 521:Middlewares/LVGL/GUI/lvgl/src/misc/lv_txt.c **** /**
 522:Middlewares/LVGL/GUI/lvgl/src/misc/lv_txt.c ****  * Convert an Unicode letter to UTF-8.
 523:Middlewares/LVGL/GUI/lvgl/src/misc/lv_txt.c ****  * @param letter_uni an Unicode letter
ARM GAS  C:\Users\ADMINI~1\AppData\Local\Temp\ccPT3swg.s 			page 12


 524:Middlewares/LVGL/GUI/lvgl/src/misc/lv_txt.c ****  * @return UTF-8 coded character in Little Endian to be compatible with C chars (e.g. '', '')
 525:Middlewares/LVGL/GUI/lvgl/src/misc/lv_txt.c ****  */
 526:Middlewares/LVGL/GUI/lvgl/src/misc/lv_txt.c **** static uint32_t lv_txt_unicode_to_utf8(uint32_t letter_uni)
 527:Middlewares/LVGL/GUI/lvgl/src/misc/lv_txt.c **** {
 101              		.loc 1 527 1 is_stmt 1 view -0
 102              		.cfi_startproc
 103              		@ args = 0, pretend = 0, frame = 8
 104              		@ frame_needed = 0, uses_anonymous_args = 0
 105              		@ link register save eliminated.
 528:Middlewares/LVGL/GUI/lvgl/src/misc/lv_txt.c ****     if(letter_uni < 128) return letter_uni;
 106              		.loc 1 528 5 view .LVU21
 107              		.loc 1 528 7 is_stmt 0 view .LVU22
 108 0000 7F28     		cmp	r0, #127
 109 0002 4CD9     		bls	.L14
 527:Middlewares/LVGL/GUI/lvgl/src/misc/lv_txt.c ****     if(letter_uni < 128) return letter_uni;
 110              		.loc 1 527 1 view .LVU23
 111 0004 82B0     		sub	sp, sp, #8
 112              	.LCFI0:
 113              		.cfi_def_cfa_offset 8
 529:Middlewares/LVGL/GUI/lvgl/src/misc/lv_txt.c ****     uint8_t bytes[4];
 114              		.loc 1 529 5 is_stmt 1 view .LVU24
 530:Middlewares/LVGL/GUI/lvgl/src/misc/lv_txt.c **** 
 531:Middlewares/LVGL/GUI/lvgl/src/misc/lv_txt.c ****     if(letter_uni < 0x0800) {
 115              		.loc 1 531 5 view .LVU25
 116              		.loc 1 531 7 is_stmt 0 view .LVU26
 117 0006 B0F5006F 		cmp	r0, #2048
 118 000a 13D2     		bcs	.L9
 532:Middlewares/LVGL/GUI/lvgl/src/misc/lv_txt.c ****         bytes[0] = ((letter_uni >> 6) & 0x1F) | 0xC0;
 119              		.loc 1 532 9 is_stmt 1 view .LVU27
 120              		.loc 1 532 39 is_stmt 0 view .LVU28
 121 000c C0F38413 		ubfx	r3, r0, #6, #5
 122              		.loc 1 532 47 view .LVU29
 123 0010 43F0C003 		orr	r3, r3, #192
 124              		.loc 1 532 18 view .LVU30
 125 0014 8DF80430 		strb	r3, [sp, #4]
 533:Middlewares/LVGL/GUI/lvgl/src/misc/lv_txt.c ****         bytes[1] = ((letter_uni >> 0) & 0x3F) | 0x80;
 126              		.loc 1 533 9 is_stmt 1 view .LVU31
 127              		.loc 1 533 39 is_stmt 0 view .LVU32
 128 0018 00F03F00 		and	r0, r0, #63
 129              	.LVL11:
 130              		.loc 1 533 47 view .LVU33
 131 001c 40F08000 		orr	r0, r0, #128
 132              		.loc 1 533 18 view .LVU34
 133 0020 8DF80500 		strb	r0, [sp, #5]
 534:Middlewares/LVGL/GUI/lvgl/src/misc/lv_txt.c ****         bytes[2] = 0;
 134              		.loc 1 534 9 is_stmt 1 view .LVU35
 135              		.loc 1 534 18 is_stmt 0 view .LVU36
 136 0024 0023     		movs	r3, #0
 137 0026 8DF80630 		strb	r3, [sp, #6]
 535:Middlewares/LVGL/GUI/lvgl/src/misc/lv_txt.c ****         bytes[3] = 0;
 138              		.loc 1 535 9 is_stmt 1 view .LVU37
 139              		.loc 1 535 18 is_stmt 0 view .LVU38
 140 002a 8DF80730 		strb	r3, [sp, #7]
 141              	.L10:
 536:Middlewares/LVGL/GUI/lvgl/src/misc/lv_txt.c ****     }
 537:Middlewares/LVGL/GUI/lvgl/src/misc/lv_txt.c ****     else if(letter_uni < 0x010000) {
 538:Middlewares/LVGL/GUI/lvgl/src/misc/lv_txt.c ****         bytes[0] = ((letter_uni >> 12) & 0x0F) | 0xE0;
ARM GAS  C:\Users\ADMINI~1\AppData\Local\Temp\ccPT3swg.s 			page 13


 539:Middlewares/LVGL/GUI/lvgl/src/misc/lv_txt.c ****         bytes[1] = ((letter_uni >> 6) & 0x3F) | 0x80;
 540:Middlewares/LVGL/GUI/lvgl/src/misc/lv_txt.c ****         bytes[2] = ((letter_uni >> 0) & 0x3F) | 0x80;
 541:Middlewares/LVGL/GUI/lvgl/src/misc/lv_txt.c ****         bytes[3] = 0;
 542:Middlewares/LVGL/GUI/lvgl/src/misc/lv_txt.c ****     }
 543:Middlewares/LVGL/GUI/lvgl/src/misc/lv_txt.c ****     else if(letter_uni < 0x110000) {
 544:Middlewares/LVGL/GUI/lvgl/src/misc/lv_txt.c ****         bytes[0] = ((letter_uni >> 18) & 0x07) | 0xF0;
 545:Middlewares/LVGL/GUI/lvgl/src/misc/lv_txt.c ****         bytes[1] = ((letter_uni >> 12) & 0x3F) | 0x80;
 546:Middlewares/LVGL/GUI/lvgl/src/misc/lv_txt.c ****         bytes[2] = ((letter_uni >> 6) & 0x3F) | 0x80;
 547:Middlewares/LVGL/GUI/lvgl/src/misc/lv_txt.c ****         bytes[3] = ((letter_uni >> 0) & 0x3F) | 0x80;
 548:Middlewares/LVGL/GUI/lvgl/src/misc/lv_txt.c ****     }
 549:Middlewares/LVGL/GUI/lvgl/src/misc/lv_txt.c **** 
 550:Middlewares/LVGL/GUI/lvgl/src/misc/lv_txt.c ****     uint32_t * res_p = (uint32_t *)bytes;
 142              		.loc 1 550 5 is_stmt 1 view .LVU39
 143              	.LVL12:
 551:Middlewares/LVGL/GUI/lvgl/src/misc/lv_txt.c ****     return *res_p;
 144              		.loc 1 551 5 view .LVU40
 145              		.loc 1 551 12 is_stmt 0 view .LVU41
 146 002e 0198     		ldr	r0, [sp, #4]
 552:Middlewares/LVGL/GUI/lvgl/src/misc/lv_txt.c **** }
 147              		.loc 1 552 1 view .LVU42
 148 0030 02B0     		add	sp, sp, #8
 149              	.LCFI1:
 150              		.cfi_remember_state
 151              		.cfi_def_cfa_offset 0
 152              	.LVL13:
 153              		.loc 1 552 1 view .LVU43
 154              		@ sp needed
 155 0032 7047     		bx	lr
 156              	.LVL14:
 157              	.L9:
 158              	.LCFI2:
 159              		.cfi_restore_state
 537:Middlewares/LVGL/GUI/lvgl/src/misc/lv_txt.c ****         bytes[0] = ((letter_uni >> 12) & 0x0F) | 0xE0;
 160              		.loc 1 537 10 is_stmt 1 view .LVU44
 537:Middlewares/LVGL/GUI/lvgl/src/misc/lv_txt.c ****         bytes[0] = ((letter_uni >> 12) & 0x0F) | 0xE0;
 161              		.loc 1 537 12 is_stmt 0 view .LVU45
 162 0034 B0F5803F 		cmp	r0, #65536
 163 0038 15D2     		bcs	.L11
 538:Middlewares/LVGL/GUI/lvgl/src/misc/lv_txt.c ****         bytes[1] = ((letter_uni >> 6) & 0x3F) | 0x80;
 164              		.loc 1 538 9 is_stmt 1 view .LVU46
 538:Middlewares/LVGL/GUI/lvgl/src/misc/lv_txt.c ****         bytes[1] = ((letter_uni >> 6) & 0x3F) | 0x80;
 165              		.loc 1 538 40 is_stmt 0 view .LVU47
 166 003a C0F30333 		ubfx	r3, r0, #12, #4
 538:Middlewares/LVGL/GUI/lvgl/src/misc/lv_txt.c ****         bytes[1] = ((letter_uni >> 6) & 0x3F) | 0x80;
 167              		.loc 1 538 48 view .LVU48
 168 003e 43F0E003 		orr	r3, r3, #224
 538:Middlewares/LVGL/GUI/lvgl/src/misc/lv_txt.c ****         bytes[1] = ((letter_uni >> 6) & 0x3F) | 0x80;
 169              		.loc 1 538 18 view .LVU49
 170 0042 8DF80430 		strb	r3, [sp, #4]
 539:Middlewares/LVGL/GUI/lvgl/src/misc/lv_txt.c ****         bytes[2] = ((letter_uni >> 0) & 0x3F) | 0x80;
 171              		.loc 1 539 9 is_stmt 1 view .LVU50
 539:Middlewares/LVGL/GUI/lvgl/src/misc/lv_txt.c ****         bytes[2] = ((letter_uni >> 0) & 0x3F) | 0x80;
 172              		.loc 1 539 39 is_stmt 0 view .LVU51
 173 0046 C0F38513 		ubfx	r3, r0, #6, #6
 539:Middlewares/LVGL/GUI/lvgl/src/misc/lv_txt.c ****         bytes[2] = ((letter_uni >> 0) & 0x3F) | 0x80;
 174              		.loc 1 539 47 view .LVU52
 175 004a 43F08003 		orr	r3, r3, #128
ARM GAS  C:\Users\ADMINI~1\AppData\Local\Temp\ccPT3swg.s 			page 14


 539:Middlewares/LVGL/GUI/lvgl/src/misc/lv_txt.c ****         bytes[2] = ((letter_uni >> 0) & 0x3F) | 0x80;
 176              		.loc 1 539 18 view .LVU53
 177 004e 8DF80530 		strb	r3, [sp, #5]
 540:Middlewares/LVGL/GUI/lvgl/src/misc/lv_txt.c ****         bytes[3] = 0;
 178              		.loc 1 540 9 is_stmt 1 view .LVU54
 540:Middlewares/LVGL/GUI/lvgl/src/misc/lv_txt.c ****         bytes[3] = 0;
 179              		.loc 1 540 39 is_stmt 0 view .LVU55
 180 0052 00F03F00 		and	r0, r0, #63
 181              	.LVL15:
 540:Middlewares/LVGL/GUI/lvgl/src/misc/lv_txt.c ****         bytes[3] = 0;
 182              		.loc 1 540 47 view .LVU56
 183 0056 40F08000 		orr	r0, r0, #128
 540:Middlewares/LVGL/GUI/lvgl/src/misc/lv_txt.c ****         bytes[3] = 0;
 184              		.loc 1 540 18 view .LVU57
 185 005a 8DF80600 		strb	r0, [sp, #6]
 541:Middlewares/LVGL/GUI/lvgl/src/misc/lv_txt.c ****     }
 186              		.loc 1 541 9 is_stmt 1 view .LVU58
 541:Middlewares/LVGL/GUI/lvgl/src/misc/lv_txt.c ****     }
 187              		.loc 1 541 18 is_stmt 0 view .LVU59
 188 005e 0023     		movs	r3, #0
 189 0060 8DF80730 		strb	r3, [sp, #7]
 190 0064 E3E7     		b	.L10
 191              	.LVL16:
 192              	.L11:
 543:Middlewares/LVGL/GUI/lvgl/src/misc/lv_txt.c ****         bytes[0] = ((letter_uni >> 18) & 0x07) | 0xF0;
 193              		.loc 1 543 10 is_stmt 1 view .LVU60
 543:Middlewares/LVGL/GUI/lvgl/src/misc/lv_txt.c ****         bytes[0] = ((letter_uni >> 18) & 0x07) | 0xF0;
 194              		.loc 1 543 12 is_stmt 0 view .LVU61
 195 0066 B0F5881F 		cmp	r0, #1114112
 196 006a E0D2     		bcs	.L10
 544:Middlewares/LVGL/GUI/lvgl/src/misc/lv_txt.c ****         bytes[1] = ((letter_uni >> 12) & 0x3F) | 0x80;
 197              		.loc 1 544 9 is_stmt 1 view .LVU62
 544:Middlewares/LVGL/GUI/lvgl/src/misc/lv_txt.c ****         bytes[1] = ((letter_uni >> 12) & 0x3F) | 0x80;
 198              		.loc 1 544 40 is_stmt 0 view .LVU63
 199 006c C0F38243 		ubfx	r3, r0, #18, #3
 544:Middlewares/LVGL/GUI/lvgl/src/misc/lv_txt.c ****         bytes[1] = ((letter_uni >> 12) & 0x3F) | 0x80;
 200              		.loc 1 544 48 view .LVU64
 201 0070 43F0F003 		orr	r3, r3, #240
 544:Middlewares/LVGL/GUI/lvgl/src/misc/lv_txt.c ****         bytes[1] = ((letter_uni >> 12) & 0x3F) | 0x80;
 202              		.loc 1 544 18 view .LVU65
 203 0074 8DF80430 		strb	r3, [sp, #4]
 545:Middlewares/LVGL/GUI/lvgl/src/misc/lv_txt.c ****         bytes[2] = ((letter_uni >> 6) & 0x3F) | 0x80;
 204              		.loc 1 545 9 is_stmt 1 view .LVU66
 545:Middlewares/LVGL/GUI/lvgl/src/misc/lv_txt.c ****         bytes[2] = ((letter_uni >> 6) & 0x3F) | 0x80;
 205              		.loc 1 545 40 is_stmt 0 view .LVU67
 206 0078 C0F30533 		ubfx	r3, r0, #12, #6
 545:Middlewares/LVGL/GUI/lvgl/src/misc/lv_txt.c ****         bytes[2] = ((letter_uni >> 6) & 0x3F) | 0x80;
 207              		.loc 1 545 48 view .LVU68
 208 007c 43F08003 		orr	r3, r3, #128
 545:Middlewares/LVGL/GUI/lvgl/src/misc/lv_txt.c ****         bytes[2] = ((letter_uni >> 6) & 0x3F) | 0x80;
 209              		.loc 1 545 18 view .LVU69
 210 0080 8DF80530 		strb	r3, [sp, #5]
 546:Middlewares/LVGL/GUI/lvgl/src/misc/lv_txt.c ****         bytes[3] = ((letter_uni >> 0) & 0x3F) | 0x80;
 211              		.loc 1 546 9 is_stmt 1 view .LVU70
 546:Middlewares/LVGL/GUI/lvgl/src/misc/lv_txt.c ****         bytes[3] = ((letter_uni >> 0) & 0x3F) | 0x80;
 212              		.loc 1 546 39 is_stmt 0 view .LVU71
 213 0084 C0F38513 		ubfx	r3, r0, #6, #6
ARM GAS  C:\Users\ADMINI~1\AppData\Local\Temp\ccPT3swg.s 			page 15


 546:Middlewares/LVGL/GUI/lvgl/src/misc/lv_txt.c ****         bytes[3] = ((letter_uni >> 0) & 0x3F) | 0x80;
 214              		.loc 1 546 47 view .LVU72
 215 0088 43F08003 		orr	r3, r3, #128
 546:Middlewares/LVGL/GUI/lvgl/src/misc/lv_txt.c ****         bytes[3] = ((letter_uni >> 0) & 0x3F) | 0x80;
 216              		.loc 1 546 18 view .LVU73
 217 008c 8DF80630 		strb	r3, [sp, #6]
 547:Middlewares/LVGL/GUI/lvgl/src/misc/lv_txt.c ****     }
 218              		.loc 1 547 9 is_stmt 1 view .LVU74
 547:Middlewares/LVGL/GUI/lvgl/src/misc/lv_txt.c ****     }
 219              		.loc 1 547 39 is_stmt 0 view .LVU75
 220 0090 00F03F00 		and	r0, r0, #63
 221              	.LVL17:
 547:Middlewares/LVGL/GUI/lvgl/src/misc/lv_txt.c ****     }
 222              		.loc 1 547 47 view .LVU76
 223 0094 40F08000 		orr	r0, r0, #128
 547:Middlewares/LVGL/GUI/lvgl/src/misc/lv_txt.c ****     }
 224              		.loc 1 547 18 view .LVU77
 225 0098 8DF80700 		strb	r0, [sp, #7]
 226 009c C7E7     		b	.L10
 227              	.LVL18:
 228              	.L14:
 229              	.LCFI3:
 230              		.cfi_def_cfa_offset 0
 231              		.loc 1 552 1 view .LVU78
 232 009e 7047     		bx	lr
 233              		.cfi_endproc
 234              	.LFE63:
 236              		.section	.text.lv_txt_utf8_conv_wc,"ax",%progbits
 237              		.align	1
 238              		.syntax unified
 239              		.thumb
 240              		.thumb_func
 242              	lv_txt_utf8_conv_wc:
 243              	.LVL19:
 244              	.LFB64:
 553:Middlewares/LVGL/GUI/lvgl/src/misc/lv_txt.c **** 
 554:Middlewares/LVGL/GUI/lvgl/src/misc/lv_txt.c **** /**
 555:Middlewares/LVGL/GUI/lvgl/src/misc/lv_txt.c ****  * Convert a wide character, e.g. '' little endian to be UTF-8 compatible
 556:Middlewares/LVGL/GUI/lvgl/src/misc/lv_txt.c ****  * @param c a wide character or a  Little endian number
 557:Middlewares/LVGL/GUI/lvgl/src/misc/lv_txt.c ****  * @return `c` in big endian
 558:Middlewares/LVGL/GUI/lvgl/src/misc/lv_txt.c ****  */
 559:Middlewares/LVGL/GUI/lvgl/src/misc/lv_txt.c **** static uint32_t lv_txt_utf8_conv_wc(uint32_t c)
 560:Middlewares/LVGL/GUI/lvgl/src/misc/lv_txt.c **** {
 245              		.loc 1 560 1 is_stmt 1 view -0
 246              		.cfi_startproc
 247              		@ args = 0, pretend = 0, frame = 16
 248              		@ frame_needed = 0, uses_anonymous_args = 0
 249              		@ link register save eliminated.
 250              		.loc 1 560 1 is_stmt 0 view .LVU80
 251 0000 84B0     		sub	sp, sp, #16
 252              	.LCFI4:
 253              		.cfi_def_cfa_offset 16
 254 0002 0190     		str	r0, [sp, #4]
 561:Middlewares/LVGL/GUI/lvgl/src/misc/lv_txt.c **** #if LV_BIG_ENDIAN_SYSTEM == 0
 562:Middlewares/LVGL/GUI/lvgl/src/misc/lv_txt.c ****     /*Swap the bytes (UTF-8 is big endian, but the MCUs are little endian)*/
 563:Middlewares/LVGL/GUI/lvgl/src/misc/lv_txt.c ****     if((c & 0x80) != 0) {
 255              		.loc 1 563 5 is_stmt 1 view .LVU81
ARM GAS  C:\Users\ADMINI~1\AppData\Local\Temp\ccPT3swg.s 			page 16


 256              		.loc 1 563 7 is_stmt 0 view .LVU82
 257 0004 10F0800F 		tst	r0, #128
 258 0008 19D1     		bne	.L24
 259              	.LVL20:
 260              	.L19:
 564:Middlewares/LVGL/GUI/lvgl/src/misc/lv_txt.c ****         uint32_t swapped;
 565:Middlewares/LVGL/GUI/lvgl/src/misc/lv_txt.c ****         uint8_t c8[4];
 566:Middlewares/LVGL/GUI/lvgl/src/misc/lv_txt.c ****         lv_memcpy_small(c8, &c, 4);
 567:Middlewares/LVGL/GUI/lvgl/src/misc/lv_txt.c ****         swapped = (c8[0] << 24) + (c8[1] << 16) + (c8[2] << 8) + (c8[3]);
 568:Middlewares/LVGL/GUI/lvgl/src/misc/lv_txt.c ****         uint8_t i;
 569:Middlewares/LVGL/GUI/lvgl/src/misc/lv_txt.c ****         for(i = 0; i < 4; i++) {
 570:Middlewares/LVGL/GUI/lvgl/src/misc/lv_txt.c ****             if((swapped & 0xFF) == 0)
 571:Middlewares/LVGL/GUI/lvgl/src/misc/lv_txt.c ****                 swapped = (swapped >> 8); /*Ignore leading zeros (they were in the end originally)*
 572:Middlewares/LVGL/GUI/lvgl/src/misc/lv_txt.c ****         }
 573:Middlewares/LVGL/GUI/lvgl/src/misc/lv_txt.c ****         c = swapped;
 574:Middlewares/LVGL/GUI/lvgl/src/misc/lv_txt.c ****     }
 575:Middlewares/LVGL/GUI/lvgl/src/misc/lv_txt.c **** #endif
 576:Middlewares/LVGL/GUI/lvgl/src/misc/lv_txt.c ****     return c;
 261              		.loc 1 576 5 is_stmt 1 view .LVU83
 577:Middlewares/LVGL/GUI/lvgl/src/misc/lv_txt.c **** }
 262              		.loc 1 577 1 is_stmt 0 view .LVU84
 263 000a 0198     		ldr	r0, [sp, #4]
 264 000c 04B0     		add	sp, sp, #16
 265              	.LCFI5:
 266              		.cfi_remember_state
 267              		.cfi_def_cfa_offset 0
 268              		@ sp needed
 269 000e 7047     		bx	lr
 270              	.LVL21:
 271              	.L20:
 272              	.LCFI6:
 273              		.cfi_restore_state
 274              	.LBB12:
 275              	.LBB13:
 276              	.LBB14:
 277              		.file 2 "Middlewares/LVGL/GUI/lvgl/src/misc/../draw/../misc/lv_mem.h"
   1:Middlewares/LVGL/GUI/lvgl/src/misc/../draw/../misc/lv_mem.h **** /**
   2:Middlewares/LVGL/GUI/lvgl/src/misc/../draw/../misc/lv_mem.h ****  * @file lv_mem.h
   3:Middlewares/LVGL/GUI/lvgl/src/misc/../draw/../misc/lv_mem.h ****  *
   4:Middlewares/LVGL/GUI/lvgl/src/misc/../draw/../misc/lv_mem.h ****  */
   5:Middlewares/LVGL/GUI/lvgl/src/misc/../draw/../misc/lv_mem.h **** 
   6:Middlewares/LVGL/GUI/lvgl/src/misc/../draw/../misc/lv_mem.h **** #ifndef LV_MEM_H
   7:Middlewares/LVGL/GUI/lvgl/src/misc/../draw/../misc/lv_mem.h **** #define LV_MEM_H
   8:Middlewares/LVGL/GUI/lvgl/src/misc/../draw/../misc/lv_mem.h **** 
   9:Middlewares/LVGL/GUI/lvgl/src/misc/../draw/../misc/lv_mem.h **** #ifdef __cplusplus
  10:Middlewares/LVGL/GUI/lvgl/src/misc/../draw/../misc/lv_mem.h **** extern "C" {
  11:Middlewares/LVGL/GUI/lvgl/src/misc/../draw/../misc/lv_mem.h **** #endif
  12:Middlewares/LVGL/GUI/lvgl/src/misc/../draw/../misc/lv_mem.h **** 
  13:Middlewares/LVGL/GUI/lvgl/src/misc/../draw/../misc/lv_mem.h **** /*********************
  14:Middlewares/LVGL/GUI/lvgl/src/misc/../draw/../misc/lv_mem.h ****  *      INCLUDES
  15:Middlewares/LVGL/GUI/lvgl/src/misc/../draw/../misc/lv_mem.h ****  *********************/
  16:Middlewares/LVGL/GUI/lvgl/src/misc/../draw/../misc/lv_mem.h **** #include "../lv_conf_internal.h"
  17:Middlewares/LVGL/GUI/lvgl/src/misc/../draw/../misc/lv_mem.h **** 
  18:Middlewares/LVGL/GUI/lvgl/src/misc/../draw/../misc/lv_mem.h **** #include <stdint.h>
  19:Middlewares/LVGL/GUI/lvgl/src/misc/../draw/../misc/lv_mem.h **** #include <stddef.h>
  20:Middlewares/LVGL/GUI/lvgl/src/misc/../draw/../misc/lv_mem.h **** #include <string.h>
  21:Middlewares/LVGL/GUI/lvgl/src/misc/../draw/../misc/lv_mem.h **** 
ARM GAS  C:\Users\ADMINI~1\AppData\Local\Temp\ccPT3swg.s 			page 17


  22:Middlewares/LVGL/GUI/lvgl/src/misc/../draw/../misc/lv_mem.h **** #include "lv_types.h"
  23:Middlewares/LVGL/GUI/lvgl/src/misc/../draw/../misc/lv_mem.h **** 
  24:Middlewares/LVGL/GUI/lvgl/src/misc/../draw/../misc/lv_mem.h **** /*********************
  25:Middlewares/LVGL/GUI/lvgl/src/misc/../draw/../misc/lv_mem.h ****  *      DEFINES
  26:Middlewares/LVGL/GUI/lvgl/src/misc/../draw/../misc/lv_mem.h ****  *********************/
  27:Middlewares/LVGL/GUI/lvgl/src/misc/../draw/../misc/lv_mem.h **** 
  28:Middlewares/LVGL/GUI/lvgl/src/misc/../draw/../misc/lv_mem.h **** /**********************
  29:Middlewares/LVGL/GUI/lvgl/src/misc/../draw/../misc/lv_mem.h ****  *      TYPEDEFS
  30:Middlewares/LVGL/GUI/lvgl/src/misc/../draw/../misc/lv_mem.h ****  **********************/
  31:Middlewares/LVGL/GUI/lvgl/src/misc/../draw/../misc/lv_mem.h **** 
  32:Middlewares/LVGL/GUI/lvgl/src/misc/../draw/../misc/lv_mem.h **** /**
  33:Middlewares/LVGL/GUI/lvgl/src/misc/../draw/../misc/lv_mem.h ****  * Heap information structure.
  34:Middlewares/LVGL/GUI/lvgl/src/misc/../draw/../misc/lv_mem.h ****  */
  35:Middlewares/LVGL/GUI/lvgl/src/misc/../draw/../misc/lv_mem.h **** typedef struct {
  36:Middlewares/LVGL/GUI/lvgl/src/misc/../draw/../misc/lv_mem.h ****     uint32_t total_size; /**< Total heap size*/
  37:Middlewares/LVGL/GUI/lvgl/src/misc/../draw/../misc/lv_mem.h ****     uint32_t free_cnt;
  38:Middlewares/LVGL/GUI/lvgl/src/misc/../draw/../misc/lv_mem.h ****     uint32_t free_size; /**< Size of available memory*/
  39:Middlewares/LVGL/GUI/lvgl/src/misc/../draw/../misc/lv_mem.h ****     uint32_t free_biggest_size;
  40:Middlewares/LVGL/GUI/lvgl/src/misc/../draw/../misc/lv_mem.h ****     uint32_t used_cnt;
  41:Middlewares/LVGL/GUI/lvgl/src/misc/../draw/../misc/lv_mem.h ****     uint32_t max_used; /**< Max size of Heap memory used*/
  42:Middlewares/LVGL/GUI/lvgl/src/misc/../draw/../misc/lv_mem.h ****     uint8_t used_pct; /**< Percentage used*/
  43:Middlewares/LVGL/GUI/lvgl/src/misc/../draw/../misc/lv_mem.h ****     uint8_t frag_pct; /**< Amount of fragmentation*/
  44:Middlewares/LVGL/GUI/lvgl/src/misc/../draw/../misc/lv_mem.h **** } lv_mem_monitor_t;
  45:Middlewares/LVGL/GUI/lvgl/src/misc/../draw/../misc/lv_mem.h **** 
  46:Middlewares/LVGL/GUI/lvgl/src/misc/../draw/../misc/lv_mem.h **** typedef struct {
  47:Middlewares/LVGL/GUI/lvgl/src/misc/../draw/../misc/lv_mem.h ****     void * p;
  48:Middlewares/LVGL/GUI/lvgl/src/misc/../draw/../misc/lv_mem.h ****     uint16_t size;
  49:Middlewares/LVGL/GUI/lvgl/src/misc/../draw/../misc/lv_mem.h ****     uint8_t used : 1;
  50:Middlewares/LVGL/GUI/lvgl/src/misc/../draw/../misc/lv_mem.h **** } lv_mem_buf_t;
  51:Middlewares/LVGL/GUI/lvgl/src/misc/../draw/../misc/lv_mem.h **** 
  52:Middlewares/LVGL/GUI/lvgl/src/misc/../draw/../misc/lv_mem.h **** typedef lv_mem_buf_t lv_mem_buf_arr_t[LV_MEM_BUF_MAX_NUM];
  53:Middlewares/LVGL/GUI/lvgl/src/misc/../draw/../misc/lv_mem.h **** 
  54:Middlewares/LVGL/GUI/lvgl/src/misc/../draw/../misc/lv_mem.h **** /**********************
  55:Middlewares/LVGL/GUI/lvgl/src/misc/../draw/../misc/lv_mem.h ****  * GLOBAL PROTOTYPES
  56:Middlewares/LVGL/GUI/lvgl/src/misc/../draw/../misc/lv_mem.h ****  **********************/
  57:Middlewares/LVGL/GUI/lvgl/src/misc/../draw/../misc/lv_mem.h **** 
  58:Middlewares/LVGL/GUI/lvgl/src/misc/../draw/../misc/lv_mem.h **** /**
  59:Middlewares/LVGL/GUI/lvgl/src/misc/../draw/../misc/lv_mem.h ****  * Initialize the dyn_mem module (work memory and other variables)
  60:Middlewares/LVGL/GUI/lvgl/src/misc/../draw/../misc/lv_mem.h ****  */
  61:Middlewares/LVGL/GUI/lvgl/src/misc/../draw/../misc/lv_mem.h **** void lv_mem_init(void);
  62:Middlewares/LVGL/GUI/lvgl/src/misc/../draw/../misc/lv_mem.h **** 
  63:Middlewares/LVGL/GUI/lvgl/src/misc/../draw/../misc/lv_mem.h **** /**
  64:Middlewares/LVGL/GUI/lvgl/src/misc/../draw/../misc/lv_mem.h ****  * Clean up the memory buffer which frees all the allocated memories.
  65:Middlewares/LVGL/GUI/lvgl/src/misc/../draw/../misc/lv_mem.h ****  * @note It work only if `LV_MEM_CUSTOM == 0`
  66:Middlewares/LVGL/GUI/lvgl/src/misc/../draw/../misc/lv_mem.h ****  */
  67:Middlewares/LVGL/GUI/lvgl/src/misc/../draw/../misc/lv_mem.h **** void lv_mem_deinit(void);
  68:Middlewares/LVGL/GUI/lvgl/src/misc/../draw/../misc/lv_mem.h **** 
  69:Middlewares/LVGL/GUI/lvgl/src/misc/../draw/../misc/lv_mem.h **** /**
  70:Middlewares/LVGL/GUI/lvgl/src/misc/../draw/../misc/lv_mem.h ****  * Allocate a memory dynamically
  71:Middlewares/LVGL/GUI/lvgl/src/misc/../draw/../misc/lv_mem.h ****  * @param size size of the memory to allocate in bytes
  72:Middlewares/LVGL/GUI/lvgl/src/misc/../draw/../misc/lv_mem.h ****  * @return pointer to the allocated memory
  73:Middlewares/LVGL/GUI/lvgl/src/misc/../draw/../misc/lv_mem.h ****  */
  74:Middlewares/LVGL/GUI/lvgl/src/misc/../draw/../misc/lv_mem.h **** void * lv_mem_alloc(size_t size);
  75:Middlewares/LVGL/GUI/lvgl/src/misc/../draw/../misc/lv_mem.h **** 
  76:Middlewares/LVGL/GUI/lvgl/src/misc/../draw/../misc/lv_mem.h **** /**
  77:Middlewares/LVGL/GUI/lvgl/src/misc/../draw/../misc/lv_mem.h ****  * Free an allocated data
  78:Middlewares/LVGL/GUI/lvgl/src/misc/../draw/../misc/lv_mem.h ****  * @param data pointer to an allocated memory
ARM GAS  C:\Users\ADMINI~1\AppData\Local\Temp\ccPT3swg.s 			page 18


  79:Middlewares/LVGL/GUI/lvgl/src/misc/../draw/../misc/lv_mem.h ****  */
  80:Middlewares/LVGL/GUI/lvgl/src/misc/../draw/../misc/lv_mem.h **** void lv_mem_free(void * data);
  81:Middlewares/LVGL/GUI/lvgl/src/misc/../draw/../misc/lv_mem.h **** 
  82:Middlewares/LVGL/GUI/lvgl/src/misc/../draw/../misc/lv_mem.h **** /**
  83:Middlewares/LVGL/GUI/lvgl/src/misc/../draw/../misc/lv_mem.h ****  * Reallocate a memory with a new size. The old content will be kept.
  84:Middlewares/LVGL/GUI/lvgl/src/misc/../draw/../misc/lv_mem.h ****  * @param data pointer to an allocated memory.
  85:Middlewares/LVGL/GUI/lvgl/src/misc/../draw/../misc/lv_mem.h ****  * Its content will be copied to the new memory block and freed
  86:Middlewares/LVGL/GUI/lvgl/src/misc/../draw/../misc/lv_mem.h ****  * @param new_size the desired new size in byte
  87:Middlewares/LVGL/GUI/lvgl/src/misc/../draw/../misc/lv_mem.h ****  * @return pointer to the new memory, NULL on failure
  88:Middlewares/LVGL/GUI/lvgl/src/misc/../draw/../misc/lv_mem.h ****  */
  89:Middlewares/LVGL/GUI/lvgl/src/misc/../draw/../misc/lv_mem.h **** void * lv_mem_realloc(void * data_p, size_t new_size);
  90:Middlewares/LVGL/GUI/lvgl/src/misc/../draw/../misc/lv_mem.h **** 
  91:Middlewares/LVGL/GUI/lvgl/src/misc/../draw/../misc/lv_mem.h **** /**
  92:Middlewares/LVGL/GUI/lvgl/src/misc/../draw/../misc/lv_mem.h ****  *
  93:Middlewares/LVGL/GUI/lvgl/src/misc/../draw/../misc/lv_mem.h ****  * @return
  94:Middlewares/LVGL/GUI/lvgl/src/misc/../draw/../misc/lv_mem.h ****  */
  95:Middlewares/LVGL/GUI/lvgl/src/misc/../draw/../misc/lv_mem.h **** lv_res_t lv_mem_test(void);
  96:Middlewares/LVGL/GUI/lvgl/src/misc/../draw/../misc/lv_mem.h **** 
  97:Middlewares/LVGL/GUI/lvgl/src/misc/../draw/../misc/lv_mem.h **** /**
  98:Middlewares/LVGL/GUI/lvgl/src/misc/../draw/../misc/lv_mem.h ****  * Give information about the work memory of dynamic allocation
  99:Middlewares/LVGL/GUI/lvgl/src/misc/../draw/../misc/lv_mem.h ****  * @param mon_p pointer to a lv_mem_monitor_t variable,
 100:Middlewares/LVGL/GUI/lvgl/src/misc/../draw/../misc/lv_mem.h ****  *              the result of the analysis will be stored here
 101:Middlewares/LVGL/GUI/lvgl/src/misc/../draw/../misc/lv_mem.h ****  */
 102:Middlewares/LVGL/GUI/lvgl/src/misc/../draw/../misc/lv_mem.h **** void lv_mem_monitor(lv_mem_monitor_t * mon_p);
 103:Middlewares/LVGL/GUI/lvgl/src/misc/../draw/../misc/lv_mem.h **** 
 104:Middlewares/LVGL/GUI/lvgl/src/misc/../draw/../misc/lv_mem.h **** 
 105:Middlewares/LVGL/GUI/lvgl/src/misc/../draw/../misc/lv_mem.h **** /**
 106:Middlewares/LVGL/GUI/lvgl/src/misc/../draw/../misc/lv_mem.h ****  * Get a temporal buffer with the given size.
 107:Middlewares/LVGL/GUI/lvgl/src/misc/../draw/../misc/lv_mem.h ****  * @param size the required size
 108:Middlewares/LVGL/GUI/lvgl/src/misc/../draw/../misc/lv_mem.h ****  */
 109:Middlewares/LVGL/GUI/lvgl/src/misc/../draw/../misc/lv_mem.h **** void * lv_mem_buf_get(uint32_t size);
 110:Middlewares/LVGL/GUI/lvgl/src/misc/../draw/../misc/lv_mem.h **** 
 111:Middlewares/LVGL/GUI/lvgl/src/misc/../draw/../misc/lv_mem.h **** /**
 112:Middlewares/LVGL/GUI/lvgl/src/misc/../draw/../misc/lv_mem.h ****  * Release a memory buffer
 113:Middlewares/LVGL/GUI/lvgl/src/misc/../draw/../misc/lv_mem.h ****  * @param p buffer to release
 114:Middlewares/LVGL/GUI/lvgl/src/misc/../draw/../misc/lv_mem.h ****  */
 115:Middlewares/LVGL/GUI/lvgl/src/misc/../draw/../misc/lv_mem.h **** void lv_mem_buf_release(void * p);
 116:Middlewares/LVGL/GUI/lvgl/src/misc/../draw/../misc/lv_mem.h **** 
 117:Middlewares/LVGL/GUI/lvgl/src/misc/../draw/../misc/lv_mem.h **** /**
 118:Middlewares/LVGL/GUI/lvgl/src/misc/../draw/../misc/lv_mem.h ****  * Free all memory buffers
 119:Middlewares/LVGL/GUI/lvgl/src/misc/../draw/../misc/lv_mem.h ****  */
 120:Middlewares/LVGL/GUI/lvgl/src/misc/../draw/../misc/lv_mem.h **** void lv_mem_buf_free_all(void);
 121:Middlewares/LVGL/GUI/lvgl/src/misc/../draw/../misc/lv_mem.h **** 
 122:Middlewares/LVGL/GUI/lvgl/src/misc/../draw/../misc/lv_mem.h **** //! @cond Doxygen_Suppress
 123:Middlewares/LVGL/GUI/lvgl/src/misc/../draw/../misc/lv_mem.h **** 
 124:Middlewares/LVGL/GUI/lvgl/src/misc/../draw/../misc/lv_mem.h **** #if LV_MEMCPY_MEMSET_STD
 125:Middlewares/LVGL/GUI/lvgl/src/misc/../draw/../misc/lv_mem.h **** 
 126:Middlewares/LVGL/GUI/lvgl/src/misc/../draw/../misc/lv_mem.h **** /**
 127:Middlewares/LVGL/GUI/lvgl/src/misc/../draw/../misc/lv_mem.h ****  * Wrapper for the standard memcpy
 128:Middlewares/LVGL/GUI/lvgl/src/misc/../draw/../misc/lv_mem.h ****  * @param dst pointer to the destination buffer
 129:Middlewares/LVGL/GUI/lvgl/src/misc/../draw/../misc/lv_mem.h ****  * @param src pointer to the source buffer
 130:Middlewares/LVGL/GUI/lvgl/src/misc/../draw/../misc/lv_mem.h ****  * @param len number of byte to copy
 131:Middlewares/LVGL/GUI/lvgl/src/misc/../draw/../misc/lv_mem.h ****  */
 132:Middlewares/LVGL/GUI/lvgl/src/misc/../draw/../misc/lv_mem.h **** static inline void * lv_memcpy(void * dst, const void * src, size_t len)
 133:Middlewares/LVGL/GUI/lvgl/src/misc/../draw/../misc/lv_mem.h **** {
 134:Middlewares/LVGL/GUI/lvgl/src/misc/../draw/../misc/lv_mem.h ****     return memcpy(dst, src, len);
 135:Middlewares/LVGL/GUI/lvgl/src/misc/../draw/../misc/lv_mem.h **** }
ARM GAS  C:\Users\ADMINI~1\AppData\Local\Temp\ccPT3swg.s 			page 19


 136:Middlewares/LVGL/GUI/lvgl/src/misc/../draw/../misc/lv_mem.h **** 
 137:Middlewares/LVGL/GUI/lvgl/src/misc/../draw/../misc/lv_mem.h **** /**
 138:Middlewares/LVGL/GUI/lvgl/src/misc/../draw/../misc/lv_mem.h ****  * Wrapper for the standard memcpy
 139:Middlewares/LVGL/GUI/lvgl/src/misc/../draw/../misc/lv_mem.h ****  * @param dst pointer to the destination buffer
 140:Middlewares/LVGL/GUI/lvgl/src/misc/../draw/../misc/lv_mem.h ****  * @param src pointer to the source buffer
 141:Middlewares/LVGL/GUI/lvgl/src/misc/../draw/../misc/lv_mem.h ****  * @param len number of byte to copy
 142:Middlewares/LVGL/GUI/lvgl/src/misc/../draw/../misc/lv_mem.h ****  */
 143:Middlewares/LVGL/GUI/lvgl/src/misc/../draw/../misc/lv_mem.h **** static inline void * lv_memcpy_small(void * dst, const void * src, size_t len)
 144:Middlewares/LVGL/GUI/lvgl/src/misc/../draw/../misc/lv_mem.h **** {
 145:Middlewares/LVGL/GUI/lvgl/src/misc/../draw/../misc/lv_mem.h ****     return memcpy(dst, src, len);
 146:Middlewares/LVGL/GUI/lvgl/src/misc/../draw/../misc/lv_mem.h **** }
 147:Middlewares/LVGL/GUI/lvgl/src/misc/../draw/../misc/lv_mem.h **** 
 148:Middlewares/LVGL/GUI/lvgl/src/misc/../draw/../misc/lv_mem.h **** /**
 149:Middlewares/LVGL/GUI/lvgl/src/misc/../draw/../misc/lv_mem.h ****  * Wrapper for the standard memset
 150:Middlewares/LVGL/GUI/lvgl/src/misc/../draw/../misc/lv_mem.h ****  * @param dst pointer to the destination buffer
 151:Middlewares/LVGL/GUI/lvgl/src/misc/../draw/../misc/lv_mem.h ****  * @param v value to set [0..255]
 152:Middlewares/LVGL/GUI/lvgl/src/misc/../draw/../misc/lv_mem.h ****  * @param len number of byte to set
 153:Middlewares/LVGL/GUI/lvgl/src/misc/../draw/../misc/lv_mem.h ****  */
 154:Middlewares/LVGL/GUI/lvgl/src/misc/../draw/../misc/lv_mem.h **** static inline void lv_memset(void * dst, uint8_t v, size_t len)
 155:Middlewares/LVGL/GUI/lvgl/src/misc/../draw/../misc/lv_mem.h **** {
 156:Middlewares/LVGL/GUI/lvgl/src/misc/../draw/../misc/lv_mem.h ****     memset(dst, v, len);
 157:Middlewares/LVGL/GUI/lvgl/src/misc/../draw/../misc/lv_mem.h **** }
 158:Middlewares/LVGL/GUI/lvgl/src/misc/../draw/../misc/lv_mem.h **** 
 159:Middlewares/LVGL/GUI/lvgl/src/misc/../draw/../misc/lv_mem.h **** /**
 160:Middlewares/LVGL/GUI/lvgl/src/misc/../draw/../misc/lv_mem.h ****  * Wrapper for the standard memset with fixed 0x00 value
 161:Middlewares/LVGL/GUI/lvgl/src/misc/../draw/../misc/lv_mem.h ****  * @param dst pointer to the destination buffer
 162:Middlewares/LVGL/GUI/lvgl/src/misc/../draw/../misc/lv_mem.h ****  * @param len number of byte to set
 163:Middlewares/LVGL/GUI/lvgl/src/misc/../draw/../misc/lv_mem.h ****  */
 164:Middlewares/LVGL/GUI/lvgl/src/misc/../draw/../misc/lv_mem.h **** static inline void lv_memset_00(void * dst, size_t len)
 165:Middlewares/LVGL/GUI/lvgl/src/misc/../draw/../misc/lv_mem.h **** {
 166:Middlewares/LVGL/GUI/lvgl/src/misc/../draw/../misc/lv_mem.h ****     memset(dst, 0x00, len);
 167:Middlewares/LVGL/GUI/lvgl/src/misc/../draw/../misc/lv_mem.h **** }
 168:Middlewares/LVGL/GUI/lvgl/src/misc/../draw/../misc/lv_mem.h **** 
 169:Middlewares/LVGL/GUI/lvgl/src/misc/../draw/../misc/lv_mem.h **** /**
 170:Middlewares/LVGL/GUI/lvgl/src/misc/../draw/../misc/lv_mem.h ****  * Wrapper for the standard memset with fixed 0xFF value
 171:Middlewares/LVGL/GUI/lvgl/src/misc/../draw/../misc/lv_mem.h ****  * @param dst pointer to the destination buffer
 172:Middlewares/LVGL/GUI/lvgl/src/misc/../draw/../misc/lv_mem.h ****  * @param len number of byte to set
 173:Middlewares/LVGL/GUI/lvgl/src/misc/../draw/../misc/lv_mem.h ****  */
 174:Middlewares/LVGL/GUI/lvgl/src/misc/../draw/../misc/lv_mem.h **** static inline void lv_memset_ff(void * dst, size_t len)
 175:Middlewares/LVGL/GUI/lvgl/src/misc/../draw/../misc/lv_mem.h **** {
 176:Middlewares/LVGL/GUI/lvgl/src/misc/../draw/../misc/lv_mem.h ****     memset(dst, 0xFF, len);
 177:Middlewares/LVGL/GUI/lvgl/src/misc/../draw/../misc/lv_mem.h **** }
 178:Middlewares/LVGL/GUI/lvgl/src/misc/../draw/../misc/lv_mem.h **** 
 179:Middlewares/LVGL/GUI/lvgl/src/misc/../draw/../misc/lv_mem.h **** #else
 180:Middlewares/LVGL/GUI/lvgl/src/misc/../draw/../misc/lv_mem.h **** /**
 181:Middlewares/LVGL/GUI/lvgl/src/misc/../draw/../misc/lv_mem.h ****  * Same as `memcpy` but optimized for 4 byte operation.
 182:Middlewares/LVGL/GUI/lvgl/src/misc/../draw/../misc/lv_mem.h ****  * @param dst pointer to the destination buffer
 183:Middlewares/LVGL/GUI/lvgl/src/misc/../draw/../misc/lv_mem.h ****  * @param src pointer to the source buffer
 184:Middlewares/LVGL/GUI/lvgl/src/misc/../draw/../misc/lv_mem.h ****  * @param len number of byte to copy
 185:Middlewares/LVGL/GUI/lvgl/src/misc/../draw/../misc/lv_mem.h ****  */
 186:Middlewares/LVGL/GUI/lvgl/src/misc/../draw/../misc/lv_mem.h **** LV_ATTRIBUTE_FAST_MEM void * lv_memcpy(void * dst, const void * src, size_t len);
 187:Middlewares/LVGL/GUI/lvgl/src/misc/../draw/../misc/lv_mem.h **** 
 188:Middlewares/LVGL/GUI/lvgl/src/misc/../draw/../misc/lv_mem.h **** /**
 189:Middlewares/LVGL/GUI/lvgl/src/misc/../draw/../misc/lv_mem.h ****  * Same as `memcpy` but optimized to copy only a few bytes.
 190:Middlewares/LVGL/GUI/lvgl/src/misc/../draw/../misc/lv_mem.h ****  * @param dst pointer to the destination buffer
 191:Middlewares/LVGL/GUI/lvgl/src/misc/../draw/../misc/lv_mem.h ****  * @param src pointer to the source buffer
 192:Middlewares/LVGL/GUI/lvgl/src/misc/../draw/../misc/lv_mem.h ****  * @param len number of byte to copy
ARM GAS  C:\Users\ADMINI~1\AppData\Local\Temp\ccPT3swg.s 			page 20


 193:Middlewares/LVGL/GUI/lvgl/src/misc/../draw/../misc/lv_mem.h ****  */
 194:Middlewares/LVGL/GUI/lvgl/src/misc/../draw/../misc/lv_mem.h **** LV_ATTRIBUTE_FAST_MEM static inline void * lv_memcpy_small(void * dst, const void * src, size_t len
 195:Middlewares/LVGL/GUI/lvgl/src/misc/../draw/../misc/lv_mem.h **** {
 196:Middlewares/LVGL/GUI/lvgl/src/misc/../draw/../misc/lv_mem.h ****     uint8_t * d8 = (uint8_t *)dst;
 197:Middlewares/LVGL/GUI/lvgl/src/misc/../draw/../misc/lv_mem.h ****     const uint8_t * s8 = (const uint8_t *)src;
 198:Middlewares/LVGL/GUI/lvgl/src/misc/../draw/../misc/lv_mem.h **** 
 199:Middlewares/LVGL/GUI/lvgl/src/misc/../draw/../misc/lv_mem.h ****     while(len) {
 200:Middlewares/LVGL/GUI/lvgl/src/misc/../draw/../misc/lv_mem.h ****         *d8 = *s8;
 278              		.loc 2 200 9 is_stmt 1 view .LVU85
 279              		.loc 2 200 15 is_stmt 0 view .LVU86
 280 0010 11F8010B 		ldrb	r0, [r1], #1	@ zero_extendqisi2
 281              	.LVL22:
 282              		.loc 2 200 13 view .LVU87
 283 0014 02F8010B 		strb	r0, [r2], #1
 284              	.LVL23:
 201:Middlewares/LVGL/GUI/lvgl/src/misc/../draw/../misc/lv_mem.h ****         d8++;
 285              		.loc 2 201 9 is_stmt 1 view .LVU88
 202:Middlewares/LVGL/GUI/lvgl/src/misc/../draw/../misc/lv_mem.h ****         s8++;
 286              		.loc 2 202 9 view .LVU89
 203:Middlewares/LVGL/GUI/lvgl/src/misc/../draw/../misc/lv_mem.h ****         len--;
 287              		.loc 2 203 9 view .LVU90
 288              		.loc 2 203 12 is_stmt 0 view .LVU91
 289 0018 013B     		subs	r3, r3, #1
 290              	.LVL24:
 291              	.L18:
 199:Middlewares/LVGL/GUI/lvgl/src/misc/../draw/../misc/lv_mem.h ****         *d8 = *s8;
 292              		.loc 2 199 10 is_stmt 1 view .LVU92
 293 001a 002B     		cmp	r3, #0
 294 001c F8D1     		bne	.L20
 204:Middlewares/LVGL/GUI/lvgl/src/misc/../draw/../misc/lv_mem.h ****     }
 205:Middlewares/LVGL/GUI/lvgl/src/misc/../draw/../misc/lv_mem.h **** 
 206:Middlewares/LVGL/GUI/lvgl/src/misc/../draw/../misc/lv_mem.h ****     return dst;
 295              		.loc 2 206 5 view .LVU93
 296              	.LVL25:
 297              		.loc 2 206 5 is_stmt 0 view .LVU94
 298              	.LBE14:
 299              	.LBE13:
 567:Middlewares/LVGL/GUI/lvgl/src/misc/lv_txt.c ****         uint8_t i;
 300              		.loc 1 567 9 is_stmt 1 view .LVU95
 567:Middlewares/LVGL/GUI/lvgl/src/misc/lv_txt.c ****         uint8_t i;
 301              		.loc 1 567 22 is_stmt 0 view .LVU96
 302 001e 9DF80C30 		ldrb	r3, [sp, #12]	@ zero_extendqisi2
 567:Middlewares/LVGL/GUI/lvgl/src/misc/lv_txt.c ****         uint8_t i;
 303              		.loc 1 567 38 view .LVU97
 304 0022 9DF80D20 		ldrb	r2, [sp, #13]	@ zero_extendqisi2
 567:Middlewares/LVGL/GUI/lvgl/src/misc/lv_txt.c ****         uint8_t i;
 305              		.loc 1 567 42 view .LVU98
 306 0026 1204     		lsls	r2, r2, #16
 567:Middlewares/LVGL/GUI/lvgl/src/misc/lv_txt.c ****         uint8_t i;
 307              		.loc 1 567 33 view .LVU99
 308 0028 02EB0362 		add	r2, r2, r3, lsl #24
 567:Middlewares/LVGL/GUI/lvgl/src/misc/lv_txt.c ****         uint8_t i;
 309              		.loc 1 567 54 view .LVU100
 310 002c 9DF80E30 		ldrb	r3, [sp, #14]	@ zero_extendqisi2
 567:Middlewares/LVGL/GUI/lvgl/src/misc/lv_txt.c ****         uint8_t i;
 311              		.loc 1 567 49 view .LVU101
 312 0030 02EB0322 		add	r2, r2, r3, lsl #8
ARM GAS  C:\Users\ADMINI~1\AppData\Local\Temp\ccPT3swg.s 			page 21


 567:Middlewares/LVGL/GUI/lvgl/src/misc/lv_txt.c ****         uint8_t i;
 313              		.loc 1 567 69 view .LVU102
 314 0034 9DF80F30 		ldrb	r3, [sp, #15]	@ zero_extendqisi2
 567:Middlewares/LVGL/GUI/lvgl/src/misc/lv_txt.c ****         uint8_t i;
 315              		.loc 1 567 64 view .LVU103
 316 0038 1A44     		add	r2, r2, r3
 317              	.LVL26:
 568:Middlewares/LVGL/GUI/lvgl/src/misc/lv_txt.c ****         for(i = 0; i < 4; i++) {
 318              		.loc 1 568 9 is_stmt 1 view .LVU104
 569:Middlewares/LVGL/GUI/lvgl/src/misc/lv_txt.c ****             if((swapped & 0xFF) == 0)
 319              		.loc 1 569 9 view .LVU105
 569:Middlewares/LVGL/GUI/lvgl/src/misc/lv_txt.c ****             if((swapped & 0xFF) == 0)
 320              		.loc 1 569 15 is_stmt 0 view .LVU106
 321 003a 0023     		movs	r3, #0
 569:Middlewares/LVGL/GUI/lvgl/src/misc/lv_txt.c ****             if((swapped & 0xFF) == 0)
 322              		.loc 1 569 9 view .LVU107
 323 003c 05E0     		b	.L21
 324              	.LVL27:
 325              	.L24:
 326              	.LBB16:
 327              	.LBB15:
 197:Middlewares/LVGL/GUI/lvgl/src/misc/../draw/../misc/lv_mem.h **** 
 328              		.loc 2 197 21 view .LVU108
 329 003e 01A9     		add	r1, sp, #4
 196:Middlewares/LVGL/GUI/lvgl/src/misc/../draw/../misc/lv_mem.h ****     const uint8_t * s8 = (const uint8_t *)src;
 330              		.loc 2 196 15 view .LVU109
 331 0040 03AA     		add	r2, sp, #12
 332              	.LBE15:
 333              	.LBE16:
 334              	.LBE12:
 335 0042 0423     		movs	r3, #4
 336 0044 E9E7     		b	.L18
 337              	.LVL28:
 338              	.L22:
 339              	.LBB17:
 569:Middlewares/LVGL/GUI/lvgl/src/misc/lv_txt.c ****             if((swapped & 0xFF) == 0)
 340              		.loc 1 569 27 is_stmt 1 discriminator 2 view .LVU110
 569:Middlewares/LVGL/GUI/lvgl/src/misc/lv_txt.c ****             if((swapped & 0xFF) == 0)
 341              		.loc 1 569 28 is_stmt 0 discriminator 2 view .LVU111
 342 0046 0133     		adds	r3, r3, #1
 343              	.LVL29:
 569:Middlewares/LVGL/GUI/lvgl/src/misc/lv_txt.c ****             if((swapped & 0xFF) == 0)
 344              		.loc 1 569 28 discriminator 2 view .LVU112
 345 0048 DBB2     		uxtb	r3, r3
 346              	.LVL30:
 347              	.L21:
 569:Middlewares/LVGL/GUI/lvgl/src/misc/lv_txt.c ****             if((swapped & 0xFF) == 0)
 348              		.loc 1 569 20 is_stmt 1 discriminator 1 view .LVU113
 569:Middlewares/LVGL/GUI/lvgl/src/misc/lv_txt.c ****             if((swapped & 0xFF) == 0)
 349              		.loc 1 569 9 is_stmt 0 discriminator 1 view .LVU114
 350 004a 032B     		cmp	r3, #3
 351 004c 04D8     		bhi	.L26
 570:Middlewares/LVGL/GUI/lvgl/src/misc/lv_txt.c ****                 swapped = (swapped >> 8); /*Ignore leading zeros (they were in the end originally)*
 352              		.loc 1 570 13 is_stmt 1 view .LVU115
 570:Middlewares/LVGL/GUI/lvgl/src/misc/lv_txt.c ****                 swapped = (swapped >> 8); /*Ignore leading zeros (they were in the end originally)*
 353              		.loc 1 570 15 is_stmt 0 view .LVU116
 354 004e 12F0FF0F 		tst	r2, #255
ARM GAS  C:\Users\ADMINI~1\AppData\Local\Temp\ccPT3swg.s 			page 22


 355 0052 F8D1     		bne	.L22
 571:Middlewares/LVGL/GUI/lvgl/src/misc/lv_txt.c ****         }
 356              		.loc 1 571 17 is_stmt 1 view .LVU117
 571:Middlewares/LVGL/GUI/lvgl/src/misc/lv_txt.c ****         }
 357              		.loc 1 571 25 is_stmt 0 view .LVU118
 358 0054 120A     		lsrs	r2, r2, #8
 359              	.LVL31:
 571:Middlewares/LVGL/GUI/lvgl/src/misc/lv_txt.c ****         }
 360              		.loc 1 571 25 view .LVU119
 361 0056 F6E7     		b	.L22
 362              	.L26:
 573:Middlewares/LVGL/GUI/lvgl/src/misc/lv_txt.c ****     }
 363              		.loc 1 573 9 is_stmt 1 view .LVU120
 573:Middlewares/LVGL/GUI/lvgl/src/misc/lv_txt.c ****     }
 364              		.loc 1 573 11 is_stmt 0 view .LVU121
 365 0058 0192     		str	r2, [sp, #4]
 366 005a D6E7     		b	.L19
 367              	.LBE17:
 368              		.cfi_endproc
 369              	.LFE64:
 371              		.section	.text.lv_txt_utf8_next,"ax",%progbits
 372              		.align	1
 373              		.syntax unified
 374              		.thumb
 375              		.thumb_func
 377              	lv_txt_utf8_next:
 378              	.LVL32:
 379              	.LFB65:
 578:Middlewares/LVGL/GUI/lvgl/src/misc/lv_txt.c **** 
 579:Middlewares/LVGL/GUI/lvgl/src/misc/lv_txt.c **** /**
 580:Middlewares/LVGL/GUI/lvgl/src/misc/lv_txt.c ****  * Decode an UTF-8 character from a string.
 581:Middlewares/LVGL/GUI/lvgl/src/misc/lv_txt.c ****  * @param txt pointer to '\0' terminated string
 582:Middlewares/LVGL/GUI/lvgl/src/misc/lv_txt.c ****  * @param i start byte index in 'txt' where to start.
 583:Middlewares/LVGL/GUI/lvgl/src/misc/lv_txt.c ****  *          After call it will point to the next UTF-8 char in 'txt'.
 584:Middlewares/LVGL/GUI/lvgl/src/misc/lv_txt.c ****  *          NULL to use txt[0] as index
 585:Middlewares/LVGL/GUI/lvgl/src/misc/lv_txt.c ****  * @return the decoded Unicode character or 0 on invalid UTF-8 code
 586:Middlewares/LVGL/GUI/lvgl/src/misc/lv_txt.c ****  */
 587:Middlewares/LVGL/GUI/lvgl/src/misc/lv_txt.c **** static uint32_t lv_txt_utf8_next(const char * txt, uint32_t * i)
 588:Middlewares/LVGL/GUI/lvgl/src/misc/lv_txt.c **** {
 380              		.loc 1 588 1 is_stmt 1 view -0
 381              		.cfi_startproc
 382              		@ args = 0, pretend = 0, frame = 8
 383              		@ frame_needed = 0, uses_anonymous_args = 0
 384              		.loc 1 588 1 is_stmt 0 view .LVU123
 385 0000 00B5     		push	{lr}
 386              	.LCFI7:
 387              		.cfi_def_cfa_offset 4
 388              		.cfi_offset 14, -4
 389 0002 83B0     		sub	sp, sp, #12
 390              	.LCFI8:
 391              		.cfi_def_cfa_offset 16
 392 0004 8646     		mov	lr, r0
 589:Middlewares/LVGL/GUI/lvgl/src/misc/lv_txt.c ****     /**
 590:Middlewares/LVGL/GUI/lvgl/src/misc/lv_txt.c ****      * Unicode to UTF-8
 591:Middlewares/LVGL/GUI/lvgl/src/misc/lv_txt.c ****      * 00000000 00000000 00000000 0xxxxxxx -> 0xxxxxxx
 592:Middlewares/LVGL/GUI/lvgl/src/misc/lv_txt.c ****      * 00000000 00000000 00000yyy yyxxxxxx -> 110yyyyy 10xxxxxx
 593:Middlewares/LVGL/GUI/lvgl/src/misc/lv_txt.c ****      * 00000000 00000000 zzzzyyyy yyxxxxxx -> 1110zzzz 10yyyyyy 10xxxxxx
ARM GAS  C:\Users\ADMINI~1\AppData\Local\Temp\ccPT3swg.s 			page 23


 594:Middlewares/LVGL/GUI/lvgl/src/misc/lv_txt.c ****      * 00000000 000wwwzz zzzzyyyy yyxxxxxx -> 11110www 10zzzzzz 10yyyyyy 10xxxxxx
 595:Middlewares/LVGL/GUI/lvgl/src/misc/lv_txt.c ****      */
 596:Middlewares/LVGL/GUI/lvgl/src/misc/lv_txt.c **** 
 597:Middlewares/LVGL/GUI/lvgl/src/misc/lv_txt.c ****     uint32_t result = 0;
 393              		.loc 1 597 5 is_stmt 1 view .LVU124
 394              	.LVL33:
 598:Middlewares/LVGL/GUI/lvgl/src/misc/lv_txt.c **** 
 599:Middlewares/LVGL/GUI/lvgl/src/misc/lv_txt.c ****     /*Dummy 'i' pointer is required*/
 600:Middlewares/LVGL/GUI/lvgl/src/misc/lv_txt.c ****     uint32_t i_tmp = 0;
 395              		.loc 1 600 5 view .LVU125
 396              		.loc 1 600 14 is_stmt 0 view .LVU126
 397 0006 0023     		movs	r3, #0
 398 0008 0193     		str	r3, [sp, #4]
 601:Middlewares/LVGL/GUI/lvgl/src/misc/lv_txt.c ****     if(i == NULL) i = &i_tmp;
 399              		.loc 1 601 5 is_stmt 1 view .LVU127
 400              		.loc 1 601 7 is_stmt 0 view .LVU128
 401 000a 8C46     		mov	ip, r1
 402 000c 69B1     		cbz	r1, .L42
 403              	.L28:
 404              	.LVL34:
 602:Middlewares/LVGL/GUI/lvgl/src/misc/lv_txt.c **** 
 603:Middlewares/LVGL/GUI/lvgl/src/misc/lv_txt.c ****     /*Normal ASCII*/
 604:Middlewares/LVGL/GUI/lvgl/src/misc/lv_txt.c ****     if(LV_IS_ASCII(txt[*i])) {
 405              		.loc 1 604 5 is_stmt 1 view .LVU129
 406              		.loc 1 604 8 is_stmt 0 view .LVU130
 407 000e DCF80030 		ldr	r3, [ip]
 408 0012 1EF80300 		ldrb	r0, [lr, r3]	@ zero_extendqisi2
 409              	.LVL35:
 410              		.loc 1 604 8 view .LVU131
 411 0016 1EF90320 		ldrsb	r2, [lr, r3]
 412              		.loc 1 604 7 view .LVU132
 413 001a 002A     		cmp	r2, #0
 414 001c 08DB     		blt	.L29
 605:Middlewares/LVGL/GUI/lvgl/src/misc/lv_txt.c ****         result = txt[*i];
 415              		.loc 1 605 9 is_stmt 1 view .LVU133
 416              	.LVL36:
 606:Middlewares/LVGL/GUI/lvgl/src/misc/lv_txt.c ****         (*i)++;
 417              		.loc 1 606 9 view .LVU134
 418              		.loc 1 606 13 is_stmt 0 view .LVU135
 419 001e 0133     		adds	r3, r3, #1
 420 0020 CCF80030 		str	r3, [ip]
 421              	.LVL37:
 422              	.L27:
 607:Middlewares/LVGL/GUI/lvgl/src/misc/lv_txt.c ****     }
 608:Middlewares/LVGL/GUI/lvgl/src/misc/lv_txt.c ****     /*Real UTF-8 decode*/
 609:Middlewares/LVGL/GUI/lvgl/src/misc/lv_txt.c ****     else {
 610:Middlewares/LVGL/GUI/lvgl/src/misc/lv_txt.c ****         /*2 bytes UTF-8 code*/
 611:Middlewares/LVGL/GUI/lvgl/src/misc/lv_txt.c ****         if(LV_IS_2BYTES_UTF8_CODE(txt[*i])) {
 612:Middlewares/LVGL/GUI/lvgl/src/misc/lv_txt.c ****             result = (uint32_t)(txt[*i] & 0x1F) << 6;
 613:Middlewares/LVGL/GUI/lvgl/src/misc/lv_txt.c ****             (*i)++;
 614:Middlewares/LVGL/GUI/lvgl/src/misc/lv_txt.c ****             if(LV_IS_INVALID_UTF8_CODE(txt[*i])) return 0;
 615:Middlewares/LVGL/GUI/lvgl/src/misc/lv_txt.c ****             result += (txt[*i] & 0x3F);
 616:Middlewares/LVGL/GUI/lvgl/src/misc/lv_txt.c ****             (*i)++;
 617:Middlewares/LVGL/GUI/lvgl/src/misc/lv_txt.c ****         }
 618:Middlewares/LVGL/GUI/lvgl/src/misc/lv_txt.c ****         /*3 bytes UTF-8 code*/
 619:Middlewares/LVGL/GUI/lvgl/src/misc/lv_txt.c ****         else if(LV_IS_3BYTES_UTF8_CODE(txt[*i])) {
 620:Middlewares/LVGL/GUI/lvgl/src/misc/lv_txt.c ****             result = (uint32_t)(txt[*i] & 0x0F) << 12;
ARM GAS  C:\Users\ADMINI~1\AppData\Local\Temp\ccPT3swg.s 			page 24


 621:Middlewares/LVGL/GUI/lvgl/src/misc/lv_txt.c ****             (*i)++;
 622:Middlewares/LVGL/GUI/lvgl/src/misc/lv_txt.c **** 
 623:Middlewares/LVGL/GUI/lvgl/src/misc/lv_txt.c ****             if(LV_IS_INVALID_UTF8_CODE(txt[*i])) return 0;
 624:Middlewares/LVGL/GUI/lvgl/src/misc/lv_txt.c ****             result += (uint32_t)(txt[*i] & 0x3F) << 6;
 625:Middlewares/LVGL/GUI/lvgl/src/misc/lv_txt.c ****             (*i)++;
 626:Middlewares/LVGL/GUI/lvgl/src/misc/lv_txt.c **** 
 627:Middlewares/LVGL/GUI/lvgl/src/misc/lv_txt.c ****             if(LV_IS_INVALID_UTF8_CODE(txt[*i])) return 0;
 628:Middlewares/LVGL/GUI/lvgl/src/misc/lv_txt.c ****             result += (txt[*i] & 0x3F);
 629:Middlewares/LVGL/GUI/lvgl/src/misc/lv_txt.c ****             (*i)++;
 630:Middlewares/LVGL/GUI/lvgl/src/misc/lv_txt.c ****         }
 631:Middlewares/LVGL/GUI/lvgl/src/misc/lv_txt.c ****         /*4 bytes UTF-8 code*/
 632:Middlewares/LVGL/GUI/lvgl/src/misc/lv_txt.c ****         else if(LV_IS_4BYTES_UTF8_CODE(txt[*i])) {
 633:Middlewares/LVGL/GUI/lvgl/src/misc/lv_txt.c ****             result = (uint32_t)(txt[*i] & 0x07) << 18;
 634:Middlewares/LVGL/GUI/lvgl/src/misc/lv_txt.c ****             (*i)++;
 635:Middlewares/LVGL/GUI/lvgl/src/misc/lv_txt.c **** 
 636:Middlewares/LVGL/GUI/lvgl/src/misc/lv_txt.c ****             if(LV_IS_INVALID_UTF8_CODE(txt[*i])) return 0;
 637:Middlewares/LVGL/GUI/lvgl/src/misc/lv_txt.c ****             result += (uint32_t)(txt[*i] & 0x3F) << 12;
 638:Middlewares/LVGL/GUI/lvgl/src/misc/lv_txt.c ****             (*i)++;
 639:Middlewares/LVGL/GUI/lvgl/src/misc/lv_txt.c **** 
 640:Middlewares/LVGL/GUI/lvgl/src/misc/lv_txt.c ****             if(LV_IS_INVALID_UTF8_CODE(txt[*i])) return 0;
 641:Middlewares/LVGL/GUI/lvgl/src/misc/lv_txt.c ****             result += (uint32_t)(txt[*i] & 0x3F) << 6;
 642:Middlewares/LVGL/GUI/lvgl/src/misc/lv_txt.c ****             (*i)++;
 643:Middlewares/LVGL/GUI/lvgl/src/misc/lv_txt.c **** 
 644:Middlewares/LVGL/GUI/lvgl/src/misc/lv_txt.c ****             if(LV_IS_INVALID_UTF8_CODE(txt[*i])) return 0;
 645:Middlewares/LVGL/GUI/lvgl/src/misc/lv_txt.c ****             result += txt[*i] & 0x3F;
 646:Middlewares/LVGL/GUI/lvgl/src/misc/lv_txt.c ****             (*i)++;
 647:Middlewares/LVGL/GUI/lvgl/src/misc/lv_txt.c ****         }
 648:Middlewares/LVGL/GUI/lvgl/src/misc/lv_txt.c ****         else {
 649:Middlewares/LVGL/GUI/lvgl/src/misc/lv_txt.c ****             (*i)++; /*Not UTF-8 char. Go the next.*/
 650:Middlewares/LVGL/GUI/lvgl/src/misc/lv_txt.c ****         }
 651:Middlewares/LVGL/GUI/lvgl/src/misc/lv_txt.c ****     }
 652:Middlewares/LVGL/GUI/lvgl/src/misc/lv_txt.c ****     return result;
 653:Middlewares/LVGL/GUI/lvgl/src/misc/lv_txt.c **** }
 423              		.loc 1 653 1 view .LVU136
 424 0024 03B0     		add	sp, sp, #12
 425              	.LCFI9:
 426              		.cfi_remember_state
 427              		.cfi_def_cfa_offset 4
 428              		@ sp needed
 429 0026 5DF804FB 		ldr	pc, [sp], #4
 430              	.LVL38:
 431              	.L42:
 432              	.LCFI10:
 433              		.cfi_restore_state
 601:Middlewares/LVGL/GUI/lvgl/src/misc/lv_txt.c **** 
 434              		.loc 1 601 21 view .LVU137
 435 002a 0DF1040C 		add	ip, sp, #4
 436 002e EEE7     		b	.L28
 437              	.LVL39:
 438              	.L29:
 611:Middlewares/LVGL/GUI/lvgl/src/misc/lv_txt.c ****             result = (uint32_t)(txt[*i] & 0x1F) << 6;
 439              		.loc 1 611 9 is_stmt 1 view .LVU138
 611:Middlewares/LVGL/GUI/lvgl/src/misc/lv_txt.c ****             result = (uint32_t)(txt[*i] & 0x1F) << 6;
 440              		.loc 1 611 11 is_stmt 0 view .LVU139
 441 0030 00F0E002 		and	r2, r0, #224
 442 0034 C02A     		cmp	r2, #192
 443 0036 0CD0     		beq	.L43
ARM GAS  C:\Users\ADMINI~1\AppData\Local\Temp\ccPT3swg.s 			page 25


 619:Middlewares/LVGL/GUI/lvgl/src/misc/lv_txt.c ****             result = (uint32_t)(txt[*i] & 0x0F) << 12;
 444              		.loc 1 619 14 is_stmt 1 view .LVU140
 619:Middlewares/LVGL/GUI/lvgl/src/misc/lv_txt.c ****             result = (uint32_t)(txt[*i] & 0x0F) << 12;
 445              		.loc 1 619 16 is_stmt 0 view .LVU141
 446 0038 00F0F002 		and	r2, r0, #240
 447 003c E02A     		cmp	r2, #224
 448 003e 1BD0     		beq	.L44
 632:Middlewares/LVGL/GUI/lvgl/src/misc/lv_txt.c ****             result = (uint32_t)(txt[*i] & 0x07) << 18;
 449              		.loc 1 632 14 is_stmt 1 view .LVU142
 632:Middlewares/LVGL/GUI/lvgl/src/misc/lv_txt.c ****             result = (uint32_t)(txt[*i] & 0x07) << 18;
 450              		.loc 1 632 16 is_stmt 0 view .LVU143
 451 0040 00F0F802 		and	r2, r0, #248
 452 0044 F02A     		cmp	r2, #240
 453 0046 36D0     		beq	.L45
 649:Middlewares/LVGL/GUI/lvgl/src/misc/lv_txt.c ****         }
 454              		.loc 1 649 13 is_stmt 1 view .LVU144
 649:Middlewares/LVGL/GUI/lvgl/src/misc/lv_txt.c ****         }
 455              		.loc 1 649 17 is_stmt 0 view .LVU145
 456 0048 0133     		adds	r3, r3, #1
 457 004a CCF80030 		str	r3, [ip]
 597:Middlewares/LVGL/GUI/lvgl/src/misc/lv_txt.c **** 
 458              		.loc 1 597 14 view .LVU146
 459 004e 0020     		movs	r0, #0
 460 0050 E8E7     		b	.L27
 461              	.L43:
 612:Middlewares/LVGL/GUI/lvgl/src/misc/lv_txt.c ****             (*i)++;
 462              		.loc 1 612 13 is_stmt 1 view .LVU147
 612:Middlewares/LVGL/GUI/lvgl/src/misc/lv_txt.c ****             (*i)++;
 463              		.loc 1 612 49 is_stmt 0 view .LVU148
 464 0052 8201     		lsls	r2, r0, #6
 612:Middlewares/LVGL/GUI/lvgl/src/misc/lv_txt.c ****             (*i)++;
 465              		.loc 1 612 20 view .LVU149
 466 0054 02F4F862 		and	r2, r2, #1984
 467              	.LVL40:
 613:Middlewares/LVGL/GUI/lvgl/src/misc/lv_txt.c ****             if(LV_IS_INVALID_UTF8_CODE(txt[*i])) return 0;
 468              		.loc 1 613 13 is_stmt 1 view .LVU150
 613:Middlewares/LVGL/GUI/lvgl/src/misc/lv_txt.c ****             if(LV_IS_INVALID_UTF8_CODE(txt[*i])) return 0;
 469              		.loc 1 613 17 is_stmt 0 view .LVU151
 470 0058 0133     		adds	r3, r3, #1
 471 005a CCF80030 		str	r3, [ip]
 614:Middlewares/LVGL/GUI/lvgl/src/misc/lv_txt.c ****             result += (txt[*i] & 0x3F);
 472              		.loc 1 614 13 is_stmt 1 view .LVU152
 614:Middlewares/LVGL/GUI/lvgl/src/misc/lv_txt.c ****             result += (txt[*i] & 0x3F);
 473              		.loc 1 614 16 is_stmt 0 view .LVU153
 474 005e 1EF80300 		ldrb	r0, [lr, r3]	@ zero_extendqisi2
 614:Middlewares/LVGL/GUI/lvgl/src/misc/lv_txt.c ****             result += (txt[*i] & 0x3F);
 475              		.loc 1 614 15 view .LVU154
 476 0062 00F0C001 		and	r1, r0, #192
 477 0066 8029     		cmp	r1, #128
 478 0068 52D1     		bne	.L35
 615:Middlewares/LVGL/GUI/lvgl/src/misc/lv_txt.c ****             (*i)++;
 479              		.loc 1 615 13 is_stmt 1 view .LVU155
 615:Middlewares/LVGL/GUI/lvgl/src/misc/lv_txt.c ****             (*i)++;
 480              		.loc 1 615 32 is_stmt 0 view .LVU156
 481 006a 00F03F00 		and	r0, r0, #63
 615:Middlewares/LVGL/GUI/lvgl/src/misc/lv_txt.c ****             (*i)++;
 482              		.loc 1 615 20 view .LVU157
ARM GAS  C:\Users\ADMINI~1\AppData\Local\Temp\ccPT3swg.s 			page 26


 483 006e 1044     		add	r0, r0, r2
 484              	.LVL41:
 616:Middlewares/LVGL/GUI/lvgl/src/misc/lv_txt.c ****         }
 485              		.loc 1 616 13 is_stmt 1 view .LVU158
 616:Middlewares/LVGL/GUI/lvgl/src/misc/lv_txt.c ****         }
 486              		.loc 1 616 17 is_stmt 0 view .LVU159
 487 0070 0133     		adds	r3, r3, #1
 488 0072 CCF80030 		str	r3, [ip]
 489 0076 D5E7     		b	.L27
 490              	.LVL42:
 491              	.L44:
 620:Middlewares/LVGL/GUI/lvgl/src/misc/lv_txt.c ****             (*i)++;
 492              		.loc 1 620 13 is_stmt 1 view .LVU160
 620:Middlewares/LVGL/GUI/lvgl/src/misc/lv_txt.c ****             (*i)++;
 493              		.loc 1 620 49 is_stmt 0 view .LVU161
 494 0078 0203     		lsls	r2, r0, #12
 620:Middlewares/LVGL/GUI/lvgl/src/misc/lv_txt.c ****             (*i)++;
 495              		.loc 1 620 20 view .LVU162
 496 007a 92B2     		uxth	r2, r2
 497              	.LVL43:
 621:Middlewares/LVGL/GUI/lvgl/src/misc/lv_txt.c **** 
 498              		.loc 1 621 13 is_stmt 1 view .LVU163
 621:Middlewares/LVGL/GUI/lvgl/src/misc/lv_txt.c **** 
 499              		.loc 1 621 17 is_stmt 0 view .LVU164
 500 007c 0133     		adds	r3, r3, #1
 501 007e CCF80030 		str	r3, [ip]
 623:Middlewares/LVGL/GUI/lvgl/src/misc/lv_txt.c ****             result += (uint32_t)(txt[*i] & 0x3F) << 6;
 502              		.loc 1 623 13 is_stmt 1 view .LVU165
 623:Middlewares/LVGL/GUI/lvgl/src/misc/lv_txt.c ****             result += (uint32_t)(txt[*i] & 0x3F) << 6;
 503              		.loc 1 623 16 is_stmt 0 view .LVU166
 504 0082 1EF80310 		ldrb	r1, [lr, r3]	@ zero_extendqisi2
 623:Middlewares/LVGL/GUI/lvgl/src/misc/lv_txt.c ****             result += (uint32_t)(txt[*i] & 0x3F) << 6;
 505              		.loc 1 623 15 view .LVU167
 506 0086 01F0C000 		and	r0, r1, #192
 507 008a 8028     		cmp	r0, #128
 508 008c 42D1     		bne	.L36
 624:Middlewares/LVGL/GUI/lvgl/src/misc/lv_txt.c ****             (*i)++;
 509              		.loc 1 624 13 is_stmt 1 view .LVU168
 624:Middlewares/LVGL/GUI/lvgl/src/misc/lv_txt.c ****             (*i)++;
 510              		.loc 1 624 50 is_stmt 0 view .LVU169
 511 008e 8901     		lsls	r1, r1, #6
 512 0090 01F47C60 		and	r0, r1, #4032
 624:Middlewares/LVGL/GUI/lvgl/src/misc/lv_txt.c ****             (*i)++;
 513              		.loc 1 624 20 view .LVU170
 514 0094 0244     		add	r2, r2, r0
 515              	.LVL44:
 625:Middlewares/LVGL/GUI/lvgl/src/misc/lv_txt.c **** 
 516              		.loc 1 625 13 is_stmt 1 view .LVU171
 625:Middlewares/LVGL/GUI/lvgl/src/misc/lv_txt.c **** 
 517              		.loc 1 625 17 is_stmt 0 view .LVU172
 518 0096 0133     		adds	r3, r3, #1
 519 0098 CCF80030 		str	r3, [ip]
 627:Middlewares/LVGL/GUI/lvgl/src/misc/lv_txt.c ****             result += (txt[*i] & 0x3F);
 520              		.loc 1 627 13 is_stmt 1 view .LVU173
 627:Middlewares/LVGL/GUI/lvgl/src/misc/lv_txt.c ****             result += (txt[*i] & 0x3F);
 521              		.loc 1 627 16 is_stmt 0 view .LVU174
 522 009c 1EF80310 		ldrb	r1, [lr, r3]	@ zero_extendqisi2
ARM GAS  C:\Users\ADMINI~1\AppData\Local\Temp\ccPT3swg.s 			page 27


 627:Middlewares/LVGL/GUI/lvgl/src/misc/lv_txt.c ****             result += (txt[*i] & 0x3F);
 523              		.loc 1 627 15 view .LVU175
 524 00a0 01F0C000 		and	r0, r1, #192
 525 00a4 8028     		cmp	r0, #128
 526 00a6 37D1     		bne	.L37
 628:Middlewares/LVGL/GUI/lvgl/src/misc/lv_txt.c ****             (*i)++;
 527              		.loc 1 628 13 is_stmt 1 view .LVU176
 628:Middlewares/LVGL/GUI/lvgl/src/misc/lv_txt.c ****             (*i)++;
 528              		.loc 1 628 32 is_stmt 0 view .LVU177
 529 00a8 01F03F00 		and	r0, r1, #63
 628:Middlewares/LVGL/GUI/lvgl/src/misc/lv_txt.c ****             (*i)++;
 530              		.loc 1 628 20 view .LVU178
 531 00ac 1044     		add	r0, r0, r2
 532              	.LVL45:
 629:Middlewares/LVGL/GUI/lvgl/src/misc/lv_txt.c ****         }
 533              		.loc 1 629 13 is_stmt 1 view .LVU179
 629:Middlewares/LVGL/GUI/lvgl/src/misc/lv_txt.c ****         }
 534              		.loc 1 629 17 is_stmt 0 view .LVU180
 535 00ae 0133     		adds	r3, r3, #1
 536 00b0 CCF80030 		str	r3, [ip]
 537 00b4 B6E7     		b	.L27
 538              	.LVL46:
 539              	.L45:
 633:Middlewares/LVGL/GUI/lvgl/src/misc/lv_txt.c ****             (*i)++;
 540              		.loc 1 633 13 is_stmt 1 view .LVU181
 633:Middlewares/LVGL/GUI/lvgl/src/misc/lv_txt.c ****             (*i)++;
 541              		.loc 1 633 49 is_stmt 0 view .LVU182
 542 00b6 8204     		lsls	r2, r0, #18
 633:Middlewares/LVGL/GUI/lvgl/src/misc/lv_txt.c ****             (*i)++;
 543              		.loc 1 633 20 view .LVU183
 544 00b8 02F4E012 		and	r2, r2, #1835008
 545              	.LVL47:
 634:Middlewares/LVGL/GUI/lvgl/src/misc/lv_txt.c **** 
 546              		.loc 1 634 13 is_stmt 1 view .LVU184
 634:Middlewares/LVGL/GUI/lvgl/src/misc/lv_txt.c **** 
 547              		.loc 1 634 17 is_stmt 0 view .LVU185
 548 00bc 0133     		adds	r3, r3, #1
 549 00be CCF80030 		str	r3, [ip]
 636:Middlewares/LVGL/GUI/lvgl/src/misc/lv_txt.c ****             result += (uint32_t)(txt[*i] & 0x3F) << 12;
 550              		.loc 1 636 13 is_stmt 1 view .LVU186
 636:Middlewares/LVGL/GUI/lvgl/src/misc/lv_txt.c ****             result += (uint32_t)(txt[*i] & 0x3F) << 12;
 551              		.loc 1 636 16 is_stmt 0 view .LVU187
 552 00c2 1EF80310 		ldrb	r1, [lr, r3]	@ zero_extendqisi2
 636:Middlewares/LVGL/GUI/lvgl/src/misc/lv_txt.c ****             result += (uint32_t)(txt[*i] & 0x3F) << 12;
 553              		.loc 1 636 15 view .LVU188
 554 00c6 01F0C000 		and	r0, r1, #192
 555 00ca 8028     		cmp	r0, #128
 556 00cc 26D1     		bne	.L38
 637:Middlewares/LVGL/GUI/lvgl/src/misc/lv_txt.c ****             (*i)++;
 557              		.loc 1 637 13 is_stmt 1 view .LVU189
 637:Middlewares/LVGL/GUI/lvgl/src/misc/lv_txt.c ****             (*i)++;
 558              		.loc 1 637 50 is_stmt 0 view .LVU190
 559 00ce 0903     		lsls	r1, r1, #12
 560 00d0 01F47C31 		and	r1, r1, #258048
 637:Middlewares/LVGL/GUI/lvgl/src/misc/lv_txt.c ****             (*i)++;
 561              		.loc 1 637 20 view .LVU191
 562 00d4 0A43     		orrs	r2, r2, r1
ARM GAS  C:\Users\ADMINI~1\AppData\Local\Temp\ccPT3swg.s 			page 28


 563              	.LVL48:
 638:Middlewares/LVGL/GUI/lvgl/src/misc/lv_txt.c **** 
 564              		.loc 1 638 13 is_stmt 1 view .LVU192
 638:Middlewares/LVGL/GUI/lvgl/src/misc/lv_txt.c **** 
 565              		.loc 1 638 17 is_stmt 0 view .LVU193
 566 00d6 0133     		adds	r3, r3, #1
 567 00d8 CCF80030 		str	r3, [ip]
 640:Middlewares/LVGL/GUI/lvgl/src/misc/lv_txt.c ****             result += (uint32_t)(txt[*i] & 0x3F) << 6;
 568              		.loc 1 640 13 is_stmt 1 view .LVU194
 640:Middlewares/LVGL/GUI/lvgl/src/misc/lv_txt.c ****             result += (uint32_t)(txt[*i] & 0x3F) << 6;
 569              		.loc 1 640 16 is_stmt 0 view .LVU195
 570 00dc 1EF80310 		ldrb	r1, [lr, r3]	@ zero_extendqisi2
 640:Middlewares/LVGL/GUI/lvgl/src/misc/lv_txt.c ****             result += (uint32_t)(txt[*i] & 0x3F) << 6;
 571              		.loc 1 640 15 view .LVU196
 572 00e0 01F0C000 		and	r0, r1, #192
 573 00e4 8028     		cmp	r0, #128
 574 00e6 1BD1     		bne	.L39
 641:Middlewares/LVGL/GUI/lvgl/src/misc/lv_txt.c ****             (*i)++;
 575              		.loc 1 641 13 is_stmt 1 view .LVU197
 641:Middlewares/LVGL/GUI/lvgl/src/misc/lv_txt.c ****             (*i)++;
 576              		.loc 1 641 50 is_stmt 0 view .LVU198
 577 00e8 8901     		lsls	r1, r1, #6
 578 00ea 01F47C61 		and	r1, r1, #4032
 641:Middlewares/LVGL/GUI/lvgl/src/misc/lv_txt.c ****             (*i)++;
 579              		.loc 1 641 20 view .LVU199
 580 00ee 1144     		add	r1, r1, r2
 581              	.LVL49:
 642:Middlewares/LVGL/GUI/lvgl/src/misc/lv_txt.c **** 
 582              		.loc 1 642 13 is_stmt 1 view .LVU200
 642:Middlewares/LVGL/GUI/lvgl/src/misc/lv_txt.c **** 
 583              		.loc 1 642 17 is_stmt 0 view .LVU201
 584 00f0 5A1C     		adds	r2, r3, #1
 585 00f2 CCF80020 		str	r2, [ip]
 644:Middlewares/LVGL/GUI/lvgl/src/misc/lv_txt.c ****             result += txt[*i] & 0x3F;
 586              		.loc 1 644 13 is_stmt 1 view .LVU202
 644:Middlewares/LVGL/GUI/lvgl/src/misc/lv_txt.c ****             result += txt[*i] & 0x3F;
 587              		.loc 1 644 16 is_stmt 0 view .LVU203
 588 00f6 1EF80230 		ldrb	r3, [lr, r2]	@ zero_extendqisi2
 644:Middlewares/LVGL/GUI/lvgl/src/misc/lv_txt.c ****             result += txt[*i] & 0x3F;
 589              		.loc 1 644 15 view .LVU204
 590 00fa 03F0C000 		and	r0, r3, #192
 591 00fe 8028     		cmp	r0, #128
 592 0100 10D1     		bne	.L40
 645:Middlewares/LVGL/GUI/lvgl/src/misc/lv_txt.c ****             (*i)++;
 593              		.loc 1 645 13 is_stmt 1 view .LVU205
 645:Middlewares/LVGL/GUI/lvgl/src/misc/lv_txt.c ****             (*i)++;
 594              		.loc 1 645 31 is_stmt 0 view .LVU206
 595 0102 03F03F00 		and	r0, r3, #63
 645:Middlewares/LVGL/GUI/lvgl/src/misc/lv_txt.c ****             (*i)++;
 596              		.loc 1 645 20 view .LVU207
 597 0106 0844     		add	r0, r0, r1
 598              	.LVL50:
 646:Middlewares/LVGL/GUI/lvgl/src/misc/lv_txt.c ****         }
 599              		.loc 1 646 13 is_stmt 1 view .LVU208
 646:Middlewares/LVGL/GUI/lvgl/src/misc/lv_txt.c ****         }
 600              		.loc 1 646 17 is_stmt 0 view .LVU209
 601 0108 0132     		adds	r2, r2, #1
ARM GAS  C:\Users\ADMINI~1\AppData\Local\Temp\ccPT3swg.s 			page 29


 602 010a CCF80020 		str	r2, [ip]
 603 010e 89E7     		b	.L27
 604              	.LVL51:
 605              	.L35:
 614:Middlewares/LVGL/GUI/lvgl/src/misc/lv_txt.c ****             result += (txt[*i] & 0x3F);
 606              		.loc 1 614 57 view .LVU210
 607 0110 0020     		movs	r0, #0
 608 0112 87E7     		b	.L27
 609              	.L36:
 623:Middlewares/LVGL/GUI/lvgl/src/misc/lv_txt.c ****             result += (uint32_t)(txt[*i] & 0x3F) << 6;
 610              		.loc 1 623 57 view .LVU211
 611 0114 0020     		movs	r0, #0
 612 0116 85E7     		b	.L27
 613              	.L37:
 627:Middlewares/LVGL/GUI/lvgl/src/misc/lv_txt.c ****             result += (txt[*i] & 0x3F);
 614              		.loc 1 627 57 view .LVU212
 615 0118 0020     		movs	r0, #0
 616 011a 83E7     		b	.L27
 617              	.L38:
 636:Middlewares/LVGL/GUI/lvgl/src/misc/lv_txt.c ****             result += (uint32_t)(txt[*i] & 0x3F) << 12;
 618              		.loc 1 636 57 view .LVU213
 619 011c 0020     		movs	r0, #0
 620 011e 81E7     		b	.L27
 621              	.L39:
 640:Middlewares/LVGL/GUI/lvgl/src/misc/lv_txt.c ****             result += (uint32_t)(txt[*i] & 0x3F) << 6;
 622              		.loc 1 640 57 view .LVU214
 623 0120 0020     		movs	r0, #0
 624 0122 7FE7     		b	.L27
 625              	.LVL52:
 626              	.L40:
 644:Middlewares/LVGL/GUI/lvgl/src/misc/lv_txt.c ****             result += txt[*i] & 0x3F;
 627              		.loc 1 644 57 view .LVU215
 628 0124 0020     		movs	r0, #0
 629              	.LVL53:
 644:Middlewares/LVGL/GUI/lvgl/src/misc/lv_txt.c ****             result += txt[*i] & 0x3F;
 630              		.loc 1 644 57 view .LVU216
 631 0126 7DE7     		b	.L27
 632              		.cfi_endproc
 633              	.LFE65:
 635              		.section	.text.lv_txt_utf8_prev,"ax",%progbits
 636              		.align	1
 637              		.syntax unified
 638              		.thumb
 639              		.thumb_func
 641              	lv_txt_utf8_prev:
 642              	.LVL54:
 643              	.LFB66:
 654:Middlewares/LVGL/GUI/lvgl/src/misc/lv_txt.c **** 
 655:Middlewares/LVGL/GUI/lvgl/src/misc/lv_txt.c **** /**
 656:Middlewares/LVGL/GUI/lvgl/src/misc/lv_txt.c ****  * Get previous UTF-8 character form a string.
 657:Middlewares/LVGL/GUI/lvgl/src/misc/lv_txt.c ****  * @param txt pointer to '\0' terminated string
 658:Middlewares/LVGL/GUI/lvgl/src/misc/lv_txt.c ****  * @param i start byte index in 'txt' where to start. After the call it will point to the previous
 659:Middlewares/LVGL/GUI/lvgl/src/misc/lv_txt.c ****  * UTF-8 char in 'txt'.
 660:Middlewares/LVGL/GUI/lvgl/src/misc/lv_txt.c ****  * @return the decoded Unicode character or 0 on invalid UTF-8 code
 661:Middlewares/LVGL/GUI/lvgl/src/misc/lv_txt.c ****  */
 662:Middlewares/LVGL/GUI/lvgl/src/misc/lv_txt.c **** static uint32_t lv_txt_utf8_prev(const char * txt, uint32_t * i)
 663:Middlewares/LVGL/GUI/lvgl/src/misc/lv_txt.c **** {
ARM GAS  C:\Users\ADMINI~1\AppData\Local\Temp\ccPT3swg.s 			page 30


 644              		.loc 1 663 1 is_stmt 1 view -0
 645              		.cfi_startproc
 646              		@ args = 0, pretend = 0, frame = 8
 647              		@ frame_needed = 0, uses_anonymous_args = 0
 648              		.loc 1 663 1 is_stmt 0 view .LVU218
 649 0000 70B5     		push	{r4, r5, r6, lr}
 650              	.LCFI11:
 651              		.cfi_def_cfa_offset 16
 652              		.cfi_offset 4, -16
 653              		.cfi_offset 5, -12
 654              		.cfi_offset 6, -8
 655              		.cfi_offset 14, -4
 656 0002 82B0     		sub	sp, sp, #8
 657              	.LCFI12:
 658              		.cfi_def_cfa_offset 24
 659 0004 0646     		mov	r6, r0
 660 0006 0D46     		mov	r5, r1
 664:Middlewares/LVGL/GUI/lvgl/src/misc/lv_txt.c ****     uint8_t c_size;
 661              		.loc 1 664 5 is_stmt 1 view .LVU219
 665:Middlewares/LVGL/GUI/lvgl/src/misc/lv_txt.c ****     uint8_t cnt = 0;
 662              		.loc 1 665 5 view .LVU220
 663              	.LVL55:
 666:Middlewares/LVGL/GUI/lvgl/src/misc/lv_txt.c **** 
 667:Middlewares/LVGL/GUI/lvgl/src/misc/lv_txt.c ****     /*Try to find a !0 long UTF-8 char by stepping one character back*/
 668:Middlewares/LVGL/GUI/lvgl/src/misc/lv_txt.c ****     (*i)--;
 664              		.loc 1 668 5 view .LVU221
 665              		.loc 1 668 6 is_stmt 0 view .LVU222
 666 0008 0B68     		ldr	r3, [r1]
 667              		.loc 1 668 9 view .LVU223
 668 000a 013B     		subs	r3, r3, #1
 669 000c 0B60     		str	r3, [r1]
 665:Middlewares/LVGL/GUI/lvgl/src/misc/lv_txt.c ****     uint8_t cnt = 0;
 670              		.loc 1 665 13 view .LVU224
 671 000e 0024     		movs	r4, #0
 672 0010 04E0     		b	.L49
 673              	.LVL56:
 674              	.L53:
 669:Middlewares/LVGL/GUI/lvgl/src/misc/lv_txt.c ****     do {
 670:Middlewares/LVGL/GUI/lvgl/src/misc/lv_txt.c ****         if(cnt >= 4) return 0; /*No UTF-8 char found before the initial*/
 671:Middlewares/LVGL/GUI/lvgl/src/misc/lv_txt.c **** 
 672:Middlewares/LVGL/GUI/lvgl/src/misc/lv_txt.c ****         c_size = _lv_txt_encoded_size(&txt[*i]);
 673:Middlewares/LVGL/GUI/lvgl/src/misc/lv_txt.c ****         if(c_size == 0) {
 674:Middlewares/LVGL/GUI/lvgl/src/misc/lv_txt.c ****             if(*i != 0)
 675:Middlewares/LVGL/GUI/lvgl/src/misc/lv_txt.c ****                 (*i)--;
 675              		.loc 1 675 17 is_stmt 1 view .LVU225
 676              		.loc 1 675 21 is_stmt 0 view .LVU226
 677 0012 0138     		subs	r0, r0, #1
 678 0014 2860     		str	r0, [r5]
 679              	.L48:
 676:Middlewares/LVGL/GUI/lvgl/src/misc/lv_txt.c ****             else
 677:Middlewares/LVGL/GUI/lvgl/src/misc/lv_txt.c ****                 return 0;
 678:Middlewares/LVGL/GUI/lvgl/src/misc/lv_txt.c ****         }
 679:Middlewares/LVGL/GUI/lvgl/src/misc/lv_txt.c ****         cnt++;
 680              		.loc 1 679 9 is_stmt 1 view .LVU227
 681              		.loc 1 679 12 is_stmt 0 view .LVU228
 682 0016 0134     		adds	r4, r4, #1
 683              	.LVL57:
ARM GAS  C:\Users\ADMINI~1\AppData\Local\Temp\ccPT3swg.s 			page 31


 684              		.loc 1 679 12 view .LVU229
 685 0018 E4B2     		uxtb	r4, r4
 686              	.LVL58:
 680:Middlewares/LVGL/GUI/lvgl/src/misc/lv_txt.c ****     } while(c_size == 0);
 687              		.loc 1 680 12 is_stmt 1 view .LVU230
 688              		.loc 1 680 5 is_stmt 0 view .LVU231
 689 001a 6BB9     		cbnz	r3, .L52
 690              	.LVL59:
 691              	.L49:
 669:Middlewares/LVGL/GUI/lvgl/src/misc/lv_txt.c ****     do {
 692              		.loc 1 669 5 is_stmt 1 view .LVU232
 670:Middlewares/LVGL/GUI/lvgl/src/misc/lv_txt.c **** 
 693              		.loc 1 670 9 view .LVU233
 670:Middlewares/LVGL/GUI/lvgl/src/misc/lv_txt.c **** 
 694              		.loc 1 670 11 is_stmt 0 view .LVU234
 695 001c 032C     		cmp	r4, #3
 696 001e 13D8     		bhi	.L50
 672:Middlewares/LVGL/GUI/lvgl/src/misc/lv_txt.c ****         if(c_size == 0) {
 697              		.loc 1 672 9 is_stmt 1 view .LVU235
 672:Middlewares/LVGL/GUI/lvgl/src/misc/lv_txt.c ****         if(c_size == 0) {
 698              		.loc 1 672 44 is_stmt 0 view .LVU236
 699 0020 2868     		ldr	r0, [r5]
 672:Middlewares/LVGL/GUI/lvgl/src/misc/lv_txt.c ****         if(c_size == 0) {
 700              		.loc 1 672 18 view .LVU237
 701 0022 0B4B     		ldr	r3, .L54
 702 0024 1B68     		ldr	r3, [r3]
 703 0026 3044     		add	r0, r0, r6
 704 0028 9847     		blx	r3
 705              	.LVL60:
 673:Middlewares/LVGL/GUI/lvgl/src/misc/lv_txt.c ****             if(*i != 0)
 706              		.loc 1 673 9 is_stmt 1 view .LVU238
 673:Middlewares/LVGL/GUI/lvgl/src/misc/lv_txt.c ****             if(*i != 0)
 707              		.loc 1 673 11 is_stmt 0 view .LVU239
 708 002a 0346     		mov	r3, r0
 709 002c 0028     		cmp	r0, #0
 710 002e F2D1     		bne	.L48
 674:Middlewares/LVGL/GUI/lvgl/src/misc/lv_txt.c ****                 (*i)--;
 711              		.loc 1 674 13 is_stmt 1 view .LVU240
 674:Middlewares/LVGL/GUI/lvgl/src/misc/lv_txt.c ****                 (*i)--;
 712              		.loc 1 674 16 is_stmt 0 view .LVU241
 713 0030 2868     		ldr	r0, [r5]
 714              	.LVL61:
 674:Middlewares/LVGL/GUI/lvgl/src/misc/lv_txt.c ****                 (*i)--;
 715              		.loc 1 674 15 view .LVU242
 716 0032 0028     		cmp	r0, #0
 717 0034 EDD1     		bne	.L53
 718 0036 08E0     		b	.L46
 719              	.L52:
 681:Middlewares/LVGL/GUI/lvgl/src/misc/lv_txt.c **** 
 682:Middlewares/LVGL/GUI/lvgl/src/misc/lv_txt.c ****     uint32_t i_tmp  = *i;
 720              		.loc 1 682 5 is_stmt 1 view .LVU243
 721              		.loc 1 682 23 is_stmt 0 view .LVU244
 722 0038 2B68     		ldr	r3, [r5]
 723              		.loc 1 682 14 view .LVU245
 724 003a 0193     		str	r3, [sp, #4]
 683:Middlewares/LVGL/GUI/lvgl/src/misc/lv_txt.c ****     uint32_t letter = _lv_txt_encoded_next(txt, &i_tmp); /*Character found, get it*/
 725              		.loc 1 683 5 is_stmt 1 view .LVU246
ARM GAS  C:\Users\ADMINI~1\AppData\Local\Temp\ccPT3swg.s 			page 32


 726              		.loc 1 683 23 is_stmt 0 view .LVU247
 727 003c 054B     		ldr	r3, .L54+4
 728 003e 1B68     		ldr	r3, [r3]
 729 0040 01A9     		add	r1, sp, #4
 730 0042 3046     		mov	r0, r6
 731 0044 9847     		blx	r3
 732              	.LVL62:
 684:Middlewares/LVGL/GUI/lvgl/src/misc/lv_txt.c **** 
 685:Middlewares/LVGL/GUI/lvgl/src/misc/lv_txt.c ****     return letter;
 733              		.loc 1 685 5 is_stmt 1 view .LVU248
 734              		.loc 1 685 12 is_stmt 0 view .LVU249
 735 0046 00E0     		b	.L46
 736              	.LVL63:
 737              	.L50:
 670:Middlewares/LVGL/GUI/lvgl/src/misc/lv_txt.c **** 
 738              		.loc 1 670 29 view .LVU250
 739 0048 0020     		movs	r0, #0
 740              	.L46:
 686:Middlewares/LVGL/GUI/lvgl/src/misc/lv_txt.c **** }
 741              		.loc 1 686 1 view .LVU251
 742 004a 02B0     		add	sp, sp, #8
 743              	.LCFI13:
 744              		.cfi_def_cfa_offset 16
 745              		@ sp needed
 746 004c 70BD     		pop	{r4, r5, r6, pc}
 747              	.LVL64:
 748              	.L55:
 749              		.loc 1 686 1 view .LVU252
 750 004e 00BF     		.align	2
 751              	.L54:
 752 0050 00000000 		.word	.LANCHOR0
 753 0054 00000000 		.word	.LANCHOR1
 754              		.cfi_endproc
 755              	.LFE66:
 757              		.section	.text.lv_txt_utf8_get_byte_id,"ax",%progbits
 758              		.align	1
 759              		.syntax unified
 760              		.thumb
 761              		.thumb_func
 763              	lv_txt_utf8_get_byte_id:
 764              	.LVL65:
 765              	.LFB67:
 687:Middlewares/LVGL/GUI/lvgl/src/misc/lv_txt.c **** 
 688:Middlewares/LVGL/GUI/lvgl/src/misc/lv_txt.c **** /**
 689:Middlewares/LVGL/GUI/lvgl/src/misc/lv_txt.c ****  * Convert a character index (in an UTF-8 text) to byte index.
 690:Middlewares/LVGL/GUI/lvgl/src/misc/lv_txt.c ****  * E.g. in "ART" index of 'R' is 2th char but start at byte 3 because '' is 2 bytes long
 691:Middlewares/LVGL/GUI/lvgl/src/misc/lv_txt.c ****  * @param txt a '\0' terminated UTF-8 string
 692:Middlewares/LVGL/GUI/lvgl/src/misc/lv_txt.c ****  * @param utf8_id character index
 693:Middlewares/LVGL/GUI/lvgl/src/misc/lv_txt.c ****  * @return byte index of the 'utf8_id'th letter
 694:Middlewares/LVGL/GUI/lvgl/src/misc/lv_txt.c ****  */
 695:Middlewares/LVGL/GUI/lvgl/src/misc/lv_txt.c **** static uint32_t lv_txt_utf8_get_byte_id(const char * txt, uint32_t utf8_id)
 696:Middlewares/LVGL/GUI/lvgl/src/misc/lv_txt.c **** {
 766              		.loc 1 696 1 is_stmt 1 view -0
 767              		.cfi_startproc
 768              		@ args = 0, pretend = 0, frame = 0
 769              		@ frame_needed = 0, uses_anonymous_args = 0
 770              		.loc 1 696 1 is_stmt 0 view .LVU254
ARM GAS  C:\Users\ADMINI~1\AppData\Local\Temp\ccPT3swg.s 			page 33


 771 0000 F8B5     		push	{r3, r4, r5, r6, r7, lr}
 772              	.LCFI14:
 773              		.cfi_def_cfa_offset 24
 774              		.cfi_offset 3, -24
 775              		.cfi_offset 4, -20
 776              		.cfi_offset 5, -16
 777              		.cfi_offset 6, -12
 778              		.cfi_offset 7, -8
 779              		.cfi_offset 14, -4
 780 0002 0646     		mov	r6, r0
 781 0004 0F46     		mov	r7, r1
 697:Middlewares/LVGL/GUI/lvgl/src/misc/lv_txt.c ****     uint32_t i;
 782              		.loc 1 697 5 is_stmt 1 view .LVU255
 698:Middlewares/LVGL/GUI/lvgl/src/misc/lv_txt.c ****     uint32_t byte_cnt = 0;
 783              		.loc 1 698 5 view .LVU256
 784              	.LVL66:
 699:Middlewares/LVGL/GUI/lvgl/src/misc/lv_txt.c ****     for(i = 0; i < utf8_id && txt[byte_cnt] != '\0'; i++) {
 785              		.loc 1 699 5 view .LVU257
 698:Middlewares/LVGL/GUI/lvgl/src/misc/lv_txt.c ****     uint32_t byte_cnt = 0;
 786              		.loc 1 698 14 is_stmt 0 view .LVU258
 787 0006 0024     		movs	r4, #0
 788              		.loc 1 699 11 view .LVU259
 789 0008 2546     		mov	r5, r4
 790              		.loc 1 699 5 view .LVU260
 791 000a 01E0     		b	.L57
 792              	.LVL67:
 793              	.L58:
 794              	.LBB18:
 700:Middlewares/LVGL/GUI/lvgl/src/misc/lv_txt.c ****         uint8_t c_size = _lv_txt_encoded_size(&txt[byte_cnt]);
 701:Middlewares/LVGL/GUI/lvgl/src/misc/lv_txt.c ****         /* If the char was invalid tell it's 1 byte long*/
 702:Middlewares/LVGL/GUI/lvgl/src/misc/lv_txt.c ****         byte_cnt += c_size ? c_size : 1;
 795              		.loc 1 702 18 discriminator 4 view .LVU261
 796 000c 1C44     		add	r4, r4, r3
 797              	.LVL68:
 798              		.loc 1 702 18 discriminator 4 view .LVU262
 799              	.LBE18:
 699:Middlewares/LVGL/GUI/lvgl/src/misc/lv_txt.c ****     for(i = 0; i < utf8_id && txt[byte_cnt] != '\0'; i++) {
 800              		.loc 1 699 54 is_stmt 1 discriminator 4 view .LVU263
 699:Middlewares/LVGL/GUI/lvgl/src/misc/lv_txt.c ****     for(i = 0; i < utf8_id && txt[byte_cnt] != '\0'; i++) {
 801              		.loc 1 699 55 is_stmt 0 discriminator 4 view .LVU264
 802 000e 0135     		adds	r5, r5, #1
 803              	.LVL69:
 804              	.L57:
 699:Middlewares/LVGL/GUI/lvgl/src/misc/lv_txt.c ****     for(i = 0; i < utf8_id && txt[byte_cnt] != '\0'; i++) {
 805              		.loc 1 699 16 is_stmt 1 discriminator 2 view .LVU265
 699:Middlewares/LVGL/GUI/lvgl/src/misc/lv_txt.c ****     for(i = 0; i < utf8_id && txt[byte_cnt] != '\0'; i++) {
 806              		.loc 1 699 5 is_stmt 0 discriminator 2 view .LVU266
 807 0010 BD42     		cmp	r5, r7
 808 0012 0AD2     		bcs	.L56
 699:Middlewares/LVGL/GUI/lvgl/src/misc/lv_txt.c ****     for(i = 0; i < utf8_id && txt[byte_cnt] != '\0'; i++) {
 809              		.loc 1 699 34 discriminator 3 view .LVU267
 810 0014 3019     		adds	r0, r6, r4
 811 0016 335D     		ldrb	r3, [r6, r4]	@ zero_extendqisi2
 699:Middlewares/LVGL/GUI/lvgl/src/misc/lv_txt.c ****     for(i = 0; i < utf8_id && txt[byte_cnt] != '\0'; i++) {
 812              		.loc 1 699 28 discriminator 3 view .LVU268
 813 0018 3BB1     		cbz	r3, .L56
 814              	.LBB19:
ARM GAS  C:\Users\ADMINI~1\AppData\Local\Temp\ccPT3swg.s 			page 34


 700:Middlewares/LVGL/GUI/lvgl/src/misc/lv_txt.c ****         uint8_t c_size = _lv_txt_encoded_size(&txt[byte_cnt]);
 815              		.loc 1 700 9 is_stmt 1 view .LVU269
 700:Middlewares/LVGL/GUI/lvgl/src/misc/lv_txt.c ****         uint8_t c_size = _lv_txt_encoded_size(&txt[byte_cnt]);
 816              		.loc 1 700 26 is_stmt 0 view .LVU270
 817 001a 054B     		ldr	r3, .L63
 818 001c 1B68     		ldr	r3, [r3]
 819 001e 9847     		blx	r3
 820              	.LVL70:
 821              		.loc 1 702 9 is_stmt 1 view .LVU271
 822              		.loc 1 702 37 is_stmt 0 view .LVU272
 823 0020 0346     		mov	r3, r0
 824 0022 0028     		cmp	r0, #0
 825 0024 F2D1     		bne	.L58
 826 0026 0123     		movs	r3, #1
 827 0028 F0E7     		b	.L58
 828              	.LVL71:
 829              	.L56:
 830              		.loc 1 702 37 view .LVU273
 831              	.LBE19:
 703:Middlewares/LVGL/GUI/lvgl/src/misc/lv_txt.c ****     }
 704:Middlewares/LVGL/GUI/lvgl/src/misc/lv_txt.c **** 
 705:Middlewares/LVGL/GUI/lvgl/src/misc/lv_txt.c ****     return byte_cnt;
 706:Middlewares/LVGL/GUI/lvgl/src/misc/lv_txt.c **** }
 832              		.loc 1 706 1 view .LVU274
 833 002a 2046     		mov	r0, r4
 834 002c F8BD     		pop	{r3, r4, r5, r6, r7, pc}
 835              	.LVL72:
 836              	.L64:
 837              		.loc 1 706 1 view .LVU275
 838 002e 00BF     		.align	2
 839              	.L63:
 840 0030 00000000 		.word	.LANCHOR0
 841              		.cfi_endproc
 842              	.LFE67:
 844              		.section	.text.lv_txt_utf8_get_char_id,"ax",%progbits
 845              		.align	1
 846              		.syntax unified
 847              		.thumb
 848              		.thumb_func
 850              	lv_txt_utf8_get_char_id:
 851              	.LVL73:
 852              	.LFB68:
 707:Middlewares/LVGL/GUI/lvgl/src/misc/lv_txt.c **** 
 708:Middlewares/LVGL/GUI/lvgl/src/misc/lv_txt.c **** /**
 709:Middlewares/LVGL/GUI/lvgl/src/misc/lv_txt.c ****  * Convert a byte index (in an UTF-8 text) to character index.
 710:Middlewares/LVGL/GUI/lvgl/src/misc/lv_txt.c ****  * E.g. in "ART" index of 'R' is 2th char but start at byte 3 because '' is 2 bytes long
 711:Middlewares/LVGL/GUI/lvgl/src/misc/lv_txt.c ****  * @param txt a '\0' terminated UTF-8 string
 712:Middlewares/LVGL/GUI/lvgl/src/misc/lv_txt.c ****  * @param byte_id byte index
 713:Middlewares/LVGL/GUI/lvgl/src/misc/lv_txt.c ****  * @return character index of the letter at 'byte_id'th position
 714:Middlewares/LVGL/GUI/lvgl/src/misc/lv_txt.c ****  */
 715:Middlewares/LVGL/GUI/lvgl/src/misc/lv_txt.c **** static uint32_t lv_txt_utf8_get_char_id(const char * txt, uint32_t byte_id)
 716:Middlewares/LVGL/GUI/lvgl/src/misc/lv_txt.c **** {
 853              		.loc 1 716 1 is_stmt 1 view -0
 854              		.cfi_startproc
 855              		@ args = 0, pretend = 0, frame = 8
 856              		@ frame_needed = 0, uses_anonymous_args = 0
 857              		.loc 1 716 1 is_stmt 0 view .LVU277
ARM GAS  C:\Users\ADMINI~1\AppData\Local\Temp\ccPT3swg.s 			page 35


 858 0000 70B5     		push	{r4, r5, r6, lr}
 859              	.LCFI15:
 860              		.cfi_def_cfa_offset 16
 861              		.cfi_offset 4, -16
 862              		.cfi_offset 5, -12
 863              		.cfi_offset 6, -8
 864              		.cfi_offset 14, -4
 865 0002 82B0     		sub	sp, sp, #8
 866              	.LCFI16:
 867              		.cfi_def_cfa_offset 24
 868 0004 0646     		mov	r6, r0
 869 0006 0D46     		mov	r5, r1
 717:Middlewares/LVGL/GUI/lvgl/src/misc/lv_txt.c ****     uint32_t i        = 0;
 870              		.loc 1 717 5 is_stmt 1 view .LVU278
 871              		.loc 1 717 14 is_stmt 0 view .LVU279
 872 0008 0024     		movs	r4, #0
 873 000a 0194     		str	r4, [sp, #4]
 718:Middlewares/LVGL/GUI/lvgl/src/misc/lv_txt.c ****     uint32_t char_cnt = 0;
 874              		.loc 1 718 5 is_stmt 1 view .LVU280
 875              	.LVL74:
 719:Middlewares/LVGL/GUI/lvgl/src/misc/lv_txt.c **** 
 720:Middlewares/LVGL/GUI/lvgl/src/misc/lv_txt.c ****     while(i < byte_id) {
 876              		.loc 1 720 5 view .LVU281
 877              		.loc 1 720 10 is_stmt 0 view .LVU282
 878 000c 05E0     		b	.L66
 879              	.LVL75:
 880              	.L67:
 721:Middlewares/LVGL/GUI/lvgl/src/misc/lv_txt.c ****         _lv_txt_encoded_next(txt, &i); /*'i' points to the next letter so use the prev. value*/
 881              		.loc 1 721 9 is_stmt 1 view .LVU283
 882 000e 064B     		ldr	r3, .L69
 883 0010 1B68     		ldr	r3, [r3]
 884 0012 01A9     		add	r1, sp, #4
 885 0014 3046     		mov	r0, r6
 886 0016 9847     		blx	r3
 887              	.LVL76:
 722:Middlewares/LVGL/GUI/lvgl/src/misc/lv_txt.c ****         char_cnt++;
 888              		.loc 1 722 9 view .LVU284
 889              		.loc 1 722 17 is_stmt 0 view .LVU285
 890 0018 0134     		adds	r4, r4, #1
 891              	.LVL77:
 892              	.L66:
 720:Middlewares/LVGL/GUI/lvgl/src/misc/lv_txt.c ****         _lv_txt_encoded_next(txt, &i); /*'i' points to the next letter so use the prev. value*/
 893              		.loc 1 720 10 is_stmt 1 view .LVU286
 720:Middlewares/LVGL/GUI/lvgl/src/misc/lv_txt.c ****         _lv_txt_encoded_next(txt, &i); /*'i' points to the next letter so use the prev. value*/
 894              		.loc 1 720 13 is_stmt 0 view .LVU287
 895 001a 019B     		ldr	r3, [sp, #4]
 720:Middlewares/LVGL/GUI/lvgl/src/misc/lv_txt.c ****         _lv_txt_encoded_next(txt, &i); /*'i' points to the next letter so use the prev. value*/
 896              		.loc 1 720 10 view .LVU288
 897 001c AB42     		cmp	r3, r5
 898 001e F6D3     		bcc	.L67
 723:Middlewares/LVGL/GUI/lvgl/src/misc/lv_txt.c ****     }
 724:Middlewares/LVGL/GUI/lvgl/src/misc/lv_txt.c **** 
 725:Middlewares/LVGL/GUI/lvgl/src/misc/lv_txt.c ****     return char_cnt;
 899              		.loc 1 725 5 is_stmt 1 view .LVU289
 726:Middlewares/LVGL/GUI/lvgl/src/misc/lv_txt.c **** }
 900              		.loc 1 726 1 is_stmt 0 view .LVU290
 901 0020 2046     		mov	r0, r4
ARM GAS  C:\Users\ADMINI~1\AppData\Local\Temp\ccPT3swg.s 			page 36


 902 0022 02B0     		add	sp, sp, #8
 903              	.LCFI17:
 904              		.cfi_def_cfa_offset 16
 905              		@ sp needed
 906 0024 70BD     		pop	{r4, r5, r6, pc}
 907              	.LVL78:
 908              	.L70:
 909              		.loc 1 726 1 view .LVU291
 910 0026 00BF     		.align	2
 911              	.L69:
 912 0028 00000000 		.word	.LANCHOR1
 913              		.cfi_endproc
 914              	.LFE68:
 916              		.section	.text.lv_txt_utf8_get_length,"ax",%progbits
 917              		.align	1
 918              		.syntax unified
 919              		.thumb
 920              		.thumb_func
 922              	lv_txt_utf8_get_length:
 923              	.LVL79:
 924              	.LFB69:
 727:Middlewares/LVGL/GUI/lvgl/src/misc/lv_txt.c **** 
 728:Middlewares/LVGL/GUI/lvgl/src/misc/lv_txt.c **** /**
 729:Middlewares/LVGL/GUI/lvgl/src/misc/lv_txt.c ****  * Get the number of characters (and NOT bytes) in a string. Decode it with UTF-8 if enabled.
 730:Middlewares/LVGL/GUI/lvgl/src/misc/lv_txt.c ****  * E.g.: "BC" is 3 characters (but 4 bytes)
 731:Middlewares/LVGL/GUI/lvgl/src/misc/lv_txt.c ****  * @param txt a '\0' terminated char string
 732:Middlewares/LVGL/GUI/lvgl/src/misc/lv_txt.c ****  * @return number of characters
 733:Middlewares/LVGL/GUI/lvgl/src/misc/lv_txt.c ****  */
 734:Middlewares/LVGL/GUI/lvgl/src/misc/lv_txt.c **** static uint32_t lv_txt_utf8_get_length(const char * txt)
 735:Middlewares/LVGL/GUI/lvgl/src/misc/lv_txt.c **** {
 925              		.loc 1 735 1 is_stmt 1 view -0
 926              		.cfi_startproc
 927              		@ args = 0, pretend = 0, frame = 8
 928              		@ frame_needed = 0, uses_anonymous_args = 0
 929              		.loc 1 735 1 is_stmt 0 view .LVU293
 930 0000 30B5     		push	{r4, r5, lr}
 931              	.LCFI18:
 932              		.cfi_def_cfa_offset 12
 933              		.cfi_offset 4, -12
 934              		.cfi_offset 5, -8
 935              		.cfi_offset 14, -4
 936 0002 83B0     		sub	sp, sp, #12
 937              	.LCFI19:
 938              		.cfi_def_cfa_offset 24
 939 0004 0546     		mov	r5, r0
 736:Middlewares/LVGL/GUI/lvgl/src/misc/lv_txt.c ****     uint32_t len = 0;
 940              		.loc 1 736 5 is_stmt 1 view .LVU294
 941              	.LVL80:
 737:Middlewares/LVGL/GUI/lvgl/src/misc/lv_txt.c ****     uint32_t i   = 0;
 942              		.loc 1 737 5 view .LVU295
 943              		.loc 1 737 14 is_stmt 0 view .LVU296
 944 0006 0024     		movs	r4, #0
 945 0008 0194     		str	r4, [sp, #4]
 738:Middlewares/LVGL/GUI/lvgl/src/misc/lv_txt.c **** 
 739:Middlewares/LVGL/GUI/lvgl/src/misc/lv_txt.c ****     while(txt[i] != '\0') {
 946              		.loc 1 739 5 is_stmt 1 view .LVU297
 947              		.loc 1 739 10 is_stmt 0 view .LVU298
ARM GAS  C:\Users\ADMINI~1\AppData\Local\Temp\ccPT3swg.s 			page 37


 948 000a 05E0     		b	.L72
 949              	.LVL81:
 950              	.L73:
 740:Middlewares/LVGL/GUI/lvgl/src/misc/lv_txt.c ****         _lv_txt_encoded_next(txt, &i);
 951              		.loc 1 740 9 is_stmt 1 view .LVU299
 952 000c 064B     		ldr	r3, .L75
 953 000e 1B68     		ldr	r3, [r3]
 954 0010 01A9     		add	r1, sp, #4
 955 0012 2846     		mov	r0, r5
 956 0014 9847     		blx	r3
 957              	.LVL82:
 741:Middlewares/LVGL/GUI/lvgl/src/misc/lv_txt.c ****         len++;
 958              		.loc 1 741 9 view .LVU300
 959              		.loc 1 741 12 is_stmt 0 view .LVU301
 960 0016 0134     		adds	r4, r4, #1
 961              	.LVL83:
 962              	.L72:
 739:Middlewares/LVGL/GUI/lvgl/src/misc/lv_txt.c ****         _lv_txt_encoded_next(txt, &i);
 963              		.loc 1 739 10 is_stmt 1 view .LVU302
 739:Middlewares/LVGL/GUI/lvgl/src/misc/lv_txt.c ****         _lv_txt_encoded_next(txt, &i);
 964              		.loc 1 739 14 is_stmt 0 view .LVU303
 965 0018 019B     		ldr	r3, [sp, #4]
 966 001a EB5C     		ldrb	r3, [r5, r3]	@ zero_extendqisi2
 739:Middlewares/LVGL/GUI/lvgl/src/misc/lv_txt.c ****         _lv_txt_encoded_next(txt, &i);
 967              		.loc 1 739 10 view .LVU304
 968 001c 002B     		cmp	r3, #0
 969 001e F5D1     		bne	.L73
 742:Middlewares/LVGL/GUI/lvgl/src/misc/lv_txt.c ****     }
 743:Middlewares/LVGL/GUI/lvgl/src/misc/lv_txt.c **** 
 744:Middlewares/LVGL/GUI/lvgl/src/misc/lv_txt.c ****     return len;
 970              		.loc 1 744 5 is_stmt 1 view .LVU305
 745:Middlewares/LVGL/GUI/lvgl/src/misc/lv_txt.c **** }
 971              		.loc 1 745 1 is_stmt 0 view .LVU306
 972 0020 2046     		mov	r0, r4
 973 0022 03B0     		add	sp, sp, #12
 974              	.LCFI20:
 975              		.cfi_def_cfa_offset 12
 976              		@ sp needed
 977 0024 30BD     		pop	{r4, r5, pc}
 978              	.LVL84:
 979              	.L76:
 980              		.loc 1 745 1 view .LVU307
 981 0026 00BF     		.align	2
 982              	.L75:
 983 0028 00000000 		.word	.LANCHOR1
 984              		.cfi_endproc
 985              	.LFE69:
 987              		.section	.text._lv_txt_is_cmd,"ax",%progbits
 988              		.align	1
 989              		.global	_lv_txt_is_cmd
 990              		.syntax unified
 991              		.thumb
 992              		.thumb_func
 994              	_lv_txt_is_cmd:
 995              	.LVL85:
 996              	.LFB57:
 382:Middlewares/LVGL/GUI/lvgl/src/misc/lv_txt.c ****     bool ret = false;
ARM GAS  C:\Users\ADMINI~1\AppData\Local\Temp\ccPT3swg.s 			page 38


 997              		.loc 1 382 1 is_stmt 1 view -0
 998              		.cfi_startproc
 999              		@ args = 0, pretend = 0, frame = 0
 1000              		@ frame_needed = 0, uses_anonymous_args = 0
 1001              		@ link register save eliminated.
 382:Middlewares/LVGL/GUI/lvgl/src/misc/lv_txt.c ****     bool ret = false;
 1002              		.loc 1 382 1 is_stmt 0 view .LVU309
 1003 0000 0346     		mov	r3, r0
 383:Middlewares/LVGL/GUI/lvgl/src/misc/lv_txt.c **** 
 1004              		.loc 1 383 5 is_stmt 1 view .LVU310
 1005              	.LVL86:
 385:Middlewares/LVGL/GUI/lvgl/src/misc/lv_txt.c ****         if(*state == LV_TEXT_CMD_STATE_WAIT) { /*Start char*/
 1006              		.loc 1 385 5 view .LVU311
 385:Middlewares/LVGL/GUI/lvgl/src/misc/lv_txt.c ****         if(*state == LV_TEXT_CMD_STATE_WAIT) { /*Start char*/
 1007              		.loc 1 385 7 is_stmt 0 view .LVU312
 1008 0002 2329     		cmp	r1, #35
 1009 0004 04D0     		beq	.L85
 383:Middlewares/LVGL/GUI/lvgl/src/misc/lv_txt.c **** 
 1010              		.loc 1 383 10 view .LVU313
 1011 0006 0020     		movs	r0, #0
 1012              	.LVL87:
 1013              	.L78:
 402:Middlewares/LVGL/GUI/lvgl/src/misc/lv_txt.c ****         if(c == ' ') {
 1014              		.loc 1 402 5 is_stmt 1 view .LVU314
 402:Middlewares/LVGL/GUI/lvgl/src/misc/lv_txt.c ****         if(c == ' ') {
 1015              		.loc 1 402 8 is_stmt 0 view .LVU315
 1016 0008 1A78     		ldrb	r2, [r3]	@ zero_extendqisi2
 402:Middlewares/LVGL/GUI/lvgl/src/misc/lv_txt.c ****         if(c == ' ') {
 1017              		.loc 1 402 7 view .LVU316
 1018 000a 012A     		cmp	r2, #1
 1019 000c 12D0     		beq	.L86
 1020              	.LVL88:
 1021              	.L81:
 409:Middlewares/LVGL/GUI/lvgl/src/misc/lv_txt.c **** }
 1022              		.loc 1 409 5 is_stmt 1 view .LVU317
 410:Middlewares/LVGL/GUI/lvgl/src/misc/lv_txt.c **** 
 1023              		.loc 1 410 1 is_stmt 0 view .LVU318
 1024 000e 7047     		bx	lr
 1025              	.LVL89:
 1026              	.L85:
 386:Middlewares/LVGL/GUI/lvgl/src/misc/lv_txt.c ****             *state = LV_TEXT_CMD_STATE_PAR;
 1027              		.loc 1 386 9 is_stmt 1 view .LVU319
 386:Middlewares/LVGL/GUI/lvgl/src/misc/lv_txt.c ****             *state = LV_TEXT_CMD_STATE_PAR;
 1028              		.loc 1 386 12 is_stmt 0 view .LVU320
 1029 0010 0278     		ldrb	r2, [r0]	@ zero_extendqisi2
 386:Middlewares/LVGL/GUI/lvgl/src/misc/lv_txt.c ****             *state = LV_TEXT_CMD_STATE_PAR;
 1030              		.loc 1 386 11 view .LVU321
 1031 0012 12B9     		cbnz	r2, .L79
 387:Middlewares/LVGL/GUI/lvgl/src/misc/lv_txt.c ****             ret    = true;
 1032              		.loc 1 387 13 is_stmt 1 view .LVU322
 387:Middlewares/LVGL/GUI/lvgl/src/misc/lv_txt.c ****             ret    = true;
 1033              		.loc 1 387 20 is_stmt 0 view .LVU323
 1034 0014 0120     		movs	r0, #1
 1035              	.LVL90:
 387:Middlewares/LVGL/GUI/lvgl/src/misc/lv_txt.c ****             ret    = true;
 1036              		.loc 1 387 20 view .LVU324
 1037 0016 1870     		strb	r0, [r3]
ARM GAS  C:\Users\ADMINI~1\AppData\Local\Temp\ccPT3swg.s 			page 39


 388:Middlewares/LVGL/GUI/lvgl/src/misc/lv_txt.c ****         }
 1038              		.loc 1 388 13 is_stmt 1 view .LVU325
 1039              	.LVL91:
 388:Middlewares/LVGL/GUI/lvgl/src/misc/lv_txt.c ****         }
 1040              		.loc 1 388 13 is_stmt 0 view .LVU326
 1041 0018 F6E7     		b	.L78
 1042              	.LVL92:
 1043              	.L79:
 391:Middlewares/LVGL/GUI/lvgl/src/misc/lv_txt.c ****             *state = LV_TEXT_CMD_STATE_WAIT;
 1044              		.loc 1 391 14 is_stmt 1 view .LVU327
 391:Middlewares/LVGL/GUI/lvgl/src/misc/lv_txt.c ****             *state = LV_TEXT_CMD_STATE_WAIT;
 1045              		.loc 1 391 16 is_stmt 0 view .LVU328
 1046 001a 012A     		cmp	r2, #1
 1047 001c 03D0     		beq	.L87
 395:Middlewares/LVGL/GUI/lvgl/src/misc/lv_txt.c ****             *state = LV_TEXT_CMD_STATE_WAIT;
 1048              		.loc 1 395 14 is_stmt 1 view .LVU329
 395:Middlewares/LVGL/GUI/lvgl/src/misc/lv_txt.c ****             *state = LV_TEXT_CMD_STATE_WAIT;
 1049              		.loc 1 395 16 is_stmt 0 view .LVU330
 1050 001e 022A     		cmp	r2, #2
 1051 0020 04D0     		beq	.L88
 383:Middlewares/LVGL/GUI/lvgl/src/misc/lv_txt.c **** 
 1052              		.loc 1 383 10 view .LVU331
 1053 0022 0020     		movs	r0, #0
 1054              	.LVL93:
 383:Middlewares/LVGL/GUI/lvgl/src/misc/lv_txt.c **** 
 1055              		.loc 1 383 10 view .LVU332
 1056 0024 F0E7     		b	.L78
 1057              	.LVL94:
 1058              	.L87:
 392:Middlewares/LVGL/GUI/lvgl/src/misc/lv_txt.c ****         }
 1059              		.loc 1 392 13 is_stmt 1 view .LVU333
 392:Middlewares/LVGL/GUI/lvgl/src/misc/lv_txt.c ****         }
 1060              		.loc 1 392 20 is_stmt 0 view .LVU334
 1061 0026 0020     		movs	r0, #0
 1062              	.LVL95:
 392:Middlewares/LVGL/GUI/lvgl/src/misc/lv_txt.c ****         }
 1063              		.loc 1 392 20 view .LVU335
 1064 0028 1870     		strb	r0, [r3]
 1065 002a EDE7     		b	.L78
 1066              	.LVL96:
 1067              	.L88:
 396:Middlewares/LVGL/GUI/lvgl/src/misc/lv_txt.c ****             ret    = true;
 1068              		.loc 1 396 13 is_stmt 1 view .LVU336
 396:Middlewares/LVGL/GUI/lvgl/src/misc/lv_txt.c ****             ret    = true;
 1069              		.loc 1 396 20 is_stmt 0 view .LVU337
 1070 002c 0022     		movs	r2, #0
 1071 002e 0270     		strb	r2, [r0]
 397:Middlewares/LVGL/GUI/lvgl/src/misc/lv_txt.c ****         }
 1072              		.loc 1 397 13 is_stmt 1 view .LVU338
 1073              	.LVL97:
 397:Middlewares/LVGL/GUI/lvgl/src/misc/lv_txt.c ****         }
 1074              		.loc 1 397 20 is_stmt 0 view .LVU339
 1075 0030 0120     		movs	r0, #1
 1076              	.LVL98:
 397:Middlewares/LVGL/GUI/lvgl/src/misc/lv_txt.c ****         }
 1077              		.loc 1 397 20 view .LVU340
 1078 0032 E9E7     		b	.L78
ARM GAS  C:\Users\ADMINI~1\AppData\Local\Temp\ccPT3swg.s 			page 40


 1079              	.LVL99:
 1080              	.L86:
 403:Middlewares/LVGL/GUI/lvgl/src/misc/lv_txt.c ****             *state = LV_TEXT_CMD_STATE_IN; /*After the parameter the text is in the command*/
 1081              		.loc 1 403 9 is_stmt 1 view .LVU341
 403:Middlewares/LVGL/GUI/lvgl/src/misc/lv_txt.c ****             *state = LV_TEXT_CMD_STATE_IN; /*After the parameter the text is in the command*/
 1082              		.loc 1 403 11 is_stmt 0 view .LVU342
 1083 0034 2029     		cmp	r1, #32
 1084 0036 01D0     		beq	.L89
 406:Middlewares/LVGL/GUI/lvgl/src/misc/lv_txt.c ****     }
 1085              		.loc 1 406 13 view .LVU343
 1086 0038 0120     		movs	r0, #1
 1087              	.LVL100:
 406:Middlewares/LVGL/GUI/lvgl/src/misc/lv_txt.c ****     }
 1088              		.loc 1 406 13 view .LVU344
 1089 003a E8E7     		b	.L81
 1090              	.LVL101:
 1091              	.L89:
 404:Middlewares/LVGL/GUI/lvgl/src/misc/lv_txt.c ****         }
 1092              		.loc 1 404 13 is_stmt 1 view .LVU345
 404:Middlewares/LVGL/GUI/lvgl/src/misc/lv_txt.c ****         }
 1093              		.loc 1 404 20 is_stmt 0 view .LVU346
 1094 003c 0222     		movs	r2, #2
 1095 003e 1A70     		strb	r2, [r3]
 406:Middlewares/LVGL/GUI/lvgl/src/misc/lv_txt.c ****     }
 1096              		.loc 1 406 13 view .LVU347
 1097 0040 0120     		movs	r0, #1
 1098              	.LVL102:
 406:Middlewares/LVGL/GUI/lvgl/src/misc/lv_txt.c ****     }
 1099              		.loc 1 406 13 view .LVU348
 1100 0042 7047     		bx	lr
 1101              		.cfi_endproc
 1102              	.LFE57:
 1104              		.section	.rodata.lv_txt_get_next_word.str1.4,"aMS",%progbits,1
 1105              		.align	2
 1106              	.LC0:
 1107 0000 202C2E3B 		.ascii	" ,.;:-_\000"
 1107      3A2D5F00 
 1108              		.section	.text.lv_txt_get_next_word,"ax",%progbits
 1109              		.align	1
 1110              		.syntax unified
 1111              		.thumb
 1112              		.thumb_func
 1114              	lv_txt_get_next_word:
 1115              	.LVL103:
 1116              	.LFB54:
 173:Middlewares/LVGL/GUI/lvgl/src/misc/lv_txt.c ****     if(txt == NULL || txt[0] == '\0') return 0;
 1117              		.loc 1 173 1 is_stmt 1 view -0
 1118              		.cfi_startproc
 1119              		@ args = 16, pretend = 0, frame = 32
 1120              		@ frame_needed = 0, uses_anonymous_args = 0
 173:Middlewares/LVGL/GUI/lvgl/src/misc/lv_txt.c ****     if(txt == NULL || txt[0] == '\0') return 0;
 1121              		.loc 1 173 1 is_stmt 0 view .LVU350
 1122 0000 2DE9F04F 		push	{r4, r5, r6, r7, r8, r9, r10, fp, lr}
 1123              	.LCFI21:
 1124              		.cfi_def_cfa_offset 36
 1125              		.cfi_offset 4, -36
 1126              		.cfi_offset 5, -32
ARM GAS  C:\Users\ADMINI~1\AppData\Local\Temp\ccPT3swg.s 			page 41


 1127              		.cfi_offset 6, -28
 1128              		.cfi_offset 7, -24
 1129              		.cfi_offset 8, -20
 1130              		.cfi_offset 9, -16
 1131              		.cfi_offset 10, -12
 1132              		.cfi_offset 11, -8
 1133              		.cfi_offset 14, -4
 1134 0004 89B0     		sub	sp, sp, #36
 1135              	.LCFI22:
 1136              		.cfi_def_cfa_offset 72
 1137 0006 0291     		str	r1, [sp, #8]
 1138 0008 0392     		str	r2, [sp, #12]
 1139 000a 0493     		str	r3, [sp, #16]
 1140 000c 9DF848A0 		ldrb	r10, [sp, #72]	@ zero_extendqisi2
 1141 0010 9DF85430 		ldrb	r3, [sp, #84]	@ zero_extendqisi2
 1142              	.LVL104:
 173:Middlewares/LVGL/GUI/lvgl/src/misc/lv_txt.c ****     if(txt == NULL || txt[0] == '\0') return 0;
 1143              		.loc 1 173 1 view .LVU351
 1144 0014 0593     		str	r3, [sp, #20]
 174:Middlewares/LVGL/GUI/lvgl/src/misc/lv_txt.c ****     if(font == NULL) return 0;
 1145              		.loc 1 174 5 is_stmt 1 view .LVU352
 174:Middlewares/LVGL/GUI/lvgl/src/misc/lv_txt.c ****     if(font == NULL) return 0;
 1146              		.loc 1 174 7 is_stmt 0 view .LVU353
 1147 0016 0028     		cmp	r0, #0
 1148 0018 00F09180 		beq	.L109
 1149 001c 0646     		mov	r6, r0
 174:Middlewares/LVGL/GUI/lvgl/src/misc/lv_txt.c ****     if(font == NULL) return 0;
 1150              		.loc 1 174 26 discriminator 2 view .LVU354
 1151 001e 0378     		ldrb	r3, [r0]	@ zero_extendqisi2
 174:Middlewares/LVGL/GUI/lvgl/src/misc/lv_txt.c ****     if(font == NULL) return 0;
 1152              		.loc 1 174 20 discriminator 2 view .LVU355
 1153 0020 002B     		cmp	r3, #0
 1154 0022 00F08E80 		beq	.L110
 175:Middlewares/LVGL/GUI/lvgl/src/misc/lv_txt.c **** 
 1155              		.loc 1 175 5 is_stmt 1 view .LVU356
 175:Middlewares/LVGL/GUI/lvgl/src/misc/lv_txt.c **** 
 1156              		.loc 1 175 7 is_stmt 0 view .LVU357
 1157 0026 0029     		cmp	r1, #0
 1158 0028 00F09080 		beq	.L111
 177:Middlewares/LVGL/GUI/lvgl/src/misc/lv_txt.c **** 
 1159              		.loc 1 177 5 is_stmt 1 view .LVU358
 177:Middlewares/LVGL/GUI/lvgl/src/misc/lv_txt.c **** 
 1160              		.loc 1 177 7 is_stmt 0 view .LVU359
 1161 002c 1AF0020F 		tst	r10, #2
 1162 0030 02D0     		beq	.L92
 177:Middlewares/LVGL/GUI/lvgl/src/misc/lv_txt.c **** 
 1163              		.loc 1 177 46 view .LVU360
 1164 0032 6FF06043 		mvn	r3, #-536870912
 1165 0036 0493     		str	r3, [sp, #16]
 1166              	.LVL105:
 1167              	.L92:
 179:Middlewares/LVGL/GUI/lvgl/src/misc/lv_txt.c ****     uint32_t letter = 0;      /*Letter at i*/
 1168              		.loc 1 179 5 is_stmt 1 view .LVU361
 179:Middlewares/LVGL/GUI/lvgl/src/misc/lv_txt.c ****     uint32_t letter = 0;      /*Letter at i*/
 1169              		.loc 1 179 21 is_stmt 0 view .LVU362
 1170 0038 0025     		movs	r5, #0
 1171 003a 0795     		str	r5, [sp, #28]
ARM GAS  C:\Users\ADMINI~1\AppData\Local\Temp\ccPT3swg.s 			page 42


 179:Middlewares/LVGL/GUI/lvgl/src/misc/lv_txt.c ****     uint32_t letter = 0;      /*Letter at i*/
 1172              		.loc 1 179 33 view .LVU363
 1173 003c 0695     		str	r5, [sp, #24]
 180:Middlewares/LVGL/GUI/lvgl/src/misc/lv_txt.c ****     uint32_t letter_next = 0; /*Letter at i_next*/
 1174              		.loc 1 180 5 is_stmt 1 view .LVU364
 1175              	.LVL106:
 181:Middlewares/LVGL/GUI/lvgl/src/misc/lv_txt.c ****     lv_coord_t letter_w;
 1176              		.loc 1 181 5 view .LVU365
 182:Middlewares/LVGL/GUI/lvgl/src/misc/lv_txt.c ****     lv_coord_t cur_w = 0;  /*Pixel Width of transversed string*/
 1177              		.loc 1 182 5 view .LVU366
 183:Middlewares/LVGL/GUI/lvgl/src/misc/lv_txt.c ****     uint32_t word_len = 0;   /*Number of characters in the transversed word*/
 1178              		.loc 1 183 5 view .LVU367
 184:Middlewares/LVGL/GUI/lvgl/src/misc/lv_txt.c ****     uint32_t break_index = NO_BREAK_FOUND; /*only used for "long" words*/
 1179              		.loc 1 184 5 view .LVU368
 185:Middlewares/LVGL/GUI/lvgl/src/misc/lv_txt.c ****     uint32_t break_letter_count = 0; /*Number of characters up to the long word break point*/
 1180              		.loc 1 185 5 view .LVU369
 186:Middlewares/LVGL/GUI/lvgl/src/misc/lv_txt.c **** 
 1181              		.loc 1 186 5 view .LVU370
 188:Middlewares/LVGL/GUI/lvgl/src/misc/lv_txt.c ****     i_next_next = i_next;
 1182              		.loc 1 188 5 view .LVU371
 188:Middlewares/LVGL/GUI/lvgl/src/misc/lv_txt.c ****     i_next_next = i_next;
 1183              		.loc 1 188 14 is_stmt 0 view .LVU372
 1184 003e 454B     		ldr	r3, .L125
 1185 0040 1B68     		ldr	r3, [r3]
 1186 0042 07A9     		add	r1, sp, #28
 1187              	.LVL107:
 188:Middlewares/LVGL/GUI/lvgl/src/misc/lv_txt.c ****     i_next_next = i_next;
 1188              		.loc 1 188 14 view .LVU373
 1189 0044 3046     		mov	r0, r6
 1190              	.LVL108:
 188:Middlewares/LVGL/GUI/lvgl/src/misc/lv_txt.c ****     i_next_next = i_next;
 1191              		.loc 1 188 14 view .LVU374
 1192 0046 9847     		blx	r3
 1193              	.LVL109:
 188:Middlewares/LVGL/GUI/lvgl/src/misc/lv_txt.c ****     i_next_next = i_next;
 1194              		.loc 1 188 14 view .LVU375
 1195 0048 0446     		mov	r4, r0
 1196              	.LVL110:
 189:Middlewares/LVGL/GUI/lvgl/src/misc/lv_txt.c **** 
 1197              		.loc 1 189 5 is_stmt 1 view .LVU376
 189:Middlewares/LVGL/GUI/lvgl/src/misc/lv_txt.c **** 
 1198              		.loc 1 189 17 is_stmt 0 view .LVU377
 1199 004a 079B     		ldr	r3, [sp, #28]
 1200 004c 0693     		str	r3, [sp, #24]
 192:Middlewares/LVGL/GUI/lvgl/src/misc/lv_txt.c ****         letter_next = _lv_txt_encoded_next(txt, &i_next_next);
 1201              		.loc 1 192 5 is_stmt 1 view .LVU378
 185:Middlewares/LVGL/GUI/lvgl/src/misc/lv_txt.c ****     uint32_t break_letter_count = 0; /*Number of characters up to the long word break point*/
 1202              		.loc 1 185 14 is_stmt 0 view .LVU379
 1203 004e 4FF0FF37 		mov	r7, #-1
 184:Middlewares/LVGL/GUI/lvgl/src/misc/lv_txt.c ****     uint32_t break_index = NO_BREAK_FOUND; /*only used for "long" words*/
 1204              		.loc 1 184 14 view .LVU380
 1205 0052 A946     		mov	r9, r5
 183:Middlewares/LVGL/GUI/lvgl/src/misc/lv_txt.c ****     uint32_t word_len = 0;   /*Number of characters in the transversed word*/
 1206              		.loc 1 183 16 view .LVU381
 1207 0054 A846     		mov	r8, r5
 181:Middlewares/LVGL/GUI/lvgl/src/misc/lv_txt.c ****     lv_coord_t letter_w;
 1208              		.loc 1 181 14 view .LVU382
ARM GAS  C:\Users\ADMINI~1\AppData\Local\Temp\ccPT3swg.s 			page 43


 1209 0056 0195     		str	r5, [sp, #4]
 192:Middlewares/LVGL/GUI/lvgl/src/misc/lv_txt.c ****         letter_next = _lv_txt_encoded_next(txt, &i_next_next);
 1210              		.loc 1 192 10 view .LVU383
 1211 0058 33E0     		b	.L93
 1212              	.LVL111:
 1213              	.L94:
 206:Middlewares/LVGL/GUI/lvgl/src/misc/lv_txt.c ****         cur_w += letter_w;
 1214              		.loc 1 206 9 is_stmt 1 view .LVU384
 206:Middlewares/LVGL/GUI/lvgl/src/misc/lv_txt.c ****         cur_w += letter_w;
 1215              		.loc 1 206 20 is_stmt 0 view .LVU385
 1216 005a 019A     		ldr	r2, [sp, #4]
 1217 005c 2146     		mov	r1, r4
 1218 005e 0298     		ldr	r0, [sp, #8]
 1219 0060 FFF7FEFF 		bl	lv_font_get_glyph_width
 1220              	.LVL112:
 207:Middlewares/LVGL/GUI/lvgl/src/misc/lv_txt.c **** 
 1221              		.loc 1 207 9 is_stmt 1 view .LVU386
 207:Middlewares/LVGL/GUI/lvgl/src/misc/lv_txt.c **** 
 1222              		.loc 1 207 15 is_stmt 0 view .LVU387
 1223 0064 8044     		add	r8, r8, r0
 1224              	.LVL113:
 209:Middlewares/LVGL/GUI/lvgl/src/misc/lv_txt.c ****             cur_w += letter_space;
 1225              		.loc 1 209 9 is_stmt 1 view .LVU388
 209:Middlewares/LVGL/GUI/lvgl/src/misc/lv_txt.c ****             cur_w += letter_space;
 1226              		.loc 1 209 11 is_stmt 0 view .LVU389
 1227 0066 0028     		cmp	r0, #0
 1228 0068 01DD     		ble	.L96
 210:Middlewares/LVGL/GUI/lvgl/src/misc/lv_txt.c ****         }
 1229              		.loc 1 210 13 is_stmt 1 view .LVU390
 210:Middlewares/LVGL/GUI/lvgl/src/misc/lv_txt.c ****         }
 1230              		.loc 1 210 19 is_stmt 0 view .LVU391
 1231 006a 039B     		ldr	r3, [sp, #12]
 1232 006c 9844     		add	r8, r8, r3
 1233              	.LVL114:
 1234              	.L96:
 214:Middlewares/LVGL/GUI/lvgl/src/misc/lv_txt.c ****             break_index = i;
 1235              		.loc 1 214 9 is_stmt 1 view .LVU392
 214:Middlewares/LVGL/GUI/lvgl/src/misc/lv_txt.c ****             break_index = i;
 1236              		.loc 1 214 11 is_stmt 0 view .LVU393
 1237 006e B7F1FF3F 		cmp	r7, #-1
 1238 0072 12D0     		beq	.L119
 1239              	.LVL115:
 1240              	.L97:
 221:Middlewares/LVGL/GUI/lvgl/src/misc/lv_txt.c ****             /*Update the output width on the first character if it fits.
 1241              		.loc 1 221 9 is_stmt 1 view .LVU394
 221:Middlewares/LVGL/GUI/lvgl/src/misc/lv_txt.c ****             /*Update the output width on the first character if it fits.
 1242              		.loc 1 221 11 is_stmt 0 view .LVU395
 1243 0074 0A2C     		cmp	r4, #10
 1244 0076 3DD0     		beq	.L98
 221:Middlewares/LVGL/GUI/lvgl/src/misc/lv_txt.c ****             /*Update the output width on the first character if it fits.
 1245              		.loc 1 221 27 discriminator 1 view .LVU396
 1246 0078 0D2C     		cmp	r4, #13
 1247 007a 3BD0     		beq	.L98
 1248              	.LVL116:
 1249              	.LBB20:
 1250              	.LBI20:
 1251              		.file 3 "Middlewares/LVGL/GUI/lvgl/src/misc/lv_txt.h"
ARM GAS  C:\Users\ADMINI~1\AppData\Local\Temp\ccPT3swg.s 			page 44


   1:Middlewares/LVGL/GUI/lvgl/src/misc/lv_txt.h **** /**
   2:Middlewares/LVGL/GUI/lvgl/src/misc/lv_txt.h ****  * @file lv_txt.h
   3:Middlewares/LVGL/GUI/lvgl/src/misc/lv_txt.h ****  *
   4:Middlewares/LVGL/GUI/lvgl/src/misc/lv_txt.h ****  */
   5:Middlewares/LVGL/GUI/lvgl/src/misc/lv_txt.h **** 
   6:Middlewares/LVGL/GUI/lvgl/src/misc/lv_txt.h **** #ifndef LV_TXT_H
   7:Middlewares/LVGL/GUI/lvgl/src/misc/lv_txt.h **** #define LV_TXT_H
   8:Middlewares/LVGL/GUI/lvgl/src/misc/lv_txt.h **** 
   9:Middlewares/LVGL/GUI/lvgl/src/misc/lv_txt.h **** #ifdef __cplusplus
  10:Middlewares/LVGL/GUI/lvgl/src/misc/lv_txt.h **** extern "C" {
  11:Middlewares/LVGL/GUI/lvgl/src/misc/lv_txt.h **** #endif
  12:Middlewares/LVGL/GUI/lvgl/src/misc/lv_txt.h **** 
  13:Middlewares/LVGL/GUI/lvgl/src/misc/lv_txt.h **** /*********************
  14:Middlewares/LVGL/GUI/lvgl/src/misc/lv_txt.h ****  *      INCLUDES
  15:Middlewares/LVGL/GUI/lvgl/src/misc/lv_txt.h ****  *********************/
  16:Middlewares/LVGL/GUI/lvgl/src/misc/lv_txt.h **** #include "../lv_conf_internal.h"
  17:Middlewares/LVGL/GUI/lvgl/src/misc/lv_txt.h **** 
  18:Middlewares/LVGL/GUI/lvgl/src/misc/lv_txt.h **** #include <stdbool.h>
  19:Middlewares/LVGL/GUI/lvgl/src/misc/lv_txt.h **** #include <stdarg.h>
  20:Middlewares/LVGL/GUI/lvgl/src/misc/lv_txt.h **** #include "lv_area.h"
  21:Middlewares/LVGL/GUI/lvgl/src/misc/lv_txt.h **** #include "../font/lv_font.h"
  22:Middlewares/LVGL/GUI/lvgl/src/misc/lv_txt.h **** #include "lv_printf.h"
  23:Middlewares/LVGL/GUI/lvgl/src/misc/lv_txt.h **** #include "lv_types.h"
  24:Middlewares/LVGL/GUI/lvgl/src/misc/lv_txt.h **** 
  25:Middlewares/LVGL/GUI/lvgl/src/misc/lv_txt.h **** /*********************
  26:Middlewares/LVGL/GUI/lvgl/src/misc/lv_txt.h ****  *      DEFINES
  27:Middlewares/LVGL/GUI/lvgl/src/misc/lv_txt.h ****  *********************/
  28:Middlewares/LVGL/GUI/lvgl/src/misc/lv_txt.h **** #ifndef LV_TXT_COLOR_CMD
  29:Middlewares/LVGL/GUI/lvgl/src/misc/lv_txt.h **** #define LV_TXT_COLOR_CMD "#"
  30:Middlewares/LVGL/GUI/lvgl/src/misc/lv_txt.h **** #endif
  31:Middlewares/LVGL/GUI/lvgl/src/misc/lv_txt.h **** 
  32:Middlewares/LVGL/GUI/lvgl/src/misc/lv_txt.h **** #define LV_TXT_ENC_UTF8 1
  33:Middlewares/LVGL/GUI/lvgl/src/misc/lv_txt.h **** #define LV_TXT_ENC_ASCII 2
  34:Middlewares/LVGL/GUI/lvgl/src/misc/lv_txt.h **** 
  35:Middlewares/LVGL/GUI/lvgl/src/misc/lv_txt.h **** /**********************
  36:Middlewares/LVGL/GUI/lvgl/src/misc/lv_txt.h ****  *      TYPEDEFS
  37:Middlewares/LVGL/GUI/lvgl/src/misc/lv_txt.h ****  **********************/
  38:Middlewares/LVGL/GUI/lvgl/src/misc/lv_txt.h **** 
  39:Middlewares/LVGL/GUI/lvgl/src/misc/lv_txt.h **** /**
  40:Middlewares/LVGL/GUI/lvgl/src/misc/lv_txt.h ****  * Options for text rendering.
  41:Middlewares/LVGL/GUI/lvgl/src/misc/lv_txt.h ****  */
  42:Middlewares/LVGL/GUI/lvgl/src/misc/lv_txt.h **** enum {
  43:Middlewares/LVGL/GUI/lvgl/src/misc/lv_txt.h ****     LV_TEXT_FLAG_NONE    = 0x00,
  44:Middlewares/LVGL/GUI/lvgl/src/misc/lv_txt.h ****     LV_TEXT_FLAG_RECOLOR = 0x01, /**< Enable parsing of recolor command*/
  45:Middlewares/LVGL/GUI/lvgl/src/misc/lv_txt.h ****     LV_TEXT_FLAG_EXPAND  = 0x02, /**< Ignore max-width to avoid automatic word wrapping*/
  46:Middlewares/LVGL/GUI/lvgl/src/misc/lv_txt.h ****     LV_TEXT_FLAG_FIT     = 0x04, /**< Max-width is already equal to the longest line. (Used to skip
  47:Middlewares/LVGL/GUI/lvgl/src/misc/lv_txt.h **** };
  48:Middlewares/LVGL/GUI/lvgl/src/misc/lv_txt.h **** typedef uint8_t lv_text_flag_t;
  49:Middlewares/LVGL/GUI/lvgl/src/misc/lv_txt.h **** 
  50:Middlewares/LVGL/GUI/lvgl/src/misc/lv_txt.h **** /**
  51:Middlewares/LVGL/GUI/lvgl/src/misc/lv_txt.h ****  * State machine for text renderer.*/
  52:Middlewares/LVGL/GUI/lvgl/src/misc/lv_txt.h **** enum {
  53:Middlewares/LVGL/GUI/lvgl/src/misc/lv_txt.h ****     LV_TEXT_CMD_STATE_WAIT, /**< Waiting for command*/
  54:Middlewares/LVGL/GUI/lvgl/src/misc/lv_txt.h ****     LV_TEXT_CMD_STATE_PAR,  /**< Processing the parameter*/
  55:Middlewares/LVGL/GUI/lvgl/src/misc/lv_txt.h ****     LV_TEXT_CMD_STATE_IN,   /**< Processing the command*/
  56:Middlewares/LVGL/GUI/lvgl/src/misc/lv_txt.h **** };
  57:Middlewares/LVGL/GUI/lvgl/src/misc/lv_txt.h **** typedef uint8_t lv_text_cmd_state_t;
ARM GAS  C:\Users\ADMINI~1\AppData\Local\Temp\ccPT3swg.s 			page 45


  58:Middlewares/LVGL/GUI/lvgl/src/misc/lv_txt.h **** 
  59:Middlewares/LVGL/GUI/lvgl/src/misc/lv_txt.h **** /** Label align policy*/
  60:Middlewares/LVGL/GUI/lvgl/src/misc/lv_txt.h **** enum {
  61:Middlewares/LVGL/GUI/lvgl/src/misc/lv_txt.h ****     LV_TEXT_ALIGN_AUTO, /**< Align text auto*/
  62:Middlewares/LVGL/GUI/lvgl/src/misc/lv_txt.h ****     LV_TEXT_ALIGN_LEFT, /**< Align text to left*/
  63:Middlewares/LVGL/GUI/lvgl/src/misc/lv_txt.h ****     LV_TEXT_ALIGN_CENTER, /**< Align text to center*/
  64:Middlewares/LVGL/GUI/lvgl/src/misc/lv_txt.h ****     LV_TEXT_ALIGN_RIGHT, /**< Align text to right*/
  65:Middlewares/LVGL/GUI/lvgl/src/misc/lv_txt.h **** };
  66:Middlewares/LVGL/GUI/lvgl/src/misc/lv_txt.h **** typedef uint8_t lv_text_align_t;
  67:Middlewares/LVGL/GUI/lvgl/src/misc/lv_txt.h **** 
  68:Middlewares/LVGL/GUI/lvgl/src/misc/lv_txt.h **** /**********************
  69:Middlewares/LVGL/GUI/lvgl/src/misc/lv_txt.h ****  * GLOBAL PROTOTYPES
  70:Middlewares/LVGL/GUI/lvgl/src/misc/lv_txt.h ****  **********************/
  71:Middlewares/LVGL/GUI/lvgl/src/misc/lv_txt.h **** 
  72:Middlewares/LVGL/GUI/lvgl/src/misc/lv_txt.h **** /**
  73:Middlewares/LVGL/GUI/lvgl/src/misc/lv_txt.h ****  * Get size of a text
  74:Middlewares/LVGL/GUI/lvgl/src/misc/lv_txt.h ****  * @param size_res pointer to a 'point_t' variable to store the result
  75:Middlewares/LVGL/GUI/lvgl/src/misc/lv_txt.h ****  * @param text pointer to a text
  76:Middlewares/LVGL/GUI/lvgl/src/misc/lv_txt.h ****  * @param font pointer to font of the text
  77:Middlewares/LVGL/GUI/lvgl/src/misc/lv_txt.h ****  * @param letter_space letter space of the text
  78:Middlewares/LVGL/GUI/lvgl/src/misc/lv_txt.h ****  * @param line_space line space of the text
  79:Middlewares/LVGL/GUI/lvgl/src/misc/lv_txt.h ****  * @param flags settings for the text from ::lv_text_flag_t
  80:Middlewares/LVGL/GUI/lvgl/src/misc/lv_txt.h ****  * @param max_width max with of the text (break the lines to fit this size) Set CORD_MAX to avoid
  81:Middlewares/LVGL/GUI/lvgl/src/misc/lv_txt.h ****  * line breaks
  82:Middlewares/LVGL/GUI/lvgl/src/misc/lv_txt.h ****  */
  83:Middlewares/LVGL/GUI/lvgl/src/misc/lv_txt.h **** void lv_txt_get_size(lv_point_t * size_res, const char * text, const lv_font_t * font, lv_coord_t l
  84:Middlewares/LVGL/GUI/lvgl/src/misc/lv_txt.h ****                      lv_coord_t line_space, lv_coord_t max_width, lv_text_flag_t flag);
  85:Middlewares/LVGL/GUI/lvgl/src/misc/lv_txt.h **** 
  86:Middlewares/LVGL/GUI/lvgl/src/misc/lv_txt.h **** /**
  87:Middlewares/LVGL/GUI/lvgl/src/misc/lv_txt.h ****  * Get the next line of text. Check line length and break chars too.
  88:Middlewares/LVGL/GUI/lvgl/src/misc/lv_txt.h ****  * @param txt a '\0' terminated string
  89:Middlewares/LVGL/GUI/lvgl/src/misc/lv_txt.h ****  * @param font pointer to a font
  90:Middlewares/LVGL/GUI/lvgl/src/misc/lv_txt.h ****  * @param letter_space letter space
  91:Middlewares/LVGL/GUI/lvgl/src/misc/lv_txt.h ****  * @param max_width max with of the text (break the lines to fit this size) Set CORD_MAX to avoid
  92:Middlewares/LVGL/GUI/lvgl/src/misc/lv_txt.h ****  * line breaks
  93:Middlewares/LVGL/GUI/lvgl/src/misc/lv_txt.h ****  * @param used_width When used_width != NULL, save the width of this line if
  94:Middlewares/LVGL/GUI/lvgl/src/misc/lv_txt.h ****  * flag == LV_TEXT_FLAG_NONE, otherwise save -1.
  95:Middlewares/LVGL/GUI/lvgl/src/misc/lv_txt.h ****  * @param flags settings for the text from 'txt_flag_type' enum
  96:Middlewares/LVGL/GUI/lvgl/src/misc/lv_txt.h ****  * @return the index of the first char of the new line (in byte index not letter index. With UTF-8
  97:Middlewares/LVGL/GUI/lvgl/src/misc/lv_txt.h ****  * they are different)
  98:Middlewares/LVGL/GUI/lvgl/src/misc/lv_txt.h ****  */
  99:Middlewares/LVGL/GUI/lvgl/src/misc/lv_txt.h **** uint32_t _lv_txt_get_next_line(const char * txt, const lv_font_t * font, lv_coord_t letter_space,
 100:Middlewares/LVGL/GUI/lvgl/src/misc/lv_txt.h ****                                lv_coord_t max_width, lv_coord_t * used_width, lv_text_flag_t flag);
 101:Middlewares/LVGL/GUI/lvgl/src/misc/lv_txt.h **** 
 102:Middlewares/LVGL/GUI/lvgl/src/misc/lv_txt.h **** /**
 103:Middlewares/LVGL/GUI/lvgl/src/misc/lv_txt.h ****  * Give the length of a text with a given font
 104:Middlewares/LVGL/GUI/lvgl/src/misc/lv_txt.h ****  * @param txt a '\0' terminate string
 105:Middlewares/LVGL/GUI/lvgl/src/misc/lv_txt.h ****  * @param length length of 'txt' in byte count and not characters ( is 1 character but 2 bytes in
 106:Middlewares/LVGL/GUI/lvgl/src/misc/lv_txt.h ****  * UTF-8)
 107:Middlewares/LVGL/GUI/lvgl/src/misc/lv_txt.h ****  * @param font pointer to a font
 108:Middlewares/LVGL/GUI/lvgl/src/misc/lv_txt.h ****  * @param letter_space letter space
 109:Middlewares/LVGL/GUI/lvgl/src/misc/lv_txt.h ****  * @param flags settings for the text from 'txt_flag_t' enum
 110:Middlewares/LVGL/GUI/lvgl/src/misc/lv_txt.h ****  * @return length of a char_num long text
 111:Middlewares/LVGL/GUI/lvgl/src/misc/lv_txt.h ****  */
 112:Middlewares/LVGL/GUI/lvgl/src/misc/lv_txt.h **** lv_coord_t lv_txt_get_width(const char * txt, uint32_t length, const lv_font_t * font, lv_coord_t l
 113:Middlewares/LVGL/GUI/lvgl/src/misc/lv_txt.h ****                             lv_text_flag_t flag);
 114:Middlewares/LVGL/GUI/lvgl/src/misc/lv_txt.h **** 
ARM GAS  C:\Users\ADMINI~1\AppData\Local\Temp\ccPT3swg.s 			page 46


 115:Middlewares/LVGL/GUI/lvgl/src/misc/lv_txt.h **** /**
 116:Middlewares/LVGL/GUI/lvgl/src/misc/lv_txt.h ****  * Check next character in a string and decide if the character is part of the command or not
 117:Middlewares/LVGL/GUI/lvgl/src/misc/lv_txt.h ****  * @param state pointer to a txt_cmd_state_t variable which stores the current state of command
 118:Middlewares/LVGL/GUI/lvgl/src/misc/lv_txt.h ****  * processing
 119:Middlewares/LVGL/GUI/lvgl/src/misc/lv_txt.h ****  * @param c the current character
 120:Middlewares/LVGL/GUI/lvgl/src/misc/lv_txt.h ****  * @return true: the character is part of a command and should not be written,
 121:Middlewares/LVGL/GUI/lvgl/src/misc/lv_txt.h ****  *         false: the character should be written
 122:Middlewares/LVGL/GUI/lvgl/src/misc/lv_txt.h ****  */
 123:Middlewares/LVGL/GUI/lvgl/src/misc/lv_txt.h **** bool _lv_txt_is_cmd(lv_text_cmd_state_t * state, uint32_t c);
 124:Middlewares/LVGL/GUI/lvgl/src/misc/lv_txt.h **** 
 125:Middlewares/LVGL/GUI/lvgl/src/misc/lv_txt.h **** /**
 126:Middlewares/LVGL/GUI/lvgl/src/misc/lv_txt.h ****  * Insert a string into an other
 127:Middlewares/LVGL/GUI/lvgl/src/misc/lv_txt.h ****  * @param txt_buf the original text (must be big enough for the result text and NULL terminated)
 128:Middlewares/LVGL/GUI/lvgl/src/misc/lv_txt.h ****  * @param pos position to insert (0: before the original text, 1: after the first char etc.)
 129:Middlewares/LVGL/GUI/lvgl/src/misc/lv_txt.h ****  * @param ins_txt text to insert, must be '\0' terminated
 130:Middlewares/LVGL/GUI/lvgl/src/misc/lv_txt.h ****  */
 131:Middlewares/LVGL/GUI/lvgl/src/misc/lv_txt.h **** void _lv_txt_ins(char * txt_buf, uint32_t pos, const char * ins_txt);
 132:Middlewares/LVGL/GUI/lvgl/src/misc/lv_txt.h **** 
 133:Middlewares/LVGL/GUI/lvgl/src/misc/lv_txt.h **** /**
 134:Middlewares/LVGL/GUI/lvgl/src/misc/lv_txt.h ****  * Delete a part of a string
 135:Middlewares/LVGL/GUI/lvgl/src/misc/lv_txt.h ****  * @param txt string to modify, must be '\0' terminated and should point to a heap or stack frame, 
 136:Middlewares/LVGL/GUI/lvgl/src/misc/lv_txt.h ****  * @param pos position where to start the deleting (0: before the first char, 1: after the first
 137:Middlewares/LVGL/GUI/lvgl/src/misc/lv_txt.h ****  * char etc.)
 138:Middlewares/LVGL/GUI/lvgl/src/misc/lv_txt.h ****  * @param len number of characters to delete
 139:Middlewares/LVGL/GUI/lvgl/src/misc/lv_txt.h ****  */
 140:Middlewares/LVGL/GUI/lvgl/src/misc/lv_txt.h **** void _lv_txt_cut(char * txt, uint32_t pos, uint32_t len);
 141:Middlewares/LVGL/GUI/lvgl/src/misc/lv_txt.h **** 
 142:Middlewares/LVGL/GUI/lvgl/src/misc/lv_txt.h **** /**
 143:Middlewares/LVGL/GUI/lvgl/src/misc/lv_txt.h ****  * return a new formatted text. Memory will be allocated to store the text.
 144:Middlewares/LVGL/GUI/lvgl/src/misc/lv_txt.h ****  * @param fmt `printf`-like format
 145:Middlewares/LVGL/GUI/lvgl/src/misc/lv_txt.h ****  * @return pointer to the allocated text string.
 146:Middlewares/LVGL/GUI/lvgl/src/misc/lv_txt.h ****  */
 147:Middlewares/LVGL/GUI/lvgl/src/misc/lv_txt.h **** char * _lv_txt_set_text_vfmt(const char * fmt, va_list ap) LV_FORMAT_ATTRIBUTE(1, 0);
 148:Middlewares/LVGL/GUI/lvgl/src/misc/lv_txt.h **** 
 149:Middlewares/LVGL/GUI/lvgl/src/misc/lv_txt.h **** /**
 150:Middlewares/LVGL/GUI/lvgl/src/misc/lv_txt.h ****  * Decode two encoded character from a string.
 151:Middlewares/LVGL/GUI/lvgl/src/misc/lv_txt.h ****  * @param txt pointer to '\0' terminated string
 152:Middlewares/LVGL/GUI/lvgl/src/misc/lv_txt.h ****  * @param letter the first decoded Unicode character or 0 on invalid data code
 153:Middlewares/LVGL/GUI/lvgl/src/misc/lv_txt.h ****  * @param letter_next the second decoded Unicode character or 0 on invalid data code
 154:Middlewares/LVGL/GUI/lvgl/src/misc/lv_txt.h ****  * @param ofs start index in 'txt' where to start.
 155:Middlewares/LVGL/GUI/lvgl/src/misc/lv_txt.h ****  *                After the call it will point to the next encoded char in 'txt'.
 156:Middlewares/LVGL/GUI/lvgl/src/misc/lv_txt.h ****  *                NULL to use txt[0] as index
 157:Middlewares/LVGL/GUI/lvgl/src/misc/lv_txt.h ****  */
 158:Middlewares/LVGL/GUI/lvgl/src/misc/lv_txt.h **** void _lv_txt_encoded_letter_next_2(const char * txt, uint32_t * letter, uint32_t * letter_next, uin
 159:Middlewares/LVGL/GUI/lvgl/src/misc/lv_txt.h **** 
 160:Middlewares/LVGL/GUI/lvgl/src/misc/lv_txt.h **** /**
 161:Middlewares/LVGL/GUI/lvgl/src/misc/lv_txt.h ****  * Test if char is break char or not (a text can broken here or not)
 162:Middlewares/LVGL/GUI/lvgl/src/misc/lv_txt.h ****  * @param letter a letter
 163:Middlewares/LVGL/GUI/lvgl/src/misc/lv_txt.h ****  * @return false: 'letter' is not break char
 164:Middlewares/LVGL/GUI/lvgl/src/misc/lv_txt.h ****  */
 165:Middlewares/LVGL/GUI/lvgl/src/misc/lv_txt.h **** static inline bool _lv_txt_is_break_char(uint32_t letter)
 1252              		.loc 3 165 20 is_stmt 1 view .LVU397
 1253              	.LBB21:
 166:Middlewares/LVGL/GUI/lvgl/src/misc/lv_txt.h **** {
 167:Middlewares/LVGL/GUI/lvgl/src/misc/lv_txt.h ****     uint8_t i;
 1254              		.loc 3 167 5 view .LVU398
 168:Middlewares/LVGL/GUI/lvgl/src/misc/lv_txt.h ****     bool ret = false;
ARM GAS  C:\Users\ADMINI~1\AppData\Local\Temp\ccPT3swg.s 			page 47


 1255              		.loc 3 168 5 view .LVU399
 169:Middlewares/LVGL/GUI/lvgl/src/misc/lv_txt.h **** 
 170:Middlewares/LVGL/GUI/lvgl/src/misc/lv_txt.h ****     /* each chinese character can be break */
 171:Middlewares/LVGL/GUI/lvgl/src/misc/lv_txt.h ****     if(letter >= 0x4E00 && letter <= 0x9FA5) {
 1256              		.loc 3 171 5 view .LVU400
 1257              		.loc 3 171 25 is_stmt 0 view .LVU401
 1258 007c A4F59C42 		sub	r2, r4, #19968
 1259              		.loc 3 171 7 view .LVU402
 1260 0080 45F2A513 		movw	r3, #20901
 1261 0084 9A42     		cmp	r2, r3
 1262 0086 35D9     		bls	.L98
 172:Middlewares/LVGL/GUI/lvgl/src/misc/lv_txt.h ****         return true;
 173:Middlewares/LVGL/GUI/lvgl/src/misc/lv_txt.h ****     }
 174:Middlewares/LVGL/GUI/lvgl/src/misc/lv_txt.h **** 
 175:Middlewares/LVGL/GUI/lvgl/src/misc/lv_txt.h ****     /*Compare the letter to TXT_BREAK_CHARS*/
 176:Middlewares/LVGL/GUI/lvgl/src/misc/lv_txt.h ****     for(i = 0; LV_TXT_BREAK_CHARS[i] != '\0'; i++) {
 1263              		.loc 3 176 11 view .LVU403
 1264 0088 0023     		movs	r3, #0
 1265              	.L99:
 1266              	.LVL117:
 1267              		.loc 3 176 16 is_stmt 1 view .LVU404
 1268              		.loc 3 176 34 is_stmt 0 view .LVU405
 1269 008a 334A     		ldr	r2, .L125+4
 1270 008c D25C     		ldrb	r2, [r2, r3]	@ zero_extendqisi2
 1271              		.loc 3 176 5 view .LVU406
 1272 008e 62B1     		cbz	r2, .L120
 177:Middlewares/LVGL/GUI/lvgl/src/misc/lv_txt.h ****         if(letter == (uint32_t)LV_TXT_BREAK_CHARS[i]) {
 1273              		.loc 3 177 9 is_stmt 1 view .LVU407
 1274              		.loc 3 177 11 is_stmt 0 view .LVU408
 1275 0090 9442     		cmp	r4, r2
 1276 0092 2DD0     		beq	.L114
 176:Middlewares/LVGL/GUI/lvgl/src/misc/lv_txt.h ****         if(letter == (uint32_t)LV_TXT_BREAK_CHARS[i]) {
 1277              		.loc 3 176 47 is_stmt 1 view .LVU409
 176:Middlewares/LVGL/GUI/lvgl/src/misc/lv_txt.h ****         if(letter == (uint32_t)LV_TXT_BREAK_CHARS[i]) {
 1278              		.loc 3 176 48 is_stmt 0 view .LVU410
 1279 0094 0133     		adds	r3, r3, #1
 1280              	.LVL118:
 176:Middlewares/LVGL/GUI/lvgl/src/misc/lv_txt.h ****         if(letter == (uint32_t)LV_TXT_BREAK_CHARS[i]) {
 1281              		.loc 3 176 48 view .LVU411
 1282 0096 DBB2     		uxtb	r3, r3
 1283              	.LVL119:
 176:Middlewares/LVGL/GUI/lvgl/src/misc/lv_txt.h ****         if(letter == (uint32_t)LV_TXT_BREAK_CHARS[i]) {
 1284              		.loc 3 176 48 view .LVU412
 1285 0098 F7E7     		b	.L99
 1286              	.LVL120:
 1287              	.L119:
 176:Middlewares/LVGL/GUI/lvgl/src/misc/lv_txt.h ****         if(letter == (uint32_t)LV_TXT_BREAK_CHARS[i]) {
 1288              		.loc 3 176 48 view .LVU413
 1289              	.LBE21:
 1290              	.LBE20:
 214:Middlewares/LVGL/GUI/lvgl/src/misc/lv_txt.c ****             break_index = i;
 1291              		.loc 1 214 52 discriminator 1 view .LVU414
 1292 009a 039B     		ldr	r3, [sp, #12]
 1293 009c A8EB0303 		sub	r3, r8, r3
 214:Middlewares/LVGL/GUI/lvgl/src/misc/lv_txt.c ****             break_index = i;
 1294              		.loc 1 214 42 discriminator 1 view .LVU415
 1295 00a0 049A     		ldr	r2, [sp, #16]
ARM GAS  C:\Users\ADMINI~1\AppData\Local\Temp\ccPT3swg.s 			page 48


 1296 00a2 9342     		cmp	r3, r2
 1297 00a4 E6DD     		ble	.L97
 215:Middlewares/LVGL/GUI/lvgl/src/misc/lv_txt.c ****             break_letter_count = word_len - 1;
 1298              		.loc 1 215 25 view .LVU416
 1299 00a6 2F46     		mov	r7, r5
 1300              	.LVL121:
 215:Middlewares/LVGL/GUI/lvgl/src/misc/lv_txt.c ****             break_letter_count = word_len - 1;
 1301              		.loc 1 215 25 view .LVU417
 1302 00a8 E4E7     		b	.L97
 1303              	.LVL122:
 1304              	.L120:
 1305              	.LBB25:
 1306              	.LBB22:
 168:Middlewares/LVGL/GUI/lvgl/src/misc/lv_txt.h **** 
 1307              		.loc 3 168 10 view .LVU418
 1308 00aa 0023     		movs	r3, #0
 1309              	.LVL123:
 1310              	.L100:
 168:Middlewares/LVGL/GUI/lvgl/src/misc/lv_txt.h **** 
 1311              		.loc 3 168 10 view .LVU419
 1312              	.LBE22:
 1313              	.LBE25:
 221:Middlewares/LVGL/GUI/lvgl/src/misc/lv_txt.c ****             /*Update the output width on the first character if it fits.
 1314              		.loc 1 221 45 view .LVU420
 1315 00ac 13BB     		cbnz	r3, .L98
 230:Middlewares/LVGL/GUI/lvgl/src/misc/lv_txt.c **** 
 1316              		.loc 1 230 9 is_stmt 1 view .LVU421
 230:Middlewares/LVGL/GUI/lvgl/src/misc/lv_txt.c **** 
 1317              		.loc 1 230 11 is_stmt 0 view .LVU422
 1318 00ae 139B     		ldr	r3, [sp, #76]
 1319 00b0 13B1     		cbz	r3, .L104
 230:Middlewares/LVGL/GUI/lvgl/src/misc/lv_txt.c **** 
 1320              		.loc 1 230 31 discriminator 1 view .LVU423
 1321 00b2 B7F1FF3F 		cmp	r7, #-1
 1322 00b6 31D0     		beq	.L121
 1323              	.L104:
 232:Middlewares/LVGL/GUI/lvgl/src/misc/lv_txt.c ****         i_next = i_next_next;
 1324              		.loc 1 232 9 is_stmt 1 view .LVU424
 232:Middlewares/LVGL/GUI/lvgl/src/misc/lv_txt.c ****         i_next = i_next_next;
 1325              		.loc 1 232 11 is_stmt 0 view .LVU425
 1326 00b8 079D     		ldr	r5, [sp, #28]
 1327              	.LVL124:
 233:Middlewares/LVGL/GUI/lvgl/src/misc/lv_txt.c ****         letter = letter_next;
 1328              		.loc 1 233 9 is_stmt 1 view .LVU426
 233:Middlewares/LVGL/GUI/lvgl/src/misc/lv_txt.c ****         letter = letter_next;
 1329              		.loc 1 233 16 is_stmt 0 view .LVU427
 1330 00ba 069B     		ldr	r3, [sp, #24]
 1331 00bc 0793     		str	r3, [sp, #28]
 234:Middlewares/LVGL/GUI/lvgl/src/misc/lv_txt.c ****     }
 1332              		.loc 1 234 9 is_stmt 1 view .LVU428
 1333              	.LVL125:
 1334              	.L95:
 1335              	.LBB26:
 1336              	.LBB23:
 168:Middlewares/LVGL/GUI/lvgl/src/misc/lv_txt.h **** 
 1337              		.loc 3 168 10 is_stmt 0 view .LVU429
 1338 00be D946     		mov	r9, fp
ARM GAS  C:\Users\ADMINI~1\AppData\Local\Temp\ccPT3swg.s 			page 49


 1339 00c0 019C     		ldr	r4, [sp, #4]
 1340              	.LVL126:
 1341              	.L93:
 168:Middlewares/LVGL/GUI/lvgl/src/misc/lv_txt.h **** 
 1342              		.loc 3 168 10 view .LVU430
 1343              	.LBE23:
 1344              	.LBE26:
 192:Middlewares/LVGL/GUI/lvgl/src/misc/lv_txt.c ****         letter_next = _lv_txt_encoded_next(txt, &i_next_next);
 1345              		.loc 1 192 10 is_stmt 1 view .LVU431
 192:Middlewares/LVGL/GUI/lvgl/src/misc/lv_txt.c ****         letter_next = _lv_txt_encoded_next(txt, &i_next_next);
 1346              		.loc 1 192 14 is_stmt 0 view .LVU432
 1347 00c2 735D     		ldrb	r3, [r6, r5]	@ zero_extendqisi2
 192:Middlewares/LVGL/GUI/lvgl/src/misc/lv_txt.c ****         letter_next = _lv_txt_encoded_next(txt, &i_next_next);
 1348              		.loc 1 192 10 view .LVU433
 1349 00c4 D3B1     		cbz	r3, .L103
 193:Middlewares/LVGL/GUI/lvgl/src/misc/lv_txt.c ****         word_len++;
 1350              		.loc 1 193 9 is_stmt 1 view .LVU434
 193:Middlewares/LVGL/GUI/lvgl/src/misc/lv_txt.c ****         word_len++;
 1351              		.loc 1 193 23 is_stmt 0 view .LVU435
 1352 00c6 234B     		ldr	r3, .L125
 1353 00c8 1B68     		ldr	r3, [r3]
 1354 00ca 06A9     		add	r1, sp, #24
 1355 00cc 3046     		mov	r0, r6
 1356 00ce 9847     		blx	r3
 1357              	.LVL127:
 1358 00d0 0190     		str	r0, [sp, #4]
 1359              	.LVL128:
 194:Middlewares/LVGL/GUI/lvgl/src/misc/lv_txt.c **** 
 1360              		.loc 1 194 9 is_stmt 1 view .LVU436
 194:Middlewares/LVGL/GUI/lvgl/src/misc/lv_txt.c **** 
 1361              		.loc 1 194 17 is_stmt 0 view .LVU437
 1362 00d2 09F1010B 		add	fp, r9, #1
 1363              	.LVL129:
 197:Middlewares/LVGL/GUI/lvgl/src/misc/lv_txt.c ****             if(_lv_txt_is_cmd(cmd_state, letter) != false) {
 1364              		.loc 1 197 9 is_stmt 1 view .LVU438
 197:Middlewares/LVGL/GUI/lvgl/src/misc/lv_txt.c ****             if(_lv_txt_is_cmd(cmd_state, letter) != false) {
 1365              		.loc 1 197 11 is_stmt 0 view .LVU439
 1366 00d6 1AF0010F 		tst	r10, #1
 1367 00da BED0     		beq	.L94
 198:Middlewares/LVGL/GUI/lvgl/src/misc/lv_txt.c ****                 i = i_next;
 1368              		.loc 1 198 13 is_stmt 1 view .LVU440
 198:Middlewares/LVGL/GUI/lvgl/src/misc/lv_txt.c ****                 i = i_next;
 1369              		.loc 1 198 16 is_stmt 0 view .LVU441
 1370 00dc 2146     		mov	r1, r4
 1371 00de 1498     		ldr	r0, [sp, #80]
 1372              	.LVL130:
 198:Middlewares/LVGL/GUI/lvgl/src/misc/lv_txt.c ****                 i = i_next;
 1373              		.loc 1 198 16 view .LVU442
 1374 00e0 FFF7FEFF 		bl	_lv_txt_is_cmd
 1375              	.LVL131:
 198:Middlewares/LVGL/GUI/lvgl/src/misc/lv_txt.c ****                 i = i_next;
 1376              		.loc 1 198 15 view .LVU443
 1377 00e4 0028     		cmp	r0, #0
 1378 00e6 B8D0     		beq	.L94
 199:Middlewares/LVGL/GUI/lvgl/src/misc/lv_txt.c ****                 i_next = i_next_next;
 1379              		.loc 1 199 17 is_stmt 1 view .LVU444
 199:Middlewares/LVGL/GUI/lvgl/src/misc/lv_txt.c ****                 i_next = i_next_next;
ARM GAS  C:\Users\ADMINI~1\AppData\Local\Temp\ccPT3swg.s 			page 50


 1380              		.loc 1 199 19 is_stmt 0 view .LVU445
 1381 00e8 079D     		ldr	r5, [sp, #28]
 1382              	.LVL132:
 200:Middlewares/LVGL/GUI/lvgl/src/misc/lv_txt.c ****                 letter = letter_next;
 1383              		.loc 1 200 17 is_stmt 1 view .LVU446
 200:Middlewares/LVGL/GUI/lvgl/src/misc/lv_txt.c ****                 letter = letter_next;
 1384              		.loc 1 200 24 is_stmt 0 view .LVU447
 1385 00ea 069B     		ldr	r3, [sp, #24]
 1386 00ec 0793     		str	r3, [sp, #28]
 201:Middlewares/LVGL/GUI/lvgl/src/misc/lv_txt.c ****                 continue;   /*Skip the letter if it is part of a command*/
 1387              		.loc 1 201 17 is_stmt 1 view .LVU448
 1388              	.LVL133:
 202:Middlewares/LVGL/GUI/lvgl/src/misc/lv_txt.c ****             }
 1389              		.loc 1 202 17 view .LVU449
 1390 00ee E6E7     		b	.L95
 1391              	.LVL134:
 1392              	.L114:
 1393              	.LBB27:
 1394              	.LBB24:
 178:Middlewares/LVGL/GUI/lvgl/src/misc/lv_txt.h ****             ret = true; /*If match then it is break char*/
 1395              		.loc 3 178 17 is_stmt 0 view .LVU450
 1396 00f0 0123     		movs	r3, #1
 1397              	.LVL135:
 1398              		.loc 3 178 17 view .LVU451
 1399 00f2 DBE7     		b	.L100
 1400              	.LVL136:
 1401              	.L98:
 1402              		.loc 3 178 17 view .LVU452
 1403              	.LBE24:
 1404              	.LBE27:
 224:Middlewares/LVGL/GUI/lvgl/src/misc/lv_txt.c ****             word_len--;
 1405              		.loc 1 224 13 is_stmt 1 view .LVU453
 224:Middlewares/LVGL/GUI/lvgl/src/misc/lv_txt.c ****             word_len--;
 1406              		.loc 1 224 15 is_stmt 0 view .LVU454
 1407 00f4 15B9     		cbnz	r5, .L103
 224:Middlewares/LVGL/GUI/lvgl/src/misc/lv_txt.c ****             word_len--;
 1408              		.loc 1 224 23 discriminator 1 view .LVU455
 1409 00f6 B7F1FF3F 		cmp	r7, #-1
 1410 00fa 09D0     		beq	.L122
 1411              	.LVL137:
 1412              	.L103:
 238:Middlewares/LVGL/GUI/lvgl/src/misc/lv_txt.c ****         if(word_len == 0 || (letter == '\r' && letter_next == '\n')) i = i_next;
 1413              		.loc 1 238 5 is_stmt 1 view .LVU456
 238:Middlewares/LVGL/GUI/lvgl/src/misc/lv_txt.c ****         if(word_len == 0 || (letter == '\r' && letter_next == '\n')) i = i_next;
 1414              		.loc 1 238 7 is_stmt 0 view .LVU457
 1415 00fc B7F1FF3F 		cmp	r7, #-1
 1416 0100 0FD0     		beq	.L123
 271:Middlewares/LVGL/GUI/lvgl/src/misc/lv_txt.c ****     if(word_w_ptr != NULL) *word_w_ptr = 0; /*Return no word*/
 1417              		.loc 1 271 5 is_stmt 1 view .LVU458
 271:Middlewares/LVGL/GUI/lvgl/src/misc/lv_txt.c ****     if(word_w_ptr != NULL) *word_w_ptr = 0; /*Return no word*/
 1418              		.loc 1 271 7 is_stmt 0 view .LVU459
 1419 0102 059B     		ldr	r3, [sp, #20]
 1420 0104 F3B9     		cbnz	r3, .L90
 272:Middlewares/LVGL/GUI/lvgl/src/misc/lv_txt.c ****     (void) break_letter_count;
 1421              		.loc 1 272 5 is_stmt 1 view .LVU460
 272:Middlewares/LVGL/GUI/lvgl/src/misc/lv_txt.c ****     (void) break_letter_count;
 1422              		.loc 1 272 7 is_stmt 0 view .LVU461
ARM GAS  C:\Users\ADMINI~1\AppData\Local\Temp\ccPT3swg.s 			page 51


 1423 0106 139B     		ldr	r3, [sp, #76]
 1424 0108 13B3     		cbz	r3, .L117
 272:Middlewares/LVGL/GUI/lvgl/src/misc/lv_txt.c ****     (void) break_letter_count;
 1425              		.loc 1 272 28 is_stmt 1 discriminator 1 view .LVU462
 272:Middlewares/LVGL/GUI/lvgl/src/misc/lv_txt.c ****     (void) break_letter_count;
 1426              		.loc 1 272 40 is_stmt 0 discriminator 1 view .LVU463
 1427 010a 0027     		movs	r7, #0
 1428              	.LVL138:
 272:Middlewares/LVGL/GUI/lvgl/src/misc/lv_txt.c ****     (void) break_letter_count;
 1429              		.loc 1 272 40 discriminator 1 view .LVU464
 1430 010c 1F60     		str	r7, [r3]
 1431 010e 19E0     		b	.L90
 1432              	.LVL139:
 1433              	.L122:
 224:Middlewares/LVGL/GUI/lvgl/src/misc/lv_txt.c ****             word_len--;
 1434              		.loc 1 224 56 discriminator 2 view .LVU465
 1435 0110 139B     		ldr	r3, [sp, #76]
 1436 0112 002B     		cmp	r3, #0
 1437 0114 F2D0     		beq	.L103
 224:Middlewares/LVGL/GUI/lvgl/src/misc/lv_txt.c ****             word_len--;
 1438              		.loc 1 224 79 is_stmt 1 discriminator 3 view .LVU466
 224:Middlewares/LVGL/GUI/lvgl/src/misc/lv_txt.c ****             word_len--;
 1439              		.loc 1 224 91 is_stmt 0 discriminator 3 view .LVU467
 1440 0116 C3F80080 		str	r8, [r3]
 1441 011a EFE7     		b	.L103
 1442              	.L121:
 230:Middlewares/LVGL/GUI/lvgl/src/misc/lv_txt.c **** 
 1443              		.loc 1 230 65 is_stmt 1 discriminator 2 view .LVU468
 230:Middlewares/LVGL/GUI/lvgl/src/misc/lv_txt.c **** 
 1444              		.loc 1 230 77 is_stmt 0 discriminator 2 view .LVU469
 1445 011c C3F80080 		str	r8, [r3]
 1446 0120 CAE7     		b	.L104
 1447              	.LVL140:
 1448              	.L123:
 239:Middlewares/LVGL/GUI/lvgl/src/misc/lv_txt.c ****         return i;
 1449              		.loc 1 239 9 is_stmt 1 view .LVU470
 239:Middlewares/LVGL/GUI/lvgl/src/misc/lv_txt.c ****         return i;
 1450              		.loc 1 239 11 is_stmt 0 view .LVU471
 1451 0122 B9F1000F 		cmp	r9, #0
 1452 0126 08D0     		beq	.L107
 239:Middlewares/LVGL/GUI/lvgl/src/misc/lv_txt.c ****         return i;
 1453              		.loc 1 239 26 discriminator 2 view .LVU472
 1454 0128 0D2C     		cmp	r4, #13
 1455 012a 01D0     		beq	.L124
 1456 012c 2F46     		mov	r7, r5
 1457              	.LVL141:
 239:Middlewares/LVGL/GUI/lvgl/src/misc/lv_txt.c ****         return i;
 1458              		.loc 1 239 26 discriminator 2 view .LVU473
 1459 012e 09E0     		b	.L90
 1460              	.LVL142:
 1461              	.L124:
 239:Middlewares/LVGL/GUI/lvgl/src/misc/lv_txt.c ****         return i;
 1462              		.loc 1 239 45 discriminator 3 view .LVU474
 1463 0130 019B     		ldr	r3, [sp, #4]
 1464 0132 0A2B     		cmp	r3, #10
 1465 0134 01D0     		beq	.L107
 1466 0136 2F46     		mov	r7, r5
ARM GAS  C:\Users\ADMINI~1\AppData\Local\Temp\ccPT3swg.s 			page 52


 1467              	.LVL143:
 240:Middlewares/LVGL/GUI/lvgl/src/misc/lv_txt.c ****     }
 1468              		.loc 1 240 9 is_stmt 1 view .LVU475
 240:Middlewares/LVGL/GUI/lvgl/src/misc/lv_txt.c ****     }
 1469              		.loc 1 240 16 is_stmt 0 view .LVU476
 1470 0138 04E0     		b	.L90
 1471              	.LVL144:
 1472              	.L107:
 239:Middlewares/LVGL/GUI/lvgl/src/misc/lv_txt.c ****         return i;
 1473              		.loc 1 239 70 is_stmt 1 discriminator 4 view .LVU477
 239:Middlewares/LVGL/GUI/lvgl/src/misc/lv_txt.c ****         return i;
 1474              		.loc 1 239 72 is_stmt 0 discriminator 4 view .LVU478
 1475 013a 079F     		ldr	r7, [sp, #28]
 1476              	.LVL145:
 239:Middlewares/LVGL/GUI/lvgl/src/misc/lv_txt.c ****         return i;
 1477              		.loc 1 239 72 discriminator 4 view .LVU479
 1478 013c 02E0     		b	.L90
 1479              	.LVL146:
 1480              	.L109:
 174:Middlewares/LVGL/GUI/lvgl/src/misc/lv_txt.c ****     if(font == NULL) return 0;
 1481              		.loc 1 174 46 view .LVU480
 1482 013e 0027     		movs	r7, #0
 1483 0140 00E0     		b	.L90
 1484              	.L110:
 174:Middlewares/LVGL/GUI/lvgl/src/misc/lv_txt.c ****     if(font == NULL) return 0;
 1485              		.loc 1 174 46 view .LVU481
 1486 0142 0027     		movs	r7, #0
 1487              	.LVL147:
 1488              	.L90:
 276:Middlewares/LVGL/GUI/lvgl/src/misc/lv_txt.c **** 
 1489              		.loc 1 276 1 view .LVU482
 1490 0144 3846     		mov	r0, r7
 1491 0146 09B0     		add	sp, sp, #36
 1492              	.LCFI23:
 1493              		.cfi_remember_state
 1494              		.cfi_def_cfa_offset 36
 1495              		@ sp needed
 1496 0148 BDE8F08F 		pop	{r4, r5, r6, r7, r8, r9, r10, fp, pc}
 1497              	.LVL148:
 1498              	.L111:
 1499              	.LCFI24:
 1500              		.cfi_restore_state
 175:Middlewares/LVGL/GUI/lvgl/src/misc/lv_txt.c **** 
 1501              		.loc 1 175 29 view .LVU483
 1502 014c 0027     		movs	r7, #0
 1503 014e F9E7     		b	.L90
 1504              	.LVL149:
 1505              	.L117:
 274:Middlewares/LVGL/GUI/lvgl/src/misc/lv_txt.c **** #endif
 1506              		.loc 1 274 12 view .LVU484
 1507 0150 0027     		movs	r7, #0
 1508              	.LVL150:
 274:Middlewares/LVGL/GUI/lvgl/src/misc/lv_txt.c **** #endif
 1509              		.loc 1 274 12 view .LVU485
 1510 0152 F7E7     		b	.L90
 1511              	.L126:
 1512              		.align	2
ARM GAS  C:\Users\ADMINI~1\AppData\Local\Temp\ccPT3swg.s 			page 53


 1513              	.L125:
 1514 0154 00000000 		.word	.LANCHOR1
 1515 0158 00000000 		.word	.LC0
 1516              		.cfi_endproc
 1517              	.LFE54:
 1519              		.section	.text._lv_txt_get_next_line,"ax",%progbits
 1520              		.align	1
 1521              		.global	_lv_txt_get_next_line
 1522              		.syntax unified
 1523              		.thumb
 1524              		.thumb_func
 1526              	_lv_txt_get_next_line:
 1527              	.LVL151:
 1528              	.LFB55:
 281:Middlewares/LVGL/GUI/lvgl/src/misc/lv_txt.c ****     if(used_width) *used_width = 0;
 1529              		.loc 1 281 1 is_stmt 1 view -0
 1530              		.cfi_startproc
 1531              		@ args = 8, pretend = 0, frame = 16
 1532              		@ frame_needed = 0, uses_anonymous_args = 0
 281:Middlewares/LVGL/GUI/lvgl/src/misc/lv_txt.c ****     if(used_width) *used_width = 0;
 1533              		.loc 1 281 1 is_stmt 0 view .LVU487
 1534 0000 2DE9F04F 		push	{r4, r5, r6, r7, r8, r9, r10, fp, lr}
 1535              	.LCFI25:
 1536              		.cfi_def_cfa_offset 36
 1537              		.cfi_offset 4, -36
 1538              		.cfi_offset 5, -32
 1539              		.cfi_offset 6, -28
 1540              		.cfi_offset 7, -24
 1541              		.cfi_offset 8, -20
 1542              		.cfi_offset 9, -16
 1543              		.cfi_offset 10, -12
 1544              		.cfi_offset 11, -8
 1545              		.cfi_offset 14, -4
 1546 0004 89B0     		sub	sp, sp, #36
 1547              	.LCFI26:
 1548              		.cfi_def_cfa_offset 72
 1549 0006 0546     		mov	r5, r0
 1550 0008 8846     		mov	r8, r1
 1551 000a 9146     		mov	r9, r2
 1552 000c 1E46     		mov	r6, r3
 1553 000e DDF848B0 		ldr	fp, [sp, #72]
 1554 0012 9DF84CA0 		ldrb	r10, [sp, #76]	@ zero_extendqisi2
 282:Middlewares/LVGL/GUI/lvgl/src/misc/lv_txt.c **** 
 1555              		.loc 1 282 5 is_stmt 1 view .LVU488
 282:Middlewares/LVGL/GUI/lvgl/src/misc/lv_txt.c **** 
 1556              		.loc 1 282 7 is_stmt 0 view .LVU489
 1557 0016 BBF1000F 		cmp	fp, #0
 1558 001a 02D0     		beq	.L128
 282:Middlewares/LVGL/GUI/lvgl/src/misc/lv_txt.c **** 
 1559              		.loc 1 282 20 is_stmt 1 discriminator 1 view .LVU490
 282:Middlewares/LVGL/GUI/lvgl/src/misc/lv_txt.c **** 
 1560              		.loc 1 282 32 is_stmt 0 discriminator 1 view .LVU491
 1561 001c 0023     		movs	r3, #0
 1562              	.LVL152:
 282:Middlewares/LVGL/GUI/lvgl/src/misc/lv_txt.c **** 
 1563              		.loc 1 282 32 discriminator 1 view .LVU492
 1564 001e CBF80030 		str	r3, [fp]
ARM GAS  C:\Users\ADMINI~1\AppData\Local\Temp\ccPT3swg.s 			page 54


 1565              	.L128:
 284:Middlewares/LVGL/GUI/lvgl/src/misc/lv_txt.c ****     if(txt[0] == '\0') return 0;
 1566              		.loc 1 284 5 is_stmt 1 view .LVU493
 284:Middlewares/LVGL/GUI/lvgl/src/misc/lv_txt.c ****     if(txt[0] == '\0') return 0;
 1567              		.loc 1 284 7 is_stmt 0 view .LVU494
 1568 0022 002D     		cmp	r5, #0
 1569 0024 6AD0     		beq	.L145
 285:Middlewares/LVGL/GUI/lvgl/src/misc/lv_txt.c ****     if(font == NULL) return 0;
 1570              		.loc 1 285 5 is_stmt 1 view .LVU495
 285:Middlewares/LVGL/GUI/lvgl/src/misc/lv_txt.c ****     if(font == NULL) return 0;
 1571              		.loc 1 285 11 is_stmt 0 view .LVU496
 1572 0026 2B78     		ldrb	r3, [r5]	@ zero_extendqisi2
 285:Middlewares/LVGL/GUI/lvgl/src/misc/lv_txt.c ****     if(font == NULL) return 0;
 1573              		.loc 1 285 7 view .LVU497
 1574 0028 002B     		cmp	r3, #0
 1575 002a 69D0     		beq	.L146
 286:Middlewares/LVGL/GUI/lvgl/src/misc/lv_txt.c **** 
 1576              		.loc 1 286 5 is_stmt 1 view .LVU498
 286:Middlewares/LVGL/GUI/lvgl/src/misc/lv_txt.c **** 
 1577              		.loc 1 286 7 is_stmt 0 view .LVU499
 1578 002c B8F1000F 		cmp	r8, #0
 1579 0030 68D0     		beq	.L147
 288:Middlewares/LVGL/GUI/lvgl/src/misc/lv_txt.c **** 
 1580              		.loc 1 288 5 is_stmt 1 view .LVU500
 1581              	.LVL153:
 292:Middlewares/LVGL/GUI/lvgl/src/misc/lv_txt.c ****         uint32_t i;
 1582              		.loc 1 292 5 view .LVU501
 292:Middlewares/LVGL/GUI/lvgl/src/misc/lv_txt.c ****         uint32_t i;
 1583              		.loc 1 292 7 is_stmt 0 view .LVU502
 1584 0032 1AF0060F 		tst	r10, #6
 1585 0036 5FD1     		bne	.L152
 302:Middlewares/LVGL/GUI/lvgl/src/misc/lv_txt.c ****     lv_text_cmd_state_t cmd_state = LV_TEXT_CMD_STATE_WAIT;
 1586              		.loc 1 302 5 is_stmt 1 view .LVU503
 302:Middlewares/LVGL/GUI/lvgl/src/misc/lv_txt.c ****     lv_text_cmd_state_t cmd_state = LV_TEXT_CMD_STATE_WAIT;
 1587              		.loc 1 302 7 is_stmt 0 view .LVU504
 1588 0038 1AF0020F 		tst	r10, #2
 1589 003c 01D0     		beq	.L136
 302:Middlewares/LVGL/GUI/lvgl/src/misc/lv_txt.c ****     lv_text_cmd_state_t cmd_state = LV_TEXT_CMD_STATE_WAIT;
 1590              		.loc 1 302 46 view .LVU505
 1591 003e 6FF06046 		mvn	r6, #-536870912
 1592              	.LVL154:
 1593              	.L136:
 303:Middlewares/LVGL/GUI/lvgl/src/misc/lv_txt.c ****     uint32_t i = 0;                                        /*Iterating index into txt*/
 1594              		.loc 1 303 5 is_stmt 1 view .LVU506
 303:Middlewares/LVGL/GUI/lvgl/src/misc/lv_txt.c ****     uint32_t i = 0;                                        /*Iterating index into txt*/
 1595              		.loc 1 303 25 is_stmt 0 view .LVU507
 1596 0042 0027     		movs	r7, #0
 1597 0044 8DF81F70 		strb	r7, [sp, #31]
 304:Middlewares/LVGL/GUI/lvgl/src/misc/lv_txt.c **** 
 1598              		.loc 1 304 5 is_stmt 1 view .LVU508
 304:Middlewares/LVGL/GUI/lvgl/src/misc/lv_txt.c **** 
 1599              		.loc 1 304 14 is_stmt 0 view .LVU509
 1600 0048 0697     		str	r7, [sp, #24]
 306:Middlewares/LVGL/GUI/lvgl/src/misc/lv_txt.c ****         uint32_t word_w = 0;
 1601              		.loc 1 306 5 is_stmt 1 view .LVU510
 1602              	.LVL155:
 1603              	.L137:
ARM GAS  C:\Users\ADMINI~1\AppData\Local\Temp\ccPT3swg.s 			page 55


 306:Middlewares/LVGL/GUI/lvgl/src/misc/lv_txt.c ****         uint32_t word_w = 0;
 1604              		.loc 1 306 10 view .LVU511
 306:Middlewares/LVGL/GUI/lvgl/src/misc/lv_txt.c ****         uint32_t word_w = 0;
 1605              		.loc 1 306 14 is_stmt 0 view .LVU512
 1606 004a 069C     		ldr	r4, [sp, #24]
 1607 004c 2819     		adds	r0, r5, r4
 1608 004e 2B5D     		ldrb	r3, [r5, r4]	@ zero_extendqisi2
 306:Middlewares/LVGL/GUI/lvgl/src/misc/lv_txt.c ****         uint32_t word_w = 0;
 1609              		.loc 1 306 10 view .LVU513
 1610 0050 3BB3     		cbz	r3, .L141
 306:Middlewares/LVGL/GUI/lvgl/src/misc/lv_txt.c ****         uint32_t word_w = 0;
 1611              		.loc 1 306 26 discriminator 1 view .LVU514
 1612 0052 002E     		cmp	r6, #0
 1613 0054 25DD     		ble	.L141
 1614              	.LBB28:
 307:Middlewares/LVGL/GUI/lvgl/src/misc/lv_txt.c ****         uint32_t advance = lv_txt_get_next_word(&txt[i], font, letter_space, max_width, flag, &word
 1615              		.loc 1 307 9 is_stmt 1 view .LVU515
 307:Middlewares/LVGL/GUI/lvgl/src/misc/lv_txt.c ****         uint32_t advance = lv_txt_get_next_word(&txt[i], font, letter_space, max_width, flag, &word
 1616              		.loc 1 307 18 is_stmt 0 view .LVU516
 1617 0056 0023     		movs	r3, #0
 1618 0058 0593     		str	r3, [sp, #20]
 308:Middlewares/LVGL/GUI/lvgl/src/misc/lv_txt.c ****         max_width -= word_w;
 1619              		.loc 1 308 9 is_stmt 1 view .LVU517
 308:Middlewares/LVGL/GUI/lvgl/src/misc/lv_txt.c ****         max_width -= word_w;
 1620              		.loc 1 308 28 is_stmt 0 view .LVU518
 1621 005a B4FA84F4 		clz	r4, r4
 1622 005e 6409     		lsrs	r4, r4, #5
 1623 0060 0394     		str	r4, [sp, #12]
 1624 0062 0DF11F03 		add	r3, sp, #31
 1625 0066 0293     		str	r3, [sp, #8]
 1626 0068 05AB     		add	r3, sp, #20
 1627 006a 0193     		str	r3, [sp, #4]
 1628 006c CDF800A0 		str	r10, [sp]
 1629 0070 3346     		mov	r3, r6
 1630 0072 4A46     		mov	r2, r9
 1631 0074 4146     		mov	r1, r8
 1632 0076 FFF7FEFF 		bl	lv_txt_get_next_word
 1633              	.LVL156:
 309:Middlewares/LVGL/GUI/lvgl/src/misc/lv_txt.c ****         line_w += word_w;
 1634              		.loc 1 309 9 is_stmt 1 view .LVU519
 309:Middlewares/LVGL/GUI/lvgl/src/misc/lv_txt.c ****         line_w += word_w;
 1635              		.loc 1 309 19 is_stmt 0 view .LVU520
 1636 007a 059B     		ldr	r3, [sp, #20]
 1637 007c F61A     		subs	r6, r6, r3
 1638              	.LVL157:
 310:Middlewares/LVGL/GUI/lvgl/src/misc/lv_txt.c **** 
 1639              		.loc 1 310 9 is_stmt 1 view .LVU521
 310:Middlewares/LVGL/GUI/lvgl/src/misc/lv_txt.c **** 
 1640              		.loc 1 310 16 is_stmt 0 view .LVU522
 1641 007e 1F44     		add	r7, r7, r3
 1642              	.LVL158:
 312:Middlewares/LVGL/GUI/lvgl/src/misc/lv_txt.c ****             break;
 1643              		.loc 1 312 9 is_stmt 1 view .LVU523
 312:Middlewares/LVGL/GUI/lvgl/src/misc/lv_txt.c ****             break;
 1644              		.loc 1 312 11 is_stmt 0 view .LVU524
 1645 0080 0346     		mov	r3, r0
 1646 0082 70B1     		cbz	r0, .L141
ARM GAS  C:\Users\ADMINI~1\AppData\Local\Temp\ccPT3swg.s 			page 56


 316:Middlewares/LVGL/GUI/lvgl/src/misc/lv_txt.c **** 
 1647              		.loc 1 316 9 is_stmt 1 view .LVU525
 316:Middlewares/LVGL/GUI/lvgl/src/misc/lv_txt.c **** 
 1648              		.loc 1 316 11 is_stmt 0 view .LVU526
 1649 0084 069A     		ldr	r2, [sp, #24]
 1650 0086 1344     		add	r3, r3, r2
 1651 0088 0693     		str	r3, [sp, #24]
 318:Middlewares/LVGL/GUI/lvgl/src/misc/lv_txt.c **** 
 1652              		.loc 1 318 9 is_stmt 1 view .LVU527
 318:Middlewares/LVGL/GUI/lvgl/src/misc/lv_txt.c **** 
 1653              		.loc 1 318 15 is_stmt 0 view .LVU528
 1654 008a 2A78     		ldrb	r2, [r5]	@ zero_extendqisi2
 318:Middlewares/LVGL/GUI/lvgl/src/misc/lv_txt.c **** 
 1655              		.loc 1 318 11 view .LVU529
 1656 008c 0A2A     		cmp	r2, #10
 1657 008e 08D0     		beq	.L141
 318:Middlewares/LVGL/GUI/lvgl/src/misc/lv_txt.c **** 
 1658              		.loc 1 318 27 discriminator 1 view .LVU530
 1659 0090 0D2A     		cmp	r2, #13
 1660 0092 06D0     		beq	.L141
 320:Middlewares/LVGL/GUI/lvgl/src/misc/lv_txt.c ****             i++;  /*Include the following newline in the current line*/
 1661              		.loc 1 320 9 is_stmt 1 view .LVU531
 320:Middlewares/LVGL/GUI/lvgl/src/misc/lv_txt.c ****             i++;  /*Include the following newline in the current line*/
 1662              		.loc 1 320 15 is_stmt 0 view .LVU532
 1663 0094 EA5C     		ldrb	r2, [r5, r3]	@ zero_extendqisi2
 320:Middlewares/LVGL/GUI/lvgl/src/misc/lv_txt.c ****             i++;  /*Include the following newline in the current line*/
 1664              		.loc 1 320 11 view .LVU533
 1665 0096 0A2A     		cmp	r2, #10
 1666 0098 01D0     		beq	.L139
 320:Middlewares/LVGL/GUI/lvgl/src/misc/lv_txt.c ****             i++;  /*Include the following newline in the current line*/
 1667              		.loc 1 320 27 discriminator 1 view .LVU534
 1668 009a 0D2A     		cmp	r2, #13
 1669 009c D5D1     		bne	.L137
 1670              	.L139:
 321:Middlewares/LVGL/GUI/lvgl/src/misc/lv_txt.c ****             break;
 1671              		.loc 1 321 13 is_stmt 1 view .LVU535
 321:Middlewares/LVGL/GUI/lvgl/src/misc/lv_txt.c ****             break;
 1672              		.loc 1 321 14 is_stmt 0 view .LVU536
 1673 009e 0133     		adds	r3, r3, #1
 1674 00a0 0693     		str	r3, [sp, #24]
 322:Middlewares/LVGL/GUI/lvgl/src/misc/lv_txt.c ****         }
 1675              		.loc 1 322 13 is_stmt 1 view .LVU537
 1676              	.LVL159:
 1677              	.L141:
 322:Middlewares/LVGL/GUI/lvgl/src/misc/lv_txt.c ****         }
 1678              		.loc 1 322 13 is_stmt 0 view .LVU538
 1679              	.LBE28:
 328:Middlewares/LVGL/GUI/lvgl/src/misc/lv_txt.c ****         uint32_t letter = _lv_txt_encoded_next(txt, &i);
 1680              		.loc 1 328 5 is_stmt 1 view .LVU539
 328:Middlewares/LVGL/GUI/lvgl/src/misc/lv_txt.c ****         uint32_t letter = _lv_txt_encoded_next(txt, &i);
 1681              		.loc 1 328 10 is_stmt 0 view .LVU540
 1682 00a2 069B     		ldr	r3, [sp, #24]
 328:Middlewares/LVGL/GUI/lvgl/src/misc/lv_txt.c ****         uint32_t letter = _lv_txt_encoded_next(txt, &i);
 1683              		.loc 1 328 7 view .LVU541
 1684 00a4 6BB9     		cbnz	r3, .L143
 1685              	.LBB29:
 329:Middlewares/LVGL/GUI/lvgl/src/misc/lv_txt.c ****         if(used_width != NULL) {
ARM GAS  C:\Users\ADMINI~1\AppData\Local\Temp\ccPT3swg.s 			page 57


 1686              		.loc 1 329 9 is_stmt 1 view .LVU542
 329:Middlewares/LVGL/GUI/lvgl/src/misc/lv_txt.c ****         if(used_width != NULL) {
 1687              		.loc 1 329 27 is_stmt 0 view .LVU543
 1688 00a6 184B     		ldr	r3, .L153
 1689 00a8 1B68     		ldr	r3, [r3]
 1690 00aa 06A9     		add	r1, sp, #24
 1691 00ac 2846     		mov	r0, r5
 1692 00ae 9847     		blx	r3
 1693              	.LVL160:
 1694 00b0 0146     		mov	r1, r0
 1695              	.LVL161:
 330:Middlewares/LVGL/GUI/lvgl/src/misc/lv_txt.c ****             line_w = lv_font_get_glyph_width(font, letter, '\0');
 1696              		.loc 1 330 9 is_stmt 1 view .LVU544
 330:Middlewares/LVGL/GUI/lvgl/src/misc/lv_txt.c ****             line_w = lv_font_get_glyph_width(font, letter, '\0');
 1697              		.loc 1 330 11 is_stmt 0 view .LVU545
 1698 00b2 BBF1000F 		cmp	fp, #0
 1699 00b6 04D0     		beq	.L143
 331:Middlewares/LVGL/GUI/lvgl/src/misc/lv_txt.c ****         }
 1700              		.loc 1 331 13 is_stmt 1 view .LVU546
 331:Middlewares/LVGL/GUI/lvgl/src/misc/lv_txt.c ****         }
 1701              		.loc 1 331 22 is_stmt 0 view .LVU547
 1702 00b8 0022     		movs	r2, #0
 1703 00ba 4046     		mov	r0, r8
 1704              	.LVL162:
 331:Middlewares/LVGL/GUI/lvgl/src/misc/lv_txt.c ****         }
 1705              		.loc 1 331 22 view .LVU548
 1706 00bc FFF7FEFF 		bl	lv_font_get_glyph_width
 1707              	.LVL163:
 331:Middlewares/LVGL/GUI/lvgl/src/misc/lv_txt.c ****         }
 1708              		.loc 1 331 20 view .LVU549
 1709 00c0 0746     		mov	r7, r0
 1710              	.LVL164:
 1711              	.L143:
 331:Middlewares/LVGL/GUI/lvgl/src/misc/lv_txt.c ****         }
 1712              		.loc 1 331 20 view .LVU550
 1713              	.LBE29:
 335:Middlewares/LVGL/GUI/lvgl/src/misc/lv_txt.c ****         *used_width = line_w;
 1714              		.loc 1 335 5 is_stmt 1 view .LVU551
 335:Middlewares/LVGL/GUI/lvgl/src/misc/lv_txt.c ****         *used_width = line_w;
 1715              		.loc 1 335 7 is_stmt 0 view .LVU552
 1716 00c2 BBF1000F 		cmp	fp, #0
 1717 00c6 01D0     		beq	.L144
 336:Middlewares/LVGL/GUI/lvgl/src/misc/lv_txt.c ****     }
 1718              		.loc 1 336 9 is_stmt 1 view .LVU553
 336:Middlewares/LVGL/GUI/lvgl/src/misc/lv_txt.c ****     }
 1719              		.loc 1 336 21 is_stmt 0 view .LVU554
 1720 00c8 CBF80070 		str	r7, [fp]
 1721              	.L144:
 339:Middlewares/LVGL/GUI/lvgl/src/misc/lv_txt.c **** }
 1722              		.loc 1 339 5 is_stmt 1 view .LVU555
 339:Middlewares/LVGL/GUI/lvgl/src/misc/lv_txt.c **** }
 1723              		.loc 1 339 12 is_stmt 0 view .LVU556
 1724 00cc 0698     		ldr	r0, [sp, #24]
 1725              	.LVL165:
 1726              	.L127:
 340:Middlewares/LVGL/GUI/lvgl/src/misc/lv_txt.c **** 
 1727              		.loc 1 340 1 view .LVU557
ARM GAS  C:\Users\ADMINI~1\AppData\Local\Temp\ccPT3swg.s 			page 58


 1728 00ce 09B0     		add	sp, sp, #36
 1729              	.LCFI27:
 1730              		.cfi_remember_state
 1731              		.cfi_def_cfa_offset 36
 1732              		@ sp needed
 1733 00d0 BDE8F08F 		pop	{r4, r5, r6, r7, r8, r9, r10, fp, pc}
 1734              	.LVL166:
 1735              	.L133:
 1736              	.LCFI28:
 1737              		.cfi_restore_state
 1738              	.LBB30:
 296:Middlewares/LVGL/GUI/lvgl/src/misc/lv_txt.c ****         if(txt[i] != '\0') i++;    /*To go beyond `\n`*/
 1739              		.loc 1 296 9 is_stmt 1 discriminator 5 view .LVU558
 294:Middlewares/LVGL/GUI/lvgl/src/misc/lv_txt.c ****             /*Just find the new line chars or string ends by incrementing `i`*/
 1740              		.loc 1 294 72 discriminator 5 view .LVU559
 294:Middlewares/LVGL/GUI/lvgl/src/misc/lv_txt.c ****             /*Just find the new line chars or string ends by incrementing `i`*/
 1741              		.loc 1 294 73 is_stmt 0 discriminator 5 view .LVU560
 1742 00d4 0130     		adds	r0, r0, #1
 1743              	.LVL167:
 1744              	.L130:
 294:Middlewares/LVGL/GUI/lvgl/src/misc/lv_txt.c ****             /*Just find the new line chars or string ends by incrementing `i`*/
 1745              		.loc 1 294 20 is_stmt 1 discriminator 1 view .LVU561
 294:Middlewares/LVGL/GUI/lvgl/src/misc/lv_txt.c ****             /*Just find the new line chars or string ends by incrementing `i`*/
 1746              		.loc 1 294 23 is_stmt 0 discriminator 1 view .LVU562
 1747 00d6 2B5C     		ldrb	r3, [r5, r0]	@ zero_extendqisi2
 294:Middlewares/LVGL/GUI/lvgl/src/misc/lv_txt.c ****             /*Just find the new line chars or string ends by incrementing `i`*/
 1748              		.loc 1 294 9 discriminator 1 view .LVU563
 1749 00d8 0A2B     		cmp	r3, #10
 1750 00da 03D0     		beq	.L132
 294:Middlewares/LVGL/GUI/lvgl/src/misc/lv_txt.c ****             /*Just find the new line chars or string ends by incrementing `i`*/
 1751              		.loc 1 294 35 discriminator 3 view .LVU564
 1752 00dc 0D2B     		cmp	r3, #13
 1753 00de 01D0     		beq	.L132
 294:Middlewares/LVGL/GUI/lvgl/src/misc/lv_txt.c ****             /*Just find the new line chars or string ends by incrementing `i`*/
 1754              		.loc 1 294 53 discriminator 4 view .LVU565
 1755 00e0 002B     		cmp	r3, #0
 1756 00e2 F7D1     		bne	.L133
 1757              	.L132:
 297:Middlewares/LVGL/GUI/lvgl/src/misc/lv_txt.c ****         if(used_width) *used_width = -1;
 1758              		.loc 1 297 9 is_stmt 1 view .LVU566
 297:Middlewares/LVGL/GUI/lvgl/src/misc/lv_txt.c ****         if(used_width) *used_width = -1;
 1759              		.loc 1 297 11 is_stmt 0 view .LVU567
 1760 00e4 03B1     		cbz	r3, .L134
 297:Middlewares/LVGL/GUI/lvgl/src/misc/lv_txt.c ****         if(used_width) *used_width = -1;
 1761              		.loc 1 297 28 is_stmt 1 discriminator 1 view .LVU568
 297:Middlewares/LVGL/GUI/lvgl/src/misc/lv_txt.c ****         if(used_width) *used_width = -1;
 1762              		.loc 1 297 29 is_stmt 0 discriminator 1 view .LVU569
 1763 00e6 0130     		adds	r0, r0, #1
 1764              	.LVL168:
 1765              	.L134:
 298:Middlewares/LVGL/GUI/lvgl/src/misc/lv_txt.c ****         return i;
 1766              		.loc 1 298 9 is_stmt 1 view .LVU570
 298:Middlewares/LVGL/GUI/lvgl/src/misc/lv_txt.c ****         return i;
 1767              		.loc 1 298 11 is_stmt 0 view .LVU571
 1768 00e8 BBF1000F 		cmp	fp, #0
 1769 00ec EFD0     		beq	.L127
 298:Middlewares/LVGL/GUI/lvgl/src/misc/lv_txt.c ****         return i;
ARM GAS  C:\Users\ADMINI~1\AppData\Local\Temp\ccPT3swg.s 			page 59


 1770              		.loc 1 298 24 is_stmt 1 discriminator 1 view .LVU572
 298:Middlewares/LVGL/GUI/lvgl/src/misc/lv_txt.c ****         return i;
 1771              		.loc 1 298 36 is_stmt 0 discriminator 1 view .LVU573
 1772 00ee 4FF0FF33 		mov	r3, #-1
 1773 00f2 CBF80030 		str	r3, [fp]
 299:Middlewares/LVGL/GUI/lvgl/src/misc/lv_txt.c ****     }
 1774              		.loc 1 299 9 is_stmt 1 discriminator 1 view .LVU574
 299:Middlewares/LVGL/GUI/lvgl/src/misc/lv_txt.c ****     }
 1775              		.loc 1 299 16 is_stmt 0 discriminator 1 view .LVU575
 1776 00f6 EAE7     		b	.L127
 1777              	.LVL169:
 1778              	.L152:
 294:Middlewares/LVGL/GUI/lvgl/src/misc/lv_txt.c ****             /*Just find the new line chars or string ends by incrementing `i`*/
 1779              		.loc 1 294 15 view .LVU576
 1780 00f8 0020     		movs	r0, #0
 1781              	.LVL170:
 294:Middlewares/LVGL/GUI/lvgl/src/misc/lv_txt.c ****             /*Just find the new line chars or string ends by incrementing `i`*/
 1782              		.loc 1 294 15 view .LVU577
 1783 00fa ECE7     		b	.L130
 1784              	.LVL171:
 1785              	.L145:
 294:Middlewares/LVGL/GUI/lvgl/src/misc/lv_txt.c ****             /*Just find the new line chars or string ends by incrementing `i`*/
 1786              		.loc 1 294 15 view .LVU578
 1787              	.LBE30:
 284:Middlewares/LVGL/GUI/lvgl/src/misc/lv_txt.c ****     if(txt[0] == '\0') return 0;
 1788              		.loc 1 284 28 view .LVU579
 1789 00fc 0020     		movs	r0, #0
 1790              	.LVL172:
 284:Middlewares/LVGL/GUI/lvgl/src/misc/lv_txt.c ****     if(txt[0] == '\0') return 0;
 1791              		.loc 1 284 28 view .LVU580
 1792 00fe E6E7     		b	.L127
 1793              	.LVL173:
 1794              	.L146:
 285:Middlewares/LVGL/GUI/lvgl/src/misc/lv_txt.c ****     if(font == NULL) return 0;
 1795              		.loc 1 285 31 view .LVU581
 1796 0100 0020     		movs	r0, #0
 1797              	.LVL174:
 285:Middlewares/LVGL/GUI/lvgl/src/misc/lv_txt.c ****     if(font == NULL) return 0;
 1798              		.loc 1 285 31 view .LVU582
 1799 0102 E4E7     		b	.L127
 1800              	.LVL175:
 1801              	.L147:
 286:Middlewares/LVGL/GUI/lvgl/src/misc/lv_txt.c **** 
 1802              		.loc 1 286 29 view .LVU583
 1803 0104 0020     		movs	r0, #0
 1804              	.LVL176:
 286:Middlewares/LVGL/GUI/lvgl/src/misc/lv_txt.c **** 
 1805              		.loc 1 286 29 view .LVU584
 1806 0106 E2E7     		b	.L127
 1807              	.L154:
 1808              		.align	2
 1809              	.L153:
 1810 0108 00000000 		.word	.LANCHOR1
 1811              		.cfi_endproc
 1812              	.LFE55:
 1814              		.section	.text._lv_txt_ins,"ax",%progbits
 1815              		.align	1
ARM GAS  C:\Users\ADMINI~1\AppData\Local\Temp\ccPT3swg.s 			page 60


 1816              		.global	_lv_txt_ins
 1817              		.syntax unified
 1818              		.thumb
 1819              		.thumb_func
 1821              	_lv_txt_ins:
 1822              	.LVL177:
 1823              	.LFB58:
 413:Middlewares/LVGL/GUI/lvgl/src/misc/lv_txt.c ****     if(txt_buf == NULL || ins_txt == NULL) return;
 1824              		.loc 1 413 1 is_stmt 1 view -0
 1825              		.cfi_startproc
 1826              		@ args = 0, pretend = 0, frame = 0
 1827              		@ frame_needed = 0, uses_anonymous_args = 0
 414:Middlewares/LVGL/GUI/lvgl/src/misc/lv_txt.c **** 
 1828              		.loc 1 414 5 view .LVU586
 414:Middlewares/LVGL/GUI/lvgl/src/misc/lv_txt.c **** 
 1829              		.loc 1 414 7 is_stmt 0 view .LVU587
 1830 0000 30B3     		cbz	r0, .L162
 413:Middlewares/LVGL/GUI/lvgl/src/misc/lv_txt.c ****     if(txt_buf == NULL || ins_txt == NULL) return;
 1831              		.loc 1 413 1 discriminator 2 view .LVU588
 1832 0002 2DE9F041 		push	{r4, r5, r6, r7, r8, lr}
 1833              	.LCFI29:
 1834              		.cfi_def_cfa_offset 24
 1835              		.cfi_offset 4, -24
 1836              		.cfi_offset 5, -20
 1837              		.cfi_offset 6, -16
 1838              		.cfi_offset 7, -12
 1839              		.cfi_offset 8, -8
 1840              		.cfi_offset 14, -4
 1841 0006 8846     		mov	r8, r1
 1842 0008 1746     		mov	r7, r2
 1843 000a 0646     		mov	r6, r0
 414:Middlewares/LVGL/GUI/lvgl/src/misc/lv_txt.c **** 
 1844              		.loc 1 414 24 discriminator 2 view .LVU589
 1845 000c F2B1     		cbz	r2, .L155
 416:Middlewares/LVGL/GUI/lvgl/src/misc/lv_txt.c ****     size_t ins_len = strlen(ins_txt);
 1846              		.loc 1 416 5 is_stmt 1 view .LVU590
 416:Middlewares/LVGL/GUI/lvgl/src/misc/lv_txt.c ****     size_t ins_len = strlen(ins_txt);
 1847              		.loc 1 416 22 is_stmt 0 view .LVU591
 1848 000e FFF7FEFF 		bl	strlen
 1849              	.LVL178:
 416:Middlewares/LVGL/GUI/lvgl/src/misc/lv_txt.c ****     size_t ins_len = strlen(ins_txt);
 1850              		.loc 1 416 22 view .LVU592
 1851 0012 0446     		mov	r4, r0
 1852              	.LVL179:
 417:Middlewares/LVGL/GUI/lvgl/src/misc/lv_txt.c ****     if(ins_len == 0) return;
 1853              		.loc 1 417 5 is_stmt 1 view .LVU593
 417:Middlewares/LVGL/GUI/lvgl/src/misc/lv_txt.c ****     if(ins_len == 0) return;
 1854              		.loc 1 417 22 is_stmt 0 view .LVU594
 1855 0014 3846     		mov	r0, r7
 1856              	.LVL180:
 417:Middlewares/LVGL/GUI/lvgl/src/misc/lv_txt.c ****     if(ins_len == 0) return;
 1857              		.loc 1 417 22 view .LVU595
 1858 0016 FFF7FEFF 		bl	strlen
 1859              	.LVL181:
 418:Middlewares/LVGL/GUI/lvgl/src/misc/lv_txt.c **** 
 1860              		.loc 1 418 5 is_stmt 1 view .LVU596
 418:Middlewares/LVGL/GUI/lvgl/src/misc/lv_txt.c **** 
ARM GAS  C:\Users\ADMINI~1\AppData\Local\Temp\ccPT3swg.s 			page 61


 1861              		.loc 1 418 7 is_stmt 0 view .LVU597
 1862 001a 0546     		mov	r5, r0
 1863 001c B0B1     		cbz	r0, .L155
 420:Middlewares/LVGL/GUI/lvgl/src/misc/lv_txt.c ****     pos              = _lv_txt_encoded_get_byte_id(txt_buf, pos); /*Convert to byte index instead o
 1864              		.loc 1 420 5 is_stmt 1 view .LVU598
 420:Middlewares/LVGL/GUI/lvgl/src/misc/lv_txt.c ****     pos              = _lv_txt_encoded_get_byte_id(txt_buf, pos); /*Convert to byte index instead o
 1865              		.loc 1 420 12 is_stmt 0 view .LVU599
 1866 001e 0444     		add	r4, r4, r0
 1867              	.LVL182:
 421:Middlewares/LVGL/GUI/lvgl/src/misc/lv_txt.c **** 
 1868              		.loc 1 421 5 is_stmt 1 view .LVU600
 421:Middlewares/LVGL/GUI/lvgl/src/misc/lv_txt.c **** 
 1869              		.loc 1 421 24 is_stmt 0 view .LVU601
 1870 0020 0C4B     		ldr	r3, .L165
 1871 0022 1B68     		ldr	r3, [r3]
 1872 0024 4146     		mov	r1, r8
 1873 0026 3046     		mov	r0, r6
 1874              	.LVL183:
 421:Middlewares/LVGL/GUI/lvgl/src/misc/lv_txt.c **** 
 1875              		.loc 1 421 24 view .LVU602
 1876 0028 9847     		blx	r3
 1877              	.LVL184:
 424:Middlewares/LVGL/GUI/lvgl/src/misc/lv_txt.c ****     for(i = new_len; i >= pos + ins_len; i--) {
 1878              		.loc 1 424 5 is_stmt 1 view .LVU603
 425:Middlewares/LVGL/GUI/lvgl/src/misc/lv_txt.c ****         txt_buf[i] = txt_buf[i - ins_len];
 1879              		.loc 1 425 5 view .LVU604
 425:Middlewares/LVGL/GUI/lvgl/src/misc/lv_txt.c ****         txt_buf[i] = txt_buf[i - ins_len];
 1880              		.loc 1 425 5 is_stmt 0 view .LVU605
 1881 002a 03E0     		b	.L157
 1882              	.LVL185:
 1883              	.L158:
 426:Middlewares/LVGL/GUI/lvgl/src/misc/lv_txt.c ****     }
 1884              		.loc 1 426 9 is_stmt 1 discriminator 3 view .LVU606
 426:Middlewares/LVGL/GUI/lvgl/src/misc/lv_txt.c ****     }
 1885              		.loc 1 426 32 is_stmt 0 discriminator 3 view .LVU607
 1886 002c 631B     		subs	r3, r4, r5
 426:Middlewares/LVGL/GUI/lvgl/src/misc/lv_txt.c ****     }
 1887              		.loc 1 426 29 discriminator 3 view .LVU608
 1888 002e F35C     		ldrb	r3, [r6, r3]	@ zero_extendqisi2
 426:Middlewares/LVGL/GUI/lvgl/src/misc/lv_txt.c ****     }
 1889              		.loc 1 426 20 discriminator 3 view .LVU609
 1890 0030 3355     		strb	r3, [r6, r4]
 425:Middlewares/LVGL/GUI/lvgl/src/misc/lv_txt.c ****         txt_buf[i] = txt_buf[i - ins_len];
 1891              		.loc 1 425 42 is_stmt 1 discriminator 3 view .LVU610
 425:Middlewares/LVGL/GUI/lvgl/src/misc/lv_txt.c ****         txt_buf[i] = txt_buf[i - ins_len];
 1892              		.loc 1 425 43 is_stmt 0 discriminator 3 view .LVU611
 1893 0032 013C     		subs	r4, r4, #1
 1894              	.LVL186:
 1895              	.L157:
 425:Middlewares/LVGL/GUI/lvgl/src/misc/lv_txt.c ****         txt_buf[i] = txt_buf[i - ins_len];
 1896              		.loc 1 425 22 is_stmt 1 discriminator 1 view .LVU612
 425:Middlewares/LVGL/GUI/lvgl/src/misc/lv_txt.c ****         txt_buf[i] = txt_buf[i - ins_len];
 1897              		.loc 1 425 31 is_stmt 0 discriminator 1 view .LVU613
 1898 0034 2B18     		adds	r3, r5, r0
 425:Middlewares/LVGL/GUI/lvgl/src/misc/lv_txt.c ****         txt_buf[i] = txt_buf[i - ins_len];
 1899              		.loc 1 425 5 discriminator 1 view .LVU614
 1900 0036 A342     		cmp	r3, r4
ARM GAS  C:\Users\ADMINI~1\AppData\Local\Temp\ccPT3swg.s 			page 62


 1901 0038 F8D9     		bls	.L158
 430:Middlewares/LVGL/GUI/lvgl/src/misc/lv_txt.c **** }
 1902              		.loc 1 430 5 is_stmt 1 view .LVU615
 430:Middlewares/LVGL/GUI/lvgl/src/misc/lv_txt.c **** }
 1903              		.loc 1 430 29 is_stmt 0 view .LVU616
 1904 003a 0644     		add	r6, r6, r0
 1905              	.LVL187:
 1906              	.LBB31:
 1907              	.LBI31:
 194:Middlewares/LVGL/GUI/lvgl/src/misc/../draw/../misc/lv_mem.h **** {
 1908              		.loc 2 194 44 is_stmt 1 view .LVU617
 1909              	.LBB32:
 196:Middlewares/LVGL/GUI/lvgl/src/misc/../draw/../misc/lv_mem.h ****     const uint8_t * s8 = (const uint8_t *)src;
 1910              		.loc 2 196 5 view .LVU618
 197:Middlewares/LVGL/GUI/lvgl/src/misc/../draw/../misc/lv_mem.h **** 
 1911              		.loc 2 197 5 view .LVU619
 199:Middlewares/LVGL/GUI/lvgl/src/misc/../draw/../misc/lv_mem.h ****         *d8 = *s8;
 1912              		.loc 2 199 5 view .LVU620
 199:Middlewares/LVGL/GUI/lvgl/src/misc/../draw/../misc/lv_mem.h ****         *d8 = *s8;
 1913              		.loc 2 199 10 is_stmt 0 view .LVU621
 1914 003c 04E0     		b	.L159
 1915              	.LVL188:
 1916              	.L160:
 200:Middlewares/LVGL/GUI/lvgl/src/misc/../draw/../misc/lv_mem.h ****         d8++;
 1917              		.loc 2 200 9 is_stmt 1 view .LVU622
 200:Middlewares/LVGL/GUI/lvgl/src/misc/../draw/../misc/lv_mem.h ****         d8++;
 1918              		.loc 2 200 15 is_stmt 0 view .LVU623
 1919 003e 17F8013B 		ldrb	r3, [r7], #1	@ zero_extendqisi2
 1920              	.LVL189:
 200:Middlewares/LVGL/GUI/lvgl/src/misc/../draw/../misc/lv_mem.h ****         d8++;
 1921              		.loc 2 200 13 view .LVU624
 1922 0042 06F8013B 		strb	r3, [r6], #1
 1923              	.LVL190:
 201:Middlewares/LVGL/GUI/lvgl/src/misc/../draw/../misc/lv_mem.h ****         s8++;
 1924              		.loc 2 201 9 is_stmt 1 view .LVU625
 202:Middlewares/LVGL/GUI/lvgl/src/misc/../draw/../misc/lv_mem.h ****         len--;
 1925              		.loc 2 202 9 view .LVU626
 203:Middlewares/LVGL/GUI/lvgl/src/misc/../draw/../misc/lv_mem.h ****     }
 1926              		.loc 2 203 9 view .LVU627
 203:Middlewares/LVGL/GUI/lvgl/src/misc/../draw/../misc/lv_mem.h ****     }
 1927              		.loc 2 203 12 is_stmt 0 view .LVU628
 1928 0046 013D     		subs	r5, r5, #1
 1929              	.LVL191:
 1930              	.L159:
 199:Middlewares/LVGL/GUI/lvgl/src/misc/../draw/../misc/lv_mem.h ****         *d8 = *s8;
 1931              		.loc 2 199 10 is_stmt 1 view .LVU629
 1932 0048 002D     		cmp	r5, #0
 1933 004a F8D1     		bne	.L160
 1934              	.LVL192:
 1935              	.L155:
 199:Middlewares/LVGL/GUI/lvgl/src/misc/../draw/../misc/lv_mem.h ****         *d8 = *s8;
 1936              		.loc 2 199 10 is_stmt 0 view .LVU630
 1937              	.LBE32:
 1938              	.LBE31:
 431:Middlewares/LVGL/GUI/lvgl/src/misc/lv_txt.c **** 
 1939              		.loc 1 431 1 view .LVU631
 1940 004c BDE8F081 		pop	{r4, r5, r6, r7, r8, pc}
ARM GAS  C:\Users\ADMINI~1\AppData\Local\Temp\ccPT3swg.s 			page 63


 1941              	.LVL193:
 1942              	.L162:
 1943              	.LCFI30:
 1944              		.cfi_def_cfa_offset 0
 1945              		.cfi_restore 4
 1946              		.cfi_restore 5
 1947              		.cfi_restore 6
 1948              		.cfi_restore 7
 1949              		.cfi_restore 8
 1950              		.cfi_restore 14
 431:Middlewares/LVGL/GUI/lvgl/src/misc/lv_txt.c **** 
 1951              		.loc 1 431 1 view .LVU632
 1952 0050 7047     		bx	lr
 1953              	.L166:
 1954 0052 00BF     		.align	2
 1955              	.L165:
 1956 0054 00000000 		.word	.LANCHOR2
 1957              		.cfi_endproc
 1958              	.LFE58:
 1960              		.section	.text._lv_txt_cut,"ax",%progbits
 1961              		.align	1
 1962              		.global	_lv_txt_cut
 1963              		.syntax unified
 1964              		.thumb
 1965              		.thumb_func
 1967              	_lv_txt_cut:
 1968              	.LVL194:
 1969              	.LFB59:
 434:Middlewares/LVGL/GUI/lvgl/src/misc/lv_txt.c ****     if(txt == NULL) return;
 1970              		.loc 1 434 1 is_stmt 1 view -0
 1971              		.cfi_startproc
 1972              		@ args = 0, pretend = 0, frame = 0
 1973              		@ frame_needed = 0, uses_anonymous_args = 0
 435:Middlewares/LVGL/GUI/lvgl/src/misc/lv_txt.c **** 
 1974              		.loc 1 435 5 view .LVU634
 435:Middlewares/LVGL/GUI/lvgl/src/misc/lv_txt.c **** 
 1975              		.loc 1 435 7 is_stmt 0 view .LVU635
 1976 0000 D8B1     		cbz	r0, .L172
 434:Middlewares/LVGL/GUI/lvgl/src/misc/lv_txt.c ****     if(txt == NULL) return;
 1977              		.loc 1 434 1 view .LVU636
 1978 0002 2DE9F041 		push	{r4, r5, r6, r7, r8, lr}
 1979              	.LCFI31:
 1980              		.cfi_def_cfa_offset 24
 1981              		.cfi_offset 4, -24
 1982              		.cfi_offset 5, -20
 1983              		.cfi_offset 6, -16
 1984              		.cfi_offset 7, -12
 1985              		.cfi_offset 8, -8
 1986              		.cfi_offset 14, -4
 1987 0006 0C46     		mov	r4, r1
 1988 0008 9046     		mov	r8, r2
 1989 000a 0546     		mov	r5, r0
 437:Middlewares/LVGL/GUI/lvgl/src/misc/lv_txt.c **** 
 1990              		.loc 1 437 5 is_stmt 1 view .LVU637
 437:Middlewares/LVGL/GUI/lvgl/src/misc/lv_txt.c **** 
 1991              		.loc 1 437 22 is_stmt 0 view .LVU638
 1992 000c FFF7FEFF 		bl	strlen
ARM GAS  C:\Users\ADMINI~1\AppData\Local\Temp\ccPT3swg.s 			page 64


 1993              	.LVL195:
 437:Middlewares/LVGL/GUI/lvgl/src/misc/lv_txt.c **** 
 1994              		.loc 1 437 22 view .LVU639
 1995 0010 0646     		mov	r6, r0
 1996              	.LVL196:
 439:Middlewares/LVGL/GUI/lvgl/src/misc/lv_txt.c ****     len = _lv_txt_encoded_get_byte_id(&txt[pos], len);
 1997              		.loc 1 439 5 is_stmt 1 view .LVU640
 439:Middlewares/LVGL/GUI/lvgl/src/misc/lv_txt.c ****     len = _lv_txt_encoded_get_byte_id(&txt[pos], len);
 1998              		.loc 1 439 11 is_stmt 0 view .LVU641
 1999 0012 0A4F     		ldr	r7, .L175
 2000 0014 3B68     		ldr	r3, [r7]
 2001 0016 2146     		mov	r1, r4
 2002 0018 2846     		mov	r0, r5
 2003              	.LVL197:
 439:Middlewares/LVGL/GUI/lvgl/src/misc/lv_txt.c ****     len = _lv_txt_encoded_get_byte_id(&txt[pos], len);
 2004              		.loc 1 439 11 view .LVU642
 2005 001a 9847     		blx	r3
 2006              	.LVL198:
 2007 001c 0446     		mov	r4, r0
 2008              	.LVL199:
 440:Middlewares/LVGL/GUI/lvgl/src/misc/lv_txt.c **** 
 2009              		.loc 1 440 5 is_stmt 1 view .LVU643
 440:Middlewares/LVGL/GUI/lvgl/src/misc/lv_txt.c **** 
 2010              		.loc 1 440 11 is_stmt 0 view .LVU644
 2011 001e 3B68     		ldr	r3, [r7]
 2012 0020 4146     		mov	r1, r8
 2013 0022 2818     		adds	r0, r5, r0
 2014              	.LVL200:
 440:Middlewares/LVGL/GUI/lvgl/src/misc/lv_txt.c **** 
 2015              		.loc 1 440 11 view .LVU645
 2016 0024 9847     		blx	r3
 2017              	.LVL201:
 443:Middlewares/LVGL/GUI/lvgl/src/misc/lv_txt.c ****     for(i = pos; i <= old_len - len; i++) {
 2018              		.loc 1 443 5 is_stmt 1 view .LVU646
 444:Middlewares/LVGL/GUI/lvgl/src/misc/lv_txt.c ****         txt[i] = txt[i + len];
 2019              		.loc 1 444 5 view .LVU647
 444:Middlewares/LVGL/GUI/lvgl/src/misc/lv_txt.c ****         txt[i] = txt[i + len];
 2020              		.loc 1 444 5 is_stmt 0 view .LVU648
 2021 0026 03E0     		b	.L169
 2022              	.LVL202:
 2023              	.L170:
 445:Middlewares/LVGL/GUI/lvgl/src/misc/lv_txt.c ****     }
 2024              		.loc 1 445 9 is_stmt 1 discriminator 3 view .LVU649
 445:Middlewares/LVGL/GUI/lvgl/src/misc/lv_txt.c ****     }
 2025              		.loc 1 445 24 is_stmt 0 discriminator 3 view .LVU650
 2026 0028 2318     		adds	r3, r4, r0
 445:Middlewares/LVGL/GUI/lvgl/src/misc/lv_txt.c ****     }
 2027              		.loc 1 445 21 discriminator 3 view .LVU651
 2028 002a EB5C     		ldrb	r3, [r5, r3]	@ zero_extendqisi2
 445:Middlewares/LVGL/GUI/lvgl/src/misc/lv_txt.c ****     }
 2029              		.loc 1 445 16 discriminator 3 view .LVU652
 2030 002c 2B55     		strb	r3, [r5, r4]
 444:Middlewares/LVGL/GUI/lvgl/src/misc/lv_txt.c ****         txt[i] = txt[i + len];
 2031              		.loc 1 444 38 is_stmt 1 discriminator 3 view .LVU653
 444:Middlewares/LVGL/GUI/lvgl/src/misc/lv_txt.c ****         txt[i] = txt[i + len];
 2032              		.loc 1 444 39 is_stmt 0 discriminator 3 view .LVU654
 2033 002e 0134     		adds	r4, r4, #1
ARM GAS  C:\Users\ADMINI~1\AppData\Local\Temp\ccPT3swg.s 			page 65


 2034              	.LVL203:
 2035              	.L169:
 444:Middlewares/LVGL/GUI/lvgl/src/misc/lv_txt.c ****         txt[i] = txt[i + len];
 2036              		.loc 1 444 18 is_stmt 1 discriminator 1 view .LVU655
 444:Middlewares/LVGL/GUI/lvgl/src/misc/lv_txt.c ****         txt[i] = txt[i + len];
 2037              		.loc 1 444 31 is_stmt 0 discriminator 1 view .LVU656
 2038 0030 331A     		subs	r3, r6, r0
 444:Middlewares/LVGL/GUI/lvgl/src/misc/lv_txt.c ****         txt[i] = txt[i + len];
 2039              		.loc 1 444 5 discriminator 1 view .LVU657
 2040 0032 A342     		cmp	r3, r4
 2041 0034 F8D2     		bcs	.L170
 447:Middlewares/LVGL/GUI/lvgl/src/misc/lv_txt.c **** 
 2042              		.loc 1 447 1 view .LVU658
 2043 0036 BDE8F081 		pop	{r4, r5, r6, r7, r8, pc}
 2044              	.LVL204:
 2045              	.L172:
 2046              	.LCFI32:
 2047              		.cfi_def_cfa_offset 0
 2048              		.cfi_restore 4
 2049              		.cfi_restore 5
 2050              		.cfi_restore 6
 2051              		.cfi_restore 7
 2052              		.cfi_restore 8
 2053              		.cfi_restore 14
 447:Middlewares/LVGL/GUI/lvgl/src/misc/lv_txt.c **** 
 2054              		.loc 1 447 1 view .LVU659
 2055 003a 7047     		bx	lr
 2056              	.L176:
 2057              		.align	2
 2058              	.L175:
 2059 003c 00000000 		.word	.LANCHOR2
 2060              		.cfi_endproc
 2061              	.LFE59:
 2063              		.section	.text._lv_txt_set_text_vfmt,"ax",%progbits
 2064              		.align	1
 2065              		.global	_lv_txt_set_text_vfmt
 2066              		.syntax unified
 2067              		.thumb
 2068              		.thumb_func
 2070              	_lv_txt_set_text_vfmt:
 2071              	.LVL205:
 2072              	.LFB60:
 450:Middlewares/LVGL/GUI/lvgl/src/misc/lv_txt.c ****     /*Allocate space for the new text by using trick from C99 standard section 7.19.6.12*/
 2073              		.loc 1 450 1 is_stmt 1 view -0
 2074              		.cfi_startproc
 2075              		@ args = 0, pretend = 0, frame = 8
 2076              		@ frame_needed = 0, uses_anonymous_args = 0
 450:Middlewares/LVGL/GUI/lvgl/src/misc/lv_txt.c ****     /*Allocate space for the new text by using trick from C99 standard section 7.19.6.12*/
 2077              		.loc 1 450 1 is_stmt 0 view .LVU661
 2078 0000 2DE9F041 		push	{r4, r5, r6, r7, r8, lr}
 2079              	.LCFI33:
 2080              		.cfi_def_cfa_offset 24
 2081              		.cfi_offset 4, -24
 2082              		.cfi_offset 5, -20
 2083              		.cfi_offset 6, -16
 2084              		.cfi_offset 7, -12
 2085              		.cfi_offset 8, -8
ARM GAS  C:\Users\ADMINI~1\AppData\Local\Temp\ccPT3swg.s 			page 66


 2086              		.cfi_offset 14, -4
 2087 0004 82B0     		sub	sp, sp, #8
 2088              	.LCFI34:
 2089              		.cfi_def_cfa_offset 32
 2090 0006 0546     		mov	r5, r0
 2091 0008 0C46     		mov	r4, r1
 2092              	.LVL206:
 452:Middlewares/LVGL/GUI/lvgl/src/misc/lv_txt.c ****     va_copy(ap_copy, ap);
 2093              		.loc 1 452 5 is_stmt 1 view .LVU662
 453:Middlewares/LVGL/GUI/lvgl/src/misc/lv_txt.c ****     uint32_t len = lv_vsnprintf(NULL, 0, fmt, ap_copy);
 2094              		.loc 1 453 5 view .LVU663
 453:Middlewares/LVGL/GUI/lvgl/src/misc/lv_txt.c ****     uint32_t len = lv_vsnprintf(NULL, 0, fmt, ap_copy);
 2095              		.loc 1 453 5 is_stmt 0 view .LVU664
 2096 000a 0191     		str	r1, [sp, #4]
 454:Middlewares/LVGL/GUI/lvgl/src/misc/lv_txt.c ****     va_end(ap_copy);
 2097              		.loc 1 454 5 is_stmt 1 view .LVU665
 454:Middlewares/LVGL/GUI/lvgl/src/misc/lv_txt.c ****     va_end(ap_copy);
 2098              		.loc 1 454 20 is_stmt 0 view .LVU666
 2099 000c 0B46     		mov	r3, r1
 2100 000e 0246     		mov	r2, r0
 2101 0010 0021     		movs	r1, #0
 2102              	.LVL207:
 454:Middlewares/LVGL/GUI/lvgl/src/misc/lv_txt.c ****     va_end(ap_copy);
 2103              		.loc 1 454 20 view .LVU667
 2104 0012 0846     		mov	r0, r1
 2105              	.LVL208:
 454:Middlewares/LVGL/GUI/lvgl/src/misc/lv_txt.c ****     va_end(ap_copy);
 2106              		.loc 1 454 20 view .LVU668
 2107 0014 FFF7FEFF 		bl	lv_vsnprintf
 2108              	.LVL209:
 454:Middlewares/LVGL/GUI/lvgl/src/misc/lv_txt.c ****     va_end(ap_copy);
 2109              		.loc 1 454 20 view .LVU669
 2110 0018 0646     		mov	r6, r0
 2111              	.LVL210:
 455:Middlewares/LVGL/GUI/lvgl/src/misc/lv_txt.c **** 
 2112              		.loc 1 455 5 is_stmt 1 view .LVU670
 457:Middlewares/LVGL/GUI/lvgl/src/misc/lv_txt.c **** #if LV_USE_ARABIC_PERSIAN_CHARS
 2113              		.loc 1 457 5 view .LVU671
 479:Middlewares/LVGL/GUI/lvgl/src/misc/lv_txt.c ****     LV_ASSERT_MALLOC(text);
 2114              		.loc 1 479 5 view .LVU672
 479:Middlewares/LVGL/GUI/lvgl/src/misc/lv_txt.c ****     LV_ASSERT_MALLOC(text);
 2115              		.loc 1 479 29 is_stmt 0 view .LVU673
 2116 001a 00F10108 		add	r8, r0, #1
 479:Middlewares/LVGL/GUI/lvgl/src/misc/lv_txt.c ****     LV_ASSERT_MALLOC(text);
 2117              		.loc 1 479 12 view .LVU674
 2118 001e 4046     		mov	r0, r8
 2119              	.LVL211:
 479:Middlewares/LVGL/GUI/lvgl/src/misc/lv_txt.c ****     LV_ASSERT_MALLOC(text);
 2120              		.loc 1 479 12 view .LVU675
 2121 0020 FFF7FEFF 		bl	lv_mem_alloc
 2122              	.LVL212:
 480:Middlewares/LVGL/GUI/lvgl/src/misc/lv_txt.c ****     if(text == NULL) {
 2123              		.loc 1 480 5 is_stmt 1 view .LVU676
 480:Middlewares/LVGL/GUI/lvgl/src/misc/lv_txt.c ****     if(text == NULL) {
 2124              		.loc 1 480 5 view .LVU677
 2125 0024 58B1     		cbz	r0, .L179
 2126 0026 0746     		mov	r7, r0
ARM GAS  C:\Users\ADMINI~1\AppData\Local\Temp\ccPT3swg.s 			page 67


 480:Middlewares/LVGL/GUI/lvgl/src/misc/lv_txt.c ****     if(text == NULL) {
 2127              		.loc 1 480 5 view .LVU678
 480:Middlewares/LVGL/GUI/lvgl/src/misc/lv_txt.c ****     if(text == NULL) {
 2128              		.loc 1 480 27 view .LVU679
 481:Middlewares/LVGL/GUI/lvgl/src/misc/lv_txt.c ****         return NULL;
 2129              		.loc 1 481 5 view .LVU680
 484:Middlewares/LVGL/GUI/lvgl/src/misc/lv_txt.c **** 
 2130              		.loc 1 484 5 view .LVU681
 484:Middlewares/LVGL/GUI/lvgl/src/misc/lv_txt.c **** 
 2131              		.loc 1 484 15 is_stmt 0 view .LVU682
 2132 0028 0023     		movs	r3, #0
 2133 002a 8355     		strb	r3, [r0, r6]
 486:Middlewares/LVGL/GUI/lvgl/src/misc/lv_txt.c **** #endif
 2134              		.loc 1 486 5 is_stmt 1 view .LVU683
 2135              	.LVL213:
 486:Middlewares/LVGL/GUI/lvgl/src/misc/lv_txt.c **** #endif
 2136              		.loc 1 486 5 is_stmt 0 view .LVU684
 2137 002c 2346     		mov	r3, r4
 2138 002e 2A46     		mov	r2, r5
 2139 0030 4146     		mov	r1, r8
 2140 0032 FFF7FEFF 		bl	lv_vsnprintf
 2141              	.LVL214:
 489:Middlewares/LVGL/GUI/lvgl/src/misc/lv_txt.c **** }
 2142              		.loc 1 489 5 is_stmt 1 view .LVU685
 490:Middlewares/LVGL/GUI/lvgl/src/misc/lv_txt.c **** 
 2143              		.loc 1 490 1 is_stmt 0 view .LVU686
 2144 0036 3846     		mov	r0, r7
 2145 0038 02B0     		add	sp, sp, #8
 2146              	.LCFI35:
 2147              		.cfi_remember_state
 2148              		.cfi_def_cfa_offset 24
 2149              		@ sp needed
 2150 003a BDE8F081 		pop	{r4, r5, r6, r7, r8, pc}
 2151              	.LVL215:
 2152              	.L179:
 2153              	.LCFI36:
 2154              		.cfi_restore_state
 480:Middlewares/LVGL/GUI/lvgl/src/misc/lv_txt.c ****     if(text == NULL) {
 2155              		.loc 1 480 5 is_stmt 1 discriminator 1 view .LVU687
 480:Middlewares/LVGL/GUI/lvgl/src/misc/lv_txt.c ****     if(text == NULL) {
 2156              		.loc 1 480 5 discriminator 1 view .LVU688
 480:Middlewares/LVGL/GUI/lvgl/src/misc/lv_txt.c ****     if(text == NULL) {
 2157              		.loc 1 480 5 discriminator 1 view .LVU689
 480:Middlewares/LVGL/GUI/lvgl/src/misc/lv_txt.c ****     if(text == NULL) {
 2158              		.loc 1 480 5 discriminator 1 view .LVU690
 480:Middlewares/LVGL/GUI/lvgl/src/misc/lv_txt.c ****     if(text == NULL) {
 2159              		.loc 1 480 5 discriminator 1 view .LVU691
 480:Middlewares/LVGL/GUI/lvgl/src/misc/lv_txt.c ****     if(text == NULL) {
 2160              		.loc 1 480 5 discriminator 1 view .LVU692
 2161 003e FEE7     		b	.L179
 2162              		.cfi_endproc
 2163              	.LFE60:
 2165              		.section	.text._lv_txt_encoded_letter_next_2,"ax",%progbits
 2166              		.align	1
 2167              		.global	_lv_txt_encoded_letter_next_2
 2168              		.syntax unified
 2169              		.thumb
ARM GAS  C:\Users\ADMINI~1\AppData\Local\Temp\ccPT3swg.s 			page 68


 2170              		.thumb_func
 2172              	_lv_txt_encoded_letter_next_2:
 2173              	.LVL216:
 2174              	.LFB61:
 493:Middlewares/LVGL/GUI/lvgl/src/misc/lv_txt.c ****     *letter = _lv_txt_encoded_next(txt, ofs);
 2175              		.loc 1 493 1 view -0
 2176              		.cfi_startproc
 2177              		@ args = 0, pretend = 0, frame = 0
 2178              		@ frame_needed = 0, uses_anonymous_args = 0
 493:Middlewares/LVGL/GUI/lvgl/src/misc/lv_txt.c ****     *letter = _lv_txt_encoded_next(txt, ofs);
 2179              		.loc 1 493 1 is_stmt 0 view .LVU694
 2180 0000 F8B5     		push	{r3, r4, r5, r6, r7, lr}
 2181              	.LCFI37:
 2182              		.cfi_def_cfa_offset 24
 2183              		.cfi_offset 3, -24
 2184              		.cfi_offset 4, -20
 2185              		.cfi_offset 5, -16
 2186              		.cfi_offset 6, -12
 2187              		.cfi_offset 7, -8
 2188              		.cfi_offset 14, -4
 2189 0002 0746     		mov	r7, r0
 2190 0004 0E46     		mov	r6, r1
 2191 0006 1546     		mov	r5, r2
 2192 0008 1C46     		mov	r4, r3
 494:Middlewares/LVGL/GUI/lvgl/src/misc/lv_txt.c ****     *letter_next = *letter != '\0' ? _lv_txt_encoded_next(&txt[*ofs], NULL) : 0;
 2193              		.loc 1 494 5 is_stmt 1 view .LVU695
 494:Middlewares/LVGL/GUI/lvgl/src/misc/lv_txt.c ****     *letter_next = *letter != '\0' ? _lv_txt_encoded_next(&txt[*ofs], NULL) : 0;
 2194              		.loc 1 494 15 is_stmt 0 view .LVU696
 2195 000a 074B     		ldr	r3, .L184
 2196              	.LVL217:
 494:Middlewares/LVGL/GUI/lvgl/src/misc/lv_txt.c ****     *letter_next = *letter != '\0' ? _lv_txt_encoded_next(&txt[*ofs], NULL) : 0;
 2197              		.loc 1 494 15 view .LVU697
 2198 000c 1B68     		ldr	r3, [r3]
 2199 000e 2146     		mov	r1, r4
 2200              	.LVL218:
 494:Middlewares/LVGL/GUI/lvgl/src/misc/lv_txt.c ****     *letter_next = *letter != '\0' ? _lv_txt_encoded_next(&txt[*ofs], NULL) : 0;
 2201              		.loc 1 494 15 view .LVU698
 2202 0010 9847     		blx	r3
 2203              	.LVL219:
 494:Middlewares/LVGL/GUI/lvgl/src/misc/lv_txt.c ****     *letter_next = *letter != '\0' ? _lv_txt_encoded_next(&txt[*ofs], NULL) : 0;
 2204              		.loc 1 494 13 view .LVU699
 2205 0012 3060     		str	r0, [r6]
 495:Middlewares/LVGL/GUI/lvgl/src/misc/lv_txt.c **** }
 2206              		.loc 1 495 5 is_stmt 1 view .LVU700
 495:Middlewares/LVGL/GUI/lvgl/src/misc/lv_txt.c **** }
 2207              		.loc 1 495 77 is_stmt 0 view .LVU701
 2208 0014 28B1     		cbz	r0, .L182
 495:Middlewares/LVGL/GUI/lvgl/src/misc/lv_txt.c **** }
 2209              		.loc 1 495 64 discriminator 1 view .LVU702
 2210 0016 2068     		ldr	r0, [r4]
 495:Middlewares/LVGL/GUI/lvgl/src/misc/lv_txt.c **** }
 2211              		.loc 1 495 38 discriminator 1 view .LVU703
 2212 0018 034B     		ldr	r3, .L184
 2213 001a 1B68     		ldr	r3, [r3]
 2214 001c 0021     		movs	r1, #0
 2215 001e 3844     		add	r0, r0, r7
 2216 0020 9847     		blx	r3
ARM GAS  C:\Users\ADMINI~1\AppData\Local\Temp\ccPT3swg.s 			page 69


 2217              	.LVL220:
 2218              	.L182:
 495:Middlewares/LVGL/GUI/lvgl/src/misc/lv_txt.c **** }
 2219              		.loc 1 495 18 discriminator 4 view .LVU704
 2220 0022 2860     		str	r0, [r5]
 496:Middlewares/LVGL/GUI/lvgl/src/misc/lv_txt.c **** 
 2221              		.loc 1 496 1 discriminator 4 view .LVU705
 2222 0024 F8BD     		pop	{r3, r4, r5, r6, r7, pc}
 2223              	.LVL221:
 2224              	.L185:
 496:Middlewares/LVGL/GUI/lvgl/src/misc/lv_txt.c **** 
 2225              		.loc 1 496 1 discriminator 4 view .LVU706
 2226 0026 00BF     		.align	2
 2227              	.L184:
 2228 0028 00000000 		.word	.LANCHOR1
 2229              		.cfi_endproc
 2230              	.LFE61:
 2232              		.section	.text.lv_txt_get_width,"ax",%progbits
 2233              		.align	1
 2234              		.global	lv_txt_get_width
 2235              		.syntax unified
 2236              		.thumb
 2237              		.thumb_func
 2239              	lv_txt_get_width:
 2240              	.LVL222:
 2241              	.LFB56:
 344:Middlewares/LVGL/GUI/lvgl/src/misc/lv_txt.c ****     if(txt == NULL) return 0;
 2242              		.loc 1 344 1 is_stmt 1 view -0
 2243              		.cfi_startproc
 2244              		@ args = 4, pretend = 0, frame = 16
 2245              		@ frame_needed = 0, uses_anonymous_args = 0
 344:Middlewares/LVGL/GUI/lvgl/src/misc/lv_txt.c ****     if(txt == NULL) return 0;
 2246              		.loc 1 344 1 is_stmt 0 view .LVU708
 2247 0000 2DE9F043 		push	{r4, r5, r6, r7, r8, r9, lr}
 2248              	.LCFI38:
 2249              		.cfi_def_cfa_offset 28
 2250              		.cfi_offset 4, -28
 2251              		.cfi_offset 5, -24
 2252              		.cfi_offset 6, -20
 2253              		.cfi_offset 7, -16
 2254              		.cfi_offset 8, -12
 2255              		.cfi_offset 9, -8
 2256              		.cfi_offset 14, -4
 2257 0004 85B0     		sub	sp, sp, #20
 2258              	.LCFI39:
 2259              		.cfi_def_cfa_offset 48
 2260 0006 9DF83080 		ldrb	r8, [sp, #48]	@ zero_extendqisi2
 345:Middlewares/LVGL/GUI/lvgl/src/misc/lv_txt.c ****     if(font == NULL) return 0;
 2261              		.loc 1 345 5 is_stmt 1 view .LVU709
 345:Middlewares/LVGL/GUI/lvgl/src/misc/lv_txt.c ****     if(font == NULL) return 0;
 2262              		.loc 1 345 7 is_stmt 0 view .LVU710
 2263 000a A0B3     		cbz	r0, .L193
 2264 000c 0C46     		mov	r4, r1
 2265 000e 1546     		mov	r5, r2
 2266 0010 1E46     		mov	r6, r3
 2267 0012 0746     		mov	r7, r0
 346:Middlewares/LVGL/GUI/lvgl/src/misc/lv_txt.c ****     if(txt[0] == '\0') return 0;
ARM GAS  C:\Users\ADMINI~1\AppData\Local\Temp\ccPT3swg.s 			page 70


 2268              		.loc 1 346 5 is_stmt 1 view .LVU711
 346:Middlewares/LVGL/GUI/lvgl/src/misc/lv_txt.c ****     if(txt[0] == '\0') return 0;
 2269              		.loc 1 346 7 is_stmt 0 view .LVU712
 2270 0014 92B3     		cbz	r2, .L194
 347:Middlewares/LVGL/GUI/lvgl/src/misc/lv_txt.c **** 
 2271              		.loc 1 347 5 is_stmt 1 view .LVU713
 347:Middlewares/LVGL/GUI/lvgl/src/misc/lv_txt.c **** 
 2272              		.loc 1 347 11 is_stmt 0 view .LVU714
 2273 0016 0378     		ldrb	r3, [r0]	@ zero_extendqisi2
 2274              	.LVL223:
 347:Middlewares/LVGL/GUI/lvgl/src/misc/lv_txt.c **** 
 2275              		.loc 1 347 7 view .LVU715
 2276 0018 9BB3     		cbz	r3, .L195
 349:Middlewares/LVGL/GUI/lvgl/src/misc/lv_txt.c ****     lv_coord_t width             = 0;
 2277              		.loc 1 349 5 is_stmt 1 view .LVU716
 349:Middlewares/LVGL/GUI/lvgl/src/misc/lv_txt.c ****     lv_coord_t width             = 0;
 2278              		.loc 1 349 14 is_stmt 0 view .LVU717
 2279 001a 0023     		movs	r3, #0
 2280 001c 0393     		str	r3, [sp, #12]
 350:Middlewares/LVGL/GUI/lvgl/src/misc/lv_txt.c ****     lv_text_cmd_state_t cmd_state = LV_TEXT_CMD_STATE_WAIT;
 2281              		.loc 1 350 5 is_stmt 1 view .LVU718
 2282              	.LVL224:
 351:Middlewares/LVGL/GUI/lvgl/src/misc/lv_txt.c **** 
 2283              		.loc 1 351 5 view .LVU719
 351:Middlewares/LVGL/GUI/lvgl/src/misc/lv_txt.c **** 
 2284              		.loc 1 351 25 is_stmt 0 view .LVU720
 2285 001e 8DF80B30 		strb	r3, [sp, #11]
 353:Middlewares/LVGL/GUI/lvgl/src/misc/lv_txt.c ****         while(i < length) {
 2286              		.loc 1 353 5 is_stmt 1 view .LVU721
 353:Middlewares/LVGL/GUI/lvgl/src/misc/lv_txt.c ****         while(i < length) {
 2287              		.loc 1 353 7 is_stmt 0 view .LVU722
 2288 0022 F9B9     		cbnz	r1, .L196
 350:Middlewares/LVGL/GUI/lvgl/src/misc/lv_txt.c ****     lv_text_cmd_state_t cmd_state = LV_TEXT_CMD_STATE_WAIT;
 2289              		.loc 1 350 16 view .LVU723
 2290 0024 9946     		mov	r9, r3
 2291 0026 2EE0     		b	.L186
 2292              	.LVL225:
 2293              	.L189:
 2294              	.LBB33:
 365:Middlewares/LVGL/GUI/lvgl/src/misc/lv_txt.c ****             if(char_width > 0) {
 2295              		.loc 1 365 13 is_stmt 1 view .LVU724
 365:Middlewares/LVGL/GUI/lvgl/src/misc/lv_txt.c ****             if(char_width > 0) {
 2296              		.loc 1 365 37 is_stmt 0 view .LVU725
 2297 0028 019A     		ldr	r2, [sp, #4]
 2298 002a 0099     		ldr	r1, [sp]
 2299 002c 2846     		mov	r0, r5
 2300 002e FFF7FEFF 		bl	lv_font_get_glyph_width
 2301              	.LVL226:
 366:Middlewares/LVGL/GUI/lvgl/src/misc/lv_txt.c ****                 width += char_width;
 2302              		.loc 1 366 13 is_stmt 1 view .LVU726
 366:Middlewares/LVGL/GUI/lvgl/src/misc/lv_txt.c ****                 width += char_width;
 2303              		.loc 1 366 15 is_stmt 0 view .LVU727
 2304 0032 0028     		cmp	r0, #0
 366:Middlewares/LVGL/GUI/lvgl/src/misc/lv_txt.c ****                 width += char_width;
 2305              		.loc 1 366 15 view .LVU728
 2306 0034 02DD     		ble	.L188
 367:Middlewares/LVGL/GUI/lvgl/src/misc/lv_txt.c ****                 width += letter_space;
ARM GAS  C:\Users\ADMINI~1\AppData\Local\Temp\ccPT3swg.s 			page 71


 2307              		.loc 1 367 17 is_stmt 1 view .LVU729
 367:Middlewares/LVGL/GUI/lvgl/src/misc/lv_txt.c ****                 width += letter_space;
 2308              		.loc 1 367 23 is_stmt 0 view .LVU730
 2309 0036 4844     		add	r0, r0, r9
 2310              	.LVL227:
 368:Middlewares/LVGL/GUI/lvgl/src/misc/lv_txt.c ****             }
 2311              		.loc 1 368 17 is_stmt 1 view .LVU731
 368:Middlewares/LVGL/GUI/lvgl/src/misc/lv_txt.c ****             }
 2312              		.loc 1 368 23 is_stmt 0 view .LVU732
 2313 0038 06EB0009 		add	r9, r6, r0
 2314              	.LVL228:
 2315              	.L188:
 368:Middlewares/LVGL/GUI/lvgl/src/misc/lv_txt.c ****             }
 2316              		.loc 1 368 23 view .LVU733
 2317              	.LBE33:
 354:Middlewares/LVGL/GUI/lvgl/src/misc/lv_txt.c ****             uint32_t letter;
 2318              		.loc 1 354 14 is_stmt 1 view .LVU734
 354:Middlewares/LVGL/GUI/lvgl/src/misc/lv_txt.c ****             uint32_t letter;
 2319              		.loc 1 354 17 is_stmt 0 view .LVU735
 2320 003c 039B     		ldr	r3, [sp, #12]
 354:Middlewares/LVGL/GUI/lvgl/src/misc/lv_txt.c ****             uint32_t letter;
 2321              		.loc 1 354 14 view .LVU736
 2322 003e A342     		cmp	r3, r4
 2323 0040 13D2     		bcs	.L198
 2324              	.LBB34:
 355:Middlewares/LVGL/GUI/lvgl/src/misc/lv_txt.c ****             uint32_t letter_next;
 2325              		.loc 1 355 13 is_stmt 1 view .LVU737
 356:Middlewares/LVGL/GUI/lvgl/src/misc/lv_txt.c ****             _lv_txt_encoded_letter_next_2(txt, &letter, &letter_next, &i);
 2326              		.loc 1 356 13 view .LVU738
 357:Middlewares/LVGL/GUI/lvgl/src/misc/lv_txt.c **** 
 2327              		.loc 1 357 13 view .LVU739
 2328 0042 03AB     		add	r3, sp, #12
 2329 0044 01AA     		add	r2, sp, #4
 2330 0046 6946     		mov	r1, sp
