ARM GAS  C:\Users\ADMINI~1\AppData\Local\Temp\cc8gvSPg.s 			page 1


   1              		.cpu cortex-m4
   2              		.arch armv7e-m
   3              		.fpu fpv4-sp-d16
   4              		.eabi_attribute 27, 1
   5              		.eabi_attribute 28, 1
   6              		.eabi_attribute 20, 1
   7              		.eabi_attribute 21, 1
   8              		.eabi_attribute 23, 3
   9              		.eabi_attribute 24, 1
  10              		.eabi_attribute 25, 1
  11              		.eabi_attribute 26, 1
  12              		.eabi_attribute 30, 1
  13              		.eabi_attribute 34, 1
  14              		.eabi_attribute 18, 4
  15              		.file	"lv_theme_basic.c"
  16              		.text
  17              	.Ltext0:
  18              		.cfi_sections	.debug_frame
  19              		.section	.text.theme_apply,"ax",%progbits
  20              		.align	1
  21              		.syntax unified
  22              		.thumb
  23              		.thumb_func
  25              	theme_apply:
  26              	.LVL0:
  27              	.LFB199:
  28              		.file 1 "Middlewares/LVGL/GUI/lvgl/src/extra/themes/basic/lv_theme_basic.c"
   1:Middlewares/LVGL/GUI/lvgl/src/extra/themes/basic/lv_theme_basic.c **** /**
   2:Middlewares/LVGL/GUI/lvgl/src/extra/themes/basic/lv_theme_basic.c ****  * @file lv_theme_basic.c
   3:Middlewares/LVGL/GUI/lvgl/src/extra/themes/basic/lv_theme_basic.c ****  *
   4:Middlewares/LVGL/GUI/lvgl/src/extra/themes/basic/lv_theme_basic.c ****  */
   5:Middlewares/LVGL/GUI/lvgl/src/extra/themes/basic/lv_theme_basic.c **** 
   6:Middlewares/LVGL/GUI/lvgl/src/extra/themes/basic/lv_theme_basic.c **** /*********************
   7:Middlewares/LVGL/GUI/lvgl/src/extra/themes/basic/lv_theme_basic.c ****  *      INCLUDES
   8:Middlewares/LVGL/GUI/lvgl/src/extra/themes/basic/lv_theme_basic.c ****  *********************/
   9:Middlewares/LVGL/GUI/lvgl/src/extra/themes/basic/lv_theme_basic.c **** #include "../../../lvgl.h" /*To see all the widgets*/
  10:Middlewares/LVGL/GUI/lvgl/src/extra/themes/basic/lv_theme_basic.c **** 
  11:Middlewares/LVGL/GUI/lvgl/src/extra/themes/basic/lv_theme_basic.c **** #if LV_USE_THEME_BASIC
  12:Middlewares/LVGL/GUI/lvgl/src/extra/themes/basic/lv_theme_basic.c **** 
  13:Middlewares/LVGL/GUI/lvgl/src/extra/themes/basic/lv_theme_basic.c **** #include "lv_theme_basic.h"
  14:Middlewares/LVGL/GUI/lvgl/src/extra/themes/basic/lv_theme_basic.c **** #include "../../../misc/lv_gc.h"
  15:Middlewares/LVGL/GUI/lvgl/src/extra/themes/basic/lv_theme_basic.c **** 
  16:Middlewares/LVGL/GUI/lvgl/src/extra/themes/basic/lv_theme_basic.c **** /*********************
  17:Middlewares/LVGL/GUI/lvgl/src/extra/themes/basic/lv_theme_basic.c ****  *      DEFINES
  18:Middlewares/LVGL/GUI/lvgl/src/extra/themes/basic/lv_theme_basic.c ****  *********************/
  19:Middlewares/LVGL/GUI/lvgl/src/extra/themes/basic/lv_theme_basic.c **** #define COLOR_SCR     lv_palette_lighten(LV_PALETTE_GREY, 4)
  20:Middlewares/LVGL/GUI/lvgl/src/extra/themes/basic/lv_theme_basic.c **** #define COLOR_WHITE   lv_color_white()
  21:Middlewares/LVGL/GUI/lvgl/src/extra/themes/basic/lv_theme_basic.c **** #define COLOR_LIGHT   lv_palette_lighten(LV_PALETTE_GREY, 2)
  22:Middlewares/LVGL/GUI/lvgl/src/extra/themes/basic/lv_theme_basic.c **** #define COLOR_DARK    lv_palette_main(LV_PALETTE_GREY)
  23:Middlewares/LVGL/GUI/lvgl/src/extra/themes/basic/lv_theme_basic.c **** #define COLOR_DIM     lv_palette_darken(LV_PALETTE_GREY, 2)
  24:Middlewares/LVGL/GUI/lvgl/src/extra/themes/basic/lv_theme_basic.c **** #define SCROLLBAR_WIDTH     2
  25:Middlewares/LVGL/GUI/lvgl/src/extra/themes/basic/lv_theme_basic.c **** 
  26:Middlewares/LVGL/GUI/lvgl/src/extra/themes/basic/lv_theme_basic.c **** /**********************
  27:Middlewares/LVGL/GUI/lvgl/src/extra/themes/basic/lv_theme_basic.c ****  *      TYPEDEFS
  28:Middlewares/LVGL/GUI/lvgl/src/extra/themes/basic/lv_theme_basic.c ****  **********************/
  29:Middlewares/LVGL/GUI/lvgl/src/extra/themes/basic/lv_theme_basic.c **** typedef struct {
  30:Middlewares/LVGL/GUI/lvgl/src/extra/themes/basic/lv_theme_basic.c ****     lv_style_t scr;
ARM GAS  C:\Users\ADMINI~1\AppData\Local\Temp\cc8gvSPg.s 			page 2


  31:Middlewares/LVGL/GUI/lvgl/src/extra/themes/basic/lv_theme_basic.c ****     lv_style_t transp;
  32:Middlewares/LVGL/GUI/lvgl/src/extra/themes/basic/lv_theme_basic.c ****     lv_style_t white;
  33:Middlewares/LVGL/GUI/lvgl/src/extra/themes/basic/lv_theme_basic.c ****     lv_style_t light;
  34:Middlewares/LVGL/GUI/lvgl/src/extra/themes/basic/lv_theme_basic.c ****     lv_style_t dark;
  35:Middlewares/LVGL/GUI/lvgl/src/extra/themes/basic/lv_theme_basic.c ****     lv_style_t dim;
  36:Middlewares/LVGL/GUI/lvgl/src/extra/themes/basic/lv_theme_basic.c ****     lv_style_t scrollbar;
  37:Middlewares/LVGL/GUI/lvgl/src/extra/themes/basic/lv_theme_basic.c **** #if LV_USE_ARC || LV_USE_COLORWHEEL
  38:Middlewares/LVGL/GUI/lvgl/src/extra/themes/basic/lv_theme_basic.c ****     lv_style_t arc_line;
  39:Middlewares/LVGL/GUI/lvgl/src/extra/themes/basic/lv_theme_basic.c ****     lv_style_t arc_knob;
  40:Middlewares/LVGL/GUI/lvgl/src/extra/themes/basic/lv_theme_basic.c **** #endif
  41:Middlewares/LVGL/GUI/lvgl/src/extra/themes/basic/lv_theme_basic.c **** #if LV_USE_TEXTAREA
  42:Middlewares/LVGL/GUI/lvgl/src/extra/themes/basic/lv_theme_basic.c ****     lv_style_t ta_cursor;
  43:Middlewares/LVGL/GUI/lvgl/src/extra/themes/basic/lv_theme_basic.c **** #endif
  44:Middlewares/LVGL/GUI/lvgl/src/extra/themes/basic/lv_theme_basic.c **** } my_theme_styles_t;
  45:Middlewares/LVGL/GUI/lvgl/src/extra/themes/basic/lv_theme_basic.c **** 
  46:Middlewares/LVGL/GUI/lvgl/src/extra/themes/basic/lv_theme_basic.c **** 
  47:Middlewares/LVGL/GUI/lvgl/src/extra/themes/basic/lv_theme_basic.c **** /**********************
  48:Middlewares/LVGL/GUI/lvgl/src/extra/themes/basic/lv_theme_basic.c ****  *  STATIC PROTOTYPES
  49:Middlewares/LVGL/GUI/lvgl/src/extra/themes/basic/lv_theme_basic.c ****  **********************/
  50:Middlewares/LVGL/GUI/lvgl/src/extra/themes/basic/lv_theme_basic.c **** static void style_init_reset(lv_style_t * style);
  51:Middlewares/LVGL/GUI/lvgl/src/extra/themes/basic/lv_theme_basic.c **** static void theme_apply(lv_theme_t * th, lv_obj_t * obj);
  52:Middlewares/LVGL/GUI/lvgl/src/extra/themes/basic/lv_theme_basic.c **** 
  53:Middlewares/LVGL/GUI/lvgl/src/extra/themes/basic/lv_theme_basic.c **** /**********************
  54:Middlewares/LVGL/GUI/lvgl/src/extra/themes/basic/lv_theme_basic.c ****  *  STATIC VARIABLES
  55:Middlewares/LVGL/GUI/lvgl/src/extra/themes/basic/lv_theme_basic.c ****  **********************/
  56:Middlewares/LVGL/GUI/lvgl/src/extra/themes/basic/lv_theme_basic.c **** static my_theme_styles_t * styles;
  57:Middlewares/LVGL/GUI/lvgl/src/extra/themes/basic/lv_theme_basic.c **** static lv_theme_t theme;
  58:Middlewares/LVGL/GUI/lvgl/src/extra/themes/basic/lv_theme_basic.c **** static bool inited;
  59:Middlewares/LVGL/GUI/lvgl/src/extra/themes/basic/lv_theme_basic.c **** 
  60:Middlewares/LVGL/GUI/lvgl/src/extra/themes/basic/lv_theme_basic.c **** /**********************
  61:Middlewares/LVGL/GUI/lvgl/src/extra/themes/basic/lv_theme_basic.c ****  *      MACROS
  62:Middlewares/LVGL/GUI/lvgl/src/extra/themes/basic/lv_theme_basic.c ****  **********************/
  63:Middlewares/LVGL/GUI/lvgl/src/extra/themes/basic/lv_theme_basic.c **** 
  64:Middlewares/LVGL/GUI/lvgl/src/extra/themes/basic/lv_theme_basic.c **** /**********************
  65:Middlewares/LVGL/GUI/lvgl/src/extra/themes/basic/lv_theme_basic.c ****  *   STATIC FUNCTIONS
  66:Middlewares/LVGL/GUI/lvgl/src/extra/themes/basic/lv_theme_basic.c ****  **********************/
  67:Middlewares/LVGL/GUI/lvgl/src/extra/themes/basic/lv_theme_basic.c **** 
  68:Middlewares/LVGL/GUI/lvgl/src/extra/themes/basic/lv_theme_basic.c **** static void style_init(void)
  69:Middlewares/LVGL/GUI/lvgl/src/extra/themes/basic/lv_theme_basic.c **** {
  70:Middlewares/LVGL/GUI/lvgl/src/extra/themes/basic/lv_theme_basic.c ****     style_init_reset(&styles->scrollbar);
  71:Middlewares/LVGL/GUI/lvgl/src/extra/themes/basic/lv_theme_basic.c ****     lv_style_set_bg_opa(&styles->scrollbar, LV_OPA_COVER);
  72:Middlewares/LVGL/GUI/lvgl/src/extra/themes/basic/lv_theme_basic.c ****     lv_style_set_bg_color(&styles->scrollbar, COLOR_DARK);
  73:Middlewares/LVGL/GUI/lvgl/src/extra/themes/basic/lv_theme_basic.c ****     lv_style_set_width(&styles->scrollbar,  SCROLLBAR_WIDTH);
  74:Middlewares/LVGL/GUI/lvgl/src/extra/themes/basic/lv_theme_basic.c **** 
  75:Middlewares/LVGL/GUI/lvgl/src/extra/themes/basic/lv_theme_basic.c ****     style_init_reset(&styles->scr);
  76:Middlewares/LVGL/GUI/lvgl/src/extra/themes/basic/lv_theme_basic.c ****     lv_style_set_bg_opa(&styles->scr, LV_OPA_COVER);
  77:Middlewares/LVGL/GUI/lvgl/src/extra/themes/basic/lv_theme_basic.c ****     lv_style_set_bg_color(&styles->scr, COLOR_SCR);
  78:Middlewares/LVGL/GUI/lvgl/src/extra/themes/basic/lv_theme_basic.c ****     lv_style_set_text_color(&styles->scr, COLOR_DIM);
  79:Middlewares/LVGL/GUI/lvgl/src/extra/themes/basic/lv_theme_basic.c **** 
  80:Middlewares/LVGL/GUI/lvgl/src/extra/themes/basic/lv_theme_basic.c **** 
  81:Middlewares/LVGL/GUI/lvgl/src/extra/themes/basic/lv_theme_basic.c ****     style_init_reset(&styles->transp);
  82:Middlewares/LVGL/GUI/lvgl/src/extra/themes/basic/lv_theme_basic.c ****     lv_style_set_bg_opa(&styles->transp, LV_OPA_TRANSP);
  83:Middlewares/LVGL/GUI/lvgl/src/extra/themes/basic/lv_theme_basic.c **** 
  84:Middlewares/LVGL/GUI/lvgl/src/extra/themes/basic/lv_theme_basic.c ****     style_init_reset(&styles->white);
  85:Middlewares/LVGL/GUI/lvgl/src/extra/themes/basic/lv_theme_basic.c ****     lv_style_set_bg_opa(&styles->white, LV_OPA_COVER);
  86:Middlewares/LVGL/GUI/lvgl/src/extra/themes/basic/lv_theme_basic.c ****     lv_style_set_bg_color(&styles->white, COLOR_WHITE);
  87:Middlewares/LVGL/GUI/lvgl/src/extra/themes/basic/lv_theme_basic.c ****     lv_style_set_line_width(&styles->white, 1);
ARM GAS  C:\Users\ADMINI~1\AppData\Local\Temp\cc8gvSPg.s 			page 3


  88:Middlewares/LVGL/GUI/lvgl/src/extra/themes/basic/lv_theme_basic.c ****     lv_style_set_line_color(&styles->white, COLOR_WHITE);
  89:Middlewares/LVGL/GUI/lvgl/src/extra/themes/basic/lv_theme_basic.c ****     lv_style_set_arc_width(&styles->white, 2);
  90:Middlewares/LVGL/GUI/lvgl/src/extra/themes/basic/lv_theme_basic.c ****     lv_style_set_arc_color(&styles->white, COLOR_WHITE);
  91:Middlewares/LVGL/GUI/lvgl/src/extra/themes/basic/lv_theme_basic.c **** 
  92:Middlewares/LVGL/GUI/lvgl/src/extra/themes/basic/lv_theme_basic.c **** 
  93:Middlewares/LVGL/GUI/lvgl/src/extra/themes/basic/lv_theme_basic.c ****     style_init_reset(&styles->light);
  94:Middlewares/LVGL/GUI/lvgl/src/extra/themes/basic/lv_theme_basic.c ****     lv_style_set_bg_opa(&styles->light, LV_OPA_COVER);
  95:Middlewares/LVGL/GUI/lvgl/src/extra/themes/basic/lv_theme_basic.c ****     lv_style_set_bg_color(&styles->light, COLOR_LIGHT);
  96:Middlewares/LVGL/GUI/lvgl/src/extra/themes/basic/lv_theme_basic.c ****     lv_style_set_line_width(&styles->light, 1);
  97:Middlewares/LVGL/GUI/lvgl/src/extra/themes/basic/lv_theme_basic.c ****     lv_style_set_line_color(&styles->light, COLOR_LIGHT);
  98:Middlewares/LVGL/GUI/lvgl/src/extra/themes/basic/lv_theme_basic.c ****     lv_style_set_arc_width(&styles->light, 2);
  99:Middlewares/LVGL/GUI/lvgl/src/extra/themes/basic/lv_theme_basic.c ****     lv_style_set_arc_color(&styles->light, COLOR_LIGHT);
 100:Middlewares/LVGL/GUI/lvgl/src/extra/themes/basic/lv_theme_basic.c **** 
 101:Middlewares/LVGL/GUI/lvgl/src/extra/themes/basic/lv_theme_basic.c ****     style_init_reset(&styles->dark);
 102:Middlewares/LVGL/GUI/lvgl/src/extra/themes/basic/lv_theme_basic.c ****     lv_style_set_bg_opa(&styles->dark, LV_OPA_COVER);
 103:Middlewares/LVGL/GUI/lvgl/src/extra/themes/basic/lv_theme_basic.c ****     lv_style_set_bg_color(&styles->dark, COLOR_DARK);
 104:Middlewares/LVGL/GUI/lvgl/src/extra/themes/basic/lv_theme_basic.c ****     lv_style_set_line_width(&styles->dark, 1);
 105:Middlewares/LVGL/GUI/lvgl/src/extra/themes/basic/lv_theme_basic.c ****     lv_style_set_line_color(&styles->dark, COLOR_DARK);
 106:Middlewares/LVGL/GUI/lvgl/src/extra/themes/basic/lv_theme_basic.c ****     lv_style_set_arc_width(&styles->dark, 2);
 107:Middlewares/LVGL/GUI/lvgl/src/extra/themes/basic/lv_theme_basic.c ****     lv_style_set_arc_color(&styles->dark, COLOR_DARK);
 108:Middlewares/LVGL/GUI/lvgl/src/extra/themes/basic/lv_theme_basic.c **** 
 109:Middlewares/LVGL/GUI/lvgl/src/extra/themes/basic/lv_theme_basic.c ****     style_init_reset(&styles->dim);
 110:Middlewares/LVGL/GUI/lvgl/src/extra/themes/basic/lv_theme_basic.c ****     lv_style_set_bg_opa(&styles->dim, LV_OPA_COVER);
 111:Middlewares/LVGL/GUI/lvgl/src/extra/themes/basic/lv_theme_basic.c ****     lv_style_set_bg_color(&styles->dim, COLOR_DIM);
 112:Middlewares/LVGL/GUI/lvgl/src/extra/themes/basic/lv_theme_basic.c ****     lv_style_set_line_width(&styles->dim, 1);
 113:Middlewares/LVGL/GUI/lvgl/src/extra/themes/basic/lv_theme_basic.c ****     lv_style_set_line_color(&styles->dim, COLOR_DIM);
 114:Middlewares/LVGL/GUI/lvgl/src/extra/themes/basic/lv_theme_basic.c ****     lv_style_set_arc_width(&styles->dim, 2);
 115:Middlewares/LVGL/GUI/lvgl/src/extra/themes/basic/lv_theme_basic.c ****     lv_style_set_arc_color(&styles->dim, COLOR_DIM);
 116:Middlewares/LVGL/GUI/lvgl/src/extra/themes/basic/lv_theme_basic.c **** 
 117:Middlewares/LVGL/GUI/lvgl/src/extra/themes/basic/lv_theme_basic.c **** #if LV_USE_ARC || LV_USE_COLORWHEEL
 118:Middlewares/LVGL/GUI/lvgl/src/extra/themes/basic/lv_theme_basic.c ****     style_init_reset(&styles->arc_line);
 119:Middlewares/LVGL/GUI/lvgl/src/extra/themes/basic/lv_theme_basic.c ****     lv_style_set_arc_width(&styles->arc_line, 6);
 120:Middlewares/LVGL/GUI/lvgl/src/extra/themes/basic/lv_theme_basic.c ****     style_init_reset(&styles->arc_knob);
 121:Middlewares/LVGL/GUI/lvgl/src/extra/themes/basic/lv_theme_basic.c ****     lv_style_set_pad_all(&styles->arc_knob, 5);
 122:Middlewares/LVGL/GUI/lvgl/src/extra/themes/basic/lv_theme_basic.c **** #endif
 123:Middlewares/LVGL/GUI/lvgl/src/extra/themes/basic/lv_theme_basic.c **** 
 124:Middlewares/LVGL/GUI/lvgl/src/extra/themes/basic/lv_theme_basic.c **** #if LV_USE_TEXTAREA
 125:Middlewares/LVGL/GUI/lvgl/src/extra/themes/basic/lv_theme_basic.c ****     style_init_reset(&styles->ta_cursor);
 126:Middlewares/LVGL/GUI/lvgl/src/extra/themes/basic/lv_theme_basic.c ****     lv_style_set_border_side(&styles->ta_cursor, LV_BORDER_SIDE_LEFT);
 127:Middlewares/LVGL/GUI/lvgl/src/extra/themes/basic/lv_theme_basic.c ****     lv_style_set_border_color(&styles->ta_cursor, COLOR_DIM);
 128:Middlewares/LVGL/GUI/lvgl/src/extra/themes/basic/lv_theme_basic.c ****     lv_style_set_border_width(&styles->ta_cursor, 2);
 129:Middlewares/LVGL/GUI/lvgl/src/extra/themes/basic/lv_theme_basic.c ****     lv_style_set_bg_opa(&styles->ta_cursor, LV_OPA_TRANSP);
 130:Middlewares/LVGL/GUI/lvgl/src/extra/themes/basic/lv_theme_basic.c ****     lv_style_set_anim_time(&styles->ta_cursor, 500);
 131:Middlewares/LVGL/GUI/lvgl/src/extra/themes/basic/lv_theme_basic.c **** #endif
 132:Middlewares/LVGL/GUI/lvgl/src/extra/themes/basic/lv_theme_basic.c **** }
 133:Middlewares/LVGL/GUI/lvgl/src/extra/themes/basic/lv_theme_basic.c **** 
 134:Middlewares/LVGL/GUI/lvgl/src/extra/themes/basic/lv_theme_basic.c **** 
 135:Middlewares/LVGL/GUI/lvgl/src/extra/themes/basic/lv_theme_basic.c **** /**********************
 136:Middlewares/LVGL/GUI/lvgl/src/extra/themes/basic/lv_theme_basic.c ****  *   GLOBAL FUNCTIONS
 137:Middlewares/LVGL/GUI/lvgl/src/extra/themes/basic/lv_theme_basic.c ****  **********************/
 138:Middlewares/LVGL/GUI/lvgl/src/extra/themes/basic/lv_theme_basic.c **** 
 139:Middlewares/LVGL/GUI/lvgl/src/extra/themes/basic/lv_theme_basic.c **** bool lv_theme_basic_is_inited(void)
 140:Middlewares/LVGL/GUI/lvgl/src/extra/themes/basic/lv_theme_basic.c **** {
 141:Middlewares/LVGL/GUI/lvgl/src/extra/themes/basic/lv_theme_basic.c ****     return  LV_GC_ROOT(_lv_theme_basic_styles) == NULL ? false : true;
 142:Middlewares/LVGL/GUI/lvgl/src/extra/themes/basic/lv_theme_basic.c **** }
 143:Middlewares/LVGL/GUI/lvgl/src/extra/themes/basic/lv_theme_basic.c **** 
 144:Middlewares/LVGL/GUI/lvgl/src/extra/themes/basic/lv_theme_basic.c **** lv_theme_t * lv_theme_basic_init(lv_disp_t * disp)
ARM GAS  C:\Users\ADMINI~1\AppData\Local\Temp\cc8gvSPg.s 			page 4


 145:Middlewares/LVGL/GUI/lvgl/src/extra/themes/basic/lv_theme_basic.c **** {
 146:Middlewares/LVGL/GUI/lvgl/src/extra/themes/basic/lv_theme_basic.c **** 
 147:Middlewares/LVGL/GUI/lvgl/src/extra/themes/basic/lv_theme_basic.c ****     /*This trick is required only to avoid the garbage collection of
 148:Middlewares/LVGL/GUI/lvgl/src/extra/themes/basic/lv_theme_basic.c ****      *styles' data if LVGL is used in a binding (e.g. Micropython)
 149:Middlewares/LVGL/GUI/lvgl/src/extra/themes/basic/lv_theme_basic.c ****      *In a general case styles could be in simple `static lv_style_t my_style...` variables*/
 150:Middlewares/LVGL/GUI/lvgl/src/extra/themes/basic/lv_theme_basic.c ****     if(!lv_theme_basic_is_inited()) {
 151:Middlewares/LVGL/GUI/lvgl/src/extra/themes/basic/lv_theme_basic.c ****         inited = false;
 152:Middlewares/LVGL/GUI/lvgl/src/extra/themes/basic/lv_theme_basic.c ****         LV_GC_ROOT(_lv_theme_basic_styles) = lv_mem_alloc(sizeof(my_theme_styles_t));
 153:Middlewares/LVGL/GUI/lvgl/src/extra/themes/basic/lv_theme_basic.c ****         styles = (my_theme_styles_t *)LV_GC_ROOT(_lv_theme_basic_styles);
 154:Middlewares/LVGL/GUI/lvgl/src/extra/themes/basic/lv_theme_basic.c ****     }
 155:Middlewares/LVGL/GUI/lvgl/src/extra/themes/basic/lv_theme_basic.c **** 
 156:Middlewares/LVGL/GUI/lvgl/src/extra/themes/basic/lv_theme_basic.c ****     theme.disp = disp;
 157:Middlewares/LVGL/GUI/lvgl/src/extra/themes/basic/lv_theme_basic.c ****     theme.font_small = LV_FONT_DEFAULT;
 158:Middlewares/LVGL/GUI/lvgl/src/extra/themes/basic/lv_theme_basic.c ****     theme.font_normal = LV_FONT_DEFAULT;
 159:Middlewares/LVGL/GUI/lvgl/src/extra/themes/basic/lv_theme_basic.c ****     theme.font_large = LV_FONT_DEFAULT;
 160:Middlewares/LVGL/GUI/lvgl/src/extra/themes/basic/lv_theme_basic.c ****     theme.apply_cb = theme_apply;
 161:Middlewares/LVGL/GUI/lvgl/src/extra/themes/basic/lv_theme_basic.c **** 
 162:Middlewares/LVGL/GUI/lvgl/src/extra/themes/basic/lv_theme_basic.c ****     style_init();
 163:Middlewares/LVGL/GUI/lvgl/src/extra/themes/basic/lv_theme_basic.c **** 
 164:Middlewares/LVGL/GUI/lvgl/src/extra/themes/basic/lv_theme_basic.c ****     if(disp == NULL || lv_disp_get_theme(disp) == &theme) {
 165:Middlewares/LVGL/GUI/lvgl/src/extra/themes/basic/lv_theme_basic.c ****         lv_obj_report_style_change(NULL);
 166:Middlewares/LVGL/GUI/lvgl/src/extra/themes/basic/lv_theme_basic.c ****     }
 167:Middlewares/LVGL/GUI/lvgl/src/extra/themes/basic/lv_theme_basic.c **** 
 168:Middlewares/LVGL/GUI/lvgl/src/extra/themes/basic/lv_theme_basic.c ****     inited = true;
 169:Middlewares/LVGL/GUI/lvgl/src/extra/themes/basic/lv_theme_basic.c **** 
 170:Middlewares/LVGL/GUI/lvgl/src/extra/themes/basic/lv_theme_basic.c ****     return (lv_theme_t *)&theme;
 171:Middlewares/LVGL/GUI/lvgl/src/extra/themes/basic/lv_theme_basic.c **** }
 172:Middlewares/LVGL/GUI/lvgl/src/extra/themes/basic/lv_theme_basic.c **** 
 173:Middlewares/LVGL/GUI/lvgl/src/extra/themes/basic/lv_theme_basic.c **** 
 174:Middlewares/LVGL/GUI/lvgl/src/extra/themes/basic/lv_theme_basic.c **** static void theme_apply(lv_theme_t * th, lv_obj_t * obj)
 175:Middlewares/LVGL/GUI/lvgl/src/extra/themes/basic/lv_theme_basic.c **** {
  29              		.loc 1 175 1 view -0
  30              		.cfi_startproc
  31              		@ args = 0, pretend = 0, frame = 0
  32              		@ frame_needed = 0, uses_anonymous_args = 0
  33              		.loc 1 175 1 is_stmt 0 view .LVU1
  34 0000 38B5     		push	{r3, r4, r5, lr}
  35              	.LCFI0:
  36              		.cfi_def_cfa_offset 16
  37              		.cfi_offset 3, -16
  38              		.cfi_offset 4, -12
  39              		.cfi_offset 5, -8
  40              		.cfi_offset 14, -4
  41 0002 0C46     		mov	r4, r1
 176:Middlewares/LVGL/GUI/lvgl/src/extra/themes/basic/lv_theme_basic.c ****     LV_UNUSED(th);
  42              		.loc 1 176 5 is_stmt 1 view .LVU2
 177:Middlewares/LVGL/GUI/lvgl/src/extra/themes/basic/lv_theme_basic.c **** 
 178:Middlewares/LVGL/GUI/lvgl/src/extra/themes/basic/lv_theme_basic.c ****     if(lv_obj_get_parent(obj) == NULL) {
  43              		.loc 1 178 5 view .LVU3
  44              		.loc 1 178 8 is_stmt 0 view .LVU4
  45 0004 0846     		mov	r0, r1
  46              	.LVL1:
  47              		.loc 1 178 8 view .LVU5
  48 0006 FFF7FEFF 		bl	lv_obj_get_parent
  49              	.LVL2:
  50              		.loc 1 178 7 view .LVU6
  51 000a A0B3     		cbz	r0, .L37
ARM GAS  C:\Users\ADMINI~1\AppData\Local\Temp\cc8gvSPg.s 			page 5


 179:Middlewares/LVGL/GUI/lvgl/src/extra/themes/basic/lv_theme_basic.c ****         lv_obj_add_style(obj, &styles->scr, 0);
 180:Middlewares/LVGL/GUI/lvgl/src/extra/themes/basic/lv_theme_basic.c ****         lv_obj_add_style(obj, &styles->scrollbar, LV_PART_SCROLLBAR);
 181:Middlewares/LVGL/GUI/lvgl/src/extra/themes/basic/lv_theme_basic.c ****         return;
 182:Middlewares/LVGL/GUI/lvgl/src/extra/themes/basic/lv_theme_basic.c ****     }
 183:Middlewares/LVGL/GUI/lvgl/src/extra/themes/basic/lv_theme_basic.c **** 
 184:Middlewares/LVGL/GUI/lvgl/src/extra/themes/basic/lv_theme_basic.c ****     if(lv_obj_check_type(obj, &lv_obj_class)) {
  52              		.loc 1 184 5 is_stmt 1 view .LVU7
  53              		.loc 1 184 8 is_stmt 0 view .LVU8
  54 000c B349     		ldr	r1, .L46
  55 000e 2046     		mov	r0, r4
  56 0010 FFF7FEFF 		bl	lv_obj_check_type
  57              	.LVL3:
  58              		.loc 1 184 7 view .LVU9
  59 0014 0028     		cmp	r0, #0
  60 0016 70D0     		beq	.L4
  61              	.LBB16:
 185:Middlewares/LVGL/GUI/lvgl/src/extra/themes/basic/lv_theme_basic.c **** #if LV_USE_TABVIEW
 186:Middlewares/LVGL/GUI/lvgl/src/extra/themes/basic/lv_theme_basic.c ****         lv_obj_t * parent = lv_obj_get_parent(obj);
  62              		.loc 1 186 9 is_stmt 1 view .LVU10
  63              		.loc 1 186 29 is_stmt 0 view .LVU11
  64 0018 2046     		mov	r0, r4
  65 001a FFF7FEFF 		bl	lv_obj_get_parent
  66              	.LVL4:
  67 001e 0546     		mov	r5, r0
  68              	.LVL5:
 187:Middlewares/LVGL/GUI/lvgl/src/extra/themes/basic/lv_theme_basic.c ****         /*Tabview content area*/
 188:Middlewares/LVGL/GUI/lvgl/src/extra/themes/basic/lv_theme_basic.c ****         if(lv_obj_check_type(parent, &lv_tabview_class)) {
  69              		.loc 1 188 9 is_stmt 1 view .LVU12
  70              		.loc 1 188 12 is_stmt 0 view .LVU13
  71 0020 AF49     		ldr	r1, .L46+4
  72 0022 FFF7FEFF 		bl	lv_obj_check_type
  73              	.LVL6:
  74              		.loc 1 188 11 view .LVU14
  75 0026 A0BB     		cbnz	r0, .L38
 189:Middlewares/LVGL/GUI/lvgl/src/extra/themes/basic/lv_theme_basic.c ****             lv_obj_add_style(obj, &styles->scr, 0);
 190:Middlewares/LVGL/GUI/lvgl/src/extra/themes/basic/lv_theme_basic.c ****             return;
 191:Middlewares/LVGL/GUI/lvgl/src/extra/themes/basic/lv_theme_basic.c ****         }
 192:Middlewares/LVGL/GUI/lvgl/src/extra/themes/basic/lv_theme_basic.c ****         /*Tabview pages*/
 193:Middlewares/LVGL/GUI/lvgl/src/extra/themes/basic/lv_theme_basic.c ****         else if(lv_obj_check_type(lv_obj_get_parent(parent), &lv_tabview_class)) {
  76              		.loc 1 193 14 is_stmt 1 view .LVU15
  77              		.loc 1 193 35 is_stmt 0 view .LVU16
  78 0028 2846     		mov	r0, r5
  79 002a FFF7FEFF 		bl	lv_obj_get_parent
  80              	.LVL7:
  81              		.loc 1 193 17 view .LVU17
  82 002e AC49     		ldr	r1, .L46+4
  83 0030 FFF7FEFF 		bl	lv_obj_check_type
  84              	.LVL8:
  85              		.loc 1 193 16 view .LVU18
  86 0034 A0BB     		cbnz	r0, .L39
 194:Middlewares/LVGL/GUI/lvgl/src/extra/themes/basic/lv_theme_basic.c ****             lv_obj_add_style(obj, &styles->scr, 0);
 195:Middlewares/LVGL/GUI/lvgl/src/extra/themes/basic/lv_theme_basic.c ****             lv_obj_add_style(obj, &styles->scrollbar, LV_PART_SCROLLBAR);
 196:Middlewares/LVGL/GUI/lvgl/src/extra/themes/basic/lv_theme_basic.c ****             return;
 197:Middlewares/LVGL/GUI/lvgl/src/extra/themes/basic/lv_theme_basic.c ****         }
 198:Middlewares/LVGL/GUI/lvgl/src/extra/themes/basic/lv_theme_basic.c **** #endif
 199:Middlewares/LVGL/GUI/lvgl/src/extra/themes/basic/lv_theme_basic.c **** 
 200:Middlewares/LVGL/GUI/lvgl/src/extra/themes/basic/lv_theme_basic.c **** #if LV_USE_WIN
ARM GAS  C:\Users\ADMINI~1\AppData\Local\Temp\cc8gvSPg.s 			page 6


 201:Middlewares/LVGL/GUI/lvgl/src/extra/themes/basic/lv_theme_basic.c ****         /*Header*/
 202:Middlewares/LVGL/GUI/lvgl/src/extra/themes/basic/lv_theme_basic.c ****         if(lv_obj_get_index(obj) == 0 && lv_obj_check_type(lv_obj_get_parent(obj), &lv_win_class)) 
  87              		.loc 1 202 9 is_stmt 1 view .LVU19
  88              		.loc 1 202 12 is_stmt 0 view .LVU20
  89 0036 2046     		mov	r0, r4
  90 0038 FFF7FEFF 		bl	lv_obj_get_index
  91              	.LVL9:
  92              		.loc 1 202 11 view .LVU21
  93 003c 38B9     		cbnz	r0, .L7
  94              		.loc 1 202 60 discriminator 1 view .LVU22
  95 003e 2046     		mov	r0, r4
  96 0040 FFF7FEFF 		bl	lv_obj_get_parent
  97              	.LVL10:
  98              		.loc 1 202 42 discriminator 1 view .LVU23
  99 0044 A749     		ldr	r1, .L46+8
 100 0046 FFF7FEFF 		bl	lv_obj_check_type
 101              	.LVL11:
 102              		.loc 1 202 39 discriminator 1 view .LVU24
 103 004a 0028     		cmp	r0, #0
 104 004c 36D1     		bne	.L40
 105              	.L7:
 203:Middlewares/LVGL/GUI/lvgl/src/extra/themes/basic/lv_theme_basic.c ****             lv_obj_add_style(obj, &styles->light, 0);
 204:Middlewares/LVGL/GUI/lvgl/src/extra/themes/basic/lv_theme_basic.c ****             return;
 205:Middlewares/LVGL/GUI/lvgl/src/extra/themes/basic/lv_theme_basic.c ****         }
 206:Middlewares/LVGL/GUI/lvgl/src/extra/themes/basic/lv_theme_basic.c ****         /*Content*/
 207:Middlewares/LVGL/GUI/lvgl/src/extra/themes/basic/lv_theme_basic.c ****         else if(lv_obj_get_index(obj) == 1 && lv_obj_check_type(lv_obj_get_parent(obj), &lv_win_cla
 106              		.loc 1 207 14 is_stmt 1 view .LVU25
 107              		.loc 1 207 17 is_stmt 0 view .LVU26
 108 004e 2046     		mov	r0, r4
 109 0050 FFF7FEFF 		bl	lv_obj_get_index
 110              	.LVL12:
 111              		.loc 1 207 16 view .LVU27
 112 0054 0128     		cmp	r0, #1
 113 0056 39D0     		beq	.L41
 114              	.L8:
 208:Middlewares/LVGL/GUI/lvgl/src/extra/themes/basic/lv_theme_basic.c ****             lv_obj_add_style(obj, &styles->light, 0);
 209:Middlewares/LVGL/GUI/lvgl/src/extra/themes/basic/lv_theme_basic.c ****             lv_obj_add_style(obj, &styles->scrollbar, LV_PART_SCROLLBAR);
 210:Middlewares/LVGL/GUI/lvgl/src/extra/themes/basic/lv_theme_basic.c ****             return;
 211:Middlewares/LVGL/GUI/lvgl/src/extra/themes/basic/lv_theme_basic.c ****         }
 212:Middlewares/LVGL/GUI/lvgl/src/extra/themes/basic/lv_theme_basic.c **** #endif
 213:Middlewares/LVGL/GUI/lvgl/src/extra/themes/basic/lv_theme_basic.c ****         lv_obj_add_style(obj, &styles->white, 0);
 115              		.loc 1 213 9 is_stmt 1 view .LVU28
 116              		.loc 1 213 38 is_stmt 0 view .LVU29
 117 0058 A34D     		ldr	r5, .L46+12
 118              	.LVL13:
 119              		.loc 1 213 38 view .LVU30
 120 005a 2968     		ldr	r1, [r5]
 121              		.loc 1 213 9 view .LVU31
 122 005c 0022     		movs	r2, #0
 123 005e 1031     		adds	r1, r1, #16
 124 0060 2046     		mov	r0, r4
 125 0062 FFF7FEFF 		bl	lv_obj_add_style
 126              	.LVL14:
 214:Middlewares/LVGL/GUI/lvgl/src/extra/themes/basic/lv_theme_basic.c ****         lv_obj_add_style(obj, &styles->scrollbar, LV_PART_SCROLLBAR);
 127              		.loc 1 214 9 is_stmt 1 view .LVU32
 128              		.loc 1 214 38 is_stmt 0 view .LVU33
 129 0066 2968     		ldr	r1, [r5]
ARM GAS  C:\Users\ADMINI~1\AppData\Local\Temp\cc8gvSPg.s 			page 7


 130              		.loc 1 214 9 view .LVU34
 131 0068 4FF48032 		mov	r2, #65536
 132 006c 3031     		adds	r1, r1, #48
 133 006e 2046     		mov	r0, r4
 134 0070 FFF7FEFF 		bl	lv_obj_add_style
 135              	.LVL15:
 136              	.LBE16:
 137 0074 4DE0     		b	.L1
 138              	.L37:
 179:Middlewares/LVGL/GUI/lvgl/src/extra/themes/basic/lv_theme_basic.c ****         lv_obj_add_style(obj, &styles->scrollbar, LV_PART_SCROLLBAR);
 139              		.loc 1 179 9 is_stmt 1 view .LVU35
 179:Middlewares/LVGL/GUI/lvgl/src/extra/themes/basic/lv_theme_basic.c ****         lv_obj_add_style(obj, &styles->scrollbar, LV_PART_SCROLLBAR);
 140              		.loc 1 179 38 is_stmt 0 view .LVU36
 141 0076 9C4D     		ldr	r5, .L46+12
 179:Middlewares/LVGL/GUI/lvgl/src/extra/themes/basic/lv_theme_basic.c ****         lv_obj_add_style(obj, &styles->scrollbar, LV_PART_SCROLLBAR);
 142              		.loc 1 179 9 view .LVU37
 143 0078 0022     		movs	r2, #0
 144 007a 2968     		ldr	r1, [r5]
 145 007c 2046     		mov	r0, r4
 146 007e FFF7FEFF 		bl	lv_obj_add_style
 147              	.LVL16:
 180:Middlewares/LVGL/GUI/lvgl/src/extra/themes/basic/lv_theme_basic.c ****         return;
 148              		.loc 1 180 9 is_stmt 1 view .LVU38
 180:Middlewares/LVGL/GUI/lvgl/src/extra/themes/basic/lv_theme_basic.c ****         return;
 149              		.loc 1 180 38 is_stmt 0 view .LVU39
 150 0082 2968     		ldr	r1, [r5]
 180:Middlewares/LVGL/GUI/lvgl/src/extra/themes/basic/lv_theme_basic.c ****         return;
 151              		.loc 1 180 9 view .LVU40
 152 0084 4FF48032 		mov	r2, #65536
 153 0088 3031     		adds	r1, r1, #48
 154 008a 2046     		mov	r0, r4
 155 008c FFF7FEFF 		bl	lv_obj_add_style
 156              	.LVL17:
 181:Middlewares/LVGL/GUI/lvgl/src/extra/themes/basic/lv_theme_basic.c ****     }
 157              		.loc 1 181 9 is_stmt 1 view .LVU41
 158 0090 3FE0     		b	.L1
 159              	.LVL18:
 160              	.L38:
 161              	.LBB17:
 189:Middlewares/LVGL/GUI/lvgl/src/extra/themes/basic/lv_theme_basic.c ****             return;
 162              		.loc 1 189 13 view .LVU42
 163 0092 0022     		movs	r2, #0
 164 0094 944B     		ldr	r3, .L46+12
 165 0096 1968     		ldr	r1, [r3]
 166 0098 2046     		mov	r0, r4
 167 009a FFF7FEFF 		bl	lv_obj_add_style
 168              	.LVL19:
 190:Middlewares/LVGL/GUI/lvgl/src/extra/themes/basic/lv_theme_basic.c ****         }
 169              		.loc 1 190 13 view .LVU43
 170 009e 38E0     		b	.L1
 171              	.L39:
 194:Middlewares/LVGL/GUI/lvgl/src/extra/themes/basic/lv_theme_basic.c ****             lv_obj_add_style(obj, &styles->scrollbar, LV_PART_SCROLLBAR);
 172              		.loc 1 194 13 view .LVU44
 194:Middlewares/LVGL/GUI/lvgl/src/extra/themes/basic/lv_theme_basic.c ****             lv_obj_add_style(obj, &styles->scrollbar, LV_PART_SCROLLBAR);
 173              		.loc 1 194 42 is_stmt 0 view .LVU45
 174 00a0 914D     		ldr	r5, .L46+12
 175              	.LVL20:
ARM GAS  C:\Users\ADMINI~1\AppData\Local\Temp\cc8gvSPg.s 			page 8


 194:Middlewares/LVGL/GUI/lvgl/src/extra/themes/basic/lv_theme_basic.c ****             lv_obj_add_style(obj, &styles->scrollbar, LV_PART_SCROLLBAR);
 176              		.loc 1 194 13 view .LVU46
 177 00a2 0022     		movs	r2, #0
 178 00a4 2968     		ldr	r1, [r5]
 179 00a6 2046     		mov	r0, r4
 180 00a8 FFF7FEFF 		bl	lv_obj_add_style
 181              	.LVL21:
 195:Middlewares/LVGL/GUI/lvgl/src/extra/themes/basic/lv_theme_basic.c ****             return;
 182              		.loc 1 195 13 is_stmt 1 view .LVU47
 195:Middlewares/LVGL/GUI/lvgl/src/extra/themes/basic/lv_theme_basic.c ****             return;
 183              		.loc 1 195 42 is_stmt 0 view .LVU48
 184 00ac 2968     		ldr	r1, [r5]
 195:Middlewares/LVGL/GUI/lvgl/src/extra/themes/basic/lv_theme_basic.c ****             return;
 185              		.loc 1 195 13 view .LVU49
 186 00ae 4FF48032 		mov	r2, #65536
 187 00b2 3031     		adds	r1, r1, #48
 188 00b4 2046     		mov	r0, r4
 189 00b6 FFF7FEFF 		bl	lv_obj_add_style
 190              	.LVL22:
 196:Middlewares/LVGL/GUI/lvgl/src/extra/themes/basic/lv_theme_basic.c ****         }
 191              		.loc 1 196 13 is_stmt 1 view .LVU50
 192 00ba 2AE0     		b	.L1
 193              	.LVL23:
 194              	.L40:
 203:Middlewares/LVGL/GUI/lvgl/src/extra/themes/basic/lv_theme_basic.c ****             return;
 195              		.loc 1 203 13 view .LVU51
 203:Middlewares/LVGL/GUI/lvgl/src/extra/themes/basic/lv_theme_basic.c ****             return;
 196              		.loc 1 203 42 is_stmt 0 view .LVU52
 197 00bc 8A4B     		ldr	r3, .L46+12
 198 00be 1968     		ldr	r1, [r3]
 203:Middlewares/LVGL/GUI/lvgl/src/extra/themes/basic/lv_theme_basic.c ****             return;
 199              		.loc 1 203 13 view .LVU53
 200 00c0 0022     		movs	r2, #0
 201 00c2 1831     		adds	r1, r1, #24
 202 00c4 2046     		mov	r0, r4
 203 00c6 FFF7FEFF 		bl	lv_obj_add_style
 204              	.LVL24:
 204:Middlewares/LVGL/GUI/lvgl/src/extra/themes/basic/lv_theme_basic.c ****         }
 205              		.loc 1 204 13 is_stmt 1 view .LVU54
 206 00ca 22E0     		b	.L1
 207              	.L41:
 207:Middlewares/LVGL/GUI/lvgl/src/extra/themes/basic/lv_theme_basic.c ****             lv_obj_add_style(obj, &styles->light, 0);
 208              		.loc 1 207 65 is_stmt 0 discriminator 1 view .LVU55
 209 00cc 2046     		mov	r0, r4
 210 00ce FFF7FEFF 		bl	lv_obj_get_parent
 211              	.LVL25:
 207:Middlewares/LVGL/GUI/lvgl/src/extra/themes/basic/lv_theme_basic.c ****             lv_obj_add_style(obj, &styles->light, 0);
 212              		.loc 1 207 47 discriminator 1 view .LVU56
 213 00d2 8449     		ldr	r1, .L46+8
 214 00d4 FFF7FEFF 		bl	lv_obj_check_type
 215              	.LVL26:
 207:Middlewares/LVGL/GUI/lvgl/src/extra/themes/basic/lv_theme_basic.c ****             lv_obj_add_style(obj, &styles->light, 0);
 216              		.loc 1 207 44 discriminator 1 view .LVU57
 217 00d8 0028     		cmp	r0, #0
 218 00da BDD0     		beq	.L8
 208:Middlewares/LVGL/GUI/lvgl/src/extra/themes/basic/lv_theme_basic.c ****             lv_obj_add_style(obj, &styles->scrollbar, LV_PART_SCROLLBAR);
 219              		.loc 1 208 13 is_stmt 1 view .LVU58
ARM GAS  C:\Users\ADMINI~1\AppData\Local\Temp\cc8gvSPg.s 			page 9


 208:Middlewares/LVGL/GUI/lvgl/src/extra/themes/basic/lv_theme_basic.c ****             lv_obj_add_style(obj, &styles->scrollbar, LV_PART_SCROLLBAR);
 220              		.loc 1 208 42 is_stmt 0 view .LVU59
 221 00dc 824D     		ldr	r5, .L46+12
 222              	.LVL27:
 208:Middlewares/LVGL/GUI/lvgl/src/extra/themes/basic/lv_theme_basic.c ****             lv_obj_add_style(obj, &styles->scrollbar, LV_PART_SCROLLBAR);
 223              		.loc 1 208 42 view .LVU60
 224 00de 2968     		ldr	r1, [r5]
 208:Middlewares/LVGL/GUI/lvgl/src/extra/themes/basic/lv_theme_basic.c ****             lv_obj_add_style(obj, &styles->scrollbar, LV_PART_SCROLLBAR);
 225              		.loc 1 208 13 view .LVU61
 226 00e0 0022     		movs	r2, #0
 227 00e2 1831     		adds	r1, r1, #24
 228 00e4 2046     		mov	r0, r4
 229 00e6 FFF7FEFF 		bl	lv_obj_add_style
 230              	.LVL28:
 209:Middlewares/LVGL/GUI/lvgl/src/extra/themes/basic/lv_theme_basic.c ****             return;
 231              		.loc 1 209 13 is_stmt 1 view .LVU62
 209:Middlewares/LVGL/GUI/lvgl/src/extra/themes/basic/lv_theme_basic.c ****             return;
 232              		.loc 1 209 42 is_stmt 0 view .LVU63
 233 00ea 2968     		ldr	r1, [r5]
 209:Middlewares/LVGL/GUI/lvgl/src/extra/themes/basic/lv_theme_basic.c ****             return;
 234              		.loc 1 209 13 view .LVU64
 235 00ec 4FF48032 		mov	r2, #65536
 236 00f0 3031     		adds	r1, r1, #48
 237 00f2 2046     		mov	r0, r4
 238 00f4 FFF7FEFF 		bl	lv_obj_add_style
 239              	.LVL29:
 210:Middlewares/LVGL/GUI/lvgl/src/extra/themes/basic/lv_theme_basic.c ****         }
 240              		.loc 1 210 13 is_stmt 1 view .LVU65
 241 00f8 0BE0     		b	.L1
 242              	.L4:
 210:Middlewares/LVGL/GUI/lvgl/src/extra/themes/basic/lv_theme_basic.c ****         }
 243              		.loc 1 210 13 is_stmt 0 view .LVU66
 244              	.LBE17:
 215:Middlewares/LVGL/GUI/lvgl/src/extra/themes/basic/lv_theme_basic.c ****     }
 216:Middlewares/LVGL/GUI/lvgl/src/extra/themes/basic/lv_theme_basic.c **** #if LV_USE_BTN
 217:Middlewares/LVGL/GUI/lvgl/src/extra/themes/basic/lv_theme_basic.c ****     else if(lv_obj_check_type(obj, &lv_btn_class)) {
 245              		.loc 1 217 10 is_stmt 1 view .LVU67
 246              		.loc 1 217 13 is_stmt 0 view .LVU68
 247 00fa 7C49     		ldr	r1, .L46+16
 248 00fc 2046     		mov	r0, r4
 249 00fe FFF7FEFF 		bl	lv_obj_check_type
 250              	.LVL30:
 251              		.loc 1 217 12 view .LVU69
 252 0102 38B1     		cbz	r0, .L9
 218:Middlewares/LVGL/GUI/lvgl/src/extra/themes/basic/lv_theme_basic.c ****         lv_obj_add_style(obj, &styles->dark, 0);
 253              		.loc 1 218 9 is_stmt 1 view .LVU70
 254              		.loc 1 218 38 is_stmt 0 view .LVU71
 255 0104 784B     		ldr	r3, .L46+12
 256 0106 1968     		ldr	r1, [r3]
 257              		.loc 1 218 9 view .LVU72
 258 0108 0022     		movs	r2, #0
 259 010a 2031     		adds	r1, r1, #32
 260 010c 2046     		mov	r0, r4
 261 010e FFF7FEFF 		bl	lv_obj_add_style
 262              	.LVL31:
 263              	.L1:
 219:Middlewares/LVGL/GUI/lvgl/src/extra/themes/basic/lv_theme_basic.c ****     }
ARM GAS  C:\Users\ADMINI~1\AppData\Local\Temp\cc8gvSPg.s 			page 10


 220:Middlewares/LVGL/GUI/lvgl/src/extra/themes/basic/lv_theme_basic.c **** #endif
 221:Middlewares/LVGL/GUI/lvgl/src/extra/themes/basic/lv_theme_basic.c **** 
 222:Middlewares/LVGL/GUI/lvgl/src/extra/themes/basic/lv_theme_basic.c **** #if LV_USE_BTNMATRIX
 223:Middlewares/LVGL/GUI/lvgl/src/extra/themes/basic/lv_theme_basic.c ****     else if(lv_obj_check_type(obj, &lv_btnmatrix_class)) {
 224:Middlewares/LVGL/GUI/lvgl/src/extra/themes/basic/lv_theme_basic.c **** #if LV_USE_MSGBOX
 225:Middlewares/LVGL/GUI/lvgl/src/extra/themes/basic/lv_theme_basic.c ****         if(lv_obj_check_type(lv_obj_get_parent(obj), &lv_msgbox_class)) {
 226:Middlewares/LVGL/GUI/lvgl/src/extra/themes/basic/lv_theme_basic.c ****             lv_obj_add_style(obj, &styles->light, LV_PART_ITEMS);
 227:Middlewares/LVGL/GUI/lvgl/src/extra/themes/basic/lv_theme_basic.c ****             lv_obj_add_style(obj, &styles->dark, LV_PART_ITEMS | LV_STATE_PRESSED);
 228:Middlewares/LVGL/GUI/lvgl/src/extra/themes/basic/lv_theme_basic.c ****             return;
 229:Middlewares/LVGL/GUI/lvgl/src/extra/themes/basic/lv_theme_basic.c ****         }
 230:Middlewares/LVGL/GUI/lvgl/src/extra/themes/basic/lv_theme_basic.c **** #endif
 231:Middlewares/LVGL/GUI/lvgl/src/extra/themes/basic/lv_theme_basic.c **** #if LV_USE_TABVIEW
 232:Middlewares/LVGL/GUI/lvgl/src/extra/themes/basic/lv_theme_basic.c ****         if(lv_obj_check_type(lv_obj_get_parent(obj), &lv_tabview_class)) {
 233:Middlewares/LVGL/GUI/lvgl/src/extra/themes/basic/lv_theme_basic.c ****             lv_obj_add_style(obj, &styles->light, LV_PART_ITEMS);
 234:Middlewares/LVGL/GUI/lvgl/src/extra/themes/basic/lv_theme_basic.c ****             lv_obj_add_style(obj, &styles->dark, LV_PART_ITEMS | LV_STATE_PRESSED);
 235:Middlewares/LVGL/GUI/lvgl/src/extra/themes/basic/lv_theme_basic.c ****             return;
 236:Middlewares/LVGL/GUI/lvgl/src/extra/themes/basic/lv_theme_basic.c ****         }
 237:Middlewares/LVGL/GUI/lvgl/src/extra/themes/basic/lv_theme_basic.c **** #endif
 238:Middlewares/LVGL/GUI/lvgl/src/extra/themes/basic/lv_theme_basic.c ****         lv_obj_add_style(obj, &styles->white, 0);
 239:Middlewares/LVGL/GUI/lvgl/src/extra/themes/basic/lv_theme_basic.c ****         lv_obj_add_style(obj, &styles->light, LV_PART_ITEMS);
 240:Middlewares/LVGL/GUI/lvgl/src/extra/themes/basic/lv_theme_basic.c ****         lv_obj_add_style(obj, &styles->dark, LV_PART_ITEMS | LV_STATE_PRESSED);
 241:Middlewares/LVGL/GUI/lvgl/src/extra/themes/basic/lv_theme_basic.c ****     }
 242:Middlewares/LVGL/GUI/lvgl/src/extra/themes/basic/lv_theme_basic.c **** #endif
 243:Middlewares/LVGL/GUI/lvgl/src/extra/themes/basic/lv_theme_basic.c **** 
 244:Middlewares/LVGL/GUI/lvgl/src/extra/themes/basic/lv_theme_basic.c **** #if LV_USE_BAR
 245:Middlewares/LVGL/GUI/lvgl/src/extra/themes/basic/lv_theme_basic.c ****     else if(lv_obj_check_type(obj, &lv_bar_class)) {
 246:Middlewares/LVGL/GUI/lvgl/src/extra/themes/basic/lv_theme_basic.c ****         lv_obj_add_style(obj, &styles->light, 0);
 247:Middlewares/LVGL/GUI/lvgl/src/extra/themes/basic/lv_theme_basic.c ****         lv_obj_add_style(obj, &styles->dark, LV_PART_INDICATOR);
 248:Middlewares/LVGL/GUI/lvgl/src/extra/themes/basic/lv_theme_basic.c ****     }
 249:Middlewares/LVGL/GUI/lvgl/src/extra/themes/basic/lv_theme_basic.c **** #endif
 250:Middlewares/LVGL/GUI/lvgl/src/extra/themes/basic/lv_theme_basic.c **** 
 251:Middlewares/LVGL/GUI/lvgl/src/extra/themes/basic/lv_theme_basic.c **** #if LV_USE_SLIDER
 252:Middlewares/LVGL/GUI/lvgl/src/extra/themes/basic/lv_theme_basic.c ****     else if(lv_obj_check_type(obj, &lv_slider_class)) {
 253:Middlewares/LVGL/GUI/lvgl/src/extra/themes/basic/lv_theme_basic.c ****         lv_obj_add_style(obj, &styles->light, 0);
 254:Middlewares/LVGL/GUI/lvgl/src/extra/themes/basic/lv_theme_basic.c ****         lv_obj_add_style(obj, &styles->dark, LV_PART_INDICATOR);
 255:Middlewares/LVGL/GUI/lvgl/src/extra/themes/basic/lv_theme_basic.c ****         lv_obj_add_style(obj, &styles->dim, LV_PART_KNOB);
 256:Middlewares/LVGL/GUI/lvgl/src/extra/themes/basic/lv_theme_basic.c ****     }
 257:Middlewares/LVGL/GUI/lvgl/src/extra/themes/basic/lv_theme_basic.c **** #endif
 258:Middlewares/LVGL/GUI/lvgl/src/extra/themes/basic/lv_theme_basic.c **** 
 259:Middlewares/LVGL/GUI/lvgl/src/extra/themes/basic/lv_theme_basic.c **** #if LV_USE_TABLE
 260:Middlewares/LVGL/GUI/lvgl/src/extra/themes/basic/lv_theme_basic.c ****     else if(lv_obj_check_type(obj, &lv_table_class)) {
 261:Middlewares/LVGL/GUI/lvgl/src/extra/themes/basic/lv_theme_basic.c ****         lv_obj_add_style(obj, &styles->scrollbar, LV_PART_SCROLLBAR);
 262:Middlewares/LVGL/GUI/lvgl/src/extra/themes/basic/lv_theme_basic.c ****         lv_obj_add_style(obj, &styles->light, LV_PART_ITEMS);
 263:Middlewares/LVGL/GUI/lvgl/src/extra/themes/basic/lv_theme_basic.c ****     }
 264:Middlewares/LVGL/GUI/lvgl/src/extra/themes/basic/lv_theme_basic.c **** #endif
 265:Middlewares/LVGL/GUI/lvgl/src/extra/themes/basic/lv_theme_basic.c **** 
 266:Middlewares/LVGL/GUI/lvgl/src/extra/themes/basic/lv_theme_basic.c **** #if LV_USE_CHECKBOX
 267:Middlewares/LVGL/GUI/lvgl/src/extra/themes/basic/lv_theme_basic.c ****     else if(lv_obj_check_type(obj, &lv_checkbox_class)) {
 268:Middlewares/LVGL/GUI/lvgl/src/extra/themes/basic/lv_theme_basic.c ****         lv_obj_add_style(obj, &styles->light, LV_PART_INDICATOR);
 269:Middlewares/LVGL/GUI/lvgl/src/extra/themes/basic/lv_theme_basic.c ****         lv_obj_add_style(obj, &styles->dark, LV_PART_INDICATOR | LV_STATE_CHECKED);
 270:Middlewares/LVGL/GUI/lvgl/src/extra/themes/basic/lv_theme_basic.c ****     }
 271:Middlewares/LVGL/GUI/lvgl/src/extra/themes/basic/lv_theme_basic.c **** #endif
 272:Middlewares/LVGL/GUI/lvgl/src/extra/themes/basic/lv_theme_basic.c **** 
 273:Middlewares/LVGL/GUI/lvgl/src/extra/themes/basic/lv_theme_basic.c **** #if LV_USE_SWITCH
 274:Middlewares/LVGL/GUI/lvgl/src/extra/themes/basic/lv_theme_basic.c ****     else if(lv_obj_check_type(obj, &lv_switch_class)) {
 275:Middlewares/LVGL/GUI/lvgl/src/extra/themes/basic/lv_theme_basic.c ****         lv_obj_add_style(obj, &styles->light, 0);
 276:Middlewares/LVGL/GUI/lvgl/src/extra/themes/basic/lv_theme_basic.c ****         lv_obj_add_style(obj, &styles->dark, LV_PART_INDICATOR | LV_STATE_CHECKED);
ARM GAS  C:\Users\ADMINI~1\AppData\Local\Temp\cc8gvSPg.s 			page 11


 277:Middlewares/LVGL/GUI/lvgl/src/extra/themes/basic/lv_theme_basic.c ****         lv_obj_add_style(obj, &styles->dim, LV_PART_KNOB);
 278:Middlewares/LVGL/GUI/lvgl/src/extra/themes/basic/lv_theme_basic.c ****     }
 279:Middlewares/LVGL/GUI/lvgl/src/extra/themes/basic/lv_theme_basic.c **** #endif
 280:Middlewares/LVGL/GUI/lvgl/src/extra/themes/basic/lv_theme_basic.c **** 
 281:Middlewares/LVGL/GUI/lvgl/src/extra/themes/basic/lv_theme_basic.c **** #if LV_USE_CHART
 282:Middlewares/LVGL/GUI/lvgl/src/extra/themes/basic/lv_theme_basic.c ****     else if(lv_obj_check_type(obj, &lv_chart_class)) {
 283:Middlewares/LVGL/GUI/lvgl/src/extra/themes/basic/lv_theme_basic.c ****         lv_obj_add_style(obj, &styles->white, 0);
 284:Middlewares/LVGL/GUI/lvgl/src/extra/themes/basic/lv_theme_basic.c ****         lv_obj_add_style(obj, &styles->scrollbar, LV_PART_SCROLLBAR);
 285:Middlewares/LVGL/GUI/lvgl/src/extra/themes/basic/lv_theme_basic.c ****         lv_obj_add_style(obj, &styles->light, LV_PART_ITEMS);
 286:Middlewares/LVGL/GUI/lvgl/src/extra/themes/basic/lv_theme_basic.c ****         lv_obj_add_style(obj, &styles->dark, LV_PART_TICKS);
 287:Middlewares/LVGL/GUI/lvgl/src/extra/themes/basic/lv_theme_basic.c ****         lv_obj_add_style(obj, &styles->dark, LV_PART_CURSOR);
 288:Middlewares/LVGL/GUI/lvgl/src/extra/themes/basic/lv_theme_basic.c ****     }
 289:Middlewares/LVGL/GUI/lvgl/src/extra/themes/basic/lv_theme_basic.c **** #endif
 290:Middlewares/LVGL/GUI/lvgl/src/extra/themes/basic/lv_theme_basic.c **** 
 291:Middlewares/LVGL/GUI/lvgl/src/extra/themes/basic/lv_theme_basic.c **** #if LV_USE_ROLLER
 292:Middlewares/LVGL/GUI/lvgl/src/extra/themes/basic/lv_theme_basic.c ****     else if(lv_obj_check_type(obj, &lv_roller_class)) {
 293:Middlewares/LVGL/GUI/lvgl/src/extra/themes/basic/lv_theme_basic.c ****         lv_obj_add_style(obj, &styles->light, 0);
 294:Middlewares/LVGL/GUI/lvgl/src/extra/themes/basic/lv_theme_basic.c ****         lv_obj_add_style(obj, &styles->dark, LV_PART_SELECTED);
 295:Middlewares/LVGL/GUI/lvgl/src/extra/themes/basic/lv_theme_basic.c ****     }
 296:Middlewares/LVGL/GUI/lvgl/src/extra/themes/basic/lv_theme_basic.c **** #endif
 297:Middlewares/LVGL/GUI/lvgl/src/extra/themes/basic/lv_theme_basic.c **** 
 298:Middlewares/LVGL/GUI/lvgl/src/extra/themes/basic/lv_theme_basic.c **** #if LV_USE_DROPDOWN
 299:Middlewares/LVGL/GUI/lvgl/src/extra/themes/basic/lv_theme_basic.c ****     else if(lv_obj_check_type(obj, &lv_dropdown_class)) {
 300:Middlewares/LVGL/GUI/lvgl/src/extra/themes/basic/lv_theme_basic.c ****         lv_obj_add_style(obj, &styles->white, 0);
 301:Middlewares/LVGL/GUI/lvgl/src/extra/themes/basic/lv_theme_basic.c ****     }
 302:Middlewares/LVGL/GUI/lvgl/src/extra/themes/basic/lv_theme_basic.c ****     else if(lv_obj_check_type(obj, &lv_dropdownlist_class)) {
 303:Middlewares/LVGL/GUI/lvgl/src/extra/themes/basic/lv_theme_basic.c ****         lv_obj_add_style(obj, &styles->white, 0);
 304:Middlewares/LVGL/GUI/lvgl/src/extra/themes/basic/lv_theme_basic.c ****         lv_obj_add_style(obj, &styles->scrollbar, LV_PART_SCROLLBAR);
 305:Middlewares/LVGL/GUI/lvgl/src/extra/themes/basic/lv_theme_basic.c ****         lv_obj_add_style(obj, &styles->light, LV_PART_SELECTED);
 306:Middlewares/LVGL/GUI/lvgl/src/extra/themes/basic/lv_theme_basic.c ****         lv_obj_add_style(obj, &styles->dark, LV_PART_SELECTED | LV_STATE_CHECKED);
 307:Middlewares/LVGL/GUI/lvgl/src/extra/themes/basic/lv_theme_basic.c ****     }
 308:Middlewares/LVGL/GUI/lvgl/src/extra/themes/basic/lv_theme_basic.c **** #endif
 309:Middlewares/LVGL/GUI/lvgl/src/extra/themes/basic/lv_theme_basic.c **** 
 310:Middlewares/LVGL/GUI/lvgl/src/extra/themes/basic/lv_theme_basic.c **** #if LV_USE_ARC
 311:Middlewares/LVGL/GUI/lvgl/src/extra/themes/basic/lv_theme_basic.c ****     else if(lv_obj_check_type(obj, &lv_arc_class)) {
 312:Middlewares/LVGL/GUI/lvgl/src/extra/themes/basic/lv_theme_basic.c ****         lv_obj_add_style(obj, &styles->light, 0);
 313:Middlewares/LVGL/GUI/lvgl/src/extra/themes/basic/lv_theme_basic.c ****         lv_obj_add_style(obj, &styles->transp, 0);
 314:Middlewares/LVGL/GUI/lvgl/src/extra/themes/basic/lv_theme_basic.c ****         lv_obj_add_style(obj, &styles->arc_line, 0);
 315:Middlewares/LVGL/GUI/lvgl/src/extra/themes/basic/lv_theme_basic.c ****         lv_obj_add_style(obj, &styles->dark, LV_PART_INDICATOR);
 316:Middlewares/LVGL/GUI/lvgl/src/extra/themes/basic/lv_theme_basic.c ****         lv_obj_add_style(obj, &styles->arc_line, LV_PART_INDICATOR);
 317:Middlewares/LVGL/GUI/lvgl/src/extra/themes/basic/lv_theme_basic.c ****         lv_obj_add_style(obj, &styles->dim, LV_PART_KNOB);
 318:Middlewares/LVGL/GUI/lvgl/src/extra/themes/basic/lv_theme_basic.c ****         lv_obj_add_style(obj, &styles->arc_knob, LV_PART_KNOB);
 319:Middlewares/LVGL/GUI/lvgl/src/extra/themes/basic/lv_theme_basic.c ****     }
 320:Middlewares/LVGL/GUI/lvgl/src/extra/themes/basic/lv_theme_basic.c **** #endif
 321:Middlewares/LVGL/GUI/lvgl/src/extra/themes/basic/lv_theme_basic.c **** 
 322:Middlewares/LVGL/GUI/lvgl/src/extra/themes/basic/lv_theme_basic.c **** #if LV_USE_SPINNER
 323:Middlewares/LVGL/GUI/lvgl/src/extra/themes/basic/lv_theme_basic.c ****     else if(lv_obj_check_type(obj, &lv_spinner_class)) {
 324:Middlewares/LVGL/GUI/lvgl/src/extra/themes/basic/lv_theme_basic.c ****         lv_obj_add_style(obj, &styles->light, 0);
 325:Middlewares/LVGL/GUI/lvgl/src/extra/themes/basic/lv_theme_basic.c ****         lv_obj_add_style(obj, &styles->transp, 0);
 326:Middlewares/LVGL/GUI/lvgl/src/extra/themes/basic/lv_theme_basic.c ****         lv_obj_add_style(obj, &styles->arc_line, 0);
 327:Middlewares/LVGL/GUI/lvgl/src/extra/themes/basic/lv_theme_basic.c ****         lv_obj_add_style(obj, &styles->dark, LV_PART_INDICATOR);
 328:Middlewares/LVGL/GUI/lvgl/src/extra/themes/basic/lv_theme_basic.c ****         lv_obj_add_style(obj, &styles->arc_line, LV_PART_INDICATOR);
 329:Middlewares/LVGL/GUI/lvgl/src/extra/themes/basic/lv_theme_basic.c ****     }
 330:Middlewares/LVGL/GUI/lvgl/src/extra/themes/basic/lv_theme_basic.c **** #endif
 331:Middlewares/LVGL/GUI/lvgl/src/extra/themes/basic/lv_theme_basic.c **** 
 332:Middlewares/LVGL/GUI/lvgl/src/extra/themes/basic/lv_theme_basic.c **** #if LV_USE_COLORWHEEL
 333:Middlewares/LVGL/GUI/lvgl/src/extra/themes/basic/lv_theme_basic.c ****     else if(lv_obj_check_type(obj, &lv_colorwheel_class)) {
ARM GAS  C:\Users\ADMINI~1\AppData\Local\Temp\cc8gvSPg.s 			page 12


 334:Middlewares/LVGL/GUI/lvgl/src/extra/themes/basic/lv_theme_basic.c ****         lv_obj_add_style(obj, &styles->light, 0);
 335:Middlewares/LVGL/GUI/lvgl/src/extra/themes/basic/lv_theme_basic.c ****         lv_obj_add_style(obj, &styles->transp, 0);
 336:Middlewares/LVGL/GUI/lvgl/src/extra/themes/basic/lv_theme_basic.c ****         lv_obj_add_style(obj, &styles->arc_line, 0);
 337:Middlewares/LVGL/GUI/lvgl/src/extra/themes/basic/lv_theme_basic.c ****         lv_obj_add_style(obj, &styles->dim, LV_PART_KNOB);
 338:Middlewares/LVGL/GUI/lvgl/src/extra/themes/basic/lv_theme_basic.c ****         lv_obj_add_style(obj, &styles->arc_knob, LV_PART_KNOB);
 339:Middlewares/LVGL/GUI/lvgl/src/extra/themes/basic/lv_theme_basic.c ****     }
 340:Middlewares/LVGL/GUI/lvgl/src/extra/themes/basic/lv_theme_basic.c **** #endif
 341:Middlewares/LVGL/GUI/lvgl/src/extra/themes/basic/lv_theme_basic.c **** 
 342:Middlewares/LVGL/GUI/lvgl/src/extra/themes/basic/lv_theme_basic.c **** #if LV_USE_METER
 343:Middlewares/LVGL/GUI/lvgl/src/extra/themes/basic/lv_theme_basic.c ****     else if(lv_obj_check_type(obj, &lv_meter_class)) {
 344:Middlewares/LVGL/GUI/lvgl/src/extra/themes/basic/lv_theme_basic.c ****         lv_obj_add_style(obj, &styles->light, 0);
 345:Middlewares/LVGL/GUI/lvgl/src/extra/themes/basic/lv_theme_basic.c ****     }
 346:Middlewares/LVGL/GUI/lvgl/src/extra/themes/basic/lv_theme_basic.c **** #endif
 347:Middlewares/LVGL/GUI/lvgl/src/extra/themes/basic/lv_theme_basic.c **** 
 348:Middlewares/LVGL/GUI/lvgl/src/extra/themes/basic/lv_theme_basic.c **** #if LV_USE_TEXTAREA
 349:Middlewares/LVGL/GUI/lvgl/src/extra/themes/basic/lv_theme_basic.c ****     else if(lv_obj_check_type(obj, &lv_textarea_class)) {
 350:Middlewares/LVGL/GUI/lvgl/src/extra/themes/basic/lv_theme_basic.c ****         lv_obj_add_style(obj, &styles->white, 0);
 351:Middlewares/LVGL/GUI/lvgl/src/extra/themes/basic/lv_theme_basic.c ****         lv_obj_add_style(obj, &styles->scrollbar, LV_PART_SCROLLBAR);
 352:Middlewares/LVGL/GUI/lvgl/src/extra/themes/basic/lv_theme_basic.c ****         lv_obj_add_style(obj, &styles->ta_cursor, LV_PART_CURSOR);
 353:Middlewares/LVGL/GUI/lvgl/src/extra/themes/basic/lv_theme_basic.c ****     }
 354:Middlewares/LVGL/GUI/lvgl/src/extra/themes/basic/lv_theme_basic.c **** #endif
 355:Middlewares/LVGL/GUI/lvgl/src/extra/themes/basic/lv_theme_basic.c **** 
 356:Middlewares/LVGL/GUI/lvgl/src/extra/themes/basic/lv_theme_basic.c **** #if LV_USE_CALENDAR
 357:Middlewares/LVGL/GUI/lvgl/src/extra/themes/basic/lv_theme_basic.c ****     else if(lv_obj_check_type(obj, &lv_calendar_class)) {
 358:Middlewares/LVGL/GUI/lvgl/src/extra/themes/basic/lv_theme_basic.c ****         lv_obj_add_style(obj, &styles->light, 0);
 359:Middlewares/LVGL/GUI/lvgl/src/extra/themes/basic/lv_theme_basic.c ****         lv_obj_add_style(obj, &styles->light, LV_PART_ITEMS | LV_STATE_PRESSED);
 360:Middlewares/LVGL/GUI/lvgl/src/extra/themes/basic/lv_theme_basic.c ****     }
 361:Middlewares/LVGL/GUI/lvgl/src/extra/themes/basic/lv_theme_basic.c **** #endif
 362:Middlewares/LVGL/GUI/lvgl/src/extra/themes/basic/lv_theme_basic.c **** 
 363:Middlewares/LVGL/GUI/lvgl/src/extra/themes/basic/lv_theme_basic.c **** #if LV_USE_KEYBOARD
 364:Middlewares/LVGL/GUI/lvgl/src/extra/themes/basic/lv_theme_basic.c ****     else if(lv_obj_check_type(obj, &lv_keyboard_class)) {
 365:Middlewares/LVGL/GUI/lvgl/src/extra/themes/basic/lv_theme_basic.c ****         lv_obj_add_style(obj, &styles->scr, 0);
 366:Middlewares/LVGL/GUI/lvgl/src/extra/themes/basic/lv_theme_basic.c ****         lv_obj_add_style(obj, &styles->white, LV_PART_ITEMS);
 367:Middlewares/LVGL/GUI/lvgl/src/extra/themes/basic/lv_theme_basic.c ****         lv_obj_add_style(obj, &styles->light, LV_PART_ITEMS | LV_STATE_CHECKED);
 368:Middlewares/LVGL/GUI/lvgl/src/extra/themes/basic/lv_theme_basic.c ****     }
 369:Middlewares/LVGL/GUI/lvgl/src/extra/themes/basic/lv_theme_basic.c **** #endif
 370:Middlewares/LVGL/GUI/lvgl/src/extra/themes/basic/lv_theme_basic.c **** #if LV_USE_LIST
 371:Middlewares/LVGL/GUI/lvgl/src/extra/themes/basic/lv_theme_basic.c ****     else if(lv_obj_check_type(obj, &lv_list_class)) {
 372:Middlewares/LVGL/GUI/lvgl/src/extra/themes/basic/lv_theme_basic.c ****         lv_obj_add_style(obj, &styles->light, 0);
 373:Middlewares/LVGL/GUI/lvgl/src/extra/themes/basic/lv_theme_basic.c ****         lv_obj_add_style(obj, &styles->scrollbar, LV_PART_SCROLLBAR);
 374:Middlewares/LVGL/GUI/lvgl/src/extra/themes/basic/lv_theme_basic.c ****         return;
 375:Middlewares/LVGL/GUI/lvgl/src/extra/themes/basic/lv_theme_basic.c ****     }
 376:Middlewares/LVGL/GUI/lvgl/src/extra/themes/basic/lv_theme_basic.c ****     else if(lv_obj_check_type(obj, &lv_list_text_class)) {
 377:Middlewares/LVGL/GUI/lvgl/src/extra/themes/basic/lv_theme_basic.c **** 
 378:Middlewares/LVGL/GUI/lvgl/src/extra/themes/basic/lv_theme_basic.c ****     }
 379:Middlewares/LVGL/GUI/lvgl/src/extra/themes/basic/lv_theme_basic.c ****     else if(lv_obj_check_type(obj, &lv_list_btn_class)) {
 380:Middlewares/LVGL/GUI/lvgl/src/extra/themes/basic/lv_theme_basic.c ****         lv_obj_add_style(obj, &styles->dark, 0);
 381:Middlewares/LVGL/GUI/lvgl/src/extra/themes/basic/lv_theme_basic.c **** 
 382:Middlewares/LVGL/GUI/lvgl/src/extra/themes/basic/lv_theme_basic.c ****     }
 383:Middlewares/LVGL/GUI/lvgl/src/extra/themes/basic/lv_theme_basic.c **** #endif
 384:Middlewares/LVGL/GUI/lvgl/src/extra/themes/basic/lv_theme_basic.c **** #if LV_USE_MSGBOX
 385:Middlewares/LVGL/GUI/lvgl/src/extra/themes/basic/lv_theme_basic.c ****     else if(lv_obj_check_type(obj, &lv_msgbox_class)) {
 386:Middlewares/LVGL/GUI/lvgl/src/extra/themes/basic/lv_theme_basic.c ****         lv_obj_add_style(obj, &styles->light, 0);
 387:Middlewares/LVGL/GUI/lvgl/src/extra/themes/basic/lv_theme_basic.c ****         return;
 388:Middlewares/LVGL/GUI/lvgl/src/extra/themes/basic/lv_theme_basic.c ****     }
 389:Middlewares/LVGL/GUI/lvgl/src/extra/themes/basic/lv_theme_basic.c **** #endif
 390:Middlewares/LVGL/GUI/lvgl/src/extra/themes/basic/lv_theme_basic.c **** #if LV_USE_SPINBOX
ARM GAS  C:\Users\ADMINI~1\AppData\Local\Temp\cc8gvSPg.s 			page 13


 391:Middlewares/LVGL/GUI/lvgl/src/extra/themes/basic/lv_theme_basic.c ****     else if(lv_obj_check_type(obj, &lv_spinbox_class)) {
 392:Middlewares/LVGL/GUI/lvgl/src/extra/themes/basic/lv_theme_basic.c ****         lv_obj_add_style(obj, &styles->light, 0);
 393:Middlewares/LVGL/GUI/lvgl/src/extra/themes/basic/lv_theme_basic.c ****         lv_obj_add_style(obj, &styles->dark, LV_PART_CURSOR);
 394:Middlewares/LVGL/GUI/lvgl/src/extra/themes/basic/lv_theme_basic.c ****     }
 395:Middlewares/LVGL/GUI/lvgl/src/extra/themes/basic/lv_theme_basic.c **** #endif
 396:Middlewares/LVGL/GUI/lvgl/src/extra/themes/basic/lv_theme_basic.c **** #if LV_USE_TILEVIEW
 397:Middlewares/LVGL/GUI/lvgl/src/extra/themes/basic/lv_theme_basic.c ****     else if(lv_obj_check_type(obj, &lv_tileview_class)) {
 398:Middlewares/LVGL/GUI/lvgl/src/extra/themes/basic/lv_theme_basic.c ****         lv_obj_add_style(obj, &styles->scr, 0);
 399:Middlewares/LVGL/GUI/lvgl/src/extra/themes/basic/lv_theme_basic.c ****         lv_obj_add_style(obj, &styles->scrollbar, LV_PART_SCROLLBAR);
 400:Middlewares/LVGL/GUI/lvgl/src/extra/themes/basic/lv_theme_basic.c ****     }
 401:Middlewares/LVGL/GUI/lvgl/src/extra/themes/basic/lv_theme_basic.c ****     else if(lv_obj_check_type(obj, &lv_tileview_tile_class)) {
 402:Middlewares/LVGL/GUI/lvgl/src/extra/themes/basic/lv_theme_basic.c ****         lv_obj_add_style(obj, &styles->scrollbar, LV_PART_SCROLLBAR);
 403:Middlewares/LVGL/GUI/lvgl/src/extra/themes/basic/lv_theme_basic.c ****     }
 404:Middlewares/LVGL/GUI/lvgl/src/extra/themes/basic/lv_theme_basic.c **** #endif
 405:Middlewares/LVGL/GUI/lvgl/src/extra/themes/basic/lv_theme_basic.c **** 
 406:Middlewares/LVGL/GUI/lvgl/src/extra/themes/basic/lv_theme_basic.c **** #if LV_USE_COLORWHEEL
 407:Middlewares/LVGL/GUI/lvgl/src/extra/themes/basic/lv_theme_basic.c ****     else if(lv_obj_check_type(obj, &lv_colorwheel_class)) {
 408:Middlewares/LVGL/GUI/lvgl/src/extra/themes/basic/lv_theme_basic.c ****         lv_obj_add_style(obj, &styles->light, 0);
 409:Middlewares/LVGL/GUI/lvgl/src/extra/themes/basic/lv_theme_basic.c ****         lv_obj_add_style(obj, &styles->light, LV_PART_KNOB);
 410:Middlewares/LVGL/GUI/lvgl/src/extra/themes/basic/lv_theme_basic.c ****     }
 411:Middlewares/LVGL/GUI/lvgl/src/extra/themes/basic/lv_theme_basic.c **** #endif
 412:Middlewares/LVGL/GUI/lvgl/src/extra/themes/basic/lv_theme_basic.c **** 
 413:Middlewares/LVGL/GUI/lvgl/src/extra/themes/basic/lv_theme_basic.c **** #if LV_USE_LED
 414:Middlewares/LVGL/GUI/lvgl/src/extra/themes/basic/lv_theme_basic.c ****     else if(lv_obj_check_type(obj, &lv_led_class)) {
 415:Middlewares/LVGL/GUI/lvgl/src/extra/themes/basic/lv_theme_basic.c ****         lv_obj_add_style(obj, &styles->light, 0);
 416:Middlewares/LVGL/GUI/lvgl/src/extra/themes/basic/lv_theme_basic.c ****     }
 417:Middlewares/LVGL/GUI/lvgl/src/extra/themes/basic/lv_theme_basic.c **** #endif
 418:Middlewares/LVGL/GUI/lvgl/src/extra/themes/basic/lv_theme_basic.c **** }
 264              		.loc 1 418 1 view .LVU73
 265 0112 38BD     		pop	{r3, r4, r5, pc}
 266              	.LVL32:
 267              	.L9:
 223:Middlewares/LVGL/GUI/lvgl/src/extra/themes/basic/lv_theme_basic.c **** #if LV_USE_MSGBOX
 268              		.loc 1 223 10 is_stmt 1 view .LVU74
 223:Middlewares/LVGL/GUI/lvgl/src/extra/themes/basic/lv_theme_basic.c **** #if LV_USE_MSGBOX
 269              		.loc 1 223 13 is_stmt 0 view .LVU75
 270 0114 7649     		ldr	r1, .L46+20
 271 0116 2046     		mov	r0, r4
 272 0118 FFF7FEFF 		bl	lv_obj_check_type
 273              	.LVL33:
 223:Middlewares/LVGL/GUI/lvgl/src/extra/themes/basic/lv_theme_basic.c **** #if LV_USE_MSGBOX
 274              		.loc 1 223 12 view .LVU76
 275 011c 0028     		cmp	r0, #0
 276 011e 40D0     		beq	.L10
 225:Middlewares/LVGL/GUI/lvgl/src/extra/themes/basic/lv_theme_basic.c ****             lv_obj_add_style(obj, &styles->light, LV_PART_ITEMS);
 277              		.loc 1 225 9 is_stmt 1 view .LVU77
 225:Middlewares/LVGL/GUI/lvgl/src/extra/themes/basic/lv_theme_basic.c ****             lv_obj_add_style(obj, &styles->light, LV_PART_ITEMS);
 278              		.loc 1 225 30 is_stmt 0 view .LVU78
 279 0120 2046     		mov	r0, r4
 280 0122 FFF7FEFF 		bl	lv_obj_get_parent
 281              	.LVL34:
 225:Middlewares/LVGL/GUI/lvgl/src/extra/themes/basic/lv_theme_basic.c ****             lv_obj_add_style(obj, &styles->light, LV_PART_ITEMS);
 282              		.loc 1 225 12 view .LVU79
 283 0126 7349     		ldr	r1, .L46+24
 284 0128 FFF7FEFF 		bl	lv_obj_check_type
 285              	.LVL35:
 225:Middlewares/LVGL/GUI/lvgl/src/extra/themes/basic/lv_theme_basic.c ****             lv_obj_add_style(obj, &styles->light, LV_PART_ITEMS);
ARM GAS  C:\Users\ADMINI~1\AppData\Local\Temp\cc8gvSPg.s 			page 14


 286              		.loc 1 225 11 view .LVU80
 287 012c D8B9     		cbnz	r0, .L42
 232:Middlewares/LVGL/GUI/lvgl/src/extra/themes/basic/lv_theme_basic.c ****             lv_obj_add_style(obj, &styles->light, LV_PART_ITEMS);
 288              		.loc 1 232 9 is_stmt 1 view .LVU81
 232:Middlewares/LVGL/GUI/lvgl/src/extra/themes/basic/lv_theme_basic.c ****             lv_obj_add_style(obj, &styles->light, LV_PART_ITEMS);
 289              		.loc 1 232 30 is_stmt 0 view .LVU82
 290 012e 2046     		mov	r0, r4
 291 0130 FFF7FEFF 		bl	lv_obj_get_parent
 292              	.LVL36:
 232:Middlewares/LVGL/GUI/lvgl/src/extra/themes/basic/lv_theme_basic.c ****             lv_obj_add_style(obj, &styles->light, LV_PART_ITEMS);
 293              		.loc 1 232 12 view .LVU83
 294 0134 6A49     		ldr	r1, .L46+4
 295 0136 FFF7FEFF 		bl	lv_obj_check_type
 296              	.LVL37:
 232:Middlewares/LVGL/GUI/lvgl/src/extra/themes/basic/lv_theme_basic.c ****             lv_obj_add_style(obj, &styles->light, LV_PART_ITEMS);
 297              		.loc 1 232 11 view .LVU84
 298 013a 18BB     		cbnz	r0, .L43
 238:Middlewares/LVGL/GUI/lvgl/src/extra/themes/basic/lv_theme_basic.c ****         lv_obj_add_style(obj, &styles->light, LV_PART_ITEMS);
 299              		.loc 1 238 9 is_stmt 1 view .LVU85
 238:Middlewares/LVGL/GUI/lvgl/src/extra/themes/basic/lv_theme_basic.c ****         lv_obj_add_style(obj, &styles->light, LV_PART_ITEMS);
 300              		.loc 1 238 38 is_stmt 0 view .LVU86
 301 013c 6A4D     		ldr	r5, .L46+12
 302 013e 2968     		ldr	r1, [r5]
 238:Middlewares/LVGL/GUI/lvgl/src/extra/themes/basic/lv_theme_basic.c ****         lv_obj_add_style(obj, &styles->light, LV_PART_ITEMS);
 303              		.loc 1 238 9 view .LVU87
 304 0140 0022     		movs	r2, #0
 305 0142 1031     		adds	r1, r1, #16
 306 0144 2046     		mov	r0, r4
 307 0146 FFF7FEFF 		bl	lv_obj_add_style
 308              	.LVL38:
 239:Middlewares/LVGL/GUI/lvgl/src/extra/themes/basic/lv_theme_basic.c ****         lv_obj_add_style(obj, &styles->dark, LV_PART_ITEMS | LV_STATE_PRESSED);
 309              		.loc 1 239 9 is_stmt 1 view .LVU88
 239:Middlewares/LVGL/GUI/lvgl/src/extra/themes/basic/lv_theme_basic.c ****         lv_obj_add_style(obj, &styles->dark, LV_PART_ITEMS | LV_STATE_PRESSED);
 310              		.loc 1 239 38 is_stmt 0 view .LVU89
 311 014a 2968     		ldr	r1, [r5]
 239:Middlewares/LVGL/GUI/lvgl/src/extra/themes/basic/lv_theme_basic.c ****         lv_obj_add_style(obj, &styles->dark, LV_PART_ITEMS | LV_STATE_PRESSED);
 312              		.loc 1 239 9 view .LVU90
 313 014c 4FF4A022 		mov	r2, #327680
 314 0150 1831     		adds	r1, r1, #24
 315 0152 2046     		mov	r0, r4
 316 0154 FFF7FEFF 		bl	lv_obj_add_style
 317              	.LVL39:
 240:Middlewares/LVGL/GUI/lvgl/src/extra/themes/basic/lv_theme_basic.c ****     }
 318              		.loc 1 240 9 is_stmt 1 view .LVU91
 240:Middlewares/LVGL/GUI/lvgl/src/extra/themes/basic/lv_theme_basic.c ****     }
 319              		.loc 1 240 38 is_stmt 0 view .LVU92
 320 0158 2968     		ldr	r1, [r5]
 240:Middlewares/LVGL/GUI/lvgl/src/extra/themes/basic/lv_theme_basic.c ****     }
 321              		.loc 1 240 9 view .LVU93
 322 015a 674A     		ldr	r2, .L46+28
 323 015c 2031     		adds	r1, r1, #32
 324 015e 2046     		mov	r0, r4
 325 0160 FFF7FEFF 		bl	lv_obj_add_style
 326              	.LVL40:
 327 0164 D5E7     		b	.L1
 328              	.L42:
 226:Middlewares/LVGL/GUI/lvgl/src/extra/themes/basic/lv_theme_basic.c ****             lv_obj_add_style(obj, &styles->dark, LV_PART_ITEMS | LV_STATE_PRESSED);
ARM GAS  C:\Users\ADMINI~1\AppData\Local\Temp\cc8gvSPg.s 			page 15


 329              		.loc 1 226 13 is_stmt 1 view .LVU94
 226:Middlewares/LVGL/GUI/lvgl/src/extra/themes/basic/lv_theme_basic.c ****             lv_obj_add_style(obj, &styles->dark, LV_PART_ITEMS | LV_STATE_PRESSED);
 330              		.loc 1 226 42 is_stmt 0 view .LVU95
 331 0166 604D     		ldr	r5, .L46+12
 332 0168 2968     		ldr	r1, [r5]
 226:Middlewares/LVGL/GUI/lvgl/src/extra/themes/basic/lv_theme_basic.c ****             lv_obj_add_style(obj, &styles->dark, LV_PART_ITEMS | LV_STATE_PRESSED);
 333              		.loc 1 226 13 view .LVU96
 334 016a 4FF4A022 		mov	r2, #327680
 335 016e 1831     		adds	r1, r1, #24
 336 0170 2046     		mov	r0, r4
 337 0172 FFF7FEFF 		bl	lv_obj_add_style
 338              	.LVL41:
 227:Middlewares/LVGL/GUI/lvgl/src/extra/themes/basic/lv_theme_basic.c ****             return;
 339              		.loc 1 227 13 is_stmt 1 view .LVU97
 227:Middlewares/LVGL/GUI/lvgl/src/extra/themes/basic/lv_theme_basic.c ****             return;
 340              		.loc 1 227 42 is_stmt 0 view .LVU98
 341 0176 2968     		ldr	r1, [r5]
 227:Middlewares/LVGL/GUI/lvgl/src/extra/themes/basic/lv_theme_basic.c ****             return;
 342              		.loc 1 227 13 view .LVU99
 343 0178 5F4A     		ldr	r2, .L46+28
 344 017a 2031     		adds	r1, r1, #32
 345 017c 2046     		mov	r0, r4
 346 017e FFF7FEFF 		bl	lv_obj_add_style
 347              	.LVL42:
 228:Middlewares/LVGL/GUI/lvgl/src/extra/themes/basic/lv_theme_basic.c ****         }
 348              		.loc 1 228 13 is_stmt 1 view .LVU100
 349 0182 C6E7     		b	.L1
 350              	.L43:
 233:Middlewares/LVGL/GUI/lvgl/src/extra/themes/basic/lv_theme_basic.c ****             lv_obj_add_style(obj, &styles->dark, LV_PART_ITEMS | LV_STATE_PRESSED);
 351              		.loc 1 233 13 view .LVU101
 233:Middlewares/LVGL/GUI/lvgl/src/extra/themes/basic/lv_theme_basic.c ****             lv_obj_add_style(obj, &styles->dark, LV_PART_ITEMS | LV_STATE_PRESSED);
 352              		.loc 1 233 42 is_stmt 0 view .LVU102
 353 0184 584D     		ldr	r5, .L46+12
 354 0186 2968     		ldr	r1, [r5]
 233:Middlewares/LVGL/GUI/lvgl/src/extra/themes/basic/lv_theme_basic.c ****             lv_obj_add_style(obj, &styles->dark, LV_PART_ITEMS | LV_STATE_PRESSED);
 355              		.loc 1 233 13 view .LVU103
 356 0188 4FF4A022 		mov	r2, #327680
 357 018c 1831     		adds	r1, r1, #24
 358 018e 2046     		mov	r0, r4
 359 0190 FFF7FEFF 		bl	lv_obj_add_style
 360              	.LVL43:
 234:Middlewares/LVGL/GUI/lvgl/src/extra/themes/basic/lv_theme_basic.c ****             return;
 361              		.loc 1 234 13 is_stmt 1 view .LVU104
 234:Middlewares/LVGL/GUI/lvgl/src/extra/themes/basic/lv_theme_basic.c ****             return;
 362              		.loc 1 234 42 is_stmt 0 view .LVU105
 363 0194 2968     		ldr	r1, [r5]
 234:Middlewares/LVGL/GUI/lvgl/src/extra/themes/basic/lv_theme_basic.c ****             return;
 364              		.loc 1 234 13 view .LVU106
 365 0196 584A     		ldr	r2, .L46+28
 366 0198 2031     		adds	r1, r1, #32
 367 019a 2046     		mov	r0, r4
 368 019c FFF7FEFF 		bl	lv_obj_add_style
 369              	.LVL44:
 235:Middlewares/LVGL/GUI/lvgl/src/extra/themes/basic/lv_theme_basic.c ****         }
 370              		.loc 1 235 13 is_stmt 1 view .LVU107
 371 01a0 B7E7     		b	.L1
 372              	.L10:
ARM GAS  C:\Users\ADMINI~1\AppData\Local\Temp\cc8gvSPg.s 			page 16


 245:Middlewares/LVGL/GUI/lvgl/src/extra/themes/basic/lv_theme_basic.c ****         lv_obj_add_style(obj, &styles->light, 0);
 373              		.loc 1 245 10 view .LVU108
 245:Middlewares/LVGL/GUI/lvgl/src/extra/themes/basic/lv_theme_basic.c ****         lv_obj_add_style(obj, &styles->light, 0);
 374              		.loc 1 245 13 is_stmt 0 view .LVU109
 375 01a2 5649     		ldr	r1, .L46+32
 376 01a4 2046     		mov	r0, r4
 377 01a6 FFF7FEFF 		bl	lv_obj_check_type
 378              	.LVL45:
 245:Middlewares/LVGL/GUI/lvgl/src/extra/themes/basic/lv_theme_basic.c ****         lv_obj_add_style(obj, &styles->light, 0);
 379              		.loc 1 245 12 view .LVU110
 380 01aa 70B1     		cbz	r0, .L13
 246:Middlewares/LVGL/GUI/lvgl/src/extra/themes/basic/lv_theme_basic.c ****         lv_obj_add_style(obj, &styles->dark, LV_PART_INDICATOR);
 381              		.loc 1 246 9 is_stmt 1 view .LVU111
 246:Middlewares/LVGL/GUI/lvgl/src/extra/themes/basic/lv_theme_basic.c ****         lv_obj_add_style(obj, &styles->dark, LV_PART_INDICATOR);
 382              		.loc 1 246 38 is_stmt 0 view .LVU112
 383 01ac 4E4D     		ldr	r5, .L46+12
 384 01ae 2968     		ldr	r1, [r5]
 246:Middlewares/LVGL/GUI/lvgl/src/extra/themes/basic/lv_theme_basic.c ****         lv_obj_add_style(obj, &styles->dark, LV_PART_INDICATOR);
 385              		.loc 1 246 9 view .LVU113
 386 01b0 0022     		movs	r2, #0
 387 01b2 1831     		adds	r1, r1, #24
 388 01b4 2046     		mov	r0, r4
 389 01b6 FFF7FEFF 		bl	lv_obj_add_style
 390              	.LVL46:
 247:Middlewares/LVGL/GUI/lvgl/src/extra/themes/basic/lv_theme_basic.c ****     }
 391              		.loc 1 247 9 is_stmt 1 view .LVU114
 247:Middlewares/LVGL/GUI/lvgl/src/extra/themes/basic/lv_theme_basic.c ****     }
 392              		.loc 1 247 38 is_stmt 0 view .LVU115
 393 01ba 2968     		ldr	r1, [r5]
 247:Middlewares/LVGL/GUI/lvgl/src/extra/themes/basic/lv_theme_basic.c ****     }
 394              		.loc 1 247 9 view .LVU116
 395 01bc 4FF40032 		mov	r2, #131072
 396 01c0 2031     		adds	r1, r1, #32
 397 01c2 2046     		mov	r0, r4
 398 01c4 FFF7FEFF 		bl	lv_obj_add_style
 399              	.LVL47:
 400 01c8 A3E7     		b	.L1
 401              	.L13:
 252:Middlewares/LVGL/GUI/lvgl/src/extra/themes/basic/lv_theme_basic.c ****         lv_obj_add_style(obj, &styles->light, 0);
 402              		.loc 1 252 10 is_stmt 1 view .LVU117
 252:Middlewares/LVGL/GUI/lvgl/src/extra/themes/basic/lv_theme_basic.c ****         lv_obj_add_style(obj, &styles->light, 0);
 403              		.loc 1 252 13 is_stmt 0 view .LVU118
 404 01ca 4D49     		ldr	r1, .L46+36
 405 01cc 2046     		mov	r0, r4
 406 01ce FFF7FEFF 		bl	lv_obj_check_type
 407              	.LVL48:
 252:Middlewares/LVGL/GUI/lvgl/src/extra/themes/basic/lv_theme_basic.c ****         lv_obj_add_style(obj, &styles->light, 0);
 408              		.loc 1 252 12 view .LVU119
 409 01d2 A8B1     		cbz	r0, .L14
 253:Middlewares/LVGL/GUI/lvgl/src/extra/themes/basic/lv_theme_basic.c ****         lv_obj_add_style(obj, &styles->dark, LV_PART_INDICATOR);
 410              		.loc 1 253 9 is_stmt 1 view .LVU120
 253:Middlewares/LVGL/GUI/lvgl/src/extra/themes/basic/lv_theme_basic.c ****         lv_obj_add_style(obj, &styles->dark, LV_PART_INDICATOR);
 411              		.loc 1 253 38 is_stmt 0 view .LVU121
 412 01d4 444D     		ldr	r5, .L46+12
 413 01d6 2968     		ldr	r1, [r5]
 253:Middlewares/LVGL/GUI/lvgl/src/extra/themes/basic/lv_theme_basic.c ****         lv_obj_add_style(obj, &styles->dark, LV_PART_INDICATOR);
 414              		.loc 1 253 9 view .LVU122
ARM GAS  C:\Users\ADMINI~1\AppData\Local\Temp\cc8gvSPg.s 			page 17


 415 01d8 0022     		movs	r2, #0
 416 01da 1831     		adds	r1, r1, #24
 417 01dc 2046     		mov	r0, r4
 418 01de FFF7FEFF 		bl	lv_obj_add_style
 419              	.LVL49:
 254:Middlewares/LVGL/GUI/lvgl/src/extra/themes/basic/lv_theme_basic.c ****         lv_obj_add_style(obj, &styles->dim, LV_PART_KNOB);
 420              		.loc 1 254 9 is_stmt 1 view .LVU123
 254:Middlewares/LVGL/GUI/lvgl/src/extra/themes/basic/lv_theme_basic.c ****         lv_obj_add_style(obj, &styles->dim, LV_PART_KNOB);
 421              		.loc 1 254 38 is_stmt 0 view .LVU124
 422 01e2 2968     		ldr	r1, [r5]
 254:Middlewares/LVGL/GUI/lvgl/src/extra/themes/basic/lv_theme_basic.c ****         lv_obj_add_style(obj, &styles->dim, LV_PART_KNOB);
 423              		.loc 1 254 9 view .LVU125
 424 01e4 4FF40032 		mov	r2, #131072
 425 01e8 2031     		adds	r1, r1, #32
 426 01ea 2046     		mov	r0, r4
 427 01ec FFF7FEFF 		bl	lv_obj_add_style
 428              	.LVL50:
 255:Middlewares/LVGL/GUI/lvgl/src/extra/themes/basic/lv_theme_basic.c ****     }
 429              		.loc 1 255 9 is_stmt 1 view .LVU126
 255:Middlewares/LVGL/GUI/lvgl/src/extra/themes/basic/lv_theme_basic.c ****     }
 430              		.loc 1 255 38 is_stmt 0 view .LVU127
 431 01f0 2968     		ldr	r1, [r5]
 255:Middlewares/LVGL/GUI/lvgl/src/extra/themes/basic/lv_theme_basic.c ****     }
 432              		.loc 1 255 9 view .LVU128
 433 01f2 4FF44032 		mov	r2, #196608
 434 01f6 2831     		adds	r1, r1, #40
 435 01f8 2046     		mov	r0, r4
 436 01fa FFF7FEFF 		bl	lv_obj_add_style
 437              	.LVL51:
 438 01fe 88E7     		b	.L1
 439              	.L14:
 260:Middlewares/LVGL/GUI/lvgl/src/extra/themes/basic/lv_theme_basic.c ****         lv_obj_add_style(obj, &styles->scrollbar, LV_PART_SCROLLBAR);
 440              		.loc 1 260 10 is_stmt 1 view .LVU129
 260:Middlewares/LVGL/GUI/lvgl/src/extra/themes/basic/lv_theme_basic.c ****         lv_obj_add_style(obj, &styles->scrollbar, LV_PART_SCROLLBAR);
 441              		.loc 1 260 13 is_stmt 0 view .LVU130
 442 0200 4049     		ldr	r1, .L46+40
 443 0202 2046     		mov	r0, r4
 444 0204 FFF7FEFF 		bl	lv_obj_check_type
 445              	.LVL52:
 260:Middlewares/LVGL/GUI/lvgl/src/extra/themes/basic/lv_theme_basic.c ****         lv_obj_add_style(obj, &styles->scrollbar, LV_PART_SCROLLBAR);
 446              		.loc 1 260 12 view .LVU131
 447 0208 78B1     		cbz	r0, .L15
 261:Middlewares/LVGL/GUI/lvgl/src/extra/themes/basic/lv_theme_basic.c ****         lv_obj_add_style(obj, &styles->light, LV_PART_ITEMS);
 448              		.loc 1 261 9 is_stmt 1 view .LVU132
 261:Middlewares/LVGL/GUI/lvgl/src/extra/themes/basic/lv_theme_basic.c ****         lv_obj_add_style(obj, &styles->light, LV_PART_ITEMS);
 449              		.loc 1 261 38 is_stmt 0 view .LVU133
 450 020a 374D     		ldr	r5, .L46+12
 451 020c 2968     		ldr	r1, [r5]
 261:Middlewares/LVGL/GUI/lvgl/src/extra/themes/basic/lv_theme_basic.c ****         lv_obj_add_style(obj, &styles->light, LV_PART_ITEMS);
 452              		.loc 1 261 9 view .LVU134
 453 020e 4FF48032 		mov	r2, #65536
 454 0212 3031     		adds	r1, r1, #48
 455 0214 2046     		mov	r0, r4
 456 0216 FFF7FEFF 		bl	lv_obj_add_style
 457              	.LVL53:
 262:Middlewares/LVGL/GUI/lvgl/src/extra/themes/basic/lv_theme_basic.c ****     }
 458              		.loc 1 262 9 is_stmt 1 view .LVU135
ARM GAS  C:\Users\ADMINI~1\AppData\Local\Temp\cc8gvSPg.s 			page 18


 262:Middlewares/LVGL/GUI/lvgl/src/extra/themes/basic/lv_theme_basic.c ****     }
 459              		.loc 1 262 38 is_stmt 0 view .LVU136
 460 021a 2968     		ldr	r1, [r5]
 262:Middlewares/LVGL/GUI/lvgl/src/extra/themes/basic/lv_theme_basic.c ****     }
 461              		.loc 1 262 9 view .LVU137
 462 021c 4FF4A022 		mov	r2, #327680
 463 0220 1831     		adds	r1, r1, #24
 464 0222 2046     		mov	r0, r4
 465 0224 FFF7FEFF 		bl	lv_obj_add_style
 466              	.LVL54:
 467 0228 73E7     		b	.L1
 468              	.L15:
 267:Middlewares/LVGL/GUI/lvgl/src/extra/themes/basic/lv_theme_basic.c ****         lv_obj_add_style(obj, &styles->light, LV_PART_INDICATOR);
 469              		.loc 1 267 10 is_stmt 1 view .LVU138
 267:Middlewares/LVGL/GUI/lvgl/src/extra/themes/basic/lv_theme_basic.c ****         lv_obj_add_style(obj, &styles->light, LV_PART_INDICATOR);
 470              		.loc 1 267 13 is_stmt 0 view .LVU139
 471 022a 3749     		ldr	r1, .L46+44
 472 022c 2046     		mov	r0, r4
 473 022e FFF7FEFF 		bl	lv_obj_check_type
 474              	.LVL55:
 267:Middlewares/LVGL/GUI/lvgl/src/extra/themes/basic/lv_theme_basic.c ****         lv_obj_add_style(obj, &styles->light, LV_PART_INDICATOR);
 475              		.loc 1 267 12 view .LVU140
 476 0232 70B1     		cbz	r0, .L16
 268:Middlewares/LVGL/GUI/lvgl/src/extra/themes/basic/lv_theme_basic.c ****         lv_obj_add_style(obj, &styles->dark, LV_PART_INDICATOR | LV_STATE_CHECKED);
 477              		.loc 1 268 9 is_stmt 1 view .LVU141
 268:Middlewares/LVGL/GUI/lvgl/src/extra/themes/basic/lv_theme_basic.c ****         lv_obj_add_style(obj, &styles->dark, LV_PART_INDICATOR | LV_STATE_CHECKED);
 478              		.loc 1 268 38 is_stmt 0 view .LVU142
 479 0234 2C4D     		ldr	r5, .L46+12
 480 0236 2968     		ldr	r1, [r5]
 268:Middlewares/LVGL/GUI/lvgl/src/extra/themes/basic/lv_theme_basic.c ****         lv_obj_add_style(obj, &styles->dark, LV_PART_INDICATOR | LV_STATE_CHECKED);
 481              		.loc 1 268 9 view .LVU143
 482 0238 4FF40032 		mov	r2, #131072
 483 023c 1831     		adds	r1, r1, #24
 484 023e 2046     		mov	r0, r4
 485 0240 FFF7FEFF 		bl	lv_obj_add_style
 486              	.LVL56:
 269:Middlewares/LVGL/GUI/lvgl/src/extra/themes/basic/lv_theme_basic.c ****     }
 487              		.loc 1 269 9 is_stmt 1 view .LVU144
 269:Middlewares/LVGL/GUI/lvgl/src/extra/themes/basic/lv_theme_basic.c ****     }
 488              		.loc 1 269 38 is_stmt 0 view .LVU145
 489 0244 2968     		ldr	r1, [r5]
 269:Middlewares/LVGL/GUI/lvgl/src/extra/themes/basic/lv_theme_basic.c ****     }
 490              		.loc 1 269 9 view .LVU146
 491 0246 314A     		ldr	r2, .L46+48
 492 0248 2031     		adds	r1, r1, #32
 493 024a 2046     		mov	r0, r4
 494 024c FFF7FEFF 		bl	lv_obj_add_style
 495              	.LVL57:
 496 0250 5FE7     		b	.L1
 497              	.L16:
 274:Middlewares/LVGL/GUI/lvgl/src/extra/themes/basic/lv_theme_basic.c ****         lv_obj_add_style(obj, &styles->light, 0);
 498              		.loc 1 274 10 is_stmt 1 view .LVU147
 274:Middlewares/LVGL/GUI/lvgl/src/extra/themes/basic/lv_theme_basic.c ****         lv_obj_add_style(obj, &styles->light, 0);
 499              		.loc 1 274 13 is_stmt 0 view .LVU148
 500 0252 2F49     		ldr	r1, .L46+52
 501 0254 2046     		mov	r0, r4
 502 0256 FFF7FEFF 		bl	lv_obj_check_type
ARM GAS  C:\Users\ADMINI~1\AppData\Local\Temp\cc8gvSPg.s 			page 19


 503              	.LVL58:
 274:Middlewares/LVGL/GUI/lvgl/src/extra/themes/basic/lv_theme_basic.c ****         lv_obj_add_style(obj, &styles->light, 0);
 504              		.loc 1 274 12 view .LVU149
 505 025a A0B1     		cbz	r0, .L17
 275:Middlewares/LVGL/GUI/lvgl/src/extra/themes/basic/lv_theme_basic.c ****         lv_obj_add_style(obj, &styles->dark, LV_PART_INDICATOR | LV_STATE_CHECKED);
 506              		.loc 1 275 9 is_stmt 1 view .LVU150
 275:Middlewares/LVGL/GUI/lvgl/src/extra/themes/basic/lv_theme_basic.c ****         lv_obj_add_style(obj, &styles->dark, LV_PART_INDICATOR | LV_STATE_CHECKED);
 507              		.loc 1 275 38 is_stmt 0 view .LVU151
 508 025c 224D     		ldr	r5, .L46+12
 509 025e 2968     		ldr	r1, [r5]
 275:Middlewares/LVGL/GUI/lvgl/src/extra/themes/basic/lv_theme_basic.c ****         lv_obj_add_style(obj, &styles->dark, LV_PART_INDICATOR | LV_STATE_CHECKED);
 510              		.loc 1 275 9 view .LVU152
 511 0260 0022     		movs	r2, #0
 512 0262 1831     		adds	r1, r1, #24
 513 0264 2046     		mov	r0, r4
 514 0266 FFF7FEFF 		bl	lv_obj_add_style
 515              	.LVL59:
 276:Middlewares/LVGL/GUI/lvgl/src/extra/themes/basic/lv_theme_basic.c ****         lv_obj_add_style(obj, &styles->dim, LV_PART_KNOB);
 516              		.loc 1 276 9 is_stmt 1 view .LVU153
 276:Middlewares/LVGL/GUI/lvgl/src/extra/themes/basic/lv_theme_basic.c ****         lv_obj_add_style(obj, &styles->dim, LV_PART_KNOB);
 517              		.loc 1 276 38 is_stmt 0 view .LVU154
 518 026a 2968     		ldr	r1, [r5]
 276:Middlewares/LVGL/GUI/lvgl/src/extra/themes/basic/lv_theme_basic.c ****         lv_obj_add_style(obj, &styles->dim, LV_PART_KNOB);
 519              		.loc 1 276 9 view .LVU155
 520 026c 274A     		ldr	r2, .L46+48
 521 026e 2031     		adds	r1, r1, #32
 522 0270 2046     		mov	r0, r4
 523 0272 FFF7FEFF 		bl	lv_obj_add_style
 524              	.LVL60:
 277:Middlewares/LVGL/GUI/lvgl/src/extra/themes/basic/lv_theme_basic.c ****     }
 525              		.loc 1 277 9 is_stmt 1 view .LVU156
 277:Middlewares/LVGL/GUI/lvgl/src/extra/themes/basic/lv_theme_basic.c ****     }
 526              		.loc 1 277 38 is_stmt 0 view .LVU157
 527 0276 2968     		ldr	r1, [r5]
 277:Middlewares/LVGL/GUI/lvgl/src/extra/themes/basic/lv_theme_basic.c ****     }
 528              		.loc 1 277 9 view .LVU158
 529 0278 4FF44032 		mov	r2, #196608
 530 027c 2831     		adds	r1, r1, #40
 531 027e 2046     		mov	r0, r4
 532 0280 FFF7FEFF 		bl	lv_obj_add_style
 533              	.LVL61:
 534 0284 45E7     		b	.L1
 535              	.L17:
 282:Middlewares/LVGL/GUI/lvgl/src/extra/themes/basic/lv_theme_basic.c ****         lv_obj_add_style(obj, &styles->white, 0);
 536              		.loc 1 282 10 is_stmt 1 view .LVU159
 282:Middlewares/LVGL/GUI/lvgl/src/extra/themes/basic/lv_theme_basic.c ****         lv_obj_add_style(obj, &styles->white, 0);
 537              		.loc 1 282 13 is_stmt 0 view .LVU160
 538 0286 2349     		ldr	r1, .L46+56
 539 0288 2046     		mov	r0, r4
 540 028a FFF7FEFF 		bl	lv_obj_check_type
 541              	.LVL62:
 282:Middlewares/LVGL/GUI/lvgl/src/extra/themes/basic/lv_theme_basic.c ****         lv_obj_add_style(obj, &styles->white, 0);
 542              		.loc 1 282 12 view .LVU161
 543 028e 0028     		cmp	r0, #0
 544 0290 42D0     		beq	.L18
 283:Middlewares/LVGL/GUI/lvgl/src/extra/themes/basic/lv_theme_basic.c ****         lv_obj_add_style(obj, &styles->scrollbar, LV_PART_SCROLLBAR);
 545              		.loc 1 283 9 is_stmt 1 view .LVU162
ARM GAS  C:\Users\ADMINI~1\AppData\Local\Temp\cc8gvSPg.s 			page 20


 283:Middlewares/LVGL/GUI/lvgl/src/extra/themes/basic/lv_theme_basic.c ****         lv_obj_add_style(obj, &styles->scrollbar, LV_PART_SCROLLBAR);
 546              		.loc 1 283 38 is_stmt 0 view .LVU163
 547 0292 154D     		ldr	r5, .L46+12
 548 0294 2968     		ldr	r1, [r5]
 283:Middlewares/LVGL/GUI/lvgl/src/extra/themes/basic/lv_theme_basic.c ****         lv_obj_add_style(obj, &styles->scrollbar, LV_PART_SCROLLBAR);
 549              		.loc 1 283 9 view .LVU164
 550 0296 0022     		movs	r2, #0
 551 0298 1031     		adds	r1, r1, #16
 552 029a 2046     		mov	r0, r4
 553 029c FFF7FEFF 		bl	lv_obj_add_style
 554              	.LVL63:
 284:Middlewares/LVGL/GUI/lvgl/src/extra/themes/basic/lv_theme_basic.c ****         lv_obj_add_style(obj, &styles->light, LV_PART_ITEMS);
 555              		.loc 1 284 9 is_stmt 1 view .LVU165
 284:Middlewares/LVGL/GUI/lvgl/src/extra/themes/basic/lv_theme_basic.c ****         lv_obj_add_style(obj, &styles->light, LV_PART_ITEMS);
 556              		.loc 1 284 38 is_stmt 0 view .LVU166
 557 02a0 2968     		ldr	r1, [r5]
 284:Middlewares/LVGL/GUI/lvgl/src/extra/themes/basic/lv_theme_basic.c ****         lv_obj_add_style(obj, &styles->light, LV_PART_ITEMS);
 558              		.loc 1 284 9 view .LVU167
 559 02a2 4FF48032 		mov	r2, #65536
 560 02a6 3031     		adds	r1, r1, #48
 561 02a8 2046     		mov	r0, r4
 562 02aa FFF7FEFF 		bl	lv_obj_add_style
 563              	.LVL64:
 285:Middlewares/LVGL/GUI/lvgl/src/extra/themes/basic/lv_theme_basic.c ****         lv_obj_add_style(obj, &styles->dark, LV_PART_TICKS);
 564              		.loc 1 285 9 is_stmt 1 view .LVU168
 285:Middlewares/LVGL/GUI/lvgl/src/extra/themes/basic/lv_theme_basic.c ****         lv_obj_add_style(obj, &styles->dark, LV_PART_TICKS);
 565              		.loc 1 285 38 is_stmt 0 view .LVU169
 566 02ae 2968     		ldr	r1, [r5]
 285:Middlewares/LVGL/GUI/lvgl/src/extra/themes/basic/lv_theme_basic.c ****         lv_obj_add_style(obj, &styles->dark, LV_PART_TICKS);
 567              		.loc 1 285 9 view .LVU170
 568 02b0 4FF4A022 		mov	r2, #327680
 569 02b4 1831     		adds	r1, r1, #24
 570 02b6 2046     		mov	r0, r4
 571 02b8 FFF7FEFF 		bl	lv_obj_add_style
 572              	.LVL65:
 286:Middlewares/LVGL/GUI/lvgl/src/extra/themes/basic/lv_theme_basic.c ****         lv_obj_add_style(obj, &styles->dark, LV_PART_CURSOR);
 573              		.loc 1 286 9 is_stmt 1 view .LVU171
 286:Middlewares/LVGL/GUI/lvgl/src/extra/themes/basic/lv_theme_basic.c ****         lv_obj_add_style(obj, &styles->dark, LV_PART_CURSOR);
 574              		.loc 1 286 38 is_stmt 0 view .LVU172
 575 02bc 2968     		ldr	r1, [r5]
 286:Middlewares/LVGL/GUI/lvgl/src/extra/themes/basic/lv_theme_basic.c ****         lv_obj_add_style(obj, &styles->dark, LV_PART_CURSOR);
 576              		.loc 1 286 9 view .LVU173
 577 02be 4FF4C022 		mov	r2, #393216
 578 02c2 2031     		adds	r1, r1, #32
 579 02c4 2046     		mov	r0, r4
 580 02c6 FFF7FEFF 		bl	lv_obj_add_style
 581              	.LVL66:
 287:Middlewares/LVGL/GUI/lvgl/src/extra/themes/basic/lv_theme_basic.c ****     }
 582              		.loc 1 287 9 is_stmt 1 view .LVU174
 287:Middlewares/LVGL/GUI/lvgl/src/extra/themes/basic/lv_theme_basic.c ****     }
 583              		.loc 1 287 38 is_stmt 0 view .LVU175
 584 02ca 2968     		ldr	r1, [r5]
 287:Middlewares/LVGL/GUI/lvgl/src/extra/themes/basic/lv_theme_basic.c ****     }
 585              		.loc 1 287 9 view .LVU176
 586 02cc 4FF4E022 		mov	r2, #458752
 587 02d0 2031     		adds	r1, r1, #32
 588 02d2 2046     		mov	r0, r4
ARM GAS  C:\Users\ADMINI~1\AppData\Local\Temp\cc8gvSPg.s 			page 21


 589 02d4 FFF7FEFF 		bl	lv_obj_add_style
 590              	.LVL67:
 591 02d8 1BE7     		b	.L1
 592              	.L47:
 593 02da 00BF     		.align	2
 594              	.L46:
 595 02dc 00000000 		.word	lv_obj_class
 596 02e0 00000000 		.word	lv_tabview_class
 597 02e4 00000000 		.word	lv_win_class
 598 02e8 00000000 		.word	.LANCHOR0
 599 02ec 00000000 		.word	lv_btn_class
 600 02f0 00000000 		.word	lv_btnmatrix_class
 601 02f4 00000000 		.word	lv_msgbox_class
 602 02f8 20000500 		.word	327712
 603 02fc 00000000 		.word	lv_bar_class
 604 0300 00000000 		.word	lv_slider_class
 605 0304 00000000 		.word	lv_table_class
 606 0308 00000000 		.word	lv_checkbox_class
 607 030c 01000200 		.word	131073
 608 0310 00000000 		.word	lv_switch_class
 609 0314 00000000 		.word	lv_chart_class
 610              	.L18:
 292:Middlewares/LVGL/GUI/lvgl/src/extra/themes/basic/lv_theme_basic.c ****         lv_obj_add_style(obj, &styles->light, 0);
 611              		.loc 1 292 10 is_stmt 1 view .LVU177
 292:Middlewares/LVGL/GUI/lvgl/src/extra/themes/basic/lv_theme_basic.c ****         lv_obj_add_style(obj, &styles->light, 0);
 612              		.loc 1 292 13 is_stmt 0 view .LVU178
 613 0318 B149     		ldr	r1, .L48
 614 031a 2046     		mov	r0, r4
 615 031c FFF7FEFF 		bl	lv_obj_check_type
 616              	.LVL68:
 292:Middlewares/LVGL/GUI/lvgl/src/extra/themes/basic/lv_theme_basic.c ****         lv_obj_add_style(obj, &styles->light, 0);
 617              		.loc 1 292 12 view .LVU179
 618 0320 70B1     		cbz	r0, .L19
 293:Middlewares/LVGL/GUI/lvgl/src/extra/themes/basic/lv_theme_basic.c ****         lv_obj_add_style(obj, &styles->dark, LV_PART_SELECTED);
 619              		.loc 1 293 9 is_stmt 1 view .LVU180
 293:Middlewares/LVGL/GUI/lvgl/src/extra/themes/basic/lv_theme_basic.c ****         lv_obj_add_style(obj, &styles->dark, LV_PART_SELECTED);
 620              		.loc 1 293 38 is_stmt 0 view .LVU181
 621 0322 B04D     		ldr	r5, .L48+4
 622 0324 2968     		ldr	r1, [r5]
 293:Middlewares/LVGL/GUI/lvgl/src/extra/themes/basic/lv_theme_basic.c ****         lv_obj_add_style(obj, &styles->dark, LV_PART_SELECTED);
 623              		.loc 1 293 9 view .LVU182
 624 0326 0022     		movs	r2, #0
 625 0328 1831     		adds	r1, r1, #24
 626 032a 2046     		mov	r0, r4
 627 032c FFF7FEFF 		bl	lv_obj_add_style
 628              	.LVL69:
 294:Middlewares/LVGL/GUI/lvgl/src/extra/themes/basic/lv_theme_basic.c ****     }
 629              		.loc 1 294 9 is_stmt 1 view .LVU183
 294:Middlewares/LVGL/GUI/lvgl/src/extra/themes/basic/lv_theme_basic.c ****     }
 630              		.loc 1 294 38 is_stmt 0 view .LVU184
 631 0330 2968     		ldr	r1, [r5]
 294:Middlewares/LVGL/GUI/lvgl/src/extra/themes/basic/lv_theme_basic.c ****     }
 632              		.loc 1 294 9 view .LVU185
 633 0332 4FF48022 		mov	r2, #262144
 634 0336 2031     		adds	r1, r1, #32
 635 0338 2046     		mov	r0, r4
 636 033a FFF7FEFF 		bl	lv_obj_add_style
ARM GAS  C:\Users\ADMINI~1\AppData\Local\Temp\cc8gvSPg.s 			page 22


 637              	.LVL70:
 638 033e E8E6     		b	.L1
 639              	.L19:
 299:Middlewares/LVGL/GUI/lvgl/src/extra/themes/basic/lv_theme_basic.c ****         lv_obj_add_style(obj, &styles->white, 0);
 640              		.loc 1 299 10 is_stmt 1 view .LVU186
 299:Middlewares/LVGL/GUI/lvgl/src/extra/themes/basic/lv_theme_basic.c ****         lv_obj_add_style(obj, &styles->white, 0);
 641              		.loc 1 299 13 is_stmt 0 view .LVU187
 642 0340 A949     		ldr	r1, .L48+8
 643 0342 2046     		mov	r0, r4
 644 0344 FFF7FEFF 		bl	lv_obj_check_type
 645              	.LVL71:
 299:Middlewares/LVGL/GUI/lvgl/src/extra/themes/basic/lv_theme_basic.c ****         lv_obj_add_style(obj, &styles->white, 0);
 646              		.loc 1 299 12 view .LVU188
 647 0348 38B1     		cbz	r0, .L20
 300:Middlewares/LVGL/GUI/lvgl/src/extra/themes/basic/lv_theme_basic.c ****     }
 648              		.loc 1 300 9 is_stmt 1 view .LVU189
 300:Middlewares/LVGL/GUI/lvgl/src/extra/themes/basic/lv_theme_basic.c ****     }
 649              		.loc 1 300 38 is_stmt 0 view .LVU190
 650 034a A64B     		ldr	r3, .L48+4
 651 034c 1968     		ldr	r1, [r3]
 300:Middlewares/LVGL/GUI/lvgl/src/extra/themes/basic/lv_theme_basic.c ****     }
 652              		.loc 1 300 9 view .LVU191
 653 034e 0022     		movs	r2, #0
 654 0350 1031     		adds	r1, r1, #16
 655 0352 2046     		mov	r0, r4
 656 0354 FFF7FEFF 		bl	lv_obj_add_style
 657              	.LVL72:
 658 0358 DBE6     		b	.L1
 659              	.L20:
 302:Middlewares/LVGL/GUI/lvgl/src/extra/themes/basic/lv_theme_basic.c ****         lv_obj_add_style(obj, &styles->white, 0);
 660              		.loc 1 302 10 is_stmt 1 view .LVU192
 302:Middlewares/LVGL/GUI/lvgl/src/extra/themes/basic/lv_theme_basic.c ****         lv_obj_add_style(obj, &styles->white, 0);
 661              		.loc 1 302 13 is_stmt 0 view .LVU193
 662 035a A449     		ldr	r1, .L48+12
 663 035c 2046     		mov	r0, r4
 664 035e FFF7FEFF 		bl	lv_obj_check_type
 665              	.LVL73:
 302:Middlewares/LVGL/GUI/lvgl/src/extra/themes/basic/lv_theme_basic.c ****         lv_obj_add_style(obj, &styles->white, 0);
 666              		.loc 1 302 12 view .LVU194
 667 0362 D8B1     		cbz	r0, .L21
 303:Middlewares/LVGL/GUI/lvgl/src/extra/themes/basic/lv_theme_basic.c ****         lv_obj_add_style(obj, &styles->scrollbar, LV_PART_SCROLLBAR);
 668              		.loc 1 303 9 is_stmt 1 view .LVU195
 303:Middlewares/LVGL/GUI/lvgl/src/extra/themes/basic/lv_theme_basic.c ****         lv_obj_add_style(obj, &styles->scrollbar, LV_PART_SCROLLBAR);
 669              		.loc 1 303 38 is_stmt 0 view .LVU196
 670 0364 9F4D     		ldr	r5, .L48+4
 671 0366 2968     		ldr	r1, [r5]
 303:Middlewares/LVGL/GUI/lvgl/src/extra/themes/basic/lv_theme_basic.c ****         lv_obj_add_style(obj, &styles->scrollbar, LV_PART_SCROLLBAR);
 672              		.loc 1 303 9 view .LVU197
 673 0368 0022     		movs	r2, #0
 674 036a 1031     		adds	r1, r1, #16
 675 036c 2046     		mov	r0, r4
 676 036e FFF7FEFF 		bl	lv_obj_add_style
 677              	.LVL74:
 304:Middlewares/LVGL/GUI/lvgl/src/extra/themes/basic/lv_theme_basic.c ****         lv_obj_add_style(obj, &styles->light, LV_PART_SELECTED);
 678              		.loc 1 304 9 is_stmt 1 view .LVU198
 304:Middlewares/LVGL/GUI/lvgl/src/extra/themes/basic/lv_theme_basic.c ****         lv_obj_add_style(obj, &styles->light, LV_PART_SELECTED);
 679              		.loc 1 304 38 is_stmt 0 view .LVU199
ARM GAS  C:\Users\ADMINI~1\AppData\Local\Temp\cc8gvSPg.s 			page 23


 680 0372 2968     		ldr	r1, [r5]
 304:Middlewares/LVGL/GUI/lvgl/src/extra/themes/basic/lv_theme_basic.c ****         lv_obj_add_style(obj, &styles->light, LV_PART_SELECTED);
 681              		.loc 1 304 9 view .LVU200
 682 0374 4FF48032 		mov	r2, #65536
 683 0378 3031     		adds	r1, r1, #48
 684 037a 2046     		mov	r0, r4
 685 037c FFF7FEFF 		bl	lv_obj_add_style
 686              	.LVL75:
 305:Middlewares/LVGL/GUI/lvgl/src/extra/themes/basic/lv_theme_basic.c ****         lv_obj_add_style(obj, &styles->dark, LV_PART_SELECTED | LV_STATE_CHECKED);
 687              		.loc 1 305 9 is_stmt 1 view .LVU201
 305:Middlewares/LVGL/GUI/lvgl/src/extra/themes/basic/lv_theme_basic.c ****         lv_obj_add_style(obj, &styles->dark, LV_PART_SELECTED | LV_STATE_CHECKED);
 688              		.loc 1 305 38 is_stmt 0 view .LVU202
 689 0380 2968     		ldr	r1, [r5]
 305:Middlewares/LVGL/GUI/lvgl/src/extra/themes/basic/lv_theme_basic.c ****         lv_obj_add_style(obj, &styles->dark, LV_PART_SELECTED | LV_STATE_CHECKED);
 690              		.loc 1 305 9 view .LVU203
 691 0382 4FF48022 		mov	r2, #262144
 692 0386 1831     		adds	r1, r1, #24
 693 0388 2046     		mov	r0, r4
 694 038a FFF7FEFF 		bl	lv_obj_add_style
 695              	.LVL76:
 306:Middlewares/LVGL/GUI/lvgl/src/extra/themes/basic/lv_theme_basic.c ****     }
 696              		.loc 1 306 9 is_stmt 1 view .LVU204
 306:Middlewares/LVGL/GUI/lvgl/src/extra/themes/basic/lv_theme_basic.c ****     }
 697              		.loc 1 306 38 is_stmt 0 view .LVU205
 698 038e 2968     		ldr	r1, [r5]
 306:Middlewares/LVGL/GUI/lvgl/src/extra/themes/basic/lv_theme_basic.c ****     }
 699              		.loc 1 306 9 view .LVU206
 700 0390 974A     		ldr	r2, .L48+16
 701 0392 2031     		adds	r1, r1, #32
 702 0394 2046     		mov	r0, r4
 703 0396 FFF7FEFF 		bl	lv_obj_add_style
 704              	.LVL77:
 705 039a BAE6     		b	.L1
 706              	.L21:
 311:Middlewares/LVGL/GUI/lvgl/src/extra/themes/basic/lv_theme_basic.c ****         lv_obj_add_style(obj, &styles->light, 0);
 707              		.loc 1 311 10 is_stmt 1 view .LVU207
 311:Middlewares/LVGL/GUI/lvgl/src/extra/themes/basic/lv_theme_basic.c ****         lv_obj_add_style(obj, &styles->light, 0);
 708              		.loc 1 311 13 is_stmt 0 view .LVU208
 709 039c 9549     		ldr	r1, .L48+20
 710 039e 2046     		mov	r0, r4
 711 03a0 FFF7FEFF 		bl	lv_obj_check_type
 712              	.LVL78:
 311:Middlewares/LVGL/GUI/lvgl/src/extra/themes/basic/lv_theme_basic.c ****         lv_obj_add_style(obj, &styles->light, 0);
 713              		.loc 1 311 12 view .LVU209
 714 03a4 78B3     		cbz	r0, .L22
 312:Middlewares/LVGL/GUI/lvgl/src/extra/themes/basic/lv_theme_basic.c ****         lv_obj_add_style(obj, &styles->transp, 0);
 715              		.loc 1 312 9 is_stmt 1 view .LVU210
 312:Middlewares/LVGL/GUI/lvgl/src/extra/themes/basic/lv_theme_basic.c ****         lv_obj_add_style(obj, &styles->transp, 0);
 716              		.loc 1 312 38 is_stmt 0 view .LVU211
 717 03a6 8F4D     		ldr	r5, .L48+4
 718 03a8 2968     		ldr	r1, [r5]
 312:Middlewares/LVGL/GUI/lvgl/src/extra/themes/basic/lv_theme_basic.c ****         lv_obj_add_style(obj, &styles->transp, 0);
 719              		.loc 1 312 9 view .LVU212
 720 03aa 0022     		movs	r2, #0
 721 03ac 1831     		adds	r1, r1, #24
 722 03ae 2046     		mov	r0, r4
 723 03b0 FFF7FEFF 		bl	lv_obj_add_style
ARM GAS  C:\Users\ADMINI~1\AppData\Local\Temp\cc8gvSPg.s 			page 24


 724              	.LVL79:
 313:Middlewares/LVGL/GUI/lvgl/src/extra/themes/basic/lv_theme_basic.c ****         lv_obj_add_style(obj, &styles->arc_line, 0);
 725              		.loc 1 313 9 is_stmt 1 view .LVU213
 313:Middlewares/LVGL/GUI/lvgl/src/extra/themes/basic/lv_theme_basic.c ****         lv_obj_add_style(obj, &styles->arc_line, 0);
 726              		.loc 1 313 38 is_stmt 0 view .LVU214
 727 03b4 2968     		ldr	r1, [r5]
 313:Middlewares/LVGL/GUI/lvgl/src/extra/themes/basic/lv_theme_basic.c ****         lv_obj_add_style(obj, &styles->arc_line, 0);
 728              		.loc 1 313 9 view .LVU215
 729 03b6 0022     		movs	r2, #0
 730 03b8 0831     		adds	r1, r1, #8
 731 03ba 2046     		mov	r0, r4
 732 03bc FFF7FEFF 		bl	lv_obj_add_style
 733              	.LVL80:
 314:Middlewares/LVGL/GUI/lvgl/src/extra/themes/basic/lv_theme_basic.c ****         lv_obj_add_style(obj, &styles->dark, LV_PART_INDICATOR);
 734              		.loc 1 314 9 is_stmt 1 view .LVU216
 314:Middlewares/LVGL/GUI/lvgl/src/extra/themes/basic/lv_theme_basic.c ****         lv_obj_add_style(obj, &styles->dark, LV_PART_INDICATOR);
 735              		.loc 1 314 38 is_stmt 0 view .LVU217
 736 03c0 2968     		ldr	r1, [r5]
 314:Middlewares/LVGL/GUI/lvgl/src/extra/themes/basic/lv_theme_basic.c ****         lv_obj_add_style(obj, &styles->dark, LV_PART_INDICATOR);
 737              		.loc 1 314 9 view .LVU218
 738 03c2 0022     		movs	r2, #0
 739 03c4 3831     		adds	r1, r1, #56
 740 03c6 2046     		mov	r0, r4
 741 03c8 FFF7FEFF 		bl	lv_obj_add_style
 742              	.LVL81:
 315:Middlewares/LVGL/GUI/lvgl/src/extra/themes/basic/lv_theme_basic.c ****         lv_obj_add_style(obj, &styles->arc_line, LV_PART_INDICATOR);
 743              		.loc 1 315 9 is_stmt 1 view .LVU219
 315:Middlewares/LVGL/GUI/lvgl/src/extra/themes/basic/lv_theme_basic.c ****         lv_obj_add_style(obj, &styles->arc_line, LV_PART_INDICATOR);
 744              		.loc 1 315 38 is_stmt 0 view .LVU220
 745 03cc 2968     		ldr	r1, [r5]
 315:Middlewares/LVGL/GUI/lvgl/src/extra/themes/basic/lv_theme_basic.c ****         lv_obj_add_style(obj, &styles->arc_line, LV_PART_INDICATOR);
 746              		.loc 1 315 9 view .LVU221
 747 03ce 4FF40032 		mov	r2, #131072
 748 03d2 2031     		adds	r1, r1, #32
 749 03d4 2046     		mov	r0, r4
 750 03d6 FFF7FEFF 		bl	lv_obj_add_style
 751              	.LVL82:
 316:Middlewares/LVGL/GUI/lvgl/src/extra/themes/basic/lv_theme_basic.c ****         lv_obj_add_style(obj, &styles->dim, LV_PART_KNOB);
 752              		.loc 1 316 9 is_stmt 1 view .LVU222
 316:Middlewares/LVGL/GUI/lvgl/src/extra/themes/basic/lv_theme_basic.c ****         lv_obj_add_style(obj, &styles->dim, LV_PART_KNOB);
 753              		.loc 1 316 38 is_stmt 0 view .LVU223
 754 03da 2968     		ldr	r1, [r5]
 316:Middlewares/LVGL/GUI/lvgl/src/extra/themes/basic/lv_theme_basic.c ****         lv_obj_add_style(obj, &styles->dim, LV_PART_KNOB);
 755              		.loc 1 316 9 view .LVU224
 756 03dc 4FF40032 		mov	r2, #131072
 757 03e0 3831     		adds	r1, r1, #56
 758 03e2 2046     		mov	r0, r4
 759 03e4 FFF7FEFF 		bl	lv_obj_add_style
 760              	.LVL83:
 317:Middlewares/LVGL/GUI/lvgl/src/extra/themes/basic/lv_theme_basic.c ****         lv_obj_add_style(obj, &styles->arc_knob, LV_PART_KNOB);
 761              		.loc 1 317 9 is_stmt 1 view .LVU225
 317:Middlewares/LVGL/GUI/lvgl/src/extra/themes/basic/lv_theme_basic.c ****         lv_obj_add_style(obj, &styles->arc_knob, LV_PART_KNOB);
 762              		.loc 1 317 38 is_stmt 0 view .LVU226
 763 03e8 2968     		ldr	r1, [r5]
 317:Middlewares/LVGL/GUI/lvgl/src/extra/themes/basic/lv_theme_basic.c ****         lv_obj_add_style(obj, &styles->arc_knob, LV_PART_KNOB);
 764              		.loc 1 317 9 view .LVU227
 765 03ea 4FF44032 		mov	r2, #196608
ARM GAS  C:\Users\ADMINI~1\AppData\Local\Temp\cc8gvSPg.s 			page 25


 766 03ee 2831     		adds	r1, r1, #40
 767 03f0 2046     		mov	r0, r4
 768 03f2 FFF7FEFF 		bl	lv_obj_add_style
 769              	.LVL84:
 318:Middlewares/LVGL/GUI/lvgl/src/extra/themes/basic/lv_theme_basic.c ****     }
 770              		.loc 1 318 9 is_stmt 1 view .LVU228
 318:Middlewares/LVGL/GUI/lvgl/src/extra/themes/basic/lv_theme_basic.c ****     }
 771              		.loc 1 318 38 is_stmt 0 view .LVU229
 772 03f6 2968     		ldr	r1, [r5]
 318:Middlewares/LVGL/GUI/lvgl/src/extra/themes/basic/lv_theme_basic.c ****     }
 773              		.loc 1 318 9 view .LVU230
 774 03f8 4FF44032 		mov	r2, #196608
 775 03fc 4031     		adds	r1, r1, #64
 776 03fe 2046     		mov	r0, r4
 777 0400 FFF7FEFF 		bl	lv_obj_add_style
 778              	.LVL85:
 779 0404 85E6     		b	.L1
 780              	.L22:
 323:Middlewares/LVGL/GUI/lvgl/src/extra/themes/basic/lv_theme_basic.c ****         lv_obj_add_style(obj, &styles->light, 0);
 781              		.loc 1 323 10 is_stmt 1 view .LVU231
 323:Middlewares/LVGL/GUI/lvgl/src/extra/themes/basic/lv_theme_basic.c ****         lv_obj_add_style(obj, &styles->light, 0);
 782              		.loc 1 323 13 is_stmt 0 view .LVU232
 783 0406 7C49     		ldr	r1, .L48+24
 784 0408 2046     		mov	r0, r4
 785 040a FFF7FEFF 		bl	lv_obj_check_type
 786              	.LVL86:
 323:Middlewares/LVGL/GUI/lvgl/src/extra/themes/basic/lv_theme_basic.c ****         lv_obj_add_style(obj, &styles->light, 0);
 787              		.loc 1 323 12 view .LVU233
 788 040e 08B3     		cbz	r0, .L23
 324:Middlewares/LVGL/GUI/lvgl/src/extra/themes/basic/lv_theme_basic.c ****         lv_obj_add_style(obj, &styles->transp, 0);
 789              		.loc 1 324 9 is_stmt 1 view .LVU234
 324:Middlewares/LVGL/GUI/lvgl/src/extra/themes/basic/lv_theme_basic.c ****         lv_obj_add_style(obj, &styles->transp, 0);
 790              		.loc 1 324 38 is_stmt 0 view .LVU235
 791 0410 744D     		ldr	r5, .L48+4
 792 0412 2968     		ldr	r1, [r5]
 324:Middlewares/LVGL/GUI/lvgl/src/extra/themes/basic/lv_theme_basic.c ****         lv_obj_add_style(obj, &styles->transp, 0);
 793              		.loc 1 324 9 view .LVU236
 794 0414 0022     		movs	r2, #0
 795 0416 1831     		adds	r1, r1, #24
 796 0418 2046     		mov	r0, r4
 797 041a FFF7FEFF 		bl	lv_obj_add_style
 798              	.LVL87:
 325:Middlewares/LVGL/GUI/lvgl/src/extra/themes/basic/lv_theme_basic.c ****         lv_obj_add_style(obj, &styles->arc_line, 0);
 799              		.loc 1 325 9 is_stmt 1 view .LVU237
 325:Middlewares/LVGL/GUI/lvgl/src/extra/themes/basic/lv_theme_basic.c ****         lv_obj_add_style(obj, &styles->arc_line, 0);
 800              		.loc 1 325 38 is_stmt 0 view .LVU238
 801 041e 2968     		ldr	r1, [r5]
 325:Middlewares/LVGL/GUI/lvgl/src/extra/themes/basic/lv_theme_basic.c ****         lv_obj_add_style(obj, &styles->arc_line, 0);
 802              		.loc 1 325 9 view .LVU239
 803 0420 0022     		movs	r2, #0
 804 0422 0831     		adds	r1, r1, #8
 805 0424 2046     		mov	r0, r4
 806 0426 FFF7FEFF 		bl	lv_obj_add_style
 807              	.LVL88:
 326:Middlewares/LVGL/GUI/lvgl/src/extra/themes/basic/lv_theme_basic.c ****         lv_obj_add_style(obj, &styles->dark, LV_PART_INDICATOR);
 808              		.loc 1 326 9 is_stmt 1 view .LVU240
 326:Middlewares/LVGL/GUI/lvgl/src/extra/themes/basic/lv_theme_basic.c ****         lv_obj_add_style(obj, &styles->dark, LV_PART_INDICATOR);
ARM GAS  C:\Users\ADMINI~1\AppData\Local\Temp\cc8gvSPg.s 			page 26


 809              		.loc 1 326 38 is_stmt 0 view .LVU241
 810 042a 2968     		ldr	r1, [r5]
 326:Middlewares/LVGL/GUI/lvgl/src/extra/themes/basic/lv_theme_basic.c ****         lv_obj_add_style(obj, &styles->dark, LV_PART_INDICATOR);
 811              		.loc 1 326 9 view .LVU242
 812 042c 0022     		movs	r2, #0
 813 042e 3831     		adds	r1, r1, #56
 814 0430 2046     		mov	r0, r4
 815 0432 FFF7FEFF 		bl	lv_obj_add_style
 816              	.LVL89:
 327:Middlewares/LVGL/GUI/lvgl/src/extra/themes/basic/lv_theme_basic.c ****         lv_obj_add_style(obj, &styles->arc_line, LV_PART_INDICATOR);
 817              		.loc 1 327 9 is_stmt 1 view .LVU243
 327:Middlewares/LVGL/GUI/lvgl/src/extra/themes/basic/lv_theme_basic.c ****         lv_obj_add_style(obj, &styles->arc_line, LV_PART_INDICATOR);
 818              		.loc 1 327 38 is_stmt 0 view .LVU244
 819 0436 2968     		ldr	r1, [r5]
 327:Middlewares/LVGL/GUI/lvgl/src/extra/themes/basic/lv_theme_basic.c ****         lv_obj_add_style(obj, &styles->arc_line, LV_PART_INDICATOR);
 820              		.loc 1 327 9 view .LVU245
 821 0438 4FF40032 		mov	r2, #131072
 822 043c 2031     		adds	r1, r1, #32
 823 043e 2046     		mov	r0, r4
 824 0440 FFF7FEFF 		bl	lv_obj_add_style
 825              	.LVL90:
 328:Middlewares/LVGL/GUI/lvgl/src/extra/themes/basic/lv_theme_basic.c ****     }
 826              		.loc 1 328 9 is_stmt 1 view .LVU246
 328:Middlewares/LVGL/GUI/lvgl/src/extra/themes/basic/lv_theme_basic.c ****     }
 827              		.loc 1 328 38 is_stmt 0 view .LVU247
 828 0444 2968     		ldr	r1, [r5]
 328:Middlewares/LVGL/GUI/lvgl/src/extra/themes/basic/lv_theme_basic.c ****     }
 829              		.loc 1 328 9 view .LVU248
 830 0446 4FF40032 		mov	r2, #131072
 831 044a 3831     		adds	r1, r1, #56
 832 044c 2046     		mov	r0, r4
 833 044e FFF7FEFF 		bl	lv_obj_add_style
 834              	.LVL91:
 835 0452 5EE6     		b	.L1
 836              	.L23:
 333:Middlewares/LVGL/GUI/lvgl/src/extra/themes/basic/lv_theme_basic.c ****         lv_obj_add_style(obj, &styles->light, 0);
 837              		.loc 1 333 10 is_stmt 1 view .LVU249
 333:Middlewares/LVGL/GUI/lvgl/src/extra/themes/basic/lv_theme_basic.c ****         lv_obj_add_style(obj, &styles->light, 0);
 838              		.loc 1 333 13 is_stmt 0 view .LVU250
 839 0454 6949     		ldr	r1, .L48+28
 840 0456 2046     		mov	r0, r4
 841 0458 FFF7FEFF 		bl	lv_obj_check_type
 842              	.LVL92:
 333:Middlewares/LVGL/GUI/lvgl/src/extra/themes/basic/lv_theme_basic.c ****         lv_obj_add_style(obj, &styles->light, 0);
 843              		.loc 1 333 12 view .LVU251
 844 045c 08B3     		cbz	r0, .L24
 334:Middlewares/LVGL/GUI/lvgl/src/extra/themes/basic/lv_theme_basic.c ****         lv_obj_add_style(obj, &styles->transp, 0);
 845              		.loc 1 334 9 is_stmt 1 view .LVU252
 334:Middlewares/LVGL/GUI/lvgl/src/extra/themes/basic/lv_theme_basic.c ****         lv_obj_add_style(obj, &styles->transp, 0);
 846              		.loc 1 334 38 is_stmt 0 view .LVU253
 847 045e 614D     		ldr	r5, .L48+4
 848 0460 2968     		ldr	r1, [r5]
 334:Middlewares/LVGL/GUI/lvgl/src/extra/themes/basic/lv_theme_basic.c ****         lv_obj_add_style(obj, &styles->transp, 0);
 849              		.loc 1 334 9 view .LVU254
 850 0462 0022     		movs	r2, #0
 851 0464 1831     		adds	r1, r1, #24
 852 0466 2046     		mov	r0, r4
ARM GAS  C:\Users\ADMINI~1\AppData\Local\Temp\cc8gvSPg.s 			page 27


 853 0468 FFF7FEFF 		bl	lv_obj_add_style
 854              	.LVL93:
 335:Middlewares/LVGL/GUI/lvgl/src/extra/themes/basic/lv_theme_basic.c ****         lv_obj_add_style(obj, &styles->arc_line, 0);
 855              		.loc 1 335 9 is_stmt 1 view .LVU255
 335:Middlewares/LVGL/GUI/lvgl/src/extra/themes/basic/lv_theme_basic.c ****         lv_obj_add_style(obj, &styles->arc_line, 0);
 856              		.loc 1 335 38 is_stmt 0 view .LVU256
 857 046c 2968     		ldr	r1, [r5]
 335:Middlewares/LVGL/GUI/lvgl/src/extra/themes/basic/lv_theme_basic.c ****         lv_obj_add_style(obj, &styles->arc_line, 0);
 858              		.loc 1 335 9 view .LVU257
 859 046e 0022     		movs	r2, #0
 860 0470 0831     		adds	r1, r1, #8
 861 0472 2046     		mov	r0, r4
 862 0474 FFF7FEFF 		bl	lv_obj_add_style
 863              	.LVL94:
 336:Middlewares/LVGL/GUI/lvgl/src/extra/themes/basic/lv_theme_basic.c ****         lv_obj_add_style(obj, &styles->dim, LV_PART_KNOB);
 864              		.loc 1 336 9 is_stmt 1 view .LVU258
 336:Middlewares/LVGL/GUI/lvgl/src/extra/themes/basic/lv_theme_basic.c ****         lv_obj_add_style(obj, &styles->dim, LV_PART_KNOB);
 865              		.loc 1 336 38 is_stmt 0 view .LVU259
 866 0478 2968     		ldr	r1, [r5]
 336:Middlewares/LVGL/GUI/lvgl/src/extra/themes/basic/lv_theme_basic.c ****         lv_obj_add_style(obj, &styles->dim, LV_PART_KNOB);
 867              		.loc 1 336 9 view .LVU260
 868 047a 0022     		movs	r2, #0
 869 047c 3831     		adds	r1, r1, #56
 870 047e 2046     		mov	r0, r4
 871 0480 FFF7FEFF 		bl	lv_obj_add_style
 872              	.LVL95:
 337:Middlewares/LVGL/GUI/lvgl/src/extra/themes/basic/lv_theme_basic.c ****         lv_obj_add_style(obj, &styles->arc_knob, LV_PART_KNOB);
 873              		.loc 1 337 9 is_stmt 1 view .LVU261
 337:Middlewares/LVGL/GUI/lvgl/src/extra/themes/basic/lv_theme_basic.c ****         lv_obj_add_style(obj, &styles->arc_knob, LV_PART_KNOB);
 874              		.loc 1 337 38 is_stmt 0 view .LVU262
 875 0484 2968     		ldr	r1, [r5]
 337:Middlewares/LVGL/GUI/lvgl/src/extra/themes/basic/lv_theme_basic.c ****         lv_obj_add_style(obj, &styles->arc_knob, LV_PART_KNOB);
 876              		.loc 1 337 9 view .LVU263
 877 0486 4FF44032 		mov	r2, #196608
 878 048a 2831     		adds	r1, r1, #40
 879 048c 2046     		mov	r0, r4
 880 048e FFF7FEFF 		bl	lv_obj_add_style
 881              	.LVL96:
 338:Middlewares/LVGL/GUI/lvgl/src/extra/themes/basic/lv_theme_basic.c ****     }
 882              		.loc 1 338 9 is_stmt 1 view .LVU264
 338:Middlewares/LVGL/GUI/lvgl/src/extra/themes/basic/lv_theme_basic.c ****     }
 883              		.loc 1 338 38 is_stmt 0 view .LVU265
 884 0492 2968     		ldr	r1, [r5]
 338:Middlewares/LVGL/GUI/lvgl/src/extra/themes/basic/lv_theme_basic.c ****     }
 885              		.loc 1 338 9 view .LVU266
 886 0494 4FF44032 		mov	r2, #196608
 887 0498 4031     		adds	r1, r1, #64
 888 049a 2046     		mov	r0, r4
 889 049c FFF7FEFF 		bl	lv_obj_add_style
 890              	.LVL97:
 891 04a0 37E6     		b	.L1
 892              	.L24:
 343:Middlewares/LVGL/GUI/lvgl/src/extra/themes/basic/lv_theme_basic.c ****         lv_obj_add_style(obj, &styles->light, 0);
 893              		.loc 1 343 10 is_stmt 1 view .LVU267
 343:Middlewares/LVGL/GUI/lvgl/src/extra/themes/basic/lv_theme_basic.c ****         lv_obj_add_style(obj, &styles->light, 0);
 894              		.loc 1 343 13 is_stmt 0 view .LVU268
 895 04a2 5749     		ldr	r1, .L48+32
ARM GAS  C:\Users\ADMINI~1\AppData\Local\Temp\cc8gvSPg.s 			page 28


 896 04a4 2046     		mov	r0, r4
 897 04a6 FFF7FEFF 		bl	lv_obj_check_type
 898              	.LVL98:
 343:Middlewares/LVGL/GUI/lvgl/src/extra/themes/basic/lv_theme_basic.c ****         lv_obj_add_style(obj, &styles->light, 0);
 899              		.loc 1 343 12 view .LVU269
 900 04aa 38B1     		cbz	r0, .L25
 344:Middlewares/LVGL/GUI/lvgl/src/extra/themes/basic/lv_theme_basic.c ****     }
 901              		.loc 1 344 9 is_stmt 1 view .LVU270
 344:Middlewares/LVGL/GUI/lvgl/src/extra/themes/basic/lv_theme_basic.c ****     }
 902              		.loc 1 344 38 is_stmt 0 view .LVU271
 903 04ac 4D4B     		ldr	r3, .L48+4
 904 04ae 1968     		ldr	r1, [r3]
 344:Middlewares/LVGL/GUI/lvgl/src/extra/themes/basic/lv_theme_basic.c ****     }
 905              		.loc 1 344 9 view .LVU272
 906 04b0 0022     		movs	r2, #0
 907 04b2 1831     		adds	r1, r1, #24
 908 04b4 2046     		mov	r0, r4
 909 04b6 FFF7FEFF 		bl	lv_obj_add_style
 910              	.LVL99:
 911 04ba 2AE6     		b	.L1
 912              	.L25:
 349:Middlewares/LVGL/GUI/lvgl/src/extra/themes/basic/lv_theme_basic.c ****         lv_obj_add_style(obj, &styles->white, 0);
 913              		.loc 1 349 10 is_stmt 1 view .LVU273
 349:Middlewares/LVGL/GUI/lvgl/src/extra/themes/basic/lv_theme_basic.c ****         lv_obj_add_style(obj, &styles->white, 0);
 914              		.loc 1 349 13 is_stmt 0 view .LVU274
 915 04bc 5149     		ldr	r1, .L48+36
 916 04be 2046     		mov	r0, r4
 917 04c0 FFF7FEFF 		bl	lv_obj_check_type
 918              	.LVL100:
 349:Middlewares/LVGL/GUI/lvgl/src/extra/themes/basic/lv_theme_basic.c ****         lv_obj_add_style(obj, &styles->white, 0);
 919              		.loc 1 349 12 view .LVU275
 920 04c4 A8B1     		cbz	r0, .L26
 350:Middlewares/LVGL/GUI/lvgl/src/extra/themes/basic/lv_theme_basic.c ****         lv_obj_add_style(obj, &styles->scrollbar, LV_PART_SCROLLBAR);
 921              		.loc 1 350 9 is_stmt 1 view .LVU276
 350:Middlewares/LVGL/GUI/lvgl/src/extra/themes/basic/lv_theme_basic.c ****         lv_obj_add_style(obj, &styles->scrollbar, LV_PART_SCROLLBAR);
 922              		.loc 1 350 38 is_stmt 0 view .LVU277
 923 04c6 474D     		ldr	r5, .L48+4
 924 04c8 2968     		ldr	r1, [r5]
 350:Middlewares/LVGL/GUI/lvgl/src/extra/themes/basic/lv_theme_basic.c ****         lv_obj_add_style(obj, &styles->scrollbar, LV_PART_SCROLLBAR);
 925              		.loc 1 350 9 view .LVU278
 926 04ca 0022     		movs	r2, #0
 927 04cc 1031     		adds	r1, r1, #16
 928 04ce 2046     		mov	r0, r4
 929 04d0 FFF7FEFF 		bl	lv_obj_add_style
 930              	.LVL101:
 351:Middlewares/LVGL/GUI/lvgl/src/extra/themes/basic/lv_theme_basic.c ****         lv_obj_add_style(obj, &styles->ta_cursor, LV_PART_CURSOR);
 931              		.loc 1 351 9 is_stmt 1 view .LVU279
 351:Middlewares/LVGL/GUI/lvgl/src/extra/themes/basic/lv_theme_basic.c ****         lv_obj_add_style(obj, &styles->ta_cursor, LV_PART_CURSOR);
 932              		.loc 1 351 38 is_stmt 0 view .LVU280
 933 04d4 2968     		ldr	r1, [r5]
 351:Middlewares/LVGL/GUI/lvgl/src/extra/themes/basic/lv_theme_basic.c ****         lv_obj_add_style(obj, &styles->ta_cursor, LV_PART_CURSOR);
 934              		.loc 1 351 9 view .LVU281
 935 04d6 4FF48032 		mov	r2, #65536
 936 04da 3031     		adds	r1, r1, #48
 937 04dc 2046     		mov	r0, r4
 938 04de FFF7FEFF 		bl	lv_obj_add_style
 939              	.LVL102:
ARM GAS  C:\Users\ADMINI~1\AppData\Local\Temp\cc8gvSPg.s 			page 29


 352:Middlewares/LVGL/GUI/lvgl/src/extra/themes/basic/lv_theme_basic.c ****     }
 940              		.loc 1 352 9 is_stmt 1 view .LVU282
 352:Middlewares/LVGL/GUI/lvgl/src/extra/themes/basic/lv_theme_basic.c ****     }
 941              		.loc 1 352 38 is_stmt 0 view .LVU283
 942 04e2 2968     		ldr	r1, [r5]
 352:Middlewares/LVGL/GUI/lvgl/src/extra/themes/basic/lv_theme_basic.c ****     }
 943              		.loc 1 352 9 view .LVU284
 944 04e4 4FF4E022 		mov	r2, #458752
 945 04e8 4831     		adds	r1, r1, #72
 946 04ea 2046     		mov	r0, r4
 947 04ec FFF7FEFF 		bl	lv_obj_add_style
 948              	.LVL103:
 949 04f0 0FE6     		b	.L1
 950              	.L26:
 357:Middlewares/LVGL/GUI/lvgl/src/extra/themes/basic/lv_theme_basic.c ****         lv_obj_add_style(obj, &styles->light, 0);
 951              		.loc 1 357 10 is_stmt 1 view .LVU285
 357:Middlewares/LVGL/GUI/lvgl/src/extra/themes/basic/lv_theme_basic.c ****         lv_obj_add_style(obj, &styles->light, 0);
 952              		.loc 1 357 13 is_stmt 0 view .LVU286
 953 04f2 4549     		ldr	r1, .L48+40
 954 04f4 2046     		mov	r0, r4
 955 04f6 FFF7FEFF 		bl	lv_obj_check_type
 956              	.LVL104:
 357:Middlewares/LVGL/GUI/lvgl/src/extra/themes/basic/lv_theme_basic.c ****         lv_obj_add_style(obj, &styles->light, 0);
 957              		.loc 1 357 12 view .LVU287
 958 04fa 68B1     		cbz	r0, .L27
 358:Middlewares/LVGL/GUI/lvgl/src/extra/themes/basic/lv_theme_basic.c ****         lv_obj_add_style(obj, &styles->light, LV_PART_ITEMS | LV_STATE_PRESSED);
 959              		.loc 1 358 9 is_stmt 1 view .LVU288
 358:Middlewares/LVGL/GUI/lvgl/src/extra/themes/basic/lv_theme_basic.c ****         lv_obj_add_style(obj, &styles->light, LV_PART_ITEMS | LV_STATE_PRESSED);
 960              		.loc 1 358 38 is_stmt 0 view .LVU289
 961 04fc 394D     		ldr	r5, .L48+4
 962 04fe 2968     		ldr	r1, [r5]
 358:Middlewares/LVGL/GUI/lvgl/src/extra/themes/basic/lv_theme_basic.c ****         lv_obj_add_style(obj, &styles->light, LV_PART_ITEMS | LV_STATE_PRESSED);
 963              		.loc 1 358 9 view .LVU290
 964 0500 0022     		movs	r2, #0
 965 0502 1831     		adds	r1, r1, #24
 966 0504 2046     		mov	r0, r4
 967 0506 FFF7FEFF 		bl	lv_obj_add_style
 968              	.LVL105:
 359:Middlewares/LVGL/GUI/lvgl/src/extra/themes/basic/lv_theme_basic.c ****     }
 969              		.loc 1 359 9 is_stmt 1 view .LVU291
 359:Middlewares/LVGL/GUI/lvgl/src/extra/themes/basic/lv_theme_basic.c ****     }
 970              		.loc 1 359 38 is_stmt 0 view .LVU292
 971 050a 2968     		ldr	r1, [r5]
 359:Middlewares/LVGL/GUI/lvgl/src/extra/themes/basic/lv_theme_basic.c ****     }
 972              		.loc 1 359 9 view .LVU293
 973 050c 3F4A     		ldr	r2, .L48+44
 974 050e 1831     		adds	r1, r1, #24
 975 0510 2046     		mov	r0, r4
 976 0512 FFF7FEFF 		bl	lv_obj_add_style
 977              	.LVL106:
 978 0516 FCE5     		b	.L1
 979              	.L27:
 364:Middlewares/LVGL/GUI/lvgl/src/extra/themes/basic/lv_theme_basic.c ****         lv_obj_add_style(obj, &styles->scr, 0);
 980              		.loc 1 364 10 is_stmt 1 view .LVU294
 364:Middlewares/LVGL/GUI/lvgl/src/extra/themes/basic/lv_theme_basic.c ****         lv_obj_add_style(obj, &styles->scr, 0);
 981              		.loc 1 364 13 is_stmt 0 view .LVU295
 982 0518 3D49     		ldr	r1, .L48+48
ARM GAS  C:\Users\ADMINI~1\AppData\Local\Temp\cc8gvSPg.s 			page 30


 983 051a 2046     		mov	r0, r4
 984 051c FFF7FEFF 		bl	lv_obj_check_type
 985              	.LVL107:
 364:Middlewares/LVGL/GUI/lvgl/src/extra/themes/basic/lv_theme_basic.c ****         lv_obj_add_style(obj, &styles->scr, 0);
 986              		.loc 1 364 12 view .LVU296
 987 0520 98B1     		cbz	r0, .L28
 365:Middlewares/LVGL/GUI/lvgl/src/extra/themes/basic/lv_theme_basic.c ****         lv_obj_add_style(obj, &styles->white, LV_PART_ITEMS);
 988              		.loc 1 365 9 is_stmt 1 view .LVU297
 365:Middlewares/LVGL/GUI/lvgl/src/extra/themes/basic/lv_theme_basic.c ****         lv_obj_add_style(obj, &styles->white, LV_PART_ITEMS);
 989              		.loc 1 365 38 is_stmt 0 view .LVU298
 990 0522 304D     		ldr	r5, .L48+4
 365:Middlewares/LVGL/GUI/lvgl/src/extra/themes/basic/lv_theme_basic.c ****         lv_obj_add_style(obj, &styles->white, LV_PART_ITEMS);
 991              		.loc 1 365 9 view .LVU299
 992 0524 0022     		movs	r2, #0
 993 0526 2968     		ldr	r1, [r5]
 994 0528 2046     		mov	r0, r4
 995 052a FFF7FEFF 		bl	lv_obj_add_style
 996              	.LVL108:
 366:Middlewares/LVGL/GUI/lvgl/src/extra/themes/basic/lv_theme_basic.c ****         lv_obj_add_style(obj, &styles->light, LV_PART_ITEMS | LV_STATE_CHECKED);
 997              		.loc 1 366 9 is_stmt 1 view .LVU300
 366:Middlewares/LVGL/GUI/lvgl/src/extra/themes/basic/lv_theme_basic.c ****         lv_obj_add_style(obj, &styles->light, LV_PART_ITEMS | LV_STATE_CHECKED);
 998              		.loc 1 366 38 is_stmt 0 view .LVU301
 999 052e 2968     		ldr	r1, [r5]
 366:Middlewares/LVGL/GUI/lvgl/src/extra/themes/basic/lv_theme_basic.c ****         lv_obj_add_style(obj, &styles->light, LV_PART_ITEMS | LV_STATE_CHECKED);
 1000              		.loc 1 366 9 view .LVU302
 1001 0530 4FF4A022 		mov	r2, #327680
 1002 0534 1031     		adds	r1, r1, #16
 1003 0536 2046     		mov	r0, r4
 1004 0538 FFF7FEFF 		bl	lv_obj_add_style
 1005              	.LVL109:
 367:Middlewares/LVGL/GUI/lvgl/src/extra/themes/basic/lv_theme_basic.c ****     }
 1006              		.loc 1 367 9 is_stmt 1 view .LVU303
 367:Middlewares/LVGL/GUI/lvgl/src/extra/themes/basic/lv_theme_basic.c ****     }
 1007              		.loc 1 367 38 is_stmt 0 view .LVU304
 1008 053c 2968     		ldr	r1, [r5]
 367:Middlewares/LVGL/GUI/lvgl/src/extra/themes/basic/lv_theme_basic.c ****     }
 1009              		.loc 1 367 9 view .LVU305
 1010 053e 354A     		ldr	r2, .L48+52
 1011 0540 1831     		adds	r1, r1, #24
 1012 0542 2046     		mov	r0, r4
 1013 0544 FFF7FEFF 		bl	lv_obj_add_style
 1014              	.LVL110:
 1015 0548 E3E5     		b	.L1
 1016              	.L28:
 371:Middlewares/LVGL/GUI/lvgl/src/extra/themes/basic/lv_theme_basic.c ****         lv_obj_add_style(obj, &styles->light, 0);
 1017              		.loc 1 371 10 is_stmt 1 view .LVU306
 371:Middlewares/LVGL/GUI/lvgl/src/extra/themes/basic/lv_theme_basic.c ****         lv_obj_add_style(obj, &styles->light, 0);
 1018              		.loc 1 371 13 is_stmt 0 view .LVU307
 1019 054a 3349     		ldr	r1, .L48+56
 1020 054c 2046     		mov	r0, r4
 1021 054e FFF7FEFF 		bl	lv_obj_check_type
 1022              	.LVL111:
 371:Middlewares/LVGL/GUI/lvgl/src/extra/themes/basic/lv_theme_basic.c ****         lv_obj_add_style(obj, &styles->light, 0);
 1023              		.loc 1 371 12 view .LVU308
 1024 0552 98B9     		cbnz	r0, .L44
 376:Middlewares/LVGL/GUI/lvgl/src/extra/themes/basic/lv_theme_basic.c **** 
 1025              		.loc 1 376 10 is_stmt 1 view .LVU309
ARM GAS  C:\Users\ADMINI~1\AppData\Local\Temp\cc8gvSPg.s 			page 31


 376:Middlewares/LVGL/GUI/lvgl/src/extra/themes/basic/lv_theme_basic.c **** 
 1026              		.loc 1 376 13 is_stmt 0 view .LVU310
 1027 0554 3149     		ldr	r1, .L48+60
 1028 0556 2046     		mov	r0, r4
 1029 0558 FFF7FEFF 		bl	lv_obj_check_type
 1030              	.LVL112:
 376:Middlewares/LVGL/GUI/lvgl/src/extra/themes/basic/lv_theme_basic.c **** 
 1031              		.loc 1 376 12 view .LVU311
 1032 055c 0028     		cmp	r0, #0
 1033 055e 7FF4D8AD 		bne	.L1
 379:Middlewares/LVGL/GUI/lvgl/src/extra/themes/basic/lv_theme_basic.c ****         lv_obj_add_style(obj, &styles->dark, 0);
 1034              		.loc 1 379 10 is_stmt 1 view .LVU312
 379:Middlewares/LVGL/GUI/lvgl/src/extra/themes/basic/lv_theme_basic.c ****         lv_obj_add_style(obj, &styles->dark, 0);
 1035              		.loc 1 379 13 is_stmt 0 view .LVU313
 1036 0562 2F49     		ldr	r1, .L48+64
 1037 0564 2046     		mov	r0, r4
 1038 0566 FFF7FEFF 		bl	lv_obj_check_type
 1039              	.LVL113:
 379:Middlewares/LVGL/GUI/lvgl/src/extra/themes/basic/lv_theme_basic.c ****         lv_obj_add_style(obj, &styles->dark, 0);
 1040              		.loc 1 379 12 view .LVU314
 1041 056a B0B1     		cbz	r0, .L30
 380:Middlewares/LVGL/GUI/lvgl/src/extra/themes/basic/lv_theme_basic.c **** 
 1042              		.loc 1 380 9 is_stmt 1 view .LVU315
 380:Middlewares/LVGL/GUI/lvgl/src/extra/themes/basic/lv_theme_basic.c **** 
 1043              		.loc 1 380 38 is_stmt 0 view .LVU316
 1044 056c 1D4B     		ldr	r3, .L48+4
 1045 056e 1968     		ldr	r1, [r3]
 380:Middlewares/LVGL/GUI/lvgl/src/extra/themes/basic/lv_theme_basic.c **** 
 1046              		.loc 1 380 9 view .LVU317
 1047 0570 0022     		movs	r2, #0
 1048 0572 2031     		adds	r1, r1, #32
 1049 0574 2046     		mov	r0, r4
 1050 0576 FFF7FEFF 		bl	lv_obj_add_style
 1051              	.LVL114:
 1052 057a CAE5     		b	.L1
 1053              	.L44:
 372:Middlewares/LVGL/GUI/lvgl/src/extra/themes/basic/lv_theme_basic.c ****         lv_obj_add_style(obj, &styles->scrollbar, LV_PART_SCROLLBAR);
 1054              		.loc 1 372 9 is_stmt 1 view .LVU318
 372:Middlewares/LVGL/GUI/lvgl/src/extra/themes/basic/lv_theme_basic.c ****         lv_obj_add_style(obj, &styles->scrollbar, LV_PART_SCROLLBAR);
 1055              		.loc 1 372 38 is_stmt 0 view .LVU319
 1056 057c 194D     		ldr	r5, .L48+4
 1057 057e 2968     		ldr	r1, [r5]
 372:Middlewares/LVGL/GUI/lvgl/src/extra/themes/basic/lv_theme_basic.c ****         lv_obj_add_style(obj, &styles->scrollbar, LV_PART_SCROLLBAR);
 1058              		.loc 1 372 9 view .LVU320
 1059 0580 0022     		movs	r2, #0
 1060 0582 1831     		adds	r1, r1, #24
 1061 0584 2046     		mov	r0, r4
 1062 0586 FFF7FEFF 		bl	lv_obj_add_style
 1063              	.LVL115:
 373:Middlewares/LVGL/GUI/lvgl/src/extra/themes/basic/lv_theme_basic.c ****         return;
 1064              		.loc 1 373 9 is_stmt 1 view .LVU321
 373:Middlewares/LVGL/GUI/lvgl/src/extra/themes/basic/lv_theme_basic.c ****         return;
 1065              		.loc 1 373 38 is_stmt 0 view .LVU322
 1066 058a 2968     		ldr	r1, [r5]
 373:Middlewares/LVGL/GUI/lvgl/src/extra/themes/basic/lv_theme_basic.c ****         return;
 1067              		.loc 1 373 9 view .LVU323
 1068 058c 4FF48032 		mov	r2, #65536
ARM GAS  C:\Users\ADMINI~1\AppData\Local\Temp\cc8gvSPg.s 			page 32


 1069 0590 3031     		adds	r1, r1, #48
 1070 0592 2046     		mov	r0, r4
 1071 0594 FFF7FEFF 		bl	lv_obj_add_style
 1072              	.LVL116:
 374:Middlewares/LVGL/GUI/lvgl/src/extra/themes/basic/lv_theme_basic.c ****     }
 1073              		.loc 1 374 9 is_stmt 1 view .LVU324
 1074 0598 BBE5     		b	.L1
 1075              	.L30:
 385:Middlewares/LVGL/GUI/lvgl/src/extra/themes/basic/lv_theme_basic.c ****         lv_obj_add_style(obj, &styles->light, 0);
 1076              		.loc 1 385 10 view .LVU325
 385:Middlewares/LVGL/GUI/lvgl/src/extra/themes/basic/lv_theme_basic.c ****         lv_obj_add_style(obj, &styles->light, 0);
 1077              		.loc 1 385 13 is_stmt 0 view .LVU326
 1078 059a 2249     		ldr	r1, .L48+68
 1079 059c 2046     		mov	r0, r4
 1080 059e FFF7FEFF 		bl	lv_obj_check_type
 1081              	.LVL117:
 385:Middlewares/LVGL/GUI/lvgl/src/extra/themes/basic/lv_theme_basic.c ****         lv_obj_add_style(obj, &styles->light, 0);
 1082              		.loc 1 385 12 view .LVU327
 1083 05a2 A0B9     		cbnz	r0, .L45
 391:Middlewares/LVGL/GUI/lvgl/src/extra/themes/basic/lv_theme_basic.c ****         lv_obj_add_style(obj, &styles->light, 0);
 1084              		.loc 1 391 10 is_stmt 1 view .LVU328
 391:Middlewares/LVGL/GUI/lvgl/src/extra/themes/basic/lv_theme_basic.c ****         lv_obj_add_style(obj, &styles->light, 0);
 1085              		.loc 1 391 13 is_stmt 0 view .LVU329
 1086 05a4 2049     		ldr	r1, .L48+72
 1087 05a6 2046     		mov	r0, r4
 1088 05a8 FFF7FEFF 		bl	lv_obj_check_type
 1089              	.LVL118:
 391:Middlewares/LVGL/GUI/lvgl/src/extra/themes/basic/lv_theme_basic.c ****         lv_obj_add_style(obj, &styles->light, 0);
 1090              		.loc 1 391 12 view .LVU330
 1091 05ac 0028     		cmp	r0, #0
 1092 05ae 3DD0     		beq	.L32
 392:Middlewares/LVGL/GUI/lvgl/src/extra/themes/basic/lv_theme_basic.c ****         lv_obj_add_style(obj, &styles->dark, LV_PART_CURSOR);
 1093              		.loc 1 392 9 is_stmt 1 view .LVU331
 392:Middlewares/LVGL/GUI/lvgl/src/extra/themes/basic/lv_theme_basic.c ****         lv_obj_add_style(obj, &styles->dark, LV_PART_CURSOR);
 1094              		.loc 1 392 38 is_stmt 0 view .LVU332
 1095 05b0 0C4D     		ldr	r5, .L48+4
 1096 05b2 2968     		ldr	r1, [r5]
 392:Middlewares/LVGL/GUI/lvgl/src/extra/themes/basic/lv_theme_basic.c ****         lv_obj_add_style(obj, &styles->dark, LV_PART_CURSOR);
 1097              		.loc 1 392 9 view .LVU333
 1098 05b4 0022     		movs	r2, #0
 1099 05b6 1831     		adds	r1, r1, #24
 1100 05b8 2046     		mov	r0, r4
 1101 05ba FFF7FEFF 		bl	lv_obj_add_style
 1102              	.LVL119:
 393:Middlewares/LVGL/GUI/lvgl/src/extra/themes/basic/lv_theme_basic.c ****     }
 1103              		.loc 1 393 9 is_stmt 1 view .LVU334
 393:Middlewares/LVGL/GUI/lvgl/src/extra/themes/basic/lv_theme_basic.c ****     }
 1104              		.loc 1 393 38 is_stmt 0 view .LVU335
 1105 05be 2968     		ldr	r1, [r5]
 393:Middlewares/LVGL/GUI/lvgl/src/extra/themes/basic/lv_theme_basic.c ****     }
 1106              		.loc 1 393 9 view .LVU336
 1107 05c0 4FF4E022 		mov	r2, #458752
 1108 05c4 2031     		adds	r1, r1, #32
 1109 05c6 2046     		mov	r0, r4
 1110 05c8 FFF7FEFF 		bl	lv_obj_add_style
 1111              	.LVL120:
 1112 05cc A1E5     		b	.L1
ARM GAS  C:\Users\ADMINI~1\AppData\Local\Temp\cc8gvSPg.s 			page 33


 1113              	.L45:
 386:Middlewares/LVGL/GUI/lvgl/src/extra/themes/basic/lv_theme_basic.c ****         return;
 1114              		.loc 1 386 9 is_stmt 1 view .LVU337
 386:Middlewares/LVGL/GUI/lvgl/src/extra/themes/basic/lv_theme_basic.c ****         return;
 1115              		.loc 1 386 38 is_stmt 0 view .LVU338
 1116 05ce 054B     		ldr	r3, .L48+4
 1117 05d0 1968     		ldr	r1, [r3]
 386:Middlewares/LVGL/GUI/lvgl/src/extra/themes/basic/lv_theme_basic.c ****         return;
 1118              		.loc 1 386 9 view .LVU339
 1119 05d2 0022     		movs	r2, #0
 1120 05d4 1831     		adds	r1, r1, #24
 1121 05d6 2046     		mov	r0, r4
 1122 05d8 FFF7FEFF 		bl	lv_obj_add_style
 1123              	.LVL121:
 387:Middlewares/LVGL/GUI/lvgl/src/extra/themes/basic/lv_theme_basic.c ****     }
 1124              		.loc 1 387 9 is_stmt 1 view .LVU340
 1125 05dc 99E5     		b	.L1
 1126              	.L49:
 1127 05de 00BF     		.align	2
 1128              	.L48:
 1129 05e0 00000000 		.word	lv_roller_class
 1130 05e4 00000000 		.word	.LANCHOR0
 1131 05e8 00000000 		.word	lv_dropdown_class
 1132 05ec 00000000 		.word	lv_dropdownlist_class
 1133 05f0 01000400 		.word	262145
 1134 05f4 00000000 		.word	lv_arc_class
 1135 05f8 00000000 		.word	lv_spinner_class
 1136 05fc 00000000 		.word	lv_colorwheel_class
 1137 0600 00000000 		.word	lv_meter_class
 1138 0604 00000000 		.word	lv_textarea_class
 1139 0608 00000000 		.word	lv_calendar_class
 1140 060c 20000500 		.word	327712
 1141 0610 00000000 		.word	lv_keyboard_class
 1142 0614 01000500 		.word	327681
 1143 0618 00000000 		.word	lv_list_class
 1144 061c 00000000 		.word	lv_list_text_class
 1145 0620 00000000 		.word	lv_list_btn_class
 1146 0624 00000000 		.word	lv_msgbox_class
 1147 0628 00000000 		.word	lv_spinbox_class
 1148              	.L32:
 397:Middlewares/LVGL/GUI/lvgl/src/extra/themes/basic/lv_theme_basic.c ****         lv_obj_add_style(obj, &styles->scr, 0);
 1149              		.loc 1 397 10 view .LVU341
 397:Middlewares/LVGL/GUI/lvgl/src/extra/themes/basic/lv_theme_basic.c ****         lv_obj_add_style(obj, &styles->scr, 0);
 1150              		.loc 1 397 13 is_stmt 0 view .LVU342
 1151 062c 2149     		ldr	r1, .L50
 1152 062e 2046     		mov	r0, r4
 1153 0630 FFF7FEFF 		bl	lv_obj_check_type
 1154              	.LVL122:
 397:Middlewares/LVGL/GUI/lvgl/src/extra/themes/basic/lv_theme_basic.c ****         lv_obj_add_style(obj, &styles->scr, 0);
 1155              		.loc 1 397 12 view .LVU343
 1156 0634 68B1     		cbz	r0, .L33
 398:Middlewares/LVGL/GUI/lvgl/src/extra/themes/basic/lv_theme_basic.c ****         lv_obj_add_style(obj, &styles->scrollbar, LV_PART_SCROLLBAR);
 1157              		.loc 1 398 9 is_stmt 1 view .LVU344
 398:Middlewares/LVGL/GUI/lvgl/src/extra/themes/basic/lv_theme_basic.c ****         lv_obj_add_style(obj, &styles->scrollbar, LV_PART_SCROLLBAR);
 1158              		.loc 1 398 38 is_stmt 0 view .LVU345
 1159 0636 204D     		ldr	r5, .L50+4
 398:Middlewares/LVGL/GUI/lvgl/src/extra/themes/basic/lv_theme_basic.c ****         lv_obj_add_style(obj, &styles->scrollbar, LV_PART_SCROLLBAR);
ARM GAS  C:\Users\ADMINI~1\AppData\Local\Temp\cc8gvSPg.s 			page 34


 1160              		.loc 1 398 9 view .LVU346
 1161 0638 0022     		movs	r2, #0
 1162 063a 2968     		ldr	r1, [r5]
 1163 063c 2046     		mov	r0, r4
 1164 063e FFF7FEFF 		bl	lv_obj_add_style
 1165              	.LVL123:
 399:Middlewares/LVGL/GUI/lvgl/src/extra/themes/basic/lv_theme_basic.c ****     }
 1166              		.loc 1 399 9 is_stmt 1 view .LVU347
 399:Middlewares/LVGL/GUI/lvgl/src/extra/themes/basic/lv_theme_basic.c ****     }
 1167              		.loc 1 399 38 is_stmt 0 view .LVU348
 1168 0642 2968     		ldr	r1, [r5]
 399:Middlewares/LVGL/GUI/lvgl/src/extra/themes/basic/lv_theme_basic.c ****     }
 1169              		.loc 1 399 9 view .LVU349
 1170 0644 4FF48032 		mov	r2, #65536
 1171 0648 3031     		adds	r1, r1, #48
 1172 064a 2046     		mov	r0, r4
 1173 064c FFF7FEFF 		bl	lv_obj_add_style
 1174              	.LVL124:
 1175 0650 5FE5     		b	.L1
 1176              	.L33:
 401:Middlewares/LVGL/GUI/lvgl/src/extra/themes/basic/lv_theme_basic.c ****         lv_obj_add_style(obj, &styles->scrollbar, LV_PART_SCROLLBAR);
 1177              		.loc 1 401 10 is_stmt 1 view .LVU350
 401:Middlewares/LVGL/GUI/lvgl/src/extra/themes/basic/lv_theme_basic.c ****         lv_obj_add_style(obj, &styles->scrollbar, LV_PART_SCROLLBAR);
 1178              		.loc 1 401 13 is_stmt 0 view .LVU351
 1179 0652 1A49     		ldr	r1, .L50+8
 1180 0654 2046     		mov	r0, r4
 1181 0656 FFF7FEFF 		bl	lv_obj_check_type
 1182              	.LVL125:
 401:Middlewares/LVGL/GUI/lvgl/src/extra/themes/basic/lv_theme_basic.c ****         lv_obj_add_style(obj, &styles->scrollbar, LV_PART_SCROLLBAR);
 1183              		.loc 1 401 12 view .LVU352
 1184 065a 40B1     		cbz	r0, .L34
 402:Middlewares/LVGL/GUI/lvgl/src/extra/themes/basic/lv_theme_basic.c ****     }
 1185              		.loc 1 402 9 is_stmt 1 view .LVU353
 402:Middlewares/LVGL/GUI/lvgl/src/extra/themes/basic/lv_theme_basic.c ****     }
 1186              		.loc 1 402 38 is_stmt 0 view .LVU354
 1187 065c 164B     		ldr	r3, .L50+4
 1188 065e 1968     		ldr	r1, [r3]
 402:Middlewares/LVGL/GUI/lvgl/src/extra/themes/basic/lv_theme_basic.c ****     }
 1189              		.loc 1 402 9 view .LVU355
 1190 0660 4FF48032 		mov	r2, #65536
 1191 0664 3031     		adds	r1, r1, #48
 1192 0666 2046     		mov	r0, r4
 1193 0668 FFF7FEFF 		bl	lv_obj_add_style
 1194              	.LVL126:
 1195 066c 51E5     		b	.L1
 1196              	.L34:
 407:Middlewares/LVGL/GUI/lvgl/src/extra/themes/basic/lv_theme_basic.c ****         lv_obj_add_style(obj, &styles->light, 0);
 1197              		.loc 1 407 10 is_stmt 1 view .LVU356
 407:Middlewares/LVGL/GUI/lvgl/src/extra/themes/basic/lv_theme_basic.c ****         lv_obj_add_style(obj, &styles->light, 0);
 1198              		.loc 1 407 13 is_stmt 0 view .LVU357
 1199 066e 1449     		ldr	r1, .L50+12
 1200 0670 2046     		mov	r0, r4
 1201 0672 FFF7FEFF 		bl	lv_obj_check_type
 1202              	.LVL127:
 407:Middlewares/LVGL/GUI/lvgl/src/extra/themes/basic/lv_theme_basic.c ****         lv_obj_add_style(obj, &styles->light, 0);
 1203              		.loc 1 407 12 view .LVU358
 1204 0676 70B1     		cbz	r0, .L35
ARM GAS  C:\Users\ADMINI~1\AppData\Local\Temp\cc8gvSPg.s 			page 35


 408:Middlewares/LVGL/GUI/lvgl/src/extra/themes/basic/lv_theme_basic.c ****         lv_obj_add_style(obj, &styles->light, LV_PART_KNOB);
 1205              		.loc 1 408 9 is_stmt 1 view .LVU359
 408:Middlewares/LVGL/GUI/lvgl/src/extra/themes/basic/lv_theme_basic.c ****         lv_obj_add_style(obj, &styles->light, LV_PART_KNOB);
 1206              		.loc 1 408 38 is_stmt 0 view .LVU360
 1207 0678 0F4D     		ldr	r5, .L50+4
 1208 067a 2968     		ldr	r1, [r5]
 408:Middlewares/LVGL/GUI/lvgl/src/extra/themes/basic/lv_theme_basic.c ****         lv_obj_add_style(obj, &styles->light, LV_PART_KNOB);
 1209              		.loc 1 408 9 view .LVU361
 1210 067c 0022     		movs	r2, #0
 1211 067e 1831     		adds	r1, r1, #24
 1212 0680 2046     		mov	r0, r4
 1213 0682 FFF7FEFF 		bl	lv_obj_add_style
 1214              	.LVL128:
 409:Middlewares/LVGL/GUI/lvgl/src/extra/themes/basic/lv_theme_basic.c ****     }
 1215              		.loc 1 409 9 is_stmt 1 view .LVU362
 409:Middlewares/LVGL/GUI/lvgl/src/extra/themes/basic/lv_theme_basic.c ****     }
 1216              		.loc 1 409 38 is_stmt 0 view .LVU363
 1217 0686 2968     		ldr	r1, [r5]
 409:Middlewares/LVGL/GUI/lvgl/src/extra/themes/basic/lv_theme_basic.c ****     }
 1218              		.loc 1 409 9 view .LVU364
 1219 0688 4FF44032 		mov	r2, #196608
 1220 068c 1831     		adds	r1, r1, #24
 1221 068e 2046     		mov	r0, r4
 1222 0690 FFF7FEFF 		bl	lv_obj_add_style
 1223              	.LVL129:
 1224 0694 3DE5     		b	.L1
 1225              	.L35:
 414:Middlewares/LVGL/GUI/lvgl/src/extra/themes/basic/lv_theme_basic.c ****         lv_obj_add_style(obj, &styles->light, 0);
 1226              		.loc 1 414 10 is_stmt 1 view .LVU365
 414:Middlewares/LVGL/GUI/lvgl/src/extra/themes/basic/lv_theme_basic.c ****         lv_obj_add_style(obj, &styles->light, 0);
 1227              		.loc 1 414 13 is_stmt 0 view .LVU366
 1228 0696 0B49     		ldr	r1, .L50+16
 1229 0698 2046     		mov	r0, r4
 1230 069a FFF7FEFF 		bl	lv_obj_check_type
 1231              	.LVL130:
 414:Middlewares/LVGL/GUI/lvgl/src/extra/themes/basic/lv_theme_basic.c ****         lv_obj_add_style(obj, &styles->light, 0);
 1232              		.loc 1 414 12 view .LVU367
 1233 069e 0028     		cmp	r0, #0
 1234 06a0 3FF437AD 		beq	.L1
 415:Middlewares/LVGL/GUI/lvgl/src/extra/themes/basic/lv_theme_basic.c ****     }
 1235              		.loc 1 415 9 is_stmt 1 view .LVU368
 415:Middlewares/LVGL/GUI/lvgl/src/extra/themes/basic/lv_theme_basic.c ****     }
 1236              		.loc 1 415 38 is_stmt 0 view .LVU369
 1237 06a4 044B     		ldr	r3, .L50+4
 1238 06a6 1968     		ldr	r1, [r3]
 415:Middlewares/LVGL/GUI/lvgl/src/extra/themes/basic/lv_theme_basic.c ****     }
 1239              		.loc 1 415 9 view .LVU370
 1240 06a8 0022     		movs	r2, #0
 1241 06aa 1831     		adds	r1, r1, #24
 1242 06ac 2046     		mov	r0, r4
 1243 06ae FFF7FEFF 		bl	lv_obj_add_style
 1244              	.LVL131:
 1245 06b2 2EE5     		b	.L1
 1246              	.L51:
 1247              		.align	2
 1248              	.L50:
 1249 06b4 00000000 		.word	lv_tileview_class
ARM GAS  C:\Users\ADMINI~1\AppData\Local\Temp\cc8gvSPg.s 			page 36


 1250 06b8 00000000 		.word	.LANCHOR0
 1251 06bc 00000000 		.word	lv_tileview_tile_class
 1252 06c0 00000000 		.word	lv_colorwheel_class
 1253 06c4 00000000 		.word	lv_led_class
 1254              		.cfi_endproc
 1255              	.LFE199:
 1257              		.section	.text.style_init_reset,"ax",%progbits
 1258              		.align	1
 1259              		.syntax unified
 1260              		.thumb
 1261              		.thumb_func
 1263              	style_init_reset:
 1264              	.LVL132:
 1265              	.LFB200:
 419:Middlewares/LVGL/GUI/lvgl/src/extra/themes/basic/lv_theme_basic.c **** 
 420:Middlewares/LVGL/GUI/lvgl/src/extra/themes/basic/lv_theme_basic.c **** /**********************
 421:Middlewares/LVGL/GUI/lvgl/src/extra/themes/basic/lv_theme_basic.c ****  *   STATIC FUNCTIONS
 422:Middlewares/LVGL/GUI/lvgl/src/extra/themes/basic/lv_theme_basic.c ****  **********************/
 423:Middlewares/LVGL/GUI/lvgl/src/extra/themes/basic/lv_theme_basic.c **** 
 424:Middlewares/LVGL/GUI/lvgl/src/extra/themes/basic/lv_theme_basic.c **** static void style_init_reset(lv_style_t * style)
 425:Middlewares/LVGL/GUI/lvgl/src/extra/themes/basic/lv_theme_basic.c **** {
 1266              		.loc 1 425 1 is_stmt 1 view -0
 1267              		.cfi_startproc
 1268              		@ args = 0, pretend = 0, frame = 0
 1269              		@ frame_needed = 0, uses_anonymous_args = 0
 1270              		.loc 1 425 1 is_stmt 0 view .LVU372
 1271 0000 08B5     		push	{r3, lr}
 1272              	.LCFI1:
 1273              		.cfi_def_cfa_offset 8
 1274              		.cfi_offset 3, -8
 1275              		.cfi_offset 14, -4
 426:Middlewares/LVGL/GUI/lvgl/src/extra/themes/basic/lv_theme_basic.c ****     if(inited) {
 1276              		.loc 1 426 5 is_stmt 1 view .LVU373
 1277              		.loc 1 426 8 is_stmt 0 view .LVU374
 1278 0002 044B     		ldr	r3, .L56
 1279 0004 1B78     		ldrb	r3, [r3]	@ zero_extendqisi2
 1280              		.loc 1 426 7 view .LVU375
 1281 0006 13B1     		cbz	r3, .L53
 427:Middlewares/LVGL/GUI/lvgl/src/extra/themes/basic/lv_theme_basic.c ****         lv_style_reset(style);
 1282              		.loc 1 427 9 is_stmt 1 view .LVU376
 1283 0008 FFF7FEFF 		bl	lv_style_reset
 1284              	.LVL133:
 1285              	.L52:
 428:Middlewares/LVGL/GUI/lvgl/src/extra/themes/basic/lv_theme_basic.c ****     }
 429:Middlewares/LVGL/GUI/lvgl/src/extra/themes/basic/lv_theme_basic.c ****     else {
 430:Middlewares/LVGL/GUI/lvgl/src/extra/themes/basic/lv_theme_basic.c ****         lv_style_init(style);
 431:Middlewares/LVGL/GUI/lvgl/src/extra/themes/basic/lv_theme_basic.c ****     }
 432:Middlewares/LVGL/GUI/lvgl/src/extra/themes/basic/lv_theme_basic.c **** }
 1286              		.loc 1 432 1 is_stmt 0 view .LVU377
 1287 000c 08BD     		pop	{r3, pc}
 1288              	.LVL134:
 1289              	.L53:
 430:Middlewares/LVGL/GUI/lvgl/src/extra/themes/basic/lv_theme_basic.c ****     }
 1290              		.loc 1 430 9 is_stmt 1 view .LVU378
 1291 000e FFF7FEFF 		bl	lv_style_init
 1292              	.LVL135:
 1293              		.loc 1 432 1 is_stmt 0 view .LVU379
ARM GAS  C:\Users\ADMINI~1\AppData\Local\Temp\cc8gvSPg.s 			page 37


 1294 0012 FBE7     		b	.L52
 1295              	.L57:
 1296              		.align	2
 1297              	.L56:
 1298 0014 00000000 		.word	.LANCHOR1
 1299              		.cfi_endproc
 1300              	.LFE200:
 1302              		.section	.text.style_init,"ax",%progbits
 1303              		.align	1
 1304              		.syntax unified
 1305              		.thumb
 1306              		.thumb_func
 1308              	style_init:
 1309              	.LFB196:
  69:Middlewares/LVGL/GUI/lvgl/src/extra/themes/basic/lv_theme_basic.c ****     style_init_reset(&styles->scrollbar);
 1310              		.loc 1 69 1 is_stmt 1 view -0
 1311              		.cfi_startproc
 1312              		@ args = 0, pretend = 0, frame = 0
 1313              		@ frame_needed = 0, uses_anonymous_args = 0
 1314 0000 38B5     		push	{r3, r4, r5, lr}
 1315              	.LCFI2:
 1316              		.cfi_def_cfa_offset 16
 1317              		.cfi_offset 3, -16
 1318              		.cfi_offset 4, -12
 1319              		.cfi_offset 5, -8
 1320              		.cfi_offset 14, -4
  70:Middlewares/LVGL/GUI/lvgl/src/extra/themes/basic/lv_theme_basic.c ****     lv_style_set_bg_opa(&styles->scrollbar, LV_OPA_COVER);
 1321              		.loc 1 70 5 view .LVU381
  70:Middlewares/LVGL/GUI/lvgl/src/extra/themes/basic/lv_theme_basic.c ****     lv_style_set_bg_opa(&styles->scrollbar, LV_OPA_COVER);
 1322              		.loc 1 70 29 is_stmt 0 view .LVU382
 1323 0002 994C     		ldr	r4, .L60
 1324 0004 2068     		ldr	r0, [r4]
  70:Middlewares/LVGL/GUI/lvgl/src/extra/themes/basic/lv_theme_basic.c ****     lv_style_set_bg_opa(&styles->scrollbar, LV_OPA_COVER);
 1325              		.loc 1 70 5 view .LVU383
 1326 0006 3030     		adds	r0, r0, #48
 1327 0008 FFF7FEFF 		bl	style_init_reset
 1328              	.LVL136:
  71:Middlewares/LVGL/GUI/lvgl/src/extra/themes/basic/lv_theme_basic.c ****     lv_style_set_bg_color(&styles->scrollbar, COLOR_DARK);
 1329              		.loc 1 71 5 is_stmt 1 view .LVU384
  71:Middlewares/LVGL/GUI/lvgl/src/extra/themes/basic/lv_theme_basic.c ****     lv_style_set_bg_color(&styles->scrollbar, COLOR_DARK);
 1330              		.loc 1 71 32 is_stmt 0 view .LVU385
 1331 000c 2068     		ldr	r0, [r4]
  71:Middlewares/LVGL/GUI/lvgl/src/extra/themes/basic/lv_theme_basic.c ****     lv_style_set_bg_color(&styles->scrollbar, COLOR_DARK);
 1332              		.loc 1 71 5 view .LVU386
 1333 000e FF21     		movs	r1, #255
 1334 0010 3030     		adds	r0, r0, #48
 1335 0012 FFF7FEFF 		bl	lv_style_set_bg_opa
 1336              	.LVL137:
  72:Middlewares/LVGL/GUI/lvgl/src/extra/themes/basic/lv_theme_basic.c ****     lv_style_set_width(&styles->scrollbar,  SCROLLBAR_WIDTH);
 1337              		.loc 1 72 5 is_stmt 1 view .LVU387
  72:Middlewares/LVGL/GUI/lvgl/src/extra/themes/basic/lv_theme_basic.c ****     lv_style_set_width(&styles->scrollbar,  SCROLLBAR_WIDTH);
 1338              		.loc 1 72 34 is_stmt 0 view .LVU388
 1339 0016 2568     		ldr	r5, [r4]
  72:Middlewares/LVGL/GUI/lvgl/src/extra/themes/basic/lv_theme_basic.c ****     lv_style_set_width(&styles->scrollbar,  SCROLLBAR_WIDTH);
 1340              		.loc 1 72 5 view .LVU389
 1341 0018 1220     		movs	r0, #18
 1342 001a FFF7FEFF 		bl	lv_palette_main
ARM GAS  C:\Users\ADMINI~1\AppData\Local\Temp\cc8gvSPg.s 			page 38


 1343              	.LVL138:
 1344 001e 0146     		mov	r1, r0	@ movhi
 1345 0020 05F13000 		add	r0, r5, #48
 1346 0024 FFF7FEFF 		bl	lv_style_set_bg_color
 1347              	.LVL139:
  73:Middlewares/LVGL/GUI/lvgl/src/extra/themes/basic/lv_theme_basic.c **** 
 1348              		.loc 1 73 5 is_stmt 1 view .LVU390
  73:Middlewares/LVGL/GUI/lvgl/src/extra/themes/basic/lv_theme_basic.c **** 
 1349              		.loc 1 73 31 is_stmt 0 view .LVU391
 1350 0028 2068     		ldr	r0, [r4]
  73:Middlewares/LVGL/GUI/lvgl/src/extra/themes/basic/lv_theme_basic.c **** 
 1351              		.loc 1 73 5 view .LVU392
 1352 002a 0221     		movs	r1, #2
 1353 002c 3030     		adds	r0, r0, #48
 1354 002e FFF7FEFF 		bl	lv_style_set_width
 1355              	.LVL140:
  75:Middlewares/LVGL/GUI/lvgl/src/extra/themes/basic/lv_theme_basic.c ****     lv_style_set_bg_opa(&styles->scr, LV_OPA_COVER);
 1356              		.loc 1 75 5 is_stmt 1 view .LVU393
 1357 0032 2068     		ldr	r0, [r4]
 1358 0034 FFF7FEFF 		bl	style_init_reset
 1359              	.LVL141:
  76:Middlewares/LVGL/GUI/lvgl/src/extra/themes/basic/lv_theme_basic.c ****     lv_style_set_bg_color(&styles->scr, COLOR_SCR);
 1360              		.loc 1 76 5 view .LVU394
 1361 0038 FF21     		movs	r1, #255
 1362 003a 2068     		ldr	r0, [r4]
 1363 003c FFF7FEFF 		bl	lv_style_set_bg_opa
 1364              	.LVL142:
  77:Middlewares/LVGL/GUI/lvgl/src/extra/themes/basic/lv_theme_basic.c ****     lv_style_set_text_color(&styles->scr, COLOR_DIM);
 1365              		.loc 1 77 5 view .LVU395
  77:Middlewares/LVGL/GUI/lvgl/src/extra/themes/basic/lv_theme_basic.c ****     lv_style_set_text_color(&styles->scr, COLOR_DIM);
 1366              		.loc 1 77 34 is_stmt 0 view .LVU396
 1367 0040 2568     		ldr	r5, [r4]
  77:Middlewares/LVGL/GUI/lvgl/src/extra/themes/basic/lv_theme_basic.c ****     lv_style_set_text_color(&styles->scr, COLOR_DIM);
 1368              		.loc 1 77 5 view .LVU397
 1369 0042 0421     		movs	r1, #4
 1370 0044 1220     		movs	r0, #18
 1371 0046 FFF7FEFF 		bl	lv_palette_lighten
 1372              	.LVL143:
 1373 004a 0146     		mov	r1, r0	@ movhi
 1374 004c 2846     		mov	r0, r5
 1375 004e FFF7FEFF 		bl	lv_style_set_bg_color
 1376              	.LVL144:
  78:Middlewares/LVGL/GUI/lvgl/src/extra/themes/basic/lv_theme_basic.c **** 
 1377              		.loc 1 78 5 is_stmt 1 view .LVU398
  78:Middlewares/LVGL/GUI/lvgl/src/extra/themes/basic/lv_theme_basic.c **** 
 1378              		.loc 1 78 36 is_stmt 0 view .LVU399
 1379 0052 2568     		ldr	r5, [r4]
  78:Middlewares/LVGL/GUI/lvgl/src/extra/themes/basic/lv_theme_basic.c **** 
 1380              		.loc 1 78 5 view .LVU400
 1381 0054 0221     		movs	r1, #2
 1382 0056 1220     		movs	r0, #18
 1383 0058 FFF7FEFF 		bl	lv_palette_darken
 1384              	.LVL145:
 1385 005c 0146     		mov	r1, r0	@ movhi
 1386 005e 2846     		mov	r0, r5
 1387 0060 FFF7FEFF 		bl	lv_style_set_text_color
 1388              	.LVL146:
ARM GAS  C:\Users\ADMINI~1\AppData\Local\Temp\cc8gvSPg.s 			page 39


  81:Middlewares/LVGL/GUI/lvgl/src/extra/themes/basic/lv_theme_basic.c ****     lv_style_set_bg_opa(&styles->transp, LV_OPA_TRANSP);
 1389              		.loc 1 81 5 is_stmt 1 view .LVU401
  81:Middlewares/LVGL/GUI/lvgl/src/extra/themes/basic/lv_theme_basic.c ****     lv_style_set_bg_opa(&styles->transp, LV_OPA_TRANSP);
 1390              		.loc 1 81 29 is_stmt 0 view .LVU402
 1391 0064 2068     		ldr	r0, [r4]
  81:Middlewares/LVGL/GUI/lvgl/src/extra/themes/basic/lv_theme_basic.c ****     lv_style_set_bg_opa(&styles->transp, LV_OPA_TRANSP);
 1392              		.loc 1 81 5 view .LVU403
 1393 0066 0830     		adds	r0, r0, #8
 1394 0068 FFF7FEFF 		bl	style_init_reset
 1395              	.LVL147:
  82:Middlewares/LVGL/GUI/lvgl/src/extra/themes/basic/lv_theme_basic.c **** 
 1396              		.loc 1 82 5 is_stmt 1 view .LVU404
  82:Middlewares/LVGL/GUI/lvgl/src/extra/themes/basic/lv_theme_basic.c **** 
 1397              		.loc 1 82 32 is_stmt 0 view .LVU405
 1398 006c 2068     		ldr	r0, [r4]
  82:Middlewares/LVGL/GUI/lvgl/src/extra/themes/basic/lv_theme_basic.c **** 
 1399              		.loc 1 82 5 view .LVU406
 1400 006e 0021     		movs	r1, #0
 1401 0070 0830     		adds	r0, r0, #8
 1402 0072 FFF7FEFF 		bl	lv_style_set_bg_opa
 1403              	.LVL148:
  84:Middlewares/LVGL/GUI/lvgl/src/extra/themes/basic/lv_theme_basic.c ****     lv_style_set_bg_opa(&styles->white, LV_OPA_COVER);
 1404              		.loc 1 84 5 is_stmt 1 view .LVU407
  84:Middlewares/LVGL/GUI/lvgl/src/extra/themes/basic/lv_theme_basic.c ****     lv_style_set_bg_opa(&styles->white, LV_OPA_COVER);
 1405              		.loc 1 84 29 is_stmt 0 view .LVU408
 1406 0076 2068     		ldr	r0, [r4]
  84:Middlewares/LVGL/GUI/lvgl/src/extra/themes/basic/lv_theme_basic.c ****     lv_style_set_bg_opa(&styles->white, LV_OPA_COVER);
 1407              		.loc 1 84 5 view .LVU409
 1408 0078 1030     		adds	r0, r0, #16
 1409 007a FFF7FEFF 		bl	style_init_reset
 1410              	.LVL149:
  85:Middlewares/LVGL/GUI/lvgl/src/extra/themes/basic/lv_theme_basic.c ****     lv_style_set_bg_color(&styles->white, COLOR_WHITE);
 1411              		.loc 1 85 5 is_stmt 1 view .LVU410
  85:Middlewares/LVGL/GUI/lvgl/src/extra/themes/basic/lv_theme_basic.c ****     lv_style_set_bg_color(&styles->white, COLOR_WHITE);
 1412              		.loc 1 85 32 is_stmt 0 view .LVU411
 1413 007e 2068     		ldr	r0, [r4]
  85:Middlewares/LVGL/GUI/lvgl/src/extra/themes/basic/lv_theme_basic.c ****     lv_style_set_bg_color(&styles->white, COLOR_WHITE);
 1414              		.loc 1 85 5 view .LVU412
 1415 0080 FF21     		movs	r1, #255
 1416 0082 1030     		adds	r0, r0, #16
 1417 0084 FFF7FEFF 		bl	lv_style_set_bg_opa
 1418              	.LVL150:
  86:Middlewares/LVGL/GUI/lvgl/src/extra/themes/basic/lv_theme_basic.c ****     lv_style_set_line_width(&styles->white, 1);
 1419              		.loc 1 86 5 is_stmt 1 view .LVU413
  86:Middlewares/LVGL/GUI/lvgl/src/extra/themes/basic/lv_theme_basic.c ****     lv_style_set_line_width(&styles->white, 1);
 1420              		.loc 1 86 34 is_stmt 0 view .LVU414
 1421 0088 2068     		ldr	r0, [r4]
 1422              	.LBB29:
 1423              	.LBI29:
 1424              		.file 2 "Middlewares/LVGL/GUI/lvgl/src/extra/themes/basic/../../../../src/hal/../draw/../misc/lv_c
   1:Middlewares/LVGL/GUI/lvgl/src/extra/themes/basic/../../../../src/hal/../draw/../misc/lv_color.h **** /**
   2:Middlewares/LVGL/GUI/lvgl/src/extra/themes/basic/../../../../src/hal/../draw/../misc/lv_color.h ****  * @file lv_color.h
   3:Middlewares/LVGL/GUI/lvgl/src/extra/themes/basic/../../../../src/hal/../draw/../misc/lv_color.h ****  *
   4:Middlewares/LVGL/GUI/lvgl/src/extra/themes/basic/../../../../src/hal/../draw/../misc/lv_color.h ****  */
   5:Middlewares/LVGL/GUI/lvgl/src/extra/themes/basic/../../../../src/hal/../draw/../misc/lv_color.h **** 
   6:Middlewares/LVGL/GUI/lvgl/src/extra/themes/basic/../../../../src/hal/../draw/../misc/lv_color.h **** #ifndef LV_COLOR_H
   7:Middlewares/LVGL/GUI/lvgl/src/extra/themes/basic/../../../../src/hal/../draw/../misc/lv_color.h **** #define LV_COLOR_H
ARM GAS  C:\Users\ADMINI~1\AppData\Local\Temp\cc8gvSPg.s 			page 40


   8:Middlewares/LVGL/GUI/lvgl/src/extra/themes/basic/../../../../src/hal/../draw/../misc/lv_color.h **** 
   9:Middlewares/LVGL/GUI/lvgl/src/extra/themes/basic/../../../../src/hal/../draw/../misc/lv_color.h **** #ifdef __cplusplus
  10:Middlewares/LVGL/GUI/lvgl/src/extra/themes/basic/../../../../src/hal/../draw/../misc/lv_color.h **** extern "C" {
  11:Middlewares/LVGL/GUI/lvgl/src/extra/themes/basic/../../../../src/hal/../draw/../misc/lv_color.h **** #endif
  12:Middlewares/LVGL/GUI/lvgl/src/extra/themes/basic/../../../../src/hal/../draw/../misc/lv_color.h **** 
  13:Middlewares/LVGL/GUI/lvgl/src/extra/themes/basic/../../../../src/hal/../draw/../misc/lv_color.h **** /*********************
  14:Middlewares/LVGL/GUI/lvgl/src/extra/themes/basic/../../../../src/hal/../draw/../misc/lv_color.h ****  *      INCLUDES
  15:Middlewares/LVGL/GUI/lvgl/src/extra/themes/basic/../../../../src/hal/../draw/../misc/lv_color.h ****  *********************/
  16:Middlewares/LVGL/GUI/lvgl/src/extra/themes/basic/../../../../src/hal/../draw/../misc/lv_color.h **** #include "../lv_conf_internal.h"
  17:Middlewares/LVGL/GUI/lvgl/src/extra/themes/basic/../../../../src/hal/../draw/../misc/lv_color.h **** #include "lv_assert.h"
  18:Middlewares/LVGL/GUI/lvgl/src/extra/themes/basic/../../../../src/hal/../draw/../misc/lv_color.h **** #include "lv_math.h"
  19:Middlewares/LVGL/GUI/lvgl/src/extra/themes/basic/../../../../src/hal/../draw/../misc/lv_color.h **** #include "lv_types.h"
  20:Middlewares/LVGL/GUI/lvgl/src/extra/themes/basic/../../../../src/hal/../draw/../misc/lv_color.h **** 
  21:Middlewares/LVGL/GUI/lvgl/src/extra/themes/basic/../../../../src/hal/../draw/../misc/lv_color.h **** /*Error checking*/
  22:Middlewares/LVGL/GUI/lvgl/src/extra/themes/basic/../../../../src/hal/../draw/../misc/lv_color.h **** #if LV_COLOR_DEPTH == 24
  23:Middlewares/LVGL/GUI/lvgl/src/extra/themes/basic/../../../../src/hal/../draw/../misc/lv_color.h **** #error "LV_COLOR_DEPTH 24 is deprecated. Use LV_COLOR_DEPTH 32 instead (lv_conf.h)"
  24:Middlewares/LVGL/GUI/lvgl/src/extra/themes/basic/../../../../src/hal/../draw/../misc/lv_color.h **** #endif
  25:Middlewares/LVGL/GUI/lvgl/src/extra/themes/basic/../../../../src/hal/../draw/../misc/lv_color.h **** 
  26:Middlewares/LVGL/GUI/lvgl/src/extra/themes/basic/../../../../src/hal/../draw/../misc/lv_color.h **** #if LV_COLOR_DEPTH != 32 && LV_COLOR_SCREEN_TRANSP != 0
  27:Middlewares/LVGL/GUI/lvgl/src/extra/themes/basic/../../../../src/hal/../draw/../misc/lv_color.h **** #error "LV_COLOR_SCREEN_TRANSP requires LV_COLOR_DEPTH == 32. Set it in lv_conf.h"
  28:Middlewares/LVGL/GUI/lvgl/src/extra/themes/basic/../../../../src/hal/../draw/../misc/lv_color.h **** #endif
  29:Middlewares/LVGL/GUI/lvgl/src/extra/themes/basic/../../../../src/hal/../draw/../misc/lv_color.h **** 
  30:Middlewares/LVGL/GUI/lvgl/src/extra/themes/basic/../../../../src/hal/../draw/../misc/lv_color.h **** #if LV_COLOR_DEPTH != 16 && LV_COLOR_16_SWAP != 0
  31:Middlewares/LVGL/GUI/lvgl/src/extra/themes/basic/../../../../src/hal/../draw/../misc/lv_color.h **** #error "LV_COLOR_16_SWAP requires LV_COLOR_DEPTH == 16. Set it in lv_conf.h"
  32:Middlewares/LVGL/GUI/lvgl/src/extra/themes/basic/../../../../src/hal/../draw/../misc/lv_color.h **** #endif
  33:Middlewares/LVGL/GUI/lvgl/src/extra/themes/basic/../../../../src/hal/../draw/../misc/lv_color.h **** 
  34:Middlewares/LVGL/GUI/lvgl/src/extra/themes/basic/../../../../src/hal/../draw/../misc/lv_color.h **** #include <stdint.h>
  35:Middlewares/LVGL/GUI/lvgl/src/extra/themes/basic/../../../../src/hal/../draw/../misc/lv_color.h **** 
  36:Middlewares/LVGL/GUI/lvgl/src/extra/themes/basic/../../../../src/hal/../draw/../misc/lv_color.h **** /*********************
  37:Middlewares/LVGL/GUI/lvgl/src/extra/themes/basic/../../../../src/hal/../draw/../misc/lv_color.h ****  *      DEFINES
  38:Middlewares/LVGL/GUI/lvgl/src/extra/themes/basic/../../../../src/hal/../draw/../misc/lv_color.h ****  *********************/
  39:Middlewares/LVGL/GUI/lvgl/src/extra/themes/basic/../../../../src/hal/../draw/../misc/lv_color.h **** LV_EXPORT_CONST_INT(LV_COLOR_DEPTH);
  40:Middlewares/LVGL/GUI/lvgl/src/extra/themes/basic/../../../../src/hal/../draw/../misc/lv_color.h **** LV_EXPORT_CONST_INT(LV_COLOR_16_SWAP);
  41:Middlewares/LVGL/GUI/lvgl/src/extra/themes/basic/../../../../src/hal/../draw/../misc/lv_color.h **** 
  42:Middlewares/LVGL/GUI/lvgl/src/extra/themes/basic/../../../../src/hal/../draw/../misc/lv_color.h **** /**
  43:Middlewares/LVGL/GUI/lvgl/src/extra/themes/basic/../../../../src/hal/../draw/../misc/lv_color.h ****  * Opacity percentages.
  44:Middlewares/LVGL/GUI/lvgl/src/extra/themes/basic/../../../../src/hal/../draw/../misc/lv_color.h ****  */
  45:Middlewares/LVGL/GUI/lvgl/src/extra/themes/basic/../../../../src/hal/../draw/../misc/lv_color.h **** enum {
  46:Middlewares/LVGL/GUI/lvgl/src/extra/themes/basic/../../../../src/hal/../draw/../misc/lv_color.h ****     LV_OPA_TRANSP = 0,
  47:Middlewares/LVGL/GUI/lvgl/src/extra/themes/basic/../../../../src/hal/../draw/../misc/lv_color.h ****     LV_OPA_0      = 0,
  48:Middlewares/LVGL/GUI/lvgl/src/extra/themes/basic/../../../../src/hal/../draw/../misc/lv_color.h ****     LV_OPA_10     = 25,
  49:Middlewares/LVGL/GUI/lvgl/src/extra/themes/basic/../../../../src/hal/../draw/../misc/lv_color.h ****     LV_OPA_20     = 51,
  50:Middlewares/LVGL/GUI/lvgl/src/extra/themes/basic/../../../../src/hal/../draw/../misc/lv_color.h ****     LV_OPA_30     = 76,
  51:Middlewares/LVGL/GUI/lvgl/src/extra/themes/basic/../../../../src/hal/../draw/../misc/lv_color.h ****     LV_OPA_40     = 102,
  52:Middlewares/LVGL/GUI/lvgl/src/extra/themes/basic/../../../../src/hal/../draw/../misc/lv_color.h ****     LV_OPA_50     = 127,
  53:Middlewares/LVGL/GUI/lvgl/src/extra/themes/basic/../../../../src/hal/../draw/../misc/lv_color.h ****     LV_OPA_60     = 153,
  54:Middlewares/LVGL/GUI/lvgl/src/extra/themes/basic/../../../../src/hal/../draw/../misc/lv_color.h ****     LV_OPA_70     = 178,
  55:Middlewares/LVGL/GUI/lvgl/src/extra/themes/basic/../../../../src/hal/../draw/../misc/lv_color.h ****     LV_OPA_80     = 204,
  56:Middlewares/LVGL/GUI/lvgl/src/extra/themes/basic/../../../../src/hal/../draw/../misc/lv_color.h ****     LV_OPA_90     = 229,
  57:Middlewares/LVGL/GUI/lvgl/src/extra/themes/basic/../../../../src/hal/../draw/../misc/lv_color.h ****     LV_OPA_100    = 255,
  58:Middlewares/LVGL/GUI/lvgl/src/extra/themes/basic/../../../../src/hal/../draw/../misc/lv_color.h ****     LV_OPA_COVER  = 255,
  59:Middlewares/LVGL/GUI/lvgl/src/extra/themes/basic/../../../../src/hal/../draw/../misc/lv_color.h **** };
  60:Middlewares/LVGL/GUI/lvgl/src/extra/themes/basic/../../../../src/hal/../draw/../misc/lv_color.h **** 
  61:Middlewares/LVGL/GUI/lvgl/src/extra/themes/basic/../../../../src/hal/../draw/../misc/lv_color.h **** #define LV_OPA_MIN 2    /*Opacities below this will be transparent*/
  62:Middlewares/LVGL/GUI/lvgl/src/extra/themes/basic/../../../../src/hal/../draw/../misc/lv_color.h **** #define LV_OPA_MAX 253  /*Opacities above this will fully cover*/
  63:Middlewares/LVGL/GUI/lvgl/src/extra/themes/basic/../../../../src/hal/../draw/../misc/lv_color.h **** 
  64:Middlewares/LVGL/GUI/lvgl/src/extra/themes/basic/../../../../src/hal/../draw/../misc/lv_color.h **** #if LV_COLOR_DEPTH == 1
ARM GAS  C:\Users\ADMINI~1\AppData\Local\Temp\cc8gvSPg.s 			page 41


  65:Middlewares/LVGL/GUI/lvgl/src/extra/themes/basic/../../../../src/hal/../draw/../misc/lv_color.h **** #define LV_COLOR_SIZE 8
  66:Middlewares/LVGL/GUI/lvgl/src/extra/themes/basic/../../../../src/hal/../draw/../misc/lv_color.h **** #elif LV_COLOR_DEPTH == 8
  67:Middlewares/LVGL/GUI/lvgl/src/extra/themes/basic/../../../../src/hal/../draw/../misc/lv_color.h **** #define LV_COLOR_SIZE 8
  68:Middlewares/LVGL/GUI/lvgl/src/extra/themes/basic/../../../../src/hal/../draw/../misc/lv_color.h **** #elif LV_COLOR_DEPTH == 16
  69:Middlewares/LVGL/GUI/lvgl/src/extra/themes/basic/../../../../src/hal/../draw/../misc/lv_color.h **** #define LV_COLOR_SIZE 16
  70:Middlewares/LVGL/GUI/lvgl/src/extra/themes/basic/../../../../src/hal/../draw/../misc/lv_color.h **** #elif LV_COLOR_DEPTH == 32
  71:Middlewares/LVGL/GUI/lvgl/src/extra/themes/basic/../../../../src/hal/../draw/../misc/lv_color.h **** #define LV_COLOR_SIZE 32
  72:Middlewares/LVGL/GUI/lvgl/src/extra/themes/basic/../../../../src/hal/../draw/../misc/lv_color.h **** #else
  73:Middlewares/LVGL/GUI/lvgl/src/extra/themes/basic/../../../../src/hal/../draw/../misc/lv_color.h **** #error "Invalid LV_COLOR_DEPTH in lv_conf.h! Set it to 1, 8, 16 or 32!"
  74:Middlewares/LVGL/GUI/lvgl/src/extra/themes/basic/../../../../src/hal/../draw/../misc/lv_color.h **** #endif
  75:Middlewares/LVGL/GUI/lvgl/src/extra/themes/basic/../../../../src/hal/../draw/../misc/lv_color.h **** 
  76:Middlewares/LVGL/GUI/lvgl/src/extra/themes/basic/../../../../src/hal/../draw/../misc/lv_color.h **** #if defined(__cplusplus) && !defined(_LV_COLOR_HAS_MODERN_CPP)
  77:Middlewares/LVGL/GUI/lvgl/src/extra/themes/basic/../../../../src/hal/../draw/../misc/lv_color.h **** /**
  78:Middlewares/LVGL/GUI/lvgl/src/extra/themes/basic/../../../../src/hal/../draw/../misc/lv_color.h **** * MSVC compiler's definition of the __cplusplus indicating 199711L regardless to C++ standard versi
  79:Middlewares/LVGL/GUI/lvgl/src/extra/themes/basic/../../../../src/hal/../draw/../misc/lv_color.h **** * see https://devblogs.microsoft.com/cppblog/msvc-now-correctly-reports-cplusplus
  80:Middlewares/LVGL/GUI/lvgl/src/extra/themes/basic/../../../../src/hal/../draw/../misc/lv_color.h **** * so we use _MSC_VER macro instead of __cplusplus
  81:Middlewares/LVGL/GUI/lvgl/src/extra/themes/basic/../../../../src/hal/../draw/../misc/lv_color.h **** */
  82:Middlewares/LVGL/GUI/lvgl/src/extra/themes/basic/../../../../src/hal/../draw/../misc/lv_color.h **** #ifdef _MSC_VER
  83:Middlewares/LVGL/GUI/lvgl/src/extra/themes/basic/../../../../src/hal/../draw/../misc/lv_color.h **** #if _MSC_VER >= 1900 /*Visual Studio 2015*/
  84:Middlewares/LVGL/GUI/lvgl/src/extra/themes/basic/../../../../src/hal/../draw/../misc/lv_color.h **** #define _LV_COLOR_HAS_MODERN_CPP 1
  85:Middlewares/LVGL/GUI/lvgl/src/extra/themes/basic/../../../../src/hal/../draw/../misc/lv_color.h **** #endif
  86:Middlewares/LVGL/GUI/lvgl/src/extra/themes/basic/../../../../src/hal/../draw/../misc/lv_color.h **** #else
  87:Middlewares/LVGL/GUI/lvgl/src/extra/themes/basic/../../../../src/hal/../draw/../misc/lv_color.h **** #if __cplusplus >= 201103L
  88:Middlewares/LVGL/GUI/lvgl/src/extra/themes/basic/../../../../src/hal/../draw/../misc/lv_color.h **** #define _LV_COLOR_HAS_MODERN_CPP 1
  89:Middlewares/LVGL/GUI/lvgl/src/extra/themes/basic/../../../../src/hal/../draw/../misc/lv_color.h **** #endif
  90:Middlewares/LVGL/GUI/lvgl/src/extra/themes/basic/../../../../src/hal/../draw/../misc/lv_color.h **** #endif
  91:Middlewares/LVGL/GUI/lvgl/src/extra/themes/basic/../../../../src/hal/../draw/../misc/lv_color.h **** #endif /*__cplusplus*/
  92:Middlewares/LVGL/GUI/lvgl/src/extra/themes/basic/../../../../src/hal/../draw/../misc/lv_color.h **** 
  93:Middlewares/LVGL/GUI/lvgl/src/extra/themes/basic/../../../../src/hal/../draw/../misc/lv_color.h **** #ifndef _LV_COLOR_HAS_MODERN_CPP
  94:Middlewares/LVGL/GUI/lvgl/src/extra/themes/basic/../../../../src/hal/../draw/../misc/lv_color.h **** #define _LV_COLOR_HAS_MODERN_CPP 0
  95:Middlewares/LVGL/GUI/lvgl/src/extra/themes/basic/../../../../src/hal/../draw/../misc/lv_color.h **** #endif
  96:Middlewares/LVGL/GUI/lvgl/src/extra/themes/basic/../../../../src/hal/../draw/../misc/lv_color.h **** 
  97:Middlewares/LVGL/GUI/lvgl/src/extra/themes/basic/../../../../src/hal/../draw/../misc/lv_color.h **** #if _LV_COLOR_HAS_MODERN_CPP
  98:Middlewares/LVGL/GUI/lvgl/src/extra/themes/basic/../../../../src/hal/../draw/../misc/lv_color.h **** /*Fix msvc compiler error C4576 inside C++ code*/
  99:Middlewares/LVGL/GUI/lvgl/src/extra/themes/basic/../../../../src/hal/../draw/../misc/lv_color.h **** #define _LV_COLOR_MAKE_TYPE_HELPER lv_color_t
 100:Middlewares/LVGL/GUI/lvgl/src/extra/themes/basic/../../../../src/hal/../draw/../misc/lv_color.h **** #else
 101:Middlewares/LVGL/GUI/lvgl/src/extra/themes/basic/../../../../src/hal/../draw/../misc/lv_color.h **** #define _LV_COLOR_MAKE_TYPE_HELPER (lv_color_t)
 102:Middlewares/LVGL/GUI/lvgl/src/extra/themes/basic/../../../../src/hal/../draw/../misc/lv_color.h **** #endif
 103:Middlewares/LVGL/GUI/lvgl/src/extra/themes/basic/../../../../src/hal/../draw/../misc/lv_color.h **** 
 104:Middlewares/LVGL/GUI/lvgl/src/extra/themes/basic/../../../../src/hal/../draw/../misc/lv_color.h **** /*---------------------------------------
 105:Middlewares/LVGL/GUI/lvgl/src/extra/themes/basic/../../../../src/hal/../draw/../misc/lv_color.h ****  * Macros for all existing color depths
 106:Middlewares/LVGL/GUI/lvgl/src/extra/themes/basic/../../../../src/hal/../draw/../misc/lv_color.h ****  * to set/get values of the color channels
 107:Middlewares/LVGL/GUI/lvgl/src/extra/themes/basic/../../../../src/hal/../draw/../misc/lv_color.h ****  *------------------------------------------*/
 108:Middlewares/LVGL/GUI/lvgl/src/extra/themes/basic/../../../../src/hal/../draw/../misc/lv_color.h **** # define LV_COLOR_SET_R1(c, v) (c).ch.red = (uint8_t)((v) & 0x1)
 109:Middlewares/LVGL/GUI/lvgl/src/extra/themes/basic/../../../../src/hal/../draw/../misc/lv_color.h **** # define LV_COLOR_SET_G1(c, v) (c).ch.green = (uint8_t)((v) & 0x1)
 110:Middlewares/LVGL/GUI/lvgl/src/extra/themes/basic/../../../../src/hal/../draw/../misc/lv_color.h **** # define LV_COLOR_SET_B1(c, v) (c).ch.blue = (uint8_t)((v) & 0x1)
 111:Middlewares/LVGL/GUI/lvgl/src/extra/themes/basic/../../../../src/hal/../draw/../misc/lv_color.h **** # define LV_COLOR_SET_A1(c, v) do {} while(0)
 112:Middlewares/LVGL/GUI/lvgl/src/extra/themes/basic/../../../../src/hal/../draw/../misc/lv_color.h **** 
 113:Middlewares/LVGL/GUI/lvgl/src/extra/themes/basic/../../../../src/hal/../draw/../misc/lv_color.h **** # define LV_COLOR_GET_R1(c) (c).ch.red
 114:Middlewares/LVGL/GUI/lvgl/src/extra/themes/basic/../../../../src/hal/../draw/../misc/lv_color.h **** # define LV_COLOR_GET_G1(c) (c).ch.green
 115:Middlewares/LVGL/GUI/lvgl/src/extra/themes/basic/../../../../src/hal/../draw/../misc/lv_color.h **** # define LV_COLOR_GET_B1(c) (c).ch.blue
 116:Middlewares/LVGL/GUI/lvgl/src/extra/themes/basic/../../../../src/hal/../draw/../misc/lv_color.h **** # define LV_COLOR_GET_A1(c) 0xFF
 117:Middlewares/LVGL/GUI/lvgl/src/extra/themes/basic/../../../../src/hal/../draw/../misc/lv_color.h **** 
 118:Middlewares/LVGL/GUI/lvgl/src/extra/themes/basic/../../../../src/hal/../draw/../misc/lv_color.h **** # define _LV_COLOR_ZERO_INITIALIZER1 {0x00}
 119:Middlewares/LVGL/GUI/lvgl/src/extra/themes/basic/../../../../src/hal/../draw/../misc/lv_color.h **** # define LV_COLOR_MAKE1(r8, g8, b8)  {(uint8_t)((b8 >> 7) | (g8 >> 7) | (r8 >> 7))}
 120:Middlewares/LVGL/GUI/lvgl/src/extra/themes/basic/../../../../src/hal/../draw/../misc/lv_color.h **** 
 121:Middlewares/LVGL/GUI/lvgl/src/extra/themes/basic/../../../../src/hal/../draw/../misc/lv_color.h **** # define LV_COLOR_SET_R8(c, v) (c).ch.red = (uint8_t)((v) & 0x7U)
ARM GAS  C:\Users\ADMINI~1\AppData\Local\Temp\cc8gvSPg.s 			page 42


 122:Middlewares/LVGL/GUI/lvgl/src/extra/themes/basic/../../../../src/hal/../draw/../misc/lv_color.h **** # define LV_COLOR_SET_G8(c, v) (c).ch.green = (uint8_t)((v) & 0x7U)
 123:Middlewares/LVGL/GUI/lvgl/src/extra/themes/basic/../../../../src/hal/../draw/../misc/lv_color.h **** # define LV_COLOR_SET_B8(c, v) (c).ch.blue = (uint8_t)((v) & 0x3U)
 124:Middlewares/LVGL/GUI/lvgl/src/extra/themes/basic/../../../../src/hal/../draw/../misc/lv_color.h **** # define LV_COLOR_SET_A8(c, v) do {} while(0)
 125:Middlewares/LVGL/GUI/lvgl/src/extra/themes/basic/../../../../src/hal/../draw/../misc/lv_color.h **** 
 126:Middlewares/LVGL/GUI/lvgl/src/extra/themes/basic/../../../../src/hal/../draw/../misc/lv_color.h **** # define LV_COLOR_GET_R8(c) (c).ch.red
 127:Middlewares/LVGL/GUI/lvgl/src/extra/themes/basic/../../../../src/hal/../draw/../misc/lv_color.h **** # define LV_COLOR_GET_G8(c) (c).ch.green
 128:Middlewares/LVGL/GUI/lvgl/src/extra/themes/basic/../../../../src/hal/../draw/../misc/lv_color.h **** # define LV_COLOR_GET_B8(c) (c).ch.blue
 129:Middlewares/LVGL/GUI/lvgl/src/extra/themes/basic/../../../../src/hal/../draw/../misc/lv_color.h **** # define LV_COLOR_GET_A8(c) 0xFF
 130:Middlewares/LVGL/GUI/lvgl/src/extra/themes/basic/../../../../src/hal/../draw/../misc/lv_color.h **** 
 131:Middlewares/LVGL/GUI/lvgl/src/extra/themes/basic/../../../../src/hal/../draw/../misc/lv_color.h **** # define _LV_COLOR_ZERO_INITIALIZER8 {{0x00, 0x00, 0x00}}
 132:Middlewares/LVGL/GUI/lvgl/src/extra/themes/basic/../../../../src/hal/../draw/../misc/lv_color.h **** # define LV_COLOR_MAKE8(r8, g8, b8) {{(uint8_t)((b8 >> 6) & 0x3U), (uint8_t)((g8 >> 5) & 0x7U), (ui
 133:Middlewares/LVGL/GUI/lvgl/src/extra/themes/basic/../../../../src/hal/../draw/../misc/lv_color.h **** 
 134:Middlewares/LVGL/GUI/lvgl/src/extra/themes/basic/../../../../src/hal/../draw/../misc/lv_color.h **** # define LV_COLOR_SET_R16(c, v) (c).ch.red = (uint8_t)((v) & 0x1FU)
 135:Middlewares/LVGL/GUI/lvgl/src/extra/themes/basic/../../../../src/hal/../draw/../misc/lv_color.h **** #if LV_COLOR_16_SWAP == 0
 136:Middlewares/LVGL/GUI/lvgl/src/extra/themes/basic/../../../../src/hal/../draw/../misc/lv_color.h **** # define LV_COLOR_SET_G16(c, v) (c).ch.green = (uint8_t)((v) & 0x3FU)
 137:Middlewares/LVGL/GUI/lvgl/src/extra/themes/basic/../../../../src/hal/../draw/../misc/lv_color.h **** #else
 138:Middlewares/LVGL/GUI/lvgl/src/extra/themes/basic/../../../../src/hal/../draw/../misc/lv_color.h **** # define LV_COLOR_SET_G16(c, v) {(c).ch.green_h = (uint8_t)(((v) >> 3) & 0x7); (c).ch.green_l = (ui
 139:Middlewares/LVGL/GUI/lvgl/src/extra/themes/basic/../../../../src/hal/../draw/../misc/lv_color.h **** #endif
 140:Middlewares/LVGL/GUI/lvgl/src/extra/themes/basic/../../../../src/hal/../draw/../misc/lv_color.h **** # define LV_COLOR_SET_B16(c, v) (c).ch.blue = (uint8_t)((v) & 0x1FU)
 141:Middlewares/LVGL/GUI/lvgl/src/extra/themes/basic/../../../../src/hal/../draw/../misc/lv_color.h **** # define LV_COLOR_SET_A16(c, v) do {} while(0)
 142:Middlewares/LVGL/GUI/lvgl/src/extra/themes/basic/../../../../src/hal/../draw/../misc/lv_color.h **** 
 143:Middlewares/LVGL/GUI/lvgl/src/extra/themes/basic/../../../../src/hal/../draw/../misc/lv_color.h **** # define LV_COLOR_GET_R16(c) (c).ch.red
 144:Middlewares/LVGL/GUI/lvgl/src/extra/themes/basic/../../../../src/hal/../draw/../misc/lv_color.h **** #if LV_COLOR_16_SWAP == 0
 145:Middlewares/LVGL/GUI/lvgl/src/extra/themes/basic/../../../../src/hal/../draw/../misc/lv_color.h **** # define LV_COLOR_GET_G16(c) (c).ch.green
 146:Middlewares/LVGL/GUI/lvgl/src/extra/themes/basic/../../../../src/hal/../draw/../misc/lv_color.h **** #else
 147:Middlewares/LVGL/GUI/lvgl/src/extra/themes/basic/../../../../src/hal/../draw/../misc/lv_color.h **** # define LV_COLOR_GET_G16(c) (((c).ch.green_h << 3) + (c).ch.green_l)
 148:Middlewares/LVGL/GUI/lvgl/src/extra/themes/basic/../../../../src/hal/../draw/../misc/lv_color.h **** #endif
 149:Middlewares/LVGL/GUI/lvgl/src/extra/themes/basic/../../../../src/hal/../draw/../misc/lv_color.h **** # define LV_COLOR_GET_B16(c) (c).ch.blue
 150:Middlewares/LVGL/GUI/lvgl/src/extra/themes/basic/../../../../src/hal/../draw/../misc/lv_color.h **** # define LV_COLOR_GET_A16(c) 0xFF
 151:Middlewares/LVGL/GUI/lvgl/src/extra/themes/basic/../../../../src/hal/../draw/../misc/lv_color.h **** 
 152:Middlewares/LVGL/GUI/lvgl/src/extra/themes/basic/../../../../src/hal/../draw/../misc/lv_color.h **** #if LV_COLOR_16_SWAP == 0
 153:Middlewares/LVGL/GUI/lvgl/src/extra/themes/basic/../../../../src/hal/../draw/../misc/lv_color.h **** # define _LV_COLOR_ZERO_INITIALIZER16  {{0x00, 0x00, 0x00}}
 154:Middlewares/LVGL/GUI/lvgl/src/extra/themes/basic/../../../../src/hal/../draw/../misc/lv_color.h **** # define LV_COLOR_MAKE16(r8, g8, b8) {{(uint8_t)((b8 >> 3) & 0x1FU), (uint8_t)((g8 >> 2) & 0x3FU), 
 155:Middlewares/LVGL/GUI/lvgl/src/extra/themes/basic/../../../../src/hal/../draw/../misc/lv_color.h **** #else
 156:Middlewares/LVGL/GUI/lvgl/src/extra/themes/basic/../../../../src/hal/../draw/../misc/lv_color.h **** # define _LV_COLOR_ZERO_INITIALIZER16 {{0x00, 0x00, 0x00, 0x00}}
 157:Middlewares/LVGL/GUI/lvgl/src/extra/themes/basic/../../../../src/hal/../draw/../misc/lv_color.h **** # define LV_COLOR_MAKE16(r8, g8, b8) {{(uint8_t)((g8 >> 5) & 0x7U), (uint8_t)((r8 >> 3) & 0x1FU), (
 158:Middlewares/LVGL/GUI/lvgl/src/extra/themes/basic/../../../../src/hal/../draw/../misc/lv_color.h **** #endif
 159:Middlewares/LVGL/GUI/lvgl/src/extra/themes/basic/../../../../src/hal/../draw/../misc/lv_color.h **** 
 160:Middlewares/LVGL/GUI/lvgl/src/extra/themes/basic/../../../../src/hal/../draw/../misc/lv_color.h **** # define LV_COLOR_SET_R32(c, v) (c).ch.red = (uint8_t)((v) & 0xFF)
 161:Middlewares/LVGL/GUI/lvgl/src/extra/themes/basic/../../../../src/hal/../draw/../misc/lv_color.h **** # define LV_COLOR_SET_G32(c, v) (c).ch.green = (uint8_t)((v) & 0xFF)
 162:Middlewares/LVGL/GUI/lvgl/src/extra/themes/basic/../../../../src/hal/../draw/../misc/lv_color.h **** # define LV_COLOR_SET_B32(c, v) (c).ch.blue = (uint8_t)((v) & 0xFF)
 163:Middlewares/LVGL/GUI/lvgl/src/extra/themes/basic/../../../../src/hal/../draw/../misc/lv_color.h **** # define LV_COLOR_SET_A32(c, v) (c).ch.alpha = (uint8_t)((v) & 0xFF)
 164:Middlewares/LVGL/GUI/lvgl/src/extra/themes/basic/../../../../src/hal/../draw/../misc/lv_color.h **** 
 165:Middlewares/LVGL/GUI/lvgl/src/extra/themes/basic/../../../../src/hal/../draw/../misc/lv_color.h **** # define LV_COLOR_GET_R32(c) (c).ch.red
 166:Middlewares/LVGL/GUI/lvgl/src/extra/themes/basic/../../../../src/hal/../draw/../misc/lv_color.h **** # define LV_COLOR_GET_G32(c) (c).ch.green
 167:Middlewares/LVGL/GUI/lvgl/src/extra/themes/basic/../../../../src/hal/../draw/../misc/lv_color.h **** # define LV_COLOR_GET_B32(c) (c).ch.blue
 168:Middlewares/LVGL/GUI/lvgl/src/extra/themes/basic/../../../../src/hal/../draw/../misc/lv_color.h **** # define LV_COLOR_GET_A32(c) (c).ch.alpha
 169:Middlewares/LVGL/GUI/lvgl/src/extra/themes/basic/../../../../src/hal/../draw/../misc/lv_color.h **** 
 170:Middlewares/LVGL/GUI/lvgl/src/extra/themes/basic/../../../../src/hal/../draw/../misc/lv_color.h **** # define _LV_COLOR_ZERO_INITIALIZER32  {{0x00, 0x00, 0x00, 0x00}}
 171:Middlewares/LVGL/GUI/lvgl/src/extra/themes/basic/../../../../src/hal/../draw/../misc/lv_color.h **** # define LV_COLOR_MAKE32(r8, g8, b8) {{b8, g8, r8, 0xff}} /*Fix 0xff alpha*/
 172:Middlewares/LVGL/GUI/lvgl/src/extra/themes/basic/../../../../src/hal/../draw/../misc/lv_color.h **** 
 173:Middlewares/LVGL/GUI/lvgl/src/extra/themes/basic/../../../../src/hal/../draw/../misc/lv_color.h **** /*---------------------------------------
 174:Middlewares/LVGL/GUI/lvgl/src/extra/themes/basic/../../../../src/hal/../draw/../misc/lv_color.h ****  * Macros for the current color depth
 175:Middlewares/LVGL/GUI/lvgl/src/extra/themes/basic/../../../../src/hal/../draw/../misc/lv_color.h ****  * to set/get values of the color channels
 176:Middlewares/LVGL/GUI/lvgl/src/extra/themes/basic/../../../../src/hal/../draw/../misc/lv_color.h ****  *------------------------------------------*/
 177:Middlewares/LVGL/GUI/lvgl/src/extra/themes/basic/../../../../src/hal/../draw/../misc/lv_color.h **** #define LV_COLOR_SET_R(c, v) LV_CONCAT(LV_COLOR_SET_R, LV_COLOR_DEPTH)(c, v)
 178:Middlewares/LVGL/GUI/lvgl/src/extra/themes/basic/../../../../src/hal/../draw/../misc/lv_color.h **** #define LV_COLOR_SET_G(c, v) LV_CONCAT(LV_COLOR_SET_G, LV_COLOR_DEPTH)(c, v)
ARM GAS  C:\Users\ADMINI~1\AppData\Local\Temp\cc8gvSPg.s 			page 43


 179:Middlewares/LVGL/GUI/lvgl/src/extra/themes/basic/../../../../src/hal/../draw/../misc/lv_color.h **** #define LV_COLOR_SET_B(c, v) LV_CONCAT(LV_COLOR_SET_B, LV_COLOR_DEPTH)(c, v)
 180:Middlewares/LVGL/GUI/lvgl/src/extra/themes/basic/../../../../src/hal/../draw/../misc/lv_color.h **** #define LV_COLOR_SET_A(c, v) LV_CONCAT(LV_COLOR_SET_A, LV_COLOR_DEPTH)(c, v)
 181:Middlewares/LVGL/GUI/lvgl/src/extra/themes/basic/../../../../src/hal/../draw/../misc/lv_color.h **** 
 182:Middlewares/LVGL/GUI/lvgl/src/extra/themes/basic/../../../../src/hal/../draw/../misc/lv_color.h **** #define LV_COLOR_GET_R(c) LV_CONCAT(LV_COLOR_GET_R, LV_COLOR_DEPTH)(c)
 183:Middlewares/LVGL/GUI/lvgl/src/extra/themes/basic/../../../../src/hal/../draw/../misc/lv_color.h **** #define LV_COLOR_GET_G(c) LV_CONCAT(LV_COLOR_GET_G, LV_COLOR_DEPTH)(c)
 184:Middlewares/LVGL/GUI/lvgl/src/extra/themes/basic/../../../../src/hal/../draw/../misc/lv_color.h **** #define LV_COLOR_GET_B(c) LV_CONCAT(LV_COLOR_GET_B, LV_COLOR_DEPTH)(c)
 185:Middlewares/LVGL/GUI/lvgl/src/extra/themes/basic/../../../../src/hal/../draw/../misc/lv_color.h **** #define LV_COLOR_GET_A(c) LV_CONCAT(LV_COLOR_GET_A, LV_COLOR_DEPTH)(c)
 186:Middlewares/LVGL/GUI/lvgl/src/extra/themes/basic/../../../../src/hal/../draw/../misc/lv_color.h **** 
 187:Middlewares/LVGL/GUI/lvgl/src/extra/themes/basic/../../../../src/hal/../draw/../misc/lv_color.h **** #define _LV_COLOR_ZERO_INITIALIZER LV_CONCAT(_LV_COLOR_ZERO_INITIALIZER, LV_COLOR_DEPTH)
 188:Middlewares/LVGL/GUI/lvgl/src/extra/themes/basic/../../../../src/hal/../draw/../misc/lv_color.h **** #define LV_COLOR_MAKE(r8, g8, b8) LV_CONCAT(LV_COLOR_MAKE, LV_COLOR_DEPTH)(r8, g8, b8)
 189:Middlewares/LVGL/GUI/lvgl/src/extra/themes/basic/../../../../src/hal/../draw/../misc/lv_color.h **** 
 190:Middlewares/LVGL/GUI/lvgl/src/extra/themes/basic/../../../../src/hal/../draw/../misc/lv_color.h **** /**********************
 191:Middlewares/LVGL/GUI/lvgl/src/extra/themes/basic/../../../../src/hal/../draw/../misc/lv_color.h ****  *      TYPEDEFS
 192:Middlewares/LVGL/GUI/lvgl/src/extra/themes/basic/../../../../src/hal/../draw/../misc/lv_color.h ****  **********************/
 193:Middlewares/LVGL/GUI/lvgl/src/extra/themes/basic/../../../../src/hal/../draw/../misc/lv_color.h **** 
 194:Middlewares/LVGL/GUI/lvgl/src/extra/themes/basic/../../../../src/hal/../draw/../misc/lv_color.h **** typedef union {
 195:Middlewares/LVGL/GUI/lvgl/src/extra/themes/basic/../../../../src/hal/../draw/../misc/lv_color.h ****     uint8_t full; /*must be declared first to set all bits of byte via initializer list*/
 196:Middlewares/LVGL/GUI/lvgl/src/extra/themes/basic/../../../../src/hal/../draw/../misc/lv_color.h ****     union {
 197:Middlewares/LVGL/GUI/lvgl/src/extra/themes/basic/../../../../src/hal/../draw/../misc/lv_color.h ****         uint8_t blue : 1;
 198:Middlewares/LVGL/GUI/lvgl/src/extra/themes/basic/../../../../src/hal/../draw/../misc/lv_color.h ****         uint8_t green : 1;
 199:Middlewares/LVGL/GUI/lvgl/src/extra/themes/basic/../../../../src/hal/../draw/../misc/lv_color.h ****         uint8_t red : 1;
 200:Middlewares/LVGL/GUI/lvgl/src/extra/themes/basic/../../../../src/hal/../draw/../misc/lv_color.h ****     } ch;
 201:Middlewares/LVGL/GUI/lvgl/src/extra/themes/basic/../../../../src/hal/../draw/../misc/lv_color.h **** } lv_color1_t;
 202:Middlewares/LVGL/GUI/lvgl/src/extra/themes/basic/../../../../src/hal/../draw/../misc/lv_color.h **** 
 203:Middlewares/LVGL/GUI/lvgl/src/extra/themes/basic/../../../../src/hal/../draw/../misc/lv_color.h **** typedef union {
 204:Middlewares/LVGL/GUI/lvgl/src/extra/themes/basic/../../../../src/hal/../draw/../misc/lv_color.h ****     struct {
 205:Middlewares/LVGL/GUI/lvgl/src/extra/themes/basic/../../../../src/hal/../draw/../misc/lv_color.h ****         uint8_t blue : 2;
 206:Middlewares/LVGL/GUI/lvgl/src/extra/themes/basic/../../../../src/hal/../draw/../misc/lv_color.h ****         uint8_t green : 3;
 207:Middlewares/LVGL/GUI/lvgl/src/extra/themes/basic/../../../../src/hal/../draw/../misc/lv_color.h ****         uint8_t red : 3;
 208:Middlewares/LVGL/GUI/lvgl/src/extra/themes/basic/../../../../src/hal/../draw/../misc/lv_color.h ****     } ch;
 209:Middlewares/LVGL/GUI/lvgl/src/extra/themes/basic/../../../../src/hal/../draw/../misc/lv_color.h ****     uint8_t full;
 210:Middlewares/LVGL/GUI/lvgl/src/extra/themes/basic/../../../../src/hal/../draw/../misc/lv_color.h **** } lv_color8_t;
 211:Middlewares/LVGL/GUI/lvgl/src/extra/themes/basic/../../../../src/hal/../draw/../misc/lv_color.h **** 
 212:Middlewares/LVGL/GUI/lvgl/src/extra/themes/basic/../../../../src/hal/../draw/../misc/lv_color.h **** typedef union {
 213:Middlewares/LVGL/GUI/lvgl/src/extra/themes/basic/../../../../src/hal/../draw/../misc/lv_color.h ****     struct {
 214:Middlewares/LVGL/GUI/lvgl/src/extra/themes/basic/../../../../src/hal/../draw/../misc/lv_color.h **** #if LV_COLOR_16_SWAP == 0
 215:Middlewares/LVGL/GUI/lvgl/src/extra/themes/basic/../../../../src/hal/../draw/../misc/lv_color.h ****         uint16_t blue : 5;
 216:Middlewares/LVGL/GUI/lvgl/src/extra/themes/basic/../../../../src/hal/../draw/../misc/lv_color.h ****         uint16_t green : 6;
 217:Middlewares/LVGL/GUI/lvgl/src/extra/themes/basic/../../../../src/hal/../draw/../misc/lv_color.h ****         uint16_t red : 5;
 218:Middlewares/LVGL/GUI/lvgl/src/extra/themes/basic/../../../../src/hal/../draw/../misc/lv_color.h **** #else
 219:Middlewares/LVGL/GUI/lvgl/src/extra/themes/basic/../../../../src/hal/../draw/../misc/lv_color.h ****         uint16_t green_h : 3;
 220:Middlewares/LVGL/GUI/lvgl/src/extra/themes/basic/../../../../src/hal/../draw/../misc/lv_color.h ****         uint16_t red : 5;
 221:Middlewares/LVGL/GUI/lvgl/src/extra/themes/basic/../../../../src/hal/../draw/../misc/lv_color.h ****         uint16_t blue : 5;
 222:Middlewares/LVGL/GUI/lvgl/src/extra/themes/basic/../../../../src/hal/../draw/../misc/lv_color.h ****         uint16_t green_l : 3;
 223:Middlewares/LVGL/GUI/lvgl/src/extra/themes/basic/../../../../src/hal/../draw/../misc/lv_color.h **** #endif
 224:Middlewares/LVGL/GUI/lvgl/src/extra/themes/basic/../../../../src/hal/../draw/../misc/lv_color.h ****     } ch;
 225:Middlewares/LVGL/GUI/lvgl/src/extra/themes/basic/../../../../src/hal/../draw/../misc/lv_color.h ****     uint16_t full;
 226:Middlewares/LVGL/GUI/lvgl/src/extra/themes/basic/../../../../src/hal/../draw/../misc/lv_color.h **** } lv_color16_t;
 227:Middlewares/LVGL/GUI/lvgl/src/extra/themes/basic/../../../../src/hal/../draw/../misc/lv_color.h **** 
 228:Middlewares/LVGL/GUI/lvgl/src/extra/themes/basic/../../../../src/hal/../draw/../misc/lv_color.h **** typedef union {
 229:Middlewares/LVGL/GUI/lvgl/src/extra/themes/basic/../../../../src/hal/../draw/../misc/lv_color.h ****     struct {
 230:Middlewares/LVGL/GUI/lvgl/src/extra/themes/basic/../../../../src/hal/../draw/../misc/lv_color.h ****         uint8_t blue;
 231:Middlewares/LVGL/GUI/lvgl/src/extra/themes/basic/../../../../src/hal/../draw/../misc/lv_color.h ****         uint8_t green;
 232:Middlewares/LVGL/GUI/lvgl/src/extra/themes/basic/../../../../src/hal/../draw/../misc/lv_color.h ****         uint8_t red;
 233:Middlewares/LVGL/GUI/lvgl/src/extra/themes/basic/../../../../src/hal/../draw/../misc/lv_color.h ****         uint8_t alpha;
 234:Middlewares/LVGL/GUI/lvgl/src/extra/themes/basic/../../../../src/hal/../draw/../misc/lv_color.h ****     } ch;
 235:Middlewares/LVGL/GUI/lvgl/src/extra/themes/basic/../../../../src/hal/../draw/../misc/lv_color.h ****     uint32_t full;
ARM GAS  C:\Users\ADMINI~1\AppData\Local\Temp\cc8gvSPg.s 			page 44


 236:Middlewares/LVGL/GUI/lvgl/src/extra/themes/basic/../../../../src/hal/../draw/../misc/lv_color.h **** } lv_color32_t;
 237:Middlewares/LVGL/GUI/lvgl/src/extra/themes/basic/../../../../src/hal/../draw/../misc/lv_color.h **** 
 238:Middlewares/LVGL/GUI/lvgl/src/extra/themes/basic/../../../../src/hal/../draw/../misc/lv_color.h **** typedef LV_CONCAT3(uint, LV_COLOR_SIZE, _t) lv_color_int_t;
 239:Middlewares/LVGL/GUI/lvgl/src/extra/themes/basic/../../../../src/hal/../draw/../misc/lv_color.h **** typedef LV_CONCAT3(lv_color, LV_COLOR_DEPTH, _t) lv_color_t;
 240:Middlewares/LVGL/GUI/lvgl/src/extra/themes/basic/../../../../src/hal/../draw/../misc/lv_color.h **** 
 241:Middlewares/LVGL/GUI/lvgl/src/extra/themes/basic/../../../../src/hal/../draw/../misc/lv_color.h **** typedef struct {
 242:Middlewares/LVGL/GUI/lvgl/src/extra/themes/basic/../../../../src/hal/../draw/../misc/lv_color.h ****     uint16_t h;
 243:Middlewares/LVGL/GUI/lvgl/src/extra/themes/basic/../../../../src/hal/../draw/../misc/lv_color.h ****     uint8_t s;
 244:Middlewares/LVGL/GUI/lvgl/src/extra/themes/basic/../../../../src/hal/../draw/../misc/lv_color.h ****     uint8_t v;
 245:Middlewares/LVGL/GUI/lvgl/src/extra/themes/basic/../../../../src/hal/../draw/../misc/lv_color.h **** } lv_color_hsv_t;
 246:Middlewares/LVGL/GUI/lvgl/src/extra/themes/basic/../../../../src/hal/../draw/../misc/lv_color.h **** 
 247:Middlewares/LVGL/GUI/lvgl/src/extra/themes/basic/../../../../src/hal/../draw/../misc/lv_color.h **** //! @cond Doxygen_Suppress
 248:Middlewares/LVGL/GUI/lvgl/src/extra/themes/basic/../../../../src/hal/../draw/../misc/lv_color.h **** /*No idea where the guard is required but else throws warnings in the docs*/
 249:Middlewares/LVGL/GUI/lvgl/src/extra/themes/basic/../../../../src/hal/../draw/../misc/lv_color.h **** typedef uint8_t lv_opa_t;
 250:Middlewares/LVGL/GUI/lvgl/src/extra/themes/basic/../../../../src/hal/../draw/../misc/lv_color.h **** //! @endcond
 251:Middlewares/LVGL/GUI/lvgl/src/extra/themes/basic/../../../../src/hal/../draw/../misc/lv_color.h **** 
 252:Middlewares/LVGL/GUI/lvgl/src/extra/themes/basic/../../../../src/hal/../draw/../misc/lv_color.h **** struct _lv_color_filter_dsc_t;
 253:Middlewares/LVGL/GUI/lvgl/src/extra/themes/basic/../../../../src/hal/../draw/../misc/lv_color.h **** 
 254:Middlewares/LVGL/GUI/lvgl/src/extra/themes/basic/../../../../src/hal/../draw/../misc/lv_color.h **** typedef lv_color_t (*lv_color_filter_cb_t)(const struct _lv_color_filter_dsc_t *, lv_color_t, lv_op
 255:Middlewares/LVGL/GUI/lvgl/src/extra/themes/basic/../../../../src/hal/../draw/../misc/lv_color.h **** 
 256:Middlewares/LVGL/GUI/lvgl/src/extra/themes/basic/../../../../src/hal/../draw/../misc/lv_color.h **** typedef struct _lv_color_filter_dsc_t {
 257:Middlewares/LVGL/GUI/lvgl/src/extra/themes/basic/../../../../src/hal/../draw/../misc/lv_color.h ****     lv_color_filter_cb_t filter_cb;
 258:Middlewares/LVGL/GUI/lvgl/src/extra/themes/basic/../../../../src/hal/../draw/../misc/lv_color.h ****     void * user_data;
 259:Middlewares/LVGL/GUI/lvgl/src/extra/themes/basic/../../../../src/hal/../draw/../misc/lv_color.h **** } lv_color_filter_dsc_t;
 260:Middlewares/LVGL/GUI/lvgl/src/extra/themes/basic/../../../../src/hal/../draw/../misc/lv_color.h **** 
 261:Middlewares/LVGL/GUI/lvgl/src/extra/themes/basic/../../../../src/hal/../draw/../misc/lv_color.h **** 
 262:Middlewares/LVGL/GUI/lvgl/src/extra/themes/basic/../../../../src/hal/../draw/../misc/lv_color.h **** typedef enum {
 263:Middlewares/LVGL/GUI/lvgl/src/extra/themes/basic/../../../../src/hal/../draw/../misc/lv_color.h ****     LV_PALETTE_RED,
 264:Middlewares/LVGL/GUI/lvgl/src/extra/themes/basic/../../../../src/hal/../draw/../misc/lv_color.h ****     LV_PALETTE_PINK,
 265:Middlewares/LVGL/GUI/lvgl/src/extra/themes/basic/../../../../src/hal/../draw/../misc/lv_color.h ****     LV_PALETTE_PURPLE,
 266:Middlewares/LVGL/GUI/lvgl/src/extra/themes/basic/../../../../src/hal/../draw/../misc/lv_color.h ****     LV_PALETTE_DEEP_PURPLE,
 267:Middlewares/LVGL/GUI/lvgl/src/extra/themes/basic/../../../../src/hal/../draw/../misc/lv_color.h ****     LV_PALETTE_INDIGO,
 268:Middlewares/LVGL/GUI/lvgl/src/extra/themes/basic/../../../../src/hal/../draw/../misc/lv_color.h ****     LV_PALETTE_BLUE,
 269:Middlewares/LVGL/GUI/lvgl/src/extra/themes/basic/../../../../src/hal/../draw/../misc/lv_color.h ****     LV_PALETTE_LIGHT_BLUE,
 270:Middlewares/LVGL/GUI/lvgl/src/extra/themes/basic/../../../../src/hal/../draw/../misc/lv_color.h ****     LV_PALETTE_CYAN,
 271:Middlewares/LVGL/GUI/lvgl/src/extra/themes/basic/../../../../src/hal/../draw/../misc/lv_color.h ****     LV_PALETTE_TEAL,
 272:Middlewares/LVGL/GUI/lvgl/src/extra/themes/basic/../../../../src/hal/../draw/../misc/lv_color.h ****     LV_PALETTE_GREEN,
 273:Middlewares/LVGL/GUI/lvgl/src/extra/themes/basic/../../../../src/hal/../draw/../misc/lv_color.h ****     LV_PALETTE_LIGHT_GREEN,
 274:Middlewares/LVGL/GUI/lvgl/src/extra/themes/basic/../../../../src/hal/../draw/../misc/lv_color.h ****     LV_PALETTE_LIME,
 275:Middlewares/LVGL/GUI/lvgl/src/extra/themes/basic/../../../../src/hal/../draw/../misc/lv_color.h ****     LV_PALETTE_YELLOW,
 276:Middlewares/LVGL/GUI/lvgl/src/extra/themes/basic/../../../../src/hal/../draw/../misc/lv_color.h ****     LV_PALETTE_AMBER,
 277:Middlewares/LVGL/GUI/lvgl/src/extra/themes/basic/../../../../src/hal/../draw/../misc/lv_color.h ****     LV_PALETTE_ORANGE,
 278:Middlewares/LVGL/GUI/lvgl/src/extra/themes/basic/../../../../src/hal/../draw/../misc/lv_color.h ****     LV_PALETTE_DEEP_ORANGE,
 279:Middlewares/LVGL/GUI/lvgl/src/extra/themes/basic/../../../../src/hal/../draw/../misc/lv_color.h ****     LV_PALETTE_BROWN,
 280:Middlewares/LVGL/GUI/lvgl/src/extra/themes/basic/../../../../src/hal/../draw/../misc/lv_color.h ****     LV_PALETTE_BLUE_GREY,
 281:Middlewares/LVGL/GUI/lvgl/src/extra/themes/basic/../../../../src/hal/../draw/../misc/lv_color.h ****     LV_PALETTE_GREY,
 282:Middlewares/LVGL/GUI/lvgl/src/extra/themes/basic/../../../../src/hal/../draw/../misc/lv_color.h ****     _LV_PALETTE_LAST,
 283:Middlewares/LVGL/GUI/lvgl/src/extra/themes/basic/../../../../src/hal/../draw/../misc/lv_color.h ****     LV_PALETTE_NONE = 0xff,
 284:Middlewares/LVGL/GUI/lvgl/src/extra/themes/basic/../../../../src/hal/../draw/../misc/lv_color.h **** } lv_palette_t;
 285:Middlewares/LVGL/GUI/lvgl/src/extra/themes/basic/../../../../src/hal/../draw/../misc/lv_color.h **** 
 286:Middlewares/LVGL/GUI/lvgl/src/extra/themes/basic/../../../../src/hal/../draw/../misc/lv_color.h **** /**********************
 287:Middlewares/LVGL/GUI/lvgl/src/extra/themes/basic/../../../../src/hal/../draw/../misc/lv_color.h ****  * GLOBAL PROTOTYPES
 288:Middlewares/LVGL/GUI/lvgl/src/extra/themes/basic/../../../../src/hal/../draw/../misc/lv_color.h ****  **********************/
 289:Middlewares/LVGL/GUI/lvgl/src/extra/themes/basic/../../../../src/hal/../draw/../misc/lv_color.h **** 
 290:Middlewares/LVGL/GUI/lvgl/src/extra/themes/basic/../../../../src/hal/../draw/../misc/lv_color.h **** /*In color conversations:
 291:Middlewares/LVGL/GUI/lvgl/src/extra/themes/basic/../../../../src/hal/../draw/../misc/lv_color.h ****  * - When converting to bigger color type the LSB weight of 1 LSB is calculated
 292:Middlewares/LVGL/GUI/lvgl/src/extra/themes/basic/../../../../src/hal/../draw/../misc/lv_color.h ****  *   E.g. 16 bit Red has 5 bits
ARM GAS  C:\Users\ADMINI~1\AppData\Local\Temp\cc8gvSPg.s 			page 45


 293:Middlewares/LVGL/GUI/lvgl/src/extra/themes/basic/../../../../src/hal/../draw/../misc/lv_color.h ****  *         8 bit Red has 3 bits
 294:Middlewares/LVGL/GUI/lvgl/src/extra/themes/basic/../../../../src/hal/../draw/../misc/lv_color.h ****  *        ----------------------
 295:Middlewares/LVGL/GUI/lvgl/src/extra/themes/basic/../../../../src/hal/../draw/../misc/lv_color.h ****  *        8 bit red LSB = (2^5 - 1) / (2^3 - 1) = 31 / 7 = 4
 296:Middlewares/LVGL/GUI/lvgl/src/extra/themes/basic/../../../../src/hal/../draw/../misc/lv_color.h ****  *
 297:Middlewares/LVGL/GUI/lvgl/src/extra/themes/basic/../../../../src/hal/../draw/../misc/lv_color.h ****  * - When calculating to smaller color type simply shift out the LSBs
 298:Middlewares/LVGL/GUI/lvgl/src/extra/themes/basic/../../../../src/hal/../draw/../misc/lv_color.h ****  *   E.g.  8 bit Red has 3 bits
 299:Middlewares/LVGL/GUI/lvgl/src/extra/themes/basic/../../../../src/hal/../draw/../misc/lv_color.h ****  *        16 bit Red has 5 bits
 300:Middlewares/LVGL/GUI/lvgl/src/extra/themes/basic/../../../../src/hal/../draw/../misc/lv_color.h ****  *        ----------------------
 301:Middlewares/LVGL/GUI/lvgl/src/extra/themes/basic/../../../../src/hal/../draw/../misc/lv_color.h ****  *         Shift right with 5 - 3 = 2
 302:Middlewares/LVGL/GUI/lvgl/src/extra/themes/basic/../../../../src/hal/../draw/../misc/lv_color.h ****  */
 303:Middlewares/LVGL/GUI/lvgl/src/extra/themes/basic/../../../../src/hal/../draw/../misc/lv_color.h **** static inline uint8_t lv_color_to1(lv_color_t color)
 304:Middlewares/LVGL/GUI/lvgl/src/extra/themes/basic/../../../../src/hal/../draw/../misc/lv_color.h **** {
 305:Middlewares/LVGL/GUI/lvgl/src/extra/themes/basic/../../../../src/hal/../draw/../misc/lv_color.h **** #if LV_COLOR_DEPTH == 1
 306:Middlewares/LVGL/GUI/lvgl/src/extra/themes/basic/../../../../src/hal/../draw/../misc/lv_color.h ****     return color.full;
 307:Middlewares/LVGL/GUI/lvgl/src/extra/themes/basic/../../../../src/hal/../draw/../misc/lv_color.h **** #elif LV_COLOR_DEPTH == 8
 308:Middlewares/LVGL/GUI/lvgl/src/extra/themes/basic/../../../../src/hal/../draw/../misc/lv_color.h ****     if((LV_COLOR_GET_R(color) & 0x4) || (LV_COLOR_GET_G(color) & 0x4) || (LV_COLOR_GET_B(color) & 0
 309:Middlewares/LVGL/GUI/lvgl/src/extra/themes/basic/../../../../src/hal/../draw/../misc/lv_color.h ****         return 1;
 310:Middlewares/LVGL/GUI/lvgl/src/extra/themes/basic/../../../../src/hal/../draw/../misc/lv_color.h ****     }
 311:Middlewares/LVGL/GUI/lvgl/src/extra/themes/basic/../../../../src/hal/../draw/../misc/lv_color.h ****     else {
 312:Middlewares/LVGL/GUI/lvgl/src/extra/themes/basic/../../../../src/hal/../draw/../misc/lv_color.h ****         return 0;
 313:Middlewares/LVGL/GUI/lvgl/src/extra/themes/basic/../../../../src/hal/../draw/../misc/lv_color.h ****     }
 314:Middlewares/LVGL/GUI/lvgl/src/extra/themes/basic/../../../../src/hal/../draw/../misc/lv_color.h **** #elif LV_COLOR_DEPTH == 16
 315:Middlewares/LVGL/GUI/lvgl/src/extra/themes/basic/../../../../src/hal/../draw/../misc/lv_color.h ****     if((LV_COLOR_GET_R(color) & 0x10) || (LV_COLOR_GET_G(color) & 0x20) || (LV_COLOR_GET_B(color) &
 316:Middlewares/LVGL/GUI/lvgl/src/extra/themes/basic/../../../../src/hal/../draw/../misc/lv_color.h ****         return 1;
 317:Middlewares/LVGL/GUI/lvgl/src/extra/themes/basic/../../../../src/hal/../draw/../misc/lv_color.h ****     }
 318:Middlewares/LVGL/GUI/lvgl/src/extra/themes/basic/../../../../src/hal/../draw/../misc/lv_color.h ****     else {
 319:Middlewares/LVGL/GUI/lvgl/src/extra/themes/basic/../../../../src/hal/../draw/../misc/lv_color.h ****         return 0;
 320:Middlewares/LVGL/GUI/lvgl/src/extra/themes/basic/../../../../src/hal/../draw/../misc/lv_color.h ****     }
 321:Middlewares/LVGL/GUI/lvgl/src/extra/themes/basic/../../../../src/hal/../draw/../misc/lv_color.h **** #elif LV_COLOR_DEPTH == 32
 322:Middlewares/LVGL/GUI/lvgl/src/extra/themes/basic/../../../../src/hal/../draw/../misc/lv_color.h ****     if((LV_COLOR_GET_R(color) & 0x80) || (LV_COLOR_GET_G(color) & 0x80) || (LV_COLOR_GET_B(color) &
 323:Middlewares/LVGL/GUI/lvgl/src/extra/themes/basic/../../../../src/hal/../draw/../misc/lv_color.h ****         return 1;
 324:Middlewares/LVGL/GUI/lvgl/src/extra/themes/basic/../../../../src/hal/../draw/../misc/lv_color.h ****     }
 325:Middlewares/LVGL/GUI/lvgl/src/extra/themes/basic/../../../../src/hal/../draw/../misc/lv_color.h ****     else {
 326:Middlewares/LVGL/GUI/lvgl/src/extra/themes/basic/../../../../src/hal/../draw/../misc/lv_color.h ****         return 0;
 327:Middlewares/LVGL/GUI/lvgl/src/extra/themes/basic/../../../../src/hal/../draw/../misc/lv_color.h ****     }
 328:Middlewares/LVGL/GUI/lvgl/src/extra/themes/basic/../../../../src/hal/../draw/../misc/lv_color.h **** #endif
 329:Middlewares/LVGL/GUI/lvgl/src/extra/themes/basic/../../../../src/hal/../draw/../misc/lv_color.h **** }
 330:Middlewares/LVGL/GUI/lvgl/src/extra/themes/basic/../../../../src/hal/../draw/../misc/lv_color.h **** 
 331:Middlewares/LVGL/GUI/lvgl/src/extra/themes/basic/../../../../src/hal/../draw/../misc/lv_color.h **** static inline uint8_t lv_color_to8(lv_color_t color)
 332:Middlewares/LVGL/GUI/lvgl/src/extra/themes/basic/../../../../src/hal/../draw/../misc/lv_color.h **** {
 333:Middlewares/LVGL/GUI/lvgl/src/extra/themes/basic/../../../../src/hal/../draw/../misc/lv_color.h **** #if LV_COLOR_DEPTH == 1
 334:Middlewares/LVGL/GUI/lvgl/src/extra/themes/basic/../../../../src/hal/../draw/../misc/lv_color.h ****     if(color.full == 0)
 335:Middlewares/LVGL/GUI/lvgl/src/extra/themes/basic/../../../../src/hal/../draw/../misc/lv_color.h ****         return 0;
 336:Middlewares/LVGL/GUI/lvgl/src/extra/themes/basic/../../../../src/hal/../draw/../misc/lv_color.h ****     else
 337:Middlewares/LVGL/GUI/lvgl/src/extra/themes/basic/../../../../src/hal/../draw/../misc/lv_color.h ****         return 0xFF;
 338:Middlewares/LVGL/GUI/lvgl/src/extra/themes/basic/../../../../src/hal/../draw/../misc/lv_color.h **** #elif LV_COLOR_DEPTH == 8
 339:Middlewares/LVGL/GUI/lvgl/src/extra/themes/basic/../../../../src/hal/../draw/../misc/lv_color.h ****     return color.full;
 340:Middlewares/LVGL/GUI/lvgl/src/extra/themes/basic/../../../../src/hal/../draw/../misc/lv_color.h **** #elif LV_COLOR_DEPTH == 16
 341:Middlewares/LVGL/GUI/lvgl/src/extra/themes/basic/../../../../src/hal/../draw/../misc/lv_color.h ****     lv_color8_t ret;
 342:Middlewares/LVGL/GUI/lvgl/src/extra/themes/basic/../../../../src/hal/../draw/../misc/lv_color.h ****     LV_COLOR_SET_R8(ret, LV_COLOR_GET_R(color) >> 2); /*5 - 3  = 2*/
 343:Middlewares/LVGL/GUI/lvgl/src/extra/themes/basic/../../../../src/hal/../draw/../misc/lv_color.h ****     LV_COLOR_SET_G8(ret, LV_COLOR_GET_G(color) >> 3); /*6 - 3  = 3*/
 344:Middlewares/LVGL/GUI/lvgl/src/extra/themes/basic/../../../../src/hal/../draw/../misc/lv_color.h ****     LV_COLOR_SET_B8(ret, LV_COLOR_GET_B(color) >> 3); /*5 - 2  = 3*/
 345:Middlewares/LVGL/GUI/lvgl/src/extra/themes/basic/../../../../src/hal/../draw/../misc/lv_color.h ****     return ret.full;
 346:Middlewares/LVGL/GUI/lvgl/src/extra/themes/basic/../../../../src/hal/../draw/../misc/lv_color.h **** #elif LV_COLOR_DEPTH == 32
 347:Middlewares/LVGL/GUI/lvgl/src/extra/themes/basic/../../../../src/hal/../draw/../misc/lv_color.h ****     lv_color8_t ret;
 348:Middlewares/LVGL/GUI/lvgl/src/extra/themes/basic/../../../../src/hal/../draw/../misc/lv_color.h ****     LV_COLOR_SET_R8(ret, LV_COLOR_GET_R(color) >> 5); /*8 - 3  = 5*/
 349:Middlewares/LVGL/GUI/lvgl/src/extra/themes/basic/../../../../src/hal/../draw/../misc/lv_color.h ****     LV_COLOR_SET_G8(ret, LV_COLOR_GET_G(color) >> 5); /*8 - 3  = 5*/
ARM GAS  C:\Users\ADMINI~1\AppData\Local\Temp\cc8gvSPg.s 			page 46


 350:Middlewares/LVGL/GUI/lvgl/src/extra/themes/basic/../../../../src/hal/../draw/../misc/lv_color.h ****     LV_COLOR_SET_B8(ret, LV_COLOR_GET_B(color) >> 6); /*8 - 2  = 6*/
 351:Middlewares/LVGL/GUI/lvgl/src/extra/themes/basic/../../../../src/hal/../draw/../misc/lv_color.h ****     return ret.full;
 352:Middlewares/LVGL/GUI/lvgl/src/extra/themes/basic/../../../../src/hal/../draw/../misc/lv_color.h **** #endif
 353:Middlewares/LVGL/GUI/lvgl/src/extra/themes/basic/../../../../src/hal/../draw/../misc/lv_color.h **** }
 354:Middlewares/LVGL/GUI/lvgl/src/extra/themes/basic/../../../../src/hal/../draw/../misc/lv_color.h **** 
 355:Middlewares/LVGL/GUI/lvgl/src/extra/themes/basic/../../../../src/hal/../draw/../misc/lv_color.h **** static inline uint16_t lv_color_to16(lv_color_t color)
 356:Middlewares/LVGL/GUI/lvgl/src/extra/themes/basic/../../../../src/hal/../draw/../misc/lv_color.h **** {
 357:Middlewares/LVGL/GUI/lvgl/src/extra/themes/basic/../../../../src/hal/../draw/../misc/lv_color.h **** #if LV_COLOR_DEPTH == 1
 358:Middlewares/LVGL/GUI/lvgl/src/extra/themes/basic/../../../../src/hal/../draw/../misc/lv_color.h ****     if(color.full == 0)
 359:Middlewares/LVGL/GUI/lvgl/src/extra/themes/basic/../../../../src/hal/../draw/../misc/lv_color.h ****         return 0;
 360:Middlewares/LVGL/GUI/lvgl/src/extra/themes/basic/../../../../src/hal/../draw/../misc/lv_color.h ****     else
 361:Middlewares/LVGL/GUI/lvgl/src/extra/themes/basic/../../../../src/hal/../draw/../misc/lv_color.h ****         return 0xFFFF;
 362:Middlewares/LVGL/GUI/lvgl/src/extra/themes/basic/../../../../src/hal/../draw/../misc/lv_color.h **** #elif LV_COLOR_DEPTH == 8
 363:Middlewares/LVGL/GUI/lvgl/src/extra/themes/basic/../../../../src/hal/../draw/../misc/lv_color.h ****     lv_color16_t ret;
 364:Middlewares/LVGL/GUI/lvgl/src/extra/themes/basic/../../../../src/hal/../draw/../misc/lv_color.h ****     LV_COLOR_SET_R16(ret, LV_COLOR_GET_R(color) * 4);  /*(2^5 - 1)/(2^3 - 1) = 31/7 = 4*/
 365:Middlewares/LVGL/GUI/lvgl/src/extra/themes/basic/../../../../src/hal/../draw/../misc/lv_color.h ****     LV_COLOR_SET_G16(ret, LV_COLOR_GET_G(color) * 9);  /*(2^6 - 1)/(2^3 - 1) = 63/7 = 9*/
 366:Middlewares/LVGL/GUI/lvgl/src/extra/themes/basic/../../../../src/hal/../draw/../misc/lv_color.h ****     LV_COLOR_SET_B16(ret, LV_COLOR_GET_B(color) * 10); /*(2^5 - 1)/(2^2 - 1) = 31/3 = 10*/
 367:Middlewares/LVGL/GUI/lvgl/src/extra/themes/basic/../../../../src/hal/../draw/../misc/lv_color.h ****     return ret.full;
 368:Middlewares/LVGL/GUI/lvgl/src/extra/themes/basic/../../../../src/hal/../draw/../misc/lv_color.h **** #elif LV_COLOR_DEPTH == 16
 369:Middlewares/LVGL/GUI/lvgl/src/extra/themes/basic/../../../../src/hal/../draw/../misc/lv_color.h ****     return color.full;
 370:Middlewares/LVGL/GUI/lvgl/src/extra/themes/basic/../../../../src/hal/../draw/../misc/lv_color.h **** #elif LV_COLOR_DEPTH == 32
 371:Middlewares/LVGL/GUI/lvgl/src/extra/themes/basic/../../../../src/hal/../draw/../misc/lv_color.h ****     lv_color16_t ret;
 372:Middlewares/LVGL/GUI/lvgl/src/extra/themes/basic/../../../../src/hal/../draw/../misc/lv_color.h ****     LV_COLOR_SET_R16(ret, LV_COLOR_GET_R(color) >> 3); /*8 - 5  = 3*/
 373:Middlewares/LVGL/GUI/lvgl/src/extra/themes/basic/../../../../src/hal/../draw/../misc/lv_color.h ****     LV_COLOR_SET_G16(ret, LV_COLOR_GET_G(color) >> 2); /*8 - 6  = 2*/
 374:Middlewares/LVGL/GUI/lvgl/src/extra/themes/basic/../../../../src/hal/../draw/../misc/lv_color.h ****     LV_COLOR_SET_B16(ret, LV_COLOR_GET_B(color) >> 3); /*8 - 5  = 3*/
 375:Middlewares/LVGL/GUI/lvgl/src/extra/themes/basic/../../../../src/hal/../draw/../misc/lv_color.h ****     return ret.full;
 376:Middlewares/LVGL/GUI/lvgl/src/extra/themes/basic/../../../../src/hal/../draw/../misc/lv_color.h **** #endif
 377:Middlewares/LVGL/GUI/lvgl/src/extra/themes/basic/../../../../src/hal/../draw/../misc/lv_color.h **** }
 378:Middlewares/LVGL/GUI/lvgl/src/extra/themes/basic/../../../../src/hal/../draw/../misc/lv_color.h **** 
 379:Middlewares/LVGL/GUI/lvgl/src/extra/themes/basic/../../../../src/hal/../draw/../misc/lv_color.h **** static inline uint32_t lv_color_to32(lv_color_t color)
 380:Middlewares/LVGL/GUI/lvgl/src/extra/themes/basic/../../../../src/hal/../draw/../misc/lv_color.h **** {
 381:Middlewares/LVGL/GUI/lvgl/src/extra/themes/basic/../../../../src/hal/../draw/../misc/lv_color.h **** #if LV_COLOR_DEPTH == 1
 382:Middlewares/LVGL/GUI/lvgl/src/extra/themes/basic/../../../../src/hal/../draw/../misc/lv_color.h ****     if(color.full == 0)
 383:Middlewares/LVGL/GUI/lvgl/src/extra/themes/basic/../../../../src/hal/../draw/../misc/lv_color.h ****         return 0xFF000000;
 384:Middlewares/LVGL/GUI/lvgl/src/extra/themes/basic/../../../../src/hal/../draw/../misc/lv_color.h ****     else
 385:Middlewares/LVGL/GUI/lvgl/src/extra/themes/basic/../../../../src/hal/../draw/../misc/lv_color.h ****         return 0xFFFFFFFF;
 386:Middlewares/LVGL/GUI/lvgl/src/extra/themes/basic/../../../../src/hal/../draw/../misc/lv_color.h **** #elif LV_COLOR_DEPTH == 8
 387:Middlewares/LVGL/GUI/lvgl/src/extra/themes/basic/../../../../src/hal/../draw/../misc/lv_color.h ****     lv_color32_t ret;
 388:Middlewares/LVGL/GUI/lvgl/src/extra/themes/basic/../../../../src/hal/../draw/../misc/lv_color.h ****     LV_COLOR_SET_R32(ret, LV_COLOR_GET_R(color) * 36); /*(2^8 - 1)/(2^3 - 1) = 255/7 = 36*/
 389:Middlewares/LVGL/GUI/lvgl/src/extra/themes/basic/../../../../src/hal/../draw/../misc/lv_color.h ****     LV_COLOR_SET_G32(ret, LV_COLOR_GET_G(color) * 36); /*(2^8 - 1)/(2^3 - 1) = 255/7 = 36*/
 390:Middlewares/LVGL/GUI/lvgl/src/extra/themes/basic/../../../../src/hal/../draw/../misc/lv_color.h ****     LV_COLOR_SET_B32(ret, LV_COLOR_GET_B(color) * 85); /*(2^8 - 1)/(2^2 - 1) = 255/3 = 85*/
 391:Middlewares/LVGL/GUI/lvgl/src/extra/themes/basic/../../../../src/hal/../draw/../misc/lv_color.h ****     LV_COLOR_SET_A32(ret, 0xFF);
 392:Middlewares/LVGL/GUI/lvgl/src/extra/themes/basic/../../../../src/hal/../draw/../misc/lv_color.h ****     return ret.full;
 393:Middlewares/LVGL/GUI/lvgl/src/extra/themes/basic/../../../../src/hal/../draw/../misc/lv_color.h **** #elif LV_COLOR_DEPTH == 16
 394:Middlewares/LVGL/GUI/lvgl/src/extra/themes/basic/../../../../src/hal/../draw/../misc/lv_color.h ****     /**
 395:Middlewares/LVGL/GUI/lvgl/src/extra/themes/basic/../../../../src/hal/../draw/../misc/lv_color.h ****      * The floating point math for conversion is:
 396:Middlewares/LVGL/GUI/lvgl/src/extra/themes/basic/../../../../src/hal/../draw/../misc/lv_color.h ****      *  valueto = valuefrom * ( (2^bitsto - 1) / (float)(2^bitsfrom - 1) )
 397:Middlewares/LVGL/GUI/lvgl/src/extra/themes/basic/../../../../src/hal/../draw/../misc/lv_color.h ****      * The faster integer math for conversion is:
 398:Middlewares/LVGL/GUI/lvgl/src/extra/themes/basic/../../../../src/hal/../draw/../misc/lv_color.h ****      *  valueto = ( valuefrom * multiplier + adder ) >> divisor
 399:Middlewares/LVGL/GUI/lvgl/src/extra/themes/basic/../../../../src/hal/../draw/../misc/lv_color.h ****      *   multiplier = FLOOR( ( (2^bitsto - 1) << divisor ) / (float)(2^bitsfrom - 1) )
 400:Middlewares/LVGL/GUI/lvgl/src/extra/themes/basic/../../../../src/hal/../draw/../misc/lv_color.h ****      *
 401:Middlewares/LVGL/GUI/lvgl/src/extra/themes/basic/../../../../src/hal/../draw/../misc/lv_color.h ****      * Find the first divisor where ( adder >> divisor ) <= 0
 402:Middlewares/LVGL/GUI/lvgl/src/extra/themes/basic/../../../../src/hal/../draw/../misc/lv_color.h ****      *
 403:Middlewares/LVGL/GUI/lvgl/src/extra/themes/basic/../../../../src/hal/../draw/../misc/lv_color.h ****      * 5-bit to 8-bit: ( 31 * multiplier + adder ) >> divisor = 255
 404:Middlewares/LVGL/GUI/lvgl/src/extra/themes/basic/../../../../src/hal/../draw/../misc/lv_color.h ****      * divisor  multiplier  adder  min (0)  max (31)
 405:Middlewares/LVGL/GUI/lvgl/src/extra/themes/basic/../../../../src/hal/../draw/../misc/lv_color.h ****      *       0           8      7        7       255
 406:Middlewares/LVGL/GUI/lvgl/src/extra/themes/basic/../../../../src/hal/../draw/../misc/lv_color.h ****      *       1          16     14        7       255
ARM GAS  C:\Users\ADMINI~1\AppData\Local\Temp\cc8gvSPg.s 			page 47


 407:Middlewares/LVGL/GUI/lvgl/src/extra/themes/basic/../../../../src/hal/../draw/../misc/lv_color.h ****      *       2          32     28        7       255
 408:Middlewares/LVGL/GUI/lvgl/src/extra/themes/basic/../../../../src/hal/../draw/../misc/lv_color.h ****      *       3          65     25        3       255
 409:Middlewares/LVGL/GUI/lvgl/src/extra/themes/basic/../../../../src/hal/../draw/../misc/lv_color.h ****      *       4         131     19        1       255
 410:Middlewares/LVGL/GUI/lvgl/src/extra/themes/basic/../../../../src/hal/../draw/../misc/lv_color.h ****      *       5         263      7        0       255
 411:Middlewares/LVGL/GUI/lvgl/src/extra/themes/basic/../../../../src/hal/../draw/../misc/lv_color.h ****      *
 412:Middlewares/LVGL/GUI/lvgl/src/extra/themes/basic/../../../../src/hal/../draw/../misc/lv_color.h ****      * 6-bit to 8-bit: 255 = ( 63 * multiplier + adder ) >> divisor
 413:Middlewares/LVGL/GUI/lvgl/src/extra/themes/basic/../../../../src/hal/../draw/../misc/lv_color.h ****      * divisor  multiplier  adder  min (0)  max (63)
 414:Middlewares/LVGL/GUI/lvgl/src/extra/themes/basic/../../../../src/hal/../draw/../misc/lv_color.h ****      *       0           4      3        3       255
 415:Middlewares/LVGL/GUI/lvgl/src/extra/themes/basic/../../../../src/hal/../draw/../misc/lv_color.h ****      *       1           8      6        3       255
 416:Middlewares/LVGL/GUI/lvgl/src/extra/themes/basic/../../../../src/hal/../draw/../misc/lv_color.h ****      *       2          16     12        3       255
 417:Middlewares/LVGL/GUI/lvgl/src/extra/themes/basic/../../../../src/hal/../draw/../misc/lv_color.h ****      *       3          32     24        3       255
 418:Middlewares/LVGL/GUI/lvgl/src/extra/themes/basic/../../../../src/hal/../draw/../misc/lv_color.h ****      *       4          64     48        3       255
 419:Middlewares/LVGL/GUI/lvgl/src/extra/themes/basic/../../../../src/hal/../draw/../misc/lv_color.h ****      *       5         129     33        1       255
 420:Middlewares/LVGL/GUI/lvgl/src/extra/themes/basic/../../../../src/hal/../draw/../misc/lv_color.h ****      *       6         259      3        0       255
 421:Middlewares/LVGL/GUI/lvgl/src/extra/themes/basic/../../../../src/hal/../draw/../misc/lv_color.h ****      */
 422:Middlewares/LVGL/GUI/lvgl/src/extra/themes/basic/../../../../src/hal/../draw/../misc/lv_color.h **** 
 423:Middlewares/LVGL/GUI/lvgl/src/extra/themes/basic/../../../../src/hal/../draw/../misc/lv_color.h ****     lv_color32_t ret;
 424:Middlewares/LVGL/GUI/lvgl/src/extra/themes/basic/../../../../src/hal/../draw/../misc/lv_color.h ****     LV_COLOR_SET_R32(ret, (LV_COLOR_GET_R(color) * 263 + 7) >> 5);
 425:Middlewares/LVGL/GUI/lvgl/src/extra/themes/basic/../../../../src/hal/../draw/../misc/lv_color.h ****     LV_COLOR_SET_G32(ret, (LV_COLOR_GET_G(color) * 259 + 3) >> 6);
 426:Middlewares/LVGL/GUI/lvgl/src/extra/themes/basic/../../../../src/hal/../draw/../misc/lv_color.h ****     LV_COLOR_SET_B32(ret, (LV_COLOR_GET_B(color) * 263 + 7) >> 5);
 427:Middlewares/LVGL/GUI/lvgl/src/extra/themes/basic/../../../../src/hal/../draw/../misc/lv_color.h ****     LV_COLOR_SET_A32(ret, 0xFF);
 428:Middlewares/LVGL/GUI/lvgl/src/extra/themes/basic/../../../../src/hal/../draw/../misc/lv_color.h ****     return ret.full;
 429:Middlewares/LVGL/GUI/lvgl/src/extra/themes/basic/../../../../src/hal/../draw/../misc/lv_color.h **** #elif LV_COLOR_DEPTH == 32
 430:Middlewares/LVGL/GUI/lvgl/src/extra/themes/basic/../../../../src/hal/../draw/../misc/lv_color.h ****     return color.full;
 431:Middlewares/LVGL/GUI/lvgl/src/extra/themes/basic/../../../../src/hal/../draw/../misc/lv_color.h **** #endif
 432:Middlewares/LVGL/GUI/lvgl/src/extra/themes/basic/../../../../src/hal/../draw/../misc/lv_color.h **** }
 433:Middlewares/LVGL/GUI/lvgl/src/extra/themes/basic/../../../../src/hal/../draw/../misc/lv_color.h **** 
 434:Middlewares/LVGL/GUI/lvgl/src/extra/themes/basic/../../../../src/hal/../draw/../misc/lv_color.h **** //! @cond Doxygen_Suppress
 435:Middlewares/LVGL/GUI/lvgl/src/extra/themes/basic/../../../../src/hal/../draw/../misc/lv_color.h **** 
 436:Middlewares/LVGL/GUI/lvgl/src/extra/themes/basic/../../../../src/hal/../draw/../misc/lv_color.h **** /**
 437:Middlewares/LVGL/GUI/lvgl/src/extra/themes/basic/../../../../src/hal/../draw/../misc/lv_color.h ****  * Mix two colors with a given ratio.
 438:Middlewares/LVGL/GUI/lvgl/src/extra/themes/basic/../../../../src/hal/../draw/../misc/lv_color.h ****  * @param c1 the first color to mix (usually the foreground)
 439:Middlewares/LVGL/GUI/lvgl/src/extra/themes/basic/../../../../src/hal/../draw/../misc/lv_color.h ****  * @param c2 the second color to mix (usually the background)
 440:Middlewares/LVGL/GUI/lvgl/src/extra/themes/basic/../../../../src/hal/../draw/../misc/lv_color.h ****  * @param mix The ratio of the colors. 0: full `c2`, 255: full `c1`, 127: half `c1` and half`c2`
 441:Middlewares/LVGL/GUI/lvgl/src/extra/themes/basic/../../../../src/hal/../draw/../misc/lv_color.h ****  * @return the mixed color
 442:Middlewares/LVGL/GUI/lvgl/src/extra/themes/basic/../../../../src/hal/../draw/../misc/lv_color.h ****  */
 443:Middlewares/LVGL/GUI/lvgl/src/extra/themes/basic/../../../../src/hal/../draw/../misc/lv_color.h **** LV_ATTRIBUTE_FAST_MEM static inline lv_color_t lv_color_mix(lv_color_t c1, lv_color_t c2, uint8_t m
 444:Middlewares/LVGL/GUI/lvgl/src/extra/themes/basic/../../../../src/hal/../draw/../misc/lv_color.h **** {
 445:Middlewares/LVGL/GUI/lvgl/src/extra/themes/basic/../../../../src/hal/../draw/../misc/lv_color.h ****     lv_color_t ret;
 446:Middlewares/LVGL/GUI/lvgl/src/extra/themes/basic/../../../../src/hal/../draw/../misc/lv_color.h **** 
 447:Middlewares/LVGL/GUI/lvgl/src/extra/themes/basic/../../../../src/hal/../draw/../misc/lv_color.h **** #if LV_COLOR_DEPTH == 16 && LV_COLOR_16_SWAP == 0
 448:Middlewares/LVGL/GUI/lvgl/src/extra/themes/basic/../../../../src/hal/../draw/../misc/lv_color.h ****     /*Source: https://stackoverflow.com/a/50012418/1999969*/
 449:Middlewares/LVGL/GUI/lvgl/src/extra/themes/basic/../../../../src/hal/../draw/../misc/lv_color.h ****     mix = (mix + 4) >> 3;
 450:Middlewares/LVGL/GUI/lvgl/src/extra/themes/basic/../../../../src/hal/../draw/../misc/lv_color.h ****     uint32_t bg = (uint32_t)((uint32_t)c2.full | ((uint32_t)c2.full << 16)) &
 451:Middlewares/LVGL/GUI/lvgl/src/extra/themes/basic/../../../../src/hal/../draw/../misc/lv_color.h ****                   0x7E0F81F; /*0b00000111111000001111100000011111*/
 452:Middlewares/LVGL/GUI/lvgl/src/extra/themes/basic/../../../../src/hal/../draw/../misc/lv_color.h ****     uint32_t fg = (uint32_t)((uint32_t)c1.full | ((uint32_t)c1.full << 16)) & 0x7E0F81F;
 453:Middlewares/LVGL/GUI/lvgl/src/extra/themes/basic/../../../../src/hal/../draw/../misc/lv_color.h ****     uint32_t result = ((((fg - bg) * mix) >> 5) + bg) & 0x7E0F81F;
 454:Middlewares/LVGL/GUI/lvgl/src/extra/themes/basic/../../../../src/hal/../draw/../misc/lv_color.h ****     ret.full = (uint16_t)((result >> 16) | result);
 455:Middlewares/LVGL/GUI/lvgl/src/extra/themes/basic/../../../../src/hal/../draw/../misc/lv_color.h **** #elif LV_COLOR_DEPTH != 1
 456:Middlewares/LVGL/GUI/lvgl/src/extra/themes/basic/../../../../src/hal/../draw/../misc/lv_color.h ****     /*LV_COLOR_DEPTH == 8, 16 or 32*/
 457:Middlewares/LVGL/GUI/lvgl/src/extra/themes/basic/../../../../src/hal/../draw/../misc/lv_color.h ****     LV_COLOR_SET_R(ret, LV_UDIV255((uint16_t)LV_COLOR_GET_R(c1) * mix + LV_COLOR_GET_R(c2) *
 458:Middlewares/LVGL/GUI/lvgl/src/extra/themes/basic/../../../../src/hal/../draw/../misc/lv_color.h ****                                    (255 - mix) + LV_COLOR_MIX_ROUND_OFS));
 459:Middlewares/LVGL/GUI/lvgl/src/extra/themes/basic/../../../../src/hal/../draw/../misc/lv_color.h ****     LV_COLOR_SET_G(ret, LV_UDIV255((uint16_t)LV_COLOR_GET_G(c1) * mix + LV_COLOR_GET_G(c2) *
 460:Middlewares/LVGL/GUI/lvgl/src/extra/themes/basic/../../../../src/hal/../draw/../misc/lv_color.h ****                                    (255 - mix) + LV_COLOR_MIX_ROUND_OFS));
 461:Middlewares/LVGL/GUI/lvgl/src/extra/themes/basic/../../../../src/hal/../draw/../misc/lv_color.h ****     LV_COLOR_SET_B(ret, LV_UDIV255((uint16_t)LV_COLOR_GET_B(c1) * mix + LV_COLOR_GET_B(c2) *
 462:Middlewares/LVGL/GUI/lvgl/src/extra/themes/basic/../../../../src/hal/../draw/../misc/lv_color.h ****                                    (255 - mix) + LV_COLOR_MIX_ROUND_OFS));
 463:Middlewares/LVGL/GUI/lvgl/src/extra/themes/basic/../../../../src/hal/../draw/../misc/lv_color.h ****     LV_COLOR_SET_A(ret, 0xFF);
ARM GAS  C:\Users\ADMINI~1\AppData\Local\Temp\cc8gvSPg.s 			page 48


 464:Middlewares/LVGL/GUI/lvgl/src/extra/themes/basic/../../../../src/hal/../draw/../misc/lv_color.h **** #else
 465:Middlewares/LVGL/GUI/lvgl/src/extra/themes/basic/../../../../src/hal/../draw/../misc/lv_color.h ****     /*LV_COLOR_DEPTH == 1*/
 466:Middlewares/LVGL/GUI/lvgl/src/extra/themes/basic/../../../../src/hal/../draw/../misc/lv_color.h ****     ret.full = mix > LV_OPA_50 ? c1.full : c2.full;
 467:Middlewares/LVGL/GUI/lvgl/src/extra/themes/basic/../../../../src/hal/../draw/../misc/lv_color.h **** #endif
 468:Middlewares/LVGL/GUI/lvgl/src/extra/themes/basic/../../../../src/hal/../draw/../misc/lv_color.h **** 
 469:Middlewares/LVGL/GUI/lvgl/src/extra/themes/basic/../../../../src/hal/../draw/../misc/lv_color.h ****     return ret;
 470:Middlewares/LVGL/GUI/lvgl/src/extra/themes/basic/../../../../src/hal/../draw/../misc/lv_color.h **** }
 471:Middlewares/LVGL/GUI/lvgl/src/extra/themes/basic/../../../../src/hal/../draw/../misc/lv_color.h **** 
 472:Middlewares/LVGL/GUI/lvgl/src/extra/themes/basic/../../../../src/hal/../draw/../misc/lv_color.h **** LV_ATTRIBUTE_FAST_MEM static inline void lv_color_premult(lv_color_t c, uint8_t mix, uint16_t * out
 473:Middlewares/LVGL/GUI/lvgl/src/extra/themes/basic/../../../../src/hal/../draw/../misc/lv_color.h **** {
 474:Middlewares/LVGL/GUI/lvgl/src/extra/themes/basic/../../../../src/hal/../draw/../misc/lv_color.h **** #if LV_COLOR_DEPTH != 1
 475:Middlewares/LVGL/GUI/lvgl/src/extra/themes/basic/../../../../src/hal/../draw/../misc/lv_color.h ****     out[0] = (uint16_t)LV_COLOR_GET_R(c) * mix;
 476:Middlewares/LVGL/GUI/lvgl/src/extra/themes/basic/../../../../src/hal/../draw/../misc/lv_color.h ****     out[1] = (uint16_t)LV_COLOR_GET_G(c) * mix;
 477:Middlewares/LVGL/GUI/lvgl/src/extra/themes/basic/../../../../src/hal/../draw/../misc/lv_color.h ****     out[2] = (uint16_t)LV_COLOR_GET_B(c) * mix;
 478:Middlewares/LVGL/GUI/lvgl/src/extra/themes/basic/../../../../src/hal/../draw/../misc/lv_color.h **** #else
 479:Middlewares/LVGL/GUI/lvgl/src/extra/themes/basic/../../../../src/hal/../draw/../misc/lv_color.h ****     (void) mix;
 480:Middlewares/LVGL/GUI/lvgl/src/extra/themes/basic/../../../../src/hal/../draw/../misc/lv_color.h ****     /*Pre-multiplication can't be used with 1 bpp*/
 481:Middlewares/LVGL/GUI/lvgl/src/extra/themes/basic/../../../../src/hal/../draw/../misc/lv_color.h ****     out[0] = LV_COLOR_GET_R(c);
 482:Middlewares/LVGL/GUI/lvgl/src/extra/themes/basic/../../../../src/hal/../draw/../misc/lv_color.h ****     out[1] = LV_COLOR_GET_G(c);
 483:Middlewares/LVGL/GUI/lvgl/src/extra/themes/basic/../../../../src/hal/../draw/../misc/lv_color.h ****     out[2] = LV_COLOR_GET_B(c);
 484:Middlewares/LVGL/GUI/lvgl/src/extra/themes/basic/../../../../src/hal/../draw/../misc/lv_color.h **** #endif
 485:Middlewares/LVGL/GUI/lvgl/src/extra/themes/basic/../../../../src/hal/../draw/../misc/lv_color.h **** 
 486:Middlewares/LVGL/GUI/lvgl/src/extra/themes/basic/../../../../src/hal/../draw/../misc/lv_color.h **** }
 487:Middlewares/LVGL/GUI/lvgl/src/extra/themes/basic/../../../../src/hal/../draw/../misc/lv_color.h **** 
 488:Middlewares/LVGL/GUI/lvgl/src/extra/themes/basic/../../../../src/hal/../draw/../misc/lv_color.h **** /**
 489:Middlewares/LVGL/GUI/lvgl/src/extra/themes/basic/../../../../src/hal/../draw/../misc/lv_color.h ****  * Mix two colors with a given ratio. It runs faster then `lv_color_mix` but requires some pre comp
 490:Middlewares/LVGL/GUI/lvgl/src/extra/themes/basic/../../../../src/hal/../draw/../misc/lv_color.h ****  * @param premult_c1 The first color. Should be preprocessed with `lv_color_premult(c1)`
 491:Middlewares/LVGL/GUI/lvgl/src/extra/themes/basic/../../../../src/hal/../draw/../misc/lv_color.h ****  * @param c2 The second color. As it is no pre computation required on it
 492:Middlewares/LVGL/GUI/lvgl/src/extra/themes/basic/../../../../src/hal/../draw/../misc/lv_color.h ****  * @param mix The ratio of the colors. 0: full `c1`, 255: full `c2`, 127: half `c1` and half `c2`.
 493:Middlewares/LVGL/GUI/lvgl/src/extra/themes/basic/../../../../src/hal/../draw/../misc/lv_color.h ****  *            Should be modified like mix = `255 - mix`
 494:Middlewares/LVGL/GUI/lvgl/src/extra/themes/basic/../../../../src/hal/../draw/../misc/lv_color.h ****  * @return the mixed color
 495:Middlewares/LVGL/GUI/lvgl/src/extra/themes/basic/../../../../src/hal/../draw/../misc/lv_color.h ****  * @note 255 won't give clearly `c1`.
 496:Middlewares/LVGL/GUI/lvgl/src/extra/themes/basic/../../../../src/hal/../draw/../misc/lv_color.h ****  */
 497:Middlewares/LVGL/GUI/lvgl/src/extra/themes/basic/../../../../src/hal/../draw/../misc/lv_color.h **** LV_ATTRIBUTE_FAST_MEM static inline lv_color_t lv_color_mix_premult(uint16_t * premult_c1, lv_color
 498:Middlewares/LVGL/GUI/lvgl/src/extra/themes/basic/../../../../src/hal/../draw/../misc/lv_color.h **** {
 499:Middlewares/LVGL/GUI/lvgl/src/extra/themes/basic/../../../../src/hal/../draw/../misc/lv_color.h ****     lv_color_t ret;
 500:Middlewares/LVGL/GUI/lvgl/src/extra/themes/basic/../../../../src/hal/../draw/../misc/lv_color.h **** #if LV_COLOR_DEPTH != 1
 501:Middlewares/LVGL/GUI/lvgl/src/extra/themes/basic/../../../../src/hal/../draw/../misc/lv_color.h ****     /*LV_COLOR_DEPTH == 8 or 32*/
 502:Middlewares/LVGL/GUI/lvgl/src/extra/themes/basic/../../../../src/hal/../draw/../misc/lv_color.h ****     LV_COLOR_SET_R(ret, LV_UDIV255(premult_c1[0] + LV_COLOR_GET_R(c2) * mix + LV_COLOR_MIX_ROUND_OF
 503:Middlewares/LVGL/GUI/lvgl/src/extra/themes/basic/../../../../src/hal/../draw/../misc/lv_color.h ****     LV_COLOR_SET_G(ret, LV_UDIV255(premult_c1[1] + LV_COLOR_GET_G(c2) * mix + LV_COLOR_MIX_ROUND_OF
 504:Middlewares/LVGL/GUI/lvgl/src/extra/themes/basic/../../../../src/hal/../draw/../misc/lv_color.h ****     LV_COLOR_SET_B(ret, LV_UDIV255(premult_c1[2] + LV_COLOR_GET_B(c2) * mix + LV_COLOR_MIX_ROUND_OF
 505:Middlewares/LVGL/GUI/lvgl/src/extra/themes/basic/../../../../src/hal/../draw/../misc/lv_color.h ****     LV_COLOR_SET_A(ret, 0xFF);
 506:Middlewares/LVGL/GUI/lvgl/src/extra/themes/basic/../../../../src/hal/../draw/../misc/lv_color.h **** #else
 507:Middlewares/LVGL/GUI/lvgl/src/extra/themes/basic/../../../../src/hal/../draw/../misc/lv_color.h ****     /*LV_COLOR_DEPTH == 1*/
 508:Middlewares/LVGL/GUI/lvgl/src/extra/themes/basic/../../../../src/hal/../draw/../misc/lv_color.h ****     /*Restore color1*/
 509:Middlewares/LVGL/GUI/lvgl/src/extra/themes/basic/../../../../src/hal/../draw/../misc/lv_color.h ****     lv_color_t c1;
 510:Middlewares/LVGL/GUI/lvgl/src/extra/themes/basic/../../../../src/hal/../draw/../misc/lv_color.h ****     LV_COLOR_SET_R(c1, premult_c1[0]);
 511:Middlewares/LVGL/GUI/lvgl/src/extra/themes/basic/../../../../src/hal/../draw/../misc/lv_color.h ****     LV_COLOR_SET_G(c1, premult_c1[1]);
 512:Middlewares/LVGL/GUI/lvgl/src/extra/themes/basic/../../../../src/hal/../draw/../misc/lv_color.h ****     LV_COLOR_SET_B(c1, premult_c1[2]);
 513:Middlewares/LVGL/GUI/lvgl/src/extra/themes/basic/../../../../src/hal/../draw/../misc/lv_color.h ****     ret.full = mix > LV_OPA_50 ? c2.full : c1.full;
 514:Middlewares/LVGL/GUI/lvgl/src/extra/themes/basic/../../../../src/hal/../draw/../misc/lv_color.h **** #endif
 515:Middlewares/LVGL/GUI/lvgl/src/extra/themes/basic/../../../../src/hal/../draw/../misc/lv_color.h **** 
 516:Middlewares/LVGL/GUI/lvgl/src/extra/themes/basic/../../../../src/hal/../draw/../misc/lv_color.h ****     return ret;
 517:Middlewares/LVGL/GUI/lvgl/src/extra/themes/basic/../../../../src/hal/../draw/../misc/lv_color.h **** }
 518:Middlewares/LVGL/GUI/lvgl/src/extra/themes/basic/../../../../src/hal/../draw/../misc/lv_color.h **** 
 519:Middlewares/LVGL/GUI/lvgl/src/extra/themes/basic/../../../../src/hal/../draw/../misc/lv_color.h **** /**
 520:Middlewares/LVGL/GUI/lvgl/src/extra/themes/basic/../../../../src/hal/../draw/../misc/lv_color.h ****  * Mix two colors. Both color can have alpha value.
ARM GAS  C:\Users\ADMINI~1\AppData\Local\Temp\cc8gvSPg.s 			page 49


 521:Middlewares/LVGL/GUI/lvgl/src/extra/themes/basic/../../../../src/hal/../draw/../misc/lv_color.h ****  * @param bg_color background color
 522:Middlewares/LVGL/GUI/lvgl/src/extra/themes/basic/../../../../src/hal/../draw/../misc/lv_color.h ****  * @param bg_opa alpha of the background color
 523:Middlewares/LVGL/GUI/lvgl/src/extra/themes/basic/../../../../src/hal/../draw/../misc/lv_color.h ****  * @param fg_color foreground color
 524:Middlewares/LVGL/GUI/lvgl/src/extra/themes/basic/../../../../src/hal/../draw/../misc/lv_color.h ****  * @param fg_opa alpha of the foreground color
 525:Middlewares/LVGL/GUI/lvgl/src/extra/themes/basic/../../../../src/hal/../draw/../misc/lv_color.h ****  * @param res_color the result color
 526:Middlewares/LVGL/GUI/lvgl/src/extra/themes/basic/../../../../src/hal/../draw/../misc/lv_color.h ****  * @param res_opa the result opacity
 527:Middlewares/LVGL/GUI/lvgl/src/extra/themes/basic/../../../../src/hal/../draw/../misc/lv_color.h ****  */
 528:Middlewares/LVGL/GUI/lvgl/src/extra/themes/basic/../../../../src/hal/../draw/../misc/lv_color.h **** LV_ATTRIBUTE_FAST_MEM static inline void lv_color_mix_with_alpha(lv_color_t bg_color, lv_opa_t bg_o
 529:Middlewares/LVGL/GUI/lvgl/src/extra/themes/basic/../../../../src/hal/../draw/../misc/lv_color.h ****                                                                  lv_color_t fg_color, lv_opa_t fg_o
 530:Middlewares/LVGL/GUI/lvgl/src/extra/themes/basic/../../../../src/hal/../draw/../misc/lv_color.h ****                                                                  lv_color_t * res_color, lv_opa_t *
 531:Middlewares/LVGL/GUI/lvgl/src/extra/themes/basic/../../../../src/hal/../draw/../misc/lv_color.h **** {
 532:Middlewares/LVGL/GUI/lvgl/src/extra/themes/basic/../../../../src/hal/../draw/../misc/lv_color.h ****     /*Pick the foreground if it's fully opaque or the Background is fully transparent*/
 533:Middlewares/LVGL/GUI/lvgl/src/extra/themes/basic/../../../../src/hal/../draw/../misc/lv_color.h ****     if(fg_opa >= LV_OPA_MAX || bg_opa <= LV_OPA_MIN) {
 534:Middlewares/LVGL/GUI/lvgl/src/extra/themes/basic/../../../../src/hal/../draw/../misc/lv_color.h ****         res_color->full = fg_color.full;
 535:Middlewares/LVGL/GUI/lvgl/src/extra/themes/basic/../../../../src/hal/../draw/../misc/lv_color.h ****         *res_opa = fg_opa;
 536:Middlewares/LVGL/GUI/lvgl/src/extra/themes/basic/../../../../src/hal/../draw/../misc/lv_color.h ****     }
 537:Middlewares/LVGL/GUI/lvgl/src/extra/themes/basic/../../../../src/hal/../draw/../misc/lv_color.h ****     /*Transparent foreground: use the Background*/
 538:Middlewares/LVGL/GUI/lvgl/src/extra/themes/basic/../../../../src/hal/../draw/../misc/lv_color.h ****     else if(fg_opa <= LV_OPA_MIN) {
 539:Middlewares/LVGL/GUI/lvgl/src/extra/themes/basic/../../../../src/hal/../draw/../misc/lv_color.h ****         res_color->full = bg_color.full;
 540:Middlewares/LVGL/GUI/lvgl/src/extra/themes/basic/../../../../src/hal/../draw/../misc/lv_color.h ****         *res_opa = bg_opa;
 541:Middlewares/LVGL/GUI/lvgl/src/extra/themes/basic/../../../../src/hal/../draw/../misc/lv_color.h ****     }
 542:Middlewares/LVGL/GUI/lvgl/src/extra/themes/basic/../../../../src/hal/../draw/../misc/lv_color.h ****     /*Opaque background: use simple mix*/
 543:Middlewares/LVGL/GUI/lvgl/src/extra/themes/basic/../../../../src/hal/../draw/../misc/lv_color.h ****     else if(bg_opa >= LV_OPA_MAX) {
 544:Middlewares/LVGL/GUI/lvgl/src/extra/themes/basic/../../../../src/hal/../draw/../misc/lv_color.h ****         *res_color = lv_color_mix(fg_color, bg_color, fg_opa);
 545:Middlewares/LVGL/GUI/lvgl/src/extra/themes/basic/../../../../src/hal/../draw/../misc/lv_color.h ****         *res_opa = LV_OPA_COVER;
 546:Middlewares/LVGL/GUI/lvgl/src/extra/themes/basic/../../../../src/hal/../draw/../misc/lv_color.h ****     }
 547:Middlewares/LVGL/GUI/lvgl/src/extra/themes/basic/../../../../src/hal/../draw/../misc/lv_color.h ****     /*Both colors have alpha. Expensive calculation need to be applied*/
 548:Middlewares/LVGL/GUI/lvgl/src/extra/themes/basic/../../../../src/hal/../draw/../misc/lv_color.h ****     else {
 549:Middlewares/LVGL/GUI/lvgl/src/extra/themes/basic/../../../../src/hal/../draw/../misc/lv_color.h ****         /*Save the parameters and the result. If they will be asked again don't compute again*/
 550:Middlewares/LVGL/GUI/lvgl/src/extra/themes/basic/../../../../src/hal/../draw/../misc/lv_color.h ****         static lv_opa_t fg_opa_save     = 0;
 551:Middlewares/LVGL/GUI/lvgl/src/extra/themes/basic/../../../../src/hal/../draw/../misc/lv_color.h ****         static lv_opa_t bg_opa_save     = 0;
 552:Middlewares/LVGL/GUI/lvgl/src/extra/themes/basic/../../../../src/hal/../draw/../misc/lv_color.h ****         static lv_color_t fg_color_save = _LV_COLOR_ZERO_INITIALIZER;
 553:Middlewares/LVGL/GUI/lvgl/src/extra/themes/basic/../../../../src/hal/../draw/../misc/lv_color.h ****         static lv_color_t bg_color_save = _LV_COLOR_ZERO_INITIALIZER;
 554:Middlewares/LVGL/GUI/lvgl/src/extra/themes/basic/../../../../src/hal/../draw/../misc/lv_color.h ****         static lv_color_t res_color_saved = _LV_COLOR_ZERO_INITIALIZER;
 555:Middlewares/LVGL/GUI/lvgl/src/extra/themes/basic/../../../../src/hal/../draw/../misc/lv_color.h ****         static lv_opa_t res_opa_saved = 0;
 556:Middlewares/LVGL/GUI/lvgl/src/extra/themes/basic/../../../../src/hal/../draw/../misc/lv_color.h **** 
 557:Middlewares/LVGL/GUI/lvgl/src/extra/themes/basic/../../../../src/hal/../draw/../misc/lv_color.h ****         if(fg_opa != fg_opa_save || bg_opa != bg_opa_save || fg_color.full != fg_color_save.full ||
 558:Middlewares/LVGL/GUI/lvgl/src/extra/themes/basic/../../../../src/hal/../draw/../misc/lv_color.h ****            bg_color.full != bg_color_save.full) {
 559:Middlewares/LVGL/GUI/lvgl/src/extra/themes/basic/../../../../src/hal/../draw/../misc/lv_color.h ****             fg_opa_save        = fg_opa;
 560:Middlewares/LVGL/GUI/lvgl/src/extra/themes/basic/../../../../src/hal/../draw/../misc/lv_color.h ****             bg_opa_save        = bg_opa;
 561:Middlewares/LVGL/GUI/lvgl/src/extra/themes/basic/../../../../src/hal/../draw/../misc/lv_color.h ****             fg_color_save.full = fg_color.full;
 562:Middlewares/LVGL/GUI/lvgl/src/extra/themes/basic/../../../../src/hal/../draw/../misc/lv_color.h ****             bg_color_save.full = bg_color.full;
 563:Middlewares/LVGL/GUI/lvgl/src/extra/themes/basic/../../../../src/hal/../draw/../misc/lv_color.h ****             /*Info:
 564:Middlewares/LVGL/GUI/lvgl/src/extra/themes/basic/../../../../src/hal/../draw/../misc/lv_color.h ****              * https://en.wikipedia.org/wiki/Alpha_compositing#Analytical_derivation_of_the_over_op
 565:Middlewares/LVGL/GUI/lvgl/src/extra/themes/basic/../../../../src/hal/../draw/../misc/lv_color.h ****             res_opa_saved = 255 - ((uint16_t)((uint16_t)(255 - fg_opa) * (255 - bg_opa)) >> 8);
 566:Middlewares/LVGL/GUI/lvgl/src/extra/themes/basic/../../../../src/hal/../draw/../misc/lv_color.h ****             LV_ASSERT(res_opa_saved != 0);
 567:Middlewares/LVGL/GUI/lvgl/src/extra/themes/basic/../../../../src/hal/../draw/../misc/lv_color.h ****             lv_opa_t ratio = (uint16_t)((uint16_t)fg_opa * 255) / res_opa_saved;
 568:Middlewares/LVGL/GUI/lvgl/src/extra/themes/basic/../../../../src/hal/../draw/../misc/lv_color.h ****             res_color_saved = lv_color_mix(fg_color, bg_color, ratio);
 569:Middlewares/LVGL/GUI/lvgl/src/extra/themes/basic/../../../../src/hal/../draw/../misc/lv_color.h **** 
 570:Middlewares/LVGL/GUI/lvgl/src/extra/themes/basic/../../../../src/hal/../draw/../misc/lv_color.h ****         }
 571:Middlewares/LVGL/GUI/lvgl/src/extra/themes/basic/../../../../src/hal/../draw/../misc/lv_color.h **** 
 572:Middlewares/LVGL/GUI/lvgl/src/extra/themes/basic/../../../../src/hal/../draw/../misc/lv_color.h ****         res_color->full = res_color_saved.full;
 573:Middlewares/LVGL/GUI/lvgl/src/extra/themes/basic/../../../../src/hal/../draw/../misc/lv_color.h ****         *res_opa = res_opa_saved;
 574:Middlewares/LVGL/GUI/lvgl/src/extra/themes/basic/../../../../src/hal/../draw/../misc/lv_color.h ****     }
 575:Middlewares/LVGL/GUI/lvgl/src/extra/themes/basic/../../../../src/hal/../draw/../misc/lv_color.h **** }
 576:Middlewares/LVGL/GUI/lvgl/src/extra/themes/basic/../../../../src/hal/../draw/../misc/lv_color.h **** 
 577:Middlewares/LVGL/GUI/lvgl/src/extra/themes/basic/../../../../src/hal/../draw/../misc/lv_color.h **** //! @endcond
ARM GAS  C:\Users\ADMINI~1\AppData\Local\Temp\cc8gvSPg.s 			page 50


 578:Middlewares/LVGL/GUI/lvgl/src/extra/themes/basic/../../../../src/hal/../draw/../misc/lv_color.h **** 
 579:Middlewares/LVGL/GUI/lvgl/src/extra/themes/basic/../../../../src/hal/../draw/../misc/lv_color.h **** /**
 580:Middlewares/LVGL/GUI/lvgl/src/extra/themes/basic/../../../../src/hal/../draw/../misc/lv_color.h ****  * Get the brightness of a color
 581:Middlewares/LVGL/GUI/lvgl/src/extra/themes/basic/../../../../src/hal/../draw/../misc/lv_color.h ****  * @param color a color
 582:Middlewares/LVGL/GUI/lvgl/src/extra/themes/basic/../../../../src/hal/../draw/../misc/lv_color.h ****  * @return the brightness [0..255]
 583:Middlewares/LVGL/GUI/lvgl/src/extra/themes/basic/../../../../src/hal/../draw/../misc/lv_color.h ****  */
 584:Middlewares/LVGL/GUI/lvgl/src/extra/themes/basic/../../../../src/hal/../draw/../misc/lv_color.h **** static inline uint8_t lv_color_brightness(lv_color_t color)
 585:Middlewares/LVGL/GUI/lvgl/src/extra/themes/basic/../../../../src/hal/../draw/../misc/lv_color.h **** {
 586:Middlewares/LVGL/GUI/lvgl/src/extra/themes/basic/../../../../src/hal/../draw/../misc/lv_color.h ****     lv_color32_t c32;
 587:Middlewares/LVGL/GUI/lvgl/src/extra/themes/basic/../../../../src/hal/../draw/../misc/lv_color.h ****     c32.full        = lv_color_to32(color);
 588:Middlewares/LVGL/GUI/lvgl/src/extra/themes/basic/../../../../src/hal/../draw/../misc/lv_color.h ****     uint16_t bright = (uint16_t)(3u * LV_COLOR_GET_R32(c32) + LV_COLOR_GET_B32(c32) + 4u * LV_COLOR
 589:Middlewares/LVGL/GUI/lvgl/src/extra/themes/basic/../../../../src/hal/../draw/../misc/lv_color.h ****     return (uint8_t)(bright >> 3);
 590:Middlewares/LVGL/GUI/lvgl/src/extra/themes/basic/../../../../src/hal/../draw/../misc/lv_color.h **** }
 591:Middlewares/LVGL/GUI/lvgl/src/extra/themes/basic/../../../../src/hal/../draw/../misc/lv_color.h **** 
 592:Middlewares/LVGL/GUI/lvgl/src/extra/themes/basic/../../../../src/hal/../draw/../misc/lv_color.h **** static inline lv_color_t lv_color_make(uint8_t r, uint8_t g, uint8_t b)
 593:Middlewares/LVGL/GUI/lvgl/src/extra/themes/basic/../../../../src/hal/../draw/../misc/lv_color.h **** {
 594:Middlewares/LVGL/GUI/lvgl/src/extra/themes/basic/../../../../src/hal/../draw/../misc/lv_color.h ****     return _LV_COLOR_MAKE_TYPE_HELPER LV_COLOR_MAKE(r, g, b);
 595:Middlewares/LVGL/GUI/lvgl/src/extra/themes/basic/../../../../src/hal/../draw/../misc/lv_color.h **** }
 596:Middlewares/LVGL/GUI/lvgl/src/extra/themes/basic/../../../../src/hal/../draw/../misc/lv_color.h **** 
 597:Middlewares/LVGL/GUI/lvgl/src/extra/themes/basic/../../../../src/hal/../draw/../misc/lv_color.h **** static inline lv_color_t lv_color_hex(uint32_t c)
 598:Middlewares/LVGL/GUI/lvgl/src/extra/themes/basic/../../../../src/hal/../draw/../misc/lv_color.h **** {
 599:Middlewares/LVGL/GUI/lvgl/src/extra/themes/basic/../../../../src/hal/../draw/../misc/lv_color.h **** #if LV_COLOR_DEPTH == 16
 600:Middlewares/LVGL/GUI/lvgl/src/extra/themes/basic/../../../../src/hal/../draw/../misc/lv_color.h ****     lv_color_t r;
 601:Middlewares/LVGL/GUI/lvgl/src/extra/themes/basic/../../../../src/hal/../draw/../misc/lv_color.h **** #if LV_COLOR_16_SWAP == 0
 602:Middlewares/LVGL/GUI/lvgl/src/extra/themes/basic/../../../../src/hal/../draw/../misc/lv_color.h ****     /* Convert a 4 bytes per pixel in format ARGB32 to R5G6B5 format
 603:Middlewares/LVGL/GUI/lvgl/src/extra/themes/basic/../../../../src/hal/../draw/../misc/lv_color.h ****         naive way (by calling lv_color_make with components):
 604:Middlewares/LVGL/GUI/lvgl/src/extra/themes/basic/../../../../src/hal/../draw/../misc/lv_color.h ****                     r = ((c & 0xFF0000) >> 19)
 605:Middlewares/LVGL/GUI/lvgl/src/extra/themes/basic/../../../../src/hal/../draw/../misc/lv_color.h ****                     g = ((c & 0xFF00) >> 10)
 606:Middlewares/LVGL/GUI/lvgl/src/extra/themes/basic/../../../../src/hal/../draw/../misc/lv_color.h ****                     b = ((c & 0xFF) >> 3)
 607:Middlewares/LVGL/GUI/lvgl/src/extra/themes/basic/../../../../src/hal/../draw/../misc/lv_color.h ****                     rgb565 = (r << 11) | (g << 5) | b
 608:Middlewares/LVGL/GUI/lvgl/src/extra/themes/basic/../../../../src/hal/../draw/../misc/lv_color.h ****         That's 3 mask, 5 bitshift and 2 or operations
 609:Middlewares/LVGL/GUI/lvgl/src/extra/themes/basic/../../../../src/hal/../draw/../misc/lv_color.h **** 
 610:Middlewares/LVGL/GUI/lvgl/src/extra/themes/basic/../../../../src/hal/../draw/../misc/lv_color.h ****         A bit better:
 611:Middlewares/LVGL/GUI/lvgl/src/extra/themes/basic/../../../../src/hal/../draw/../misc/lv_color.h ****                     r = ((c & 0xF80000) >> 8)
 612:Middlewares/LVGL/GUI/lvgl/src/extra/themes/basic/../../../../src/hal/../draw/../misc/lv_color.h ****                     g = ((c & 0xFC00) >> 5)
 613:Middlewares/LVGL/GUI/lvgl/src/extra/themes/basic/../../../../src/hal/../draw/../misc/lv_color.h ****                     b = ((c & 0xFF) >> 3)
 614:Middlewares/LVGL/GUI/lvgl/src/extra/themes/basic/../../../../src/hal/../draw/../misc/lv_color.h ****                     rgb565 = r | g | b
 615:Middlewares/LVGL/GUI/lvgl/src/extra/themes/basic/../../../../src/hal/../draw/../misc/lv_color.h ****         That's 3 mask, 3 bitshifts and 2 or operations */
 616:Middlewares/LVGL/GUI/lvgl/src/extra/themes/basic/../../../../src/hal/../draw/../misc/lv_color.h ****     r.full = (uint16_t)(((c & 0xF80000) >> 8) | ((c & 0xFC00) >> 5) | ((c & 0xFF) >> 3));
 617:Middlewares/LVGL/GUI/lvgl/src/extra/themes/basic/../../../../src/hal/../draw/../misc/lv_color.h **** #else
 618:Middlewares/LVGL/GUI/lvgl/src/extra/themes/basic/../../../../src/hal/../draw/../misc/lv_color.h ****     /* We want: rrrr rrrr GGGg gggg bbbb bbbb => gggb bbbb rrrr rGGG */
 619:Middlewares/LVGL/GUI/lvgl/src/extra/themes/basic/../../../../src/hal/../draw/../misc/lv_color.h ****     r.full = (uint16_t)(((c & 0xF80000) >> 16) | ((c & 0xFC00) >> 13) | ((c & 0x1C00) << 3) | ((c &
 620:Middlewares/LVGL/GUI/lvgl/src/extra/themes/basic/../../../../src/hal/../draw/../misc/lv_color.h **** #endif
 621:Middlewares/LVGL/GUI/lvgl/src/extra/themes/basic/../../../../src/hal/../draw/../misc/lv_color.h ****     return r;
 622:Middlewares/LVGL/GUI/lvgl/src/extra/themes/basic/../../../../src/hal/../draw/../misc/lv_color.h **** #elif LV_COLOR_DEPTH == 32
 623:Middlewares/LVGL/GUI/lvgl/src/extra/themes/basic/../../../../src/hal/../draw/../misc/lv_color.h ****     lv_color_t r;
 624:Middlewares/LVGL/GUI/lvgl/src/extra/themes/basic/../../../../src/hal/../draw/../misc/lv_color.h ****     r.full = c | 0xFF000000;
 625:Middlewares/LVGL/GUI/lvgl/src/extra/themes/basic/../../../../src/hal/../draw/../misc/lv_color.h ****     return r;
 626:Middlewares/LVGL/GUI/lvgl/src/extra/themes/basic/../../../../src/hal/../draw/../misc/lv_color.h **** #else /*LV_COLOR_DEPTH == 8*/
 627:Middlewares/LVGL/GUI/lvgl/src/extra/themes/basic/../../../../src/hal/../draw/../misc/lv_color.h ****     return lv_color_make((uint8_t)((c >> 16) & 0xFF), (uint8_t)((c >> 8) & 0xFF), (uint8_t)(c & 0xF
 628:Middlewares/LVGL/GUI/lvgl/src/extra/themes/basic/../../../../src/hal/../draw/../misc/lv_color.h **** #endif
 629:Middlewares/LVGL/GUI/lvgl/src/extra/themes/basic/../../../../src/hal/../draw/../misc/lv_color.h **** }
 630:Middlewares/LVGL/GUI/lvgl/src/extra/themes/basic/../../../../src/hal/../draw/../misc/lv_color.h **** 
 631:Middlewares/LVGL/GUI/lvgl/src/extra/themes/basic/../../../../src/hal/../draw/../misc/lv_color.h **** static inline lv_color_t lv_color_hex3(uint32_t c)
 632:Middlewares/LVGL/GUI/lvgl/src/extra/themes/basic/../../../../src/hal/../draw/../misc/lv_color.h **** {
 633:Middlewares/LVGL/GUI/lvgl/src/extra/themes/basic/../../../../src/hal/../draw/../misc/lv_color.h ****     return lv_color_make((uint8_t)(((c >> 4) & 0xF0) | ((c >> 8) & 0xF)), (uint8_t)((c & 0xF0) | ((
 634:Middlewares/LVGL/GUI/lvgl/src/extra/themes/basic/../../../../src/hal/../draw/../misc/lv_color.h ****                          (uint8_t)((c & 0xF) | ((c & 0xF) << 4)));
ARM GAS  C:\Users\ADMINI~1\AppData\Local\Temp\cc8gvSPg.s 			page 51


 635:Middlewares/LVGL/GUI/lvgl/src/extra/themes/basic/../../../../src/hal/../draw/../misc/lv_color.h **** }
 636:Middlewares/LVGL/GUI/lvgl/src/extra/themes/basic/../../../../src/hal/../draw/../misc/lv_color.h **** 
 637:Middlewares/LVGL/GUI/lvgl/src/extra/themes/basic/../../../../src/hal/../draw/../misc/lv_color.h **** static inline void lv_color_filter_dsc_init(lv_color_filter_dsc_t * dsc, lv_color_filter_cb_t cb)
 638:Middlewares/LVGL/GUI/lvgl/src/extra/themes/basic/../../../../src/hal/../draw/../misc/lv_color.h **** {
 639:Middlewares/LVGL/GUI/lvgl/src/extra/themes/basic/../../../../src/hal/../draw/../misc/lv_color.h ****     dsc->filter_cb = cb;
 640:Middlewares/LVGL/GUI/lvgl/src/extra/themes/basic/../../../../src/hal/../draw/../misc/lv_color.h **** }
 641:Middlewares/LVGL/GUI/lvgl/src/extra/themes/basic/../../../../src/hal/../draw/../misc/lv_color.h **** 
 642:Middlewares/LVGL/GUI/lvgl/src/extra/themes/basic/../../../../src/hal/../draw/../misc/lv_color.h **** //! @cond Doxygen_Suppress
 643:Middlewares/LVGL/GUI/lvgl/src/extra/themes/basic/../../../../src/hal/../draw/../misc/lv_color.h **** //!
 644:Middlewares/LVGL/GUI/lvgl/src/extra/themes/basic/../../../../src/hal/../draw/../misc/lv_color.h **** LV_ATTRIBUTE_FAST_MEM void lv_color_fill(lv_color_t * buf, lv_color_t color, uint32_t px_num);
 645:Middlewares/LVGL/GUI/lvgl/src/extra/themes/basic/../../../../src/hal/../draw/../misc/lv_color.h **** 
 646:Middlewares/LVGL/GUI/lvgl/src/extra/themes/basic/../../../../src/hal/../draw/../misc/lv_color.h **** //! @endcond
 647:Middlewares/LVGL/GUI/lvgl/src/extra/themes/basic/../../../../src/hal/../draw/../misc/lv_color.h **** lv_color_t lv_color_lighten(lv_color_t c, lv_opa_t lvl);
 648:Middlewares/LVGL/GUI/lvgl/src/extra/themes/basic/../../../../src/hal/../draw/../misc/lv_color.h **** 
 649:Middlewares/LVGL/GUI/lvgl/src/extra/themes/basic/../../../../src/hal/../draw/../misc/lv_color.h **** lv_color_t lv_color_darken(lv_color_t c, lv_opa_t lvl);
 650:Middlewares/LVGL/GUI/lvgl/src/extra/themes/basic/../../../../src/hal/../draw/../misc/lv_color.h **** 
 651:Middlewares/LVGL/GUI/lvgl/src/extra/themes/basic/../../../../src/hal/../draw/../misc/lv_color.h **** lv_color_t lv_color_change_lightness(lv_color_t c, lv_opa_t lvl);
 652:Middlewares/LVGL/GUI/lvgl/src/extra/themes/basic/../../../../src/hal/../draw/../misc/lv_color.h **** 
 653:Middlewares/LVGL/GUI/lvgl/src/extra/themes/basic/../../../../src/hal/../draw/../misc/lv_color.h **** /**
 654:Middlewares/LVGL/GUI/lvgl/src/extra/themes/basic/../../../../src/hal/../draw/../misc/lv_color.h ****  * Convert a HSV color to RGB
 655:Middlewares/LVGL/GUI/lvgl/src/extra/themes/basic/../../../../src/hal/../draw/../misc/lv_color.h ****  * @param h hue [0..359]
 656:Middlewares/LVGL/GUI/lvgl/src/extra/themes/basic/../../../../src/hal/../draw/../misc/lv_color.h ****  * @param s saturation [0..100]
 657:Middlewares/LVGL/GUI/lvgl/src/extra/themes/basic/../../../../src/hal/../draw/../misc/lv_color.h ****  * @param v value [0..100]
 658:Middlewares/LVGL/GUI/lvgl/src/extra/themes/basic/../../../../src/hal/../draw/../misc/lv_color.h ****  * @return the given RGB color in RGB (with LV_COLOR_DEPTH depth)
 659:Middlewares/LVGL/GUI/lvgl/src/extra/themes/basic/../../../../src/hal/../draw/../misc/lv_color.h ****  */
 660:Middlewares/LVGL/GUI/lvgl/src/extra/themes/basic/../../../../src/hal/../draw/../misc/lv_color.h **** lv_color_t lv_color_hsv_to_rgb(uint16_t h, uint8_t s, uint8_t v);
 661:Middlewares/LVGL/GUI/lvgl/src/extra/themes/basic/../../../../src/hal/../draw/../misc/lv_color.h **** 
 662:Middlewares/LVGL/GUI/lvgl/src/extra/themes/basic/../../../../src/hal/../draw/../misc/lv_color.h **** /**
 663:Middlewares/LVGL/GUI/lvgl/src/extra/themes/basic/../../../../src/hal/../draw/../misc/lv_color.h ****  * Convert a 32-bit RGB color to HSV
 664:Middlewares/LVGL/GUI/lvgl/src/extra/themes/basic/../../../../src/hal/../draw/../misc/lv_color.h ****  * @param r8 8-bit red
 665:Middlewares/LVGL/GUI/lvgl/src/extra/themes/basic/../../../../src/hal/../draw/../misc/lv_color.h ****  * @param g8 8-bit green
 666:Middlewares/LVGL/GUI/lvgl/src/extra/themes/basic/../../../../src/hal/../draw/../misc/lv_color.h ****  * @param b8 8-bit blue
 667:Middlewares/LVGL/GUI/lvgl/src/extra/themes/basic/../../../../src/hal/../draw/../misc/lv_color.h ****  * @return the given RGB color in HSV
 668:Middlewares/LVGL/GUI/lvgl/src/extra/themes/basic/../../../../src/hal/../draw/../misc/lv_color.h ****  */
 669:Middlewares/LVGL/GUI/lvgl/src/extra/themes/basic/../../../../src/hal/../draw/../misc/lv_color.h **** lv_color_hsv_t lv_color_rgb_to_hsv(uint8_t r8, uint8_t g8, uint8_t b8);
 670:Middlewares/LVGL/GUI/lvgl/src/extra/themes/basic/../../../../src/hal/../draw/../misc/lv_color.h **** 
 671:Middlewares/LVGL/GUI/lvgl/src/extra/themes/basic/../../../../src/hal/../draw/../misc/lv_color.h **** /**
 672:Middlewares/LVGL/GUI/lvgl/src/extra/themes/basic/../../../../src/hal/../draw/../misc/lv_color.h ****  * Convert a color to HSV
 673:Middlewares/LVGL/GUI/lvgl/src/extra/themes/basic/../../../../src/hal/../draw/../misc/lv_color.h ****  * @param color color
 674:Middlewares/LVGL/GUI/lvgl/src/extra/themes/basic/../../../../src/hal/../draw/../misc/lv_color.h ****  * @return the given color in HSV
 675:Middlewares/LVGL/GUI/lvgl/src/extra/themes/basic/../../../../src/hal/../draw/../misc/lv_color.h ****  */
 676:Middlewares/LVGL/GUI/lvgl/src/extra/themes/basic/../../../../src/hal/../draw/../misc/lv_color.h **** lv_color_hsv_t lv_color_to_hsv(lv_color_t color);
 677:Middlewares/LVGL/GUI/lvgl/src/extra/themes/basic/../../../../src/hal/../draw/../misc/lv_color.h **** 
 678:Middlewares/LVGL/GUI/lvgl/src/extra/themes/basic/../../../../src/hal/../draw/../misc/lv_color.h **** /**
 679:Middlewares/LVGL/GUI/lvgl/src/extra/themes/basic/../../../../src/hal/../draw/../misc/lv_color.h ****  * Just a wrapper around LV_COLOR_CHROMA_KEY because it might be more convenient to use a function 
 680:Middlewares/LVGL/GUI/lvgl/src/extra/themes/basic/../../../../src/hal/../draw/../misc/lv_color.h ****  * @return LV_COLOR_CHROMA_KEY
 681:Middlewares/LVGL/GUI/lvgl/src/extra/themes/basic/../../../../src/hal/../draw/../misc/lv_color.h ****  */
 682:Middlewares/LVGL/GUI/lvgl/src/extra/themes/basic/../../../../src/hal/../draw/../misc/lv_color.h **** static inline lv_color_t lv_color_chroma_key(void)
 683:Middlewares/LVGL/GUI/lvgl/src/extra/themes/basic/../../../../src/hal/../draw/../misc/lv_color.h **** {
 684:Middlewares/LVGL/GUI/lvgl/src/extra/themes/basic/../../../../src/hal/../draw/../misc/lv_color.h ****     return LV_COLOR_CHROMA_KEY;
 685:Middlewares/LVGL/GUI/lvgl/src/extra/themes/basic/../../../../src/hal/../draw/../misc/lv_color.h **** }
 686:Middlewares/LVGL/GUI/lvgl/src/extra/themes/basic/../../../../src/hal/../draw/../misc/lv_color.h **** 
 687:Middlewares/LVGL/GUI/lvgl/src/extra/themes/basic/../../../../src/hal/../draw/../misc/lv_color.h **** /**********************
 688:Middlewares/LVGL/GUI/lvgl/src/extra/themes/basic/../../../../src/hal/../draw/../misc/lv_color.h ****  *  PREDEFINED COLORS
 689:Middlewares/LVGL/GUI/lvgl/src/extra/themes/basic/../../../../src/hal/../draw/../misc/lv_color.h ****  **********************/
 690:Middlewares/LVGL/GUI/lvgl/src/extra/themes/basic/../../../../src/hal/../draw/../misc/lv_color.h **** /*Source: https://vuetifyjs.com/en/styles/colors/#material-colors*/
 691:Middlewares/LVGL/GUI/lvgl/src/extra/themes/basic/../../../../src/hal/../draw/../misc/lv_color.h **** 
ARM GAS  C:\Users\ADMINI~1\AppData\Local\Temp\cc8gvSPg.s 			page 52


 692:Middlewares/LVGL/GUI/lvgl/src/extra/themes/basic/../../../../src/hal/../draw/../misc/lv_color.h **** lv_color_t lv_palette_main(lv_palette_t p);
 693:Middlewares/LVGL/GUI/lvgl/src/extra/themes/basic/../../../../src/hal/../draw/../misc/lv_color.h **** static inline lv_color_t lv_color_white(void)
 1425              		.loc 2 693 26 is_stmt 1 view .LVU415
 1426              	.LBE29:
 694:Middlewares/LVGL/GUI/lvgl/src/extra/themes/basic/../../../../src/hal/../draw/../misc/lv_color.h **** {
 695:Middlewares/LVGL/GUI/lvgl/src/extra/themes/basic/../../../../src/hal/../draw/../misc/lv_color.h ****     return lv_color_make(0xff, 0xff, 0xff);
 1427              		.loc 2 695 5 view .LVU416
 1428              	.LVL151:
 1429              	.LBB32:
 1430              	.LBB30:
 1431              	.LBI30:
 592:Middlewares/LVGL/GUI/lvgl/src/extra/themes/basic/../../../../src/hal/../draw/../misc/lv_color.h **** {
 1432              		.loc 2 592 26 view .LVU417
 1433              	.LBB31:
 594:Middlewares/LVGL/GUI/lvgl/src/extra/themes/basic/../../../../src/hal/../draw/../misc/lv_color.h **** }
 1434              		.loc 2 594 5 view .LVU418
 594:Middlewares/LVGL/GUI/lvgl/src/extra/themes/basic/../../../../src/hal/../draw/../misc/lv_color.h **** }
 1435              		.loc 2 594 5 is_stmt 0 view .LVU419
 1436              	.LBE31:
 1437              	.LBE30:
 1438              	.LBE32:
  86:Middlewares/LVGL/GUI/lvgl/src/extra/themes/basic/lv_theme_basic.c ****     lv_style_set_line_width(&styles->white, 1);
 1439              		.loc 1 86 5 view .LVU420
 1440 008a 4FF0FF31 		mov	r1, #-1	@ movhi
 1441 008e 1030     		adds	r0, r0, #16
 1442 0090 FFF7FEFF 		bl	lv_style_set_bg_color
 1443              	.LVL152:
  87:Middlewares/LVGL/GUI/lvgl/src/extra/themes/basic/lv_theme_basic.c ****     lv_style_set_line_color(&styles->white, COLOR_WHITE);
 1444              		.loc 1 87 5 is_stmt 1 view .LVU421
  87:Middlewares/LVGL/GUI/lvgl/src/extra/themes/basic/lv_theme_basic.c ****     lv_style_set_line_color(&styles->white, COLOR_WHITE);
 1445              		.loc 1 87 36 is_stmt 0 view .LVU422
 1446 0094 2068     		ldr	r0, [r4]
  87:Middlewares/LVGL/GUI/lvgl/src/extra/themes/basic/lv_theme_basic.c ****     lv_style_set_line_color(&styles->white, COLOR_WHITE);
 1447              		.loc 1 87 5 view .LVU423
 1448 0096 0121     		movs	r1, #1
 1449 0098 1030     		adds	r0, r0, #16
 1450 009a FFF7FEFF 		bl	lv_style_set_line_width
 1451              	.LVL153:
  88:Middlewares/LVGL/GUI/lvgl/src/extra/themes/basic/lv_theme_basic.c ****     lv_style_set_arc_width(&styles->white, 2);
 1452              		.loc 1 88 5 is_stmt 1 view .LVU424
  88:Middlewares/LVGL/GUI/lvgl/src/extra/themes/basic/lv_theme_basic.c ****     lv_style_set_arc_width(&styles->white, 2);
 1453              		.loc 1 88 36 is_stmt 0 view .LVU425
 1454 009e 2068     		ldr	r0, [r4]
 1455              	.LBB33:
 1456              	.LBI33:
 693:Middlewares/LVGL/GUI/lvgl/src/extra/themes/basic/../../../../src/hal/../draw/../misc/lv_color.h **** {
 1457              		.loc 2 693 26 is_stmt 1 view .LVU426
 1458              	.LBE33:
 1459              		.loc 2 695 5 view .LVU427
 1460              	.LVL154:
 1461              	.LBB36:
 1462              	.LBB34:
 1463              	.LBI34:
