ARM GAS  C:\Users\ADMINI~1\AppData\Local\Temp\ccbkt2w0.s 			page 1


   1              		.cpu cortex-m4
   2              		.arch armv7e-m
   3              		.fpu fpv4-sp-d16
   4              		.eabi_attribute 27, 1
   5              		.eabi_attribute 28, 1
   6              		.eabi_attribute 20, 1
   7              		.eabi_attribute 21, 1
   8              		.eabi_attribute 23, 3
   9              		.eabi_attribute 24, 1
  10              		.eabi_attribute 25, 1
  11              		.eabi_attribute 26, 1
  12              		.eabi_attribute 30, 1
  13              		.eabi_attribute 34, 1
  14              		.eabi_attribute 18, 4
  15              		.file	"lv_tabview.c"
  16              		.text
  17              	.Ltext0:
  18              		.cfi_sections	.debug_frame
  19              		.section	.text.lv_tabview_destructor,"ax",%progbits
  20              		.align	1
  21              		.syntax unified
  22              		.thumb
  23              		.thumb_func
  25              	lv_tabview_destructor:
  26              	.LVL0:
  27              	.LFB203:
  28              		.file 1 "Middlewares/LVGL/GUI/lvgl/src/extra/widgets/tabview/lv_tabview.c"
   1:Middlewares/LVGL/GUI/lvgl/src/extra/widgets/tabview/lv_tabview.c **** /**
   2:Middlewares/LVGL/GUI/lvgl/src/extra/widgets/tabview/lv_tabview.c ****  * @file lv_tabview.c
   3:Middlewares/LVGL/GUI/lvgl/src/extra/widgets/tabview/lv_tabview.c ****  *
   4:Middlewares/LVGL/GUI/lvgl/src/extra/widgets/tabview/lv_tabview.c ****  */
   5:Middlewares/LVGL/GUI/lvgl/src/extra/widgets/tabview/lv_tabview.c **** 
   6:Middlewares/LVGL/GUI/lvgl/src/extra/widgets/tabview/lv_tabview.c **** /*********************
   7:Middlewares/LVGL/GUI/lvgl/src/extra/widgets/tabview/lv_tabview.c ****  *      INCLUDES
   8:Middlewares/LVGL/GUI/lvgl/src/extra/widgets/tabview/lv_tabview.c ****  *********************/
   9:Middlewares/LVGL/GUI/lvgl/src/extra/widgets/tabview/lv_tabview.c **** #include "lv_tabview.h"
  10:Middlewares/LVGL/GUI/lvgl/src/extra/widgets/tabview/lv_tabview.c **** #if LV_USE_TABVIEW
  11:Middlewares/LVGL/GUI/lvgl/src/extra/widgets/tabview/lv_tabview.c **** 
  12:Middlewares/LVGL/GUI/lvgl/src/extra/widgets/tabview/lv_tabview.c **** #include "../../../misc/lv_assert.h"
  13:Middlewares/LVGL/GUI/lvgl/src/extra/widgets/tabview/lv_tabview.c **** 
  14:Middlewares/LVGL/GUI/lvgl/src/extra/widgets/tabview/lv_tabview.c **** /*********************
  15:Middlewares/LVGL/GUI/lvgl/src/extra/widgets/tabview/lv_tabview.c ****  *      DEFINES
  16:Middlewares/LVGL/GUI/lvgl/src/extra/widgets/tabview/lv_tabview.c ****  *********************/
  17:Middlewares/LVGL/GUI/lvgl/src/extra/widgets/tabview/lv_tabview.c **** #define MY_CLASS    &lv_tabview_class
  18:Middlewares/LVGL/GUI/lvgl/src/extra/widgets/tabview/lv_tabview.c **** 
  19:Middlewares/LVGL/GUI/lvgl/src/extra/widgets/tabview/lv_tabview.c **** /**********************
  20:Middlewares/LVGL/GUI/lvgl/src/extra/widgets/tabview/lv_tabview.c ****  *      TYPEDEFS
  21:Middlewares/LVGL/GUI/lvgl/src/extra/widgets/tabview/lv_tabview.c ****  **********************/
  22:Middlewares/LVGL/GUI/lvgl/src/extra/widgets/tabview/lv_tabview.c **** 
  23:Middlewares/LVGL/GUI/lvgl/src/extra/widgets/tabview/lv_tabview.c **** /**********************
  24:Middlewares/LVGL/GUI/lvgl/src/extra/widgets/tabview/lv_tabview.c ****  *  STATIC PROTOTYPES
  25:Middlewares/LVGL/GUI/lvgl/src/extra/widgets/tabview/lv_tabview.c ****  **********************/
  26:Middlewares/LVGL/GUI/lvgl/src/extra/widgets/tabview/lv_tabview.c **** static void lv_tabview_constructor(const lv_obj_class_t * class_p, lv_obj_t * obj);
  27:Middlewares/LVGL/GUI/lvgl/src/extra/widgets/tabview/lv_tabview.c **** static void lv_tabview_destructor(const lv_obj_class_t * class_p, lv_obj_t * obj);
  28:Middlewares/LVGL/GUI/lvgl/src/extra/widgets/tabview/lv_tabview.c **** static void lv_tabview_event(const lv_obj_class_t * class_p, lv_event_t * e);
  29:Middlewares/LVGL/GUI/lvgl/src/extra/widgets/tabview/lv_tabview.c **** static void btns_value_changed_event_cb(lv_event_t * e);
  30:Middlewares/LVGL/GUI/lvgl/src/extra/widgets/tabview/lv_tabview.c **** static void cont_scroll_end_event_cb(lv_event_t * e);
ARM GAS  C:\Users\ADMINI~1\AppData\Local\Temp\ccbkt2w0.s 			page 2


  31:Middlewares/LVGL/GUI/lvgl/src/extra/widgets/tabview/lv_tabview.c **** 
  32:Middlewares/LVGL/GUI/lvgl/src/extra/widgets/tabview/lv_tabview.c **** /**********************
  33:Middlewares/LVGL/GUI/lvgl/src/extra/widgets/tabview/lv_tabview.c ****  *  STATIC VARIABLES
  34:Middlewares/LVGL/GUI/lvgl/src/extra/widgets/tabview/lv_tabview.c ****  **********************/
  35:Middlewares/LVGL/GUI/lvgl/src/extra/widgets/tabview/lv_tabview.c **** const lv_obj_class_t lv_tabview_class = {
  36:Middlewares/LVGL/GUI/lvgl/src/extra/widgets/tabview/lv_tabview.c ****     .constructor_cb = lv_tabview_constructor,
  37:Middlewares/LVGL/GUI/lvgl/src/extra/widgets/tabview/lv_tabview.c ****     .destructor_cb = lv_tabview_destructor,
  38:Middlewares/LVGL/GUI/lvgl/src/extra/widgets/tabview/lv_tabview.c ****     .event_cb = lv_tabview_event,
  39:Middlewares/LVGL/GUI/lvgl/src/extra/widgets/tabview/lv_tabview.c ****     .width_def = LV_PCT(100),
  40:Middlewares/LVGL/GUI/lvgl/src/extra/widgets/tabview/lv_tabview.c ****     .height_def = LV_PCT(100),
  41:Middlewares/LVGL/GUI/lvgl/src/extra/widgets/tabview/lv_tabview.c ****     .base_class = &lv_obj_class,
  42:Middlewares/LVGL/GUI/lvgl/src/extra/widgets/tabview/lv_tabview.c ****     .instance_size = sizeof(lv_tabview_t)
  43:Middlewares/LVGL/GUI/lvgl/src/extra/widgets/tabview/lv_tabview.c **** };
  44:Middlewares/LVGL/GUI/lvgl/src/extra/widgets/tabview/lv_tabview.c **** 
  45:Middlewares/LVGL/GUI/lvgl/src/extra/widgets/tabview/lv_tabview.c **** static lv_dir_t tabpos_create;
  46:Middlewares/LVGL/GUI/lvgl/src/extra/widgets/tabview/lv_tabview.c **** static lv_coord_t tabsize_create;
  47:Middlewares/LVGL/GUI/lvgl/src/extra/widgets/tabview/lv_tabview.c **** 
  48:Middlewares/LVGL/GUI/lvgl/src/extra/widgets/tabview/lv_tabview.c **** /**********************
  49:Middlewares/LVGL/GUI/lvgl/src/extra/widgets/tabview/lv_tabview.c ****  *      MACROS
  50:Middlewares/LVGL/GUI/lvgl/src/extra/widgets/tabview/lv_tabview.c ****  **********************/
  51:Middlewares/LVGL/GUI/lvgl/src/extra/widgets/tabview/lv_tabview.c **** 
  52:Middlewares/LVGL/GUI/lvgl/src/extra/widgets/tabview/lv_tabview.c **** /**********************
  53:Middlewares/LVGL/GUI/lvgl/src/extra/widgets/tabview/lv_tabview.c ****  *   GLOBAL FUNCTIONS
  54:Middlewares/LVGL/GUI/lvgl/src/extra/widgets/tabview/lv_tabview.c ****  **********************/
  55:Middlewares/LVGL/GUI/lvgl/src/extra/widgets/tabview/lv_tabview.c **** 
  56:Middlewares/LVGL/GUI/lvgl/src/extra/widgets/tabview/lv_tabview.c **** lv_obj_t * lv_tabview_create(lv_obj_t * parent, lv_dir_t tab_pos, lv_coord_t tab_size)
  57:Middlewares/LVGL/GUI/lvgl/src/extra/widgets/tabview/lv_tabview.c **** {
  58:Middlewares/LVGL/GUI/lvgl/src/extra/widgets/tabview/lv_tabview.c ****     LV_LOG_INFO("begin");
  59:Middlewares/LVGL/GUI/lvgl/src/extra/widgets/tabview/lv_tabview.c ****     tabpos_create = tab_pos;
  60:Middlewares/LVGL/GUI/lvgl/src/extra/widgets/tabview/lv_tabview.c ****     tabsize_create = tab_size;
  61:Middlewares/LVGL/GUI/lvgl/src/extra/widgets/tabview/lv_tabview.c **** 
  62:Middlewares/LVGL/GUI/lvgl/src/extra/widgets/tabview/lv_tabview.c ****     lv_obj_t * obj = lv_obj_class_create_obj(&lv_tabview_class, parent);
  63:Middlewares/LVGL/GUI/lvgl/src/extra/widgets/tabview/lv_tabview.c ****     lv_obj_class_init_obj(obj);
  64:Middlewares/LVGL/GUI/lvgl/src/extra/widgets/tabview/lv_tabview.c ****     return obj;
  65:Middlewares/LVGL/GUI/lvgl/src/extra/widgets/tabview/lv_tabview.c **** }
  66:Middlewares/LVGL/GUI/lvgl/src/extra/widgets/tabview/lv_tabview.c **** 
  67:Middlewares/LVGL/GUI/lvgl/src/extra/widgets/tabview/lv_tabview.c **** lv_obj_t * lv_tabview_add_tab(lv_obj_t * obj, const char * name)
  68:Middlewares/LVGL/GUI/lvgl/src/extra/widgets/tabview/lv_tabview.c **** {
  69:Middlewares/LVGL/GUI/lvgl/src/extra/widgets/tabview/lv_tabview.c ****     LV_ASSERT_OBJ(obj, MY_CLASS);
  70:Middlewares/LVGL/GUI/lvgl/src/extra/widgets/tabview/lv_tabview.c ****     lv_tabview_t * tabview = (lv_tabview_t *)obj;
  71:Middlewares/LVGL/GUI/lvgl/src/extra/widgets/tabview/lv_tabview.c ****     lv_obj_t * cont = lv_tabview_get_content(obj);
  72:Middlewares/LVGL/GUI/lvgl/src/extra/widgets/tabview/lv_tabview.c **** 
  73:Middlewares/LVGL/GUI/lvgl/src/extra/widgets/tabview/lv_tabview.c ****     lv_obj_t * page = lv_obj_create(cont);
  74:Middlewares/LVGL/GUI/lvgl/src/extra/widgets/tabview/lv_tabview.c ****     lv_obj_set_size(page, LV_PCT(100), LV_PCT(100));
  75:Middlewares/LVGL/GUI/lvgl/src/extra/widgets/tabview/lv_tabview.c ****     lv_obj_clear_flag(page, LV_OBJ_FLAG_CLICK_FOCUSABLE);
  76:Middlewares/LVGL/GUI/lvgl/src/extra/widgets/tabview/lv_tabview.c ****     uint32_t tab_id = lv_obj_get_child_cnt(cont);
  77:Middlewares/LVGL/GUI/lvgl/src/extra/widgets/tabview/lv_tabview.c **** 
  78:Middlewares/LVGL/GUI/lvgl/src/extra/widgets/tabview/lv_tabview.c ****     lv_obj_t * btns = lv_tabview_get_tab_btns(obj);
  79:Middlewares/LVGL/GUI/lvgl/src/extra/widgets/tabview/lv_tabview.c **** 
  80:Middlewares/LVGL/GUI/lvgl/src/extra/widgets/tabview/lv_tabview.c ****     char ** old_map = tabview->map;
  81:Middlewares/LVGL/GUI/lvgl/src/extra/widgets/tabview/lv_tabview.c ****     char ** new_map;
  82:Middlewares/LVGL/GUI/lvgl/src/extra/widgets/tabview/lv_tabview.c **** 
  83:Middlewares/LVGL/GUI/lvgl/src/extra/widgets/tabview/lv_tabview.c ****     /*top or bottom dir*/
  84:Middlewares/LVGL/GUI/lvgl/src/extra/widgets/tabview/lv_tabview.c ****     if(tabview->tab_pos & LV_DIR_VER) {
  85:Middlewares/LVGL/GUI/lvgl/src/extra/widgets/tabview/lv_tabview.c ****         new_map = lv_mem_alloc((tab_id + 1) * sizeof(const char *));
  86:Middlewares/LVGL/GUI/lvgl/src/extra/widgets/tabview/lv_tabview.c ****         lv_memcpy_small(new_map, old_map, sizeof(const char *) * (tab_id - 1));
  87:Middlewares/LVGL/GUI/lvgl/src/extra/widgets/tabview/lv_tabview.c ****         new_map[tab_id - 1] = lv_mem_alloc(strlen(name) + 1);
ARM GAS  C:\Users\ADMINI~1\AppData\Local\Temp\ccbkt2w0.s 			page 3


  88:Middlewares/LVGL/GUI/lvgl/src/extra/widgets/tabview/lv_tabview.c ****         strcpy((char *)new_map[tab_id - 1], name);
  89:Middlewares/LVGL/GUI/lvgl/src/extra/widgets/tabview/lv_tabview.c ****         new_map[tab_id] = "";
  90:Middlewares/LVGL/GUI/lvgl/src/extra/widgets/tabview/lv_tabview.c ****     }
  91:Middlewares/LVGL/GUI/lvgl/src/extra/widgets/tabview/lv_tabview.c ****     /*left or right dir*/
  92:Middlewares/LVGL/GUI/lvgl/src/extra/widgets/tabview/lv_tabview.c ****     else {
  93:Middlewares/LVGL/GUI/lvgl/src/extra/widgets/tabview/lv_tabview.c ****         new_map = lv_mem_alloc((tab_id * 2) * sizeof(const char *));
  94:Middlewares/LVGL/GUI/lvgl/src/extra/widgets/tabview/lv_tabview.c ****         lv_memcpy_small(new_map, old_map, sizeof(const char *) * (tab_id - 1) * 2);
  95:Middlewares/LVGL/GUI/lvgl/src/extra/widgets/tabview/lv_tabview.c ****         if(tabview->tab_cnt == 0) {
  96:Middlewares/LVGL/GUI/lvgl/src/extra/widgets/tabview/lv_tabview.c ****             new_map[0] = lv_mem_alloc(strlen(name) + 1);
  97:Middlewares/LVGL/GUI/lvgl/src/extra/widgets/tabview/lv_tabview.c ****             strcpy((char *)new_map[0], name);
  98:Middlewares/LVGL/GUI/lvgl/src/extra/widgets/tabview/lv_tabview.c ****             new_map[1] = "";
  99:Middlewares/LVGL/GUI/lvgl/src/extra/widgets/tabview/lv_tabview.c ****         }
 100:Middlewares/LVGL/GUI/lvgl/src/extra/widgets/tabview/lv_tabview.c ****         else {
 101:Middlewares/LVGL/GUI/lvgl/src/extra/widgets/tabview/lv_tabview.c ****             new_map[tab_id * 2 - 3] = "\n";
 102:Middlewares/LVGL/GUI/lvgl/src/extra/widgets/tabview/lv_tabview.c ****             new_map[tab_id * 2 - 2] = lv_mem_alloc(strlen(name) + 1);
 103:Middlewares/LVGL/GUI/lvgl/src/extra/widgets/tabview/lv_tabview.c ****             new_map[tab_id * 2 - 1] = "";
 104:Middlewares/LVGL/GUI/lvgl/src/extra/widgets/tabview/lv_tabview.c ****             strcpy((char *)new_map[(tab_id * 2) - 2], name);
 105:Middlewares/LVGL/GUI/lvgl/src/extra/widgets/tabview/lv_tabview.c ****         }
 106:Middlewares/LVGL/GUI/lvgl/src/extra/widgets/tabview/lv_tabview.c ****     }
 107:Middlewares/LVGL/GUI/lvgl/src/extra/widgets/tabview/lv_tabview.c ****     tabview->map = new_map;
 108:Middlewares/LVGL/GUI/lvgl/src/extra/widgets/tabview/lv_tabview.c ****     lv_btnmatrix_set_map(btns, (const char **)new_map);
 109:Middlewares/LVGL/GUI/lvgl/src/extra/widgets/tabview/lv_tabview.c ****     lv_mem_free(old_map);
 110:Middlewares/LVGL/GUI/lvgl/src/extra/widgets/tabview/lv_tabview.c **** 
 111:Middlewares/LVGL/GUI/lvgl/src/extra/widgets/tabview/lv_tabview.c ****     lv_btnmatrix_set_btn_ctrl_all(btns, LV_BTNMATRIX_CTRL_CHECKABLE | LV_BTNMATRIX_CTRL_CLICK_TRIG 
 112:Middlewares/LVGL/GUI/lvgl/src/extra/widgets/tabview/lv_tabview.c ****                                   LV_BTNMATRIX_CTRL_NO_REPEAT);
 113:Middlewares/LVGL/GUI/lvgl/src/extra/widgets/tabview/lv_tabview.c **** 
 114:Middlewares/LVGL/GUI/lvgl/src/extra/widgets/tabview/lv_tabview.c ****     tabview->tab_cnt++;
 115:Middlewares/LVGL/GUI/lvgl/src/extra/widgets/tabview/lv_tabview.c ****     if(tabview->tab_cnt == 1) {
 116:Middlewares/LVGL/GUI/lvgl/src/extra/widgets/tabview/lv_tabview.c ****         lv_tabview_set_act(obj, 0, LV_ANIM_OFF);
 117:Middlewares/LVGL/GUI/lvgl/src/extra/widgets/tabview/lv_tabview.c ****     }
 118:Middlewares/LVGL/GUI/lvgl/src/extra/widgets/tabview/lv_tabview.c **** 
 119:Middlewares/LVGL/GUI/lvgl/src/extra/widgets/tabview/lv_tabview.c ****     lv_btnmatrix_set_btn_ctrl(btns, tabview->tab_cur, LV_BTNMATRIX_CTRL_CHECKED);
 120:Middlewares/LVGL/GUI/lvgl/src/extra/widgets/tabview/lv_tabview.c **** 
 121:Middlewares/LVGL/GUI/lvgl/src/extra/widgets/tabview/lv_tabview.c ****     return page;
 122:Middlewares/LVGL/GUI/lvgl/src/extra/widgets/tabview/lv_tabview.c **** }
 123:Middlewares/LVGL/GUI/lvgl/src/extra/widgets/tabview/lv_tabview.c **** 
 124:Middlewares/LVGL/GUI/lvgl/src/extra/widgets/tabview/lv_tabview.c **** void lv_tabview_set_act(lv_obj_t * obj, uint32_t id, lv_anim_enable_t anim_en)
 125:Middlewares/LVGL/GUI/lvgl/src/extra/widgets/tabview/lv_tabview.c **** {
 126:Middlewares/LVGL/GUI/lvgl/src/extra/widgets/tabview/lv_tabview.c ****     LV_ASSERT_OBJ(obj, MY_CLASS);
 127:Middlewares/LVGL/GUI/lvgl/src/extra/widgets/tabview/lv_tabview.c ****     lv_tabview_t * tabview = (lv_tabview_t *)obj;
 128:Middlewares/LVGL/GUI/lvgl/src/extra/widgets/tabview/lv_tabview.c **** 
 129:Middlewares/LVGL/GUI/lvgl/src/extra/widgets/tabview/lv_tabview.c ****     if(id >= tabview->tab_cnt) {
 130:Middlewares/LVGL/GUI/lvgl/src/extra/widgets/tabview/lv_tabview.c ****         id = tabview->tab_cnt - 1;
 131:Middlewares/LVGL/GUI/lvgl/src/extra/widgets/tabview/lv_tabview.c ****     }
 132:Middlewares/LVGL/GUI/lvgl/src/extra/widgets/tabview/lv_tabview.c **** 
 133:Middlewares/LVGL/GUI/lvgl/src/extra/widgets/tabview/lv_tabview.c ****     /*To be sure lv_obj_get_content_width will return valid value*/
 134:Middlewares/LVGL/GUI/lvgl/src/extra/widgets/tabview/lv_tabview.c ****     lv_obj_update_layout(obj);
 135:Middlewares/LVGL/GUI/lvgl/src/extra/widgets/tabview/lv_tabview.c **** 
 136:Middlewares/LVGL/GUI/lvgl/src/extra/widgets/tabview/lv_tabview.c ****     lv_obj_t * cont = lv_tabview_get_content(obj);
 137:Middlewares/LVGL/GUI/lvgl/src/extra/widgets/tabview/lv_tabview.c ****     if(cont == NULL) return;
 138:Middlewares/LVGL/GUI/lvgl/src/extra/widgets/tabview/lv_tabview.c ****     lv_coord_t gap = lv_obj_get_style_pad_column(cont, LV_PART_MAIN);
 139:Middlewares/LVGL/GUI/lvgl/src/extra/widgets/tabview/lv_tabview.c ****     lv_coord_t w = lv_obj_get_content_width(cont);
 140:Middlewares/LVGL/GUI/lvgl/src/extra/widgets/tabview/lv_tabview.c ****     if(lv_obj_get_style_base_dir(obj, LV_PART_MAIN) != LV_BASE_DIR_RTL) {
 141:Middlewares/LVGL/GUI/lvgl/src/extra/widgets/tabview/lv_tabview.c ****         lv_obj_scroll_to_x(cont, id * (gap + w), anim_en);
 142:Middlewares/LVGL/GUI/lvgl/src/extra/widgets/tabview/lv_tabview.c ****     }
 143:Middlewares/LVGL/GUI/lvgl/src/extra/widgets/tabview/lv_tabview.c ****     else {
 144:Middlewares/LVGL/GUI/lvgl/src/extra/widgets/tabview/lv_tabview.c ****         int32_t id_rtl = -(int32_t)id;
ARM GAS  C:\Users\ADMINI~1\AppData\Local\Temp\ccbkt2w0.s 			page 4


 145:Middlewares/LVGL/GUI/lvgl/src/extra/widgets/tabview/lv_tabview.c ****         lv_obj_scroll_to_x(cont, (gap + w) * id_rtl, anim_en);
 146:Middlewares/LVGL/GUI/lvgl/src/extra/widgets/tabview/lv_tabview.c ****     }
 147:Middlewares/LVGL/GUI/lvgl/src/extra/widgets/tabview/lv_tabview.c **** 
 148:Middlewares/LVGL/GUI/lvgl/src/extra/widgets/tabview/lv_tabview.c ****     lv_obj_t * btns = lv_tabview_get_tab_btns(obj);
 149:Middlewares/LVGL/GUI/lvgl/src/extra/widgets/tabview/lv_tabview.c ****     lv_btnmatrix_set_btn_ctrl(btns, id, LV_BTNMATRIX_CTRL_CHECKED);
 150:Middlewares/LVGL/GUI/lvgl/src/extra/widgets/tabview/lv_tabview.c ****     tabview->tab_cur = id;
 151:Middlewares/LVGL/GUI/lvgl/src/extra/widgets/tabview/lv_tabview.c **** }
 152:Middlewares/LVGL/GUI/lvgl/src/extra/widgets/tabview/lv_tabview.c **** 
 153:Middlewares/LVGL/GUI/lvgl/src/extra/widgets/tabview/lv_tabview.c **** uint16_t lv_tabview_get_tab_act(lv_obj_t * obj)
 154:Middlewares/LVGL/GUI/lvgl/src/extra/widgets/tabview/lv_tabview.c **** {
 155:Middlewares/LVGL/GUI/lvgl/src/extra/widgets/tabview/lv_tabview.c ****     LV_ASSERT_OBJ(obj, MY_CLASS);
 156:Middlewares/LVGL/GUI/lvgl/src/extra/widgets/tabview/lv_tabview.c ****     lv_tabview_t * tabview = (lv_tabview_t *)obj;
 157:Middlewares/LVGL/GUI/lvgl/src/extra/widgets/tabview/lv_tabview.c ****     return tabview->tab_cur;
 158:Middlewares/LVGL/GUI/lvgl/src/extra/widgets/tabview/lv_tabview.c **** }
 159:Middlewares/LVGL/GUI/lvgl/src/extra/widgets/tabview/lv_tabview.c **** 
 160:Middlewares/LVGL/GUI/lvgl/src/extra/widgets/tabview/lv_tabview.c **** lv_obj_t * lv_tabview_get_content(lv_obj_t * tv)
 161:Middlewares/LVGL/GUI/lvgl/src/extra/widgets/tabview/lv_tabview.c **** {
 162:Middlewares/LVGL/GUI/lvgl/src/extra/widgets/tabview/lv_tabview.c ****     return lv_obj_get_child(tv, 1);
 163:Middlewares/LVGL/GUI/lvgl/src/extra/widgets/tabview/lv_tabview.c **** }
 164:Middlewares/LVGL/GUI/lvgl/src/extra/widgets/tabview/lv_tabview.c **** 
 165:Middlewares/LVGL/GUI/lvgl/src/extra/widgets/tabview/lv_tabview.c **** lv_obj_t * lv_tabview_get_tab_btns(lv_obj_t * tv)
 166:Middlewares/LVGL/GUI/lvgl/src/extra/widgets/tabview/lv_tabview.c **** {
 167:Middlewares/LVGL/GUI/lvgl/src/extra/widgets/tabview/lv_tabview.c ****     return lv_obj_get_child(tv, 0);
 168:Middlewares/LVGL/GUI/lvgl/src/extra/widgets/tabview/lv_tabview.c **** }
 169:Middlewares/LVGL/GUI/lvgl/src/extra/widgets/tabview/lv_tabview.c **** 
 170:Middlewares/LVGL/GUI/lvgl/src/extra/widgets/tabview/lv_tabview.c **** /**********************
 171:Middlewares/LVGL/GUI/lvgl/src/extra/widgets/tabview/lv_tabview.c ****  *   STATIC FUNCTIONS
 172:Middlewares/LVGL/GUI/lvgl/src/extra/widgets/tabview/lv_tabview.c ****  **********************/
 173:Middlewares/LVGL/GUI/lvgl/src/extra/widgets/tabview/lv_tabview.c **** 
 174:Middlewares/LVGL/GUI/lvgl/src/extra/widgets/tabview/lv_tabview.c **** static void lv_tabview_constructor(const lv_obj_class_t * class_p, lv_obj_t * obj)
 175:Middlewares/LVGL/GUI/lvgl/src/extra/widgets/tabview/lv_tabview.c **** {
 176:Middlewares/LVGL/GUI/lvgl/src/extra/widgets/tabview/lv_tabview.c ****     LV_UNUSED(class_p);
 177:Middlewares/LVGL/GUI/lvgl/src/extra/widgets/tabview/lv_tabview.c ****     lv_tabview_t * tabview = (lv_tabview_t *)obj;
 178:Middlewares/LVGL/GUI/lvgl/src/extra/widgets/tabview/lv_tabview.c **** 
 179:Middlewares/LVGL/GUI/lvgl/src/extra/widgets/tabview/lv_tabview.c ****     tabview->tab_pos = tabpos_create;
 180:Middlewares/LVGL/GUI/lvgl/src/extra/widgets/tabview/lv_tabview.c **** 
 181:Middlewares/LVGL/GUI/lvgl/src/extra/widgets/tabview/lv_tabview.c ****     switch(tabview->tab_pos) {
 182:Middlewares/LVGL/GUI/lvgl/src/extra/widgets/tabview/lv_tabview.c ****         case LV_DIR_TOP:
 183:Middlewares/LVGL/GUI/lvgl/src/extra/widgets/tabview/lv_tabview.c ****             lv_obj_set_flex_flow(obj, LV_FLEX_FLOW_COLUMN);
 184:Middlewares/LVGL/GUI/lvgl/src/extra/widgets/tabview/lv_tabview.c ****             break;
 185:Middlewares/LVGL/GUI/lvgl/src/extra/widgets/tabview/lv_tabview.c ****         case LV_DIR_BOTTOM:
 186:Middlewares/LVGL/GUI/lvgl/src/extra/widgets/tabview/lv_tabview.c ****             lv_obj_set_flex_flow(obj, LV_FLEX_FLOW_COLUMN_REVERSE);
 187:Middlewares/LVGL/GUI/lvgl/src/extra/widgets/tabview/lv_tabview.c ****             break;
 188:Middlewares/LVGL/GUI/lvgl/src/extra/widgets/tabview/lv_tabview.c ****         case LV_DIR_LEFT:
 189:Middlewares/LVGL/GUI/lvgl/src/extra/widgets/tabview/lv_tabview.c ****             lv_obj_set_flex_flow(obj, LV_FLEX_FLOW_ROW);
 190:Middlewares/LVGL/GUI/lvgl/src/extra/widgets/tabview/lv_tabview.c ****             break;
 191:Middlewares/LVGL/GUI/lvgl/src/extra/widgets/tabview/lv_tabview.c ****         case LV_DIR_RIGHT:
 192:Middlewares/LVGL/GUI/lvgl/src/extra/widgets/tabview/lv_tabview.c ****             lv_obj_set_flex_flow(obj, LV_FLEX_FLOW_ROW_REVERSE);
 193:Middlewares/LVGL/GUI/lvgl/src/extra/widgets/tabview/lv_tabview.c ****             break;
 194:Middlewares/LVGL/GUI/lvgl/src/extra/widgets/tabview/lv_tabview.c ****     }
 195:Middlewares/LVGL/GUI/lvgl/src/extra/widgets/tabview/lv_tabview.c **** 
 196:Middlewares/LVGL/GUI/lvgl/src/extra/widgets/tabview/lv_tabview.c ****     lv_obj_set_size(obj, LV_PCT(100), LV_PCT(100));
 197:Middlewares/LVGL/GUI/lvgl/src/extra/widgets/tabview/lv_tabview.c **** 
 198:Middlewares/LVGL/GUI/lvgl/src/extra/widgets/tabview/lv_tabview.c ****     lv_obj_t * btnm;
 199:Middlewares/LVGL/GUI/lvgl/src/extra/widgets/tabview/lv_tabview.c ****     lv_obj_t * cont;
 200:Middlewares/LVGL/GUI/lvgl/src/extra/widgets/tabview/lv_tabview.c **** 
 201:Middlewares/LVGL/GUI/lvgl/src/extra/widgets/tabview/lv_tabview.c ****     btnm = lv_btnmatrix_create(obj);
ARM GAS  C:\Users\ADMINI~1\AppData\Local\Temp\ccbkt2w0.s 			page 5


 202:Middlewares/LVGL/GUI/lvgl/src/extra/widgets/tabview/lv_tabview.c ****     cont = lv_obj_create(obj);
 203:Middlewares/LVGL/GUI/lvgl/src/extra/widgets/tabview/lv_tabview.c **** 
 204:Middlewares/LVGL/GUI/lvgl/src/extra/widgets/tabview/lv_tabview.c ****     lv_btnmatrix_set_one_checked(btnm, true);
 205:Middlewares/LVGL/GUI/lvgl/src/extra/widgets/tabview/lv_tabview.c ****     tabview->map = lv_mem_alloc(sizeof(const char *));
 206:Middlewares/LVGL/GUI/lvgl/src/extra/widgets/tabview/lv_tabview.c ****     tabview->map[0] = "";
 207:Middlewares/LVGL/GUI/lvgl/src/extra/widgets/tabview/lv_tabview.c ****     lv_btnmatrix_set_map(btnm, (const char **)tabview->map);
 208:Middlewares/LVGL/GUI/lvgl/src/extra/widgets/tabview/lv_tabview.c ****     lv_obj_add_event_cb(btnm, btns_value_changed_event_cb, LV_EVENT_VALUE_CHANGED, NULL);
 209:Middlewares/LVGL/GUI/lvgl/src/extra/widgets/tabview/lv_tabview.c ****     lv_obj_add_flag(btnm, LV_OBJ_FLAG_EVENT_BUBBLE);
 210:Middlewares/LVGL/GUI/lvgl/src/extra/widgets/tabview/lv_tabview.c **** 
 211:Middlewares/LVGL/GUI/lvgl/src/extra/widgets/tabview/lv_tabview.c ****     lv_obj_add_event_cb(cont, cont_scroll_end_event_cb, LV_EVENT_ALL, NULL);
 212:Middlewares/LVGL/GUI/lvgl/src/extra/widgets/tabview/lv_tabview.c ****     lv_obj_set_scrollbar_mode(cont, LV_SCROLLBAR_MODE_OFF);
 213:Middlewares/LVGL/GUI/lvgl/src/extra/widgets/tabview/lv_tabview.c **** 
 214:Middlewares/LVGL/GUI/lvgl/src/extra/widgets/tabview/lv_tabview.c ****     switch(tabview->tab_pos) {
 215:Middlewares/LVGL/GUI/lvgl/src/extra/widgets/tabview/lv_tabview.c ****         case LV_DIR_TOP:
 216:Middlewares/LVGL/GUI/lvgl/src/extra/widgets/tabview/lv_tabview.c ****         case LV_DIR_BOTTOM:
 217:Middlewares/LVGL/GUI/lvgl/src/extra/widgets/tabview/lv_tabview.c ****             lv_obj_set_size(btnm, LV_PCT(100), tabsize_create);
 218:Middlewares/LVGL/GUI/lvgl/src/extra/widgets/tabview/lv_tabview.c ****             lv_obj_set_width(cont, LV_PCT(100));
 219:Middlewares/LVGL/GUI/lvgl/src/extra/widgets/tabview/lv_tabview.c ****             lv_obj_set_flex_grow(cont, 1);
 220:Middlewares/LVGL/GUI/lvgl/src/extra/widgets/tabview/lv_tabview.c ****             break;
 221:Middlewares/LVGL/GUI/lvgl/src/extra/widgets/tabview/lv_tabview.c ****         case LV_DIR_LEFT:
 222:Middlewares/LVGL/GUI/lvgl/src/extra/widgets/tabview/lv_tabview.c ****         case LV_DIR_RIGHT:
 223:Middlewares/LVGL/GUI/lvgl/src/extra/widgets/tabview/lv_tabview.c ****             lv_obj_set_size(btnm, tabsize_create, LV_PCT(100));
 224:Middlewares/LVGL/GUI/lvgl/src/extra/widgets/tabview/lv_tabview.c ****             lv_obj_set_height(cont, LV_PCT(100));
 225:Middlewares/LVGL/GUI/lvgl/src/extra/widgets/tabview/lv_tabview.c ****             lv_obj_set_flex_grow(cont, 1);
 226:Middlewares/LVGL/GUI/lvgl/src/extra/widgets/tabview/lv_tabview.c ****             break;
 227:Middlewares/LVGL/GUI/lvgl/src/extra/widgets/tabview/lv_tabview.c ****     }
 228:Middlewares/LVGL/GUI/lvgl/src/extra/widgets/tabview/lv_tabview.c **** 
 229:Middlewares/LVGL/GUI/lvgl/src/extra/widgets/tabview/lv_tabview.c ****     lv_group_t * g = lv_group_get_default();
 230:Middlewares/LVGL/GUI/lvgl/src/extra/widgets/tabview/lv_tabview.c ****     if(g) lv_group_add_obj(g, btnm);
 231:Middlewares/LVGL/GUI/lvgl/src/extra/widgets/tabview/lv_tabview.c **** 
 232:Middlewares/LVGL/GUI/lvgl/src/extra/widgets/tabview/lv_tabview.c ****     lv_obj_set_flex_flow(cont, LV_FLEX_FLOW_ROW);
 233:Middlewares/LVGL/GUI/lvgl/src/extra/widgets/tabview/lv_tabview.c ****     lv_obj_set_scroll_snap_x(cont, LV_SCROLL_SNAP_CENTER);
 234:Middlewares/LVGL/GUI/lvgl/src/extra/widgets/tabview/lv_tabview.c ****     lv_obj_add_flag(cont, LV_OBJ_FLAG_SCROLL_ONE);
 235:Middlewares/LVGL/GUI/lvgl/src/extra/widgets/tabview/lv_tabview.c ****     lv_obj_clear_flag(cont, LV_OBJ_FLAG_SCROLL_ON_FOCUS);
 236:Middlewares/LVGL/GUI/lvgl/src/extra/widgets/tabview/lv_tabview.c **** }
 237:Middlewares/LVGL/GUI/lvgl/src/extra/widgets/tabview/lv_tabview.c **** 
 238:Middlewares/LVGL/GUI/lvgl/src/extra/widgets/tabview/lv_tabview.c **** static void lv_tabview_destructor(const lv_obj_class_t * class_p, lv_obj_t * obj)
 239:Middlewares/LVGL/GUI/lvgl/src/extra/widgets/tabview/lv_tabview.c **** {
  29              		.loc 1 239 1 view -0
  30              		.cfi_startproc
  31              		@ args = 0, pretend = 0, frame = 0
  32              		@ frame_needed = 0, uses_anonymous_args = 0
  33              		.loc 1 239 1 is_stmt 0 view .LVU1
  34 0000 38B5     		push	{r3, r4, r5, lr}
  35              	.LCFI0:
  36              		.cfi_def_cfa_offset 16
  37              		.cfi_offset 3, -16
  38              		.cfi_offset 4, -12
  39              		.cfi_offset 5, -8
  40              		.cfi_offset 14, -4
  41 0002 0C46     		mov	r4, r1
 240:Middlewares/LVGL/GUI/lvgl/src/extra/widgets/tabview/lv_tabview.c ****     LV_UNUSED(class_p);
  42              		.loc 1 240 5 is_stmt 1 view .LVU2
 241:Middlewares/LVGL/GUI/lvgl/src/extra/widgets/tabview/lv_tabview.c ****     lv_tabview_t * tabview = (lv_tabview_t *)obj;
  43              		.loc 1 241 5 view .LVU3
  44              	.LVL1:
 242:Middlewares/LVGL/GUI/lvgl/src/extra/widgets/tabview/lv_tabview.c **** 
ARM GAS  C:\Users\ADMINI~1\AppData\Local\Temp\ccbkt2w0.s 			page 6


 243:Middlewares/LVGL/GUI/lvgl/src/extra/widgets/tabview/lv_tabview.c ****     uint32_t i;
  45              		.loc 1 243 5 view .LVU4
 244:Middlewares/LVGL/GUI/lvgl/src/extra/widgets/tabview/lv_tabview.c ****     if(tabview->tab_pos & LV_DIR_VER) {
  46              		.loc 1 244 5 view .LVU5
  47              		.loc 1 244 15 is_stmt 0 view .LVU6
  48 0004 91F83430 		ldrb	r3, [r1, #52]	@ zero_extendqisi2
  49              		.loc 1 244 7 view .LVU7
  50 0008 13F00C0F 		tst	r3, #12
  51 000c 18D1     		bne	.L8
  52              	.LVL2:
  53              	.L3:
 245:Middlewares/LVGL/GUI/lvgl/src/extra/widgets/tabview/lv_tabview.c ****         for(i = 0; i < tabview->tab_cnt; i++) {
 246:Middlewares/LVGL/GUI/lvgl/src/extra/widgets/tabview/lv_tabview.c ****             lv_mem_free(tabview->map[i]);
 247:Middlewares/LVGL/GUI/lvgl/src/extra/widgets/tabview/lv_tabview.c ****             tabview->map[i] = NULL;
 248:Middlewares/LVGL/GUI/lvgl/src/extra/widgets/tabview/lv_tabview.c ****         }
 249:Middlewares/LVGL/GUI/lvgl/src/extra/widgets/tabview/lv_tabview.c ****     }
 250:Middlewares/LVGL/GUI/lvgl/src/extra/widgets/tabview/lv_tabview.c ****     if(tabview->tab_pos & LV_DIR_HOR) {
  54              		.loc 1 250 5 is_stmt 1 view .LVU8
  55              		.loc 1 250 15 is_stmt 0 view .LVU9
  56 000e 94F83430 		ldrb	r3, [r4, #52]	@ zero_extendqisi2
  57              		.loc 1 250 7 view .LVU10
  58 0012 13F0030F 		tst	r3, #3
  59 0016 23D1     		bne	.L9
  60              	.L6:
 251:Middlewares/LVGL/GUI/lvgl/src/extra/widgets/tabview/lv_tabview.c ****         for(i = 0; i < tabview->tab_cnt; i++) {
 252:Middlewares/LVGL/GUI/lvgl/src/extra/widgets/tabview/lv_tabview.c ****             lv_mem_free(tabview->map[i * 2]);
 253:Middlewares/LVGL/GUI/lvgl/src/extra/widgets/tabview/lv_tabview.c ****             tabview->map[i * 2] = NULL;
 254:Middlewares/LVGL/GUI/lvgl/src/extra/widgets/tabview/lv_tabview.c ****         }
 255:Middlewares/LVGL/GUI/lvgl/src/extra/widgets/tabview/lv_tabview.c ****     }
 256:Middlewares/LVGL/GUI/lvgl/src/extra/widgets/tabview/lv_tabview.c **** 
 257:Middlewares/LVGL/GUI/lvgl/src/extra/widgets/tabview/lv_tabview.c **** 
 258:Middlewares/LVGL/GUI/lvgl/src/extra/widgets/tabview/lv_tabview.c ****     lv_mem_free(tabview->map);
  61              		.loc 1 258 5 is_stmt 1 view .LVU11
  62 0018 E06A     		ldr	r0, [r4, #44]
  63 001a FFF7FEFF 		bl	lv_mem_free
  64              	.LVL3:
 259:Middlewares/LVGL/GUI/lvgl/src/extra/widgets/tabview/lv_tabview.c ****     tabview->map = NULL;
  65              		.loc 1 259 5 view .LVU12
  66              		.loc 1 259 18 is_stmt 0 view .LVU13
  67 001e 0023     		movs	r3, #0
  68 0020 E362     		str	r3, [r4, #44]
 260:Middlewares/LVGL/GUI/lvgl/src/extra/widgets/tabview/lv_tabview.c **** }
  69              		.loc 1 260 1 view .LVU14
  70 0022 38BD     		pop	{r3, r4, r5, pc}
  71              	.LVL4:
  72              	.L4:
 246:Middlewares/LVGL/GUI/lvgl/src/extra/widgets/tabview/lv_tabview.c ****             tabview->map[i] = NULL;
  73              		.loc 1 246 13 is_stmt 1 discriminator 3 view .LVU15
 246:Middlewares/LVGL/GUI/lvgl/src/extra/widgets/tabview/lv_tabview.c ****             tabview->map[i] = NULL;
  74              		.loc 1 246 32 is_stmt 0 discriminator 3 view .LVU16
  75 0024 E36A     		ldr	r3, [r4, #44]
 246:Middlewares/LVGL/GUI/lvgl/src/extra/widgets/tabview/lv_tabview.c ****             tabview->map[i] = NULL;
  76              		.loc 1 246 13 discriminator 3 view .LVU17
  77 0026 53F82500 		ldr	r0, [r3, r5, lsl #2]
  78 002a FFF7FEFF 		bl	lv_mem_free
  79              	.LVL5:
 247:Middlewares/LVGL/GUI/lvgl/src/extra/widgets/tabview/lv_tabview.c ****         }
ARM GAS  C:\Users\ADMINI~1\AppData\Local\Temp\ccbkt2w0.s 			page 7


  80              		.loc 1 247 13 is_stmt 1 discriminator 3 view .LVU18
 247:Middlewares/LVGL/GUI/lvgl/src/extra/widgets/tabview/lv_tabview.c ****         }
  81              		.loc 1 247 20 is_stmt 0 discriminator 3 view .LVU19
  82 002e E36A     		ldr	r3, [r4, #44]
 247:Middlewares/LVGL/GUI/lvgl/src/extra/widgets/tabview/lv_tabview.c ****         }
  83              		.loc 1 247 29 discriminator 3 view .LVU20
  84 0030 0022     		movs	r2, #0
  85 0032 43F82520 		str	r2, [r3, r5, lsl #2]
 245:Middlewares/LVGL/GUI/lvgl/src/extra/widgets/tabview/lv_tabview.c ****             lv_mem_free(tabview->map[i]);
  86              		.loc 1 245 42 is_stmt 1 discriminator 3 view .LVU21
 245:Middlewares/LVGL/GUI/lvgl/src/extra/widgets/tabview/lv_tabview.c ****             lv_mem_free(tabview->map[i]);
  87              		.loc 1 245 43 is_stmt 0 discriminator 3 view .LVU22
  88 0036 0135     		adds	r5, r5, #1
  89              	.LVL6:
  90              	.L2:
 245:Middlewares/LVGL/GUI/lvgl/src/extra/widgets/tabview/lv_tabview.c ****             lv_mem_free(tabview->map[i]);
  91              		.loc 1 245 20 is_stmt 1 discriminator 1 view .LVU23
 245:Middlewares/LVGL/GUI/lvgl/src/extra/widgets/tabview/lv_tabview.c ****             lv_mem_free(tabview->map[i]);
  92              		.loc 1 245 31 is_stmt 0 discriminator 1 view .LVU24
  93 0038 238E     		ldrh	r3, [r4, #48]
 245:Middlewares/LVGL/GUI/lvgl/src/extra/widgets/tabview/lv_tabview.c ****             lv_mem_free(tabview->map[i]);
  94              		.loc 1 245 9 discriminator 1 view .LVU25
  95 003a AB42     		cmp	r3, r5
  96 003c F2D8     		bhi	.L4
  97 003e E6E7     		b	.L3
  98              	.LVL7:
  99              	.L8:
 245:Middlewares/LVGL/GUI/lvgl/src/extra/widgets/tabview/lv_tabview.c ****             lv_mem_free(tabview->map[i]);
 100              		.loc 1 245 15 view .LVU26
 101 0040 0025     		movs	r5, #0
 102 0042 F9E7     		b	.L2
 103              	.LVL8:
 104              	.L7:
 252:Middlewares/LVGL/GUI/lvgl/src/extra/widgets/tabview/lv_tabview.c ****             tabview->map[i * 2] = NULL;
 105              		.loc 1 252 13 is_stmt 1 discriminator 3 view .LVU27
 252:Middlewares/LVGL/GUI/lvgl/src/extra/widgets/tabview/lv_tabview.c ****             tabview->map[i * 2] = NULL;
 106              		.loc 1 252 32 is_stmt 0 discriminator 3 view .LVU28
 107 0044 E36A     		ldr	r3, [r4, #44]
 252:Middlewares/LVGL/GUI/lvgl/src/extra/widgets/tabview/lv_tabview.c ****             tabview->map[i * 2] = NULL;
 108              		.loc 1 252 13 discriminator 3 view .LVU29
 109 0046 53F83500 		ldr	r0, [r3, r5, lsl #3]
 110 004a FFF7FEFF 		bl	lv_mem_free
 111              	.LVL9:
 253:Middlewares/LVGL/GUI/lvgl/src/extra/widgets/tabview/lv_tabview.c ****         }
 112              		.loc 1 253 13 is_stmt 1 discriminator 3 view .LVU30
 253:Middlewares/LVGL/GUI/lvgl/src/extra/widgets/tabview/lv_tabview.c ****         }
 113              		.loc 1 253 20 is_stmt 0 discriminator 3 view .LVU31
 114 004e E36A     		ldr	r3, [r4, #44]
 253:Middlewares/LVGL/GUI/lvgl/src/extra/widgets/tabview/lv_tabview.c ****         }
 115              		.loc 1 253 33 discriminator 3 view .LVU32
 116 0050 0022     		movs	r2, #0
 117 0052 43F83520 		str	r2, [r3, r5, lsl #3]
 251:Middlewares/LVGL/GUI/lvgl/src/extra/widgets/tabview/lv_tabview.c ****             lv_mem_free(tabview->map[i * 2]);
 118              		.loc 1 251 42 is_stmt 1 discriminator 3 view .LVU33
 251:Middlewares/LVGL/GUI/lvgl/src/extra/widgets/tabview/lv_tabview.c ****             lv_mem_free(tabview->map[i * 2]);
 119              		.loc 1 251 43 is_stmt 0 discriminator 3 view .LVU34
 120 0056 0135     		adds	r5, r5, #1
ARM GAS  C:\Users\ADMINI~1\AppData\Local\Temp\ccbkt2w0.s 			page 8


 121              	.LVL10:
 122              	.L5:
 251:Middlewares/LVGL/GUI/lvgl/src/extra/widgets/tabview/lv_tabview.c ****             lv_mem_free(tabview->map[i * 2]);
 123              		.loc 1 251 20 is_stmt 1 discriminator 1 view .LVU35
 251:Middlewares/LVGL/GUI/lvgl/src/extra/widgets/tabview/lv_tabview.c ****             lv_mem_free(tabview->map[i * 2]);
 124              		.loc 1 251 31 is_stmt 0 discriminator 1 view .LVU36
 125 0058 238E     		ldrh	r3, [r4, #48]
 251:Middlewares/LVGL/GUI/lvgl/src/extra/widgets/tabview/lv_tabview.c ****             lv_mem_free(tabview->map[i * 2]);
 126              		.loc 1 251 9 discriminator 1 view .LVU37
 127 005a AB42     		cmp	r3, r5
 128 005c F2D8     		bhi	.L7
 129 005e DBE7     		b	.L6
 130              	.LVL11:
 131              	.L9:
 251:Middlewares/LVGL/GUI/lvgl/src/extra/widgets/tabview/lv_tabview.c ****             lv_mem_free(tabview->map[i * 2]);
 132              		.loc 1 251 15 view .LVU38
 133 0060 0025     		movs	r5, #0
 134 0062 F9E7     		b	.L5
 135              		.cfi_endproc
 136              	.LFE203:
 138              		.section	.rodata.lv_tabview_constructor.str1.4,"aMS",%progbits,1
 139              		.align	2
 140              	.LC0:
 141 0000 00       		.ascii	"\000"
 142              		.section	.text.lv_tabview_constructor,"ax",%progbits
 143              		.align	1
 144              		.syntax unified
 145              		.thumb
 146              		.thumb_func
 148              	lv_tabview_constructor:
 149              	.LVL12:
 150              	.LFB202:
 175:Middlewares/LVGL/GUI/lvgl/src/extra/widgets/tabview/lv_tabview.c ****     LV_UNUSED(class_p);
 151              		.loc 1 175 1 is_stmt 1 view -0
 152              		.cfi_startproc
 153              		@ args = 0, pretend = 0, frame = 0
 154              		@ frame_needed = 0, uses_anonymous_args = 0
 175:Middlewares/LVGL/GUI/lvgl/src/extra/widgets/tabview/lv_tabview.c ****     LV_UNUSED(class_p);
 155              		.loc 1 175 1 is_stmt 0 view .LVU40
 156 0000 70B5     		push	{r4, r5, r6, lr}
 157              	.LCFI1:
 158              		.cfi_def_cfa_offset 16
 159              		.cfi_offset 4, -16
 160              		.cfi_offset 5, -12
 161              		.cfi_offset 6, -8
 162              		.cfi_offset 14, -4
 163 0002 0C46     		mov	r4, r1
 176:Middlewares/LVGL/GUI/lvgl/src/extra/widgets/tabview/lv_tabview.c ****     lv_tabview_t * tabview = (lv_tabview_t *)obj;
 164              		.loc 1 176 5 is_stmt 1 view .LVU41
 177:Middlewares/LVGL/GUI/lvgl/src/extra/widgets/tabview/lv_tabview.c **** 
 165              		.loc 1 177 5 view .LVU42
 166              	.LVL13:
 179:Middlewares/LVGL/GUI/lvgl/src/extra/widgets/tabview/lv_tabview.c **** 
 167              		.loc 1 179 5 view .LVU43
 179:Middlewares/LVGL/GUI/lvgl/src/extra/widgets/tabview/lv_tabview.c **** 
 168              		.loc 1 179 22 is_stmt 0 view .LVU44
 169 0004 484B     		ldr	r3, .L25
ARM GAS  C:\Users\ADMINI~1\AppData\Local\Temp\ccbkt2w0.s 			page 9


 170 0006 1B78     		ldrb	r3, [r3]	@ zero_extendqisi2
 171 0008 81F83430 		strb	r3, [r1, #52]
 181:Middlewares/LVGL/GUI/lvgl/src/extra/widgets/tabview/lv_tabview.c ****         case LV_DIR_TOP:
 172              		.loc 1 181 5 is_stmt 1 view .LVU45
 173 000c 013B     		subs	r3, r3, #1
 174 000e 072B     		cmp	r3, #7
 175 0010 09D8     		bhi	.L12
 176 0012 DFE803F0 		tbb	[pc, r3]
 177              	.L14:
 178 0016 56       		.byte	(.L17-.L14)/2
 179 0017 5B       		.byte	(.L16-.L14)/2
 180 0018 08       		.byte	(.L12-.L14)/2
 181 0019 04       		.byte	(.L15-.L14)/2
 182 001a 08       		.byte	(.L12-.L14)/2
 183 001b 08       		.byte	(.L12-.L14)/2
 184 001c 08       		.byte	(.L12-.L14)/2
 185 001d 51       		.byte	(.L13-.L14)/2
 186              		.p2align 1
 187              	.L15:
 183:Middlewares/LVGL/GUI/lvgl/src/extra/widgets/tabview/lv_tabview.c ****             break;
 188              		.loc 1 183 13 view .LVU46
 189 001e 0121     		movs	r1, #1
 190              	.LVL14:
 183:Middlewares/LVGL/GUI/lvgl/src/extra/widgets/tabview/lv_tabview.c ****             break;
 191              		.loc 1 183 13 is_stmt 0 view .LVU47
 192 0020 2046     		mov	r0, r4
 193              	.LVL15:
 183:Middlewares/LVGL/GUI/lvgl/src/extra/widgets/tabview/lv_tabview.c ****             break;
 194              		.loc 1 183 13 view .LVU48
 195 0022 FFF7FEFF 		bl	lv_obj_set_flex_flow
 196              	.LVL16:
 184:Middlewares/LVGL/GUI/lvgl/src/extra/widgets/tabview/lv_tabview.c ****         case LV_DIR_BOTTOM:
 197              		.loc 1 184 13 is_stmt 1 view .LVU49
 198              	.L12:
 196:Middlewares/LVGL/GUI/lvgl/src/extra/widgets/tabview/lv_tabview.c **** 
 199              		.loc 1 196 5 view .LVU50
 200 0026 4149     		ldr	r1, .L25+4
 201 0028 0A46     		mov	r2, r1
 202 002a 2046     		mov	r0, r4
 203 002c FFF7FEFF 		bl	lv_obj_set_size
 204              	.LVL17:
 198:Middlewares/LVGL/GUI/lvgl/src/extra/widgets/tabview/lv_tabview.c ****     lv_obj_t * cont;
 205              		.loc 1 198 5 view .LVU51
 199:Middlewares/LVGL/GUI/lvgl/src/extra/widgets/tabview/lv_tabview.c **** 
 206              		.loc 1 199 5 view .LVU52
 201:Middlewares/LVGL/GUI/lvgl/src/extra/widgets/tabview/lv_tabview.c ****     cont = lv_obj_create(obj);
 207              		.loc 1 201 5 view .LVU53
 201:Middlewares/LVGL/GUI/lvgl/src/extra/widgets/tabview/lv_tabview.c ****     cont = lv_obj_create(obj);
 208              		.loc 1 201 12 is_stmt 0 view .LVU54
 209 0030 2046     		mov	r0, r4
 210 0032 FFF7FEFF 		bl	lv_btnmatrix_create
 211              	.LVL18:
 212 0036 0646     		mov	r6, r0
 213              	.LVL19:
 202:Middlewares/LVGL/GUI/lvgl/src/extra/widgets/tabview/lv_tabview.c **** 
 214              		.loc 1 202 5 is_stmt 1 view .LVU55
 202:Middlewares/LVGL/GUI/lvgl/src/extra/widgets/tabview/lv_tabview.c **** 
ARM GAS  C:\Users\ADMINI~1\AppData\Local\Temp\ccbkt2w0.s 			page 10


 215              		.loc 1 202 12 is_stmt 0 view .LVU56
 216 0038 2046     		mov	r0, r4
 217              	.LVL20:
 202:Middlewares/LVGL/GUI/lvgl/src/extra/widgets/tabview/lv_tabview.c **** 
 218              		.loc 1 202 12 view .LVU57
 219 003a FFF7FEFF 		bl	lv_obj_create
 220              	.LVL21:
 221 003e 0546     		mov	r5, r0
 222              	.LVL22:
 204:Middlewares/LVGL/GUI/lvgl/src/extra/widgets/tabview/lv_tabview.c ****     tabview->map = lv_mem_alloc(sizeof(const char *));
 223              		.loc 1 204 5 is_stmt 1 view .LVU58
 224 0040 0121     		movs	r1, #1
 225 0042 3046     		mov	r0, r6
 226              	.LVL23:
 204:Middlewares/LVGL/GUI/lvgl/src/extra/widgets/tabview/lv_tabview.c ****     tabview->map = lv_mem_alloc(sizeof(const char *));
 227              		.loc 1 204 5 is_stmt 0 view .LVU59
 228 0044 FFF7FEFF 		bl	lv_btnmatrix_set_one_checked
 229              	.LVL24:
 205:Middlewares/LVGL/GUI/lvgl/src/extra/widgets/tabview/lv_tabview.c ****     tabview->map[0] = "";
 230              		.loc 1 205 5 is_stmt 1 view .LVU60
 205:Middlewares/LVGL/GUI/lvgl/src/extra/widgets/tabview/lv_tabview.c ****     tabview->map[0] = "";
 231              		.loc 1 205 20 is_stmt 0 view .LVU61
 232 0048 0420     		movs	r0, #4
 233 004a FFF7FEFF 		bl	lv_mem_alloc
 234              	.LVL25:
 205:Middlewares/LVGL/GUI/lvgl/src/extra/widgets/tabview/lv_tabview.c ****     tabview->map[0] = "";
 235              		.loc 1 205 18 view .LVU62
 236 004e E062     		str	r0, [r4, #44]
 206:Middlewares/LVGL/GUI/lvgl/src/extra/widgets/tabview/lv_tabview.c ****     lv_btnmatrix_set_map(btnm, (const char **)tabview->map);
 237              		.loc 1 206 5 is_stmt 1 view .LVU63
 206:Middlewares/LVGL/GUI/lvgl/src/extra/widgets/tabview/lv_tabview.c ****     lv_btnmatrix_set_map(btnm, (const char **)tabview->map);
 238              		.loc 1 206 21 is_stmt 0 view .LVU64
 239 0050 374B     		ldr	r3, .L25+8
 240 0052 0360     		str	r3, [r0]
 207:Middlewares/LVGL/GUI/lvgl/src/extra/widgets/tabview/lv_tabview.c ****     lv_obj_add_event_cb(btnm, btns_value_changed_event_cb, LV_EVENT_VALUE_CHANGED, NULL);
 241              		.loc 1 207 5 is_stmt 1 view .LVU65
 242 0054 E16A     		ldr	r1, [r4, #44]
 243 0056 3046     		mov	r0, r6
 244 0058 FFF7FEFF 		bl	lv_btnmatrix_set_map
 245              	.LVL26:
 208:Middlewares/LVGL/GUI/lvgl/src/extra/widgets/tabview/lv_tabview.c ****     lv_obj_add_flag(btnm, LV_OBJ_FLAG_EVENT_BUBBLE);
 246              		.loc 1 208 5 view .LVU66
 247 005c 0023     		movs	r3, #0
 248 005e 1C22     		movs	r2, #28
 249 0060 3449     		ldr	r1, .L25+12
 250 0062 3046     		mov	r0, r6
 251 0064 FFF7FEFF 		bl	lv_obj_add_event_cb
 252              	.LVL27:
 209:Middlewares/LVGL/GUI/lvgl/src/extra/widgets/tabview/lv_tabview.c **** 
 253              		.loc 1 209 5 view .LVU67
 254 0068 4FF48041 		mov	r1, #16384
 255 006c 3046     		mov	r0, r6
 256 006e FFF7FEFF 		bl	lv_obj_add_flag
 257              	.LVL28:
 211:Middlewares/LVGL/GUI/lvgl/src/extra/widgets/tabview/lv_tabview.c ****     lv_obj_set_scrollbar_mode(cont, LV_SCROLLBAR_MODE_OFF);
 258              		.loc 1 211 5 view .LVU68
 259 0072 0023     		movs	r3, #0
ARM GAS  C:\Users\ADMINI~1\AppData\Local\Temp\ccbkt2w0.s 			page 11


 260 0074 1A46     		mov	r2, r3
 261 0076 3049     		ldr	r1, .L25+16
 262 0078 2846     		mov	r0, r5
 263 007a FFF7FEFF 		bl	lv_obj_add_event_cb
 264              	.LVL29:
 212:Middlewares/LVGL/GUI/lvgl/src/extra/widgets/tabview/lv_tabview.c **** 
 265              		.loc 1 212 5 view .LVU69
 266 007e 0021     		movs	r1, #0
 267 0080 2846     		mov	r0, r5
 268 0082 FFF7FEFF 		bl	lv_obj_set_scrollbar_mode
 269              	.LVL30:
 214:Middlewares/LVGL/GUI/lvgl/src/extra/widgets/tabview/lv_tabview.c ****         case LV_DIR_TOP:
 270              		.loc 1 214 5 view .LVU70
 214:Middlewares/LVGL/GUI/lvgl/src/extra/widgets/tabview/lv_tabview.c ****         case LV_DIR_TOP:
 271              		.loc 1 214 19 is_stmt 0 view .LVU71
 272 0086 94F83430 		ldrb	r3, [r4, #52]	@ zero_extendqisi2
 214:Middlewares/LVGL/GUI/lvgl/src/extra/widgets/tabview/lv_tabview.c ****         case LV_DIR_TOP:
 273              		.loc 1 214 5 view .LVU72
 274 008a 042B     		cmp	r3, #4
 275 008c 25D0     		beq	.L18
 276 008e 22D8     		bhi	.L19
 277 0090 013B     		subs	r3, r3, #1
 278 0092 DBB2     		uxtb	r3, r3
 279 0094 012B     		cmp	r3, #1
 280 0096 2FD8     		bhi	.L20
 223:Middlewares/LVGL/GUI/lvgl/src/extra/widgets/tabview/lv_tabview.c ****             lv_obj_set_height(cont, LV_PCT(100));
 281              		.loc 1 223 13 is_stmt 1 view .LVU73
 282 0098 244C     		ldr	r4, .L25+4
 283              	.LVL31:
 223:Middlewares/LVGL/GUI/lvgl/src/extra/widgets/tabview/lv_tabview.c ****             lv_obj_set_height(cont, LV_PCT(100));
 284              		.loc 1 223 13 is_stmt 0 view .LVU74
 285 009a 2246     		mov	r2, r4
 286 009c 274B     		ldr	r3, .L25+20
 287 009e 1968     		ldr	r1, [r3]
 288 00a0 3046     		mov	r0, r6
 289 00a2 FFF7FEFF 		bl	lv_obj_set_size
 290              	.LVL32:
 224:Middlewares/LVGL/GUI/lvgl/src/extra/widgets/tabview/lv_tabview.c ****             lv_obj_set_flex_grow(cont, 1);
 291              		.loc 1 224 13 is_stmt 1 view .LVU75
 292 00a6 2146     		mov	r1, r4
 293 00a8 2846     		mov	r0, r5
 294 00aa FFF7FEFF 		bl	lv_obj_set_height
 295              	.LVL33:
 225:Middlewares/LVGL/GUI/lvgl/src/extra/widgets/tabview/lv_tabview.c ****             break;
 296              		.loc 1 225 13 view .LVU76
 297 00ae 0121     		movs	r1, #1
 298 00b0 2846     		mov	r0, r5
 299 00b2 FFF7FEFF 		bl	lv_obj_set_flex_grow
 300              	.LVL34:
 226:Middlewares/LVGL/GUI/lvgl/src/extra/widgets/tabview/lv_tabview.c ****     }
 301              		.loc 1 226 13 view .LVU77
 302 00b6 1FE0     		b	.L20
 303              	.LVL35:
 304              	.L13:
 186:Middlewares/LVGL/GUI/lvgl/src/extra/widgets/tabview/lv_tabview.c ****             break;
 305              		.loc 1 186 13 view .LVU78
 306 00b8 0921     		movs	r1, #9
ARM GAS  C:\Users\ADMINI~1\AppData\Local\Temp\ccbkt2w0.s 			page 12


 307              	.LVL36:
 186:Middlewares/LVGL/GUI/lvgl/src/extra/widgets/tabview/lv_tabview.c ****             break;
 308              		.loc 1 186 13 is_stmt 0 view .LVU79
 309 00ba 2046     		mov	r0, r4
 310              	.LVL37:
 186:Middlewares/LVGL/GUI/lvgl/src/extra/widgets/tabview/lv_tabview.c ****             break;
 311              		.loc 1 186 13 view .LVU80
 312 00bc FFF7FEFF 		bl	lv_obj_set_flex_flow
 313              	.LVL38:
 187:Middlewares/LVGL/GUI/lvgl/src/extra/widgets/tabview/lv_tabview.c ****         case LV_DIR_LEFT:
 314              		.loc 1 187 13 is_stmt 1 view .LVU81
 315 00c0 B1E7     		b	.L12
 316              	.LVL39:
 317              	.L17:
 189:Middlewares/LVGL/GUI/lvgl/src/extra/widgets/tabview/lv_tabview.c ****             break;
 318              		.loc 1 189 13 view .LVU82
 319 00c2 0021     		movs	r1, #0
 320              	.LVL40:
 189:Middlewares/LVGL/GUI/lvgl/src/extra/widgets/tabview/lv_tabview.c ****             break;
 321              		.loc 1 189 13 is_stmt 0 view .LVU83
 322 00c4 2046     		mov	r0, r4
 323              	.LVL41:
 189:Middlewares/LVGL/GUI/lvgl/src/extra/widgets/tabview/lv_tabview.c ****             break;
 324              		.loc 1 189 13 view .LVU84
 325 00c6 FFF7FEFF 		bl	lv_obj_set_flex_flow
 326              	.LVL42:
 190:Middlewares/LVGL/GUI/lvgl/src/extra/widgets/tabview/lv_tabview.c ****         case LV_DIR_RIGHT:
 327              		.loc 1 190 13 is_stmt 1 view .LVU85
 328 00ca ACE7     		b	.L12
 329              	.LVL43:
 330              	.L16:
 192:Middlewares/LVGL/GUI/lvgl/src/extra/widgets/tabview/lv_tabview.c ****             break;
 331              		.loc 1 192 13 view .LVU86
 332 00cc 0821     		movs	r1, #8
 333              	.LVL44:
 192:Middlewares/LVGL/GUI/lvgl/src/extra/widgets/tabview/lv_tabview.c ****             break;
 334              		.loc 1 192 13 is_stmt 0 view .LVU87
 335 00ce 2046     		mov	r0, r4
 336              	.LVL45:
 192:Middlewares/LVGL/GUI/lvgl/src/extra/widgets/tabview/lv_tabview.c ****             break;
 337              		.loc 1 192 13 view .LVU88
 338 00d0 FFF7FEFF 		bl	lv_obj_set_flex_flow
 339              	.LVL46:
 193:Middlewares/LVGL/GUI/lvgl/src/extra/widgets/tabview/lv_tabview.c ****     }
 340              		.loc 1 193 13 is_stmt 1 view .LVU89
 341 00d4 A7E7     		b	.L12
 342              	.LVL47:
 343              	.L19:
 214:Middlewares/LVGL/GUI/lvgl/src/extra/widgets/tabview/lv_tabview.c ****         case LV_DIR_TOP:
 344              		.loc 1 214 5 is_stmt 0 view .LVU90
 345 00d6 082B     		cmp	r3, #8
 346 00d8 0ED1     		bne	.L20
 347              	.L18:
 217:Middlewares/LVGL/GUI/lvgl/src/extra/widgets/tabview/lv_tabview.c ****             lv_obj_set_width(cont, LV_PCT(100));
 348              		.loc 1 217 13 is_stmt 1 view .LVU91
 349 00da 144C     		ldr	r4, .L25+4
 350              	.LVL48:
ARM GAS  C:\Users\ADMINI~1\AppData\Local\Temp\ccbkt2w0.s 			page 13


 217:Middlewares/LVGL/GUI/lvgl/src/extra/widgets/tabview/lv_tabview.c ****             lv_obj_set_width(cont, LV_PCT(100));
 351              		.loc 1 217 13 is_stmt 0 view .LVU92
 352 00dc 174B     		ldr	r3, .L25+20
 353 00de 1A68     		ldr	r2, [r3]
 354 00e0 2146     		mov	r1, r4
 355 00e2 3046     		mov	r0, r6
 356 00e4 FFF7FEFF 		bl	lv_obj_set_size
 357              	.LVL49:
 218:Middlewares/LVGL/GUI/lvgl/src/extra/widgets/tabview/lv_tabview.c ****             lv_obj_set_flex_grow(cont, 1);
 358              		.loc 1 218 13 is_stmt 1 view .LVU93
 359 00e8 2146     		mov	r1, r4
 360 00ea 2846     		mov	r0, r5
 361 00ec FFF7FEFF 		bl	lv_obj_set_width
 362              	.LVL50:
 219:Middlewares/LVGL/GUI/lvgl/src/extra/widgets/tabview/lv_tabview.c ****             break;
 363              		.loc 1 219 13 view .LVU94
 364 00f0 0121     		movs	r1, #1
 365 00f2 2846     		mov	r0, r5
 366 00f4 FFF7FEFF 		bl	lv_obj_set_flex_grow
 367              	.LVL51:
 220:Middlewares/LVGL/GUI/lvgl/src/extra/widgets/tabview/lv_tabview.c ****         case LV_DIR_LEFT:
 368              		.loc 1 220 13 view .LVU95
 369              	.L20:
 229:Middlewares/LVGL/GUI/lvgl/src/extra/widgets/tabview/lv_tabview.c ****     if(g) lv_group_add_obj(g, btnm);
 370              		.loc 1 229 5 view .LVU96
 229:Middlewares/LVGL/GUI/lvgl/src/extra/widgets/tabview/lv_tabview.c ****     if(g) lv_group_add_obj(g, btnm);
 371              		.loc 1 229 22 is_stmt 0 view .LVU97
 372 00f8 FFF7FEFF 		bl	lv_group_get_default
 373              	.LVL52:
 230:Middlewares/LVGL/GUI/lvgl/src/extra/widgets/tabview/lv_tabview.c **** 
 374              		.loc 1 230 5 is_stmt 1 view .LVU98
 230:Middlewares/LVGL/GUI/lvgl/src/extra/widgets/tabview/lv_tabview.c **** 
 375              		.loc 1 230 7 is_stmt 0 view .LVU99
 376 00fc 10B1     		cbz	r0, .L22
 230:Middlewares/LVGL/GUI/lvgl/src/extra/widgets/tabview/lv_tabview.c **** 
 377              		.loc 1 230 11 is_stmt 1 discriminator 1 view .LVU100
 378 00fe 3146     		mov	r1, r6
 379 0100 FFF7FEFF 		bl	lv_group_add_obj
 380              	.LVL53:
 381              	.L22:
 232:Middlewares/LVGL/GUI/lvgl/src/extra/widgets/tabview/lv_tabview.c ****     lv_obj_set_scroll_snap_x(cont, LV_SCROLL_SNAP_CENTER);
 382              		.loc 1 232 5 view .LVU101
 383 0104 0021     		movs	r1, #0
 384 0106 2846     		mov	r0, r5
 385 0108 FFF7FEFF 		bl	lv_obj_set_flex_flow
 386              	.LVL54:
 233:Middlewares/LVGL/GUI/lvgl/src/extra/widgets/tabview/lv_tabview.c ****     lv_obj_add_flag(cont, LV_OBJ_FLAG_SCROLL_ONE);
 387              		.loc 1 233 5 view .LVU102
 388 010c 0321     		movs	r1, #3
 389 010e 2846     		mov	r0, r5
 390 0110 FFF7FEFF 		bl	lv_obj_set_scroll_snap_x
 391              	.LVL55:
 234:Middlewares/LVGL/GUI/lvgl/src/extra/widgets/tabview/lv_tabview.c ****     lv_obj_clear_flag(cont, LV_OBJ_FLAG_SCROLL_ON_FOCUS);
 392              		.loc 1 234 5 view .LVU103
 393 0114 8021     		movs	r1, #128
 394 0116 2846     		mov	r0, r5
 395 0118 FFF7FEFF 		bl	lv_obj_add_flag
ARM GAS  C:\Users\ADMINI~1\AppData\Local\Temp\ccbkt2w0.s 			page 14


 396              	.LVL56:
 235:Middlewares/LVGL/GUI/lvgl/src/extra/widgets/tabview/lv_tabview.c **** }
 397              		.loc 1 235 5 view .LVU104
 398 011c 4FF48061 		mov	r1, #1024
 399 0120 2846     		mov	r0, r5
 400 0122 FFF7FEFF 		bl	lv_obj_clear_flag
 401              	.LVL57:
 236:Middlewares/LVGL/GUI/lvgl/src/extra/widgets/tabview/lv_tabview.c **** 
 402              		.loc 1 236 1 is_stmt 0 view .LVU105
 403 0126 70BD     		pop	{r4, r5, r6, pc}
 404              	.LVL58:
 405              	.L26:
 236:Middlewares/LVGL/GUI/lvgl/src/extra/widgets/tabview/lv_tabview.c **** 
 406              		.loc 1 236 1 view .LVU106
 407              		.align	2
 408              	.L25:
 409 0128 00000000 		.word	.LANCHOR0
 410 012c 64000020 		.word	536871012
 411 0130 00000000 		.word	.LC0
 412 0134 00000000 		.word	btns_value_changed_event_cb
 413 0138 00000000 		.word	cont_scroll_end_event_cb
 414 013c 00000000 		.word	.LANCHOR1
 415              		.cfi_endproc
 416              	.LFE202:
 418              		.section	.text.lv_tabview_create,"ax",%progbits
 419              		.align	1
 420              		.global	lv_tabview_create
 421              		.syntax unified
 422              		.thumb
 423              		.thumb_func
 425              	lv_tabview_create:
 426              	.LVL59:
 427              	.LFB196:
  57:Middlewares/LVGL/GUI/lvgl/src/extra/widgets/tabview/lv_tabview.c ****     LV_LOG_INFO("begin");
 428              		.loc 1 57 1 is_stmt 1 view -0
 429              		.cfi_startproc
 430              		@ args = 0, pretend = 0, frame = 0
 431              		@ frame_needed = 0, uses_anonymous_args = 0
  57:Middlewares/LVGL/GUI/lvgl/src/extra/widgets/tabview/lv_tabview.c ****     LV_LOG_INFO("begin");
 432              		.loc 1 57 1 is_stmt 0 view .LVU108
 433 0000 10B5     		push	{r4, lr}
 434              	.LCFI2:
 435              		.cfi_def_cfa_offset 8
 436              		.cfi_offset 4, -8
 437              		.cfi_offset 14, -4
  58:Middlewares/LVGL/GUI/lvgl/src/extra/widgets/tabview/lv_tabview.c ****     tabpos_create = tab_pos;
 438              		.loc 1 58 5 is_stmt 1 view .LVU109
  58:Middlewares/LVGL/GUI/lvgl/src/extra/widgets/tabview/lv_tabview.c ****     tabpos_create = tab_pos;
 439              		.loc 1 58 5 view .LVU110
  58:Middlewares/LVGL/GUI/lvgl/src/extra/widgets/tabview/lv_tabview.c ****     tabpos_create = tab_pos;
 440              		.loc 1 58 5 view .LVU111
  59:Middlewares/LVGL/GUI/lvgl/src/extra/widgets/tabview/lv_tabview.c ****     tabsize_create = tab_size;
 441              		.loc 1 59 5 view .LVU112
  59:Middlewares/LVGL/GUI/lvgl/src/extra/widgets/tabview/lv_tabview.c ****     tabsize_create = tab_size;
 442              		.loc 1 59 19 is_stmt 0 view .LVU113
 443 0002 064B     		ldr	r3, .L29
 444 0004 1970     		strb	r1, [r3]
ARM GAS  C:\Users\ADMINI~1\AppData\Local\Temp\ccbkt2w0.s 			page 15


  60:Middlewares/LVGL/GUI/lvgl/src/extra/widgets/tabview/lv_tabview.c **** 
 445              		.loc 1 60 5 is_stmt 1 view .LVU114
  60:Middlewares/LVGL/GUI/lvgl/src/extra/widgets/tabview/lv_tabview.c **** 
 446              		.loc 1 60 20 is_stmt 0 view .LVU115
 447 0006 064B     		ldr	r3, .L29+4
 448 0008 1A60     		str	r2, [r3]
  62:Middlewares/LVGL/GUI/lvgl/src/extra/widgets/tabview/lv_tabview.c ****     lv_obj_class_init_obj(obj);
 449              		.loc 1 62 5 is_stmt 1 view .LVU116
  62:Middlewares/LVGL/GUI/lvgl/src/extra/widgets/tabview/lv_tabview.c ****     lv_obj_class_init_obj(obj);
 450              		.loc 1 62 22 is_stmt 0 view .LVU117
 451 000a 0146     		mov	r1, r0
 452              	.LVL60:
  62:Middlewares/LVGL/GUI/lvgl/src/extra/widgets/tabview/lv_tabview.c ****     lv_obj_class_init_obj(obj);
 453              		.loc 1 62 22 view .LVU118
 454 000c 0548     		ldr	r0, .L29+8
 455              	.LVL61:
  62:Middlewares/LVGL/GUI/lvgl/src/extra/widgets/tabview/lv_tabview.c ****     lv_obj_class_init_obj(obj);
 456              		.loc 1 62 22 view .LVU119
 457 000e FFF7FEFF 		bl	lv_obj_class_create_obj
 458              	.LVL62:
  62:Middlewares/LVGL/GUI/lvgl/src/extra/widgets/tabview/lv_tabview.c ****     lv_obj_class_init_obj(obj);
 459              		.loc 1 62 22 view .LVU120
 460 0012 0446     		mov	r4, r0
 461              	.LVL63:
  63:Middlewares/LVGL/GUI/lvgl/src/extra/widgets/tabview/lv_tabview.c ****     return obj;
 462              		.loc 1 63 5 is_stmt 1 view .LVU121
 463 0014 FFF7FEFF 		bl	lv_obj_class_init_obj
 464              	.LVL64:
  64:Middlewares/LVGL/GUI/lvgl/src/extra/widgets/tabview/lv_tabview.c **** }
 465              		.loc 1 64 5 view .LVU122
  65:Middlewares/LVGL/GUI/lvgl/src/extra/widgets/tabview/lv_tabview.c **** 
 466              		.loc 1 65 1 is_stmt 0 view .LVU123
 467 0018 2046     		mov	r0, r4
 468 001a 10BD     		pop	{r4, pc}
 469              	.LVL65:
 470              	.L30:
  65:Middlewares/LVGL/GUI/lvgl/src/extra/widgets/tabview/lv_tabview.c **** 
 471              		.loc 1 65 1 view .LVU124
 472              		.align	2
 473              	.L29:
 474 001c 00000000 		.word	.LANCHOR0
 475 0020 00000000 		.word	.LANCHOR1
 476 0024 00000000 		.word	.LANCHOR2
 477              		.cfi_endproc
 478              	.LFE196:
 480              		.section	.text.lv_tabview_get_tab_act,"ax",%progbits
 481              		.align	1
 482              		.global	lv_tabview_get_tab_act
 483              		.syntax unified
 484              		.thumb
 485              		.thumb_func
 487              	lv_tabview_get_tab_act:
 488              	.LVL66:
 489              	.LFB199:
 154:Middlewares/LVGL/GUI/lvgl/src/extra/widgets/tabview/lv_tabview.c ****     LV_ASSERT_OBJ(obj, MY_CLASS);
 490              		.loc 1 154 1 is_stmt 1 view -0
 491              		.cfi_startproc
ARM GAS  C:\Users\ADMINI~1\AppData\Local\Temp\ccbkt2w0.s 			page 16


 492              		@ args = 0, pretend = 0, frame = 0
 493              		@ frame_needed = 0, uses_anonymous_args = 0
 494              		@ link register save eliminated.
 155:Middlewares/LVGL/GUI/lvgl/src/extra/widgets/tabview/lv_tabview.c ****     lv_tabview_t * tabview = (lv_tabview_t *)obj;
 495              		.loc 1 155 5 view .LVU126
 155:Middlewares/LVGL/GUI/lvgl/src/extra/widgets/tabview/lv_tabview.c ****     lv_tabview_t * tabview = (lv_tabview_t *)obj;
 496              		.loc 1 155 5 view .LVU127
 155:Middlewares/LVGL/GUI/lvgl/src/extra/widgets/tabview/lv_tabview.c ****     lv_tabview_t * tabview = (lv_tabview_t *)obj;
 497              		.loc 1 155 5 view .LVU128
 156:Middlewares/LVGL/GUI/lvgl/src/extra/widgets/tabview/lv_tabview.c ****     return tabview->tab_cur;
 498              		.loc 1 156 5 view .LVU129
 157:Middlewares/LVGL/GUI/lvgl/src/extra/widgets/tabview/lv_tabview.c **** }
 499              		.loc 1 157 5 view .LVU130
 158:Middlewares/LVGL/GUI/lvgl/src/extra/widgets/tabview/lv_tabview.c **** 
 500              		.loc 1 158 1 is_stmt 0 view .LVU131
 501 0000 408E     		ldrh	r0, [r0, #50]
 502              	.LVL67:
 158:Middlewares/LVGL/GUI/lvgl/src/extra/widgets/tabview/lv_tabview.c **** 
 503              		.loc 1 158 1 view .LVU132
 504 0002 7047     		bx	lr
 505              		.cfi_endproc
 506              	.LFE199:
 508              		.section	.text.lv_tabview_get_content,"ax",%progbits
 509              		.align	1
 510              		.global	lv_tabview_get_content
 511              		.syntax unified
 512              		.thumb
 513              		.thumb_func
 515              	lv_tabview_get_content:
 516              	.LVL68:
 517              	.LFB200:
 161:Middlewares/LVGL/GUI/lvgl/src/extra/widgets/tabview/lv_tabview.c ****     return lv_obj_get_child(tv, 1);
 518              		.loc 1 161 1 is_stmt 1 view -0
 519              		.cfi_startproc
 520              		@ args = 0, pretend = 0, frame = 0
 521              		@ frame_needed = 0, uses_anonymous_args = 0
 161:Middlewares/LVGL/GUI/lvgl/src/extra/widgets/tabview/lv_tabview.c ****     return lv_obj_get_child(tv, 1);
 522              		.loc 1 161 1 is_stmt 0 view .LVU134
 523 0000 08B5     		push	{r3, lr}
 524              	.LCFI3:
 525              		.cfi_def_cfa_offset 8
 526              		.cfi_offset 3, -8
 527              		.cfi_offset 14, -4
 162:Middlewares/LVGL/GUI/lvgl/src/extra/widgets/tabview/lv_tabview.c **** }
 528              		.loc 1 162 5 is_stmt 1 view .LVU135
 162:Middlewares/LVGL/GUI/lvgl/src/extra/widgets/tabview/lv_tabview.c **** }
 529              		.loc 1 162 12 is_stmt 0 view .LVU136
 530 0002 0121     		movs	r1, #1
 531 0004 FFF7FEFF 		bl	lv_obj_get_child
 532              	.LVL69:
 163:Middlewares/LVGL/GUI/lvgl/src/extra/widgets/tabview/lv_tabview.c **** 
 533              		.loc 1 163 1 view .LVU137
 534 0008 08BD     		pop	{r3, pc}
 535              		.cfi_endproc
 536              	.LFE200:
 538              		.section	.text.lv_tabview_get_tab_btns,"ax",%progbits
 539              		.align	1
ARM GAS  C:\Users\ADMINI~1\AppData\Local\Temp\ccbkt2w0.s 			page 17


 540              		.global	lv_tabview_get_tab_btns
 541              		.syntax unified
 542              		.thumb
 543              		.thumb_func
 545              	lv_tabview_get_tab_btns:
 546              	.LVL70:
 547              	.LFB201:
 166:Middlewares/LVGL/GUI/lvgl/src/extra/widgets/tabview/lv_tabview.c ****     return lv_obj_get_child(tv, 0);
 548              		.loc 1 166 1 is_stmt 1 view -0
 549              		.cfi_startproc
 550              		@ args = 0, pretend = 0, frame = 0
 551              		@ frame_needed = 0, uses_anonymous_args = 0
 166:Middlewares/LVGL/GUI/lvgl/src/extra/widgets/tabview/lv_tabview.c ****     return lv_obj_get_child(tv, 0);
 552              		.loc 1 166 1 is_stmt 0 view .LVU139
 553 0000 08B5     		push	{r3, lr}
 554              	.LCFI4:
 555              		.cfi_def_cfa_offset 8
 556              		.cfi_offset 3, -8
 557              		.cfi_offset 14, -4
 167:Middlewares/LVGL/GUI/lvgl/src/extra/widgets/tabview/lv_tabview.c **** }
 558              		.loc 1 167 5 is_stmt 1 view .LVU140
 167:Middlewares/LVGL/GUI/lvgl/src/extra/widgets/tabview/lv_tabview.c **** }
 559              		.loc 1 167 12 is_stmt 0 view .LVU141
 560 0002 0021     		movs	r1, #0
 561 0004 FFF7FEFF 		bl	lv_obj_get_child
 562              	.LVL71:
 168:Middlewares/LVGL/GUI/lvgl/src/extra/widgets/tabview/lv_tabview.c **** 
 563              		.loc 1 168 1 view .LVU142
 564 0008 08BD     		pop	{r3, pc}
 565              		.cfi_endproc
 566              	.LFE201:
 568              		.section	.text.lv_tabview_set_act,"ax",%progbits
 569              		.align	1
 570              		.global	lv_tabview_set_act
 571              		.syntax unified
 572              		.thumb
 573              		.thumb_func
 575              	lv_tabview_set_act:
 576              	.LVL72:
 577              	.LFB198:
 125:Middlewares/LVGL/GUI/lvgl/src/extra/widgets/tabview/lv_tabview.c ****     LV_ASSERT_OBJ(obj, MY_CLASS);
 578              		.loc 1 125 1 is_stmt 1 view -0
 579              		.cfi_startproc
 580              		@ args = 0, pretend = 0, frame = 0
 581              		@ frame_needed = 0, uses_anonymous_args = 0
 125:Middlewares/LVGL/GUI/lvgl/src/extra/widgets/tabview/lv_tabview.c ****     LV_ASSERT_OBJ(obj, MY_CLASS);
 582              		.loc 1 125 1 is_stmt 0 view .LVU144
 583 0000 2DE9F843 		push	{r3, r4, r5, r6, r7, r8, r9, lr}
 584              	.LCFI5:
 585              		.cfi_def_cfa_offset 32
 586              		.cfi_offset 3, -32
 587              		.cfi_offset 4, -28
 588              		.cfi_offset 5, -24
 589              		.cfi_offset 6, -20
 590              		.cfi_offset 7, -16
 591              		.cfi_offset 8, -12
 592              		.cfi_offset 9, -8
ARM GAS  C:\Users\ADMINI~1\AppData\Local\Temp\ccbkt2w0.s 			page 18


 593              		.cfi_offset 14, -4
 594 0004 0446     		mov	r4, r0
 595 0006 0D46     		mov	r5, r1
 596 0008 1646     		mov	r6, r2
 126:Middlewares/LVGL/GUI/lvgl/src/extra/widgets/tabview/lv_tabview.c ****     lv_tabview_t * tabview = (lv_tabview_t *)obj;
 597              		.loc 1 126 5 is_stmt 1 view .LVU145
 126:Middlewares/LVGL/GUI/lvgl/src/extra/widgets/tabview/lv_tabview.c ****     lv_tabview_t * tabview = (lv_tabview_t *)obj;
 598              		.loc 1 126 5 view .LVU146
 126:Middlewares/LVGL/GUI/lvgl/src/extra/widgets/tabview/lv_tabview.c ****     lv_tabview_t * tabview = (lv_tabview_t *)obj;
 599              		.loc 1 126 5 view .LVU147
 127:Middlewares/LVGL/GUI/lvgl/src/extra/widgets/tabview/lv_tabview.c **** 
 600              		.loc 1 127 5 view .LVU148
 601              	.LVL73:
 129:Middlewares/LVGL/GUI/lvgl/src/extra/widgets/tabview/lv_tabview.c ****         id = tabview->tab_cnt - 1;
 602              		.loc 1 129 5 view .LVU149
 129:Middlewares/LVGL/GUI/lvgl/src/extra/widgets/tabview/lv_tabview.c ****         id = tabview->tab_cnt - 1;
 603              		.loc 1 129 21 is_stmt 0 view .LVU150
 604 000a 038E     		ldrh	r3, [r0, #48]
 129:Middlewares/LVGL/GUI/lvgl/src/extra/widgets/tabview/lv_tabview.c ****         id = tabview->tab_cnt - 1;
 605              		.loc 1 129 7 view .LVU151
 606 000c 8B42     		cmp	r3, r1
 607 000e 00D8     		bhi	.L37
 130:Middlewares/LVGL/GUI/lvgl/src/extra/widgets/tabview/lv_tabview.c ****     }
 608              		.loc 1 130 9 is_stmt 1 view .LVU152
 130:Middlewares/LVGL/GUI/lvgl/src/extra/widgets/tabview/lv_tabview.c ****     }
 609              		.loc 1 130 31 is_stmt 0 view .LVU153
 610 0010 5D1E     		subs	r5, r3, #1
 611              	.LVL74:
 612              	.L37:
 134:Middlewares/LVGL/GUI/lvgl/src/extra/widgets/tabview/lv_tabview.c **** 
 613              		.loc 1 134 5 is_stmt 1 view .LVU154
 614 0012 2046     		mov	r0, r4
 615              	.LVL75:
 134:Middlewares/LVGL/GUI/lvgl/src/extra/widgets/tabview/lv_tabview.c **** 
 616              		.loc 1 134 5 is_stmt 0 view .LVU155
 617 0014 FFF7FEFF 		bl	lv_obj_update_layout
 618              	.LVL76:
 136:Middlewares/LVGL/GUI/lvgl/src/extra/widgets/tabview/lv_tabview.c ****     if(cont == NULL) return;
 619              		.loc 1 136 5 is_stmt 1 view .LVU156
 136:Middlewares/LVGL/GUI/lvgl/src/extra/widgets/tabview/lv_tabview.c ****     if(cont == NULL) return;
 620              		.loc 1 136 23 is_stmt 0 view .LVU157
 621 0018 2046     		mov	r0, r4
 622 001a FFF7FEFF 		bl	lv_tabview_get_content
 623              	.LVL77:
 137:Middlewares/LVGL/GUI/lvgl/src/extra/widgets/tabview/lv_tabview.c ****     lv_coord_t gap = lv_obj_get_style_pad_column(cont, LV_PART_MAIN);
 624              		.loc 1 137 5 is_stmt 1 view .LVU158
 137:Middlewares/LVGL/GUI/lvgl/src/extra/widgets/tabview/lv_tabview.c ****     lv_coord_t gap = lv_obj_get_style_pad_column(cont, LV_PART_MAIN);
 625              		.loc 1 137 7 is_stmt 0 view .LVU159
 626 001e 0746     		mov	r7, r0
 627 0020 18B3     		cbz	r0, .L36
 138:Middlewares/LVGL/GUI/lvgl/src/extra/widgets/tabview/lv_tabview.c ****     lv_coord_t w = lv_obj_get_content_width(cont);
 628              		.loc 1 138 5 is_stmt 1 view .LVU160
 629              	.LVL78:
 630              	.LBB14:
 631              	.LBI14:
 632              		.file 2 "Middlewares/LVGL/GUI/lvgl/src/extra/widgets/tabview/../../../../src/core/lv_obj_style_gen
   1:Middlewares/LVGL/GUI/lvgl/src/extra/widgets/tabview/../../../../src/core/lv_obj_style_gen.h **** static inline lv_coord_t lv_obj_get_style_width(const struct _lv_obj_t * obj, uint32_t part)
ARM GAS  C:\Users\ADMINI~1\AppData\Local\Temp\ccbkt2w0.s 			page 19


   2:Middlewares/LVGL/GUI/lvgl/src/extra/widgets/tabview/../../../../src/core/lv_obj_style_gen.h **** {
   3:Middlewares/LVGL/GUI/lvgl/src/extra/widgets/tabview/../../../../src/core/lv_obj_style_gen.h ****     lv_style_value_t v = lv_obj_get_style_prop(obj, part, LV_STYLE_WIDTH);
   4:Middlewares/LVGL/GUI/lvgl/src/extra/widgets/tabview/../../../../src/core/lv_obj_style_gen.h ****     return (lv_coord_t)v.num;
   5:Middlewares/LVGL/GUI/lvgl/src/extra/widgets/tabview/../../../../src/core/lv_obj_style_gen.h **** }
   6:Middlewares/LVGL/GUI/lvgl/src/extra/widgets/tabview/../../../../src/core/lv_obj_style_gen.h **** 
   7:Middlewares/LVGL/GUI/lvgl/src/extra/widgets/tabview/../../../../src/core/lv_obj_style_gen.h **** static inline lv_coord_t lv_obj_get_style_min_width(const struct _lv_obj_t * obj, uint32_t part)
   8:Middlewares/LVGL/GUI/lvgl/src/extra/widgets/tabview/../../../../src/core/lv_obj_style_gen.h **** {
   9:Middlewares/LVGL/GUI/lvgl/src/extra/widgets/tabview/../../../../src/core/lv_obj_style_gen.h ****     lv_style_value_t v = lv_obj_get_style_prop(obj, part, LV_STYLE_MIN_WIDTH);
  10:Middlewares/LVGL/GUI/lvgl/src/extra/widgets/tabview/../../../../src/core/lv_obj_style_gen.h ****     return (lv_coord_t)v.num;
  11:Middlewares/LVGL/GUI/lvgl/src/extra/widgets/tabview/../../../../src/core/lv_obj_style_gen.h **** }
  12:Middlewares/LVGL/GUI/lvgl/src/extra/widgets/tabview/../../../../src/core/lv_obj_style_gen.h **** 
  13:Middlewares/LVGL/GUI/lvgl/src/extra/widgets/tabview/../../../../src/core/lv_obj_style_gen.h **** static inline lv_coord_t lv_obj_get_style_max_width(const struct _lv_obj_t * obj, uint32_t part)
  14:Middlewares/LVGL/GUI/lvgl/src/extra/widgets/tabview/../../../../src/core/lv_obj_style_gen.h **** {
  15:Middlewares/LVGL/GUI/lvgl/src/extra/widgets/tabview/../../../../src/core/lv_obj_style_gen.h ****     lv_style_value_t v = lv_obj_get_style_prop(obj, part, LV_STYLE_MAX_WIDTH);
  16:Middlewares/LVGL/GUI/lvgl/src/extra/widgets/tabview/../../../../src/core/lv_obj_style_gen.h ****     return (lv_coord_t)v.num;
  17:Middlewares/LVGL/GUI/lvgl/src/extra/widgets/tabview/../../../../src/core/lv_obj_style_gen.h **** }
  18:Middlewares/LVGL/GUI/lvgl/src/extra/widgets/tabview/../../../../src/core/lv_obj_style_gen.h **** 
  19:Middlewares/LVGL/GUI/lvgl/src/extra/widgets/tabview/../../../../src/core/lv_obj_style_gen.h **** static inline lv_coord_t lv_obj_get_style_height(const struct _lv_obj_t * obj, uint32_t part)
  20:Middlewares/LVGL/GUI/lvgl/src/extra/widgets/tabview/../../../../src/core/lv_obj_style_gen.h **** {
  21:Middlewares/LVGL/GUI/lvgl/src/extra/widgets/tabview/../../../../src/core/lv_obj_style_gen.h ****     lv_style_value_t v = lv_obj_get_style_prop(obj, part, LV_STYLE_HEIGHT);
  22:Middlewares/LVGL/GUI/lvgl/src/extra/widgets/tabview/../../../../src/core/lv_obj_style_gen.h ****     return (lv_coord_t)v.num;
  23:Middlewares/LVGL/GUI/lvgl/src/extra/widgets/tabview/../../../../src/core/lv_obj_style_gen.h **** }
  24:Middlewares/LVGL/GUI/lvgl/src/extra/widgets/tabview/../../../../src/core/lv_obj_style_gen.h **** 
  25:Middlewares/LVGL/GUI/lvgl/src/extra/widgets/tabview/../../../../src/core/lv_obj_style_gen.h **** static inline lv_coord_t lv_obj_get_style_min_height(const struct _lv_obj_t * obj, uint32_t part)
  26:Middlewares/LVGL/GUI/lvgl/src/extra/widgets/tabview/../../../../src/core/lv_obj_style_gen.h **** {
  27:Middlewares/LVGL/GUI/lvgl/src/extra/widgets/tabview/../../../../src/core/lv_obj_style_gen.h ****     lv_style_value_t v = lv_obj_get_style_prop(obj, part, LV_STYLE_MIN_HEIGHT);
  28:Middlewares/LVGL/GUI/lvgl/src/extra/widgets/tabview/../../../../src/core/lv_obj_style_gen.h ****     return (lv_coord_t)v.num;
  29:Middlewares/LVGL/GUI/lvgl/src/extra/widgets/tabview/../../../../src/core/lv_obj_style_gen.h **** }
  30:Middlewares/LVGL/GUI/lvgl/src/extra/widgets/tabview/../../../../src/core/lv_obj_style_gen.h **** 
  31:Middlewares/LVGL/GUI/lvgl/src/extra/widgets/tabview/../../../../src/core/lv_obj_style_gen.h **** static inline lv_coord_t lv_obj_get_style_max_height(const struct _lv_obj_t * obj, uint32_t part)
  32:Middlewares/LVGL/GUI/lvgl/src/extra/widgets/tabview/../../../../src/core/lv_obj_style_gen.h **** {
  33:Middlewares/LVGL/GUI/lvgl/src/extra/widgets/tabview/../../../../src/core/lv_obj_style_gen.h ****     lv_style_value_t v = lv_obj_get_style_prop(obj, part, LV_STYLE_MAX_HEIGHT);
  34:Middlewares/LVGL/GUI/lvgl/src/extra/widgets/tabview/../../../../src/core/lv_obj_style_gen.h ****     return (lv_coord_t)v.num;
  35:Middlewares/LVGL/GUI/lvgl/src/extra/widgets/tabview/../../../../src/core/lv_obj_style_gen.h **** }
  36:Middlewares/LVGL/GUI/lvgl/src/extra/widgets/tabview/../../../../src/core/lv_obj_style_gen.h **** 
  37:Middlewares/LVGL/GUI/lvgl/src/extra/widgets/tabview/../../../../src/core/lv_obj_style_gen.h **** static inline lv_coord_t lv_obj_get_style_x(const struct _lv_obj_t * obj, uint32_t part)
  38:Middlewares/LVGL/GUI/lvgl/src/extra/widgets/tabview/../../../../src/core/lv_obj_style_gen.h **** {
  39:Middlewares/LVGL/GUI/lvgl/src/extra/widgets/tabview/../../../../src/core/lv_obj_style_gen.h ****     lv_style_value_t v = lv_obj_get_style_prop(obj, part, LV_STYLE_X);
  40:Middlewares/LVGL/GUI/lvgl/src/extra/widgets/tabview/../../../../src/core/lv_obj_style_gen.h ****     return (lv_coord_t)v.num;
  41:Middlewares/LVGL/GUI/lvgl/src/extra/widgets/tabview/../../../../src/core/lv_obj_style_gen.h **** }
  42:Middlewares/LVGL/GUI/lvgl/src/extra/widgets/tabview/../../../../src/core/lv_obj_style_gen.h **** 
  43:Middlewares/LVGL/GUI/lvgl/src/extra/widgets/tabview/../../../../src/core/lv_obj_style_gen.h **** static inline lv_coord_t lv_obj_get_style_y(const struct _lv_obj_t * obj, uint32_t part)
  44:Middlewares/LVGL/GUI/lvgl/src/extra/widgets/tabview/../../../../src/core/lv_obj_style_gen.h **** {
  45:Middlewares/LVGL/GUI/lvgl/src/extra/widgets/tabview/../../../../src/core/lv_obj_style_gen.h ****     lv_style_value_t v = lv_obj_get_style_prop(obj, part, LV_STYLE_Y);
  46:Middlewares/LVGL/GUI/lvgl/src/extra/widgets/tabview/../../../../src/core/lv_obj_style_gen.h ****     return (lv_coord_t)v.num;
  47:Middlewares/LVGL/GUI/lvgl/src/extra/widgets/tabview/../../../../src/core/lv_obj_style_gen.h **** }
  48:Middlewares/LVGL/GUI/lvgl/src/extra/widgets/tabview/../../../../src/core/lv_obj_style_gen.h **** 
  49:Middlewares/LVGL/GUI/lvgl/src/extra/widgets/tabview/../../../../src/core/lv_obj_style_gen.h **** static inline lv_align_t lv_obj_get_style_align(const struct _lv_obj_t * obj, uint32_t part)
  50:Middlewares/LVGL/GUI/lvgl/src/extra/widgets/tabview/../../../../src/core/lv_obj_style_gen.h **** {
  51:Middlewares/LVGL/GUI/lvgl/src/extra/widgets/tabview/../../../../src/core/lv_obj_style_gen.h ****     lv_style_value_t v = lv_obj_get_style_prop(obj, part, LV_STYLE_ALIGN);
  52:Middlewares/LVGL/GUI/lvgl/src/extra/widgets/tabview/../../../../src/core/lv_obj_style_gen.h ****     return (lv_align_t)v.num;
  53:Middlewares/LVGL/GUI/lvgl/src/extra/widgets/tabview/../../../../src/core/lv_obj_style_gen.h **** }
  54:Middlewares/LVGL/GUI/lvgl/src/extra/widgets/tabview/../../../../src/core/lv_obj_style_gen.h **** 
  55:Middlewares/LVGL/GUI/lvgl/src/extra/widgets/tabview/../../../../src/core/lv_obj_style_gen.h **** static inline lv_coord_t lv_obj_get_style_transform_width(const struct _lv_obj_t * obj, uint32_t pa
  56:Middlewares/LVGL/GUI/lvgl/src/extra/widgets/tabview/../../../../src/core/lv_obj_style_gen.h **** {
  57:Middlewares/LVGL/GUI/lvgl/src/extra/widgets/tabview/../../../../src/core/lv_obj_style_gen.h ****     lv_style_value_t v = lv_obj_get_style_prop(obj, part, LV_STYLE_TRANSFORM_WIDTH);
  58:Middlewares/LVGL/GUI/lvgl/src/extra/widgets/tabview/../../../../src/core/lv_obj_style_gen.h ****     return (lv_coord_t)v.num;
ARM GAS  C:\Users\ADMINI~1\AppData\Local\Temp\ccbkt2w0.s 			page 20


  59:Middlewares/LVGL/GUI/lvgl/src/extra/widgets/tabview/../../../../src/core/lv_obj_style_gen.h **** }
  60:Middlewares/LVGL/GUI/lvgl/src/extra/widgets/tabview/../../../../src/core/lv_obj_style_gen.h **** 
  61:Middlewares/LVGL/GUI/lvgl/src/extra/widgets/tabview/../../../../src/core/lv_obj_style_gen.h **** static inline lv_coord_t lv_obj_get_style_transform_height(const struct _lv_obj_t * obj, uint32_t p
  62:Middlewares/LVGL/GUI/lvgl/src/extra/widgets/tabview/../../../../src/core/lv_obj_style_gen.h **** {
  63:Middlewares/LVGL/GUI/lvgl/src/extra/widgets/tabview/../../../../src/core/lv_obj_style_gen.h ****     lv_style_value_t v = lv_obj_get_style_prop(obj, part, LV_STYLE_TRANSFORM_HEIGHT);
  64:Middlewares/LVGL/GUI/lvgl/src/extra/widgets/tabview/../../../../src/core/lv_obj_style_gen.h ****     return (lv_coord_t)v.num;
  65:Middlewares/LVGL/GUI/lvgl/src/extra/widgets/tabview/../../../../src/core/lv_obj_style_gen.h **** }
  66:Middlewares/LVGL/GUI/lvgl/src/extra/widgets/tabview/../../../../src/core/lv_obj_style_gen.h **** 
  67:Middlewares/LVGL/GUI/lvgl/src/extra/widgets/tabview/../../../../src/core/lv_obj_style_gen.h **** static inline lv_coord_t lv_obj_get_style_translate_x(const struct _lv_obj_t * obj, uint32_t part)
  68:Middlewares/LVGL/GUI/lvgl/src/extra/widgets/tabview/../../../../src/core/lv_obj_style_gen.h **** {
  69:Middlewares/LVGL/GUI/lvgl/src/extra/widgets/tabview/../../../../src/core/lv_obj_style_gen.h ****     lv_style_value_t v = lv_obj_get_style_prop(obj, part, LV_STYLE_TRANSLATE_X);
  70:Middlewares/LVGL/GUI/lvgl/src/extra/widgets/tabview/../../../../src/core/lv_obj_style_gen.h ****     return (lv_coord_t)v.num;
  71:Middlewares/LVGL/GUI/lvgl/src/extra/widgets/tabview/../../../../src/core/lv_obj_style_gen.h **** }
  72:Middlewares/LVGL/GUI/lvgl/src/extra/widgets/tabview/../../../../src/core/lv_obj_style_gen.h **** 
  73:Middlewares/LVGL/GUI/lvgl/src/extra/widgets/tabview/../../../../src/core/lv_obj_style_gen.h **** static inline lv_coord_t lv_obj_get_style_translate_y(const struct _lv_obj_t * obj, uint32_t part)
  74:Middlewares/LVGL/GUI/lvgl/src/extra/widgets/tabview/../../../../src/core/lv_obj_style_gen.h **** {
  75:Middlewares/LVGL/GUI/lvgl/src/extra/widgets/tabview/../../../../src/core/lv_obj_style_gen.h ****     lv_style_value_t v = lv_obj_get_style_prop(obj, part, LV_STYLE_TRANSLATE_Y);
  76:Middlewares/LVGL/GUI/lvgl/src/extra/widgets/tabview/../../../../src/core/lv_obj_style_gen.h ****     return (lv_coord_t)v.num;
  77:Middlewares/LVGL/GUI/lvgl/src/extra/widgets/tabview/../../../../src/core/lv_obj_style_gen.h **** }
  78:Middlewares/LVGL/GUI/lvgl/src/extra/widgets/tabview/../../../../src/core/lv_obj_style_gen.h **** 
  79:Middlewares/LVGL/GUI/lvgl/src/extra/widgets/tabview/../../../../src/core/lv_obj_style_gen.h **** static inline lv_coord_t lv_obj_get_style_transform_zoom(const struct _lv_obj_t * obj, uint32_t par
  80:Middlewares/LVGL/GUI/lvgl/src/extra/widgets/tabview/../../../../src/core/lv_obj_style_gen.h **** {
  81:Middlewares/LVGL/GUI/lvgl/src/extra/widgets/tabview/../../../../src/core/lv_obj_style_gen.h ****     lv_style_value_t v = lv_obj_get_style_prop(obj, part, LV_STYLE_TRANSFORM_ZOOM);
  82:Middlewares/LVGL/GUI/lvgl/src/extra/widgets/tabview/../../../../src/core/lv_obj_style_gen.h ****     return (lv_coord_t)v.num;
  83:Middlewares/LVGL/GUI/lvgl/src/extra/widgets/tabview/../../../../src/core/lv_obj_style_gen.h **** }
  84:Middlewares/LVGL/GUI/lvgl/src/extra/widgets/tabview/../../../../src/core/lv_obj_style_gen.h **** 
  85:Middlewares/LVGL/GUI/lvgl/src/extra/widgets/tabview/../../../../src/core/lv_obj_style_gen.h **** static inline lv_coord_t lv_obj_get_style_transform_angle(const struct _lv_obj_t * obj, uint32_t pa
  86:Middlewares/LVGL/GUI/lvgl/src/extra/widgets/tabview/../../../../src/core/lv_obj_style_gen.h **** {
  87:Middlewares/LVGL/GUI/lvgl/src/extra/widgets/tabview/../../../../src/core/lv_obj_style_gen.h ****     lv_style_value_t v = lv_obj_get_style_prop(obj, part, LV_STYLE_TRANSFORM_ANGLE);
  88:Middlewares/LVGL/GUI/lvgl/src/extra/widgets/tabview/../../../../src/core/lv_obj_style_gen.h ****     return (lv_coord_t)v.num;
  89:Middlewares/LVGL/GUI/lvgl/src/extra/widgets/tabview/../../../../src/core/lv_obj_style_gen.h **** }
  90:Middlewares/LVGL/GUI/lvgl/src/extra/widgets/tabview/../../../../src/core/lv_obj_style_gen.h **** 
  91:Middlewares/LVGL/GUI/lvgl/src/extra/widgets/tabview/../../../../src/core/lv_obj_style_gen.h **** static inline lv_coord_t lv_obj_get_style_pad_top(const struct _lv_obj_t * obj, uint32_t part)
  92:Middlewares/LVGL/GUI/lvgl/src/extra/widgets/tabview/../../../../src/core/lv_obj_style_gen.h **** {
  93:Middlewares/LVGL/GUI/lvgl/src/extra/widgets/tabview/../../../../src/core/lv_obj_style_gen.h ****     lv_style_value_t v = lv_obj_get_style_prop(obj, part, LV_STYLE_PAD_TOP);
  94:Middlewares/LVGL/GUI/lvgl/src/extra/widgets/tabview/../../../../src/core/lv_obj_style_gen.h ****     return (lv_coord_t)v.num;
  95:Middlewares/LVGL/GUI/lvgl/src/extra/widgets/tabview/../../../../src/core/lv_obj_style_gen.h **** }
  96:Middlewares/LVGL/GUI/lvgl/src/extra/widgets/tabview/../../../../src/core/lv_obj_style_gen.h **** 
  97:Middlewares/LVGL/GUI/lvgl/src/extra/widgets/tabview/../../../../src/core/lv_obj_style_gen.h **** static inline lv_coord_t lv_obj_get_style_pad_bottom(const struct _lv_obj_t * obj, uint32_t part)
  98:Middlewares/LVGL/GUI/lvgl/src/extra/widgets/tabview/../../../../src/core/lv_obj_style_gen.h **** {
  99:Middlewares/LVGL/GUI/lvgl/src/extra/widgets/tabview/../../../../src/core/lv_obj_style_gen.h ****     lv_style_value_t v = lv_obj_get_style_prop(obj, part, LV_STYLE_PAD_BOTTOM);
 100:Middlewares/LVGL/GUI/lvgl/src/extra/widgets/tabview/../../../../src/core/lv_obj_style_gen.h ****     return (lv_coord_t)v.num;
 101:Middlewares/LVGL/GUI/lvgl/src/extra/widgets/tabview/../../../../src/core/lv_obj_style_gen.h **** }
 102:Middlewares/LVGL/GUI/lvgl/src/extra/widgets/tabview/../../../../src/core/lv_obj_style_gen.h **** 
 103:Middlewares/LVGL/GUI/lvgl/src/extra/widgets/tabview/../../../../src/core/lv_obj_style_gen.h **** static inline lv_coord_t lv_obj_get_style_pad_left(const struct _lv_obj_t * obj, uint32_t part)
 104:Middlewares/LVGL/GUI/lvgl/src/extra/widgets/tabview/../../../../src/core/lv_obj_style_gen.h **** {
 105:Middlewares/LVGL/GUI/lvgl/src/extra/widgets/tabview/../../../../src/core/lv_obj_style_gen.h ****     lv_style_value_t v = lv_obj_get_style_prop(obj, part, LV_STYLE_PAD_LEFT);
 106:Middlewares/LVGL/GUI/lvgl/src/extra/widgets/tabview/../../../../src/core/lv_obj_style_gen.h ****     return (lv_coord_t)v.num;
 107:Middlewares/LVGL/GUI/lvgl/src/extra/widgets/tabview/../../../../src/core/lv_obj_style_gen.h **** }
 108:Middlewares/LVGL/GUI/lvgl/src/extra/widgets/tabview/../../../../src/core/lv_obj_style_gen.h **** 
 109:Middlewares/LVGL/GUI/lvgl/src/extra/widgets/tabview/../../../../src/core/lv_obj_style_gen.h **** static inline lv_coord_t lv_obj_get_style_pad_right(const struct _lv_obj_t * obj, uint32_t part)
 110:Middlewares/LVGL/GUI/lvgl/src/extra/widgets/tabview/../../../../src/core/lv_obj_style_gen.h **** {
 111:Middlewares/LVGL/GUI/lvgl/src/extra/widgets/tabview/../../../../src/core/lv_obj_style_gen.h ****     lv_style_value_t v = lv_obj_get_style_prop(obj, part, LV_STYLE_PAD_RIGHT);
 112:Middlewares/LVGL/GUI/lvgl/src/extra/widgets/tabview/../../../../src/core/lv_obj_style_gen.h ****     return (lv_coord_t)v.num;
 113:Middlewares/LVGL/GUI/lvgl/src/extra/widgets/tabview/../../../../src/core/lv_obj_style_gen.h **** }
 114:Middlewares/LVGL/GUI/lvgl/src/extra/widgets/tabview/../../../../src/core/lv_obj_style_gen.h **** 
 115:Middlewares/LVGL/GUI/lvgl/src/extra/widgets/tabview/../../../../src/core/lv_obj_style_gen.h **** static inline lv_coord_t lv_obj_get_style_pad_row(const struct _lv_obj_t * obj, uint32_t part)
ARM GAS  C:\Users\ADMINI~1\AppData\Local\Temp\ccbkt2w0.s 			page 21


 116:Middlewares/LVGL/GUI/lvgl/src/extra/widgets/tabview/../../../../src/core/lv_obj_style_gen.h **** {
 117:Middlewares/LVGL/GUI/lvgl/src/extra/widgets/tabview/../../../../src/core/lv_obj_style_gen.h ****     lv_style_value_t v = lv_obj_get_style_prop(obj, part, LV_STYLE_PAD_ROW);
 118:Middlewares/LVGL/GUI/lvgl/src/extra/widgets/tabview/../../../../src/core/lv_obj_style_gen.h ****     return (lv_coord_t)v.num;
 119:Middlewares/LVGL/GUI/lvgl/src/extra/widgets/tabview/../../../../src/core/lv_obj_style_gen.h **** }
 120:Middlewares/LVGL/GUI/lvgl/src/extra/widgets/tabview/../../../../src/core/lv_obj_style_gen.h **** 
 121:Middlewares/LVGL/GUI/lvgl/src/extra/widgets/tabview/../../../../src/core/lv_obj_style_gen.h **** static inline lv_coord_t lv_obj_get_style_pad_column(const struct _lv_obj_t * obj, uint32_t part)
 633              		.loc 2 121 26 view .LVU161
 634              	.LBB15:
 122:Middlewares/LVGL/GUI/lvgl/src/extra/widgets/tabview/../../../../src/core/lv_obj_style_gen.h **** {
 123:Middlewares/LVGL/GUI/lvgl/src/extra/widgets/tabview/../../../../src/core/lv_obj_style_gen.h ****     lv_style_value_t v = lv_obj_get_style_prop(obj, part, LV_STYLE_PAD_COLUMN);
 635              		.loc 2 123 5 view .LVU162
 636              		.loc 2 123 26 is_stmt 0 view .LVU163
 637 0022 41F61502 		movw	r2, #6165
 638 0026 0021     		movs	r1, #0
 639 0028 FFF7FEFF 		bl	lv_obj_get_style_prop
 640              	.LVL79:
 641              		.loc 2 123 26 view .LVU164
 642 002c 8046     		mov	r8, r0
 124:Middlewares/LVGL/GUI/lvgl/src/extra/widgets/tabview/../../../../src/core/lv_obj_style_gen.h ****     return (lv_coord_t)v.num;
 643              		.loc 2 124 5 is_stmt 1 view .LVU165
 644              	.LVL80:
 645              		.loc 2 124 5 is_stmt 0 view .LVU166
 646              	.LBE15:
 647              	.LBE14:
 139:Middlewares/LVGL/GUI/lvgl/src/extra/widgets/tabview/lv_tabview.c ****     if(lv_obj_get_style_base_dir(obj, LV_PART_MAIN) != LV_BASE_DIR_RTL) {
 648              		.loc 1 139 5 is_stmt 1 view .LVU167
 139:Middlewares/LVGL/GUI/lvgl/src/extra/widgets/tabview/lv_tabview.c ****     if(lv_obj_get_style_base_dir(obj, LV_PART_MAIN) != LV_BASE_DIR_RTL) {
 649              		.loc 1 139 20 is_stmt 0 view .LVU168
 650 002e 3846     		mov	r0, r7
 651              	.LVL81:
 139:Middlewares/LVGL/GUI/lvgl/src/extra/widgets/tabview/lv_tabview.c ****     if(lv_obj_get_style_base_dir(obj, LV_PART_MAIN) != LV_BASE_DIR_RTL) {
 652              		.loc 1 139 20 view .LVU169
 653 0030 FFF7FEFF 		bl	lv_obj_get_content_width
 654              	.LVL82:
 655 0034 8146     		mov	r9, r0
 656              	.LVL83:
 140:Middlewares/LVGL/GUI/lvgl/src/extra/widgets/tabview/lv_tabview.c ****         lv_obj_scroll_to_x(cont, id * (gap + w), anim_en);
 657              		.loc 1 140 5 is_stmt 1 view .LVU170
 658              	.LBB16:
 659              	.LBI16:
 125:Middlewares/LVGL/GUI/lvgl/src/extra/widgets/tabview/../../../../src/core/lv_obj_style_gen.h **** }
 126:Middlewares/LVGL/GUI/lvgl/src/extra/widgets/tabview/../../../../src/core/lv_obj_style_gen.h **** 
 127:Middlewares/LVGL/GUI/lvgl/src/extra/widgets/tabview/../../../../src/core/lv_obj_style_gen.h **** static inline lv_color_t lv_obj_get_style_bg_color(const struct _lv_obj_t * obj, uint32_t part)
 128:Middlewares/LVGL/GUI/lvgl/src/extra/widgets/tabview/../../../../src/core/lv_obj_style_gen.h **** {
 129:Middlewares/LVGL/GUI/lvgl/src/extra/widgets/tabview/../../../../src/core/lv_obj_style_gen.h ****     lv_style_value_t v = lv_obj_get_style_prop(obj, part, LV_STYLE_BG_COLOR);
 130:Middlewares/LVGL/GUI/lvgl/src/extra/widgets/tabview/../../../../src/core/lv_obj_style_gen.h ****     return v.color;
 131:Middlewares/LVGL/GUI/lvgl/src/extra/widgets/tabview/../../../../src/core/lv_obj_style_gen.h **** }
 132:Middlewares/LVGL/GUI/lvgl/src/extra/widgets/tabview/../../../../src/core/lv_obj_style_gen.h **** 
 133:Middlewares/LVGL/GUI/lvgl/src/extra/widgets/tabview/../../../../src/core/lv_obj_style_gen.h **** static inline lv_color_t lv_obj_get_style_bg_color_filtered(const struct _lv_obj_t * obj, uint32_t 
 134:Middlewares/LVGL/GUI/lvgl/src/extra/widgets/tabview/../../../../src/core/lv_obj_style_gen.h **** {
 135:Middlewares/LVGL/GUI/lvgl/src/extra/widgets/tabview/../../../../src/core/lv_obj_style_gen.h ****     lv_style_value_t v = lv_obj_get_style_prop(obj, part, LV_STYLE_BG_COLOR_FILTERED);
 136:Middlewares/LVGL/GUI/lvgl/src/extra/widgets/tabview/../../../../src/core/lv_obj_style_gen.h ****     return v.color;
 137:Middlewares/LVGL/GUI/lvgl/src/extra/widgets/tabview/../../../../src/core/lv_obj_style_gen.h **** }
 138:Middlewares/LVGL/GUI/lvgl/src/extra/widgets/tabview/../../../../src/core/lv_obj_style_gen.h **** 
 139:Middlewares/LVGL/GUI/lvgl/src/extra/widgets/tabview/../../../../src/core/lv_obj_style_gen.h **** static inline lv_opa_t lv_obj_get_style_bg_opa(const struct _lv_obj_t * obj, uint32_t part)
 140:Middlewares/LVGL/GUI/lvgl/src/extra/widgets/tabview/../../../../src/core/lv_obj_style_gen.h **** {
 141:Middlewares/LVGL/GUI/lvgl/src/extra/widgets/tabview/../../../../src/core/lv_obj_style_gen.h ****     lv_style_value_t v = lv_obj_get_style_prop(obj, part, LV_STYLE_BG_OPA);
ARM GAS  C:\Users\ADMINI~1\AppData\Local\Temp\ccbkt2w0.s 			page 22


 142:Middlewares/LVGL/GUI/lvgl/src/extra/widgets/tabview/../../../../src/core/lv_obj_style_gen.h ****     return (lv_opa_t)v.num;
 143:Middlewares/LVGL/GUI/lvgl/src/extra/widgets/tabview/../../../../src/core/lv_obj_style_gen.h **** }
 144:Middlewares/LVGL/GUI/lvgl/src/extra/widgets/tabview/../../../../src/core/lv_obj_style_gen.h **** 
 145:Middlewares/LVGL/GUI/lvgl/src/extra/widgets/tabview/../../../../src/core/lv_obj_style_gen.h **** static inline lv_color_t lv_obj_get_style_bg_grad_color(const struct _lv_obj_t * obj, uint32_t part
 146:Middlewares/LVGL/GUI/lvgl/src/extra/widgets/tabview/../../../../src/core/lv_obj_style_gen.h **** {
 147:Middlewares/LVGL/GUI/lvgl/src/extra/widgets/tabview/../../../../src/core/lv_obj_style_gen.h ****     lv_style_value_t v = lv_obj_get_style_prop(obj, part, LV_STYLE_BG_GRAD_COLOR);
 148:Middlewares/LVGL/GUI/lvgl/src/extra/widgets/tabview/../../../../src/core/lv_obj_style_gen.h ****     return v.color;
 149:Middlewares/LVGL/GUI/lvgl/src/extra/widgets/tabview/../../../../src/core/lv_obj_style_gen.h **** }
 150:Middlewares/LVGL/GUI/lvgl/src/extra/widgets/tabview/../../../../src/core/lv_obj_style_gen.h **** 
 151:Middlewares/LVGL/GUI/lvgl/src/extra/widgets/tabview/../../../../src/core/lv_obj_style_gen.h **** static inline lv_color_t lv_obj_get_style_bg_grad_color_filtered(const struct _lv_obj_t * obj, uint
 152:Middlewares/LVGL/GUI/lvgl/src/extra/widgets/tabview/../../../../src/core/lv_obj_style_gen.h **** {
 153:Middlewares/LVGL/GUI/lvgl/src/extra/widgets/tabview/../../../../src/core/lv_obj_style_gen.h ****     lv_style_value_t v = lv_obj_get_style_prop(obj, part, LV_STYLE_BG_GRAD_COLOR_FILTERED);
 154:Middlewares/LVGL/GUI/lvgl/src/extra/widgets/tabview/../../../../src/core/lv_obj_style_gen.h ****     return v.color;
 155:Middlewares/LVGL/GUI/lvgl/src/extra/widgets/tabview/../../../../src/core/lv_obj_style_gen.h **** }
 156:Middlewares/LVGL/GUI/lvgl/src/extra/widgets/tabview/../../../../src/core/lv_obj_style_gen.h **** 
 157:Middlewares/LVGL/GUI/lvgl/src/extra/widgets/tabview/../../../../src/core/lv_obj_style_gen.h **** static inline lv_grad_dir_t lv_obj_get_style_bg_grad_dir(const struct _lv_obj_t * obj, uint32_t par
 158:Middlewares/LVGL/GUI/lvgl/src/extra/widgets/tabview/../../../../src/core/lv_obj_style_gen.h **** {
 159:Middlewares/LVGL/GUI/lvgl/src/extra/widgets/tabview/../../../../src/core/lv_obj_style_gen.h ****     lv_style_value_t v = lv_obj_get_style_prop(obj, part, LV_STYLE_BG_GRAD_DIR);
 160:Middlewares/LVGL/GUI/lvgl/src/extra/widgets/tabview/../../../../src/core/lv_obj_style_gen.h ****     return (lv_grad_dir_t)v.num;
 161:Middlewares/LVGL/GUI/lvgl/src/extra/widgets/tabview/../../../../src/core/lv_obj_style_gen.h **** }
 162:Middlewares/LVGL/GUI/lvgl/src/extra/widgets/tabview/../../../../src/core/lv_obj_style_gen.h **** 
 163:Middlewares/LVGL/GUI/lvgl/src/extra/widgets/tabview/../../../../src/core/lv_obj_style_gen.h **** static inline lv_coord_t lv_obj_get_style_bg_main_stop(const struct _lv_obj_t * obj, uint32_t part)
 164:Middlewares/LVGL/GUI/lvgl/src/extra/widgets/tabview/../../../../src/core/lv_obj_style_gen.h **** {
 165:Middlewares/LVGL/GUI/lvgl/src/extra/widgets/tabview/../../../../src/core/lv_obj_style_gen.h ****     lv_style_value_t v = lv_obj_get_style_prop(obj, part, LV_STYLE_BG_MAIN_STOP);
 166:Middlewares/LVGL/GUI/lvgl/src/extra/widgets/tabview/../../../../src/core/lv_obj_style_gen.h ****     return (lv_coord_t)v.num;
 167:Middlewares/LVGL/GUI/lvgl/src/extra/widgets/tabview/../../../../src/core/lv_obj_style_gen.h **** }
 168:Middlewares/LVGL/GUI/lvgl/src/extra/widgets/tabview/../../../../src/core/lv_obj_style_gen.h **** 
 169:Middlewares/LVGL/GUI/lvgl/src/extra/widgets/tabview/../../../../src/core/lv_obj_style_gen.h **** static inline lv_coord_t lv_obj_get_style_bg_grad_stop(const struct _lv_obj_t * obj, uint32_t part)
 170:Middlewares/LVGL/GUI/lvgl/src/extra/widgets/tabview/../../../../src/core/lv_obj_style_gen.h **** {
 171:Middlewares/LVGL/GUI/lvgl/src/extra/widgets/tabview/../../../../src/core/lv_obj_style_gen.h ****     lv_style_value_t v = lv_obj_get_style_prop(obj, part, LV_STYLE_BG_GRAD_STOP);
 172:Middlewares/LVGL/GUI/lvgl/src/extra/widgets/tabview/../../../../src/core/lv_obj_style_gen.h ****     return (lv_coord_t)v.num;
 173:Middlewares/LVGL/GUI/lvgl/src/extra/widgets/tabview/../../../../src/core/lv_obj_style_gen.h **** }
 174:Middlewares/LVGL/GUI/lvgl/src/extra/widgets/tabview/../../../../src/core/lv_obj_style_gen.h **** 
 175:Middlewares/LVGL/GUI/lvgl/src/extra/widgets/tabview/../../../../src/core/lv_obj_style_gen.h **** static inline const lv_grad_dsc_t * lv_obj_get_style_bg_grad(const struct _lv_obj_t * obj, uint32_t
 176:Middlewares/LVGL/GUI/lvgl/src/extra/widgets/tabview/../../../../src/core/lv_obj_style_gen.h **** {
 177:Middlewares/LVGL/GUI/lvgl/src/extra/widgets/tabview/../../../../src/core/lv_obj_style_gen.h ****     lv_style_value_t v = lv_obj_get_style_prop(obj, part, LV_STYLE_BG_GRAD);
 178:Middlewares/LVGL/GUI/lvgl/src/extra/widgets/tabview/../../../../src/core/lv_obj_style_gen.h ****     return (const lv_grad_dsc_t *)v.ptr;
 179:Middlewares/LVGL/GUI/lvgl/src/extra/widgets/tabview/../../../../src/core/lv_obj_style_gen.h **** }
 180:Middlewares/LVGL/GUI/lvgl/src/extra/widgets/tabview/../../../../src/core/lv_obj_style_gen.h **** 
 181:Middlewares/LVGL/GUI/lvgl/src/extra/widgets/tabview/../../../../src/core/lv_obj_style_gen.h **** static inline lv_dither_mode_t lv_obj_get_style_bg_dither_mode(const struct _lv_obj_t * obj, uint32
 182:Middlewares/LVGL/GUI/lvgl/src/extra/widgets/tabview/../../../../src/core/lv_obj_style_gen.h **** {
 183:Middlewares/LVGL/GUI/lvgl/src/extra/widgets/tabview/../../../../src/core/lv_obj_style_gen.h ****     lv_style_value_t v = lv_obj_get_style_prop(obj, part, LV_STYLE_BG_DITHER_MODE);
 184:Middlewares/LVGL/GUI/lvgl/src/extra/widgets/tabview/../../../../src/core/lv_obj_style_gen.h ****     return (lv_dither_mode_t)v.num;
 185:Middlewares/LVGL/GUI/lvgl/src/extra/widgets/tabview/../../../../src/core/lv_obj_style_gen.h **** }
 186:Middlewares/LVGL/GUI/lvgl/src/extra/widgets/tabview/../../../../src/core/lv_obj_style_gen.h **** 
 187:Middlewares/LVGL/GUI/lvgl/src/extra/widgets/tabview/../../../../src/core/lv_obj_style_gen.h **** static inline const void * lv_obj_get_style_bg_img_src(const struct _lv_obj_t * obj, uint32_t part)
 188:Middlewares/LVGL/GUI/lvgl/src/extra/widgets/tabview/../../../../src/core/lv_obj_style_gen.h **** {
 189:Middlewares/LVGL/GUI/lvgl/src/extra/widgets/tabview/../../../../src/core/lv_obj_style_gen.h ****     lv_style_value_t v = lv_obj_get_style_prop(obj, part, LV_STYLE_BG_IMG_SRC);
 190:Middlewares/LVGL/GUI/lvgl/src/extra/widgets/tabview/../../../../src/core/lv_obj_style_gen.h ****     return (const void *)v.ptr;
 191:Middlewares/LVGL/GUI/lvgl/src/extra/widgets/tabview/../../../../src/core/lv_obj_style_gen.h **** }
 192:Middlewares/LVGL/GUI/lvgl/src/extra/widgets/tabview/../../../../src/core/lv_obj_style_gen.h **** 
 193:Middlewares/LVGL/GUI/lvgl/src/extra/widgets/tabview/../../../../src/core/lv_obj_style_gen.h **** static inline lv_opa_t lv_obj_get_style_bg_img_opa(const struct _lv_obj_t * obj, uint32_t part)
 194:Middlewares/LVGL/GUI/lvgl/src/extra/widgets/tabview/../../../../src/core/lv_obj_style_gen.h **** {
 195:Middlewares/LVGL/GUI/lvgl/src/extra/widgets/tabview/../../../../src/core/lv_obj_style_gen.h ****     lv_style_value_t v = lv_obj_get_style_prop(obj, part, LV_STYLE_BG_IMG_OPA);
 196:Middlewares/LVGL/GUI/lvgl/src/extra/widgets/tabview/../../../../src/core/lv_obj_style_gen.h ****     return (lv_opa_t)v.num;
 197:Middlewares/LVGL/GUI/lvgl/src/extra/widgets/tabview/../../../../src/core/lv_obj_style_gen.h **** }
 198:Middlewares/LVGL/GUI/lvgl/src/extra/widgets/tabview/../../../../src/core/lv_obj_style_gen.h **** 
ARM GAS  C:\Users\ADMINI~1\AppData\Local\Temp\ccbkt2w0.s 			page 23


 199:Middlewares/LVGL/GUI/lvgl/src/extra/widgets/tabview/../../../../src/core/lv_obj_style_gen.h **** static inline lv_color_t lv_obj_get_style_bg_img_recolor(const struct _lv_obj_t * obj, uint32_t par
 200:Middlewares/LVGL/GUI/lvgl/src/extra/widgets/tabview/../../../../src/core/lv_obj_style_gen.h **** {
 201:Middlewares/LVGL/GUI/lvgl/src/extra/widgets/tabview/../../../../src/core/lv_obj_style_gen.h ****     lv_style_value_t v = lv_obj_get_style_prop(obj, part, LV_STYLE_BG_IMG_RECOLOR);
 202:Middlewares/LVGL/GUI/lvgl/src/extra/widgets/tabview/../../../../src/core/lv_obj_style_gen.h ****     return v.color;
 203:Middlewares/LVGL/GUI/lvgl/src/extra/widgets/tabview/../../../../src/core/lv_obj_style_gen.h **** }
 204:Middlewares/LVGL/GUI/lvgl/src/extra/widgets/tabview/../../../../src/core/lv_obj_style_gen.h **** 
 205:Middlewares/LVGL/GUI/lvgl/src/extra/widgets/tabview/../../../../src/core/lv_obj_style_gen.h **** static inline lv_color_t lv_obj_get_style_bg_img_recolor_filtered(const struct _lv_obj_t * obj, uin
 206:Middlewares/LVGL/GUI/lvgl/src/extra/widgets/tabview/../../../../src/core/lv_obj_style_gen.h **** {
 207:Middlewares/LVGL/GUI/lvgl/src/extra/widgets/tabview/../../../../src/core/lv_obj_style_gen.h ****     lv_style_value_t v = lv_obj_get_style_prop(obj, part, LV_STYLE_BG_IMG_RECOLOR_FILTERED);
 208:Middlewares/LVGL/GUI/lvgl/src/extra/widgets/tabview/../../../../src/core/lv_obj_style_gen.h ****     return v.color;
 209:Middlewares/LVGL/GUI/lvgl/src/extra/widgets/tabview/../../../../src/core/lv_obj_style_gen.h **** }
 210:Middlewares/LVGL/GUI/lvgl/src/extra/widgets/tabview/../../../../src/core/lv_obj_style_gen.h **** 
 211:Middlewares/LVGL/GUI/lvgl/src/extra/widgets/tabview/../../../../src/core/lv_obj_style_gen.h **** static inline lv_opa_t lv_obj_get_style_bg_img_recolor_opa(const struct _lv_obj_t * obj, uint32_t p
 212:Middlewares/LVGL/GUI/lvgl/src/extra/widgets/tabview/../../../../src/core/lv_obj_style_gen.h **** {
 213:Middlewares/LVGL/GUI/lvgl/src/extra/widgets/tabview/../../../../src/core/lv_obj_style_gen.h ****     lv_style_value_t v = lv_obj_get_style_prop(obj, part, LV_STYLE_BG_IMG_RECOLOR_OPA);
 214:Middlewares/LVGL/GUI/lvgl/src/extra/widgets/tabview/../../../../src/core/lv_obj_style_gen.h ****     return (lv_opa_t)v.num;
 215:Middlewares/LVGL/GUI/lvgl/src/extra/widgets/tabview/../../../../src/core/lv_obj_style_gen.h **** }
 216:Middlewares/LVGL/GUI/lvgl/src/extra/widgets/tabview/../../../../src/core/lv_obj_style_gen.h **** 
 217:Middlewares/LVGL/GUI/lvgl/src/extra/widgets/tabview/../../../../src/core/lv_obj_style_gen.h **** static inline bool lv_obj_get_style_bg_img_tiled(const struct _lv_obj_t * obj, uint32_t part)
 218:Middlewares/LVGL/GUI/lvgl/src/extra/widgets/tabview/../../../../src/core/lv_obj_style_gen.h **** {
 219:Middlewares/LVGL/GUI/lvgl/src/extra/widgets/tabview/../../../../src/core/lv_obj_style_gen.h ****     lv_style_value_t v = lv_obj_get_style_prop(obj, part, LV_STYLE_BG_IMG_TILED);
 220:Middlewares/LVGL/GUI/lvgl/src/extra/widgets/tabview/../../../../src/core/lv_obj_style_gen.h ****     return (bool)v.num;
 221:Middlewares/LVGL/GUI/lvgl/src/extra/widgets/tabview/../../../../src/core/lv_obj_style_gen.h **** }
 222:Middlewares/LVGL/GUI/lvgl/src/extra/widgets/tabview/../../../../src/core/lv_obj_style_gen.h **** 
 223:Middlewares/LVGL/GUI/lvgl/src/extra/widgets/tabview/../../../../src/core/lv_obj_style_gen.h **** static inline lv_color_t lv_obj_get_style_border_color(const struct _lv_obj_t * obj, uint32_t part)
 224:Middlewares/LVGL/GUI/lvgl/src/extra/widgets/tabview/../../../../src/core/lv_obj_style_gen.h **** {
 225:Middlewares/LVGL/GUI/lvgl/src/extra/widgets/tabview/../../../../src/core/lv_obj_style_gen.h ****     lv_style_value_t v = lv_obj_get_style_prop(obj, part, LV_STYLE_BORDER_COLOR);
 226:Middlewares/LVGL/GUI/lvgl/src/extra/widgets/tabview/../../../../src/core/lv_obj_style_gen.h ****     return v.color;
 227:Middlewares/LVGL/GUI/lvgl/src/extra/widgets/tabview/../../../../src/core/lv_obj_style_gen.h **** }
 228:Middlewares/LVGL/GUI/lvgl/src/extra/widgets/tabview/../../../../src/core/lv_obj_style_gen.h **** 
 229:Middlewares/LVGL/GUI/lvgl/src/extra/widgets/tabview/../../../../src/core/lv_obj_style_gen.h **** static inline lv_color_t lv_obj_get_style_border_color_filtered(const struct _lv_obj_t * obj, uint3
 230:Middlewares/LVGL/GUI/lvgl/src/extra/widgets/tabview/../../../../src/core/lv_obj_style_gen.h **** {
 231:Middlewares/LVGL/GUI/lvgl/src/extra/widgets/tabview/../../../../src/core/lv_obj_style_gen.h ****     lv_style_value_t v = lv_obj_get_style_prop(obj, part, LV_STYLE_BORDER_COLOR_FILTERED);
 232:Middlewares/LVGL/GUI/lvgl/src/extra/widgets/tabview/../../../../src/core/lv_obj_style_gen.h ****     return v.color;
 233:Middlewares/LVGL/GUI/lvgl/src/extra/widgets/tabview/../../../../src/core/lv_obj_style_gen.h **** }
 234:Middlewares/LVGL/GUI/lvgl/src/extra/widgets/tabview/../../../../src/core/lv_obj_style_gen.h **** 
 235:Middlewares/LVGL/GUI/lvgl/src/extra/widgets/tabview/../../../../src/core/lv_obj_style_gen.h **** static inline lv_opa_t lv_obj_get_style_border_opa(const struct _lv_obj_t * obj, uint32_t part)
 236:Middlewares/LVGL/GUI/lvgl/src/extra/widgets/tabview/../../../../src/core/lv_obj_style_gen.h **** {
 237:Middlewares/LVGL/GUI/lvgl/src/extra/widgets/tabview/../../../../src/core/lv_obj_style_gen.h ****     lv_style_value_t v = lv_obj_get_style_prop(obj, part, LV_STYLE_BORDER_OPA);
 238:Middlewares/LVGL/GUI/lvgl/src/extra/widgets/tabview/../../../../src/core/lv_obj_style_gen.h ****     return (lv_opa_t)v.num;
 239:Middlewares/LVGL/GUI/lvgl/src/extra/widgets/tabview/../../../../src/core/lv_obj_style_gen.h **** }
 240:Middlewares/LVGL/GUI/lvgl/src/extra/widgets/tabview/../../../../src/core/lv_obj_style_gen.h **** 
 241:Middlewares/LVGL/GUI/lvgl/src/extra/widgets/tabview/../../../../src/core/lv_obj_style_gen.h **** static inline lv_coord_t lv_obj_get_style_border_width(const struct _lv_obj_t * obj, uint32_t part)
 242:Middlewares/LVGL/GUI/lvgl/src/extra/widgets/tabview/../../../../src/core/lv_obj_style_gen.h **** {
 243:Middlewares/LVGL/GUI/lvgl/src/extra/widgets/tabview/../../../../src/core/lv_obj_style_gen.h ****     lv_style_value_t v = lv_obj_get_style_prop(obj, part, LV_STYLE_BORDER_WIDTH);
 244:Middlewares/LVGL/GUI/lvgl/src/extra/widgets/tabview/../../../../src/core/lv_obj_style_gen.h ****     return (lv_coord_t)v.num;
 245:Middlewares/LVGL/GUI/lvgl/src/extra/widgets/tabview/../../../../src/core/lv_obj_style_gen.h **** }
 246:Middlewares/LVGL/GUI/lvgl/src/extra/widgets/tabview/../../../../src/core/lv_obj_style_gen.h **** 
 247:Middlewares/LVGL/GUI/lvgl/src/extra/widgets/tabview/../../../../src/core/lv_obj_style_gen.h **** static inline lv_border_side_t lv_obj_get_style_border_side(const struct _lv_obj_t * obj, uint32_t 
 248:Middlewares/LVGL/GUI/lvgl/src/extra/widgets/tabview/../../../../src/core/lv_obj_style_gen.h **** {
 249:Middlewares/LVGL/GUI/lvgl/src/extra/widgets/tabview/../../../../src/core/lv_obj_style_gen.h ****     lv_style_value_t v = lv_obj_get_style_prop(obj, part, LV_STYLE_BORDER_SIDE);
 250:Middlewares/LVGL/GUI/lvgl/src/extra/widgets/tabview/../../../../src/core/lv_obj_style_gen.h ****     return (lv_border_side_t)v.num;
 251:Middlewares/LVGL/GUI/lvgl/src/extra/widgets/tabview/../../../../src/core/lv_obj_style_gen.h **** }
 252:Middlewares/LVGL/GUI/lvgl/src/extra/widgets/tabview/../../../../src/core/lv_obj_style_gen.h **** 
 253:Middlewares/LVGL/GUI/lvgl/src/extra/widgets/tabview/../../../../src/core/lv_obj_style_gen.h **** static inline bool lv_obj_get_style_border_post(const struct _lv_obj_t * obj, uint32_t part)
 254:Middlewares/LVGL/GUI/lvgl/src/extra/widgets/tabview/../../../../src/core/lv_obj_style_gen.h **** {
 255:Middlewares/LVGL/GUI/lvgl/src/extra/widgets/tabview/../../../../src/core/lv_obj_style_gen.h ****     lv_style_value_t v = lv_obj_get_style_prop(obj, part, LV_STYLE_BORDER_POST);
ARM GAS  C:\Users\ADMINI~1\AppData\Local\Temp\ccbkt2w0.s 			page 24


 256:Middlewares/LVGL/GUI/lvgl/src/extra/widgets/tabview/../../../../src/core/lv_obj_style_gen.h ****     return (bool)v.num;
 257:Middlewares/LVGL/GUI/lvgl/src/extra/widgets/tabview/../../../../src/core/lv_obj_style_gen.h **** }
 258:Middlewares/LVGL/GUI/lvgl/src/extra/widgets/tabview/../../../../src/core/lv_obj_style_gen.h **** 
 259:Middlewares/LVGL/GUI/lvgl/src/extra/widgets/tabview/../../../../src/core/lv_obj_style_gen.h **** static inline lv_coord_t lv_obj_get_style_outline_width(const struct _lv_obj_t * obj, uint32_t part
 260:Middlewares/LVGL/GUI/lvgl/src/extra/widgets/tabview/../../../../src/core/lv_obj_style_gen.h **** {
 261:Middlewares/LVGL/GUI/lvgl/src/extra/widgets/tabview/../../../../src/core/lv_obj_style_gen.h ****     lv_style_value_t v = lv_obj_get_style_prop(obj, part, LV_STYLE_OUTLINE_WIDTH);
 262:Middlewares/LVGL/GUI/lvgl/src/extra/widgets/tabview/../../../../src/core/lv_obj_style_gen.h ****     return (lv_coord_t)v.num;
 263:Middlewares/LVGL/GUI/lvgl/src/extra/widgets/tabview/../../../../src/core/lv_obj_style_gen.h **** }
 264:Middlewares/LVGL/GUI/lvgl/src/extra/widgets/tabview/../../../../src/core/lv_obj_style_gen.h **** 
 265:Middlewares/LVGL/GUI/lvgl/src/extra/widgets/tabview/../../../../src/core/lv_obj_style_gen.h **** static inline lv_color_t lv_obj_get_style_outline_color(const struct _lv_obj_t * obj, uint32_t part
 266:Middlewares/LVGL/GUI/lvgl/src/extra/widgets/tabview/../../../../src/core/lv_obj_style_gen.h **** {
 267:Middlewares/LVGL/GUI/lvgl/src/extra/widgets/tabview/../../../../src/core/lv_obj_style_gen.h ****     lv_style_value_t v = lv_obj_get_style_prop(obj, part, LV_STYLE_OUTLINE_COLOR);
 268:Middlewares/LVGL/GUI/lvgl/src/extra/widgets/tabview/../../../../src/core/lv_obj_style_gen.h ****     return v.color;
 269:Middlewares/LVGL/GUI/lvgl/src/extra/widgets/tabview/../../../../src/core/lv_obj_style_gen.h **** }
 270:Middlewares/LVGL/GUI/lvgl/src/extra/widgets/tabview/../../../../src/core/lv_obj_style_gen.h **** 
 271:Middlewares/LVGL/GUI/lvgl/src/extra/widgets/tabview/../../../../src/core/lv_obj_style_gen.h **** static inline lv_color_t lv_obj_get_style_outline_color_filtered(const struct _lv_obj_t * obj, uint
 272:Middlewares/LVGL/GUI/lvgl/src/extra/widgets/tabview/../../../../src/core/lv_obj_style_gen.h **** {
 273:Middlewares/LVGL/GUI/lvgl/src/extra/widgets/tabview/../../../../src/core/lv_obj_style_gen.h ****     lv_style_value_t v = lv_obj_get_style_prop(obj, part, LV_STYLE_OUTLINE_COLOR_FILTERED);
 274:Middlewares/LVGL/GUI/lvgl/src/extra/widgets/tabview/../../../../src/core/lv_obj_style_gen.h ****     return v.color;
 275:Middlewares/LVGL/GUI/lvgl/src/extra/widgets/tabview/../../../../src/core/lv_obj_style_gen.h **** }
 276:Middlewares/LVGL/GUI/lvgl/src/extra/widgets/tabview/../../../../src/core/lv_obj_style_gen.h **** 
 277:Middlewares/LVGL/GUI/lvgl/src/extra/widgets/tabview/../../../../src/core/lv_obj_style_gen.h **** static inline lv_opa_t lv_obj_get_style_outline_opa(const struct _lv_obj_t * obj, uint32_t part)
 278:Middlewares/LVGL/GUI/lvgl/src/extra/widgets/tabview/../../../../src/core/lv_obj_style_gen.h **** {
 279:Middlewares/LVGL/GUI/lvgl/src/extra/widgets/tabview/../../../../src/core/lv_obj_style_gen.h ****     lv_style_value_t v = lv_obj_get_style_prop(obj, part, LV_STYLE_OUTLINE_OPA);
 280:Middlewares/LVGL/GUI/lvgl/src/extra/widgets/tabview/../../../../src/core/lv_obj_style_gen.h ****     return (lv_opa_t)v.num;
 281:Middlewares/LVGL/GUI/lvgl/src/extra/widgets/tabview/../../../../src/core/lv_obj_style_gen.h **** }
 282:Middlewares/LVGL/GUI/lvgl/src/extra/widgets/tabview/../../../../src/core/lv_obj_style_gen.h **** 
 283:Middlewares/LVGL/GUI/lvgl/src/extra/widgets/tabview/../../../../src/core/lv_obj_style_gen.h **** static inline lv_coord_t lv_obj_get_style_outline_pad(const struct _lv_obj_t * obj, uint32_t part)
 284:Middlewares/LVGL/GUI/lvgl/src/extra/widgets/tabview/../../../../src/core/lv_obj_style_gen.h **** {
 285:Middlewares/LVGL/GUI/lvgl/src/extra/widgets/tabview/../../../../src/core/lv_obj_style_gen.h ****     lv_style_value_t v = lv_obj_get_style_prop(obj, part, LV_STYLE_OUTLINE_PAD);
 286:Middlewares/LVGL/GUI/lvgl/src/extra/widgets/tabview/../../../../src/core/lv_obj_style_gen.h ****     return (lv_coord_t)v.num;
 287:Middlewares/LVGL/GUI/lvgl/src/extra/widgets/tabview/../../../../src/core/lv_obj_style_gen.h **** }
 288:Middlewares/LVGL/GUI/lvgl/src/extra/widgets/tabview/../../../../src/core/lv_obj_style_gen.h **** 
 289:Middlewares/LVGL/GUI/lvgl/src/extra/widgets/tabview/../../../../src/core/lv_obj_style_gen.h **** static inline lv_coord_t lv_obj_get_style_shadow_width(const struct _lv_obj_t * obj, uint32_t part)
 290:Middlewares/LVGL/GUI/lvgl/src/extra/widgets/tabview/../../../../src/core/lv_obj_style_gen.h **** {
 291:Middlewares/LVGL/GUI/lvgl/src/extra/widgets/tabview/../../../../src/core/lv_obj_style_gen.h ****     lv_style_value_t v = lv_obj_get_style_prop(obj, part, LV_STYLE_SHADOW_WIDTH);
 292:Middlewares/LVGL/GUI/lvgl/src/extra/widgets/tabview/../../../../src/core/lv_obj_style_gen.h ****     return (lv_coord_t)v.num;
 293:Middlewares/LVGL/GUI/lvgl/src/extra/widgets/tabview/../../../../src/core/lv_obj_style_gen.h **** }
 294:Middlewares/LVGL/GUI/lvgl/src/extra/widgets/tabview/../../../../src/core/lv_obj_style_gen.h **** 
 295:Middlewares/LVGL/GUI/lvgl/src/extra/widgets/tabview/../../../../src/core/lv_obj_style_gen.h **** static inline lv_coord_t lv_obj_get_style_shadow_ofs_x(const struct _lv_obj_t * obj, uint32_t part)
 296:Middlewares/LVGL/GUI/lvgl/src/extra/widgets/tabview/../../../../src/core/lv_obj_style_gen.h **** {
 297:Middlewares/LVGL/GUI/lvgl/src/extra/widgets/tabview/../../../../src/core/lv_obj_style_gen.h ****     lv_style_value_t v = lv_obj_get_style_prop(obj, part, LV_STYLE_SHADOW_OFS_X);
 298:Middlewares/LVGL/GUI/lvgl/src/extra/widgets/tabview/../../../../src/core/lv_obj_style_gen.h ****     return (lv_coord_t)v.num;
 299:Middlewares/LVGL/GUI/lvgl/src/extra/widgets/tabview/../../../../src/core/lv_obj_style_gen.h **** }
 300:Middlewares/LVGL/GUI/lvgl/src/extra/widgets/tabview/../../../../src/core/lv_obj_style_gen.h **** 
 301:Middlewares/LVGL/GUI/lvgl/src/extra/widgets/tabview/../../../../src/core/lv_obj_style_gen.h **** static inline lv_coord_t lv_obj_get_style_shadow_ofs_y(const struct _lv_obj_t * obj, uint32_t part)
 302:Middlewares/LVGL/GUI/lvgl/src/extra/widgets/tabview/../../../../src/core/lv_obj_style_gen.h **** {
 303:Middlewares/LVGL/GUI/lvgl/src/extra/widgets/tabview/../../../../src/core/lv_obj_style_gen.h ****     lv_style_value_t v = lv_obj_get_style_prop(obj, part, LV_STYLE_SHADOW_OFS_Y);
 304:Middlewares/LVGL/GUI/lvgl/src/extra/widgets/tabview/../../../../src/core/lv_obj_style_gen.h ****     return (lv_coord_t)v.num;
 305:Middlewares/LVGL/GUI/lvgl/src/extra/widgets/tabview/../../../../src/core/lv_obj_style_gen.h **** }
 306:Middlewares/LVGL/GUI/lvgl/src/extra/widgets/tabview/../../../../src/core/lv_obj_style_gen.h **** 
 307:Middlewares/LVGL/GUI/lvgl/src/extra/widgets/tabview/../../../../src/core/lv_obj_style_gen.h **** static inline lv_coord_t lv_obj_get_style_shadow_spread(const struct _lv_obj_t * obj, uint32_t part
 308:Middlewares/LVGL/GUI/lvgl/src/extra/widgets/tabview/../../../../src/core/lv_obj_style_gen.h **** {
 309:Middlewares/LVGL/GUI/lvgl/src/extra/widgets/tabview/../../../../src/core/lv_obj_style_gen.h ****     lv_style_value_t v = lv_obj_get_style_prop(obj, part, LV_STYLE_SHADOW_SPREAD);
 310:Middlewares/LVGL/GUI/lvgl/src/extra/widgets/tabview/../../../../src/core/lv_obj_style_gen.h ****     return (lv_coord_t)v.num;
 311:Middlewares/LVGL/GUI/lvgl/src/extra/widgets/tabview/../../../../src/core/lv_obj_style_gen.h **** }
 312:Middlewares/LVGL/GUI/lvgl/src/extra/widgets/tabview/../../../../src/core/lv_obj_style_gen.h **** 
ARM GAS  C:\Users\ADMINI~1\AppData\Local\Temp\ccbkt2w0.s 			page 25


 313:Middlewares/LVGL/GUI/lvgl/src/extra/widgets/tabview/../../../../src/core/lv_obj_style_gen.h **** static inline lv_color_t lv_obj_get_style_shadow_color(const struct _lv_obj_t * obj, uint32_t part)
 314:Middlewares/LVGL/GUI/lvgl/src/extra/widgets/tabview/../../../../src/core/lv_obj_style_gen.h **** {
 315:Middlewares/LVGL/GUI/lvgl/src/extra/widgets/tabview/../../../../src/core/lv_obj_style_gen.h ****     lv_style_value_t v = lv_obj_get_style_prop(obj, part, LV_STYLE_SHADOW_COLOR);
 316:Middlewares/LVGL/GUI/lvgl/src/extra/widgets/tabview/../../../../src/core/lv_obj_style_gen.h ****     return v.color;
 317:Middlewares/LVGL/GUI/lvgl/src/extra/widgets/tabview/../../../../src/core/lv_obj_style_gen.h **** }
 318:Middlewares/LVGL/GUI/lvgl/src/extra/widgets/tabview/../../../../src/core/lv_obj_style_gen.h **** 
 319:Middlewares/LVGL/GUI/lvgl/src/extra/widgets/tabview/../../../../src/core/lv_obj_style_gen.h **** static inline lv_color_t lv_obj_get_style_shadow_color_filtered(const struct _lv_obj_t * obj, uint3
 320:Middlewares/LVGL/GUI/lvgl/src/extra/widgets/tabview/../../../../src/core/lv_obj_style_gen.h **** {
 321:Middlewares/LVGL/GUI/lvgl/src/extra/widgets/tabview/../../../../src/core/lv_obj_style_gen.h ****     lv_style_value_t v = lv_obj_get_style_prop(obj, part, LV_STYLE_SHADOW_COLOR_FILTERED);
 322:Middlewares/LVGL/GUI/lvgl/src/extra/widgets/tabview/../../../../src/core/lv_obj_style_gen.h ****     return v.color;
 323:Middlewares/LVGL/GUI/lvgl/src/extra/widgets/tabview/../../../../src/core/lv_obj_style_gen.h **** }
 324:Middlewares/LVGL/GUI/lvgl/src/extra/widgets/tabview/../../../../src/core/lv_obj_style_gen.h **** 
 325:Middlewares/LVGL/GUI/lvgl/src/extra/widgets/tabview/../../../../src/core/lv_obj_style_gen.h **** static inline lv_opa_t lv_obj_get_style_shadow_opa(const struct _lv_obj_t * obj, uint32_t part)
 326:Middlewares/LVGL/GUI/lvgl/src/extra/widgets/tabview/../../../../src/core/lv_obj_style_gen.h **** {
 327:Middlewares/LVGL/GUI/lvgl/src/extra/widgets/tabview/../../../../src/core/lv_obj_style_gen.h ****     lv_style_value_t v = lv_obj_get_style_prop(obj, part, LV_STYLE_SHADOW_OPA);
 328:Middlewares/LVGL/GUI/lvgl/src/extra/widgets/tabview/../../../../src/core/lv_obj_style_gen.h ****     return (lv_opa_t)v.num;
 329:Middlewares/LVGL/GUI/lvgl/src/extra/widgets/tabview/../../../../src/core/lv_obj_style_gen.h **** }
 330:Middlewares/LVGL/GUI/lvgl/src/extra/widgets/tabview/../../../../src/core/lv_obj_style_gen.h **** 
 331:Middlewares/LVGL/GUI/lvgl/src/extra/widgets/tabview/../../../../src/core/lv_obj_style_gen.h **** static inline lv_opa_t lv_obj_get_style_img_opa(const struct _lv_obj_t * obj, uint32_t part)
 332:Middlewares/LVGL/GUI/lvgl/src/extra/widgets/tabview/../../../../src/core/lv_obj_style_gen.h **** {
 333:Middlewares/LVGL/GUI/lvgl/src/extra/widgets/tabview/../../../../src/core/lv_obj_style_gen.h ****     lv_style_value_t v = lv_obj_get_style_prop(obj, part, LV_STYLE_IMG_OPA);
 334:Middlewares/LVGL/GUI/lvgl/src/extra/widgets/tabview/../../../../src/core/lv_obj_style_gen.h ****     return (lv_opa_t)v.num;
 335:Middlewares/LVGL/GUI/lvgl/src/extra/widgets/tabview/../../../../src/core/lv_obj_style_gen.h **** }
 336:Middlewares/LVGL/GUI/lvgl/src/extra/widgets/tabview/../../../../src/core/lv_obj_style_gen.h **** 
 337:Middlewares/LVGL/GUI/lvgl/src/extra/widgets/tabview/../../../../src/core/lv_obj_style_gen.h **** static inline lv_color_t lv_obj_get_style_img_recolor(const struct _lv_obj_t * obj, uint32_t part)
 338:Middlewares/LVGL/GUI/lvgl/src/extra/widgets/tabview/../../../../src/core/lv_obj_style_gen.h **** {
 339:Middlewares/LVGL/GUI/lvgl/src/extra/widgets/tabview/../../../../src/core/lv_obj_style_gen.h ****     lv_style_value_t v = lv_obj_get_style_prop(obj, part, LV_STYLE_IMG_RECOLOR);
 340:Middlewares/LVGL/GUI/lvgl/src/extra/widgets/tabview/../../../../src/core/lv_obj_style_gen.h ****     return v.color;
 341:Middlewares/LVGL/GUI/lvgl/src/extra/widgets/tabview/../../../../src/core/lv_obj_style_gen.h **** }
 342:Middlewares/LVGL/GUI/lvgl/src/extra/widgets/tabview/../../../../src/core/lv_obj_style_gen.h **** 
 343:Middlewares/LVGL/GUI/lvgl/src/extra/widgets/tabview/../../../../src/core/lv_obj_style_gen.h **** static inline lv_color_t lv_obj_get_style_img_recolor_filtered(const struct _lv_obj_t * obj, uint32
 344:Middlewares/LVGL/GUI/lvgl/src/extra/widgets/tabview/../../../../src/core/lv_obj_style_gen.h **** {
 345:Middlewares/LVGL/GUI/lvgl/src/extra/widgets/tabview/../../../../src/core/lv_obj_style_gen.h ****     lv_style_value_t v = lv_obj_get_style_prop(obj, part, LV_STYLE_IMG_RECOLOR_FILTERED);
 346:Middlewares/LVGL/GUI/lvgl/src/extra/widgets/tabview/../../../../src/core/lv_obj_style_gen.h ****     return v.color;
 347:Middlewares/LVGL/GUI/lvgl/src/extra/widgets/tabview/../../../../src/core/lv_obj_style_gen.h **** }
 348:Middlewares/LVGL/GUI/lvgl/src/extra/widgets/tabview/../../../../src/core/lv_obj_style_gen.h **** 
 349:Middlewares/LVGL/GUI/lvgl/src/extra/widgets/tabview/../../../../src/core/lv_obj_style_gen.h **** static inline lv_opa_t lv_obj_get_style_img_recolor_opa(const struct _lv_obj_t * obj, uint32_t part
 350:Middlewares/LVGL/GUI/lvgl/src/extra/widgets/tabview/../../../../src/core/lv_obj_style_gen.h **** {
 351:Middlewares/LVGL/GUI/lvgl/src/extra/widgets/tabview/../../../../src/core/lv_obj_style_gen.h ****     lv_style_value_t v = lv_obj_get_style_prop(obj, part, LV_STYLE_IMG_RECOLOR_OPA);
 352:Middlewares/LVGL/GUI/lvgl/src/extra/widgets/tabview/../../../../src/core/lv_obj_style_gen.h ****     return (lv_opa_t)v.num;
 353:Middlewares/LVGL/GUI/lvgl/src/extra/widgets/tabview/../../../../src/core/lv_obj_style_gen.h **** }
 354:Middlewares/LVGL/GUI/lvgl/src/extra/widgets/tabview/../../../../src/core/lv_obj_style_gen.h **** 
 355:Middlewares/LVGL/GUI/lvgl/src/extra/widgets/tabview/../../../../src/core/lv_obj_style_gen.h **** static inline lv_coord_t lv_obj_get_style_line_width(const struct _lv_obj_t * obj, uint32_t part)
 356:Middlewares/LVGL/GUI/lvgl/src/extra/widgets/tabview/../../../../src/core/lv_obj_style_gen.h **** {
 357:Middlewares/LVGL/GUI/lvgl/src/extra/widgets/tabview/../../../../src/core/lv_obj_style_gen.h ****     lv_style_value_t v = lv_obj_get_style_prop(obj, part, LV_STYLE_LINE_WIDTH);
 358:Middlewares/LVGL/GUI/lvgl/src/extra/widgets/tabview/../../../../src/core/lv_obj_style_gen.h ****     return (lv_coord_t)v.num;
 359:Middlewares/LVGL/GUI/lvgl/src/extra/widgets/tabview/../../../../src/core/lv_obj_style_gen.h **** }
 360:Middlewares/LVGL/GUI/lvgl/src/extra/widgets/tabview/../../../../src/core/lv_obj_style_gen.h **** 
 361:Middlewares/LVGL/GUI/lvgl/src/extra/widgets/tabview/../../../../src/core/lv_obj_style_gen.h **** static inline lv_coord_t lv_obj_get_style_line_dash_width(const struct _lv_obj_t * obj, uint32_t pa
 362:Middlewares/LVGL/GUI/lvgl/src/extra/widgets/tabview/../../../../src/core/lv_obj_style_gen.h **** {
 363:Middlewares/LVGL/GUI/lvgl/src/extra/widgets/tabview/../../../../src/core/lv_obj_style_gen.h ****     lv_style_value_t v = lv_obj_get_style_prop(obj, part, LV_STYLE_LINE_DASH_WIDTH);
 364:Middlewares/LVGL/GUI/lvgl/src/extra/widgets/tabview/../../../../src/core/lv_obj_style_gen.h ****     return (lv_coord_t)v.num;
 365:Middlewares/LVGL/GUI/lvgl/src/extra/widgets/tabview/../../../../src/core/lv_obj_style_gen.h **** }
 366:Middlewares/LVGL/GUI/lvgl/src/extra/widgets/tabview/../../../../src/core/lv_obj_style_gen.h **** 
 367:Middlewares/LVGL/GUI/lvgl/src/extra/widgets/tabview/../../../../src/core/lv_obj_style_gen.h **** static inline lv_coord_t lv_obj_get_style_line_dash_gap(const struct _lv_obj_t * obj, uint32_t part
 368:Middlewares/LVGL/GUI/lvgl/src/extra/widgets/tabview/../../../../src/core/lv_obj_style_gen.h **** {
 369:Middlewares/LVGL/GUI/lvgl/src/extra/widgets/tabview/../../../../src/core/lv_obj_style_gen.h ****     lv_style_value_t v = lv_obj_get_style_prop(obj, part, LV_STYLE_LINE_DASH_GAP);
ARM GAS  C:\Users\ADMINI~1\AppData\Local\Temp\ccbkt2w0.s 			page 26


 370:Middlewares/LVGL/GUI/lvgl/src/extra/widgets/tabview/../../../../src/core/lv_obj_style_gen.h ****     return (lv_coord_t)v.num;
 371:Middlewares/LVGL/GUI/lvgl/src/extra/widgets/tabview/../../../../src/core/lv_obj_style_gen.h **** }
 372:Middlewares/LVGL/GUI/lvgl/src/extra/widgets/tabview/../../../../src/core/lv_obj_style_gen.h **** 
 373:Middlewares/LVGL/GUI/lvgl/src/extra/widgets/tabview/../../../../src/core/lv_obj_style_gen.h **** static inline bool lv_obj_get_style_line_rounded(const struct _lv_obj_t * obj, uint32_t part)
 374:Middlewares/LVGL/GUI/lvgl/src/extra/widgets/tabview/../../../../src/core/lv_obj_style_gen.h **** {
 375:Middlewares/LVGL/GUI/lvgl/src/extra/widgets/tabview/../../../../src/core/lv_obj_style_gen.h ****     lv_style_value_t v = lv_obj_get_style_prop(obj, part, LV_STYLE_LINE_ROUNDED);
 376:Middlewares/LVGL/GUI/lvgl/src/extra/widgets/tabview/../../../../src/core/lv_obj_style_gen.h ****     return (bool)v.num;
 377:Middlewares/LVGL/GUI/lvgl/src/extra/widgets/tabview/../../../../src/core/lv_obj_style_gen.h **** }
 378:Middlewares/LVGL/GUI/lvgl/src/extra/widgets/tabview/../../../../src/core/lv_obj_style_gen.h **** 
 379:Middlewares/LVGL/GUI/lvgl/src/extra/widgets/tabview/../../../../src/core/lv_obj_style_gen.h **** static inline lv_color_t lv_obj_get_style_line_color(const struct _lv_obj_t * obj, uint32_t part)
 380:Middlewares/LVGL/GUI/lvgl/src/extra/widgets/tabview/../../../../src/core/lv_obj_style_gen.h **** {
 381:Middlewares/LVGL/GUI/lvgl/src/extra/widgets/tabview/../../../../src/core/lv_obj_style_gen.h ****     lv_style_value_t v = lv_obj_get_style_prop(obj, part, LV_STYLE_LINE_COLOR);
 382:Middlewares/LVGL/GUI/lvgl/src/extra/widgets/tabview/../../../../src/core/lv_obj_style_gen.h ****     return v.color;
 383:Middlewares/LVGL/GUI/lvgl/src/extra/widgets/tabview/../../../../src/core/lv_obj_style_gen.h **** }
 384:Middlewares/LVGL/GUI/lvgl/src/extra/widgets/tabview/../../../../src/core/lv_obj_style_gen.h **** 
 385:Middlewares/LVGL/GUI/lvgl/src/extra/widgets/tabview/../../../../src/core/lv_obj_style_gen.h **** static inline lv_color_t lv_obj_get_style_line_color_filtered(const struct _lv_obj_t * obj, uint32_
 386:Middlewares/LVGL/GUI/lvgl/src/extra/widgets/tabview/../../../../src/core/lv_obj_style_gen.h **** {
 387:Middlewares/LVGL/GUI/lvgl/src/extra/widgets/tabview/../../../../src/core/lv_obj_style_gen.h ****     lv_style_value_t v = lv_obj_get_style_prop(obj, part, LV_STYLE_LINE_COLOR_FILTERED);
 388:Middlewares/LVGL/GUI/lvgl/src/extra/widgets/tabview/../../../../src/core/lv_obj_style_gen.h ****     return v.color;
 389:Middlewares/LVGL/GUI/lvgl/src/extra/widgets/tabview/../../../../src/core/lv_obj_style_gen.h **** }
 390:Middlewares/LVGL/GUI/lvgl/src/extra/widgets/tabview/../../../../src/core/lv_obj_style_gen.h **** 
 391:Middlewares/LVGL/GUI/lvgl/src/extra/widgets/tabview/../../../../src/core/lv_obj_style_gen.h **** static inline lv_opa_t lv_obj_get_style_line_opa(const struct _lv_obj_t * obj, uint32_t part)
 392:Middlewares/LVGL/GUI/lvgl/src/extra/widgets/tabview/../../../../src/core/lv_obj_style_gen.h **** {
 393:Middlewares/LVGL/GUI/lvgl/src/extra/widgets/tabview/../../../../src/core/lv_obj_style_gen.h ****     lv_style_value_t v = lv_obj_get_style_prop(obj, part, LV_STYLE_LINE_OPA);
 394:Middlewares/LVGL/GUI/lvgl/src/extra/widgets/tabview/../../../../src/core/lv_obj_style_gen.h ****     return (lv_opa_t)v.num;
 395:Middlewares/LVGL/GUI/lvgl/src/extra/widgets/tabview/../../../../src/core/lv_obj_style_gen.h **** }
 396:Middlewares/LVGL/GUI/lvgl/src/extra/widgets/tabview/../../../../src/core/lv_obj_style_gen.h **** 
 397:Middlewares/LVGL/GUI/lvgl/src/extra/widgets/tabview/../../../../src/core/lv_obj_style_gen.h **** static inline lv_coord_t lv_obj_get_style_arc_width(const struct _lv_obj_t * obj, uint32_t part)
 398:Middlewares/LVGL/GUI/lvgl/src/extra/widgets/tabview/../../../../src/core/lv_obj_style_gen.h **** {
 399:Middlewares/LVGL/GUI/lvgl/src/extra/widgets/tabview/../../../../src/core/lv_obj_style_gen.h ****     lv_style_value_t v = lv_obj_get_style_prop(obj, part, LV_STYLE_ARC_WIDTH);
 400:Middlewares/LVGL/GUI/lvgl/src/extra/widgets/tabview/../../../../src/core/lv_obj_style_gen.h ****     return (lv_coord_t)v.num;
 401:Middlewares/LVGL/GUI/lvgl/src/extra/widgets/tabview/../../../../src/core/lv_obj_style_gen.h **** }
 402:Middlewares/LVGL/GUI/lvgl/src/extra/widgets/tabview/../../../../src/core/lv_obj_style_gen.h **** 
 403:Middlewares/LVGL/GUI/lvgl/src/extra/widgets/tabview/../../../../src/core/lv_obj_style_gen.h **** static inline bool lv_obj_get_style_arc_rounded(const struct _lv_obj_t * obj, uint32_t part)
 404:Middlewares/LVGL/GUI/lvgl/src/extra/widgets/tabview/../../../../src/core/lv_obj_style_gen.h **** {
 405:Middlewares/LVGL/GUI/lvgl/src/extra/widgets/tabview/../../../../src/core/lv_obj_style_gen.h ****     lv_style_value_t v = lv_obj_get_style_prop(obj, part, LV_STYLE_ARC_ROUNDED);
 406:Middlewares/LVGL/GUI/lvgl/src/extra/widgets/tabview/../../../../src/core/lv_obj_style_gen.h ****     return (bool)v.num;
 407:Middlewares/LVGL/GUI/lvgl/src/extra/widgets/tabview/../../../../src/core/lv_obj_style_gen.h **** }
 408:Middlewares/LVGL/GUI/lvgl/src/extra/widgets/tabview/../../../../src/core/lv_obj_style_gen.h **** 
 409:Middlewares/LVGL/GUI/lvgl/src/extra/widgets/tabview/../../../../src/core/lv_obj_style_gen.h **** static inline lv_color_t lv_obj_get_style_arc_color(const struct _lv_obj_t * obj, uint32_t part)
 410:Middlewares/LVGL/GUI/lvgl/src/extra/widgets/tabview/../../../../src/core/lv_obj_style_gen.h **** {
 411:Middlewares/LVGL/GUI/lvgl/src/extra/widgets/tabview/../../../../src/core/lv_obj_style_gen.h ****     lv_style_value_t v = lv_obj_get_style_prop(obj, part, LV_STYLE_ARC_COLOR);
 412:Middlewares/LVGL/GUI/lvgl/src/extra/widgets/tabview/../../../../src/core/lv_obj_style_gen.h ****     return v.color;
 413:Middlewares/LVGL/GUI/lvgl/src/extra/widgets/tabview/../../../../src/core/lv_obj_style_gen.h **** }
 414:Middlewares/LVGL/GUI/lvgl/src/extra/widgets/tabview/../../../../src/core/lv_obj_style_gen.h **** 
 415:Middlewares/LVGL/GUI/lvgl/src/extra/widgets/tabview/../../../../src/core/lv_obj_style_gen.h **** static inline lv_color_t lv_obj_get_style_arc_color_filtered(const struct _lv_obj_t * obj, uint32_t
 416:Middlewares/LVGL/GUI/lvgl/src/extra/widgets/tabview/../../../../src/core/lv_obj_style_gen.h **** {
 417:Middlewares/LVGL/GUI/lvgl/src/extra/widgets/tabview/../../../../src/core/lv_obj_style_gen.h ****     lv_style_value_t v = lv_obj_get_style_prop(obj, part, LV_STYLE_ARC_COLOR_FILTERED);
 418:Middlewares/LVGL/GUI/lvgl/src/extra/widgets/tabview/../../../../src/core/lv_obj_style_gen.h ****     return v.color;
 419:Middlewares/LVGL/GUI/lvgl/src/extra/widgets/tabview/../../../../src/core/lv_obj_style_gen.h **** }
 420:Middlewares/LVGL/GUI/lvgl/src/extra/widgets/tabview/../../../../src/core/lv_obj_style_gen.h **** 
 421:Middlewares/LVGL/GUI/lvgl/src/extra/widgets/tabview/../../../../src/core/lv_obj_style_gen.h **** static inline lv_opa_t lv_obj_get_style_arc_opa(const struct _lv_obj_t * obj, uint32_t part)
 422:Middlewares/LVGL/GUI/lvgl/src/extra/widgets/tabview/../../../../src/core/lv_obj_style_gen.h **** {
 423:Middlewares/LVGL/GUI/lvgl/src/extra/widgets/tabview/../../../../src/core/lv_obj_style_gen.h ****     lv_style_value_t v = lv_obj_get_style_prop(obj, part, LV_STYLE_ARC_OPA);
 424:Middlewares/LVGL/GUI/lvgl/src/extra/widgets/tabview/../../../../src/core/lv_obj_style_gen.h ****     return (lv_opa_t)v.num;
 425:Middlewares/LVGL/GUI/lvgl/src/extra/widgets/tabview/../../../../src/core/lv_obj_style_gen.h **** }
 426:Middlewares/LVGL/GUI/lvgl/src/extra/widgets/tabview/../../../../src/core/lv_obj_style_gen.h **** 
ARM GAS  C:\Users\ADMINI~1\AppData\Local\Temp\ccbkt2w0.s 			page 27


 427:Middlewares/LVGL/GUI/lvgl/src/extra/widgets/tabview/../../../../src/core/lv_obj_style_gen.h **** static inline const void * lv_obj_get_style_arc_img_src(const struct _lv_obj_t * obj, uint32_t part
 428:Middlewares/LVGL/GUI/lvgl/src/extra/widgets/tabview/../../../../src/core/lv_obj_style_gen.h **** {
 429:Middlewares/LVGL/GUI/lvgl/src/extra/widgets/tabview/../../../../src/core/lv_obj_style_gen.h ****     lv_style_value_t v = lv_obj_get_style_prop(obj, part, LV_STYLE_ARC_IMG_SRC);
 430:Middlewares/LVGL/GUI/lvgl/src/extra/widgets/tabview/../../../../src/core/lv_obj_style_gen.h ****     return (const void *)v.ptr;
 431:Middlewares/LVGL/GUI/lvgl/src/extra/widgets/tabview/../../../../src/core/lv_obj_style_gen.h **** }
 432:Middlewares/LVGL/GUI/lvgl/src/extra/widgets/tabview/../../../../src/core/lv_obj_style_gen.h **** 
 433:Middlewares/LVGL/GUI/lvgl/src/extra/widgets/tabview/../../../../src/core/lv_obj_style_gen.h **** static inline lv_color_t lv_obj_get_style_text_color(const struct _lv_obj_t * obj, uint32_t part)
 434:Middlewares/LVGL/GUI/lvgl/src/extra/widgets/tabview/../../../../src/core/lv_obj_style_gen.h **** {
 435:Middlewares/LVGL/GUI/lvgl/src/extra/widgets/tabview/../../../../src/core/lv_obj_style_gen.h ****     lv_style_value_t v = lv_obj_get_style_prop(obj, part, LV_STYLE_TEXT_COLOR);
 436:Middlewares/LVGL/GUI/lvgl/src/extra/widgets/tabview/../../../../src/core/lv_obj_style_gen.h ****     return v.color;
 437:Middlewares/LVGL/GUI/lvgl/src/extra/widgets/tabview/../../../../src/core/lv_obj_style_gen.h **** }
 438:Middlewares/LVGL/GUI/lvgl/src/extra/widgets/tabview/../../../../src/core/lv_obj_style_gen.h **** 
 439:Middlewares/LVGL/GUI/lvgl/src/extra/widgets/tabview/../../../../src/core/lv_obj_style_gen.h **** static inline lv_color_t lv_obj_get_style_text_color_filtered(const struct _lv_obj_t * obj, uint32_
 440:Middlewares/LVGL/GUI/lvgl/src/extra/widgets/tabview/../../../../src/core/lv_obj_style_gen.h **** {
 441:Middlewares/LVGL/GUI/lvgl/src/extra/widgets/tabview/../../../../src/core/lv_obj_style_gen.h ****     lv_style_value_t v = lv_obj_get_style_prop(obj, part, LV_STYLE_TEXT_COLOR_FILTERED);
 442:Middlewares/LVGL/GUI/lvgl/src/extra/widgets/tabview/../../../../src/core/lv_obj_style_gen.h ****     return v.color;
 443:Middlewares/LVGL/GUI/lvgl/src/extra/widgets/tabview/../../../../src/core/lv_obj_style_gen.h **** }
 444:Middlewares/LVGL/GUI/lvgl/src/extra/widgets/tabview/../../../../src/core/lv_obj_style_gen.h **** 
 445:Middlewares/LVGL/GUI/lvgl/src/extra/widgets/tabview/../../../../src/core/lv_obj_style_gen.h **** static inline lv_opa_t lv_obj_get_style_text_opa(const struct _lv_obj_t * obj, uint32_t part)
 446:Middlewares/LVGL/GUI/lvgl/src/extra/widgets/tabview/../../../../src/core/lv_obj_style_gen.h **** {
 447:Middlewares/LVGL/GUI/lvgl/src/extra/widgets/tabview/../../../../src/core/lv_obj_style_gen.h ****     lv_style_value_t v = lv_obj_get_style_prop(obj, part, LV_STYLE_TEXT_OPA);
 448:Middlewares/LVGL/GUI/lvgl/src/extra/widgets/tabview/../../../../src/core/lv_obj_style_gen.h ****     return (lv_opa_t)v.num;
 449:Middlewares/LVGL/GUI/lvgl/src/extra/widgets/tabview/../../../../src/core/lv_obj_style_gen.h **** }
 450:Middlewares/LVGL/GUI/lvgl/src/extra/widgets/tabview/../../../../src/core/lv_obj_style_gen.h **** 
 451:Middlewares/LVGL/GUI/lvgl/src/extra/widgets/tabview/../../../../src/core/lv_obj_style_gen.h **** static inline const lv_font_t * lv_obj_get_style_text_font(const struct _lv_obj_t * obj, uint32_t p
 452:Middlewares/LVGL/GUI/lvgl/src/extra/widgets/tabview/../../../../src/core/lv_obj_style_gen.h **** {
 453:Middlewares/LVGL/GUI/lvgl/src/extra/widgets/tabview/../../../../src/core/lv_obj_style_gen.h ****     lv_style_value_t v = lv_obj_get_style_prop(obj, part, LV_STYLE_TEXT_FONT);
 454:Middlewares/LVGL/GUI/lvgl/src/extra/widgets/tabview/../../../../src/core/lv_obj_style_gen.h ****     return (const lv_font_t *)v.ptr;
 455:Middlewares/LVGL/GUI/lvgl/src/extra/widgets/tabview/../../../../src/core/lv_obj_style_gen.h **** }
 456:Middlewares/LVGL/GUI/lvgl/src/extra/widgets/tabview/../../../../src/core/lv_obj_style_gen.h **** 
 457:Middlewares/LVGL/GUI/lvgl/src/extra/widgets/tabview/../../../../src/core/lv_obj_style_gen.h **** static inline lv_coord_t lv_obj_get_style_text_letter_space(const struct _lv_obj_t * obj, uint32_t 
 458:Middlewares/LVGL/GUI/lvgl/src/extra/widgets/tabview/../../../../src/core/lv_obj_style_gen.h **** {
 459:Middlewares/LVGL/GUI/lvgl/src/extra/widgets/tabview/../../../../src/core/lv_obj_style_gen.h ****     lv_style_value_t v = lv_obj_get_style_prop(obj, part, LV_STYLE_TEXT_LETTER_SPACE);
 460:Middlewares/LVGL/GUI/lvgl/src/extra/widgets/tabview/../../../../src/core/lv_obj_style_gen.h ****     return (lv_coord_t)v.num;
 461:Middlewares/LVGL/GUI/lvgl/src/extra/widgets/tabview/../../../../src/core/lv_obj_style_gen.h **** }
 462:Middlewares/LVGL/GUI/lvgl/src/extra/widgets/tabview/../../../../src/core/lv_obj_style_gen.h **** 
 463:Middlewares/LVGL/GUI/lvgl/src/extra/widgets/tabview/../../../../src/core/lv_obj_style_gen.h **** static inline lv_coord_t lv_obj_get_style_text_line_space(const struct _lv_obj_t * obj, uint32_t pa
 464:Middlewares/LVGL/GUI/lvgl/src/extra/widgets/tabview/../../../../src/core/lv_obj_style_gen.h **** {
 465:Middlewares/LVGL/GUI/lvgl/src/extra/widgets/tabview/../../../../src/core/lv_obj_style_gen.h ****     lv_style_value_t v = lv_obj_get_style_prop(obj, part, LV_STYLE_TEXT_LINE_SPACE);
 466:Middlewares/LVGL/GUI/lvgl/src/extra/widgets/tabview/../../../../src/core/lv_obj_style_gen.h ****     return (lv_coord_t)v.num;
 467:Middlewares/LVGL/GUI/lvgl/src/extra/widgets/tabview/../../../../src/core/lv_obj_style_gen.h **** }
 468:Middlewares/LVGL/GUI/lvgl/src/extra/widgets/tabview/../../../../src/core/lv_obj_style_gen.h **** 
 469:Middlewares/LVGL/GUI/lvgl/src/extra/widgets/tabview/../../../../src/core/lv_obj_style_gen.h **** static inline lv_text_decor_t lv_obj_get_style_text_decor(const struct _lv_obj_t * obj, uint32_t pa
 470:Middlewares/LVGL/GUI/lvgl/src/extra/widgets/tabview/../../../../src/core/lv_obj_style_gen.h **** {
 471:Middlewares/LVGL/GUI/lvgl/src/extra/widgets/tabview/../../../../src/core/lv_obj_style_gen.h ****     lv_style_value_t v = lv_obj_get_style_prop(obj, part, LV_STYLE_TEXT_DECOR);
 472:Middlewares/LVGL/GUI/lvgl/src/extra/widgets/tabview/../../../../src/core/lv_obj_style_gen.h ****     return (lv_text_decor_t)v.num;
 473:Middlewares/LVGL/GUI/lvgl/src/extra/widgets/tabview/../../../../src/core/lv_obj_style_gen.h **** }
 474:Middlewares/LVGL/GUI/lvgl/src/extra/widgets/tabview/../../../../src/core/lv_obj_style_gen.h **** 
 475:Middlewares/LVGL/GUI/lvgl/src/extra/widgets/tabview/../../../../src/core/lv_obj_style_gen.h **** static inline lv_text_align_t lv_obj_get_style_text_align(const struct _lv_obj_t * obj, uint32_t pa
 476:Middlewares/LVGL/GUI/lvgl/src/extra/widgets/tabview/../../../../src/core/lv_obj_style_gen.h **** {
 477:Middlewares/LVGL/GUI/lvgl/src/extra/widgets/tabview/../../../../src/core/lv_obj_style_gen.h ****     lv_style_value_t v = lv_obj_get_style_prop(obj, part, LV_STYLE_TEXT_ALIGN);
 478:Middlewares/LVGL/GUI/lvgl/src/extra/widgets/tabview/../../../../src/core/lv_obj_style_gen.h ****     return (lv_text_align_t)v.num;
 479:Middlewares/LVGL/GUI/lvgl/src/extra/widgets/tabview/../../../../src/core/lv_obj_style_gen.h **** }
 480:Middlewares/LVGL/GUI/lvgl/src/extra/widgets/tabview/../../../../src/core/lv_obj_style_gen.h **** 
 481:Middlewares/LVGL/GUI/lvgl/src/extra/widgets/tabview/../../../../src/core/lv_obj_style_gen.h **** static inline lv_coord_t lv_obj_get_style_radius(const struct _lv_obj_t * obj, uint32_t part)
 482:Middlewares/LVGL/GUI/lvgl/src/extra/widgets/tabview/../../../../src/core/lv_obj_style_gen.h **** {
 483:Middlewares/LVGL/GUI/lvgl/src/extra/widgets/tabview/../../../../src/core/lv_obj_style_gen.h ****     lv_style_value_t v = lv_obj_get_style_prop(obj, part, LV_STYLE_RADIUS);
ARM GAS  C:\Users\ADMINI~1\AppData\Local\Temp\ccbkt2w0.s 			page 28


 484:Middlewares/LVGL/GUI/lvgl/src/extra/widgets/tabview/../../../../src/core/lv_obj_style_gen.h ****     return (lv_coord_t)v.num;
 485:Middlewares/LVGL/GUI/lvgl/src/extra/widgets/tabview/../../../../src/core/lv_obj_style_gen.h **** }
 486:Middlewares/LVGL/GUI/lvgl/src/extra/widgets/tabview/../../../../src/core/lv_obj_style_gen.h **** 
 487:Middlewares/LVGL/GUI/lvgl/src/extra/widgets/tabview/../../../../src/core/lv_obj_style_gen.h **** static inline bool lv_obj_get_style_clip_corner(const struct _lv_obj_t * obj, uint32_t part)
 488:Middlewares/LVGL/GUI/lvgl/src/extra/widgets/tabview/../../../../src/core/lv_obj_style_gen.h **** {
 489:Middlewares/LVGL/GUI/lvgl/src/extra/widgets/tabview/../../../../src/core/lv_obj_style_gen.h ****     lv_style_value_t v = lv_obj_get_style_prop(obj, part, LV_STYLE_CLIP_CORNER);
 490:Middlewares/LVGL/GUI/lvgl/src/extra/widgets/tabview/../../../../src/core/lv_obj_style_gen.h ****     return (bool)v.num;
 491:Middlewares/LVGL/GUI/lvgl/src/extra/widgets/tabview/../../../../src/core/lv_obj_style_gen.h **** }
 492:Middlewares/LVGL/GUI/lvgl/src/extra/widgets/tabview/../../../../src/core/lv_obj_style_gen.h **** 
 493:Middlewares/LVGL/GUI/lvgl/src/extra/widgets/tabview/../../../../src/core/lv_obj_style_gen.h **** static inline lv_opa_t lv_obj_get_style_opa(const struct _lv_obj_t * obj, uint32_t part)
 494:Middlewares/LVGL/GUI/lvgl/src/extra/widgets/tabview/../../../../src/core/lv_obj_style_gen.h **** {
 495:Middlewares/LVGL/GUI/lvgl/src/extra/widgets/tabview/../../../../src/core/lv_obj_style_gen.h ****     lv_style_value_t v = lv_obj_get_style_prop(obj, part, LV_STYLE_OPA);
 496:Middlewares/LVGL/GUI/lvgl/src/extra/widgets/tabview/../../../../src/core/lv_obj_style_gen.h ****     return (lv_opa_t)v.num;
 497:Middlewares/LVGL/GUI/lvgl/src/extra/widgets/tabview/../../../../src/core/lv_obj_style_gen.h **** }
 498:Middlewares/LVGL/GUI/lvgl/src/extra/widgets/tabview/../../../../src/core/lv_obj_style_gen.h **** 
 499:Middlewares/LVGL/GUI/lvgl/src/extra/widgets/tabview/../../../../src/core/lv_obj_style_gen.h **** static inline const lv_color_filter_dsc_t * lv_obj_get_style_color_filter_dsc(const struct _lv_obj_
 500:Middlewares/LVGL/GUI/lvgl/src/extra/widgets/tabview/../../../../src/core/lv_obj_style_gen.h ****                                                                               uint32_t part)
 501:Middlewares/LVGL/GUI/lvgl/src/extra/widgets/tabview/../../../../src/core/lv_obj_style_gen.h **** {
 502:Middlewares/LVGL/GUI/lvgl/src/extra/widgets/tabview/../../../../src/core/lv_obj_style_gen.h ****     lv_style_value_t v = lv_obj_get_style_prop(obj, part, LV_STYLE_COLOR_FILTER_DSC);
 503:Middlewares/LVGL/GUI/lvgl/src/extra/widgets/tabview/../../../../src/core/lv_obj_style_gen.h ****     return (const lv_color_filter_dsc_t *)v.ptr;
 504:Middlewares/LVGL/GUI/lvgl/src/extra/widgets/tabview/../../../../src/core/lv_obj_style_gen.h **** }
 505:Middlewares/LVGL/GUI/lvgl/src/extra/widgets/tabview/../../../../src/core/lv_obj_style_gen.h **** 
 506:Middlewares/LVGL/GUI/lvgl/src/extra/widgets/tabview/../../../../src/core/lv_obj_style_gen.h **** static inline lv_opa_t lv_obj_get_style_color_filter_opa(const struct _lv_obj_t * obj, uint32_t par
 507:Middlewares/LVGL/GUI/lvgl/src/extra/widgets/tabview/../../../../src/core/lv_obj_style_gen.h **** {
 508:Middlewares/LVGL/GUI/lvgl/src/extra/widgets/tabview/../../../../src/core/lv_obj_style_gen.h ****     lv_style_value_t v = lv_obj_get_style_prop(obj, part, LV_STYLE_COLOR_FILTER_OPA);
 509:Middlewares/LVGL/GUI/lvgl/src/extra/widgets/tabview/../../../../src/core/lv_obj_style_gen.h ****     return (lv_opa_t)v.num;
 510:Middlewares/LVGL/GUI/lvgl/src/extra/widgets/tabview/../../../../src/core/lv_obj_style_gen.h **** }
 511:Middlewares/LVGL/GUI/lvgl/src/extra/widgets/tabview/../../../../src/core/lv_obj_style_gen.h **** 
 512:Middlewares/LVGL/GUI/lvgl/src/extra/widgets/tabview/../../../../src/core/lv_obj_style_gen.h **** static inline uint32_t lv_obj_get_style_anim_time(const struct _lv_obj_t * obj, uint32_t part)
 513:Middlewares/LVGL/GUI/lvgl/src/extra/widgets/tabview/../../../../src/core/lv_obj_style_gen.h **** {
 514:Middlewares/LVGL/GUI/lvgl/src/extra/widgets/tabview/../../../../src/core/lv_obj_style_gen.h ****     lv_style_value_t v = lv_obj_get_style_prop(obj, part, LV_STYLE_ANIM_TIME);
 515:Middlewares/LVGL/GUI/lvgl/src/extra/widgets/tabview/../../../../src/core/lv_obj_style_gen.h ****     return (uint32_t)v.num;
 516:Middlewares/LVGL/GUI/lvgl/src/extra/widgets/tabview/../../../../src/core/lv_obj_style_gen.h **** }
 517:Middlewares/LVGL/GUI/lvgl/src/extra/widgets/tabview/../../../../src/core/lv_obj_style_gen.h **** 
 518:Middlewares/LVGL/GUI/lvgl/src/extra/widgets/tabview/../../../../src/core/lv_obj_style_gen.h **** static inline uint32_t lv_obj_get_style_anim_speed(const struct _lv_obj_t * obj, uint32_t part)
 519:Middlewares/LVGL/GUI/lvgl/src/extra/widgets/tabview/../../../../src/core/lv_obj_style_gen.h **** {
 520:Middlewares/LVGL/GUI/lvgl/src/extra/widgets/tabview/../../../../src/core/lv_obj_style_gen.h ****     lv_style_value_t v = lv_obj_get_style_prop(obj, part, LV_STYLE_ANIM_SPEED);
 521:Middlewares/LVGL/GUI/lvgl/src/extra/widgets/tabview/../../../../src/core/lv_obj_style_gen.h ****     return (uint32_t)v.num;
 522:Middlewares/LVGL/GUI/lvgl/src/extra/widgets/tabview/../../../../src/core/lv_obj_style_gen.h **** }
 523:Middlewares/LVGL/GUI/lvgl/src/extra/widgets/tabview/../../../../src/core/lv_obj_style_gen.h **** 
 524:Middlewares/LVGL/GUI/lvgl/src/extra/widgets/tabview/../../../../src/core/lv_obj_style_gen.h **** static inline const lv_style_transition_dsc_t * lv_obj_get_style_transition(const struct _lv_obj_t 
 525:Middlewares/LVGL/GUI/lvgl/src/extra/widgets/tabview/../../../../src/core/lv_obj_style_gen.h **** {
 526:Middlewares/LVGL/GUI/lvgl/src/extra/widgets/tabview/../../../../src/core/lv_obj_style_gen.h ****     lv_style_value_t v = lv_obj_get_style_prop(obj, part, LV_STYLE_TRANSITION);
 527:Middlewares/LVGL/GUI/lvgl/src/extra/widgets/tabview/../../../../src/core/lv_obj_style_gen.h ****     return (const lv_style_transition_dsc_t *)v.ptr;
 528:Middlewares/LVGL/GUI/lvgl/src/extra/widgets/tabview/../../../../src/core/lv_obj_style_gen.h **** }
 529:Middlewares/LVGL/GUI/lvgl/src/extra/widgets/tabview/../../../../src/core/lv_obj_style_gen.h **** 
 530:Middlewares/LVGL/GUI/lvgl/src/extra/widgets/tabview/../../../../src/core/lv_obj_style_gen.h **** static inline lv_blend_mode_t lv_obj_get_style_blend_mode(const struct _lv_obj_t * obj, uint32_t pa
 531:Middlewares/LVGL/GUI/lvgl/src/extra/widgets/tabview/../../../../src/core/lv_obj_style_gen.h **** {
 532:Middlewares/LVGL/GUI/lvgl/src/extra/widgets/tabview/../../../../src/core/lv_obj_style_gen.h ****     lv_style_value_t v = lv_obj_get_style_prop(obj, part, LV_STYLE_BLEND_MODE);
 533:Middlewares/LVGL/GUI/lvgl/src/extra/widgets/tabview/../../../../src/core/lv_obj_style_gen.h ****     return (lv_blend_mode_t)v.num;
 534:Middlewares/LVGL/GUI/lvgl/src/extra/widgets/tabview/../../../../src/core/lv_obj_style_gen.h **** }
 535:Middlewares/LVGL/GUI/lvgl/src/extra/widgets/tabview/../../../../src/core/lv_obj_style_gen.h **** 
 536:Middlewares/LVGL/GUI/lvgl/src/extra/widgets/tabview/../../../../src/core/lv_obj_style_gen.h **** static inline uint16_t lv_obj_get_style_layout(const struct _lv_obj_t * obj, uint32_t part)
 537:Middlewares/LVGL/GUI/lvgl/src/extra/widgets/tabview/../../../../src/core/lv_obj_style_gen.h **** {
 538:Middlewares/LVGL/GUI/lvgl/src/extra/widgets/tabview/../../../../src/core/lv_obj_style_gen.h ****     lv_style_value_t v = lv_obj_get_style_prop(obj, part, LV_STYLE_LAYOUT);
 539:Middlewares/LVGL/GUI/lvgl/src/extra/widgets/tabview/../../../../src/core/lv_obj_style_gen.h ****     return (uint16_t)v.num;
 540:Middlewares/LVGL/GUI/lvgl/src/extra/widgets/tabview/../../../../src/core/lv_obj_style_gen.h **** }
ARM GAS  C:\Users\ADMINI~1\AppData\Local\Temp\ccbkt2w0.s 			page 29


 541:Middlewares/LVGL/GUI/lvgl/src/extra/widgets/tabview/../../../../src/core/lv_obj_style_gen.h **** 
 542:Middlewares/LVGL/GUI/lvgl/src/extra/widgets/tabview/../../../../src/core/lv_obj_style_gen.h **** static inline lv_base_dir_t lv_obj_get_style_base_dir(const struct _lv_obj_t * obj, uint32_t part)
 660              		.loc 2 542 29 view .LVU171
 661              	.LBB17:
 543:Middlewares/LVGL/GUI/lvgl/src/extra/widgets/tabview/../../../../src/core/lv_obj_style_gen.h **** {
 544:Middlewares/LVGL/GUI/lvgl/src/extra/widgets/tabview/../../../../src/core/lv_obj_style_gen.h ****     lv_style_value_t v = lv_obj_get_style_prop(obj, part, LV_STYLE_BASE_DIR);
 662              		.loc 2 544 5 view .LVU172
 663              		.loc 2 544 26 is_stmt 0 view .LVU173
 664 0036 41F26A42 		movw	r2, #5226
 665 003a 0021     		movs	r1, #0
 666 003c 2046     		mov	r0, r4
 667              	.LVL84:
 668              		.loc 2 544 26 view .LVU174
 669 003e FFF7FEFF 		bl	lv_obj_get_style_prop
 670              	.LVL85:
 545:Middlewares/LVGL/GUI/lvgl/src/extra/widgets/tabview/../../../../src/core/lv_obj_style_gen.h ****     return (lv_base_dir_t)v.num;
 671              		.loc 2 545 5 is_stmt 1 view .LVU175
 672              		.loc 2 545 12 is_stmt 0 view .LVU176
 673 0042 C3B2     		uxtb	r3, r0
 674              	.LVL86:
 675              		.loc 2 545 12 view .LVU177
 676              	.LBE17:
 677              	.LBE16:
 140:Middlewares/LVGL/GUI/lvgl/src/extra/widgets/tabview/lv_tabview.c ****         lv_obj_scroll_to_x(cont, id * (gap + w), anim_en);
 678              		.loc 1 140 7 view .LVU178
 679 0044 012B     		cmp	r3, #1
 680 0046 12D0     		beq	.L39
 141:Middlewares/LVGL/GUI/lvgl/src/extra/widgets/tabview/lv_tabview.c ****     }
 681              		.loc 1 141 9 is_stmt 1 view .LVU179
 141:Middlewares/LVGL/GUI/lvgl/src/extra/widgets/tabview/lv_tabview.c ****     }
 682              		.loc 1 141 44 is_stmt 0 view .LVU180
 683 0048 09EB0801 		add	r1, r9, r8
 141:Middlewares/LVGL/GUI/lvgl/src/extra/widgets/tabview/lv_tabview.c ****     }
 684              		.loc 1 141 9 view .LVU181
 685 004c 3246     		mov	r2, r6
 686 004e 05FB01F1 		mul	r1, r5, r1
 687 0052 3846     		mov	r0, r7
 688 0054 FFF7FEFF 		bl	lv_obj_scroll_to_x
 689              	.LVL87:
 690              	.L40:
 148:Middlewares/LVGL/GUI/lvgl/src/extra/widgets/tabview/lv_tabview.c ****     lv_btnmatrix_set_btn_ctrl(btns, id, LV_BTNMATRIX_CTRL_CHECKED);
 691              		.loc 1 148 5 is_stmt 1 view .LVU182
 148:Middlewares/LVGL/GUI/lvgl/src/extra/widgets/tabview/lv_tabview.c ****     lv_btnmatrix_set_btn_ctrl(btns, id, LV_BTNMATRIX_CTRL_CHECKED);
 692              		.loc 1 148 23 is_stmt 0 view .LVU183
 693 0058 2046     		mov	r0, r4
 694 005a FFF7FEFF 		bl	lv_tabview_get_tab_btns
 695              	.LVL88:
 149:Middlewares/LVGL/GUI/lvgl/src/extra/widgets/tabview/lv_tabview.c ****     tabview->tab_cur = id;
 696              		.loc 1 149 5 is_stmt 1 view .LVU184
 697 005e ADB2     		uxth	r5, r5
 698              	.LVL89:
 149:Middlewares/LVGL/GUI/lvgl/src/extra/widgets/tabview/lv_tabview.c ****     tabview->tab_cur = id;
 699              		.loc 1 149 5 is_stmt 0 view .LVU185
 700 0060 8022     		movs	r2, #128
 701 0062 2946     		mov	r1, r5
 702 0064 FFF7FEFF 		bl	lv_btnmatrix_set_btn_ctrl
 703              	.LVL90:
ARM GAS  C:\Users\ADMINI~1\AppData\Local\Temp\ccbkt2w0.s 			page 30


 150:Middlewares/LVGL/GUI/lvgl/src/extra/widgets/tabview/lv_tabview.c **** }
 704              		.loc 1 150 5 is_stmt 1 view .LVU186
 150:Middlewares/LVGL/GUI/lvgl/src/extra/widgets/tabview/lv_tabview.c **** }
 705              		.loc 1 150 22 is_stmt 0 view .LVU187
 706 0068 6586     		strh	r5, [r4, #50]	@ movhi
 707              	.LVL91:
 708              	.L36:
 151:Middlewares/LVGL/GUI/lvgl/src/extra/widgets/tabview/lv_tabview.c **** 
 709              		.loc 1 151 1 view .LVU188
 710 006a BDE8F883 		pop	{r3, r4, r5, r6, r7, r8, r9, pc}
 711              	.LVL92:
 712              	.L39:
 713              	.LBB18:
 144:Middlewares/LVGL/GUI/lvgl/src/extra/widgets/tabview/lv_tabview.c ****         lv_obj_scroll_to_x(cont, (gap + w) * id_rtl, anim_en);
 714              		.loc 1 144 9 is_stmt 1 view .LVU189
 144:Middlewares/LVGL/GUI/lvgl/src/extra/widgets/tabview/lv_tabview.c ****         lv_obj_scroll_to_x(cont, (gap + w) * id_rtl, anim_en);
 715              		.loc 1 144 17 is_stmt 0 view .LVU190
 716 006e 6942     		rsbs	r1, r5, #0
 145:Middlewares/LVGL/GUI/lvgl/src/extra/widgets/tabview/lv_tabview.c ****     }
 717              		.loc 1 145 9 is_stmt 1 view .LVU191
 145:Middlewares/LVGL/GUI/lvgl/src/extra/widgets/tabview/lv_tabview.c ****     }
 718              		.loc 1 145 39 is_stmt 0 view .LVU192
 719 0070 C844     		add	r8, r8, r9
 720              	.LVL93:
 145:Middlewares/LVGL/GUI/lvgl/src/extra/widgets/tabview/lv_tabview.c ****     }
 721              		.loc 1 145 9 view .LVU193
 722 0072 3246     		mov	r2, r6
 723 0074 01FB08F1 		mul	r1, r1, r8
 724 0078 3846     		mov	r0, r7
 725 007a FFF7FEFF 		bl	lv_obj_scroll_to_x
 726              	.LVL94:
 727 007e EBE7     		b	.L40
 728              	.LBE18:
 729              		.cfi_endproc
 730              	.LFE198:
 732              		.section	.text.lv_tabview_event,"ax",%progbits
 733              		.align	1
 734              		.syntax unified
 735              		.thumb
 736              		.thumb_func
 738              	lv_tabview_event:
 739              	.LVL95:
 740              	.LFB204:
 261:Middlewares/LVGL/GUI/lvgl/src/extra/widgets/tabview/lv_tabview.c **** 
 262:Middlewares/LVGL/GUI/lvgl/src/extra/widgets/tabview/lv_tabview.c **** static void lv_tabview_event(const lv_obj_class_t * class_p, lv_event_t * e)
 263:Middlewares/LVGL/GUI/lvgl/src/extra/widgets/tabview/lv_tabview.c **** {
 741              		.loc 1 263 1 is_stmt 1 view -0
 742              		.cfi_startproc
 743              		@ args = 0, pretend = 0, frame = 0
 744              		@ frame_needed = 0, uses_anonymous_args = 0
 745              		.loc 1 263 1 is_stmt 0 view .LVU195
 746 0000 38B5     		push	{r3, r4, r5, lr}
 747              	.LCFI6:
 748              		.cfi_def_cfa_offset 16
 749              		.cfi_offset 3, -16
 750              		.cfi_offset 4, -12
 751              		.cfi_offset 5, -8
ARM GAS  C:\Users\ADMINI~1\AppData\Local\Temp\ccbkt2w0.s 			page 31


 752              		.cfi_offset 14, -4
 753 0002 0C46     		mov	r4, r1
 264:Middlewares/LVGL/GUI/lvgl/src/extra/widgets/tabview/lv_tabview.c ****     LV_UNUSED(class_p);
 754              		.loc 1 264 5 is_stmt 1 view .LVU196
 265:Middlewares/LVGL/GUI/lvgl/src/extra/widgets/tabview/lv_tabview.c ****     lv_res_t res = lv_obj_event_base(&lv_tabview_class, e);
 755              		.loc 1 265 5 view .LVU197
 756              		.loc 1 265 20 is_stmt 0 view .LVU198
 757 0004 0B48     		ldr	r0, .L46
 758              	.LVL96:
 759              		.loc 1 265 20 view .LVU199
 760 0006 FFF7FEFF 		bl	lv_obj_event_base
 761              	.LVL97:
 266:Middlewares/LVGL/GUI/lvgl/src/extra/widgets/tabview/lv_tabview.c ****     if(res != LV_RES_OK) return;
 762              		.loc 1 266 5 is_stmt 1 view .LVU200
 763              		.loc 1 266 7 is_stmt 0 view .LVU201
 764 000a 0128     		cmp	r0, #1
 765 000c 00D0     		beq	.L45
 766              	.LVL98:
 767              	.L42:
 267:Middlewares/LVGL/GUI/lvgl/src/extra/widgets/tabview/lv_tabview.c **** 
 268:Middlewares/LVGL/GUI/lvgl/src/extra/widgets/tabview/lv_tabview.c ****     lv_event_code_t code = lv_event_get_code(e);
 269:Middlewares/LVGL/GUI/lvgl/src/extra/widgets/tabview/lv_tabview.c ****     lv_obj_t * target = lv_event_get_target(e);
 270:Middlewares/LVGL/GUI/lvgl/src/extra/widgets/tabview/lv_tabview.c **** 
 271:Middlewares/LVGL/GUI/lvgl/src/extra/widgets/tabview/lv_tabview.c ****     if(code == LV_EVENT_SIZE_CHANGED) {
 272:Middlewares/LVGL/GUI/lvgl/src/extra/widgets/tabview/lv_tabview.c ****         lv_tabview_set_act(target, lv_tabview_get_tab_act(target), LV_ANIM_OFF);
 273:Middlewares/LVGL/GUI/lvgl/src/extra/widgets/tabview/lv_tabview.c ****     }
 274:Middlewares/LVGL/GUI/lvgl/src/extra/widgets/tabview/lv_tabview.c **** }
 768              		.loc 1 274 1 view .LVU202
 769 000e 38BD     		pop	{r3, r4, r5, pc}
 770              	.LVL99:
 771              	.L45:
 268:Middlewares/LVGL/GUI/lvgl/src/extra/widgets/tabview/lv_tabview.c ****     lv_obj_t * target = lv_event_get_target(e);
 772              		.loc 1 268 5 is_stmt 1 view .LVU203
 268:Middlewares/LVGL/GUI/lvgl/src/extra/widgets/tabview/lv_tabview.c ****     lv_obj_t * target = lv_event_get_target(e);
 773              		.loc 1 268 28 is_stmt 0 view .LVU204
 774 0010 2046     		mov	r0, r4
 775              	.LVL100:
 268:Middlewares/LVGL/GUI/lvgl/src/extra/widgets/tabview/lv_tabview.c ****     lv_obj_t * target = lv_event_get_target(e);
 776              		.loc 1 268 28 view .LVU205
 777 0012 FFF7FEFF 		bl	lv_event_get_code
 778              	.LVL101:
 779 0016 0546     		mov	r5, r0
 780              	.LVL102:
 269:Middlewares/LVGL/GUI/lvgl/src/extra/widgets/tabview/lv_tabview.c **** 
 781              		.loc 1 269 5 is_stmt 1 view .LVU206
 269:Middlewares/LVGL/GUI/lvgl/src/extra/widgets/tabview/lv_tabview.c **** 
 782              		.loc 1 269 25 is_stmt 0 view .LVU207
 783 0018 2046     		mov	r0, r4
 784 001a FFF7FEFF 		bl	lv_event_get_target
 785              	.LVL103:
 786 001e 0446     		mov	r4, r0
 787              	.LVL104:
 271:Middlewares/LVGL/GUI/lvgl/src/extra/widgets/tabview/lv_tabview.c ****         lv_tabview_set_act(target, lv_tabview_get_tab_act(target), LV_ANIM_OFF);
 788              		.loc 1 271 5 is_stmt 1 view .LVU208
 271:Middlewares/LVGL/GUI/lvgl/src/extra/widgets/tabview/lv_tabview.c ****         lv_tabview_set_act(target, lv_tabview_get_tab_act(target), LV_ANIM_OFF);
 789              		.loc 1 271 7 is_stmt 0 view .LVU209
 790 0020 292D     		cmp	r5, #41
ARM GAS  C:\Users\ADMINI~1\AppData\Local\Temp\ccbkt2w0.s 			page 32


 791 0022 F4D1     		bne	.L42
 272:Middlewares/LVGL/GUI/lvgl/src/extra/widgets/tabview/lv_tabview.c ****     }
 792              		.loc 1 272 9 is_stmt 1 view .LVU210
 272:Middlewares/LVGL/GUI/lvgl/src/extra/widgets/tabview/lv_tabview.c ****     }
 793              		.loc 1 272 36 is_stmt 0 view .LVU211
 794 0024 FFF7FEFF 		bl	lv_tabview_get_tab_act
 795              	.LVL105:
 272:Middlewares/LVGL/GUI/lvgl/src/extra/widgets/tabview/lv_tabview.c ****     }
 796              		.loc 1 272 36 view .LVU212
 797 0028 0146     		mov	r1, r0
 272:Middlewares/LVGL/GUI/lvgl/src/extra/widgets/tabview/lv_tabview.c ****     }
 798              		.loc 1 272 9 view .LVU213
 799 002a 0022     		movs	r2, #0
 800 002c 2046     		mov	r0, r4
 801 002e FFF7FEFF 		bl	lv_tabview_set_act
 802              	.LVL106:
 803 0032 ECE7     		b	.L42
 804              	.L47:
 805              		.align	2
 806              	.L46:
 807 0034 00000000 		.word	.LANCHOR2
 808              		.cfi_endproc
 809              	.LFE204:
 811              		.section	.text.cont_scroll_end_event_cb,"ax",%progbits
 812              		.align	1
 813              		.syntax unified
 814              		.thumb
 815              		.thumb_func
 817              	cont_scroll_end_event_cb:
 818              	.LVL107:
 819              	.LFB206:
 275:Middlewares/LVGL/GUI/lvgl/src/extra/widgets/tabview/lv_tabview.c **** 
 276:Middlewares/LVGL/GUI/lvgl/src/extra/widgets/tabview/lv_tabview.c **** 
 277:Middlewares/LVGL/GUI/lvgl/src/extra/widgets/tabview/lv_tabview.c **** static void btns_value_changed_event_cb(lv_event_t * e)
 278:Middlewares/LVGL/GUI/lvgl/src/extra/widgets/tabview/lv_tabview.c **** {
 279:Middlewares/LVGL/GUI/lvgl/src/extra/widgets/tabview/lv_tabview.c ****     lv_obj_t * btns = lv_event_get_target(e);
 280:Middlewares/LVGL/GUI/lvgl/src/extra/widgets/tabview/lv_tabview.c **** 
 281:Middlewares/LVGL/GUI/lvgl/src/extra/widgets/tabview/lv_tabview.c ****     lv_obj_t * tv = lv_obj_get_parent(btns);
 282:Middlewares/LVGL/GUI/lvgl/src/extra/widgets/tabview/lv_tabview.c ****     uint32_t id = lv_btnmatrix_get_selected_btn(btns);
 283:Middlewares/LVGL/GUI/lvgl/src/extra/widgets/tabview/lv_tabview.c ****     lv_tabview_set_act(tv, id, LV_ANIM_ON);
 284:Middlewares/LVGL/GUI/lvgl/src/extra/widgets/tabview/lv_tabview.c **** }
 285:Middlewares/LVGL/GUI/lvgl/src/extra/widgets/tabview/lv_tabview.c **** 
 286:Middlewares/LVGL/GUI/lvgl/src/extra/widgets/tabview/lv_tabview.c **** static void cont_scroll_end_event_cb(lv_event_t * e)
 287:Middlewares/LVGL/GUI/lvgl/src/extra/widgets/tabview/lv_tabview.c **** {
 820              		.loc 1 287 1 is_stmt 1 view -0
 821              		.cfi_startproc
 822              		@ args = 0, pretend = 0, frame = 8
 823              		@ frame_needed = 0, uses_anonymous_args = 0
 824              		.loc 1 287 1 is_stmt 0 view .LVU215
 825 0000 70B5     		push	{r4, r5, r6, lr}
 826              	.LCFI7:
 827              		.cfi_def_cfa_offset 16
 828              		.cfi_offset 4, -16
 829              		.cfi_offset 5, -12
 830              		.cfi_offset 6, -8
 831              		.cfi_offset 14, -4
 832 0002 82B0     		sub	sp, sp, #8
ARM GAS  C:\Users\ADMINI~1\AppData\Local\Temp\ccbkt2w0.s 			page 33


 833              	.LCFI8:
 834              		.cfi_def_cfa_offset 24
 835 0004 0446     		mov	r4, r0
 288:Middlewares/LVGL/GUI/lvgl/src/extra/widgets/tabview/lv_tabview.c ****     lv_obj_t * cont = lv_event_get_target(e);
 836              		.loc 1 288 5 is_stmt 1 view .LVU216
 837              		.loc 1 288 23 is_stmt 0 view .LVU217
 838 0006 FFF7FEFF 		bl	lv_event_get_target
 839              	.LVL108:
 840              		.loc 1 288 23 view .LVU218
 841 000a 0546     		mov	r5, r0
 842              	.LVL109:
 289:Middlewares/LVGL/GUI/lvgl/src/extra/widgets/tabview/lv_tabview.c ****     lv_event_code_t code = lv_event_get_code(e);
 843              		.loc 1 289 5 is_stmt 1 view .LVU219
 844              		.loc 1 289 28 is_stmt 0 view .LVU220
 845 000c 2046     		mov	r0, r4
 846              	.LVL110:
 847              		.loc 1 289 28 view .LVU221
 848 000e FFF7FEFF 		bl	lv_event_get_code
 849              	.LVL111:
 850 0012 0446     		mov	r4, r0
 851              	.LVL112:
 290:Middlewares/LVGL/GUI/lvgl/src/extra/widgets/tabview/lv_tabview.c **** 
 291:Middlewares/LVGL/GUI/lvgl/src/extra/widgets/tabview/lv_tabview.c ****     lv_obj_t * tv = lv_obj_get_parent(cont);
 852              		.loc 1 291 5 is_stmt 1 view .LVU222
 853              		.loc 1 291 21 is_stmt 0 view .LVU223
 854 0014 2846     		mov	r0, r5
 855 0016 FFF7FEFF 		bl	lv_obj_get_parent
 856              	.LVL113:
 857 001a 0646     		mov	r6, r0
 858              	.LVL114:
 292:Middlewares/LVGL/GUI/lvgl/src/extra/widgets/tabview/lv_tabview.c ****     if(code == LV_EVENT_LAYOUT_CHANGED) {
 859              		.loc 1 292 5 is_stmt 1 view .LVU224
 860              		.loc 1 292 7 is_stmt 0 view .LVU225
 861 001c 2B2C     		cmp	r4, #43
 862 001e 03D0     		beq	.L59
 293:Middlewares/LVGL/GUI/lvgl/src/extra/widgets/tabview/lv_tabview.c ****         lv_tabview_set_act(tv, lv_tabview_get_tab_act(tv), LV_ANIM_OFF);
 294:Middlewares/LVGL/GUI/lvgl/src/extra/widgets/tabview/lv_tabview.c ****     }
 295:Middlewares/LVGL/GUI/lvgl/src/extra/widgets/tabview/lv_tabview.c ****     else if(code == LV_EVENT_SCROLL_END) {
 863              		.loc 1 295 10 is_stmt 1 view .LVU226
 864              		.loc 1 295 12 is_stmt 0 view .LVU227
 865 0020 0A2C     		cmp	r4, #10
 866 0022 09D0     		beq	.L60
 867              	.LVL115:
 868              	.L48:
 296:Middlewares/LVGL/GUI/lvgl/src/extra/widgets/tabview/lv_tabview.c ****         lv_point_t p;
 297:Middlewares/LVGL/GUI/lvgl/src/extra/widgets/tabview/lv_tabview.c ****         lv_obj_get_scroll_end(cont, &p);
 298:Middlewares/LVGL/GUI/lvgl/src/extra/widgets/tabview/lv_tabview.c **** 
 299:Middlewares/LVGL/GUI/lvgl/src/extra/widgets/tabview/lv_tabview.c ****         lv_coord_t w = lv_obj_get_content_width(cont);
 300:Middlewares/LVGL/GUI/lvgl/src/extra/widgets/tabview/lv_tabview.c ****         lv_coord_t t;
 301:Middlewares/LVGL/GUI/lvgl/src/extra/widgets/tabview/lv_tabview.c **** 
 302:Middlewares/LVGL/GUI/lvgl/src/extra/widgets/tabview/lv_tabview.c ****         if(lv_obj_get_style_base_dir(tv, LV_PART_MAIN) == LV_BASE_DIR_RTL)  t = -(p.x - w / 2) / w;
 303:Middlewares/LVGL/GUI/lvgl/src/extra/widgets/tabview/lv_tabview.c ****         else t = (p.x + w / 2) / w;
 304:Middlewares/LVGL/GUI/lvgl/src/extra/widgets/tabview/lv_tabview.c **** 
 305:Middlewares/LVGL/GUI/lvgl/src/extra/widgets/tabview/lv_tabview.c ****         if(t < 0) t = 0;
 306:Middlewares/LVGL/GUI/lvgl/src/extra/widgets/tabview/lv_tabview.c ****         bool new_tab = false;
 307:Middlewares/LVGL/GUI/lvgl/src/extra/widgets/tabview/lv_tabview.c ****         if(t != lv_tabview_get_tab_act(tv)) new_tab = true;
 308:Middlewares/LVGL/GUI/lvgl/src/extra/widgets/tabview/lv_tabview.c ****         lv_tabview_set_act(tv, t, LV_ANIM_ON);
ARM GAS  C:\Users\ADMINI~1\AppData\Local\Temp\ccbkt2w0.s 			page 34


 309:Middlewares/LVGL/GUI/lvgl/src/extra/widgets/tabview/lv_tabview.c **** 
 310:Middlewares/LVGL/GUI/lvgl/src/extra/widgets/tabview/lv_tabview.c ****         if(new_tab) lv_event_send(tv, LV_EVENT_VALUE_CHANGED, NULL);
 311:Middlewares/LVGL/GUI/lvgl/src/extra/widgets/tabview/lv_tabview.c ****     }
 312:Middlewares/LVGL/GUI/lvgl/src/extra/widgets/tabview/lv_tabview.c **** }
 869              		.loc 1 312 1 view .LVU228
 870 0024 02B0     		add	sp, sp, #8
 871              	.LCFI9:
 872              		.cfi_remember_state
 873              		.cfi_def_cfa_offset 16
 874              		@ sp needed
 875 0026 70BD     		pop	{r4, r5, r6, pc}
 876              	.LVL116:
 877              	.L59:
 878              	.LCFI10:
 879              		.cfi_restore_state
 293:Middlewares/LVGL/GUI/lvgl/src/extra/widgets/tabview/lv_tabview.c ****         lv_tabview_set_act(tv, lv_tabview_get_tab_act(tv), LV_ANIM_OFF);
 880              		.loc 1 293 9 is_stmt 1 view .LVU229
 293:Middlewares/LVGL/GUI/lvgl/src/extra/widgets/tabview/lv_tabview.c ****         lv_tabview_set_act(tv, lv_tabview_get_tab_act(tv), LV_ANIM_OFF);
 881              		.loc 1 293 32 is_stmt 0 view .LVU230
 882 0028 FFF7FEFF 		bl	lv_tabview_get_tab_act
 883              	.LVL117:
 293:Middlewares/LVGL/GUI/lvgl/src/extra/widgets/tabview/lv_tabview.c ****         lv_tabview_set_act(tv, lv_tabview_get_tab_act(tv), LV_ANIM_OFF);
 884              		.loc 1 293 32 view .LVU231
 885 002c 0146     		mov	r1, r0
 293:Middlewares/LVGL/GUI/lvgl/src/extra/widgets/tabview/lv_tabview.c ****         lv_tabview_set_act(tv, lv_tabview_get_tab_act(tv), LV_ANIM_OFF);
 886              		.loc 1 293 9 view .LVU232
 887 002e 0022     		movs	r2, #0
 888 0030 3046     		mov	r0, r6
 889 0032 FFF7FEFF 		bl	lv_tabview_set_act
 890              	.LVL118:
 891 0036 F5E7     		b	.L48
 892              	.LVL119:
 893              	.L60:
 894              	.LBB19:
 296:Middlewares/LVGL/GUI/lvgl/src/extra/widgets/tabview/lv_tabview.c ****         lv_point_t p;
 895              		.loc 1 296 9 is_stmt 1 view .LVU233
 297:Middlewares/LVGL/GUI/lvgl/src/extra/widgets/tabview/lv_tabview.c **** 
 896              		.loc 1 297 9 view .LVU234
 897 0038 6946     		mov	r1, sp
 898 003a 2846     		mov	r0, r5
 899              	.LVL120:
 297:Middlewares/LVGL/GUI/lvgl/src/extra/widgets/tabview/lv_tabview.c **** 
 900              		.loc 1 297 9 is_stmt 0 view .LVU235
 901 003c FFF7FEFF 		bl	lv_obj_get_scroll_end
 902              	.LVL121:
 299:Middlewares/LVGL/GUI/lvgl/src/extra/widgets/tabview/lv_tabview.c ****         lv_coord_t t;
 903              		.loc 1 299 9 is_stmt 1 view .LVU236
 299:Middlewares/LVGL/GUI/lvgl/src/extra/widgets/tabview/lv_tabview.c ****         lv_coord_t t;
 904              		.loc 1 299 24 is_stmt 0 view .LVU237
 905 0040 2846     		mov	r0, r5
 906 0042 FFF7FEFF 		bl	lv_obj_get_content_width
 907              	.LVL122:
 908 0046 0446     		mov	r4, r0
 909              	.LVL123:
 300:Middlewares/LVGL/GUI/lvgl/src/extra/widgets/tabview/lv_tabview.c **** 
 910              		.loc 1 300 9 is_stmt 1 view .LVU238
 302:Middlewares/LVGL/GUI/lvgl/src/extra/widgets/tabview/lv_tabview.c ****         else t = (p.x + w / 2) / w;
ARM GAS  C:\Users\ADMINI~1\AppData\Local\Temp\ccbkt2w0.s 			page 35


 911              		.loc 1 302 9 view .LVU239
 912              	.LBB20:
 913              	.LBI20:
 542:Middlewares/LVGL/GUI/lvgl/src/extra/widgets/tabview/../../../../src/core/lv_obj_style_gen.h **** {
 914              		.loc 2 542 29 view .LVU240
 915              	.LBB21:
 544:Middlewares/LVGL/GUI/lvgl/src/extra/widgets/tabview/../../../../src/core/lv_obj_style_gen.h ****     return (lv_base_dir_t)v.num;
 916              		.loc 2 544 5 view .LVU241
 544:Middlewares/LVGL/GUI/lvgl/src/extra/widgets/tabview/../../../../src/core/lv_obj_style_gen.h ****     return (lv_base_dir_t)v.num;
 917              		.loc 2 544 26 is_stmt 0 view .LVU242
 918 0048 41F26A42 		movw	r2, #5226
 919 004c 0021     		movs	r1, #0
 920 004e 3046     		mov	r0, r6
 921              	.LVL124:
 544:Middlewares/LVGL/GUI/lvgl/src/extra/widgets/tabview/../../../../src/core/lv_obj_style_gen.h ****     return (lv_base_dir_t)v.num;
 922              		.loc 2 544 26 view .LVU243
 923 0050 FFF7FEFF 		bl	lv_obj_get_style_prop
 924              	.LVL125:
 925              		.loc 2 545 5 is_stmt 1 view .LVU244
 926              		.loc 2 545 12 is_stmt 0 view .LVU245
 927 0054 C0B2     		uxtb	r0, r0
 928              	.LVL126:
 929              		.loc 2 545 12 view .LVU246
 930              	.LBE21:
 931              	.LBE20:
 302:Middlewares/LVGL/GUI/lvgl/src/extra/widgets/tabview/lv_tabview.c ****         else t = (p.x + w / 2) / w;
 932              		.loc 1 302 11 view .LVU247
 933 0056 0128     		cmp	r0, #1
 934 0058 1BD0     		beq	.L61
 303:Middlewares/LVGL/GUI/lvgl/src/extra/widgets/tabview/lv_tabview.c **** 
 935              		.loc 1 303 14 is_stmt 1 view .LVU248
 303:Middlewares/LVGL/GUI/lvgl/src/extra/widgets/tabview/lv_tabview.c **** 
 936              		.loc 1 303 27 is_stmt 0 view .LVU249
 937 005a 04EBD472 		add	r2, r4, r4, lsr #31
 303:Middlewares/LVGL/GUI/lvgl/src/extra/widgets/tabview/lv_tabview.c **** 
 938              		.loc 1 303 23 view .LVU250
 939 005e 009B     		ldr	r3, [sp]
 940 0060 03EB6203 		add	r3, r3, r2, asr #1
 303:Middlewares/LVGL/GUI/lvgl/src/extra/widgets/tabview/lv_tabview.c **** 
 941              		.loc 1 303 16 view .LVU251
 942 0064 93FBF4F4 		sdiv	r4, r3, r4
 943              	.LVL127:
 944              	.L52:
 305:Middlewares/LVGL/GUI/lvgl/src/extra/widgets/tabview/lv_tabview.c ****         bool new_tab = false;
 945              		.loc 1 305 9 is_stmt 1 view .LVU252
 305:Middlewares/LVGL/GUI/lvgl/src/extra/widgets/tabview/lv_tabview.c ****         bool new_tab = false;
 946              		.loc 1 305 11 is_stmt 0 view .LVU253
 947 0068 002C     		cmp	r4, #0
 948 006a 1ADB     		blt	.L62
 949              	.LVL128:
 950              	.L53:
 306:Middlewares/LVGL/GUI/lvgl/src/extra/widgets/tabview/lv_tabview.c ****         if(t != lv_tabview_get_tab_act(tv)) new_tab = true;
 951              		.loc 1 306 9 is_stmt 1 view .LVU254
 307:Middlewares/LVGL/GUI/lvgl/src/extra/widgets/tabview/lv_tabview.c ****         lv_tabview_set_act(tv, t, LV_ANIM_ON);
 952              		.loc 1 307 9 view .LVU255
 307:Middlewares/LVGL/GUI/lvgl/src/extra/widgets/tabview/lv_tabview.c ****         lv_tabview_set_act(tv, t, LV_ANIM_ON);
 953              		.loc 1 307 17 is_stmt 0 view .LVU256
ARM GAS  C:\Users\ADMINI~1\AppData\Local\Temp\ccbkt2w0.s 			page 36


 954 006c 3046     		mov	r0, r6
 955 006e FFF7FEFF 		bl	lv_tabview_get_tab_act
 956              	.LVL129:
 307:Middlewares/LVGL/GUI/lvgl/src/extra/widgets/tabview/lv_tabview.c ****         lv_tabview_set_act(tv, t, LV_ANIM_ON);
 957              		.loc 1 307 11 view .LVU257
 958 0072 A042     		cmp	r0, r4
 959 0074 17D0     		beq	.L63
 307:Middlewares/LVGL/GUI/lvgl/src/extra/widgets/tabview/lv_tabview.c ****         lv_tabview_set_act(tv, t, LV_ANIM_ON);
 960              		.loc 1 307 53 view .LVU258
 961 0076 0125     		movs	r5, #1
 962              	.LVL130:
 963              	.L54:
 308:Middlewares/LVGL/GUI/lvgl/src/extra/widgets/tabview/lv_tabview.c **** 
 964              		.loc 1 308 9 is_stmt 1 view .LVU259
 965 0078 0122     		movs	r2, #1
 966 007a 2146     		mov	r1, r4
 967 007c 3046     		mov	r0, r6
 968 007e FFF7FEFF 		bl	lv_tabview_set_act
 969              	.LVL131:
 310:Middlewares/LVGL/GUI/lvgl/src/extra/widgets/tabview/lv_tabview.c ****     }
 970              		.loc 1 310 9 view .LVU260
 310:Middlewares/LVGL/GUI/lvgl/src/extra/widgets/tabview/lv_tabview.c ****     }
 971              		.loc 1 310 11 is_stmt 0 view .LVU261
 972 0082 002D     		cmp	r5, #0
 973 0084 CED0     		beq	.L48
 310:Middlewares/LVGL/GUI/lvgl/src/extra/widgets/tabview/lv_tabview.c ****     }
 974              		.loc 1 310 21 is_stmt 1 discriminator 1 view .LVU262
 975 0086 0022     		movs	r2, #0
 976 0088 1C21     		movs	r1, #28
 977 008a 3046     		mov	r0, r6
 978 008c FFF7FEFF 		bl	lv_event_send
 979              	.LVL132:
 980              	.LBE19:
 981              		.loc 1 312 1 is_stmt 0 discriminator 1 view .LVU263
 982 0090 C8E7     		b	.L48
 983              	.LVL133:
 984              	.L61:
 985              	.LBB22:
 302:Middlewares/LVGL/GUI/lvgl/src/extra/widgets/tabview/lv_tabview.c ****         else t = (p.x + w / 2) / w;
 986              		.loc 1 302 77 is_stmt 1 discriminator 1 view .LVU264
 302:Middlewares/LVGL/GUI/lvgl/src/extra/widgets/tabview/lv_tabview.c ****         else t = (p.x + w / 2) / w;
 987              		.loc 1 302 91 is_stmt 0 discriminator 1 view .LVU265
 988 0092 04EBD472 		add	r2, r4, r4, lsr #31
 302:Middlewares/LVGL/GUI/lvgl/src/extra/widgets/tabview/lv_tabview.c ****         else t = (p.x + w / 2) / w;
 989              		.loc 1 302 84 discriminator 1 view .LVU266
 990 0096 009B     		ldr	r3, [sp]
 302:Middlewares/LVGL/GUI/lvgl/src/extra/widgets/tabview/lv_tabview.c ****         else t = (p.x + w / 2) / w;
 991              		.loc 1 302 81 discriminator 1 view .LVU267
 992 0098 C3EB6203 		rsb	r3, r3, r2, asr #1
 302:Middlewares/LVGL/GUI/lvgl/src/extra/widgets/tabview/lv_tabview.c ****         else t = (p.x + w / 2) / w;
 993              		.loc 1 302 79 discriminator 1 view .LVU268
 994 009c 93FBF4F4 		sdiv	r4, r3, r4
 995              	.LVL134:
 302:Middlewares/LVGL/GUI/lvgl/src/extra/widgets/tabview/lv_tabview.c ****         else t = (p.x + w / 2) / w;
 996              		.loc 1 302 79 discriminator 1 view .LVU269
 997 00a0 E2E7     		b	.L52
 998              	.L62:
ARM GAS  C:\Users\ADMINI~1\AppData\Local\Temp\ccbkt2w0.s 			page 37


 305:Middlewares/LVGL/GUI/lvgl/src/extra/widgets/tabview/lv_tabview.c ****         bool new_tab = false;
 999              		.loc 1 305 21 view .LVU270
 1000 00a2 0024     		movs	r4, #0
 1001              	.LVL135:
 305:Middlewares/LVGL/GUI/lvgl/src/extra/widgets/tabview/lv_tabview.c ****         bool new_tab = false;
 1002              		.loc 1 305 21 view .LVU271
 1003 00a4 E2E7     		b	.L53
 1004              	.LVL136:
 1005              	.L63:
 306:Middlewares/LVGL/GUI/lvgl/src/extra/widgets/tabview/lv_tabview.c ****         if(t != lv_tabview_get_tab_act(tv)) new_tab = true;
 1006              		.loc 1 306 14 view .LVU272
 1007 00a6 0025     		movs	r5, #0
 1008              	.LVL137:
 306:Middlewares/LVGL/GUI/lvgl/src/extra/widgets/tabview/lv_tabview.c ****         if(t != lv_tabview_get_tab_act(tv)) new_tab = true;
 1009              		.loc 1 306 14 view .LVU273
 1010 00a8 E6E7     		b	.L54
 1011              	.LBE22:
 1012              		.cfi_endproc
 1013              	.LFE206:
 1015              		.section	.text.btns_value_changed_event_cb,"ax",%progbits
 1016              		.align	1
 1017              		.syntax unified
 1018              		.thumb
 1019              		.thumb_func
 1021              	btns_value_changed_event_cb:
 1022              	.LVL138:
 1023              	.LFB205:
 278:Middlewares/LVGL/GUI/lvgl/src/extra/widgets/tabview/lv_tabview.c ****     lv_obj_t * btns = lv_event_get_target(e);
 1024              		.loc 1 278 1 is_stmt 1 view -0
 1025              		.cfi_startproc
 1026              		@ args = 0, pretend = 0, frame = 0
 1027              		@ frame_needed = 0, uses_anonymous_args = 0
 278:Middlewares/LVGL/GUI/lvgl/src/extra/widgets/tabview/lv_tabview.c ****     lv_obj_t * btns = lv_event_get_target(e);
 1028              		.loc 1 278 1 is_stmt 0 view .LVU275
 1029 0000 38B5     		push	{r3, r4, r5, lr}
 1030              	.LCFI11:
 1031              		.cfi_def_cfa_offset 16
 1032              		.cfi_offset 3, -16
 1033              		.cfi_offset 4, -12
 1034              		.cfi_offset 5, -8
 1035              		.cfi_offset 14, -4
 279:Middlewares/LVGL/GUI/lvgl/src/extra/widgets/tabview/lv_tabview.c **** 
 1036              		.loc 1 279 5 is_stmt 1 view .LVU276
 279:Middlewares/LVGL/GUI/lvgl/src/extra/widgets/tabview/lv_tabview.c **** 
 1037              		.loc 1 279 23 is_stmt 0 view .LVU277
 1038 0002 FFF7FEFF 		bl	lv_event_get_target
 1039              	.LVL139:
 279:Middlewares/LVGL/GUI/lvgl/src/extra/widgets/tabview/lv_tabview.c **** 
 1040              		.loc 1 279 23 view .LVU278
 1041 0006 0546     		mov	r5, r0
 1042              	.LVL140:
 281:Middlewares/LVGL/GUI/lvgl/src/extra/widgets/tabview/lv_tabview.c ****     uint32_t id = lv_btnmatrix_get_selected_btn(btns);
 1043              		.loc 1 281 5 is_stmt 1 view .LVU279
 281:Middlewares/LVGL/GUI/lvgl/src/extra/widgets/tabview/lv_tabview.c ****     uint32_t id = lv_btnmatrix_get_selected_btn(btns);
 1044              		.loc 1 281 21 is_stmt 0 view .LVU280
 1045 0008 FFF7FEFF 		bl	lv_obj_get_parent
 1046              	.LVL141:
ARM GAS  C:\Users\ADMINI~1\AppData\Local\Temp\ccbkt2w0.s 			page 38


 281:Middlewares/LVGL/GUI/lvgl/src/extra/widgets/tabview/lv_tabview.c ****     uint32_t id = lv_btnmatrix_get_selected_btn(btns);
 1047              		.loc 1 281 21 view .LVU281
 1048 000c 0446     		mov	r4, r0
 1049              	.LVL142:
 282:Middlewares/LVGL/GUI/lvgl/src/extra/widgets/tabview/lv_tabview.c ****     lv_tabview_set_act(tv, id, LV_ANIM_ON);
 1050              		.loc 1 282 5 is_stmt 1 view .LVU282
 282:Middlewares/LVGL/GUI/lvgl/src/extra/widgets/tabview/lv_tabview.c ****     lv_tabview_set_act(tv, id, LV_ANIM_ON);
 1051              		.loc 1 282 19 is_stmt 0 view .LVU283
 1052 000e 2846     		mov	r0, r5
 1053              	.LVL143:
 282:Middlewares/LVGL/GUI/lvgl/src/extra/widgets/tabview/lv_tabview.c ****     lv_tabview_set_act(tv, id, LV_ANIM_ON);
 1054              		.loc 1 282 19 view .LVU284
 1055 0010 FFF7FEFF 		bl	lv_btnmatrix_get_selected_btn
 1056              	.LVL144:
 1057 0014 0146     		mov	r1, r0
 1058              	.LVL145:
 283:Middlewares/LVGL/GUI/lvgl/src/extra/widgets/tabview/lv_tabview.c **** }
 1059              		.loc 1 283 5 is_stmt 1 view .LVU285
 1060 0016 0122     		movs	r2, #1
 1061 0018 2046     		mov	r0, r4
 1062              	.LVL146:
 283:Middlewares/LVGL/GUI/lvgl/src/extra/widgets/tabview/lv_tabview.c **** }
 1063              		.loc 1 283 5 is_stmt 0 view .LVU286
 1064 001a FFF7FEFF 		bl	lv_tabview_set_act
 1065              	.LVL147:
 284:Middlewares/LVGL/GUI/lvgl/src/extra/widgets/tabview/lv_tabview.c **** 
 1066              		.loc 1 284 1 view .LVU287
 1067 001e 38BD     		pop	{r3, r4, r5, pc}
 284:Middlewares/LVGL/GUI/lvgl/src/extra/widgets/tabview/lv_tabview.c **** 
 1068              		.loc 1 284 1 view .LVU288
 1069              		.cfi_endproc
 1070              	.LFE205:
 1072              		.section	.rodata.lv_tabview_add_tab.str1.4,"aMS",%progbits,1
 1073              		.align	2
 1074              	.LC1:
 1075 0000 0A00     		.ascii	"\012\000"
 1076              		.section	.text.lv_tabview_add_tab,"ax",%progbits
 1077              		.align	1
 1078              		.global	lv_tabview_add_tab
 1079              		.syntax unified
 1080              		.thumb
 1081              		.thumb_func
 1083              	lv_tabview_add_tab:
 1084              	.LVL148:
 1085              	.LFB197:
  68:Middlewares/LVGL/GUI/lvgl/src/extra/widgets/tabview/lv_tabview.c ****     LV_ASSERT_OBJ(obj, MY_CLASS);
 1086              		.loc 1 68 1 is_stmt 1 view -0
 1087              		.cfi_startproc
 1088              		@ args = 0, pretend = 0, frame = 0
 1089              		@ frame_needed = 0, uses_anonymous_args = 0
  68:Middlewares/LVGL/GUI/lvgl/src/extra/widgets/tabview/lv_tabview.c ****     LV_ASSERT_OBJ(obj, MY_CLASS);
 1090              		.loc 1 68 1 is_stmt 0 view .LVU290
 1091 0000 2DE9F84F 		push	{r3, r4, r5, r6, r7, r8, r9, r10, fp, lr}
 1092              	.LCFI12:
 1093              		.cfi_def_cfa_offset 40
 1094              		.cfi_offset 3, -40
 1095              		.cfi_offset 4, -36
ARM GAS  C:\Users\ADMINI~1\AppData\Local\Temp\ccbkt2w0.s 			page 39


 1096              		.cfi_offset 5, -32
 1097              		.cfi_offset 6, -28
 1098              		.cfi_offset 7, -24
 1099              		.cfi_offset 8, -20
 1100              		.cfi_offset 9, -16
 1101              		.cfi_offset 10, -12
 1102              		.cfi_offset 11, -8
 1103              		.cfi_offset 14, -4
 1104 0004 0446     		mov	r4, r0
 1105 0006 8946     		mov	r9, r1
  69:Middlewares/LVGL/GUI/lvgl/src/extra/widgets/tabview/lv_tabview.c ****     lv_tabview_t * tabview = (lv_tabview_t *)obj;
 1106              		.loc 1 69 5 is_stmt 1 view .LVU291
  69:Middlewares/LVGL/GUI/lvgl/src/extra/widgets/tabview/lv_tabview.c ****     lv_tabview_t * tabview = (lv_tabview_t *)obj;
 1107              		.loc 1 69 5 view .LVU292
  69:Middlewares/LVGL/GUI/lvgl/src/extra/widgets/tabview/lv_tabview.c ****     lv_tabview_t * tabview = (lv_tabview_t *)obj;
 1108              		.loc 1 69 5 view .LVU293
  70:Middlewares/LVGL/GUI/lvgl/src/extra/widgets/tabview/lv_tabview.c ****     lv_obj_t * cont = lv_tabview_get_content(obj);
 1109              		.loc 1 70 5 view .LVU294
 1110              	.LVL149:
  71:Middlewares/LVGL/GUI/lvgl/src/extra/widgets/tabview/lv_tabview.c **** 
 1111              		.loc 1 71 5 view .LVU295
  71:Middlewares/LVGL/GUI/lvgl/src/extra/widgets/tabview/lv_tabview.c **** 
 1112              		.loc 1 71 23 is_stmt 0 view .LVU296
 1113 0008 FFF7FEFF 		bl	lv_tabview_get_content
 1114              	.LVL150:
  71:Middlewares/LVGL/GUI/lvgl/src/extra/widgets/tabview/lv_tabview.c **** 
 1115              		.loc 1 71 23 view .LVU297
 1116 000c 0546     		mov	r5, r0
 1117              	.LVL151:
  73:Middlewares/LVGL/GUI/lvgl/src/extra/widgets/tabview/lv_tabview.c ****     lv_obj_set_size(page, LV_PCT(100), LV_PCT(100));
 1118              		.loc 1 73 5 is_stmt 1 view .LVU298
  73:Middlewares/LVGL/GUI/lvgl/src/extra/widgets/tabview/lv_tabview.c ****     lv_obj_set_size(page, LV_PCT(100), LV_PCT(100));
 1119              		.loc 1 73 23 is_stmt 0 view .LVU299
 1120 000e FFF7FEFF 		bl	lv_obj_create
 1121              	.LVL152:
  73:Middlewares/LVGL/GUI/lvgl/src/extra/widgets/tabview/lv_tabview.c ****     lv_obj_set_size(page, LV_PCT(100), LV_PCT(100));
 1122              		.loc 1 73 23 view .LVU300
 1123 0012 8046     		mov	r8, r0
 1124              	.LVL153:
  74:Middlewares/LVGL/GUI/lvgl/src/extra/widgets/tabview/lv_tabview.c ****     lv_obj_clear_flag(page, LV_OBJ_FLAG_CLICK_FOCUSABLE);
 1125              		.loc 1 74 5 is_stmt 1 view .LVU301
 1126 0014 4A49     		ldr	r1, .L77
 1127 0016 0A46     		mov	r2, r1
 1128 0018 FFF7FEFF 		bl	lv_obj_set_size
 1129              	.LVL154:
  75:Middlewares/LVGL/GUI/lvgl/src/extra/widgets/tabview/lv_tabview.c ****     uint32_t tab_id = lv_obj_get_child_cnt(cont);
 1130              		.loc 1 75 5 view .LVU302
 1131 001c 0421     		movs	r1, #4
 1132 001e 4046     		mov	r0, r8
 1133 0020 FFF7FEFF 		bl	lv_obj_clear_flag
 1134              	.LVL155:
  76:Middlewares/LVGL/GUI/lvgl/src/extra/widgets/tabview/lv_tabview.c **** 
 1135              		.loc 1 76 5 view .LVU303
  76:Middlewares/LVGL/GUI/lvgl/src/extra/widgets/tabview/lv_tabview.c **** 
 1136              		.loc 1 76 23 is_stmt 0 view .LVU304
 1137 0024 2846     		mov	r0, r5
 1138 0026 FFF7FEFF 		bl	lv_obj_get_child_cnt
ARM GAS  C:\Users\ADMINI~1\AppData\Local\Temp\ccbkt2w0.s 			page 40


 1139              	.LVL156:
 1140 002a 0646     		mov	r6, r0
 1141              	.LVL157:
  78:Middlewares/LVGL/GUI/lvgl/src/extra/widgets/tabview/lv_tabview.c **** 
 1142              		.loc 1 78 5 is_stmt 1 view .LVU305
  78:Middlewares/LVGL/GUI/lvgl/src/extra/widgets/tabview/lv_tabview.c **** 
 1143              		.loc 1 78 23 is_stmt 0 view .LVU306
 1144 002c 2046     		mov	r0, r4
 1145              	.LVL158:
  78:Middlewares/LVGL/GUI/lvgl/src/extra/widgets/tabview/lv_tabview.c **** 
 1146              		.loc 1 78 23 view .LVU307
 1147 002e FFF7FEFF 		bl	lv_tabview_get_tab_btns
 1148              	.LVL159:
 1149 0032 0746     		mov	r7, r0
 1150              	.LVL160:
  80:Middlewares/LVGL/GUI/lvgl/src/extra/widgets/tabview/lv_tabview.c ****     char ** new_map;
 1151              		.loc 1 80 5 is_stmt 1 view .LVU308
  80:Middlewares/LVGL/GUI/lvgl/src/extra/widgets/tabview/lv_tabview.c ****     char ** new_map;
 1152              		.loc 1 80 13 is_stmt 0 view .LVU309
 1153 0034 D4F82CA0 		ldr	r10, [r4, #44]
 1154              	.LVL161:
  81:Middlewares/LVGL/GUI/lvgl/src/extra/widgets/tabview/lv_tabview.c **** 
 1155              		.loc 1 81 5 is_stmt 1 view .LVU310
  84:Middlewares/LVGL/GUI/lvgl/src/extra/widgets/tabview/lv_tabview.c ****         new_map = lv_mem_alloc((tab_id + 1) * sizeof(const char *));
 1156              		.loc 1 84 5 view .LVU311
  84:Middlewares/LVGL/GUI/lvgl/src/extra/widgets/tabview/lv_tabview.c ****         new_map = lv_mem_alloc((tab_id + 1) * sizeof(const char *));
 1157              		.loc 1 84 15 is_stmt 0 view .LVU312
 1158 0038 94F83430 		ldrb	r3, [r4, #52]	@ zero_extendqisi2
  84:Middlewares/LVGL/GUI/lvgl/src/extra/widgets/tabview/lv_tabview.c ****         new_map = lv_mem_alloc((tab_id + 1) * sizeof(const char *));
 1159              		.loc 1 84 7 view .LVU313
 1160 003c 13F00C0F 		tst	r3, #12
 1161 0040 3DD0     		beq	.L67
  85:Middlewares/LVGL/GUI/lvgl/src/extra/widgets/tabview/lv_tabview.c ****         lv_memcpy_small(new_map, old_map, sizeof(const char *) * (tab_id - 1));
 1162              		.loc 1 85 9 is_stmt 1 view .LVU314
  85:Middlewares/LVGL/GUI/lvgl/src/extra/widgets/tabview/lv_tabview.c ****         lv_memcpy_small(new_map, old_map, sizeof(const char *) * (tab_id - 1));
 1163              		.loc 1 85 40 is_stmt 0 view .LVU315
 1164 0042 701C     		adds	r0, r6, #1
 1165              	.LVL162:
  85:Middlewares/LVGL/GUI/lvgl/src/extra/widgets/tabview/lv_tabview.c ****         lv_memcpy_small(new_map, old_map, sizeof(const char *) * (tab_id - 1));
 1166              		.loc 1 85 19 view .LVU316
 1167 0044 8000     		lsls	r0, r0, #2
 1168 0046 FFF7FEFF 		bl	lv_mem_alloc
 1169              	.LVL163:
 1170 004a 0546     		mov	r5, r0
 1171              	.LVL164:
  86:Middlewares/LVGL/GUI/lvgl/src/extra/widgets/tabview/lv_tabview.c ****         new_map[tab_id - 1] = lv_mem_alloc(strlen(name) + 1);
 1172              		.loc 1 86 9 is_stmt 1 view .LVU317
  86:Middlewares/LVGL/GUI/lvgl/src/extra/widgets/tabview/lv_tabview.c ****         new_map[tab_id - 1] = lv_mem_alloc(strlen(name) + 1);
 1173              		.loc 1 86 74 is_stmt 0 view .LVU318
 1174 004c 731E     		subs	r3, r6, #1
  86:Middlewares/LVGL/GUI/lvgl/src/extra/widgets/tabview/lv_tabview.c ****         new_map[tab_id - 1] = lv_mem_alloc(strlen(name) + 1);
 1175              		.loc 1 86 64 view .LVU319
 1176 004e 9B00     		lsls	r3, r3, #2
 1177              	.LVL165:
 1178              	.LBB23:
 1179              	.LBI23:
 1180              		.file 3 "Middlewares/LVGL/GUI/lvgl/src/extra/widgets/tabview/../../../../src/misc/lv_mem.h"
ARM GAS  C:\Users\ADMINI~1\AppData\Local\Temp\ccbkt2w0.s 			page 41


   1:Middlewares/LVGL/GUI/lvgl/src/extra/widgets/tabview/../../../../src/misc/lv_mem.h **** /**
   2:Middlewares/LVGL/GUI/lvgl/src/extra/widgets/tabview/../../../../src/misc/lv_mem.h ****  * @file lv_mem.h
   3:Middlewares/LVGL/GUI/lvgl/src/extra/widgets/tabview/../../../../src/misc/lv_mem.h ****  *
   4:Middlewares/LVGL/GUI/lvgl/src/extra/widgets/tabview/../../../../src/misc/lv_mem.h ****  */
   5:Middlewares/LVGL/GUI/lvgl/src/extra/widgets/tabview/../../../../src/misc/lv_mem.h **** 
   6:Middlewares/LVGL/GUI/lvgl/src/extra/widgets/tabview/../../../../src/misc/lv_mem.h **** #ifndef LV_MEM_H
   7:Middlewares/LVGL/GUI/lvgl/src/extra/widgets/tabview/../../../../src/misc/lv_mem.h **** #define LV_MEM_H
   8:Middlewares/LVGL/GUI/lvgl/src/extra/widgets/tabview/../../../../src/misc/lv_mem.h **** 
   9:Middlewares/LVGL/GUI/lvgl/src/extra/widgets/tabview/../../../../src/misc/lv_mem.h **** #ifdef __cplusplus
  10:Middlewares/LVGL/GUI/lvgl/src/extra/widgets/tabview/../../../../src/misc/lv_mem.h **** extern "C" {
  11:Middlewares/LVGL/GUI/lvgl/src/extra/widgets/tabview/../../../../src/misc/lv_mem.h **** #endif
  12:Middlewares/LVGL/GUI/lvgl/src/extra/widgets/tabview/../../../../src/misc/lv_mem.h **** 
  13:Middlewares/LVGL/GUI/lvgl/src/extra/widgets/tabview/../../../../src/misc/lv_mem.h **** /*********************
  14:Middlewares/LVGL/GUI/lvgl/src/extra/widgets/tabview/../../../../src/misc/lv_mem.h ****  *      INCLUDES
  15:Middlewares/LVGL/GUI/lvgl/src/extra/widgets/tabview/../../../../src/misc/lv_mem.h ****  *********************/
  16:Middlewares/LVGL/GUI/lvgl/src/extra/widgets/tabview/../../../../src/misc/lv_mem.h **** #include "../lv_conf_internal.h"
  17:Middlewares/LVGL/GUI/lvgl/src/extra/widgets/tabview/../../../../src/misc/lv_mem.h **** 
  18:Middlewares/LVGL/GUI/lvgl/src/extra/widgets/tabview/../../../../src/misc/lv_mem.h **** #include <stdint.h>
  19:Middlewares/LVGL/GUI/lvgl/src/extra/widgets/tabview/../../../../src/misc/lv_mem.h **** #include <stddef.h>
  20:Middlewares/LVGL/GUI/lvgl/src/extra/widgets/tabview/../../../../src/misc/lv_mem.h **** #include <string.h>
  21:Middlewares/LVGL/GUI/lvgl/src/extra/widgets/tabview/../../../../src/misc/lv_mem.h **** 
  22:Middlewares/LVGL/GUI/lvgl/src/extra/widgets/tabview/../../../../src/misc/lv_mem.h **** #include "lv_types.h"
  23:Middlewares/LVGL/GUI/lvgl/src/extra/widgets/tabview/../../../../src/misc/lv_mem.h **** 
  24:Middlewares/LVGL/GUI/lvgl/src/extra/widgets/tabview/../../../../src/misc/lv_mem.h **** /*********************
  25:Middlewares/LVGL/GUI/lvgl/src/extra/widgets/tabview/../../../../src/misc/lv_mem.h ****  *      DEFINES
  26:Middlewares/LVGL/GUI/lvgl/src/extra/widgets/tabview/../../../../src/misc/lv_mem.h ****  *********************/
  27:Middlewares/LVGL/GUI/lvgl/src/extra/widgets/tabview/../../../../src/misc/lv_mem.h **** 
  28:Middlewares/LVGL/GUI/lvgl/src/extra/widgets/tabview/../../../../src/misc/lv_mem.h **** /**********************
  29:Middlewares/LVGL/GUI/lvgl/src/extra/widgets/tabview/../../../../src/misc/lv_mem.h ****  *      TYPEDEFS
  30:Middlewares/LVGL/GUI/lvgl/src/extra/widgets/tabview/../../../../src/misc/lv_mem.h ****  **********************/
  31:Middlewares/LVGL/GUI/lvgl/src/extra/widgets/tabview/../../../../src/misc/lv_mem.h **** 
  32:Middlewares/LVGL/GUI/lvgl/src/extra/widgets/tabview/../../../../src/misc/lv_mem.h **** /**
  33:Middlewares/LVGL/GUI/lvgl/src/extra/widgets/tabview/../../../../src/misc/lv_mem.h ****  * Heap information structure.
  34:Middlewares/LVGL/GUI/lvgl/src/extra/widgets/tabview/../../../../src/misc/lv_mem.h ****  */
  35:Middlewares/LVGL/GUI/lvgl/src/extra/widgets/tabview/../../../../src/misc/lv_mem.h **** typedef struct {
  36:Middlewares/LVGL/GUI/lvgl/src/extra/widgets/tabview/../../../../src/misc/lv_mem.h ****     uint32_t total_size; /**< Total heap size*/
  37:Middlewares/LVGL/GUI/lvgl/src/extra/widgets/tabview/../../../../src/misc/lv_mem.h ****     uint32_t free_cnt;
  38:Middlewares/LVGL/GUI/lvgl/src/extra/widgets/tabview/../../../../src/misc/lv_mem.h ****     uint32_t free_size; /**< Size of available memory*/
  39:Middlewares/LVGL/GUI/lvgl/src/extra/widgets/tabview/../../../../src/misc/lv_mem.h ****     uint32_t free_biggest_size;
  40:Middlewares/LVGL/GUI/lvgl/src/extra/widgets/tabview/../../../../src/misc/lv_mem.h ****     uint32_t used_cnt;
  41:Middlewares/LVGL/GUI/lvgl/src/extra/widgets/tabview/../../../../src/misc/lv_mem.h ****     uint32_t max_used; /**< Max size of Heap memory used*/
  42:Middlewares/LVGL/GUI/lvgl/src/extra/widgets/tabview/../../../../src/misc/lv_mem.h ****     uint8_t used_pct; /**< Percentage used*/
  43:Middlewares/LVGL/GUI/lvgl/src/extra/widgets/tabview/../../../../src/misc/lv_mem.h ****     uint8_t frag_pct; /**< Amount of fragmentation*/
  44:Middlewares/LVGL/GUI/lvgl/src/extra/widgets/tabview/../../../../src/misc/lv_mem.h **** } lv_mem_monitor_t;
  45:Middlewares/LVGL/GUI/lvgl/src/extra/widgets/tabview/../../../../src/misc/lv_mem.h **** 
  46:Middlewares/LVGL/GUI/lvgl/src/extra/widgets/tabview/../../../../src/misc/lv_mem.h **** typedef struct {
  47:Middlewares/LVGL/GUI/lvgl/src/extra/widgets/tabview/../../../../src/misc/lv_mem.h ****     void * p;
  48:Middlewares/LVGL/GUI/lvgl/src/extra/widgets/tabview/../../../../src/misc/lv_mem.h ****     uint16_t size;
  49:Middlewares/LVGL/GUI/lvgl/src/extra/widgets/tabview/../../../../src/misc/lv_mem.h ****     uint8_t used : 1;
  50:Middlewares/LVGL/GUI/lvgl/src/extra/widgets/tabview/../../../../src/misc/lv_mem.h **** } lv_mem_buf_t;
  51:Middlewares/LVGL/GUI/lvgl/src/extra/widgets/tabview/../../../../src/misc/lv_mem.h **** 
  52:Middlewares/LVGL/GUI/lvgl/src/extra/widgets/tabview/../../../../src/misc/lv_mem.h **** typedef lv_mem_buf_t lv_mem_buf_arr_t[LV_MEM_BUF_MAX_NUM];
  53:Middlewares/LVGL/GUI/lvgl/src/extra/widgets/tabview/../../../../src/misc/lv_mem.h **** 
  54:Middlewares/LVGL/GUI/lvgl/src/extra/widgets/tabview/../../../../src/misc/lv_mem.h **** /**********************
  55:Middlewares/LVGL/GUI/lvgl/src/extra/widgets/tabview/../../../../src/misc/lv_mem.h ****  * GLOBAL PROTOTYPES
  56:Middlewares/LVGL/GUI/lvgl/src/extra/widgets/tabview/../../../../src/misc/lv_mem.h ****  **********************/
  57:Middlewares/LVGL/GUI/lvgl/src/extra/widgets/tabview/../../../../src/misc/lv_mem.h **** 
ARM GAS  C:\Users\ADMINI~1\AppData\Local\Temp\ccbkt2w0.s 			page 42


  58:Middlewares/LVGL/GUI/lvgl/src/extra/widgets/tabview/../../../../src/misc/lv_mem.h **** /**
  59:Middlewares/LVGL/GUI/lvgl/src/extra/widgets/tabview/../../../../src/misc/lv_mem.h ****  * Initialize the dyn_mem module (work memory and other variables)
  60:Middlewares/LVGL/GUI/lvgl/src/extra/widgets/tabview/../../../../src/misc/lv_mem.h ****  */
  61:Middlewares/LVGL/GUI/lvgl/src/extra/widgets/tabview/../../../../src/misc/lv_mem.h **** void lv_mem_init(void);
  62:Middlewares/LVGL/GUI/lvgl/src/extra/widgets/tabview/../../../../src/misc/lv_mem.h **** 
  63:Middlewares/LVGL/GUI/lvgl/src/extra/widgets/tabview/../../../../src/misc/lv_mem.h **** /**
  64:Middlewares/LVGL/GUI/lvgl/src/extra/widgets/tabview/../../../../src/misc/lv_mem.h ****  * Clean up the memory buffer which frees all the allocated memories.
  65:Middlewares/LVGL/GUI/lvgl/src/extra/widgets/tabview/../../../../src/misc/lv_mem.h ****  * @note It work only if `LV_MEM_CUSTOM == 0`
  66:Middlewares/LVGL/GUI/lvgl/src/extra/widgets/tabview/../../../../src/misc/lv_mem.h ****  */
  67:Middlewares/LVGL/GUI/lvgl/src/extra/widgets/tabview/../../../../src/misc/lv_mem.h **** void lv_mem_deinit(void);
  68:Middlewares/LVGL/GUI/lvgl/src/extra/widgets/tabview/../../../../src/misc/lv_mem.h **** 
  69:Middlewares/LVGL/GUI/lvgl/src/extra/widgets/tabview/../../../../src/misc/lv_mem.h **** /**
  70:Middlewares/LVGL/GUI/lvgl/src/extra/widgets/tabview/../../../../src/misc/lv_mem.h ****  * Allocate a memory dynamically
  71:Middlewares/LVGL/GUI/lvgl/src/extra/widgets/tabview/../../../../src/misc/lv_mem.h ****  * @param size size of the memory to allocate in bytes
  72:Middlewares/LVGL/GUI/lvgl/src/extra/widgets/tabview/../../../../src/misc/lv_mem.h ****  * @return pointer to the allocated memory
  73:Middlewares/LVGL/GUI/lvgl/src/extra/widgets/tabview/../../../../src/misc/lv_mem.h ****  */
  74:Middlewares/LVGL/GUI/lvgl/src/extra/widgets/tabview/../../../../src/misc/lv_mem.h **** void * lv_mem_alloc(size_t size);
  75:Middlewares/LVGL/GUI/lvgl/src/extra/widgets/tabview/../../../../src/misc/lv_mem.h **** 
  76:Middlewares/LVGL/GUI/lvgl/src/extra/widgets/tabview/../../../../src/misc/lv_mem.h **** /**
  77:Middlewares/LVGL/GUI/lvgl/src/extra/widgets/tabview/../../../../src/misc/lv_mem.h ****  * Free an allocated data
  78:Middlewares/LVGL/GUI/lvgl/src/extra/widgets/tabview/../../../../src/misc/lv_mem.h ****  * @param data pointer to an allocated memory
  79:Middlewares/LVGL/GUI/lvgl/src/extra/widgets/tabview/../../../../src/misc/lv_mem.h ****  */
  80:Middlewares/LVGL/GUI/lvgl/src/extra/widgets/tabview/../../../../src/misc/lv_mem.h **** void lv_mem_free(void * data);
  81:Middlewares/LVGL/GUI/lvgl/src/extra/widgets/tabview/../../../../src/misc/lv_mem.h **** 
  82:Middlewares/LVGL/GUI/lvgl/src/extra/widgets/tabview/../../../../src/misc/lv_mem.h **** /**
  83:Middlewares/LVGL/GUI/lvgl/src/extra/widgets/tabview/../../../../src/misc/lv_mem.h ****  * Reallocate a memory with a new size. The old content will be kept.
  84:Middlewares/LVGL/GUI/lvgl/src/extra/widgets/tabview/../../../../src/misc/lv_mem.h ****  * @param data pointer to an allocated memory.
  85:Middlewares/LVGL/GUI/lvgl/src/extra/widgets/tabview/../../../../src/misc/lv_mem.h ****  * Its content will be copied to the new memory block and freed
  86:Middlewares/LVGL/GUI/lvgl/src/extra/widgets/tabview/../../../../src/misc/lv_mem.h ****  * @param new_size the desired new size in byte
  87:Middlewares/LVGL/GUI/lvgl/src/extra/widgets/tabview/../../../../src/misc/lv_mem.h ****  * @return pointer to the new memory, NULL on failure
  88:Middlewares/LVGL/GUI/lvgl/src/extra/widgets/tabview/../../../../src/misc/lv_mem.h ****  */
  89:Middlewares/LVGL/GUI/lvgl/src/extra/widgets/tabview/../../../../src/misc/lv_mem.h **** void * lv_mem_realloc(void * data_p, size_t new_size);
  90:Middlewares/LVGL/GUI/lvgl/src/extra/widgets/tabview/../../../../src/misc/lv_mem.h **** 
  91:Middlewares/LVGL/GUI/lvgl/src/extra/widgets/tabview/../../../../src/misc/lv_mem.h **** /**
  92:Middlewares/LVGL/GUI/lvgl/src/extra/widgets/tabview/../../../../src/misc/lv_mem.h ****  *
  93:Middlewares/LVGL/GUI/lvgl/src/extra/widgets/tabview/../../../../src/misc/lv_mem.h ****  * @return
  94:Middlewares/LVGL/GUI/lvgl/src/extra/widgets/tabview/../../../../src/misc/lv_mem.h ****  */
  95:Middlewares/LVGL/GUI/lvgl/src/extra/widgets/tabview/../../../../src/misc/lv_mem.h **** lv_res_t lv_mem_test(void);
  96:Middlewares/LVGL/GUI/lvgl/src/extra/widgets/tabview/../../../../src/misc/lv_mem.h **** 
  97:Middlewares/LVGL/GUI/lvgl/src/extra/widgets/tabview/../../../../src/misc/lv_mem.h **** /**
  98:Middlewares/LVGL/GUI/lvgl/src/extra/widgets/tabview/../../../../src/misc/lv_mem.h ****  * Give information about the work memory of dynamic allocation
  99:Middlewares/LVGL/GUI/lvgl/src/extra/widgets/tabview/../../../../src/misc/lv_mem.h ****  * @param mon_p pointer to a lv_mem_monitor_t variable,
 100:Middlewares/LVGL/GUI/lvgl/src/extra/widgets/tabview/../../../../src/misc/lv_mem.h ****  *              the result of the analysis will be stored here
 101:Middlewares/LVGL/GUI/lvgl/src/extra/widgets/tabview/../../../../src/misc/lv_mem.h ****  */
 102:Middlewares/LVGL/GUI/lvgl/src/extra/widgets/tabview/../../../../src/misc/lv_mem.h **** void lv_mem_monitor(lv_mem_monitor_t * mon_p);
 103:Middlewares/LVGL/GUI/lvgl/src/extra/widgets/tabview/../../../../src/misc/lv_mem.h **** 
 104:Middlewares/LVGL/GUI/lvgl/src/extra/widgets/tabview/../../../../src/misc/lv_mem.h **** 
 105:Middlewares/LVGL/GUI/lvgl/src/extra/widgets/tabview/../../../../src/misc/lv_mem.h **** /**
 106:Middlewares/LVGL/GUI/lvgl/src/extra/widgets/tabview/../../../../src/misc/lv_mem.h ****  * Get a temporal buffer with the given size.
 107:Middlewares/LVGL/GUI/lvgl/src/extra/widgets/tabview/../../../../src/misc/lv_mem.h ****  * @param size the required size
 108:Middlewares/LVGL/GUI/lvgl/src/extra/widgets/tabview/../../../../src/misc/lv_mem.h ****  */
 109:Middlewares/LVGL/GUI/lvgl/src/extra/widgets/tabview/../../../../src/misc/lv_mem.h **** void * lv_mem_buf_get(uint32_t size);
 110:Middlewares/LVGL/GUI/lvgl/src/extra/widgets/tabview/../../../../src/misc/lv_mem.h **** 
 111:Middlewares/LVGL/GUI/lvgl/src/extra/widgets/tabview/../../../../src/misc/lv_mem.h **** /**
 112:Middlewares/LVGL/GUI/lvgl/src/extra/widgets/tabview/../../../../src/misc/lv_mem.h ****  * Release a memory buffer
 113:Middlewares/LVGL/GUI/lvgl/src/extra/widgets/tabview/../../../../src/misc/lv_mem.h ****  * @param p buffer to release
 114:Middlewares/LVGL/GUI/lvgl/src/extra/widgets/tabview/../../../../src/misc/lv_mem.h ****  */
ARM GAS  C:\Users\ADMINI~1\AppData\Local\Temp\ccbkt2w0.s 			page 43


 115:Middlewares/LVGL/GUI/lvgl/src/extra/widgets/tabview/../../../../src/misc/lv_mem.h **** void lv_mem_buf_release(void * p);
 116:Middlewares/LVGL/GUI/lvgl/src/extra/widgets/tabview/../../../../src/misc/lv_mem.h **** 
 117:Middlewares/LVGL/GUI/lvgl/src/extra/widgets/tabview/../../../../src/misc/lv_mem.h **** /**
 118:Middlewares/LVGL/GUI/lvgl/src/extra/widgets/tabview/../../../../src/misc/lv_mem.h ****  * Free all memory buffers
 119:Middlewares/LVGL/GUI/lvgl/src/extra/widgets/tabview/../../../../src/misc/lv_mem.h ****  */
 120:Middlewares/LVGL/GUI/lvgl/src/extra/widgets/tabview/../../../../src/misc/lv_mem.h **** void lv_mem_buf_free_all(void);
 121:Middlewares/LVGL/GUI/lvgl/src/extra/widgets/tabview/../../../../src/misc/lv_mem.h **** 
 122:Middlewares/LVGL/GUI/lvgl/src/extra/widgets/tabview/../../../../src/misc/lv_mem.h **** //! @cond Doxygen_Suppress
 123:Middlewares/LVGL/GUI/lvgl/src/extra/widgets/tabview/../../../../src/misc/lv_mem.h **** 
 124:Middlewares/LVGL/GUI/lvgl/src/extra/widgets/tabview/../../../../src/misc/lv_mem.h **** #if LV_MEMCPY_MEMSET_STD
 125:Middlewares/LVGL/GUI/lvgl/src/extra/widgets/tabview/../../../../src/misc/lv_mem.h **** 
 126:Middlewares/LVGL/GUI/lvgl/src/extra/widgets/tabview/../../../../src/misc/lv_mem.h **** /**
 127:Middlewares/LVGL/GUI/lvgl/src/extra/widgets/tabview/../../../../src/misc/lv_mem.h ****  * Wrapper for the standard memcpy
 128:Middlewares/LVGL/GUI/lvgl/src/extra/widgets/tabview/../../../../src/misc/lv_mem.h ****  * @param dst pointer to the destination buffer
 129:Middlewares/LVGL/GUI/lvgl/src/extra/widgets/tabview/../../../../src/misc/lv_mem.h ****  * @param src pointer to the source buffer
 130:Middlewares/LVGL/GUI/lvgl/src/extra/widgets/tabview/../../../../src/misc/lv_mem.h ****  * @param len number of byte to copy
 131:Middlewares/LVGL/GUI/lvgl/src/extra/widgets/tabview/../../../../src/misc/lv_mem.h ****  */
 132:Middlewares/LVGL/GUI/lvgl/src/extra/widgets/tabview/../../../../src/misc/lv_mem.h **** static inline void * lv_memcpy(void * dst, const void * src, size_t len)
 133:Middlewares/LVGL/GUI/lvgl/src/extra/widgets/tabview/../../../../src/misc/lv_mem.h **** {
 134:Middlewares/LVGL/GUI/lvgl/src/extra/widgets/tabview/../../../../src/misc/lv_mem.h ****     return memcpy(dst, src, len);
 135:Middlewares/LVGL/GUI/lvgl/src/extra/widgets/tabview/../../../../src/misc/lv_mem.h **** }
 136:Middlewares/LVGL/GUI/lvgl/src/extra/widgets/tabview/../../../../src/misc/lv_mem.h **** 
 137:Middlewares/LVGL/GUI/lvgl/src/extra/widgets/tabview/../../../../src/misc/lv_mem.h **** /**
 138:Middlewares/LVGL/GUI/lvgl/src/extra/widgets/tabview/../../../../src/misc/lv_mem.h ****  * Wrapper for the standard memcpy
 139:Middlewares/LVGL/GUI/lvgl/src/extra/widgets/tabview/../../../../src/misc/lv_mem.h ****  * @param dst pointer to the destination buffer
 140:Middlewares/LVGL/GUI/lvgl/src/extra/widgets/tabview/../../../../src/misc/lv_mem.h ****  * @param src pointer to the source buffer
 141:Middlewares/LVGL/GUI/lvgl/src/extra/widgets/tabview/../../../../src/misc/lv_mem.h ****  * @param len number of byte to copy
 142:Middlewares/LVGL/GUI/lvgl/src/extra/widgets/tabview/../../../../src/misc/lv_mem.h ****  */
 143:Middlewares/LVGL/GUI/lvgl/src/extra/widgets/tabview/../../../../src/misc/lv_mem.h **** static inline void * lv_memcpy_small(void * dst, const void * src, size_t len)
 144:Middlewares/LVGL/GUI/lvgl/src/extra/widgets/tabview/../../../../src/misc/lv_mem.h **** {
 145:Middlewares/LVGL/GUI/lvgl/src/extra/widgets/tabview/../../../../src/misc/lv_mem.h ****     return memcpy(dst, src, len);
 146:Middlewares/LVGL/GUI/lvgl/src/extra/widgets/tabview/../../../../src/misc/lv_mem.h **** }
 147:Middlewares/LVGL/GUI/lvgl/src/extra/widgets/tabview/../../../../src/misc/lv_mem.h **** 
 148:Middlewares/LVGL/GUI/lvgl/src/extra/widgets/tabview/../../../../src/misc/lv_mem.h **** /**
 149:Middlewares/LVGL/GUI/lvgl/src/extra/widgets/tabview/../../../../src/misc/lv_mem.h ****  * Wrapper for the standard memset
 150:Middlewares/LVGL/GUI/lvgl/src/extra/widgets/tabview/../../../../src/misc/lv_mem.h ****  * @param dst pointer to the destination buffer
 151:Middlewares/LVGL/GUI/lvgl/src/extra/widgets/tabview/../../../../src/misc/lv_mem.h ****  * @param v value to set [0..255]
 152:Middlewares/LVGL/GUI/lvgl/src/extra/widgets/tabview/../../../../src/misc/lv_mem.h ****  * @param len number of byte to set
 153:Middlewares/LVGL/GUI/lvgl/src/extra/widgets/tabview/../../../../src/misc/lv_mem.h ****  */
 154:Middlewares/LVGL/GUI/lvgl/src/extra/widgets/tabview/../../../../src/misc/lv_mem.h **** static inline void lv_memset(void * dst, uint8_t v, size_t len)
 155:Middlewares/LVGL/GUI/lvgl/src/extra/widgets/tabview/../../../../src/misc/lv_mem.h **** {
 156:Middlewares/LVGL/GUI/lvgl/src/extra/widgets/tabview/../../../../src/misc/lv_mem.h ****     memset(dst, v, len);
 157:Middlewares/LVGL/GUI/lvgl/src/extra/widgets/tabview/../../../../src/misc/lv_mem.h **** }
 158:Middlewares/LVGL/GUI/lvgl/src/extra/widgets/tabview/../../../../src/misc/lv_mem.h **** 
 159:Middlewares/LVGL/GUI/lvgl/src/extra/widgets/tabview/../../../../src/misc/lv_mem.h **** /**
 160:Middlewares/LVGL/GUI/lvgl/src/extra/widgets/tabview/../../../../src/misc/lv_mem.h ****  * Wrapper for the standard memset with fixed 0x00 value
 161:Middlewares/LVGL/GUI/lvgl/src/extra/widgets/tabview/../../../../src/misc/lv_mem.h ****  * @param dst pointer to the destination buffer
 162:Middlewares/LVGL/GUI/lvgl/src/extra/widgets/tabview/../../../../src/misc/lv_mem.h ****  * @param len number of byte to set
 163:Middlewares/LVGL/GUI/lvgl/src/extra/widgets/tabview/../../../../src/misc/lv_mem.h ****  */
 164:Middlewares/LVGL/GUI/lvgl/src/extra/widgets/tabview/../../../../src/misc/lv_mem.h **** static inline void lv_memset_00(void * dst, size_t len)
 165:Middlewares/LVGL/GUI/lvgl/src/extra/widgets/tabview/../../../../src/misc/lv_mem.h **** {
 166:Middlewares/LVGL/GUI/lvgl/src/extra/widgets/tabview/../../../../src/misc/lv_mem.h ****     memset(dst, 0x00, len);
 167:Middlewares/LVGL/GUI/lvgl/src/extra/widgets/tabview/../../../../src/misc/lv_mem.h **** }
 168:Middlewares/LVGL/GUI/lvgl/src/extra/widgets/tabview/../../../../src/misc/lv_mem.h **** 
 169:Middlewares/LVGL/GUI/lvgl/src/extra/widgets/tabview/../../../../src/misc/lv_mem.h **** /**
 170:Middlewares/LVGL/GUI/lvgl/src/extra/widgets/tabview/../../../../src/misc/lv_mem.h ****  * Wrapper for the standard memset with fixed 0xFF value
 171:Middlewares/LVGL/GUI/lvgl/src/extra/widgets/tabview/../../../../src/misc/lv_mem.h ****  * @param dst pointer to the destination buffer
ARM GAS  C:\Users\ADMINI~1\AppData\Local\Temp\ccbkt2w0.s 			page 44


 172:Middlewares/LVGL/GUI/lvgl/src/extra/widgets/tabview/../../../../src/misc/lv_mem.h ****  * @param len number of byte to set
 173:Middlewares/LVGL/GUI/lvgl/src/extra/widgets/tabview/../../../../src/misc/lv_mem.h ****  */
 174:Middlewares/LVGL/GUI/lvgl/src/extra/widgets/tabview/../../../../src/misc/lv_mem.h **** static inline void lv_memset_ff(void * dst, size_t len)
 175:Middlewares/LVGL/GUI/lvgl/src/extra/widgets/tabview/../../../../src/misc/lv_mem.h **** {
 176:Middlewares/LVGL/GUI/lvgl/src/extra/widgets/tabview/../../../../src/misc/lv_mem.h ****     memset(dst, 0xFF, len);
 177:Middlewares/LVGL/GUI/lvgl/src/extra/widgets/tabview/../../../../src/misc/lv_mem.h **** }
 178:Middlewares/LVGL/GUI/lvgl/src/extra/widgets/tabview/../../../../src/misc/lv_mem.h **** 
 179:Middlewares/LVGL/GUI/lvgl/src/extra/widgets/tabview/../../../../src/misc/lv_mem.h **** #else
 180:Middlewares/LVGL/GUI/lvgl/src/extra/widgets/tabview/../../../../src/misc/lv_mem.h **** /**
 181:Middlewares/LVGL/GUI/lvgl/src/extra/widgets/tabview/../../../../src/misc/lv_mem.h ****  * Same as `memcpy` but optimized for 4 byte operation.
 182:Middlewares/LVGL/GUI/lvgl/src/extra/widgets/tabview/../../../../src/misc/lv_mem.h ****  * @param dst pointer to the destination buffer
 183:Middlewares/LVGL/GUI/lvgl/src/extra/widgets/tabview/../../../../src/misc/lv_mem.h ****  * @param src pointer to the source buffer
 184:Middlewares/LVGL/GUI/lvgl/src/extra/widgets/tabview/../../../../src/misc/lv_mem.h ****  * @param len number of byte to copy
 185:Middlewares/LVGL/GUI/lvgl/src/extra/widgets/tabview/../../../../src/misc/lv_mem.h ****  */
 186:Middlewares/LVGL/GUI/lvgl/src/extra/widgets/tabview/../../../../src/misc/lv_mem.h **** LV_ATTRIBUTE_FAST_MEM void * lv_memcpy(void * dst, const void * src, size_t len);
 187:Middlewares/LVGL/GUI/lvgl/src/extra/widgets/tabview/../../../../src/misc/lv_mem.h **** 
 188:Middlewares/LVGL/GUI/lvgl/src/extra/widgets/tabview/../../../../src/misc/lv_mem.h **** /**
 189:Middlewares/LVGL/GUI/lvgl/src/extra/widgets/tabview/../../../../src/misc/lv_mem.h ****  * Same as `memcpy` but optimized to copy only a few bytes.
 190:Middlewares/LVGL/GUI/lvgl/src/extra/widgets/tabview/../../../../src/misc/lv_mem.h ****  * @param dst pointer to the destination buffer
 191:Middlewares/LVGL/GUI/lvgl/src/extra/widgets/tabview/../../../../src/misc/lv_mem.h ****  * @param src pointer to the source buffer
 192:Middlewares/LVGL/GUI/lvgl/src/extra/widgets/tabview/../../../../src/misc/lv_mem.h ****  * @param len number of byte to copy
 193:Middlewares/LVGL/GUI/lvgl/src/extra/widgets/tabview/../../../../src/misc/lv_mem.h ****  */
 194:Middlewares/LVGL/GUI/lvgl/src/extra/widgets/tabview/../../../../src/misc/lv_mem.h **** LV_ATTRIBUTE_FAST_MEM static inline void * lv_memcpy_small(void * dst, const void * src, size_t len
 1181              		.loc 3 194 44 is_stmt 1 view .LVU320
 1182              	.LBB24:
 195:Middlewares/LVGL/GUI/lvgl/src/extra/widgets/tabview/../../../../src/misc/lv_mem.h **** {
 196:Middlewares/LVGL/GUI/lvgl/src/extra/widgets/tabview/../../../../src/misc/lv_mem.h ****     uint8_t * d8 = (uint8_t *)dst;
 1183              		.loc 3 196 5 view .LVU321
 197:Middlewares/LVGL/GUI/lvgl/src/extra/widgets/tabview/../../../../src/misc/lv_mem.h ****     const uint8_t * s8 = (const uint8_t *)src;
 1184              		.loc 3 197 5 view .LVU322
 198:Middlewares/LVGL/GUI/lvgl/src/extra/widgets/tabview/../../../../src/misc/lv_mem.h **** 
 199:Middlewares/LVGL/GUI/lvgl/src/extra/widgets/tabview/../../../../src/misc/lv_mem.h ****     while(len) {
 1185              		.loc 3 199 5 view .LVU323
 197:Middlewares/LVGL/GUI/lvgl/src/extra/widgets/tabview/../../../../src/misc/lv_mem.h ****     const uint8_t * s8 = (const uint8_t *)src;
 1186              		.loc 3 197 21 is_stmt 0 view .LVU324
 1187 0050 5146     		mov	r1, r10
 196:Middlewares/LVGL/GUI/lvgl/src/extra/widgets/tabview/../../../../src/misc/lv_mem.h ****     const uint8_t * s8 = (const uint8_t *)src;
 1188              		.loc 3 196 15 view .LVU325
 1189 0052 0246     		mov	r2, r0
 1190              		.loc 3 199 10 view .LVU326
 1191 0054 04E0     		b	.L68
 1192              	.LVL166:
 1193              	.L69:
 200:Middlewares/LVGL/GUI/lvgl/src/extra/widgets/tabview/../../../../src/misc/lv_mem.h ****         *d8 = *s8;
 1194              		.loc 3 200 9 is_stmt 1 view .LVU327
 1195              		.loc 3 200 15 is_stmt 0 view .LVU328
 1196 0056 11F8010B 		ldrb	r0, [r1], #1	@ zero_extendqisi2
 1197              	.LVL167:
 1198              		.loc 3 200 13 view .LVU329
 1199 005a 02F8010B 		strb	r0, [r2], #1
 1200              	.LVL168:
 201:Middlewares/LVGL/GUI/lvgl/src/extra/widgets/tabview/../../../../src/misc/lv_mem.h ****         d8++;
 1201              		.loc 3 201 9 is_stmt 1 view .LVU330
 202:Middlewares/LVGL/GUI/lvgl/src/extra/widgets/tabview/../../../../src/misc/lv_mem.h ****         s8++;
 1202              		.loc 3 202 9 view .LVU331
 203:Middlewares/LVGL/GUI/lvgl/src/extra/widgets/tabview/../../../../src/misc/lv_mem.h ****         len--;
 1203              		.loc 3 203 9 view .LVU332
ARM GAS  C:\Users\ADMINI~1\AppData\Local\Temp\ccbkt2w0.s 			page 45


 1204              		.loc 3 203 12 is_stmt 0 view .LVU333
 1205 005e 013B     		subs	r3, r3, #1
 1206              	.LVL169:
 1207              	.L68:
 199:Middlewares/LVGL/GUI/lvgl/src/extra/widgets/tabview/../../../../src/misc/lv_mem.h ****         *d8 = *s8;
 1208              		.loc 3 199 10 is_stmt 1 view .LVU334
 1209 0060 002B     		cmp	r3, #0
 1210 0062 F8D1     		bne	.L69
 204:Middlewares/LVGL/GUI/lvgl/src/extra/widgets/tabview/../../../../src/misc/lv_mem.h ****     }
 205:Middlewares/LVGL/GUI/lvgl/src/extra/widgets/tabview/../../../../src/misc/lv_mem.h **** 
 206:Middlewares/LVGL/GUI/lvgl/src/extra/widgets/tabview/../../../../src/misc/lv_mem.h ****     return dst;
 1211              		.loc 3 206 5 view .LVU335
 1212              	.LVL170:
 1213              		.loc 3 206 5 is_stmt 0 view .LVU336
 1214              	.LBE24:
 1215              	.LBE23:
  87:Middlewares/LVGL/GUI/lvgl/src/extra/widgets/tabview/lv_tabview.c ****         strcpy((char *)new_map[tab_id - 1], name);
 1216              		.loc 1 87 9 is_stmt 1 view .LVU337
  87:Middlewares/LVGL/GUI/lvgl/src/extra/widgets/tabview/lv_tabview.c ****         strcpy((char *)new_map[tab_id - 1], name);
 1217              		.loc 1 87 44 is_stmt 0 view .LVU338
 1218 0064 4846     		mov	r0, r9
 1219 0066 FFF7FEFF 		bl	strlen
 1220              	.LVL171:
  87:Middlewares/LVGL/GUI/lvgl/src/extra/widgets/tabview/lv_tabview.c ****         strcpy((char *)new_map[tab_id - 1], name);
 1221              		.loc 1 87 16 view .LVU339
 1222 006a 06F1804B 		add	fp, r6, #1073741824
 1223 006e 0BF1FF3B 		add	fp, fp, #-1
  87:Middlewares/LVGL/GUI/lvgl/src/extra/widgets/tabview/lv_tabview.c ****         strcpy((char *)new_map[tab_id - 1], name);
 1224              		.loc 1 87 31 view .LVU340
 1225 0072 0130     		adds	r0, r0, #1
 1226 0074 FFF7FEFF 		bl	lv_mem_alloc
 1227              	.LVL172:
  87:Middlewares/LVGL/GUI/lvgl/src/extra/widgets/tabview/lv_tabview.c ****         strcpy((char *)new_map[tab_id - 1], name);
 1228              		.loc 1 87 29 view .LVU341
 1229 0078 45F82B00 		str	r0, [r5, fp, lsl #2]
  88:Middlewares/LVGL/GUI/lvgl/src/extra/widgets/tabview/lv_tabview.c ****         new_map[tab_id] = "";
 1230              		.loc 1 88 9 is_stmt 1 view .LVU342
 1231 007c 4946     		mov	r1, r9
 1232 007e FFF7FEFF 		bl	strcpy
 1233              	.LVL173:
  89:Middlewares/LVGL/GUI/lvgl/src/extra/widgets/tabview/lv_tabview.c ****     }
 1234              		.loc 1 89 9 view .LVU343
  89:Middlewares/LVGL/GUI/lvgl/src/extra/widgets/tabview/lv_tabview.c ****     }
 1235              		.loc 1 89 25 is_stmt 0 view .LVU344
 1236 0082 304B     		ldr	r3, .L77+4
 1237 0084 45F82630 		str	r3, [r5, r6, lsl #2]
 1238              	.LVL174:
 1239              	.L70:
 107:Middlewares/LVGL/GUI/lvgl/src/extra/widgets/tabview/lv_tabview.c ****     lv_btnmatrix_set_map(btns, (const char **)new_map);
 1240              		.loc 1 107 5 is_stmt 1 view .LVU345
 107:Middlewares/LVGL/GUI/lvgl/src/extra/widgets/tabview/lv_tabview.c ****     lv_btnmatrix_set_map(btns, (const char **)new_map);
 1241              		.loc 1 107 18 is_stmt 0 view .LVU346
 1242 0088 E562     		str	r5, [r4, #44]
 108:Middlewares/LVGL/GUI/lvgl/src/extra/widgets/tabview/lv_tabview.c ****     lv_mem_free(old_map);
 1243              		.loc 1 108 5 is_stmt 1 view .LVU347
 1244 008a 2946     		mov	r1, r5
 1245 008c 3846     		mov	r0, r7
ARM GAS  C:\Users\ADMINI~1\AppData\Local\Temp\ccbkt2w0.s 			page 46


 1246 008e FFF7FEFF 		bl	lv_btnmatrix_set_map
 1247              	.LVL175:
 109:Middlewares/LVGL/GUI/lvgl/src/extra/widgets/tabview/lv_tabview.c **** 
 1248              		.loc 1 109 5 view .LVU348
 1249 0092 5046     		mov	r0, r10
 1250 0094 FFF7FEFF 		bl	lv_mem_free
 1251              	.LVL176:
 111:Middlewares/LVGL/GUI/lvgl/src/extra/widgets/tabview/lv_tabview.c ****                                   LV_BTNMATRIX_CTRL_NO_REPEAT);
 1252              		.loc 1 111 5 view .LVU349
 1253 0098 4FF4A871 		mov	r1, #336
 1254 009c 3846     		mov	r0, r7
 1255 009e FFF7FEFF 		bl	lv_btnmatrix_set_btn_ctrl_all
 1256              	.LVL177:
 114:Middlewares/LVGL/GUI/lvgl/src/extra/widgets/tabview/lv_tabview.c ****     if(tabview->tab_cnt == 1) {
 1257              		.loc 1 114 5 view .LVU350
 114:Middlewares/LVGL/GUI/lvgl/src/extra/widgets/tabview/lv_tabview.c ****     if(tabview->tab_cnt == 1) {
 1258              		.loc 1 114 12 is_stmt 0 view .LVU351
 1259 00a2 238E     		ldrh	r3, [r4, #48]
 114:Middlewares/LVGL/GUI/lvgl/src/extra/widgets/tabview/lv_tabview.c ****     if(tabview->tab_cnt == 1) {
 1260              		.loc 1 114 21 view .LVU352
 1261 00a4 0133     		adds	r3, r3, #1
 1262 00a6 9BB2     		uxth	r3, r3
 1263 00a8 2386     		strh	r3, [r4, #48]	@ movhi
 115:Middlewares/LVGL/GUI/lvgl/src/extra/widgets/tabview/lv_tabview.c ****         lv_tabview_set_act(obj, 0, LV_ANIM_OFF);
 1264              		.loc 1 115 5 is_stmt 1 view .LVU353
 115:Middlewares/LVGL/GUI/lvgl/src/extra/widgets/tabview/lv_tabview.c ****         lv_tabview_set_act(obj, 0, LV_ANIM_OFF);
 1265              		.loc 1 115 7 is_stmt 0 view .LVU354
 1266 00aa 012B     		cmp	r3, #1
 1267 00ac 42D0     		beq	.L76
 1268              	.L74:
 119:Middlewares/LVGL/GUI/lvgl/src/extra/widgets/tabview/lv_tabview.c **** 
 1269              		.loc 1 119 5 is_stmt 1 view .LVU355
 1270 00ae 8022     		movs	r2, #128
 1271 00b0 618E     		ldrh	r1, [r4, #50]
 1272 00b2 3846     		mov	r0, r7
 1273 00b4 FFF7FEFF 		bl	lv_btnmatrix_set_btn_ctrl
 1274              	.LVL178:
 121:Middlewares/LVGL/GUI/lvgl/src/extra/widgets/tabview/lv_tabview.c **** }
 1275              		.loc 1 121 5 view .LVU356
 122:Middlewares/LVGL/GUI/lvgl/src/extra/widgets/tabview/lv_tabview.c **** 
 1276              		.loc 1 122 1 is_stmt 0 view .LVU357
 1277 00b8 4046     		mov	r0, r8
 1278 00ba BDE8F88F 		pop	{r3, r4, r5, r6, r7, r8, r9, r10, fp, pc}
 1279              	.LVL179:
 1280              	.L67:
  93:Middlewares/LVGL/GUI/lvgl/src/extra/widgets/tabview/lv_tabview.c ****         lv_memcpy_small(new_map, old_map, sizeof(const char *) * (tab_id - 1) * 2);
 1281              		.loc 1 93 9 is_stmt 1 view .LVU358
  93:Middlewares/LVGL/GUI/lvgl/src/extra/widgets/tabview/lv_tabview.c ****         lv_memcpy_small(new_map, old_map, sizeof(const char *) * (tab_id - 1) * 2);
 1282              		.loc 1 93 45 is_stmt 0 view .LVU359
 1283 00be 4FEAC60B 		lsl	fp, r6, #3
  93:Middlewares/LVGL/GUI/lvgl/src/extra/widgets/tabview/lv_tabview.c ****         lv_memcpy_small(new_map, old_map, sizeof(const char *) * (tab_id - 1) * 2);
 1284              		.loc 1 93 19 view .LVU360
 1285 00c2 5846     		mov	r0, fp
 1286              	.LVL180:
  93:Middlewares/LVGL/GUI/lvgl/src/extra/widgets/tabview/lv_tabview.c ****         lv_memcpy_small(new_map, old_map, sizeof(const char *) * (tab_id - 1) * 2);
 1287              		.loc 1 93 19 view .LVU361
 1288 00c4 FFF7FEFF 		bl	lv_mem_alloc
ARM GAS  C:\Users\ADMINI~1\AppData\Local\Temp\ccbkt2w0.s 			page 47


 1289              	.LVL181:
 1290 00c8 0546     		mov	r5, r0
 1291              	.LVL182:
  94:Middlewares/LVGL/GUI/lvgl/src/extra/widgets/tabview/lv_tabview.c ****         if(tabview->tab_cnt == 0) {
 1292              		.loc 1 94 9 is_stmt 1 view .LVU362
  94:Middlewares/LVGL/GUI/lvgl/src/extra/widgets/tabview/lv_tabview.c ****         if(tabview->tab_cnt == 0) {
 1293              		.loc 1 94 74 is_stmt 0 view .LVU363
 1294 00ca 731E     		subs	r3, r6, #1
  94:Middlewares/LVGL/GUI/lvgl/src/extra/widgets/tabview/lv_tabview.c ****         if(tabview->tab_cnt == 0) {
 1295              		.loc 1 94 79 view .LVU364
 1296 00cc DB00     		lsls	r3, r3, #3
 1297              	.LVL183:
 1298              	.LBB25:
 1299              	.LBI25:
 194:Middlewares/LVGL/GUI/lvgl/src/extra/widgets/tabview/../../../../src/misc/lv_mem.h **** {
 1300              		.loc 3 194 44 is_stmt 1 view .LVU365
 1301              	.LBB26:
 196:Middlewares/LVGL/GUI/lvgl/src/extra/widgets/tabview/../../../../src/misc/lv_mem.h ****     const uint8_t * s8 = (const uint8_t *)src;
 1302              		.loc 3 196 5 view .LVU366
 197:Middlewares/LVGL/GUI/lvgl/src/extra/widgets/tabview/../../../../src/misc/lv_mem.h **** 
 1303              		.loc 3 197 5 view .LVU367
 199:Middlewares/LVGL/GUI/lvgl/src/extra/widgets/tabview/../../../../src/misc/lv_mem.h ****         *d8 = *s8;
 1304              		.loc 3 199 5 view .LVU368
 197:Middlewares/LVGL/GUI/lvgl/src/extra/widgets/tabview/../../../../src/misc/lv_mem.h **** 
 1305              		.loc 3 197 21 is_stmt 0 view .LVU369
 1306 00ce 5146     		mov	r1, r10
 196:Middlewares/LVGL/GUI/lvgl/src/extra/widgets/tabview/../../../../src/misc/lv_mem.h ****     const uint8_t * s8 = (const uint8_t *)src;
 1307              		.loc 3 196 15 view .LVU370
 1308 00d0 0246     		mov	r2, r0
 199:Middlewares/LVGL/GUI/lvgl/src/extra/widgets/tabview/../../../../src/misc/lv_mem.h ****         *d8 = *s8;
 1309              		.loc 3 199 10 view .LVU371
 1310 00d2 04E0     		b	.L71
 1311              	.LVL184:
 1312              	.L72:
 200:Middlewares/LVGL/GUI/lvgl/src/extra/widgets/tabview/../../../../src/misc/lv_mem.h ****         d8++;
 1313              		.loc 3 200 9 is_stmt 1 view .LVU372
 200:Middlewares/LVGL/GUI/lvgl/src/extra/widgets/tabview/../../../../src/misc/lv_mem.h ****         d8++;
 1314              		.loc 3 200 15 is_stmt 0 view .LVU373
 1315 00d4 11F8010B 		ldrb	r0, [r1], #1	@ zero_extendqisi2
 1316              	.LVL185:
 200:Middlewares/LVGL/GUI/lvgl/src/extra/widgets/tabview/../../../../src/misc/lv_mem.h ****         d8++;
 1317              		.loc 3 200 13 view .LVU374
 1318 00d8 02F8010B 		strb	r0, [r2], #1
 1319              	.LVL186:
 201:Middlewares/LVGL/GUI/lvgl/src/extra/widgets/tabview/../../../../src/misc/lv_mem.h ****         s8++;
 1320              		.loc 3 201 9 is_stmt 1 view .LVU375
 202:Middlewares/LVGL/GUI/lvgl/src/extra/widgets/tabview/../../../../src/misc/lv_mem.h ****         len--;
 1321              		.loc 3 202 9 view .LVU376
 203:Middlewares/LVGL/GUI/lvgl/src/extra/widgets/tabview/../../../../src/misc/lv_mem.h ****     }
 1322              		.loc 3 203 9 view .LVU377
 203:Middlewares/LVGL/GUI/lvgl/src/extra/widgets/tabview/../../../../src/misc/lv_mem.h ****     }
 1323              		.loc 3 203 12 is_stmt 0 view .LVU378
 1324 00dc 013B     		subs	r3, r3, #1
 1325              	.LVL187:
 1326              	.L71:
 199:Middlewares/LVGL/GUI/lvgl/src/extra/widgets/tabview/../../../../src/misc/lv_mem.h ****         *d8 = *s8;
 1327              		.loc 3 199 10 is_stmt 1 view .LVU379
ARM GAS  C:\Users\ADMINI~1\AppData\Local\Temp\ccbkt2w0.s 			page 48


 1328 00de 002B     		cmp	r3, #0
 1329 00e0 F8D1     		bne	.L72
 1330              		.loc 3 206 5 view .LVU380
 1331              	.LVL188:
 1332              		.loc 3 206 5 is_stmt 0 view .LVU381
 1333              	.LBE26:
 1334              	.LBE25:
  95:Middlewares/LVGL/GUI/lvgl/src/extra/widgets/tabview/lv_tabview.c ****             new_map[0] = lv_mem_alloc(strlen(name) + 1);
 1335              		.loc 1 95 9 is_stmt 1 view .LVU382
  95:Middlewares/LVGL/GUI/lvgl/src/extra/widgets/tabview/lv_tabview.c ****             new_map[0] = lv_mem_alloc(strlen(name) + 1);
 1336              		.loc 1 95 19 is_stmt 0 view .LVU383
 1337 00e2 238E     		ldrh	r3, [r4, #48]
  95:Middlewares/LVGL/GUI/lvgl/src/extra/widgets/tabview/lv_tabview.c ****             new_map[0] = lv_mem_alloc(strlen(name) + 1);
 1338              		.loc 1 95 11 view .LVU384
 1339 00e4 63B9     		cbnz	r3, .L73
  96:Middlewares/LVGL/GUI/lvgl/src/extra/widgets/tabview/lv_tabview.c ****             strcpy((char *)new_map[0], name);
 1340              		.loc 1 96 13 is_stmt 1 view .LVU385
  96:Middlewares/LVGL/GUI/lvgl/src/extra/widgets/tabview/lv_tabview.c ****             strcpy((char *)new_map[0], name);
 1341              		.loc 1 96 39 is_stmt 0 view .LVU386
 1342 00e6 4846     		mov	r0, r9
 1343 00e8 FFF7FEFF 		bl	strlen
 1344              	.LVL189:
  96:Middlewares/LVGL/GUI/lvgl/src/extra/widgets/tabview/lv_tabview.c ****             strcpy((char *)new_map[0], name);
 1345              		.loc 1 96 26 view .LVU387
 1346 00ec 0130     		adds	r0, r0, #1
 1347 00ee FFF7FEFF 		bl	lv_mem_alloc
 1348              	.LVL190:
  96:Middlewares/LVGL/GUI/lvgl/src/extra/widgets/tabview/lv_tabview.c ****             strcpy((char *)new_map[0], name);
 1349              		.loc 1 96 24 view .LVU388
 1350 00f2 2860     		str	r0, [r5]
  97:Middlewares/LVGL/GUI/lvgl/src/extra/widgets/tabview/lv_tabview.c ****             new_map[1] = "";
 1351              		.loc 1 97 13 is_stmt 1 view .LVU389
 1352 00f4 4946     		mov	r1, r9
 1353 00f6 FFF7FEFF 		bl	strcpy
 1354              	.LVL191:
  98:Middlewares/LVGL/GUI/lvgl/src/extra/widgets/tabview/lv_tabview.c ****         }
 1355              		.loc 1 98 13 view .LVU390
  98:Middlewares/LVGL/GUI/lvgl/src/extra/widgets/tabview/lv_tabview.c ****         }
 1356              		.loc 1 98 24 is_stmt 0 view .LVU391
 1357 00fa 124B     		ldr	r3, .L77+4
 1358 00fc 6B60     		str	r3, [r5, #4]
 1359 00fe C3E7     		b	.L70
 1360              	.L73:
 101:Middlewares/LVGL/GUI/lvgl/src/extra/widgets/tabview/lv_tabview.c ****             new_map[tab_id * 2 - 2] = lv_mem_alloc(strlen(name) + 1);
 1361              		.loc 1 101 13 is_stmt 1 view .LVU392
 101:Middlewares/LVGL/GUI/lvgl/src/extra/widgets/tabview/lv_tabview.c ****             new_map[tab_id * 2 - 2] = lv_mem_alloc(strlen(name) + 1);
 1362              		.loc 1 101 20 is_stmt 0 view .LVU393
 1363 0100 ABF10C03 		sub	r3, fp, #12
 101:Middlewares/LVGL/GUI/lvgl/src/extra/widgets/tabview/lv_tabview.c ****             new_map[tab_id * 2 - 2] = lv_mem_alloc(strlen(name) + 1);
 1364              		.loc 1 101 37 view .LVU394
 1365 0104 104A     		ldr	r2, .L77+8
 1366 0106 EA50     		str	r2, [r5, r3]
 102:Middlewares/LVGL/GUI/lvgl/src/extra/widgets/tabview/lv_tabview.c ****             new_map[tab_id * 2 - 1] = "";
 1367              		.loc 1 102 13 is_stmt 1 view .LVU395
 102:Middlewares/LVGL/GUI/lvgl/src/extra/widgets/tabview/lv_tabview.c ****             new_map[tab_id * 2 - 1] = "";
 1368              		.loc 1 102 52 is_stmt 0 view .LVU396
 1369 0108 4846     		mov	r0, r9
ARM GAS  C:\Users\ADMINI~1\AppData\Local\Temp\ccbkt2w0.s 			page 49


 1370 010a FFF7FEFF 		bl	strlen
 1371              	.LVL192:
 102:Middlewares/LVGL/GUI/lvgl/src/extra/widgets/tabview/lv_tabview.c ****             new_map[tab_id * 2 - 1] = "";
 1372              		.loc 1 102 20 view .LVU397
 1373 010e 06F10056 		add	r6, r6, #536870912
 1374              	.LVL193:
 102:Middlewares/LVGL/GUI/lvgl/src/extra/widgets/tabview/lv_tabview.c ****             new_map[tab_id * 2 - 1] = "";
 1375              		.loc 1 102 20 view .LVU398
 1376 0112 013E     		subs	r6, r6, #1
 1377              	.LVL194:
 102:Middlewares/LVGL/GUI/lvgl/src/extra/widgets/tabview/lv_tabview.c ****             new_map[tab_id * 2 - 1] = "";
 1378              		.loc 1 102 39 view .LVU399
 1379 0114 0130     		adds	r0, r0, #1
 1380 0116 FFF7FEFF 		bl	lv_mem_alloc
 1381              	.LVL195:
 102:Middlewares/LVGL/GUI/lvgl/src/extra/widgets/tabview/lv_tabview.c ****             new_map[tab_id * 2 - 1] = "";
 1382              		.loc 1 102 37 view .LVU400
 1383 011a 45F83600 		str	r0, [r5, r6, lsl #3]
 103:Middlewares/LVGL/GUI/lvgl/src/extra/widgets/tabview/lv_tabview.c ****             strcpy((char *)new_map[(tab_id * 2) - 2], name);
 1384              		.loc 1 103 13 is_stmt 1 view .LVU401
 103:Middlewares/LVGL/GUI/lvgl/src/extra/widgets/tabview/lv_tabview.c ****             strcpy((char *)new_map[(tab_id * 2) - 2], name);
 1385              		.loc 1 103 20 is_stmt 0 view .LVU402
 1386 011e ABF1040B 		sub	fp, fp, #4
 103:Middlewares/LVGL/GUI/lvgl/src/extra/widgets/tabview/lv_tabview.c ****             strcpy((char *)new_map[(tab_id * 2) - 2], name);
 1387              		.loc 1 103 37 view .LVU403
 1388 0122 084B     		ldr	r3, .L77+4
 1389 0124 45F80B30 		str	r3, [r5, fp]
 104:Middlewares/LVGL/GUI/lvgl/src/extra/widgets/tabview/lv_tabview.c ****         }
 1390              		.loc 1 104 13 is_stmt 1 view .LVU404
 1391 0128 4946     		mov	r1, r9
 1392 012a 55F83600 		ldr	r0, [r5, r6, lsl #3]
 1393 012e FFF7FEFF 		bl	strcpy
 1394              	.LVL196:
 1395 0132 A9E7     		b	.L70
 1396              	.LVL197:
 1397              	.L76:
 116:Middlewares/LVGL/GUI/lvgl/src/extra/widgets/tabview/lv_tabview.c ****     }
 1398              		.loc 1 116 9 view .LVU405
 1399 0134 0022     		movs	r2, #0
 1400 0136 1146     		mov	r1, r2
 1401 0138 2046     		mov	r0, r4
 1402 013a FFF7FEFF 		bl	lv_tabview_set_act
 1403              	.LVL198:
 1404 013e B6E7     		b	.L74
 1405              	.L78:
 1406              		.align	2
 1407              	.L77:
 1408 0140 64000020 		.word	536871012
 1409 0144 00000000 		.word	.LC0
 1410 0148 00000000 		.word	.LC1
 1411              		.cfi_endproc
 1412              	.LFE197:
 1414              		.global	lv_tabview_class
 1415              		.section	.bss.tabpos_create,"aw",%nobits
 1416              		.set	.LANCHOR0,. + 0
 1419              	tabpos_create:
 1420 0000 00       		.space	1
ARM GAS  C:\Users\ADMINI~1\AppData\Local\Temp\ccbkt2w0.s 			page 50


 1421              		.section	.bss.tabsize_create,"aw",%nobits
 1422              		.align	2
 1423              		.set	.LANCHOR1,. + 0
 1426              	tabsize_create:
 1427 0000 00000000 		.space	4
 1428              		.section	.rodata.lv_tabview_class,"a"
 1429              		.align	2
 1430              		.set	.LANCHOR2,. + 0
 1433              	lv_tabview_class:
 1434 0000 00000000 		.word	lv_obj_class
 1435 0004 00000000 		.word	lv_tabview_constructor
 1436 0008 00000000 		.word	lv_tabview_destructor
 1437 000c 00000000 		.space	4
 1438 0010 00000000 		.word	lv_tabview_event
 1439 0014 64000020 		.word	536871012
 1440 0018 64000020 		.word	536871012
 1441 001c 80       		.byte	128
 1442 001d 03       		.byte	3
 1443 001e 00       		.byte	0
 1444 001f 00       		.space	1
 1445              		.text
 1446              	.Letext0:
 1447              		.file 4 "c:\\gnu arm embedded toolchain\\10 2021.10\\arm-none-eabi\\include\\machine\\_default_typ
 1448              		.file 5 "c:\\gnu arm embedded toolchain\\10 2021.10\\arm-none-eabi\\include\\sys\\_stdint.h"
 1449              		.file 6 "Middlewares/LVGL/GUI/lvgl/src/extra/widgets/tabview/../../../../src/misc/lv_types.h"
 1450              		.file 7 "c:\\gnu arm embedded toolchain\\10 2021.10\\lib\\gcc\\arm-none-eabi\\10.3.1\\include\\std
 1451              		.file 8 "Middlewares/LVGL/GUI/lvgl/src/extra/widgets/tabview/../../../../src/misc/lv_anim.h"
 1452              		.file 9 "Middlewares/LVGL/GUI/lvgl/src/extra/widgets/tabview/../../../../src/hal/../draw/../misc/.
 1453              		.file 10 "Middlewares/LVGL/GUI/lvgl/src/extra/widgets/tabview/../../../../src/hal/../draw/../misc/
 1454              		.file 11 "Middlewares/LVGL/GUI/lvgl/src/extra/widgets/tabview/../../../../src/hal/../draw/../misc/
 1455              		.file 12 "Middlewares/LVGL/GUI/lvgl/src/extra/widgets/tabview/../../../../src/hal/../draw/../misc/
 1456              		.file 13 "Middlewares/LVGL/GUI/lvgl/src/extra/widgets/tabview/../../../../src/core/lv_obj.h"
 1457              		.file 14 "Middlewares/LVGL/GUI/lvgl/src/extra/widgets/tabview/../../../../src/hal/../misc/lv_ll.h"
 1458              		.file 15 "Middlewares/LVGL/GUI/lvgl/src/extra/widgets/tabview/../../../../src/core/lv_group.h"
 1459              		.file 16 "Middlewares/LVGL/GUI/lvgl/src/extra/widgets/tabview/../../../../src/core/lv_obj_scroll.h
 1460              		.file 17 "Middlewares/LVGL/GUI/lvgl/src/extra/widgets/tabview/../../../../src/core/lv_obj_style.h"
 1461              		.file 18 "Middlewares/LVGL/GUI/lvgl/src/extra/widgets/tabview/../../../../src/core/lv_obj_class.h"
 1462              		.file 19 "Middlewares/LVGL/GUI/lvgl/src/extra/widgets/tabview/../../../../src/core/lv_event.h"
 1463              		.file 20 "Middlewares/LVGL/GUI/lvgl/src/extra/widgets/tabview/../../../../src/widgets/lv_bar.h"
 1464              		.file 21 "Middlewares/LVGL/GUI/lvgl/src/extra/widgets/tabview/../../../../src/widgets/lv_btnmatrix
 1465              		.file 22 "Middlewares/LVGL/GUI/lvgl/src/extra/widgets/tabview/../../../../src/extra/widgets/list/.
 1466              		.file 23 "Middlewares/LVGL/GUI/lvgl/src/extra/widgets/tabview/../../../../src/extra/widgets/imgbtn
 1467              		.file 24 "Middlewares/LVGL/GUI/lvgl/src/extra/widgets/tabview/lv_tabview.h"
 1468              		.file 25 "Middlewares/LVGL/GUI/lvgl/src/extra/widgets/tabview/../../../../src/hal/../draw/sw/../..
 1469              		.file 26 "Middlewares/LVGL/GUI/lvgl/src/extra/widgets/tabview/../../../../src/core/lv_obj_tree.h"
 1470              		.file 27 "c:\\gnu arm embedded toolchain\\10 2021.10\\arm-none-eabi\\include\\string.h"
ARM GAS  C:\Users\ADMINI~1\AppData\Local\Temp\ccbkt2w0.s 			page 51

