ARM GAS  C:\Users\ADMINI~1\AppData\Local\Temp\ccdXEc22.s 			page 1


   1              		.cpu cortex-m4
   2              		.arch armv7e-m
   3              		.fpu fpv4-sp-d16
   4              		.eabi_attribute 27, 1
   5              		.eabi_attribute 28, 1
   6              		.eabi_attribute 20, 1
   7              		.eabi_attribute 21, 1
   8              		.eabi_attribute 23, 3
   9              		.eabi_attribute 24, 1
  10              		.eabi_attribute 25, 1
  11              		.eabi_attribute 26, 1
  12              		.eabi_attribute 30, 1
  13              		.eabi_attribute 34, 1
  14              		.eabi_attribute 18, 4
  15              		.file	"lv_tileview.c"
  16              		.text
  17              	.Ltext0:
  18              		.cfi_sections	.debug_frame
  19              		.section	.text.lv_tileview_constructor,"ax",%progbits
  20              		.align	1
  21              		.syntax unified
  22              		.thumb
  23              		.thumb_func
  25              	lv_tileview_constructor:
  26              	.LVL0:
  27              	.LFB158:
  28              		.file 1 "Middlewares/LVGL/GUI/lvgl/src/extra/widgets/tileview/lv_tileview.c"
   1:Middlewares/LVGL/GUI/lvgl/src/extra/widgets/tileview/lv_tileview.c **** /**
   2:Middlewares/LVGL/GUI/lvgl/src/extra/widgets/tileview/lv_tileview.c ****  * @file lv_tileview.c
   3:Middlewares/LVGL/GUI/lvgl/src/extra/widgets/tileview/lv_tileview.c ****  *
   4:Middlewares/LVGL/GUI/lvgl/src/extra/widgets/tileview/lv_tileview.c ****  */
   5:Middlewares/LVGL/GUI/lvgl/src/extra/widgets/tileview/lv_tileview.c **** 
   6:Middlewares/LVGL/GUI/lvgl/src/extra/widgets/tileview/lv_tileview.c **** /*********************
   7:Middlewares/LVGL/GUI/lvgl/src/extra/widgets/tileview/lv_tileview.c ****  *      INCLUDES
   8:Middlewares/LVGL/GUI/lvgl/src/extra/widgets/tileview/lv_tileview.c ****  *********************/
   9:Middlewares/LVGL/GUI/lvgl/src/extra/widgets/tileview/lv_tileview.c **** #include "lv_tileview.h"
  10:Middlewares/LVGL/GUI/lvgl/src/extra/widgets/tileview/lv_tileview.c **** #if LV_USE_TILEVIEW
  11:Middlewares/LVGL/GUI/lvgl/src/extra/widgets/tileview/lv_tileview.c **** 
  12:Middlewares/LVGL/GUI/lvgl/src/extra/widgets/tileview/lv_tileview.c **** /*********************
  13:Middlewares/LVGL/GUI/lvgl/src/extra/widgets/tileview/lv_tileview.c ****  *      DEFINES
  14:Middlewares/LVGL/GUI/lvgl/src/extra/widgets/tileview/lv_tileview.c ****  *********************/
  15:Middlewares/LVGL/GUI/lvgl/src/extra/widgets/tileview/lv_tileview.c **** 
  16:Middlewares/LVGL/GUI/lvgl/src/extra/widgets/tileview/lv_tileview.c **** /**********************
  17:Middlewares/LVGL/GUI/lvgl/src/extra/widgets/tileview/lv_tileview.c ****  *      TYPEDEFS
  18:Middlewares/LVGL/GUI/lvgl/src/extra/widgets/tileview/lv_tileview.c ****  **********************/
  19:Middlewares/LVGL/GUI/lvgl/src/extra/widgets/tileview/lv_tileview.c **** 
  20:Middlewares/LVGL/GUI/lvgl/src/extra/widgets/tileview/lv_tileview.c **** /**********************
  21:Middlewares/LVGL/GUI/lvgl/src/extra/widgets/tileview/lv_tileview.c ****  *  STATIC PROTOTYPES
  22:Middlewares/LVGL/GUI/lvgl/src/extra/widgets/tileview/lv_tileview.c ****  **********************/
  23:Middlewares/LVGL/GUI/lvgl/src/extra/widgets/tileview/lv_tileview.c **** static void lv_tileview_constructor(const lv_obj_class_t * class_p, lv_obj_t * obj);
  24:Middlewares/LVGL/GUI/lvgl/src/extra/widgets/tileview/lv_tileview.c **** static void lv_tileview_tile_constructor(const lv_obj_class_t * class_p, lv_obj_t * obj);
  25:Middlewares/LVGL/GUI/lvgl/src/extra/widgets/tileview/lv_tileview.c **** static void tileview_event_cb(lv_event_t * e);
  26:Middlewares/LVGL/GUI/lvgl/src/extra/widgets/tileview/lv_tileview.c **** 
  27:Middlewares/LVGL/GUI/lvgl/src/extra/widgets/tileview/lv_tileview.c **** /**********************
  28:Middlewares/LVGL/GUI/lvgl/src/extra/widgets/tileview/lv_tileview.c ****  *  STATIC VARIABLES
  29:Middlewares/LVGL/GUI/lvgl/src/extra/widgets/tileview/lv_tileview.c ****  **********************/
  30:Middlewares/LVGL/GUI/lvgl/src/extra/widgets/tileview/lv_tileview.c **** 
ARM GAS  C:\Users\ADMINI~1\AppData\Local\Temp\ccdXEc22.s 			page 2


  31:Middlewares/LVGL/GUI/lvgl/src/extra/widgets/tileview/lv_tileview.c **** const lv_obj_class_t lv_tileview_class = {.constructor_cb = lv_tileview_constructor,
  32:Middlewares/LVGL/GUI/lvgl/src/extra/widgets/tileview/lv_tileview.c ****                                           .base_class = &lv_obj_class,
  33:Middlewares/LVGL/GUI/lvgl/src/extra/widgets/tileview/lv_tileview.c ****                                           .instance_size = sizeof(lv_tileview_t)
  34:Middlewares/LVGL/GUI/lvgl/src/extra/widgets/tileview/lv_tileview.c ****                                          };
  35:Middlewares/LVGL/GUI/lvgl/src/extra/widgets/tileview/lv_tileview.c **** 
  36:Middlewares/LVGL/GUI/lvgl/src/extra/widgets/tileview/lv_tileview.c **** const lv_obj_class_t lv_tileview_tile_class = {.constructor_cb = lv_tileview_tile_constructor,
  37:Middlewares/LVGL/GUI/lvgl/src/extra/widgets/tileview/lv_tileview.c ****                                                .base_class = &lv_obj_class,
  38:Middlewares/LVGL/GUI/lvgl/src/extra/widgets/tileview/lv_tileview.c ****                                                .instance_size = sizeof(lv_tileview_tile_t)
  39:Middlewares/LVGL/GUI/lvgl/src/extra/widgets/tileview/lv_tileview.c ****                                               };
  40:Middlewares/LVGL/GUI/lvgl/src/extra/widgets/tileview/lv_tileview.c **** 
  41:Middlewares/LVGL/GUI/lvgl/src/extra/widgets/tileview/lv_tileview.c **** static lv_dir_t create_dir;
  42:Middlewares/LVGL/GUI/lvgl/src/extra/widgets/tileview/lv_tileview.c **** static uint32_t create_col_id;
  43:Middlewares/LVGL/GUI/lvgl/src/extra/widgets/tileview/lv_tileview.c **** static uint32_t create_row_id;
  44:Middlewares/LVGL/GUI/lvgl/src/extra/widgets/tileview/lv_tileview.c **** 
  45:Middlewares/LVGL/GUI/lvgl/src/extra/widgets/tileview/lv_tileview.c **** /**********************
  46:Middlewares/LVGL/GUI/lvgl/src/extra/widgets/tileview/lv_tileview.c ****  *      MACROS
  47:Middlewares/LVGL/GUI/lvgl/src/extra/widgets/tileview/lv_tileview.c ****  **********************/
  48:Middlewares/LVGL/GUI/lvgl/src/extra/widgets/tileview/lv_tileview.c **** 
  49:Middlewares/LVGL/GUI/lvgl/src/extra/widgets/tileview/lv_tileview.c **** /**********************
  50:Middlewares/LVGL/GUI/lvgl/src/extra/widgets/tileview/lv_tileview.c ****  *   GLOBAL FUNCTIONS
  51:Middlewares/LVGL/GUI/lvgl/src/extra/widgets/tileview/lv_tileview.c ****  **********************/
  52:Middlewares/LVGL/GUI/lvgl/src/extra/widgets/tileview/lv_tileview.c **** 
  53:Middlewares/LVGL/GUI/lvgl/src/extra/widgets/tileview/lv_tileview.c **** lv_obj_t * lv_tileview_create(lv_obj_t * parent)
  54:Middlewares/LVGL/GUI/lvgl/src/extra/widgets/tileview/lv_tileview.c **** {
  55:Middlewares/LVGL/GUI/lvgl/src/extra/widgets/tileview/lv_tileview.c ****     LV_LOG_INFO("begin");
  56:Middlewares/LVGL/GUI/lvgl/src/extra/widgets/tileview/lv_tileview.c ****     lv_obj_t * obj = lv_obj_class_create_obj(&lv_tileview_class, parent);
  57:Middlewares/LVGL/GUI/lvgl/src/extra/widgets/tileview/lv_tileview.c ****     lv_obj_class_init_obj(obj);
  58:Middlewares/LVGL/GUI/lvgl/src/extra/widgets/tileview/lv_tileview.c ****     return obj;
  59:Middlewares/LVGL/GUI/lvgl/src/extra/widgets/tileview/lv_tileview.c **** }
  60:Middlewares/LVGL/GUI/lvgl/src/extra/widgets/tileview/lv_tileview.c **** 
  61:Middlewares/LVGL/GUI/lvgl/src/extra/widgets/tileview/lv_tileview.c **** /*======================
  62:Middlewares/LVGL/GUI/lvgl/src/extra/widgets/tileview/lv_tileview.c ****  * Add/remove functions
  63:Middlewares/LVGL/GUI/lvgl/src/extra/widgets/tileview/lv_tileview.c ****  *=====================*/
  64:Middlewares/LVGL/GUI/lvgl/src/extra/widgets/tileview/lv_tileview.c **** 
  65:Middlewares/LVGL/GUI/lvgl/src/extra/widgets/tileview/lv_tileview.c **** lv_obj_t * lv_tileview_add_tile(lv_obj_t * tv, uint8_t col_id, uint8_t row_id, lv_dir_t dir)
  66:Middlewares/LVGL/GUI/lvgl/src/extra/widgets/tileview/lv_tileview.c **** {
  67:Middlewares/LVGL/GUI/lvgl/src/extra/widgets/tileview/lv_tileview.c ****     LV_LOG_INFO("begin");
  68:Middlewares/LVGL/GUI/lvgl/src/extra/widgets/tileview/lv_tileview.c ****     create_dir = dir;
  69:Middlewares/LVGL/GUI/lvgl/src/extra/widgets/tileview/lv_tileview.c ****     create_col_id = col_id;
  70:Middlewares/LVGL/GUI/lvgl/src/extra/widgets/tileview/lv_tileview.c ****     create_row_id = row_id;
  71:Middlewares/LVGL/GUI/lvgl/src/extra/widgets/tileview/lv_tileview.c **** 
  72:Middlewares/LVGL/GUI/lvgl/src/extra/widgets/tileview/lv_tileview.c ****     lv_obj_t * obj = lv_obj_class_create_obj(&lv_tileview_tile_class, tv);
  73:Middlewares/LVGL/GUI/lvgl/src/extra/widgets/tileview/lv_tileview.c ****     lv_obj_class_init_obj(obj);
  74:Middlewares/LVGL/GUI/lvgl/src/extra/widgets/tileview/lv_tileview.c ****     return obj;
  75:Middlewares/LVGL/GUI/lvgl/src/extra/widgets/tileview/lv_tileview.c **** }
  76:Middlewares/LVGL/GUI/lvgl/src/extra/widgets/tileview/lv_tileview.c **** 
  77:Middlewares/LVGL/GUI/lvgl/src/extra/widgets/tileview/lv_tileview.c **** void lv_obj_set_tile(lv_obj_t * obj, lv_obj_t * tile_obj, lv_anim_enable_t anim_en)
  78:Middlewares/LVGL/GUI/lvgl/src/extra/widgets/tileview/lv_tileview.c **** {
  79:Middlewares/LVGL/GUI/lvgl/src/extra/widgets/tileview/lv_tileview.c ****     lv_coord_t tx = lv_obj_get_x(tile_obj);
  80:Middlewares/LVGL/GUI/lvgl/src/extra/widgets/tileview/lv_tileview.c ****     lv_coord_t ty = lv_obj_get_y(tile_obj);
  81:Middlewares/LVGL/GUI/lvgl/src/extra/widgets/tileview/lv_tileview.c **** 
  82:Middlewares/LVGL/GUI/lvgl/src/extra/widgets/tileview/lv_tileview.c ****     lv_tileview_tile_t * tile = (lv_tileview_tile_t *)tile_obj;
  83:Middlewares/LVGL/GUI/lvgl/src/extra/widgets/tileview/lv_tileview.c ****     lv_tileview_t * tv = (lv_tileview_t *) obj;
  84:Middlewares/LVGL/GUI/lvgl/src/extra/widgets/tileview/lv_tileview.c ****     tv->tile_act = (lv_obj_t *)tile;
  85:Middlewares/LVGL/GUI/lvgl/src/extra/widgets/tileview/lv_tileview.c **** 
  86:Middlewares/LVGL/GUI/lvgl/src/extra/widgets/tileview/lv_tileview.c ****     lv_obj_set_scroll_dir(obj, tile->dir);
  87:Middlewares/LVGL/GUI/lvgl/src/extra/widgets/tileview/lv_tileview.c ****     lv_obj_scroll_to(obj, tx, ty, anim_en);
ARM GAS  C:\Users\ADMINI~1\AppData\Local\Temp\ccdXEc22.s 			page 3


  88:Middlewares/LVGL/GUI/lvgl/src/extra/widgets/tileview/lv_tileview.c **** }
  89:Middlewares/LVGL/GUI/lvgl/src/extra/widgets/tileview/lv_tileview.c **** 
  90:Middlewares/LVGL/GUI/lvgl/src/extra/widgets/tileview/lv_tileview.c **** void lv_obj_set_tile_id(lv_obj_t * tv, uint32_t col_id, uint32_t row_id, lv_anim_enable_t anim_en)
  91:Middlewares/LVGL/GUI/lvgl/src/extra/widgets/tileview/lv_tileview.c **** {
  92:Middlewares/LVGL/GUI/lvgl/src/extra/widgets/tileview/lv_tileview.c ****     lv_obj_update_layout(tv);
  93:Middlewares/LVGL/GUI/lvgl/src/extra/widgets/tileview/lv_tileview.c **** 
  94:Middlewares/LVGL/GUI/lvgl/src/extra/widgets/tileview/lv_tileview.c ****     lv_coord_t w = lv_obj_get_content_width(tv);
  95:Middlewares/LVGL/GUI/lvgl/src/extra/widgets/tileview/lv_tileview.c ****     lv_coord_t h = lv_obj_get_content_height(tv);
  96:Middlewares/LVGL/GUI/lvgl/src/extra/widgets/tileview/lv_tileview.c **** 
  97:Middlewares/LVGL/GUI/lvgl/src/extra/widgets/tileview/lv_tileview.c ****     lv_coord_t tx = col_id * w;
  98:Middlewares/LVGL/GUI/lvgl/src/extra/widgets/tileview/lv_tileview.c ****     lv_coord_t ty = row_id * h;
  99:Middlewares/LVGL/GUI/lvgl/src/extra/widgets/tileview/lv_tileview.c **** 
 100:Middlewares/LVGL/GUI/lvgl/src/extra/widgets/tileview/lv_tileview.c ****     uint32_t i;
 101:Middlewares/LVGL/GUI/lvgl/src/extra/widgets/tileview/lv_tileview.c ****     for(i = 0; i < lv_obj_get_child_cnt(tv); i++) {
 102:Middlewares/LVGL/GUI/lvgl/src/extra/widgets/tileview/lv_tileview.c ****         lv_obj_t * tile_obj = lv_obj_get_child(tv, i);
 103:Middlewares/LVGL/GUI/lvgl/src/extra/widgets/tileview/lv_tileview.c ****         lv_coord_t x = lv_obj_get_x(tile_obj);
 104:Middlewares/LVGL/GUI/lvgl/src/extra/widgets/tileview/lv_tileview.c ****         lv_coord_t y = lv_obj_get_y(tile_obj);
 105:Middlewares/LVGL/GUI/lvgl/src/extra/widgets/tileview/lv_tileview.c ****         if(x == tx && y == ty) {
 106:Middlewares/LVGL/GUI/lvgl/src/extra/widgets/tileview/lv_tileview.c ****             lv_obj_set_tile(tv, tile_obj, anim_en);
 107:Middlewares/LVGL/GUI/lvgl/src/extra/widgets/tileview/lv_tileview.c ****             return;
 108:Middlewares/LVGL/GUI/lvgl/src/extra/widgets/tileview/lv_tileview.c ****         }
 109:Middlewares/LVGL/GUI/lvgl/src/extra/widgets/tileview/lv_tileview.c ****     }
 110:Middlewares/LVGL/GUI/lvgl/src/extra/widgets/tileview/lv_tileview.c **** 
 111:Middlewares/LVGL/GUI/lvgl/src/extra/widgets/tileview/lv_tileview.c ****     LV_LOG_WARN("No tile found with at (%d,%d) index", (int)col_id, (int)row_id);
 112:Middlewares/LVGL/GUI/lvgl/src/extra/widgets/tileview/lv_tileview.c **** }
 113:Middlewares/LVGL/GUI/lvgl/src/extra/widgets/tileview/lv_tileview.c **** 
 114:Middlewares/LVGL/GUI/lvgl/src/extra/widgets/tileview/lv_tileview.c **** lv_obj_t * lv_tileview_get_tile_act(lv_obj_t * obj)
 115:Middlewares/LVGL/GUI/lvgl/src/extra/widgets/tileview/lv_tileview.c **** {
 116:Middlewares/LVGL/GUI/lvgl/src/extra/widgets/tileview/lv_tileview.c ****     lv_tileview_t * tv = (lv_tileview_t *) obj;
 117:Middlewares/LVGL/GUI/lvgl/src/extra/widgets/tileview/lv_tileview.c ****     return tv->tile_act;
 118:Middlewares/LVGL/GUI/lvgl/src/extra/widgets/tileview/lv_tileview.c **** }
 119:Middlewares/LVGL/GUI/lvgl/src/extra/widgets/tileview/lv_tileview.c **** 
 120:Middlewares/LVGL/GUI/lvgl/src/extra/widgets/tileview/lv_tileview.c **** /**********************
 121:Middlewares/LVGL/GUI/lvgl/src/extra/widgets/tileview/lv_tileview.c ****  *   STATIC FUNCTIONS
 122:Middlewares/LVGL/GUI/lvgl/src/extra/widgets/tileview/lv_tileview.c ****  **********************/
 123:Middlewares/LVGL/GUI/lvgl/src/extra/widgets/tileview/lv_tileview.c **** 
 124:Middlewares/LVGL/GUI/lvgl/src/extra/widgets/tileview/lv_tileview.c **** static void lv_tileview_constructor(const lv_obj_class_t * class_p, lv_obj_t * obj)
 125:Middlewares/LVGL/GUI/lvgl/src/extra/widgets/tileview/lv_tileview.c **** {
  29              		.loc 1 125 1 view -0
  30              		.cfi_startproc
  31              		@ args = 0, pretend = 0, frame = 0
  32              		@ frame_needed = 0, uses_anonymous_args = 0
  33              		.loc 1 125 1 is_stmt 0 view .LVU1
  34 0000 10B5     		push	{r4, lr}
  35              	.LCFI0:
  36              		.cfi_def_cfa_offset 8
  37              		.cfi_offset 4, -8
  38              		.cfi_offset 14, -4
  39 0002 0C46     		mov	r4, r1
 126:Middlewares/LVGL/GUI/lvgl/src/extra/widgets/tileview/lv_tileview.c ****     LV_UNUSED(class_p);
  40              		.loc 1 126 5 is_stmt 1 view .LVU2
 127:Middlewares/LVGL/GUI/lvgl/src/extra/widgets/tileview/lv_tileview.c ****     lv_obj_set_size(obj, LV_PCT(100), LV_PCT(100));
  41              		.loc 1 127 5 view .LVU3
  42 0004 0B49     		ldr	r1, .L3
  43              	.LVL1:
  44              		.loc 1 127 5 is_stmt 0 view .LVU4
  45 0006 0A46     		mov	r2, r1
ARM GAS  C:\Users\ADMINI~1\AppData\Local\Temp\ccdXEc22.s 			page 4


  46 0008 2046     		mov	r0, r4
  47              	.LVL2:
  48              		.loc 1 127 5 view .LVU5
  49 000a FFF7FEFF 		bl	lv_obj_set_size
  50              	.LVL3:
 128:Middlewares/LVGL/GUI/lvgl/src/extra/widgets/tileview/lv_tileview.c ****     lv_obj_add_event_cb(obj, tileview_event_cb, LV_EVENT_ALL, NULL);
  51              		.loc 1 128 5 is_stmt 1 view .LVU6
  52 000e 0023     		movs	r3, #0
  53 0010 1A46     		mov	r2, r3
  54 0012 0949     		ldr	r1, .L3+4
  55 0014 2046     		mov	r0, r4
  56 0016 FFF7FEFF 		bl	lv_obj_add_event_cb
  57              	.LVL4:
 129:Middlewares/LVGL/GUI/lvgl/src/extra/widgets/tileview/lv_tileview.c ****     lv_obj_add_flag(obj, LV_OBJ_FLAG_SCROLL_ONE);
  58              		.loc 1 129 5 view .LVU7
  59 001a 8021     		movs	r1, #128
  60 001c 2046     		mov	r0, r4
  61 001e FFF7FEFF 		bl	lv_obj_add_flag
  62              	.LVL5:
 130:Middlewares/LVGL/GUI/lvgl/src/extra/widgets/tileview/lv_tileview.c ****     lv_obj_set_scroll_snap_x(obj, LV_SCROLL_SNAP_CENTER);
  63              		.loc 1 130 5 view .LVU8
  64 0022 0321     		movs	r1, #3
  65 0024 2046     		mov	r0, r4
  66 0026 FFF7FEFF 		bl	lv_obj_set_scroll_snap_x
  67              	.LVL6:
 131:Middlewares/LVGL/GUI/lvgl/src/extra/widgets/tileview/lv_tileview.c ****     lv_obj_set_scroll_snap_y(obj, LV_SCROLL_SNAP_CENTER);
  68              		.loc 1 131 5 view .LVU9
  69 002a 0321     		movs	r1, #3
  70 002c 2046     		mov	r0, r4
  71 002e FFF7FEFF 		bl	lv_obj_set_scroll_snap_y
  72              	.LVL7:
 132:Middlewares/LVGL/GUI/lvgl/src/extra/widgets/tileview/lv_tileview.c **** 
 133:Middlewares/LVGL/GUI/lvgl/src/extra/widgets/tileview/lv_tileview.c **** }
  73              		.loc 1 133 1 is_stmt 0 view .LVU10
  74 0032 10BD     		pop	{r4, pc}
  75              	.LVL8:
  76              	.L4:
  77              		.loc 1 133 1 view .LVU11
  78              		.align	2
  79              	.L3:
  80 0034 64000020 		.word	536871012
  81 0038 00000000 		.word	tileview_event_cb
  82              		.cfi_endproc
  83              	.LFE158:
  85              		.section	.text.tileview_event_cb,"ax",%progbits
  86              		.align	1
  87              		.syntax unified
  88              		.thumb
  89              		.thumb_func
  91              	tileview_event_cb:
  92              	.LVL9:
  93              	.LFB160:
 134:Middlewares/LVGL/GUI/lvgl/src/extra/widgets/tileview/lv_tileview.c **** 
 135:Middlewares/LVGL/GUI/lvgl/src/extra/widgets/tileview/lv_tileview.c **** static void lv_tileview_tile_constructor(const lv_obj_class_t * class_p, lv_obj_t * obj)
 136:Middlewares/LVGL/GUI/lvgl/src/extra/widgets/tileview/lv_tileview.c **** {
 137:Middlewares/LVGL/GUI/lvgl/src/extra/widgets/tileview/lv_tileview.c **** 
 138:Middlewares/LVGL/GUI/lvgl/src/extra/widgets/tileview/lv_tileview.c ****     LV_UNUSED(class_p);
ARM GAS  C:\Users\ADMINI~1\AppData\Local\Temp\ccdXEc22.s 			page 5


 139:Middlewares/LVGL/GUI/lvgl/src/extra/widgets/tileview/lv_tileview.c ****     lv_obj_t * parent = lv_obj_get_parent(obj);
 140:Middlewares/LVGL/GUI/lvgl/src/extra/widgets/tileview/lv_tileview.c ****     lv_obj_set_size(obj, LV_PCT(100), LV_PCT(100));
 141:Middlewares/LVGL/GUI/lvgl/src/extra/widgets/tileview/lv_tileview.c ****     lv_obj_update_layout(obj);  /*Be sure the size is correct*/
 142:Middlewares/LVGL/GUI/lvgl/src/extra/widgets/tileview/lv_tileview.c ****     lv_obj_set_pos(obj, create_col_id * lv_obj_get_content_width(parent),
 143:Middlewares/LVGL/GUI/lvgl/src/extra/widgets/tileview/lv_tileview.c ****                    create_row_id * lv_obj_get_content_height(parent));
 144:Middlewares/LVGL/GUI/lvgl/src/extra/widgets/tileview/lv_tileview.c **** 
 145:Middlewares/LVGL/GUI/lvgl/src/extra/widgets/tileview/lv_tileview.c ****     lv_tileview_tile_t * tile = (lv_tileview_tile_t *)obj;
 146:Middlewares/LVGL/GUI/lvgl/src/extra/widgets/tileview/lv_tileview.c ****     tile->dir = create_dir;
 147:Middlewares/LVGL/GUI/lvgl/src/extra/widgets/tileview/lv_tileview.c **** 
 148:Middlewares/LVGL/GUI/lvgl/src/extra/widgets/tileview/lv_tileview.c ****     if(create_col_id == 0 && create_row_id == 0) {
 149:Middlewares/LVGL/GUI/lvgl/src/extra/widgets/tileview/lv_tileview.c ****         lv_obj_set_scroll_dir(parent, create_dir);
 150:Middlewares/LVGL/GUI/lvgl/src/extra/widgets/tileview/lv_tileview.c ****     }
 151:Middlewares/LVGL/GUI/lvgl/src/extra/widgets/tileview/lv_tileview.c **** }
 152:Middlewares/LVGL/GUI/lvgl/src/extra/widgets/tileview/lv_tileview.c **** 
 153:Middlewares/LVGL/GUI/lvgl/src/extra/widgets/tileview/lv_tileview.c **** static void tileview_event_cb(lv_event_t * e)
 154:Middlewares/LVGL/GUI/lvgl/src/extra/widgets/tileview/lv_tileview.c **** {
  94              		.loc 1 154 1 is_stmt 1 view -0
  95              		.cfi_startproc
  96              		@ args = 0, pretend = 0, frame = 8
  97              		@ frame_needed = 0, uses_anonymous_args = 0
  98              		.loc 1 154 1 is_stmt 0 view .LVU13
  99 0000 2DE9F043 		push	{r4, r5, r6, r7, r8, r9, lr}
 100              	.LCFI1:
 101              		.cfi_def_cfa_offset 28
 102              		.cfi_offset 4, -28
 103              		.cfi_offset 5, -24
 104              		.cfi_offset 6, -20
 105              		.cfi_offset 7, -16
 106              		.cfi_offset 8, -12
 107              		.cfi_offset 9, -8
 108              		.cfi_offset 14, -4
 109 0004 83B0     		sub	sp, sp, #12
 110              	.LCFI2:
 111              		.cfi_def_cfa_offset 40
 112 0006 0546     		mov	r5, r0
 155:Middlewares/LVGL/GUI/lvgl/src/extra/widgets/tileview/lv_tileview.c ****     lv_event_code_t code = lv_event_get_code(e);
 113              		.loc 1 155 5 is_stmt 1 view .LVU14
 114              		.loc 1 155 28 is_stmt 0 view .LVU15
 115 0008 FFF7FEFF 		bl	lv_event_get_code
 116              	.LVL10:
 117              		.loc 1 155 28 view .LVU16
 118 000c 0446     		mov	r4, r0
 119              	.LVL11:
 156:Middlewares/LVGL/GUI/lvgl/src/extra/widgets/tileview/lv_tileview.c ****     lv_obj_t * obj = lv_event_get_target(e);
 120              		.loc 1 156 5 is_stmt 1 view .LVU17
 121              		.loc 1 156 22 is_stmt 0 view .LVU18
 122 000e 2846     		mov	r0, r5
 123 0010 FFF7FEFF 		bl	lv_event_get_target
 124              	.LVL12:
 157:Middlewares/LVGL/GUI/lvgl/src/extra/widgets/tileview/lv_tileview.c ****     lv_tileview_t * tv = (lv_tileview_t *) obj;
 125              		.loc 1 157 5 is_stmt 1 view .LVU19
 158:Middlewares/LVGL/GUI/lvgl/src/extra/widgets/tileview/lv_tileview.c **** 
 159:Middlewares/LVGL/GUI/lvgl/src/extra/widgets/tileview/lv_tileview.c ****     if(code == LV_EVENT_SCROLL_END) {
 126              		.loc 1 159 5 view .LVU20
 127              		.loc 1 159 7 is_stmt 0 view .LVU21
 128 0014 0A2C     		cmp	r4, #10
 129 0016 02D0     		beq	.L12
ARM GAS  C:\Users\ADMINI~1\AppData\Local\Temp\ccdXEc22.s 			page 6


 130              	.LVL13:
 131              	.L5:
 160:Middlewares/LVGL/GUI/lvgl/src/extra/widgets/tileview/lv_tileview.c ****         lv_coord_t w = lv_obj_get_content_width(obj);
 161:Middlewares/LVGL/GUI/lvgl/src/extra/widgets/tileview/lv_tileview.c ****         lv_coord_t h = lv_obj_get_content_height(obj);
 162:Middlewares/LVGL/GUI/lvgl/src/extra/widgets/tileview/lv_tileview.c **** 
 163:Middlewares/LVGL/GUI/lvgl/src/extra/widgets/tileview/lv_tileview.c ****         lv_point_t scroll_end;
 164:Middlewares/LVGL/GUI/lvgl/src/extra/widgets/tileview/lv_tileview.c ****         lv_obj_get_scroll_end(obj, &scroll_end);
 165:Middlewares/LVGL/GUI/lvgl/src/extra/widgets/tileview/lv_tileview.c ****         lv_coord_t left = scroll_end.x;
 166:Middlewares/LVGL/GUI/lvgl/src/extra/widgets/tileview/lv_tileview.c ****         lv_coord_t top = scroll_end.y;
 167:Middlewares/LVGL/GUI/lvgl/src/extra/widgets/tileview/lv_tileview.c **** 
 168:Middlewares/LVGL/GUI/lvgl/src/extra/widgets/tileview/lv_tileview.c ****         lv_coord_t tx = ((left + (w / 2)) / w) * w;
 169:Middlewares/LVGL/GUI/lvgl/src/extra/widgets/tileview/lv_tileview.c ****         lv_coord_t ty = ((top + (h / 2)) / h) * h;
 170:Middlewares/LVGL/GUI/lvgl/src/extra/widgets/tileview/lv_tileview.c **** 
 171:Middlewares/LVGL/GUI/lvgl/src/extra/widgets/tileview/lv_tileview.c ****         lv_dir_t dir = LV_DIR_ALL;
 172:Middlewares/LVGL/GUI/lvgl/src/extra/widgets/tileview/lv_tileview.c ****         uint32_t i;
 173:Middlewares/LVGL/GUI/lvgl/src/extra/widgets/tileview/lv_tileview.c ****         for(i = 0; i < lv_obj_get_child_cnt(obj); i++) {
 174:Middlewares/LVGL/GUI/lvgl/src/extra/widgets/tileview/lv_tileview.c ****             lv_obj_t * tile_obj = lv_obj_get_child(obj, i);
 175:Middlewares/LVGL/GUI/lvgl/src/extra/widgets/tileview/lv_tileview.c ****             lv_coord_t x = lv_obj_get_x(tile_obj);
 176:Middlewares/LVGL/GUI/lvgl/src/extra/widgets/tileview/lv_tileview.c ****             lv_coord_t y = lv_obj_get_y(tile_obj);
 177:Middlewares/LVGL/GUI/lvgl/src/extra/widgets/tileview/lv_tileview.c ****             if(x == tx && y == ty) {
 178:Middlewares/LVGL/GUI/lvgl/src/extra/widgets/tileview/lv_tileview.c ****                 lv_tileview_tile_t * tile = (lv_tileview_tile_t *)tile_obj;
 179:Middlewares/LVGL/GUI/lvgl/src/extra/widgets/tileview/lv_tileview.c ****                 tv->tile_act = (lv_obj_t *)tile;
 180:Middlewares/LVGL/GUI/lvgl/src/extra/widgets/tileview/lv_tileview.c ****                 dir = tile->dir;
 181:Middlewares/LVGL/GUI/lvgl/src/extra/widgets/tileview/lv_tileview.c ****                 lv_event_send(obj, LV_EVENT_VALUE_CHANGED, NULL);
 182:Middlewares/LVGL/GUI/lvgl/src/extra/widgets/tileview/lv_tileview.c ****                 break;
 183:Middlewares/LVGL/GUI/lvgl/src/extra/widgets/tileview/lv_tileview.c ****             }
 184:Middlewares/LVGL/GUI/lvgl/src/extra/widgets/tileview/lv_tileview.c ****         }
 185:Middlewares/LVGL/GUI/lvgl/src/extra/widgets/tileview/lv_tileview.c ****         lv_obj_set_scroll_dir(obj, dir);
 186:Middlewares/LVGL/GUI/lvgl/src/extra/widgets/tileview/lv_tileview.c ****     }
 187:Middlewares/LVGL/GUI/lvgl/src/extra/widgets/tileview/lv_tileview.c **** }
 132              		.loc 1 187 1 view .LVU22
 133 0018 03B0     		add	sp, sp, #12
 134              	.LCFI3:
 135              		.cfi_remember_state
 136              		.cfi_def_cfa_offset 28
 137              		@ sp needed
 138 001a BDE8F083 		pop	{r4, r5, r6, r7, r8, r9, pc}
 139              	.LVL14:
 140              	.L12:
 141              	.LCFI4:
 142              		.cfi_restore_state
 143              		.loc 1 187 1 view .LVU23
 144 001e 0746     		mov	r7, r0
 145              	.LBB2:
 160:Middlewares/LVGL/GUI/lvgl/src/extra/widgets/tileview/lv_tileview.c ****         lv_coord_t w = lv_obj_get_content_width(obj);
 146              		.loc 1 160 9 is_stmt 1 view .LVU24
 160:Middlewares/LVGL/GUI/lvgl/src/extra/widgets/tileview/lv_tileview.c ****         lv_coord_t w = lv_obj_get_content_width(obj);
 147              		.loc 1 160 24 is_stmt 0 view .LVU25
 148 0020 FFF7FEFF 		bl	lv_obj_get_content_width
 149              	.LVL15:
 160:Middlewares/LVGL/GUI/lvgl/src/extra/widgets/tileview/lv_tileview.c ****         lv_coord_t w = lv_obj_get_content_width(obj);
 150              		.loc 1 160 24 view .LVU26
 151 0024 0546     		mov	r5, r0
 152              	.LVL16:
 161:Middlewares/LVGL/GUI/lvgl/src/extra/widgets/tileview/lv_tileview.c **** 
 153              		.loc 1 161 9 is_stmt 1 view .LVU27
 161:Middlewares/LVGL/GUI/lvgl/src/extra/widgets/tileview/lv_tileview.c **** 
ARM GAS  C:\Users\ADMINI~1\AppData\Local\Temp\ccdXEc22.s 			page 7


 154              		.loc 1 161 24 is_stmt 0 view .LVU28
 155 0026 3846     		mov	r0, r7
 156              	.LVL17:
 161:Middlewares/LVGL/GUI/lvgl/src/extra/widgets/tileview/lv_tileview.c **** 
 157              		.loc 1 161 24 view .LVU29
 158 0028 FFF7FEFF 		bl	lv_obj_get_content_height
 159              	.LVL18:
 160 002c 0446     		mov	r4, r0
 161              	.LVL19:
 163:Middlewares/LVGL/GUI/lvgl/src/extra/widgets/tileview/lv_tileview.c ****         lv_obj_get_scroll_end(obj, &scroll_end);
 162              		.loc 1 163 9 is_stmt 1 view .LVU30
 164:Middlewares/LVGL/GUI/lvgl/src/extra/widgets/tileview/lv_tileview.c ****         lv_coord_t left = scroll_end.x;
 163              		.loc 1 164 9 view .LVU31
 164 002e 6946     		mov	r1, sp
 165 0030 3846     		mov	r0, r7
 166              	.LVL20:
 164:Middlewares/LVGL/GUI/lvgl/src/extra/widgets/tileview/lv_tileview.c ****         lv_coord_t left = scroll_end.x;
 167              		.loc 1 164 9 is_stmt 0 view .LVU32
 168 0032 FFF7FEFF 		bl	lv_obj_get_scroll_end
 169              	.LVL21:
 165:Middlewares/LVGL/GUI/lvgl/src/extra/widgets/tileview/lv_tileview.c ****         lv_coord_t top = scroll_end.y;
 170              		.loc 1 165 9 is_stmt 1 view .LVU33
 166:Middlewares/LVGL/GUI/lvgl/src/extra/widgets/tileview/lv_tileview.c **** 
 171              		.loc 1 166 9 view .LVU34
 168:Middlewares/LVGL/GUI/lvgl/src/extra/widgets/tileview/lv_tileview.c ****         lv_coord_t ty = ((top + (h / 2)) / h) * h;
 172              		.loc 1 168 9 view .LVU35
 168:Middlewares/LVGL/GUI/lvgl/src/extra/widgets/tileview/lv_tileview.c ****         lv_coord_t ty = ((top + (h / 2)) / h) * h;
 173              		.loc 1 168 37 is_stmt 0 view .LVU36
 174 0036 05EBD578 		add	r8, r5, r5, lsr #31
 168:Middlewares/LVGL/GUI/lvgl/src/extra/widgets/tileview/lv_tileview.c ****         lv_coord_t ty = ((top + (h / 2)) / h) * h;
 175              		.loc 1 168 32 view .LVU37
 176 003a 009B     		ldr	r3, [sp]
 177 003c 03EB6808 		add	r8, r3, r8, asr #1
 168:Middlewares/LVGL/GUI/lvgl/src/extra/widgets/tileview/lv_tileview.c ****         lv_coord_t ty = ((top + (h / 2)) / h) * h;
 178              		.loc 1 168 43 view .LVU38
 179 0040 98FBF5F8 		sdiv	r8, r8, r5
 168:Middlewares/LVGL/GUI/lvgl/src/extra/widgets/tileview/lv_tileview.c ****         lv_coord_t ty = ((top + (h / 2)) / h) * h;
 180              		.loc 1 168 20 view .LVU39
 181 0044 05FB08F8 		mul	r8, r5, r8
 182              	.LVL22:
 169:Middlewares/LVGL/GUI/lvgl/src/extra/widgets/tileview/lv_tileview.c **** 
 183              		.loc 1 169 9 is_stmt 1 view .LVU40
 169:Middlewares/LVGL/GUI/lvgl/src/extra/widgets/tileview/lv_tileview.c **** 
 184              		.loc 1 169 36 is_stmt 0 view .LVU41
 185 0048 04EBD479 		add	r9, r4, r4, lsr #31
 169:Middlewares/LVGL/GUI/lvgl/src/extra/widgets/tileview/lv_tileview.c **** 
 186              		.loc 1 169 31 view .LVU42
 187 004c 019B     		ldr	r3, [sp, #4]
 188 004e 03EB6909 		add	r9, r3, r9, asr #1
 169:Middlewares/LVGL/GUI/lvgl/src/extra/widgets/tileview/lv_tileview.c **** 
 189              		.loc 1 169 42 view .LVU43
 190 0052 99FBF4F9 		sdiv	r9, r9, r4
 169:Middlewares/LVGL/GUI/lvgl/src/extra/widgets/tileview/lv_tileview.c **** 
 191              		.loc 1 169 20 view .LVU44
 192 0056 04FB09F9 		mul	r9, r4, r9
 193              	.LVL23:
 171:Middlewares/LVGL/GUI/lvgl/src/extra/widgets/tileview/lv_tileview.c ****         uint32_t i;
ARM GAS  C:\Users\ADMINI~1\AppData\Local\Temp\ccdXEc22.s 			page 8


 194              		.loc 1 171 9 is_stmt 1 view .LVU45
 172:Middlewares/LVGL/GUI/lvgl/src/extra/widgets/tileview/lv_tileview.c ****         for(i = 0; i < lv_obj_get_child_cnt(obj); i++) {
 195              		.loc 1 172 9 view .LVU46
 173:Middlewares/LVGL/GUI/lvgl/src/extra/widgets/tileview/lv_tileview.c ****             lv_obj_t * tile_obj = lv_obj_get_child(obj, i);
 196              		.loc 1 173 9 view .LVU47
 173:Middlewares/LVGL/GUI/lvgl/src/extra/widgets/tileview/lv_tileview.c ****             lv_obj_t * tile_obj = lv_obj_get_child(obj, i);
 197              		.loc 1 173 15 is_stmt 0 view .LVU48
 198 005a 0024     		movs	r4, #0
 199              	.LVL24:
 173:Middlewares/LVGL/GUI/lvgl/src/extra/widgets/tileview/lv_tileview.c ****             lv_obj_t * tile_obj = lv_obj_get_child(obj, i);
 200              		.loc 1 173 9 view .LVU49
 201 005c 00E0     		b	.L7
 202              	.LVL25:
 203              	.L8:
 173:Middlewares/LVGL/GUI/lvgl/src/extra/widgets/tileview/lv_tileview.c ****             lv_obj_t * tile_obj = lv_obj_get_child(obj, i);
 204              		.loc 1 173 51 is_stmt 1 discriminator 2 view .LVU50
 173:Middlewares/LVGL/GUI/lvgl/src/extra/widgets/tileview/lv_tileview.c ****             lv_obj_t * tile_obj = lv_obj_get_child(obj, i);
 205              		.loc 1 173 52 is_stmt 0 discriminator 2 view .LVU51
 206 005e 0134     		adds	r4, r4, #1
 207              	.LVL26:
 208              	.L7:
 173:Middlewares/LVGL/GUI/lvgl/src/extra/widgets/tileview/lv_tileview.c ****             lv_obj_t * tile_obj = lv_obj_get_child(obj, i);
 209              		.loc 1 173 20 is_stmt 1 discriminator 1 view .LVU52
 173:Middlewares/LVGL/GUI/lvgl/src/extra/widgets/tileview/lv_tileview.c ****             lv_obj_t * tile_obj = lv_obj_get_child(obj, i);
 210              		.loc 1 173 24 is_stmt 0 discriminator 1 view .LVU53
 211 0060 3846     		mov	r0, r7
 212 0062 FFF7FEFF 		bl	lv_obj_get_child_cnt
 213              	.LVL27:
 173:Middlewares/LVGL/GUI/lvgl/src/extra/widgets/tileview/lv_tileview.c ****             lv_obj_t * tile_obj = lv_obj_get_child(obj, i);
 214              		.loc 1 173 9 discriminator 1 view .LVU54
 215 0066 A042     		cmp	r0, r4
 216 0068 17D9     		bls	.L13
 217              	.LBB3:
 174:Middlewares/LVGL/GUI/lvgl/src/extra/widgets/tileview/lv_tileview.c ****             lv_coord_t x = lv_obj_get_x(tile_obj);
 218              		.loc 1 174 13 is_stmt 1 view .LVU55
 174:Middlewares/LVGL/GUI/lvgl/src/extra/widgets/tileview/lv_tileview.c ****             lv_coord_t x = lv_obj_get_x(tile_obj);
 219              		.loc 1 174 35 is_stmt 0 view .LVU56
 220 006a 2146     		mov	r1, r4
 221 006c 3846     		mov	r0, r7
 222 006e FFF7FEFF 		bl	lv_obj_get_child
 223              	.LVL28:
 224 0072 0546     		mov	r5, r0
 225              	.LVL29:
 175:Middlewares/LVGL/GUI/lvgl/src/extra/widgets/tileview/lv_tileview.c ****             lv_coord_t y = lv_obj_get_y(tile_obj);
 226              		.loc 1 175 13 is_stmt 1 view .LVU57
 175:Middlewares/LVGL/GUI/lvgl/src/extra/widgets/tileview/lv_tileview.c ****             lv_coord_t y = lv_obj_get_y(tile_obj);
 227              		.loc 1 175 28 is_stmt 0 view .LVU58
 228 0074 FFF7FEFF 		bl	lv_obj_get_x
 229              	.LVL30:
 175:Middlewares/LVGL/GUI/lvgl/src/extra/widgets/tileview/lv_tileview.c ****             lv_coord_t y = lv_obj_get_y(tile_obj);
 230              		.loc 1 175 28 view .LVU59
 231 0078 0646     		mov	r6, r0
 232              	.LVL31:
 176:Middlewares/LVGL/GUI/lvgl/src/extra/widgets/tileview/lv_tileview.c ****             if(x == tx && y == ty) {
 233              		.loc 1 176 13 is_stmt 1 view .LVU60
 176:Middlewares/LVGL/GUI/lvgl/src/extra/widgets/tileview/lv_tileview.c ****             if(x == tx && y == ty) {
 234              		.loc 1 176 28 is_stmt 0 view .LVU61
ARM GAS  C:\Users\ADMINI~1\AppData\Local\Temp\ccdXEc22.s 			page 9


 235 007a 2846     		mov	r0, r5
 236              	.LVL32:
 176:Middlewares/LVGL/GUI/lvgl/src/extra/widgets/tileview/lv_tileview.c ****             if(x == tx && y == ty) {
 237              		.loc 1 176 28 view .LVU62
 238 007c FFF7FEFF 		bl	lv_obj_get_y
 239              	.LVL33:
 177:Middlewares/LVGL/GUI/lvgl/src/extra/widgets/tileview/lv_tileview.c ****                 lv_tileview_tile_t * tile = (lv_tileview_tile_t *)tile_obj;
 240              		.loc 1 177 13 is_stmt 1 view .LVU63
 177:Middlewares/LVGL/GUI/lvgl/src/extra/widgets/tileview/lv_tileview.c ****                 lv_tileview_tile_t * tile = (lv_tileview_tile_t *)tile_obj;
 241              		.loc 1 177 15 is_stmt 0 view .LVU64
 242 0080 B045     		cmp	r8, r6
 243 0082 ECD1     		bne	.L8
 177:Middlewares/LVGL/GUI/lvgl/src/extra/widgets/tileview/lv_tileview.c ****                 lv_tileview_tile_t * tile = (lv_tileview_tile_t *)tile_obj;
 244              		.loc 1 177 24 discriminator 1 view .LVU65
 245 0084 8145     		cmp	r9, r0
 246 0086 EAD1     		bne	.L8
 247              	.LBB4:
 178:Middlewares/LVGL/GUI/lvgl/src/extra/widgets/tileview/lv_tileview.c ****                 tv->tile_act = (lv_obj_t *)tile;
 248              		.loc 1 178 17 is_stmt 1 view .LVU66
 249              	.LVL34:
 179:Middlewares/LVGL/GUI/lvgl/src/extra/widgets/tileview/lv_tileview.c ****                 dir = tile->dir;
 250              		.loc 1 179 17 view .LVU67
 179:Middlewares/LVGL/GUI/lvgl/src/extra/widgets/tileview/lv_tileview.c ****                 dir = tile->dir;
 251              		.loc 1 179 30 is_stmt 0 view .LVU68
 252 0088 FD62     		str	r5, [r7, #44]
 180:Middlewares/LVGL/GUI/lvgl/src/extra/widgets/tileview/lv_tileview.c ****                 lv_event_send(obj, LV_EVENT_VALUE_CHANGED, NULL);
 253              		.loc 1 180 17 is_stmt 1 view .LVU69
 180:Middlewares/LVGL/GUI/lvgl/src/extra/widgets/tileview/lv_tileview.c ****                 lv_event_send(obj, LV_EVENT_VALUE_CHANGED, NULL);
 254              		.loc 1 180 21 is_stmt 0 view .LVU70
 255 008a 95F82C40 		ldrb	r4, [r5, #44]	@ zero_extendqisi2
 256              	.LVL35:
 181:Middlewares/LVGL/GUI/lvgl/src/extra/widgets/tileview/lv_tileview.c ****                 break;
 257              		.loc 1 181 17 is_stmt 1 view .LVU71
 258 008e 0022     		movs	r2, #0
 259 0090 1C21     		movs	r1, #28
 260 0092 3846     		mov	r0, r7
 261              	.LVL36:
 181:Middlewares/LVGL/GUI/lvgl/src/extra/widgets/tileview/lv_tileview.c ****                 break;
 262              		.loc 1 181 17 is_stmt 0 view .LVU72
 263 0094 FFF7FEFF 		bl	lv_event_send
 264              	.LVL37:
 182:Middlewares/LVGL/GUI/lvgl/src/extra/widgets/tileview/lv_tileview.c ****             }
 265              		.loc 1 182 17 is_stmt 1 view .LVU73
 266 0098 00E0     		b	.L9
 267              	.LVL38:
 268              	.L13:
 182:Middlewares/LVGL/GUI/lvgl/src/extra/widgets/tileview/lv_tileview.c ****             }
 269              		.loc 1 182 17 is_stmt 0 view .LVU74
 270              	.LBE4:
 271              	.LBE3:
 171:Middlewares/LVGL/GUI/lvgl/src/extra/widgets/tileview/lv_tileview.c ****         uint32_t i;
 272              		.loc 1 171 18 view .LVU75
 273 009a 0F24     		movs	r4, #15
 274              	.LVL39:
 275              	.L9:
 185:Middlewares/LVGL/GUI/lvgl/src/extra/widgets/tileview/lv_tileview.c ****     }
 276              		.loc 1 185 9 is_stmt 1 view .LVU76
ARM GAS  C:\Users\ADMINI~1\AppData\Local\Temp\ccdXEc22.s 			page 10


 277 009c 2146     		mov	r1, r4
 278 009e 3846     		mov	r0, r7
 279 00a0 FFF7FEFF 		bl	lv_obj_set_scroll_dir
 280              	.LVL40:
 281              	.LBE2:
 282              		.loc 1 187 1 is_stmt 0 view .LVU77
 283 00a4 B8E7     		b	.L5
 284              		.cfi_endproc
 285              	.LFE160:
 287              		.section	.text.lv_tileview_tile_constructor,"ax",%progbits
 288              		.align	1
 289              		.syntax unified
 290              		.thumb
 291              		.thumb_func
 293              	lv_tileview_tile_constructor:
 294              	.LVL41:
 295              	.LFB159:
 136:Middlewares/LVGL/GUI/lvgl/src/extra/widgets/tileview/lv_tileview.c **** 
 296              		.loc 1 136 1 is_stmt 1 view -0
 297              		.cfi_startproc
 298              		@ args = 0, pretend = 0, frame = 0
 299              		@ frame_needed = 0, uses_anonymous_args = 0
 136:Middlewares/LVGL/GUI/lvgl/src/extra/widgets/tileview/lv_tileview.c **** 
 300              		.loc 1 136 1 is_stmt 0 view .LVU79
 301 0000 F8B5     		push	{r3, r4, r5, r6, r7, lr}
 302              	.LCFI5:
 303              		.cfi_def_cfa_offset 24
 304              		.cfi_offset 3, -24
 305              		.cfi_offset 4, -20
 306              		.cfi_offset 5, -16
 307              		.cfi_offset 6, -12
 308              		.cfi_offset 7, -8
 309              		.cfi_offset 14, -4
 310 0002 0C46     		mov	r4, r1
 138:Middlewares/LVGL/GUI/lvgl/src/extra/widgets/tileview/lv_tileview.c ****     lv_obj_t * parent = lv_obj_get_parent(obj);
 311              		.loc 1 138 5 is_stmt 1 view .LVU80
 139:Middlewares/LVGL/GUI/lvgl/src/extra/widgets/tileview/lv_tileview.c ****     lv_obj_set_size(obj, LV_PCT(100), LV_PCT(100));
 312              		.loc 1 139 5 view .LVU81
 139:Middlewares/LVGL/GUI/lvgl/src/extra/widgets/tileview/lv_tileview.c ****     lv_obj_set_size(obj, LV_PCT(100), LV_PCT(100));
 313              		.loc 1 139 25 is_stmt 0 view .LVU82
 314 0004 0846     		mov	r0, r1
 315              	.LVL42:
 139:Middlewares/LVGL/GUI/lvgl/src/extra/widgets/tileview/lv_tileview.c ****     lv_obj_set_size(obj, LV_PCT(100), LV_PCT(100));
 316              		.loc 1 139 25 view .LVU83
 317 0006 FFF7FEFF 		bl	lv_obj_get_parent
 318              	.LVL43:
 139:Middlewares/LVGL/GUI/lvgl/src/extra/widgets/tileview/lv_tileview.c ****     lv_obj_set_size(obj, LV_PCT(100), LV_PCT(100));
 319              		.loc 1 139 25 view .LVU84
 320 000a 0546     		mov	r5, r0
 321              	.LVL44:
 140:Middlewares/LVGL/GUI/lvgl/src/extra/widgets/tileview/lv_tileview.c ****     lv_obj_update_layout(obj);  /*Be sure the size is correct*/
 322              		.loc 1 140 5 is_stmt 1 view .LVU85
 323 000c 1349     		ldr	r1, .L18
 324 000e 0A46     		mov	r2, r1
 325 0010 2046     		mov	r0, r4
 326              	.LVL45:
 140:Middlewares/LVGL/GUI/lvgl/src/extra/widgets/tileview/lv_tileview.c ****     lv_obj_update_layout(obj);  /*Be sure the size is correct*/
ARM GAS  C:\Users\ADMINI~1\AppData\Local\Temp\ccdXEc22.s 			page 11


 327              		.loc 1 140 5 is_stmt 0 view .LVU86
 328 0012 FFF7FEFF 		bl	lv_obj_set_size
 329              	.LVL46:
 141:Middlewares/LVGL/GUI/lvgl/src/extra/widgets/tileview/lv_tileview.c ****     lv_obj_set_pos(obj, create_col_id * lv_obj_get_content_width(parent),
 330              		.loc 1 141 5 is_stmt 1 view .LVU87
 331 0016 2046     		mov	r0, r4
 332 0018 FFF7FEFF 		bl	lv_obj_update_layout
 333              	.LVL47:
 142:Middlewares/LVGL/GUI/lvgl/src/extra/widgets/tileview/lv_tileview.c ****                    create_row_id * lv_obj_get_content_height(parent));
 334              		.loc 1 142 5 view .LVU88
 142:Middlewares/LVGL/GUI/lvgl/src/extra/widgets/tileview/lv_tileview.c ****                    create_row_id * lv_obj_get_content_height(parent));
 335              		.loc 1 142 41 is_stmt 0 view .LVU89
 336 001c 2846     		mov	r0, r5
 337 001e FFF7FEFF 		bl	lv_obj_get_content_width
 338              	.LVL48:
 142:Middlewares/LVGL/GUI/lvgl/src/extra/widgets/tileview/lv_tileview.c ****                    create_row_id * lv_obj_get_content_height(parent));
 339              		.loc 1 142 39 view .LVU90
 340 0022 0F4F     		ldr	r7, .L18+4
 341 0024 3E68     		ldr	r6, [r7]
 342 0026 00FB06F6 		mul	r6, r0, r6
 143:Middlewares/LVGL/GUI/lvgl/src/extra/widgets/tileview/lv_tileview.c **** 
 343              		.loc 1 143 36 view .LVU91
 344 002a 2846     		mov	r0, r5
 345 002c FFF7FEFF 		bl	lv_obj_get_content_height
 346              	.LVL49:
 143:Middlewares/LVGL/GUI/lvgl/src/extra/widgets/tileview/lv_tileview.c **** 
 347              		.loc 1 143 34 view .LVU92
 348 0030 0C4B     		ldr	r3, .L18+8
 349 0032 1A68     		ldr	r2, [r3]
 142:Middlewares/LVGL/GUI/lvgl/src/extra/widgets/tileview/lv_tileview.c ****                    create_row_id * lv_obj_get_content_height(parent));
 350              		.loc 1 142 5 view .LVU93
 351 0034 00FB02F2 		mul	r2, r0, r2
 352 0038 3146     		mov	r1, r6
 353 003a 2046     		mov	r0, r4
 354 003c FFF7FEFF 		bl	lv_obj_set_pos
 355              	.LVL50:
 145:Middlewares/LVGL/GUI/lvgl/src/extra/widgets/tileview/lv_tileview.c ****     tile->dir = create_dir;
 356              		.loc 1 145 5 is_stmt 1 view .LVU94
 146:Middlewares/LVGL/GUI/lvgl/src/extra/widgets/tileview/lv_tileview.c **** 
 357              		.loc 1 146 5 view .LVU95
 146:Middlewares/LVGL/GUI/lvgl/src/extra/widgets/tileview/lv_tileview.c **** 
 358              		.loc 1 146 15 is_stmt 0 view .LVU96
 359 0040 094B     		ldr	r3, .L18+12
 360 0042 1978     		ldrb	r1, [r3]	@ zero_extendqisi2
 361 0044 84F82C10 		strb	r1, [r4, #44]
 148:Middlewares/LVGL/GUI/lvgl/src/extra/widgets/tileview/lv_tileview.c ****         lv_obj_set_scroll_dir(parent, create_dir);
 362              		.loc 1 148 5 is_stmt 1 view .LVU97
 148:Middlewares/LVGL/GUI/lvgl/src/extra/widgets/tileview/lv_tileview.c ****         lv_obj_set_scroll_dir(parent, create_dir);
 363              		.loc 1 148 22 is_stmt 0 view .LVU98
 364 0048 3B68     		ldr	r3, [r7]
 148:Middlewares/LVGL/GUI/lvgl/src/extra/widgets/tileview/lv_tileview.c ****         lv_obj_set_scroll_dir(parent, create_dir);
 365              		.loc 1 148 7 view .LVU99
 366 004a 13B9     		cbnz	r3, .L14
 148:Middlewares/LVGL/GUI/lvgl/src/extra/widgets/tileview/lv_tileview.c ****         lv_obj_set_scroll_dir(parent, create_dir);
 367              		.loc 1 148 44 discriminator 1 view .LVU100
 368 004c 054B     		ldr	r3, .L18+8
 369 004e 1B68     		ldr	r3, [r3]
ARM GAS  C:\Users\ADMINI~1\AppData\Local\Temp\ccdXEc22.s 			page 12


 148:Middlewares/LVGL/GUI/lvgl/src/extra/widgets/tileview/lv_tileview.c ****         lv_obj_set_scroll_dir(parent, create_dir);
 370              		.loc 1 148 27 discriminator 1 view .LVU101
 371 0050 03B1     		cbz	r3, .L17
 372              	.L14:
 151:Middlewares/LVGL/GUI/lvgl/src/extra/widgets/tileview/lv_tileview.c **** 
 373              		.loc 1 151 1 view .LVU102
 374 0052 F8BD     		pop	{r3, r4, r5, r6, r7, pc}
 375              	.LVL51:
 376              	.L17:
 149:Middlewares/LVGL/GUI/lvgl/src/extra/widgets/tileview/lv_tileview.c ****     }
 377              		.loc 1 149 9 is_stmt 1 view .LVU103
 378 0054 2846     		mov	r0, r5
 379 0056 FFF7FEFF 		bl	lv_obj_set_scroll_dir
 380              	.LVL52:
 151:Middlewares/LVGL/GUI/lvgl/src/extra/widgets/tileview/lv_tileview.c **** 
 381              		.loc 1 151 1 is_stmt 0 view .LVU104
 382 005a FAE7     		b	.L14
 383              	.L19:
 384              		.align	2
 385              	.L18:
 386 005c 64000020 		.word	536871012
 387 0060 00000000 		.word	.LANCHOR0
 388 0064 00000000 		.word	.LANCHOR1
 389 0068 00000000 		.word	.LANCHOR2
 390              		.cfi_endproc
 391              	.LFE159:
 393              		.section	.text.lv_tileview_create,"ax",%progbits
 394              		.align	1
 395              		.global	lv_tileview_create
 396              		.syntax unified
 397              		.thumb
 398              		.thumb_func
 400              	lv_tileview_create:
 401              	.LVL53:
 402              	.LFB153:
  54:Middlewares/LVGL/GUI/lvgl/src/extra/widgets/tileview/lv_tileview.c ****     LV_LOG_INFO("begin");
 403              		.loc 1 54 1 is_stmt 1 view -0
 404              		.cfi_startproc
 405              		@ args = 0, pretend = 0, frame = 0
 406              		@ frame_needed = 0, uses_anonymous_args = 0
  54:Middlewares/LVGL/GUI/lvgl/src/extra/widgets/tileview/lv_tileview.c ****     LV_LOG_INFO("begin");
 407              		.loc 1 54 1 is_stmt 0 view .LVU106
 408 0000 10B5     		push	{r4, lr}
 409              	.LCFI6:
 410              		.cfi_def_cfa_offset 8
 411              		.cfi_offset 4, -8
 412              		.cfi_offset 14, -4
 413 0002 0146     		mov	r1, r0
  55:Middlewares/LVGL/GUI/lvgl/src/extra/widgets/tileview/lv_tileview.c ****     lv_obj_t * obj = lv_obj_class_create_obj(&lv_tileview_class, parent);
 414              		.loc 1 55 5 is_stmt 1 view .LVU107
  55:Middlewares/LVGL/GUI/lvgl/src/extra/widgets/tileview/lv_tileview.c ****     lv_obj_t * obj = lv_obj_class_create_obj(&lv_tileview_class, parent);
 415              		.loc 1 55 5 view .LVU108
  55:Middlewares/LVGL/GUI/lvgl/src/extra/widgets/tileview/lv_tileview.c ****     lv_obj_t * obj = lv_obj_class_create_obj(&lv_tileview_class, parent);
 416              		.loc 1 55 5 view .LVU109
  56:Middlewares/LVGL/GUI/lvgl/src/extra/widgets/tileview/lv_tileview.c ****     lv_obj_class_init_obj(obj);
 417              		.loc 1 56 5 view .LVU110
  56:Middlewares/LVGL/GUI/lvgl/src/extra/widgets/tileview/lv_tileview.c ****     lv_obj_class_init_obj(obj);
ARM GAS  C:\Users\ADMINI~1\AppData\Local\Temp\ccdXEc22.s 			page 13


 418              		.loc 1 56 22 is_stmt 0 view .LVU111
 419 0004 0348     		ldr	r0, .L22
 420              	.LVL54:
  56:Middlewares/LVGL/GUI/lvgl/src/extra/widgets/tileview/lv_tileview.c ****     lv_obj_class_init_obj(obj);
 421              		.loc 1 56 22 view .LVU112
 422 0006 FFF7FEFF 		bl	lv_obj_class_create_obj
 423              	.LVL55:
  56:Middlewares/LVGL/GUI/lvgl/src/extra/widgets/tileview/lv_tileview.c ****     lv_obj_class_init_obj(obj);
 424              		.loc 1 56 22 view .LVU113
 425 000a 0446     		mov	r4, r0
 426              	.LVL56:
  57:Middlewares/LVGL/GUI/lvgl/src/extra/widgets/tileview/lv_tileview.c ****     return obj;
 427              		.loc 1 57 5 is_stmt 1 view .LVU114
 428 000c FFF7FEFF 		bl	lv_obj_class_init_obj
 429              	.LVL57:
  58:Middlewares/LVGL/GUI/lvgl/src/extra/widgets/tileview/lv_tileview.c **** }
 430              		.loc 1 58 5 view .LVU115
  59:Middlewares/LVGL/GUI/lvgl/src/extra/widgets/tileview/lv_tileview.c **** 
 431              		.loc 1 59 1 is_stmt 0 view .LVU116
 432 0010 2046     		mov	r0, r4
 433 0012 10BD     		pop	{r4, pc}
 434              	.LVL58:
 435              	.L23:
  59:Middlewares/LVGL/GUI/lvgl/src/extra/widgets/tileview/lv_tileview.c **** 
 436              		.loc 1 59 1 view .LVU117
 437              		.align	2
 438              	.L22:
 439 0014 00000000 		.word	.LANCHOR3
 440              		.cfi_endproc
 441              	.LFE153:
 443              		.section	.text.lv_tileview_add_tile,"ax",%progbits
 444              		.align	1
 445              		.global	lv_tileview_add_tile
 446              		.syntax unified
 447              		.thumb
 448              		.thumb_func
 450              	lv_tileview_add_tile:
 451              	.LVL59:
 452              	.LFB154:
  66:Middlewares/LVGL/GUI/lvgl/src/extra/widgets/tileview/lv_tileview.c ****     LV_LOG_INFO("begin");
 453              		.loc 1 66 1 is_stmt 1 view -0
 454              		.cfi_startproc
 455              		@ args = 0, pretend = 0, frame = 0
 456              		@ frame_needed = 0, uses_anonymous_args = 0
  66:Middlewares/LVGL/GUI/lvgl/src/extra/widgets/tileview/lv_tileview.c ****     LV_LOG_INFO("begin");
 457              		.loc 1 66 1 is_stmt 0 view .LVU119
 458 0000 10B5     		push	{r4, lr}
 459              	.LCFI7:
 460              		.cfi_def_cfa_offset 8
 461              		.cfi_offset 4, -8
 462              		.cfi_offset 14, -4
  67:Middlewares/LVGL/GUI/lvgl/src/extra/widgets/tileview/lv_tileview.c ****     create_dir = dir;
 463              		.loc 1 67 5 is_stmt 1 view .LVU120
  67:Middlewares/LVGL/GUI/lvgl/src/extra/widgets/tileview/lv_tileview.c ****     create_dir = dir;
 464              		.loc 1 67 5 view .LVU121
  67:Middlewares/LVGL/GUI/lvgl/src/extra/widgets/tileview/lv_tileview.c ****     create_dir = dir;
 465              		.loc 1 67 5 view .LVU122
ARM GAS  C:\Users\ADMINI~1\AppData\Local\Temp\ccdXEc22.s 			page 14


  68:Middlewares/LVGL/GUI/lvgl/src/extra/widgets/tileview/lv_tileview.c ****     create_col_id = col_id;
 466              		.loc 1 68 5 view .LVU123
  68:Middlewares/LVGL/GUI/lvgl/src/extra/widgets/tileview/lv_tileview.c ****     create_col_id = col_id;
 467              		.loc 1 68 16 is_stmt 0 view .LVU124
 468 0002 074C     		ldr	r4, .L26
 469 0004 2370     		strb	r3, [r4]
  69:Middlewares/LVGL/GUI/lvgl/src/extra/widgets/tileview/lv_tileview.c ****     create_row_id = row_id;
 470              		.loc 1 69 5 is_stmt 1 view .LVU125
  69:Middlewares/LVGL/GUI/lvgl/src/extra/widgets/tileview/lv_tileview.c ****     create_row_id = row_id;
 471              		.loc 1 69 19 is_stmt 0 view .LVU126
 472 0006 074B     		ldr	r3, .L26+4
 473              	.LVL60:
  69:Middlewares/LVGL/GUI/lvgl/src/extra/widgets/tileview/lv_tileview.c ****     create_row_id = row_id;
 474              		.loc 1 69 19 view .LVU127
 475 0008 1960     		str	r1, [r3]
  70:Middlewares/LVGL/GUI/lvgl/src/extra/widgets/tileview/lv_tileview.c **** 
 476              		.loc 1 70 5 is_stmt 1 view .LVU128
  70:Middlewares/LVGL/GUI/lvgl/src/extra/widgets/tileview/lv_tileview.c **** 
 477              		.loc 1 70 19 is_stmt 0 view .LVU129
 478 000a 074B     		ldr	r3, .L26+8
 479 000c 1A60     		str	r2, [r3]
  72:Middlewares/LVGL/GUI/lvgl/src/extra/widgets/tileview/lv_tileview.c ****     lv_obj_class_init_obj(obj);
 480              		.loc 1 72 5 is_stmt 1 view .LVU130
  72:Middlewares/LVGL/GUI/lvgl/src/extra/widgets/tileview/lv_tileview.c ****     lv_obj_class_init_obj(obj);
 481              		.loc 1 72 22 is_stmt 0 view .LVU131
 482 000e 0146     		mov	r1, r0
 483              	.LVL61:
  72:Middlewares/LVGL/GUI/lvgl/src/extra/widgets/tileview/lv_tileview.c ****     lv_obj_class_init_obj(obj);
 484              		.loc 1 72 22 view .LVU132
 485 0010 0648     		ldr	r0, .L26+12
 486              	.LVL62:
  72:Middlewares/LVGL/GUI/lvgl/src/extra/widgets/tileview/lv_tileview.c ****     lv_obj_class_init_obj(obj);
 487              		.loc 1 72 22 view .LVU133
 488 0012 FFF7FEFF 		bl	lv_obj_class_create_obj
 489              	.LVL63:
  72:Middlewares/LVGL/GUI/lvgl/src/extra/widgets/tileview/lv_tileview.c ****     lv_obj_class_init_obj(obj);
 490              		.loc 1 72 22 view .LVU134
 491 0016 0446     		mov	r4, r0
 492              	.LVL64:
  73:Middlewares/LVGL/GUI/lvgl/src/extra/widgets/tileview/lv_tileview.c ****     return obj;
 493              		.loc 1 73 5 is_stmt 1 view .LVU135
 494 0018 FFF7FEFF 		bl	lv_obj_class_init_obj
 495              	.LVL65:
  74:Middlewares/LVGL/GUI/lvgl/src/extra/widgets/tileview/lv_tileview.c **** }
 496              		.loc 1 74 5 view .LVU136
  75:Middlewares/LVGL/GUI/lvgl/src/extra/widgets/tileview/lv_tileview.c **** 
 497              		.loc 1 75 1 is_stmt 0 view .LVU137
 498 001c 2046     		mov	r0, r4
 499 001e 10BD     		pop	{r4, pc}
 500              	.LVL66:
 501              	.L27:
  75:Middlewares/LVGL/GUI/lvgl/src/extra/widgets/tileview/lv_tileview.c **** 
 502              		.loc 1 75 1 view .LVU138
 503              		.align	2
 504              	.L26:
 505 0020 00000000 		.word	.LANCHOR2
 506 0024 00000000 		.word	.LANCHOR0
ARM GAS  C:\Users\ADMINI~1\AppData\Local\Temp\ccdXEc22.s 			page 15


 507 0028 00000000 		.word	.LANCHOR1
 508 002c 00000000 		.word	.LANCHOR4
 509              		.cfi_endproc
 510              	.LFE154:
 512              		.section	.text.lv_obj_set_tile,"ax",%progbits
 513              		.align	1
 514              		.global	lv_obj_set_tile
 515              		.syntax unified
 516              		.thumb
 517              		.thumb_func
 519              	lv_obj_set_tile:
 520              	.LVL67:
 521              	.LFB155:
  78:Middlewares/LVGL/GUI/lvgl/src/extra/widgets/tileview/lv_tileview.c ****     lv_coord_t tx = lv_obj_get_x(tile_obj);
 522              		.loc 1 78 1 is_stmt 1 view -0
 523              		.cfi_startproc
 524              		@ args = 0, pretend = 0, frame = 0
 525              		@ frame_needed = 0, uses_anonymous_args = 0
  78:Middlewares/LVGL/GUI/lvgl/src/extra/widgets/tileview/lv_tileview.c ****     lv_coord_t tx = lv_obj_get_x(tile_obj);
 526              		.loc 1 78 1 is_stmt 0 view .LVU140
 527 0000 2DE9F041 		push	{r4, r5, r6, r7, r8, lr}
 528              	.LCFI8:
 529              		.cfi_def_cfa_offset 24
 530              		.cfi_offset 4, -24
 531              		.cfi_offset 5, -20
 532              		.cfi_offset 6, -16
 533              		.cfi_offset 7, -12
 534              		.cfi_offset 8, -8
 535              		.cfi_offset 14, -4
 536 0004 0546     		mov	r5, r0
 537 0006 0C46     		mov	r4, r1
 538 0008 9046     		mov	r8, r2
  79:Middlewares/LVGL/GUI/lvgl/src/extra/widgets/tileview/lv_tileview.c ****     lv_coord_t ty = lv_obj_get_y(tile_obj);
 539              		.loc 1 79 5 is_stmt 1 view .LVU141
  79:Middlewares/LVGL/GUI/lvgl/src/extra/widgets/tileview/lv_tileview.c ****     lv_coord_t ty = lv_obj_get_y(tile_obj);
 540              		.loc 1 79 21 is_stmt 0 view .LVU142
 541 000a 0846     		mov	r0, r1
 542              	.LVL68:
  79:Middlewares/LVGL/GUI/lvgl/src/extra/widgets/tileview/lv_tileview.c ****     lv_coord_t ty = lv_obj_get_y(tile_obj);
 543              		.loc 1 79 21 view .LVU143
 544 000c FFF7FEFF 		bl	lv_obj_get_x
 545              	.LVL69:
  79:Middlewares/LVGL/GUI/lvgl/src/extra/widgets/tileview/lv_tileview.c ****     lv_coord_t ty = lv_obj_get_y(tile_obj);
 546              		.loc 1 79 21 view .LVU144
 547 0010 0646     		mov	r6, r0
 548              	.LVL70:
  80:Middlewares/LVGL/GUI/lvgl/src/extra/widgets/tileview/lv_tileview.c **** 
 549              		.loc 1 80 5 is_stmt 1 view .LVU145
  80:Middlewares/LVGL/GUI/lvgl/src/extra/widgets/tileview/lv_tileview.c **** 
 550              		.loc 1 80 21 is_stmt 0 view .LVU146
 551 0012 2046     		mov	r0, r4
 552              	.LVL71:
  80:Middlewares/LVGL/GUI/lvgl/src/extra/widgets/tileview/lv_tileview.c **** 
 553              		.loc 1 80 21 view .LVU147
 554 0014 FFF7FEFF 		bl	lv_obj_get_y
 555              	.LVL72:
 556 0018 0746     		mov	r7, r0
ARM GAS  C:\Users\ADMINI~1\AppData\Local\Temp\ccdXEc22.s 			page 16


 557              	.LVL73:
  82:Middlewares/LVGL/GUI/lvgl/src/extra/widgets/tileview/lv_tileview.c ****     lv_tileview_t * tv = (lv_tileview_t *) obj;
 558              		.loc 1 82 5 is_stmt 1 view .LVU148
  83:Middlewares/LVGL/GUI/lvgl/src/extra/widgets/tileview/lv_tileview.c ****     tv->tile_act = (lv_obj_t *)tile;
 559              		.loc 1 83 5 view .LVU149
  84:Middlewares/LVGL/GUI/lvgl/src/extra/widgets/tileview/lv_tileview.c **** 
 560              		.loc 1 84 5 view .LVU150
  84:Middlewares/LVGL/GUI/lvgl/src/extra/widgets/tileview/lv_tileview.c **** 
 561              		.loc 1 84 18 is_stmt 0 view .LVU151
 562 001a EC62     		str	r4, [r5, #44]
  86:Middlewares/LVGL/GUI/lvgl/src/extra/widgets/tileview/lv_tileview.c ****     lv_obj_scroll_to(obj, tx, ty, anim_en);
 563              		.loc 1 86 5 is_stmt 1 view .LVU152
 564 001c 94F82C10 		ldrb	r1, [r4, #44]	@ zero_extendqisi2
 565 0020 2846     		mov	r0, r5
 566              	.LVL74:
  86:Middlewares/LVGL/GUI/lvgl/src/extra/widgets/tileview/lv_tileview.c ****     lv_obj_scroll_to(obj, tx, ty, anim_en);
 567              		.loc 1 86 5 is_stmt 0 view .LVU153
 568 0022 FFF7FEFF 		bl	lv_obj_set_scroll_dir
 569              	.LVL75:
  87:Middlewares/LVGL/GUI/lvgl/src/extra/widgets/tileview/lv_tileview.c **** }
 570              		.loc 1 87 5 is_stmt 1 view .LVU154
 571 0026 4346     		mov	r3, r8
 572 0028 3A46     		mov	r2, r7
 573 002a 3146     		mov	r1, r6
 574 002c 2846     		mov	r0, r5
 575 002e FFF7FEFF 		bl	lv_obj_scroll_to
 576              	.LVL76:
  88:Middlewares/LVGL/GUI/lvgl/src/extra/widgets/tileview/lv_tileview.c **** 
 577              		.loc 1 88 1 is_stmt 0 view .LVU155
 578 0032 BDE8F081 		pop	{r4, r5, r6, r7, r8, pc}
  88:Middlewares/LVGL/GUI/lvgl/src/extra/widgets/tileview/lv_tileview.c **** 
 579              		.loc 1 88 1 view .LVU156
 580              		.cfi_endproc
 581              	.LFE155:
 583              		.section	.text.lv_obj_set_tile_id,"ax",%progbits
 584              		.align	1
 585              		.global	lv_obj_set_tile_id
 586              		.syntax unified
 587              		.thumb
 588              		.thumb_func
 590              	lv_obj_set_tile_id:
 591              	.LVL77:
 592              	.LFB156:
  91:Middlewares/LVGL/GUI/lvgl/src/extra/widgets/tileview/lv_tileview.c ****     lv_obj_update_layout(tv);
 593              		.loc 1 91 1 is_stmt 1 view -0
 594              		.cfi_startproc
 595              		@ args = 0, pretend = 0, frame = 0
 596              		@ frame_needed = 0, uses_anonymous_args = 0
  91:Middlewares/LVGL/GUI/lvgl/src/extra/widgets/tileview/lv_tileview.c ****     lv_obj_update_layout(tv);
 597              		.loc 1 91 1 is_stmt 0 view .LVU158
 598 0000 2DE9F047 		push	{r4, r5, r6, r7, r8, r9, r10, lr}
 599              	.LCFI9:
 600              		.cfi_def_cfa_offset 32
 601              		.cfi_offset 4, -32
 602              		.cfi_offset 5, -28
 603              		.cfi_offset 6, -24
 604              		.cfi_offset 7, -20
ARM GAS  C:\Users\ADMINI~1\AppData\Local\Temp\ccdXEc22.s 			page 17


 605              		.cfi_offset 8, -16
 606              		.cfi_offset 9, -12
 607              		.cfi_offset 10, -8
 608              		.cfi_offset 14, -4
 609 0004 0746     		mov	r7, r0
 610 0006 0C46     		mov	r4, r1
 611 0008 9146     		mov	r9, r2
 612 000a 9A46     		mov	r10, r3
  92:Middlewares/LVGL/GUI/lvgl/src/extra/widgets/tileview/lv_tileview.c **** 
 613              		.loc 1 92 5 is_stmt 1 view .LVU159
 614 000c FFF7FEFF 		bl	lv_obj_update_layout
 615              	.LVL78:
  94:Middlewares/LVGL/GUI/lvgl/src/extra/widgets/tileview/lv_tileview.c ****     lv_coord_t h = lv_obj_get_content_height(tv);
 616              		.loc 1 94 5 view .LVU160
  94:Middlewares/LVGL/GUI/lvgl/src/extra/widgets/tileview/lv_tileview.c ****     lv_coord_t h = lv_obj_get_content_height(tv);
 617              		.loc 1 94 20 is_stmt 0 view .LVU161
 618 0010 3846     		mov	r0, r7
 619 0012 FFF7FEFF 		bl	lv_obj_get_content_width
 620              	.LVL79:
 621 0016 8046     		mov	r8, r0
 622              	.LVL80:
  95:Middlewares/LVGL/GUI/lvgl/src/extra/widgets/tileview/lv_tileview.c **** 
 623              		.loc 1 95 5 is_stmt 1 view .LVU162
  95:Middlewares/LVGL/GUI/lvgl/src/extra/widgets/tileview/lv_tileview.c **** 
 624              		.loc 1 95 20 is_stmt 0 view .LVU163
 625 0018 3846     		mov	r0, r7
 626              	.LVL81:
  95:Middlewares/LVGL/GUI/lvgl/src/extra/widgets/tileview/lv_tileview.c **** 
 627              		.loc 1 95 20 view .LVU164
 628 001a FFF7FEFF 		bl	lv_obj_get_content_height
 629              	.LVL82:
  97:Middlewares/LVGL/GUI/lvgl/src/extra/widgets/tileview/lv_tileview.c ****     lv_coord_t ty = row_id * h;
 630              		.loc 1 97 5 is_stmt 1 view .LVU165
  97:Middlewares/LVGL/GUI/lvgl/src/extra/widgets/tileview/lv_tileview.c ****     lv_coord_t ty = row_id * h;
 631              		.loc 1 97 28 is_stmt 0 view .LVU166
 632 001e 04FB08F8 		mul	r8, r4, r8
 633              	.LVL83:
  98:Middlewares/LVGL/GUI/lvgl/src/extra/widgets/tileview/lv_tileview.c **** 
 634              		.loc 1 98 5 is_stmt 1 view .LVU167
  98:Middlewares/LVGL/GUI/lvgl/src/extra/widgets/tileview/lv_tileview.c **** 
 635              		.loc 1 98 28 is_stmt 0 view .LVU168
 636 0022 09FB00F9 		mul	r9, r9, r0
 637              	.LVL84:
 100:Middlewares/LVGL/GUI/lvgl/src/extra/widgets/tileview/lv_tileview.c ****     for(i = 0; i < lv_obj_get_child_cnt(tv); i++) {
 638              		.loc 1 100 5 is_stmt 1 view .LVU169
 101:Middlewares/LVGL/GUI/lvgl/src/extra/widgets/tileview/lv_tileview.c ****         lv_obj_t * tile_obj = lv_obj_get_child(tv, i);
 639              		.loc 1 101 5 view .LVU170
 101:Middlewares/LVGL/GUI/lvgl/src/extra/widgets/tileview/lv_tileview.c ****         lv_obj_t * tile_obj = lv_obj_get_child(tv, i);
 640              		.loc 1 101 11 is_stmt 0 view .LVU171
 641 0026 0024     		movs	r4, #0
 642              	.LVL85:
 101:Middlewares/LVGL/GUI/lvgl/src/extra/widgets/tileview/lv_tileview.c ****         lv_obj_t * tile_obj = lv_obj_get_child(tv, i);
 643              		.loc 1 101 5 view .LVU172
 644 0028 00E0     		b	.L31
 645              	.LVL86:
 646              	.L32:
 101:Middlewares/LVGL/GUI/lvgl/src/extra/widgets/tileview/lv_tileview.c ****         lv_obj_t * tile_obj = lv_obj_get_child(tv, i);
ARM GAS  C:\Users\ADMINI~1\AppData\Local\Temp\ccdXEc22.s 			page 18


 647              		.loc 1 101 46 is_stmt 1 discriminator 2 view .LVU173
 101:Middlewares/LVGL/GUI/lvgl/src/extra/widgets/tileview/lv_tileview.c ****         lv_obj_t * tile_obj = lv_obj_get_child(tv, i);
 648              		.loc 1 101 47 is_stmt 0 discriminator 2 view .LVU174
 649 002a 0134     		adds	r4, r4, #1
 650              	.LVL87:
 651              	.L31:
 101:Middlewares/LVGL/GUI/lvgl/src/extra/widgets/tileview/lv_tileview.c ****         lv_obj_t * tile_obj = lv_obj_get_child(tv, i);
 652              		.loc 1 101 16 is_stmt 1 discriminator 1 view .LVU175
 101:Middlewares/LVGL/GUI/lvgl/src/extra/widgets/tileview/lv_tileview.c ****         lv_obj_t * tile_obj = lv_obj_get_child(tv, i);
 653              		.loc 1 101 20 is_stmt 0 discriminator 1 view .LVU176
 654 002c 3846     		mov	r0, r7
 655 002e FFF7FEFF 		bl	lv_obj_get_child_cnt
 656              	.LVL88:
 101:Middlewares/LVGL/GUI/lvgl/src/extra/widgets/tileview/lv_tileview.c ****         lv_obj_t * tile_obj = lv_obj_get_child(tv, i);
 657              		.loc 1 101 5 discriminator 1 view .LVU177
 658 0032 A042     		cmp	r0, r4
 659 0034 13D9     		bls	.L30
 660              	.LBB5:
 102:Middlewares/LVGL/GUI/lvgl/src/extra/widgets/tileview/lv_tileview.c ****         lv_coord_t x = lv_obj_get_x(tile_obj);
 661              		.loc 1 102 9 is_stmt 1 view .LVU178
 102:Middlewares/LVGL/GUI/lvgl/src/extra/widgets/tileview/lv_tileview.c ****         lv_coord_t x = lv_obj_get_x(tile_obj);
 662              		.loc 1 102 31 is_stmt 0 view .LVU179
 663 0036 2146     		mov	r1, r4
 664 0038 3846     		mov	r0, r7
 665 003a FFF7FEFF 		bl	lv_obj_get_child
 666              	.LVL89:
 667 003e 0546     		mov	r5, r0
 668              	.LVL90:
 103:Middlewares/LVGL/GUI/lvgl/src/extra/widgets/tileview/lv_tileview.c ****         lv_coord_t y = lv_obj_get_y(tile_obj);
 669              		.loc 1 103 9 is_stmt 1 view .LVU180
 103:Middlewares/LVGL/GUI/lvgl/src/extra/widgets/tileview/lv_tileview.c ****         lv_coord_t y = lv_obj_get_y(tile_obj);
 670              		.loc 1 103 24 is_stmt 0 view .LVU181
 671 0040 FFF7FEFF 		bl	lv_obj_get_x
 672              	.LVL91:
 103:Middlewares/LVGL/GUI/lvgl/src/extra/widgets/tileview/lv_tileview.c ****         lv_coord_t y = lv_obj_get_y(tile_obj);
 673              		.loc 1 103 24 view .LVU182
 674 0044 0646     		mov	r6, r0
 675              	.LVL92:
 104:Middlewares/LVGL/GUI/lvgl/src/extra/widgets/tileview/lv_tileview.c ****         if(x == tx && y == ty) {
 676              		.loc 1 104 9 is_stmt 1 view .LVU183
 104:Middlewares/LVGL/GUI/lvgl/src/extra/widgets/tileview/lv_tileview.c ****         if(x == tx && y == ty) {
 677              		.loc 1 104 24 is_stmt 0 view .LVU184
 678 0046 2846     		mov	r0, r5
 679              	.LVL93:
 104:Middlewares/LVGL/GUI/lvgl/src/extra/widgets/tileview/lv_tileview.c ****         if(x == tx && y == ty) {
 680              		.loc 1 104 24 view .LVU185
 681 0048 FFF7FEFF 		bl	lv_obj_get_y
 682              	.LVL94:
 105:Middlewares/LVGL/GUI/lvgl/src/extra/widgets/tileview/lv_tileview.c ****             lv_obj_set_tile(tv, tile_obj, anim_en);
 683              		.loc 1 105 9 is_stmt 1 view .LVU186
 105:Middlewares/LVGL/GUI/lvgl/src/extra/widgets/tileview/lv_tileview.c ****             lv_obj_set_tile(tv, tile_obj, anim_en);
 684              		.loc 1 105 11 is_stmt 0 view .LVU187
 685 004c B045     		cmp	r8, r6
 686 004e ECD1     		bne	.L32
 105:Middlewares/LVGL/GUI/lvgl/src/extra/widgets/tileview/lv_tileview.c ****             lv_obj_set_tile(tv, tile_obj, anim_en);
 687              		.loc 1 105 20 discriminator 1 view .LVU188
 688 0050 8145     		cmp	r9, r0
ARM GAS  C:\Users\ADMINI~1\AppData\Local\Temp\ccdXEc22.s 			page 19


 689 0052 EAD1     		bne	.L32
 106:Middlewares/LVGL/GUI/lvgl/src/extra/widgets/tileview/lv_tileview.c ****             return;
 690              		.loc 1 106 13 is_stmt 1 view .LVU189
 691 0054 5246     		mov	r2, r10
 692 0056 2946     		mov	r1, r5
 693 0058 3846     		mov	r0, r7
 694              	.LVL95:
 106:Middlewares/LVGL/GUI/lvgl/src/extra/widgets/tileview/lv_tileview.c ****             return;
 695              		.loc 1 106 13 is_stmt 0 view .LVU190
 696 005a FFF7FEFF 		bl	lv_obj_set_tile
 697              	.LVL96:
 107:Middlewares/LVGL/GUI/lvgl/src/extra/widgets/tileview/lv_tileview.c ****         }
 698              		.loc 1 107 13 is_stmt 1 view .LVU191
 699              	.L30:
 107:Middlewares/LVGL/GUI/lvgl/src/extra/widgets/tileview/lv_tileview.c ****         }
 700              		.loc 1 107 13 is_stmt 0 view .LVU192
 701              	.LBE5:
 112:Middlewares/LVGL/GUI/lvgl/src/extra/widgets/tileview/lv_tileview.c **** 
 702              		.loc 1 112 1 view .LVU193
 703 005e BDE8F087 		pop	{r4, r5, r6, r7, r8, r9, r10, pc}
 112:Middlewares/LVGL/GUI/lvgl/src/extra/widgets/tileview/lv_tileview.c **** 
 704              		.loc 1 112 1 view .LVU194
 705              		.cfi_endproc
 706              	.LFE156:
 708              		.section	.text.lv_tileview_get_tile_act,"ax",%progbits
 709              		.align	1
 710              		.global	lv_tileview_get_tile_act
 711              		.syntax unified
 712              		.thumb
 713              		.thumb_func
 715              	lv_tileview_get_tile_act:
 716              	.LVL97:
 717              	.LFB157:
 115:Middlewares/LVGL/GUI/lvgl/src/extra/widgets/tileview/lv_tileview.c ****     lv_tileview_t * tv = (lv_tileview_t *) obj;
 718              		.loc 1 115 1 is_stmt 1 view -0
 719              		.cfi_startproc
 720              		@ args = 0, pretend = 0, frame = 0
 721              		@ frame_needed = 0, uses_anonymous_args = 0
 722              		@ link register save eliminated.
 116:Middlewares/LVGL/GUI/lvgl/src/extra/widgets/tileview/lv_tileview.c ****     return tv->tile_act;
 723              		.loc 1 116 5 view .LVU196
 117:Middlewares/LVGL/GUI/lvgl/src/extra/widgets/tileview/lv_tileview.c **** }
 724              		.loc 1 117 5 view .LVU197
 118:Middlewares/LVGL/GUI/lvgl/src/extra/widgets/tileview/lv_tileview.c **** 
 725              		.loc 1 118 1 is_stmt 0 view .LVU198
 726 0000 C06A     		ldr	r0, [r0, #44]
 727              	.LVL98:
 118:Middlewares/LVGL/GUI/lvgl/src/extra/widgets/tileview/lv_tileview.c **** 
 728              		.loc 1 118 1 view .LVU199
 729 0002 7047     		bx	lr
 730              		.cfi_endproc
 731              	.LFE157:
 733              		.global	lv_tileview_tile_class
 734              		.global	lv_tileview_class
 735              		.section	.bss.create_col_id,"aw",%nobits
 736              		.align	2
 737              		.set	.LANCHOR0,. + 0
ARM GAS  C:\Users\ADMINI~1\AppData\Local\Temp\ccdXEc22.s 			page 20


 740              	create_col_id:
 741 0000 00000000 		.space	4
 742              		.section	.bss.create_dir,"aw",%nobits
 743              		.set	.LANCHOR2,. + 0
 746              	create_dir:
 747 0000 00       		.space	1
 748              		.section	.bss.create_row_id,"aw",%nobits
 749              		.align	2
 750              		.set	.LANCHOR1,. + 0
 753              	create_row_id:
 754 0000 00000000 		.space	4
 755              		.section	.rodata.lv_tileview_class,"a"
 756              		.align	2
 757              		.set	.LANCHOR3,. + 0
 760              	lv_tileview_class:
 761 0000 00000000 		.word	lv_obj_class
 762 0004 00000000 		.word	lv_tileview_constructor
 763 0008 00000000 		.space	20
 763      00000000 
 763      00000000 
 763      00000000 
 763      00000000 
 764 001c 00       		.byte	0
 765 001d 03       		.byte	3
 766 001e 00       		.byte	0
 767 001f 00       		.space	1
 768              		.section	.rodata.lv_tileview_tile_class,"a"
 769              		.align	2
 770              		.set	.LANCHOR4,. + 0
 773              	lv_tileview_tile_class:
 774 0000 00000000 		.word	lv_obj_class
 775 0004 00000000 		.word	lv_tileview_tile_constructor
 776 0008 00000000 		.space	20
 776      00000000 
 776      00000000 
 776      00000000 
 776      00000000 
 777 001c 00       		.byte	0
 778 001d 03       		.byte	3
 779 001e 00       		.byte	0
 780 001f 00       		.space	1
 781              		.text
 782              	.Letext0:
 783              		.file 2 "c:\\gnu arm embedded toolchain\\10 2021.10\\arm-none-eabi\\include\\machine\\_default_typ
 784              		.file 3 "c:\\gnu arm embedded toolchain\\10 2021.10\\arm-none-eabi\\include\\sys\\_stdint.h"
 785              		.file 4 "Middlewares/LVGL/GUI/lvgl/src/extra/widgets/tileview/../../../core/../misc/../font/../mis
 786              		.file 5 "Middlewares/LVGL/GUI/lvgl/src/extra/widgets/tileview/../../../core/../misc/lv_color.h"
 787              		.file 6 "Middlewares/LVGL/GUI/lvgl/src/extra/widgets/tileview/../../../core/../misc/lv_anim.h"
 788              		.file 7 "Middlewares/LVGL/GUI/lvgl/src/extra/widgets/tileview/../../../core/../misc/lv_style.h"
 789              		.file 8 "Middlewares/LVGL/GUI/lvgl/src/extra/widgets/tileview/../../../core/lv_obj.h"
 790              		.file 9 "Middlewares/LVGL/GUI/lvgl/src/extra/widgets/tileview/../../../core/../hal/../misc/lv_ll.h
 791              		.file 10 "Middlewares/LVGL/GUI/lvgl/src/extra/widgets/tileview/../../../core/lv_group.h"
 792              		.file 11 "Middlewares/LVGL/GUI/lvgl/src/extra/widgets/tileview/../../../core/lv_obj_scroll.h"
 793              		.file 12 "Middlewares/LVGL/GUI/lvgl/src/extra/widgets/tileview/../../../core/lv_obj_style.h"
 794              		.file 13 "Middlewares/LVGL/GUI/lvgl/src/extra/widgets/tileview/../../../core/lv_obj_class.h"
 795              		.file 14 "Middlewares/LVGL/GUI/lvgl/src/extra/widgets/tileview/../../../core/lv_event.h"
 796              		.file 15 "Middlewares/LVGL/GUI/lvgl/src/extra/widgets/tileview/lv_tileview.h"
ARM GAS  C:\Users\ADMINI~1\AppData\Local\Temp\ccdXEc22.s 			page 21


 797              		.file 16 "Middlewares/LVGL/GUI/lvgl/src/extra/widgets/tileview/../../../core/lv_obj_tree.h"
 798              		.file 17 "Middlewares/LVGL/GUI/lvgl/src/extra/widgets/tileview/../../../core/../hal/../draw/sw/../
ARM GAS  C:\Users\ADMINI~1\AppData\Local\Temp\ccdXEc22.s 			page 22

